   1              		.file	"e51.c"
   2              		.option nopic
   3              		.attribute arch, "rv64i2p0_m2p0_a2p0_f2p0_d2p0_c2p0"
   4              		.attribute unaligned_access, 0
   5              		.attribute stack_align, 16
   6              		.text
   7              	.Ltext0:
   8              		.cfi_sections	.debug_frame
   9              		.section	.text.raise_soft_interrupt,"ax",@progbits
  10              		.align	1
  12              	raise_soft_interrupt:
  13              	.LFB4:
  14              		.file 1 "/home/vinay/Desktop/softconsole_watershed/Water-shed/src/platform/mpfs_hal/common/mss_cli
   1:/home/vinay/Desktop/softconsole_watershed/Water-shed/src/platform/mpfs_hal/common/mss_clint.h **** /*******************************************************************************
   2:/home/vinay/Desktop/softconsole_watershed/Water-shed/src/platform/mpfs_hal/common/mss_clint.h ****  * Copyright 2019-2022 Microchip FPGA Embedded Systems Solutions.
   3:/home/vinay/Desktop/softconsole_watershed/Water-shed/src/platform/mpfs_hal/common/mss_clint.h ****  *
   4:/home/vinay/Desktop/softconsole_watershed/Water-shed/src/platform/mpfs_hal/common/mss_clint.h ****  * SPDX-License-Identifier: MIT
   5:/home/vinay/Desktop/softconsole_watershed/Water-shed/src/platform/mpfs_hal/common/mss_clint.h ****  *
   6:/home/vinay/Desktop/softconsole_watershed/Water-shed/src/platform/mpfs_hal/common/mss_clint.h ****  * MPFS HAL Embedded Software
   7:/home/vinay/Desktop/softconsole_watershed/Water-shed/src/platform/mpfs_hal/common/mss_clint.h ****  *
   8:/home/vinay/Desktop/softconsole_watershed/Water-shed/src/platform/mpfs_hal/common/mss_clint.h ****  */
   9:/home/vinay/Desktop/softconsole_watershed/Water-shed/src/platform/mpfs_hal/common/mss_clint.h **** 
  10:/home/vinay/Desktop/softconsole_watershed/Water-shed/src/platform/mpfs_hal/common/mss_clint.h **** /*******************************************************************************
  11:/home/vinay/Desktop/softconsole_watershed/Water-shed/src/platform/mpfs_hal/common/mss_clint.h ****  *
  12:/home/vinay/Desktop/softconsole_watershed/Water-shed/src/platform/mpfs_hal/common/mss_clint.h ****  * @file mss_clint.h
  13:/home/vinay/Desktop/softconsole_watershed/Water-shed/src/platform/mpfs_hal/common/mss_clint.h ****  * @author Microchip-FPGA Embedded Systems Solutions
  14:/home/vinay/Desktop/softconsole_watershed/Water-shed/src/platform/mpfs_hal/common/mss_clint.h ****  * @brief CLINT access data structures and functions.
  15:/home/vinay/Desktop/softconsole_watershed/Water-shed/src/platform/mpfs_hal/common/mss_clint.h ****  *
  16:/home/vinay/Desktop/softconsole_watershed/Water-shed/src/platform/mpfs_hal/common/mss_clint.h ****  */
  17:/home/vinay/Desktop/softconsole_watershed/Water-shed/src/platform/mpfs_hal/common/mss_clint.h **** #ifndef MSS_CLINT_H
  18:/home/vinay/Desktop/softconsole_watershed/Water-shed/src/platform/mpfs_hal/common/mss_clint.h **** #define MSS_CLINT_H
  19:/home/vinay/Desktop/softconsole_watershed/Water-shed/src/platform/mpfs_hal/common/mss_clint.h **** 
  20:/home/vinay/Desktop/softconsole_watershed/Water-shed/src/platform/mpfs_hal/common/mss_clint.h **** #include <stdint.h>
  21:/home/vinay/Desktop/softconsole_watershed/Water-shed/src/platform/mpfs_hal/common/mss_clint.h **** #include "encoding.h"
  22:/home/vinay/Desktop/softconsole_watershed/Water-shed/src/platform/mpfs_hal/common/mss_clint.h **** #include "atomic.h"
  23:/home/vinay/Desktop/softconsole_watershed/Water-shed/src/platform/mpfs_hal/common/mss_clint.h **** 
  24:/home/vinay/Desktop/softconsole_watershed/Water-shed/src/platform/mpfs_hal/common/mss_clint.h **** #ifdef __cplusplus
  25:/home/vinay/Desktop/softconsole_watershed/Water-shed/src/platform/mpfs_hal/common/mss_clint.h **** extern "C" {
  26:/home/vinay/Desktop/softconsole_watershed/Water-shed/src/platform/mpfs_hal/common/mss_clint.h **** #endif
  27:/home/vinay/Desktop/softconsole_watershed/Water-shed/src/platform/mpfs_hal/common/mss_clint.h **** 
  28:/home/vinay/Desktop/softconsole_watershed/Water-shed/src/platform/mpfs_hal/common/mss_clint.h **** #define RTC_PRESCALER 100U
  29:/home/vinay/Desktop/softconsole_watershed/Water-shed/src/platform/mpfs_hal/common/mss_clint.h **** #define SUCCESS 0U
  30:/home/vinay/Desktop/softconsole_watershed/Water-shed/src/platform/mpfs_hal/common/mss_clint.h **** #define ERROR   1U
  31:/home/vinay/Desktop/softconsole_watershed/Water-shed/src/platform/mpfs_hal/common/mss_clint.h **** 
  32:/home/vinay/Desktop/softconsole_watershed/Water-shed/src/platform/mpfs_hal/common/mss_clint.h **** 
  33:/home/vinay/Desktop/softconsole_watershed/Water-shed/src/platform/mpfs_hal/common/mss_clint.h **** /*==============================================================================
  34:/home/vinay/Desktop/softconsole_watershed/Water-shed/src/platform/mpfs_hal/common/mss_clint.h ****  * CLINT: Core Local Interrupter
  35:/home/vinay/Desktop/softconsole_watershed/Water-shed/src/platform/mpfs_hal/common/mss_clint.h ****  */
  36:/home/vinay/Desktop/softconsole_watershed/Water-shed/src/platform/mpfs_hal/common/mss_clint.h **** typedef struct CLINT_Type_t
  37:/home/vinay/Desktop/softconsole_watershed/Water-shed/src/platform/mpfs_hal/common/mss_clint.h **** {
  38:/home/vinay/Desktop/softconsole_watershed/Water-shed/src/platform/mpfs_hal/common/mss_clint.h ****     volatile uint32_t MSIP[5];
  39:/home/vinay/Desktop/softconsole_watershed/Water-shed/src/platform/mpfs_hal/common/mss_clint.h ****     volatile uint32_t reserved1[(0x4000U - 0x14U)/4U];
  40:/home/vinay/Desktop/softconsole_watershed/Water-shed/src/platform/mpfs_hal/common/mss_clint.h ****     volatile uint64_t MTIMECMP[5];  /* mtime compare value for each hart. When mtime equals this va
  41:/home/vinay/Desktop/softconsole_watershed/Water-shed/src/platform/mpfs_hal/common/mss_clint.h ****     volatile uint32_t reserved2[((0xbff8U - 0x4028U)/4U)];
  42:/home/vinay/Desktop/softconsole_watershed/Water-shed/src/platform/mpfs_hal/common/mss_clint.h ****     volatile uint64_t MTIME;    /* contains the current mtime value */
  43:/home/vinay/Desktop/softconsole_watershed/Water-shed/src/platform/mpfs_hal/common/mss_clint.h **** } CLINT_Type;
  44:/home/vinay/Desktop/softconsole_watershed/Water-shed/src/platform/mpfs_hal/common/mss_clint.h **** 
  45:/home/vinay/Desktop/softconsole_watershed/Water-shed/src/platform/mpfs_hal/common/mss_clint.h **** #define CLINT    ((CLINT_Type *)CLINT_BASE)
  46:/home/vinay/Desktop/softconsole_watershed/Water-shed/src/platform/mpfs_hal/common/mss_clint.h **** 
  47:/home/vinay/Desktop/softconsole_watershed/Water-shed/src/platform/mpfs_hal/common/mss_clint.h **** 
  48:/home/vinay/Desktop/softconsole_watershed/Water-shed/src/platform/mpfs_hal/common/mss_clint.h **** /*==============================================================================
  49:/home/vinay/Desktop/softconsole_watershed/Water-shed/src/platform/mpfs_hal/common/mss_clint.h ****  * The function raise_soft_interrupt() raises a synchronous software interrupt by
  50:/home/vinay/Desktop/softconsole_watershed/Water-shed/src/platform/mpfs_hal/common/mss_clint.h ****  * writing into the MSIP register.
  51:/home/vinay/Desktop/softconsole_watershed/Water-shed/src/platform/mpfs_hal/common/mss_clint.h ****  */
  52:/home/vinay/Desktop/softconsole_watershed/Water-shed/src/platform/mpfs_hal/common/mss_clint.h **** static inline void raise_soft_interrupt(unsigned long hart_id)
  53:/home/vinay/Desktop/softconsole_watershed/Water-shed/src/platform/mpfs_hal/common/mss_clint.h **** {
  15              		.loc 1 53 1
  16              		.cfi_startproc
  17 0000 0111     		addi	sp,sp,-32
  18              		.cfi_def_cfa_offset 32
  19 0002 22EC     		sd	s0,24(sp)
  20              		.cfi_offset 8, -8
  21 0004 0010     		addi	s0,sp,32
  22              		.cfi_def_cfa 8, 0
  23 0006 2334A4FE 		sd	a0,-24(s0)
  54:/home/vinay/Desktop/softconsole_watershed/Water-shed/src/platform/mpfs_hal/common/mss_clint.h ****     /*You need to make sure that the global interrupt is enabled*/
  55:/home/vinay/Desktop/softconsole_watershed/Water-shed/src/platform/mpfs_hal/common/mss_clint.h ****     /*Note:  set_csr(mie, MIP_MSIP) needs to be set on hart you are setting sw interrupt */
  56:/home/vinay/Desktop/softconsole_watershed/Water-shed/src/platform/mpfs_hal/common/mss_clint.h ****     CLINT->MSIP[hart_id] = 0x01U;   /*raise soft interrupt for hart(x) where x== hart ID*/
  24              		.loc 1 56 10
  25 000a 37070002 		li	a4,33554432
  26              		.loc 1 56 26
  27 000e 833784FE 		ld	a5,-24(s0)
  28 0012 8A07     		slli	a5,a5,2
  29 0014 BA97     		add	a5,a4,a5
  30 0016 0547     		li	a4,1
  31 0018 98C3     		sw	a4,0(a5)
  57:/home/vinay/Desktop/softconsole_watershed/Water-shed/src/platform/mpfs_hal/common/mss_clint.h ****     mb();
  32              		.loc 1 57 5
  33              	 #APP
  34              	# 57 "/home/vinay/Desktop/softconsole_watershed/Water-shed/src/platform/mpfs_hal/common/mss_clint.h
  58              	}
  35              		fence
  36              	# 0 "" 2
  37              		.loc 1 58 1
  38              	 #NO_APP
  39 001e 0100     		nop
  40 0020 6264     		ld	s0,24(sp)
  41              		.cfi_restore 8
  42              		.cfi_def_cfa 2, 32
  43 0022 0561     		addi	sp,sp,32
  44              		.cfi_def_cfa_offset 0
  45 0024 8280     		jr	ra
  46              		.cfi_endproc
  47              	.LFE4:
  49              		.section	.text.clear_soft_interrupt,"ax",@progbits
  50              		.align	1
  52              	clear_soft_interrupt:
  53              	.LFB5:
  59:/home/vinay/Desktop/softconsole_watershed/Water-shed/src/platform/mpfs_hal/common/mss_clint.h **** 
  60:/home/vinay/Desktop/softconsole_watershed/Water-shed/src/platform/mpfs_hal/common/mss_clint.h **** /*==============================================================================
  61:/home/vinay/Desktop/softconsole_watershed/Water-shed/src/platform/mpfs_hal/common/mss_clint.h ****  * The function clear_soft_interrupt() clears a synchronous software interrupt by
  62:/home/vinay/Desktop/softconsole_watershed/Water-shed/src/platform/mpfs_hal/common/mss_clint.h ****  * clearing the MSIP register.
  63:/home/vinay/Desktop/softconsole_watershed/Water-shed/src/platform/mpfs_hal/common/mss_clint.h ****  */
  64:/home/vinay/Desktop/softconsole_watershed/Water-shed/src/platform/mpfs_hal/common/mss_clint.h **** static inline void clear_soft_interrupt(void)
  65:/home/vinay/Desktop/softconsole_watershed/Water-shed/src/platform/mpfs_hal/common/mss_clint.h **** {
  54              		.loc 1 65 1
  55              		.cfi_startproc
  56 0000 7971     		addi	sp,sp,-48
  57              		.cfi_def_cfa_offset 48
  58 0002 22F4     		sd	s0,40(sp)
  59              		.cfi_offset 8, -8
  60 0004 0018     		addi	s0,sp,48
  61              		.cfi_def_cfa 8, 0
  62              	.LBB2:
  66:/home/vinay/Desktop/softconsole_watershed/Water-shed/src/platform/mpfs_hal/common/mss_clint.h ****     volatile uint32_t reg;
  67:/home/vinay/Desktop/softconsole_watershed/Water-shed/src/platform/mpfs_hal/common/mss_clint.h ****     uint64_t hart_id = read_csr(mhartid);
  63              		.loc 1 67 24
  64              	 #APP
  65              	# 67 "/home/vinay/Desktop/softconsole_watershed/Water-shed/src/platform/mpfs_hal/common/mss_clint.h
  68              	    CLINT->MSIP[hart_id] = 0x00U;   /*clear soft interrupt for hart0*/
  66              		csrr a5, mhartid
  67              	# 0 "" 2
  68              	 #NO_APP
  69 000a 2334F4FE 		sd	a5,-24(s0)
  70 000e 833784FE 		ld	a5,-24(s0)
  71              	.LBE2:
  67:/home/vinay/Desktop/softconsole_watershed/Water-shed/src/platform/mpfs_hal/common/mss_clint.h ****     uint64_t hart_id = read_csr(mhartid);
  72              		.loc 1 67 14
  73 0012 2330F4FE 		sd	a5,-32(s0)
  74              		.loc 1 68 10
  75 0016 37070002 		li	a4,33554432
  76              		.loc 1 68 26
  77 001a 833704FE 		ld	a5,-32(s0)
  78 001e 8A07     		slli	a5,a5,2
  79 0020 BA97     		add	a5,a4,a5
  80 0022 23A00700 		sw	zero,0(a5)
  69:/home/vinay/Desktop/softconsole_watershed/Water-shed/src/platform/mpfs_hal/common/mss_clint.h ****     reg = CLINT->MSIP[hart_id];     /* we read back to make sure it has been written before moving 
  81              		.loc 1 69 16
  82 0026 37070002 		li	a4,33554432
  83              		.loc 1 69 22
  84 002a 833704FE 		ld	a5,-32(s0)
  85 002e 8A07     		slli	a5,a5,2
  86 0030 BA97     		add	a5,a4,a5
  87 0032 9C43     		lw	a5,0(a5)
  88 0034 8127     		sext.w	a5,a5
  89              		.loc 1 69 9
  90 0036 232EF4FC 		sw	a5,-36(s0)
  70:/home/vinay/Desktop/softconsole_watershed/Water-shed/src/platform/mpfs_hal/common/mss_clint.h ****                                     /* todo: verify line above guaranteed and best way to achieve r
  71:/home/vinay/Desktop/softconsole_watershed/Water-shed/src/platform/mpfs_hal/common/mss_clint.h ****     (void)reg;                      /* use reg to avoid compiler warning */
  91              		.loc 1 71 5
  92 003a 8327C4FD 		lw	a5,-36(s0)
  72:/home/vinay/Desktop/softconsole_watershed/Water-shed/src/platform/mpfs_hal/common/mss_clint.h **** }
  93              		.loc 1 72 1
  94 003e 0100     		nop
  95 0040 2274     		ld	s0,40(sp)
  96              		.cfi_restore 8
  97              		.cfi_def_cfa 2, 48
  98 0042 4561     		addi	sp,sp,48
  99              		.cfi_def_cfa_offset 0
 100 0044 8280     		jr	ra
 101              		.cfi_endproc
 102              	.LFE5:
 104              		.globl	count_sw_ints_h0
 105              		.section	.sbss.count_sw_ints_h0,"aw",@nobits
 106              		.align	2
 109              	count_sw_ints_h0:
 110 0000 00000000 		.zero	4
 111              		.globl	g_info_string
 112              		.section	.rodata.g_info_string,"a"
 113              		.align	3
 116              	g_info_string:
 117 0000 200D0A0D 		.string	" \r\n\r\n---------------------------------------------------------------------\r\n\r\n Pl
 117      0A2D2D2D 
 117      2D2D2D2D 
 117      2D2D2D2D 
 117      2D2D2D2D 
 118              		.section	.text.e51,"ax",@progbits
 119              		.align	1
 120              		.globl	e51
 122              	e51:
 123              	.LFB23:
 124              		.file 2 "../src/application/hart0/e51.c"
   1:../src/application/hart0/e51.c **** /*******************************************************************************
   2:../src/application/hart0/e51.c ****  * Copyright 2019-2022 Microchip FPGA Embedded Systems Solutions.
   3:../src/application/hart0/e51.c ****  *
   4:../src/application/hart0/e51.c ****  * SPDX-License-Identifier: MIT
   5:../src/application/hart0/e51.c ****  *
   6:../src/application/hart0/e51.c ****  * Application code running on e51
   7:../src/application/hart0/e51.c ****  *
   8:../src/application/hart0/e51.c ****  */
   9:../src/application/hart0/e51.c **** 
  10:../src/application/hart0/e51.c **** #include <stdio.h>
  11:../src/application/hart0/e51.c **** #include <string.h>
  12:../src/application/hart0/e51.c **** #include "mpfs_hal/mss_hal.h"
  13:../src/application/hart0/e51.c **** #include "drivers/mss/mss_mmuart/mss_uart.h"
  14:../src/application/hart0/e51.c **** 
  15:../src/application/hart0/e51.c **** volatile uint32_t count_sw_ints_h0 = 0U;
  16:../src/application/hart0/e51.c **** 
  17:../src/application/hart0/e51.c **** const uint8_t g_info_string[] =
  18:../src/application/hart0/e51.c ****         " \r\n\r\n------------------------------------\
  19:../src/application/hart0/e51.c **** ---------------------------------\r\n\r\n\
  20:../src/application/hart0/e51.c ****  Please observe UART1, as application is using UART1 as \
  21:../src/application/hart0/e51.c ****  User-Interface\r\n\r\n--------------------------------\
  22:../src/application/hart0/e51.c **** -------------------------------------\r\n";
  23:../src/application/hart0/e51.c **** 
  24:../src/application/hart0/e51.c **** /* Main function for the hart0(e51 processor).
  25:../src/application/hart0/e51.c ****  * Application code running on hart0 is placed here
  26:../src/application/hart0/e51.c ****  */
  27:../src/application/hart0/e51.c **** 
  28:../src/application/hart0/e51.c **** void e51(void)
  29:../src/application/hart0/e51.c **** {
 125              		.loc 2 29 1
 126              		.cfi_startproc
 127 0000 3971     		addi	sp,sp,-64
 128              		.cfi_def_cfa_offset 64
 129 0002 06FC     		sd	ra,56(sp)
 130 0004 22F8     		sd	s0,48(sp)
 131              		.cfi_offset 1, -8
 132              		.cfi_offset 8, -16
 133 0006 8000     		addi	s0,sp,64
 134              		.cfi_def_cfa 8, 0
  30:../src/application/hart0/e51.c ****     volatile uint32_t icount = 0U;
 135              		.loc 2 30 23
 136 0008 232604FC 		sw	zero,-52(s0)
 137              	.LBB3:
  31:../src/application/hart0/e51.c ****     uint64_t hartid = read_csr(mhartid);
 138              		.loc 2 31 23
 139              	 #APP
 140              	# 31 "../src/application/hart0/e51.c" 1
  32              	    uint32_t pattern_offset = 12U;
 141              		csrr a5, mhartid
 142              	# 0 "" 2
 143              	 #NO_APP
 144 0010 2334F4FE 		sd	a5,-24(s0)
 145 0014 833784FE 		ld	a5,-24(s0)
 146              	.LBE3:
  31:../src/application/hart0/e51.c ****     uint64_t hartid = read_csr(mhartid);
 147              		.loc 2 31 14
 148 0018 2330F4FE 		sd	a5,-32(s0)
 149              		.loc 2 32 14
 150 001c B147     		li	a5,12
 151 001e 232EF4FC 		sw	a5,-36(s0)
  33:../src/application/hart0/e51.c **** 
  34:../src/application/hart0/e51.c **** 
  35:../src/application/hart0/e51.c ****     (void)mss_config_clk_rst(MSS_PERIPH_MMUART0, (uint8_t) MPFS_HAL_FIRST_HART, PERIPHERAL_ON);
 152              		.loc 2 35 11
 153 0022 0146     		li	a2,0
 154 0024 8145     		li	a1,0
 155 0026 0145     		li	a0,0
 156 0028 97000000 		call	mss_config_clk_rst
 156      E7800000 
  36:../src/application/hart0/e51.c **** 
  37:../src/application/hart0/e51.c **** 
  38:../src/application/hart0/e51.c ****     MSS_UART_init( &g_mss_uart0_lo,
 157              		.loc 2 38 5
 158 0030 0D46     		li	a2,3
 159 0032 F167     		li	a5,114688
 160 0034 93850720 		addi	a1,a5,512
 161 0038 17050000 		lla	a0,g_mss_uart0_lo
 161      13050500 
 162 0040 97000000 		call	MSS_UART_init
 162      E7800000 
  39:../src/application/hart0/e51.c ****             MSS_UART_115200_BAUD,
  40:../src/application/hart0/e51.c ****             MSS_UART_DATA_8_BITS | MSS_UART_NO_PARITY | MSS_UART_ONE_STOP_BIT);
  41:../src/application/hart0/e51.c **** 
  42:../src/application/hart0/e51.c ****     MSS_UART_polled_tx_string(&g_mss_uart0_lo, g_info_string);
 163              		.loc 2 42 5
 164 0048 97050000 		lla	a1,g_info_string
 164      93850500 
 165 0050 17050000 		lla	a0,g_mss_uart0_lo
 165      13050500 
 166 0058 97000000 		call	MSS_UART_polled_tx_string
 166      E7800000 
  43:../src/application/hart0/e51.c **** 
  44:../src/application/hart0/e51.c **** 
  45:../src/application/hart0/e51.c **** #if (IMAGE_LOADED_BY_BOOTLOADER == 0)
  46:../src/application/hart0/e51.c **** 
  47:../src/application/hart0/e51.c ****     /* Clear pending software interrupt in case there was any. */
  48:../src/application/hart0/e51.c ****     clear_soft_interrupt();
 167              		.loc 2 48 5
 168 0060 97000000 		call	clear_soft_interrupt
 168      E7800000 
 169              	.LBB4:
  49:../src/application/hart0/e51.c ****     set_csr(mie, MIP_MSIP);
 170              		.loc 2 49 5
 171              	 #APP
 172              	# 49 "../src/application/hart0/e51.c" 1
  50              	
 173              		csrrs a5, mie, 8
 174              	# 0 "" 2
 175              	 #NO_APP
 176 006c 2338F4FC 		sd	a5,-48(s0)
 177              	.LBE4:
  51:../src/application/hart0/e51.c ****     /* Raise software interrupt to wake hart 1 */
  52:../src/application/hart0/e51.c ****     raise_soft_interrupt(1U);
 178              		.loc 2 52 5
 179 0070 0545     		li	a0,1
 180 0072 97000000 		call	raise_soft_interrupt
 180      E7800000 
  53:../src/application/hart0/e51.c **** 
  54:../src/application/hart0/e51.c ****     __enable_irq();
 181              		.loc 2 54 5
 182 007a 97000000 		call	__enable_irq
 182      E7800000 
 183              	.L5:
  55:../src/application/hart0/e51.c **** #endif
  56:../src/application/hart0/e51.c **** 
  57:../src/application/hart0/e51.c ****     while (1U)
  58:../src/application/hart0/e51.c ****     {
  59:../src/application/hart0/e51.c ****         icount++;
 184              		.loc 2 59 15
 185 0082 8327C4FC 		lw	a5,-52(s0)
 186 0086 8127     		sext.w	a5,a5
 187 0088 8527     		addiw	a5,a5,1
 188 008a 8127     		sext.w	a5,a5
 189 008c 2326F4FC 		sw	a5,-52(s0)
  60:../src/application/hart0/e51.c **** 
  61:../src/application/hart0/e51.c ****         if (0x100000U == icount)
 190              		.loc 2 61 23
 191 0090 8327C4FC 		lw	a5,-52(s0)
 192 0094 8127     		sext.w	a5,a5
 193              		.loc 2 61 12
 194 0096 3E87     		mv	a4,a5
 195 0098 B7071000 		li	a5,1048576
 196 009c E313F7FE 		bne	a4,a5,.L5
  62:../src/application/hart0/e51.c ****         {
  63:../src/application/hart0/e51.c ****             icount = 0U;
 197              		.loc 2 63 20
 198 00a0 232604FC 		sw	zero,-52(s0)
  59:../src/application/hart0/e51.c **** 
 199              		.loc 2 59 15
 200 00a4 F9BF     		j	.L5
 201              		.cfi_endproc
 202              	.LFE23:
 204              		.section	.text.E51_software_IRQHandler,"ax",@progbits
 205              		.align	1
 206              		.globl	E51_software_IRQHandler
 208              	E51_software_IRQHandler:
 209              	.LFB24:
  64:../src/application/hart0/e51.c ****         }
  65:../src/application/hart0/e51.c ****     }
  66:../src/application/hart0/e51.c ****     /* never return */
  67:../src/application/hart0/e51.c **** }
  68:../src/application/hart0/e51.c **** 
  69:../src/application/hart0/e51.c **** /* hart0 software interrupt handler */
  70:../src/application/hart0/e51.c **** void Software_h0_IRQHandler(void)
  71:../src/application/hart0/e51.c **** {
 210              		.loc 2 71 1
 211              		.cfi_startproc
 212 0000 0111     		addi	sp,sp,-32
 213              		.cfi_def_cfa_offset 32
 214 0002 22EC     		sd	s0,24(sp)
 215              		.cfi_offset 8, -8
 216 0004 0010     		addi	s0,sp,32
 217              		.cfi_def_cfa 8, 0
 218              	.LBB5:
  72:../src/application/hart0/e51.c ****     uint64_t hart_id = read_csr(mhartid);
 219              		.loc 2 72 24
 220              	 #APP
 221              	# 72 "../src/application/hart0/e51.c" 1
  73              	    count_sw_ints_h0++;
 222              		csrr a5, mhartid
 223              	# 0 "" 2
 224              	 #NO_APP
 225 000a 2334F4FE 		sd	a5,-24(s0)
 226 000e 833784FE 		ld	a5,-24(s0)
 227              	.LBE5:
  72:../src/application/hart0/e51.c ****     uint64_t hart_id = read_csr(mhartid);
 228              		.loc 2 72 14
 229 0012 2330F4FE 		sd	a5,-32(s0)
 230              		.loc 2 73 21
 231 0016 97070000 		lla	a5,count_sw_ints_h0
 231      93870700 
 232 001e 9C43     		lw	a5,0(a5)
 233 0020 8127     		sext.w	a5,a5
 234 0022 8527     		addiw	a5,a5,1
 235 0024 1B870700 		sext.w	a4,a5
 236 0028 97070000 		lla	a5,count_sw_ints_h0
 236      93870700 
 237 0030 98C3     		sw	a4,0(a5)
  74:../src/application/hart0/e51.c **** }
 238              		.loc 2 74 1
 239 0032 0100     		nop
 240 0034 6264     		ld	s0,24(sp)
 241              		.cfi_restore 8
 242              		.cfi_def_cfa 2, 32
 243 0036 0561     		addi	sp,sp,32
 244              		.cfi_def_cfa_offset 0
 245 0038 8280     		jr	ra
 246              		.cfi_endproc
 247              	.LFE24:
 249              		.text
 250              	.Letext0:
 251              		.file 3 "/home/vinay/Desktop/soft_console/SoftConsole-v2022.2-RISC-V-747/riscv-unknown-elf-gcc/ris
 252              		.file 4 "/home/vinay/Desktop/soft_console/SoftConsole-v2022.2-RISC-V-747/riscv-unknown-elf-gcc/lib
 253              		.file 5 "/home/vinay/Desktop/soft_console/SoftConsole-v2022.2-RISC-V-747/riscv-unknown-elf-gcc/ris
 254              		.file 6 "/home/vinay/Desktop/soft_console/SoftConsole-v2022.2-RISC-V-747/riscv-unknown-elf-gcc/ris
 255              		.file 7 "/home/vinay/Desktop/soft_console/SoftConsole-v2022.2-RISC-V-747/riscv-unknown-elf-gcc/ris
 256              		.file 8 "/home/vinay/Desktop/soft_console/SoftConsole-v2022.2-RISC-V-747/riscv-unknown-elf-gcc/ris
 257              		.file 9 "/home/vinay/Desktop/softconsole_watershed/Water-shed/src/platform/mpfs_hal/common/nwc/mss
 258              		.file 10 "/home/vinay/Desktop/softconsole_watershed/Water-shed/src/platform/mpfs_hal/common/nwc/ms
 259              		.file 11 "/home/vinay/Desktop/softconsole_watershed/Water-shed/src/platform/mpfs_hal/common/nwc/ms
 260              		.file 12 "/home/vinay/Desktop/softconsole_watershed/Water-shed/src/platform/mpfs_hal/common/mss_mp
 261              		.file 13 "/home/vinay/Desktop/softconsole_watershed/Water-shed/src/platform/mpfs_hal/common/mss_pl
 262              		.file 14 "/home/vinay/Desktop/softconsole_watershed/Water-shed/src/platform/mpfs_hal/common/mss_pe
 263              		.file 15 "/home/vinay/Desktop/softconsole_watershed/Water-shed/src/platform/mpfs_hal/startup_gcc/s
 264              		.file 16 "/home/vinay/Desktop/softconsole_watershed/Water-shed/src/platform/drivers/mss/mss_mmuart