   1              		.file	"mss_mtrap.c"
   2              		.option nopic
   3              		.attribute arch, "rv64i2p0_m2p0_a2p0_f2p0_d2p0_c2p0"
   4              		.attribute unaligned_access, 0
   5              		.attribute stack_align, 16
   6              		.text
   7              	.Ltext0:
   8              		.cfi_sections	.debug_frame
   9              		.section	.text.PLIC_DisableIRQ,"ax",@progbits
  10              		.align	1
  12              	PLIC_DisableIRQ:
  13              	.LFB8:
  14              		.file 1 "/home/vinay/Desktop/softconsole_watershed/Water-shed/src/platform/mpfs_hal/common/mss_pli
   1:/home/vinay/Desktop/softconsole_watershed/Water-shed/src/platform/mpfs_hal/common/mss_plic.h **** /*******************************************************************************
   2:/home/vinay/Desktop/softconsole_watershed/Water-shed/src/platform/mpfs_hal/common/mss_plic.h ****  * Copyright 2019-2022 Microchip FPGA Embedded Systems Solutions.
   3:/home/vinay/Desktop/softconsole_watershed/Water-shed/src/platform/mpfs_hal/common/mss_plic.h ****  *
   4:/home/vinay/Desktop/softconsole_watershed/Water-shed/src/platform/mpfs_hal/common/mss_plic.h ****  * SPDX-License-Identifier: MIT
   5:/home/vinay/Desktop/softconsole_watershed/Water-shed/src/platform/mpfs_hal/common/mss_plic.h ****  *
   6:/home/vinay/Desktop/softconsole_watershed/Water-shed/src/platform/mpfs_hal/common/mss_plic.h ****  * MPFS HAL Embedded Software
   7:/home/vinay/Desktop/softconsole_watershed/Water-shed/src/platform/mpfs_hal/common/mss_plic.h ****  *
   8:/home/vinay/Desktop/softconsole_watershed/Water-shed/src/platform/mpfs_hal/common/mss_plic.h ****  */
   9:/home/vinay/Desktop/softconsole_watershed/Water-shed/src/platform/mpfs_hal/common/mss_plic.h **** 
  10:/home/vinay/Desktop/softconsole_watershed/Water-shed/src/platform/mpfs_hal/common/mss_plic.h **** /*******************************************************************************
  11:/home/vinay/Desktop/softconsole_watershed/Water-shed/src/platform/mpfs_hal/common/mss_plic.h ****  *
  12:/home/vinay/Desktop/softconsole_watershed/Water-shed/src/platform/mpfs_hal/common/mss_plic.h ****  * @file mss_plic.h
  13:/home/vinay/Desktop/softconsole_watershed/Water-shed/src/platform/mpfs_hal/common/mss_plic.h ****  * @author Microchip-FPGA Embedded Systems Solutions
  14:/home/vinay/Desktop/softconsole_watershed/Water-shed/src/platform/mpfs_hal/common/mss_plic.h ****  * @brief PolarFire SoC MSS PLIC and PRCI access data structures and functions.
  15:/home/vinay/Desktop/softconsole_watershed/Water-shed/src/platform/mpfs_hal/common/mss_plic.h ****  *
  16:/home/vinay/Desktop/softconsole_watershed/Water-shed/src/platform/mpfs_hal/common/mss_plic.h ****  * Definitions and functions associated with PLIC interrupts.
  17:/home/vinay/Desktop/softconsole_watershed/Water-shed/src/platform/mpfs_hal/common/mss_plic.h ****  *
  18:/home/vinay/Desktop/softconsole_watershed/Water-shed/src/platform/mpfs_hal/common/mss_plic.h ****  */
  19:/home/vinay/Desktop/softconsole_watershed/Water-shed/src/platform/mpfs_hal/common/mss_plic.h **** #ifndef MSS_PLIC_H
  20:/home/vinay/Desktop/softconsole_watershed/Water-shed/src/platform/mpfs_hal/common/mss_plic.h **** #define MSS_PLIC_H
  21:/home/vinay/Desktop/softconsole_watershed/Water-shed/src/platform/mpfs_hal/common/mss_plic.h **** 
  22:/home/vinay/Desktop/softconsole_watershed/Water-shed/src/platform/mpfs_hal/common/mss_plic.h **** #include <stdint.h>
  23:/home/vinay/Desktop/softconsole_watershed/Water-shed/src/platform/mpfs_hal/common/mss_plic.h **** #ifndef CONFIG_OPENSBI
  24:/home/vinay/Desktop/softconsole_watershed/Water-shed/src/platform/mpfs_hal/common/mss_plic.h **** #include "encoding.h"
  25:/home/vinay/Desktop/softconsole_watershed/Water-shed/src/platform/mpfs_hal/common/mss_plic.h **** #endif
  26:/home/vinay/Desktop/softconsole_watershed/Water-shed/src/platform/mpfs_hal/common/mss_plic.h **** 
  27:/home/vinay/Desktop/softconsole_watershed/Water-shed/src/platform/mpfs_hal/common/mss_plic.h **** #include "mss_legacy_defines.h"
  28:/home/vinay/Desktop/softconsole_watershed/Water-shed/src/platform/mpfs_hal/common/mss_plic.h **** #include "mss_assert.h"
  29:/home/vinay/Desktop/softconsole_watershed/Water-shed/src/platform/mpfs_hal/common/mss_plic.h **** 
  30:/home/vinay/Desktop/softconsole_watershed/Water-shed/src/platform/mpfs_hal/common/mss_plic.h **** #ifdef __cplusplus
  31:/home/vinay/Desktop/softconsole_watershed/Water-shed/src/platform/mpfs_hal/common/mss_plic.h **** extern "C" {
  32:/home/vinay/Desktop/softconsole_watershed/Water-shed/src/platform/mpfs_hal/common/mss_plic.h **** #endif
  33:/home/vinay/Desktop/softconsole_watershed/Water-shed/src/platform/mpfs_hal/common/mss_plic.h **** 
  34:/home/vinay/Desktop/softconsole_watershed/Water-shed/src/platform/mpfs_hal/common/mss_plic.h **** /*
  35:/home/vinay/Desktop/softconsole_watershed/Water-shed/src/platform/mpfs_hal/common/mss_plic.h ****  *Return value from External IRQ handler. This will be used to disable the
  36:/home/vinay/Desktop/softconsole_watershed/Water-shed/src/platform/mpfs_hal/common/mss_plic.h ****  *Return External interrupt.
  37:/home/vinay/Desktop/softconsole_watershed/Water-shed/src/platform/mpfs_hal/common/mss_plic.h ****  */
  38:/home/vinay/Desktop/softconsole_watershed/Water-shed/src/platform/mpfs_hal/common/mss_plic.h **** #define EXT_IRQ_KEEP_ENABLED                                0U
  39:/home/vinay/Desktop/softconsole_watershed/Water-shed/src/platform/mpfs_hal/common/mss_plic.h **** #define EXT_IRQ_DISABLE                                     1U
  40:/home/vinay/Desktop/softconsole_watershed/Water-shed/src/platform/mpfs_hal/common/mss_plic.h **** 
  41:/home/vinay/Desktop/softconsole_watershed/Water-shed/src/platform/mpfs_hal/common/mss_plic.h **** /*------------------------------------------------------------------------------
  42:/home/vinay/Desktop/softconsole_watershed/Water-shed/src/platform/mpfs_hal/common/mss_plic.h ****  *
  43:/home/vinay/Desktop/softconsole_watershed/Water-shed/src/platform/mpfs_hal/common/mss_plic.h ****  */
  44:/home/vinay/Desktop/softconsole_watershed/Water-shed/src/platform/mpfs_hal/common/mss_plic.h **** uint8_t  PLIC_Invalid_IRQHandler(void);
  45:/home/vinay/Desktop/softconsole_watershed/Water-shed/src/platform/mpfs_hal/common/mss_plic.h **** uint8_t  PLIC_l2_metadata_corr_IRQHandler(void);
  46:/home/vinay/Desktop/softconsole_watershed/Water-shed/src/platform/mpfs_hal/common/mss_plic.h **** uint8_t  PLIC_l2_metadata_uncorr_IRQHandler(void);
  47:/home/vinay/Desktop/softconsole_watershed/Water-shed/src/platform/mpfs_hal/common/mss_plic.h **** uint8_t  PLIC_l2_data_corr_IRQHandler(void);
  48:/home/vinay/Desktop/softconsole_watershed/Water-shed/src/platform/mpfs_hal/common/mss_plic.h **** uint8_t  PLIC_l2_data_uncorr_IRQHandler(void);
  49:/home/vinay/Desktop/softconsole_watershed/Water-shed/src/platform/mpfs_hal/common/mss_plic.h **** uint8_t  PLIC_dma_ch0_DONE_IRQHandler(void);
  50:/home/vinay/Desktop/softconsole_watershed/Water-shed/src/platform/mpfs_hal/common/mss_plic.h **** uint8_t  PLIC_dma_ch0_ERR_IRQHandler(void);
  51:/home/vinay/Desktop/softconsole_watershed/Water-shed/src/platform/mpfs_hal/common/mss_plic.h **** uint8_t  PLIC_dma_ch1_DONE_IRQHandler(void);
  52:/home/vinay/Desktop/softconsole_watershed/Water-shed/src/platform/mpfs_hal/common/mss_plic.h **** uint8_t  PLIC_dma_ch1_ERR_IRQHandler(void);
  53:/home/vinay/Desktop/softconsole_watershed/Water-shed/src/platform/mpfs_hal/common/mss_plic.h **** uint8_t  PLIC_dma_ch2_DONE_IRQHandler(void);
  54:/home/vinay/Desktop/softconsole_watershed/Water-shed/src/platform/mpfs_hal/common/mss_plic.h **** uint8_t  PLIC_dma_ch2_ERR_IRQHandler(void);
  55:/home/vinay/Desktop/softconsole_watershed/Water-shed/src/platform/mpfs_hal/common/mss_plic.h **** uint8_t  PLIC_dma_ch3_DONE_IRQHandler(void);
  56:/home/vinay/Desktop/softconsole_watershed/Water-shed/src/platform/mpfs_hal/common/mss_plic.h **** uint8_t  PLIC_dma_ch3_ERR_IRQHandler(void);
  57:/home/vinay/Desktop/softconsole_watershed/Water-shed/src/platform/mpfs_hal/common/mss_plic.h **** uint8_t  PLIC_gpio0_bit0_or_gpio2_bit13_IRQHandler(void);
  58:/home/vinay/Desktop/softconsole_watershed/Water-shed/src/platform/mpfs_hal/common/mss_plic.h **** uint8_t  PLIC_gpio0_bit1_or_gpio2_bit13_IRQHandler(void);
  59:/home/vinay/Desktop/softconsole_watershed/Water-shed/src/platform/mpfs_hal/common/mss_plic.h **** uint8_t  PLIC_gpio0_bit2_or_gpio2_bit13_IRQHandler(void);
  60:/home/vinay/Desktop/softconsole_watershed/Water-shed/src/platform/mpfs_hal/common/mss_plic.h **** uint8_t  PLIC_gpio0_bit3_or_gpio2_bit13_IRQHandler(void);
  61:/home/vinay/Desktop/softconsole_watershed/Water-shed/src/platform/mpfs_hal/common/mss_plic.h **** uint8_t  PLIC_gpio0_bit4_or_gpio2_bit13_IRQHandler(void);
  62:/home/vinay/Desktop/softconsole_watershed/Water-shed/src/platform/mpfs_hal/common/mss_plic.h **** uint8_t  PLIC_gpio0_bit5_or_gpio2_bit13_IRQHandler(void);
  63:/home/vinay/Desktop/softconsole_watershed/Water-shed/src/platform/mpfs_hal/common/mss_plic.h **** uint8_t  PLIC_gpio0_bit6_or_gpio2_bit13_IRQHandler(void);
  64:/home/vinay/Desktop/softconsole_watershed/Water-shed/src/platform/mpfs_hal/common/mss_plic.h **** uint8_t  PLIC_gpio0_bit7_or_gpio2_bit13_IRQHandler(void);
  65:/home/vinay/Desktop/softconsole_watershed/Water-shed/src/platform/mpfs_hal/common/mss_plic.h **** uint8_t  PLIC_gpio0_bit8_or_gpio2_bit13_IRQHandler(void);
  66:/home/vinay/Desktop/softconsole_watershed/Water-shed/src/platform/mpfs_hal/common/mss_plic.h **** uint8_t  PLIC_gpio0_bit9_or_gpio2_bit13_IRQHandler(void);
  67:/home/vinay/Desktop/softconsole_watershed/Water-shed/src/platform/mpfs_hal/common/mss_plic.h **** uint8_t  PLIC_gpio0_bit10_or_gpio2_bit13_IRQHandler(void);
  68:/home/vinay/Desktop/softconsole_watershed/Water-shed/src/platform/mpfs_hal/common/mss_plic.h **** uint8_t  PLIC_gpio0_bit11_or_gpio2_bit13_IRQHandler(void);
  69:/home/vinay/Desktop/softconsole_watershed/Water-shed/src/platform/mpfs_hal/common/mss_plic.h **** uint8_t  PLIC_gpio0_bit12_or_gpio2_bit13_IRQHandler(void);
  70:/home/vinay/Desktop/softconsole_watershed/Water-shed/src/platform/mpfs_hal/common/mss_plic.h **** 
  71:/home/vinay/Desktop/softconsole_watershed/Water-shed/src/platform/mpfs_hal/common/mss_plic.h **** uint8_t  PLIC_gpio0_bit13_or_gpio2_bit13_IRQHandler(void);
  72:/home/vinay/Desktop/softconsole_watershed/Water-shed/src/platform/mpfs_hal/common/mss_plic.h **** uint8_t  PLIC_gpio1_bit0_or_gpio2_bit14_IRQHandler(void);
  73:/home/vinay/Desktop/softconsole_watershed/Water-shed/src/platform/mpfs_hal/common/mss_plic.h **** uint8_t  PLIC_gpio1_bit1_or_gpio2_bit15_IRQHandler(void);
  74:/home/vinay/Desktop/softconsole_watershed/Water-shed/src/platform/mpfs_hal/common/mss_plic.h **** uint8_t  PLIC_gpio1_bit2_or_gpio2_bit16_IRQHandler(void);
  75:/home/vinay/Desktop/softconsole_watershed/Water-shed/src/platform/mpfs_hal/common/mss_plic.h **** uint8_t  PLIC_gpio1_bit3_or_gpio2_bit17_IRQHandler(void);
  76:/home/vinay/Desktop/softconsole_watershed/Water-shed/src/platform/mpfs_hal/common/mss_plic.h **** uint8_t  PLIC_gpio1_bit4_or_gpio2_bit18_IRQHandler(void);
  77:/home/vinay/Desktop/softconsole_watershed/Water-shed/src/platform/mpfs_hal/common/mss_plic.h **** uint8_t  PLIC_gpio1_bit5_or_gpio2_bit19_IRQHandler(void);
  78:/home/vinay/Desktop/softconsole_watershed/Water-shed/src/platform/mpfs_hal/common/mss_plic.h **** uint8_t  PLIC_gpio1_bit6_or_gpio2_bit20_IRQHandler(void);
  79:/home/vinay/Desktop/softconsole_watershed/Water-shed/src/platform/mpfs_hal/common/mss_plic.h **** uint8_t  PLIC_gpio1_bit7_or_gpio2_bit21_IRQHandler(void);
  80:/home/vinay/Desktop/softconsole_watershed/Water-shed/src/platform/mpfs_hal/common/mss_plic.h **** uint8_t  PLIC_gpio1_bit8_or_gpio2_bit22_IRQHandler(void);
  81:/home/vinay/Desktop/softconsole_watershed/Water-shed/src/platform/mpfs_hal/common/mss_plic.h **** uint8_t  PLIC_gpio1_bit9_or_gpio2_bit23_IRQHandler(void);
  82:/home/vinay/Desktop/softconsole_watershed/Water-shed/src/platform/mpfs_hal/common/mss_plic.h **** uint8_t  PLIC_gpio1_bit10_or_gpio2_bit24_IRQHandler(void);
  83:/home/vinay/Desktop/softconsole_watershed/Water-shed/src/platform/mpfs_hal/common/mss_plic.h **** uint8_t  PLIC_gpio1_bit11_or_gpio2_bit25_IRQHandler(void);
  84:/home/vinay/Desktop/softconsole_watershed/Water-shed/src/platform/mpfs_hal/common/mss_plic.h **** uint8_t  PLIC_gpio1_bit12_or_gpio2_bit26_IRQHandler(void);
  85:/home/vinay/Desktop/softconsole_watershed/Water-shed/src/platform/mpfs_hal/common/mss_plic.h **** uint8_t  PLIC_gpio1_bit13_or_gpio2_bit27_IRQHandler(void);
  86:/home/vinay/Desktop/softconsole_watershed/Water-shed/src/platform/mpfs_hal/common/mss_plic.h **** 
  87:/home/vinay/Desktop/softconsole_watershed/Water-shed/src/platform/mpfs_hal/common/mss_plic.h **** uint8_t  PLIC_gpio1_bit14_or_gpio2_bit28_IRQHandler(void);
  88:/home/vinay/Desktop/softconsole_watershed/Water-shed/src/platform/mpfs_hal/common/mss_plic.h **** uint8_t  PLIC_gpio1_bit15_or_gpio2_bit29_IRQHandler(void);
  89:/home/vinay/Desktop/softconsole_watershed/Water-shed/src/platform/mpfs_hal/common/mss_plic.h **** uint8_t  PLIC_gpio1_bit16_or_gpio2_bit30_IRQHandler(void);
  90:/home/vinay/Desktop/softconsole_watershed/Water-shed/src/platform/mpfs_hal/common/mss_plic.h **** uint8_t  PLIC_gpio1_bit17_or_gpio2_bit31_IRQHandler(void);
  91:/home/vinay/Desktop/softconsole_watershed/Water-shed/src/platform/mpfs_hal/common/mss_plic.h **** 
  92:/home/vinay/Desktop/softconsole_watershed/Water-shed/src/platform/mpfs_hal/common/mss_plic.h **** uint8_t  PLIC_gpio1_bit18_IRQHandler(void);
  93:/home/vinay/Desktop/softconsole_watershed/Water-shed/src/platform/mpfs_hal/common/mss_plic.h **** uint8_t  PLIC_gpio1_bit19_IRQHandler(void);
  94:/home/vinay/Desktop/softconsole_watershed/Water-shed/src/platform/mpfs_hal/common/mss_plic.h **** uint8_t  PLIC_gpio1_bit20_IRQHandler(void);
  95:/home/vinay/Desktop/softconsole_watershed/Water-shed/src/platform/mpfs_hal/common/mss_plic.h **** uint8_t  PLIC_gpio1_bit21_IRQHandler(void);
  96:/home/vinay/Desktop/softconsole_watershed/Water-shed/src/platform/mpfs_hal/common/mss_plic.h **** uint8_t  PLIC_gpio1_bit22_IRQHandler(void);
  97:/home/vinay/Desktop/softconsole_watershed/Water-shed/src/platform/mpfs_hal/common/mss_plic.h **** uint8_t  PLIC_gpio1_bit23_IRQHandler(void);
  98:/home/vinay/Desktop/softconsole_watershed/Water-shed/src/platform/mpfs_hal/common/mss_plic.h **** 
  99:/home/vinay/Desktop/softconsole_watershed/Water-shed/src/platform/mpfs_hal/common/mss_plic.h **** uint8_t  PLIC_gpio0_non_direct_IRQHandler(void);
 100:/home/vinay/Desktop/softconsole_watershed/Water-shed/src/platform/mpfs_hal/common/mss_plic.h **** uint8_t  PLIC_gpio1_non_direct_IRQHandler(void);
 101:/home/vinay/Desktop/softconsole_watershed/Water-shed/src/platform/mpfs_hal/common/mss_plic.h **** uint8_t  PLIC_gpio2_non_direct_IRQHandler(void);
 102:/home/vinay/Desktop/softconsole_watershed/Water-shed/src/platform/mpfs_hal/common/mss_plic.h **** 
 103:/home/vinay/Desktop/softconsole_watershed/Water-shed/src/platform/mpfs_hal/common/mss_plic.h **** uint8_t  PLIC_spi0_IRQHandler(void);
 104:/home/vinay/Desktop/softconsole_watershed/Water-shed/src/platform/mpfs_hal/common/mss_plic.h **** uint8_t  PLIC_spi1_IRQHandler(void);
 105:/home/vinay/Desktop/softconsole_watershed/Water-shed/src/platform/mpfs_hal/common/mss_plic.h **** uint8_t  PLIC_external_can0_IRQHandler(void);
 106:/home/vinay/Desktop/softconsole_watershed/Water-shed/src/platform/mpfs_hal/common/mss_plic.h **** uint8_t  PLIC_can1_IRQHandler(void);
 107:/home/vinay/Desktop/softconsole_watershed/Water-shed/src/platform/mpfs_hal/common/mss_plic.h **** uint8_t  PLIC_External_i2c0_main_IRQHandler(void);
 108:/home/vinay/Desktop/softconsole_watershed/Water-shed/src/platform/mpfs_hal/common/mss_plic.h **** uint8_t  PLIC_External_i2c0_alert_IRQHandler(void);
 109:/home/vinay/Desktop/softconsole_watershed/Water-shed/src/platform/mpfs_hal/common/mss_plic.h **** uint8_t  PLIC_i2c0_sus_IRQHandler(void);
 110:/home/vinay/Desktop/softconsole_watershed/Water-shed/src/platform/mpfs_hal/common/mss_plic.h **** uint8_t  PLIC_i2c1_main_IRQHandler(void);
 111:/home/vinay/Desktop/softconsole_watershed/Water-shed/src/platform/mpfs_hal/common/mss_plic.h **** uint8_t  PLIC_i2c1_alert_IRQHandler(void);
 112:/home/vinay/Desktop/softconsole_watershed/Water-shed/src/platform/mpfs_hal/common/mss_plic.h **** uint8_t  PLIC_i2c1_sus_IRQHandler(void);
 113:/home/vinay/Desktop/softconsole_watershed/Water-shed/src/platform/mpfs_hal/common/mss_plic.h **** uint8_t  PLIC_mac0_int_IRQHandler(void);
 114:/home/vinay/Desktop/softconsole_watershed/Water-shed/src/platform/mpfs_hal/common/mss_plic.h **** uint8_t  PLIC_mac0_queue1_IRQHandler(void);
 115:/home/vinay/Desktop/softconsole_watershed/Water-shed/src/platform/mpfs_hal/common/mss_plic.h **** uint8_t  PLIC_mac0_queue2_IRQHandler(void);
 116:/home/vinay/Desktop/softconsole_watershed/Water-shed/src/platform/mpfs_hal/common/mss_plic.h **** uint8_t  PLIC_mac0_queue3_IRQHandler(void);
 117:/home/vinay/Desktop/softconsole_watershed/Water-shed/src/platform/mpfs_hal/common/mss_plic.h **** uint8_t  PLIC_mac0_emac_IRQHandler(void);
 118:/home/vinay/Desktop/softconsole_watershed/Water-shed/src/platform/mpfs_hal/common/mss_plic.h **** uint8_t  PLIC_mac0_mmsl_IRQHandler(void);
 119:/home/vinay/Desktop/softconsole_watershed/Water-shed/src/platform/mpfs_hal/common/mss_plic.h **** uint8_t  PLIC_mac1_int_IRQHandler(void);
 120:/home/vinay/Desktop/softconsole_watershed/Water-shed/src/platform/mpfs_hal/common/mss_plic.h **** uint8_t  PLIC_mac1_queue1_IRQHandler(void);
 121:/home/vinay/Desktop/softconsole_watershed/Water-shed/src/platform/mpfs_hal/common/mss_plic.h **** uint8_t  PLIC_mac1_queue2_IRQHandler(void);
 122:/home/vinay/Desktop/softconsole_watershed/Water-shed/src/platform/mpfs_hal/common/mss_plic.h **** uint8_t  PLIC_mac1_queue3_IRQHandler(void);
 123:/home/vinay/Desktop/softconsole_watershed/Water-shed/src/platform/mpfs_hal/common/mss_plic.h **** uint8_t  PLIC_mac1_emac_IRQHandler(void);
 124:/home/vinay/Desktop/softconsole_watershed/Water-shed/src/platform/mpfs_hal/common/mss_plic.h **** uint8_t  PLIC_mac1_mmsl_IRQHandler(void);
 125:/home/vinay/Desktop/softconsole_watershed/Water-shed/src/platform/mpfs_hal/common/mss_plic.h **** uint8_t  PLIC_ddrc_train_IRQHandler(void);
 126:/home/vinay/Desktop/softconsole_watershed/Water-shed/src/platform/mpfs_hal/common/mss_plic.h **** uint8_t  PLIC_scb_interrupt_IRQHandler(void);
 127:/home/vinay/Desktop/softconsole_watershed/Water-shed/src/platform/mpfs_hal/common/mss_plic.h **** uint8_t  PLIC_ecc_error_IRQHandler(void);
 128:/home/vinay/Desktop/softconsole_watershed/Water-shed/src/platform/mpfs_hal/common/mss_plic.h **** uint8_t  PLIC_ecc_correct_IRQHandler(void);
 129:/home/vinay/Desktop/softconsole_watershed/Water-shed/src/platform/mpfs_hal/common/mss_plic.h **** uint8_t  PLIC_rtc_wakeup_IRQHandler(void);
 130:/home/vinay/Desktop/softconsole_watershed/Water-shed/src/platform/mpfs_hal/common/mss_plic.h **** uint8_t  PLIC_rtc_match_IRQHandler(void);
 131:/home/vinay/Desktop/softconsole_watershed/Water-shed/src/platform/mpfs_hal/common/mss_plic.h **** uint8_t  PLIC_timer1_IRQHandler(void);
 132:/home/vinay/Desktop/softconsole_watershed/Water-shed/src/platform/mpfs_hal/common/mss_plic.h **** uint8_t  PLIC_timer2_IRQHandler(void);
 133:/home/vinay/Desktop/softconsole_watershed/Water-shed/src/platform/mpfs_hal/common/mss_plic.h **** uint8_t  PLIC_envm_IRQHandler(void);
 134:/home/vinay/Desktop/softconsole_watershed/Water-shed/src/platform/mpfs_hal/common/mss_plic.h **** uint8_t  PLIC_qspi_IRQHandler(void);
 135:/home/vinay/Desktop/softconsole_watershed/Water-shed/src/platform/mpfs_hal/common/mss_plic.h **** uint8_t  PLIC_usb_dma_IRQHandler(void);
 136:/home/vinay/Desktop/softconsole_watershed/Water-shed/src/platform/mpfs_hal/common/mss_plic.h **** uint8_t  PLIC_usb_mc_IRQHandler(void);
 137:/home/vinay/Desktop/softconsole_watershed/Water-shed/src/platform/mpfs_hal/common/mss_plic.h **** uint8_t  PLIC_mmc_main_IRQHandler(void);
 138:/home/vinay/Desktop/softconsole_watershed/Water-shed/src/platform/mpfs_hal/common/mss_plic.h **** uint8_t  PLIC_mmc_wakeup_IRQHandler(void);
 139:/home/vinay/Desktop/softconsole_watershed/Water-shed/src/platform/mpfs_hal/common/mss_plic.h **** uint8_t  PLIC_mmuart0_IRQHandler(void);
 140:/home/vinay/Desktop/softconsole_watershed/Water-shed/src/platform/mpfs_hal/common/mss_plic.h **** uint8_t  PLIC_mmuart1_IRQHandler(void);
 141:/home/vinay/Desktop/softconsole_watershed/Water-shed/src/platform/mpfs_hal/common/mss_plic.h **** uint8_t  PLIC_mmuart2_IRQHandler(void);
 142:/home/vinay/Desktop/softconsole_watershed/Water-shed/src/platform/mpfs_hal/common/mss_plic.h **** uint8_t  PLIC_mmuart3_IRQHandler(void);
 143:/home/vinay/Desktop/softconsole_watershed/Water-shed/src/platform/mpfs_hal/common/mss_plic.h **** uint8_t  PLIC_mmuart4_IRQHandler(void);
 144:/home/vinay/Desktop/softconsole_watershed/Water-shed/src/platform/mpfs_hal/common/mss_plic.h **** uint8_t  PLIC_devrst_IRQHandler(void);
 145:/home/vinay/Desktop/softconsole_watershed/Water-shed/src/platform/mpfs_hal/common/mss_plic.h **** uint8_t  PLIC_g5c_message_IRQHandler(void);
 146:/home/vinay/Desktop/softconsole_watershed/Water-shed/src/platform/mpfs_hal/common/mss_plic.h **** uint8_t  PLIC_usoc_vc_interrupt_IRQHandler(void);
 147:/home/vinay/Desktop/softconsole_watershed/Water-shed/src/platform/mpfs_hal/common/mss_plic.h **** uint8_t  PLIC_usoc_smb_interrupt_IRQHandler(void);
 148:/home/vinay/Desktop/softconsole_watershed/Water-shed/src/platform/mpfs_hal/common/mss_plic.h **** uint8_t  PLIC_E51_Maintence_IRQHandler(void);
 149:/home/vinay/Desktop/softconsole_watershed/Water-shed/src/platform/mpfs_hal/common/mss_plic.h **** 
 150:/home/vinay/Desktop/softconsole_watershed/Water-shed/src/platform/mpfs_hal/common/mss_plic.h **** uint8_t  PLIC_wdog0_mvrp_IRQHandler(void);
 151:/home/vinay/Desktop/softconsole_watershed/Water-shed/src/platform/mpfs_hal/common/mss_plic.h **** uint8_t  PLIC_wdog1_mvrp_IRQHandler(void);
 152:/home/vinay/Desktop/softconsole_watershed/Water-shed/src/platform/mpfs_hal/common/mss_plic.h **** uint8_t  PLIC_wdog2_mvrp_IRQHandler(void);
 153:/home/vinay/Desktop/softconsole_watershed/Water-shed/src/platform/mpfs_hal/common/mss_plic.h **** uint8_t  PLIC_wdog3_mvrp_IRQHandler(void);
 154:/home/vinay/Desktop/softconsole_watershed/Water-shed/src/platform/mpfs_hal/common/mss_plic.h **** uint8_t  PLIC_wdog4_mvrp_IRQHandler(void);
 155:/home/vinay/Desktop/softconsole_watershed/Water-shed/src/platform/mpfs_hal/common/mss_plic.h **** uint8_t  PLIC_wdog0_tout_IRQHandler(void);
 156:/home/vinay/Desktop/softconsole_watershed/Water-shed/src/platform/mpfs_hal/common/mss_plic.h **** uint8_t  PLIC_wdog1_tout_IRQHandler(void);
 157:/home/vinay/Desktop/softconsole_watershed/Water-shed/src/platform/mpfs_hal/common/mss_plic.h **** uint8_t  PLIC_wdog2_tout_IRQHandler(void);
 158:/home/vinay/Desktop/softconsole_watershed/Water-shed/src/platform/mpfs_hal/common/mss_plic.h **** uint8_t  PLIC_wdog3_tout_IRQHandler(void);
 159:/home/vinay/Desktop/softconsole_watershed/Water-shed/src/platform/mpfs_hal/common/mss_plic.h **** uint8_t  PLIC_wdog4_tout_IRQHandler(void);
 160:/home/vinay/Desktop/softconsole_watershed/Water-shed/src/platform/mpfs_hal/common/mss_plic.h **** uint8_t  PLIC_g5c_mss_spi_IRQHandler(void);
 161:/home/vinay/Desktop/softconsole_watershed/Water-shed/src/platform/mpfs_hal/common/mss_plic.h **** uint8_t  PLIC_volt_temp_alarm_IRQHandler(void);
 162:/home/vinay/Desktop/softconsole_watershed/Water-shed/src/platform/mpfs_hal/common/mss_plic.h **** 
 163:/home/vinay/Desktop/softconsole_watershed/Water-shed/src/platform/mpfs_hal/common/mss_plic.h **** uint8_t  PLIC_athena_complete_IRQHandler(void);
 164:/home/vinay/Desktop/softconsole_watershed/Water-shed/src/platform/mpfs_hal/common/mss_plic.h **** uint8_t  PLIC_athena_alarm_IRQHandler(void);
 165:/home/vinay/Desktop/softconsole_watershed/Water-shed/src/platform/mpfs_hal/common/mss_plic.h **** uint8_t  PLIC_athena_bus_error_IRQHandler(void);
 166:/home/vinay/Desktop/softconsole_watershed/Water-shed/src/platform/mpfs_hal/common/mss_plic.h **** uint8_t  PLIC_usoc_axic_us_IRQHandler(void);
 167:/home/vinay/Desktop/softconsole_watershed/Water-shed/src/platform/mpfs_hal/common/mss_plic.h **** uint8_t  PLIC_usoc_axic_ds_IRQHandler(void);
 168:/home/vinay/Desktop/softconsole_watershed/Water-shed/src/platform/mpfs_hal/common/mss_plic.h **** 
 169:/home/vinay/Desktop/softconsole_watershed/Water-shed/src/platform/mpfs_hal/common/mss_plic.h **** uint8_t  PLIC_reserved_104_IRQHandler(void);
 170:/home/vinay/Desktop/softconsole_watershed/Water-shed/src/platform/mpfs_hal/common/mss_plic.h **** 
 171:/home/vinay/Desktop/softconsole_watershed/Water-shed/src/platform/mpfs_hal/common/mss_plic.h **** uint8_t  PLIC_f2m_0_IRQHandler(void);
 172:/home/vinay/Desktop/softconsole_watershed/Water-shed/src/platform/mpfs_hal/common/mss_plic.h **** uint8_t  PLIC_f2m_1_IRQHandler(void);
 173:/home/vinay/Desktop/softconsole_watershed/Water-shed/src/platform/mpfs_hal/common/mss_plic.h **** uint8_t  PLIC_f2m_2_IRQHandler(void);
 174:/home/vinay/Desktop/softconsole_watershed/Water-shed/src/platform/mpfs_hal/common/mss_plic.h **** uint8_t  PLIC_f2m_3_IRQHandler(void);
 175:/home/vinay/Desktop/softconsole_watershed/Water-shed/src/platform/mpfs_hal/common/mss_plic.h **** uint8_t  PLIC_f2m_4_IRQHandler(void);
 176:/home/vinay/Desktop/softconsole_watershed/Water-shed/src/platform/mpfs_hal/common/mss_plic.h **** uint8_t  PLIC_f2m_5_IRQHandler(void);
 177:/home/vinay/Desktop/softconsole_watershed/Water-shed/src/platform/mpfs_hal/common/mss_plic.h **** uint8_t  PLIC_f2m_6_IRQHandler(void);
 178:/home/vinay/Desktop/softconsole_watershed/Water-shed/src/platform/mpfs_hal/common/mss_plic.h **** uint8_t  PLIC_f2m_7_IRQHandler(void);
 179:/home/vinay/Desktop/softconsole_watershed/Water-shed/src/platform/mpfs_hal/common/mss_plic.h **** uint8_t  PLIC_f2m_8_IRQHandler(void);
 180:/home/vinay/Desktop/softconsole_watershed/Water-shed/src/platform/mpfs_hal/common/mss_plic.h **** uint8_t  PLIC_f2m_9_IRQHandler(void);
 181:/home/vinay/Desktop/softconsole_watershed/Water-shed/src/platform/mpfs_hal/common/mss_plic.h **** 
 182:/home/vinay/Desktop/softconsole_watershed/Water-shed/src/platform/mpfs_hal/common/mss_plic.h **** uint8_t  PLIC_f2m_10_IRQHandler(void);
 183:/home/vinay/Desktop/softconsole_watershed/Water-shed/src/platform/mpfs_hal/common/mss_plic.h **** uint8_t  PLIC_f2m_11_IRQHandler(void);
 184:/home/vinay/Desktop/softconsole_watershed/Water-shed/src/platform/mpfs_hal/common/mss_plic.h **** uint8_t  PLIC_f2m_12_IRQHandler(void);
 185:/home/vinay/Desktop/softconsole_watershed/Water-shed/src/platform/mpfs_hal/common/mss_plic.h **** uint8_t  PLIC_f2m_13_IRQHandler(void);
 186:/home/vinay/Desktop/softconsole_watershed/Water-shed/src/platform/mpfs_hal/common/mss_plic.h **** uint8_t  PLIC_f2m_14_IRQHandler(void);
 187:/home/vinay/Desktop/softconsole_watershed/Water-shed/src/platform/mpfs_hal/common/mss_plic.h **** uint8_t  PLIC_f2m_15_IRQHandler(void);
 188:/home/vinay/Desktop/softconsole_watershed/Water-shed/src/platform/mpfs_hal/common/mss_plic.h **** uint8_t  PLIC_f2m_16_IRQHandler(void);
 189:/home/vinay/Desktop/softconsole_watershed/Water-shed/src/platform/mpfs_hal/common/mss_plic.h **** uint8_t  PLIC_f2m_17_IRQHandler(void);
 190:/home/vinay/Desktop/softconsole_watershed/Water-shed/src/platform/mpfs_hal/common/mss_plic.h **** uint8_t  PLIC_f2m_18_IRQHandler(void);
 191:/home/vinay/Desktop/softconsole_watershed/Water-shed/src/platform/mpfs_hal/common/mss_plic.h **** uint8_t  PLIC_f2m_19_IRQHandler(void);
 192:/home/vinay/Desktop/softconsole_watershed/Water-shed/src/platform/mpfs_hal/common/mss_plic.h **** 
 193:/home/vinay/Desktop/softconsole_watershed/Water-shed/src/platform/mpfs_hal/common/mss_plic.h **** uint8_t  PLIC_f2m_20_IRQHandler(void);
 194:/home/vinay/Desktop/softconsole_watershed/Water-shed/src/platform/mpfs_hal/common/mss_plic.h **** uint8_t  PLIC_f2m_21_IRQHandler(void);
 195:/home/vinay/Desktop/softconsole_watershed/Water-shed/src/platform/mpfs_hal/common/mss_plic.h **** uint8_t  PLIC_f2m_22_IRQHandler(void);
 196:/home/vinay/Desktop/softconsole_watershed/Water-shed/src/platform/mpfs_hal/common/mss_plic.h **** uint8_t  PLIC_f2m_23_IRQHandler(void);
 197:/home/vinay/Desktop/softconsole_watershed/Water-shed/src/platform/mpfs_hal/common/mss_plic.h **** uint8_t  PLIC_f2m_24_IRQHandler(void);
 198:/home/vinay/Desktop/softconsole_watershed/Water-shed/src/platform/mpfs_hal/common/mss_plic.h **** uint8_t  PLIC_f2m_25_IRQHandler(void);
 199:/home/vinay/Desktop/softconsole_watershed/Water-shed/src/platform/mpfs_hal/common/mss_plic.h **** uint8_t  PLIC_f2m_26_IRQHandler(void);
 200:/home/vinay/Desktop/softconsole_watershed/Water-shed/src/platform/mpfs_hal/common/mss_plic.h **** uint8_t  PLIC_f2m_27_IRQHandler(void);
 201:/home/vinay/Desktop/softconsole_watershed/Water-shed/src/platform/mpfs_hal/common/mss_plic.h **** uint8_t  PLIC_f2m_28_IRQHandler(void);
 202:/home/vinay/Desktop/softconsole_watershed/Water-shed/src/platform/mpfs_hal/common/mss_plic.h **** uint8_t  PLIC_f2m_29_IRQHandler(void);
 203:/home/vinay/Desktop/softconsole_watershed/Water-shed/src/platform/mpfs_hal/common/mss_plic.h **** 
 204:/home/vinay/Desktop/softconsole_watershed/Water-shed/src/platform/mpfs_hal/common/mss_plic.h **** uint8_t  PLIC_f2m_30_IRQHandler(void);
 205:/home/vinay/Desktop/softconsole_watershed/Water-shed/src/platform/mpfs_hal/common/mss_plic.h **** uint8_t  PLIC_f2m_31_IRQHandler(void);
 206:/home/vinay/Desktop/softconsole_watershed/Water-shed/src/platform/mpfs_hal/common/mss_plic.h **** 
 207:/home/vinay/Desktop/softconsole_watershed/Water-shed/src/platform/mpfs_hal/common/mss_plic.h **** uint8_t  PLIC_f2m_32_IRQHandler(void);
 208:/home/vinay/Desktop/softconsole_watershed/Water-shed/src/platform/mpfs_hal/common/mss_plic.h **** uint8_t  PLIC_f2m_33_IRQHandler(void);
 209:/home/vinay/Desktop/softconsole_watershed/Water-shed/src/platform/mpfs_hal/common/mss_plic.h **** uint8_t  PLIC_f2m_34_IRQHandler(void);
 210:/home/vinay/Desktop/softconsole_watershed/Water-shed/src/platform/mpfs_hal/common/mss_plic.h **** uint8_t  PLIC_f2m_35_IRQHandler(void);
 211:/home/vinay/Desktop/softconsole_watershed/Water-shed/src/platform/mpfs_hal/common/mss_plic.h **** uint8_t  PLIC_f2m_36_IRQHandler(void);
 212:/home/vinay/Desktop/softconsole_watershed/Water-shed/src/platform/mpfs_hal/common/mss_plic.h **** uint8_t  PLIC_f2m_37_IRQHandler(void);
 213:/home/vinay/Desktop/softconsole_watershed/Water-shed/src/platform/mpfs_hal/common/mss_plic.h **** uint8_t  PLIC_f2m_38_IRQHandler(void);
 214:/home/vinay/Desktop/softconsole_watershed/Water-shed/src/platform/mpfs_hal/common/mss_plic.h **** uint8_t  PLIC_f2m_39_IRQHandler(void);
 215:/home/vinay/Desktop/softconsole_watershed/Water-shed/src/platform/mpfs_hal/common/mss_plic.h **** uint8_t  PLIC_f2m_40_IRQHandler(void);
 216:/home/vinay/Desktop/softconsole_watershed/Water-shed/src/platform/mpfs_hal/common/mss_plic.h **** uint8_t  PLIC_f2m_41_IRQHandler(void);
 217:/home/vinay/Desktop/softconsole_watershed/Water-shed/src/platform/mpfs_hal/common/mss_plic.h **** 
 218:/home/vinay/Desktop/softconsole_watershed/Water-shed/src/platform/mpfs_hal/common/mss_plic.h **** uint8_t PLIC_f2m_42_IRQHandler(void);
 219:/home/vinay/Desktop/softconsole_watershed/Water-shed/src/platform/mpfs_hal/common/mss_plic.h **** uint8_t PLIC_f2m_43_IRQHandler(void);
 220:/home/vinay/Desktop/softconsole_watershed/Water-shed/src/platform/mpfs_hal/common/mss_plic.h **** uint8_t PLIC_f2m_44_IRQHandler(void);
 221:/home/vinay/Desktop/softconsole_watershed/Water-shed/src/platform/mpfs_hal/common/mss_plic.h **** uint8_t PLIC_f2m_45_IRQHandler(void);
 222:/home/vinay/Desktop/softconsole_watershed/Water-shed/src/platform/mpfs_hal/common/mss_plic.h **** uint8_t PLIC_f2m_46_IRQHandler(void);
 223:/home/vinay/Desktop/softconsole_watershed/Water-shed/src/platform/mpfs_hal/common/mss_plic.h **** uint8_t PLIC_f2m_47_IRQHandler(void);
 224:/home/vinay/Desktop/softconsole_watershed/Water-shed/src/platform/mpfs_hal/common/mss_plic.h **** uint8_t PLIC_f2m_48_IRQHandler(void);
 225:/home/vinay/Desktop/softconsole_watershed/Water-shed/src/platform/mpfs_hal/common/mss_plic.h **** uint8_t PLIC_f2m_49_IRQHandler(void);
 226:/home/vinay/Desktop/softconsole_watershed/Water-shed/src/platform/mpfs_hal/common/mss_plic.h **** uint8_t PLIC_f2m_50_IRQHandler(void);
 227:/home/vinay/Desktop/softconsole_watershed/Water-shed/src/platform/mpfs_hal/common/mss_plic.h **** uint8_t PLIC_f2m_51_IRQHandler(void);
 228:/home/vinay/Desktop/softconsole_watershed/Water-shed/src/platform/mpfs_hal/common/mss_plic.h **** 
 229:/home/vinay/Desktop/softconsole_watershed/Water-shed/src/platform/mpfs_hal/common/mss_plic.h **** uint8_t PLIC_f2m_52_IRQHandler(void);
 230:/home/vinay/Desktop/softconsole_watershed/Water-shed/src/platform/mpfs_hal/common/mss_plic.h **** uint8_t PLIC_f2m_53_IRQHandler(void);
 231:/home/vinay/Desktop/softconsole_watershed/Water-shed/src/platform/mpfs_hal/common/mss_plic.h **** uint8_t PLIC_f2m_54_IRQHandler(void);
 232:/home/vinay/Desktop/softconsole_watershed/Water-shed/src/platform/mpfs_hal/common/mss_plic.h **** uint8_t PLIC_f2m_55_IRQHandler(void);
 233:/home/vinay/Desktop/softconsole_watershed/Water-shed/src/platform/mpfs_hal/common/mss_plic.h **** uint8_t PLIC_f2m_56_IRQHandler(void);
 234:/home/vinay/Desktop/softconsole_watershed/Water-shed/src/platform/mpfs_hal/common/mss_plic.h **** uint8_t PLIC_f2m_57_IRQHandler(void);
 235:/home/vinay/Desktop/softconsole_watershed/Water-shed/src/platform/mpfs_hal/common/mss_plic.h **** uint8_t PLIC_f2m_58_IRQHandler(void);
 236:/home/vinay/Desktop/softconsole_watershed/Water-shed/src/platform/mpfs_hal/common/mss_plic.h **** uint8_t PLIC_f2m_59_IRQHandler(void);
 237:/home/vinay/Desktop/softconsole_watershed/Water-shed/src/platform/mpfs_hal/common/mss_plic.h **** uint8_t PLIC_f2m_60_IRQHandler(void);
 238:/home/vinay/Desktop/softconsole_watershed/Water-shed/src/platform/mpfs_hal/common/mss_plic.h **** uint8_t PLIC_f2m_61_IRQHandler(void);
 239:/home/vinay/Desktop/softconsole_watershed/Water-shed/src/platform/mpfs_hal/common/mss_plic.h **** 
 240:/home/vinay/Desktop/softconsole_watershed/Water-shed/src/platform/mpfs_hal/common/mss_plic.h **** uint8_t PLIC_f2m_62_IRQHandler(void);
 241:/home/vinay/Desktop/softconsole_watershed/Water-shed/src/platform/mpfs_hal/common/mss_plic.h **** uint8_t PLIC_f2m_63_IRQHandler(void);
 242:/home/vinay/Desktop/softconsole_watershed/Water-shed/src/platform/mpfs_hal/common/mss_plic.h **** 
 243:/home/vinay/Desktop/softconsole_watershed/Water-shed/src/platform/mpfs_hal/common/mss_plic.h **** uint8_t PLIC_E51_bus_error_unit_IRQHandler(void);
 244:/home/vinay/Desktop/softconsole_watershed/Water-shed/src/platform/mpfs_hal/common/mss_plic.h **** uint8_t PLIC_U54_1_bus_error_unit_IRQHandler(void);
 245:/home/vinay/Desktop/softconsole_watershed/Water-shed/src/platform/mpfs_hal/common/mss_plic.h **** uint8_t PLIC_U54_2_bus_error_unit_IRQHandler(void);
 246:/home/vinay/Desktop/softconsole_watershed/Water-shed/src/platform/mpfs_hal/common/mss_plic.h **** uint8_t PLIC_U54_3_bus_error_unit_IRQHandler(void);
 247:/home/vinay/Desktop/softconsole_watershed/Water-shed/src/platform/mpfs_hal/common/mss_plic.h **** uint8_t PLIC_U54_4_bus_error_unit_IRQHandler(void);
 248:/home/vinay/Desktop/softconsole_watershed/Water-shed/src/platform/mpfs_hal/common/mss_plic.h **** 
 249:/home/vinay/Desktop/softconsole_watershed/Water-shed/src/platform/mpfs_hal/common/mss_plic.h **** /***************************************************************************//**
 250:/home/vinay/Desktop/softconsole_watershed/Water-shed/src/platform/mpfs_hal/common/mss_plic.h ****  * PLIC source Interrupt numbers:
 251:/home/vinay/Desktop/softconsole_watershed/Water-shed/src/platform/mpfs_hal/common/mss_plic.h ****  */
 252:/home/vinay/Desktop/softconsole_watershed/Water-shed/src/platform/mpfs_hal/common/mss_plic.h **** /* See section on PLIC Interrupt Sources in User Guide */
 253:/home/vinay/Desktop/softconsole_watershed/Water-shed/src/platform/mpfs_hal/common/mss_plic.h **** #define OFFSET_TO_MSS_GLOBAL_INTS 13U
 254:/home/vinay/Desktop/softconsole_watershed/Water-shed/src/platform/mpfs_hal/common/mss_plic.h **** typedef enum
 255:/home/vinay/Desktop/softconsole_watershed/Water-shed/src/platform/mpfs_hal/common/mss_plic.h **** {
 256:/home/vinay/Desktop/softconsole_watershed/Water-shed/src/platform/mpfs_hal/common/mss_plic.h ****     PLIC_INVALID_INT_OFFSET                 = 0,
 257:/home/vinay/Desktop/softconsole_watershed/Water-shed/src/platform/mpfs_hal/common/mss_plic.h ****     PLIC_L2_METADATA_CORR_INT_OFFSET        = 1,
 258:/home/vinay/Desktop/softconsole_watershed/Water-shed/src/platform/mpfs_hal/common/mss_plic.h ****     PLIC_L2_METADAT_UNCORR_INT_OFFSET       = 2,
 259:/home/vinay/Desktop/softconsole_watershed/Water-shed/src/platform/mpfs_hal/common/mss_plic.h ****     PLIC_L2_DATA_CORR_INT_OFFSET            = 3,
 260:/home/vinay/Desktop/softconsole_watershed/Water-shed/src/platform/mpfs_hal/common/mss_plic.h ****     PLIC_L2_DATA_UNCORR_INT_OFFSET          = 4,
 261:/home/vinay/Desktop/softconsole_watershed/Water-shed/src/platform/mpfs_hal/common/mss_plic.h ****     PLIC_DMA_CH0_DONE_INT_OFFSET            = 5,
 262:/home/vinay/Desktop/softconsole_watershed/Water-shed/src/platform/mpfs_hal/common/mss_plic.h ****     PLIC_DMA_CH0_ERR_INT_OFFSET             = 6,
 263:/home/vinay/Desktop/softconsole_watershed/Water-shed/src/platform/mpfs_hal/common/mss_plic.h ****     PLIC_DMA_CH1_DONE_INT_OFFSET            = 7,
 264:/home/vinay/Desktop/softconsole_watershed/Water-shed/src/platform/mpfs_hal/common/mss_plic.h ****     PLIC_DMA_CH1_ERR_INT_OFFSET             = 8,
 265:/home/vinay/Desktop/softconsole_watershed/Water-shed/src/platform/mpfs_hal/common/mss_plic.h ****     PLIC_DMA_CH2_DONE_INT_OFFSET            = 9,
 266:/home/vinay/Desktop/softconsole_watershed/Water-shed/src/platform/mpfs_hal/common/mss_plic.h ****     PLIC_DMA_CH2_ERR_INT_OFFSET             = 10,
 267:/home/vinay/Desktop/softconsole_watershed/Water-shed/src/platform/mpfs_hal/common/mss_plic.h ****     PLIC_DMA_CH3_DONE_INT_OFFSET            = 11,
 268:/home/vinay/Desktop/softconsole_watershed/Water-shed/src/platform/mpfs_hal/common/mss_plic.h ****     PLIC_DMA_CH3_ERR_INT_OFFSET             = 12,
 269:/home/vinay/Desktop/softconsole_watershed/Water-shed/src/platform/mpfs_hal/common/mss_plic.h ****     /* see PLIC_I2C Interrupt Multiplexing in the User Guide */
 270:/home/vinay/Desktop/softconsole_watershed/Water-shed/src/platform/mpfs_hal/common/mss_plic.h ****     PLIC_GPIO0_BIT0_or_GPIO2_BIT0_INT_OFFSET         = 0 + OFFSET_TO_MSS_GLOBAL_INTS,
 271:/home/vinay/Desktop/softconsole_watershed/Water-shed/src/platform/mpfs_hal/common/mss_plic.h ****     PLIC_GPIO0_BIT1_or_GPIO2_BIT1_INT_OFFSET         = 1 + OFFSET_TO_MSS_GLOBAL_INTS,
 272:/home/vinay/Desktop/softconsole_watershed/Water-shed/src/platform/mpfs_hal/common/mss_plic.h ****     PLIC_GPIO0_BIT2_or_GPIO2_BIT2_INT_OFFSET         = 2 + OFFSET_TO_MSS_GLOBAL_INTS,
 273:/home/vinay/Desktop/softconsole_watershed/Water-shed/src/platform/mpfs_hal/common/mss_plic.h ****     PLIC_GPIO0_BIT3_or_GPIO2_BIT3_INT_OFFSET         = 3 + OFFSET_TO_MSS_GLOBAL_INTS,
 274:/home/vinay/Desktop/softconsole_watershed/Water-shed/src/platform/mpfs_hal/common/mss_plic.h ****     PLIC_GPIO0_BIT4_or_GPIO2_BIT4_INT_OFFSET         = 4 + OFFSET_TO_MSS_GLOBAL_INTS,
 275:/home/vinay/Desktop/softconsole_watershed/Water-shed/src/platform/mpfs_hal/common/mss_plic.h ****     PLIC_GPIO0_BIT5_or_GPIO2_BIT5_INT_OFFSET         = 5 + OFFSET_TO_MSS_GLOBAL_INTS,
 276:/home/vinay/Desktop/softconsole_watershed/Water-shed/src/platform/mpfs_hal/common/mss_plic.h ****     PLIC_GPIO0_BIT6_or_GPIO2_BIT6_INT_OFFSET         = 6 + OFFSET_TO_MSS_GLOBAL_INTS,
 277:/home/vinay/Desktop/softconsole_watershed/Water-shed/src/platform/mpfs_hal/common/mss_plic.h ****     PLIC_GPIO0_BIT7_or_GPIO2_BIT7_INT_OFFSET         = 7 + OFFSET_TO_MSS_GLOBAL_INTS,
 278:/home/vinay/Desktop/softconsole_watershed/Water-shed/src/platform/mpfs_hal/common/mss_plic.h ****     PLIC_GPIO0_BIT8_or_GPIO2_BIT8_INT_OFFSET         = 8 + OFFSET_TO_MSS_GLOBAL_INTS,
 279:/home/vinay/Desktop/softconsole_watershed/Water-shed/src/platform/mpfs_hal/common/mss_plic.h ****     PLIC_GPIO0_BIT9_or_GPIO2_BIT9_INT_OFFSET         = 9 + OFFSET_TO_MSS_GLOBAL_INTS,
 280:/home/vinay/Desktop/softconsole_watershed/Water-shed/src/platform/mpfs_hal/common/mss_plic.h ****     PLIC_GPIO0_BIT10_or_GPIO2_BIT10_INT_OFFSET      = 10 + OFFSET_TO_MSS_GLOBAL_INTS,
 281:/home/vinay/Desktop/softconsole_watershed/Water-shed/src/platform/mpfs_hal/common/mss_plic.h ****     PLIC_GPIO0_BIT11_or_GPIO2_BIT11_INT_OFFSET      = 11 + OFFSET_TO_MSS_GLOBAL_INTS,
 282:/home/vinay/Desktop/softconsole_watershed/Water-shed/src/platform/mpfs_hal/common/mss_plic.h ****     PLIC_GPIO0_BIT12_or_GPIO2_BIT12_INT_OFFSET      = 12 + OFFSET_TO_MSS_GLOBAL_INTS,
 283:/home/vinay/Desktop/softconsole_watershed/Water-shed/src/platform/mpfs_hal/common/mss_plic.h **** 
 284:/home/vinay/Desktop/softconsole_watershed/Water-shed/src/platform/mpfs_hal/common/mss_plic.h ****     PLIC_GPIO0_BIT13_or_GPIO2_BIT13_INT_OFFSET      = 13 + OFFSET_TO_MSS_GLOBAL_INTS,
 285:/home/vinay/Desktop/softconsole_watershed/Water-shed/src/platform/mpfs_hal/common/mss_plic.h ****     PLIC_GPIO1_BIT0_or_GPIO2_BIT14_INT_OFFSET       = 14 + OFFSET_TO_MSS_GLOBAL_INTS,
 286:/home/vinay/Desktop/softconsole_watershed/Water-shed/src/platform/mpfs_hal/common/mss_plic.h ****     PLIC_GPIO1_BIT1_or_GPIO2_BIT15_INT_OFFSET       = 15 + OFFSET_TO_MSS_GLOBAL_INTS,
 287:/home/vinay/Desktop/softconsole_watershed/Water-shed/src/platform/mpfs_hal/common/mss_plic.h ****     PLIC_GPIO1_BIT2_or_GPIO2_BIT16_INT_OFFSET       = 16 + OFFSET_TO_MSS_GLOBAL_INTS,
 288:/home/vinay/Desktop/softconsole_watershed/Water-shed/src/platform/mpfs_hal/common/mss_plic.h ****     PLIC_GPIO1_BIT3_or_GPIO2_BIT17_INT_OFFSET       = 17 + OFFSET_TO_MSS_GLOBAL_INTS,
 289:/home/vinay/Desktop/softconsole_watershed/Water-shed/src/platform/mpfs_hal/common/mss_plic.h ****     PLIC_GPIO1_BIT4_or_GPIO2_BIT18_INT_OFFSET       = 18 + OFFSET_TO_MSS_GLOBAL_INTS,
 290:/home/vinay/Desktop/softconsole_watershed/Water-shed/src/platform/mpfs_hal/common/mss_plic.h ****     PLIC_GPIO1_BIT5_or_GPIO2_BIT19_INT_OFFSET       = 19 + OFFSET_TO_MSS_GLOBAL_INTS,
 291:/home/vinay/Desktop/softconsole_watershed/Water-shed/src/platform/mpfs_hal/common/mss_plic.h ****     PLIC_GPIO1_BIT6_or_GPIO2_BIT20_INT_OFFSET       = 20 + OFFSET_TO_MSS_GLOBAL_INTS,
 292:/home/vinay/Desktop/softconsole_watershed/Water-shed/src/platform/mpfs_hal/common/mss_plic.h ****     PLIC_GPIO1_BIT7_or_GPIO2_BIT21_INT_OFFSET       = 21 + OFFSET_TO_MSS_GLOBAL_INTS,
 293:/home/vinay/Desktop/softconsole_watershed/Water-shed/src/platform/mpfs_hal/common/mss_plic.h ****     PLIC_GPIO1_BIT8_or_GPIO2_BIT22_INT_OFFSET       = 22 + OFFSET_TO_MSS_GLOBAL_INTS,
 294:/home/vinay/Desktop/softconsole_watershed/Water-shed/src/platform/mpfs_hal/common/mss_plic.h ****     PLIC_GPIO1_BIT9_or_GPIO2_BIT23_INT_OFFSET       = 23 + OFFSET_TO_MSS_GLOBAL_INTS,
 295:/home/vinay/Desktop/softconsole_watershed/Water-shed/src/platform/mpfs_hal/common/mss_plic.h ****     PLIC_GPIO1_BIT10_or_GPIO2_BIT24_INT_OFFSET      = 24 + OFFSET_TO_MSS_GLOBAL_INTS,
 296:/home/vinay/Desktop/softconsole_watershed/Water-shed/src/platform/mpfs_hal/common/mss_plic.h ****     PLIC_GPIO1_BIT11_or_GPIO2_BIT25_INT_OFFSET      = 25 + OFFSET_TO_MSS_GLOBAL_INTS,
 297:/home/vinay/Desktop/softconsole_watershed/Water-shed/src/platform/mpfs_hal/common/mss_plic.h ****     PLIC_GPIO1_BIT12_or_GPIO2_BIT26_INT_OFFSET      = 26 + OFFSET_TO_MSS_GLOBAL_INTS,
 298:/home/vinay/Desktop/softconsole_watershed/Water-shed/src/platform/mpfs_hal/common/mss_plic.h ****     PLIC_GPIO1_BIT13_or_GPIO2_BIT27_INT_OFFSET      = 27 + OFFSET_TO_MSS_GLOBAL_INTS,
 299:/home/vinay/Desktop/softconsole_watershed/Water-shed/src/platform/mpfs_hal/common/mss_plic.h **** 
 300:/home/vinay/Desktop/softconsole_watershed/Water-shed/src/platform/mpfs_hal/common/mss_plic.h ****     PLIC_GPIO1_BIT14_or_GPIO2_BIT28_INT_OFFSET       = 28 + OFFSET_TO_MSS_GLOBAL_INTS,
 301:/home/vinay/Desktop/softconsole_watershed/Water-shed/src/platform/mpfs_hal/common/mss_plic.h ****     PLIC_GPIO1_BIT15_or_GPIO2_BIT29_INT_OFFSET       = 29 + OFFSET_TO_MSS_GLOBAL_INTS,
 302:/home/vinay/Desktop/softconsole_watershed/Water-shed/src/platform/mpfs_hal/common/mss_plic.h ****     PLIC_GPIO1_BIT16_or_GPIO2_BIT30_INT_OFFSET       = 30 + OFFSET_TO_MSS_GLOBAL_INTS,
 303:/home/vinay/Desktop/softconsole_watershed/Water-shed/src/platform/mpfs_hal/common/mss_plic.h ****     PLIC_GPIO1_BIT17_or_GPIO2_BIT31_INT_OFFSET       = 31 + OFFSET_TO_MSS_GLOBAL_INTS,
 304:/home/vinay/Desktop/softconsole_watershed/Water-shed/src/platform/mpfs_hal/common/mss_plic.h **** 
 305:/home/vinay/Desktop/softconsole_watershed/Water-shed/src/platform/mpfs_hal/common/mss_plic.h ****     PLIC_GPIO1_BIT18_INT_OFFSET           = 32 + OFFSET_TO_MSS_GLOBAL_INTS,
 306:/home/vinay/Desktop/softconsole_watershed/Water-shed/src/platform/mpfs_hal/common/mss_plic.h ****     PLIC_GPIO1_BIT19_INT_OFFSET           = 33 + OFFSET_TO_MSS_GLOBAL_INTS,
 307:/home/vinay/Desktop/softconsole_watershed/Water-shed/src/platform/mpfs_hal/common/mss_plic.h ****     PLIC_GPIO1_BIT20_INT_OFFSET           = 34 + OFFSET_TO_MSS_GLOBAL_INTS,
 308:/home/vinay/Desktop/softconsole_watershed/Water-shed/src/platform/mpfs_hal/common/mss_plic.h ****     PLIC_GPIO1_BIT21_INT_OFFSET           = 35 + OFFSET_TO_MSS_GLOBAL_INTS,
 309:/home/vinay/Desktop/softconsole_watershed/Water-shed/src/platform/mpfs_hal/common/mss_plic.h ****     PLIC_GPIO1_BIT22_INT_OFFSET           = 36 + OFFSET_TO_MSS_GLOBAL_INTS,
 310:/home/vinay/Desktop/softconsole_watershed/Water-shed/src/platform/mpfs_hal/common/mss_plic.h ****     PLIC_GPIO1_BIT23_INT_OFFSET           = 37 + OFFSET_TO_MSS_GLOBAL_INTS,
 311:/home/vinay/Desktop/softconsole_watershed/Water-shed/src/platform/mpfs_hal/common/mss_plic.h **** 
 312:/home/vinay/Desktop/softconsole_watershed/Water-shed/src/platform/mpfs_hal/common/mss_plic.h ****     PLIC_GPIO0_NON_DIRECT_INT_OFFSET         = 38 + OFFSET_TO_MSS_GLOBAL_INTS,
 313:/home/vinay/Desktop/softconsole_watershed/Water-shed/src/platform/mpfs_hal/common/mss_plic.h ****     PLIC_GPIO1_NON_DIRECT_INT_OFFSET         = 39 + OFFSET_TO_MSS_GLOBAL_INTS,
 314:/home/vinay/Desktop/softconsole_watershed/Water-shed/src/platform/mpfs_hal/common/mss_plic.h ****     PLIC_GPIO2_NON_DIRECT_INT_OFFSET         = 40 + OFFSET_TO_MSS_GLOBAL_INTS,
 315:/home/vinay/Desktop/softconsole_watershed/Water-shed/src/platform/mpfs_hal/common/mss_plic.h **** 
 316:/home/vinay/Desktop/softconsole_watershed/Water-shed/src/platform/mpfs_hal/common/mss_plic.h ****     PLIC_SPI0_INT_OFFSET                    = 41 + OFFSET_TO_MSS_GLOBAL_INTS,
 317:/home/vinay/Desktop/softconsole_watershed/Water-shed/src/platform/mpfs_hal/common/mss_plic.h ****     PLIC_SPI1_INT_OFFSET                    = 42 + OFFSET_TO_MSS_GLOBAL_INTS,
 318:/home/vinay/Desktop/softconsole_watershed/Water-shed/src/platform/mpfs_hal/common/mss_plic.h ****     PLIC_CAN0_INT_OFFSET                    = 43 + OFFSET_TO_MSS_GLOBAL_INTS,
 319:/home/vinay/Desktop/softconsole_watershed/Water-shed/src/platform/mpfs_hal/common/mss_plic.h ****     PLIC_CAN1_INT_OFFSET                    = 44 + OFFSET_TO_MSS_GLOBAL_INTS,
 320:/home/vinay/Desktop/softconsole_watershed/Water-shed/src/platform/mpfs_hal/common/mss_plic.h ****     PLIC_I2C0_MAIN_INT_OFFSET               = 45 + OFFSET_TO_MSS_GLOBAL_INTS,
 321:/home/vinay/Desktop/softconsole_watershed/Water-shed/src/platform/mpfs_hal/common/mss_plic.h ****     PLIC_I2C0_ALERT_INT_OFFSET              = 46 + OFFSET_TO_MSS_GLOBAL_INTS,
 322:/home/vinay/Desktop/softconsole_watershed/Water-shed/src/platform/mpfs_hal/common/mss_plic.h ****     PLIC_I2C0_SUS_INT_OFFSET                = 47 + OFFSET_TO_MSS_GLOBAL_INTS,
 323:/home/vinay/Desktop/softconsole_watershed/Water-shed/src/platform/mpfs_hal/common/mss_plic.h ****     PLIC_I2C1_MAIN_INT_OFFSET               = 48 + OFFSET_TO_MSS_GLOBAL_INTS,
 324:/home/vinay/Desktop/softconsole_watershed/Water-shed/src/platform/mpfs_hal/common/mss_plic.h ****     PLIC_I2C1_ALERT_INT_OFFSET              = 49 + OFFSET_TO_MSS_GLOBAL_INTS,
 325:/home/vinay/Desktop/softconsole_watershed/Water-shed/src/platform/mpfs_hal/common/mss_plic.h ****     PLIC_I2C1_SUS_INT_OFFSET                = 50 + OFFSET_TO_MSS_GLOBAL_INTS,
 326:/home/vinay/Desktop/softconsole_watershed/Water-shed/src/platform/mpfs_hal/common/mss_plic.h ****     PLIC_MAC0_INT_INT_OFFSET                = 51 + OFFSET_TO_MSS_GLOBAL_INTS,
 327:/home/vinay/Desktop/softconsole_watershed/Water-shed/src/platform/mpfs_hal/common/mss_plic.h ****     PLIC_MAC0_QUEUE1_INT_OFFSET             = 52 + OFFSET_TO_MSS_GLOBAL_INTS,
 328:/home/vinay/Desktop/softconsole_watershed/Water-shed/src/platform/mpfs_hal/common/mss_plic.h ****     PLIC_MAC0_QUEUE2_INT_OFFSET             = 53 + OFFSET_TO_MSS_GLOBAL_INTS,
 329:/home/vinay/Desktop/softconsole_watershed/Water-shed/src/platform/mpfs_hal/common/mss_plic.h ****     PLIC_MAC0_QUEUE3_INT_OFFSET             = 54 + OFFSET_TO_MSS_GLOBAL_INTS,
 330:/home/vinay/Desktop/softconsole_watershed/Water-shed/src/platform/mpfs_hal/common/mss_plic.h ****     PLIC_MAC0_EMAC_INT_OFFSET               = 55 + OFFSET_TO_MSS_GLOBAL_INTS,
 331:/home/vinay/Desktop/softconsole_watershed/Water-shed/src/platform/mpfs_hal/common/mss_plic.h ****     PLIC_MAC0_MMSL_INT_OFFSET               = 56 + OFFSET_TO_MSS_GLOBAL_INTS,
 332:/home/vinay/Desktop/softconsole_watershed/Water-shed/src/platform/mpfs_hal/common/mss_plic.h ****     PLIC_MAC1_INT_INT_OFFSET                = 57 + OFFSET_TO_MSS_GLOBAL_INTS,
 333:/home/vinay/Desktop/softconsole_watershed/Water-shed/src/platform/mpfs_hal/common/mss_plic.h ****     PLIC_MAC1_QUEUE1_INT_OFFSET             = 58 + OFFSET_TO_MSS_GLOBAL_INTS,
 334:/home/vinay/Desktop/softconsole_watershed/Water-shed/src/platform/mpfs_hal/common/mss_plic.h ****     PLIC_MAC1_QUEUE2_INT_OFFSET             = 59 + OFFSET_TO_MSS_GLOBAL_INTS,
 335:/home/vinay/Desktop/softconsole_watershed/Water-shed/src/platform/mpfs_hal/common/mss_plic.h ****     PLIC_MAC1_QUEUE3_INT_OFFSET             = 60 + OFFSET_TO_MSS_GLOBAL_INTS,
 336:/home/vinay/Desktop/softconsole_watershed/Water-shed/src/platform/mpfs_hal/common/mss_plic.h ****     PLIC_MAC1_EMAC_INT_OFFSET               = 61 + OFFSET_TO_MSS_GLOBAL_INTS,
 337:/home/vinay/Desktop/softconsole_watershed/Water-shed/src/platform/mpfs_hal/common/mss_plic.h ****     PLIC_MAC1_MMSL_INT_OFFSET               = 62 + OFFSET_TO_MSS_GLOBAL_INTS,
 338:/home/vinay/Desktop/softconsole_watershed/Water-shed/src/platform/mpfs_hal/common/mss_plic.h ****     PLIC_DDRC_TRAIN_INT_OFFSET              = 63 + OFFSET_TO_MSS_GLOBAL_INTS,
 339:/home/vinay/Desktop/softconsole_watershed/Water-shed/src/platform/mpfs_hal/common/mss_plic.h ****     PLIC_SCB_INTERRUPT_INT_OFFSET           = 64 + OFFSET_TO_MSS_GLOBAL_INTS,
 340:/home/vinay/Desktop/softconsole_watershed/Water-shed/src/platform/mpfs_hal/common/mss_plic.h ****     PLIC_ECC_ERROR_INT_OFFSET               = 65 + OFFSET_TO_MSS_GLOBAL_INTS,
 341:/home/vinay/Desktop/softconsole_watershed/Water-shed/src/platform/mpfs_hal/common/mss_plic.h ****     PLIC_ECC_CORRECT_INT_OFFSET             = 66 + OFFSET_TO_MSS_GLOBAL_INTS,
 342:/home/vinay/Desktop/softconsole_watershed/Water-shed/src/platform/mpfs_hal/common/mss_plic.h ****     PLIC_RTC_WAKEUP_INT_OFFSET              = 67 + OFFSET_TO_MSS_GLOBAL_INTS,
 343:/home/vinay/Desktop/softconsole_watershed/Water-shed/src/platform/mpfs_hal/common/mss_plic.h ****     PLIC_RTC_MATCH_INT_OFFSET               = 68 + OFFSET_TO_MSS_GLOBAL_INTS,
 344:/home/vinay/Desktop/softconsole_watershed/Water-shed/src/platform/mpfs_hal/common/mss_plic.h ****     PLIC_TIMER1_INT_OFFSET                  = 69 + OFFSET_TO_MSS_GLOBAL_INTS,
 345:/home/vinay/Desktop/softconsole_watershed/Water-shed/src/platform/mpfs_hal/common/mss_plic.h ****     PLIC_TIMER2_INT_OFFSET                  = 70 + OFFSET_TO_MSS_GLOBAL_INTS,
 346:/home/vinay/Desktop/softconsole_watershed/Water-shed/src/platform/mpfs_hal/common/mss_plic.h ****     PLIC_ENVM_INT_OFFSET                    = 71 + OFFSET_TO_MSS_GLOBAL_INTS,
 347:/home/vinay/Desktop/softconsole_watershed/Water-shed/src/platform/mpfs_hal/common/mss_plic.h ****     PLIC_QSPI_INT_OFFSET                    = 72 + OFFSET_TO_MSS_GLOBAL_INTS,
 348:/home/vinay/Desktop/softconsole_watershed/Water-shed/src/platform/mpfs_hal/common/mss_plic.h ****     PLIC_USB_DMA_INT_OFFSET                 = 73 + OFFSET_TO_MSS_GLOBAL_INTS,
 349:/home/vinay/Desktop/softconsole_watershed/Water-shed/src/platform/mpfs_hal/common/mss_plic.h ****     PLIC_USB_MC_INT_OFFSET                  = 74 + OFFSET_TO_MSS_GLOBAL_INTS,
 350:/home/vinay/Desktop/softconsole_watershed/Water-shed/src/platform/mpfs_hal/common/mss_plic.h ****     PLIC_MMC_main_INT_OFFSET                = 75 + OFFSET_TO_MSS_GLOBAL_INTS,
 351:/home/vinay/Desktop/softconsole_watershed/Water-shed/src/platform/mpfs_hal/common/mss_plic.h ****     PLIC_MMC_wakeup_INT_OFFSET              = 76 + OFFSET_TO_MSS_GLOBAL_INTS,
 352:/home/vinay/Desktop/softconsole_watershed/Water-shed/src/platform/mpfs_hal/common/mss_plic.h ****     PLIC_MMUART0_INT_OFFSET                 = 77 + OFFSET_TO_MSS_GLOBAL_INTS,
 353:/home/vinay/Desktop/softconsole_watershed/Water-shed/src/platform/mpfs_hal/common/mss_plic.h ****     PLIC_MMUART1_INT_OFFSET                 = 78 + OFFSET_TO_MSS_GLOBAL_INTS,
 354:/home/vinay/Desktop/softconsole_watershed/Water-shed/src/platform/mpfs_hal/common/mss_plic.h ****     PLIC_MMUART2_INT_OFFSET                 = 79 + OFFSET_TO_MSS_GLOBAL_INTS,
 355:/home/vinay/Desktop/softconsole_watershed/Water-shed/src/platform/mpfs_hal/common/mss_plic.h ****     PLIC_MMUART3_INT_OFFSET                 = 80 + OFFSET_TO_MSS_GLOBAL_INTS,
 356:/home/vinay/Desktop/softconsole_watershed/Water-shed/src/platform/mpfs_hal/common/mss_plic.h ****     PLIC_MMUART4_INT_OFFSET                 = 81 + OFFSET_TO_MSS_GLOBAL_INTS,
 357:/home/vinay/Desktop/softconsole_watershed/Water-shed/src/platform/mpfs_hal/common/mss_plic.h **** 
 358:/home/vinay/Desktop/softconsole_watershed/Water-shed/src/platform/mpfs_hal/common/mss_plic.h ****     G5C_DEVRST_INT_OFFSET              = 82 + OFFSET_TO_MSS_GLOBAL_INTS,
 359:/home/vinay/Desktop/softconsole_watershed/Water-shed/src/platform/mpfs_hal/common/mss_plic.h ****     g5c_MESSAGE_INT_OFFSET             = 83 + OFFSET_TO_MSS_GLOBAL_INTS,
 360:/home/vinay/Desktop/softconsole_watershed/Water-shed/src/platform/mpfs_hal/common/mss_plic.h ****     USOC_VC_INTERRUPT_INT_OFFSET       = 84 + OFFSET_TO_MSS_GLOBAL_INTS,
 361:/home/vinay/Desktop/softconsole_watershed/Water-shed/src/platform/mpfs_hal/common/mss_plic.h ****     USOC_SMB_INTERRUPT_INT_OFFSET      = 85 + OFFSET_TO_MSS_GLOBAL_INTS,
 362:/home/vinay/Desktop/softconsole_watershed/Water-shed/src/platform/mpfs_hal/common/mss_plic.h ****     /* contains multiple interrupts- */
 363:/home/vinay/Desktop/softconsole_watershed/Water-shed/src/platform/mpfs_hal/common/mss_plic.h ****     E51_0_MAINTENACE_INT_OFFSET        = 86 + OFFSET_TO_MSS_GLOBAL_INTS,
 364:/home/vinay/Desktop/softconsole_watershed/Water-shed/src/platform/mpfs_hal/common/mss_plic.h **** 
 365:/home/vinay/Desktop/softconsole_watershed/Water-shed/src/platform/mpfs_hal/common/mss_plic.h ****     PLIC_WDOG0_MRVP_INT_OFFSET              = 87 + OFFSET_TO_MSS_GLOBAL_INTS,
 366:/home/vinay/Desktop/softconsole_watershed/Water-shed/src/platform/mpfs_hal/common/mss_plic.h ****     PLIC_WDOG1_MRVP_INT_OFFSET              = 88 + OFFSET_TO_MSS_GLOBAL_INTS,
 367:/home/vinay/Desktop/softconsole_watershed/Water-shed/src/platform/mpfs_hal/common/mss_plic.h ****     PLIC_WDOG2_MRVP_INT_OFFSET              = 89 + OFFSET_TO_MSS_GLOBAL_INTS,
 368:/home/vinay/Desktop/softconsole_watershed/Water-shed/src/platform/mpfs_hal/common/mss_plic.h ****     PLIC_WDOG3_MRVP_INT_OFFSET              = 90 + OFFSET_TO_MSS_GLOBAL_INTS,
 369:/home/vinay/Desktop/softconsole_watershed/Water-shed/src/platform/mpfs_hal/common/mss_plic.h ****     PLIC_WDOG4_MRVP_INT_OFFSET              = 91 + OFFSET_TO_MSS_GLOBAL_INTS,
 370:/home/vinay/Desktop/softconsole_watershed/Water-shed/src/platform/mpfs_hal/common/mss_plic.h ****     PLIC_WDOG0_TOUT_INT_OFFSET              = 92 + OFFSET_TO_MSS_GLOBAL_INTS,
 371:/home/vinay/Desktop/softconsole_watershed/Water-shed/src/platform/mpfs_hal/common/mss_plic.h ****     PLIC_WDOG1_TOUT_INT_OFFSET              = 93 + OFFSET_TO_MSS_GLOBAL_INTS,
 372:/home/vinay/Desktop/softconsole_watershed/Water-shed/src/platform/mpfs_hal/common/mss_plic.h ****     PLIC_WDOG2_TOUT_INT_OFFSET              = 94 + OFFSET_TO_MSS_GLOBAL_INTS,
 373:/home/vinay/Desktop/softconsole_watershed/Water-shed/src/platform/mpfs_hal/common/mss_plic.h ****     PLIC_WDOG3_TOUT_INT_OFFSET              = 95 + OFFSET_TO_MSS_GLOBAL_INTS,
 374:/home/vinay/Desktop/softconsole_watershed/Water-shed/src/platform/mpfs_hal/common/mss_plic.h ****     PLIC_WDOG4_TOUT_INT_OFFSET              = 96 + OFFSET_TO_MSS_GLOBAL_INTS,
 375:/home/vinay/Desktop/softconsole_watershed/Water-shed/src/platform/mpfs_hal/common/mss_plic.h ****     G5C_MSS_SPI_INT_OFFSET             = 97 + OFFSET_TO_MSS_GLOBAL_INTS,
 376:/home/vinay/Desktop/softconsole_watershed/Water-shed/src/platform/mpfs_hal/common/mss_plic.h ****     VOLT_TEMP_ALARM_INT_OFFSET         = 98 + OFFSET_TO_MSS_GLOBAL_INTS,
 377:/home/vinay/Desktop/softconsole_watershed/Water-shed/src/platform/mpfs_hal/common/mss_plic.h ****     ATHENA_COMPLETE_INT_OFFSET         = 99 + OFFSET_TO_MSS_GLOBAL_INTS,
 378:/home/vinay/Desktop/softconsole_watershed/Water-shed/src/platform/mpfs_hal/common/mss_plic.h ****     ATHENA_ALARM_INT_OFFSET            = 100 + OFFSET_TO_MSS_GLOBAL_INTS,
 379:/home/vinay/Desktop/softconsole_watershed/Water-shed/src/platform/mpfs_hal/common/mss_plic.h ****     ATHENA_BUS_ERROR_INT_OFFSET        = 101 + OFFSET_TO_MSS_GLOBAL_INTS,
 380:/home/vinay/Desktop/softconsole_watershed/Water-shed/src/platform/mpfs_hal/common/mss_plic.h ****     USOC_AXIC_US_INT_OFFSET            = 102 + OFFSET_TO_MSS_GLOBAL_INTS,
 381:/home/vinay/Desktop/softconsole_watershed/Water-shed/src/platform/mpfs_hal/common/mss_plic.h ****     USOC_AXIC_DS_INT_OFFSET            = 103 + OFFSET_TO_MSS_GLOBAL_INTS,
 382:/home/vinay/Desktop/softconsole_watershed/Water-shed/src/platform/mpfs_hal/common/mss_plic.h **** 
 383:/home/vinay/Desktop/softconsole_watershed/Water-shed/src/platform/mpfs_hal/common/mss_plic.h ****     PLIC_F2M_0_INT_OFFSET            = 105 + OFFSET_TO_MSS_GLOBAL_INTS,
 384:/home/vinay/Desktop/softconsole_watershed/Water-shed/src/platform/mpfs_hal/common/mss_plic.h ****     PLIC_F2M_1_INT_OFFSET            = 106 + OFFSET_TO_MSS_GLOBAL_INTS,
 385:/home/vinay/Desktop/softconsole_watershed/Water-shed/src/platform/mpfs_hal/common/mss_plic.h ****     PLIC_F2M_2_INT_OFFSET            = 107 + OFFSET_TO_MSS_GLOBAL_INTS,
 386:/home/vinay/Desktop/softconsole_watershed/Water-shed/src/platform/mpfs_hal/common/mss_plic.h ****     PLIC_F2M_3_INT_OFFSET            = 108 + OFFSET_TO_MSS_GLOBAL_INTS,
 387:/home/vinay/Desktop/softconsole_watershed/Water-shed/src/platform/mpfs_hal/common/mss_plic.h ****     PLIC_F2M_4_INT_OFFSET            = 109 + OFFSET_TO_MSS_GLOBAL_INTS,
 388:/home/vinay/Desktop/softconsole_watershed/Water-shed/src/platform/mpfs_hal/common/mss_plic.h ****     PLIC_F2M_5_INT_OFFSET            = 110 + OFFSET_TO_MSS_GLOBAL_INTS,
 389:/home/vinay/Desktop/softconsole_watershed/Water-shed/src/platform/mpfs_hal/common/mss_plic.h ****     PLIC_F2M_6_INT_OFFSET            = 111 + OFFSET_TO_MSS_GLOBAL_INTS,
 390:/home/vinay/Desktop/softconsole_watershed/Water-shed/src/platform/mpfs_hal/common/mss_plic.h ****     PLIC_F2M_7_INT_OFFSET            = 112 + OFFSET_TO_MSS_GLOBAL_INTS,
 391:/home/vinay/Desktop/softconsole_watershed/Water-shed/src/platform/mpfs_hal/common/mss_plic.h ****     PLIC_F2M_8_INT_OFFSET            = 113 + OFFSET_TO_MSS_GLOBAL_INTS,
 392:/home/vinay/Desktop/softconsole_watershed/Water-shed/src/platform/mpfs_hal/common/mss_plic.h ****     PLIC_F2M_9_INT_OFFSET            = 114 + OFFSET_TO_MSS_GLOBAL_INTS,
 393:/home/vinay/Desktop/softconsole_watershed/Water-shed/src/platform/mpfs_hal/common/mss_plic.h **** 
 394:/home/vinay/Desktop/softconsole_watershed/Water-shed/src/platform/mpfs_hal/common/mss_plic.h ****     PLIC_F2M_10_INT_OFFSET           = 115 + OFFSET_TO_MSS_GLOBAL_INTS,
 395:/home/vinay/Desktop/softconsole_watershed/Water-shed/src/platform/mpfs_hal/common/mss_plic.h ****     PLIC_F2M_11_INT_OFFSET           = 116 + OFFSET_TO_MSS_GLOBAL_INTS,
 396:/home/vinay/Desktop/softconsole_watershed/Water-shed/src/platform/mpfs_hal/common/mss_plic.h ****     PLIC_F2M_12_INT_OFFSET           = 117 + OFFSET_TO_MSS_GLOBAL_INTS,
 397:/home/vinay/Desktop/softconsole_watershed/Water-shed/src/platform/mpfs_hal/common/mss_plic.h ****     PLIC_F2M_13_INT_OFFSET           = 118 + OFFSET_TO_MSS_GLOBAL_INTS,
 398:/home/vinay/Desktop/softconsole_watershed/Water-shed/src/platform/mpfs_hal/common/mss_plic.h ****     PLIC_F2M_14_INT_OFFSET           = 119 + OFFSET_TO_MSS_GLOBAL_INTS,
 399:/home/vinay/Desktop/softconsole_watershed/Water-shed/src/platform/mpfs_hal/common/mss_plic.h ****     PLIC_F2M_15_INT_OFFSET           = 120 + OFFSET_TO_MSS_GLOBAL_INTS,
 400:/home/vinay/Desktop/softconsole_watershed/Water-shed/src/platform/mpfs_hal/common/mss_plic.h ****     PLIC_F2M_16_INT_OFFSET           = 121 + OFFSET_TO_MSS_GLOBAL_INTS,
 401:/home/vinay/Desktop/softconsole_watershed/Water-shed/src/platform/mpfs_hal/common/mss_plic.h ****     PLIC_F2M_17_INT_OFFSET           = 122 + OFFSET_TO_MSS_GLOBAL_INTS,
 402:/home/vinay/Desktop/softconsole_watershed/Water-shed/src/platform/mpfs_hal/common/mss_plic.h ****     PLIC_F2M_18_INT_OFFSET           = 123 + OFFSET_TO_MSS_GLOBAL_INTS,
 403:/home/vinay/Desktop/softconsole_watershed/Water-shed/src/platform/mpfs_hal/common/mss_plic.h ****     PLIC_F2M_19_INT_OFFSET           = 124 + OFFSET_TO_MSS_GLOBAL_INTS,
 404:/home/vinay/Desktop/softconsole_watershed/Water-shed/src/platform/mpfs_hal/common/mss_plic.h **** 
 405:/home/vinay/Desktop/softconsole_watershed/Water-shed/src/platform/mpfs_hal/common/mss_plic.h ****     PLIC_F2M_20_INT_OFFSET           = 125 + OFFSET_TO_MSS_GLOBAL_INTS,
 406:/home/vinay/Desktop/softconsole_watershed/Water-shed/src/platform/mpfs_hal/common/mss_plic.h ****     PLIC_F2M_21_INT_OFFSET           = 126 + OFFSET_TO_MSS_GLOBAL_INTS,
 407:/home/vinay/Desktop/softconsole_watershed/Water-shed/src/platform/mpfs_hal/common/mss_plic.h ****     PLIC_F2M_22_INT_OFFSET           = 127 + OFFSET_TO_MSS_GLOBAL_INTS,
 408:/home/vinay/Desktop/softconsole_watershed/Water-shed/src/platform/mpfs_hal/common/mss_plic.h ****     PLIC_F2M_23_INT_OFFSET           = 128 + OFFSET_TO_MSS_GLOBAL_INTS,
 409:/home/vinay/Desktop/softconsole_watershed/Water-shed/src/platform/mpfs_hal/common/mss_plic.h ****     PLIC_F2M_24_INT_OFFSET           = 129 + OFFSET_TO_MSS_GLOBAL_INTS,
 410:/home/vinay/Desktop/softconsole_watershed/Water-shed/src/platform/mpfs_hal/common/mss_plic.h ****     PLIC_F2M_25_INT_OFFSET           = 130 + OFFSET_TO_MSS_GLOBAL_INTS,
 411:/home/vinay/Desktop/softconsole_watershed/Water-shed/src/platform/mpfs_hal/common/mss_plic.h ****     PLIC_F2M_26_INT_OFFSET           = 131 + OFFSET_TO_MSS_GLOBAL_INTS,
 412:/home/vinay/Desktop/softconsole_watershed/Water-shed/src/platform/mpfs_hal/common/mss_plic.h ****     PLIC_F2M_27_INT_OFFSET           = 132 + OFFSET_TO_MSS_GLOBAL_INTS,
 413:/home/vinay/Desktop/softconsole_watershed/Water-shed/src/platform/mpfs_hal/common/mss_plic.h ****     PLIC_F2M_28_INT_OFFSET           = 133 + OFFSET_TO_MSS_GLOBAL_INTS,
 414:/home/vinay/Desktop/softconsole_watershed/Water-shed/src/platform/mpfs_hal/common/mss_plic.h ****     PLIC_F2M_29_INT_OFFSET           = 134 + OFFSET_TO_MSS_GLOBAL_INTS,
 415:/home/vinay/Desktop/softconsole_watershed/Water-shed/src/platform/mpfs_hal/common/mss_plic.h **** 
 416:/home/vinay/Desktop/softconsole_watershed/Water-shed/src/platform/mpfs_hal/common/mss_plic.h ****     PLIC_F2M_30_INT_OFFSET           = 135 + OFFSET_TO_MSS_GLOBAL_INTS,
 417:/home/vinay/Desktop/softconsole_watershed/Water-shed/src/platform/mpfs_hal/common/mss_plic.h ****     PLIC_F2M_31_INT_OFFSET           = 136 + OFFSET_TO_MSS_GLOBAL_INTS,
 418:/home/vinay/Desktop/softconsole_watershed/Water-shed/src/platform/mpfs_hal/common/mss_plic.h **** 
 419:/home/vinay/Desktop/softconsole_watershed/Water-shed/src/platform/mpfs_hal/common/mss_plic.h ****     PLIC_F2M_32_INT_OFFSET           = 137 + OFFSET_TO_MSS_GLOBAL_INTS,
 420:/home/vinay/Desktop/softconsole_watershed/Water-shed/src/platform/mpfs_hal/common/mss_plic.h ****     PLIC_F2M_33_INT_OFFSET           = 138 + OFFSET_TO_MSS_GLOBAL_INTS,
 421:/home/vinay/Desktop/softconsole_watershed/Water-shed/src/platform/mpfs_hal/common/mss_plic.h ****     PLIC_F2M_34_INT_OFFSET           = 139 + OFFSET_TO_MSS_GLOBAL_INTS,
 422:/home/vinay/Desktop/softconsole_watershed/Water-shed/src/platform/mpfs_hal/common/mss_plic.h ****     PLIC_F2M_35_INT_OFFSET           = 140 + OFFSET_TO_MSS_GLOBAL_INTS,
 423:/home/vinay/Desktop/softconsole_watershed/Water-shed/src/platform/mpfs_hal/common/mss_plic.h ****     PLIC_F2M_36_INT_OFFSET           = 141 + OFFSET_TO_MSS_GLOBAL_INTS,
 424:/home/vinay/Desktop/softconsole_watershed/Water-shed/src/platform/mpfs_hal/common/mss_plic.h ****     PLIC_F2M_37_INT_OFFSET           = 142 + OFFSET_TO_MSS_GLOBAL_INTS,
 425:/home/vinay/Desktop/softconsole_watershed/Water-shed/src/platform/mpfs_hal/common/mss_plic.h ****     PLIC_F2M_38_INT_OFFSET           = 143 + OFFSET_TO_MSS_GLOBAL_INTS,
 426:/home/vinay/Desktop/softconsole_watershed/Water-shed/src/platform/mpfs_hal/common/mss_plic.h ****     PLIC_F2M_39_INT_OFFSET           = 144 + OFFSET_TO_MSS_GLOBAL_INTS,
 427:/home/vinay/Desktop/softconsole_watershed/Water-shed/src/platform/mpfs_hal/common/mss_plic.h ****     PLIC_F2M_40_INT_OFFSET           = 145 + OFFSET_TO_MSS_GLOBAL_INTS,
 428:/home/vinay/Desktop/softconsole_watershed/Water-shed/src/platform/mpfs_hal/common/mss_plic.h ****     PLIC_F2M_41_INT_OFFSET           = 146 + OFFSET_TO_MSS_GLOBAL_INTS,
 429:/home/vinay/Desktop/softconsole_watershed/Water-shed/src/platform/mpfs_hal/common/mss_plic.h **** 
 430:/home/vinay/Desktop/softconsole_watershed/Water-shed/src/platform/mpfs_hal/common/mss_plic.h ****     PLIC_F2M_42_INT_OFFSET           = 147 + OFFSET_TO_MSS_GLOBAL_INTS,
 431:/home/vinay/Desktop/softconsole_watershed/Water-shed/src/platform/mpfs_hal/common/mss_plic.h ****     PLIC_F2M_43_INT_OFFSET           = 148 + OFFSET_TO_MSS_GLOBAL_INTS,
 432:/home/vinay/Desktop/softconsole_watershed/Water-shed/src/platform/mpfs_hal/common/mss_plic.h ****     PLIC_F2M_44_INT_OFFSET           = 149 + OFFSET_TO_MSS_GLOBAL_INTS,
 433:/home/vinay/Desktop/softconsole_watershed/Water-shed/src/platform/mpfs_hal/common/mss_plic.h ****     PLIC_F2M_45_INT_OFFSET           = 150 + OFFSET_TO_MSS_GLOBAL_INTS,
 434:/home/vinay/Desktop/softconsole_watershed/Water-shed/src/platform/mpfs_hal/common/mss_plic.h ****     PLIC_F2M_46_INT_OFFSET           = 151 + OFFSET_TO_MSS_GLOBAL_INTS,
 435:/home/vinay/Desktop/softconsole_watershed/Water-shed/src/platform/mpfs_hal/common/mss_plic.h ****     PLIC_F2M_47_INT_OFFSET           = 152 + OFFSET_TO_MSS_GLOBAL_INTS,
 436:/home/vinay/Desktop/softconsole_watershed/Water-shed/src/platform/mpfs_hal/common/mss_plic.h ****     PLIC_F2M_48_INT_OFFSET           = 153 + OFFSET_TO_MSS_GLOBAL_INTS,
 437:/home/vinay/Desktop/softconsole_watershed/Water-shed/src/platform/mpfs_hal/common/mss_plic.h ****     PLIC_F2M_49_INT_OFFSET           = 154 + OFFSET_TO_MSS_GLOBAL_INTS,
 438:/home/vinay/Desktop/softconsole_watershed/Water-shed/src/platform/mpfs_hal/common/mss_plic.h ****     PLIC_F2M_50_INT_OFFSET           = 155 + OFFSET_TO_MSS_GLOBAL_INTS,
 439:/home/vinay/Desktop/softconsole_watershed/Water-shed/src/platform/mpfs_hal/common/mss_plic.h ****     PLIC_F2M_51_INT_OFFSET           = 156 + OFFSET_TO_MSS_GLOBAL_INTS,
 440:/home/vinay/Desktop/softconsole_watershed/Water-shed/src/platform/mpfs_hal/common/mss_plic.h **** 
 441:/home/vinay/Desktop/softconsole_watershed/Water-shed/src/platform/mpfs_hal/common/mss_plic.h ****     PLIC_F2M_52_INT_OFFSET           = 157 + OFFSET_TO_MSS_GLOBAL_INTS,
 442:/home/vinay/Desktop/softconsole_watershed/Water-shed/src/platform/mpfs_hal/common/mss_plic.h ****     PLIC_F2M_53_INT_OFFSET           = 158 + OFFSET_TO_MSS_GLOBAL_INTS,
 443:/home/vinay/Desktop/softconsole_watershed/Water-shed/src/platform/mpfs_hal/common/mss_plic.h ****     PLIC_F2M_54_INT_OFFSET           = 159 + OFFSET_TO_MSS_GLOBAL_INTS,
 444:/home/vinay/Desktop/softconsole_watershed/Water-shed/src/platform/mpfs_hal/common/mss_plic.h ****     PLIC_F2M_55_INT_OFFSET           = 160 + OFFSET_TO_MSS_GLOBAL_INTS,
 445:/home/vinay/Desktop/softconsole_watershed/Water-shed/src/platform/mpfs_hal/common/mss_plic.h ****     PLIC_F2M_56_INT_OFFSET           = 161 + OFFSET_TO_MSS_GLOBAL_INTS,
 446:/home/vinay/Desktop/softconsole_watershed/Water-shed/src/platform/mpfs_hal/common/mss_plic.h ****     PLIC_F2M_57_INT_OFFSET           = 162 + OFFSET_TO_MSS_GLOBAL_INTS,
 447:/home/vinay/Desktop/softconsole_watershed/Water-shed/src/platform/mpfs_hal/common/mss_plic.h ****     PLIC_F2M_58_INT_OFFSET           = 163 + OFFSET_TO_MSS_GLOBAL_INTS,
 448:/home/vinay/Desktop/softconsole_watershed/Water-shed/src/platform/mpfs_hal/common/mss_plic.h ****     PLIC_F2M_59_INT_OFFSET           = 164 + OFFSET_TO_MSS_GLOBAL_INTS,
 449:/home/vinay/Desktop/softconsole_watershed/Water-shed/src/platform/mpfs_hal/common/mss_plic.h ****     PLIC_F2M_60_INT_OFFSET           = 165 + OFFSET_TO_MSS_GLOBAL_INTS,
 450:/home/vinay/Desktop/softconsole_watershed/Water-shed/src/platform/mpfs_hal/common/mss_plic.h ****     PLIC_F2M_61_INT_OFFSET           = 166 + OFFSET_TO_MSS_GLOBAL_INTS,
 451:/home/vinay/Desktop/softconsole_watershed/Water-shed/src/platform/mpfs_hal/common/mss_plic.h **** 
 452:/home/vinay/Desktop/softconsole_watershed/Water-shed/src/platform/mpfs_hal/common/mss_plic.h ****     PLIC_F2M_62_INT_OFFSET           = 167 + OFFSET_TO_MSS_GLOBAL_INTS,
 453:/home/vinay/Desktop/softconsole_watershed/Water-shed/src/platform/mpfs_hal/common/mss_plic.h ****     PLIC_F2M_63_INT_OFFSET           = 168 + OFFSET_TO_MSS_GLOBAL_INTS,
 454:/home/vinay/Desktop/softconsole_watershed/Water-shed/src/platform/mpfs_hal/common/mss_plic.h **** 
 455:/home/vinay/Desktop/softconsole_watershed/Water-shed/src/platform/mpfs_hal/common/mss_plic.h ****     PLIC_E51_BUS_ERROR_UNIT_OFFSET        = 182,
 456:/home/vinay/Desktop/softconsole_watershed/Water-shed/src/platform/mpfs_hal/common/mss_plic.h ****     PLIC_U54_1_BUS_ERROR_UNIT_OFFSET      = 183,
 457:/home/vinay/Desktop/softconsole_watershed/Water-shed/src/platform/mpfs_hal/common/mss_plic.h ****     PLIC_U54_2_BUS_ERROR_UNIT_OFFSET      = 184,
 458:/home/vinay/Desktop/softconsole_watershed/Water-shed/src/platform/mpfs_hal/common/mss_plic.h ****     PLIC_U54_3_BUS_ERROR_UNIT_OFFSET      = 185,
 459:/home/vinay/Desktop/softconsole_watershed/Water-shed/src/platform/mpfs_hal/common/mss_plic.h ****     PLIC_U54_4_BUS_ERROR_UNIT_OFFSET      = 186
 460:/home/vinay/Desktop/softconsole_watershed/Water-shed/src/platform/mpfs_hal/common/mss_plic.h **** 
 461:/home/vinay/Desktop/softconsole_watershed/Water-shed/src/platform/mpfs_hal/common/mss_plic.h **** } PLIC_IRQn_Type;
 462:/home/vinay/Desktop/softconsole_watershed/Water-shed/src/platform/mpfs_hal/common/mss_plic.h **** 
 463:/home/vinay/Desktop/softconsole_watershed/Water-shed/src/platform/mpfs_hal/common/mss_plic.h **** #define MAX_PLIC_INT PLIC_U54_4_BUS_ERROR_UNIT_OFFSET
 464:/home/vinay/Desktop/softconsole_watershed/Water-shed/src/platform/mpfs_hal/common/mss_plic.h **** 
 465:/home/vinay/Desktop/softconsole_watershed/Water-shed/src/platform/mpfs_hal/common/mss_plic.h **** typedef struct
 466:/home/vinay/Desktop/softconsole_watershed/Water-shed/src/platform/mpfs_hal/common/mss_plic.h **** {
 467:/home/vinay/Desktop/softconsole_watershed/Water-shed/src/platform/mpfs_hal/common/mss_plic.h ****     volatile uint32_t PRIORITY_THRESHOLD;
 468:/home/vinay/Desktop/softconsole_watershed/Water-shed/src/platform/mpfs_hal/common/mss_plic.h ****     volatile uint32_t CLAIM_COMPLETE;
 469:/home/vinay/Desktop/softconsole_watershed/Water-shed/src/platform/mpfs_hal/common/mss_plic.h ****     volatile uint32_t reserved[(0x1000/4)-2];
 470:/home/vinay/Desktop/softconsole_watershed/Water-shed/src/platform/mpfs_hal/common/mss_plic.h **** } IRQ_Target_Type;
 471:/home/vinay/Desktop/softconsole_watershed/Water-shed/src/platform/mpfs_hal/common/mss_plic.h **** 
 472:/home/vinay/Desktop/softconsole_watershed/Water-shed/src/platform/mpfs_hal/common/mss_plic.h **** typedef struct
 473:/home/vinay/Desktop/softconsole_watershed/Water-shed/src/platform/mpfs_hal/common/mss_plic.h **** {
 474:/home/vinay/Desktop/softconsole_watershed/Water-shed/src/platform/mpfs_hal/common/mss_plic.h ****     volatile uint32_t ENABLES[32U];
 475:/home/vinay/Desktop/softconsole_watershed/Water-shed/src/platform/mpfs_hal/common/mss_plic.h **** } Target_Enables_Type;
 476:/home/vinay/Desktop/softconsole_watershed/Water-shed/src/platform/mpfs_hal/common/mss_plic.h **** 
 477:/home/vinay/Desktop/softconsole_watershed/Water-shed/src/platform/mpfs_hal/common/mss_plic.h **** 
 478:/home/vinay/Desktop/softconsole_watershed/Water-shed/src/platform/mpfs_hal/common/mss_plic.h **** #define PLIC_SET_UP_REGISTERS 6U
 479:/home/vinay/Desktop/softconsole_watershed/Water-shed/src/platform/mpfs_hal/common/mss_plic.h **** 
 480:/home/vinay/Desktop/softconsole_watershed/Water-shed/src/platform/mpfs_hal/common/mss_plic.h **** #define PLIC_NUM_SOURCES 187U
 481:/home/vinay/Desktop/softconsole_watershed/Water-shed/src/platform/mpfs_hal/common/mss_plic.h **** 
 482:/home/vinay/Desktop/softconsole_watershed/Water-shed/src/platform/mpfs_hal/common/mss_plic.h **** #define PLIC_NUM_PRIORITIES 7U
 483:/home/vinay/Desktop/softconsole_watershed/Water-shed/src/platform/mpfs_hal/common/mss_plic.h **** #define NUM_CLAIM_REGS      9U
 484:/home/vinay/Desktop/softconsole_watershed/Water-shed/src/platform/mpfs_hal/common/mss_plic.h **** 
 485:/home/vinay/Desktop/softconsole_watershed/Water-shed/src/platform/mpfs_hal/common/mss_plic.h **** 
 486:/home/vinay/Desktop/softconsole_watershed/Water-shed/src/platform/mpfs_hal/common/mss_plic.h **** /* The FU540-C000 has 53 interrupt sources. */
 487:/home/vinay/Desktop/softconsole_watershed/Water-shed/src/platform/mpfs_hal/common/mss_plic.h ****  typedef struct
 488:/home/vinay/Desktop/softconsole_watershed/Water-shed/src/platform/mpfs_hal/common/mss_plic.h **** {
 489:/home/vinay/Desktop/softconsole_watershed/Water-shed/src/platform/mpfs_hal/common/mss_plic.h ****     volatile uint32_t RESERVED0;
 490:/home/vinay/Desktop/softconsole_watershed/Water-shed/src/platform/mpfs_hal/common/mss_plic.h ****     /*-------------------- Source Priority --------------------*/
 491:/home/vinay/Desktop/softconsole_watershed/Water-shed/src/platform/mpfs_hal/common/mss_plic.h ****     volatile uint32_t SOURCE_PRIORITY[PLIC_NUM_SOURCES];
 492:/home/vinay/Desktop/softconsole_watershed/Water-shed/src/platform/mpfs_hal/common/mss_plic.h ****     volatile uint32_t RESERVED1[(0x1000 / 4) - (PLIC_NUM_SOURCES + 1)];
 493:/home/vinay/Desktop/softconsole_watershed/Water-shed/src/platform/mpfs_hal/common/mss_plic.h ****     /*-------------------- Pending array --------------------*/
 494:/home/vinay/Desktop/softconsole_watershed/Water-shed/src/platform/mpfs_hal/common/mss_plic.h ****     volatile const uint32_t PENDING_ARRAY[PLIC_SET_UP_REGISTERS];
 495:/home/vinay/Desktop/softconsole_watershed/Water-shed/src/platform/mpfs_hal/common/mss_plic.h ****     volatile uint32_t RESERVED2[(0x1000/4) - PLIC_SET_UP_REGISTERS];
 496:/home/vinay/Desktop/softconsole_watershed/Water-shed/src/platform/mpfs_hal/common/mss_plic.h **** 
 497:/home/vinay/Desktop/softconsole_watershed/Water-shed/src/platform/mpfs_hal/common/mss_plic.h ****     /*-----------------Hart0 Mode Enables--------------------*/
 498:/home/vinay/Desktop/softconsole_watershed/Water-shed/src/platform/mpfs_hal/common/mss_plic.h ****     volatile uint32_t HART0_MMODE_ENA[PLIC_SET_UP_REGISTERS];
 499:/home/vinay/Desktop/softconsole_watershed/Water-shed/src/platform/mpfs_hal/common/mss_plic.h ****     volatile uint32_t RESERVED3[(0x80/4) - PLIC_SET_UP_REGISTERS];
 500:/home/vinay/Desktop/softconsole_watershed/Water-shed/src/platform/mpfs_hal/common/mss_plic.h **** 
 501:/home/vinay/Desktop/softconsole_watershed/Water-shed/src/platform/mpfs_hal/common/mss_plic.h ****     /*-----------------Hart1 Mode Enables--------------------*/
 502:/home/vinay/Desktop/softconsole_watershed/Water-shed/src/platform/mpfs_hal/common/mss_plic.h ****     volatile uint32_t HART1_MMODE_ENA[PLIC_SET_UP_REGISTERS];
 503:/home/vinay/Desktop/softconsole_watershed/Water-shed/src/platform/mpfs_hal/common/mss_plic.h ****     volatile uint32_t RESERVED4a[(0x80/4) - PLIC_SET_UP_REGISTERS];
 504:/home/vinay/Desktop/softconsole_watershed/Water-shed/src/platform/mpfs_hal/common/mss_plic.h ****     volatile uint32_t HART1_SMODE_ENA[PLIC_SET_UP_REGISTERS];
 505:/home/vinay/Desktop/softconsole_watershed/Water-shed/src/platform/mpfs_hal/common/mss_plic.h ****     volatile uint32_t RESERVED4[(0x80/4) - PLIC_SET_UP_REGISTERS];
 506:/home/vinay/Desktop/softconsole_watershed/Water-shed/src/platform/mpfs_hal/common/mss_plic.h **** 
 507:/home/vinay/Desktop/softconsole_watershed/Water-shed/src/platform/mpfs_hal/common/mss_plic.h ****     /*-----------------Hart2 Mode Enables--------------------*/
 508:/home/vinay/Desktop/softconsole_watershed/Water-shed/src/platform/mpfs_hal/common/mss_plic.h ****     volatile uint32_t HART2_MMODE_ENA[PLIC_SET_UP_REGISTERS];
 509:/home/vinay/Desktop/softconsole_watershed/Water-shed/src/platform/mpfs_hal/common/mss_plic.h ****     volatile uint32_t RESERVED5a[(0x80/4) - PLIC_SET_UP_REGISTERS];
 510:/home/vinay/Desktop/softconsole_watershed/Water-shed/src/platform/mpfs_hal/common/mss_plic.h ****     volatile uint32_t HART2_SMODE_ENA[PLIC_SET_UP_REGISTERS];
 511:/home/vinay/Desktop/softconsole_watershed/Water-shed/src/platform/mpfs_hal/common/mss_plic.h ****     volatile uint32_t RESERVED5[(0x80/4) - PLIC_SET_UP_REGISTERS];
 512:/home/vinay/Desktop/softconsole_watershed/Water-shed/src/platform/mpfs_hal/common/mss_plic.h **** 
 513:/home/vinay/Desktop/softconsole_watershed/Water-shed/src/platform/mpfs_hal/common/mss_plic.h ****     /*-----------------Hart3 Mode Enables--------------------*/
 514:/home/vinay/Desktop/softconsole_watershed/Water-shed/src/platform/mpfs_hal/common/mss_plic.h ****     volatile uint32_t HART3_MMODE_ENA[PLIC_SET_UP_REGISTERS];
 515:/home/vinay/Desktop/softconsole_watershed/Water-shed/src/platform/mpfs_hal/common/mss_plic.h ****     volatile uint32_t RESERVED6a[(0x80/4) - PLIC_SET_UP_REGISTERS];
 516:/home/vinay/Desktop/softconsole_watershed/Water-shed/src/platform/mpfs_hal/common/mss_plic.h ****     volatile uint32_t HART3_SMODE_ENA[PLIC_SET_UP_REGISTERS];
 517:/home/vinay/Desktop/softconsole_watershed/Water-shed/src/platform/mpfs_hal/common/mss_plic.h ****     volatile uint32_t RESERVED6[(0x80/4) - PLIC_SET_UP_REGISTERS];
 518:/home/vinay/Desktop/softconsole_watershed/Water-shed/src/platform/mpfs_hal/common/mss_plic.h **** 
 519:/home/vinay/Desktop/softconsole_watershed/Water-shed/src/platform/mpfs_hal/common/mss_plic.h ****     /*-----------------Hart4 Mode Enables--------------------*/
 520:/home/vinay/Desktop/softconsole_watershed/Water-shed/src/platform/mpfs_hal/common/mss_plic.h ****     volatile uint32_t HART4_MMODE_ENA[PLIC_SET_UP_REGISTERS];
 521:/home/vinay/Desktop/softconsole_watershed/Water-shed/src/platform/mpfs_hal/common/mss_plic.h ****     volatile uint32_t RESERVED7a[(0x80/4) - PLIC_SET_UP_REGISTERS];
 522:/home/vinay/Desktop/softconsole_watershed/Water-shed/src/platform/mpfs_hal/common/mss_plic.h ****     volatile uint32_t HART4_SMODE_ENA[PLIC_SET_UP_REGISTERS];
 523:/home/vinay/Desktop/softconsole_watershed/Water-shed/src/platform/mpfs_hal/common/mss_plic.h ****     volatile uint32_t RESERVED7[(0x80/4) - PLIC_SET_UP_REGISTERS];
 524:/home/vinay/Desktop/softconsole_watershed/Water-shed/src/platform/mpfs_hal/common/mss_plic.h **** 
 525:/home/vinay/Desktop/softconsole_watershed/Water-shed/src/platform/mpfs_hal/common/mss_plic.h ****     volatile uint32_t RESERVED8[(0x0C200000 - 0x0C002480)/4];
 526:/home/vinay/Desktop/softconsole_watershed/Water-shed/src/platform/mpfs_hal/common/mss_plic.h **** 
 527:/home/vinay/Desktop/softconsole_watershed/Water-shed/src/platform/mpfs_hal/common/mss_plic.h ****     /*--- Target Priority threshold and claim/complete---------*/
 528:/home/vinay/Desktop/softconsole_watershed/Water-shed/src/platform/mpfs_hal/common/mss_plic.h ****     IRQ_Target_Type TARGET[NUM_CLAIM_REGS];   /* See PLIC Register Map or
 529:/home/vinay/Desktop/softconsole_watershed/Water-shed/src/platform/mpfs_hal/common/mss_plic.h ****                                                  TARGET_OFFSET defines below
 530:/home/vinay/Desktop/softconsole_watershed/Water-shed/src/platform/mpfs_hal/common/mss_plic.h ****                                                  for offset details */
 531:/home/vinay/Desktop/softconsole_watershed/Water-shed/src/platform/mpfs_hal/common/mss_plic.h **** 
 532:/home/vinay/Desktop/softconsole_watershed/Water-shed/src/platform/mpfs_hal/common/mss_plic.h **** } PLIC_Type;
 533:/home/vinay/Desktop/softconsole_watershed/Water-shed/src/platform/mpfs_hal/common/mss_plic.h **** 
 534:/home/vinay/Desktop/softconsole_watershed/Water-shed/src/platform/mpfs_hal/common/mss_plic.h **** #define TARGET_OFFSET_HART0_M 0U
 535:/home/vinay/Desktop/softconsole_watershed/Water-shed/src/platform/mpfs_hal/common/mss_plic.h **** #define TARGET_OFFSET_HART1_M 1U
 536:/home/vinay/Desktop/softconsole_watershed/Water-shed/src/platform/mpfs_hal/common/mss_plic.h **** #define TARGET_OFFSET_HART1_S 2U
 537:/home/vinay/Desktop/softconsole_watershed/Water-shed/src/platform/mpfs_hal/common/mss_plic.h **** #define TARGET_OFFSET_HART2_M 3U
 538:/home/vinay/Desktop/softconsole_watershed/Water-shed/src/platform/mpfs_hal/common/mss_plic.h **** #define TARGET_OFFSET_HART2_S 4U
 539:/home/vinay/Desktop/softconsole_watershed/Water-shed/src/platform/mpfs_hal/common/mss_plic.h **** #define TARGET_OFFSET_HART3_M 5U
 540:/home/vinay/Desktop/softconsole_watershed/Water-shed/src/platform/mpfs_hal/common/mss_plic.h **** #define TARGET_OFFSET_HART3_S 6U
 541:/home/vinay/Desktop/softconsole_watershed/Water-shed/src/platform/mpfs_hal/common/mss_plic.h **** #define TARGET_OFFSET_HART4_M 7U
 542:/home/vinay/Desktop/softconsole_watershed/Water-shed/src/platform/mpfs_hal/common/mss_plic.h **** #define TARGET_OFFSET_HART4_S 8U
 543:/home/vinay/Desktop/softconsole_watershed/Water-shed/src/platform/mpfs_hal/common/mss_plic.h **** 
 544:/home/vinay/Desktop/softconsole_watershed/Water-shed/src/platform/mpfs_hal/common/mss_plic.h **** extern const unsigned long plic_hart_lookup[5U];
 545:/home/vinay/Desktop/softconsole_watershed/Water-shed/src/platform/mpfs_hal/common/mss_plic.h **** 
 546:/home/vinay/Desktop/softconsole_watershed/Water-shed/src/platform/mpfs_hal/common/mss_plic.h **** /***************************************************************************//**
 547:/home/vinay/Desktop/softconsole_watershed/Water-shed/src/platform/mpfs_hal/common/mss_plic.h ****  * PLIC: Platform Level Interrupt Controller
 548:/home/vinay/Desktop/softconsole_watershed/Water-shed/src/platform/mpfs_hal/common/mss_plic.h ****  */
 549:/home/vinay/Desktop/softconsole_watershed/Water-shed/src/platform/mpfs_hal/common/mss_plic.h **** #define PLIC_BASE_ADDR 0x0C000000UL
 550:/home/vinay/Desktop/softconsole_watershed/Water-shed/src/platform/mpfs_hal/common/mss_plic.h **** 
 551:/home/vinay/Desktop/softconsole_watershed/Water-shed/src/platform/mpfs_hal/common/mss_plic.h **** #define PLIC    ((PLIC_Type * const)PLIC_BASE_ADDR)
 552:/home/vinay/Desktop/softconsole_watershed/Water-shed/src/platform/mpfs_hal/common/mss_plic.h **** 
 553:/home/vinay/Desktop/softconsole_watershed/Water-shed/src/platform/mpfs_hal/common/mss_plic.h **** /*-------------------------------------------------------------------------*//**
 554:/home/vinay/Desktop/softconsole_watershed/Water-shed/src/platform/mpfs_hal/common/mss_plic.h ****  * The function PLIC_init() initializes the PLIC controller and enables the
 555:/home/vinay/Desktop/softconsole_watershed/Water-shed/src/platform/mpfs_hal/common/mss_plic.h ****  * global external interrupt bit.
 556:/home/vinay/Desktop/softconsole_watershed/Water-shed/src/platform/mpfs_hal/common/mss_plic.h ****  */
 557:/home/vinay/Desktop/softconsole_watershed/Water-shed/src/platform/mpfs_hal/common/mss_plic.h **** 
 558:/home/vinay/Desktop/softconsole_watershed/Water-shed/src/platform/mpfs_hal/common/mss_plic.h **** /*-----------------Hart Mode Enables--------------------*/
 559:/home/vinay/Desktop/softconsole_watershed/Water-shed/src/platform/mpfs_hal/common/mss_plic.h **** 
 560:/home/vinay/Desktop/softconsole_watershed/Water-shed/src/platform/mpfs_hal/common/mss_plic.h **** static inline void PLIC_init(void)
 561:/home/vinay/Desktop/softconsole_watershed/Water-shed/src/platform/mpfs_hal/common/mss_plic.h **** {
 562:/home/vinay/Desktop/softconsole_watershed/Water-shed/src/platform/mpfs_hal/common/mss_plic.h ****     uint32_t inc;
 563:/home/vinay/Desktop/softconsole_watershed/Water-shed/src/platform/mpfs_hal/common/mss_plic.h ****     uint64_t hart_id  = read_csr(mhartid);
 564:/home/vinay/Desktop/softconsole_watershed/Water-shed/src/platform/mpfs_hal/common/mss_plic.h **** 
 565:/home/vinay/Desktop/softconsole_watershed/Water-shed/src/platform/mpfs_hal/common/mss_plic.h ****     /* Disable all interrupts for the current hart. */
 566:/home/vinay/Desktop/softconsole_watershed/Water-shed/src/platform/mpfs_hal/common/mss_plic.h ****     switch(hart_id)
 567:/home/vinay/Desktop/softconsole_watershed/Water-shed/src/platform/mpfs_hal/common/mss_plic.h ****     {
 568:/home/vinay/Desktop/softconsole_watershed/Water-shed/src/platform/mpfs_hal/common/mss_plic.h ****         case 0:
 569:/home/vinay/Desktop/softconsole_watershed/Water-shed/src/platform/mpfs_hal/common/mss_plic.h ****             for(inc = 0UL; inc < PLIC_SET_UP_REGISTERS; inc++)
 570:/home/vinay/Desktop/softconsole_watershed/Water-shed/src/platform/mpfs_hal/common/mss_plic.h ****             {
 571:/home/vinay/Desktop/softconsole_watershed/Water-shed/src/platform/mpfs_hal/common/mss_plic.h ****                 PLIC->HART0_MMODE_ENA[inc] = 0U;
 572:/home/vinay/Desktop/softconsole_watershed/Water-shed/src/platform/mpfs_hal/common/mss_plic.h ****             }
 573:/home/vinay/Desktop/softconsole_watershed/Water-shed/src/platform/mpfs_hal/common/mss_plic.h **** 
 574:/home/vinay/Desktop/softconsole_watershed/Water-shed/src/platform/mpfs_hal/common/mss_plic.h ****             /* Set the threshold to zero.
 575:/home/vinay/Desktop/softconsole_watershed/Water-shed/src/platform/mpfs_hal/common/mss_plic.h ****              * PLIC provides context based threshold register for the settings of a
 576:/home/vinay/Desktop/softconsole_watershed/Water-shed/src/platform/mpfs_hal/common/mss_plic.h ****              * interrupt priority threshold of each context. The threshold register
 577:/home/vinay/Desktop/softconsole_watershed/Water-shed/src/platform/mpfs_hal/common/mss_plic.h ****              * is a WARL field. The PLIC will mask all PLIC interrupts of a priority
 578:/home/vinay/Desktop/softconsole_watershed/Water-shed/src/platform/mpfs_hal/common/mss_plic.h ****              * less than or equal to threshold. For example, a threshold value of zero
 579:/home/vinay/Desktop/softconsole_watershed/Water-shed/src/platform/mpfs_hal/common/mss_plic.h ****              * permits all interrupts with non-zero priority.*/
 580:/home/vinay/Desktop/softconsole_watershed/Water-shed/src/platform/mpfs_hal/common/mss_plic.h **** 
 581:/home/vinay/Desktop/softconsole_watershed/Water-shed/src/platform/mpfs_hal/common/mss_plic.h ****             PLIC->TARGET[TARGET_OFFSET_HART0_M].PRIORITY_THRESHOLD  = 0U;
 582:/home/vinay/Desktop/softconsole_watershed/Water-shed/src/platform/mpfs_hal/common/mss_plic.h ****             break;
 583:/home/vinay/Desktop/softconsole_watershed/Water-shed/src/platform/mpfs_hal/common/mss_plic.h ****         case 1:
 584:/home/vinay/Desktop/softconsole_watershed/Water-shed/src/platform/mpfs_hal/common/mss_plic.h ****             for(inc = 0UL; inc < PLIC_SET_UP_REGISTERS; inc++)
 585:/home/vinay/Desktop/softconsole_watershed/Water-shed/src/platform/mpfs_hal/common/mss_plic.h ****             {
 586:/home/vinay/Desktop/softconsole_watershed/Water-shed/src/platform/mpfs_hal/common/mss_plic.h ****                 PLIC->HART1_MMODE_ENA[inc] = 0U;
 587:/home/vinay/Desktop/softconsole_watershed/Water-shed/src/platform/mpfs_hal/common/mss_plic.h ****                 PLIC->HART1_SMODE_ENA[inc] = 0U;
 588:/home/vinay/Desktop/softconsole_watershed/Water-shed/src/platform/mpfs_hal/common/mss_plic.h ****             }
 589:/home/vinay/Desktop/softconsole_watershed/Water-shed/src/platform/mpfs_hal/common/mss_plic.h **** 
 590:/home/vinay/Desktop/softconsole_watershed/Water-shed/src/platform/mpfs_hal/common/mss_plic.h ****             PLIC->TARGET[TARGET_OFFSET_HART1_M].PRIORITY_THRESHOLD  = 0U;
 591:/home/vinay/Desktop/softconsole_watershed/Water-shed/src/platform/mpfs_hal/common/mss_plic.h ****             /* Disable supervisor level */
 592:/home/vinay/Desktop/softconsole_watershed/Water-shed/src/platform/mpfs_hal/common/mss_plic.h ****             PLIC->TARGET[TARGET_OFFSET_HART1_S].PRIORITY_THRESHOLD  = 7U;
 593:/home/vinay/Desktop/softconsole_watershed/Water-shed/src/platform/mpfs_hal/common/mss_plic.h ****             break;
 594:/home/vinay/Desktop/softconsole_watershed/Water-shed/src/platform/mpfs_hal/common/mss_plic.h ****         case 2:
 595:/home/vinay/Desktop/softconsole_watershed/Water-shed/src/platform/mpfs_hal/common/mss_plic.h ****             for(inc = 0UL; inc < PLIC_SET_UP_REGISTERS; inc++)
 596:/home/vinay/Desktop/softconsole_watershed/Water-shed/src/platform/mpfs_hal/common/mss_plic.h ****             {
 597:/home/vinay/Desktop/softconsole_watershed/Water-shed/src/platform/mpfs_hal/common/mss_plic.h ****                 PLIC->HART2_MMODE_ENA[inc] = 0U;
 598:/home/vinay/Desktop/softconsole_watershed/Water-shed/src/platform/mpfs_hal/common/mss_plic.h ****                 PLIC->HART2_SMODE_ENA[inc] = 0U;
 599:/home/vinay/Desktop/softconsole_watershed/Water-shed/src/platform/mpfs_hal/common/mss_plic.h ****             }
 600:/home/vinay/Desktop/softconsole_watershed/Water-shed/src/platform/mpfs_hal/common/mss_plic.h **** 
 601:/home/vinay/Desktop/softconsole_watershed/Water-shed/src/platform/mpfs_hal/common/mss_plic.h ****             PLIC->TARGET[TARGET_OFFSET_HART2_M].PRIORITY_THRESHOLD  = 0U;
 602:/home/vinay/Desktop/softconsole_watershed/Water-shed/src/platform/mpfs_hal/common/mss_plic.h ****             /* Disable supervisor level */
 603:/home/vinay/Desktop/softconsole_watershed/Water-shed/src/platform/mpfs_hal/common/mss_plic.h ****             PLIC->TARGET[TARGET_OFFSET_HART2_S].PRIORITY_THRESHOLD  = 7U;
 604:/home/vinay/Desktop/softconsole_watershed/Water-shed/src/platform/mpfs_hal/common/mss_plic.h ****             break;
 605:/home/vinay/Desktop/softconsole_watershed/Water-shed/src/platform/mpfs_hal/common/mss_plic.h ****         case 3:
 606:/home/vinay/Desktop/softconsole_watershed/Water-shed/src/platform/mpfs_hal/common/mss_plic.h ****             for(inc = 0UL; inc < PLIC_SET_UP_REGISTERS; inc++)
 607:/home/vinay/Desktop/softconsole_watershed/Water-shed/src/platform/mpfs_hal/common/mss_plic.h ****             {
 608:/home/vinay/Desktop/softconsole_watershed/Water-shed/src/platform/mpfs_hal/common/mss_plic.h ****                 PLIC->HART3_MMODE_ENA[inc] = 0U;
 609:/home/vinay/Desktop/softconsole_watershed/Water-shed/src/platform/mpfs_hal/common/mss_plic.h ****                 PLIC->HART3_SMODE_ENA[inc] = 0U;
 610:/home/vinay/Desktop/softconsole_watershed/Water-shed/src/platform/mpfs_hal/common/mss_plic.h ****             }
 611:/home/vinay/Desktop/softconsole_watershed/Water-shed/src/platform/mpfs_hal/common/mss_plic.h **** 
 612:/home/vinay/Desktop/softconsole_watershed/Water-shed/src/platform/mpfs_hal/common/mss_plic.h ****             PLIC->TARGET[TARGET_OFFSET_HART3_M].PRIORITY_THRESHOLD  = 0U;
 613:/home/vinay/Desktop/softconsole_watershed/Water-shed/src/platform/mpfs_hal/common/mss_plic.h ****             /* Disable supervisor level */
 614:/home/vinay/Desktop/softconsole_watershed/Water-shed/src/platform/mpfs_hal/common/mss_plic.h ****             PLIC->TARGET[TARGET_OFFSET_HART3_S].PRIORITY_THRESHOLD  = 7U;
 615:/home/vinay/Desktop/softconsole_watershed/Water-shed/src/platform/mpfs_hal/common/mss_plic.h ****             break;
 616:/home/vinay/Desktop/softconsole_watershed/Water-shed/src/platform/mpfs_hal/common/mss_plic.h ****         case 4:
 617:/home/vinay/Desktop/softconsole_watershed/Water-shed/src/platform/mpfs_hal/common/mss_plic.h ****             for(inc = 0UL; inc < PLIC_SET_UP_REGISTERS; inc++)
 618:/home/vinay/Desktop/softconsole_watershed/Water-shed/src/platform/mpfs_hal/common/mss_plic.h ****             {
 619:/home/vinay/Desktop/softconsole_watershed/Water-shed/src/platform/mpfs_hal/common/mss_plic.h ****                 PLIC->HART4_MMODE_ENA[inc] = 0U;
 620:/home/vinay/Desktop/softconsole_watershed/Water-shed/src/platform/mpfs_hal/common/mss_plic.h ****                 PLIC->HART4_SMODE_ENA[inc] = 0U;
 621:/home/vinay/Desktop/softconsole_watershed/Water-shed/src/platform/mpfs_hal/common/mss_plic.h ****             }
 622:/home/vinay/Desktop/softconsole_watershed/Water-shed/src/platform/mpfs_hal/common/mss_plic.h **** 
 623:/home/vinay/Desktop/softconsole_watershed/Water-shed/src/platform/mpfs_hal/common/mss_plic.h ****             PLIC->TARGET[TARGET_OFFSET_HART4_M].PRIORITY_THRESHOLD  = 0U;
 624:/home/vinay/Desktop/softconsole_watershed/Water-shed/src/platform/mpfs_hal/common/mss_plic.h ****             /* Disable supervisor level */
 625:/home/vinay/Desktop/softconsole_watershed/Water-shed/src/platform/mpfs_hal/common/mss_plic.h ****             PLIC->TARGET[TARGET_OFFSET_HART4_S].PRIORITY_THRESHOLD  = 7U;
 626:/home/vinay/Desktop/softconsole_watershed/Water-shed/src/platform/mpfs_hal/common/mss_plic.h ****             break;
 627:/home/vinay/Desktop/softconsole_watershed/Water-shed/src/platform/mpfs_hal/common/mss_plic.h ****         default:
 628:/home/vinay/Desktop/softconsole_watershed/Water-shed/src/platform/mpfs_hal/common/mss_plic.h ****             break;
 629:/home/vinay/Desktop/softconsole_watershed/Water-shed/src/platform/mpfs_hal/common/mss_plic.h ****     }
 630:/home/vinay/Desktop/softconsole_watershed/Water-shed/src/platform/mpfs_hal/common/mss_plic.h **** 
 631:/home/vinay/Desktop/softconsole_watershed/Water-shed/src/platform/mpfs_hal/common/mss_plic.h ****     /* Enable  PLIC_MMUARTine external interrupts. */
 632:/home/vinay/Desktop/softconsole_watershed/Water-shed/src/platform/mpfs_hal/common/mss_plic.h ****     set_csr(mie, MIP_MEIP);
 633:/home/vinay/Desktop/softconsole_watershed/Water-shed/src/platform/mpfs_hal/common/mss_plic.h **** }
 634:/home/vinay/Desktop/softconsole_watershed/Water-shed/src/platform/mpfs_hal/common/mss_plic.h **** 
 635:/home/vinay/Desktop/softconsole_watershed/Water-shed/src/platform/mpfs_hal/common/mss_plic.h **** 
 636:/home/vinay/Desktop/softconsole_watershed/Water-shed/src/platform/mpfs_hal/common/mss_plic.h **** 
 637:/home/vinay/Desktop/softconsole_watershed/Water-shed/src/platform/mpfs_hal/common/mss_plic.h **** /***************************************************************************//**
 638:/home/vinay/Desktop/softconsole_watershed/Water-shed/src/platform/mpfs_hal/common/mss_plic.h ****  * The function PLIC_EnableIRQ() enables the external interrupt for the
 639:/home/vinay/Desktop/softconsole_watershed/Water-shed/src/platform/mpfs_hal/common/mss_plic.h ****  * interrupt number indicated by the parameter IRQn.
 640:/home/vinay/Desktop/softconsole_watershed/Water-shed/src/platform/mpfs_hal/common/mss_plic.h ****  */
 641:/home/vinay/Desktop/softconsole_watershed/Water-shed/src/platform/mpfs_hal/common/mss_plic.h **** static inline void PLIC_EnableIRQ(PLIC_IRQn_Type IRQn)
 642:/home/vinay/Desktop/softconsole_watershed/Water-shed/src/platform/mpfs_hal/common/mss_plic.h **** {
 643:/home/vinay/Desktop/softconsole_watershed/Water-shed/src/platform/mpfs_hal/common/mss_plic.h ****     uint32_t current;
 644:/home/vinay/Desktop/softconsole_watershed/Water-shed/src/platform/mpfs_hal/common/mss_plic.h ****     uint64_t hart_id  = read_csr(mhartid);
 645:/home/vinay/Desktop/softconsole_watershed/Water-shed/src/platform/mpfs_hal/common/mss_plic.h **** 
 646:/home/vinay/Desktop/softconsole_watershed/Water-shed/src/platform/mpfs_hal/common/mss_plic.h ****     switch(hart_id)
 647:/home/vinay/Desktop/softconsole_watershed/Water-shed/src/platform/mpfs_hal/common/mss_plic.h ****     {
 648:/home/vinay/Desktop/softconsole_watershed/Water-shed/src/platform/mpfs_hal/common/mss_plic.h ****         case 0:
 649:/home/vinay/Desktop/softconsole_watershed/Water-shed/src/platform/mpfs_hal/common/mss_plic.h ****             current  = PLIC->HART0_MMODE_ENA[IRQn / 32U];
 650:/home/vinay/Desktop/softconsole_watershed/Water-shed/src/platform/mpfs_hal/common/mss_plic.h ****             current |= (uint32_t)1 << (IRQn % 32U);
 651:/home/vinay/Desktop/softconsole_watershed/Water-shed/src/platform/mpfs_hal/common/mss_plic.h ****             PLIC->HART0_MMODE_ENA[IRQn / 32U]  = current;
 652:/home/vinay/Desktop/softconsole_watershed/Water-shed/src/platform/mpfs_hal/common/mss_plic.h ****             break;
 653:/home/vinay/Desktop/softconsole_watershed/Water-shed/src/platform/mpfs_hal/common/mss_plic.h ****         case 1:
 654:/home/vinay/Desktop/softconsole_watershed/Water-shed/src/platform/mpfs_hal/common/mss_plic.h ****             current  = PLIC->HART1_MMODE_ENA[IRQn / 32U];
 655:/home/vinay/Desktop/softconsole_watershed/Water-shed/src/platform/mpfs_hal/common/mss_plic.h ****             current |= (uint32_t)1 << (IRQn % 32U);
 656:/home/vinay/Desktop/softconsole_watershed/Water-shed/src/platform/mpfs_hal/common/mss_plic.h ****             PLIC->HART1_MMODE_ENA[IRQn / 32U]  = current;
 657:/home/vinay/Desktop/softconsole_watershed/Water-shed/src/platform/mpfs_hal/common/mss_plic.h ****             break;
 658:/home/vinay/Desktop/softconsole_watershed/Water-shed/src/platform/mpfs_hal/common/mss_plic.h ****         case 2:
 659:/home/vinay/Desktop/softconsole_watershed/Water-shed/src/platform/mpfs_hal/common/mss_plic.h ****             current  = PLIC->HART2_MMODE_ENA[IRQn / 32U];
 660:/home/vinay/Desktop/softconsole_watershed/Water-shed/src/platform/mpfs_hal/common/mss_plic.h ****             current |= (uint32_t)1 << (IRQn % 32U);
 661:/home/vinay/Desktop/softconsole_watershed/Water-shed/src/platform/mpfs_hal/common/mss_plic.h ****             PLIC->HART2_MMODE_ENA[IRQn / 32U]  = current;
 662:/home/vinay/Desktop/softconsole_watershed/Water-shed/src/platform/mpfs_hal/common/mss_plic.h ****             break;
 663:/home/vinay/Desktop/softconsole_watershed/Water-shed/src/platform/mpfs_hal/common/mss_plic.h ****         case 3:
 664:/home/vinay/Desktop/softconsole_watershed/Water-shed/src/platform/mpfs_hal/common/mss_plic.h ****             current  = PLIC->HART3_MMODE_ENA[IRQn / 32U];
 665:/home/vinay/Desktop/softconsole_watershed/Water-shed/src/platform/mpfs_hal/common/mss_plic.h ****             current |= (uint32_t)1 << (IRQn % 32U);
 666:/home/vinay/Desktop/softconsole_watershed/Water-shed/src/platform/mpfs_hal/common/mss_plic.h ****             PLIC->HART3_MMODE_ENA[IRQn / 32U]  = current;
 667:/home/vinay/Desktop/softconsole_watershed/Water-shed/src/platform/mpfs_hal/common/mss_plic.h ****             break;
 668:/home/vinay/Desktop/softconsole_watershed/Water-shed/src/platform/mpfs_hal/common/mss_plic.h ****         case 4:
 669:/home/vinay/Desktop/softconsole_watershed/Water-shed/src/platform/mpfs_hal/common/mss_plic.h ****             current  = PLIC->HART4_MMODE_ENA[IRQn / 32U];
 670:/home/vinay/Desktop/softconsole_watershed/Water-shed/src/platform/mpfs_hal/common/mss_plic.h ****             current |= (uint32_t)1 << (IRQn % 32U);
 671:/home/vinay/Desktop/softconsole_watershed/Water-shed/src/platform/mpfs_hal/common/mss_plic.h ****             PLIC->HART4_MMODE_ENA[IRQn / 32U]  = current;
 672:/home/vinay/Desktop/softconsole_watershed/Water-shed/src/platform/mpfs_hal/common/mss_plic.h ****             break;
 673:/home/vinay/Desktop/softconsole_watershed/Water-shed/src/platform/mpfs_hal/common/mss_plic.h ****         default:
 674:/home/vinay/Desktop/softconsole_watershed/Water-shed/src/platform/mpfs_hal/common/mss_plic.h ****             break;
 675:/home/vinay/Desktop/softconsole_watershed/Water-shed/src/platform/mpfs_hal/common/mss_plic.h ****     }
 676:/home/vinay/Desktop/softconsole_watershed/Water-shed/src/platform/mpfs_hal/common/mss_plic.h **** }
 677:/home/vinay/Desktop/softconsole_watershed/Water-shed/src/platform/mpfs_hal/common/mss_plic.h **** 
 678:/home/vinay/Desktop/softconsole_watershed/Water-shed/src/platform/mpfs_hal/common/mss_plic.h **** /***************************************************************************//**
 679:/home/vinay/Desktop/softconsole_watershed/Water-shed/src/platform/mpfs_hal/common/mss_plic.h ****  * The function PLIC_DisableIRQ() disables the external interrupt for the
 680:/home/vinay/Desktop/softconsole_watershed/Water-shed/src/platform/mpfs_hal/common/mss_plic.h ****  * interrupt number indicated by the parameter IRQn.
 681:/home/vinay/Desktop/softconsole_watershed/Water-shed/src/platform/mpfs_hal/common/mss_plic.h **** 
 682:/home/vinay/Desktop/softconsole_watershed/Water-shed/src/platform/mpfs_hal/common/mss_plic.h ****  * NOTE:
 683:/home/vinay/Desktop/softconsole_watershed/Water-shed/src/platform/mpfs_hal/common/mss_plic.h ****  *     This function can be used to disable the external interrupt from outside
 684:/home/vinay/Desktop/softconsole_watershed/Water-shed/src/platform/mpfs_hal/common/mss_plic.h ****  *     external interrupt handler function.
 685:/home/vinay/Desktop/softconsole_watershed/Water-shed/src/platform/mpfs_hal/common/mss_plic.h ****  *     This function MUST NOT be used from within the External Interrupt
 686:/home/vinay/Desktop/softconsole_watershed/Water-shed/src/platform/mpfs_hal/common/mss_plic.h ****  *     handler.
 687:/home/vinay/Desktop/softconsole_watershed/Water-shed/src/platform/mpfs_hal/common/mss_plic.h ****  *     If you wish to disable the external interrupt while the interrupt handler
 688:/home/vinay/Desktop/softconsole_watershed/Water-shed/src/platform/mpfs_hal/common/mss_plic.h ****  *     for that external interrupt is executing then you must use the return
 689:/home/vinay/Desktop/softconsole_watershed/Water-shed/src/platform/mpfs_hal/common/mss_plic.h ****  *     value EXT_IRQ_DISABLE to return from the extern interrupt handler.
 690:/home/vinay/Desktop/softconsole_watershed/Water-shed/src/platform/mpfs_hal/common/mss_plic.h ****  */
 691:/home/vinay/Desktop/softconsole_watershed/Water-shed/src/platform/mpfs_hal/common/mss_plic.h **** static inline void PLIC_DisableIRQ(PLIC_IRQn_Type IRQn)
 692:/home/vinay/Desktop/softconsole_watershed/Water-shed/src/platform/mpfs_hal/common/mss_plic.h **** {
  15              		.loc 1 692 1
  16              		.cfi_startproc
  17 0000 3971     		addi	sp,sp,-64
  18              		.cfi_def_cfa_offset 64
  19 0002 22FC     		sd	s0,56(sp)
  20              		.cfi_offset 8, -8
  21 0004 8000     		addi	s0,sp,64
  22              		.cfi_def_cfa 8, 0
  23 0006 AA87     		mv	a5,a0
  24 0008 2326F4FC 		sw	a5,-52(s0)
  25              	.LBB2:
 693:/home/vinay/Desktop/softconsole_watershed/Water-shed/src/platform/mpfs_hal/common/mss_plic.h ****     uint32_t current;
 694:/home/vinay/Desktop/softconsole_watershed/Water-shed/src/platform/mpfs_hal/common/mss_plic.h ****     uint64_t hart_id  = read_csr(mhartid);
  26              		.loc 1 694 25
  27              	 #APP
  28              	# 694 "/home/vinay/Desktop/softconsole_watershed/Water-shed/src/platform/mpfs_hal/common/mss_plic.h
 695              	
  29              		csrr a5, mhartid
  30              	# 0 "" 2
  31              	 #NO_APP
  32 0010 2334F4FE 		sd	a5,-24(s0)
  33 0014 833784FE 		ld	a5,-24(s0)
  34              	.LBE2:
 694:/home/vinay/Desktop/softconsole_watershed/Water-shed/src/platform/mpfs_hal/common/mss_plic.h ****     uint64_t hart_id  = read_csr(mhartid);
  35              		.loc 1 694 14
  36 0018 2330F4FE 		sd	a5,-32(s0)
 696:/home/vinay/Desktop/softconsole_watershed/Water-shed/src/platform/mpfs_hal/common/mss_plic.h ****     switch(hart_id)
  37              		.loc 1 696 5
  38 001c 033704FE 		ld	a4,-32(s0)
  39 0020 9147     		li	a5,4
  40 0022 63E1E726 		bgtu	a4,a5,.L10
  41 0026 833704FE 		ld	a5,-32(s0)
  42 002a 13972700 		slli	a4,a5,2
  43 002e 97070000 		lla	a5,.L4
  43      93870700 
  44 0036 BA97     		add	a5,a4,a5
  45 0038 9C43     		lw	a5,0(a5)
  46 003a 1B870700 		sext.w	a4,a5
  47 003e 97070000 		lla	a5,.L4
  47      93870700 
  48 0046 BA97     		add	a5,a4,a5
  49 0048 8287     		jr	a5
  50              		.section	.rodata.PLIC_DisableIRQ,"a",@progbits
  51              		.align	2
  52              		.align	2
  53              	.L4:
  54 0000 00000000 		.word	.L8-.L4
  55 0004 00000000 		.word	.L7-.L4
  56 0008 00000000 		.word	.L6-.L4
  57 000c 00000000 		.word	.L5-.L4
  58 0010 00000000 		.word	.L3-.L4
  59              		.section	.text.PLIC_DisableIRQ
  60              	.L8:
 697:/home/vinay/Desktop/softconsole_watershed/Water-shed/src/platform/mpfs_hal/common/mss_plic.h ****     {
 698:/home/vinay/Desktop/softconsole_watershed/Water-shed/src/platform/mpfs_hal/common/mss_plic.h ****         case 0:
 699:/home/vinay/Desktop/softconsole_watershed/Water-shed/src/platform/mpfs_hal/common/mss_plic.h ****             current = PLIC->HART0_MMODE_ENA[IRQn / 32U];
  61              		.loc 1 699 27
  62 004a 3707000C 		li	a4,201326592
  63              		.loc 1 699 50
  64 004e 8327C4FC 		lw	a5,-52(s0)
  65 0052 9BD75700 		srliw	a5,a5,5
  66 0056 8127     		sext.w	a5,a5
  67              		.loc 1 699 21
  68 0058 93960702 		slli	a3,a5,32
  69 005c 8192     		srli	a3,a3,32
  70 005e 8567     		li	a5,4096
  71 0060 93870780 		addi	a5,a5,-2048
  72 0064 B697     		add	a5,a3,a5
  73 0066 8A07     		slli	a5,a5,2
  74 0068 BA97     		add	a5,a4,a5
  75 006a 9C43     		lw	a5,0(a5)
  76 006c 232EF4FC 		sw	a5,-36(s0)
 700:/home/vinay/Desktop/softconsole_watershed/Water-shed/src/platform/mpfs_hal/common/mss_plic.h ****             current &= ~((uint32_t)1 << (IRQn % 32U));
  77              		.loc 1 700 47
  78 0070 8327C4FC 		lw	a5,-52(s0)
  79 0074 FD8B     		andi	a5,a5,31
  80 0076 8127     		sext.w	a5,a5
  81              		.loc 1 700 38
  82 0078 3E87     		mv	a4,a5
  83 007a 8547     		li	a5,1
  84 007c BB97E700 		sllw	a5,a5,a4
  85 0080 8127     		sext.w	a5,a5
  86              		.loc 1 700 24
  87 0082 93C7F7FF 		not	a5,a5
  88 0086 1B870700 		sext.w	a4,a5
  89              		.loc 1 700 21
  90 008a 8327C4FD 		lw	a5,-36(s0)
  91 008e F98F     		and	a5,a5,a4
  92 0090 232EF4FC 		sw	a5,-36(s0)
 701:/home/vinay/Desktop/softconsole_watershed/Water-shed/src/platform/mpfs_hal/common/mss_plic.h ****             PLIC->HART0_MMODE_ENA[IRQn / 32U] = current;
  93              		.loc 1 701 17
  94 0094 3707000C 		li	a4,201326592
  95              		.loc 1 701 40
  96 0098 8327C4FC 		lw	a5,-52(s0)
  97 009c 9BD75700 		srliw	a5,a5,5
  98 00a0 8127     		sext.w	a5,a5
  99              		.loc 1 701 47
 100 00a2 93960702 		slli	a3,a5,32
 101 00a6 8192     		srli	a3,a3,32
 102 00a8 8567     		li	a5,4096
 103 00aa 93870780 		addi	a5,a5,-2048
 104 00ae B697     		add	a5,a3,a5
 105 00b0 8A07     		slli	a5,a5,2
 106 00b2 BA97     		add	a5,a4,a5
 107 00b4 0327C4FD 		lw	a4,-36(s0)
 108 00b8 98C3     		sw	a4,0(a5)
 702:/home/vinay/Desktop/softconsole_watershed/Water-shed/src/platform/mpfs_hal/common/mss_plic.h ****             break;
 109              		.loc 1 702 13
 110 00ba F1A2     		j	.L9
 111              	.L7:
 703:/home/vinay/Desktop/softconsole_watershed/Water-shed/src/platform/mpfs_hal/common/mss_plic.h ****         case 1:
 704:/home/vinay/Desktop/softconsole_watershed/Water-shed/src/platform/mpfs_hal/common/mss_plic.h ****             current = PLIC->HART1_MMODE_ENA[IRQn / 32U];
 112              		.loc 1 704 27
 113 00bc 3707000C 		li	a4,201326592
 114              		.loc 1 704 50
 115 00c0 8327C4FC 		lw	a5,-52(s0)
 116 00c4 9BD75700 		srliw	a5,a5,5
 117 00c8 8127     		sext.w	a5,a5
 118              		.loc 1 704 21
 119 00ca 93960702 		slli	a3,a5,32
 120 00ce 8192     		srli	a3,a3,32
 121 00d0 8567     		li	a5,4096
 122 00d2 93870782 		addi	a5,a5,-2016
 123 00d6 B697     		add	a5,a3,a5
 124 00d8 8A07     		slli	a5,a5,2
 125 00da BA97     		add	a5,a4,a5
 126 00dc 9C43     		lw	a5,0(a5)
 127 00de 232EF4FC 		sw	a5,-36(s0)
 705:/home/vinay/Desktop/softconsole_watershed/Water-shed/src/platform/mpfs_hal/common/mss_plic.h ****             current &= ~((uint32_t)1 << (IRQn % 32U));
 128              		.loc 1 705 47
 129 00e2 8327C4FC 		lw	a5,-52(s0)
 130 00e6 FD8B     		andi	a5,a5,31
 131 00e8 8127     		sext.w	a5,a5
 132              		.loc 1 705 38
 133 00ea 3E87     		mv	a4,a5
 134 00ec 8547     		li	a5,1
 135 00ee BB97E700 		sllw	a5,a5,a4
 136 00f2 8127     		sext.w	a5,a5
 137              		.loc 1 705 24
 138 00f4 93C7F7FF 		not	a5,a5
 139 00f8 1B870700 		sext.w	a4,a5
 140              		.loc 1 705 21
 141 00fc 8327C4FD 		lw	a5,-36(s0)
 142 0100 F98F     		and	a5,a5,a4
 143 0102 232EF4FC 		sw	a5,-36(s0)
 706:/home/vinay/Desktop/softconsole_watershed/Water-shed/src/platform/mpfs_hal/common/mss_plic.h ****             PLIC->HART1_MMODE_ENA[IRQn / 32U] = current;
 144              		.loc 1 706 17
 145 0106 3707000C 		li	a4,201326592
 146              		.loc 1 706 40
 147 010a 8327C4FC 		lw	a5,-52(s0)
 148 010e 9BD75700 		srliw	a5,a5,5
 149 0112 8127     		sext.w	a5,a5
 150              		.loc 1 706 47
 151 0114 93960702 		slli	a3,a5,32
 152 0118 8192     		srli	a3,a3,32
 153 011a 8567     		li	a5,4096
 154 011c 93870782 		addi	a5,a5,-2016
 155 0120 B697     		add	a5,a3,a5
 156 0122 8A07     		slli	a5,a5,2
 157 0124 BA97     		add	a5,a4,a5
 158 0126 0327C4FD 		lw	a4,-36(s0)
 159 012a 98C3     		sw	a4,0(a5)
 707:/home/vinay/Desktop/softconsole_watershed/Water-shed/src/platform/mpfs_hal/common/mss_plic.h ****             break;
 160              		.loc 1 707 13
 161 012c A9AA     		j	.L9
 162              	.L6:
 708:/home/vinay/Desktop/softconsole_watershed/Water-shed/src/platform/mpfs_hal/common/mss_plic.h ****         case 2:
 709:/home/vinay/Desktop/softconsole_watershed/Water-shed/src/platform/mpfs_hal/common/mss_plic.h ****             current = PLIC->HART2_MMODE_ENA[IRQn / 32U];
 163              		.loc 1 709 27
 164 012e 3707000C 		li	a4,201326592
 165              		.loc 1 709 50
 166 0132 8327C4FC 		lw	a5,-52(s0)
 167 0136 9BD75700 		srliw	a5,a5,5
 168 013a 8127     		sext.w	a5,a5
 169              		.loc 1 709 21
 170 013c 93960702 		slli	a3,a5,32
 171 0140 8192     		srli	a3,a3,32
 172 0142 8567     		li	a5,4096
 173 0144 93870786 		addi	a5,a5,-1952
 174 0148 B697     		add	a5,a3,a5
 175 014a 8A07     		slli	a5,a5,2
 176 014c BA97     		add	a5,a4,a5
 177 014e 9C43     		lw	a5,0(a5)
 178 0150 232EF4FC 		sw	a5,-36(s0)
 710:/home/vinay/Desktop/softconsole_watershed/Water-shed/src/platform/mpfs_hal/common/mss_plic.h ****             current &= ~((uint32_t)1 << (IRQn % 32U));
 179              		.loc 1 710 47
 180 0154 8327C4FC 		lw	a5,-52(s0)
 181 0158 FD8B     		andi	a5,a5,31
 182 015a 8127     		sext.w	a5,a5
 183              		.loc 1 710 38
 184 015c 3E87     		mv	a4,a5
 185 015e 8547     		li	a5,1
 186 0160 BB97E700 		sllw	a5,a5,a4
 187 0164 8127     		sext.w	a5,a5
 188              		.loc 1 710 24
 189 0166 93C7F7FF 		not	a5,a5
 190 016a 1B870700 		sext.w	a4,a5
 191              		.loc 1 710 21
 192 016e 8327C4FD 		lw	a5,-36(s0)
 193 0172 F98F     		and	a5,a5,a4
 194 0174 232EF4FC 		sw	a5,-36(s0)
 711:/home/vinay/Desktop/softconsole_watershed/Water-shed/src/platform/mpfs_hal/common/mss_plic.h ****             PLIC->HART2_MMODE_ENA[IRQn / 32U] = current;
 195              		.loc 1 711 17
 196 0178 3707000C 		li	a4,201326592
 197              		.loc 1 711 40
 198 017c 8327C4FC 		lw	a5,-52(s0)
 199 0180 9BD75700 		srliw	a5,a5,5
 200 0184 8127     		sext.w	a5,a5
 201              		.loc 1 711 47
 202 0186 93960702 		slli	a3,a5,32
 203 018a 8192     		srli	a3,a3,32
 204 018c 8567     		li	a5,4096
 205 018e 93870786 		addi	a5,a5,-1952
 206 0192 B697     		add	a5,a3,a5
 207 0194 8A07     		slli	a5,a5,2
 208 0196 BA97     		add	a5,a4,a5
 209 0198 0327C4FD 		lw	a4,-36(s0)
 210 019c 98C3     		sw	a4,0(a5)
 712:/home/vinay/Desktop/softconsole_watershed/Water-shed/src/platform/mpfs_hal/common/mss_plic.h ****             break;
 211              		.loc 1 712 13
 212 019e E5A0     		j	.L9
 213              	.L5:
 713:/home/vinay/Desktop/softconsole_watershed/Water-shed/src/platform/mpfs_hal/common/mss_plic.h ****         case 3:
 714:/home/vinay/Desktop/softconsole_watershed/Water-shed/src/platform/mpfs_hal/common/mss_plic.h ****             current = PLIC->HART3_MMODE_ENA[IRQn / 32U];
 214              		.loc 1 714 27
 215 01a0 3707000C 		li	a4,201326592
 216              		.loc 1 714 50
 217 01a4 8327C4FC 		lw	a5,-52(s0)
 218 01a8 9BD75700 		srliw	a5,a5,5
 219 01ac 8127     		sext.w	a5,a5
 220              		.loc 1 714 21
 221 01ae 93960702 		slli	a3,a5,32
 222 01b2 8192     		srli	a3,a3,32
 223 01b4 8567     		li	a5,4096
 224 01b6 9387078A 		addi	a5,a5,-1888
 225 01ba B697     		add	a5,a3,a5
 226 01bc 8A07     		slli	a5,a5,2
 227 01be BA97     		add	a5,a4,a5
 228 01c0 9C43     		lw	a5,0(a5)
 229 01c2 232EF4FC 		sw	a5,-36(s0)
 715:/home/vinay/Desktop/softconsole_watershed/Water-shed/src/platform/mpfs_hal/common/mss_plic.h ****             current &= ~((uint32_t)1 << (IRQn % 32U));
 230              		.loc 1 715 47
 231 01c6 8327C4FC 		lw	a5,-52(s0)
 232 01ca FD8B     		andi	a5,a5,31
 233 01cc 8127     		sext.w	a5,a5
 234              		.loc 1 715 38
 235 01ce 3E87     		mv	a4,a5
 236 01d0 8547     		li	a5,1
 237 01d2 BB97E700 		sllw	a5,a5,a4
 238 01d6 8127     		sext.w	a5,a5
 239              		.loc 1 715 24
 240 01d8 93C7F7FF 		not	a5,a5
 241 01dc 1B870700 		sext.w	a4,a5
 242              		.loc 1 715 21
 243 01e0 8327C4FD 		lw	a5,-36(s0)
 244 01e4 F98F     		and	a5,a5,a4
 245 01e6 232EF4FC 		sw	a5,-36(s0)
 716:/home/vinay/Desktop/softconsole_watershed/Water-shed/src/platform/mpfs_hal/common/mss_plic.h ****             PLIC->HART3_MMODE_ENA[IRQn / 32U] = current;
 246              		.loc 1 716 17
 247 01ea 3707000C 		li	a4,201326592
 248              		.loc 1 716 40
 249 01ee 8327C4FC 		lw	a5,-52(s0)
 250 01f2 9BD75700 		srliw	a5,a5,5
 251 01f6 8127     		sext.w	a5,a5
 252              		.loc 1 716 47
 253 01f8 93960702 		slli	a3,a5,32
 254 01fc 8192     		srli	a3,a3,32
 255 01fe 8567     		li	a5,4096
 256 0200 9387078A 		addi	a5,a5,-1888
 257 0204 B697     		add	a5,a3,a5
 258 0206 8A07     		slli	a5,a5,2
 259 0208 BA97     		add	a5,a4,a5
 260 020a 0327C4FD 		lw	a4,-36(s0)
 261 020e 98C3     		sw	a4,0(a5)
 717:/home/vinay/Desktop/softconsole_watershed/Water-shed/src/platform/mpfs_hal/common/mss_plic.h ****             break;
 262              		.loc 1 717 13
 263 0210 9DA8     		j	.L9
 264              	.L3:
 718:/home/vinay/Desktop/softconsole_watershed/Water-shed/src/platform/mpfs_hal/common/mss_plic.h ****         case 4:
 719:/home/vinay/Desktop/softconsole_watershed/Water-shed/src/platform/mpfs_hal/common/mss_plic.h ****             current = PLIC->HART4_MMODE_ENA[IRQn / 32U];
 265              		.loc 1 719 27
 266 0212 3707000C 		li	a4,201326592
 267              		.loc 1 719 50
 268 0216 8327C4FC 		lw	a5,-52(s0)
 269 021a 9BD75700 		srliw	a5,a5,5
 270 021e 8127     		sext.w	a5,a5
 271              		.loc 1 719 21
 272 0220 93960702 		slli	a3,a5,32
 273 0224 8192     		srli	a3,a3,32
 274 0226 8567     		li	a5,4096
 275 0228 9387078E 		addi	a5,a5,-1824
 276 022c B697     		add	a5,a3,a5
 277 022e 8A07     		slli	a5,a5,2
 278 0230 BA97     		add	a5,a4,a5
 279 0232 9C43     		lw	a5,0(a5)
 280 0234 232EF4FC 		sw	a5,-36(s0)
 720:/home/vinay/Desktop/softconsole_watershed/Water-shed/src/platform/mpfs_hal/common/mss_plic.h ****             current &= ~((uint32_t)1 << (IRQn % 32U));
 281              		.loc 1 720 47
 282 0238 8327C4FC 		lw	a5,-52(s0)
 283 023c FD8B     		andi	a5,a5,31
 284 023e 8127     		sext.w	a5,a5
 285              		.loc 1 720 38
 286 0240 3E87     		mv	a4,a5
 287 0242 8547     		li	a5,1
 288 0244 BB97E700 		sllw	a5,a5,a4
 289 0248 8127     		sext.w	a5,a5
 290              		.loc 1 720 24
 291 024a 93C7F7FF 		not	a5,a5
 292 024e 1B870700 		sext.w	a4,a5
 293              		.loc 1 720 21
 294 0252 8327C4FD 		lw	a5,-36(s0)
 295 0256 F98F     		and	a5,a5,a4
 296 0258 232EF4FC 		sw	a5,-36(s0)
 721:/home/vinay/Desktop/softconsole_watershed/Water-shed/src/platform/mpfs_hal/common/mss_plic.h ****             PLIC->HART4_MMODE_ENA[IRQn / 32U] = current;
 297              		.loc 1 721 17
 298 025c 3707000C 		li	a4,201326592
 299              		.loc 1 721 40
 300 0260 8327C4FC 		lw	a5,-52(s0)
 301 0264 9BD75700 		srliw	a5,a5,5
 302 0268 8127     		sext.w	a5,a5
 303              		.loc 1 721 47
 304 026a 93960702 		slli	a3,a5,32
 305 026e 8192     		srli	a3,a3,32
 306 0270 8567     		li	a5,4096
 307 0272 9387078E 		addi	a5,a5,-1824
 308 0276 B697     		add	a5,a3,a5
 309 0278 8A07     		slli	a5,a5,2
 310 027a BA97     		add	a5,a4,a5
 311 027c 0327C4FD 		lw	a4,-36(s0)
 312 0280 98C3     		sw	a4,0(a5)
 722:/home/vinay/Desktop/softconsole_watershed/Water-shed/src/platform/mpfs_hal/common/mss_plic.h ****             break;
 313              		.loc 1 722 13
 314 0282 11A0     		j	.L9
 315              	.L10:
 723:/home/vinay/Desktop/softconsole_watershed/Water-shed/src/platform/mpfs_hal/common/mss_plic.h ****         default:
 724:/home/vinay/Desktop/softconsole_watershed/Water-shed/src/platform/mpfs_hal/common/mss_plic.h ****             break;
 316              		.loc 1 724 13
 317 0284 0100     		nop
 318              	.L9:
 725:/home/vinay/Desktop/softconsole_watershed/Water-shed/src/platform/mpfs_hal/common/mss_plic.h ****     }
 726:/home/vinay/Desktop/softconsole_watershed/Water-shed/src/platform/mpfs_hal/common/mss_plic.h **** }
 319              		.loc 1 726 1
 320 0286 0100     		nop
 321 0288 6274     		ld	s0,56(sp)
 322              		.cfi_restore 8
 323              		.cfi_def_cfa 2, 64
 324 028a 2161     		addi	sp,sp,64
 325              		.cfi_def_cfa_offset 0
 326 028c 8280     		jr	ra
 327              		.cfi_endproc
 328              	.LFE8:
 330              		.section	.text.PLIC_ClaimIRQ,"ax",@progbits
 331              		.align	1
 333              	PLIC_ClaimIRQ:
 334              	.LFB12:
 727:/home/vinay/Desktop/softconsole_watershed/Water-shed/src/platform/mpfs_hal/common/mss_plic.h **** 
 728:/home/vinay/Desktop/softconsole_watershed/Water-shed/src/platform/mpfs_hal/common/mss_plic.h **** /***************************************************************************//**
 729:/home/vinay/Desktop/softconsole_watershed/Water-shed/src/platform/mpfs_hal/common/mss_plic.h ****  * The function PLIC_SetPriority() sets the priority for the external interrupt
 730:/home/vinay/Desktop/softconsole_watershed/Water-shed/src/platform/mpfs_hal/common/mss_plic.h ****  * for the interrupt number indicated by the parameter IRQn.
 731:/home/vinay/Desktop/softconsole_watershed/Water-shed/src/platform/mpfs_hal/common/mss_plic.h ****  */
 732:/home/vinay/Desktop/softconsole_watershed/Water-shed/src/platform/mpfs_hal/common/mss_plic.h **** static inline void PLIC_SetPriority(PLIC_IRQn_Type IRQn, uint32_t priority)
 733:/home/vinay/Desktop/softconsole_watershed/Water-shed/src/platform/mpfs_hal/common/mss_plic.h **** {
 734:/home/vinay/Desktop/softconsole_watershed/Water-shed/src/platform/mpfs_hal/common/mss_plic.h ****     if((IRQn > PLIC_INVALID_INT_OFFSET) && (IRQn < PLIC_NUM_SOURCES))
 735:/home/vinay/Desktop/softconsole_watershed/Water-shed/src/platform/mpfs_hal/common/mss_plic.h ****     {
 736:/home/vinay/Desktop/softconsole_watershed/Water-shed/src/platform/mpfs_hal/common/mss_plic.h ****         PLIC->SOURCE_PRIORITY[IRQn-1] = priority;
 737:/home/vinay/Desktop/softconsole_watershed/Water-shed/src/platform/mpfs_hal/common/mss_plic.h ****     }
 738:/home/vinay/Desktop/softconsole_watershed/Water-shed/src/platform/mpfs_hal/common/mss_plic.h **** }
 739:/home/vinay/Desktop/softconsole_watershed/Water-shed/src/platform/mpfs_hal/common/mss_plic.h **** 
 740:/home/vinay/Desktop/softconsole_watershed/Water-shed/src/platform/mpfs_hal/common/mss_plic.h **** /***************************************************************************//**
 741:/home/vinay/Desktop/softconsole_watershed/Water-shed/src/platform/mpfs_hal/common/mss_plic.h ****  * The function PLIC_GetPriority() returns the priority for the external
 742:/home/vinay/Desktop/softconsole_watershed/Water-shed/src/platform/mpfs_hal/common/mss_plic.h ****  * interrupt for the interrupt number indicated by the parameter IRQn.
 743:/home/vinay/Desktop/softconsole_watershed/Water-shed/src/platform/mpfs_hal/common/mss_plic.h ****  */
 744:/home/vinay/Desktop/softconsole_watershed/Water-shed/src/platform/mpfs_hal/common/mss_plic.h **** static inline uint32_t PLIC_GetPriority(PLIC_IRQn_Type IRQn)
 745:/home/vinay/Desktop/softconsole_watershed/Water-shed/src/platform/mpfs_hal/common/mss_plic.h **** {
 746:/home/vinay/Desktop/softconsole_watershed/Water-shed/src/platform/mpfs_hal/common/mss_plic.h ****     uint32_t ret_val = 0U;
 747:/home/vinay/Desktop/softconsole_watershed/Water-shed/src/platform/mpfs_hal/common/mss_plic.h **** 
 748:/home/vinay/Desktop/softconsole_watershed/Water-shed/src/platform/mpfs_hal/common/mss_plic.h ****     if((IRQn > PLIC_INVALID_INT_OFFSET) && (IRQn < PLIC_NUM_SOURCES))
 749:/home/vinay/Desktop/softconsole_watershed/Water-shed/src/platform/mpfs_hal/common/mss_plic.h ****     {
 750:/home/vinay/Desktop/softconsole_watershed/Water-shed/src/platform/mpfs_hal/common/mss_plic.h ****         ret_val = PLIC->SOURCE_PRIORITY[IRQn-1];
 751:/home/vinay/Desktop/softconsole_watershed/Water-shed/src/platform/mpfs_hal/common/mss_plic.h ****     }
 752:/home/vinay/Desktop/softconsole_watershed/Water-shed/src/platform/mpfs_hal/common/mss_plic.h **** 
 753:/home/vinay/Desktop/softconsole_watershed/Water-shed/src/platform/mpfs_hal/common/mss_plic.h ****     return(ret_val);
 754:/home/vinay/Desktop/softconsole_watershed/Water-shed/src/platform/mpfs_hal/common/mss_plic.h **** }
 755:/home/vinay/Desktop/softconsole_watershed/Water-shed/src/platform/mpfs_hal/common/mss_plic.h **** 
 756:/home/vinay/Desktop/softconsole_watershed/Water-shed/src/platform/mpfs_hal/common/mss_plic.h **** 
 757:/home/vinay/Desktop/softconsole_watershed/Water-shed/src/platform/mpfs_hal/common/mss_plic.h **** static inline uint32_t PLIC_pending(PLIC_IRQn_Type IRQn)
 758:/home/vinay/Desktop/softconsole_watershed/Water-shed/src/platform/mpfs_hal/common/mss_plic.h **** {
 759:/home/vinay/Desktop/softconsole_watershed/Water-shed/src/platform/mpfs_hal/common/mss_plic.h ****     return (PLIC->PENDING_ARRAY[IRQn/32U] & (0x01U<<(IRQn%32U)));
 760:/home/vinay/Desktop/softconsole_watershed/Water-shed/src/platform/mpfs_hal/common/mss_plic.h **** }
 761:/home/vinay/Desktop/softconsole_watershed/Water-shed/src/platform/mpfs_hal/common/mss_plic.h **** 
 762:/home/vinay/Desktop/softconsole_watershed/Water-shed/src/platform/mpfs_hal/common/mss_plic.h **** /***************************************************************************//**
 763:/home/vinay/Desktop/softconsole_watershed/Water-shed/src/platform/mpfs_hal/common/mss_plic.h ****  * The function PLIC_ClaimIRQ() claims the interrupt from the PLIC controller.
 764:/home/vinay/Desktop/softconsole_watershed/Water-shed/src/platform/mpfs_hal/common/mss_plic.h ****  */
 765:/home/vinay/Desktop/softconsole_watershed/Water-shed/src/platform/mpfs_hal/common/mss_plic.h **** static inline uint32_t PLIC_ClaimIRQ(void)
 766:/home/vinay/Desktop/softconsole_watershed/Water-shed/src/platform/mpfs_hal/common/mss_plic.h **** {
 335              		.loc 1 766 1
 336              		.cfi_startproc
 337 0000 0111     		addi	sp,sp,-32
 338              		.cfi_def_cfa_offset 32
 339 0002 22EC     		sd	s0,24(sp)
 340              		.cfi_offset 8, -8
 341 0004 0010     		addi	s0,sp,32
 342              		.cfi_def_cfa 8, 0
 343              	.LBB3:
 767:/home/vinay/Desktop/softconsole_watershed/Water-shed/src/platform/mpfs_hal/common/mss_plic.h ****     uint64_t hart_id  = read_csr(mhartid);
 344              		.loc 1 767 25
 345              	 #APP
 346              	# 767 "/home/vinay/Desktop/softconsole_watershed/Water-shed/src/platform/mpfs_hal/common/mss_plic.h
 768              	
 347              		csrr a5, mhartid
 348              	# 0 "" 2
 349              	 #NO_APP
 350 000a 2334F4FE 		sd	a5,-24(s0)
 351 000e 833784FE 		ld	a5,-24(s0)
 352              	.LBE3:
 767:/home/vinay/Desktop/softconsole_watershed/Water-shed/src/platform/mpfs_hal/common/mss_plic.h ****     uint64_t hart_id  = read_csr(mhartid);
 353              		.loc 1 767 14
 354 0012 2330F4FE 		sd	a5,-32(s0)
 769:/home/vinay/Desktop/softconsole_watershed/Water-shed/src/platform/mpfs_hal/common/mss_plic.h ****     return (PLIC->TARGET[plic_hart_lookup[hart_id]].CLAIM_COMPLETE);
 355              		.loc 1 769 17
 356 0016 3707000C 		li	a4,201326592
 357              		.loc 1 769 42
 358 001a 97060000 		lla	a3,plic_hart_lookup
 358      93860600 
 359 0022 833704FE 		ld	a5,-32(s0)
 360 0026 8E07     		slli	a5,a5,3
 361 0028 B697     		add	a5,a3,a5
 362 002a 9C63     		ld	a5,0(a5)
 363              		.loc 1 769 52
 364 002c 93870720 		addi	a5,a5,512
 365 0030 B207     		slli	a5,a5,12
 366 0032 BA97     		add	a5,a4,a5
 367 0034 DC43     		lw	a5,4(a5)
 368 0036 8127     		sext.w	a5,a5
 770:/home/vinay/Desktop/softconsole_watershed/Water-shed/src/platform/mpfs_hal/common/mss_plic.h **** }
 369              		.loc 1 770 1
 370 0038 3E85     		mv	a0,a5
 371 003a 6264     		ld	s0,24(sp)
 372              		.cfi_restore 8
 373              		.cfi_def_cfa 2, 32
 374 003c 0561     		addi	sp,sp,32
 375              		.cfi_def_cfa_offset 0
 376 003e 8280     		jr	ra
 377              		.cfi_endproc
 378              	.LFE12:
 380              		.section	.text.PLIC_CompleteIRQ,"ax",@progbits
 381              		.align	1
 383              	PLIC_CompleteIRQ:
 384              	.LFB13:
 771:/home/vinay/Desktop/softconsole_watershed/Water-shed/src/platform/mpfs_hal/common/mss_plic.h **** 
 772:/home/vinay/Desktop/softconsole_watershed/Water-shed/src/platform/mpfs_hal/common/mss_plic.h **** /***************************************************************************//**
 773:/home/vinay/Desktop/softconsole_watershed/Water-shed/src/platform/mpfs_hal/common/mss_plic.h ****  * The function PLIC_CompleteIRQ() indicates to the PLIC controller the
 774:/home/vinay/Desktop/softconsole_watershed/Water-shed/src/platform/mpfs_hal/common/mss_plic.h ****  * interrupt is processed and claim is complete.
 775:/home/vinay/Desktop/softconsole_watershed/Water-shed/src/platform/mpfs_hal/common/mss_plic.h ****  */
 776:/home/vinay/Desktop/softconsole_watershed/Water-shed/src/platform/mpfs_hal/common/mss_plic.h **** static inline void PLIC_CompleteIRQ(uint32_t source)
 777:/home/vinay/Desktop/softconsole_watershed/Water-shed/src/platform/mpfs_hal/common/mss_plic.h **** {
 385              		.loc 1 777 1
 386              		.cfi_startproc
 387 0000 7971     		addi	sp,sp,-48
 388              		.cfi_def_cfa_offset 48
 389 0002 22F4     		sd	s0,40(sp)
 390              		.cfi_offset 8, -8
 391 0004 0018     		addi	s0,sp,48
 392              		.cfi_def_cfa 8, 0
 393 0006 AA87     		mv	a5,a0
 394 0008 232EF4FC 		sw	a5,-36(s0)
 395              	.LBB4:
 778:/home/vinay/Desktop/softconsole_watershed/Water-shed/src/platform/mpfs_hal/common/mss_plic.h ****     uint64_t hart_id  = read_csr(mhartid);
 396              		.loc 1 778 25
 397              	 #APP
 398              	# 778 "/home/vinay/Desktop/softconsole_watershed/Water-shed/src/platform/mpfs_hal/common/mss_plic.h
 779              	
 399              		csrr a5, mhartid
 400              	# 0 "" 2
 401              	 #NO_APP
 402 0010 2334F4FE 		sd	a5,-24(s0)
 403 0014 833784FE 		ld	a5,-24(s0)
 404              	.LBE4:
 778:/home/vinay/Desktop/softconsole_watershed/Water-shed/src/platform/mpfs_hal/common/mss_plic.h ****     uint64_t hart_id  = read_csr(mhartid);
 405              		.loc 1 778 14
 406 0018 2330F4FE 		sd	a5,-32(s0)
 780:/home/vinay/Desktop/softconsole_watershed/Water-shed/src/platform/mpfs_hal/common/mss_plic.h ****     ASSERT(source <= MAX_PLIC_INT);
 407              		.loc 1 780 5
 408 001c 8327C4FD 		lw	a5,-36(s0)
 409 0020 1B870700 		sext.w	a4,a5
 410 0024 9307A00B 		li	a5,186
 411 0028 63F3E700 		bleu	a4,a5,.L14
 412              		.loc 1 780 5 is_stmt 0 discriminator 1
 413              	 #APP
 414              	# 780 "/home/vinay/Desktop/softconsole_watershed/Water-shed/src/platform/mpfs_hal/common/mss_plic.h
 781              	
 415              		ebreak
 416              	# 0 "" 2
 417              	 #NO_APP
 418              	.L14:
 782:/home/vinay/Desktop/softconsole_watershed/Water-shed/src/platform/mpfs_hal/common/mss_plic.h ****     PLIC->TARGET[plic_hart_lookup[hart_id]].CLAIM_COMPLETE  = source;
 419              		.loc 1 782 9 is_stmt 1
 420 002e 3707000C 		li	a4,201326592
 421              		.loc 1 782 34
 422 0032 97060000 		lla	a3,plic_hart_lookup
 422      93860600 
 423 003a 833704FE 		ld	a5,-32(s0)
 424 003e 8E07     		slli	a5,a5,3
 425 0040 B697     		add	a5,a3,a5
 426 0042 9C63     		ld	a5,0(a5)
 427              		.loc 1 782 61
 428 0044 93870720 		addi	a5,a5,512
 429 0048 B207     		slli	a5,a5,12
 430 004a BA97     		add	a5,a4,a5
 431 004c 0327C4FD 		lw	a4,-36(s0)
 432 0050 D8C3     		sw	a4,4(a5)
 783:/home/vinay/Desktop/softconsole_watershed/Water-shed/src/platform/mpfs_hal/common/mss_plic.h **** }
 433              		.loc 1 783 1
 434 0052 0100     		nop
 435 0054 2274     		ld	s0,40(sp)
 436              		.cfi_restore 8
 437              		.cfi_def_cfa 2, 48
 438 0056 4561     		addi	sp,sp,48
 439              		.cfi_def_cfa_offset 0
 440 0058 8280     		jr	ra
 441              		.cfi_endproc
 442              	.LFE13:
 444              		.section	.text.bad_trap,"ax",@progbits
 445              		.align	1
 446              		.globl	bad_trap
 448              	bad_trap:
 449              	.LFB19:
 450              		.file 2 "../src/platform/mpfs_hal/common/mss_mtrap.c"
   1:../src/platform/mpfs_hal/common/mss_mtrap.c **** /*******************************************************************************
   2:../src/platform/mpfs_hal/common/mss_mtrap.c ****  * Copyright 2019-2022 Microchip FPGA Embedded Systems Solutions.
   3:../src/platform/mpfs_hal/common/mss_mtrap.c ****  *
   4:../src/platform/mpfs_hal/common/mss_mtrap.c ****  * SPDX-License-Identifier: MIT
   5:../src/platform/mpfs_hal/common/mss_mtrap.c ****  *
   6:../src/platform/mpfs_hal/common/mss_mtrap.c ****  * MPFS HAL Embedded Software
   7:../src/platform/mpfs_hal/common/mss_mtrap.c ****  *
   8:../src/platform/mpfs_hal/common/mss_mtrap.c ****  */
   9:../src/platform/mpfs_hal/common/mss_mtrap.c **** 
  10:../src/platform/mpfs_hal/common/mss_mtrap.c **** /***************************************************************************
  11:../src/platform/mpfs_hal/common/mss_mtrap.c ****  *
  12:../src/platform/mpfs_hal/common/mss_mtrap.c ****  * @file mss_mtrap.c
  13:../src/platform/mpfs_hal/common/mss_mtrap.c ****  * @author Microchip-FPGA Embedded Systems Solutions
  14:../src/platform/mpfs_hal/common/mss_mtrap.c ****  * @brief trap functions
  15:../src/platform/mpfs_hal/common/mss_mtrap.c ****  *
  16:../src/platform/mpfs_hal/common/mss_mtrap.c ****  */
  17:../src/platform/mpfs_hal/common/mss_mtrap.c **** #include "mpfs_hal/mss_hal.h"
  18:../src/platform/mpfs_hal/common/mss_mtrap.c **** 
  19:../src/platform/mpfs_hal/common/mss_mtrap.c **** #ifdef __cplusplus
  20:../src/platform/mpfs_hal/common/mss_mtrap.c **** extern "C" {
  21:../src/platform/mpfs_hal/common/mss_mtrap.c **** #endif
  22:../src/platform/mpfs_hal/common/mss_mtrap.c **** 
  23:../src/platform/mpfs_hal/common/mss_mtrap.c **** 
  24:../src/platform/mpfs_hal/common/mss_mtrap.c **** 
  25:../src/platform/mpfs_hal/common/mss_mtrap.c **** void handle_local_interrupt(uint8_t interrupt_no);
  26:../src/platform/mpfs_hal/common/mss_mtrap.c **** void handle_m_soft_interrupt(void);
  27:../src/platform/mpfs_hal/common/mss_mtrap.c **** void handle_m_timer_interrupt(void);
  28:../src/platform/mpfs_hal/common/mss_mtrap.c **** void illegal_insn_trap(uintptr_t * regs, uintptr_t mcause, uintptr_t mepc);
  29:../src/platform/mpfs_hal/common/mss_mtrap.c **** void misaligned_store_trap(uintptr_t * regs, uintptr_t mcause, uintptr_t mepc);
  30:../src/platform/mpfs_hal/common/mss_mtrap.c **** void misaligned_load_trap(uintptr_t * regs, uintptr_t mcause, uintptr_t mepc);
  31:../src/platform/mpfs_hal/common/mss_mtrap.c **** void pmp_trap(uintptr_t * regs, uintptr_t mcause, uintptr_t mepc);
  32:../src/platform/mpfs_hal/common/mss_mtrap.c **** void trap_from_machine_mode(uintptr_t * regs, uintptr_t dummy, uintptr_t mepc);
  33:../src/platform/mpfs_hal/common/mss_mtrap.c **** void bad_trap(uintptr_t* regs, uintptr_t dummy, uintptr_t mepc);
  34:../src/platform/mpfs_hal/common/mss_mtrap.c **** 
  35:../src/platform/mpfs_hal/common/mss_mtrap.c **** 
  36:../src/platform/mpfs_hal/common/mss_mtrap.c **** void bad_trap(uintptr_t* regs, uintptr_t dummy, uintptr_t mepc)
  37:../src/platform/mpfs_hal/common/mss_mtrap.c **** {
 451              		.loc 2 37 1
 452              		.cfi_startproc
 453 0000 7971     		addi	sp,sp,-48
 454              		.cfi_def_cfa_offset 48
 455 0002 22F4     		sd	s0,40(sp)
 456              		.cfi_offset 8, -8
 457 0004 0018     		addi	s0,sp,48
 458              		.cfi_def_cfa 8, 0
 459 0006 2334A4FE 		sd	a0,-24(s0)
 460 000a 2330B4FE 		sd	a1,-32(s0)
 461 000e 233CC4FC 		sd	a2,-40(s0)
 462              	.L16:
  38:../src/platform/mpfs_hal/common/mss_mtrap.c ****     (void)regs;
  39:../src/platform/mpfs_hal/common/mss_mtrap.c ****     (void)dummy;
  40:../src/platform/mpfs_hal/common/mss_mtrap.c ****     (void)mepc;
  41:../src/platform/mpfs_hal/common/mss_mtrap.c ****     while(1)
 463              		.loc 2 41 10 discriminator 1
 464 0012 01A0     		j	.L16
 465              		.cfi_endproc
 466              	.LFE19:
 468              		.section	.text.misaligned_store_trap,"ax",@progbits
 469              		.align	1
 470              		.globl	misaligned_store_trap
 472              	misaligned_store_trap:
 473              	.LFB20:
  42:../src/platform/mpfs_hal/common/mss_mtrap.c ****     {
  43:../src/platform/mpfs_hal/common/mss_mtrap.c ****     }
  44:../src/platform/mpfs_hal/common/mss_mtrap.c **** }
  45:../src/platform/mpfs_hal/common/mss_mtrap.c **** 
  46:../src/platform/mpfs_hal/common/mss_mtrap.c **** void misaligned_store_trap(uintptr_t * regs, uintptr_t mcause, uintptr_t mepc)
  47:../src/platform/mpfs_hal/common/mss_mtrap.c **** {
 474              		.loc 2 47 1
 475              		.cfi_startproc
 476 0000 7971     		addi	sp,sp,-48
 477              		.cfi_def_cfa_offset 48
 478 0002 22F4     		sd	s0,40(sp)
 479              		.cfi_offset 8, -8
 480 0004 0018     		addi	s0,sp,48
 481              		.cfi_def_cfa 8, 0
 482 0006 2334A4FE 		sd	a0,-24(s0)
 483 000a 2330B4FE 		sd	a1,-32(s0)
 484 000e 233CC4FC 		sd	a2,-40(s0)
 485              	.L18:
  48:../src/platform/mpfs_hal/common/mss_mtrap.c ****     (void)regs;
  49:../src/platform/mpfs_hal/common/mss_mtrap.c ****     (void)mcause;
  50:../src/platform/mpfs_hal/common/mss_mtrap.c ****     (void)mepc;
  51:../src/platform/mpfs_hal/common/mss_mtrap.c ****     while(1)
 486              		.loc 2 51 10 discriminator 1
 487 0012 01A0     		j	.L18
 488              		.cfi_endproc
 489              	.LFE20:
 491              		.section	.text.misaligned_load_trap,"ax",@progbits
 492              		.align	1
 493              		.globl	misaligned_load_trap
 495              	misaligned_load_trap:
 496              	.LFB21:
  52:../src/platform/mpfs_hal/common/mss_mtrap.c ****     {
  53:../src/platform/mpfs_hal/common/mss_mtrap.c ****     }
  54:../src/platform/mpfs_hal/common/mss_mtrap.c **** }
  55:../src/platform/mpfs_hal/common/mss_mtrap.c **** 
  56:../src/platform/mpfs_hal/common/mss_mtrap.c **** void misaligned_load_trap(uintptr_t * regs, uintptr_t mcause, uintptr_t mepc)
  57:../src/platform/mpfs_hal/common/mss_mtrap.c **** {
 497              		.loc 2 57 1
 498              		.cfi_startproc
 499 0000 7971     		addi	sp,sp,-48
 500              		.cfi_def_cfa_offset 48
 501 0002 22F4     		sd	s0,40(sp)
 502              		.cfi_offset 8, -8
 503 0004 0018     		addi	s0,sp,48
 504              		.cfi_def_cfa 8, 0
 505 0006 2334A4FE 		sd	a0,-24(s0)
 506 000a 2330B4FE 		sd	a1,-32(s0)
 507 000e 233CC4FC 		sd	a2,-40(s0)
 508              	.L20:
  58:../src/platform/mpfs_hal/common/mss_mtrap.c ****     (void)regs;
  59:../src/platform/mpfs_hal/common/mss_mtrap.c ****     (void)mcause;
  60:../src/platform/mpfs_hal/common/mss_mtrap.c ****     (void)mepc;
  61:../src/platform/mpfs_hal/common/mss_mtrap.c ****     while(1)
 509              		.loc 2 61 10 discriminator 1
 510 0012 01A0     		j	.L20
 511              		.cfi_endproc
 512              	.LFE21:
 514              		.section	.text.illegal_insn_trap,"ax",@progbits
 515              		.align	1
 516              		.globl	illegal_insn_trap
 518              	illegal_insn_trap:
 519              	.LFB22:
  62:../src/platform/mpfs_hal/common/mss_mtrap.c ****     {
  63:../src/platform/mpfs_hal/common/mss_mtrap.c ****     }
  64:../src/platform/mpfs_hal/common/mss_mtrap.c **** }
  65:../src/platform/mpfs_hal/common/mss_mtrap.c **** 
  66:../src/platform/mpfs_hal/common/mss_mtrap.c **** void illegal_insn_trap(uintptr_t * regs, uintptr_t mcause, uintptr_t mepc)
  67:../src/platform/mpfs_hal/common/mss_mtrap.c **** {
 520              		.loc 2 67 1
 521              		.cfi_startproc
 522 0000 7971     		addi	sp,sp,-48
 523              		.cfi_def_cfa_offset 48
 524 0002 22F4     		sd	s0,40(sp)
 525              		.cfi_offset 8, -8
 526 0004 0018     		addi	s0,sp,48
 527              		.cfi_def_cfa 8, 0
 528 0006 2334A4FE 		sd	a0,-24(s0)
 529 000a 2330B4FE 		sd	a1,-32(s0)
 530 000e 233CC4FC 		sd	a2,-40(s0)
 531              	.L22:
  68:../src/platform/mpfs_hal/common/mss_mtrap.c ****     (void)regs;
  69:../src/platform/mpfs_hal/common/mss_mtrap.c ****     (void)mcause;
  70:../src/platform/mpfs_hal/common/mss_mtrap.c ****     (void)mepc;
  71:../src/platform/mpfs_hal/common/mss_mtrap.c ****     while(1)
 532              		.loc 2 71 10 discriminator 1
 533 0012 01A0     		j	.L22
 534              		.cfi_endproc
 535              	.LFE22:
 537              		.section	.text.pmp_trap,"ax",@progbits
 538              		.align	1
 539              		.globl	pmp_trap
 541              	pmp_trap:
 542              	.LFB23:
  72:../src/platform/mpfs_hal/common/mss_mtrap.c ****     {
  73:../src/platform/mpfs_hal/common/mss_mtrap.c ****     }
  74:../src/platform/mpfs_hal/common/mss_mtrap.c **** }
  75:../src/platform/mpfs_hal/common/mss_mtrap.c **** 
  76:../src/platform/mpfs_hal/common/mss_mtrap.c **** void pmp_trap(uintptr_t * regs, uintptr_t mcause, uintptr_t mepc)
  77:../src/platform/mpfs_hal/common/mss_mtrap.c **** {
 543              		.loc 2 77 1
 544              		.cfi_startproc
 545 0000 7971     		addi	sp,sp,-48
 546              		.cfi_def_cfa_offset 48
 547 0002 22F4     		sd	s0,40(sp)
 548              		.cfi_offset 8, -8
 549 0004 0018     		addi	s0,sp,48
 550              		.cfi_def_cfa 8, 0
 551 0006 2334A4FE 		sd	a0,-24(s0)
 552 000a 2330B4FE 		sd	a1,-32(s0)
 553 000e 233CC4FC 		sd	a2,-40(s0)
 554              	.L24:
  78:../src/platform/mpfs_hal/common/mss_mtrap.c ****     (void)regs;
  79:../src/platform/mpfs_hal/common/mss_mtrap.c ****     (void)mcause;
  80:../src/platform/mpfs_hal/common/mss_mtrap.c ****     (void)mepc;
  81:../src/platform/mpfs_hal/common/mss_mtrap.c ****     while(1)
 555              		.loc 2 81 10 discriminator 1
 556 0012 01A0     		j	.L24
 557              		.cfi_endproc
 558              	.LFE23:
 560              		.globl	ext_irq_handler_table
 561              		.section	.data.ext_irq_handler_table,"aw"
 562              		.align	3
 565              	ext_irq_handler_table:
 566 0000 00000000 		.dword	PLIC_Invalid_IRQHandler
 566      00000000 
 567 0008 00000000 		.dword	PLIC_l2_metadata_corr_IRQHandler
 567      00000000 
 568 0010 00000000 		.dword	PLIC_l2_metadata_uncorr_IRQHandler
 568      00000000 
 569 0018 00000000 		.dword	PLIC_l2_data_corr_IRQHandler
 569      00000000 
 570 0020 00000000 		.dword	PLIC_l2_data_uncorr_IRQHandler
 570      00000000 
 571 0028 00000000 		.dword	PLIC_dma_ch0_DONE_IRQHandler
 571      00000000 
 572 0030 00000000 		.dword	PLIC_dma_ch0_ERR_IRQHandler
 572      00000000 
 573 0038 00000000 		.dword	PLIC_dma_ch1_DONE_IRQHandler
 573      00000000 
 574 0040 00000000 		.dword	PLIC_dma_ch1_ERR_IRQHandler
 574      00000000 
 575 0048 00000000 		.dword	PLIC_dma_ch2_DONE_IRQHandler
 575      00000000 
 576 0050 00000000 		.dword	PLIC_dma_ch2_ERR_IRQHandler
 576      00000000 
 577 0058 00000000 		.dword	PLIC_dma_ch3_DONE_IRQHandler
 577      00000000 
 578 0060 00000000 		.dword	PLIC_dma_ch3_ERR_IRQHandler
 578      00000000 
 579 0068 00000000 		.dword	PLIC_gpio0_bit0_or_gpio2_bit13_IRQHandler
 579      00000000 
 580 0070 00000000 		.dword	PLIC_gpio0_bit1_or_gpio2_bit13_IRQHandler
 580      00000000 
 581 0078 00000000 		.dword	PLIC_gpio0_bit2_or_gpio2_bit13_IRQHandler
 581      00000000 
 582 0080 00000000 		.dword	PLIC_gpio0_bit3_or_gpio2_bit13_IRQHandler
 582      00000000 
 583 0088 00000000 		.dword	PLIC_gpio0_bit4_or_gpio2_bit13_IRQHandler
 583      00000000 
 584 0090 00000000 		.dword	PLIC_gpio0_bit5_or_gpio2_bit13_IRQHandler
 584      00000000 
 585 0098 00000000 		.dword	PLIC_gpio0_bit6_or_gpio2_bit13_IRQHandler
 585      00000000 
 586 00a0 00000000 		.dword	PLIC_gpio0_bit7_or_gpio2_bit13_IRQHandler
 586      00000000 
 587 00a8 00000000 		.dword	PLIC_gpio0_bit8_or_gpio2_bit13_IRQHandler
 587      00000000 
 588 00b0 00000000 		.dword	PLIC_gpio0_bit9_or_gpio2_bit13_IRQHandler
 588      00000000 
 589 00b8 00000000 		.dword	PLIC_gpio0_bit10_or_gpio2_bit13_IRQHandler
 589      00000000 
 590 00c0 00000000 		.dword	PLIC_gpio0_bit11_or_gpio2_bit13_IRQHandler
 590      00000000 
 591 00c8 00000000 		.dword	PLIC_gpio0_bit12_or_gpio2_bit13_IRQHandler
 591      00000000 
 592 00d0 00000000 		.dword	PLIC_gpio0_bit13_or_gpio2_bit13_IRQHandler
 592      00000000 
 593 00d8 00000000 		.dword	PLIC_gpio1_bit0_or_gpio2_bit14_IRQHandler
 593      00000000 
 594 00e0 00000000 		.dword	PLIC_gpio1_bit1_or_gpio2_bit15_IRQHandler
 594      00000000 
 595 00e8 00000000 		.dword	PLIC_gpio1_bit2_or_gpio2_bit16_IRQHandler
 595      00000000 
 596 00f0 00000000 		.dword	PLIC_gpio1_bit3_or_gpio2_bit17_IRQHandler
 596      00000000 
 597 00f8 00000000 		.dword	PLIC_gpio1_bit4_or_gpio2_bit18_IRQHandler
 597      00000000 
 598 0100 00000000 		.dword	PLIC_gpio1_bit5_or_gpio2_bit19_IRQHandler
 598      00000000 
 599 0108 00000000 		.dword	PLIC_gpio1_bit6_or_gpio2_bit20_IRQHandler
 599      00000000 
 600 0110 00000000 		.dword	PLIC_gpio1_bit7_or_gpio2_bit21_IRQHandler
 600      00000000 
 601 0118 00000000 		.dword	PLIC_gpio1_bit8_or_gpio2_bit22_IRQHandler
 601      00000000 
 602 0120 00000000 		.dword	PLIC_gpio1_bit9_or_gpio2_bit23_IRQHandler
 602      00000000 
 603 0128 00000000 		.dword	PLIC_gpio1_bit10_or_gpio2_bit24_IRQHandler
 603      00000000 
 604 0130 00000000 		.dword	PLIC_gpio1_bit11_or_gpio2_bit25_IRQHandler
 604      00000000 
 605 0138 00000000 		.dword	PLIC_gpio1_bit12_or_gpio2_bit26_IRQHandler
 605      00000000 
 606 0140 00000000 		.dword	PLIC_gpio1_bit13_or_gpio2_bit27_IRQHandler
 606      00000000 
 607 0148 00000000 		.dword	PLIC_gpio1_bit14_or_gpio2_bit28_IRQHandler
 607      00000000 
 608 0150 00000000 		.dword	PLIC_gpio1_bit15_or_gpio2_bit29_IRQHandler
 608      00000000 
 609 0158 00000000 		.dword	PLIC_gpio1_bit16_or_gpio2_bit30_IRQHandler
 609      00000000 
 610 0160 00000000 		.dword	PLIC_gpio1_bit17_or_gpio2_bit31_IRQHandler
 610      00000000 
 611 0168 00000000 		.dword	PLIC_gpio1_bit18_IRQHandler
 611      00000000 
 612 0170 00000000 		.dword	PLIC_gpio1_bit19_IRQHandler
 612      00000000 
 613 0178 00000000 		.dword	PLIC_gpio1_bit20_IRQHandler
 613      00000000 
 614 0180 00000000 		.dword	PLIC_gpio1_bit21_IRQHandler
 614      00000000 
 615 0188 00000000 		.dword	PLIC_gpio1_bit22_IRQHandler
 615      00000000 
 616 0190 00000000 		.dword	PLIC_gpio1_bit23_IRQHandler
 616      00000000 
 617 0198 00000000 		.dword	PLIC_gpio0_non_direct_IRQHandler
 617      00000000 
 618 01a0 00000000 		.dword	PLIC_gpio1_non_direct_IRQHandler
 618      00000000 
 619 01a8 00000000 		.dword	PLIC_gpio2_non_direct_IRQHandler
 619      00000000 
 620 01b0 00000000 		.dword	PLIC_spi0_IRQHandler
 620      00000000 
 621 01b8 00000000 		.dword	PLIC_spi1_IRQHandler
 621      00000000 
 622 01c0 00000000 		.dword	PLIC_external_can0_IRQHandler
 622      00000000 
 623 01c8 00000000 		.dword	PLIC_can1_IRQHandler
 623      00000000 
 624 01d0 00000000 		.dword	PLIC_External_i2c0_main_IRQHandler
 624      00000000 
 625 01d8 00000000 		.dword	PLIC_External_i2c0_alert_IRQHandler
 625      00000000 
 626 01e0 00000000 		.dword	PLIC_i2c0_sus_IRQHandler
 626      00000000 
 627 01e8 00000000 		.dword	PLIC_i2c1_main_IRQHandler
 627      00000000 
 628 01f0 00000000 		.dword	PLIC_i2c1_alert_IRQHandler
 628      00000000 
 629 01f8 00000000 		.dword	PLIC_i2c1_sus_IRQHandler
 629      00000000 
 630 0200 00000000 		.dword	PLIC_mac0_int_IRQHandler
 630      00000000 
 631 0208 00000000 		.dword	PLIC_mac0_queue1_IRQHandler
 631      00000000 
 632 0210 00000000 		.dword	PLIC_mac0_queue2_IRQHandler
 632      00000000 
 633 0218 00000000 		.dword	PLIC_mac0_queue3_IRQHandler
 633      00000000 
 634 0220 00000000 		.dword	PLIC_mac0_emac_IRQHandler
 634      00000000 
 635 0228 00000000 		.dword	PLIC_mac0_mmsl_IRQHandler
 635      00000000 
 636 0230 00000000 		.dword	PLIC_mac1_int_IRQHandler
 636      00000000 
 637 0238 00000000 		.dword	PLIC_mac1_queue1_IRQHandler
 637      00000000 
 638 0240 00000000 		.dword	PLIC_mac1_queue2_IRQHandler
 638      00000000 
 639 0248 00000000 		.dword	PLIC_mac1_queue3_IRQHandler
 639      00000000 
 640 0250 00000000 		.dword	PLIC_mac1_emac_IRQHandler
 640      00000000 
 641 0258 00000000 		.dword	PLIC_mac1_mmsl_IRQHandler
 641      00000000 
 642 0260 00000000 		.dword	PLIC_ddrc_train_IRQHandler
 642      00000000 
 643 0268 00000000 		.dword	PLIC_scb_interrupt_IRQHandler
 643      00000000 
 644 0270 00000000 		.dword	PLIC_ecc_error_IRQHandler
 644      00000000 
 645 0278 00000000 		.dword	PLIC_ecc_correct_IRQHandler
 645      00000000 
 646 0280 00000000 		.dword	PLIC_rtc_wakeup_IRQHandler
 646      00000000 
 647 0288 00000000 		.dword	PLIC_rtc_match_IRQHandler
 647      00000000 
 648 0290 00000000 		.dword	PLIC_timer1_IRQHandler
 648      00000000 
 649 0298 00000000 		.dword	PLIC_timer2_IRQHandler
 649      00000000 
 650 02a0 00000000 		.dword	PLIC_envm_IRQHandler
 650      00000000 
 651 02a8 00000000 		.dword	PLIC_qspi_IRQHandler
 651      00000000 
 652 02b0 00000000 		.dword	PLIC_usb_dma_IRQHandler
 652      00000000 
 653 02b8 00000000 		.dword	PLIC_usb_mc_IRQHandler
 653      00000000 
 654 02c0 00000000 		.dword	PLIC_mmc_main_IRQHandler
 654      00000000 
 655 02c8 00000000 		.dword	PLIC_mmc_wakeup_IRQHandler
 655      00000000 
 656 02d0 00000000 		.dword	PLIC_mmuart0_IRQHandler
 656      00000000 
 657 02d8 00000000 		.dword	PLIC_mmuart1_IRQHandler
 657      00000000 
 658 02e0 00000000 		.dword	PLIC_mmuart2_IRQHandler
 658      00000000 
 659 02e8 00000000 		.dword	PLIC_mmuart3_IRQHandler
 659      00000000 
 660 02f0 00000000 		.dword	PLIC_mmuart4_IRQHandler
 660      00000000 
 661 02f8 00000000 		.dword	PLIC_devrst_IRQHandler
 661      00000000 
 662 0300 00000000 		.dword	PLIC_g5c_message_IRQHandler
 662      00000000 
 663 0308 00000000 		.dword	PLIC_usoc_vc_interrupt_IRQHandler
 663      00000000 
 664 0310 00000000 		.dword	PLIC_usoc_smb_interrupt_IRQHandler
 664      00000000 
 665 0318 00000000 		.dword	PLIC_E51_Maintence_IRQHandler
 665      00000000 
 666 0320 00000000 		.dword	PLIC_wdog0_mvrp_IRQHandler
 666      00000000 
 667 0328 00000000 		.dword	PLIC_wdog1_mvrp_IRQHandler
 667      00000000 
 668 0330 00000000 		.dword	PLIC_wdog2_mvrp_IRQHandler
 668      00000000 
 669 0338 00000000 		.dword	PLIC_wdog3_mvrp_IRQHandler
 669      00000000 
 670 0340 00000000 		.dword	PLIC_wdog4_mvrp_IRQHandler
 670      00000000 
 671 0348 00000000 		.dword	PLIC_wdog0_tout_IRQHandler
 671      00000000 
 672 0350 00000000 		.dword	PLIC_wdog1_tout_IRQHandler
 672      00000000 
 673 0358 00000000 		.dword	PLIC_wdog2_tout_IRQHandler
 673      00000000 
 674 0360 00000000 		.dword	PLIC_wdog3_tout_IRQHandler
 674      00000000 
 675 0368 00000000 		.dword	PLIC_wdog4_tout_IRQHandler
 675      00000000 
 676 0370 00000000 		.dword	PLIC_g5c_mss_spi_IRQHandler
 676      00000000 
 677 0378 00000000 		.dword	PLIC_volt_temp_alarm_IRQHandler
 677      00000000 
 678 0380 00000000 		.dword	PLIC_athena_complete_IRQHandler
 678      00000000 
 679 0388 00000000 		.dword	PLIC_athena_alarm_IRQHandler
 679      00000000 
 680 0390 00000000 		.dword	PLIC_athena_bus_error_IRQHandler
 680      00000000 
 681 0398 00000000 		.dword	PLIC_usoc_axic_us_IRQHandler
 681      00000000 
 682 03a0 00000000 		.dword	PLIC_usoc_axic_ds_IRQHandler
 682      00000000 
 683 03a8 00000000 		.dword	PLIC_reserved_104_IRQHandler
 683      00000000 
 684 03b0 00000000 		.dword	PLIC_f2m_0_IRQHandler
 684      00000000 
 685 03b8 00000000 		.dword	PLIC_f2m_1_IRQHandler
 685      00000000 
 686 03c0 00000000 		.dword	PLIC_f2m_2_IRQHandler
 686      00000000 
 687 03c8 00000000 		.dword	PLIC_f2m_3_IRQHandler
 687      00000000 
 688 03d0 00000000 		.dword	PLIC_f2m_4_IRQHandler
 688      00000000 
 689 03d8 00000000 		.dword	PLIC_f2m_5_IRQHandler
 689      00000000 
 690 03e0 00000000 		.dword	PLIC_f2m_6_IRQHandler
 690      00000000 
 691 03e8 00000000 		.dword	PLIC_f2m_7_IRQHandler
 691      00000000 
 692 03f0 00000000 		.dword	PLIC_f2m_8_IRQHandler
 692      00000000 
 693 03f8 00000000 		.dword	PLIC_f2m_9_IRQHandler
 693      00000000 
 694 0400 00000000 		.dword	PLIC_f2m_10_IRQHandler
 694      00000000 
 695 0408 00000000 		.dword	PLIC_f2m_11_IRQHandler
 695      00000000 
 696 0410 00000000 		.dword	PLIC_f2m_12_IRQHandler
 696      00000000 
 697 0418 00000000 		.dword	PLIC_f2m_13_IRQHandler
 697      00000000 
 698 0420 00000000 		.dword	PLIC_f2m_14_IRQHandler
 698      00000000 
 699 0428 00000000 		.dword	PLIC_f2m_15_IRQHandler
 699      00000000 
 700 0430 00000000 		.dword	PLIC_f2m_16_IRQHandler
 700      00000000 
 701 0438 00000000 		.dword	PLIC_f2m_17_IRQHandler
 701      00000000 
 702 0440 00000000 		.dword	PLIC_f2m_18_IRQHandler
 702      00000000 
 703 0448 00000000 		.dword	PLIC_f2m_19_IRQHandler
 703      00000000 
 704 0450 00000000 		.dword	PLIC_f2m_20_IRQHandler
 704      00000000 
 705 0458 00000000 		.dword	PLIC_f2m_21_IRQHandler
 705      00000000 
 706 0460 00000000 		.dword	PLIC_f2m_22_IRQHandler
 706      00000000 
 707 0468 00000000 		.dword	PLIC_f2m_23_IRQHandler
 707      00000000 
 708 0470 00000000 		.dword	PLIC_f2m_24_IRQHandler
 708      00000000 
 709 0478 00000000 		.dword	PLIC_f2m_25_IRQHandler
 709      00000000 
 710 0480 00000000 		.dword	PLIC_f2m_26_IRQHandler
 710      00000000 
 711 0488 00000000 		.dword	PLIC_f2m_27_IRQHandler
 711      00000000 
 712 0490 00000000 		.dword	PLIC_f2m_28_IRQHandler
 712      00000000 
 713 0498 00000000 		.dword	PLIC_f2m_29_IRQHandler
 713      00000000 
 714 04a0 00000000 		.dword	PLIC_f2m_30_IRQHandler
 714      00000000 
 715 04a8 00000000 		.dword	PLIC_f2m_31_IRQHandler
 715      00000000 
 716 04b0 00000000 		.dword	PLIC_f2m_32_IRQHandler
 716      00000000 
 717 04b8 00000000 		.dword	PLIC_f2m_33_IRQHandler
 717      00000000 
 718 04c0 00000000 		.dword	PLIC_f2m_34_IRQHandler
 718      00000000 
 719 04c8 00000000 		.dword	PLIC_f2m_35_IRQHandler
 719      00000000 
 720 04d0 00000000 		.dword	PLIC_f2m_36_IRQHandler
 720      00000000 
 721 04d8 00000000 		.dword	PLIC_f2m_37_IRQHandler
 721      00000000 
 722 04e0 00000000 		.dword	PLIC_f2m_38_IRQHandler
 722      00000000 
 723 04e8 00000000 		.dword	PLIC_f2m_39_IRQHandler
 723      00000000 
 724 04f0 00000000 		.dword	PLIC_f2m_40_IRQHandler
 724      00000000 
 725 04f8 00000000 		.dword	PLIC_f2m_41_IRQHandler
 725      00000000 
 726 0500 00000000 		.dword	PLIC_f2m_42_IRQHandler
 726      00000000 
 727 0508 00000000 		.dword	PLIC_f2m_43_IRQHandler
 727      00000000 
 728 0510 00000000 		.dword	PLIC_f2m_44_IRQHandler
 728      00000000 
 729 0518 00000000 		.dword	PLIC_f2m_45_IRQHandler
 729      00000000 
 730 0520 00000000 		.dword	PLIC_f2m_46_IRQHandler
 730      00000000 
 731 0528 00000000 		.dword	PLIC_f2m_47_IRQHandler
 731      00000000 
 732 0530 00000000 		.dword	PLIC_f2m_48_IRQHandler
 732      00000000 
 733 0538 00000000 		.dword	PLIC_f2m_49_IRQHandler
 733      00000000 
 734 0540 00000000 		.dword	PLIC_f2m_50_IRQHandler
 734      00000000 
 735 0548 00000000 		.dword	PLIC_f2m_51_IRQHandler
 735      00000000 
 736 0550 00000000 		.dword	PLIC_f2m_52_IRQHandler
 736      00000000 
 737 0558 00000000 		.dword	PLIC_f2m_53_IRQHandler
 737      00000000 
 738 0560 00000000 		.dword	PLIC_f2m_54_IRQHandler
 738      00000000 
 739 0568 00000000 		.dword	PLIC_f2m_55_IRQHandler
 739      00000000 
 740 0570 00000000 		.dword	PLIC_f2m_56_IRQHandler
 740      00000000 
 741 0578 00000000 		.dword	PLIC_f2m_57_IRQHandler
 741      00000000 
 742 0580 00000000 		.dword	PLIC_f2m_58_IRQHandler
 742      00000000 
 743 0588 00000000 		.dword	PLIC_f2m_59_IRQHandler
 743      00000000 
 744 0590 00000000 		.dword	PLIC_f2m_60_IRQHandler
 744      00000000 
 745 0598 00000000 		.dword	PLIC_f2m_61_IRQHandler
 745      00000000 
 746 05a0 00000000 		.dword	PLIC_f2m_62_IRQHandler
 746      00000000 
 747 05a8 00000000 		.dword	PLIC_f2m_63_IRQHandler
 747      00000000 
 748 05b0 00000000 		.dword	PLIC_E51_bus_error_unit_IRQHandler
 748      00000000 
 749 05b8 00000000 		.dword	PLIC_U54_1_bus_error_unit_IRQHandler
 749      00000000 
 750 05c0 00000000 		.dword	PLIC_U54_2_bus_error_unit_IRQHandler
 750      00000000 
 751 05c8 00000000 		.dword	PLIC_U54_3_bus_error_unit_IRQHandler
 751      00000000 
 752 05d0 00000000 		.dword	PLIC_U54_4_bus_error_unit_IRQHandler
 752      00000000 
 753              		.globl	E51_local_irq_handler_table
 754              		.section	.data.E51_local_irq_handler_table,"aw"
 755              		.align	3
 758              	E51_local_irq_handler_table:
 759 0000 00000000 		.dword	E51_maintenance_local_IRQHandler
 759      00000000 
 760 0008 00000000 		.dword	E51_usoc_smb_local_IRQHandler
 760      00000000 
 761 0010 00000000 		.dword	E51_usoc_vc_local_IRQHandler
 761      00000000 
 762 0018 00000000 		.dword	E51_g5c_message_local_IRQHandler
 762      00000000 
 763 0020 00000000 		.dword	E51_g5c_devrst_local_IRQHandler
 763      00000000 
 764 0028 00000000 		.dword	E51_wdog4_tout_local_IRQHandler
 764      00000000 
 765 0030 00000000 		.dword	E51_wdog3_tout_local_IRQHandler
 765      00000000 
 766 0038 00000000 		.dword	E51_wdog2_tout_local_IRQHandler
 766      00000000 
 767 0040 00000000 		.dword	E51_wdog1_tout_local_IRQHandler
 767      00000000 
 768 0048 00000000 		.dword	E51_wdog0_tout_local_IRQHandler
 768      00000000 
 769 0050 00000000 		.dword	E51_wdog0_mvrp_local_IRQHandler
 769      00000000 
 770 0058 00000000 		.dword	E51_mmuart0_local_IRQHandler
 770      00000000 
 771 0060 00000000 		.dword	E51_envm_local_IRQHandler
 771      00000000 
 772 0068 00000000 		.dword	E51_ecc_correct_local_IRQHandler
 772      00000000 
 773 0070 00000000 		.dword	E51_ecc_error_local_IRQHandler
 773      00000000 
 774 0078 00000000 		.dword	E51_scb_local_IRQHandler
 774      00000000 
 775 0080 00000000 		.dword	E51_f2m_32_local_IRQHandler
 775      00000000 
 776 0088 00000000 		.dword	E51_f2m_33_local_IRQHandler
 776      00000000 
 777 0090 00000000 		.dword	E51_f2m_34_local_IRQHandler
 777      00000000 
 778 0098 00000000 		.dword	E51_f2m_35_local_IRQHandler
 778      00000000 
 779 00a0 00000000 		.dword	E51_f2m_36_local_IRQHandler
 779      00000000 
 780 00a8 00000000 		.dword	E51_f2m_37_local_IRQHandler
 780      00000000 
 781 00b0 00000000 		.dword	E51_f2m_38_local_IRQHandler
 781      00000000 
 782 00b8 00000000 		.dword	E51_f2m_39_local_IRQHandler
 782      00000000 
 783 00c0 00000000 		.dword	E51_f2m_40_local_IRQHandler
 783      00000000 
 784 00c8 00000000 		.dword	E51_f2m_41_local_IRQHandler
 784      00000000 
 785 00d0 00000000 		.dword	E51_f2m_42_local_IRQHandler
 785      00000000 
 786 00d8 00000000 		.dword	E51_f2m_43_local_IRQHandler
 786      00000000 
 787 00e0 00000000 		.dword	E51_f2m_44_local_IRQHandler
 787      00000000 
 788 00e8 00000000 		.dword	E51_f2m_45_local_IRQHandler
 788      00000000 
 789 00f0 00000000 		.dword	E51_f2m_46_local_IRQHandler
 789      00000000 
 790 00f8 00000000 		.dword	E51_f2m_47_local_IRQHandler
 790      00000000 
 791 0100 00000000 		.dword	E51_f2m_48_local_IRQHandler
 791      00000000 
 792 0108 00000000 		.dword	E51_f2m_49_local_IRQHandler
 792      00000000 
 793 0110 00000000 		.dword	E51_f2m_50_local_IRQHandler
 793      00000000 
 794 0118 00000000 		.dword	E51_f2m_51_local_IRQHandler
 794      00000000 
 795 0120 00000000 		.dword	E51_f2m_52_local_IRQHandler
 795      00000000 
 796 0128 00000000 		.dword	E51_f2m_53_local_IRQHandler
 796      00000000 
 797 0130 00000000 		.dword	E51_f2m_54_local_IRQHandler
 797      00000000 
 798 0138 00000000 		.dword	E51_f2m_55_local_IRQHandler
 798      00000000 
 799 0140 00000000 		.dword	E51_f2m_56_local_IRQHandler
 799      00000000 
 800 0148 00000000 		.dword	E51_f2m_57_local_IRQHandler
 800      00000000 
 801 0150 00000000 		.dword	E51_f2m_58_local_IRQHandler
 801      00000000 
 802 0158 00000000 		.dword	E51_f2m_59_local_IRQHandler
 802      00000000 
 803 0160 00000000 		.dword	E51_f2m_60_local_IRQHandler
 803      00000000 
 804 0168 00000000 		.dword	E51_f2m_61_local_IRQHandler
 804      00000000 
 805 0170 00000000 		.dword	E51_f2m_62_local_IRQHandler
 805      00000000 
 806 0178 00000000 		.dword	E51_f2m_63_local_IRQHandler
 806      00000000 
 807              		.globl	local_irq_handler_1_table
 808              		.section	.data.local_irq_handler_1_table,"aw"
 809              		.align	3
 812              	local_irq_handler_1_table:
 813 0000 00000000 		.dword	U54_spare_0_local_IRQHandler
 813      00000000 
 814 0008 00000000 		.dword	U54_spare_1_local_IRQHandler
 814      00000000 
 815 0010 00000000 		.dword	U54_spare_2_local_IRQHandler
 815      00000000 
 816 0018 00000000 		.dword	U54_1_mac0_mmsl_local_IRQHandler
 816      00000000 
 817 0020 00000000 		.dword	U54_1_mac0_emac_local_IRQHandler
 817      00000000 
 818 0028 00000000 		.dword	U54_1_mac0_queue3_local_IRQHandler
 818      00000000 
 819 0030 00000000 		.dword	U54_1_mac0_queue2_local_IRQHandler
 819      00000000 
 820 0038 00000000 		.dword	U54_1_mac0_queue1_local_IRQHandler
 820      00000000 
 821 0040 00000000 		.dword	U54_1_mac0_int_local_IRQHandler
 821      00000000 
 822 0048 00000000 		.dword	U54_1_wdog_tout_local_IRQHandler
 822      00000000 
 823 0050 00000000 		.dword	U54_1_wdog_mvrp_local_IRQHandler
 823      00000000 
 824 0058 00000000 		.dword	U54_1_mmuart1_local_IRQHandler
 824      00000000 
 825 0060 00000000 		.dword	U54_spare_3_local_IRQHandler
 825      00000000 
 826 0068 00000000 		.dword	U54_spare_4_local_IRQHandler
 826      00000000 
 827 0070 00000000 		.dword	U54_spare_5_local_IRQHandler
 827      00000000 
 828 0078 00000000 		.dword	U54_spare_6_local_IRQHandler
 828      00000000 
 829 0080 00000000 		.dword	U54_f2m_0_local_IRQHandler
 829      00000000 
 830 0088 00000000 		.dword	U54_f2m_1_local_IRQHandler
 830      00000000 
 831 0090 00000000 		.dword	U54_f2m_2_local_IRQHandler
 831      00000000 
 832 0098 00000000 		.dword	U54_f2m_3_local_IRQHandler
 832      00000000 
 833 00a0 00000000 		.dword	U54_f2m_4_local_IRQHandler
 833      00000000 
 834 00a8 00000000 		.dword	U54_f2m_5_local_IRQHandler
 834      00000000 
 835 00b0 00000000 		.dword	U54_f2m_6_local_IRQHandler
 835      00000000 
 836 00b8 00000000 		.dword	U54_f2m_7_local_IRQHandler
 836      00000000 
 837 00c0 00000000 		.dword	U54_f2m_8_local_IRQHandler
 837      00000000 
 838 00c8 00000000 		.dword	U54_f2m_9_local_IRQHandler
 838      00000000 
 839 00d0 00000000 		.dword	U54_f2m_10_local_IRQHandler
 839      00000000 
 840 00d8 00000000 		.dword	U54_f2m_11_local_IRQHandler
 840      00000000 
 841 00e0 00000000 		.dword	U54_f2m_12_local_IRQHandler
 841      00000000 
 842 00e8 00000000 		.dword	U54_f2m_13_local_IRQHandler
 842      00000000 
 843 00f0 00000000 		.dword	U54_f2m_14_local_IRQHandler
 843      00000000 
 844 00f8 00000000 		.dword	U54_f2m_15_local_IRQHandler
 844      00000000 
 845 0100 00000000 		.dword	U54_f2m_16_local_IRQHandler
 845      00000000 
 846 0108 00000000 		.dword	U54_f2m_17_local_IRQHandler
 846      00000000 
 847 0110 00000000 		.dword	U54_f2m_18_local_IRQHandler
 847      00000000 
 848 0118 00000000 		.dword	U54_f2m_19_local_IRQHandler
 848      00000000 
 849 0120 00000000 		.dword	U54_f2m_20_local_IRQHandler
 849      00000000 
 850 0128 00000000 		.dword	U54_f2m_21_local_IRQHandler
 850      00000000 
 851 0130 00000000 		.dword	U54_f2m_22_local_IRQHandler
 851      00000000 
 852 0138 00000000 		.dword	U54_f2m_23_local_IRQHandler
 852      00000000 
 853 0140 00000000 		.dword	U54_f2m_24_local_IRQHandler
 853      00000000 
 854 0148 00000000 		.dword	U54_f2m_25_local_IRQHandler
 854      00000000 
 855 0150 00000000 		.dword	U54_f2m_26_local_IRQHandler
 855      00000000 
 856 0158 00000000 		.dword	U54_f2m_27_local_IRQHandler
 856      00000000 
 857 0160 00000000 		.dword	U54_f2m_28_local_IRQHandler
 857      00000000 
 858 0168 00000000 		.dword	U54_f2m_29_local_IRQHandler
 858      00000000 
 859 0170 00000000 		.dword	U54_f2m_30_local_IRQHandler
 859      00000000 
 860 0178 00000000 		.dword	U54_f2m_31_local_IRQHandler
 860      00000000 
 861              		.globl	local_irq_handler_2_table
 862              		.section	.data.local_irq_handler_2_table,"aw"
 863              		.align	3
 866              	local_irq_handler_2_table:
 867 0000 00000000 		.dword	U54_spare_0_local_IRQHandler
 867      00000000 
 868 0008 00000000 		.dword	U54_spare_1_local_IRQHandler
 868      00000000 
 869 0010 00000000 		.dword	U54_spare_2_local_IRQHandler
 869      00000000 
 870 0018 00000000 		.dword	U54_2_mac0_mmsl_local_IRQHandler
 870      00000000 
 871 0020 00000000 		.dword	U54_2_mac0_emac_local_IRQHandler
 871      00000000 
 872 0028 00000000 		.dword	U54_2_mac0_queue3_local_IRQHandler
 872      00000000 
 873 0030 00000000 		.dword	U54_2_mac0_queue2_local_IRQHandler
 873      00000000 
 874 0038 00000000 		.dword	U54_2_mac0_queue1_local_IRQHandler
 874      00000000 
 875 0040 00000000 		.dword	U54_2_mac0_int_local_IRQHandler
 875      00000000 
 876 0048 00000000 		.dword	U54_2_wdog_tout_local_IRQHandler
 876      00000000 
 877 0050 00000000 		.dword	U54_2_wdog_mvrp_local_IRQHandler
 877      00000000 
 878 0058 00000000 		.dword	U54_2_mmuart2_local_IRQHandler
 878      00000000 
 879 0060 00000000 		.dword	U54_spare_3_local_IRQHandler
 879      00000000 
 880 0068 00000000 		.dword	U54_spare_4_local_IRQHandler
 880      00000000 
 881 0070 00000000 		.dword	U54_spare_5_local_IRQHandler
 881      00000000 
 882 0078 00000000 		.dword	U54_spare_6_local_IRQHandler
 882      00000000 
 883 0080 00000000 		.dword	U54_f2m_0_local_IRQHandler
 883      00000000 
 884 0088 00000000 		.dword	U54_f2m_1_local_IRQHandler
 884      00000000 
 885 0090 00000000 		.dword	U54_f2m_2_local_IRQHandler
 885      00000000 
 886 0098 00000000 		.dword	U54_f2m_3_local_IRQHandler
 886      00000000 
 887 00a0 00000000 		.dword	U54_f2m_4_local_IRQHandler
 887      00000000 
 888 00a8 00000000 		.dword	U54_f2m_5_local_IRQHandler
 888      00000000 
 889 00b0 00000000 		.dword	U54_f2m_6_local_IRQHandler
 889      00000000 
 890 00b8 00000000 		.dword	U54_f2m_7_local_IRQHandler
 890      00000000 
 891 00c0 00000000 		.dword	U54_f2m_8_local_IRQHandler
 891      00000000 
 892 00c8 00000000 		.dword	U54_f2m_9_local_IRQHandler
 892      00000000 
 893 00d0 00000000 		.dword	U54_f2m_10_local_IRQHandler
 893      00000000 
 894 00d8 00000000 		.dword	U54_f2m_11_local_IRQHandler
 894      00000000 
 895 00e0 00000000 		.dword	U54_f2m_12_local_IRQHandler
 895      00000000 
 896 00e8 00000000 		.dword	U54_f2m_13_local_IRQHandler
 896      00000000 
 897 00f0 00000000 		.dword	U54_f2m_14_local_IRQHandler
 897      00000000 
 898 00f8 00000000 		.dword	U54_f2m_15_local_IRQHandler
 898      00000000 
 899 0100 00000000 		.dword	U54_f2m_16_local_IRQHandler
 899      00000000 
 900 0108 00000000 		.dword	U54_f2m_17_local_IRQHandler
 900      00000000 
 901 0110 00000000 		.dword	U54_f2m_18_local_IRQHandler
 901      00000000 
 902 0118 00000000 		.dword	U54_f2m_19_local_IRQHandler
 902      00000000 
 903 0120 00000000 		.dword	U54_f2m_20_local_IRQHandler
 903      00000000 
 904 0128 00000000 		.dword	U54_f2m_21_local_IRQHandler
 904      00000000 
 905 0130 00000000 		.dword	U54_f2m_22_local_IRQHandler
 905      00000000 
 906 0138 00000000 		.dword	U54_f2m_23_local_IRQHandler
 906      00000000 
 907 0140 00000000 		.dword	U54_f2m_24_local_IRQHandler
 907      00000000 
 908 0148 00000000 		.dword	U54_f2m_25_local_IRQHandler
 908      00000000 
 909 0150 00000000 		.dword	U54_f2m_26_local_IRQHandler
 909      00000000 
 910 0158 00000000 		.dword	U54_f2m_27_local_IRQHandler
 910      00000000 
 911 0160 00000000 		.dword	U54_f2m_28_local_IRQHandler
 911      00000000 
 912 0168 00000000 		.dword	U54_f2m_29_local_IRQHandler
 912      00000000 
 913 0170 00000000 		.dword	U54_f2m_30_local_IRQHandler
 913      00000000 
 914 0178 00000000 		.dword	U54_f2m_31_local_IRQHandler
 914      00000000 
 915              		.globl	local_irq_handler_3_table
 916              		.section	.data.local_irq_handler_3_table,"aw"
 917              		.align	3
 920              	local_irq_handler_3_table:
 921 0000 00000000 		.dword	U54_spare_0_local_IRQHandler
 921      00000000 
 922 0008 00000000 		.dword	U54_spare_1_local_IRQHandler
 922      00000000 
 923 0010 00000000 		.dword	U54_spare_2_local_IRQHandler
 923      00000000 
 924 0018 00000000 		.dword	U54_3_mac1_mmsl_local_IRQHandler
 924      00000000 
 925 0020 00000000 		.dword	U54_3_mac1_emac_local_IRQHandler
 925      00000000 
 926 0028 00000000 		.dword	U54_3_mac1_queue3_local_IRQHandler
 926      00000000 
 927 0030 00000000 		.dword	U54_3_mac1_queue2_local_IRQHandler
 927      00000000 
 928 0038 00000000 		.dword	U54_3_mac1_queue1_local_IRQHandler
 928      00000000 
 929 0040 00000000 		.dword	U54_3_mac1_int_local_IRQHandler
 929      00000000 
 930 0048 00000000 		.dword	U54_3_wdog_tout_local_IRQHandler
 930      00000000 
 931 0050 00000000 		.dword	U54_3_wdog_mvrp_local_IRQHandler
 931      00000000 
 932 0058 00000000 		.dword	U54_3_mmuart3_local_IRQHandler
 932      00000000 
 933 0060 00000000 		.dword	U54_spare_3_local_IRQHandler
 933      00000000 
 934 0068 00000000 		.dword	U54_spare_4_local_IRQHandler
 934      00000000 
 935 0070 00000000 		.dword	U54_spare_5_local_IRQHandler
 935      00000000 
 936 0078 00000000 		.dword	U54_spare_6_local_IRQHandler
 936      00000000 
 937 0080 00000000 		.dword	U54_f2m_0_local_IRQHandler
 937      00000000 
 938 0088 00000000 		.dword	U54_f2m_1_local_IRQHandler
 938      00000000 
 939 0090 00000000 		.dword	U54_f2m_2_local_IRQHandler
 939      00000000 
 940 0098 00000000 		.dword	U54_f2m_3_local_IRQHandler
 940      00000000 
 941 00a0 00000000 		.dword	U54_f2m_4_local_IRQHandler
 941      00000000 
 942 00a8 00000000 		.dword	U54_f2m_5_local_IRQHandler
 942      00000000 
 943 00b0 00000000 		.dword	U54_f2m_6_local_IRQHandler
 943      00000000 
 944 00b8 00000000 		.dword	U54_f2m_7_local_IRQHandler
 944      00000000 
 945 00c0 00000000 		.dword	U54_f2m_8_local_IRQHandler
 945      00000000 
 946 00c8 00000000 		.dword	U54_f2m_9_local_IRQHandler
 946      00000000 
 947 00d0 00000000 		.dword	U54_f2m_10_local_IRQHandler
 947      00000000 
 948 00d8 00000000 		.dword	U54_f2m_11_local_IRQHandler
 948      00000000 
 949 00e0 00000000 		.dword	U54_f2m_12_local_IRQHandler
 949      00000000 
 950 00e8 00000000 		.dword	U54_f2m_13_local_IRQHandler
 950      00000000 
 951 00f0 00000000 		.dword	U54_f2m_14_local_IRQHandler
 951      00000000 
 952 00f8 00000000 		.dword	U54_f2m_15_local_IRQHandler
 952      00000000 
 953 0100 00000000 		.dword	U54_f2m_16_local_IRQHandler
 953      00000000 
 954 0108 00000000 		.dword	U54_f2m_17_local_IRQHandler
 954      00000000 
 955 0110 00000000 		.dword	U54_f2m_18_local_IRQHandler
 955      00000000 
 956 0118 00000000 		.dword	U54_f2m_19_local_IRQHandler
 956      00000000 
 957 0120 00000000 		.dword	U54_f2m_20_local_IRQHandler
 957      00000000 
 958 0128 00000000 		.dword	U54_f2m_21_local_IRQHandler
 958      00000000 
 959 0130 00000000 		.dword	U54_f2m_22_local_IRQHandler
 959      00000000 
 960 0138 00000000 		.dword	U54_f2m_23_local_IRQHandler
 960      00000000 
 961 0140 00000000 		.dword	U54_f2m_24_local_IRQHandler
 961      00000000 
 962 0148 00000000 		.dword	U54_f2m_25_local_IRQHandler
 962      00000000 
 963 0150 00000000 		.dword	U54_f2m_26_local_IRQHandler
 963      00000000 
 964 0158 00000000 		.dword	U54_f2m_27_local_IRQHandler
 964      00000000 
 965 0160 00000000 		.dword	U54_f2m_28_local_IRQHandler
 965      00000000 
 966 0168 00000000 		.dword	U54_f2m_29_local_IRQHandler
 966      00000000 
 967 0170 00000000 		.dword	U54_f2m_30_local_IRQHandler
 967      00000000 
 968 0178 00000000 		.dword	U54_f2m_31_local_IRQHandler
 968      00000000 
 969              		.globl	local_irq_handler_4_table
 970              		.section	.data.local_irq_handler_4_table,"aw"
 971              		.align	3
 974              	local_irq_handler_4_table:
 975 0000 00000000 		.dword	U54_spare_0_local_IRQHandler
 975      00000000 
 976 0008 00000000 		.dword	U54_spare_1_local_IRQHandler
 976      00000000 
 977 0010 00000000 		.dword	U54_spare_2_local_IRQHandler
 977      00000000 
 978 0018 00000000 		.dword	U54_4_mac1_mmsl_local_IRQHandler
 978      00000000 
 979 0020 00000000 		.dword	U54_4_mac1_emac_local_IRQHandler
 979      00000000 
 980 0028 00000000 		.dword	U54_4_mac1_queue3_local_IRQHandler
 980      00000000 
 981 0030 00000000 		.dword	U54_4_mac1_queue2_local_IRQHandler
 981      00000000 
 982 0038 00000000 		.dword	U54_4_mac1_queue1_local_IRQHandler
 982      00000000 
 983 0040 00000000 		.dword	U54_4_mac1_int_local_IRQHandler
 983      00000000 
 984 0048 00000000 		.dword	U54_4_wdog_tout_local_IRQHandler
 984      00000000 
 985 0050 00000000 		.dword	U54_4_wdog_mvrp_local_IRQHandler
 985      00000000 
 986 0058 00000000 		.dword	U54_4_mmuart4_local_IRQHandler
 986      00000000 
 987 0060 00000000 		.dword	U54_spare_3_local_IRQHandler
 987      00000000 
 988 0068 00000000 		.dword	U54_spare_4_local_IRQHandler
 988      00000000 
 989 0070 00000000 		.dword	U54_spare_5_local_IRQHandler
 989      00000000 
 990 0078 00000000 		.dword	U54_spare_6_local_IRQHandler
 990      00000000 
 991 0080 00000000 		.dword	U54_f2m_0_local_IRQHandler
 991      00000000 
 992 0088 00000000 		.dword	U54_f2m_1_local_IRQHandler
 992      00000000 
 993 0090 00000000 		.dword	U54_f2m_2_local_IRQHandler
 993      00000000 
 994 0098 00000000 		.dword	U54_f2m_3_local_IRQHandler
 994      00000000 
 995 00a0 00000000 		.dword	U54_f2m_4_local_IRQHandler
 995      00000000 
 996 00a8 00000000 		.dword	U54_f2m_5_local_IRQHandler
 996      00000000 
 997 00b0 00000000 		.dword	U54_f2m_6_local_IRQHandler
 997      00000000 
 998 00b8 00000000 		.dword	U54_f2m_7_local_IRQHandler
 998      00000000 
 999 00c0 00000000 		.dword	U54_f2m_8_local_IRQHandler
 999      00000000 
 1000 00c8 00000000 		.dword	U54_f2m_9_local_IRQHandler
 1000      00000000 
 1001 00d0 00000000 		.dword	U54_f2m_10_local_IRQHandler
 1001      00000000 
 1002 00d8 00000000 		.dword	U54_f2m_11_local_IRQHandler
 1002      00000000 
 1003 00e0 00000000 		.dword	U54_f2m_12_local_IRQHandler
 1003      00000000 
 1004 00e8 00000000 		.dword	U54_f2m_13_local_IRQHandler
 1004      00000000 
 1005 00f0 00000000 		.dword	U54_f2m_14_local_IRQHandler
 1005      00000000 
 1006 00f8 00000000 		.dword	U54_f2m_15_local_IRQHandler
 1006      00000000 
 1007 0100 00000000 		.dword	U54_f2m_16_local_IRQHandler
 1007      00000000 
 1008 0108 00000000 		.dword	U54_f2m_17_local_IRQHandler
 1008      00000000 
 1009 0110 00000000 		.dword	U54_f2m_18_local_IRQHandler
 1009      00000000 
 1010 0118 00000000 		.dword	U54_f2m_19_local_IRQHandler
 1010      00000000 
 1011 0120 00000000 		.dword	U54_f2m_20_local_IRQHandler
 1011      00000000 
 1012 0128 00000000 		.dword	U54_f2m_21_local_IRQHandler
 1012      00000000 
 1013 0130 00000000 		.dword	U54_f2m_22_local_IRQHandler
 1013      00000000 
 1014 0138 00000000 		.dword	U54_f2m_23_local_IRQHandler
 1014      00000000 
 1015 0140 00000000 		.dword	U54_f2m_24_local_IRQHandler
 1015      00000000 
 1016 0148 00000000 		.dword	U54_f2m_25_local_IRQHandler
 1016      00000000 
 1017 0150 00000000 		.dword	U54_f2m_26_local_IRQHandler
 1017      00000000 
 1018 0158 00000000 		.dword	U54_f2m_27_local_IRQHandler
 1018      00000000 
 1019 0160 00000000 		.dword	U54_f2m_28_local_IRQHandler
 1019      00000000 
 1020 0168 00000000 		.dword	U54_f2m_29_local_IRQHandler
 1020      00000000 
 1021 0170 00000000 		.dword	U54_f2m_30_local_IRQHandler
 1021      00000000 
 1022 0178 00000000 		.dword	U54_f2m_31_local_IRQHandler
 1022      00000000 
 1023              		.globl	local_int_mux
 1024              		.section	.data.local_int_mux,"aw"
 1025              		.align	3
 1028              	local_int_mux:
 1029 0000 00000000 		.dword	E51_local_irq_handler_table
 1029      00000000 
 1030 0008 00000000 		.dword	local_irq_handler_1_table
 1030      00000000 
 1031 0010 00000000 		.dword	local_irq_handler_2_table
 1031      00000000 
 1032 0018 00000000 		.dword	local_irq_handler_3_table
 1032      00000000 
 1033 0020 00000000 		.dword	local_irq_handler_4_table
 1033      00000000 
 1034              		.section	.text.handle_m_ext_interrupt,"ax",@progbits
 1035              		.align	1
 1036              		.globl	handle_m_ext_interrupt
 1038              	handle_m_ext_interrupt:
 1039              	.LFB24:
  82:../src/platform/mpfs_hal/common/mss_mtrap.c ****     {
  83:../src/platform/mpfs_hal/common/mss_mtrap.c ****     }
  84:../src/platform/mpfs_hal/common/mss_mtrap.c **** }
  85:../src/platform/mpfs_hal/common/mss_mtrap.c **** 
  86:../src/platform/mpfs_hal/common/mss_mtrap.c **** /*------------------------------------------------------------------------------
  87:../src/platform/mpfs_hal/common/mss_mtrap.c ****  * RISC-V interrupt handler for external interrupts.
  88:../src/platform/mpfs_hal/common/mss_mtrap.c ****  */
  89:../src/platform/mpfs_hal/common/mss_mtrap.c **** uint8_t (*ext_irq_handler_table[PLIC_NUM_SOURCES])(void) =
  90:../src/platform/mpfs_hal/common/mss_mtrap.c **** {
  91:../src/platform/mpfs_hal/common/mss_mtrap.c ****   PLIC_Invalid_IRQHandler,
  92:../src/platform/mpfs_hal/common/mss_mtrap.c ****   PLIC_l2_metadata_corr_IRQHandler,
  93:../src/platform/mpfs_hal/common/mss_mtrap.c ****   PLIC_l2_metadata_uncorr_IRQHandler,
  94:../src/platform/mpfs_hal/common/mss_mtrap.c ****   PLIC_l2_data_corr_IRQHandler,
  95:../src/platform/mpfs_hal/common/mss_mtrap.c ****   PLIC_l2_data_uncorr_IRQHandler,
  96:../src/platform/mpfs_hal/common/mss_mtrap.c ****   PLIC_dma_ch0_DONE_IRQHandler,
  97:../src/platform/mpfs_hal/common/mss_mtrap.c ****   PLIC_dma_ch0_ERR_IRQHandler,
  98:../src/platform/mpfs_hal/common/mss_mtrap.c ****   PLIC_dma_ch1_DONE_IRQHandler,
  99:../src/platform/mpfs_hal/common/mss_mtrap.c ****   PLIC_dma_ch1_ERR_IRQHandler,
 100:../src/platform/mpfs_hal/common/mss_mtrap.c ****   PLIC_dma_ch2_DONE_IRQHandler,
 101:../src/platform/mpfs_hal/common/mss_mtrap.c ****   PLIC_dma_ch2_ERR_IRQHandler,
 102:../src/platform/mpfs_hal/common/mss_mtrap.c ****   PLIC_dma_ch3_DONE_IRQHandler,
 103:../src/platform/mpfs_hal/common/mss_mtrap.c ****   PLIC_dma_ch3_ERR_IRQHandler,
 104:../src/platform/mpfs_hal/common/mss_mtrap.c ****   PLIC_gpio0_bit0_or_gpio2_bit13_IRQHandler,
 105:../src/platform/mpfs_hal/common/mss_mtrap.c ****   PLIC_gpio0_bit1_or_gpio2_bit13_IRQHandler,
 106:../src/platform/mpfs_hal/common/mss_mtrap.c ****   PLIC_gpio0_bit2_or_gpio2_bit13_IRQHandler,
 107:../src/platform/mpfs_hal/common/mss_mtrap.c ****   PLIC_gpio0_bit3_or_gpio2_bit13_IRQHandler,
 108:../src/platform/mpfs_hal/common/mss_mtrap.c ****   PLIC_gpio0_bit4_or_gpio2_bit13_IRQHandler,
 109:../src/platform/mpfs_hal/common/mss_mtrap.c ****   PLIC_gpio0_bit5_or_gpio2_bit13_IRQHandler,
 110:../src/platform/mpfs_hal/common/mss_mtrap.c ****   PLIC_gpio0_bit6_or_gpio2_bit13_IRQHandler,
 111:../src/platform/mpfs_hal/common/mss_mtrap.c ****   PLIC_gpio0_bit7_or_gpio2_bit13_IRQHandler,
 112:../src/platform/mpfs_hal/common/mss_mtrap.c ****   PLIC_gpio0_bit8_or_gpio2_bit13_IRQHandler,
 113:../src/platform/mpfs_hal/common/mss_mtrap.c ****   PLIC_gpio0_bit9_or_gpio2_bit13_IRQHandler,
 114:../src/platform/mpfs_hal/common/mss_mtrap.c ****   PLIC_gpio0_bit10_or_gpio2_bit13_IRQHandler,
 115:../src/platform/mpfs_hal/common/mss_mtrap.c ****   PLIC_gpio0_bit11_or_gpio2_bit13_IRQHandler,
 116:../src/platform/mpfs_hal/common/mss_mtrap.c ****   PLIC_gpio0_bit12_or_gpio2_bit13_IRQHandler,
 117:../src/platform/mpfs_hal/common/mss_mtrap.c **** 
 118:../src/platform/mpfs_hal/common/mss_mtrap.c ****   PLIC_gpio0_bit13_or_gpio2_bit13_IRQHandler,
 119:../src/platform/mpfs_hal/common/mss_mtrap.c ****   PLIC_gpio1_bit0_or_gpio2_bit14_IRQHandler,
 120:../src/platform/mpfs_hal/common/mss_mtrap.c ****   PLIC_gpio1_bit1_or_gpio2_bit15_IRQHandler,
 121:../src/platform/mpfs_hal/common/mss_mtrap.c ****   PLIC_gpio1_bit2_or_gpio2_bit16_IRQHandler,
 122:../src/platform/mpfs_hal/common/mss_mtrap.c ****   PLIC_gpio1_bit3_or_gpio2_bit17_IRQHandler,
 123:../src/platform/mpfs_hal/common/mss_mtrap.c ****   PLIC_gpio1_bit4_or_gpio2_bit18_IRQHandler,
 124:../src/platform/mpfs_hal/common/mss_mtrap.c ****   PLIC_gpio1_bit5_or_gpio2_bit19_IRQHandler,
 125:../src/platform/mpfs_hal/common/mss_mtrap.c ****   PLIC_gpio1_bit6_or_gpio2_bit20_IRQHandler,
 126:../src/platform/mpfs_hal/common/mss_mtrap.c ****   PLIC_gpio1_bit7_or_gpio2_bit21_IRQHandler,
 127:../src/platform/mpfs_hal/common/mss_mtrap.c ****   PLIC_gpio1_bit8_or_gpio2_bit22_IRQHandler,
 128:../src/platform/mpfs_hal/common/mss_mtrap.c ****   PLIC_gpio1_bit9_or_gpio2_bit23_IRQHandler,
 129:../src/platform/mpfs_hal/common/mss_mtrap.c ****   PLIC_gpio1_bit10_or_gpio2_bit24_IRQHandler,
 130:../src/platform/mpfs_hal/common/mss_mtrap.c ****   PLIC_gpio1_bit11_or_gpio2_bit25_IRQHandler,
 131:../src/platform/mpfs_hal/common/mss_mtrap.c ****   PLIC_gpio1_bit12_or_gpio2_bit26_IRQHandler,
 132:../src/platform/mpfs_hal/common/mss_mtrap.c ****   PLIC_gpio1_bit13_or_gpio2_bit27_IRQHandler,
 133:../src/platform/mpfs_hal/common/mss_mtrap.c **** 
 134:../src/platform/mpfs_hal/common/mss_mtrap.c ****   PLIC_gpio1_bit14_or_gpio2_bit28_IRQHandler,
 135:../src/platform/mpfs_hal/common/mss_mtrap.c ****   PLIC_gpio1_bit15_or_gpio2_bit29_IRQHandler,
 136:../src/platform/mpfs_hal/common/mss_mtrap.c ****   PLIC_gpio1_bit16_or_gpio2_bit30_IRQHandler,
 137:../src/platform/mpfs_hal/common/mss_mtrap.c ****   PLIC_gpio1_bit17_or_gpio2_bit31_IRQHandler,
 138:../src/platform/mpfs_hal/common/mss_mtrap.c **** 
 139:../src/platform/mpfs_hal/common/mss_mtrap.c ****   PLIC_gpio1_bit18_IRQHandler,
 140:../src/platform/mpfs_hal/common/mss_mtrap.c ****   PLIC_gpio1_bit19_IRQHandler,
 141:../src/platform/mpfs_hal/common/mss_mtrap.c ****   PLIC_gpio1_bit20_IRQHandler,
 142:../src/platform/mpfs_hal/common/mss_mtrap.c ****   PLIC_gpio1_bit21_IRQHandler,
 143:../src/platform/mpfs_hal/common/mss_mtrap.c ****   PLIC_gpio1_bit22_IRQHandler,
 144:../src/platform/mpfs_hal/common/mss_mtrap.c ****   PLIC_gpio1_bit23_IRQHandler,
 145:../src/platform/mpfs_hal/common/mss_mtrap.c **** 
 146:../src/platform/mpfs_hal/common/mss_mtrap.c ****   PLIC_gpio0_non_direct_IRQHandler,
 147:../src/platform/mpfs_hal/common/mss_mtrap.c ****   PLIC_gpio1_non_direct_IRQHandler,
 148:../src/platform/mpfs_hal/common/mss_mtrap.c ****   PLIC_gpio2_non_direct_IRQHandler,
 149:../src/platform/mpfs_hal/common/mss_mtrap.c **** 
 150:../src/platform/mpfs_hal/common/mss_mtrap.c ****   PLIC_spi0_IRQHandler,
 151:../src/platform/mpfs_hal/common/mss_mtrap.c ****   PLIC_spi1_IRQHandler,
 152:../src/platform/mpfs_hal/common/mss_mtrap.c ****   PLIC_external_can0_IRQHandler,
 153:../src/platform/mpfs_hal/common/mss_mtrap.c ****   PLIC_can1_IRQHandler,
 154:../src/platform/mpfs_hal/common/mss_mtrap.c ****   PLIC_External_i2c0_main_IRQHandler,
 155:../src/platform/mpfs_hal/common/mss_mtrap.c ****   PLIC_External_i2c0_alert_IRQHandler,
 156:../src/platform/mpfs_hal/common/mss_mtrap.c ****   PLIC_i2c0_sus_IRQHandler,
 157:../src/platform/mpfs_hal/common/mss_mtrap.c ****   PLIC_i2c1_main_IRQHandler,
 158:../src/platform/mpfs_hal/common/mss_mtrap.c ****   PLIC_i2c1_alert_IRQHandler,
 159:../src/platform/mpfs_hal/common/mss_mtrap.c ****   PLIC_i2c1_sus_IRQHandler,
 160:../src/platform/mpfs_hal/common/mss_mtrap.c ****   PLIC_mac0_int_IRQHandler,
 161:../src/platform/mpfs_hal/common/mss_mtrap.c ****   PLIC_mac0_queue1_IRQHandler,
 162:../src/platform/mpfs_hal/common/mss_mtrap.c ****   PLIC_mac0_queue2_IRQHandler,
 163:../src/platform/mpfs_hal/common/mss_mtrap.c ****   PLIC_mac0_queue3_IRQHandler,
 164:../src/platform/mpfs_hal/common/mss_mtrap.c ****   PLIC_mac0_emac_IRQHandler,
 165:../src/platform/mpfs_hal/common/mss_mtrap.c ****   PLIC_mac0_mmsl_IRQHandler,
 166:../src/platform/mpfs_hal/common/mss_mtrap.c ****   PLIC_mac1_int_IRQHandler,
 167:../src/platform/mpfs_hal/common/mss_mtrap.c ****   PLIC_mac1_queue1_IRQHandler,
 168:../src/platform/mpfs_hal/common/mss_mtrap.c ****   PLIC_mac1_queue2_IRQHandler,
 169:../src/platform/mpfs_hal/common/mss_mtrap.c ****   PLIC_mac1_queue3_IRQHandler,
 170:../src/platform/mpfs_hal/common/mss_mtrap.c ****   PLIC_mac1_emac_IRQHandler,
 171:../src/platform/mpfs_hal/common/mss_mtrap.c ****   PLIC_mac1_mmsl_IRQHandler,
 172:../src/platform/mpfs_hal/common/mss_mtrap.c ****   PLIC_ddrc_train_IRQHandler,
 173:../src/platform/mpfs_hal/common/mss_mtrap.c ****   PLIC_scb_interrupt_IRQHandler,
 174:../src/platform/mpfs_hal/common/mss_mtrap.c ****   PLIC_ecc_error_IRQHandler,
 175:../src/platform/mpfs_hal/common/mss_mtrap.c ****   PLIC_ecc_correct_IRQHandler,
 176:../src/platform/mpfs_hal/common/mss_mtrap.c ****   PLIC_rtc_wakeup_IRQHandler,
 177:../src/platform/mpfs_hal/common/mss_mtrap.c ****   PLIC_rtc_match_IRQHandler,
 178:../src/platform/mpfs_hal/common/mss_mtrap.c ****   PLIC_timer1_IRQHandler,
 179:../src/platform/mpfs_hal/common/mss_mtrap.c ****   PLIC_timer2_IRQHandler,
 180:../src/platform/mpfs_hal/common/mss_mtrap.c ****   PLIC_envm_IRQHandler,
 181:../src/platform/mpfs_hal/common/mss_mtrap.c ****   PLIC_qspi_IRQHandler,
 182:../src/platform/mpfs_hal/common/mss_mtrap.c ****   PLIC_usb_dma_IRQHandler,
 183:../src/platform/mpfs_hal/common/mss_mtrap.c ****   PLIC_usb_mc_IRQHandler,
 184:../src/platform/mpfs_hal/common/mss_mtrap.c ****   PLIC_mmc_main_IRQHandler,
 185:../src/platform/mpfs_hal/common/mss_mtrap.c ****   PLIC_mmc_wakeup_IRQHandler,
 186:../src/platform/mpfs_hal/common/mss_mtrap.c ****   PLIC_mmuart0_IRQHandler,
 187:../src/platform/mpfs_hal/common/mss_mtrap.c ****   PLIC_mmuart1_IRQHandler,
 188:../src/platform/mpfs_hal/common/mss_mtrap.c ****   PLIC_mmuart2_IRQHandler,
 189:../src/platform/mpfs_hal/common/mss_mtrap.c ****   PLIC_mmuart3_IRQHandler,
 190:../src/platform/mpfs_hal/common/mss_mtrap.c ****   PLIC_mmuart4_IRQHandler,
 191:../src/platform/mpfs_hal/common/mss_mtrap.c **** 
 192:../src/platform/mpfs_hal/common/mss_mtrap.c ****   PLIC_devrst_IRQHandler,
 193:../src/platform/mpfs_hal/common/mss_mtrap.c ****   PLIC_g5c_message_IRQHandler,
 194:../src/platform/mpfs_hal/common/mss_mtrap.c ****   PLIC_usoc_vc_interrupt_IRQHandler,
 195:../src/platform/mpfs_hal/common/mss_mtrap.c ****   PLIC_usoc_smb_interrupt_IRQHandler,
 196:../src/platform/mpfs_hal/common/mss_mtrap.c ****   PLIC_E51_Maintence_IRQHandler,
 197:../src/platform/mpfs_hal/common/mss_mtrap.c **** 
 198:../src/platform/mpfs_hal/common/mss_mtrap.c ****   PLIC_wdog0_mvrp_IRQHandler,
 199:../src/platform/mpfs_hal/common/mss_mtrap.c ****   PLIC_wdog1_mvrp_IRQHandler, /*100 contains multiple interrupts- */
 200:../src/platform/mpfs_hal/common/mss_mtrap.c ****   PLIC_wdog2_mvrp_IRQHandler,
 201:../src/platform/mpfs_hal/common/mss_mtrap.c ****   PLIC_wdog3_mvrp_IRQHandler,
 202:../src/platform/mpfs_hal/common/mss_mtrap.c ****   PLIC_wdog4_mvrp_IRQHandler,
 203:../src/platform/mpfs_hal/common/mss_mtrap.c ****   PLIC_wdog0_tout_IRQHandler,
 204:../src/platform/mpfs_hal/common/mss_mtrap.c ****   PLIC_wdog1_tout_IRQHandler,
 205:../src/platform/mpfs_hal/common/mss_mtrap.c ****   PLIC_wdog2_tout_IRQHandler,
 206:../src/platform/mpfs_hal/common/mss_mtrap.c ****   PLIC_wdog3_tout_IRQHandler,
 207:../src/platform/mpfs_hal/common/mss_mtrap.c ****   PLIC_wdog4_tout_IRQHandler,
 208:../src/platform/mpfs_hal/common/mss_mtrap.c **** 
 209:../src/platform/mpfs_hal/common/mss_mtrap.c ****   PLIC_g5c_mss_spi_IRQHandler,
 210:../src/platform/mpfs_hal/common/mss_mtrap.c ****   PLIC_volt_temp_alarm_IRQHandler,
 211:../src/platform/mpfs_hal/common/mss_mtrap.c ****   PLIC_athena_complete_IRQHandler,
 212:../src/platform/mpfs_hal/common/mss_mtrap.c ****   PLIC_athena_alarm_IRQHandler,
 213:../src/platform/mpfs_hal/common/mss_mtrap.c ****   PLIC_athena_bus_error_IRQHandler,
 214:../src/platform/mpfs_hal/common/mss_mtrap.c ****   PLIC_usoc_axic_us_IRQHandler,
 215:../src/platform/mpfs_hal/common/mss_mtrap.c ****   PLIC_usoc_axic_ds_IRQHandler,
 216:../src/platform/mpfs_hal/common/mss_mtrap.c **** 
 217:../src/platform/mpfs_hal/common/mss_mtrap.c ****   PLIC_reserved_104_IRQHandler,
 218:../src/platform/mpfs_hal/common/mss_mtrap.c **** 
 219:../src/platform/mpfs_hal/common/mss_mtrap.c ****   PLIC_f2m_0_IRQHandler,
 220:../src/platform/mpfs_hal/common/mss_mtrap.c ****   PLIC_f2m_1_IRQHandler,
 221:../src/platform/mpfs_hal/common/mss_mtrap.c ****   PLIC_f2m_2_IRQHandler,
 222:../src/platform/mpfs_hal/common/mss_mtrap.c ****   PLIC_f2m_3_IRQHandler,
 223:../src/platform/mpfs_hal/common/mss_mtrap.c ****   PLIC_f2m_4_IRQHandler,
 224:../src/platform/mpfs_hal/common/mss_mtrap.c ****   PLIC_f2m_5_IRQHandler,
 225:../src/platform/mpfs_hal/common/mss_mtrap.c ****   PLIC_f2m_6_IRQHandler,
 226:../src/platform/mpfs_hal/common/mss_mtrap.c ****   PLIC_f2m_7_IRQHandler,
 227:../src/platform/mpfs_hal/common/mss_mtrap.c ****   PLIC_f2m_8_IRQHandler,
 228:../src/platform/mpfs_hal/common/mss_mtrap.c ****   PLIC_f2m_9_IRQHandler,
 229:../src/platform/mpfs_hal/common/mss_mtrap.c **** 
 230:../src/platform/mpfs_hal/common/mss_mtrap.c ****   PLIC_f2m_10_IRQHandler,
 231:../src/platform/mpfs_hal/common/mss_mtrap.c ****   PLIC_f2m_11_IRQHandler,
 232:../src/platform/mpfs_hal/common/mss_mtrap.c ****   PLIC_f2m_12_IRQHandler,
 233:../src/platform/mpfs_hal/common/mss_mtrap.c ****   PLIC_f2m_13_IRQHandler,
 234:../src/platform/mpfs_hal/common/mss_mtrap.c ****   PLIC_f2m_14_IRQHandler,
 235:../src/platform/mpfs_hal/common/mss_mtrap.c ****   PLIC_f2m_15_IRQHandler,
 236:../src/platform/mpfs_hal/common/mss_mtrap.c ****   PLIC_f2m_16_IRQHandler,
 237:../src/platform/mpfs_hal/common/mss_mtrap.c ****   PLIC_f2m_17_IRQHandler,
 238:../src/platform/mpfs_hal/common/mss_mtrap.c ****   PLIC_f2m_18_IRQHandler,
 239:../src/platform/mpfs_hal/common/mss_mtrap.c ****   PLIC_f2m_19_IRQHandler,
 240:../src/platform/mpfs_hal/common/mss_mtrap.c **** 
 241:../src/platform/mpfs_hal/common/mss_mtrap.c ****   PLIC_f2m_20_IRQHandler,
 242:../src/platform/mpfs_hal/common/mss_mtrap.c ****   PLIC_f2m_21_IRQHandler,
 243:../src/platform/mpfs_hal/common/mss_mtrap.c ****   PLIC_f2m_22_IRQHandler,
 244:../src/platform/mpfs_hal/common/mss_mtrap.c ****   PLIC_f2m_23_IRQHandler,
 245:../src/platform/mpfs_hal/common/mss_mtrap.c ****   PLIC_f2m_24_IRQHandler,
 246:../src/platform/mpfs_hal/common/mss_mtrap.c ****   PLIC_f2m_25_IRQHandler,
 247:../src/platform/mpfs_hal/common/mss_mtrap.c ****   PLIC_f2m_26_IRQHandler,
 248:../src/platform/mpfs_hal/common/mss_mtrap.c ****   PLIC_f2m_27_IRQHandler,
 249:../src/platform/mpfs_hal/common/mss_mtrap.c ****   PLIC_f2m_28_IRQHandler,
 250:../src/platform/mpfs_hal/common/mss_mtrap.c ****   PLIC_f2m_29_IRQHandler,
 251:../src/platform/mpfs_hal/common/mss_mtrap.c **** 
 252:../src/platform/mpfs_hal/common/mss_mtrap.c ****   PLIC_f2m_30_IRQHandler,
 253:../src/platform/mpfs_hal/common/mss_mtrap.c ****   PLIC_f2m_31_IRQHandler,
 254:../src/platform/mpfs_hal/common/mss_mtrap.c **** 
 255:../src/platform/mpfs_hal/common/mss_mtrap.c ****   PLIC_f2m_32_IRQHandler,
 256:../src/platform/mpfs_hal/common/mss_mtrap.c ****   PLIC_f2m_33_IRQHandler,
 257:../src/platform/mpfs_hal/common/mss_mtrap.c ****   PLIC_f2m_34_IRQHandler,
 258:../src/platform/mpfs_hal/common/mss_mtrap.c ****   PLIC_f2m_35_IRQHandler,
 259:../src/platform/mpfs_hal/common/mss_mtrap.c ****   PLIC_f2m_36_IRQHandler,
 260:../src/platform/mpfs_hal/common/mss_mtrap.c ****   PLIC_f2m_37_IRQHandler,
 261:../src/platform/mpfs_hal/common/mss_mtrap.c ****   PLIC_f2m_38_IRQHandler,
 262:../src/platform/mpfs_hal/common/mss_mtrap.c ****   PLIC_f2m_39_IRQHandler,
 263:../src/platform/mpfs_hal/common/mss_mtrap.c ****   PLIC_f2m_40_IRQHandler,
 264:../src/platform/mpfs_hal/common/mss_mtrap.c ****   PLIC_f2m_41_IRQHandler,
 265:../src/platform/mpfs_hal/common/mss_mtrap.c **** 
 266:../src/platform/mpfs_hal/common/mss_mtrap.c ****   PLIC_f2m_42_IRQHandler,
 267:../src/platform/mpfs_hal/common/mss_mtrap.c ****   PLIC_f2m_43_IRQHandler,
 268:../src/platform/mpfs_hal/common/mss_mtrap.c ****   PLIC_f2m_44_IRQHandler,
 269:../src/platform/mpfs_hal/common/mss_mtrap.c ****   PLIC_f2m_45_IRQHandler,
 270:../src/platform/mpfs_hal/common/mss_mtrap.c ****   PLIC_f2m_46_IRQHandler,
 271:../src/platform/mpfs_hal/common/mss_mtrap.c ****   PLIC_f2m_47_IRQHandler,
 272:../src/platform/mpfs_hal/common/mss_mtrap.c ****   PLIC_f2m_48_IRQHandler,
 273:../src/platform/mpfs_hal/common/mss_mtrap.c ****   PLIC_f2m_49_IRQHandler,
 274:../src/platform/mpfs_hal/common/mss_mtrap.c ****   PLIC_f2m_50_IRQHandler,
 275:../src/platform/mpfs_hal/common/mss_mtrap.c ****   PLIC_f2m_51_IRQHandler,
 276:../src/platform/mpfs_hal/common/mss_mtrap.c **** 
 277:../src/platform/mpfs_hal/common/mss_mtrap.c ****   PLIC_f2m_52_IRQHandler,
 278:../src/platform/mpfs_hal/common/mss_mtrap.c ****   PLIC_f2m_53_IRQHandler,
 279:../src/platform/mpfs_hal/common/mss_mtrap.c ****   PLIC_f2m_54_IRQHandler,
 280:../src/platform/mpfs_hal/common/mss_mtrap.c ****   PLIC_f2m_55_IRQHandler,
 281:../src/platform/mpfs_hal/common/mss_mtrap.c ****   PLIC_f2m_56_IRQHandler,
 282:../src/platform/mpfs_hal/common/mss_mtrap.c ****   PLIC_f2m_57_IRQHandler,
 283:../src/platform/mpfs_hal/common/mss_mtrap.c ****   PLIC_f2m_58_IRQHandler,
 284:../src/platform/mpfs_hal/common/mss_mtrap.c ****   PLIC_f2m_59_IRQHandler,
 285:../src/platform/mpfs_hal/common/mss_mtrap.c ****   PLIC_f2m_60_IRQHandler,
 286:../src/platform/mpfs_hal/common/mss_mtrap.c ****   PLIC_f2m_61_IRQHandler,
 287:../src/platform/mpfs_hal/common/mss_mtrap.c **** 
 288:../src/platform/mpfs_hal/common/mss_mtrap.c ****   PLIC_f2m_62_IRQHandler,
 289:../src/platform/mpfs_hal/common/mss_mtrap.c ****   PLIC_f2m_63_IRQHandler,
 290:../src/platform/mpfs_hal/common/mss_mtrap.c **** 
 291:../src/platform/mpfs_hal/common/mss_mtrap.c ****   PLIC_E51_bus_error_unit_IRQHandler,
 292:../src/platform/mpfs_hal/common/mss_mtrap.c ****   PLIC_U54_1_bus_error_unit_IRQHandler,
 293:../src/platform/mpfs_hal/common/mss_mtrap.c ****   PLIC_U54_2_bus_error_unit_IRQHandler,
 294:../src/platform/mpfs_hal/common/mss_mtrap.c ****   PLIC_U54_3_bus_error_unit_IRQHandler,
 295:../src/platform/mpfs_hal/common/mss_mtrap.c ****   PLIC_U54_4_bus_error_unit_IRQHandler
 296:../src/platform/mpfs_hal/common/mss_mtrap.c **** };
 297:../src/platform/mpfs_hal/common/mss_mtrap.c **** 
 298:../src/platform/mpfs_hal/common/mss_mtrap.c **** #define E51_LOCAL_NUM_SOURCES 48U
 299:../src/platform/mpfs_hal/common/mss_mtrap.c **** 
 300:../src/platform/mpfs_hal/common/mss_mtrap.c **** 
 301:../src/platform/mpfs_hal/common/mss_mtrap.c **** void (*E51_local_irq_handler_table[E51_LOCAL_NUM_SOURCES])(void) =
 302:../src/platform/mpfs_hal/common/mss_mtrap.c **** {
 303:../src/platform/mpfs_hal/common/mss_mtrap.c ****     E51_maintenance_local_IRQHandler,    /* reference multiple interrupts */
 304:../src/platform/mpfs_hal/common/mss_mtrap.c ****     E51_usoc_smb_local_IRQHandler,
 305:../src/platform/mpfs_hal/common/mss_mtrap.c ****     E51_usoc_vc_local_IRQHandler,
 306:../src/platform/mpfs_hal/common/mss_mtrap.c ****     E51_g5c_message_local_IRQHandler,
 307:../src/platform/mpfs_hal/common/mss_mtrap.c ****     E51_g5c_devrst_local_IRQHandler,
 308:../src/platform/mpfs_hal/common/mss_mtrap.c ****     E51_wdog4_tout_local_IRQHandler,
 309:../src/platform/mpfs_hal/common/mss_mtrap.c ****     E51_wdog3_tout_local_IRQHandler,
 310:../src/platform/mpfs_hal/common/mss_mtrap.c ****     E51_wdog2_tout_local_IRQHandler,
 311:../src/platform/mpfs_hal/common/mss_mtrap.c ****     E51_wdog1_tout_local_IRQHandler,
 312:../src/platform/mpfs_hal/common/mss_mtrap.c ****     E51_wdog0_tout_local_IRQHandler,
 313:../src/platform/mpfs_hal/common/mss_mtrap.c ****     E51_wdog0_mvrp_local_IRQHandler,
 314:../src/platform/mpfs_hal/common/mss_mtrap.c ****     E51_mmuart0_local_IRQHandler,
 315:../src/platform/mpfs_hal/common/mss_mtrap.c ****     E51_envm_local_IRQHandler,
 316:../src/platform/mpfs_hal/common/mss_mtrap.c ****     E51_ecc_correct_local_IRQHandler,
 317:../src/platform/mpfs_hal/common/mss_mtrap.c ****     E51_ecc_error_local_IRQHandler,
 318:../src/platform/mpfs_hal/common/mss_mtrap.c ****     E51_scb_local_IRQHandler,
 319:../src/platform/mpfs_hal/common/mss_mtrap.c ****     E51_f2m_32_local_IRQHandler,
 320:../src/platform/mpfs_hal/common/mss_mtrap.c ****     E51_f2m_33_local_IRQHandler,
 321:../src/platform/mpfs_hal/common/mss_mtrap.c ****     E51_f2m_34_local_IRQHandler,
 322:../src/platform/mpfs_hal/common/mss_mtrap.c ****     E51_f2m_35_local_IRQHandler,
 323:../src/platform/mpfs_hal/common/mss_mtrap.c ****     E51_f2m_36_local_IRQHandler,
 324:../src/platform/mpfs_hal/common/mss_mtrap.c ****     E51_f2m_37_local_IRQHandler,
 325:../src/platform/mpfs_hal/common/mss_mtrap.c ****     E51_f2m_38_local_IRQHandler,
 326:../src/platform/mpfs_hal/common/mss_mtrap.c ****     E51_f2m_39_local_IRQHandler,
 327:../src/platform/mpfs_hal/common/mss_mtrap.c ****     E51_f2m_40_local_IRQHandler,
 328:../src/platform/mpfs_hal/common/mss_mtrap.c ****     E51_f2m_41_local_IRQHandler,
 329:../src/platform/mpfs_hal/common/mss_mtrap.c **** 
 330:../src/platform/mpfs_hal/common/mss_mtrap.c ****     E51_f2m_42_local_IRQHandler,
 331:../src/platform/mpfs_hal/common/mss_mtrap.c ****     E51_f2m_43_local_IRQHandler,
 332:../src/platform/mpfs_hal/common/mss_mtrap.c ****     E51_f2m_44_local_IRQHandler,
 333:../src/platform/mpfs_hal/common/mss_mtrap.c ****     E51_f2m_45_local_IRQHandler,
 334:../src/platform/mpfs_hal/common/mss_mtrap.c ****     E51_f2m_46_local_IRQHandler,
 335:../src/platform/mpfs_hal/common/mss_mtrap.c ****     E51_f2m_47_local_IRQHandler,
 336:../src/platform/mpfs_hal/common/mss_mtrap.c ****     E51_f2m_48_local_IRQHandler,
 337:../src/platform/mpfs_hal/common/mss_mtrap.c ****     E51_f2m_49_local_IRQHandler,
 338:../src/platform/mpfs_hal/common/mss_mtrap.c ****     E51_f2m_50_local_IRQHandler,
 339:../src/platform/mpfs_hal/common/mss_mtrap.c ****     E51_f2m_51_local_IRQHandler,
 340:../src/platform/mpfs_hal/common/mss_mtrap.c **** 
 341:../src/platform/mpfs_hal/common/mss_mtrap.c ****     E51_f2m_52_local_IRQHandler,
 342:../src/platform/mpfs_hal/common/mss_mtrap.c ****     E51_f2m_53_local_IRQHandler,
 343:../src/platform/mpfs_hal/common/mss_mtrap.c ****     E51_f2m_54_local_IRQHandler,
 344:../src/platform/mpfs_hal/common/mss_mtrap.c ****     E51_f2m_55_local_IRQHandler,
 345:../src/platform/mpfs_hal/common/mss_mtrap.c ****     E51_f2m_56_local_IRQHandler,
 346:../src/platform/mpfs_hal/common/mss_mtrap.c ****     E51_f2m_57_local_IRQHandler,
 347:../src/platform/mpfs_hal/common/mss_mtrap.c ****     E51_f2m_58_local_IRQHandler,
 348:../src/platform/mpfs_hal/common/mss_mtrap.c ****     E51_f2m_59_local_IRQHandler,
 349:../src/platform/mpfs_hal/common/mss_mtrap.c ****     E51_f2m_60_local_IRQHandler,
 350:../src/platform/mpfs_hal/common/mss_mtrap.c ****     E51_f2m_61_local_IRQHandler,
 351:../src/platform/mpfs_hal/common/mss_mtrap.c **** 
 352:../src/platform/mpfs_hal/common/mss_mtrap.c ****     E51_f2m_62_local_IRQHandler,
 353:../src/platform/mpfs_hal/common/mss_mtrap.c ****     E51_f2m_63_local_IRQHandler
 354:../src/platform/mpfs_hal/common/mss_mtrap.c **** };
 355:../src/platform/mpfs_hal/common/mss_mtrap.c **** 
 356:../src/platform/mpfs_hal/common/mss_mtrap.c **** 
 357:../src/platform/mpfs_hal/common/mss_mtrap.c **** typedef void (*local_int_p_t)(void);
 358:../src/platform/mpfs_hal/common/mss_mtrap.c **** 
 359:../src/platform/mpfs_hal/common/mss_mtrap.c **** /* U54 1 */
 360:../src/platform/mpfs_hal/common/mss_mtrap.c **** local_int_p_t local_irq_handler_1_table[E51_LOCAL_NUM_SOURCES] =
 361:../src/platform/mpfs_hal/common/mss_mtrap.c **** {
 362:../src/platform/mpfs_hal/common/mss_mtrap.c ****     /*reference multiple interrupts*/
 363:../src/platform/mpfs_hal/common/mss_mtrap.c ****     U54_spare_0_local_IRQHandler,
 364:../src/platform/mpfs_hal/common/mss_mtrap.c ****     U54_spare_1_local_IRQHandler,
 365:../src/platform/mpfs_hal/common/mss_mtrap.c ****     U54_spare_2_local_IRQHandler,
 366:../src/platform/mpfs_hal/common/mss_mtrap.c **** 
 367:../src/platform/mpfs_hal/common/mss_mtrap.c ****     /*parse hart ID to discover which mac is the source*/
 368:../src/platform/mpfs_hal/common/mss_mtrap.c ****     U54_1_mac0_mmsl_local_IRQHandler,
 369:../src/platform/mpfs_hal/common/mss_mtrap.c ****     U54_1_mac0_emac_local_IRQHandler,
 370:../src/platform/mpfs_hal/common/mss_mtrap.c ****     U54_1_mac0_queue3_local_IRQHandler,
 371:../src/platform/mpfs_hal/common/mss_mtrap.c ****     U54_1_mac0_queue2_local_IRQHandler,
 372:../src/platform/mpfs_hal/common/mss_mtrap.c ****     U54_1_mac0_queue1_local_IRQHandler,
 373:../src/platform/mpfs_hal/common/mss_mtrap.c ****     U54_1_mac0_int_local_IRQHandler,
 374:../src/platform/mpfs_hal/common/mss_mtrap.c **** 
 375:../src/platform/mpfs_hal/common/mss_mtrap.c ****     /*parse hart ID to discover which wdog is the source*/
 376:../src/platform/mpfs_hal/common/mss_mtrap.c ****     U54_1_wdog_tout_local_IRQHandler,
 377:../src/platform/mpfs_hal/common/mss_mtrap.c ****     U54_1_wdog_mvrp_local_IRQHandler,
 378:../src/platform/mpfs_hal/common/mss_mtrap.c ****     U54_1_mmuart1_local_IRQHandler,
 379:../src/platform/mpfs_hal/common/mss_mtrap.c **** 
 380:../src/platform/mpfs_hal/common/mss_mtrap.c ****     U54_spare_3_local_IRQHandler,
 381:../src/platform/mpfs_hal/common/mss_mtrap.c ****     U54_spare_4_local_IRQHandler,
 382:../src/platform/mpfs_hal/common/mss_mtrap.c ****     U54_spare_5_local_IRQHandler,
 383:../src/platform/mpfs_hal/common/mss_mtrap.c ****     U54_spare_6_local_IRQHandler,
 384:../src/platform/mpfs_hal/common/mss_mtrap.c **** 
 385:../src/platform/mpfs_hal/common/mss_mtrap.c ****     U54_f2m_0_local_IRQHandler,
 386:../src/platform/mpfs_hal/common/mss_mtrap.c ****     U54_f2m_1_local_IRQHandler,
 387:../src/platform/mpfs_hal/common/mss_mtrap.c ****     U54_f2m_2_local_IRQHandler,
 388:../src/platform/mpfs_hal/common/mss_mtrap.c ****     U54_f2m_3_local_IRQHandler,
 389:../src/platform/mpfs_hal/common/mss_mtrap.c ****     U54_f2m_4_local_IRQHandler,
 390:../src/platform/mpfs_hal/common/mss_mtrap.c ****     U54_f2m_5_local_IRQHandler,
 391:../src/platform/mpfs_hal/common/mss_mtrap.c ****     U54_f2m_6_local_IRQHandler,
 392:../src/platform/mpfs_hal/common/mss_mtrap.c ****     U54_f2m_7_local_IRQHandler,
 393:../src/platform/mpfs_hal/common/mss_mtrap.c ****     U54_f2m_8_local_IRQHandler,
 394:../src/platform/mpfs_hal/common/mss_mtrap.c ****     U54_f2m_9_local_IRQHandler,
 395:../src/platform/mpfs_hal/common/mss_mtrap.c **** 
 396:../src/platform/mpfs_hal/common/mss_mtrap.c ****     U54_f2m_10_local_IRQHandler,
 397:../src/platform/mpfs_hal/common/mss_mtrap.c ****     U54_f2m_11_local_IRQHandler,
 398:../src/platform/mpfs_hal/common/mss_mtrap.c ****     U54_f2m_12_local_IRQHandler,
 399:../src/platform/mpfs_hal/common/mss_mtrap.c ****     U54_f2m_13_local_IRQHandler,
 400:../src/platform/mpfs_hal/common/mss_mtrap.c ****     U54_f2m_14_local_IRQHandler,
 401:../src/platform/mpfs_hal/common/mss_mtrap.c ****     U54_f2m_15_local_IRQHandler,
 402:../src/platform/mpfs_hal/common/mss_mtrap.c ****     U54_f2m_16_local_IRQHandler,
 403:../src/platform/mpfs_hal/common/mss_mtrap.c ****     U54_f2m_17_local_IRQHandler,
 404:../src/platform/mpfs_hal/common/mss_mtrap.c ****     U54_f2m_18_local_IRQHandler,
 405:../src/platform/mpfs_hal/common/mss_mtrap.c ****     U54_f2m_19_local_IRQHandler,
 406:../src/platform/mpfs_hal/common/mss_mtrap.c **** 
 407:../src/platform/mpfs_hal/common/mss_mtrap.c ****     U54_f2m_20_local_IRQHandler,
 408:../src/platform/mpfs_hal/common/mss_mtrap.c ****     U54_f2m_21_local_IRQHandler,
 409:../src/platform/mpfs_hal/common/mss_mtrap.c ****     U54_f2m_22_local_IRQHandler,
 410:../src/platform/mpfs_hal/common/mss_mtrap.c ****     U54_f2m_23_local_IRQHandler,
 411:../src/platform/mpfs_hal/common/mss_mtrap.c ****     U54_f2m_24_local_IRQHandler,
 412:../src/platform/mpfs_hal/common/mss_mtrap.c ****     U54_f2m_25_local_IRQHandler,
 413:../src/platform/mpfs_hal/common/mss_mtrap.c ****     U54_f2m_26_local_IRQHandler,
 414:../src/platform/mpfs_hal/common/mss_mtrap.c ****     U54_f2m_27_local_IRQHandler,
 415:../src/platform/mpfs_hal/common/mss_mtrap.c ****     U54_f2m_28_local_IRQHandler,
 416:../src/platform/mpfs_hal/common/mss_mtrap.c ****     U54_f2m_29_local_IRQHandler,
 417:../src/platform/mpfs_hal/common/mss_mtrap.c **** 
 418:../src/platform/mpfs_hal/common/mss_mtrap.c ****     U54_f2m_30_local_IRQHandler,
 419:../src/platform/mpfs_hal/common/mss_mtrap.c ****     U54_f2m_31_local_IRQHandler
 420:../src/platform/mpfs_hal/common/mss_mtrap.c **** };
 421:../src/platform/mpfs_hal/common/mss_mtrap.c **** 
 422:../src/platform/mpfs_hal/common/mss_mtrap.c **** /* U54 2 */
 423:../src/platform/mpfs_hal/common/mss_mtrap.c **** local_int_p_t local_irq_handler_2_table[E51_LOCAL_NUM_SOURCES] =
 424:../src/platform/mpfs_hal/common/mss_mtrap.c **** {
 425:../src/platform/mpfs_hal/common/mss_mtrap.c ****     /*reference multiple interrupts*/
 426:../src/platform/mpfs_hal/common/mss_mtrap.c ****     U54_spare_0_local_IRQHandler,
 427:../src/platform/mpfs_hal/common/mss_mtrap.c ****     U54_spare_1_local_IRQHandler,
 428:../src/platform/mpfs_hal/common/mss_mtrap.c ****     U54_spare_2_local_IRQHandler,
 429:../src/platform/mpfs_hal/common/mss_mtrap.c **** 
 430:../src/platform/mpfs_hal/common/mss_mtrap.c ****     /*parse hart ID to discover which mac is the source*/
 431:../src/platform/mpfs_hal/common/mss_mtrap.c ****     U54_2_mac0_mmsl_local_IRQHandler,
 432:../src/platform/mpfs_hal/common/mss_mtrap.c ****     U54_2_mac0_emac_local_IRQHandler,
 433:../src/platform/mpfs_hal/common/mss_mtrap.c ****     U54_2_mac0_queue3_local_IRQHandler,
 434:../src/platform/mpfs_hal/common/mss_mtrap.c ****     U54_2_mac0_queue2_local_IRQHandler,
 435:../src/platform/mpfs_hal/common/mss_mtrap.c ****     U54_2_mac0_queue1_local_IRQHandler,
 436:../src/platform/mpfs_hal/common/mss_mtrap.c ****     U54_2_mac0_int_local_IRQHandler,
 437:../src/platform/mpfs_hal/common/mss_mtrap.c **** 
 438:../src/platform/mpfs_hal/common/mss_mtrap.c ****     /*parse hart ID to discover which wdog is the source*/
 439:../src/platform/mpfs_hal/common/mss_mtrap.c ****     U54_2_wdog_tout_local_IRQHandler,
 440:../src/platform/mpfs_hal/common/mss_mtrap.c ****     U54_2_wdog_mvrp_local_IRQHandler,
 441:../src/platform/mpfs_hal/common/mss_mtrap.c ****     U54_2_mmuart2_local_IRQHandler,
 442:../src/platform/mpfs_hal/common/mss_mtrap.c **** 
 443:../src/platform/mpfs_hal/common/mss_mtrap.c ****     U54_spare_3_local_IRQHandler,
 444:../src/platform/mpfs_hal/common/mss_mtrap.c ****     U54_spare_4_local_IRQHandler,
 445:../src/platform/mpfs_hal/common/mss_mtrap.c ****     U54_spare_5_local_IRQHandler,
 446:../src/platform/mpfs_hal/common/mss_mtrap.c ****     U54_spare_6_local_IRQHandler,
 447:../src/platform/mpfs_hal/common/mss_mtrap.c **** 
 448:../src/platform/mpfs_hal/common/mss_mtrap.c ****     U54_f2m_0_local_IRQHandler,
 449:../src/platform/mpfs_hal/common/mss_mtrap.c ****     U54_f2m_1_local_IRQHandler,
 450:../src/platform/mpfs_hal/common/mss_mtrap.c ****     U54_f2m_2_local_IRQHandler,
 451:../src/platform/mpfs_hal/common/mss_mtrap.c ****     U54_f2m_3_local_IRQHandler,
 452:../src/platform/mpfs_hal/common/mss_mtrap.c ****     U54_f2m_4_local_IRQHandler,
 453:../src/platform/mpfs_hal/common/mss_mtrap.c ****     U54_f2m_5_local_IRQHandler,
 454:../src/platform/mpfs_hal/common/mss_mtrap.c ****     U54_f2m_6_local_IRQHandler,
 455:../src/platform/mpfs_hal/common/mss_mtrap.c ****     U54_f2m_7_local_IRQHandler,
 456:../src/platform/mpfs_hal/common/mss_mtrap.c ****     U54_f2m_8_local_IRQHandler,
 457:../src/platform/mpfs_hal/common/mss_mtrap.c ****     U54_f2m_9_local_IRQHandler,
 458:../src/platform/mpfs_hal/common/mss_mtrap.c **** 
 459:../src/platform/mpfs_hal/common/mss_mtrap.c ****     U54_f2m_10_local_IRQHandler,
 460:../src/platform/mpfs_hal/common/mss_mtrap.c ****     U54_f2m_11_local_IRQHandler,
 461:../src/platform/mpfs_hal/common/mss_mtrap.c ****     U54_f2m_12_local_IRQHandler,
 462:../src/platform/mpfs_hal/common/mss_mtrap.c ****     U54_f2m_13_local_IRQHandler,
 463:../src/platform/mpfs_hal/common/mss_mtrap.c ****     U54_f2m_14_local_IRQHandler,
 464:../src/platform/mpfs_hal/common/mss_mtrap.c ****     U54_f2m_15_local_IRQHandler,
 465:../src/platform/mpfs_hal/common/mss_mtrap.c ****     U54_f2m_16_local_IRQHandler,
 466:../src/platform/mpfs_hal/common/mss_mtrap.c ****     U54_f2m_17_local_IRQHandler,
 467:../src/platform/mpfs_hal/common/mss_mtrap.c ****     U54_f2m_18_local_IRQHandler,
 468:../src/platform/mpfs_hal/common/mss_mtrap.c ****     U54_f2m_19_local_IRQHandler,
 469:../src/platform/mpfs_hal/common/mss_mtrap.c **** 
 470:../src/platform/mpfs_hal/common/mss_mtrap.c ****     U54_f2m_20_local_IRQHandler,
 471:../src/platform/mpfs_hal/common/mss_mtrap.c ****     U54_f2m_21_local_IRQHandler,
 472:../src/platform/mpfs_hal/common/mss_mtrap.c ****     U54_f2m_22_local_IRQHandler,
 473:../src/platform/mpfs_hal/common/mss_mtrap.c ****     U54_f2m_23_local_IRQHandler,
 474:../src/platform/mpfs_hal/common/mss_mtrap.c ****     U54_f2m_24_local_IRQHandler,
 475:../src/platform/mpfs_hal/common/mss_mtrap.c ****     U54_f2m_25_local_IRQHandler,
 476:../src/platform/mpfs_hal/common/mss_mtrap.c ****     U54_f2m_26_local_IRQHandler,
 477:../src/platform/mpfs_hal/common/mss_mtrap.c ****     U54_f2m_27_local_IRQHandler,
 478:../src/platform/mpfs_hal/common/mss_mtrap.c ****     U54_f2m_28_local_IRQHandler,
 479:../src/platform/mpfs_hal/common/mss_mtrap.c ****     U54_f2m_29_local_IRQHandler,
 480:../src/platform/mpfs_hal/common/mss_mtrap.c **** 
 481:../src/platform/mpfs_hal/common/mss_mtrap.c ****     U54_f2m_30_local_IRQHandler,
 482:../src/platform/mpfs_hal/common/mss_mtrap.c ****     U54_f2m_31_local_IRQHandler
 483:../src/platform/mpfs_hal/common/mss_mtrap.c **** };
 484:../src/platform/mpfs_hal/common/mss_mtrap.c **** 
 485:../src/platform/mpfs_hal/common/mss_mtrap.c **** /* U54 3 */
 486:../src/platform/mpfs_hal/common/mss_mtrap.c **** local_int_p_t local_irq_handler_3_table[E51_LOCAL_NUM_SOURCES] =
 487:../src/platform/mpfs_hal/common/mss_mtrap.c **** {
 488:../src/platform/mpfs_hal/common/mss_mtrap.c ****     /*reference multiple interrupts*/
 489:../src/platform/mpfs_hal/common/mss_mtrap.c ****     U54_spare_0_local_IRQHandler,
 490:../src/platform/mpfs_hal/common/mss_mtrap.c ****     U54_spare_1_local_IRQHandler,
 491:../src/platform/mpfs_hal/common/mss_mtrap.c ****     U54_spare_2_local_IRQHandler,
 492:../src/platform/mpfs_hal/common/mss_mtrap.c **** 
 493:../src/platform/mpfs_hal/common/mss_mtrap.c ****     /*parse hart ID to discover which mac is the source*/
 494:../src/platform/mpfs_hal/common/mss_mtrap.c ****     U54_3_mac1_mmsl_local_IRQHandler,
 495:../src/platform/mpfs_hal/common/mss_mtrap.c ****     U54_3_mac1_emac_local_IRQHandler,
 496:../src/platform/mpfs_hal/common/mss_mtrap.c ****     U54_3_mac1_queue3_local_IRQHandler,
 497:../src/platform/mpfs_hal/common/mss_mtrap.c ****     U54_3_mac1_queue2_local_IRQHandler,
 498:../src/platform/mpfs_hal/common/mss_mtrap.c ****     U54_3_mac1_queue1_local_IRQHandler,
 499:../src/platform/mpfs_hal/common/mss_mtrap.c ****     U54_3_mac1_int_local_IRQHandler,
 500:../src/platform/mpfs_hal/common/mss_mtrap.c **** 
 501:../src/platform/mpfs_hal/common/mss_mtrap.c ****     /*parse hart ID to discover which wdog is the source*/
 502:../src/platform/mpfs_hal/common/mss_mtrap.c ****     U54_3_wdog_tout_local_IRQHandler,
 503:../src/platform/mpfs_hal/common/mss_mtrap.c ****     U54_3_wdog_mvrp_local_IRQHandler,
 504:../src/platform/mpfs_hal/common/mss_mtrap.c ****     U54_3_mmuart3_local_IRQHandler,
 505:../src/platform/mpfs_hal/common/mss_mtrap.c **** 
 506:../src/platform/mpfs_hal/common/mss_mtrap.c ****     U54_spare_3_local_IRQHandler,
 507:../src/platform/mpfs_hal/common/mss_mtrap.c ****     U54_spare_4_local_IRQHandler,
 508:../src/platform/mpfs_hal/common/mss_mtrap.c ****     U54_spare_5_local_IRQHandler,
 509:../src/platform/mpfs_hal/common/mss_mtrap.c ****     U54_spare_6_local_IRQHandler,
 510:../src/platform/mpfs_hal/common/mss_mtrap.c **** 
 511:../src/platform/mpfs_hal/common/mss_mtrap.c ****     U54_f2m_0_local_IRQHandler,
 512:../src/platform/mpfs_hal/common/mss_mtrap.c ****     U54_f2m_1_local_IRQHandler,
 513:../src/platform/mpfs_hal/common/mss_mtrap.c ****     U54_f2m_2_local_IRQHandler,
 514:../src/platform/mpfs_hal/common/mss_mtrap.c ****     U54_f2m_3_local_IRQHandler,
 515:../src/platform/mpfs_hal/common/mss_mtrap.c ****     U54_f2m_4_local_IRQHandler,
 516:../src/platform/mpfs_hal/common/mss_mtrap.c ****     U54_f2m_5_local_IRQHandler,
 517:../src/platform/mpfs_hal/common/mss_mtrap.c ****     U54_f2m_6_local_IRQHandler,
 518:../src/platform/mpfs_hal/common/mss_mtrap.c ****     U54_f2m_7_local_IRQHandler,
 519:../src/platform/mpfs_hal/common/mss_mtrap.c ****     U54_f2m_8_local_IRQHandler,
 520:../src/platform/mpfs_hal/common/mss_mtrap.c ****     U54_f2m_9_local_IRQHandler,
 521:../src/platform/mpfs_hal/common/mss_mtrap.c **** 
 522:../src/platform/mpfs_hal/common/mss_mtrap.c ****     U54_f2m_10_local_IRQHandler,
 523:../src/platform/mpfs_hal/common/mss_mtrap.c ****     U54_f2m_11_local_IRQHandler,
 524:../src/platform/mpfs_hal/common/mss_mtrap.c ****     U54_f2m_12_local_IRQHandler,
 525:../src/platform/mpfs_hal/common/mss_mtrap.c ****     U54_f2m_13_local_IRQHandler,
 526:../src/platform/mpfs_hal/common/mss_mtrap.c ****     U54_f2m_14_local_IRQHandler,
 527:../src/platform/mpfs_hal/common/mss_mtrap.c ****     U54_f2m_15_local_IRQHandler,
 528:../src/platform/mpfs_hal/common/mss_mtrap.c ****     U54_f2m_16_local_IRQHandler,
 529:../src/platform/mpfs_hal/common/mss_mtrap.c ****     U54_f2m_17_local_IRQHandler,
 530:../src/platform/mpfs_hal/common/mss_mtrap.c ****     U54_f2m_18_local_IRQHandler,
 531:../src/platform/mpfs_hal/common/mss_mtrap.c ****     U54_f2m_19_local_IRQHandler,
 532:../src/platform/mpfs_hal/common/mss_mtrap.c **** 
 533:../src/platform/mpfs_hal/common/mss_mtrap.c ****     U54_f2m_20_local_IRQHandler,
 534:../src/platform/mpfs_hal/common/mss_mtrap.c ****     U54_f2m_21_local_IRQHandler,
 535:../src/platform/mpfs_hal/common/mss_mtrap.c ****     U54_f2m_22_local_IRQHandler,
 536:../src/platform/mpfs_hal/common/mss_mtrap.c ****     U54_f2m_23_local_IRQHandler,
 537:../src/platform/mpfs_hal/common/mss_mtrap.c ****     U54_f2m_24_local_IRQHandler,
 538:../src/platform/mpfs_hal/common/mss_mtrap.c ****     U54_f2m_25_local_IRQHandler,
 539:../src/platform/mpfs_hal/common/mss_mtrap.c ****     U54_f2m_26_local_IRQHandler,
 540:../src/platform/mpfs_hal/common/mss_mtrap.c ****     U54_f2m_27_local_IRQHandler,
 541:../src/platform/mpfs_hal/common/mss_mtrap.c ****     U54_f2m_28_local_IRQHandler,
 542:../src/platform/mpfs_hal/common/mss_mtrap.c ****     U54_f2m_29_local_IRQHandler,
 543:../src/platform/mpfs_hal/common/mss_mtrap.c **** 
 544:../src/platform/mpfs_hal/common/mss_mtrap.c ****     U54_f2m_30_local_IRQHandler,
 545:../src/platform/mpfs_hal/common/mss_mtrap.c ****     U54_f2m_31_local_IRQHandler
 546:../src/platform/mpfs_hal/common/mss_mtrap.c **** };
 547:../src/platform/mpfs_hal/common/mss_mtrap.c **** 
 548:../src/platform/mpfs_hal/common/mss_mtrap.c **** /* U54 4 */
 549:../src/platform/mpfs_hal/common/mss_mtrap.c **** local_int_p_t local_irq_handler_4_table[E51_LOCAL_NUM_SOURCES] =
 550:../src/platform/mpfs_hal/common/mss_mtrap.c **** {
 551:../src/platform/mpfs_hal/common/mss_mtrap.c ****     /*reference multiple interrupts*/
 552:../src/platform/mpfs_hal/common/mss_mtrap.c ****     U54_spare_0_local_IRQHandler,
 553:../src/platform/mpfs_hal/common/mss_mtrap.c ****     U54_spare_1_local_IRQHandler,
 554:../src/platform/mpfs_hal/common/mss_mtrap.c ****     U54_spare_2_local_IRQHandler,
 555:../src/platform/mpfs_hal/common/mss_mtrap.c **** 
 556:../src/platform/mpfs_hal/common/mss_mtrap.c ****     /*parse hart ID to discover which mac is the source*/
 557:../src/platform/mpfs_hal/common/mss_mtrap.c ****     U54_4_mac1_mmsl_local_IRQHandler,
 558:../src/platform/mpfs_hal/common/mss_mtrap.c ****     U54_4_mac1_emac_local_IRQHandler,
 559:../src/platform/mpfs_hal/common/mss_mtrap.c ****     U54_4_mac1_queue3_local_IRQHandler,
 560:../src/platform/mpfs_hal/common/mss_mtrap.c ****     U54_4_mac1_queue2_local_IRQHandler,
 561:../src/platform/mpfs_hal/common/mss_mtrap.c ****     U54_4_mac1_queue1_local_IRQHandler,
 562:../src/platform/mpfs_hal/common/mss_mtrap.c ****     U54_4_mac1_int_local_IRQHandler,
 563:../src/platform/mpfs_hal/common/mss_mtrap.c **** 
 564:../src/platform/mpfs_hal/common/mss_mtrap.c ****     /*parse hart ID to discover which wdog is the source*/
 565:../src/platform/mpfs_hal/common/mss_mtrap.c ****     U54_4_wdog_tout_local_IRQHandler,
 566:../src/platform/mpfs_hal/common/mss_mtrap.c ****     U54_4_wdog_mvrp_local_IRQHandler,
 567:../src/platform/mpfs_hal/common/mss_mtrap.c ****     U54_4_mmuart4_local_IRQHandler,
 568:../src/platform/mpfs_hal/common/mss_mtrap.c **** 
 569:../src/platform/mpfs_hal/common/mss_mtrap.c ****     U54_spare_3_local_IRQHandler,
 570:../src/platform/mpfs_hal/common/mss_mtrap.c ****     U54_spare_4_local_IRQHandler,
 571:../src/platform/mpfs_hal/common/mss_mtrap.c ****     U54_spare_5_local_IRQHandler,
 572:../src/platform/mpfs_hal/common/mss_mtrap.c ****     U54_spare_6_local_IRQHandler,
 573:../src/platform/mpfs_hal/common/mss_mtrap.c **** 
 574:../src/platform/mpfs_hal/common/mss_mtrap.c ****     U54_f2m_0_local_IRQHandler,
 575:../src/platform/mpfs_hal/common/mss_mtrap.c ****     U54_f2m_1_local_IRQHandler,
 576:../src/platform/mpfs_hal/common/mss_mtrap.c ****     U54_f2m_2_local_IRQHandler,
 577:../src/platform/mpfs_hal/common/mss_mtrap.c ****     U54_f2m_3_local_IRQHandler,
 578:../src/platform/mpfs_hal/common/mss_mtrap.c ****     U54_f2m_4_local_IRQHandler,
 579:../src/platform/mpfs_hal/common/mss_mtrap.c ****     U54_f2m_5_local_IRQHandler,
 580:../src/platform/mpfs_hal/common/mss_mtrap.c ****     U54_f2m_6_local_IRQHandler,
 581:../src/platform/mpfs_hal/common/mss_mtrap.c ****     U54_f2m_7_local_IRQHandler,
 582:../src/platform/mpfs_hal/common/mss_mtrap.c ****     U54_f2m_8_local_IRQHandler,
 583:../src/platform/mpfs_hal/common/mss_mtrap.c ****     U54_f2m_9_local_IRQHandler,
 584:../src/platform/mpfs_hal/common/mss_mtrap.c **** 
 585:../src/platform/mpfs_hal/common/mss_mtrap.c ****     U54_f2m_10_local_IRQHandler,
 586:../src/platform/mpfs_hal/common/mss_mtrap.c ****     U54_f2m_11_local_IRQHandler,
 587:../src/platform/mpfs_hal/common/mss_mtrap.c ****     U54_f2m_12_local_IRQHandler,
 588:../src/platform/mpfs_hal/common/mss_mtrap.c ****     U54_f2m_13_local_IRQHandler,
 589:../src/platform/mpfs_hal/common/mss_mtrap.c ****     U54_f2m_14_local_IRQHandler,
 590:../src/platform/mpfs_hal/common/mss_mtrap.c ****     U54_f2m_15_local_IRQHandler,
 591:../src/platform/mpfs_hal/common/mss_mtrap.c ****     U54_f2m_16_local_IRQHandler,
 592:../src/platform/mpfs_hal/common/mss_mtrap.c ****     U54_f2m_17_local_IRQHandler,
 593:../src/platform/mpfs_hal/common/mss_mtrap.c ****     U54_f2m_18_local_IRQHandler,
 594:../src/platform/mpfs_hal/common/mss_mtrap.c ****     U54_f2m_19_local_IRQHandler,
 595:../src/platform/mpfs_hal/common/mss_mtrap.c **** 
 596:../src/platform/mpfs_hal/common/mss_mtrap.c ****     U54_f2m_20_local_IRQHandler,
 597:../src/platform/mpfs_hal/common/mss_mtrap.c ****     U54_f2m_21_local_IRQHandler,
 598:../src/platform/mpfs_hal/common/mss_mtrap.c ****     U54_f2m_22_local_IRQHandler,
 599:../src/platform/mpfs_hal/common/mss_mtrap.c ****     U54_f2m_23_local_IRQHandler,
 600:../src/platform/mpfs_hal/common/mss_mtrap.c ****     U54_f2m_24_local_IRQHandler,
 601:../src/platform/mpfs_hal/common/mss_mtrap.c ****     U54_f2m_25_local_IRQHandler,
 602:../src/platform/mpfs_hal/common/mss_mtrap.c ****     U54_f2m_26_local_IRQHandler,
 603:../src/platform/mpfs_hal/common/mss_mtrap.c ****     U54_f2m_27_local_IRQHandler,
 604:../src/platform/mpfs_hal/common/mss_mtrap.c ****     U54_f2m_28_local_IRQHandler,
 605:../src/platform/mpfs_hal/common/mss_mtrap.c ****     U54_f2m_29_local_IRQHandler,
 606:../src/platform/mpfs_hal/common/mss_mtrap.c **** 
 607:../src/platform/mpfs_hal/common/mss_mtrap.c ****     U54_f2m_30_local_IRQHandler,
 608:../src/platform/mpfs_hal/common/mss_mtrap.c ****     U54_f2m_31_local_IRQHandler
 609:../src/platform/mpfs_hal/common/mss_mtrap.c **** };
 610:../src/platform/mpfs_hal/common/mss_mtrap.c **** 
 611:../src/platform/mpfs_hal/common/mss_mtrap.c **** local_int_p_t *local_int_mux[5] =
 612:../src/platform/mpfs_hal/common/mss_mtrap.c **** {
 613:../src/platform/mpfs_hal/common/mss_mtrap.c ****     E51_local_irq_handler_table,
 614:../src/platform/mpfs_hal/common/mss_mtrap.c ****     local_irq_handler_1_table,
 615:../src/platform/mpfs_hal/common/mss_mtrap.c ****     local_irq_handler_2_table,
 616:../src/platform/mpfs_hal/common/mss_mtrap.c ****     local_irq_handler_3_table,
 617:../src/platform/mpfs_hal/common/mss_mtrap.c ****     local_irq_handler_4_table
 618:../src/platform/mpfs_hal/common/mss_mtrap.c **** };
 619:../src/platform/mpfs_hal/common/mss_mtrap.c **** 
 620:../src/platform/mpfs_hal/common/mss_mtrap.c **** /*------------------------------------------------------------------------------
 621:../src/platform/mpfs_hal/common/mss_mtrap.c ****  *
 622:../src/platform/mpfs_hal/common/mss_mtrap.c ****  */
 623:../src/platform/mpfs_hal/common/mss_mtrap.c **** void handle_m_ext_interrupt(void)
 624:../src/platform/mpfs_hal/common/mss_mtrap.c **** {
 1040              		.loc 2 624 1
 1041              		.cfi_startproc
 1042 0000 0111     		addi	sp,sp,-32
 1043              		.cfi_def_cfa_offset 32
 1044 0002 06EC     		sd	ra,24(sp)
 1045 0004 22E8     		sd	s0,16(sp)
 1046              		.cfi_offset 1, -8
 1047              		.cfi_offset 8, -16
 1048 0006 0010     		addi	s0,sp,32
 1049              		.cfi_def_cfa 8, 0
 625:../src/platform/mpfs_hal/common/mss_mtrap.c **** 
 626:../src/platform/mpfs_hal/common/mss_mtrap.c ****     volatile uint32_t int_num  = PLIC_ClaimIRQ();
 1050              		.loc 2 626 34
 1051 0008 97000000 		call	PLIC_ClaimIRQ
 1051      E7800000 
 1052 0010 AA87     		mv	a5,a0
 1053 0012 8127     		sext.w	a5,a5
 1054              		.loc 2 626 23
 1055 0014 2324F4FE 		sw	a5,-24(s0)
 627:../src/platform/mpfs_hal/common/mss_mtrap.c **** 
 628:../src/platform/mpfs_hal/common/mss_mtrap.c ****     if (PLIC_INVALID_INT_OFFSET == int_num)
 1056              		.loc 2 628 33
 1057 0018 832784FE 		lw	a5,-24(s0)
 1058 001c 8127     		sext.w	a5,a5
 1059              		.loc 2 628 8
 1060 001e B9CB     		beq	a5,zero,.L28
 629:../src/platform/mpfs_hal/common/mss_mtrap.c ****     {
 630:../src/platform/mpfs_hal/common/mss_mtrap.c ****        return;
 631:../src/platform/mpfs_hal/common/mss_mtrap.c ****     }
 632:../src/platform/mpfs_hal/common/mss_mtrap.c **** 
 633:../src/platform/mpfs_hal/common/mss_mtrap.c ****     uint8_t disable = EXT_IRQ_KEEP_ENABLED;
 1061              		.loc 2 633 13
 1062 0020 A30704FE 		sb	zero,-17(s0)
 634:../src/platform/mpfs_hal/common/mss_mtrap.c ****     disable = ext_irq_handler_table[int_num /* + OFFSET_TO_MSS_GLOBAL_INTS Think this was required 
 1063              		.loc 2 634 36
 1064 0024 832784FE 		lw	a5,-24(s0)
 1065 0028 8127     		sext.w	a5,a5
 1066 002a 17070000 		lla	a4,ext_irq_handler_table
 1066      13070700 
 1067 0032 8217     		slli	a5,a5,32
 1068 0034 8193     		srli	a5,a5,32
 1069 0036 8E07     		slli	a5,a5,3
 1070 0038 BA97     		add	a5,a4,a5
 1071 003a 9C63     		ld	a5,0(a5)
 1072              		.loc 2 634 15
 1073 003c 8297     		jalr	a5
 1074              	.LVL0:
 1075 003e AA87     		mv	a5,a0
 1076 0040 A307F4FE 		sb	a5,-17(s0)
 635:../src/platform/mpfs_hal/common/mss_mtrap.c **** 
 636:../src/platform/mpfs_hal/common/mss_mtrap.c ****     PLIC_CompleteIRQ(int_num);
 1077              		.loc 2 636 5
 1078 0044 832784FE 		lw	a5,-24(s0)
 1079 0048 8127     		sext.w	a5,a5
 1080 004a 3E85     		mv	a0,a5
 1081 004c 97000000 		call	PLIC_CompleteIRQ
 1081      E7800000 
 637:../src/platform/mpfs_hal/common/mss_mtrap.c **** 
 638:../src/platform/mpfs_hal/common/mss_mtrap.c ****     if(EXT_IRQ_DISABLE == disable)
 1082              		.loc 2 638 7
 1083 0054 8347F4FE 		lbu	a5,-17(s0)
 1084 0058 13F7F70F 		andi	a4,a5,0xff
 1085 005c 8547     		li	a5,1
 1086 005e 631CF700 		bne	a4,a5,.L25
 639:../src/platform/mpfs_hal/common/mss_mtrap.c ****     {
 640:../src/platform/mpfs_hal/common/mss_mtrap.c ****         PLIC_DisableIRQ((PLIC_IRQn_Type)int_num);
 1087              		.loc 2 640 9
 1088 0062 832784FE 		lw	a5,-24(s0)
 1089 0066 8127     		sext.w	a5,a5
 1090 0068 3E85     		mv	a0,a5
 1091 006a 97000000 		call	PLIC_DisableIRQ
 1091      E7800000 
 1092 0072 11A0     		j	.L25
 1093              	.L28:
 630:../src/platform/mpfs_hal/common/mss_mtrap.c ****     }
 1094              		.loc 2 630 8
 1095 0074 0100     		nop
 1096              	.L25:
 641:../src/platform/mpfs_hal/common/mss_mtrap.c ****     }
 642:../src/platform/mpfs_hal/common/mss_mtrap.c **** 
 643:../src/platform/mpfs_hal/common/mss_mtrap.c **** }
 1097              		.loc 2 643 1
 1098 0076 E260     		ld	ra,24(sp)
 1099              		.cfi_restore 1
 1100 0078 4264     		ld	s0,16(sp)
 1101              		.cfi_restore 8
 1102              		.cfi_def_cfa 2, 32
 1103 007a 0561     		addi	sp,sp,32
 1104              		.cfi_def_cfa_offset 0
 1105 007c 8280     		jr	ra
 1106              		.cfi_endproc
 1107              	.LFE24:
 1109              		.section	.text.handle_local_interrupt,"ax",@progbits
 1110              		.align	1
 1111              		.globl	handle_local_interrupt
 1113              	handle_local_interrupt:
 1114              	.LFB25:
 644:../src/platform/mpfs_hal/common/mss_mtrap.c **** 
 645:../src/platform/mpfs_hal/common/mss_mtrap.c **** 
 646:../src/platform/mpfs_hal/common/mss_mtrap.c **** /*------------------------------------------------------------------------------
 647:../src/platform/mpfs_hal/common/mss_mtrap.c ****  *
 648:../src/platform/mpfs_hal/common/mss_mtrap.c ****  */
 649:../src/platform/mpfs_hal/common/mss_mtrap.c **** void handle_local_interrupt(uint8_t interrupt_no)
 650:../src/platform/mpfs_hal/common/mss_mtrap.c **** {
 1115              		.loc 2 650 1
 1116              		.cfi_startproc
 1117 0000 3971     		addi	sp,sp,-64
 1118              		.cfi_def_cfa_offset 64
 1119 0002 06FC     		sd	ra,56(sp)
 1120 0004 22F8     		sd	s0,48(sp)
 1121              		.cfi_offset 1, -8
 1122              		.cfi_offset 8, -16
 1123 0006 8000     		addi	s0,sp,64
 1124              		.cfi_def_cfa 8, 0
 1125 0008 AA87     		mv	a5,a0
 1126 000a A307F4FC 		sb	a5,-49(s0)
 1127              	.LBB5:
 651:../src/platform/mpfs_hal/common/mss_mtrap.c ****     uint64_t mhart_id = read_csr(mhartid);
 1128              		.loc 2 651 25
 1129              	 #APP
 1130              	# 651 "../src/platform/mpfs_hal/common/mss_mtrap.c" 1
 652              	    uint8_t local_interrupt_no = (uint8_t)(interrupt_no - 16U);
 1131              		csrr a5, mhartid
 1132              	# 0 "" 2
 1133              	 #NO_APP
 1134 0012 2334F4FE 		sd	a5,-24(s0)
 1135 0016 833784FE 		ld	a5,-24(s0)
 1136              	.LBE5:
 651:../src/platform/mpfs_hal/common/mss_mtrap.c ****     uint64_t mhart_id = read_csr(mhartid);
 1137              		.loc 2 651 14
 1138 001a 2330F4FE 		sd	a5,-32(s0)
 1139              		.loc 2 652 13
 1140 001e 8347F4FC 		lbu	a5,-49(s0)
 1141 0022 C137     		addiw	a5,a5,-16
 1142 0024 A30FF4FC 		sb	a5,-33(s0)
 653:../src/platform/mpfs_hal/common/mss_mtrap.c ****     local_int_p_t *local_int_table = local_int_mux[mhart_id];
 1143              		.loc 2 653 20
 1144 0028 17070000 		lla	a4,local_int_mux
 1144      13070700 
 1145 0030 833704FE 		ld	a5,-32(s0)
 1146 0034 8E07     		slli	a5,a5,3
 1147 0036 BA97     		add	a5,a4,a5
 1148 0038 9C63     		ld	a5,0(a5)
 1149 003a 2338F4FC 		sd	a5,-48(s0)
 654:../src/platform/mpfs_hal/common/mss_mtrap.c **** 
 655:../src/platform/mpfs_hal/common/mss_mtrap.c ****     (*local_int_table[local_interrupt_no])();
 1150              		.loc 2 655 22
 1151 003e 8347F4FD 		lbu	a5,-33(s0)
 1152 0042 8E07     		slli	a5,a5,3
 1153 0044 033704FD 		ld	a4,-48(s0)
 1154 0048 BA97     		add	a5,a4,a5
 1155              		.loc 2 655 6
 1156 004a 9C63     		ld	a5,0(a5)
 1157 004c 8297     		jalr	a5
 1158              	.LVL1:
 656:../src/platform/mpfs_hal/common/mss_mtrap.c **** }
 1159              		.loc 2 656 1
 1160 004e 0100     		nop
 1161 0050 E270     		ld	ra,56(sp)
 1162              		.cfi_restore 1
 1163 0052 4274     		ld	s0,48(sp)
 1164              		.cfi_restore 8
 1165              		.cfi_def_cfa 2, 64
 1166 0054 2161     		addi	sp,sp,64
 1167              		.cfi_def_cfa_offset 0
 1168 0056 8280     		jr	ra
 1169              		.cfi_endproc
 1170              	.LFE25:
 1172              		.section	.text.trap_from_machine_mode,"ax",@progbits
 1173              		.align	1
 1174              		.globl	trap_from_machine_mode
 1176              	trap_from_machine_mode:
 1177              	.LFB26:
 657:../src/platform/mpfs_hal/common/mss_mtrap.c **** 
 658:../src/platform/mpfs_hal/common/mss_mtrap.c **** /*------------------------------------------------------------------------------
 659:../src/platform/mpfs_hal/common/mss_mtrap.c ****  *
 660:../src/platform/mpfs_hal/common/mss_mtrap.c ****  */
 661:../src/platform/mpfs_hal/common/mss_mtrap.c **** void trap_from_machine_mode(uintptr_t * regs, uintptr_t dummy, uintptr_t mepc)
 662:../src/platform/mpfs_hal/common/mss_mtrap.c **** {
 1178              		.loc 2 662 1
 1179              		.cfi_startproc
 1180 0000 5D71     		addi	sp,sp,-80
 1181              		.cfi_def_cfa_offset 80
 1182 0002 86E4     		sd	ra,72(sp)
 1183 0004 A2E0     		sd	s0,64(sp)
 1184              		.cfi_offset 1, -8
 1185              		.cfi_offset 8, -16
 1186 0006 8008     		addi	s0,sp,80
 1187              		.cfi_def_cfa 8, 0
 1188 0008 2334A4FC 		sd	a0,-56(s0)
 1189 000c 2330B4FC 		sd	a1,-64(s0)
 1190 0010 233CC4FA 		sd	a2,-72(s0)
 1191              	.LBB6:
 663:../src/platform/mpfs_hal/common/mss_mtrap.c ****     volatile uintptr_t mcause = read_csr(mcause);
 1192              		.loc 2 663 33
 1193              	 #APP
 1194              	# 663 "../src/platform/mpfs_hal/common/mss_mtrap.c" 1
 664              	
 1195              		csrr a5, mcause
 1196              	# 0 "" 2
 1197              	 #NO_APP
 1198 0018 2330F4FE 		sd	a5,-32(s0)
 1199 001c 833704FE 		ld	a5,-32(s0)
 1200              	.LBE6:
 663:../src/platform/mpfs_hal/common/mss_mtrap.c ****     volatile uintptr_t mcause = read_csr(mcause);
 1201              		.loc 2 663 24
 1202 0020 233CF4FC 		sd	a5,-40(s0)
 665:../src/platform/mpfs_hal/common/mss_mtrap.c ****     if (((mcause & MCAUSE_INT) == MCAUSE_INT) && ((mcause & MCAUSE_CAUSE)  > 15U)&& ((mcause & MCAU
 1203              		.loc 2 665 18
 1204 0024 033784FD 		ld	a4,-40(s0)
 1205 0028 FD57     		li	a5,-1
 1206 002a FE17     		slli	a5,a5,63
 1207 002c 7D8F     		and	a4,a4,a5
 1208              		.loc 2 665 8
 1209 002e FD57     		li	a5,-1
 1210 0030 FE17     		slli	a5,a5,63
 1211 0032 6319F702 		bne	a4,a5,.L31
 1212              		.loc 2 665 76 discriminator 1
 1213 0036 033784FD 		ld	a4,-40(s0)
 1214 003a 8557     		li	a5,-31
 1215 003c 8583     		srli	a5,a5,1
 1216 003e F98F     		and	a5,a4,a5
 1217              		.loc 2 665 47 discriminator 1
 1218 0040 95C3     		beq	a5,zero,.L31
 1219              		.loc 2 665 111 discriminator 2
 1220 0042 033784FD 		ld	a4,-40(s0)
 1221 0046 930710F8 		li	a5,-127
 1222 004a 8583     		srli	a5,a5,1
 1223 004c F98F     		and	a5,a4,a5
 1224              		.loc 2 665 82 discriminator 2
 1225 004e 99EB     		bne	a5,zero,.L31
 666:../src/platform/mpfs_hal/common/mss_mtrap.c ****     {
 667:../src/platform/mpfs_hal/common/mss_mtrap.c ****         handle_local_interrupt((uint8_t)(mcause & MCAUSE_CAUSE));
 1226              		.loc 2 667 9
 1227 0050 833784FD 		ld	a5,-40(s0)
 1228 0054 93F7F70F 		andi	a5,a5,0xff
 1229 0058 3E85     		mv	a0,a5
 1230 005a 97000000 		call	handle_local_interrupt
 1230      E7800000 
 1231 0062 75A0     		j	.L32
 1232              	.L31:
 668:../src/platform/mpfs_hal/common/mss_mtrap.c ****     }
 669:../src/platform/mpfs_hal/common/mss_mtrap.c ****     else if (((mcause & MCAUSE_INT) == MCAUSE_INT) && ((mcause & MCAUSE_CAUSE)  == IRQ_M_EXT))
 1233              		.loc 2 669 23
 1234 0064 033784FD 		ld	a4,-40(s0)
 1235 0068 FD57     		li	a5,-1
 1236 006a FE17     		slli	a5,a5,63
 1237 006c 7D8F     		and	a4,a4,a5
 1238              		.loc 2 669 13
 1239 006e FD57     		li	a5,-1
 1240 0070 FE17     		slli	a5,a5,63
 1241 0072 631FF700 		bne	a4,a5,.L33
 1242              		.loc 2 669 64 discriminator 1
 1243 0076 033784FD 		ld	a4,-40(s0)
 1244 007a FD57     		li	a5,-1
 1245 007c 8583     		srli	a5,a5,1
 1246 007e 7D8F     		and	a4,a4,a5
 1247              		.loc 2 669 52 discriminator 1
 1248 0080 AD47     		li	a5,11
 1249 0082 6317F700 		bne	a4,a5,.L33
 670:../src/platform/mpfs_hal/common/mss_mtrap.c ****     {
 671:../src/platform/mpfs_hal/common/mss_mtrap.c ****         handle_m_ext_interrupt();
 1250              		.loc 2 671 9
 1251 0086 97000000 		call	handle_m_ext_interrupt
 1251      E7800000 
 1252 008e 41A0     		j	.L32
 1253              	.L33:
 672:../src/platform/mpfs_hal/common/mss_mtrap.c ****     }
 673:../src/platform/mpfs_hal/common/mss_mtrap.c ****     else if (((mcause & MCAUSE_INT) == MCAUSE_INT) && ((mcause & MCAUSE_CAUSE)  == IRQ_M_SOFT))
 1254              		.loc 2 673 23
 1255 0090 033784FD 		ld	a4,-40(s0)
 1256 0094 FD57     		li	a5,-1
 1257 0096 FE17     		slli	a5,a5,63
 1258 0098 7D8F     		and	a4,a4,a5
 1259              		.loc 2 673 13
 1260 009a FD57     		li	a5,-1
 1261 009c FE17     		slli	a5,a5,63
 1262 009e 631FF700 		bne	a4,a5,.L34
 1263              		.loc 2 673 64 discriminator 1
 1264 00a2 033784FD 		ld	a4,-40(s0)
 1265 00a6 FD57     		li	a5,-1
 1266 00a8 8583     		srli	a5,a5,1
 1267 00aa 7D8F     		and	a4,a4,a5
 1268              		.loc 2 673 52 discriminator 1
 1269 00ac 8D47     		li	a5,3
 1270 00ae 6317F700 		bne	a4,a5,.L34
 674:../src/platform/mpfs_hal/common/mss_mtrap.c ****     {
 675:../src/platform/mpfs_hal/common/mss_mtrap.c ****         handle_m_soft_interrupt();
 1271              		.loc 2 675 9
 1272 00b2 97000000 		call	handle_m_soft_interrupt
 1272      E7800000 
 1273 00ba 91A8     		j	.L32
 1274              	.L34:
 676:../src/platform/mpfs_hal/common/mss_mtrap.c ****     }
 677:../src/platform/mpfs_hal/common/mss_mtrap.c ****     else if (((mcause & MCAUSE_INT) == MCAUSE_INT) && ((mcause & MCAUSE_CAUSE)  == IRQ_M_TIMER))
 1275              		.loc 2 677 23
 1276 00bc 033784FD 		ld	a4,-40(s0)
 1277 00c0 FD57     		li	a5,-1
 1278 00c2 FE17     		slli	a5,a5,63
 1279 00c4 7D8F     		and	a4,a4,a5
 1280              		.loc 2 677 13
 1281 00c6 FD57     		li	a5,-1
 1282 00c8 FE17     		slli	a5,a5,63
 1283 00ca 631FF700 		bne	a4,a5,.L35
 1284              		.loc 2 677 64 discriminator 1
 1285 00ce 033784FD 		ld	a4,-40(s0)
 1286 00d2 FD57     		li	a5,-1
 1287 00d4 8583     		srli	a5,a5,1
 1288 00d6 7D8F     		and	a4,a4,a5
 1289              		.loc 2 677 52 discriminator 1
 1290 00d8 9D47     		li	a5,7
 1291 00da 6317F700 		bne	a4,a5,.L35
 678:../src/platform/mpfs_hal/common/mss_mtrap.c ****     {
 679:../src/platform/mpfs_hal/common/mss_mtrap.c ****         handle_m_timer_interrupt();
 1292              		.loc 2 679 9
 1293 00de 97000000 		call	handle_m_timer_interrupt
 1293      E7800000 
 1294 00e6 25A0     		j	.L32
 1295              	.L35:
 1296              	.LBB7:
 680:../src/platform/mpfs_hal/common/mss_mtrap.c ****     }
 681:../src/platform/mpfs_hal/common/mss_mtrap.c ****     else
 682:../src/platform/mpfs_hal/common/mss_mtrap.c ****     {
 683:../src/platform/mpfs_hal/common/mss_mtrap.c ****         uint32_t i = 0U;
 1297              		.loc 2 683 18
 1298 00e8 232604FE 		sw	zero,-20(s0)
 1299              	.L37:
 684:../src/platform/mpfs_hal/common/mss_mtrap.c ****         while(1)
 685:../src/platform/mpfs_hal/common/mss_mtrap.c ****         {
 686:../src/platform/mpfs_hal/common/mss_mtrap.c ****             /* wait for watchdog */
 687:../src/platform/mpfs_hal/common/mss_mtrap.c ****             i++;        /* added some code as SC debugger hangs if in loop doing nothing */
 1300              		.loc 2 687 14
 1301 00ec 8327C4FE 		lw	a5,-20(s0)
 1302 00f0 8527     		addiw	a5,a5,1
 1303 00f2 2326F4FE 		sw	a5,-20(s0)
 688:../src/platform/mpfs_hal/common/mss_mtrap.c ****             if(i == 0x1000U)
 1304              		.loc 2 688 15
 1305 00f6 8327C4FE 		lw	a5,-20(s0)
 1306 00fa 1B870700 		sext.w	a4,a5
 1307 00fe 8567     		li	a5,4096
 1308 0100 E316F7FE 		bne	a4,a5,.L37
 689:../src/platform/mpfs_hal/common/mss_mtrap.c ****             {
 690:../src/platform/mpfs_hal/common/mss_mtrap.c ****                 i = (uint32_t)mcause; /* so mcause is not optimised out */
 1309              		.loc 2 690 21
 1310 0104 833784FD 		ld	a5,-40(s0)
 1311              		.loc 2 690 19
 1312 0108 2326F4FE 		sw	a5,-20(s0)
 687:../src/platform/mpfs_hal/common/mss_mtrap.c ****             if(i == 0x1000U)
 1313              		.loc 2 687 14
 1314 010c C5B7     		j	.L37
 1315              	.L32:
 1316              	.LBE7:
 691:../src/platform/mpfs_hal/common/mss_mtrap.c ****             }
 692:../src/platform/mpfs_hal/common/mss_mtrap.c ****         }
 693:../src/platform/mpfs_hal/common/mss_mtrap.c ****         switch(mcause)
 694:../src/platform/mpfs_hal/common/mss_mtrap.c ****         {
 695:../src/platform/mpfs_hal/common/mss_mtrap.c **** 
 696:../src/platform/mpfs_hal/common/mss_mtrap.c ****             case CAUSE_LOAD_PAGE_FAULT:
 697:../src/platform/mpfs_hal/common/mss_mtrap.c ****                 break;
 698:../src/platform/mpfs_hal/common/mss_mtrap.c ****             case CAUSE_STORE_PAGE_FAULT:
 699:../src/platform/mpfs_hal/common/mss_mtrap.c ****                 break;
 700:../src/platform/mpfs_hal/common/mss_mtrap.c ****             case CAUSE_FETCH_ACCESS:
 701:../src/platform/mpfs_hal/common/mss_mtrap.c ****                 break;
 702:../src/platform/mpfs_hal/common/mss_mtrap.c ****             case CAUSE_LOAD_ACCESS:
 703:../src/platform/mpfs_hal/common/mss_mtrap.c ****                 break;
 704:../src/platform/mpfs_hal/common/mss_mtrap.c ****             case CAUSE_STORE_ACCESS:
 705:../src/platform/mpfs_hal/common/mss_mtrap.c ****                 break;
 706:../src/platform/mpfs_hal/common/mss_mtrap.c ****             default:
 707:../src/platform/mpfs_hal/common/mss_mtrap.c ****                 bad_trap(regs, dummy, mepc);
 708:../src/platform/mpfs_hal/common/mss_mtrap.c ****                 break;
 709:../src/platform/mpfs_hal/common/mss_mtrap.c ****         }
 710:../src/platform/mpfs_hal/common/mss_mtrap.c ****     }
 711:../src/platform/mpfs_hal/common/mss_mtrap.c **** }
 1317              		.loc 2 711 1
 1318 010e 0100     		nop
 1319 0110 A660     		ld	ra,72(sp)
 1320              		.cfi_restore 1
 1321 0112 0664     		ld	s0,64(sp)
 1322              		.cfi_restore 8
 1323              		.cfi_def_cfa 2, 80
 1324 0114 6161     		addi	sp,sp,80
 1325              		.cfi_def_cfa_offset 0
 1326 0116 8280     		jr	ra
 1327              		.cfi_endproc
 1328              	.LFE26:
 1330              		.text
 1331              	.Letext0:
 1332              		.file 3 "/home/vinay/Desktop/soft_console/SoftConsole-v2022.2-RISC-V-747/riscv-unknown-elf-gcc/ris
 1333              		.file 4 "/home/vinay/Desktop/soft_console/SoftConsole-v2022.2-RISC-V-747/riscv-unknown-elf-gcc/ris
 1334              		.file 5 "/home/vinay/Desktop/softconsole_watershed/Water-shed/src/platform/mpfs_hal/common/nwc/mss
 1335              		.file 6 "/home/vinay/Desktop/softconsole_watershed/Water-shed/src/platform/mpfs_hal/common/nwc/mss
 1336              		.file 7 "/home/vinay/Desktop/softconsole_watershed/Water-shed/src/platform/mpfs_hal/common/nwc/mss
 1337              		.file 8 "/home/vinay/Desktop/softconsole_watershed/Water-shed/src/platform/mpfs_hal/common/mss_mpu
 1338              		.file 9 "/home/vinay/Desktop/softconsole_watershed/Water-shed/src/platform/mpfs_hal/startup_gcc/sy
DEFINED SYMBOLS
                            *ABS*:0000000000000000 mss_mtrap.c
     /tmp/ccut0Zoi.s:12     .text.PLIC_DisableIRQ:0000000000000000 PLIC_DisableIRQ
     /tmp/ccut0Zoi.s:16     .text.PLIC_DisableIRQ:0000000000000000 .L0 
     /tmp/ccut0Zoi.s:17     .text.PLIC_DisableIRQ:0000000000000000 .L0 
     /tmp/ccut0Zoi.s:18     .text.PLIC_DisableIRQ:0000000000000002 .L0 
     /tmp/ccut0Zoi.s:20     .text.PLIC_DisableIRQ:0000000000000004 .L0 
     /tmp/ccut0Zoi.s:22     .text.PLIC_DisableIRQ:0000000000000006 .L0 
/home/vinay/Desktop/softconsole_watershed/Water-shed/src/platform/mpfs_hal/common/mss_plic.h:694    .text.PLIC_DisableIRQ:000000000000000c .L0 
     /tmp/ccut0Zoi.s:36     .text.PLIC_DisableIRQ:0000000000000018 .L0 
     /tmp/ccut0Zoi.s:38     .text.PLIC_DisableIRQ:000000000000001c .L0 
     /tmp/ccut0Zoi.s:62     .text.PLIC_DisableIRQ:000000000000004a .L0 
     /tmp/ccut0Zoi.s:64     .text.PLIC_DisableIRQ:000000000000004e .L0 
     /tmp/ccut0Zoi.s:68     .text.PLIC_DisableIRQ:0000000000000058 .L0 
     /tmp/ccut0Zoi.s:78     .text.PLIC_DisableIRQ:0000000000000070 .L0 
     /tmp/ccut0Zoi.s:82     .text.PLIC_DisableIRQ:0000000000000078 .L0 
     /tmp/ccut0Zoi.s:87     .text.PLIC_DisableIRQ:0000000000000082 .L0 
     /tmp/ccut0Zoi.s:90     .text.PLIC_DisableIRQ:000000000000008a .L0 
     /tmp/ccut0Zoi.s:94     .text.PLIC_DisableIRQ:0000000000000094 .L0 
     /tmp/ccut0Zoi.s:96     .text.PLIC_DisableIRQ:0000000000000098 .L0 
     /tmp/ccut0Zoi.s:100    .text.PLIC_DisableIRQ:00000000000000a2 .L0 
     /tmp/ccut0Zoi.s:110    .text.PLIC_DisableIRQ:00000000000000ba .L0 
     /tmp/ccut0Zoi.s:113    .text.PLIC_DisableIRQ:00000000000000bc .L0 
     /tmp/ccut0Zoi.s:115    .text.PLIC_DisableIRQ:00000000000000c0 .L0 
     /tmp/ccut0Zoi.s:119    .text.PLIC_DisableIRQ:00000000000000ca .L0 
     /tmp/ccut0Zoi.s:129    .text.PLIC_DisableIRQ:00000000000000e2 .L0 
     /tmp/ccut0Zoi.s:133    .text.PLIC_DisableIRQ:00000000000000ea .L0 
     /tmp/ccut0Zoi.s:138    .text.PLIC_DisableIRQ:00000000000000f4 .L0 
     /tmp/ccut0Zoi.s:141    .text.PLIC_DisableIRQ:00000000000000fc .L0 
     /tmp/ccut0Zoi.s:145    .text.PLIC_DisableIRQ:0000000000000106 .L0 
     /tmp/ccut0Zoi.s:147    .text.PLIC_DisableIRQ:000000000000010a .L0 
     /tmp/ccut0Zoi.s:151    .text.PLIC_DisableIRQ:0000000000000114 .L0 
     /tmp/ccut0Zoi.s:161    .text.PLIC_DisableIRQ:000000000000012c .L0 
     /tmp/ccut0Zoi.s:164    .text.PLIC_DisableIRQ:000000000000012e .L0 
     /tmp/ccut0Zoi.s:166    .text.PLIC_DisableIRQ:0000000000000132 .L0 
     /tmp/ccut0Zoi.s:170    .text.PLIC_DisableIRQ:000000000000013c .L0 
     /tmp/ccut0Zoi.s:180    .text.PLIC_DisableIRQ:0000000000000154 .L0 
     /tmp/ccut0Zoi.s:184    .text.PLIC_DisableIRQ:000000000000015c .L0 
     /tmp/ccut0Zoi.s:189    .text.PLIC_DisableIRQ:0000000000000166 .L0 
     /tmp/ccut0Zoi.s:192    .text.PLIC_DisableIRQ:000000000000016e .L0 
     /tmp/ccut0Zoi.s:196    .text.PLIC_DisableIRQ:0000000000000178 .L0 
     /tmp/ccut0Zoi.s:198    .text.PLIC_DisableIRQ:000000000000017c .L0 
     /tmp/ccut0Zoi.s:202    .text.PLIC_DisableIRQ:0000000000000186 .L0 
     /tmp/ccut0Zoi.s:212    .text.PLIC_DisableIRQ:000000000000019e .L0 
     /tmp/ccut0Zoi.s:215    .text.PLIC_DisableIRQ:00000000000001a0 .L0 
     /tmp/ccut0Zoi.s:217    .text.PLIC_DisableIRQ:00000000000001a4 .L0 
     /tmp/ccut0Zoi.s:221    .text.PLIC_DisableIRQ:00000000000001ae .L0 
     /tmp/ccut0Zoi.s:231    .text.PLIC_DisableIRQ:00000000000001c6 .L0 
     /tmp/ccut0Zoi.s:235    .text.PLIC_DisableIRQ:00000000000001ce .L0 
     /tmp/ccut0Zoi.s:240    .text.PLIC_DisableIRQ:00000000000001d8 .L0 
     /tmp/ccut0Zoi.s:243    .text.PLIC_DisableIRQ:00000000000001e0 .L0 
     /tmp/ccut0Zoi.s:247    .text.PLIC_DisableIRQ:00000000000001ea .L0 
     /tmp/ccut0Zoi.s:249    .text.PLIC_DisableIRQ:00000000000001ee .L0 
     /tmp/ccut0Zoi.s:253    .text.PLIC_DisableIRQ:00000000000001f8 .L0 
     /tmp/ccut0Zoi.s:263    .text.PLIC_DisableIRQ:0000000000000210 .L0 
     /tmp/ccut0Zoi.s:266    .text.PLIC_DisableIRQ:0000000000000212 .L0 
     /tmp/ccut0Zoi.s:268    .text.PLIC_DisableIRQ:0000000000000216 .L0 
     /tmp/ccut0Zoi.s:272    .text.PLIC_DisableIRQ:0000000000000220 .L0 
     /tmp/ccut0Zoi.s:282    .text.PLIC_DisableIRQ:0000000000000238 .L0 
     /tmp/ccut0Zoi.s:286    .text.PLIC_DisableIRQ:0000000000000240 .L0 
     /tmp/ccut0Zoi.s:291    .text.PLIC_DisableIRQ:000000000000024a .L0 
     /tmp/ccut0Zoi.s:294    .text.PLIC_DisableIRQ:0000000000000252 .L0 
     /tmp/ccut0Zoi.s:298    .text.PLIC_DisableIRQ:000000000000025c .L0 
     /tmp/ccut0Zoi.s:300    .text.PLIC_DisableIRQ:0000000000000260 .L0 
     /tmp/ccut0Zoi.s:304    .text.PLIC_DisableIRQ:000000000000026a .L0 
     /tmp/ccut0Zoi.s:314    .text.PLIC_DisableIRQ:0000000000000282 .L0 
     /tmp/ccut0Zoi.s:317    .text.PLIC_DisableIRQ:0000000000000284 .L0 
     /tmp/ccut0Zoi.s:320    .text.PLIC_DisableIRQ:0000000000000286 .L0 
     /tmp/ccut0Zoi.s:322    .text.PLIC_DisableIRQ:000000000000028a .L0 
     /tmp/ccut0Zoi.s:323    .text.PLIC_DisableIRQ:000000000000028a .L0 
     /tmp/ccut0Zoi.s:325    .text.PLIC_DisableIRQ:000000000000028c .L0 
     /tmp/ccut0Zoi.s:327    .text.PLIC_DisableIRQ:000000000000028e .L0 
     /tmp/ccut0Zoi.s:333    .text.PLIC_ClaimIRQ:0000000000000000 PLIC_ClaimIRQ
     /tmp/ccut0Zoi.s:336    .text.PLIC_ClaimIRQ:0000000000000000 .L0 
     /tmp/ccut0Zoi.s:337    .text.PLIC_ClaimIRQ:0000000000000000 .L0 
     /tmp/ccut0Zoi.s:338    .text.PLIC_ClaimIRQ:0000000000000002 .L0 
     /tmp/ccut0Zoi.s:340    .text.PLIC_ClaimIRQ:0000000000000004 .L0 
     /tmp/ccut0Zoi.s:342    .text.PLIC_ClaimIRQ:0000000000000006 .L0 
/home/vinay/Desktop/softconsole_watershed/Water-shed/src/platform/mpfs_hal/common/mss_plic.h:767    .text.PLIC_ClaimIRQ:0000000000000006 .L0 
     /tmp/ccut0Zoi.s:354    .text.PLIC_ClaimIRQ:0000000000000012 .L0 
     /tmp/ccut0Zoi.s:356    .text.PLIC_ClaimIRQ:0000000000000016 .L0 
     /tmp/ccut0Zoi.s:358    .text.PLIC_ClaimIRQ:000000000000001a .L0 
     /tmp/ccut0Zoi.s:364    .text.PLIC_ClaimIRQ:000000000000002c .L0 
     /tmp/ccut0Zoi.s:370    .text.PLIC_ClaimIRQ:0000000000000038 .L0 
     /tmp/ccut0Zoi.s:372    .text.PLIC_ClaimIRQ:000000000000003c .L0 
     /tmp/ccut0Zoi.s:373    .text.PLIC_ClaimIRQ:000000000000003c .L0 
     /tmp/ccut0Zoi.s:375    .text.PLIC_ClaimIRQ:000000000000003e .L0 
     /tmp/ccut0Zoi.s:377    .text.PLIC_ClaimIRQ:0000000000000040 .L0 
     /tmp/ccut0Zoi.s:383    .text.PLIC_CompleteIRQ:0000000000000000 PLIC_CompleteIRQ
     /tmp/ccut0Zoi.s:386    .text.PLIC_CompleteIRQ:0000000000000000 .L0 
     /tmp/ccut0Zoi.s:387    .text.PLIC_CompleteIRQ:0000000000000000 .L0 
     /tmp/ccut0Zoi.s:388    .text.PLIC_CompleteIRQ:0000000000000002 .L0 
     /tmp/ccut0Zoi.s:390    .text.PLIC_CompleteIRQ:0000000000000004 .L0 
     /tmp/ccut0Zoi.s:392    .text.PLIC_CompleteIRQ:0000000000000006 .L0 
/home/vinay/Desktop/softconsole_watershed/Water-shed/src/platform/mpfs_hal/common/mss_plic.h:778    .text.PLIC_CompleteIRQ:000000000000000c .L0 
     /tmp/ccut0Zoi.s:406    .text.PLIC_CompleteIRQ:0000000000000018 .L0 
     /tmp/ccut0Zoi.s:408    .text.PLIC_CompleteIRQ:000000000000001c .L0 
/home/vinay/Desktop/softconsole_watershed/Water-shed/src/platform/mpfs_hal/common/mss_plic.h:780    .text.PLIC_CompleteIRQ:000000000000002c .L0 
     /tmp/ccut0Zoi.s:420    .text.PLIC_CompleteIRQ:000000000000002e .L0 
     /tmp/ccut0Zoi.s:422    .text.PLIC_CompleteIRQ:0000000000000032 .L0 
     /tmp/ccut0Zoi.s:428    .text.PLIC_CompleteIRQ:0000000000000044 .L0 
     /tmp/ccut0Zoi.s:434    .text.PLIC_CompleteIRQ:0000000000000052 .L0 
     /tmp/ccut0Zoi.s:436    .text.PLIC_CompleteIRQ:0000000000000056 .L0 
     /tmp/ccut0Zoi.s:437    .text.PLIC_CompleteIRQ:0000000000000056 .L0 
     /tmp/ccut0Zoi.s:439    .text.PLIC_CompleteIRQ:0000000000000058 .L0 
     /tmp/ccut0Zoi.s:441    .text.PLIC_CompleteIRQ:000000000000005a .L0 
     /tmp/ccut0Zoi.s:448    .text.bad_trap:0000000000000000 bad_trap
     /tmp/ccut0Zoi.s:452    .text.bad_trap:0000000000000000 .L0 
     /tmp/ccut0Zoi.s:453    .text.bad_trap:0000000000000000 .L0 
     /tmp/ccut0Zoi.s:454    .text.bad_trap:0000000000000002 .L0 
     /tmp/ccut0Zoi.s:456    .text.bad_trap:0000000000000004 .L0 
     /tmp/ccut0Zoi.s:458    .text.bad_trap:0000000000000006 .L0 
     /tmp/ccut0Zoi.s:464    .text.bad_trap:0000000000000012 .L0 
     /tmp/ccut0Zoi.s:465    .text.bad_trap:0000000000000014 .L0 
     /tmp/ccut0Zoi.s:472    .text.misaligned_store_trap:0000000000000000 misaligned_store_trap
     /tmp/ccut0Zoi.s:475    .text.misaligned_store_trap:0000000000000000 .L0 
     /tmp/ccut0Zoi.s:476    .text.misaligned_store_trap:0000000000000000 .L0 
     /tmp/ccut0Zoi.s:477    .text.misaligned_store_trap:0000000000000002 .L0 
     /tmp/ccut0Zoi.s:479    .text.misaligned_store_trap:0000000000000004 .L0 
     /tmp/ccut0Zoi.s:481    .text.misaligned_store_trap:0000000000000006 .L0 
     /tmp/ccut0Zoi.s:487    .text.misaligned_store_trap:0000000000000012 .L0 
     /tmp/ccut0Zoi.s:488    .text.misaligned_store_trap:0000000000000014 .L0 
     /tmp/ccut0Zoi.s:495    .text.misaligned_load_trap:0000000000000000 misaligned_load_trap
     /tmp/ccut0Zoi.s:498    .text.misaligned_load_trap:0000000000000000 .L0 
     /tmp/ccut0Zoi.s:499    .text.misaligned_load_trap:0000000000000000 .L0 
     /tmp/ccut0Zoi.s:500    .text.misaligned_load_trap:0000000000000002 .L0 
     /tmp/ccut0Zoi.s:502    .text.misaligned_load_trap:0000000000000004 .L0 
     /tmp/ccut0Zoi.s:504    .text.misaligned_load_trap:0000000000000006 .L0 
     /tmp/ccut0Zoi.s:510    .text.misaligned_load_trap:0000000000000012 .L0 
     /tmp/ccut0Zoi.s:511    .text.misaligned_load_trap:0000000000000014 .L0 
     /tmp/ccut0Zoi.s:518    .text.illegal_insn_trap:0000000000000000 illegal_insn_trap
     /tmp/ccut0Zoi.s:521    .text.illegal_insn_trap:0000000000000000 .L0 
     /tmp/ccut0Zoi.s:522    .text.illegal_insn_trap:0000000000000000 .L0 
     /tmp/ccut0Zoi.s:523    .text.illegal_insn_trap:0000000000000002 .L0 
     /tmp/ccut0Zoi.s:525    .text.illegal_insn_trap:0000000000000004 .L0 
     /tmp/ccut0Zoi.s:527    .text.illegal_insn_trap:0000000000000006 .L0 
     /tmp/ccut0Zoi.s:533    .text.illegal_insn_trap:0000000000000012 .L0 
     /tmp/ccut0Zoi.s:534    .text.illegal_insn_trap:0000000000000014 .L0 
     /tmp/ccut0Zoi.s:541    .text.pmp_trap:0000000000000000 pmp_trap
     /tmp/ccut0Zoi.s:544    .text.pmp_trap:0000000000000000 .L0 
     /tmp/ccut0Zoi.s:545    .text.pmp_trap:0000000000000000 .L0 
     /tmp/ccut0Zoi.s:546    .text.pmp_trap:0000000000000002 .L0 
     /tmp/ccut0Zoi.s:548    .text.pmp_trap:0000000000000004 .L0 
     /tmp/ccut0Zoi.s:550    .text.pmp_trap:0000000000000006 .L0 
     /tmp/ccut0Zoi.s:556    .text.pmp_trap:0000000000000012 .L0 
     /tmp/ccut0Zoi.s:557    .text.pmp_trap:0000000000000014 .L0 
     /tmp/ccut0Zoi.s:565    .data.ext_irq_handler_table:0000000000000000 ext_irq_handler_table
     /tmp/ccut0Zoi.s:758    .data.E51_local_irq_handler_table:0000000000000000 E51_local_irq_handler_table
     /tmp/ccut0Zoi.s:812    .data.local_irq_handler_1_table:0000000000000000 local_irq_handler_1_table
     /tmp/ccut0Zoi.s:866    .data.local_irq_handler_2_table:0000000000000000 local_irq_handler_2_table
     /tmp/ccut0Zoi.s:920    .data.local_irq_handler_3_table:0000000000000000 local_irq_handler_3_table
     /tmp/ccut0Zoi.s:974    .data.local_irq_handler_4_table:0000000000000000 local_irq_handler_4_table
     /tmp/ccut0Zoi.s:1028   .data.local_int_mux:0000000000000000 local_int_mux
     /tmp/ccut0Zoi.s:1038   .text.handle_m_ext_interrupt:0000000000000000 handle_m_ext_interrupt
     /tmp/ccut0Zoi.s:1041   .text.handle_m_ext_interrupt:0000000000000000 .L0 
     /tmp/ccut0Zoi.s:1042   .text.handle_m_ext_interrupt:0000000000000000 .L0 
     /tmp/ccut0Zoi.s:1043   .text.handle_m_ext_interrupt:0000000000000002 .L0 
     /tmp/ccut0Zoi.s:1046   .text.handle_m_ext_interrupt:0000000000000006 .L0 
     /tmp/ccut0Zoi.s:1047   .text.handle_m_ext_interrupt:0000000000000006 .L0 
     /tmp/ccut0Zoi.s:1049   .text.handle_m_ext_interrupt:0000000000000008 .L0 
     /tmp/ccut0Zoi.s:1051   .text.handle_m_ext_interrupt:0000000000000008 .L0 
     /tmp/ccut0Zoi.s:1055   .text.handle_m_ext_interrupt:0000000000000014 .L0 
     /tmp/ccut0Zoi.s:1057   .text.handle_m_ext_interrupt:0000000000000018 .L0 
     /tmp/ccut0Zoi.s:1060   .text.handle_m_ext_interrupt:000000000000001e .L0 
     /tmp/ccut0Zoi.s:1062   .text.handle_m_ext_interrupt:0000000000000020 .L0 
     /tmp/ccut0Zoi.s:1064   .text.handle_m_ext_interrupt:0000000000000024 .L0 
     /tmp/ccut0Zoi.s:1073   .text.handle_m_ext_interrupt:000000000000003c .L0 
     /tmp/ccut0Zoi.s:1078   .text.handle_m_ext_interrupt:0000000000000044 .L0 
     /tmp/ccut0Zoi.s:1083   .text.handle_m_ext_interrupt:0000000000000054 .L0 
     /tmp/ccut0Zoi.s:1088   .text.handle_m_ext_interrupt:0000000000000062 .L0 
     /tmp/ccut0Zoi.s:1095   .text.handle_m_ext_interrupt:0000000000000074 .L0 
     /tmp/ccut0Zoi.s:1098   .text.handle_m_ext_interrupt:0000000000000076 .L0 
     /tmp/ccut0Zoi.s:1099   .text.handle_m_ext_interrupt:0000000000000078 .L0 
     /tmp/ccut0Zoi.s:1101   .text.handle_m_ext_interrupt:000000000000007a .L0 
     /tmp/ccut0Zoi.s:1102   .text.handle_m_ext_interrupt:000000000000007a .L0 
     /tmp/ccut0Zoi.s:1104   .text.handle_m_ext_interrupt:000000000000007c .L0 
     /tmp/ccut0Zoi.s:1106   .text.handle_m_ext_interrupt:000000000000007e .L0 
     /tmp/ccut0Zoi.s:1113   .text.handle_local_interrupt:0000000000000000 handle_local_interrupt
     /tmp/ccut0Zoi.s:1116   .text.handle_local_interrupt:0000000000000000 .L0 
     /tmp/ccut0Zoi.s:1117   .text.handle_local_interrupt:0000000000000000 .L0 
     /tmp/ccut0Zoi.s:1118   .text.handle_local_interrupt:0000000000000002 .L0 
     /tmp/ccut0Zoi.s:1121   .text.handle_local_interrupt:0000000000000006 .L0 
     /tmp/ccut0Zoi.s:1122   .text.handle_local_interrupt:0000000000000006 .L0 
     /tmp/ccut0Zoi.s:1124   .text.handle_local_interrupt:0000000000000008 .L0 
../src/platform/mpfs_hal/common/mss_mtrap.c:651    .text.handle_local_interrupt:000000000000000e .L0 
     /tmp/ccut0Zoi.s:1138   .text.handle_local_interrupt:000000000000001a .L0 
     /tmp/ccut0Zoi.s:1140   .text.handle_local_interrupt:000000000000001e .L0 
     /tmp/ccut0Zoi.s:1144   .text.handle_local_interrupt:0000000000000028 .L0 
     /tmp/ccut0Zoi.s:1151   .text.handle_local_interrupt:000000000000003e .L0 
     /tmp/ccut0Zoi.s:1156   .text.handle_local_interrupt:000000000000004a .L0 
     /tmp/ccut0Zoi.s:1160   .text.handle_local_interrupt:000000000000004e .L0 
     /tmp/ccut0Zoi.s:1162   .text.handle_local_interrupt:0000000000000052 .L0 
     /tmp/ccut0Zoi.s:1164   .text.handle_local_interrupt:0000000000000054 .L0 
     /tmp/ccut0Zoi.s:1165   .text.handle_local_interrupt:0000000000000054 .L0 
     /tmp/ccut0Zoi.s:1167   .text.handle_local_interrupt:0000000000000056 .L0 
     /tmp/ccut0Zoi.s:1169   .text.handle_local_interrupt:0000000000000058 .L0 
     /tmp/ccut0Zoi.s:1176   .text.trap_from_machine_mode:0000000000000000 trap_from_machine_mode
     /tmp/ccut0Zoi.s:1179   .text.trap_from_machine_mode:0000000000000000 .L0 
     /tmp/ccut0Zoi.s:1180   .text.trap_from_machine_mode:0000000000000000 .L0 
     /tmp/ccut0Zoi.s:1181   .text.trap_from_machine_mode:0000000000000002 .L0 
     /tmp/ccut0Zoi.s:1184   .text.trap_from_machine_mode:0000000000000006 .L0 
     /tmp/ccut0Zoi.s:1185   .text.trap_from_machine_mode:0000000000000006 .L0 
     /tmp/ccut0Zoi.s:1187   .text.trap_from_machine_mode:0000000000000008 .L0 
../src/platform/mpfs_hal/common/mss_mtrap.c:663    .text.trap_from_machine_mode:0000000000000014 .L0 
     /tmp/ccut0Zoi.s:1202   .text.trap_from_machine_mode:0000000000000020 .L0 
     /tmp/ccut0Zoi.s:1204   .text.trap_from_machine_mode:0000000000000024 .L0 
     /tmp/ccut0Zoi.s:1209   .text.trap_from_machine_mode:000000000000002e .L0 
     /tmp/ccut0Zoi.s:1213   .text.trap_from_machine_mode:0000000000000036 .L0 
     /tmp/ccut0Zoi.s:1218   .text.trap_from_machine_mode:0000000000000040 .L0 
     /tmp/ccut0Zoi.s:1220   .text.trap_from_machine_mode:0000000000000042 .L0 
     /tmp/ccut0Zoi.s:1225   .text.trap_from_machine_mode:000000000000004e .L0 
     /tmp/ccut0Zoi.s:1227   .text.trap_from_machine_mode:0000000000000050 .L0 
     /tmp/ccut0Zoi.s:1234   .text.trap_from_machine_mode:0000000000000064 .L0 
     /tmp/ccut0Zoi.s:1239   .text.trap_from_machine_mode:000000000000006e .L0 
     /tmp/ccut0Zoi.s:1243   .text.trap_from_machine_mode:0000000000000076 .L0 
     /tmp/ccut0Zoi.s:1248   .text.trap_from_machine_mode:0000000000000080 .L0 
     /tmp/ccut0Zoi.s:1251   .text.trap_from_machine_mode:0000000000000086 .L0 
     /tmp/ccut0Zoi.s:1255   .text.trap_from_machine_mode:0000000000000090 .L0 
     /tmp/ccut0Zoi.s:1260   .text.trap_from_machine_mode:000000000000009a .L0 
     /tmp/ccut0Zoi.s:1264   .text.trap_from_machine_mode:00000000000000a2 .L0 
     /tmp/ccut0Zoi.s:1269   .text.trap_from_machine_mode:00000000000000ac .L0 
     /tmp/ccut0Zoi.s:1272   .text.trap_from_machine_mode:00000000000000b2 .L0 
     /tmp/ccut0Zoi.s:1276   .text.trap_from_machine_mode:00000000000000bc .L0 
     /tmp/ccut0Zoi.s:1281   .text.trap_from_machine_mode:00000000000000c6 .L0 
     /tmp/ccut0Zoi.s:1285   .text.trap_from_machine_mode:00000000000000ce .L0 
     /tmp/ccut0Zoi.s:1290   .text.trap_from_machine_mode:00000000000000d8 .L0 
     /tmp/ccut0Zoi.s:1293   .text.trap_from_machine_mode:00000000000000de .L0 
     /tmp/ccut0Zoi.s:1298   .text.trap_from_machine_mode:00000000000000e8 .L0 
     /tmp/ccut0Zoi.s:1301   .text.trap_from_machine_mode:00000000000000ec .L0 
     /tmp/ccut0Zoi.s:1305   .text.trap_from_machine_mode:00000000000000f6 .L0 
     /tmp/ccut0Zoi.s:1310   .text.trap_from_machine_mode:0000000000000104 .L0 
     /tmp/ccut0Zoi.s:1312   .text.trap_from_machine_mode:0000000000000108 .L0 
     /tmp/ccut0Zoi.s:1314   .text.trap_from_machine_mode:000000000000010c .L0 
     /tmp/ccut0Zoi.s:1318   .text.trap_from_machine_mode:000000000000010e .L0 
     /tmp/ccut0Zoi.s:1320   .text.trap_from_machine_mode:0000000000000112 .L0 
     /tmp/ccut0Zoi.s:1322   .text.trap_from_machine_mode:0000000000000114 .L0 
     /tmp/ccut0Zoi.s:1323   .text.trap_from_machine_mode:0000000000000114 .L0 
     /tmp/ccut0Zoi.s:1325   .text.trap_from_machine_mode:0000000000000116 .L0 
     /tmp/ccut0Zoi.s:1327   .text.trap_from_machine_mode:0000000000000118 .L0 
     /tmp/ccut0Zoi.s:330    .text.PLIC_DisableIRQ:000000000000028e .L0 
     /tmp/ccut0Zoi.s:380    .text.PLIC_ClaimIRQ:0000000000000040 .L0 
     /tmp/ccut0Zoi.s:444    .text.PLIC_CompleteIRQ:000000000000005a .L0 
     /tmp/ccut0Zoi.s:468    .text.bad_trap:0000000000000014 .L0 
     /tmp/ccut0Zoi.s:491    .text.misaligned_store_trap:0000000000000014 .L0 
     /tmp/ccut0Zoi.s:514    .text.misaligned_load_trap:0000000000000014 .L0 
     /tmp/ccut0Zoi.s:537    .text.illegal_insn_trap:0000000000000014 .L0 
     /tmp/ccut0Zoi.s:561    .text.pmp_trap:0000000000000014 .L0 
     /tmp/ccut0Zoi.s:1109   .text.handle_m_ext_interrupt:000000000000007e .L0 
     /tmp/ccut0Zoi.s:1172   .text.handle_local_interrupt:0000000000000058 .L0 
     /tmp/ccut0Zoi.s:1330   .text.trap_from_machine_mode:0000000000000118 .L0 
                     .debug_frame:0000000000000000 .L0 
     /tmp/ccut0Zoi.s:53     .rodata.PLIC_DisableIRQ:0000000000000000 .L4
     /tmp/ccut0Zoi.s:43     .text.PLIC_DisableIRQ:000000000000002e .L0 
     /tmp/ccut0Zoi.s:47     .text.PLIC_DisableIRQ:000000000000003e .L0 
     /tmp/ccut0Zoi.s:315    .text.PLIC_DisableIRQ:0000000000000284 .L10
     /tmp/ccut0Zoi.s:318    .text.PLIC_DisableIRQ:0000000000000286 .L9
     /tmp/ccut0Zoi.s:60     .text.PLIC_DisableIRQ:000000000000004a .L8
     /tmp/ccut0Zoi.s:111    .text.PLIC_DisableIRQ:00000000000000bc .L7
     /tmp/ccut0Zoi.s:162    .text.PLIC_DisableIRQ:000000000000012e .L6
     /tmp/ccut0Zoi.s:213    .text.PLIC_DisableIRQ:00000000000001a0 .L5
     /tmp/ccut0Zoi.s:264    .text.PLIC_DisableIRQ:0000000000000212 .L3
     /tmp/ccut0Zoi.s:358    .text.PLIC_ClaimIRQ:000000000000001a .L0 
     /tmp/ccut0Zoi.s:422    .text.PLIC_CompleteIRQ:0000000000000032 .L0 
     /tmp/ccut0Zoi.s:418    .text.PLIC_CompleteIRQ:000000000000002e .L14
     /tmp/ccut0Zoi.s:462    .text.bad_trap:0000000000000012 .L16
     /tmp/ccut0Zoi.s:485    .text.misaligned_store_trap:0000000000000012 .L18
     /tmp/ccut0Zoi.s:508    .text.misaligned_load_trap:0000000000000012 .L20
     /tmp/ccut0Zoi.s:531    .text.illegal_insn_trap:0000000000000012 .L22
     /tmp/ccut0Zoi.s:554    .text.pmp_trap:0000000000000012 .L24
     /tmp/ccut0Zoi.s:1066   .text.handle_m_ext_interrupt:000000000000002a .L0 
     /tmp/ccut0Zoi.s:1093   .text.handle_m_ext_interrupt:0000000000000074 .L28
     /tmp/ccut0Zoi.s:1096   .text.handle_m_ext_interrupt:0000000000000076 .L25
     /tmp/ccut0Zoi.s:1144   .text.handle_local_interrupt:0000000000000028 .L0 
     /tmp/ccut0Zoi.s:1232   .text.trap_from_machine_mode:0000000000000064 .L31
     /tmp/ccut0Zoi.s:1315   .text.trap_from_machine_mode:000000000000010e .L32
     /tmp/ccut0Zoi.s:1253   .text.trap_from_machine_mode:0000000000000090 .L33
     /tmp/ccut0Zoi.s:1274   .text.trap_from_machine_mode:00000000000000bc .L34
     /tmp/ccut0Zoi.s:1295   .text.trap_from_machine_mode:00000000000000e8 .L35
     /tmp/ccut0Zoi.s:1299   .text.trap_from_machine_mode:00000000000000ec .L37
     /tmp/ccut0Zoi.s:68841  .debug_abbrev:0000000000000000 .Ldebug_abbrev0
     /tmp/ccut0Zoi.s:96098  .debug_str:000000000002371d .LASF9356
     /tmp/ccut0Zoi.s:92388  .debug_str:0000000000013e2a .LASF9357
     /tmp/ccut0Zoi.s:106146  .debug_str:000000000004c914 .LASF9358
     /tmp/ccut0Zoi.s:69659  .debug_ranges:0000000000000000 .Ldebug_ranges0
     /tmp/ccut0Zoi.s:87552  .debug_line:0000000000000000 .Ldebug_line0
     /tmp/ccut0Zoi.s:69685  .debug_macro:0000000000000000 .Ldebug_macro0
     /tmp/ccut0Zoi.s:104650  .debug_str:0000000000046106 .LASF5629
     /tmp/ccut0Zoi.s:93456  .debug_str:00000000000182b2 .LASF5630
     /tmp/ccut0Zoi.s:106098  .debug_str:000000000004c52e .LASF5631
     /tmp/ccut0Zoi.s:99284  .debug_str:000000000003044a .LASF5632
     /tmp/ccut0Zoi.s:104218  .debug_str:00000000000444e3 .LASF5633
     /tmp/ccut0Zoi.s:88632  .debug_str:0000000000004b16 .LASF5637
     /tmp/ccut0Zoi.s:92192  .debug_str:0000000000013218 .LASF5634
     /tmp/ccut0Zoi.s:102470  .debug_str:000000000003d100 .LASF5635
     /tmp/ccut0Zoi.s:98618  .debug_str:000000000002d859 .LASF5636
     /tmp/ccut0Zoi.s:95838  .debug_str:00000000000226b5 .LASF5638
     /tmp/ccut0Zoi.s:88288  .debug_str:0000000000003381 .LASF5639
     /tmp/ccut0Zoi.s:88838  .debug_str:0000000000005960 .LASF5640
     /tmp/ccut0Zoi.s:95548  .debug_str:0000000000021322 .LASF5641
     /tmp/ccut0Zoi.s:91590  .debug_str:0000000000010a05 .LASF5642
     /tmp/ccut0Zoi.s:103964  .debug_str:0000000000043450 .LASF5643
     /tmp/ccut0Zoi.s:100466  .debug_str:0000000000035398 .LASF5644
     /tmp/ccut0Zoi.s:101212  .debug_str:0000000000037c57 .LASF5645
     /tmp/ccut0Zoi.s:93384  .debug_str:0000000000017e74 .LASF5646
     /tmp/ccut0Zoi.s:104910  .debug_str:00000000000472a9 .LASF5647
     /tmp/ccut0Zoi.s:92022  .debug_str:0000000000012690 .LASF5648
     /tmp/ccut0Zoi.s:91380  .debug_str:000000000000fc73 .LASF5649
     /tmp/ccut0Zoi.s:97688  .debug_str:0000000000029ade .LASF5650
     /tmp/ccut0Zoi.s:94990  .debug_str:000000000001edbd .LASF5651
     /tmp/ccut0Zoi.s:95568  .debug_str:0000000000021449 .LASF5652
     /tmp/ccut0Zoi.s:89568  .debug_str:00000000000089ec .LASF5653
     /tmp/ccut0Zoi.s:88386  .debug_str:00000000000039df .LASF5654
     /tmp/ccut0Zoi.s:99178  .debug_str:000000000002fdad .LASF5655
     /tmp/ccut0Zoi.s:97958  .debug_str:000000000002acb4 .LASF5656
     /tmp/ccut0Zoi.s:88422  .debug_str:0000000000003c12 .LASF5657
     /tmp/ccut0Zoi.s:105572  .debug_str:000000000004a045 .LASF5658
     /tmp/ccut0Zoi.s:102308  .debug_str:000000000003c71e .LASF5659
     /tmp/ccut0Zoi.s:98630  .debug_str:000000000002d925 .LASF5660
     /tmp/ccut0Zoi.s:87658  .debug_str:0000000000000761 .LASF5661
     /tmp/ccut0Zoi.s:99374  .debug_str:0000000000030b00 .LASF5662
     /tmp/ccut0Zoi.s:103870  .debug_str:0000000000042e83 .LASF5663
     /tmp/ccut0Zoi.s:93346  .debug_str:0000000000017c84 .LASF5664
     /tmp/ccut0Zoi.s:99422  .debug_str:0000000000030e38 .LASF5665
     /tmp/ccut0Zoi.s:99366  .debug_str:0000000000030ab9 .LASF5666
     /tmp/ccut0Zoi.s:95368  .debug_str:00000000000207d5 .LASF5667
     /tmp/ccut0Zoi.s:99180  .debug_str:000000000002fdc4 .LASF5668
     /tmp/ccut0Zoi.s:99844  .debug_str:0000000000032946 .LASF5669
     /tmp/ccut0Zoi.s:100062  .debug_str:0000000000033892 .LASF5670
     /tmp/ccut0Zoi.s:99390  .debug_str:0000000000030c10 .LASF5671
     /tmp/ccut0Zoi.s:105424  .debug_str:00000000000495ca .LASF5672
     /tmp/ccut0Zoi.s:101482  .debug_str:0000000000038e24 .LASF5673
     /tmp/ccut0Zoi.s:92822  .debug_str:0000000000015984 .LASF5674
     /tmp/ccut0Zoi.s:95344  .debug_str:0000000000020670 .LASF5675
     /tmp/ccut0Zoi.s:88566  .debug_str:0000000000004644 .LASF5676
     /tmp/ccut0Zoi.s:98354  .debug_str:000000000002c5fc .LASF5677
     /tmp/ccut0Zoi.s:100106  .debug_str:0000000000033b54 .LASF5678
     /tmp/ccut0Zoi.s:97980  .debug_str:000000000002aeaa .LASF5679
     /tmp/ccut0Zoi.s:98644  .debug_str:000000000002da87 .LASF5680
     /tmp/ccut0Zoi.s:99316  .debug_str:000000000003068d .LASF5681
     /tmp/ccut0Zoi.s:98376  .debug_str:000000000002c789 .LASF5682
     /tmp/ccut0Zoi.s:104366  .debug_str:0000000000044e65 .LASF5683
     /tmp/ccut0Zoi.s:89348  .debug_str:0000000000007ac1 .LASF5684
     /tmp/ccut0Zoi.s:91736  .debug_str:000000000001133c .LASF5685
     /tmp/ccut0Zoi.s:94244  .debug_str:000000000001ba22 .LASF5686
     /tmp/ccut0Zoi.s:87694  .debug_str:00000000000009c7 .LASF5687
     /tmp/ccut0Zoi.s:101540  .debug_str:00000000000392ac .LASF5688
     /tmp/ccut0Zoi.s:102860  .debug_str:000000000003eb05 .LASF5689
     /tmp/ccut0Zoi.s:104638  .debug_str:0000000000046028 .LASF5690
     /tmp/ccut0Zoi.s:97344  .debug_str:0000000000028533 .LASF5691
     /tmp/ccut0Zoi.s:99408  .debug_str:0000000000030d63 .LASF5692
     /tmp/ccut0Zoi.s:87796  .debug_str:00000000000010d2 .LASF5693
     /tmp/ccut0Zoi.s:89878  .debug_str:0000000000009e6f .LASF5694
     /tmp/ccut0Zoi.s:92624  .debug_str:0000000000014cb0 .LASF5695
     /tmp/ccut0Zoi.s:87882  .debug_str:000000000000164b .LASF5696
     /tmp/ccut0Zoi.s:100810  .debug_str:0000000000036813 .LASF5697
     /tmp/ccut0Zoi.s:98666  .debug_str:000000000002dc0d .LASF5698
     /tmp/ccut0Zoi.s:92094  .debug_str:0000000000012c61 .LASF5699
     /tmp/ccut0Zoi.s:104932  .debug_str:0000000000047416 .LASF5700
     /tmp/ccut0Zoi.s:91120  .debug_str:000000000000ee04 .LASF5701
     /tmp/ccut0Zoi.s:95718  .debug_str:0000000000021e4a .LASF5702
     /tmp/ccut0Zoi.s:93194  .debug_str:0000000000017282 .LASF5703
     /tmp/ccut0Zoi.s:92356  .debug_str:0000000000013c53 .LASF5704
     /tmp/ccut0Zoi.s:94440  .debug_str:000000000001c6ff .LASF5705
     /tmp/ccut0Zoi.s:98378  .debug_str:000000000002c7b0 .LASF5706
     /tmp/ccut0Zoi.s:105796  .debug_str:000000000004b138 .LASF5707
     /tmp/ccut0Zoi.s:103672  .debug_str:0000000000042277 .LASF5708
     /tmp/ccut0Zoi.s:91694  .debug_str:0000000000011043 .LASF5709
     /tmp/ccut0Zoi.s:102586  .debug_str:000000000003d87b .LASF5710
     /tmp/ccut0Zoi.s:93010  .debug_str:0000000000016588 .LASF5711
     /tmp/ccut0Zoi.s:88656  .debug_str:0000000000004c69 .LASF5712
     /tmp/ccut0Zoi.s:87732  .debug_str:0000000000000c23 .LASF5713
     /tmp/ccut0Zoi.s:94052  .debug_str:000000000001ac05 .LASF5714
     /tmp/ccut0Zoi.s:104392  .debug_str:0000000000045028 .LASF5715
     /tmp/ccut0Zoi.s:105892  .debug_str:000000000004b80a .LASF5716
     /tmp/ccut0Zoi.s:100854  .debug_str:00000000000369c7 .LASF5717
     /tmp/ccut0Zoi.s:90534  .debug_str:000000000000cc42 .LASF5718
     /tmp/ccut0Zoi.s:90716  .debug_str:000000000000d719 .LASF5719
     /tmp/ccut0Zoi.s:105684  .debug_str:000000000004a7c6 .LASF5720
     /tmp/ccut0Zoi.s:103386  .debug_str:0000000000040fa9 .LASF5721
     /tmp/ccut0Zoi.s:105104  .debug_str:0000000000047f07 .LASF5722
     /tmp/ccut0Zoi.s:88266  .debug_str:0000000000003234 .LASF5723
     /tmp/ccut0Zoi.s:106092  .debug_str:000000000004c4ef .LASF5724
     /tmp/ccut0Zoi.s:92930  .debug_str:00000000000160d7 .LASF5725
     /tmp/ccut0Zoi.s:101788  .debug_str:000000000003a3b5 .LASF5726
     /tmp/ccut0Zoi.s:89540  .debug_str:00000000000087eb .LASF5727
     /tmp/ccut0Zoi.s:88786  .debug_str:00000000000055cb .LASF5728
     /tmp/ccut0Zoi.s:88636  .debug_str:0000000000004b2e .LASF5729
     /tmp/ccut0Zoi.s:100630  .debug_str:0000000000035d4d .LASF5730
     /tmp/ccut0Zoi.s:101068  .debug_str:0000000000037502 .LASF5731
     /tmp/ccut0Zoi.s:88530  .debug_str:00000000000043d4 .LASF5732
     /tmp/ccut0Zoi.s:97048  .debug_str:0000000000027189 .LASF5733
     /tmp/ccut0Zoi.s:105244  .debug_str:000000000004898e .LASF5734
     /tmp/ccut0Zoi.s:97590  .debug_str:00000000000294c8 .LASF5735
     /tmp/ccut0Zoi.s:92782  .debug_str:00000000000156f4 .LASF5736
     /tmp/ccut0Zoi.s:91018  .debug_str:000000000000e81b .LASF5737
     /tmp/ccut0Zoi.s:88820  .debug_str:000000000000587a .LASF5738
     /tmp/ccut0Zoi.s:102900  .debug_str:000000000003ee77 .LASF5739
     /tmp/ccut0Zoi.s:101792  .debug_str:000000000003a416 .LASF5740
     /tmp/ccut0Zoi.s:91474  .debug_str:00000000000101ec .LASF5741
     /tmp/ccut0Zoi.s:90770  .debug_str:000000000000dac1 .LASF5742
     /tmp/ccut0Zoi.s:95288  .debug_str:0000000000020252 .LASF5743
     /tmp/ccut0Zoi.s:88044  .debug_str:0000000000002214 .LASF5744
     /tmp/ccut0Zoi.s:103306  .debug_str:000000000004097e .LASF5745
     /tmp/ccut0Zoi.s:93308  .debug_str:00000000000179f2 .LASF5746
     /tmp/ccut0Zoi.s:99512  .debug_str:0000000000031471 .LASF5747
     /tmp/ccut0Zoi.s:89724  .debug_str:00000000000094b3 .LASF5748
     /tmp/ccut0Zoi.s:97458  .debug_str:0000000000028ce2 .LASF5749
     /tmp/ccut0Zoi.s:91500  .debug_str:00000000000103c7 .LASF5750
     /tmp/ccut0Zoi.s:101876  .debug_str:000000000003a9bd .LASF5751
     /tmp/ccut0Zoi.s:105706  .debug_str:000000000004a9fd .LASF5752
     /tmp/ccut0Zoi.s:102804  .debug_str:000000000003e73b .LASF5753
     /tmp/ccut0Zoi.s:99828  .debug_str:000000000003286f .LASF5754
     /tmp/ccut0Zoi.s:96180  .debug_str:0000000000023c77 .LASF5755
     /tmp/ccut0Zoi.s:99830  .debug_str:000000000003287b .LASF5756
     /tmp/ccut0Zoi.s:88304  .debug_str:0000000000003427 .LASF5757
     /tmp/ccut0Zoi.s:97716  .debug_str:0000000000029d82 .LASF5758
     /tmp/ccut0Zoi.s:94770  .debug_str:000000000001dded .LASF5759
     /tmp/ccut0Zoi.s:94878  .debug_str:000000000001e5d7 .LASF5760
     /tmp/ccut0Zoi.s:99084  .debug_str:000000000002f7a3 .LASF5761
     /tmp/ccut0Zoi.s:89668  .debug_str:0000000000009072 .LASF5762
     /tmp/ccut0Zoi.s:94672  .debug_str:000000000001d797 .LASF5763
     /tmp/ccut0Zoi.s:89844  .debug_str:0000000000009c97 .LASF5764
     /tmp/ccut0Zoi.s:94532  .debug_str:000000000001cd88 .LASF5765
     /tmp/ccut0Zoi.s:89638  .debug_str:0000000000008ec7 .LASF5766
     /tmp/ccut0Zoi.s:97592  .debug_str:00000000000294e4 .LASF5767
     /tmp/ccut0Zoi.s:94380  .debug_str:000000000001c2d1 .LASF5768
     /tmp/ccut0Zoi.s:104592  .debug_str:0000000000045d43 .LASF5769
     /tmp/ccut0Zoi.s:89058  .debug_str:00000000000067e2 .LASF5770
     /tmp/ccut0Zoi.s:100390  .debug_str:0000000000034e7f .LASF5771
     /tmp/ccut0Zoi.s:105308  .debug_str:0000000000048e01 .LASF5772
     /tmp/ccut0Zoi.s:105600  .debug_str:000000000004a1dd .LASF5773
     /tmp/ccut0Zoi.s:88508  .debug_str:00000000000042c6 .LASF5774
     /tmp/ccut0Zoi.s:105616  .debug_str:000000000004a2a2 .LASF5775
     /tmp/ccut0Zoi.s:90260  .debug_str:000000000000b9c3 .LASF5776
     /tmp/ccut0Zoi.s:95812  .debug_str:00000000000224e1 .LASF5777
     /tmp/ccut0Zoi.s:90760  .debug_str:000000000000da2c .LASF5778
     /tmp/ccut0Zoi.s:95924  .debug_str:0000000000022c00 .LASF5779
     /tmp/ccut0Zoi.s:98196  .debug_str:000000000002bb79 .LASF5780
     /tmp/ccut0Zoi.s:105930  .debug_str:000000000004ba85 .LASF5781
     /tmp/ccut0Zoi.s:95866  .debug_str:0000000000022860 .LASF5782
     /tmp/ccut0Zoi.s:98226  .debug_str:000000000002bd2f .LASF5783
     /tmp/ccut0Zoi.s:93486  .debug_str:00000000000184f2 .LASF5784
     /tmp/ccut0Zoi.s:93488  .debug_str:0000000000018501 .LASF5785
     /tmp/ccut0Zoi.s:93668  .debug_str:0000000000019170 .LASF5786
     /tmp/ccut0Zoi.s:92798  .debug_str:00000000000157be .LASF5787
     /tmp/ccut0Zoi.s:99718  .debug_str:00000000000321aa .LASF5788
     /tmp/ccut0Zoi.s:94742  .debug_str:000000000001dc74 .LASF5789
     /tmp/ccut0Zoi.s:91090  .debug_str:000000000000ec02 .LASF5790
     /tmp/ccut0Zoi.s:91092  .debug_str:000000000000ec11 .LASF5791
     /tmp/ccut0Zoi.s:93136  .debug_str:0000000000016ee9 .LASF5792
     /tmp/ccut0Zoi.s:96252  .debug_str:0000000000023ffb .LASF5793
     /tmp/ccut0Zoi.s:103110  .debug_str:000000000003fcab .LASF5794
     /tmp/ccut0Zoi.s:102562  .debug_str:000000000003d727 .LASF5795
     /tmp/ccut0Zoi.s:94744  .debug_str:000000000001dc7e .LASF5796
     /tmp/ccut0Zoi.s:89472  .debug_str:0000000000008345 .LASF5797
     /tmp/ccut0Zoi.s:96364  .debug_str:0000000000024560 .LASF5798
     /tmp/ccut0Zoi.s:104550  .debug_str:0000000000045a75 .LASF5799
     /tmp/ccut0Zoi.s:93954  .debug_str:000000000001a580 .LASF5800
     /tmp/ccut0Zoi.s:96042  .debug_str:0000000000023484 .LASF5801
     /tmp/ccut0Zoi.s:101124  .debug_str:00000000000377cc .LASF5802
     /tmp/ccut0Zoi.s:98496  .debug_str:000000000002d006 .LASF5803
     /tmp/ccut0Zoi.s:106082  .debug_str:000000000004c41b .LASF5804
     /tmp/ccut0Zoi.s:88468  .debug_str:0000000000003fa6 .LASF5805
     /tmp/ccut0Zoi.s:91406  .debug_str:000000000000fe91 .LASF5806
     /tmp/ccut0Zoi.s:101282  .debug_str:00000000000380de .LASF5807
     /tmp/ccut0Zoi.s:104118  .debug_str:0000000000043dff .LASF5808
     /tmp/ccut0Zoi.s:95948  .debug_str:0000000000022dab .LASF5809
     /tmp/ccut0Zoi.s:102704  .debug_str:000000000003dfb4 .LASF5810
     /tmp/ccut0Zoi.s:103618  .debug_str:0000000000041e67 .LASF5811
     /tmp/ccut0Zoi.s:94344  .debug_str:000000000001c07c .LASF5812
     /tmp/ccut0Zoi.s:105970  .debug_str:000000000004bce9 .LASF5813
     /tmp/ccut0Zoi.s:95384  .debug_str:0000000000020937 .LASF5814
     /tmp/ccut0Zoi.s:90750  .debug_str:000000000000d9b5 .LASF5815
     /tmp/ccut0Zoi.s:90000  .debug_str:000000000000a708 .LASF5816
     /tmp/ccut0Zoi.s:88970  .debug_str:000000000000619a .LASF5817
     /tmp/ccut0Zoi.s:88846  .debug_str:00000000000059c3 .LASF5818
     /tmp/ccut0Zoi.s:90524  .debug_str:000000000000cbc5 .LASF5819
     /tmp/ccut0Zoi.s:103624  .debug_str:0000000000041ef4 .LASF5820
     /tmp/ccut0Zoi.s:99498  .debug_str:000000000003138e .LASF5821
     /tmp/ccut0Zoi.s:103328  .debug_str:0000000000040ae6 .LASF5822
     /tmp/ccut0Zoi.s:104928  .debug_str:00000000000473d4 .LASF5823
     /tmp/ccut0Zoi.s:98072  .debug_str:000000000002b49c .LASF5824
     /tmp/ccut0Zoi.s:104248  .debug_str:0000000000044654 .LASF5825
     /tmp/ccut0Zoi.s:105588  .debug_str:000000000004a119 .LASF5826
     /tmp/ccut0Zoi.s:100500  .debug_str:0000000000035547 .LASF5827
     /tmp/ccut0Zoi.s:97380  .debug_str:00000000000287b9 .LASF5828
     /tmp/ccut0Zoi.s:97392  .debug_str:000000000002885f .LASF5829
     /tmp/ccut0Zoi.s:90596  .debug_str:000000000000d065 .LASF5830
     /tmp/ccut0Zoi.s:103814  .debug_str:0000000000042b3b .LASF5831
     /tmp/ccut0Zoi.s:103588  .debug_str:0000000000041cc9 .LASF5832
     /tmp/ccut0Zoi.s:103816  .debug_str:0000000000042b45 .LASF5833
     /tmp/ccut0Zoi.s:90758  .debug_str:000000000000da22 .LASF5834
     /tmp/ccut0Zoi.s:103822  .debug_str:0000000000042b97 .LASF5835
     /tmp/ccut0Zoi.s:103046  .debug_str:000000000003f820 .LASF5836
     /tmp/ccut0Zoi.s:102070  .debug_str:000000000003b681 .LASF5837
     /tmp/ccut0Zoi.s:90340  .debug_str:000000000000beca .LASF5838
     /tmp/ccut0Zoi.s:99048  .debug_str:000000000002f57e .LASF5839
     /tmp/ccut0Zoi.s:103824  .debug_str:0000000000042ba1 .LASF5840
     /tmp/ccut0Zoi.s:90764  .debug_str:000000000000da7b .LASF5841
     /tmp/ccut0Zoi.s:95452  .debug_str:0000000000020d7a .LASF5842
     /tmp/ccut0Zoi.s:90336  .debug_str:000000000000be60 .LASF5843
     /tmp/ccut0Zoi.s:106058  .debug_str:000000000004c2ea .LASF5844
     /tmp/ccut0Zoi.s:92112  .debug_str:0000000000012d74 .LASF5845
     /tmp/ccut0Zoi.s:90766  .debug_str:000000000000da85 .LASF5846
     /tmp/ccut0Zoi.s:88174  .debug_str:0000000000002b68 .LASF5847
     /tmp/ccut0Zoi.s:103830  .debug_str:0000000000042bdd .LASF5848
     /tmp/ccut0Zoi.s:92710  .debug_str:00000000000152f2 .LASF5849
     /tmp/ccut0Zoi.s:100402  .debug_str:0000000000034f2a .LASF5850
     /tmp/ccut0Zoi.s:90846  .debug_str:000000000000dff5 .LASF5851
     /tmp/ccut0Zoi.s:94960  .debug_str:000000000001eb57 .LASF5852
     /tmp/ccut0Zoi.s:90848  .debug_str:000000000000dfff .LASF5853
     /tmp/ccut0Zoi.s:87684  .debug_str:0000000000000938 .LASF5854
     /tmp/ccut0Zoi.s:91106  .debug_str:000000000000ecf5 .LASF5855
     /tmp/ccut0Zoi.s:101042  .debug_str:0000000000037382 .LASF5856
     /tmp/ccut0Zoi.s:89830  .debug_str:0000000000009bd8 .LASF5857
     /tmp/ccut0Zoi.s:103974  .debug_str:0000000000043505 .LASF5858
     /tmp/ccut0Zoi.s:102604  .debug_str:000000000003d9ab .LASF5859
     /tmp/ccut0Zoi.s:90852  .debug_str:000000000000e022 .LASF5860
     /tmp/ccut0Zoi.s:90422  .debug_str:000000000000c4a8 .LASF5861
     /tmp/ccut0Zoi.s:98116  .debug_str:000000000002b6f8 .LASF5862
     /tmp/ccut0Zoi.s:90854  .debug_str:000000000000e02c .LASF5863
     /tmp/ccut0Zoi.s:89610  .debug_str:0000000000008cd6 .LASF5864
     /tmp/ccut0Zoi.s:102616  .debug_str:000000000003da41 .LASF5865
     /tmp/ccut0Zoi.s:106022  .debug_str:000000000004c0ac .LASF5866
     /tmp/ccut0Zoi.s:105134  .debug_str:00000000000481e4 .LASF5867
     /tmp/ccut0Zoi.s:98986  .debug_str:000000000002f1a2 .LASF5868
     /tmp/ccut0Zoi.s:89402  .debug_str:0000000000007e94 .LASF5869
     /tmp/ccut0Zoi.s:90856  .debug_str:000000000000e036 .LASF5870
     /tmp/ccut0Zoi.s:105028  .debug_str:0000000000047a62 .LASF5871
     /tmp/ccut0Zoi.s:90858  .debug_str:000000000000e040 .LASF5872
     /tmp/ccut0Zoi.s:99488  .debug_str:00000000000312e2 .LASF5873
     /tmp/ccut0Zoi.s:88412  .debug_str:0000000000003b85 .LASF5874
     /tmp/ccut0Zoi.s:90860  .debug_str:000000000000e04a .LASF5875
     /tmp/ccut0Zoi.s:97116  .debug_str:0000000000027634 .LASF5876
     /tmp/ccut0Zoi.s:93650  .debug_str:0000000000018fe6 .LASF5877
     /tmp/ccut0Zoi.s:89064  .debug_str:000000000000684e .LASF5878
     /tmp/ccut0Zoi.s:92696  .debug_str:000000000001524a .LASF5879
     /tmp/ccut0Zoi.s:103532  .debug_str:00000000000418f0 .LASF5880
     /tmp/ccut0Zoi.s:90862  .debug_str:000000000000e054 .LASF5881
     /tmp/ccut0Zoi.s:97358  .debug_str:000000000002863e .LASF5882
     /tmp/ccut0Zoi.s:92558  .debug_str:00000000000148c4 .LASF5883
     /tmp/ccut0Zoi.s:103940  .debug_str:00000000000432a3 .LASF5884
     /tmp/ccut0Zoi.s:104106  .debug_str:0000000000043d4c .LASF5885
     /tmp/ccut0Zoi.s:93920  .debug_str:000000000001a361 .LASF5886
     /tmp/ccut0Zoi.s:98436  .debug_str:000000000002cbc1 .LASF5887
     /tmp/ccut0Zoi.s:87756  .debug_str:0000000000000ddc .LASF5888
     /tmp/ccut0Zoi.s:96926  .debug_str:0000000000026982 .LASF5889
     /tmp/ccut0Zoi.s:102938  .debug_str:000000000003f135 .LASF5890
     /tmp/ccut0Zoi.s:97050  .debug_str:00000000000271cc .LASF5891
     /tmp/ccut0Zoi.s:91036  .debug_str:000000000000e982 .LASF5892
     /tmp/ccut0Zoi.s:103928  .debug_str:00000000000431c5 .LASF5893
     /tmp/ccut0Zoi.s:104198  .debug_str:000000000004435a .LASF5894
     /tmp/ccut0Zoi.s:90924  .debug_str:000000000000e3cc .LASF5895
     /tmp/ccut0Zoi.s:90054  .debug_str:000000000000ab0c .LASF5896
     /tmp/ccut0Zoi.s:89424  .debug_str:000000000000801a .LASF5897
     /tmp/ccut0Zoi.s:92020  .debug_str:0000000000012689 .LASF5898
     /tmp/ccut0Zoi.s:91898  .debug_str:0000000000011e57 .LASF5899
     /tmp/ccut0Zoi.s:103628  .debug_str:0000000000041f37 .LASF5900
     /tmp/ccut0Zoi.s:102282  .debug_str:000000000003c526 .LASF5901
     /tmp/ccut0Zoi.s:97148  .debug_str:0000000000027891 .LASF5902
     /tmp/ccut0Zoi.s:97914  .debug_str:000000000002aa04 .LASF5903
     /tmp/ccut0Zoi.s:102970  .debug_str:000000000003f35a .LASF5904
     /tmp/ccut0Zoi.s:95022  .debug_str:000000000001f062 .LASF5905
     /tmp/ccut0Zoi.s:90666  .debug_str:000000000000d4c5 .LASF5906
     /tmp/ccut0Zoi.s:105822  .debug_str:000000000004b2b6 .LASF5907
     /tmp/ccut0Zoi.s:92110  .debug_str:0000000000012d4a .LASF5908
     /tmp/ccut0Zoi.s:91186  .debug_str:000000000000f21b .LASF5909
     /tmp/ccut0Zoi.s:102408  .debug_str:000000000003cd18 .LASF5910
     /tmp/ccut0Zoi.s:97856  .debug_str:000000000002a645 .LASF5911
     /tmp/ccut0Zoi.s:94362  .debug_str:000000000001c1a8 .LASF5912
     /tmp/ccut0Zoi.s:97994  .debug_str:000000000002af6c .LASF5913
     /tmp/ccut0Zoi.s:96928  .debug_str:000000000002699c .LASF5914
     /tmp/ccut0Zoi.s:99040  .debug_str:000000000002f50c .LASF5915
     /tmp/ccut0Zoi.s:87650  .debug_str:00000000000006f8 .LASF5916
     /tmp/ccut0Zoi.s:88306  .debug_str:0000000000003437 .LASF5917
     /tmp/ccut0Zoi.s:105070  .debug_str:0000000000047d19 .LASF5918
     /tmp/ccut0Zoi.s:90810  .debug_str:000000000000dd78 .LASF5919
     /tmp/ccut0Zoi.s:90670  .debug_str:000000000000d4f9 .LASF5920
     /tmp/ccut0Zoi.s:90672  .debug_str:000000000000d503 .LASF5921
     /tmp/ccut0Zoi.s:94004  .debug_str:000000000001a898 .LASF5922
     /tmp/ccut0Zoi.s:103734  .debug_str:0000000000042632 .LASF5923
     /tmp/ccut0Zoi.s:97800  .debug_str:000000000002a26e .LASF5924
     /tmp/ccut0Zoi.s:99428  .debug_str:0000000000030eea .LASF5925
     /tmp/ccut0Zoi.s:96870  .debug_str:00000000000265c9 .LASF5926
     /tmp/ccut0Zoi.s:89840  .debug_str:0000000000009c7b .LASF5927
     /tmp/ccut0Zoi.s:103922  .debug_str:000000000004316e .LASF5928
     /tmp/ccut0Zoi.s:94266  .debug_str:000000000001bbc5 .LASF5929
     /tmp/ccut0Zoi.s:90790  .debug_str:000000000000dc57 .LASF5930
     /tmp/ccut0Zoi.s:100886  .debug_str:0000000000036c04 .LASF5931
     /tmp/ccut0Zoi.s:97546  .debug_str:0000000000029200 .LASF5932
     /tmp/ccut0Zoi.s:90238  .debug_str:000000000000b863 .LASF5933
     /tmp/ccut0Zoi.s:91002  .debug_str:000000000000e706 .LASF5934
     /tmp/ccut0Zoi.s:101054  .debug_str:0000000000037429 .LASF5935
     /tmp/ccut0Zoi.s:99246  .debug_str:00000000000301d3 .LASF5936
     /tmp/ccut0Zoi.s:95394  .debug_str:00000000000209fd .LASF5937
     /tmp/ccut0Zoi.s:94684  .debug_str:000000000001d887 .LASF5938
     /tmp/ccut0Zoi.s:89492  .debug_str:0000000000008494 .LASF5939
     /tmp/ccut0Zoi.s:101708  .debug_str:0000000000039dcc .LASF5940
     /tmp/ccut0Zoi.s:94276  .debug_str:000000000001bc3a .LASF5941
     /tmp/ccut0Zoi.s:89824  .debug_str:0000000000009b55 .LASF5942
     /tmp/ccut0Zoi.s:103578  .debug_str:0000000000041c4f .LASF5943
     /tmp/ccut0Zoi.s:105034  .debug_str:0000000000047a86 .LASF5944
     /tmp/ccut0Zoi.s:101094  .debug_str:00000000000375c9 .LASF5945
     /tmp/ccut0Zoi.s:94788  .debug_str:000000000001df1b .LASF5946
     /tmp/ccut0Zoi.s:88934  .debug_str:0000000000005f70 .LASF5947
     /tmp/ccut0Zoi.s:100082  .debug_str:00000000000339cb .LASF5948
     /tmp/ccut0Zoi.s:98118  .debug_str:000000000002b703 .LASF5949
     /tmp/ccut0Zoi.s:95008  .debug_str:000000000001ef59 .LASF5950
     /tmp/ccut0Zoi.s:87568  .debug_str:0000000000000105 .LASF5951
     /tmp/ccut0Zoi.s:92548  .debug_str:00000000000147c3 .LASF5952
     /tmp/ccut0Zoi.s:95852  .debug_str:00000000000227aa .LASF5953
     /tmp/ccut0Zoi.s:89410  .debug_str:0000000000007f0e .LASF5954
     /tmp/ccut0Zoi.s:104138  .debug_str:0000000000043eca .LASF5955
     /tmp/ccut0Zoi.s:88740  .debug_str:0000000000005216 .LASF5956
     /tmp/ccut0Zoi.s:103166  .debug_str:00000000000400c7 .LASF5957
     /tmp/ccut0Zoi.s:96718  .debug_str:0000000000025b83 .LASF5958
     /tmp/ccut0Zoi.s:102298  .debug_str:000000000003c675 .LASF5959
     /tmp/ccut0Zoi.s:94914  .debug_str:000000000001e89b .LASF5960
     /tmp/ccut0Zoi.s:90030  .debug_str:000000000000a8ec .LASF5961
     /tmp/ccut0Zoi.s:99258  .debug_str:0000000000030287 .LASF5962
     /tmp/ccut0Zoi.s:92858  .debug_str:0000000000015baa .LASF5963
     /tmp/ccut0Zoi.s:105962  .debug_str:000000000004bc8a .LASF5964
     /tmp/ccut0Zoi.s:100774  .debug_str:0000000000036594 .LASF5965
     /tmp/ccut0Zoi.s:96634  .debug_str:00000000000255d4 .LASF5966
     /tmp/ccut0Zoi.s:97744  .debug_str:0000000000029f3f .LASF5967
     /tmp/ccut0Zoi.s:100372  .debug_str:0000000000034db0 .LASF5968
     /tmp/ccut0Zoi.s:100542  .debug_str:0000000000035802 .LASF5969
     /tmp/ccut0Zoi.s:97768  .debug_str:000000000002a0df .LASF5970
     /tmp/ccut0Zoi.s:100388  .debug_str:0000000000034e70 .LASF5971
     /tmp/ccut0Zoi.s:88828  .debug_str:00000000000058d3 .LASF5972
     /tmp/ccut0Zoi.s:97080  .debug_str:00000000000273f6 .LASF5973
     /tmp/ccut0Zoi.s:94866  .debug_str:000000000001e526 .LASF5974
     /tmp/ccut0Zoi.s:90932  .debug_str:000000000000e42d .LASF5975
     /tmp/ccut0Zoi.s:90266  .debug_str:000000000000ba01 .LASF5976
     /tmp/ccut0Zoi.s:90298  .debug_str:000000000000bc09 .LASF5977
     /tmp/ccut0Zoi.s:97764  .debug_str:000000000002a098 .LASF5978
     /tmp/ccut0Zoi.s:95688  .debug_str:0000000000021cb5 .LASF5979
     /tmp/ccut0Zoi.s:99420  .debug_str:0000000000030e24 .LASF5980
     /tmp/ccut0Zoi.s:93512  .debug_str:0000000000018659 .LASF5981
     /tmp/ccut0Zoi.s:105538  .debug_str:0000000000049e0b .LASF5982
     /tmp/ccut0Zoi.s:103918  .debug_str:000000000004311e .LASF5983
     /tmp/ccut0Zoi.s:97320  .debug_str:000000000002839e .LASF5984
     /tmp/ccut0Zoi.s:93522  .debug_str:0000000000018734 .LASF5985
     /tmp/ccut0Zoi.s:98772  .debug_str:000000000002e2cb .LASF5986
     /tmp/ccut0Zoi.s:90010  .debug_str:000000000000a7bd .LASF5987
     /tmp/ccut0Zoi.s:98182  .debug_str:000000000002bac2 .LASF5988
     /tmp/ccut0Zoi.s:92408  .debug_str:0000000000013f99 .LASF5989
     /tmp/ccut0Zoi.s:92466  .debug_str:000000000001425a .LASF5990
     /tmp/ccut0Zoi.s:102042  .debug_str:000000000003b4d4 .LASF5991
     /tmp/ccut0Zoi.s:97594  .debug_str:00000000000294f4 .LASF5992
     /tmp/ccut0Zoi.s:97406  .debug_str:0000000000028958 .LASF5993
     /tmp/ccut0Zoi.s:89462  .debug_str:0000000000008298 .LASF5994
     /tmp/ccut0Zoi.s:96218  .debug_str:0000000000023eb8 .LASF5995
     /tmp/ccut0Zoi.s:90606  .debug_str:000000000000d109 .LASF5996
     /tmp/ccut0Zoi.s:95530  .debug_str:000000000002127d .LASF5997
     /tmp/ccut0Zoi.s:94902  .debug_str:000000000001e794 .LASF5998
     /tmp/ccut0Zoi.s:101194  .debug_str:0000000000037b76 .LASF5999
     /tmp/ccut0Zoi.s:101190  .debug_str:0000000000037b3b .LASF6000
     /tmp/ccut0Zoi.s:99454  .debug_str:00000000000310ae .LASF6001
     /tmp/ccut0Zoi.s:90140  .debug_str:000000000000b164 .LASF6002
     /tmp/ccut0Zoi.s:104080  .debug_str:0000000000043bd2 .LASF6003
     /tmp/ccut0Zoi.s:89924  .debug_str:000000000000a213 .LASF6004
     /tmp/ccut0Zoi.s:95360  .debug_str:000000000002075f .LASF6005
     /tmp/ccut0Zoi.s:93468  .debug_str:000000000001839c .LASF6006
     /tmp/ccut0Zoi.s:95532  .debug_str:0000000000021286 .LASF6007
     /tmp/ccut0Zoi.s:100424  .debug_str:00000000000350bb .LASF6008
     /tmp/ccut0Zoi.s:104272  .debug_str:00000000000447e5 .LASF6009
     /tmp/ccut0Zoi.s:98648  .debug_str:000000000002dace .LASF6010
     /tmp/ccut0Zoi.s:102490  .debug_str:000000000003d22f .LASF6011
     /tmp/ccut0Zoi.s:96844  .debug_str:00000000000263cb .LASF6012
     /tmp/ccut0Zoi.s:106034  .debug_str:000000000004c17b .LASF6013
     /tmp/ccut0Zoi.s:95534  .debug_str:000000000002128f .LASF6014
     /tmp/ccut0Zoi.s:101816  .debug_str:000000000003a5b5 .LASF6015
     /tmp/ccut0Zoi.s:102492  .debug_str:000000000003d23d .LASF6016
     /tmp/ccut0Zoi.s:100016  .debug_str:0000000000033527 .LASF6017
     /tmp/ccut0Zoi.s:104702  .debug_str:00000000000464e4 .LASF6018
     /tmp/ccut0Zoi.s:101628  .debug_str:00000000000397db .LASF6019
     /tmp/ccut0Zoi.s:96996  .debug_str:0000000000026db4 .LASF6020
     /tmp/ccut0Zoi.s:96984  .debug_str:0000000000026cef .LASF6021
     /tmp/ccut0Zoi.s:104410  .debug_str:00000000000451b1 .LASF6022
     /tmp/ccut0Zoi.s:96166  .debug_str:0000000000023b75 .LASF6023
     /tmp/ccut0Zoi.s:90674  .debug_str:000000000000d50d .LASF6024
     /tmp/ccut0Zoi.s:95536  .debug_str:0000000000021298 .LASF6025
     /tmp/ccut0Zoi.s:95836  .debug_str:0000000000022692 .LASF6026
     /tmp/ccut0Zoi.s:95862  .debug_str:0000000000022833 .LASF6027
     /tmp/ccut0Zoi.s:90330  .debug_str:000000000000be05 .LASF6028
     /tmp/ccut0Zoi.s:90112  .debug_str:000000000000af27 .LASF6029
     /tmp/ccut0Zoi.s:98864  .debug_str:000000000002e933 .LASF6030
     /tmp/ccut0Zoi.s:88126  .debug_str:0000000000002823 .LASF6031
     /tmp/ccut0Zoi.s:89036  .debug_str:0000000000006683 .LASF6032
     /tmp/ccut0Zoi.s:88378  .debug_str:0000000000003970 .LASF6033
     /tmp/ccut0Zoi.s:91334  .debug_str:000000000000fa4a .LASF6034
     /tmp/ccut0Zoi.s:88922  .debug_str:0000000000005eb5 .LASF6035
     /tmp/ccut0Zoi.s:97630  .debug_str:00000000000297f7 .LASF6036
     /tmp/ccut0Zoi.s:102232  .debug_str:000000000003c209 .LASF6037
     /tmp/ccut0Zoi.s:90676  .debug_str:000000000000d517 .LASF6038
     /tmp/ccut0Zoi.s:95538  .debug_str:00000000000212a1 .LASF6039
     /tmp/ccut0Zoi.s:89802  .debug_str:00000000000099c5 .LASF6040
     /tmp/ccut0Zoi.s:103214  .debug_str:0000000000040300 .LASF6041
     /tmp/ccut0Zoi.s:103190  .debug_str:00000000000401e4 .LASF6042
     /tmp/ccut0Zoi.s:104962  .debug_str:00000000000475fb .LASF6043
     /tmp/ccut0Zoi.s:104946  .debug_str:000000000004750c .LASF6044
     /tmp/ccut0Zoi.s:90678  .debug_str:000000000000d521 .LASF6045
     /tmp/ccut0Zoi.s:95540  .debug_str:00000000000212aa .LASF6046
     /tmp/ccut0Zoi.s:102688  .debug_str:000000000003df08 .LASF6047
     /tmp/ccut0Zoi.s:95978  .debug_str:0000000000023001 .LASF6048
     /tmp/ccut0Zoi.s:106272  .debug_str:000000000004d176 .LASF6049
     /tmp/ccut0Zoi.s:90680  .debug_str:000000000000d52b .LASF6050
     /tmp/ccut0Zoi.s:95542  .debug_str:00000000000212b3 .LASF6051
     /tmp/ccut0Zoi.s:93484  .debug_str:00000000000184cf .LASF6052
     /tmp/ccut0Zoi.s:88648  .debug_str:0000000000004c17 .LASF6053
     /tmp/ccut0Zoi.s:104594  .debug_str:0000000000045d53 .LASF6054
     /tmp/ccut0Zoi.s:96462  .debug_str:0000000000024a60 .LASF6055
     /tmp/ccut0Zoi.s:103652  .debug_str:00000000000420f5 .LASF6056
     /tmp/ccut0Zoi.s:89972  .debug_str:000000000000a50d .LASF6057
     /tmp/ccut0Zoi.s:93606  .debug_str:0000000000018d07 .LASF6058
     /tmp/ccut0Zoi.s:92218  .debug_str:00000000000133c2 .LASF6059
     /tmp/ccut0Zoi.s:88298  .debug_str:00000000000033dd .LASF6060
     /tmp/ccut0Zoi.s:99202  .debug_str:000000000002ff3f .LASF6061
     /tmp/ccut0Zoi.s:102004  .debug_str:000000000003b227 .LASF6062
     /tmp/ccut0Zoi.s:89096  .debug_str:0000000000006b07 .LASF6063
     /tmp/ccut0Zoi.s:88534  .debug_str:000000000000442e .LASF6064
     /tmp/ccut0Zoi.s:99892  .debug_str:0000000000032d2f .LASF6065
     /tmp/ccut0Zoi.s:105298  .debug_str:0000000000048d72 .LASF6066
     /tmp/ccut0Zoi.s:95130  .debug_str:000000000001f8c8 .LASF6067
     /tmp/ccut0Zoi.s:97108  .debug_str:00000000000275b2 .LASF6068
     /tmp/ccut0Zoi.s:94262  .debug_str:000000000001bb78 .LASF6069
     /tmp/ccut0Zoi.s:97132  .debug_str:000000000002776a .LASF6070
     /tmp/ccut0Zoi.s:91656  .debug_str:0000000000010d96 .LASF6071
     /tmp/ccut0Zoi.s:97386  .debug_str:0000000000028813 .LASF6072
     /tmp/ccut0Zoi.s:95650  .debug_str:00000000000219fe .LASF6073
     /tmp/ccut0Zoi.s:87674  .debug_str:0000000000000890 .LASF6074
     /tmp/ccut0Zoi.s:105492  .debug_str:0000000000049a5e .LASF6075
     /tmp/ccut0Zoi.s:94540  .debug_str:000000000001ce08 .LASF6076
     /tmp/ccut0Zoi.s:103042  .debug_str:000000000003f7f2 .LASF6077
     /tmp/ccut0Zoi.s:105190  .debug_str:00000000000485b6 .LASF6078
     /tmp/ccut0Zoi.s:89256  .debug_str:0000000000007575 .LASF6079
     /tmp/ccut0Zoi.s:101382  .debug_str:00000000000387a4 .LASF6080
     /tmp/ccut0Zoi.s:96726  .debug_str:0000000000025c05 .LASF6081
     /tmp/ccut0Zoi.s:103730  .debug_str:0000000000042610 .LASF6082
     /tmp/ccut0Zoi.s:97350  .debug_str:0000000000028587 .LASF6083
     /tmp/ccut0Zoi.s:103322  .debug_str:0000000000040ab2 .LASF6084
     /tmp/ccut0Zoi.s:102160  .debug_str:000000000003bd43 .LASF6085
     /tmp/ccut0Zoi.s:94078  .debug_str:000000000001ae32 .LASF6086
     /tmp/ccut0Zoi.s:96728  .debug_str:0000000000025c0e .LASF6087
     /tmp/ccut0Zoi.s:104540  .debug_str:00000000000459e7 .LASF6088
     /tmp/ccut0Zoi.s:93734  .debug_str:00000000000195bf .LASF6089
     /tmp/ccut0Zoi.s:100278  .debug_str:0000000000034752 .LASF6090
     /tmp/ccut0Zoi.s:95712  .debug_str:0000000000021e0a .LASF6091
     /tmp/ccut0Zoi.s:100764  .debug_str:00000000000364db .LASF6092
     /tmp/ccut0Zoi.s:94724  .debug_str:000000000001db2d .LASF6093
     /tmp/ccut0Zoi.s:99318  .debug_str:00000000000306cd .LASF6094
     /tmp/ccut0Zoi.s:96730  .debug_str:0000000000025c17 .LASF6095
     /tmp/ccut0Zoi.s:95168  .debug_str:000000000001fae6 .LASF6096
     /tmp/ccut0Zoi.s:90782  .debug_str:000000000000dbc2 .LASF6097
     /tmp/ccut0Zoi.s:105328  .debug_str:0000000000048f6d .LASF6098
     /tmp/ccut0Zoi.s:98566  .debug_str:000000000002d4eb .LASF6099
     /tmp/ccut0Zoi.s:96732  .debug_str:0000000000025c20 .LASF6100
     /tmp/ccut0Zoi.s:88238  .debug_str:0000000000003030 .LASF6101
     /tmp/ccut0Zoi.s:90158  .debug_str:000000000000b2b4 .LASF6102
     /tmp/ccut0Zoi.s:97400  .debug_str:00000000000288fc .LASF6103
     /tmp/ccut0Zoi.s:93646  .debug_str:0000000000018fc3 .LASF6104
     /tmp/ccut0Zoi.s:101276  .debug_str:000000000003807e .LASF6105
     /tmp/ccut0Zoi.s:101560  .debug_str:0000000000039401 .LASF6106
     /tmp/ccut0Zoi.s:92366  .debug_str:0000000000013cc1 .LASF6107
     /tmp/ccut0Zoi.s:94836  .debug_str:000000000001e302 .LASF6108
     /tmp/ccut0Zoi.s:97446  .debug_str:0000000000028c29 .LASF6109
     /tmp/ccut0Zoi.s:96736  .debug_str:0000000000025c43 .LASF6110
     /tmp/ccut0Zoi.s:89160  .debug_str:0000000000006f96 .LASF6111
     /tmp/ccut0Zoi.s:105918  .debug_str:000000000004b997 .LASF6112
     /tmp/ccut0Zoi.s:98386  .debug_str:000000000002c88a .LASF6113
     /tmp/ccut0Zoi.s:99008  .debug_str:000000000002f2f9 .LASF6114
     /tmp/ccut0Zoi.s:100376  .debug_str:0000000000034dee .LASF6115
     /tmp/ccut0Zoi.s:95248  .debug_str:000000000001ffae .LASF6116
     /tmp/ccut0Zoi.s:93030  .debug_str:0000000000016739 .LASF6117
     /tmp/ccut0Zoi.s:92828  .debug_str:0000000000015a01 .LASF6118
     /tmp/ccut0Zoi.s:103156  .debug_str:000000000004002d .LASF6119
     /tmp/ccut0Zoi.s:89606  .debug_str:0000000000008c31 .LASF6120
     /tmp/ccut0Zoi.s:103966  .debug_str:0000000000043459 .LASF6121
     /tmp/ccut0Zoi.s:102352  .debug_str:000000000003c92b .LASF6122
     /tmp/ccut0Zoi.s:103104  .debug_str:000000000003fc74 .LASF6123
     /tmp/ccut0Zoi.s:95216  .debug_str:000000000001fda1 .LASF6124
     /tmp/ccut0Zoi.s:105206  .debug_str:0000000000048703 .LASF6125
     /tmp/ccut0Zoi.s:96892  .debug_str:000000000002671b .LASF6126
     /tmp/ccut0Zoi.s:90474  .debug_str:000000000000c7ef .LASF6127
     /tmp/ccut0Zoi.s:98186  .debug_str:000000000002badf .LASF6128
     /tmp/ccut0Zoi.s:90012  .debug_str:000000000000a7ea .LASF6129
     /tmp/ccut0Zoi.s:104536  .debug_str:00000000000459b3 .LASF6130
     /tmp/ccut0Zoi.s:90576  .debug_str:000000000000cf0d .LASF6131
     /tmp/ccut0Zoi.s:99578  .debug_str:00000000000318b3 .LASF6132
     /tmp/ccut0Zoi.s:99954  .debug_str:000000000003309a .LASF6133
     /tmp/ccut0Zoi.s:96638  .debug_str:0000000000025617 .LASF6134
     /tmp/ccut0Zoi.s:96306  .debug_str:0000000000024300 .LASF6135
     /tmp/ccut0Zoi.s:98190  .debug_str:000000000002bb23 .LASF6136
     /tmp/ccut0Zoi.s:87778  .debug_str:0000000000000f5f .LASF6137
     /tmp/ccut0Zoi.s:89620  .debug_str:0000000000008dac .LASF6138
     /tmp/ccut0Zoi.s:102782  .debug_str:000000000003e5c0 .LASF6139
     /tmp/ccut0Zoi.s:101948  .debug_str:000000000003aea2 .LASF6140
     /tmp/ccut0Zoi.s:102316  .debug_str:000000000003c7bb .LASF6141
     /tmp/ccut0Zoi.s:103902  .debug_str:000000000004302c .LASF6142
     /tmp/ccut0Zoi.s:102920  .debug_str:000000000003f02f .LASF6143
     /tmp/ccut0Zoi.s:105146  .debug_str:0000000000048294 .LASF6144
     /tmp/ccut0Zoi.s:99144  .debug_str:000000000002fb30 .LASF6145
     /tmp/ccut0Zoi.s:101668  .debug_str:0000000000039afc .LASF6146
     /tmp/ccut0Zoi.s:89232  .debug_str:0000000000007409 .LASF6147
     /tmp/ccut0Zoi.s:94498  .debug_str:000000000001cb1c .LASF6148
     /tmp/ccut0Zoi.s:89626  .debug_str:0000000000008df4 .LASF6149
     /tmp/ccut0Zoi.s:93554  .debug_str:0000000000018987 .LASF6150
     /tmp/ccut0Zoi.s:87728  .debug_str:0000000000000bf4 .LASF6151
     /tmp/ccut0Zoi.s:103000  .debug_str:000000000003f4f6 .LASF6152
     /tmp/ccut0Zoi.s:95014  .debug_str:000000000001efda .LASF6153
     /tmp/ccut0Zoi.s:103876  .debug_str:0000000000042eed .LASF6154
     /tmp/ccut0Zoi.s:106024  .debug_str:000000000004c0bd .LASF6155
     /tmp/ccut0Zoi.s:91842  .debug_str:0000000000011b0c .LASF6156
     /tmp/ccut0Zoi.s:99282  .debug_str:0000000000030427 .LASF6157
     /tmp/ccut0Zoi.s:90404  .debug_str:000000000000c364 .LASF6158
     /tmp/ccut0Zoi.s:100736  .debug_str:000000000003642e .LASF6159
     /tmp/ccut0Zoi.s:94476  .debug_str:000000000001c951 .LASF6160
     /tmp/ccut0Zoi.s:97942  .debug_str:000000000002aba2 .LASF6161
     /tmp/ccut0Zoi.s:103538  .debug_str:000000000004194a .LASF6162
     /tmp/ccut0Zoi.s:89758  .debug_str:000000000000972d .LASF6163
     /tmp/ccut0Zoi.s:97944  .debug_str:000000000002abb2 .LASF6164
     /tmp/ccut0Zoi.s:87656  .debug_str:0000000000000758 .LASF6165
     /tmp/ccut0Zoi.s:104018  .debug_str:0000000000043819 .LASF6166
     /tmp/ccut0Zoi.s:94282  .debug_str:000000000001bca2 .LASF6167
     /tmp/ccut0Zoi.s:91436  .debug_str:000000000001003f .LASF6168
     /tmp/ccut0Zoi.s:104448  .debug_str:0000000000045414 .LASF6169
     /tmp/ccut0Zoi.s:99164  .debug_str:000000000002fcdb .LASF6170
     /tmp/ccut0Zoi.s:94350  .debug_str:000000000001c0de .LASF6171
     /tmp/ccut0Zoi.s:99880  .debug_str:0000000000032c17 .LASF6172
     /tmp/ccut0Zoi.s:94200  .debug_str:000000000001b6c2 .LASF6173
     /tmp/ccut0Zoi.s:93776  .debug_str:00000000000198f2 .LASF6174
     /tmp/ccut0Zoi.s:96944  .debug_str:0000000000026ac0 .LASF6175
     /tmp/ccut0Zoi.s:100818  .debug_str:0000000000036879 .LASF6176
     /tmp/ccut0Zoi.s:96484  .debug_str:0000000000024be2 .LASF6177
     /tmp/ccut0Zoi.s:89918  .debug_str:000000000000a1a3 .LASF6178
     /tmp/ccut0Zoi.s:99670  .debug_str:0000000000031e98 .LASF6179
     /tmp/ccut0Zoi.s:93282  .debug_str:0000000000017885 .LASF6180
     /tmp/ccut0Zoi.s:105864  .debug_str:000000000004b5eb .LASF6181
     /tmp/ccut0Zoi.s:99672  .debug_str:0000000000031ea4 .LASF6182
     /tmp/ccut0Zoi.s:102332  .debug_str:000000000003c893 .LASF6183
     /tmp/ccut0Zoi.s:99972  .debug_str:00000000000331cc .LASF6184
     /tmp/ccut0Zoi.s:99674  .debug_str:0000000000031eb0 .LASF6185
     /tmp/ccut0Zoi.s:102334  .debug_str:000000000003c899 .LASF6186
     /tmp/ccut0Zoi.s:94014  .debug_str:000000000001a924 .LASF6187
     /tmp/ccut0Zoi.s:97784  .debug_str:000000000002a1e0 .LASF6188
     /tmp/ccut0Zoi.s:102932  .debug_str:000000000003f102 .LASF6189
     /tmp/ccut0Zoi.s:102082  .debug_str:000000000003b784 .LASF6190
     /tmp/ccut0Zoi.s:97786  .debug_str:000000000002a1ea .LASF6191
     /tmp/ccut0Zoi.s:102338  .debug_str:000000000003c8ab .LASF6192
     /tmp/ccut0Zoi.s:89370  .debug_str:0000000000007c37 .LASF6193
     /tmp/ccut0Zoi.s:104616  .debug_str:0000000000045e96 .LASF6194
     /tmp/ccut0Zoi.s:102340  .debug_str:000000000003c8b1 .LASF6195
     /tmp/ccut0Zoi.s:94952  .debug_str:000000000001eaa8 .LASF6196
     /tmp/ccut0Zoi.s:97790  .debug_str:000000000002a209 .LASF6197
     /tmp/ccut0Zoi.s:93300  .debug_str:0000000000017965 .LASF6198
     /tmp/ccut0Zoi.s:95620  .debug_str:00000000000217ec .LASF6199
     /tmp/ccut0Zoi.s:105638  .debug_str:000000000004a3e7 .LASF6200
     /tmp/ccut0Zoi.s:102344  .debug_str:000000000003c8cd .LASF6201
     /tmp/ccut0Zoi.s:101868  .debug_str:000000000003a900 .LASF6202
     /tmp/ccut0Zoi.s:102622  .debug_str:000000000003da94 .LASF6203
     /tmp/ccut0Zoi.s:102346  .debug_str:000000000003c8d3 .LASF6204
     /tmp/ccut0Zoi.s:94428  .debug_str:000000000001c60d .LASF6205
     /tmp/ccut0Zoi.s:88102  .debug_str:0000000000002655 .LASF6206
     /tmp/ccut0Zoi.s:93352  .debug_str:0000000000017d1e .LASF6207
     /tmp/ccut0Zoi.s:91712  .debug_str:000000000001119a .LASF6208
     /tmp/ccut0Zoi.s:102626  .debug_str:000000000003daea .LASF6209
     /tmp/ccut0Zoi.s:93354  .debug_str:0000000000017d25 .LASF6210
     /tmp/ccut0Zoi.s:104534  .debug_str:0000000000045992 .LASF6211
     /tmp/ccut0Zoi.s:102142  .debug_str:000000000003bc10 .LASF6212
     /tmp/ccut0Zoi.s:91424  .debug_str:000000000000ff6c .LASF6213
     /tmp/ccut0Zoi.s:103540  .debug_str:0000000000041953 .LASF6214
     /tmp/ccut0Zoi.s:102144  .debug_str:000000000003bc19 .LASF6215
     /tmp/ccut0Zoi.s:93358  .debug_str:0000000000017d33 .LASF6216
     /tmp/ccut0Zoi.s:92678  .debug_str:000000000001504e .LASF6217
     /tmp/ccut0Zoi.s:102146  .debug_str:000000000003bc22 .LASF6218
     /tmp/ccut0Zoi.s:93360  .debug_str:0000000000017d3a .LASF6219
     /tmp/ccut0Zoi.s:105440  .debug_str:00000000000496d6 .LASF6220
     /tmp/ccut0Zoi.s:102148  .debug_str:000000000003bc2b .LASF6221
     /tmp/ccut0Zoi.s:92428  .debug_str:00000000000140b7 .LASF6222
     /tmp/ccut0Zoi.s:99560  .debug_str:00000000000317ad .LASF6223
     /tmp/ccut0Zoi.s:101958  .debug_str:000000000003af63 .LASF6224
     /tmp/ccut0Zoi.s:92432  .debug_str:00000000000140e7 .LASF6225
     /tmp/ccut0Zoi.s:93614  .debug_str:0000000000018d74 .LASF6226
     /tmp/ccut0Zoi.s:102734  .debug_str:000000000003e1f1 .LASF6227
     /tmp/ccut0Zoi.s:100506  .debug_str:00000000000355b1 .LASF6228
     /tmp/ccut0Zoi.s:89706  .debug_str:0000000000009355 .LASF6229
     /tmp/ccut0Zoi.s:93270  .debug_str:0000000000017798 .LASF6230
     /tmp/ccut0Zoi.s:100508  .debug_str:00000000000355b7 .LASF6231
     /tmp/ccut0Zoi.s:102590  .debug_str:000000000003d8ca .LASF6232
     /tmp/ccut0Zoi.s:90942  .debug_str:000000000000e4e6 .LASF6233
     /tmp/ccut0Zoi.s:100510  .debug_str:00000000000355bd .LASF6234
     /tmp/ccut0Zoi.s:96686  .debug_str:000000000002596d .LASF6235
     /tmp/ccut0Zoi.s:99648  .debug_str:0000000000031cbd .LASF6236
     /tmp/ccut0Zoi.s:100568  .debug_str:00000000000359f8 .LASF6237
     /tmp/ccut0Zoi.s:100474  .debug_str:00000000000353e6 .LASF6238
     /tmp/ccut0Zoi.s:88002  .debug_str:0000000000001ed8 .LASF6239
     /tmp/ccut0Zoi.s:100570  .debug_str:00000000000359fe .LASF6240
     /tmp/ccut0Zoi.s:102606  .debug_str:000000000003d9b4 .LASF6241
     /tmp/ccut0Zoi.s:102982  .debug_str:000000000003f406 .LASF6242
     /tmp/ccut0Zoi.s:100572  .debug_str:0000000000035a04 .LASF6243
     /tmp/ccut0Zoi.s:96704  .debug_str:0000000000025abf .LASF6244
     /tmp/ccut0Zoi.s:95214  .debug_str:000000000001fd93 .LASF6245
     /tmp/ccut0Zoi.s:100574  .debug_str:0000000000035a0a .LASF6246
     /tmp/ccut0Zoi.s:90658  .debug_str:000000000000d45e .LASF6247
     /tmp/ccut0Zoi.s:95218  .debug_str:000000000001fdc4 .LASF6248
     /tmp/ccut0Zoi.s:100576  .debug_str:0000000000035a10 .LASF6249
     /tmp/ccut0Zoi.s:103560  .debug_str:0000000000041aef .LASF6250
     /tmp/ccut0Zoi.s:98334  .debug_str:000000000002c4d2 .LASF6251
     /tmp/ccut0Zoi.s:100578  .debug_str:0000000000035a16 .LASF6252
     /tmp/ccut0Zoi.s:97708  .debug_str:0000000000029cf4 .LASF6253
     /tmp/ccut0Zoi.s:105618  .debug_str:000000000004a2ab .LASF6254
     /tmp/ccut0Zoi.s:100580  .debug_str:0000000000035a1c .LASF6255
     /tmp/ccut0Zoi.s:91688  .debug_str:0000000000010fed .LASF6256
     /tmp/ccut0Zoi.s:99196  .debug_str:000000000002ff07 .LASF6257
     /tmp/ccut0Zoi.s:100582  .debug_str:0000000000035a22 .LASF6258
     /tmp/ccut0Zoi.s:105746  .debug_str:000000000004ad6d .LASF6259
     /tmp/ccut0Zoi.s:99606  .debug_str:0000000000031aa8 .LASF6260
     /tmp/ccut0Zoi.s:97664  .debug_str:00000000000299b1 .LASF6261
     /tmp/ccut0Zoi.s:98642  .debug_str:000000000002da67 .LASF6262
     /tmp/ccut0Zoi.s:93038  .debug_str:000000000001677b .LASF6263
     /tmp/ccut0Zoi.s:100586  .debug_str:0000000000035a49 .LASF6264
     /tmp/ccut0Zoi.s:92656  .debug_str:0000000000014f0b .LASF6265
     /tmp/ccut0Zoi.s:99574  .debug_str:000000000003187c .LASF6266
     /tmp/ccut0Zoi.s:100664  .debug_str:0000000000035fad .LASF6267
     /tmp/ccut0Zoi.s:104530  .debug_str:0000000000045969 .LASF6268
     /tmp/ccut0Zoi.s:100392  .debug_str:0000000000034e8e .LASF6269
     /tmp/ccut0Zoi.s:100666  .debug_str:0000000000035fb3 .LASF6270
     /tmp/ccut0Zoi.s:98660  .debug_str:000000000002db92 .LASF6271
     /tmp/ccut0Zoi.s:88388  .debug_str:0000000000003a1b .LASF6272
     /tmp/ccut0Zoi.s:100668  .debug_str:0000000000035fb9 .LASF6273
     /tmp/ccut0Zoi.s:92676  .debug_str:000000000001502e .LASF6274
     /tmp/ccut0Zoi.s:91478  .debug_str:000000000001024a .LASF6275
     /tmp/ccut0Zoi.s:100670  .debug_str:0000000000035fbf .LASF6276
     /tmp/ccut0Zoi.s:105436  .debug_str:00000000000496a0 .LASF6277
     /tmp/ccut0Zoi.s:91480  .debug_str:0000000000010254 .LASF6278
     /tmp/ccut0Zoi.s:100672  .debug_str:0000000000035fc5 .LASF6279
     /tmp/ccut0Zoi.s:88406  .debug_str:0000000000003b12 .LASF6280
     /tmp/ccut0Zoi.s:97038  .debug_str:00000000000270e2 .LASF6281
     /tmp/ccut0Zoi.s:97820  .debug_str:000000000002a3ae .LASF6282
     /tmp/ccut0Zoi.s:90624  .debug_str:000000000000d218 .LASF6283
     /tmp/ccut0Zoi.s:105814  .debug_str:000000000004b230 .LASF6284
     /tmp/ccut0Zoi.s:100676  .debug_str:0000000000035fda .LASF6285
     /tmp/ccut0Zoi.s:87662  .debug_str:00000000000007a7 .LASF6286
     /tmp/ccut0Zoi.s:105818  .debug_str:000000000004b269 .LASF6287
     /tmp/ccut0Zoi.s:100678  .debug_str:0000000000035fe0 .LASF6288
     /tmp/ccut0Zoi.s:100488  .debug_str:00000000000354b6 .LASF6289
     /tmp/ccut0Zoi.s:91268  .debug_str:000000000000f70a .LASF6290
     /tmp/ccut0Zoi.s:100680  .debug_str:0000000000035fe6 .LASF6291
     /tmp/ccut0Zoi.s:94520  .debug_str:000000000001cca2 .LASF6292
     /tmp/ccut0Zoi.s:106204  .debug_str:000000000004cd11 .LASF6293
     /tmp/ccut0Zoi.s:100682  .debug_str:0000000000035fec .LASF6294
     /tmp/ccut0Zoi.s:88558  .debug_str:0000000000004596 .LASF6295
     /tmp/ccut0Zoi.s:99584  .debug_str:0000000000031909 .LASF6296
     /tmp/ccut0Zoi.s:100742  .debug_str:0000000000036485 .LASF6297
     /tmp/ccut0Zoi.s:100514  .debug_str:00000000000355ed .LASF6298
     /tmp/ccut0Zoi.s:96784  .debug_str:0000000000025f70 .LASF6299
     /tmp/ccut0Zoi.s:100744  .debug_str:000000000003648b .LASF6300
     /tmp/ccut0Zoi.s:94542  .debug_str:000000000001ce18 .LASF6301
     /tmp/ccut0Zoi.s:88432  .debug_str:0000000000003cdd .LASF6302
     /tmp/ccut0Zoi.s:100746  .debug_str:0000000000036491 .LASF6303
     /tmp/ccut0Zoi.s:88574  .debug_str:000000000000471c .LASF6304
     /tmp/ccut0Zoi.s:92704  .debug_str:00000000000152a2 .LASF6305
     /tmp/ccut0Zoi.s:100748  .debug_str:0000000000036497 .LASF6306
     /tmp/ccut0Zoi.s:101516  .debug_str:0000000000039093 .LASF6307
     /tmp/ccut0Zoi.s:92706  .debug_str:00000000000152ae .LASF6308
     /tmp/ccut0Zoi.s:100750  .debug_str:000000000003649d .LASF6309
     /tmp/ccut0Zoi.s:95516  .debug_str:000000000002116f .LASF6310
     /tmp/ccut0Zoi.s:92922  .debug_str:0000000000016049 .LASF6311
     /tmp/ccut0Zoi.s:100752  .debug_str:00000000000364a3 .LASF6312
     /tmp/ccut0Zoi.s:89478  .debug_str:000000000000839e .LASF6313
     /tmp/ccut0Zoi.s:88250  .debug_str:00000000000030de .LASF6314
     /tmp/ccut0Zoi.s:100754  .debug_str:00000000000364a9 .LASF6315
     /tmp/ccut0Zoi.s:102354  .debug_str:000000000003c936 .LASF6316
     /tmp/ccut0Zoi.s:88254  .debug_str:000000000000312a .LASF6317
     /tmp/ccut0Zoi.s:100756  .debug_str:00000000000364af .LASF6318
     /tmp/ccut0Zoi.s:96446  .debug_str:0000000000024900 .LASF6319
     /tmp/ccut0Zoi.s:96554  .debug_str:0000000000025049 .LASF6320
     /tmp/ccut0Zoi.s:100758  .debug_str:00000000000364b5 .LASF6321
     /tmp/ccut0Zoi.s:90408  .debug_str:000000000000c3a3 .LASF6322
     /tmp/ccut0Zoi.s:96062  .debug_str:00000000000235c2 .LASF6323
     /tmp/ccut0Zoi.s:100760  .debug_str:00000000000364bb .LASF6324
     /tmp/ccut0Zoi.s:103296  .debug_str:00000000000408b4 .LASF6325
     /tmp/ccut0Zoi.s:105884  .debug_str:000000000004b778 .LASF6326
     /tmp/ccut0Zoi.s:100824  .debug_str:00000000000368dc .LASF6327
     /tmp/ccut0Zoi.s:96468  .debug_str:0000000000024ae5 .LASF6328
     /tmp/ccut0Zoi.s:95676  .debug_str:0000000000021bf1 .LASF6329
     /tmp/ccut0Zoi.s:98112  .debug_str:000000000002b6c6 .LASF6330
     /tmp/ccut0Zoi.s:90430  .debug_str:000000000000c52f .LASF6331
     /tmp/ccut0Zoi.s:101488  .debug_str:0000000000038eaf .LASF6332
     /tmp/ccut0Zoi.s:100828  .debug_str:00000000000368ed .LASF6333
     /tmp/ccut0Zoi.s:103320  .debug_str:0000000000040a92 .LASF6334
     /tmp/ccut0Zoi.s:94674  .debug_str:000000000001d79f .LASF6335
     /tmp/ccut0Zoi.s:100830  .debug_str:00000000000368f3 .LASF6336
     /tmp/ccut0Zoi.s:97444  .debug_str:0000000000028c09 .LASF6337
     /tmp/ccut0Zoi.s:92790  .debug_str:000000000001578a .LASF6338
     /tmp/ccut0Zoi.s:100832  .debug_str:00000000000368f9 .LASF6339
     /tmp/ccut0Zoi.s:91408  .debug_str:000000000000fe9e .LASF6340
     /tmp/ccut0Zoi.s:92794  .debug_str:00000000000157a7 .LASF6341
     /tmp/ccut0Zoi.s:100834  .debug_str:00000000000368ff .LASF6342
     /tmp/ccut0Zoi.s:104258  .debug_str:00000000000446ea .LASF6343
     /tmp/ccut0Zoi.s:102356  .debug_str:000000000003c956 .LASF6344
     /tmp/ccut0Zoi.s:100836  .debug_str:0000000000036905 .LASF6345
     /tmp/ccut0Zoi.s:98418  .debug_str:000000000002ca80 .LASF6346
     /tmp/ccut0Zoi.s:87740  .debug_str:0000000000000cbe .LASF6347
     /tmp/ccut0Zoi.s:100838  .debug_str:000000000003690b .LASF6348
     /tmp/ccut0Zoi.s:92404  .debug_str:0000000000013f42 .LASF6349
     /tmp/ccut0Zoi.s:88332  .debug_str:00000000000035cc .LASF6350
     /tmp/ccut0Zoi.s:100840  .debug_str:0000000000036911 .LASF6351
     /tmp/ccut0Zoi.s:105168  .debug_str:0000000000048422 .LASF6352
     /tmp/ccut0Zoi.s:99490  .debug_str:00000000000312eb .LASF6353
     /tmp/ccut0Zoi.s:98130  .debug_str:000000000002b7de .LASF6354
     /tmp/ccut0Zoi.s:99306  .debug_str:00000000000305a9 .LASF6355
     /tmp/ccut0Zoi.s:97806  .debug_str:000000000002a2d1 .LASF6356
     /tmp/ccut0Zoi.s:100920  .debug_str:0000000000036df1 .LASF6357
     /tmp/ccut0Zoi.s:92590  .debug_str:0000000000014a8c .LASF6358
     /tmp/ccut0Zoi.s:97808  .debug_str:000000000002a2df .LASF6359
     /tmp/ccut0Zoi.s:100922  .debug_str:0000000000036df7 .LASF6360
     /tmp/ccut0Zoi.s:105362  .debug_str:00000000000491d2 .LASF6361
     /tmp/ccut0Zoi.s:91592  .debug_str:0000000000010a0d .LASF6362
     /tmp/ccut0Zoi.s:100924  .debug_str:0000000000036dfd .LASF6363
     /tmp/ccut0Zoi.s:99482  .debug_str:0000000000031294 .LASF6364
     /tmp/ccut0Zoi.s:93290  .debug_str:00000000000178df .LASF6365
     /tmp/ccut0Zoi.s:100926  .debug_str:0000000000036e03 .LASF6366
     /tmp/ccut0Zoi.s:93524  .debug_str:0000000000018744 .LASF6367
     /tmp/ccut0Zoi.s:93294  .debug_str:0000000000017927 .LASF6368
     /tmp/ccut0Zoi.s:100928  .debug_str:0000000000036e09 .LASF6369
     /tmp/ccut0Zoi.s:87578  .debug_str:00000000000001d4 .LASF6370
     /tmp/ccut0Zoi.s:92856  .debug_str:0000000000015b96 .LASF6371
     /tmp/ccut0Zoi.s:100930  .debug_str:0000000000036e0f .LASF6372
     /tmp/ccut0Zoi.s:102972  .debug_str:000000000003f35f .LASF6373
     /tmp/ccut0Zoi.s:91256  .debug_str:000000000000f66c .LASF6374
     /tmp/ccut0Zoi.s:100932  .debug_str:0000000000036e15 .LASF6375
     /tmp/ccut0Zoi.s:94464  .debug_str:000000000001c875 .LASF6376
     /tmp/ccut0Zoi.s:98792  .debug_str:000000000002e452 .LASF6377
     /tmp/ccut0Zoi.s:100934  .debug_str:0000000000036e1b .LASF6378
     /tmp/ccut0Zoi.s:88482  .debug_str:00000000000040ad .LASF6379
     /tmp/ccut0Zoi.s:104186  .debug_str:000000000004428e .LASF6380
     /tmp/ccut0Zoi.s:100936  .debug_str:0000000000036e21 .LASF6381
     /tmp/ccut0Zoi.s:101434  .debug_str:0000000000038b67 .LASF6382
     /tmp/ccut0Zoi.s:105604  .debug_str:000000000004a1e7 .LASF6383
     /tmp/ccut0Zoi.s:100938  .debug_str:0000000000036e27 .LASF6384
     /tmp/ccut0Zoi.s:95432  .debug_str:0000000000020c76 .LASF6385
     /tmp/ccut0Zoi.s:95596  .debug_str:0000000000021638 .LASF6386
     /tmp/ccut0Zoi.s:100990  .debug_str:000000000003714c .LASF6387
     /tmp/ccut0Zoi.s:88502  .debug_str:0000000000004269 .LASF6388
     /tmp/ccut0Zoi.s:97638  .debug_str:000000000002985e .LASF6389
     /tmp/ccut0Zoi.s:100992  .debug_str:0000000000037152 .LASF6390
     /tmp/ccut0Zoi.s:101452  .debug_str:0000000000038c26 .LASF6391
     /tmp/ccut0Zoi.s:101932  .debug_str:000000000003adbe .LASF6392
     /tmp/ccut0Zoi.s:100994  .debug_str:0000000000037158 .LASF6393
     /tmp/ccut0Zoi.s:95448  .debug_str:0000000000020d4a .LASF6394
     /tmp/ccut0Zoi.s:101936  .debug_str:000000000003ade4 .LASF6395
     /tmp/ccut0Zoi.s:100996  .debug_str:000000000003715e .LASF6396
     /tmp/ccut0Zoi.s:89408  .debug_str:0000000000007eee .LASF6397
     /tmp/ccut0Zoi.s:99928  .debug_str:0000000000032f0b .LASF6398
     /tmp/ccut0Zoi.s:100998  .debug_str:0000000000037164 .LASF6399
     /tmp/ccut0Zoi.s:102272  .debug_str:000000000003c485 .LASF6400
     /tmp/ccut0Zoi.s:93924  .debug_str:000000000001a387 .LASF6401
     /tmp/ccut0Zoi.s:101000  .debug_str:000000000003716a .LASF6402
     /tmp/ccut0Zoi.s:96358  .debug_str:00000000000244f8 .LASF6403
     /tmp/ccut0Zoi.s:93928  .debug_str:000000000001a3c8 .LASF6404
     /tmp/ccut0Zoi.s:101002  .debug_str:0000000000037170 .LASF6405
     /tmp/ccut0Zoi.s:90322  .debug_str:000000000000bdb1 .LASF6406
     /tmp/ccut0Zoi.s:93910  .debug_str:000000000001a2bf .LASF6407
     /tmp/ccut0Zoi.s:101004  .debug_str:0000000000037176 .LASF6408
     /tmp/ccut0Zoi.s:103200  .debug_str:0000000000040249 .LASF6409
     /tmp/ccut0Zoi.s:88082  .debug_str:0000000000002493 .LASF6410
     /tmp/ccut0Zoi.s:101006  .debug_str:000000000003717c .LASF6411
     /tmp/ccut0Zoi.s:97346  .debug_str:000000000002854c .LASF6412
     /tmp/ccut0Zoi.s:104240  .debug_str:0000000000044615 .LASF6413
     /tmp/ccut0Zoi.s:101008  .debug_str:0000000000037182 .LASF6414
     /tmp/ccut0Zoi.s:99122  .debug_str:000000000002f9e3 .LASF6415
     /tmp/ccut0Zoi.s:102600  .debug_str:000000000003d960 .LASF6416
     /tmp/ccut0Zoi.s:101072  .debug_str:0000000000037574 .LASF6417
     /tmp/ccut0Zoi.s:103234  .debug_str:0000000000040421 .LASF6418
     /tmp/ccut0Zoi.s:106080  .debug_str:000000000004c40e .LASF6419
     /tmp/ccut0Zoi.s:101074  .debug_str:000000000003757a .LASF6420
     /tmp/ccut0Zoi.s:97366  .debug_str:00000000000286bf .LASF6421
     /tmp/ccut0Zoi.s:102400  .debug_str:000000000003cc72 .LASF6422
     /tmp/ccut0Zoi.s:101076  .debug_str:0000000000037580 .LASF6423
     /tmp/ccut0Zoi.s:91330  .debug_str:000000000000fa0c .LASF6424
     /tmp/ccut0Zoi.s:88852  .debug_str:0000000000005a1e .LASF6425
     /tmp/ccut0Zoi.s:101078  .debug_str:0000000000037586 .LASF6426
     /tmp/ccut0Zoi.s:104192  .debug_str:00000000000442dd .LASF6427
     /tmp/ccut0Zoi.s:97524  .debug_str:00000000000290f5 .LASF6428
     /tmp/ccut0Zoi.s:101080  .debug_str:000000000003758c .LASF6429
     /tmp/ccut0Zoi.s:98346  .debug_str:000000000002c58e .LASF6430
     /tmp/ccut0Zoi.s:100962  .debug_str:0000000000036fac .LASF6431
     /tmp/ccut0Zoi.s:101082  .debug_str:0000000000037592 .LASF6432
     /tmp/ccut0Zoi.s:92324  .debug_str:0000000000013a7a .LASF6433
     /tmp/ccut0Zoi.s:96710  .debug_str:0000000000025b20 .LASF6434
     /tmp/ccut0Zoi.s:101084  .debug_str:0000000000037598 .LASF6435
     /tmp/ccut0Zoi.s:105088  .debug_str:0000000000047dfa .LASF6436
     /tmp/ccut0Zoi.s:93032  .debug_str:000000000001674e .LASF6437
     /tmp/ccut0Zoi.s:101086  .debug_str:000000000003759e .LASF6438
     /tmp/ccut0Zoi.s:99228  .debug_str:00000000000300e5 .LASF6439
     /tmp/ccut0Zoi.s:93036  .debug_str:000000000001676f .LASF6440
     /tmp/ccut0Zoi.s:101088  .debug_str:00000000000375a4 .LASF6441
     /tmp/ccut0Zoi.s:93266  .debug_str:000000000001775d .LASF6442
     /tmp/ccut0Zoi.s:96760  .debug_str:0000000000025d69 .LASF6443
     /tmp/ccut0Zoi.s:101090  .debug_str:00000000000375aa .LASF6444
     /tmp/ccut0Zoi.s:106066  .debug_str:000000000004c332 .LASF6445
     /tmp/ccut0Zoi.s:97060  .debug_str:0000000000027281 .LASF6446
     /tmp/ccut0Zoi.s:101156  .debug_str:00000000000379d7 .LASF6447
     /tmp/ccut0Zoi.s:99250  .debug_str:000000000003020c .LASF6448
     /tmp/ccut0Zoi.s:99990  .debug_str:0000000000033363 .LASF6449
     /tmp/ccut0Zoi.s:101158  .debug_str:00000000000379dd .LASF6450
     /tmp/ccut0Zoi.s:93284  .debug_str:000000000001788b .LASF6451
     /tmp/ccut0Zoi.s:99304  .debug_str:000000000003059b .LASF6452
     /tmp/ccut0Zoi.s:98720  .debug_str:000000000002df93 .LASF6453
     /tmp/ccut0Zoi.s:93700  .debug_str:0000000000019352 .LASF6454
     /tmp/ccut0Zoi.s:102512  .debug_str:000000000003d3e7 .LASF6455
     /tmp/ccut0Zoi.s:101162  .debug_str:0000000000037a00 .LASF6456
     /tmp/ccut0Zoi.s:100174  .debug_str:0000000000034060 .LASF6457
     /tmp/ccut0Zoi.s:88322  .debug_str:0000000000003533 .LASF6458
     /tmp/ccut0Zoi.s:98726  .debug_str:000000000002dfec .LASF6459
     /tmp/ccut0Zoi.s:94222  .debug_str:000000000001b811 .LASF6460
     /tmp/ccut0Zoi.s:93848  .debug_str:0000000000019ea6 .LASF6461
     /tmp/ccut0Zoi.s:101166  .debug_str:0000000000037a24 .LASF6462
     /tmp/ccut0Zoi.s:88282  .debug_str:0000000000003335 .LASF6463
     /tmp/ccut0Zoi.s:92136  .debug_str:0000000000012e73 .LASF6464
     /tmp/ccut0Zoi.s:101168  .debug_str:0000000000037a2a .LASF6465
     /tmp/ccut0Zoi.s:99430  .debug_str:0000000000030efd .LASF6466
     /tmp/ccut0Zoi.s:102022  .debug_str:000000000003b352 .LASF6467
     /tmp/ccut0Zoi.s:101170  .debug_str:0000000000037a30 .LASF6468
     /tmp/ccut0Zoi.s:95196  .debug_str:000000000001fc74 .LASF6469
     /tmp/ccut0Zoi.s:88236  .debug_str:0000000000003025 .LASF6470
     /tmp/ccut0Zoi.s:101172  .debug_str:0000000000037a36 .LASF6471
     /tmp/ccut0Zoi.s:89164  .debug_str:0000000000006fb9 .LASF6472
     /tmp/ccut0Zoi.s:96012  .debug_str:00000000000232c3 .LASF6473
     /tmp/ccut0Zoi.s:101174  .debug_str:0000000000037a3c .LASF6474
     /tmp/ccut0Zoi.s:102048  .debug_str:000000000003b529 .LASF6475
     /tmp/ccut0Zoi.s:100874  .debug_str:0000000000036b5f .LASF6476
     /tmp/ccut0Zoi.s:90884  .debug_str:000000000000e1c7 .LASF6477
     /tmp/ccut0Zoi.s:89132  .debug_str:0000000000006d5b .LASF6478
     /tmp/ccut0Zoi.s:100878  .debug_str:0000000000036ba6 .LASF6479
     /tmp/ccut0Zoi.s:92114  .debug_str:0000000000012d7f .LASF6480
     /tmp/ccut0Zoi.s:102020  .debug_str:000000000003b331 .LASF6481
     /tmp/ccut0Zoi.s:93708  .debug_str:00000000000193ff .LASF6482
     /tmp/ccut0Zoi.s:92118  .debug_str:0000000000012da5 .LASF6483
     /tmp/ccut0Zoi.s:93966  .debug_str:000000000001a651 .LASF6484
     /tmp/ccut0Zoi.s:96392  .debug_str:000000000002472c .LASF6485
     /tmp/ccut0Zoi.s:92122  .debug_str:0000000000012db4 .LASF6486
     /tmp/ccut0Zoi.s:90034  .debug_str:000000000000a941 .LASF6487
     /tmp/ccut0Zoi.s:96394  .debug_str:000000000002473b .LASF6488
     /tmp/ccut0Zoi.s:90892  .debug_str:000000000000e240 .LASF6489
     /tmp/ccut0Zoi.s:102902  .debug_str:000000000003eeb8 .LASF6490
     /tmp/ccut0Zoi.s:95450  .debug_str:0000000000020d6a .LASF6491
     /tmp/ccut0Zoi.s:90894  .debug_str:000000000000e247 .LASF6492
     /tmp/ccut0Zoi.s:97024  .debug_str:0000000000026f9e .LASF6493
     /tmp/ccut0Zoi.s:93330  .debug_str:0000000000017b69 .LASF6494
     /tmp/ccut0Zoi.s:90896  .debug_str:000000000000e24e .LASF6495
     /tmp/ccut0Zoi.s:90992  .debug_str:000000000000e66e .LASF6496
     /tmp/ccut0Zoi.s:90166  .debug_str:000000000000b36c .LASF6497
     /tmp/ccut0Zoi.s:90898  .debug_str:000000000000e255 .LASF6498
     /tmp/ccut0Zoi.s:103888  .debug_str:0000000000042f6e .LASF6499
     /tmp/ccut0Zoi.s:96610  .debug_str:0000000000025483 .LASF6500
     /tmp/ccut0Zoi.s:90900  .debug_str:000000000000e25c .LASF6501
     /tmp/ccut0Zoi.s:98008  .debug_str:000000000002b016 .LASF6502
     /tmp/ccut0Zoi.s:96612  .debug_str:0000000000025494 .LASF6503
     /tmp/ccut0Zoi.s:90902  .debug_str:000000000000e263 .LASF6504
     /tmp/ccut0Zoi.s:92002  .debug_str:0000000000012562 .LASF6505
     /tmp/ccut0Zoi.s:103276  .debug_str:0000000000040753 .LASF6506
     /tmp/ccut0Zoi.s:90960  .debug_str:000000000000e588 .LASF6507
     /tmp/ccut0Zoi.s:103912  .debug_str:00000000000430d5 .LASF6508
     /tmp/ccut0Zoi.s:92154  .debug_str:0000000000012fd1 .LASF6509
     /tmp/ccut0Zoi.s:90962  .debug_str:000000000000e58f .LASF6510
     /tmp/ccut0Zoi.s:98026  .debug_str:000000000002b128 .LASF6511
     /tmp/ccut0Zoi.s:92156  .debug_str:0000000000012fe2 .LASF6512
     /tmp/ccut0Zoi.s:90964  .debug_str:000000000000e596 .LASF6513
     /tmp/ccut0Zoi.s:92018  .debug_str:0000000000012668 .LASF6514
     /tmp/ccut0Zoi.s:89220  .debug_str:0000000000007333 .LASF6515
     /tmp/ccut0Zoi.s:92274  .debug_str:0000000000013764 .LASF6516
     /tmp/ccut0Zoi.s:104800  .debug_str:0000000000046b7e .LASF6517
     /tmp/ccut0Zoi.s:99128  .debug_str:000000000002fa22 .LASF6518
     /tmp/ccut0Zoi.s:90968  .debug_str:000000000000e5c1 .LASF6519
     /tmp/ccut0Zoi.s:98942  .debug_str:000000000002eedd .LASF6520
     /tmp/ccut0Zoi.s:99134  .debug_str:000000000002fa6b .LASF6521
     /tmp/ccut0Zoi.s:90970  .debug_str:000000000000e5c8 .LASF6522
     /tmp/ccut0Zoi.s:92964  .debug_str:00000000000162e9 .LASF6523
     /tmp/ccut0Zoi.s:89780  .debug_str:0000000000009864 .LASF6524
     /tmp/ccut0Zoi.s:90972  .debug_str:000000000000e5cf .LASF6525
     /tmp/ccut0Zoi.s:88496  .debug_str:0000000000004213 .LASF6526
     /tmp/ccut0Zoi.s:87636  .debug_str:0000000000000623 .LASF6527
     /tmp/ccut0Zoi.s:90974  .debug_str:000000000000e5d6 .LASF6528
     /tmp/ccut0Zoi.s:99870  .debug_str:0000000000032b59 .LASF6529
     /tmp/ccut0Zoi.s:89322  .debug_str:0000000000007946 .LASF6530
     /tmp/ccut0Zoi.s:90976  .debug_str:000000000000e5dd .LASF6531
     /tmp/ccut0Zoi.s:93906  .debug_str:000000000001a293 .LASF6532
     /tmp/ccut0Zoi.s:99176  .debug_str:000000000002fd9c .LASF6533
     /tmp/ccut0Zoi.s:90978  .debug_str:000000000000e5e4 .LASF6534
     /tmp/ccut0Zoi.s:87936  .debug_str:0000000000001a78 .LASF6535
     /tmp/ccut0Zoi.s:95076  .debug_str:000000000001f41a .LASF6536
     /tmp/ccut0Zoi.s:91054  .debug_str:000000000000eac7 .LASF6537
     /tmp/ccut0Zoi.s:99890  .debug_str:0000000000032d0e .LASF6538
     /tmp/ccut0Zoi.s:99268  .debug_str:0000000000030314 .LASF6539
     /tmp/ccut0Zoi.s:91056  .debug_str:000000000000eace .LASF6540
     /tmp/ccut0Zoi.s:92674  .debug_str:000000000001500d .LASF6541
     /tmp/ccut0Zoi.s:92434  .debug_str:00000000000140ee .LASF6542
     /tmp/ccut0Zoi.s:91058  .debug_str:000000000000ead5 .LASF6543
     /tmp/ccut0Zoi.s:87956  .debug_str:0000000000001bc9 .LASF6544
     /tmp/ccut0Zoi.s:94794  .debug_str:000000000001df89 .LASF6545
     /tmp/ccut0Zoi.s:91060  .debug_str:000000000000eadc .LASF6546
     /tmp/ccut0Zoi.s:104862  .debug_str:0000000000046f93 .LASF6547
     /tmp/ccut0Zoi.s:94796  .debug_str:000000000001df98 .LASF6548
     /tmp/ccut0Zoi.s:91062  .debug_str:000000000000eae3 .LASF6549
     /tmp/ccut0Zoi.s:94862  .debug_str:000000000001e4d7 .LASF6550
     /tmp/ccut0Zoi.s:88494  .debug_str:0000000000004206 .LASF6551
     /tmp/ccut0Zoi.s:91064  .debug_str:000000000000eaea .LASF6552
     /tmp/ccut0Zoi.s:88882  .debug_str:0000000000005bfb .LASF6553
     /tmp/ccut0Zoi.s:87962  .debug_str:0000000000001c53 .LASF6554
     /tmp/ccut0Zoi.s:95108  .debug_str:000000000001f701 .LASF6555
     /tmp/ccut0Zoi.s:101778  .debug_str:000000000003a2fb .LASF6556
     /tmp/ccut0Zoi.s:87966  .debug_str:0000000000001c8f .LASF6557
     /tmp/ccut0Zoi.s:91068  .debug_str:000000000000eb19 .LASF6558
     /tmp/ccut0Zoi.s:87888  .debug_str:00000000000016d6 .LASF6559
     /tmp/ccut0Zoi.s:106164  .debug_str:000000000004ca45 .LASF6560
     /tmp/ccut0Zoi.s:91070  .debug_str:000000000000eb20 .LASF6561
     /tmp/ccut0Zoi.s:95444  .debug_str:0000000000020d1c .LASF6562
     /tmp/ccut0Zoi.s:102278  .debug_str:000000000003c4f5 .LASF6563
     /tmp/ccut0Zoi.s:91072  .debug_str:000000000000eb27 .LASF6564
     /tmp/ccut0Zoi.s:102644  .debug_str:000000000003dc0c .LASF6565
     /tmp/ccut0Zoi.s:94454  .debug_str:000000000001c7b0 .LASF6566
     /tmp/ccut0Zoi.s:92582  .debug_str:0000000000014a3f .LASF6567
     /tmp/ccut0Zoi.s:102466  .debug_str:000000000003d0c6 .LASF6568
     /tmp/ccut0Zoi.s:94620  .debug_str:000000000001d3d6 .LASF6569
     /tmp/ccut0Zoi.s:91128  .debug_str:000000000000ee91 .LASF6570
     /tmp/ccut0Zoi.s:89750  .debug_str:00000000000096b5 .LASF6571
     /tmp/ccut0Zoi.s:102980  .debug_str:000000000003f3f8 .LASF6572
     /tmp/ccut0Zoi.s:91130  .debug_str:000000000000ee98 .LASF6573
     /tmp/ccut0Zoi.s:102668  .debug_str:000000000003ddaf .LASF6574
     /tmp/ccut0Zoi.s:92170  .debug_str:0000000000013092 .LASF6575
     /tmp/ccut0Zoi.s:91132  .debug_str:000000000000ee9f .LASF6576
     /tmp/ccut0Zoi.s:96790  .debug_str:0000000000025fc2 .LASF6577
     /tmp/ccut0Zoi.s:99968  .debug_str:00000000000331a8 .LASF6578
     /tmp/ccut0Zoi.s:91134  .debug_str:000000000000eea6 .LASF6579
     /tmp/ccut0Zoi.s:90724  .debug_str:000000000000d7ce .LASF6580
     /tmp/ccut0Zoi.s:89076  .debug_str:0000000000006973 .LASF6581
     /tmp/ccut0Zoi.s:91136  .debug_str:000000000000eead .LASF6582
     /tmp/ccut0Zoi.s:103616  .debug_str:0000000000041e46 .LASF6583
     /tmp/ccut0Zoi.s:92564  .debug_str:000000000001490c .LASF6584
     /tmp/ccut0Zoi.s:92606  .debug_str:0000000000014bbe .LASF6585
     /tmp/ccut0Zoi.s:97766  .debug_str:000000000002a0be .LASF6586
     /tmp/ccut0Zoi.s:100504  .debug_str:00000000000355a5 .LASF6587
     /tmp/ccut0Zoi.s:91140  .debug_str:000000000000eee2 .LASF6588
     /tmp/ccut0Zoi.s:96972  .debug_str:0000000000026c21 .LASF6589
     /tmp/ccut0Zoi.s:100882  .debug_str:0000000000036bde .LASF6590
     /tmp/ccut0Zoi.s:91142  .debug_str:000000000000eee9 .LASF6591
     /tmp/ccut0Zoi.s:104570  .debug_str:0000000000045bcc .LASF6592
     /tmp/ccut0Zoi.s:98776  .debug_str:000000000002e2f4 .LASF6593
     /tmp/ccut0Zoi.s:92612  .debug_str:0000000000014c11 .LASF6594
     /tmp/ccut0Zoi.s:101362  .debug_str:000000000003862d .LASF6595
     /tmp/ccut0Zoi.s:95236  .debug_str:000000000001febf .LASF6596
     /tmp/ccut0Zoi.s:91210  .debug_str:000000000000f3ed .LASF6597
     /tmp/ccut0Zoi.s:99728  .debug_str:0000000000032263 .LASF6598
     /tmp/ccut0Zoi.s:92336  .debug_str:0000000000013b07 .LASF6599
     /tmp/ccut0Zoi.s:91212  .debug_str:000000000000f3f4 .LASF6600
     /tmp/ccut0Zoi.s:104588  .debug_str:0000000000045cf4 .LASF6601
     /tmp/ccut0Zoi.s:88850  .debug_str:0000000000005a13 .LASF6602
     /tmp/ccut0Zoi.s:91214  .debug_str:000000000000f3fb .LASF6603
     /tmp/ccut0Zoi.s:98728  .debug_str:000000000002dff2 .LASF6604
     /tmp/ccut0Zoi.s:92804  .debug_str:0000000000015836 .LASF6605
     /tmp/ccut0Zoi.s:91216  .debug_str:000000000000f402 .LASF6606
     /tmp/ccut0Zoi.s:92728  .debug_str:00000000000153fa .LASF6607
     /tmp/ccut0Zoi.s:92784  .debug_str:0000000000015736 .LASF6608
     /tmp/ccut0Zoi.s:91218  .debug_str:000000000000f409 .LASF6609
     /tmp/ccut0Zoi.s:105500  .debug_str:0000000000049ae6 .LASF6610
     /tmp/ccut0Zoi.s:91772  .debug_str:00000000000115e1 .LASF6611
     /tmp/ccut0Zoi.s:91220  .debug_str:000000000000f410 .LASF6612
     /tmp/ccut0Zoi.s:92768  .debug_str:00000000000155e3 .LASF6613
     /tmp/ccut0Zoi.s:94324  .debug_str:000000000001bf73 .LASF6614
     /tmp/ccut0Zoi.s:92754  .debug_str:0000000000015571 .LASF6615
     /tmp/ccut0Zoi.s:98924  .debug_str:000000000002ed5d .LASF6616
     /tmp/ccut0Zoi.s:98086  .debug_str:000000000002b55c .LASF6617
     /tmp/ccut0Zoi.s:92756  .debug_str:0000000000015578 .LASF6618
     /tmp/ccut0Zoi.s:87718  .debug_str:0000000000000b63 .LASF6619
     /tmp/ccut0Zoi.s:99798  .debug_str:00000000000326e6 .LASF6620
     /tmp/ccut0Zoi.s:92758  .debug_str:000000000001557f .LASF6621
     /tmp/ccut0Zoi.s:100544  .debug_str:0000000000035810 .LASF6622
     /tmp/ccut0Zoi.s:88842  .debug_str:00000000000059a6 .LASF6623
     /tmp/ccut0Zoi.s:92760  .debug_str:0000000000015586 .LASF6624
     /tmp/ccut0Zoi.s:94582  .debug_str:000000000001d108 .LASF6625
     /tmp/ccut0Zoi.s:102914  .debug_str:000000000003efb9 .LASF6626
     /tmp/ccut0Zoi.s:91296  .debug_str:000000000000f8cf .LASF6627
     /tmp/ccut0Zoi.s:87734  .debug_str:0000000000000c43 .LASF6628
     /tmp/ccut0Zoi.s:93580  .debug_str:0000000000018b43 .LASF6629
     /tmp/ccut0Zoi.s:91298  .debug_str:000000000000f8d6 .LASF6630
     /tmp/ccut0Zoi.s:102978  .debug_str:000000000003f3d7 .LASF6631
     /tmp/ccut0Zoi.s:104230  .debug_str:0000000000044555 .LASF6632
     /tmp/ccut0Zoi.s:91300  .debug_str:000000000000f8dd .LASF6633
     /tmp/ccut0Zoi.s:94604  .debug_str:000000000001d2b7 .LASF6634
     /tmp/ccut0Zoi.s:89910  .debug_str:000000000000a100 .LASF6635
     /tmp/ccut0Zoi.s:91302  .debug_str:000000000000f8e4 .LASF6636
     /tmp/ccut0Zoi.s:104268  .debug_str:0000000000044794 .LASF6637
     /tmp/ccut0Zoi.s:98366  .debug_str:000000000002c6dc .LASF6638
     /tmp/ccut0Zoi.s:91304  .debug_str:000000000000f8eb .LASF6639
     /tmp/ccut0Zoi.s:101570  .debug_str:000000000003944b .LASF6640
     /tmp/ccut0Zoi.s:91706  .debug_str:0000000000011138 .LASF6641
     /tmp/ccut0Zoi.s:91306  .debug_str:000000000000f8f2 .LASF6642
     /tmp/ccut0Zoi.s:95588  .debug_str:00000000000215b9 .LASF6643
     /tmp/ccut0Zoi.s:105098  .debug_str:0000000000047ebd .LASF6644
     /tmp/ccut0Zoi.s:91308  .debug_str:000000000000f8f9 .LASF6645
     /tmp/ccut0Zoi.s:89524  .debug_str:000000000000868d .LASF6646
     /tmp/ccut0Zoi.s:93766  .debug_str:000000000001984e .LASF6647
     /tmp/ccut0Zoi.s:91310  .debug_str:000000000000f900 .LASF6648
     /tmp/ccut0Zoi.s:102420  .debug_str:000000000003cde2 .LASF6649
     /tmp/ccut0Zoi.s:105902  .debug_str:000000000004b89d .LASF6650
     /tmp/ccut0Zoi.s:91312  .debug_str:000000000000f907 .LASF6651
     /tmp/ccut0Zoi.s:96518  .debug_str:0000000000024df1 .LASF6652
     /tmp/ccut0Zoi.s:87984  .debug_str:0000000000001d93 .LASF6653
     /tmp/ccut0Zoi.s:91314  .debug_str:000000000000f90e .LASF6654
     /tmp/ccut0Zoi.s:90470  .debug_str:000000000000c7b8 .LASF6655
     /tmp/ccut0Zoi.s:89258  .debug_str:0000000000007585 .LASF6656
     /tmp/ccut0Zoi.s:91360  .debug_str:000000000000fc13 .LASF6657
     /tmp/ccut0Zoi.s:102596  .debug_str:000000000003d926 .LASF6658
     /tmp/ccut0Zoi.s:97990  .debug_str:000000000002af37 .LASF6659
     /tmp/ccut0Zoi.s:91362  .debug_str:000000000000fc1a .LASF6660
     /tmp/ccut0Zoi.s:96692  .debug_str:00000000000259c3 .LASF6661
     /tmp/ccut0Zoi.s:101550  .debug_str:000000000003935f .LASF6662
     /tmp/ccut0Zoi.s:91364  .debug_str:000000000000fc21 .LASF6663
     /tmp/ccut0Zoi.s:90642  .debug_str:000000000000d33e .LASF6664
     /tmp/ccut0Zoi.s:102546  .debug_str:000000000003d627 .LASF6665
     /tmp/ccut0Zoi.s:94654  .debug_str:000000000001d67f .LASF6666
     /tmp/ccut0Zoi.s:103542  .debug_str:0000000000041974 .LASF6667
     /tmp/ccut0Zoi.s:102312  .debug_str:000000000003c78f .LASF6668
     /tmp/ccut0Zoi.s:91368  .debug_str:000000000000fc49 .LASF6669
     /tmp/ccut0Zoi.s:97690  .debug_str:0000000000029af7 .LASF6670
     /tmp/ccut0Zoi.s:92898  .debug_str:0000000000015e79 .LASF6671
     /tmp/ccut0Zoi.s:91370  .debug_str:000000000000fc50 .LASF6672
     /tmp/ccut0Zoi.s:87772  .debug_str:0000000000000eec .LASF6673
     /tmp/ccut0Zoi.s:101448  .debug_str:0000000000038c0b .LASF6674
     /tmp/ccut0Zoi.s:91372  .debug_str:000000000000fc57 .LASF6675
     /tmp/ccut0Zoi.s:93898  .debug_str:000000000001a1e4 .LASF6676
     /tmp/ccut0Zoi.s:99436  .debug_str:0000000000030fa2 .LASF6677
     /tmp/ccut0Zoi.s:91374  .debug_str:000000000000fc5e .LASF6678
     /tmp/ccut0Zoi.s:98628  .debug_str:000000000002d904 .LASF6679
     /tmp/ccut0Zoi.s:98620  .debug_str:000000000002d86c .LASF6680
     /tmp/ccut0Zoi.s:91376  .debug_str:000000000000fc65 .LASF6681
     /tmp/ccut0Zoi.s:106106  .debug_str:000000000004c5e9 .LASF6682
     /tmp/ccut0Zoi.s:94332  .debug_str:000000000001bff4 .LASF6683
     /tmp/ccut0Zoi.s:91378  .debug_str:000000000000fc6c .LASF6684
     /tmp/ccut0Zoi.s:105404  .debug_str:0000000000049452 .LASF6685
     /tmp/ccut0Zoi.s:87906  .debug_str:0000000000001858 .LASF6686
     /tmp/ccut0Zoi.s:93192  .debug_str:000000000001727b .LASF6687
     /tmp/ccut0Zoi.s:98650  .debug_str:000000000002dad8 .LASF6688
     /tmp/ccut0Zoi.s:89782  .debug_str:0000000000009870 .LASF6689
     /tmp/ccut0Zoi.s:93196  .debug_str:00000000000172b6 .LASF6690
     /tmp/ccut0Zoi.s:92666  .debug_str:0000000000014fb0 .LASF6691
     /tmp/ccut0Zoi.s:89786  .debug_str:0000000000009892 .LASF6692
     /tmp/ccut0Zoi.s:91448  .debug_str:00000000000100e5 .LASF6693
     /tmp/ccut0Zoi.s:105430  .debug_str:000000000004962a .LASF6694
     /tmp/ccut0Zoi.s:101036  .debug_str:000000000003734e .LASF6695
     /tmp/ccut0Zoi.s:91450  .debug_str:00000000000100ec .LASF6696
     /tmp/ccut0Zoi.s:91446  .debug_str:00000000000100c4 .LASF6697
     /tmp/ccut0Zoi.s:101012  .debug_str:00000000000371ab .LASF6698
     /tmp/ccut0Zoi.s:91452  .debug_str:00000000000100f3 .LASF6699
     /tmp/ccut0Zoi.s:93588  .debug_str:0000000000018bad .LASF6700
     /tmp/ccut0Zoi.s:101016  .debug_str:00000000000371f5 .LASF6701
     /tmp/ccut0Zoi.s:91454  .debug_str:00000000000100fa .LASF6702
     /tmp/ccut0Zoi.s:87646  .debug_str:00000000000006b4 .LASF6703
     /tmp/ccut0Zoi.s:101328  .debug_str:00000000000383d9 .LASF6704
     /tmp/ccut0Zoi.s:91456  .debug_str:0000000000010101 .LASF6705
     /tmp/ccut0Zoi.s:100472  .debug_str:00000000000353c5 .LASF6706
     /tmp/ccut0Zoi.s:96532  .debug_str:0000000000024eb5 .LASF6707
     /tmp/ccut0Zoi.s:91458  .debug_str:0000000000010108 .LASF6708
     /tmp/ccut0Zoi.s:94510  .debug_str:000000000001cbfa .LASF6709
     /tmp/ccut0Zoi.s:96536  .debug_str:0000000000024f04 .LASF6710
     /tmp/ccut0Zoi.s:91460  .debug_str:000000000001010f .LASF6711
     /tmp/ccut0Zoi.s:88544  .debug_str:00000000000044c1 .LASF6712
     /tmp/ccut0Zoi.s:102300  .debug_str:000000000003c69f .LASF6713
     /tmp/ccut0Zoi.s:93214  .debug_str:00000000000173b6 .LASF6714
     /tmp/ccut0Zoi.s:90584  .debug_str:000000000000cf74 .LASF6715
     /tmp/ccut0Zoi.s:94134  .debug_str:000000000001b260 .LASF6716
     /tmp/ccut0Zoi.s:91530  .debug_str:0000000000010638 .LASF6717
     /tmp/ccut0Zoi.s:94522  .debug_str:000000000001ccc2 .LASF6718
     /tmp/ccut0Zoi.s:94138  .debug_str:000000000001b28b .LASF6719
     /tmp/ccut0Zoi.s:91532  .debug_str:000000000001063f .LASF6720
     /tmp/ccut0Zoi.s:88560  .debug_str:00000000000045b6 .LASF6721
     /tmp/ccut0Zoi.s:101498  .debug_str:0000000000038f4e .LASF6722
     /tmp/ccut0Zoi.s:91534  .debug_str:0000000000010646 .LASF6723
     /tmp/ccut0Zoi.s:101502  .debug_str:0000000000038f89 .LASF6724
     /tmp/ccut0Zoi.s:89584  .debug_str:0000000000008b1c .LASF6725
     /tmp/ccut0Zoi.s:93356  .debug_str:0000000000017d2c .LASF6726
     /tmp/ccut0Zoi.s:95500  .debug_str:000000000002101d .LASF6727
     /tmp/ccut0Zoi.s:89588  .debug_str:0000000000008b47 .LASF6728
     /tmp/ccut0Zoi.s:91538  .debug_str:0000000000010690 .LASF6729
     /tmp/ccut0Zoi.s:89464  .debug_str:00000000000082ac .LASF6730
     /tmp/ccut0Zoi.s:92744  .debug_str:00000000000154d6 .LASF6731
     /tmp/ccut0Zoi.s:91540  .debug_str:0000000000010697 .LASF6732
     /tmp/ccut0Zoi.s:102330  .debug_str:000000000003c872 .LASF6733
     /tmp/ccut0Zoi.s:95036  .debug_str:000000000001f178 .LASF6734
     /tmp/ccut0Zoi.s:91542  .debug_str:000000000001069e .LASF6735
     /tmp/ccut0Zoi.s:96432  .debug_str:000000000002483e .LASF6736
     /tmp/ccut0Zoi.s:88538  .debug_str:0000000000004481 .LASF6737
     /tmp/ccut0Zoi.s:91544  .debug_str:00000000000106a5 .LASF6738
     /tmp/ccut0Zoi.s:90388  .debug_str:000000000000c228 .LASF6739
     /tmp/ccut0Zoi.s:98532  .debug_str:000000000002d2ac .LASF6740
     /tmp/ccut0Zoi.s:93372  .debug_str:0000000000017da6 .LASF6741
     /tmp/ccut0Zoi.s:103280  .debug_str:000000000004078e .LASF6742
     /tmp/ccut0Zoi.s:90488  .debug_str:000000000000c934 .LASF6743
     /tmp/ccut0Zoi.s:91548  .debug_str:00000000000106d6 .LASF6744
     /tmp/ccut0Zoi.s:97410  .debug_str:0000000000028988 .LASF6745
     /tmp/ccut0Zoi.s:90492  .debug_str:000000000000c977 .LASF6746
     /tmp/ccut0Zoi.s:91620  .debug_str:0000000000010bf2 .LASF6747
     /tmp/ccut0Zoi.s:90418  .debug_str:000000000000c461 .LASF6748
     /tmp/ccut0Zoi.s:93830  .debug_str:0000000000019d6c .LASF6749
     /tmp/ccut0Zoi.s:91622  .debug_str:0000000000010bf9 .LASF6750
     /tmp/ccut0Zoi.s:103304  .debug_str:000000000004095d .LASF6751
     /tmp/ccut0Zoi.s:104576  .debug_str:0000000000045c0c .LASF6752
     /tmp/ccut0Zoi.s:91624  .debug_str:0000000000010c00 .LASF6753
     /tmp/ccut0Zoi.s:97430  .debug_str:0000000000028abe .LASF6754
     /tmp/ccut0Zoi.s:89998  .debug_str:000000000000a6f9 .LASF6755
     /tmp/ccut0Zoi.s:95396  .debug_str:0000000000020a0d .LASF6756
     /tmp/ccut0Zoi.s:104630  .debug_str:0000000000045f8d .LASF6757
     /tmp/ccut0Zoi.s:92952  .debug_str:0000000000016218 .LASF6758
     /tmp/ccut0Zoi.s:91628  .debug_str:0000000000010c31 .LASF6759
     /tmp/ccut0Zoi.s:104250  .debug_str:000000000004465b .LASF6760
     /tmp/ccut0Zoi.s:104386  .debug_str:0000000000044fdd .LASF6761
     /tmp/ccut0Zoi.s:91630  .debug_str:0000000000010c38 .LASF6762
     /tmp/ccut0Zoi.s:98404  .debug_str:000000000002c9d6 .LASF6763
     /tmp/ccut0Zoi.s:104390  .debug_str:0000000000045019 .LASF6764
     /tmp/ccut0Zoi.s:91632  .debug_str:0000000000010c3f .LASF6765
     /tmp/ccut0Zoi.s:92384  .debug_str:0000000000013de9 .LASF6766
     /tmp/ccut0Zoi.s:102694  .debug_str:000000000003df48 .LASF6767
     /tmp/ccut0Zoi.s:91634  .debug_str:0000000000010c46 .LASF6768
     /tmp/ccut0Zoi.s:91566  .debug_str:00000000000107fa .LASF6769
     /tmp/ccut0Zoi.s:97572  .debug_str:00000000000293cc .LASF6770
     /tmp/ccut0Zoi.s:93518  .debug_str:00000000000186e9 .LASF6771
     /tmp/ccut0Zoi.s:99288  .debug_str:0000000000030482 .LASF6772
     /tmp/ccut0Zoi.s:100908  .debug_str:0000000000036d58 .LASF6773
     /tmp/ccut0Zoi.s:91638  .debug_str:0000000000010c73 .LASF6774
     /tmp/ccut0Zoi.s:93324  .debug_str:0000000000017afc .LASF6775
     /tmp/ccut0Zoi.s:100694  .debug_str:000000000003610a .LASF6776
     /tmp/ccut0Zoi.s:96064  .debug_str:00000000000235cf .LASF6777
     /tmp/ccut0Zoi.s:100918  .debug_str:0000000000036dd0 .LASF6778
     /tmp/ccut0Zoi.s:100698  .debug_str:0000000000036141 .LASF6779
     /tmp/ccut0Zoi.s:96066  .debug_str:00000000000235d6 .LASF6780
     /tmp/ccut0Zoi.s:101740  .debug_str:000000000003a067 .LASF6781
     /tmp/ccut0Zoi.s:100952  .debug_str:0000000000036eff .LASF6782
     /tmp/ccut0Zoi.s:96068  .debug_str:00000000000235dd .LASF6783
     /tmp/ccut0Zoi.s:88948  .debug_str:0000000000006038 .LASF6784
     /tmp/ccut0Zoi.s:96204  .debug_str:0000000000023deb .LASF6785
     /tmp/ccut0Zoi.s:96070  .debug_str:00000000000235e4 .LASF6786
     /tmp/ccut0Zoi.s:101852  .debug_str:000000000003a832 .LASF6787
     /tmp/ccut0Zoi.s:96208  .debug_str:0000000000023e0a .LASF6788
     /tmp/ccut0Zoi.s:96072  .debug_str:00000000000235eb .LASF6789
     /tmp/ccut0Zoi.s:95864  .debug_str:000000000002283f .LASF6790
     /tmp/ccut0Zoi.s:92844  .debug_str:0000000000015b33 .LASF6791
     /tmp/ccut0Zoi.s:96074  .debug_str:00000000000235f2 .LASF6792
     /tmp/ccut0Zoi.s:106124  .debug_str:000000000004c741 .LASF6793
     /tmp/ccut0Zoi.s:94664  .debug_str:000000000001d70e .LASF6794
     /tmp/ccut0Zoi.s:96076  .debug_str:00000000000235f9 .LASF6795
     /tmp/ccut0Zoi.s:105530  .debug_str:0000000000049d70 .LASF6796
     /tmp/ccut0Zoi.s:100916  .debug_str:0000000000036dc0 .LASF6797
     /tmp/ccut0Zoi.s:96078  .debug_str:0000000000023600 .LASF6798
     /tmp/ccut0Zoi.s:96832  .debug_str:0000000000026304 .LASF6799
     /tmp/ccut0Zoi.s:104490  .debug_str:00000000000456ba .LASF6800
     /tmp/ccut0Zoi.s:96080  .debug_str:0000000000023607 .LASF6801
     /tmp/ccut0Zoi.s:90776  .debug_str:000000000000db48 .LASF6802
     /tmp/ccut0Zoi.s:101972  .debug_str:000000000003b011 .LASF6803
     /tmp/ccut0Zoi.s:96082  .debug_str:000000000002360e .LASF6804
     /tmp/ccut0Zoi.s:103670  .debug_str:0000000000042256 .LASF6805
     /tmp/ccut0Zoi.s:89360  .debug_str:0000000000007b9c .LASF6806
     /tmp/ccut0Zoi.s:96136  .debug_str:0000000000023a6b .LASF6807
     /tmp/ccut0Zoi.s:96854  .debug_str:0000000000026464 .LASF6808
     /tmp/ccut0Zoi.s:89362  .debug_str:0000000000007bab .LASF6809
     /tmp/ccut0Zoi.s:96138  .debug_str:0000000000023a72 .LASF6810
     /tmp/ccut0Zoi.s:90804  .debug_str:000000000000dd2d .LASF6811
     /tmp/ccut0Zoi.s:89596  .debug_str:0000000000008bb2 .LASF6812
     /tmp/ccut0Zoi.s:96140  .debug_str:0000000000023a79 .LASF6813
     /tmp/ccut0Zoi.s:103694  .debug_str:00000000000423bc .LASF6814
     /tmp/ccut0Zoi.s:103752  .debug_str:000000000004276b .LASF6815
     /tmp/ccut0Zoi.s:96142  .debug_str:0000000000023a80 .LASF6816
     /tmp/ccut0Zoi.s:97844  .debug_str:000000000002a544 .LASF6817
     /tmp/ccut0Zoi.s:103756  .debug_str:0000000000042784 .LASF6818
     /tmp/ccut0Zoi.s:102526  .debug_str:000000000003d50e .LASF6819
     /tmp/ccut0Zoi.s:91834  .debug_str:0000000000011a62 .LASF6820
     /tmp/ccut0Zoi.s:93526  .debug_str:0000000000018764 .LASF6821
     /tmp/ccut0Zoi.s:96146  .debug_str:0000000000023ac6 .LASF6822
     /tmp/ccut0Zoi.s:104628  .debug_str:0000000000045f6c .LASF6823
     /tmp/ccut0Zoi.s:89842  .debug_str:0000000000009c8c .LASF6824
     /tmp/ccut0Zoi.s:96148  .debug_str:0000000000023acd .LASF6825
     /tmp/ccut0Zoi.s:98768  .debug_str:000000000002e272 .LASF6826
     /tmp/ccut0Zoi.s:89846  .debug_str:0000000000009ca0 .LASF6827
     /tmp/ccut0Zoi.s:96150  .debug_str:0000000000023ad4 .LASF6828
     /tmp/ccut0Zoi.s:92772  .debug_str:0000000000015647 .LASF6829
     /tmp/ccut0Zoi.s:102294  .debug_str:000000000003c650 .LASF6830
     /tmp/ccut0Zoi.s:96152  .debug_str:0000000000023adb .LASF6831
     /tmp/ccut0Zoi.s:105552  .debug_str:0000000000049ef6 .LASF6832
     /tmp/ccut0Zoi.s:100526  .debug_str:00000000000356e0 .LASF6833
     /tmp/ccut0Zoi.s:96154  .debug_str:0000000000023ae2 .LASF6834
     /tmp/ccut0Zoi.s:99680  .debug_str:0000000000031efd .LASF6835
     /tmp/ccut0Zoi.s:96132  .debug_str:0000000000023a50 .LASF6836
     /tmp/ccut0Zoi.s:96226  .debug_str:0000000000023f60 .LASF6837
     /tmp/ccut0Zoi.s:89886  .debug_str:0000000000009f2a .LASF6838
     /tmp/ccut0Zoi.s:104244  .debug_str:000000000004463e .LASF6839
     /tmp/ccut0Zoi.s:96228  .debug_str:0000000000023f67 .LASF6840
     /tmp/ccut0Zoi.s:96060  .debug_str:00000000000235a1 .LASF6841
     /tmp/ccut0Zoi.s:104246  .debug_str:0000000000044649 .LASF6842
     /tmp/ccut0Zoi.s:102684  .debug_str:000000000003ded9 .LASF6843
     /tmp/ccut0Zoi.s:99706  .debug_str:00000000000320bf .LASF6844
     /tmp/ccut0Zoi.s:104558  .debug_str:0000000000045add .LASF6845
     /tmp/ccut0Zoi.s:96232  .debug_str:0000000000023fa3 .LASF6846
     /tmp/ccut0Zoi.s:93736  .debug_str:00000000000195e3 .LASF6847
     /tmp/ccut0Zoi.s:88844  .debug_str:00000000000059b5 .LASF6848
     /tmp/ccut0Zoi.s:96234  .debug_str:0000000000023faa .LASF6849
     /tmp/ccut0Zoi.s:87782  .debug_str:0000000000000f9d .LASF6850
     /tmp/ccut0Zoi.s:98502  .debug_str:000000000002d079 .LASF6851
     /tmp/ccut0Zoi.s:96236  .debug_str:0000000000023fb1 .LASF6852
     /tmp/ccut0Zoi.s:100626  .debug_str:0000000000035cea .LASF6853
     /tmp/ccut0Zoi.s:89420  .debug_str:0000000000007ff1 .LASF6854
     /tmp/ccut0Zoi.s:96238  .debug_str:0000000000023fb8 .LASF6855
     /tmp/ccut0Zoi.s:94644  .debug_str:000000000001d5cc .LASF6856
     /tmp/ccut0Zoi.s:99596  .debug_str:00000000000319fa .LASF6857
     /tmp/ccut0Zoi.s:96240  .debug_str:0000000000023fbf .LASF6858
     /tmp/ccut0Zoi.s:88680  .debug_str:0000000000004e30 .LASF6859
     /tmp/ccut0Zoi.s:98396  .debug_str:000000000002c966 .LASF6860
     /tmp/ccut0Zoi.s:96242  .debug_str:0000000000023fc6 .LASF6861
     /tmp/ccut0Zoi.s:101604  .debug_str:0000000000039647 .LASF6862
     /tmp/ccut0Zoi.s:98440  .debug_str:000000000002cc02 .LASF6863
     /tmp/ccut0Zoi.s:96244  .debug_str:0000000000023fcd .LASF6864
     /tmp/ccut0Zoi.s:95626  .debug_str:0000000000021837 .LASF6865
     /tmp/ccut0Zoi.s:92940  .debug_str:000000000001618a .LASF6866
     /tmp/ccut0Zoi.s:96318  .debug_str:00000000000243a0 .LASF6867
     /tmp/ccut0Zoi.s:101280  .debug_str:00000000000380bd .LASF6868
     /tmp/ccut0Zoi.s:92948  .debug_str:00000000000161f5 .LASF6869
     /tmp/ccut0Zoi.s:96320  .debug_str:00000000000243a7 .LASF6870
     /tmp/ccut0Zoi.s:101626  .debug_str:00000000000397ba .LASF6871
     /tmp/ccut0Zoi.s:89488  .debug_str:0000000000008454 .LASF6872
     /tmp/ccut0Zoi.s:96322  .debug_str:00000000000243ae .LASF6873
     /tmp/ccut0Zoi.s:95640  .debug_str:000000000002194f .LASF6874
     /tmp/ccut0Zoi.s:100564  .debug_str:00000000000359d0 .LASF6875
     /tmp/ccut0Zoi.s:96324  .debug_str:00000000000243b5 .LASF6876
     /tmp/ccut0Zoi.s:89580  .debug_str:0000000000008adc .LASF6877
     /tmp/ccut0Zoi.s:105136  .debug_str:000000000004820f .LASF6878
     /tmp/ccut0Zoi.s:96326  .debug_str:00000000000243bc .LASF6879
     /tmp/ccut0Zoi.s:92882  .debug_str:0000000000015d43 .LASF6880
     /tmp/ccut0Zoi.s:98046  .debug_str:000000000002b2b7 .LASF6881
     /tmp/ccut0Zoi.s:96328  .debug_str:00000000000243c3 .LASF6882
     /tmp/ccut0Zoi.s:96572  .debug_str:000000000002514d .LASF6883
     /tmp/ccut0Zoi.s:98048  .debug_str:000000000002b2c3 .LASF6884
     /tmp/ccut0Zoi.s:96330  .debug_str:00000000000243ca .LASF6885
     /tmp/ccut0Zoi.s:90532  .debug_str:000000000000cc21 .LASF6886
     /tmp/ccut0Zoi.s:98050  .debug_str:000000000002b2cf .LASF6887
     /tmp/ccut0Zoi.s:96332  .debug_str:00000000000243d1 .LASF6888
     /tmp/ccut0Zoi.s:103434  .debug_str:00000000000412c7 .LASF6889
     /tmp/ccut0Zoi.s:92990  .debug_str:00000000000164a4 .LASF6890
     /tmp/ccut0Zoi.s:96334  .debug_str:00000000000243d8 .LASF6891
     /tmp/ccut0Zoi.s:97578  .debug_str:0000000000029415 .LASF6892
     /tmp/ccut0Zoi.s:89178  .debug_str:000000000000706c .LASF6893
     /tmp/ccut0Zoi.s:96336  .debug_str:00000000000243df .LASF6894
     /tmp/ccut0Zoi.s:91520  .debug_str:0000000000010581 .LASF6895
     /tmp/ccut0Zoi.s:92994  .debug_str:00000000000164bf .LASF6896
     /tmp/ccut0Zoi.s:96404  .debug_str:00000000000247b4 .LASF6897
     /tmp/ccut0Zoi.s:103460  .debug_str:0000000000041473 .LASF6898
     /tmp/ccut0Zoi.s:96748  .debug_str:0000000000025cdd .LASF6899
     /tmp/ccut0Zoi.s:96406  .debug_str:00000000000247bb .LASF6900
     /tmp/ccut0Zoi.s:97598  .debug_str:000000000002951c .LASF6901
     /tmp/ccut0Zoi.s:99916  .debug_str:0000000000032e8c .LASF6902
     /tmp/ccut0Zoi.s:96408  .debug_str:00000000000247c2 .LASF6903
     /tmp/ccut0Zoi.s:91552  .debug_str:00000000000106ed .LASF6904
     /tmp/ccut0Zoi.s:90696  .debug_str:000000000000d619 .LASF6905
     /tmp/ccut0Zoi.s:96410  .debug_str:00000000000247c9 .LASF6906
     /tmp/ccut0Zoi.s:104384  .debug_str:0000000000044fbc .LASF6907
     /tmp/ccut0Zoi.s:97134  .debug_str:0000000000027774 .LASF6908
     /tmp/ccut0Zoi.s:96412  .debug_str:00000000000247d0 .LASF6909
     /tmp/ccut0Zoi.s:89988  .debug_str:000000000000a64b .LASF6910
     /tmp/ccut0Zoi.s:90700  .debug_str:000000000000d648 .LASF6911
     /tmp/ccut0Zoi.s:96414  .debug_str:00000000000247d7 .LASF6912
     /tmp/ccut0Zoi.s:99900  .debug_str:0000000000032dc8 .LASF6913
     /tmp/ccut0Zoi.s:106042  .debug_str:000000000004c1e4 .LASF6914
     /tmp/ccut0Zoi.s:96416  .debug_str:00000000000247de .LASF6915
     /tmp/ccut0Zoi.s:105310  .debug_str:0000000000048e0c .LASF6916
     /tmp/ccut0Zoi.s:106044  .debug_str:000000000004c1ee .LASF6917
     /tmp/ccut0Zoi.s:96418  .debug_str:00000000000247e5 .LASF6918
     /tmp/ccut0Zoi.s:89572  .debug_str:0000000000008a42 .LASF6919
     /tmp/ccut0Zoi.s:101378  .debug_str:0000000000038753 .LASF6920
     /tmp/ccut0Zoi.s:96420  .debug_str:00000000000247ec .LASF6921
     /tmp/ccut0Zoi.s:93462  .debug_str:000000000001832d .LASF6922
     /tmp/ccut0Zoi.s:106048  .debug_str:000000000004c228 .LASF6923
     /tmp/ccut0Zoi.s:96422  .debug_str:00000000000247f3 .LASF6924
     /tmp/ccut0Zoi.s:106254  .debug_str:000000000004d065 .LASF6925
     /tmp/ccut0Zoi.s:91940  .debug_str:0000000000012146 .LASF6926
     /tmp/ccut0Zoi.s:96492  .debug_str:0000000000024c62 .LASF6927
     /tmp/ccut0Zoi.s:100324  .debug_str:0000000000034a87 .LASF6928
     /tmp/ccut0Zoi.s:99694  .debug_str:0000000000032038 .LASF6929
     /tmp/ccut0Zoi.s:90946  .debug_str:000000000000e527 .LASF6930
     /tmp/ccut0Zoi.s:98822  .debug_str:000000000002e64a .LASF6931
     /tmp/ccut0Zoi.s:99696  .debug_str:0000000000032044 .LASF6932
     /tmp/ccut0Zoi.s:90950  .debug_str:000000000000e543 .LASF6933
     /tmp/ccut0Zoi.s:92836  .debug_str:0000000000015a90 .LASF6934
     /tmp/ccut0Zoi.s:99698  .debug_str:0000000000032050 .LASF6935
     /tmp/ccut0Zoi.s:92286  .debug_str:0000000000013820 .LASF6936
     /tmp/ccut0Zoi.s:105628  .debug_str:000000000004a32a .LASF6937
     /tmp/ccut0Zoi.s:102568  .debug_str:000000000003d76e .LASF6938
     /tmp/ccut0Zoi.s:93008  .debug_str:000000000001657e .LASF6939
     /tmp/ccut0Zoi.s:95818  .debug_str:0000000000022525 .LASF6940
     /tmp/ccut0Zoi.s:101770  .debug_str:000000000003a291 .LASF6941
     /tmp/ccut0Zoi.s:101240  .debug_str:0000000000037d9f .LASF6942
     /tmp/ccut0Zoi.s:98946  .debug_str:000000000002ef1c .LASF6943
     /tmp/ccut0Zoi.s:90928  .debug_str:000000000000e410 .LASF6944
     /tmp/ccut0Zoi.s:103458  .debug_str:000000000004144d .LASF6945
     /tmp/ccut0Zoi.s:102696  .debug_str:000000000003df5a .LASF6946
     /tmp/ccut0Zoi.s:90886  .debug_str:000000000000e1ce .LASF6947
     /tmp/ccut0Zoi.s:94734  .debug_str:000000000001dbd0 .LASF6948
     /tmp/ccut0Zoi.s:102584  .debug_str:000000000003d86d .LASF6949
     /tmp/ccut0Zoi.s:89274  .debug_str:0000000000007643 .LASF6950
     /tmp/ccut0Zoi.s:91900  .debug_str:0000000000011e5e .LASF6951
     /tmp/ccut0Zoi.s:102692  .debug_str:000000000003df3c .LASF6952
     /tmp/ccut0Zoi.s:100024  .debug_str:00000000000335d3 .LASF6953
     /tmp/ccut0Zoi.s:101566  .debug_str:000000000003942d .LASF6954
     /tmp/ccut0Zoi.s:103692  .debug_str:00000000000423ae .LASF6955
     /tmp/ccut0Zoi.s:96674  .debug_str:00000000000258bb .LASF6956
     /tmp/ccut0Zoi.s:94304  .debug_str:000000000001be1a .LASF6957
     /tmp/ccut0Zoi.s:97646  .debug_str:00000000000298d1 .LASF6958
     /tmp/ccut0Zoi.s:99380  .debug_str:0000000000030b68 .LASF6959
     /tmp/ccut0Zoi.s:101470  .debug_str:0000000000038d71 .LASF6960
     /tmp/ccut0Zoi.s:90872  .debug_str:000000000000e0c0 .LASF6961
     /tmp/ccut0Zoi.s:104500  .debug_str:0000000000045756 .LASF6962
     /tmp/ccut0Zoi.s:103848  .debug_str:0000000000042d18 .LASF6963
     /tmp/ccut0Zoi.s:95102  .debug_str:000000000001f657 .LASF6964
     /tmp/ccut0Zoi.s:93670  .debug_str:000000000001917e .LASF6965
     /tmp/ccut0Zoi.s:88590  .debug_str:0000000000004823 .LASF6966
     /tmp/ccut0Zoi.s:90424  .debug_str:000000000000c4b3 .LASF6967
     /tmp/ccut0Zoi.s:95284  .debug_str:0000000000020219 .LASF6968
     /tmp/ccut0Zoi.s:103364  .debug_str:0000000000040dc4 .LASF6969
     /tmp/ccut0Zoi.s:88426  .debug_str:0000000000003c65 .LASF6970
     /tmp/ccut0Zoi.s:102874  .debug_str:000000000003ec6c .LASF6971
     /tmp/ccut0Zoi.s:93908  .debug_str:000000000001a2b4 .LASF6972
     /tmp/ccut0Zoi.s:102450  .debug_str:000000000003cfcf .LASF6973
     /tmp/ccut0Zoi.s:88092  .debug_str:0000000000002556 .LASF6974
     /tmp/ccut0Zoi.s:102080  .debug_str:000000000003b777 .LASF6975
     /tmp/ccut0Zoi.s:91574  .debug_str:00000000000108a8 .LASF6976
     /tmp/ccut0Zoi.s:99918  .debug_str:0000000000032e94 .LASF6977
     /tmp/ccut0Zoi.s:104532  .debug_str:0000000000045989 .LASF6978
     /tmp/ccut0Zoi.s:101010  .debug_str:0000000000037188 .LASF6979
     /tmp/ccut0Zoi.s:88704  .debug_str:0000000000004fae .LASF6980
     /tmp/ccut0Zoi.s:96884  .debug_str:00000000000266d8 .LASF6981
     /tmp/ccut0Zoi.s:87588  .debug_str:0000000000000267 .LASF6982
     /tmp/ccut0Zoi.s:97648  .debug_str:00000000000298f9 .LASF6983
     /tmp/ccut0Zoi.s:97370  .debug_str:00000000000286f2 .LASF6984
     /tmp/ccut0Zoi.s:104980  .debug_str:0000000000047712 .LASF6985
     /tmp/ccut0Zoi.s:96950  .debug_str:0000000000026b03 .LASF6986
     /tmp/ccut0Zoi.s:88872  .debug_str:0000000000005ba3 .LASF6987
     /tmp/ccut0Zoi.s:103096  .debug_str:000000000003fbcf .LASF6988
     /tmp/ccut0Zoi.s:103054  .debug_str:000000000003f88d .LASF6989
     /tmp/ccut0Zoi.s:90148  .debug_str:000000000000b1da .LASF6990
     /tmp/ccut0Zoi.s:104786  .debug_str:0000000000046abf .LASF6991
     /tmp/ccut0Zoi.s:105442  .debug_str:00000000000496f7 .LASF6992
     /tmp/ccut0Zoi.s:102990  .debug_str:000000000003f45b .LASF6993
     /tmp/ccut0Zoi.s:88798  .debug_str:00000000000056ea .LASF6994
     /tmp/ccut0Zoi.s:92610  .debug_str:0000000000014bea .LASF6995
     /tmp/ccut0Zoi.s:93028  .debug_str:0000000000016727 .LASF6996
     /tmp/ccut0Zoi.s:99036  .debug_str:000000000002f4f0 .LASF6997
     /tmp/ccut0Zoi.s:99940  .debug_str:0000000000032fb7 .LASF6998
     /tmp/ccut0Zoi.s:97874  .debug_str:000000000002a759 .LASF6999
     /tmp/ccut0Zoi.s:97830  .debug_str:000000000002a427 .LASF7000
     /tmp/ccut0Zoi.s:95630  .debug_str:0000000000021871 .LASF7001
     /tmp/ccut0Zoi.s:103898  .debug_str:0000000000042ffb .LASF7002
     /tmp/ccut0Zoi.s:101106  .debug_str:0000000000037697 .LASF7003
     /tmp/ccut0Zoi.s:95612  .debug_str:000000000002174e .LASF7004
     /tmp/ccut0Zoi.s:93406  .debug_str:0000000000017f8d .LASF7005
     /tmp/ccut0Zoi.s:101732  .debug_str:0000000000039fed .LASF7006
     /tmp/ccut0Zoi.s:90988  .debug_str:000000000000e637 .LASF7007
     /tmp/ccut0Zoi.s:99368  .debug_str:0000000000030ad1 .LASF7008
     /tmp/ccut0Zoi.s:101108  .debug_str:000000000003769e .LASF7009
     /tmp/ccut0Zoi.s:89550  .debug_str:00000000000088a6 .LASF7010
     /tmp/ccut0Zoi.s:101896  .debug_str:000000000003ab5a .LASF7011
     /tmp/ccut0Zoi.s:99276  .debug_str:00000000000303c1 .LASF7012
     /tmp/ccut0Zoi.s:100346  .debug_str:0000000000034bf1 .LASF7013
     /tmp/ccut0Zoi.s:98416  .debug_str:000000000002ca6c .LASF7014
     /tmp/ccut0Zoi.s:104032  .debug_str:00000000000438f6 .LASF7015
     /tmp/ccut0Zoi.s:98892  .debug_str:000000000002eadc .LASF7016
     /tmp/ccut0Zoi.s:88366  .debug_str:000000000000386b .LASF7017
     /tmp/ccut0Zoi.s:104034  .debug_str:0000000000043904 .LASF7018
     /tmp/ccut0Zoi.s:92908  .debug_str:0000000000015ef7 .LASF7019
     /tmp/ccut0Zoi.s:96776  .debug_str:0000000000025ebd .LASF7020
     /tmp/ccut0Zoi.s:104036  .debug_str:0000000000043912 .LASF7021
     /tmp/ccut0Zoi.s:105700  .debug_str:000000000004a959 .LASF7022
     /tmp/ccut0Zoi.s:95856  .debug_str:00000000000227dc .LASF7023
     /tmp/ccut0Zoi.s:101674  .debug_str:0000000000039b6c .LASF7024
     /tmp/ccut0Zoi.s:99814  .debug_str:000000000003276a .LASF7025
     /tmp/ccut0Zoi.s:89732  .debug_str:0000000000009577 .LASF7026
     /tmp/ccut0Zoi.s:104040  .debug_str:0000000000043962 .LASF7027
     /tmp/ccut0Zoi.s:93852  .debug_str:0000000000019ecb .LASF7028
     /tmp/ccut0Zoi.s:100654  .debug_str:0000000000035f01 .LASF7029
     /tmp/ccut0Zoi.s:104042  .debug_str:0000000000043970 .LASF7030
     /tmp/ccut0Zoi.s:101404  .debug_str:0000000000038941 .LASF7031
     /tmp/ccut0Zoi.s:103194  .debug_str:00000000000401f8 .LASF7032
     /tmp/ccut0Zoi.s:98584  .debug_str:000000000002d5c5 .LASF7033
     /tmp/ccut0Zoi.s:98586  .debug_str:000000000002d5d7 .LASF7034
     /tmp/ccut0Zoi.s:98590  .debug_str:000000000002d615 .LASF7035
     /tmp/ccut0Zoi.s:101612  .debug_str:00000000000396c4 .LASF7036
     /tmp/ccut0Zoi.s:104294  .debug_str:0000000000044957 .LASF7037
     /tmp/ccut0Zoi.s:103202  .debug_str:0000000000040269 .LASF7038
     /tmp/ccut0Zoi.s:103204  .debug_str:000000000004027b .LASF7039
     /tmp/ccut0Zoi.s:103206  .debug_str:000000000004028d .LASF7040
     /tmp/ccut0Zoi.s:103208  .debug_str:000000000004029f .LASF7041
     /tmp/ccut0Zoi.s:101614  .debug_str:00000000000396d3 .LASF7042
     /tmp/ccut0Zoi.s:98448  .debug_str:000000000002cc7a .LASF7043
     /tmp/ccut0Zoi.s:100590  .debug_str:0000000000035a57 .LASF7044
     /tmp/ccut0Zoi.s:104438  .debug_str:00000000000453a3 .LASF7045
     /tmp/ccut0Zoi.s:96586  .debug_str:000000000002528c .LASF7046
     /tmp/ccut0Zoi.s:100336  .debug_str:0000000000034b48 .LASF7047
     /tmp/ccut0Zoi.s:101646  .debug_str:0000000000039943 .LASF7048
     /tmp/ccut0Zoi.s:103998  .debug_str:0000000000043698 .LASF7049
     /tmp/ccut0Zoi.s:102550  .debug_str:000000000003d666 .LASF7050
     /tmp/ccut0Zoi.s:99644  .debug_str:0000000000031c86 .LASF7051
     /tmp/ccut0Zoi.s:92830  .debug_str:0000000000015a17 .LASF7052
     /tmp/ccut0Zoi.s:104004  .debug_str:00000000000436f2 .LASF7053
     /tmp/ccut0Zoi.s:87864  .debug_str:000000000000150b .LASF7054
     /tmp/ccut0Zoi.s:104998  .debug_str:000000000004784f .LASF7055
     /tmp/ccut0Zoi.s:102132  .debug_str:000000000003bb56 .LASF7056
     /tmp/ccut0Zoi.s:87610  .debug_str:0000000000000414 .LASF7057
     /tmp/ccut0Zoi.s:97190  .debug_str:0000000000027be0 .LASF7058
     /tmp/ccut0Zoi.s:89150  .debug_str:0000000000006ec3 .LASF7059
     /tmp/ccut0Zoi.s:88998  .debug_str:00000000000063ae .LASF7060
     /tmp/ccut0Zoi.s:98090  .debug_str:000000000002b57a .LASF7061
     /tmp/ccut0Zoi.s:98092  .debug_str:000000000002b592 .LASF7062
     /tmp/ccut0Zoi.s:98094  .debug_str:000000000002b5aa .LASF7063
     /tmp/ccut0Zoi.s:98096  .debug_str:000000000002b5c2 .LASF7064
     /tmp/ccut0Zoi.s:103548  .debug_str:0000000000041a11 .LASF7065
     /tmp/ccut0Zoi.s:105976  .debug_str:000000000004bd48 .LASF7066
     /tmp/ccut0Zoi.s:98098  .debug_str:000000000002b5da .LASF7067
     /tmp/ccut0Zoi.s:91222  .debug_str:000000000000f417 .LASF7068
     /tmp/ccut0Zoi.s:91224  .debug_str:000000000000f435 .LASF7069
     /tmp/ccut0Zoi.s:91226  .debug_str:000000000000f453 .LASF7070
     /tmp/ccut0Zoi.s:91228  .debug_str:000000000000f471 .LASF7071
     /tmp/ccut0Zoi.s:91230  .debug_str:000000000000f48f .LASF7072
     /tmp/ccut0Zoi.s:94942  .debug_str:000000000001ea24 .LASF7073
     /tmp/ccut0Zoi.s:90916  .debug_str:000000000000e370 .LASF7074
     /tmp/ccut0Zoi.s:94946  .debug_str:000000000001ea51 .LASF7075
     /tmp/ccut0Zoi.s:94948  .debug_str:000000000001ea6e .LASF7076
     /tmp/ccut0Zoi.s:94950  .debug_str:000000000001ea8b .LASF7077
     /tmp/ccut0Zoi.s:106148  .debug_str:000000000004c953 .LASF7078
     /tmp/ccut0Zoi.s:106150  .debug_str:000000000004c96d .LASF7079
     /tmp/ccut0Zoi.s:106152  .debug_str:000000000004c987 .LASF7080
     /tmp/ccut0Zoi.s:106154  .debug_str:000000000004c9a1 .LASF7081
     /tmp/ccut0Zoi.s:106156  .debug_str:000000000004c9bb .LASF7082
     /tmp/ccut0Zoi.s:100762  .debug_str:00000000000364c1 .LASF7083
     /tmp/ccut0Zoi.s:102936  .debug_str:000000000003f11e .LASF7084
     /tmp/ccut0Zoi.s:103550  .debug_str:0000000000041a29 .LASF7085
     /tmp/ccut0Zoi.s:102588  .debug_str:000000000003d898 .LASF7086
     /tmp/ccut0Zoi.s:100126  .debug_str:0000000000033d5e .LASF7087
     /tmp/ccut0Zoi.s:89224  .debug_str:0000000000007372 .LASF7088
     /tmp/ccut0Zoi.s:89226  .debug_str:000000000000738f .LASF7089
     /tmp/ccut0Zoi.s:100136  .debug_str:0000000000033def .LASF7090
     /tmp/ccut0Zoi.s:88148  .debug_str:0000000000002949 .LASF7091
     /tmp/ccut0Zoi.s:97966  .debug_str:000000000002ad72 .LASF7092
     /tmp/ccut0Zoi.s:89230  .debug_str:00000000000073ec .LASF7093
     /tmp/ccut0Zoi.s:98306  .debug_str:000000000002c2e3 .LASF7094
     /tmp/ccut0Zoi.s:98308  .debug_str:000000000002c306 .LASF7095
     /tmp/ccut0Zoi.s:98310  .debug_str:000000000002c329 .LASF7096
     /tmp/ccut0Zoi.s:98312  .debug_str:000000000002c34c .LASF7097
     /tmp/ccut0Zoi.s:98314  .debug_str:000000000002c36f .LASF7098
     /tmp/ccut0Zoi.s:95220  .debug_str:000000000001fdd2 .LASF7099
     /tmp/ccut0Zoi.s:95222  .debug_str:000000000001fdf4 .LASF7100
     /tmp/ccut0Zoi.s:96282  .debug_str:00000000000241b1 .LASF7101
     /tmp/ccut0Zoi.s:95226  .debug_str:000000000001fe27 .LASF7102
     /tmp/ccut0Zoi.s:95228  .debug_str:000000000001fe49 .LASF7103
     /tmp/ccut0Zoi.s:97894  .debug_str:000000000002a8b8 .LASF7104
     /tmp/ccut0Zoi.s:97896  .debug_str:000000000002a8d7 .LASF7105
     /tmp/ccut0Zoi.s:97898  .debug_str:000000000002a8f6 .LASF7106
     /tmp/ccut0Zoi.s:100988  .debug_str:000000000003712d .LASF7107
     /tmp/ccut0Zoi.s:97902  .debug_str:000000000002a923 .LASF7108
     /tmp/ccut0Zoi.s:98014  .debug_str:000000000002b05d .LASF7109
     /tmp/ccut0Zoi.s:103086  .debug_str:000000000003fae1 .LASF7110
     /tmp/ccut0Zoi.s:88150  .debug_str:0000000000002966 .LASF7111
     /tmp/ccut0Zoi.s:95202  .debug_str:000000000001fce3 .LASF7112
     /tmp/ccut0Zoi.s:99730  .debug_str:0000000000032284 .LASF7113
     /tmp/ccut0Zoi.s:99732  .debug_str:000000000003229c .LASF7114
     /tmp/ccut0Zoi.s:99734  .debug_str:00000000000322b4 .LASF7115
     /tmp/ccut0Zoi.s:99736  .debug_str:00000000000322cc .LASF7116
     /tmp/ccut0Zoi.s:94416  .debug_str:000000000001c574 .LASF7117
     /tmp/ccut0Zoi.s:93956  .debug_str:000000000001a58f .LASF7118
     /tmp/ccut0Zoi.s:99738  .debug_str:00000000000322e4 .LASF7119
     /tmp/ccut0Zoi.s:92936  .debug_str:000000000001614e .LASF7120
     /tmp/ccut0Zoi.s:92938  .debug_str:000000000001616c .LASF7121
     /tmp/ccut0Zoi.s:103174  .debug_str:000000000004011f .LASF7122
     /tmp/ccut0Zoi.s:92942  .debug_str:0000000000016195 .LASF7123
     /tmp/ccut0Zoi.s:92944  .debug_str:00000000000161b3 .LASF7124
     /tmp/ccut0Zoi.s:96616  .debug_str:00000000000254c9 .LASF7125
     /tmp/ccut0Zoi.s:96618  .debug_str:00000000000254e6 .LASF7126
     /tmp/ccut0Zoi.s:96620  .debug_str:0000000000025503 .LASF7127
     /tmp/ccut0Zoi.s:96622  .debug_str:0000000000025520 .LASF7128
     /tmp/ccut0Zoi.s:96624  .debug_str:000000000002553d .LASF7129
     /tmp/ccut0Zoi.s:89048  .debug_str:0000000000006760 .LASF7130
     /tmp/ccut0Zoi.s:89050  .debug_str:000000000000677a .LASF7131
     /tmp/ccut0Zoi.s:89052  .debug_str:0000000000006794 .LASF7132
     /tmp/ccut0Zoi.s:89054  .debug_str:00000000000067ae .LASF7133
     /tmp/ccut0Zoi.s:89056  .debug_str:00000000000067c8 .LASF7134
     /tmp/ccut0Zoi.s:92354  .debug_str:0000000000013c39 .LASF7135
     /tmp/ccut0Zoi.s:99946  .debug_str:0000000000033025 .LASF7136
     /tmp/ccut0Zoi.s:94420  .debug_str:000000000001c5a8 .LASF7137
     /tmp/ccut0Zoi.s:87988  .debug_str:0000000000001dca .LASF7138
     /tmp/ccut0Zoi.s:91658  .debug_str:0000000000010da0 .LASF7139
     /tmp/ccut0Zoi.s:91660  .debug_str:0000000000010db7 .LASF7140
     /tmp/ccut0Zoi.s:91662  .debug_str:0000000000010dce .LASF7141
     /tmp/ccut0Zoi.s:105750  .debug_str:000000000004adc3 .LASF7142
     /tmp/ccut0Zoi.s:92438  .debug_str:000000000001410b .LASF7143
     /tmp/ccut0Zoi.s:96174  .debug_str:0000000000023bfd .LASF7144
     /tmp/ccut0Zoi.s:91666  .debug_str:0000000000010df6 .LASF7145
     /tmp/ccut0Zoi.s:102536  .debug_str:000000000003d596 .LASF7146
     /tmp/ccut0Zoi.s:102538  .debug_str:000000000003d5b3 .LASF7147
     /tmp/ccut0Zoi.s:102540  .debug_str:000000000003d5d0 .LASF7148
     /tmp/ccut0Zoi.s:102542  .debug_str:000000000003d5ed .LASF7149
     /tmp/ccut0Zoi.s:102544  .debug_str:000000000003d60a .LASF7150
     /tmp/ccut0Zoi.s:92478  .debug_str:0000000000014369 .LASF7151
     /tmp/ccut0Zoi.s:92480  .debug_str:0000000000014385 .LASF7152
     /tmp/ccut0Zoi.s:88086  .debug_str:00000000000024e4 .LASF7153
     /tmp/ccut0Zoi.s:92484  .debug_str:00000000000143d1 .LASF7154
     /tmp/ccut0Zoi.s:92486  .debug_str:00000000000143ed .LASF7155
     /tmp/ccut0Zoi.s:98294  .debug_str:000000000002c22c .LASF7156
     /tmp/ccut0Zoi.s:98296  .debug_str:000000000002c245 .LASF7157
     /tmp/ccut0Zoi.s:98298  .debug_str:000000000002c25e .LASF7158
     /tmp/ccut0Zoi.s:98300  .debug_str:000000000002c277 .LASF7159
     /tmp/ccut0Zoi.s:98302  .debug_str:000000000002c290 .LASF7160
     /tmp/ccut0Zoi.s:99516  .debug_str:00000000000314af .LASF7161
     /tmp/ccut0Zoi.s:101456  .debug_str:0000000000038c6f .LASF7162
     /tmp/ccut0Zoi.s:92440  .debug_str:0000000000014122 .LASF7163
     /tmp/ccut0Zoi.s:93530  .debug_str:00000000000187a3 .LASF7164
     /tmp/ccut0Zoi.s:92514  .debug_str:0000000000014579 .LASF7165
     /tmp/ccut0Zoi.s:92516  .debug_str:000000000001459c .LASF7166
     /tmp/ccut0Zoi.s:92518  .debug_str:00000000000145bf .LASF7167
     /tmp/ccut0Zoi.s:92520  .debug_str:00000000000145e2 .LASF7168
     /tmp/ccut0Zoi.s:92522  .debug_str:0000000000014605 .LASF7169
     /tmp/ccut0Zoi.s:106018  .debug_str:000000000004c07f .LASF7170
     /tmp/ccut0Zoi.s:103232  .debug_str:00000000000403eb .LASF7171
     /tmp/ccut0Zoi.s:104716  .debug_str:00000000000465ce .LASF7172
     /tmp/ccut0Zoi.s:103218  .debug_str:0000000000040320 .LASF7173
     /tmp/ccut0Zoi.s:103220  .debug_str:0000000000040344 .LASF7174
     /tmp/ccut0Zoi.s:103900  .debug_str:0000000000043008 .LASF7175
     /tmp/ccut0Zoi.s:103904  .debug_str:000000000004304f .LASF7176
     /tmp/ccut0Zoi.s:103226  .debug_str:0000000000040389 .LASF7177
     /tmp/ccut0Zoi.s:98744  .debug_str:000000000002e0fa .LASF7178
     /tmp/ccut0Zoi.s:105928  .debug_str:000000000004ba57 .LASF7179
     /tmp/ccut0Zoi.s:95110  .debug_str:000000000001f708 .LASF7180
     /tmp/ccut0Zoi.s:90562  .debug_str:000000000000ce0d .LASF7181
     /tmp/ccut0Zoi.s:98194  .debug_str:000000000002bb60 .LASF7182
     /tmp/ccut0Zoi.s:105384  .debug_str:000000000004932c .LASF7183
     /tmp/ccut0Zoi.s:98560  .debug_str:000000000002d4aa .LASF7184
     /tmp/ccut0Zoi.s:95120  .debug_str:000000000001f817 .LASF7185
     /tmp/ccut0Zoi.s:89196  .debug_str:000000000000715c .LASF7186
     /tmp/ccut0Zoi.s:100872  .debug_str:0000000000036b58 .LASF7187
     /tmp/ccut0Zoi.s:91146  .debug_str:000000000000ef07 .LASF7188
     /tmp/ccut0Zoi.s:89966  .debug_str:000000000000a4d8 .LASF7189
     /tmp/ccut0Zoi.s:94386  .debug_str:000000000001c2f8 .LASF7190
     /tmp/ccut0Zoi.s:89808  .debug_str:0000000000009a4b .LASF7191
     /tmp/ccut0Zoi.s:89288  .debug_str:0000000000007794 .LASF7192
     /tmp/ccut0Zoi.s:97390  .debug_str:0000000000028853 .LASF7193
     /tmp/ccut0Zoi.s:104062  .debug_str:0000000000043ae8 .LASF7194
     /tmp/ccut0Zoi.s:97952  .debug_str:000000000002ac48 .LASF7195
     /tmp/ccut0Zoi.s:95118  .debug_str:000000000001f801 .LASF7196
     /tmp/ccut0Zoi.s:92926  .debug_str:00000000000160a9 .LASF7197
     /tmp/ccut0Zoi.s:106220  .debug_str:000000000004ce0d .LASF7198
     /tmp/ccut0Zoi.s:90780  .debug_str:000000000000db8e .LASF7199
     /tmp/ccut0Zoi.s:105582  .debug_str:000000000004a0bc .LASF7200
     /tmp/ccut0Zoi.s:105584  .debug_str:000000000004a0db .LASF7201
     /tmp/ccut0Zoi.s:105586  .debug_str:000000000004a0fa .LASF7202
     /tmp/ccut0Zoi.s:102670  .debug_str:000000000003ddd0 .LASF7203
     /tmp/ccut0Zoi.s:94306  .debug_str:000000000001be28 .LASF7204
     /tmp/ccut0Zoi.s:93246  .debug_str:0000000000017596 .LASF7205
     /tmp/ccut0Zoi.s:105590  .debug_str:000000000004a127 .LASF7206
     /tmp/ccut0Zoi.s:100958  .debug_str:0000000000036f58 .LASF7207
     /tmp/ccut0Zoi.s:100604  .debug_str:0000000000035b7d .LASF7208
     /tmp/ccut0Zoi.s:96738  .debug_str:0000000000025c4c .LASF7209
     /tmp/ccut0Zoi.s:96740  .debug_str:0000000000025c69 .LASF7210
     /tmp/ccut0Zoi.s:96742  .debug_str:0000000000025c86 .LASF7211
     /tmp/ccut0Zoi.s:96744  .debug_str:0000000000025ca3 .LASF7212
     /tmp/ccut0Zoi.s:96746  .debug_str:0000000000025cc0 .LASF7213
     /tmp/ccut0Zoi.s:88360  .debug_str:00000000000037f8 .LASF7214
     /tmp/ccut0Zoi.s:105496  .debug_str:0000000000049a97 .LASF7215
     /tmp/ccut0Zoi.s:100192  .debug_str:000000000003417a .LASF7216
     /tmp/ccut0Zoi.s:98216  .debug_str:000000000002bcbc .LASF7217
     /tmp/ccut0Zoi.s:99920  .debug_str:0000000000032ea1 .LASF7218
     /tmp/ccut0Zoi.s:87628  .debug_str:000000000000058c .LASF7219
     /tmp/ccut0Zoi.s:101508  .debug_str:0000000000039004 .LASF7220
     /tmp/ccut0Zoi.s:100028  .debug_str:000000000003360d .LASF7221
     /tmp/ccut0Zoi.s:100030  .debug_str:0000000000033629 .LASF7222
     /tmp/ccut0Zoi.s:100032  .debug_str:0000000000033645 .LASF7223
     /tmp/ccut0Zoi.s:100034  .debug_str:0000000000033661 .LASF7224
     /tmp/ccut0Zoi.s:106210  .debug_str:000000000004cd69 .LASF7225
     /tmp/ccut0Zoi.s:97306  .debug_str:00000000000282c9 .LASF7226
     /tmp/ccut0Zoi.s:100036  .debug_str:000000000003367d .LASF7227
     /tmp/ccut0Zoi.s:97872  .debug_str:000000000002a742 .LASF7228
     /tmp/ccut0Zoi.s:104612  .debug_str:0000000000045e4f .LASF7229
     /tmp/ccut0Zoi.s:89510  .debug_str:00000000000085dd .LASF7230
     /tmp/ccut0Zoi.s:101664  .debug_str:0000000000039ac9 .LASF7231
     /tmp/ccut0Zoi.s:105354  .debug_str:0000000000049139 .LASF7232
     /tmp/ccut0Zoi.s:97312  .debug_str:0000000000028329 .LASF7233
     /tmp/ccut0Zoi.s:102558  .debug_str:000000000003d6e0 .LASF7234
     /tmp/ccut0Zoi.s:102474  .debug_str:000000000003d11b .LASF7235
     /tmp/ccut0Zoi.s:95066  .debug_str:000000000001f386 .LASF7236
     /tmp/ccut0Zoi.s:97052  .debug_str:00000000000271dd .LASF7237
     /tmp/ccut0Zoi.s:92598  .debug_str:0000000000014b2d .LASF7238
     /tmp/ccut0Zoi.s:97484  .debug_str:0000000000028eaa .LASF7239
     /tmp/ccut0Zoi.s:106176  .debug_str:000000000004cb1c .LASF7240
     /tmp/ccut0Zoi.s:93124  .debug_str:0000000000016e25 .LASF7241
     /tmp/ccut0Zoi.s:99564  .debug_str:00000000000317e0 .LASF7242
     /tmp/ccut0Zoi.s:103960  .debug_str:0000000000043412 .LASF7243
     /tmp/ccut0Zoi.s:88836  .debug_str:0000000000005952 .LASF7244
     /tmp/ccut0Zoi.s:106276  .debug_str:000000000004d1a3 .LASF7245
     /tmp/ccut0Zoi.s:90174  .debug_str:000000000000b3cf .LASF7246
     /tmp/ccut0Zoi.s:100788  .debug_str:000000000003669f .LASF7247
     /tmp/ccut0Zoi.s:104904  .debug_str:000000000004721e .LASF7248
     /tmp/ccut0Zoi.s:96602  .debug_str:00000000000253f4 .LASF7249
     /tmp/ccut0Zoi.s:89192  .debug_str:0000000000007113 .LASF7250
     /tmp/ccut0Zoi.s:92196  .debug_str:000000000001324a .LASF7251
     /tmp/ccut0Zoi.s:89260  .debug_str:0000000000007593 .LASF7252
     /tmp/ccut0Zoi.s:93506  .debug_str:0000000000018609 .LASF7253
     /tmp/ccut0Zoi.s:105478  .debug_str:000000000004996f .LASF7254
     /tmp/ccut0Zoi.s:101594  .debug_str:00000000000395c1 .LASF7255
     /tmp/ccut0Zoi.s:96502  .debug_str:0000000000024ced .LASF7256
     /tmp/ccut0Zoi.s:92014  .debug_str:000000000001263a .LASF7257
     /tmp/ccut0Zoi.s:93066  .debug_str:00000000000169d5 .LASF7258
     /tmp/ccut0Zoi.s:95880  .debug_str:0000000000022944 .LASF7259
     /tmp/ccut0Zoi.s:91614  .debug_str:0000000000010b9b .LASF7260
     /tmp/ccut0Zoi.s:103466  .debug_str:00000000000414f5 .LASF7261
     /tmp/ccut0Zoi.s:99018  .debug_str:000000000002f39f .LASF7262
     /tmp/ccut0Zoi.s:94778  .debug_str:000000000001de73 .LASF7263
     /tmp/ccut0Zoi.s:87872  .debug_str:0000000000001575 .LASF7264
     /tmp/ccut0Zoi.s:101602  .debug_str:000000000003963c .LASF7265
     /tmp/ccut0Zoi.s:94618  .debug_str:000000000001d3cb .LASF7266
     /tmp/ccut0Zoi.s:90324  .debug_str:000000000000bdd1 .LASF7267
     /tmp/ccut0Zoi.s:99410  .debug_str:0000000000030d9f .LASF7268
     /tmp/ccut0Zoi.s:100380  .debug_str:0000000000034e1d .LASF7269
     /tmp/ccut0Zoi.s:95622  .debug_str:000000000002180c .LASF7270
     /tmp/ccut0Zoi.s:98138  .debug_str:000000000002b82e .LASF7271
     /tmp/ccut0Zoi.s:92716  .debug_str:0000000000015353 .LASF7272
     /tmp/ccut0Zoi.s:97102  .debug_str:0000000000027548 .LASF7273
     /tmp/ccut0Zoi.s:89770  .debug_str:00000000000097ef .LASF7274
     /tmp/ccut0Zoi.s:91206  .debug_str:000000000000f393 .LASF7275
     /tmp/ccut0Zoi.s:95304  .debug_str:0000000000020359 .LASF7276
     /tmp/ccut0Zoi.s:91202  .debug_str:000000000000f369 .LASF7277
     /tmp/ccut0Zoi.s:95302  .debug_str:0000000000020340 .LASF7278
     /tmp/ccut0Zoi.s:93810  .debug_str:0000000000019b8c .LASF7279
     /tmp/ccut0Zoi.s:94892  .debug_str:000000000001e6f6 .LASF7280
     /tmp/ccut0Zoi.s:104896  .debug_str:0000000000047161 .LASF7281
     /tmp/ccut0Zoi.s:93598  .debug_str:0000000000018c68 .LASF7282
     /tmp/ccut0Zoi.s:92202  .debug_str:0000000000013298 .LASF7283
     /tmp/ccut0Zoi.s:90638  .debug_str:000000000000d30f .LASF7284
     /tmp/ccut0Zoi.s:91990  .debug_str:0000000000012496 .LASF7285
     /tmp/ccut0Zoi.s:94300  .debug_str:000000000001bddb .LASF7286
     /tmp/ccut0Zoi.s:102656  .debug_str:000000000003dcda .LASF7287
     /tmp/ccut0Zoi.s:102662  .debug_str:000000000003dd4c .LASF7288
     /tmp/ccut0Zoi.s:98254  .debug_str:000000000002bf3d .LASF7289
     /tmp/ccut0Zoi.s:90756  .debug_str:000000000000d9ff .LASF7290
     /tmp/ccut0Zoi.s:92874  .debug_str:0000000000015cb3 .LASF7291
     /tmp/ccut0Zoi.s:93856  .debug_str:0000000000019f1b .LASF7292
     /tmp/ccut0Zoi.s:105020  .debug_str:00000000000479f9 .LASF7293
     /tmp/ccut0Zoi.s:94854  .debug_str:000000000001e465 .LASF7294
     /tmp/ccut0Zoi.s:96300  .debug_str:00000000000242c9 .LASF7295
     /tmp/ccut0Zoi.s:104084  .debug_str:0000000000043bf9 .LASF7296
     /tmp/ccut0Zoi.s:88918  .debug_str:0000000000005e78 .LASF7297
     /tmp/ccut0Zoi.s:104726  .debug_str:0000000000046695 .LASF7298
     /tmp/ccut0Zoi.s:92398  .debug_str:0000000000013f11 .LASF7299
     /tmp/ccut0Zoi.s:88548  .debug_str:00000000000044fb .LASF7300
     /tmp/ccut0Zoi.s:90618  .debug_str:000000000000d1d4 .LASF7301
     /tmp/ccut0Zoi.s:96344  .debug_str:000000000002444a .LASF7302
     /tmp/ccut0Zoi.s:101726  .debug_str:0000000000039f6f .LASF7303
     /tmp/ccut0Zoi.s:99522  .debug_str:0000000000031524 .LASF7304
     /tmp/ccut0Zoi.s:98058  .debug_str:000000000002b369 .LASF7305
     /tmp/ccut0Zoi.s:101224  .debug_str:0000000000037cd9 .LASF7306
     /tmp/ccut0Zoi.s:88748  .debug_str:00000000000052e0 .LASF7307
     /tmp/ccut0Zoi.s:100224  .debug_str:000000000003437b .LASF7308
     /tmp/ccut0Zoi.s:103082  .debug_str:000000000003faae .LASF7309
     /tmp/ccut0Zoi.s:92966  .debug_str:000000000001630a .LASF7310
     /tmp/ccut0Zoi.s:91260  .debug_str:000000000000f68a .LASF7311
     /tmp/ccut0Zoi.s:103660  .debug_str:000000000004219a .LASF7312
     /tmp/ccut0Zoi.s:96910  .debug_str:000000000002685d .LASF7313
     /tmp/ccut0Zoi.s:100706  .debug_str:00000000000361b2 .LASF7314
     /tmp/ccut0Zoi.s:105112  .debug_str:0000000000047fce .LASF7315
     /tmp/ccut0Zoi.s:101032  .debug_str:0000000000037305 .LASF7316
     /tmp/ccut0Zoi.s:97796  .debug_str:000000000002a244 .LASF7317
     /tmp/ccut0Zoi.s:88708  .debug_str:0000000000004fdc .LASF7318
     /tmp/ccut0Zoi.s:103006  .debug_str:000000000003f55f .LASF7319
     /tmp/ccut0Zoi.s:103818  .debug_str:0000000000042b4f .LASF7320
     /tmp/ccut0Zoi.s:105950  .debug_str:000000000004bbee .LASF7321
     /tmp/ccut0Zoi.s:94856  .debug_str:000000000001e473 .LASF7322
     /tmp/ccut0Zoi.s:96380  .debug_str:0000000000024661 .LASF7323
     /tmp/ccut0Zoi.s:87896  .debug_str:000000000000177f .LASF7324
     /tmp/ccut0Zoi.s:99764  .debug_str:00000000000324a2 .LASF7325
     /tmp/ccut0Zoi.s:88754  .debug_str:000000000000532f .LASF7326
     /tmp/ccut0Zoi.s:88140  .debug_str:00000000000028e2 .LASF7327
     /tmp/ccut0Zoi.s:96542  .debug_str:0000000000024f68 .LASF7328
     /tmp/ccut0Zoi.s:89486  .debug_str:000000000000843b .LASF7329
     /tmp/ccut0Zoi.s:93312  .debug_str:0000000000017a2b .LASF7330
     /tmp/ccut0Zoi.s:93378  .debug_str:0000000000017e0a .LASF7331
     /tmp/ccut0Zoi.s:96058  .debug_str:0000000000023594 .LASF7332
     /tmp/ccut0Zoi.s:97252  .debug_str:0000000000027eea .LASF7333
     /tmp/ccut0Zoi.s:88318  .debug_str:00000000000034f7 .LASF7334
     /tmp/ccut0Zoi.s:93842  .debug_str:0000000000019e56 .LASF7335
     /tmp/ccut0Zoi.s:102448  .debug_str:000000000003cfaa .LASF7336
     /tmp/ccut0Zoi.s:92066  .debug_str:0000000000012a46 .LASF7337
     /tmp/ccut0Zoi.s:103506  .debug_str:0000000000041724 .LASF7338
     /tmp/ccut0Zoi.s:92062  .debug_str:0000000000012a1c .LASF7339
     /tmp/ccut0Zoi.s:103504  .debug_str:000000000004170d .LASF7340
     /tmp/ccut0Zoi.s:99068  .debug_str:000000000002f6bd .LASF7341
     /tmp/ccut0Zoi.s:94328  .debug_str:000000000001bfc0 .LASF7342
     /tmp/ccut0Zoi.s:99556  .debug_str:000000000003174f .LASF7343
     /tmp/ccut0Zoi.s:102372  .debug_str:000000000003ca90 .LASF7344
     /tmp/ccut0Zoi.s:100978  .debug_str:0000000000037093 .LASF7345
     /tmp/ccut0Zoi.s:95322  .debug_str:00000000000204eb .LASF7346
     /tmp/ccut0Zoi.s:97420  .debug_str:0000000000028a5f .LASF7347
     /tmp/ccut0Zoi.s:104494  .debug_str:00000000000456e1 .LASF7348
     /tmp/ccut0Zoi.s:100790  .debug_str:00000000000366ae .LASF7349
     /tmp/ccut0Zoi.s:104504  .debug_str:0000000000045782 .LASF7350
     /tmp/ccut0Zoi.s:92524  .debug_str:0000000000014628 .LASF7351
     /tmp/ccut0Zoi.s:87706  .debug_str:0000000000000aa5 .LASF7352
     /tmp/ccut0Zoi.s:104290  .debug_str:000000000004492c .LASF7353
     /tmp/ccut0Zoi.s:105402  .debug_str:0000000000049442 .LASF7354
     /tmp/ccut0Zoi.s:102292  .debug_str:000000000003c643 .LASF7355
     /tmp/ccut0Zoi.s:102776  .debug_str:000000000003e53d .LASF7356
     /tmp/ccut0Zoi.s:106086  .debug_str:000000000004c481 .LASF7357
     /tmp/ccut0Zoi.s:97846  .debug_str:000000000002a565 .LASF7358
     /tmp/ccut0Zoi.s:104942  .debug_str:00000000000474b2 .LASF7359
     /tmp/ccut0Zoi.s:92158  .debug_str:0000000000012ff3 .LASF7360
     /tmp/ccut0Zoi.s:89504  .debug_str:0000000000008590 .LASF7361
     /tmp/ccut0Zoi.s:106214  .debug_str:000000000004cd87 .LASF7362
     /tmp/ccut0Zoi.s:88594  .debug_str:000000000000485e .LASF7363
     /tmp/ccut0Zoi.s:100740  .debug_str:0000000000036471 .LASF7364
     /tmp/ccut0Zoi.s:93012  .debug_str:00000000000165d3 .LASF7365
     /tmp/ccut0Zoi.s:95172  .debug_str:000000000001fb33 .LASF7366
     /tmp/ccut0Zoi.s:90712  .debug_str:000000000000d6eb .LASF7367
     /tmp/ccut0Zoi.s:90438  .debug_str:000000000000c5e4 .LASF7368
     /tmp/ccut0Zoi.s:96690  .debug_str:00000000000259ba .LASF7369
     /tmp/ccut0Zoi.s:98530  .debug_str:000000000002d289 .LASF7370
     /tmp/ccut0Zoi.s:92776  .debug_str:0000000000015693 .LASF7371
     /tmp/ccut0Zoi.s:95488  .debug_str:0000000000020f1b .LASF7372
     /tmp/ccut0Zoi.s:97834  .debug_str:000000000002a451 .LASF7373
     /tmp/ccut0Zoi.s:90064  .debug_str:000000000000ab85 .LASF7374
     /tmp/ccut0Zoi.s:96510  .debug_str:0000000000024d6a .LASF7375
     /tmp/ccut0Zoi.s:96480  .debug_str:0000000000024bb8 .LASF7376
     /tmp/ccut0Zoi.s:96486  .debug_str:0000000000024bf8 .LASF7377
     /tmp/ccut0Zoi.s:89124  .debug_str:0000000000006cde .LASF7378
     /tmp/ccut0Zoi.s:98290  .debug_str:000000000002c202 .LASF7379
     /tmp/ccut0Zoi.s:98274  .debug_str:000000000002c073 .LASF7380
     /tmp/ccut0Zoi.s:102576  .debug_str:000000000003d81c .LASF7381
     /tmp/ccut0Zoi.s:88622  .debug_str:0000000000004a7c .LASF7382
     /tmp/ccut0Zoi.s:105256  .debug_str:0000000000048a81 .LASF7383
     /tmp/ccut0Zoi.s:98832  .debug_str:000000000002e6d8 .LASF7384
     /tmp/ccut0Zoi.s:104882  .debug_str:000000000004708d .LASF7385
     /tmp/ccut0Zoi.s:101440  .debug_str:0000000000038bce .LASF7386
     /tmp/ccut0Zoi.s:90778  .debug_str:000000000000db69 .LASF7387
     /tmp/ccut0Zoi.s:92346  .debug_str:0000000000013b86 .LASF7388
     /tmp/ccut0Zoi.s:88822  .debug_str:0000000000005896 .LASF7389
     /tmp/ccut0Zoi.s:103284  .debug_str:00000000000407bf .LASF7390
     /tmp/ccut0Zoi.s:97494  .debug_str:0000000000028f86 .LASF7391
     /tmp/ccut0Zoi.s:97496  .debug_str:0000000000028f94 .LASF7392
     /tmp/ccut0Zoi.s:97498  .debug_str:0000000000028fa2 .LASF7393
     /tmp/ccut0Zoi.s:97500  .debug_str:0000000000028fb0 .LASF7394
     /tmp/ccut0Zoi.s:97502  .debug_str:0000000000028fbe .LASF7395
     /tmp/ccut0Zoi.s:97504  .debug_str:0000000000028fcc .LASF7396
     /tmp/ccut0Zoi.s:97506  .debug_str:0000000000028fda .LASF7397
     /tmp/ccut0Zoi.s:97508  .debug_str:0000000000028fe8 .LASF7398
     /tmp/ccut0Zoi.s:97510  .debug_str:0000000000028ff6 .LASF7399
     /tmp/ccut0Zoi.s:97512  .debug_str:0000000000029004 .LASF7400
     /tmp/ccut0Zoi.s:105164  .debug_str:00000000000483de .LASF7401
     /tmp/ccut0Zoi.s:90082  .debug_str:000000000000ad2a .LASF7402
     /tmp/ccut0Zoi.s:100274  .debug_str:0000000000034721 .LASF7403
     /tmp/ccut0Zoi.s:96088  .debug_str:0000000000023644 .LASF7404
     /tmp/ccut0Zoi.s:88674  .debug_str:0000000000004e00 .LASF7405
     /tmp/ccut0Zoi.s:103438  .debug_str:0000000000041311 .LASF7406
     /tmp/ccut0Zoi.s:95496  .debug_str:0000000000020fb0 .LASF7407
     /tmp/ccut0Zoi.s:92850  .debug_str:0000000000015b61 .LASF7408
     /tmp/ccut0Zoi.s:103448  .debug_str:0000000000041380 .LASF7409
     /tmp/ccut0Zoi.s:88556  .debug_str:0000000000004572 .LASF7410
     /tmp/ccut0Zoi.s:87640  .debug_str:0000000000000651 .LASF7411
     /tmp/ccut0Zoi.s:94728  .debug_str:000000000001db4b .LASF7412
     /tmp/ccut0Zoi.s:91410  .debug_str:000000000000febe .LASF7413
     /tmp/ccut0Zoi.s:105904  .debug_str:000000000004b8ad .LASF7414
     /tmp/ccut0Zoi.s:90206  .debug_str:000000000000b63f .LASF7415
     /tmp/ccut0Zoi.s:97550  .debug_str:0000000000029260 .LASF7416
     /tmp/ccut0Zoi.s:100384  .debug_str:0000000000034e4a .LASF7417
     /tmp/ccut0Zoi.s:103894  .debug_str:0000000000042fd5 .LASF7418
     /tmp/ccut0Zoi.s:104360  .debug_str:0000000000044de0 .LASF7419
     /tmp/ccut0Zoi.s:93946  .debug_str:000000000001a4e2 .LASF7420
     /tmp/ccut0Zoi.s:103896  .debug_str:0000000000042fe8 .LASF7421
     /tmp/ccut0Zoi.s:98516  .debug_str:000000000002d18a .LASF7422
     /tmp/ccut0Zoi.s:93412  .debug_str:0000000000017fbb .LASF7423
     /tmp/ccut0Zoi.s:88654  .debug_str:0000000000004c57 .LASF7424
     /tmp/ccut0Zoi.s:104108  .debug_str:0000000000043d56 .LASF7425
     /tmp/ccut0Zoi.s:93414  .debug_str:0000000000017fcd .LASF7426
     /tmp/ccut0Zoi.s:100316  .debug_str:0000000000034a05 .LASF7427
     /tmp/ccut0Zoi.s:98256  .debug_str:000000000002bf46 .LASF7428
     /tmp/ccut0Zoi.s:93416  .debug_str:0000000000017fdf .LASF7429
     /tmp/ccut0Zoi.s:88658  .debug_str:0000000000004c95 .LASF7430
     /tmp/ccut0Zoi.s:92232  .debug_str:00000000000134c8 .LASF7431
     /tmp/ccut0Zoi.s:95702  .debug_str:0000000000021d8d .LASF7432
     /tmp/ccut0Zoi.s:93174  .debug_str:000000000001719d .LASF7433
     /tmp/ccut0Zoi.s:104996  .debug_str:0000000000047829 .LASF7434
     /tmp/ccut0Zoi.s:91874  .debug_str:0000000000011d10 .LASF7435
     /tmp/ccut0Zoi.s:105304  .debug_str:0000000000048db7 .LASF7436
     /tmp/ccut0Zoi.s:89896  .debug_str:000000000000a008 .LASF7437
     /tmp/ccut0Zoi.s:91876  .debug_str:0000000000011d22 .LASF7438
     /tmp/ccut0Zoi.s:105894  .debug_str:000000000004b82a .LASF7439
     /tmp/ccut0Zoi.s:102772  .debug_str:000000000003e4d5 .LASF7440
     /tmp/ccut0Zoi.s:91878  .debug_str:0000000000011d34 .LASF7441
     /tmp/ccut0Zoi.s:105896  .debug_str:000000000004b83c .LASF7442
     /tmp/ccut0Zoi.s:96898  .debug_str:0000000000026789 .LASF7443
     /tmp/ccut0Zoi.s:92792  .debug_str:0000000000015797 .LASF7444
     /tmp/ccut0Zoi.s:87692  .debug_str:00000000000009b7 .LASF7445
     /tmp/ccut0Zoi.s:98320  .debug_str:000000000002c3cb .LASF7446
     /tmp/ccut0Zoi.s:100890  .debug_str:0000000000036c37 .LASF7447
     /tmp/ccut0Zoi.s:102164  .debug_str:000000000003bd7a .LASF7448
     /tmp/ccut0Zoi.s:99146  .debug_str:000000000002fb53 .LASF7449
     /tmp/ccut0Zoi.s:92996  .debug_str:00000000000164c9 .LASF7450
     /tmp/ccut0Zoi.s:103668  .debug_str:0000000000042240 .LASF7451
     /tmp/ccut0Zoi.s:88166  .debug_str:0000000000002ae2 .LASF7452
     /tmp/ccut0Zoi.s:98006  .debug_str:000000000002b003 .LASF7453
     /tmp/ccut0Zoi.s:89556  .debug_str:0000000000008919 .LASF7454
     /tmp/ccut0Zoi.s:92188  .debug_str:00000000000131da .LASF7455
     /tmp/ccut0Zoi.s:93014  .debug_str:00000000000165e7 .LASF7456
     /tmp/ccut0Zoi.s:99264  .debug_str:00000000000302df .LASF7457
     /tmp/ccut0Zoi.s:96474  .debug_str:0000000000024b51 .LASF7458
     /tmp/ccut0Zoi.s:103210  .debug_str:00000000000402b1 .LASF7459
     /tmp/ccut0Zoi.s:87854  .debug_str:000000000000147d .LASF7460
     /tmp/ccut0Zoi.s:105926  .debug_str:000000000004ba37 .LASF7461
     /tmp/ccut0Zoi.s:103222  .debug_str:0000000000040368 .LASF7462
     /tmp/ccut0Zoi.s:95314  .debug_str:000000000002043e .LASF7463
     /tmp/ccut0Zoi.s:87870  .debug_str:0000000000001555 .LASF7464
     /tmp/ccut0Zoi.s:96478  .debug_str:0000000000024bac .LASF7465
     /tmp/ccut0Zoi.s:88460  .debug_str:0000000000003eff .LASF7466
     /tmp/ccut0Zoi.s:98704  .debug_str:000000000002de6d .LASF7467
     /tmp/ccut0Zoi.s:103782  .debug_str:0000000000042967 .LASF7468
     /tmp/ccut0Zoi.s:105278  .debug_str:0000000000048c0e .LASF7469
     /tmp/ccut0Zoi.s:89500  .debug_str:000000000000854a .LASF7470
     /tmp/ccut0Zoi.s:90016  .debug_str:000000000000a80a .LASF7471
     /tmp/ccut0Zoi.s:92736  .debug_str:0000000000015481 .LASF7472
     /tmp/ccut0Zoi.s:100538  .debug_str:00000000000357ba .LASF7473
     /tmp/ccut0Zoi.s:97204  .debug_str:0000000000027ca1 .LASF7474
     /tmp/ccut0Zoi.s:89448  .debug_str:00000000000081e2 .LASF7475
     /tmp/ccut0Zoi.s:94838  .debug_str:000000000001e30b .LASF7476
     /tmp/ccut0Zoi.s:92442  .debug_str:0000000000014139 .LASF7477
     /tmp/ccut0Zoi.s:93278  .debug_str:000000000001782f .LASF7478
     /tmp/ccut0Zoi.s:104256  .debug_str:00000000000446c7 .LASF7479
     /tmp/ccut0Zoi.s:88034  .debug_str:0000000000002157 .LASF7480
     /tmp/ccut0Zoi.s:105992  .debug_str:000000000004be8a .LASF7481
     /tmp/ccut0Zoi.s:100710  .debug_str:00000000000361fe .LASF7482
     /tmp/ccut0Zoi.s:99742  .debug_str:000000000003231d .LASF7483
     /tmp/ccut0Zoi.s:87824  .debug_str:0000000000001285 .LASF7484
     /tmp/ccut0Zoi.s:95576  .debug_str:00000000000214b1 .LASF7485
     /tmp/ccut0Zoi.s:101186  .debug_str:0000000000037ae9 .LASF7486
     /tmp/ccut0Zoi.s:100632  .debug_str:0000000000035d6b .LASF7487
     /tmp/ccut0Zoi.s:104714  .debug_str:00000000000465a6 .LASF7488
     /tmp/ccut0Zoi.s:104460  .debug_str:00000000000454e0 .LASF7489
     /tmp/ccut0Zoi.s:98766  .debug_str:000000000002e25c .LASF7490
     /tmp/ccut0Zoi.s:93844  .debug_str:0000000000019e61 .LASF7491
     /tmp/ccut0Zoi.s:105040  .debug_str:0000000000047aed .LASF7492
     /tmp/ccut0Zoi.s:95662  .debug_str:0000000000021ae2 .LASF7493
     /tmp/ccut0Zoi.s:104762  .debug_str:000000000004693e .LASF7494
     /tmp/ccut0Zoi.s:101548  .debug_str:0000000000039347 .LASF7495
     /tmp/ccut0Zoi.s:101196  .debug_str:0000000000037b86 .LASF7496
     /tmp/ccut0Zoi.s:101988  .debug_str:000000000003b0ea .LASF7497
     /tmp/ccut0Zoi.s:93428  .debug_str:0000000000018087 .LASF7498
     /tmp/ccut0Zoi.s:96038  .debug_str:0000000000023459 .LASF7499
     /tmp/ccut0Zoi.s:96900  .debug_str:00000000000267af .LASF7500
     /tmp/ccut0Zoi.s:92004  .debug_str:0000000000012583 .LASF7501
     /tmp/ccut0Zoi.s:102108  .debug_str:000000000003b94c .LASF7502
     /tmp/ccut0Zoi.s:97968  .debug_str:000000000002ada9 .LASF7503
     /tmp/ccut0Zoi.s:99038  .debug_str:000000000002f4fc .LASF7504
     /tmp/ccut0Zoi.s:93206  .debug_str:0000000000017353 .LASF7505
     /tmp/ccut0Zoi.s:104732  .debug_str:00000000000466d5 .LASF7506
     /tmp/ccut0Zoi.s:96820  .debug_str:000000000002622b .LASF7507
     /tmp/ccut0Zoi.s:91472  .debug_str:00000000000101dc .LASF7508
     /tmp/ccut0Zoi.s:88596  .debug_str:000000000000486f .LASF7509
     /tmp/ccut0Zoi.s:103072  .debug_str:000000000003f9f8 .LASF7510
     /tmp/ccut0Zoi.s:88604  .debug_str:00000000000048eb .LASF7511
     /tmp/ccut0Zoi.s:92774  .debug_str:0000000000015668 .LASF7512
     /tmp/ccut0Zoi.s:90516  .debug_str:000000000000cb48 .LASF7513
     /tmp/ccut0Zoi.s:105368  .debug_str:0000000000049217 .LASF7514
     /tmp/ccut0Zoi.s:101364  .debug_str:000000000003864e .LASF7515
     /tmp/ccut0Zoi.s:95054  .debug_str:000000000001f2aa .LASF7516
     /tmp/ccut0Zoi.s:96788  .debug_str:0000000000025fa8 .LASF7517
     /tmp/ccut0Zoi.s:95922  .debug_str:0000000000022bd2 .LASF7518
     /tmp/ccut0Zoi.s:92720  .debug_str:0000000000015380 .LASF7519
     /tmp/ccut0Zoi.s:95370  .debug_str:0000000000020816 .LASF7520
     /tmp/ccut0Zoi.s:98412  .debug_str:000000000002ca37 .LASF7521
     /tmp/ccut0Zoi.s:87806  .debug_str:0000000000001154 .LASF7522
     /tmp/ccut0Zoi.s:90732  .debug_str:000000000000d85b .LASF7523
     /tmp/ccut0Zoi.s:103872  .debug_str:0000000000042eaa .LASF7524
     /tmp/ccut0Zoi.s:94218  .debug_str:000000000001b7cc .LASF7525
     /tmp/ccut0Zoi.s:101884  .debug_str:000000000003aa70 .LASF7526
     /tmp/ccut0Zoi.s:91978  .debug_str:00000000000123c1 .LASF7527
     /tmp/ccut0Zoi.s:99550  .debug_str:00000000000316ec .LASF7528
     /tmp/ccut0Zoi.s:89174  .debug_str:000000000000704e .LASF7529
     /tmp/ccut0Zoi.s:93560  .debug_str:00000000000189d2 .LASF7530
     /tmp/ccut0Zoi.s:97862  .debug_str:000000000002a682 .LASF7531
     /tmp/ccut0Zoi.s:100270  .debug_str:00000000000346e0 .LASF7532
     /tmp/ccut0Zoi.s:97282  .debug_str:0000000000028168 .LASF7533
     /tmp/ccut0Zoi.s:103608  .debug_str:0000000000041df2 .LASF7534
     /tmp/ccut0Zoi.s:91738  .debug_str:0000000000011364 .LASF7535
     /tmp/ccut0Zoi.s:98614  .debug_str:000000000002d826 .LASF7536
     /tmp/ccut0Zoi.s:92740  .debug_str:00000000000154b5 .LASF7537
     /tmp/ccut0Zoi.s:103444  .debug_str:0000000000041368 .LASF7538
     /tmp/ccut0Zoi.s:103064  .debug_str:000000000003f941 .LASF7539
     /tmp/ccut0Zoi.s:97566  .debug_str:000000000002938a .LASF7540
     /tmp/ccut0Zoi.s:105234  .debug_str:00000000000488c1 .LASF7541
     /tmp/ccut0Zoi.s:92468  .debug_str:0000000000014269 .LASF7542
     /tmp/ccut0Zoi.s:93162  .debug_str:00000000000170db .LASF7543
     /tmp/ccut0Zoi.s:101902  .debug_str:000000000003ab87 .LASF7544
     /tmp/ccut0Zoi.s:104262  .debug_str:000000000004472a .LASF7545
     /tmp/ccut0Zoi.s:91318  .debug_str:000000000000f936 .LASF7546
     /tmp/ccut0Zoi.s:100182  .debug_str:00000000000340d5 .LASF7547
     /tmp/ccut0Zoi.s:94564  .debug_str:000000000001cfdb .LASF7548
     /tmp/ccut0Zoi.s:98456  .debug_str:000000000002cd01 .LASF7549
     /tmp/ccut0Zoi.s:94998  .debug_str:000000000001ee8d .LASF7550
     /tmp/ccut0Zoi.s:103758  .debug_str:0000000000042793 .LASF7551
     /tmp/ccut0Zoi.s:104104  .debug_str:0000000000043d38 .LASF7552
     /tmp/ccut0Zoi.s:87798  .debug_str:00000000000010f7 .LASF7553
     /tmp/ccut0Zoi.s:105264  .debug_str:0000000000048ade .LASF7554
     /tmp/ccut0Zoi.s:106250  .debug_str:000000000004d046 .LASF7555
     /tmp/ccut0Zoi.s:96024  .debug_str:0000000000023379 .LASF7556
     /tmp/ccut0Zoi.s:90938  .debug_str:000000000000e494 .LASF7557
     /tmp/ccut0Zoi.s:103488  .debug_str:000000000004160f .LASF7558
     /tmp/ccut0Zoi.s:90844  .debug_str:000000000000dfeb .LASF7559
     /tmp/ccut0Zoi.s:87594  .debug_str:00000000000002bc .LASF7560
     /tmp/ccut0Zoi.s:103480  .debug_str:00000000000415bc .LASF7561
     /tmp/ccut0Zoi.s:93500  .debug_str:0000000000018595 .LASF7562
     /tmp/ccut0Zoi.s:91640  .debug_str:0000000000010c7a .LASF7563
     /tmp/ccut0Zoi.s:93092  .debug_str:0000000000016bd5 .LASF7564
     /tmp/ccut0Zoi.s:95460  .debug_str:0000000000020dc9 .LASF7565
     /tmp/ccut0Zoi.s:93442  .debug_str:0000000000018179 .LASF7566
     /tmp/ccut0Zoi.s:94554  .debug_str:000000000001cef7 .LASF7567
     /tmp/ccut0Zoi.s:92808  .debug_str:0000000000015886 .LASF7568
     /tmp/ccut0Zoi.s:101660  .debug_str:0000000000039a6a .LASF7569
     /tmp/ccut0Zoi.s:96798  .debug_str:0000000000026027 .LASF7570
     /tmp/ccut0Zoi.s:99124  .debug_str:000000000002fa03 .LASF7571
     /tmp/ccut0Zoi.s:103332  .debug_str:0000000000040b16 .LASF7572
     /tmp/ccut0Zoi.s:97722  .debug_str:0000000000029dbc .LASF7573
     /tmp/ccut0Zoi.s:103832  .debug_str:0000000000042be7 .LASF7574
     /tmp/ccut0Zoi.s:96706  .debug_str:0000000000025adf .LASF7575
     /tmp/ccut0Zoi.s:97712  .debug_str:0000000000029d34 .LASF7576
     /tmp/ccut0Zoi.s:103826  .debug_str:0000000000042bab .LASF7577
     /tmp/ccut0Zoi.s:100798  .debug_str:0000000000036724 .LASF7578
     /tmp/ccut0Zoi.s:103596  .debug_str:0000000000041d1e .LASF7579
     /tmp/ccut0Zoi.s:90954  .debug_str:000000000000e555 .LASF7580
     /tmp/ccut0Zoi.s:94468  .debug_str:000000000001c8c7 .LASF7581
     /tmp/ccut0Zoi.s:103586  .debug_str:0000000000041cbf .LASF7582
     /tmp/ccut0Zoi.s:90952  .debug_str:000000000000e54b .LASF7583
     /tmp/ccut0Zoi.s:92126  .debug_str:0000000000012dfc .LASF7584
     /tmp/ccut0Zoi.s:89718  .debug_str:0000000000009439 .LASF7585
     /tmp/ccut0Zoi.s:87558  .debug_str:0000000000000058 .LASF7586
     /tmp/ccut0Zoi.s:89392  .debug_str:0000000000007dcc .LASF7587
     /tmp/ccut0Zoi.s:90662  .debug_str:000000000000d4a1 .LASF7588
     /tmp/ccut0Zoi.s:90626  .debug_str:000000000000d238 .LASF7589
     /tmp/ccut0Zoi.s:106158  .debug_str:000000000004c9d5 .LASF7590
     /tmp/ccut0Zoi.s:94080  .debug_str:000000000001ae42 .LASF7591
     /tmp/ccut0Zoi.s:88634  .debug_str:0000000000004b20 .LASF7592
     /tmp/ccut0Zoi.s:93098  .debug_str:0000000000016c29 .LASF7593
     /tmp/ccut0Zoi.s:100966  .debug_str:0000000000036fcf .LASF7594
     /tmp/ccut0Zoi.s:101752  .debug_str:000000000003a157 .LASF7595
     /tmp/ccut0Zoi.s:101494  .debug_str:0000000000038f16 .LASF7596
     /tmp/ccut0Zoi.s:90836  .debug_str:000000000000df8b .LASF7597
     /tmp/ccut0Zoi.s:90650  .debug_str:000000000000d3d8 .LASF7598
     /tmp/ccut0Zoi.s:95492  .debug_str:0000000000020f72 .LASF7599
     /tmp/ccut0Zoi.s:100974  .debug_str:0000000000037059 .LASF7600
     /tmp/ccut0Zoi.s:101760  .debug_str:000000000003a1f0 .LASF7601
     /tmp/ccut0Zoi.s:102324  .debug_str:000000000003c82d .LASF7602
     /tmp/ccut0Zoi.s:90718  .debug_str:000000000000d73a .LASF7603
     /tmp/ccut0Zoi.s:90226  .debug_str:000000000000b776 .LASF7604
     /tmp/ccut0Zoi.s:87858  .debug_str:0000000000001499 .LASF7605
     /tmp/ccut0Zoi.s:100554  .debug_str:00000000000358f2 .LASF7606
     /tmp/ccut0Zoi.s:95262  .debug_str:00000000000200bb .LASF7607
     /tmp/ccut0Zoi.s:96676  .debug_str:00000000000258c1 .LASF7608
     /tmp/ccut0Zoi.s:100556  .debug_str:000000000003590a .LASF7609
     /tmp/ccut0Zoi.s:95264  .debug_str:00000000000200d3 .LASF7610
     /tmp/ccut0Zoi.s:102748  .debug_str:000000000003e2c9 .LASF7611
     /tmp/ccut0Zoi.s:105664  .debug_str:000000000004a634 .LASF7612
     /tmp/ccut0Zoi.s:93296  .debug_str:0000000000017935 .LASF7613
     /tmp/ccut0Zoi.s:98898  .debug_str:000000000002eb45 .LASF7614
     /tmp/ccut0Zoi.s:105666  .debug_str:000000000004a64c .LASF7615
     /tmp/ccut0Zoi.s:93298  .debug_str:000000000001794d .LASF7616
     /tmp/ccut0Zoi.s:92912  .debug_str:0000000000015f64 .LASF7617
     /tmp/ccut0Zoi.s:93108  .debug_str:0000000000016ccb .LASF7618
     /tmp/ccut0Zoi.s:98504  .debug_str:000000000002d08d .LASF7619
     /tmp/ccut0Zoi.s:91588  .debug_str:00000000000109d9 .LASF7620
     /tmp/ccut0Zoi.s:92070  .debug_str:0000000000012a73 .LASF7621
     /tmp/ccut0Zoi.s:98506  .debug_str:000000000002d0a5 .LASF7622
     /tmp/ccut0Zoi.s:104416  .debug_str:000000000004521b .LASF7623
     /tmp/ccut0Zoi.s:97246  .debug_str:0000000000027e92 .LASF7624
     /tmp/ccut0Zoi.s:103552  .debug_str:0000000000041a41 .LASF7625
     /tmp/ccut0Zoi.s:103278  .debug_str:0000000000040762 .LASF7626
     /tmp/ccut0Zoi.s:97248  .debug_str:0000000000027eaa .LASF7627
     /tmp/ccut0Zoi.s:103554  .debug_str:0000000000041a59 .LASF7628
     /tmp/ccut0Zoi.s:89962  .debug_str:000000000000a470 .LASF7629
     /tmp/ccut0Zoi.s:102320  .debug_str:000000000003c7fd .LASF7630
     /tmp/ccut0Zoi.s:98880  .debug_str:000000000002e9f6 .LASF7631
     /tmp/ccut0Zoi.s:96198  .debug_str:0000000000023d6b .LASF7632
     /tmp/ccut0Zoi.s:102322  .debug_str:000000000003c815 .LASF7633
     /tmp/ccut0Zoi.s:89868  .debug_str:0000000000009dca .LASF7634
     /tmp/ccut0Zoi.s:90184  .debug_str:000000000000b4b7 .LASF7635
     /tmp/ccut0Zoi.s:88690  .debug_str:0000000000004ebf .LASF7636
     /tmp/ccut0Zoi.s:95122  .debug_str:000000000001f83f .LASF7637
     /tmp/ccut0Zoi.s:88946  .debug_str:000000000000600c .LASF7638
     /tmp/ccut0Zoi.s:88692  .debug_str:0000000000004ed7 .LASF7639
     /tmp/ccut0Zoi.s:95124  .debug_str:000000000001f857 .LASF7640
     /tmp/ccut0Zoi.s:101850  .debug_str:000000000003a806 .LASF7641
     /tmp/ccut0Zoi.s:93874  .debug_str:000000000001a034 .LASF7642
     /tmp/ccut0Zoi.s:100236  .debug_str:0000000000034462 .LASF7643
     /tmp/ccut0Zoi.s:97324  .debug_str:00000000000283c5 .LASF7644
     /tmp/ccut0Zoi.s:93876  .debug_str:000000000001a04c .LASF7645
     /tmp/ccut0Zoi.s:100238  .debug_str:000000000003447a .LASF7646
     /tmp/ccut0Zoi.s:94720  .debug_str:000000000001dabe .LASF7647
     /tmp/ccut0Zoi.s:99042  .debug_str:000000000002f518 .LASF7648
     /tmp/ccut0Zoi.s:105340  .debug_str:0000000000049048 .LASF7649
     /tmp/ccut0Zoi.s:93604  .debug_str:0000000000018cdb .LASF7650
     /tmp/ccut0Zoi.s:99044  .debug_str:000000000002f530 .LASF7651
     /tmp/ccut0Zoi.s:105342  .debug_str:0000000000049060 .LASF7652
     /tmp/ccut0Zoi.s:87660  .debug_str:000000000000077b .LASF7653
     /tmp/ccut0Zoi.s:104152  .debug_str:0000000000043fc3 .LASF7654
     /tmp/ccut0Zoi.s:91756  .debug_str:00000000000114ad .LASF7655
     /tmp/ccut0Zoi.s:105058  .debug_str:0000000000047c03 .LASF7656
     /tmp/ccut0Zoi.s:104154  .debug_str:0000000000043fdb .LASF7657
     /tmp/ccut0Zoi.s:91758  .debug_str:00000000000114c5 .LASF7658
     /tmp/ccut0Zoi.s:99208  .debug_str:000000000002ff75 .LASF7659
     /tmp/ccut0Zoi.s:90446  .debug_str:000000000000c652 .LASF7660
     /tmp/ccut0Zoi.s:90956  .debug_str:000000000000e55f .LASF7661
     /tmp/ccut0Zoi.s:98114  .debug_str:000000000002b6cc .LASF7662
     /tmp/ccut0Zoi.s:90448  .debug_str:000000000000c66a .LASF7663
     /tmp/ccut0Zoi.s:93978  .debug_str:000000000001a70c .LASF7664
     /tmp/ccut0Zoi.s:92098  .debug_str:0000000000012c9c .LASF7665
     /tmp/ccut0Zoi.s:105798  .debug_str:000000000004b15a .LASF7666
     /tmp/ccut0Zoi.s:91920  .debug_str:0000000000011fe5 .LASF7667
     /tmp/ccut0Zoi.s:94220  .debug_str:000000000001b7e4 .LASF7668
     /tmp/ccut0Zoi.s:105800  .debug_str:000000000004b173 .LASF7669
     /tmp/ccut0Zoi.s:91922  .debug_str:0000000000011ffe .LASF7670
     /tmp/ccut0Zoi.s:88280  .debug_str:0000000000003308 .LASF7671
     /tmp/ccut0Zoi.s:92198  .debug_str:0000000000013266 .LASF7672
     /tmp/ccut0Zoi.s:101486  .debug_str:0000000000038e96 .LASF7673
     /tmp/ccut0Zoi.s:105890  .debug_str:000000000004b7dd .LASF7674
     /tmp/ccut0Zoi.s:92200  .debug_str:000000000001327f .LASF7675
     /tmp/ccut0Zoi.s:97082  .debug_str:00000000000273ff .LASF7676
     /tmp/ccut0Zoi.s:90290  .debug_str:000000000000bb98 .LASF7677
     /tmp/ccut0Zoi.s:95440  .debug_str:0000000000020cea .LASF7678
     /tmp/ccut0Zoi.s:102178  .debug_str:000000000003be61 .LASF7679
     /tmp/ccut0Zoi.s:98876  .debug_str:000000000002e99f .LASF7680
     /tmp/ccut0Zoi.s:95442  .debug_str:0000000000020d03 .LASF7681
     /tmp/ccut0Zoi.s:102180  .debug_str:000000000003be7a .LASF7682
     /tmp/ccut0Zoi.s:92888  .debug_str:0000000000015de9 .LASF7683
     /tmp/ccut0Zoi.s:105678  .debug_str:000000000004a758 .LASF7684
     /tmp/ccut0Zoi.s:88540  .debug_str:000000000000448f .LASF7685
     /tmp/ccut0Zoi.s:91558  .debug_str:0000000000010757 .LASF7686
     /tmp/ccut0Zoi.s:102456  .debug_str:000000000003d036 .LASF7687
     /tmp/ccut0Zoi.s:88542  .debug_str:00000000000044a8 .LASF7688
     /tmp/ccut0Zoi.s:104388  .debug_str:0000000000044fec .LASF7689
     /tmp/ccut0Zoi.s:88824  .debug_str:00000000000058a1 .LASF7690
     /tmp/ccut0Zoi.s:93730  .debug_str:000000000001957c .LASF7691
     /tmp/ccut0Zoi.s:103246  .debug_str:0000000000040512 .LASF7692
     /tmp/ccut0Zoi.s:88826  .debug_str:00000000000058ba .LASF7693
     /tmp/ccut0Zoi.s:101964  .debug_str:000000000003af9d .LASF7694
     /tmp/ccut0Zoi.s:97378  .debug_str:000000000002878c .LASF7695
     /tmp/ccut0Zoi.s:94020  .debug_str:000000000001a982 .LASF7696
     /tmp/ccut0Zoi.s:98906  .debug_str:000000000002ebe0 .LASF7697
     /tmp/ccut0Zoi.s:96170  .debug_str:0000000000023bc5 .LASF7698
     /tmp/ccut0Zoi.s:88702  .debug_str:0000000000004f95 .LASF7699
     /tmp/ccut0Zoi.s:98908  .debug_str:000000000002ebf9 .LASF7700
     /tmp/ccut0Zoi.s:90154  .debug_str:000000000000b245 .LASF7701
     /tmp/ccut0Zoi.s:100320  .debug_str:0000000000034a59 .LASF7702
     /tmp/ccut0Zoi.s:93018  .debug_str:0000000000016614 .LASF7703
     /tmp/ccut0Zoi.s:98918  .debug_str:000000000002ece0 .LASF7704
     /tmp/ccut0Zoi.s:99804  .debug_str:0000000000032727 .LASF7705
     /tmp/ccut0Zoi.s:89634  .debug_str:0000000000008e91 .LASF7706
     /tmp/ccut0Zoi.s:99252  .debug_str:000000000003022c .LASF7707
     /tmp/ccut0Zoi.s:99806  .debug_str:0000000000032734 .LASF7708
     /tmp/ccut0Zoi.s:91794  .debug_str:0000000000011772 .LASF7709
     /tmp/ccut0Zoi.s:93286  .debug_str:00000000000178ab .LASF7710
     /tmp/ccut0Zoi.s:99808  .debug_str:0000000000032741 .LASF7711
     /tmp/ccut0Zoi.s:89640  .debug_str:0000000000008ed5 .LASF7712
     /tmp/ccut0Zoi.s:100178  .debug_str:000000000003409c .LASF7713
     /tmp/ccut0Zoi.s:98434  .debug_str:000000000002cbb5 .LASF7714
     /tmp/ccut0Zoi.s:89122  .debug_str:0000000000006cd2 .LASF7715
     /tmp/ccut0Zoi.s:94330  .debug_str:000000000001bfd4 .LASF7716
     /tmp/ccut0Zoi.s:102336  .debug_str:000000000003c89f .LASF7717
     /tmp/ccut0Zoi.s:94088  .debug_str:000000000001aece .LASF7718
     /tmp/ccut0Zoi.s:105348  .debug_str:00000000000490d5 .LASF7719
     /tmp/ccut0Zoi.s:91714  .debug_str:00000000000111bb .LASF7720
     /tmp/ccut0Zoi.s:101632  .debug_str:000000000003982d .LASF7721
     /tmp/ccut0Zoi.s:92092  .debug_str:0000000000012c32 .LASF7722
     /tmp/ccut0Zoi.s:100132  .debug_str:0000000000033db5 .LASF7723
     /tmp/ccut0Zoi.s:94270  .debug_str:000000000001bbf2 .LASF7724
     /tmp/ccut0Zoi.s:87682  .debug_str:0000000000000911 .LASF7725
     /tmp/ccut0Zoi.s:95234  .debug_str:000000000001fead .LASF7726
     /tmp/ccut0Zoi.s:92506  .debug_str:0000000000014546 .LASF7727
     /tmp/ccut0Zoi.s:103932  .debug_str:000000000004320f .LASF7728
     /tmp/ccut0Zoi.s:93132  .debug_str:0000000000016ea0 .LASF7729
     /tmp/ccut0Zoi.s:97242  .debug_str:0000000000027e63 .LASF7730
     /tmp/ccut0Zoi.s:101994  .debug_str:000000000003b135 .LASF7731
     /tmp/ccut0Zoi.s:103388  .debug_str:0000000000040fc3 .LASF7732
     /tmp/ccut0Zoi.s:100020  .debug_str:0000000000033576 .LASF7733
     /tmp/ccut0Zoi.s:100370  .debug_str:0000000000034d86 .LASF7734
     /tmp/ccut0Zoi.s:87974  .debug_str:0000000000001ce9 .LASF7735
     /tmp/ccut0Zoi.s:101512  .debug_str:0000000000039041 .LASF7736
     /tmp/ccut0Zoi.s:94484  .debug_str:000000000001c9dd .LASF7737
     /tmp/ccut0Zoi.s:102930  .debug_str:000000000003f0f1 .LASF7738
     /tmp/ccut0Zoi.s:105954  .debug_str:000000000004bc0b .LASF7739
     /tmp/ccut0Zoi.s:103004  .debug_str:000000000003f53a .LASF7740
     /tmp/ccut0Zoi.s:92328  .debug_str:0000000000013aad .LASF7741
     /tmp/ccut0Zoi.s:98202  .debug_str:000000000002bbd3 .LASF7742
     /tmp/ccut0Zoi.s:92084  .debug_str:0000000000012b97 .LASF7743
     /tmp/ccut0Zoi.s:102444  .debug_str:000000000003cf98 .LASF7744
     /tmp/ccut0Zoi.s:98428  .debug_str:000000000002cb52 .LASF7745
     /tmp/ccut0Zoi.s:99958  .debug_str:00000000000330f6 .LASF7746
     /tmp/ccut0Zoi.s:88328  .debug_str:00000000000035a3 .LASF7747
     /tmp/ccut0Zoi.s:98218  .debug_str:000000000002bcd0 .LASF7748
     /tmp/ccut0Zoi.s:98038  .debug_str:000000000002b1f3 .LASF7749
     /tmp/ccut0Zoi.s:94660  .debug_str:000000000001d6e9 .LASF7750
     /tmp/ccut0Zoi.s:97680  .debug_str:0000000000029a5b .LASF7751
     /tmp/ccut0Zoi.s:87708  .debug_str:0000000000000ab6 .LASF7752
     /tmp/ccut0Zoi.s:96516  .debug_str:0000000000024de1 .LASF7753
     /tmp/ccut0Zoi.s:99776  .debug_str:0000000000032538 .LASF7754
     /tmp/ccut0Zoi.s:96954  .debug_str:0000000000026b2a .LASF7755
     /tmp/ccut0Zoi.s:93932  .debug_str:000000000001a40d .LASF7756
     /tmp/ccut0Zoi.s:106252  .debug_str:000000000004d05c .LASF7757
     /tmp/ccut0Zoi.s:95100  .debug_str:000000000001f63a .LASF7758
     /tmp/ccut0Zoi.s:89968  .debug_str:000000000000a4ef .LASF7759
     /tmp/ccut0Zoi.s:99906  .debug_str:0000000000032e14 .LASF7760
     /tmp/ccut0Zoi.s:106256  .debug_str:000000000004d086 .LASF7761
     /tmp/ccut0Zoi.s:89522  .debug_str:0000000000008682 .LASF7762
     /tmp/ccut0Zoi.s:89304  .debug_str:0000000000007873 .LASF7763
     /tmp/ccut0Zoi.s:95512  .debug_str:0000000000021125 .LASF7764
     /tmp/ccut0Zoi.s:104858  .debug_str:0000000000046f6f .LASF7765
     /tmp/ccut0Zoi.s:91088  .debug_str:000000000000ebf2 .LASF7766
     /tmp/ccut0Zoi.s:99220  .debug_str:000000000003005d .LASF7767
     /tmp/ccut0Zoi.s:94956  .debug_str:000000000001eaff .LASF7768
     /tmp/ccut0Zoi.s:89316  .debug_str:00000000000078f7 .LASF7769
     /tmp/ccut0Zoi.s:93684  .debug_str:0000000000019209 .LASF7770
     /tmp/ccut0Zoi.s:92240  .debug_str:0000000000013541 .LASF7771
     /tmp/ccut0Zoi.s:105186  .debug_str:000000000004856f .LASF7772
     /tmp/ccut0Zoi.s:101416  .debug_str:0000000000038a03 .LASF7773
     /tmp/ccut0Zoi.s:106212  .debug_str:000000000004cd7f .LASF7774
     /tmp/ccut0Zoi.s:90706  .debug_str:000000000000d69a .LASF7775
     /tmp/ccut0Zoi.s:88506  .debug_str:00000000000042aa .LASF7776
     /tmp/ccut0Zoi.s:88582  .debug_str:000000000000479c .LASF7777
     /tmp/ccut0Zoi.s:91960  .debug_str:000000000001229c .LASF7778
     /tmp/ccut0Zoi.s:104816  .debug_str:0000000000046cc2 .LASF7779
     /tmp/ccut0Zoi.s:91246  .debug_str:000000000000f5df .LASF7780
     /tmp/ccut0Zoi.s:101176  .debug_str:0000000000037a42 .LASF7781
     /tmp/ccut0Zoi.s:93250  .debug_str:000000000001760b .LASF7782
     /tmp/ccut0Zoi.s:91234  .debug_str:000000000000f4c4 .LASF7783
     /tmp/ccut0Zoi.s:101152  .debug_str:0000000000037987 .LASF7784
     /tmp/ccut0Zoi.s:95456  .debug_str:0000000000020d99 .LASF7785
     /tmp/ccut0Zoi.s:100724  .debug_str:0000000000036308 .LASF7786
     /tmp/ccut0Zoi.s:104030  .debug_str:00000000000438ee .LASF7787
     /tmp/ccut0Zoi.s:92244  .debug_str:0000000000013565 .LASF7788
     /tmp/ccut0Zoi.s:87704  .debug_str:0000000000000a9d .LASF7789
     /tmp/ccut0Zoi.s:105952  .debug_str:000000000004bc03 .LASF7790
     /tmp/ccut0Zoi.s:101200  .debug_str:0000000000037bb8 .LASF7791
     /tmp/ccut0Zoi.s:95180  .debug_str:000000000001fbbc .LASF7792
     /tmp/ccut0Zoi.s:92120  .debug_str:0000000000012dac .LASF7793
     /tmp/ccut0Zoi.s:98870  .debug_str:000000000002e95d .LASF7794
     /tmp/ccut0Zoi.s:91670  .debug_str:0000000000010e27 .LASF7795
     /tmp/ccut0Zoi.s:101568  .debug_str:0000000000039444 .LASF7796
     /tmp/ccut0Zoi.s:98754  .debug_str:000000000002e188 .LASF7797
     /tmp/ccut0Zoi.s:95746  .debug_str:0000000000022046 .LASF7798
     /tmp/ccut0Zoi.s:99102  .debug_str:000000000002f8f0 .LASF7799
     /tmp/ccut0Zoi.s:88888  .debug_str:0000000000005c5c .LASF7800
     /tmp/ccut0Zoi.s:104370  .debug_str:0000000000044e8e .LASF7801
     /tmp/ccut0Zoi.s:90204  .debug_str:000000000000b636 .LASF7802
     /tmp/ccut0Zoi.s:100000  .debug_str:000000000003342c .LASF7803
     /tmp/ccut0Zoi.s:91752  .debug_str:000000000001146d .LASF7804
     /tmp/ccut0Zoi.s:100780  .debug_str:00000000000365fa .LASF7805
     /tmp/ccut0Zoi.s:87762  .debug_str:0000000000000e61 .LASF7806
     /tmp/ccut0Zoi.s:100850  .debug_str:0000000000036990 .LASF7807
     /tmp/ccut0Zoi.s:104134  .debug_str:0000000000043e9f .LASF7808
     /tmp/ccut0Zoi.s:104470  .debug_str:0000000000045578 .LASF7809
     /tmp/ccut0Zoi.s:90052  .debug_str:000000000000ab05 .LASF7810
     /tmp/ccut0Zoi.s:99984  .debug_str:00000000000332ec .LASF7811
     /tmp/ccut0Zoi.s:95354  .debug_str:0000000000020719 .LASF7812
     /tmp/ccut0Zoi.s:94624  .debug_str:000000000001d41a .LASF7813
     /tmp/ccut0Zoi.s:103880  .debug_str:0000000000042f25 .LASF7814
     /tmp/ccut0Zoi.s:87736  .debug_str:0000000000000c64 .LASF7815
     /tmp/ccut0Zoi.s:96436  .debug_str:0000000000024878 .LASF7816
     /tmp/ccut0Zoi.s:101480  .debug_str:0000000000038e11 .LASF7817
     /tmp/ccut0Zoi.s:105716  .debug_str:000000000004aadb .LASF7818
     /tmp/ccut0Zoi.s:101038  .debug_str:000000000003735e .LASF7819
     /tmp/ccut0Zoi.s:94140  .debug_str:000000000001b29a .LASF7820
     /tmp/ccut0Zoi.s:94730  .debug_str:000000000001db6a .LASF7821
     /tmp/ccut0Zoi.s:101610  .debug_str:00000000000396b2 .LASF7822
     /tmp/ccut0Zoi.s:102770  .debug_str:000000000003e4c3 .LASF7823
     /tmp/ccut0Zoi.s:96100  .debug_str:00000000000237e4 .LASF7824
     /tmp/ccut0Zoi.s:90280  .debug_str:000000000000baf7 .LASF7825
     /tmp/ccut0Zoi.s:93768  .debug_str:0000000000019860 .LASF7826
     /tmp/ccut0Zoi.s:96816  .debug_str:00000000000261d9 .LASF7827
     /tmp/ccut0Zoi.s:95010  .debug_str:000000000001ef84 .LASF7828
     /tmp/ccut0Zoi.s:97686  .debug_str:0000000000029ac7 .LASF7829
     /tmp/ccut0Zoi.s:92448  .debug_str:0000000000014162 .LASF7830
     /tmp/ccut0Zoi.s:105456  .debug_str:00000000000497d8 .LASF7831
     /tmp/ccut0Zoi.s:101582  .debug_str:0000000000039524 .LASF7832
     /tmp/ccut0Zoi.s:102730  .debug_str:000000000003e19a .LASF7833
     /tmp/ccut0Zoi.s:94772  .debug_str:000000000001ddf6 .LASF7834
     /tmp/ccut0Zoi.s:102946  .debug_str:000000000003f1ce .LASF7835
     /tmp/ccut0Zoi.s:90816  .debug_str:000000000000ddce .LASF7836
     /tmp/ccut0Zoi.s:90834  .debug_str:000000000000df79 .LASF7837
     /tmp/ccut0Zoi.s:103702  .debug_str:000000000004243b .LASF7838
     /tmp/ccut0Zoi.s:89246  .debug_str:00000000000074bc .LASF7839
     /tmp/ccut0Zoi.s:100446  .debug_str:0000000000035249 .LASF7840
     /tmp/ccut0Zoi.s:103772  .debug_str:000000000004287e .LASF7841
     /tmp/ccut0Zoi.s:100292  .debug_str:0000000000034813 .LASF7842
     /tmp/ccut0Zoi.s:89978  .debug_str:000000000000a55e .LASF7843
     /tmp/ccut0Zoi.s:99914  .debug_str:0000000000032e85 .LASF7844
     /tmp/ccut0Zoi.s:96270  .debug_str:00000000000240dc .LASF7845
     /tmp/ccut0Zoi.s:95758  .debug_str:000000000002212e .LASF7846
     /tmp/ccut0Zoi.s:100072  .debug_str:0000000000033960 .LASF7847
     /tmp/ccut0Zoi.s:94154  .debug_str:000000000001b357 .LASF7848
     /tmp/ccut0Zoi.s:93186  .debug_str:0000000000017246 .LASF7849
     /tmp/ccut0Zoi.s:92998  .debug_str:00000000000164df .LASF7850
     /tmp/ccut0Zoi.s:96658  .debug_str:000000000002579b .LASF7851
     /tmp/ccut0Zoi.s:101580  .debug_str:000000000003951c .LASF7852
     /tmp/ccut0Zoi.s:89308  .debug_str:000000000000789b .LASF7853
     /tmp/ccut0Zoi.s:95928  .debug_str:0000000000022c20 .LASF7854
     /tmp/ccut0Zoi.s:100172  .debug_str:0000000000034050 .LASF7855
     /tmp/ccut0Zoi.s:87812  .debug_str:00000000000011ca .LASF7856
     /tmp/ccut0Zoi.s:96570  .debug_str:0000000000025129 .LASF7857
     /tmp/ccut0Zoi.s:101230  .debug_str:0000000000037d3d .LASF7858
     /tmp/ccut0Zoi.s:88580  .debug_str:0000000000004790 .LASF7859
     /tmp/ccut0Zoi.s:101838  .debug_str:000000000003a6ed .LASF7860
     /tmp/ccut0Zoi.s:99222  .debug_str:0000000000030081 .LASF7861
     /tmp/ccut0Zoi.s:96556  .debug_str:0000000000025055 .LASF7862
     /tmp/ccut0Zoi.s:93630  .debug_str:0000000000018e7e .LASF7863
     /tmp/ccut0Zoi.s:94346  .debug_str:000000000001c088 .LASF7864
     /tmp/ccut0Zoi.s:100794  .debug_str:00000000000366e6 .LASF7865
     /tmp/ccut0Zoi.s:103806  .debug_str:0000000000042aa5 .LASF7866
     /tmp/ccut0Zoi.s:105560  .debug_str:0000000000049f9f .LASF7867
     /tmp/ccut0Zoi.s:106120  .debug_str:000000000004c711 .LASF7868
     /tmp/ccut0Zoi.s:96188  .debug_str:0000000000023cee .LASF7869
     /tmp/ccut0Zoi.s:92992  .debug_str:00000000000164ae .LASF7870
     /tmp/ccut0Zoi.s:95224  .debug_str:000000000001fe16 .LASF7871
     /tmp/ccut0Zoi.s:100606  .debug_str:0000000000035bb3 .LASF7872
     /tmp/ccut0Zoi.s:97526  .debug_str:0000000000029101 .LASF7873
     /tmp/ccut0Zoi.s:104114  .debug_str:0000000000043dd9 .LASF7874
     /tmp/ccut0Zoi.s:98596  .debug_str:000000000002d684 .LASF7875
     /tmp/ccut0Zoi.s:97528  .debug_str:0000000000029114 .LASF7876
     /tmp/ccut0Zoi.s:104116  .debug_str:0000000000043dec .LASF7877
     /tmp/ccut0Zoi.s:94188  .debug_str:000000000001b61b .LASF7878
     /tmp/ccut0Zoi.s:97530  .debug_str:0000000000029127 .LASF7879
     /tmp/ccut0Zoi.s:96888  .debug_str:00000000000266f5 .LASF7880
     /tmp/ccut0Zoi.s:105370  .debug_str:0000000000049224 .LASF7881
     /tmp/ccut0Zoi.s:96952  .debug_str:0000000000026b17 .LASF7882
     /tmp/ccut0Zoi.s:104120  .debug_str:0000000000043e0c .LASF7883
     /tmp/ccut0Zoi.s:99494  .debug_str:0000000000031324 .LASF7884
     /tmp/ccut0Zoi.s:97534  .debug_str:000000000002915b .LASF7885
     /tmp/ccut0Zoi.s:104122  .debug_str:0000000000043e1f .LASF7886
     /tmp/ccut0Zoi.s:93534  .debug_str:00000000000187e0 .LASF7887
     /tmp/ccut0Zoi.s:97536  .debug_str:000000000002916e .LASF7888
     /tmp/ccut0Zoi.s:104124  .debug_str:0000000000043e32 .LASF7889
     /tmp/ccut0Zoi.s:87584  .debug_str:0000000000000217 .LASF7890
     /tmp/ccut0Zoi.s:97538  .debug_str:0000000000029181 .LASF7891
     /tmp/ccut0Zoi.s:104126  .debug_str:0000000000043e45 .LASF7892
     /tmp/ccut0Zoi.s:100410  .debug_str:0000000000034fa7 .LASF7893
     /tmp/ccut0Zoi.s:97540  .debug_str:0000000000029194 .LASF7894
     /tmp/ccut0Zoi.s:104128  .debug_str:0000000000043e58 .LASF7895
     /tmp/ccut0Zoi.s:94470  .debug_str:000000000001c8e5 .LASF7896
     /tmp/ccut0Zoi.s:97772  .debug_str:000000000002a12f .LASF7897
     /tmp/ccut0Zoi.s:94702  .debug_str:000000000001da03 .LASF7898
     /tmp/ccut0Zoi.s:100414  .debug_str:0000000000034fef .LASF7899
     /tmp/ccut0Zoi.s:103786  .debug_str:0000000000042993 .LASF7900
     /tmp/ccut0Zoi.s:94704  .debug_str:000000000001da16 .LASF7901
     /tmp/ccut0Zoi.s:98424  .debug_str:000000000002caf5 .LASF7902
     /tmp/ccut0Zoi.s:88046  .debug_str:000000000000222d .LASF7903
     /tmp/ccut0Zoi.s:94706  .debug_str:000000000001da29 .LASF7904
     /tmp/ccut0Zoi.s:92414  .debug_str:0000000000013fe7 .LASF7905
     /tmp/ccut0Zoi.s:88048  .debug_str:0000000000002240 .LASF7906
     /tmp/ccut0Zoi.s:94708  .debug_str:000000000001da3c .LASF7907
     /tmp/ccut0Zoi.s:105178  .debug_str:00000000000484df .LASF7908
     /tmp/ccut0Zoi.s:103794  .debug_str:00000000000429df .LASF7909
     /tmp/ccut0Zoi.s:94710  .debug_str:000000000001da4f .LASF7910
     /tmp/ccut0Zoi.s:94208  .debug_str:000000000001b729 .LASF7911
     /tmp/ccut0Zoi.s:88052  .debug_str:0000000000002293 .LASF7912
     /tmp/ccut0Zoi.s:94712  .debug_str:000000000001da62 .LASF7913
     /tmp/ccut0Zoi.s:93636  .debug_str:0000000000018ef4 .LASF7914
     /tmp/ccut0Zoi.s:88054  .debug_str:00000000000022a6 .LASF7915
     /tmp/ccut0Zoi.s:94714  .debug_str:000000000001da75 .LASF7916
     /tmp/ccut0Zoi.s:106144  .debug_str:000000000004c8ed .LASF7917
     /tmp/ccut0Zoi.s:88056  .debug_str:00000000000022b9 .LASF7918
     /tmp/ccut0Zoi.s:94716  .debug_str:000000000001da88 .LASF7919
     /tmp/ccut0Zoi.s:100230  .debug_str:00000000000343c4 .LASF7920
     /tmp/ccut0Zoi.s:105094  .debug_str:0000000000047e69 .LASF7921
     /tmp/ccut0Zoi.s:97442  .debug_str:0000000000028bf6 .LASF7922
     /tmp/ccut0Zoi.s:105210  .debug_str:000000000004872c .LASF7923
     /tmp/ccut0Zoi.s:95610  .debug_str:000000000002173b .LASF7924
     /tmp/ccut0Zoi.s:87832  .debug_str:0000000000001310 .LASF7925
     /tmp/ccut0Zoi.s:92248  .debug_str:0000000000013596 .LASF7926
     /tmp/ccut0Zoi.s:94444  .debug_str:000000000001c739 .LASF7927
     /tmp/ccut0Zoi.s:99412  .debug_str:0000000000030db0 .LASF7928
     /tmp/ccut0Zoi.s:98356  .debug_str:000000000002c614 .LASF7929
     /tmp/ccut0Zoi.s:96118  .debug_str:00000000000238f2 .LASF7930
     /tmp/ccut0Zoi.s:101320  .debug_str:000000000003836f .LASF7931
     /tmp/ccut0Zoi.s:105548  .debug_str:0000000000049eb9 .LASF7932
     /tmp/ccut0Zoi.s:96426  .debug_str:0000000000024810 .LASF7933
     /tmp/ccut0Zoi.s:93418  .debug_str:0000000000017ff1 .LASF7934
     /tmp/ccut0Zoi.s:89378  .debug_str:0000000000007cc6 .LASF7935
     /tmp/ccut0Zoi.s:99948  .debug_str:000000000003303c .LASF7936
     /tmp/ccut0Zoi.s:106078  .debug_str:000000000004c404 .LASF7937
     /tmp/ccut0Zoi.s:89752  .debug_str:00000000000096d6 .LASF7938
     /tmp/ccut0Zoi.s:100498  .debug_str:0000000000035533 .LASF7939
     /tmp/ccut0Zoi.s:99352  .debug_str:00000000000309a2 .LASF7940
     /tmp/ccut0Zoi.s:88854  .debug_str:0000000000005a2c .LASF7941
     /tmp/ccut0Zoi.s:102426  .debug_str:000000000003ce4a .LASF7942
     /tmp/ccut0Zoi.s:98694  .debug_str:000000000002ddeb .LASF7943
     /tmp/ccut0Zoi.s:91784  .debug_str:0000000000011688 .LASF7944
     /tmp/ccut0Zoi.s:100220  .debug_str:000000000003435e .LASF7945
     /tmp/ccut0Zoi.s:103520  .debug_str:0000000000041811 .LASF7946
     /tmp/ccut0Zoi.s:94516  .debug_str:000000000001cc76 .LASF7947
     /tmp/ccut0Zoi.s:105400  .debug_str:000000000004943b .LASF7948
     /tmp/ccut0Zoi.s:101634  .debug_str:0000000000039848 .LASF7949
     /tmp/ccut0Zoi.s:88660  .debug_str:0000000000004ca7 .LASF7950
     /tmp/ccut0Zoi.s:103754  .debug_str:000000000004277a .LASF7951
     /tmp/ccut0Zoi.s:88678  .debug_str:0000000000004e26 .LASF7952
     /tmp/ccut0Zoi.s:103310  .debug_str:00000000000409f0 .LASF7953
     /tmp/ccut0Zoi.s:100588  .debug_str:0000000000035a4f .LASF7954
     /tmp/ccut0Zoi.s:103916  .debug_str:0000000000043116 .LASF7955
     /tmp/ccut0Zoi.s:97920  .debug_str:000000000002aa66 .LASF7956
     /tmp/ccut0Zoi.s:91916  .debug_str:0000000000011faf .LASF7957
     /tmp/ccut0Zoi.s:104334  .debug_str:0000000000044bfa .LASF7958
     /tmp/ccut0Zoi.s:95782  .debug_str:000000000002228e .LASF7959
     /tmp/ccut0Zoi.s:91394  .debug_str:000000000000fd9f .LASF7960
     /tmp/ccut0Zoi.s:90170  .debug_str:000000000000b399 .LASF7961
     /tmp/ccut0Zoi.s:104822  .debug_str:0000000000046d10 .LASF7962
     /tmp/ccut0Zoi.s:105564  .debug_str:0000000000049fc4 .LASF7963
     /tmp/ccut0Zoi.s:89838  .debug_str:0000000000009c6f .LASF7964
     /tmp/ccut0Zoi.s:90600  .debug_str:000000000000d098 .LASF7965
     /tmp/ccut0Zoi.s:95338  .debug_str:0000000000020634 .LASF7966
     /tmp/ccut0Zoi.s:91744  .debug_str:00000000000113c9 .LASF7967
     /tmp/ccut0Zoi.s:103108  .debug_str:000000000003fc8e .LASF7968
     /tmp/ccut0Zoi.s:90754  .debug_str:000000000000d9f4 .LASF7969
     /tmp/ccut0Zoi.s:104482  .debug_str:0000000000045656 .LASF7970
     /tmp/ccut0Zoi.s:87698  .debug_str:0000000000000a4e .LASF7971
     /tmp/ccut0Zoi.s:89930  .debug_str:000000000000a260 .LASF7972
     /tmp/ccut0Zoi.s:104428  .debug_str:0000000000045304 .LASF7973
     /tmp/ccut0Zoi.s:102380  .debug_str:000000000003cafe .LASF7974
     /tmp/ccut0Zoi.s:96848  .debug_str:0000000000026413 .LASF7975
     /tmp/ccut0Zoi.s:88638  .debug_str:0000000000004b58 .LASF7976
     /tmp/ccut0Zoi.s:104352  .debug_str:0000000000044d25 .LASF7977
     /tmp/ccut0Zoi.s:93788  .debug_str:0000000000019985 .LASF7978
     /tmp/ccut0Zoi.s:97140  .debug_str:00000000000277e3 .LASF7979
     /tmp/ccut0Zoi.s:94826  .debug_str:000000000001e22f .LASF7980
     /tmp/ccut0Zoi.s:87680  .debug_str:0000000000000901 .LASF7981
     /tmp/ccut0Zoi.s:88416  .debug_str:0000000000003bb2 .LASF7982
     /tmp/ccut0Zoi.s:97620  .debug_str:0000000000029729 .LASF7983
     /tmp/ccut0Zoi.s:104542  .debug_str:00000000000459f1 .LASF7984
     /tmp/ccut0Zoi.s:96206  .debug_str:0000000000023dfa .LASF7985
     /tmp/ccut0Zoi.s:88182  .debug_str:0000000000002bbd .LASF7986
     /tmp/ccut0Zoi.s:91850  .debug_str:0000000000011b4d .LASF7987
     /tmp/ccut0Zoi.s:98478  .debug_str:000000000002ced4 .LASF7988
     /tmp/ccut0Zoi.s:93718  .debug_str:00000000000194a1 .LASF7989
     /tmp/ccut0Zoi.s:92698  .debug_str:0000000000015256 .LASF7990
     /tmp/ccut0Zoi.s:101590  .debug_str:0000000000039594 .LASF7991
     /tmp/ccut0Zoi.s:105228  .debug_str:000000000004887c .LASF7992
     /tmp/ccut0Zoi.s:96430  .debug_str:000000000002482e .LASF7993
     /tmp/ccut0Zoi.s:90500  .debug_str:000000000000ca0e .LASF7994
     /tmp/ccut0Zoi.s:99590  .debug_str:0000000000031990 .LASF7995
     /tmp/ccut0Zoi.s:97662  .debug_str:000000000002999d .LASF7996
     /tmp/ccut0Zoi.s:98074  .debug_str:000000000002b4a6 .LASF7997
     /tmp/ccut0Zoi.s:102112  .debug_str:000000000003b9a6 .LASF7998
     /tmp/ccut0Zoi.s:100494  .debug_str:00000000000354fc .LASF7999
     /tmp/ccut0Zoi.s:96220  .debug_str:0000000000023ecd .LASF8000
     /tmp/ccut0Zoi.s:96778  .debug_str:0000000000025ed8 .LASF8001
     /tmp/ccut0Zoi.s:98996  .debug_str:000000000002f243 .LASF8002
     /tmp/ccut0Zoi.s:89812  .debug_str:0000000000009a85 .LASF8003
     /tmp/ccut0Zoi.s:100982  .debug_str:00000000000370ba .LASF8004
     /tmp/ccut0Zoi.s:92256  .debug_str:000000000001360d .LASF8005
     /tmp/ccut0Zoi.s:92562  .debug_str:00000000000148f1 .LASF8006
     /tmp/ccut0Zoi.s:94308  .debug_str:000000000001be44 .LASF8007
     /tmp/ccut0Zoi.s:93846  .debug_str:0000000000019e8b .LASF8008
     /tmp/ccut0Zoi.s:94150  .debug_str:000000000001b31e .LASF8009
     /tmp/ccut0Zoi.s:89222  .debug_str:0000000000007343 .LASF8010
     /tmp/ccut0Zoi.s:91252  .debug_str:000000000000f61f .LASF8011
     /tmp/ccut0Zoi.s:104368  .debug_str:0000000000044e80 .LASF8012
     /tmp/ccut0Zoi.s:91764  .debug_str:0000000000011540 .LASF8013
     /tmp/ccut0Zoi.s:92846  .debug_str:0000000000015b44 .LASF8014
     /tmp/ccut0Zoi.s:95198  .debug_str:000000000001fc94 .LASF8015
     /tmp/ccut0Zoi.s:92234  .debug_str:00000000000134ee .LASF8016
     /tmp/ccut0Zoi.s:89450  .debug_str:00000000000081ed .LASF8017
     /tmp/ccut0Zoi.s:97676  .debug_str:0000000000029a2b .LASF8018
     /tmp/ccut0Zoi.s:99332  .debug_str:00000000000307da .LASF8019
     /tmp/ccut0Zoi.s:106260  .debug_str:000000000004d0d9 .LASF8020
     /tmp/ccut0Zoi.s:88316  .debug_str:00000000000034e9 .LASF8021
     /tmp/ccut0Zoi.s:97114  .debug_str:0000000000027612 .LASF8022
     /tmp/ccut0Zoi.s:105676  .debug_str:000000000004a74b .LASF8023
     /tmp/ccut0Zoi.s:89060  .debug_str:0000000000006800 .LASF8024
     /tmp/ccut0Zoi.s:97014  .debug_str:0000000000026f06 .LASF8025
     /tmp/ccut0Zoi.s:90292  .debug_str:000000000000bbc5 .LASF8026
     /tmp/ccut0Zoi.s:99872  .debug_str:0000000000032b7a .LASF8027
     /tmp/ccut0Zoi.s:98318  .debug_str:000000000002c3a7 .LASF8028
     /tmp/ccut0Zoi.s:94920  .debug_str:000000000001e90d .LASF8029
     /tmp/ccut0Zoi.s:104344  .debug_str:0000000000044c7b .LASF8030
     /tmp/ccut0Zoi.s:98044  .debug_str:000000000002b293 .LASF8031
     /tmp/ccut0Zoi.s:105364  .debug_str:00000000000491f2 .LASF8032
     /tmp/ccut0Zoi.s:99024  .debug_str:000000000002f411 .LASF8033
     /tmp/ccut0Zoi.s:93264  .debug_str:0000000000017740 .LASF8034
     /tmp/ccut0Zoi.s:91442  .debug_str:0000000000010090 .LASF8035
     /tmp/ccut0Zoi.s:95040  .debug_str:000000000001f196 .LASF8036
     /tmp/ccut0Zoi.s:101722  .debug_str:0000000000039f12 .LASF8037
     /tmp/ccut0Zoi.s:94506  .debug_str:000000000001cbca .LASF8038
     /tmp/ccut0Zoi.s:90284  .debug_str:000000000000bb27 .LASF8039
     /tmp/ccut0Zoi.s:92906  .debug_str:0000000000015ecb .LASF8040
     /tmp/ccut0Zoi.s:103144  .debug_str:000000000003ff54 .LASF8041
     /tmp/ccut0Zoi.s:96402  .debug_str:000000000002479e .LASF8042
     /tmp/ccut0Zoi.s:88442  .debug_str:0000000000003da7 .LASF8043
     /tmp/ccut0Zoi.s:93680  .debug_str:00000000000191cc .LASF8044
     /tmp/ccut0Zoi.s:105784  .debug_str:000000000004b047 .LASF8045
     /tmp/ccut0Zoi.s:88340  .debug_str:0000000000003691 .LASF8046
     /tmp/ccut0Zoi.s:97780  .debug_str:000000000002a1bd .LASF8047
     /tmp/ccut0Zoi.s:91024  .debug_str:000000000000e862 .LASF8048
     /tmp/ccut0Zoi.s:99194  .debug_str:000000000002fedd .LASF8049
     /tmp/ccut0Zoi.s:100468  .debug_str:00000000000353a1 .LASF8050
     /tmp/ccut0Zoi.s:103792  .debug_str:00000000000429d7 .LASF8051
     /tmp/ccut0Zoi.s:93212  .debug_str:000000000001739a .LASF8052
     /tmp/ccut0Zoi.s:100476  .debug_str:0000000000035406 .LASF8053
     /tmp/ccut0Zoi.s:103800  .debug_str:0000000000042a4e .LASF8054
     /tmp/ccut0Zoi.s:103990  .debug_str:0000000000043640 .LASF8055
     /tmp/ccut0Zoi.s:102642  .debug_str:000000000003dbfa .LASF8056
     /tmp/ccut0Zoi.s:99096  .debug_str:000000000002f871 .LASF8057
     /tmp/ccut0Zoi.s:97298  .debug_str:0000000000028252 .LASF8058
     /tmp/ccut0Zoi.s:105232  .debug_str:00000000000488ba .LASF8059
     /tmp/ccut0Zoi.s:101564  .debug_str:0000000000039426 .LASF8060
     /tmp/ccut0Zoi.s:96836  .debug_str:0000000000026338 .LASF8061
     /tmp/ccut0Zoi.s:98984  .debug_str:000000000002f19b .LASF8062
     /tmp/ccut0Zoi.s:99376  .debug_str:0000000000030b3d .LASF8063
     /tmp/ccut0Zoi.s:98338  .debug_str:000000000002c519 .LASF8064
     /tmp/ccut0Zoi.s:105274  .debug_str:0000000000048be3 .LASF8065
     /tmp/ccut0Zoi.s:104778  .debug_str:0000000000046a3b .LASF8066
     /tmp/ccut0Zoi.s:103590  .debug_str:0000000000041ccf .LASF8067
     /tmp/ccut0Zoi.s:105718  .debug_str:000000000004ab02 .LASF8068
     /tmp/ccut0Zoi.s:101118  .debug_str:0000000000037751 .LASF8069
     /tmp/ccut0Zoi.s:100622  .debug_str:0000000000035c9a .LASF8070
     /tmp/ccut0Zoi.s:91616  .debug_str:0000000000010ba6 .LASF8071
     /tmp/ccut0Zoi.s:96376  .debug_str:000000000002463f .LASF8072
     /tmp/ccut0Zoi.s:88170  .debug_str:0000000000002b27 .LASF8073
     /tmp/ccut0Zoi.s:90850  .debug_str:000000000000e009 .LASF8074
     /tmp/ccut0Zoi.s:93634  .debug_str:0000000000018edb .LASF8075
     /tmp/ccut0Zoi.s:95832  .debug_str:0000000000022642 .LASF8076
     /tmp/ccut0Zoi.s:102064  .debug_str:000000000003b5fd .LASF8077
     /tmp/ccut0Zoi.s:96758  .debug_str:0000000000025d59 .LASF8078
     /tmp/ccut0Zoi.s:100164  .debug_str:0000000000033fdb .LASF8079
     /tmp/ccut0Zoi.s:105390  .debug_str:0000000000049386 .LASF8080
     /tmp/ccut0Zoi.s:100070  .debug_str:0000000000033949 .LASF8081
     /tmp/ccut0Zoi.s:92602  .debug_str:0000000000014b85 .LASF8082
     /tmp/ccut0Zoi.s:96050  .debug_str:00000000000234ef .LASF8083
     /tmp/ccut0Zoi.s:97076  .debug_str:00000000000273cc .LASF8084
     /tmp/ccut0Zoi.s:97152  .debug_str:00000000000278d4 .LASF8085
     /tmp/ccut0Zoi.s:90948  .debug_str:000000000000e52f .LASF8086
     /tmp/ccut0Zoi.s:97456  .debug_str:0000000000028cce .LASF8087
     /tmp/ccut0Zoi.s:105866  .debug_str:000000000004b60b .LASF8088
     /tmp/ccut0Zoi.s:92588  .debug_str:0000000000014a75 .LASF8089
     /tmp/ccut0Zoi.s:92546  .debug_str:00000000000147ac .LASF8090
     /tmp/ccut0Zoi.s:95734  .debug_str:0000000000021f3a .LASF8091
     /tmp/ccut0Zoi.s:89514  .debug_str:000000000000860d .LASF8092
     /tmp/ccut0Zoi.s:93754  .debug_str:0000000000019795 .LASF8093
     /tmp/ccut0Zoi.s:94274  .debug_str:000000000001bc1a .LASF8094
     /tmp/ccut0Zoi.s:105942  .debug_str:000000000004bb98 .LASF8095
     /tmp/ccut0Zoi.s:89820  .debug_str:0000000000009b02 .LASF8096
     /tmp/ccut0Zoi.s:103724  .debug_str:00000000000425aa .LASF8097
     /tmp/ccut0Zoi.s:93480  .debug_str:0000000000018494 .LASF8098
     /tmp/ccut0Zoi.s:103684  .debug_str:000000000004234a .LASF8099
     /tmp/ccut0Zoi.s:104682  .debug_str:0000000000046368 .LASF8100
     /tmp/ccut0Zoi.s:98834  .debug_str:000000000002e6fb .LASF8101
     /tmp/ccut0Zoi.s:92204  .debug_str:00000000000132a6 .LASF8102
     /tmp/ccut0Zoi.s:89952  .debug_str:000000000000a3a8 .LASF8103
     /tmp/ccut0Zoi.s:92130  .debug_str:0000000000012e34 .LASF8104
     /tmp/ccut0Zoi.s:103162  .debug_str:0000000000040097 .LASF8105
     /tmp/ccut0Zoi.s:98490  .debug_str:000000000002cf8a .LASF8106
     /tmp/ccut0Zoi.s:95208  .debug_str:000000000001fd48 .LASF8107
     /tmp/ccut0Zoi.s:99566  .debug_str:00000000000317ef .LASF8108
     /tmp/ccut0Zoi.s:105388  .debug_str:0000000000049367 .LASF8109
     /tmp/ccut0Zoi.s:100246  .debug_str:0000000000034511 .LASF8110
     /tmp/ccut0Zoi.s:105432  .debug_str:000000000004964b .LASF8111
     /tmp/ccut0Zoi.s:105728  .debug_str:000000000004abe9 .LASF8112
     /tmp/ccut0Zoi.s:90502  .debug_str:000000000000ca1e .LASF8113
     /tmp/ccut0Zoi.s:98556  .debug_str:000000000002d470 .LASF8114
     /tmp/ccut0Zoi.s:102304  .debug_str:000000000003c6da .LASF8115
     /tmp/ccut0Zoi.s:100716  .debug_str:000000000003626b .LASF8116
     /tmp/ccut0Zoi.s:88928  .debug_str:0000000000005f0e .LASF8117
     /tmp/ccut0Zoi.s:105324  .debug_str:0000000000048f32 .LASF8118
     /tmp/ccut0Zoi.s:89548  .debug_str:000000000000889b .LASF8119
     /tmp/ccut0Zoi.s:104066  .debug_str:0000000000043b17 .LASF8120
     /tmp/ccut0Zoi.s:95694  .debug_str:0000000000021cfb .LASF8121
     /tmp/ccut0Zoi.s:98476  .debug_str:000000000002cec9 .LASF8122
     /tmp/ccut0Zoi.s:94072  .debug_str:000000000001addc .LASF8123
     /tmp/ccut0Zoi.s:103594  .debug_str:0000000000041cff .LASF8124
     /tmp/ccut0Zoi.s:105462  .debug_str:0000000000049847 .LASF8125
     /tmp/ccut0Zoi.s:101234  .debug_str:0000000000037d6a .LASF8126
     /tmp/ccut0Zoi.s:99334  .debug_str:00000000000307fc .LASF8127
     /tmp/ccut0Zoi.s:103580  .debug_str:0000000000041c5f .LASF8128
     /tmp/ccut0Zoi.s:97954  .debug_str:000000000002ac7c .LASF8129
     /tmp/ccut0Zoi.s:93318  .debug_str:0000000000017a89 .LASF8130
     /tmp/ccut0Zoi.s:91800  .debug_str:00000000000117e1 .LASF8131
     /tmp/ccut0Zoi.s:96096  .debug_str:000000000002370d .LASF8132
     /tmp/ccut0Zoi.s:90556  .debug_str:000000000000cd94 .LASF8133
     /tmp/ccut0Zoi.s:97560  .debug_str:0000000000029332 .LASF8134
     /tmp/ccut0Zoi.s:93180  .debug_str:0000000000017201 .LASF8135
     /tmp/ccut0Zoi.s:90570  .debug_str:000000000000ce9c .LASF8136
     /tmp/ccut0Zoi.s:102088  .debug_str:000000000003b804 .LASF8137
     /tmp/ccut0Zoi.s:94196  .debug_str:000000000001b678 .LASF8138
     /tmp/ccut0Zoi.s:104908  .debug_str:0000000000047283 .LASF8139
     /tmp/ccut0Zoi.s:102328  .debug_str:000000000003c861 .LASF8140
     /tmp/ccut0Zoi.s:94336  .debug_str:000000000001c027 .LASF8141
     /tmp/ccut0Zoi.s:105378  .debug_str:00000000000492c4 .LASF8142
     /tmp/ccut0Zoi.s:89566  .debug_str:00000000000089d3 .LASF8143
     /tmp/ccut0Zoi.s:95574  .debug_str:0000000000021498 .LASF8144
     /tmp/ccut0Zoi.s:101134  .debug_str:0000000000037872 .LASF8145
     /tmp/ccut0Zoi.s:102878  .debug_str:000000000003ecf7 .LASF8146
     /tmp/ccut0Zoi.s:91420  .debug_str:000000000000ff4e .LASF8147
     /tmp/ccut0Zoi.s:100782  .debug_str:0000000000036601 .LASF8148
     /tmp/ccut0Zoi.s:88312  .debug_str:00000000000034ab .LASF8149
     /tmp/ccut0Zoi.s:97900  .debug_str:000000000002a915 .LASF8150
     /tmp/ccut0Zoi.s:105506  .debug_str:0000000000049b5a .LASF8151
     /tmp/ccut0Zoi.s:102240  .debug_str:000000000003c257 .LASF8152
     /tmp/ccut0Zoi.s:100490  .debug_str:00000000000354d6 .LASF8153
     /tmp/ccut0Zoi.s:105100  .debug_str:0000000000047ecf .LASF8154
     /tmp/ccut0Zoi.s:91664  .debug_str:0000000000010de5 .LASF8155
     /tmp/ccut0Zoi.s:89456  .debug_str:000000000000821e .LASF8156
     /tmp/ccut0Zoi.s:102712  .debug_str:000000000003e00e .LASF8157
     /tmp/ccut0Zoi.s:90588  .debug_str:000000000000cfc5 .LASF8158
     /tmp/ccut0Zoi.s:105874  .debug_str:000000000004b6ac .LASF8159
     /tmp/ccut0Zoi.s:92778  .debug_str:00000000000156a1 .LASF8160
     /tmp/ccut0Zoi.s:89672  .debug_str:00000000000090a8 .LASF8161
     /tmp/ccut0Zoi.s:97012  .debug_str:0000000000026ef5 .LASF8162
     /tmp/ccut0Zoi.s:89564  .debug_str:00000000000089ae .LASF8163
     /tmp/ccut0Zoi.s:93496  .debug_str:000000000001856f .LASF8164
     /tmp/ccut0Zoi.s:90056  .debug_str:000000000000ab1b .LASF8165
     /tmp/ccut0Zoi.s:92646  .debug_str:0000000000014e6c .LASF8166
     /tmp/ccut0Zoi.s:93208  .debug_str:0000000000017363 .LASF8167
     /tmp/ccut0Zoi.s:90058  .debug_str:000000000000ab2d .LASF8168
     /tmp/ccut0Zoi.s:105414  .debug_str:0000000000049509 .LASF8169
     /tmp/ccut0Zoi.s:90552  .debug_str:000000000000cd70 .LASF8170
     /tmp/ccut0Zoi.s:92826  .debug_str:00000000000159f0 .LASF8171
     /tmp/ccut0Zoi.s:90334  .debug_str:000000000000be3b .LASF8172
     /tmp/ccut0Zoi.s:94608  .debug_str:000000000001d2fb .LASF8173
     /tmp/ccut0Zoi.s:101776  .debug_str:000000000003a2e3 .LASF8174
     /tmp/ccut0Zoi.s:99980  .debug_str:0000000000033297 .LASF8175
     /tmp/ccut0Zoi.s:97794  .debug_str:000000000002a22e .LASF8176
     /tmp/ccut0Zoi.s:93168  .debug_str:0000000000017165 .LASF8177
     /tmp/ccut0Zoi.s:100900  .debug_str:0000000000036cf8 .LASF8178
     /tmp/ccut0Zoi.s:98184  .debug_str:000000000002bacc .LASF8179
     /tmp/ccut0Zoi.s:95466  .debug_str:0000000000020e0d .LASF8180
     /tmp/ccut0Zoi.s:103052  .debug_str:000000000003f866 .LASF8181
     /tmp/ccut0Zoi.s:88676  .debug_str:0000000000004e11 .LASF8182
     /tmp/ccut0Zoi.s:100252  .debug_str:0000000000034568 .LASF8183
     /tmp/ccut0Zoi.s:104664  .debug_str:00000000000461f0 .LASF8184
     /tmp/ccut0Zoi.s:94872  .debug_str:000000000001e576 .LASF8185
     /tmp/ccut0Zoi.s:98602  .debug_str:000000000002d6f2 .LASF8186
     /tmp/ccut0Zoi.s:89200  .debug_str:00000000000071a5 .LASF8187
     /tmp/ccut0Zoi.s:97124  .debug_str:00000000000276bf .LASF8188
     /tmp/ccut0Zoi.s:105408  .debug_str:000000000004948c .LASF8189
     /tmp/ccut0Zoi.s:103706  .debug_str:000000000004246c .LASF8190
     /tmp/ccut0Zoi.s:96202  .debug_str:0000000000023dcc .LASF8191
     /tmp/ccut0Zoi.s:104526  .debug_str:0000000000045912 .LASF8192
     /tmp/ccut0Zoi.s:90518  .debug_str:000000000000cb55 .LASF8193
     /tmp/ccut0Zoi.s:94002  .debug_str:000000000001a881 .LASF8194
     /tmp/ccut0Zoi.s:92972  .debug_str:000000000001634b .LASF8195
     /tmp/ccut0Zoi.s:100430  .debug_str:0000000000035102 .LASF8196
     /tmp/ccut0Zoi.s:100358  .debug_str:0000000000034cdf .LASF8197
     /tmp/ccut0Zoi.s:103248  .debug_str:000000000004053f .LASF8198
     /tmp/ccut0Zoi.s:91816  .debug_str:0000000000011922 .LASF8199
     /tmp/ccut0Zoi.s:88164  .debug_str:0000000000002ad4 .LASF8200
     /tmp/ccut0Zoi.s:95090  .debug_str:000000000001f566 .LASF8201
     /tmp/ccut0Zoi.s:94316  .debug_str:000000000001bee0 .LASF8202
     /tmp/ccut0Zoi.s:98664  .debug_str:000000000002dbf9 .LASF8203
     /tmp/ccut0Zoi.s:102566  .debug_str:000000000003d75a .LASF8204
     /tmp/ccut0Zoi.s:105544  .debug_str:0000000000049e71 .LASF8205
     /tmp/ccut0Zoi.s:101316  .debug_str:0000000000038322 .LASF8206
     /tmp/ccut0Zoi.s:101098  .debug_str:00000000000375f0 .LASF8207
     /tmp/ccut0Zoi.s:102736  .debug_str:000000000003e1fd .LASF8208
     /tmp/ccut0Zoi.s:105038  .debug_str:0000000000047adb .LASF8209
     /tmp/ccut0Zoi.s:94116  .debug_str:000000000001b102 .LASF8210
     /tmp/ccut0Zoi.s:101206  .debug_str:0000000000037c08 .LASF8211
     /tmp/ccut0Zoi.s:88684  .debug_str:0000000000004e5d .LASF8212
     /tmp/ccut0Zoi.s:102258  .debug_str:000000000003c37a .LASF8213
     /tmp/ccut0Zoi.s:96366  .debug_str:0000000000024589 .LASF8214
     /tmp/ccut0Zoi.s:93962  .debug_str:000000000001a608 .LASF8215
     /tmp/ccut0Zoi.s:92168  .debug_str:000000000001307d .LASF8216
     /tmp/ccut0Zoi.s:93064  .debug_str:00000000000169ac .LASF8217
     /tmp/ccut0Zoi.s:99350  .debug_str:000000000003098b .LASF8218
     /tmp/ccut0Zoi.s:97858  .debug_str:000000000002a64f .LASF8219
     /tmp/ccut0Zoi.s:96938  .debug_str:0000000000026a36 .LASF8220
     /tmp/ccut0Zoi.s:93624  .debug_str:0000000000018e56 .LASF8221
     /tmp/ccut0Zoi.s:94926  .debug_str:000000000001e942 .LASF8222
     /tmp/ccut0Zoi.s:101598  .debug_str:00000000000395e1 .LASF8223
     /tmp/ccut0Zoi.s:101332  .debug_str:000000000003841d .LASF8224
     /tmp/ccut0Zoi.s:90710  .debug_str:000000000000d6d4 .LASF8225
     /tmp/ccut0Zoi.s:101468  .debug_str:0000000000038d46 .LASF8226
     /tmp/ccut0Zoi.s:90602  .debug_str:000000000000d0b8 .LASF8227
     /tmp/ccut0Zoi.s:90022  .debug_str:000000000000a844 .LASF8228
     /tmp/ccut0Zoi.s:97624  .debug_str:0000000000029785 .LASF8229
     /tmp/ccut0Zoi.s:104796  .debug_str:0000000000046b69 .LASF8230
     /tmp/ccut0Zoi.s:89686  .debug_str:00000000000091bc .LASF8231
     /tmp/ccut0Zoi.s:104578  .debug_str:0000000000045c1b .LASF8232
     /tmp/ccut0Zoi.s:104820  .debug_str:0000000000046d06 .LASF8233
     /tmp/ccut0Zoi.s:89710  .debug_str:00000000000093ad .LASF8234
     /tmp/ccut0Zoi.s:104264  .debug_str:000000000004474b .LASF8235
     /tmp/ccut0Zoi.s:88420  .debug_str:0000000000003c05 .LASF8236
     /tmp/ccut0Zoi.s:97182  .debug_str:0000000000027b4a .LASF8237
     /tmp/ccut0Zoi.s:101050  .debug_str:00000000000373f9 .LASF8238
     /tmp/ccut0Zoi.s:90452  .debug_str:000000000000c69f .LASF8239
     /tmp/ccut0Zoi.s:102484  .debug_str:000000000003d1f1 .LASF8240
     /tmp/ccut0Zoi.s:103682  .debug_str:0000000000042321 .LASF8241
     /tmp/ccut0Zoi.s:98052  .debug_str:000000000002b2db .LASF8242
     /tmp/ccut0Zoi.s:103394  .debug_str:0000000000041036 .LASF8243
     /tmp/ccut0Zoi.s:87768  .debug_str:0000000000000eb4 .LASF8244
     /tmp/ccut0Zoi.s:92812  .debug_str:00000000000158a8 .LASF8245
     /tmp/ccut0Zoi.s:90024  .debug_str:000000000000a869 .LASF8246
     /tmp/ccut0Zoi.s:93430  .debug_str:000000000001809c .LASF8247
     /tmp/ccut0Zoi.s:98624  .debug_str:000000000002d8a1 .LASF8248
     /tmp/ccut0Zoi.s:88686  .debug_str:0000000000004e71 .LASF8249
     /tmp/ccut0Zoi.s:89996  .debug_str:000000000000a6c9 .LASF8250
     /tmp/ccut0Zoi.s:100566  .debug_str:00000000000359db .LASF8251
     /tmp/ccut0Zoi.s:88194  .debug_str:0000000000002cbb .LASF8252
     /tmp/ccut0Zoi.s:93204  .debug_str:0000000000017322 .LASF8253
     /tmp/ccut0Zoi.s:100314  .debug_str:00000000000349f2 .LASF8254
     /tmp/ccut0Zoi.s:98868  .debug_str:000000000002e94a .LASF8255
     /tmp/ccut0Zoi.s:89324  .debug_str:0000000000007954 .LASF8256
     /tmp/ccut0Zoi.s:105802  .debug_str:000000000004b18c .LASF8257
     /tmp/ccut0Zoi.s:96956  .debug_str:0000000000026b4e .LASF8258
     /tmp/ccut0Zoi.s:89796  .debug_str:000000000000993e .LASF8259
     /tmp/ccut0Zoi.s:99386  .debug_str:0000000000030bc6 .LASF8260
     /tmp/ccut0Zoi.s:105470  .debug_str:00000000000498df .LASF8261
     /tmp/ccut0Zoi.s:98400  .debug_str:000000000002c994 .LASF8262
     /tmp/ccut0Zoi.s:95470  .debug_str:0000000000020e49 .LASF8263
     /tmp/ccut0Zoi.s:105650  .debug_str:000000000004a4de .LASF8264
     /tmp/ccut0Zoi.s:87892  .debug_str:0000000000001726 .LASF8265
     /tmp/ccut0Zoi.s:88714  .debug_str:000000000000502e .LASF8266
     /tmp/ccut0Zoi.s:105468  .debug_str:00000000000498d2 .LASF8267
     /tmp/ccut0Zoi.s:101650  .debug_str:000000000003998b .LASF8268
     /tmp/ccut0Zoi.s:100078  .debug_str:00000000000339a3 .LASF8269
     /tmp/ccut0Zoi.s:100210  .debug_str:00000000000342b7 .LASF8270
     /tmp/ccut0Zoi.s:95240  .debug_str:000000000001ff0e .LASF8271
     /tmp/ccut0Zoi.s:102194  .debug_str:000000000003bf8d .LASF8272
     /tmp/ccut0Zoi.s:93126  .debug_str:0000000000016e38 .LASF8273
     /tmp/ccut0Zoi.s:91046  .debug_str:000000000000ea3e .LASF8274
     /tmp/ccut0Zoi.s:98738  .debug_str:000000000002e0ac .LASF8275
     /tmp/ccut0Zoi.s:89328  .debug_str:0000000000007992 .LASF8276
     /tmp/ccut0Zoi.s:89828  .debug_str:0000000000009bb9 .LASF8277
     /tmp/ccut0Zoi.s:91724  .debug_str:0000000000011275 .LASF8278
     /tmp/ccut0Zoi.s:104984  .debug_str:0000000000047750 .LASF8279
     /tmp/ccut0Zoi.s:94094  .debug_str:000000000001af36 .LASF8280
     /tmp/ccut0Zoi.s:100322  .debug_str:0000000000034a77 .LASF8281
     /tmp/ccut0Zoi.s:93454  .debug_str:00000000000182a2 .LASF8282
     /tmp/ccut0Zoi.s:97030  .debug_str:0000000000027030 .LASF8283
     /tmp/ccut0Zoi.s:95738  .debug_str:0000000000021f9f .LASF8284
     /tmp/ccut0Zoi.s:102906  .debug_str:000000000003ef17 .LASF8285
     /tmp/ccut0Zoi.s:106088  .debug_str:000000000004c49b .LASF8286
     /tmp/ccut0Zoi.s:103510  .debug_str:000000000004175f .LASF8287
     /tmp/ccut0Zoi.s:93918  .debug_str:000000000001a354 .LASF8288
     /tmp/ccut0Zoi.s:99298  .debug_str:0000000000030530 .LASF8289
     /tmp/ccut0Zoi.s:90802  .debug_str:000000000000dd20 .LASF8290
     /tmp/ccut0Zoi.s:106050  .debug_str:000000000004c232 .LASF8291
     /tmp/ccut0Zoi.s:98452  .debug_str:000000000002cccb .LASF8292
     /tmp/ccut0Zoi.s:102222  .debug_str:000000000003c155 .LASF8293
     /tmp/ccut0Zoi.s:105360  .debug_str:00000000000491c6 .LASF8294
     /tmp/ccut0Zoi.s:91004  .debug_str:000000000000e72f .LASF8295
     /tmp/ccut0Zoi.s:91412  .debug_str:000000000000fef1 .LASF8296
     /tmp/ccut0Zoi.s:101692  .debug_str:0000000000039cc5 .LASF8297
     /tmp/ccut0Zoi.s:101492  .debug_str:0000000000038ef2 .LASF8298
     /tmp/ccut0Zoi.s:91414  .debug_str:000000000000ff01 .LASF8299
     /tmp/ccut0Zoi.s:101694  .debug_str:0000000000039cd5 .LASF8300
     /tmp/ccut0Zoi.s:88724  .debug_str:00000000000050e1 .LASF8301
     /tmp/ccut0Zoi.s:92934  .debug_str:000000000001613e .LASF8302
     /tmp/ccut0Zoi.s:94462  .debug_str:000000000001c865 .LASF8303
     /tmp/ccut0Zoi.s:98976  .debug_str:000000000002f0f0 .LASF8304
     /tmp/ccut0Zoi.s:101828  .debug_str:000000000003a68b .LASF8305
     /tmp/ccut0Zoi.s:96958  .debug_str:0000000000026b60 .LASF8306
     /tmp/ccut0Zoi.s:102056  .debug_str:000000000003b59e .LASF8307
     /tmp/ccut0Zoi.s:101830  .debug_str:000000000003a69b .LASF8308
     /tmp/ccut0Zoi.s:93234  .debug_str:00000000000174fb .LASF8309
     /tmp/ccut0Zoi.s:96086  .debug_str:0000000000023620 .LASF8310
     /tmp/ccut0Zoi.s:101832  .debug_str:000000000003a6ab .LASF8311
     /tmp/ccut0Zoi.s:93236  .debug_str:000000000001750b .LASF8312
     /tmp/ccut0Zoi.s:98608  .debug_str:000000000002d7a5 .LASF8313
     /tmp/ccut0Zoi.s:102820  .debug_str:000000000003e87c .LASF8314
     /tmp/ccut0Zoi.s:93238  .debug_str:000000000001751b .LASF8315
     /tmp/ccut0Zoi.s:102958  .debug_str:000000000003f244 .LASF8316
     /tmp/ccut0Zoi.s:95330  .debug_str:000000000002056b .LASF8317
     /tmp/ccut0Zoi.s:98454  .debug_str:000000000002ccec .LASF8318
     /tmp/ccut0Zoi.s:92310  .debug_str:0000000000013957 .LASF8319
     /tmp/ccut0Zoi.s:92620  .debug_str:0000000000014c65 .LASF8320
     /tmp/ccut0Zoi.s:101826  .debug_str:000000000003a67b .LASF8321
     /tmp/ccut0Zoi.s:92376  .debug_str:0000000000013d94 .LASF8322
     /tmp/ccut0Zoi.s:88510  .debug_str:00000000000042db .LASF8323
     /tmp/ccut0Zoi.s:90356  .debug_str:000000000000c017 .LASF8324
     /tmp/ccut0Zoi.s:105524  .debug_str:0000000000049d00 .LASF8325
     /tmp/ccut0Zoi.s:88512  .debug_str:00000000000042f1 .LASF8326
     /tmp/ccut0Zoi.s:90358  .debug_str:000000000000c02d .LASF8327
     /tmp/ccut0Zoi.s:98622  .debug_str:000000000002d877 .LASF8328
     /tmp/ccut0Zoi.s:88514  .debug_str:0000000000004307 .LASF8329
     /tmp/ccut0Zoi.s:90360  .debug_str:000000000000c043 .LASF8330
     /tmp/ccut0Zoi.s:92632  .debug_str:0000000000014d64 .LASF8331
     /tmp/ccut0Zoi.s:104464  .debug_str:0000000000045506 .LASF8332
     /tmp/ccut0Zoi.s:90362  .debug_str:000000000000c059 .LASF8333
     /tmp/ccut0Zoi.s:105398  .debug_str:0000000000049411 .LASF8334
     /tmp/ccut0Zoi.s:88518  .debug_str:000000000000432f .LASF8335
     /tmp/ccut0Zoi.s:90364  .debug_str:000000000000c06f .LASF8336
     /tmp/ccut0Zoi.s:99702  .debug_str:0000000000032061 .LASF8337
     /tmp/ccut0Zoi.s:88520  .debug_str:0000000000004345 .LASF8338
     /tmp/ccut0Zoi.s:90366  .debug_str:000000000000c085 .LASF8339
     /tmp/ccut0Zoi.s:93732  .debug_str:0000000000019595 .LASF8340
     /tmp/ccut0Zoi.s:88522  .debug_str:000000000000435b .LASF8341
     /tmp/ccut0Zoi.s:90368  .debug_str:000000000000c09b .LASF8342
     /tmp/ccut0Zoi.s:87780  .debug_str:0000000000000f73 .LASF8343
     /tmp/ccut0Zoi.s:88524  .debug_str:0000000000004371 .LASF8344
     /tmp/ccut0Zoi.s:90370  .debug_str:000000000000c0b1 .LASF8345
     /tmp/ccut0Zoi.s:100624  .debug_str:0000000000035cc0 .LASF8346
     /tmp/ccut0Zoi.s:94824  .debug_str:000000000001e220 .LASF8347
     /tmp/ccut0Zoi.s:98364  .debug_str:000000000002c6cd .LASF8348
     /tmp/ccut0Zoi.s:101920  .debug_str:000000000003aca5 .LASF8349
     /tmp/ccut0Zoi.s:92282  .debug_str:00000000000137ef .LASF8350
     /tmp/ccut0Zoi.s:101062  .debug_str:0000000000037498 .LASF8351
     /tmp/ccut0Zoi.s:95964  .debug_str:0000000000022ed5 .LASF8352
     /tmp/ccut0Zoi.s:93778  .debug_str:0000000000019903 .LASF8353
     /tmp/ccut0Zoi.s:89440  .debug_str:0000000000008169 .LASF8354
     /tmp/ccut0Zoi.s:96264  .debug_str:000000000002408d .LASF8355
     /tmp/ccut0Zoi.s:95154  .debug_str:000000000001fa19 .LASF8356
     /tmp/ccut0Zoi.s:99796  .debug_str:00000000000326cf .LASF8357
     /tmp/ccut0Zoi.s:105036  .debug_str:0000000000047ab0 .LASF8358
     /tmp/ccut0Zoi.s:102424  .debug_str:000000000003ce3a .LASF8359
     /tmp/ccut0Zoi.s:96886  .debug_str:00000000000266e5 .LASF8360
     /tmp/ccut0Zoi.s:101288  .debug_str:0000000000038154 .LASF8361
     /tmp/ccut0Zoi.s:103494  .debug_str:0000000000041652 .LASF8362
     /tmp/ccut0Zoi.s:103338  .debug_str:0000000000040b99 .LASF8363
     /tmp/ccut0Zoi.s:93746  .debug_str:00000000000196c1 .LASF8364
     /tmp/ccut0Zoi.s:95902  .debug_str:0000000000022aba .LASF8365
     /tmp/ccut0Zoi.s:91606  .debug_str:0000000000010b05 .LASF8366
     /tmp/ccut0Zoi.s:91984  .debug_str:0000000000012434 .LASF8367
     /tmp/ccut0Zoi.s:98676  .debug_str:000000000002dcfe .LASF8368
     /tmp/ccut0Zoi.s:91732  .debug_str:00000000000112ed .LASF8369
     /tmp/ccut0Zoi.s:97884  .debug_str:000000000002a810 .LASF8370
     /tmp/ccut0Zoi.s:92452  .debug_str:00000000000141c5 .LASF8371
     /tmp/ccut0Zoi.s:91848  .debug_str:0000000000011b43 .LASF8372
     /tmp/ccut0Zoi.s:90162  .debug_str:000000000000b332 .LASF8373
     /tmp/ccut0Zoi.s:103160  .debug_str:000000000004008c .LASF8374
     /tmp/ccut0Zoi.s:103416  .debug_str:00000000000411a0 .LASF8375
     /tmp/ccut0Zoi.s:97582  .debug_str:000000000002944a .LASF8376
     /tmp/ccut0Zoi.s:101882  .debug_str:000000000003aa5a .LASF8377
     /tmp/ccut0Zoi.s:106096  .debug_str:000000000004c518 .LASF8378
     /tmp/ccut0Zoi.s:90332  .debug_str:000000000000be11 .LASF8379
     /tmp/ccut0Zoi.s:103172  .debug_str:0000000000040110 .LASF8380
     /tmp/ccut0Zoi.s:97074  .debug_str:00000000000273bd .LASF8381
     /tmp/ccut0Zoi.s:96968  .debug_str:0000000000026bf1 .LASF8382
     /tmp/ccut0Zoi.s:91316  .debug_str:000000000000f915 .LASF8383
     /tmp/ccut0Zoi.s:105532  .debug_str:0000000000049d91 .LASF8384
     /tmp/ccut0Zoi.s:105518  .debug_str:0000000000049c56 .LASF8385
     /tmp/ccut0Zoi.s:102036  .debug_str:000000000003b471 .LASF8386
     /tmp/ccut0Zoi.s:97532  .debug_str:000000000002913a .LASF8387
     /tmp/ccut0Zoi.s:97616  .debug_str:00000000000296d6 .LASF8388
     /tmp/ccut0Zoi.s:99744  .debug_str:000000000003232b .LASF8389
     /tmp/ccut0Zoi.s:105958  .debug_str:000000000004bc3c .LASF8390
     /tmp/ccut0Zoi.s:97256  .debug_str:0000000000027f24 .LASF8391
     /tmp/ccut0Zoi.s:91270  .debug_str:000000000000f71c .LASF8392
     /tmp/ccut0Zoi.s:101954  .debug_str:000000000003af1e .LASF8393
     /tmp/ccut0Zoi.s:106206  .debug_str:000000000004cd21 .LASF8394
     /tmp/ccut0Zoi.s:102554  .debug_str:000000000003d6a0 .LASF8395
     /tmp/ccut0Zoi.s:89326  .debug_str:000000000000797b .LASF8396
     /tmp/ccut0Zoi.s:97492  .debug_str:0000000000028f5b .LASF8397
     /tmp/ccut0Zoi.s:101854  .debug_str:000000000003a853 .LASF8398
     /tmp/ccut0Zoi.s:88226  .debug_str:0000000000002fa8 .LASF8399
     /tmp/ccut0Zoi.s:88476  .debug_str:000000000000402a .LASF8400
     /tmp/ccut0Zoi.s:101856  .debug_str:000000000003a86c .LASF8401
     /tmp/ccut0Zoi.s:88228  .debug_str:0000000000002fc1 .LASF8402
     /tmp/ccut0Zoi.s:94560  .debug_str:000000000001cf75 .LASF8403
     /tmp/ccut0Zoi.s:101858  .debug_str:000000000003a885 .LASF8404
     /tmp/ccut0Zoi.s:88230  .debug_str:0000000000002fda .LASF8405
     /tmp/ccut0Zoi.s:95426  .debug_str:0000000000020c2e .LASF8406
     /tmp/ccut0Zoi.s:101860  .debug_str:000000000003a89e .LASF8407
     /tmp/ccut0Zoi.s:88232  .debug_str:0000000000002ff3 .LASF8408
     /tmp/ccut0Zoi.s:89384  .debug_str:0000000000007d20 .LASF8409
     /tmp/ccut0Zoi.s:101862  .debug_str:000000000003a8b7 .LASF8410
     /tmp/ccut0Zoi.s:88234  .debug_str:000000000000300c .LASF8411
     /tmp/ccut0Zoi.s:102254  .debug_str:000000000003c319 .LASF8412
     /tmp/ccut0Zoi.s:103840  .debug_str:0000000000042c67 .LASF8413
     /tmp/ccut0Zoi.s:103324  .debug_str:0000000000040ac1 .LASF8414
     /tmp/ccut0Zoi.s:97974  .debug_str:000000000002ae24 .LASF8415
     /tmp/ccut0Zoi.s:93394  .debug_str:0000000000017f14 .LASF8416
     /tmp/ccut0Zoi.s:95876  .debug_str:0000000000022909 .LASF8417
     /tmp/ccut0Zoi.s:95900  .debug_str:0000000000022a99 .LASF8418
     /tmp/ccut0Zoi.s:97916  .debug_str:000000000002aa0f .LASF8419
     /tmp/ccut0Zoi.s:92160  .debug_str:0000000000013010 .LASF8420
     /tmp/ccut0Zoi.s:95956  .debug_str:0000000000022e46 .LASF8421
     /tmp/ccut0Zoi.s:90664  .debug_str:000000000000d4b2 .LASF8422
     /tmp/ccut0Zoi.s:99182  .debug_str:000000000002fdeb .LASF8423
     /tmp/ccut0Zoi.s:99312  .debug_str:0000000000030636 .LASF8424
     /tmp/ccut0Zoi.s:94234  .debug_str:000000000001b932 .LASF8425
     /tmp/ccut0Zoi.s:103948  .debug_str:0000000000043351 .LASF8426
     /tmp/ccut0Zoi.s:99646  .debug_str:0000000000031c9b .LASF8427
     /tmp/ccut0Zoi.s:98724  .debug_str:000000000002dfe0 .LASF8428
     /tmp/ccut0Zoi.s:92340  .debug_str:0000000000013b44 .LASF8429
     /tmp/ccut0Zoi.s:96016  .debug_str:00000000000232e8 .LASF8430
     /tmp/ccut0Zoi.s:93508  .debug_str:0000000000018616 .LASF8431
     /tmp/ccut0Zoi.s:92852  .debug_str:0000000000015b71 .LASF8432
     /tmp/ccut0Zoi.s:102078  .debug_str:000000000003b756 .LASF8433
     /tmp/ccut0Zoi.s:93404  .debug_str:0000000000017f79 .LASF8434
     /tmp/ccut0Zoi.s:92904  .debug_str:0000000000015eb7 .LASF8435
     /tmp/ccut0Zoi.s:101466  .debug_str:0000000000038d1e .LASF8436
     /tmp/ccut0Zoi.s:88470  .debug_str:0000000000003fb6 .LASF8437
     /tmp/ccut0Zoi.s:88146  .debug_str:0000000000002935 .LASF8438
     /tmp/ccut0Zoi.s:95332  .debug_str:0000000000020580 .LASF8439
     /tmp/ccut0Zoi.s:88526  .debug_str:0000000000004387 .LASF8440
     /tmp/ccut0Zoi.s:98810  .debug_str:000000000002e5a8 .LASF8441
     /tmp/ccut0Zoi.s:105682  .debug_str:000000000004a79c .LASF8442
     /tmp/ccut0Zoi.s:89364  .debug_str:0000000000007bba .LASF8443
     /tmp/ccut0Zoi.s:98140  .debug_str:000000000002b83b .LASF8444
     /tmp/ccut0Zoi.s:105114  .debug_str:0000000000047fdf .LASF8445
     /tmp/ccut0Zoi.s:99842  .debug_str:000000000003293e .LASF8446
     /tmp/ccut0Zoi.s:104728  .debug_str:00000000000466a3 .LASF8447
     /tmp/ccut0Zoi.s:97798  .debug_str:000000000002a252 .LASF8448
     /tmp/ccut0Zoi.s:89242  .debug_str:0000000000007496 .LASF8449
     /tmp/ccut0Zoi.s:104776  .debug_str:0000000000046a28 .LASF8450
     /tmp/ccut0Zoi.s:94594  .debug_str:000000000001d1f2 .LASF8451
     /tmp/ccut0Zoi.s:89244  .debug_str:00000000000074a9 .LASF8452
     /tmp/ccut0Zoi.s:94740  .debug_str:000000000001dc61 .LASF8453
     /tmp/ccut0Zoi.s:104140  .debug_str:0000000000043edb .LASF8454
     /tmp/ccut0Zoi.s:100090  .debug_str:0000000000033a7a .LASF8455
     /tmp/ccut0Zoi.s:88780  .debug_str:000000000000558f .LASF8456
     /tmp/ccut0Zoi.s:103100  .debug_str:000000000003fc13 .LASF8457
     /tmp/ccut0Zoi.s:100092  .debug_str:0000000000033a8e .LASF8458
     /tmp/ccut0Zoi.s:88782  .debug_str:00000000000055a3 .LASF8459
     /tmp/ccut0Zoi.s:97250  .debug_str:0000000000027ec2 .LASF8460
     /tmp/ccut0Zoi.s:100094  .debug_str:0000000000033aa2 .LASF8461
     /tmp/ccut0Zoi.s:88784  .debug_str:00000000000055b7 .LASF8462
     /tmp/ccut0Zoi.s:91356  .debug_str:000000000000fbb5 .LASF8463
     /tmp/ccut0Zoi.s:100096  .debug_str:0000000000033ab6 .LASF8464
     /tmp/ccut0Zoi.s:95430  .debug_str:0000000000020c62 .LASF8465
     /tmp/ccut0Zoi.s:90904  .debug_str:000000000000e26a .LASF8466
     /tmp/ccut0Zoi.s:100098  .debug_str:0000000000033aca .LASF8467
     /tmp/ccut0Zoi.s:88788  .debug_str:000000000000560e .LASF8468
     /tmp/ccut0Zoi.s:98232  .debug_str:000000000002bdb5 .LASF8469
     /tmp/ccut0Zoi.s:92980  .debug_str:00000000000163cf .LASF8470
     /tmp/ccut0Zoi.s:90296  .debug_str:000000000000bbf7 .LASF8471
     /tmp/ccut0Zoi.s:88142  .debug_str:00000000000028f0 .LASF8472
     /tmp/ccut0Zoi.s:89338  .debug_str:0000000000007a20 .LASF8473
     /tmp/ccut0Zoi.s:95874  .debug_str:00000000000228f7 .LASF8474
     /tmp/ccut0Zoi.s:96396  .debug_str:000000000002474a .LASF8475
     /tmp/ccut0Zoi.s:89340  .debug_str:0000000000007a32 .LASF8476
     /tmp/ccut0Zoi.s:90300  .debug_str:000000000000bc15 .LASF8477
     /tmp/ccut0Zoi.s:105944  .debug_str:000000000004bba9 .LASF8478
     /tmp/ccut0Zoi.s:87914  .debug_str:00000000000018bd .LASF8479
     /tmp/ccut0Zoi.s:88876  .debug_str:0000000000005bc5 .LASF8480
     /tmp/ccut0Zoi.s:104566  .debug_str:0000000000045b6b .LASF8481
     /tmp/ccut0Zoi.s:87916  .debug_str:00000000000018cf .LASF8482
     /tmp/ccut0Zoi.s:88878  .debug_str:0000000000005bd7 .LASF8483
     /tmp/ccut0Zoi.s:98700  .debug_str:000000000002de27 .LASF8484
     /tmp/ccut0Zoi.s:103574  .debug_str:0000000000041c13 .LASF8485
     /tmp/ccut0Zoi.s:88880  .debug_str:0000000000005be9 .LASF8486
     /tmp/ccut0Zoi.s:92700  .debug_str:0000000000015269 .LASF8487
     /tmp/ccut0Zoi.s:104722  .debug_str:000000000004666f .LASF8488
     /tmp/ccut0Zoi.s:98690  .debug_str:000000000002ddc6 .LASF8489
     /tmp/ccut0Zoi.s:95210  .debug_str:000000000001fd53 .LASF8490
     /tmp/ccut0Zoi.s:103408  .debug_str:0000000000041119 .LASF8491
     /tmp/ccut0Zoi.s:104936  .debug_str:0000000000047474 .LASF8492
     /tmp/ccut0Zoi.s:98808  .debug_str:000000000002e582 .LASF8493
     /tmp/ccut0Zoi.s:88016  .debug_str:0000000000001fef .LASF8494
     /tmp/ccut0Zoi.s:99864  .debug_str:0000000000032ad7 .LASF8495
     /tmp/ccut0Zoi.s:100266  .debug_str:000000000003469a .LASF8496
     /tmp/ccut0Zoi.s:91950  .debug_str:00000000000121cf .LASF8497
     /tmp/ccut0Zoi.s:105202  .debug_str:00000000000486c5 .LASF8498
     /tmp/ccut0Zoi.s:96810  .debug_str:000000000002611e .LASF8499
     /tmp/ccut0Zoi.s:94382  .debug_str:000000000001c2e0 .LASF8500
     /tmp/ccut0Zoi.s:104484  .debug_str:0000000000045661 .LASF8501
     /tmp/ccut0Zoi.s:93088  .debug_str:0000000000016b68 .LASF8502
     /tmp/ccut0Zoi.s:97448  .debug_str:0000000000028c33 .LASF8503
     /tmp/ccut0Zoi.s:103402  .debug_str:00000000000410ce .LASF8504
     /tmp/ccut0Zoi.s:101806  .debug_str:000000000003a52f .LASF8505
     /tmp/ccut0Zoi.s:92246  .debug_str:0000000000013581 .LASF8506
     /tmp/ccut0Zoi.s:96466  .debug_str:0000000000024ad0 .LASF8507
     /tmp/ccut0Zoi.s:96724  .debug_str:0000000000025bdc .LASF8508
     /tmp/ccut0Zoi.s:96342  .debug_str:000000000002442d .LASF8509
     /tmp/ccut0Zoi.s:90094  .debug_str:000000000000adb5 .LASF8510
     /tmp/ccut0Zoi.s:104098  .debug_str:0000000000043cc5 .LASF8511
     /tmp/ccut0Zoi.s:94870  .debug_str:000000000001e559 .LASF8512
     /tmp/ccut0Zoi.s:88666  .debug_str:0000000000004d3e .LASF8513
     /tmp/ccut0Zoi.s:105856  .debug_str:000000000004b526 .LASF8514
     /tmp/ccut0Zoi.s:88436  .debug_str:0000000000003d2f .LASF8515
     /tmp/ccut0Zoi.s:96438  .debug_str:000000000002488b .LASF8516
     /tmp/ccut0Zoi.s:100112  .debug_str:0000000000033c08 .LASF8517
     /tmp/ccut0Zoi.s:96374  .debug_str:000000000002462b .LASF8518
     /tmp/ccut0Zoi.s:103374  .debug_str:0000000000040e98 .LASF8519
     /tmp/ccut0Zoi.s:97360  .debug_str:0000000000028649 .LASF8520
     /tmp/ccut0Zoi.s:102832  .debug_str:000000000003e952 .LASF8521
     /tmp/ccut0Zoi.s:88552  .debug_str:0000000000004548 .LASF8522
     /tmp/ccut0Zoi.s:97488  .debug_str:0000000000028efb .LASF8523
     /tmp/ccut0Zoi.s:104860  .debug_str:0000000000046f7f .LASF8524
     /tmp/ccut0Zoi.s:103720  .debug_str:0000000000042560 .LASF8525
     /tmp/ccut0Zoi.s:105528  .debug_str:0000000000049d48 .LASF8526
     /tmp/ccut0Zoi.s:88942  .debug_str:0000000000005fd3 .LASF8527
     /tmp/ccut0Zoi.s:99994  .debug_str:00000000000333ac .LASF8528
     /tmp/ccut0Zoi.s:96574  .debug_str:000000000002516e .LASF8529
     /tmp/ccut0Zoi.s:90840  .debug_str:000000000000dfad .LASF8530
     /tmp/ccut0Zoi.s:96796  .debug_str:0000000000026012 .LASF8531
     /tmp/ccut0Zoi.s:103600  .debug_str:0000000000041d68 .LASF8532
     /tmp/ccut0Zoi.s:94286  .debug_str:000000000001bcda .LASF8533
     /tmp/ccut0Zoi.s:99364  .debug_str:0000000000030aa4 .LASF8534
     /tmp/ccut0Zoi.s:97160  .debug_str:000000000002798b .LASF8535
     /tmp/ccut0Zoi.s:89944  .debug_str:000000000000a32d .LASF8536
     /tmp/ccut0Zoi.s:103688  .debug_str:0000000000042385 .LASF8537
     /tmp/ccut0Zoi.s:105170  .debug_str:0000000000048442 .LASF8538
     /tmp/ccut0Zoi.s:90864  .debug_str:000000000000e05e .LASF8539
     /tmp/ccut0Zoi.s:95176  .debug_str:000000000001fb72 .LASF8540
     /tmp/ccut0Zoi.s:98640  .debug_str:000000000002da40 .LASF8541
     /tmp/ccut0Zoi.s:92526  .debug_str:0000000000014635 .LASF8542
     /tmp/ccut0Zoi.s:104048  .debug_str:00000000000439ab .LASF8543
     /tmp/ccut0Zoi.s:104176  .debug_str:00000000000441c5 .LASF8544
     /tmp/ccut0Zoi.s:90262  .debug_str:000000000000b9cf .LASF8545
     /tmp/ccut0Zoi.s:92950  .debug_str:0000000000016200 .LASF8546
     /tmp/ccut0Zoi.s:105812  .debug_str:000000000004b204 .LASF8547
     /tmp/ccut0Zoi.s:103610  .debug_str:0000000000041e00 .LASF8548
     /tmp/ccut0Zoi.s:99774  .debug_str:0000000000032529 .LASF8549
     /tmp/ccut0Zoi.s:98510  .debug_str:000000000002d0f3 .LASF8550
     /tmp/ccut0Zoi.s:93892  .debug_str:000000000001a1a0 .LASF8551
     /tmp/ccut0Zoi.s:101682  .debug_str:0000000000039bfb .LASF8552
     /tmp/ccut0Zoi.s:95244  .debug_str:000000000001ff4b .LASF8553
     /tmp/ccut0Zoi.s:90188  .debug_str:000000000000b510 .LASF8554
     /tmp/ccut0Zoi.s:105778  .debug_str:000000000004aff1 .LASF8555
     /tmp/ccut0Zoi.s:101670  .debug_str:0000000000039b03 .LASF8556
     /tmp/ccut0Zoi.s:105276  .debug_str:0000000000048bf7 .LASF8557
     /tmp/ccut0Zoi.s:91144  .debug_str:000000000000eef0 .LASF8558
     /tmp/ccut0Zoi.s:99310  .debug_str:000000000003060b .LASF8559
     /tmp/ccut0Zoi.s:88168  .debug_str:0000000000002b0c .LASF8560
     /tmp/ccut0Zoi.s:100416  .debug_str:0000000000035016 .LASF8561
     /tmp/ccut0Zoi.s:97640  .debug_str:000000000002986c .LASF8562
     /tmp/ccut0Zoi.s:100660  .debug_str:0000000000035f91 .LASF8563
     /tmp/ccut0Zoi.s:98414  .debug_str:000000000002ca5c .LASF8564
     /tmp/ccut0Zoi.s:100956  .debug_str:0000000000036f34 .LASF8565
     /tmp/ccut0Zoi.s:93110  .debug_str:0000000000016ce3 .LASF8566
     /tmp/ccut0Zoi.s:87998  .debug_str:0000000000001e7f .LASF8567
     /tmp/ccut0Zoi.s:92394  .debug_str:0000000000013eb0 .LASF8568
     /tmp/ccut0Zoi.s:90868  .debug_str:000000000000e08e .LASF8569
     /tmp/ccut0Zoi.s:100778  .debug_str:00000000000365e6 .LASF8570
     /tmp/ccut0Zoi.s:103492  .debug_str:000000000004162a .LASF8571
     /tmp/ccut0Zoi.s:93490  .debug_str:0000000000018510 .LASF8572
     /tmp/ccut0Zoi.s:98088  .debug_str:000000000002b567 .LASF8573
     /tmp/ccut0Zoi.s:89432  .debug_str:00000000000080cd .LASF8574
     /tmp/ccut0Zoi.s:97086  .debug_str:000000000002743b .LASF8575
     /tmp/ccut0Zoi.s:95936  .debug_str:0000000000022ce5 .LASF8576
     /tmp/ccut0Zoi.s:105622  .debug_str:000000000004a2c8 .LASF8577
     /tmp/ccut0Zoi.s:97088  .debug_str:0000000000027458 .LASF8578
     /tmp/ccut0Zoi.s:95938  .debug_str:0000000000022d02 .LASF8579
     /tmp/ccut0Zoi.s:87714  .debug_str:0000000000000b07 .LASF8580
     /tmp/ccut0Zoi.s:102186  .debug_str:000000000003bee6 .LASF8581
     /tmp/ccut0Zoi.s:101160  .debug_str:00000000000379e3 .LASF8582
     /tmp/ccut0Zoi.s:103798  .debug_str:0000000000042a1d .LASF8583
     /tmp/ccut0Zoi.s:102188  .debug_str:000000000003bf03 .LASF8584
     /tmp/ccut0Zoi.s:88914  .debug_str:0000000000005e45 .LASF8585
     /tmp/ccut0Zoi.s:92644  .debug_str:0000000000014e3b .LASF8586
     /tmp/ccut0Zoi.s:104222  .debug_str:00000000000444fc .LASF8587
     /tmp/ccut0Zoi.s:91998  .debug_str:000000000001252e .LASF8588
     /tmp/ccut0Zoi.s:102620  .debug_str:000000000003da65 .LASF8589
     /tmp/ccut0Zoi.s:104224  .debug_str:0000000000044517 .LASF8590
     /tmp/ccut0Zoi.s:100856  .debug_str:0000000000036a10 .LASF8591
     /tmp/ccut0Zoi.s:96720  .debug_str:0000000000025b93 .LASF8592
     /tmp/ccut0Zoi.s:90526  .debug_str:000000000000cbca .LASF8593
     /tmp/ccut0Zoi.s:97168  .debug_str:0000000000027a40 .LASF8594
     /tmp/ccut0Zoi.s:95438  .debug_str:0000000000020cbb .LASF8595
     /tmp/ccut0Zoi.s:90528  .debug_str:000000000000cbe5 .LASF8596
     /tmp/ccut0Zoi.s:92342  .debug_str:0000000000013b50 .LASF8597
     /tmp/ccut0Zoi.s:89398  .debug_str:0000000000007e47 .LASF8598
     /tmp/ccut0Zoi.s:96210  .debug_str:0000000000023e19 .LASF8599
     /tmp/ccut0Zoi.s:94978  .debug_str:000000000001ecad .LASF8600
     /tmp/ccut0Zoi.s:87672  .debug_str:000000000000085f .LASF8601
     /tmp/ccut0Zoi.s:96212  .debug_str:0000000000023e36 .LASF8602
     /tmp/ccut0Zoi.s:94980  .debug_str:000000000001ecca .LASF8603
     /tmp/ccut0Zoi.s:97548  .debug_str:000000000002922f .LASF8604
     /tmp/ccut0Zoi.s:101460  .debug_str:0000000000038cba .LASF8605
     /tmp/ccut0Zoi.s:100128  .debug_str:0000000000033d7b .LASF8606
     /tmp/ccut0Zoi.s:99224  .debug_str:0000000000030093 .LASF8607
     /tmp/ccut0Zoi.s:101462  .debug_str:0000000000038cd7 .LASF8608
     /tmp/ccut0Zoi.s:100130  .debug_str:0000000000033d98 .LASF8609
     /tmp/ccut0Zoi.s:93258  .debug_str:00000000000176ad .LASF8610
     /tmp/ccut0Zoi.s:106192  .debug_str:000000000004cc31 .LASF8611
     /tmp/ccut0Zoi.s:89902  .debug_str:000000000000a074 .LASF8612
     /tmp/ccut0Zoi.s:93584  .debug_str:0000000000018b67 .LASF8613
     /tmp/ccut0Zoi.s:106194  .debug_str:000000000004cc4a .LASF8614
     /tmp/ccut0Zoi.s:89904  .debug_str:000000000000a08d .LASF8615
     /tmp/ccut0Zoi.s:87644  .debug_str:0000000000000687 .LASF8616
     /tmp/ccut0Zoi.s:89480  .debug_str:00000000000083be .LASF8617
     /tmp/ccut0Zoi.s:101844  .debug_str:000000000003a784 .LASF8618
     /tmp/ccut0Zoi.s:91162  .debug_str:000000000000f02e .LASF8619
     /tmp/ccut0Zoi.s:90440  .debug_str:000000000000c5f2 .LASF8620
     /tmp/ccut0Zoi.s:94146  .debug_str:000000000001b2f3 .LASF8621
     /tmp/ccut0Zoi.s:105142  .debug_str:000000000004823e .LASF8622
     /tmp/ccut0Zoi.s:89622  .debug_str:0000000000008dc3 .LASF8623
     /tmp/ccut0Zoi.s:106094  .debug_str:000000000004c50c .LASF8624
     /tmp/ccut0Zoi.s:88028  .debug_str:00000000000020e3 .LASF8625
     /tmp/ccut0Zoi.s:104926  .debug_str:00000000000473c1 .LASF8626
     /tmp/ccut0Zoi.s:91124  .debug_str:000000000000ee64 .LASF8627
     /tmp/ccut0Zoi.s:103686  .debug_str:000000000004235e .LASF8628
     /tmp/ccut0Zoi.s:95046  .debug_str:000000000001f1f7 .LASF8629
     /tmp/ccut0Zoi.s:98838  .debug_str:000000000002e736 .LASF8630
     /tmp/ccut0Zoi.s:92592  .debug_str:0000000000014aac .LASF8631
     /tmp/ccut0Zoi.s:89784  .debug_str:000000000000987b .LASF8632
     /tmp/ccut0Zoi.s:96352  .debug_str:00000000000244b4 .LASF8633
     /tmp/ccut0Zoi.s:91028  .debug_str:000000000000e8cf .LASF8634
     /tmp/ccut0Zoi.s:98742  .debug_str:000000000002e0e9 .LASF8635
     /tmp/ccut0Zoi.s:94340  .debug_str:000000000001c04f .LASF8636
     /tmp/ccut0Zoi.s:97674  .debug_str:0000000000029a06 .LASF8637
     /tmp/ccut0Zoi.s:95824  .debug_str:000000000002259c .LASF8638
     /tmp/ccut0Zoi.s:103026  .debug_str:000000000003f698 .LASF8639
     /tmp/ccut0Zoi.s:104918  .debug_str:0000000000047353 .LASF8640
     /tmp/ccut0Zoi.s:99692  .debug_str:0000000000032022 .LASF8641
     /tmp/ccut0Zoi.s:97964  .debug_str:000000000002ad5c .LASF8642
     /tmp/ccut0Zoi.s:91194  .debug_str:000000000000f285 .LASF8643
     /tmp/ccut0Zoi.s:97804  .debug_str:000000000002a2bc .LASF8644
     /tmp/ccut0Zoi.s:103886  .debug_str:0000000000042f59 .LASF8645
     /tmp/ccut0Zoi.s:95062  .debug_str:000000000001f342 .LASF8646
     /tmp/ccut0Zoi.s:98374  .debug_str:000000000002c775 .LASF8647
     /tmp/ccut0Zoi.s:94584  .debug_str:000000000001d129 .LASF8648
     /tmp/ccut0Zoi.s:100954  .debug_str:0000000000036f0c .LASF8649
     /tmp/ccut0Zoi.s:96250  .debug_str:0000000000023fef .LASF8650
     /tmp/ccut0Zoi.s:103614  .debug_str:0000000000041e3a .LASF8651
     /tmp/ccut0Zoi.s:105420  .debug_str:0000000000049581 .LASF8652
     /tmp/ccut0Zoi.s:98178  .debug_str:000000000002ba9c .LASF8653
     /tmp/ccut0Zoi.s:93714  .debug_str:0000000000019450 .LASF8654
     /tmp/ccut0Zoi.s:103808  .debug_str:0000000000042ac9 .LASF8655
     /tmp/ccut0Zoi.s:105592  .debug_str:000000000004a146 .LASF8656
     /tmp/ccut0Zoi.s:92268  .debug_str:00000000000136fe .LASF8657
     /tmp/ccut0Zoi.s:90572  .debug_str:000000000000cec1 .LASF8658
     /tmp/ccut0Zoi.s:104772  .debug_str:00000000000469f5 .LASF8659
     /tmp/ccut0Zoi.s:88916  .debug_str:0000000000005e62 .LASF8660
     /tmp/ccut0Zoi.s:93882  .debug_str:000000000001a0db .LASF8661
     /tmp/ccut0Zoi.s:96770  .debug_str:0000000000025e4a .LASF8662
     /tmp/ccut0Zoi.s:91580  .debug_str:000000000001093c .LASF8663
     /tmp/ccut0Zoi.s:102798  .debug_str:000000000003e703 .LASF8664
     /tmp/ccut0Zoi.s:95192  .debug_str:000000000001fc49 .LASF8665
     /tmp/ccut0Zoi.s:89380  .debug_str:0000000000007ce3 .LASF8666
     /tmp/ccut0Zoi.s:105982  .debug_str:000000000004bdd9 .LASF8667
     /tmp/ccut0Zoi.s:104254  .debug_str:00000000000446b3 .LASF8668
     /tmp/ccut0Zoi.s:96808  .debug_str:000000000002610a .LASF8669
     /tmp/ccut0Zoi.s:89382  .debug_str:0000000000007cf8 .LASF8670
     /tmp/ccut0Zoi.s:104094  .debug_str:0000000000043c96 .LASF8671
     /tmp/ccut0Zoi.s:105084  .debug_str:0000000000047db9 .LASF8672
     /tmp/ccut0Zoi.s:89974  .debug_str:000000000000a516 .LASF8673
     /tmp/ccut0Zoi.s:91846  .debug_str:0000000000011b26 .LASF8674
     /tmp/ccut0Zoi.s:89306  .debug_str:000000000000787e .LASF8675
     /tmp/ccut0Zoi.s:101350  .debug_str:0000000000038559 .LASF8676
     /tmp/ccut0Zoi.s:93362  .debug_str:0000000000017d41 .LASF8677
     /tmp/ccut0Zoi.s:93364  .debug_str:0000000000017d50 .LASF8678
     /tmp/ccut0Zoi.s:93366  .debug_str:0000000000017d5f .LASF8679
     /tmp/ccut0Zoi.s:95364  .debug_str:0000000000020781 .LASF8680
     /tmp/ccut0Zoi.s:93750  .debug_str:0000000000019731 .LASF8681
     /tmp/ccut0Zoi.s:93582  .debug_str:0000000000018b4e .LASF8682
     /tmp/ccut0Zoi.s:95318  .debug_str:000000000002048d .LASF8683
     /tmp/ccut0Zoi.s:102884  .debug_str:000000000003ed59 .LASF8684
     /tmp/ccut0Zoi.s:91968  .debug_str:000000000001230e .LASF8685
     /tmp/ccut0Zoi.s:100888  .debug_str:0000000000036c19 .LASF8686
     /tmp/ccut0Zoi.s:90882  .debug_str:000000000000e1af .LASF8687
     /tmp/ccut0Zoi.s:91812  .debug_str:00000000000118d0 .LASF8688
     /tmp/ccut0Zoi.s:95308  .debug_str:00000000000203ae .LASF8689
     /tmp/ccut0Zoi.s:88752  .debug_str:0000000000005317 .LASF8690
     /tmp/ccut0Zoi.s:89118  .debug_str:0000000000006cad .LASF8691
     /tmp/ccut0Zoi.s:92454  .debug_str:00000000000141cf .LASF8692
     /tmp/ccut0Zoi.s:92102  .debug_str:0000000000012cee .LASF8693
     /tmp/ccut0Zoi.s:102840  .debug_str:000000000003e9bb .LASF8694
     /tmp/ccut0Zoi.s:102836  .debug_str:000000000003e9a9 .LASF8695
     /tmp/ccut0Zoi.s:102838  .debug_str:000000000003e9b2 .LASF8696
     /tmp/ccut0Zoi.s:97336  .debug_str:00000000000284be .LASF8697
     /tmp/ccut0Zoi.s:102710  .debug_str:000000000003e009 .LASF8698
     /tmp/ccut0Zoi.s:93222  .debug_str:000000000001742c .LASF8699
     /tmp/ccut0Zoi.s:98812  .debug_str:000000000002e5be .LASF8700
     /tmp/ccut0Zoi.s:92228  .debug_str:0000000000013472 .LASF8701
     /tmp/ccut0Zoi.s:96172  .debug_str:0000000000023bf2 .LASF8702
     /tmp/ccut0Zoi.s:100636  .debug_str:0000000000035db6 .LASF8703
     /tmp/ccut0Zoi.s:102092  .debug_str:000000000003b826 .LASF8704
     /tmp/ccut0Zoi.s:93370  .debug_str:0000000000017d97 .LASF8705
     /tmp/ccut0Zoi.s:97588  .debug_str:00000000000294bd .LASF8706
     /tmp/ccut0Zoi.s:88834  .debug_str:000000000000593e .LASF8707
     /tmp/ccut0Zoi.s:98854  .debug_str:000000000002e87b .LASF8708
     /tmp/ccut0Zoi.s:97426  .debug_str:0000000000028a9e .LASF8709
     /tmp/ccut0Zoi.s:96316  .debug_str:0000000000024392 .LASF8710
     /tmp/ccut0Zoi.s:95644  .debug_str:00000000000219ac .LASF8711
     /tmp/ccut0Zoi.s:89250  .debug_str:000000000000751c .LASF8712
     /tmp/ccut0Zoi.s:103446  .debug_str:0000000000041376 .LASF8713
     /tmp/ccut0Zoi.s:98262  .debug_str:000000000002bfc2 .LASF8714
     /tmp/ccut0Zoi.s:97294  .debug_str:000000000002822c .LASF8715
     /tmp/ccut0Zoi.s:95350  .debug_str:00000000000206f4 .LASF8716
     /tmp/ccut0Zoi.s:92968  .debug_str:0000000000016318 .LASF8717
     /tmp/ccut0Zoi.s:102718  .debug_str:000000000003e0b2 .LASF8718
     /tmp/ccut0Zoi.s:102850  .debug_str:000000000003ea90 .LASF8719
     /tmp/ccut0Zoi.s:87910  .debug_str:0000000000001899 .LASF8720
     /tmp/ccut0Zoi.s:94250  .debug_str:000000000001ba8e .LASF8721
     /tmp/ccut0Zoi.s:99924  .debug_str:0000000000032ed7 .LASF8722
     /tmp/ccut0Zoi.s:91648  .debug_str:0000000000010cf6 .LASF8723
     /tmp/ccut0Zoi.s:95766  .debug_str:00000000000221af .LASF8724
     /tmp/ccut0Zoi.s:89942  .debug_str:000000000000a327 .LASF8725
     /tmp/ccut0Zoi.s:95898  .debug_str:0000000000022a82 .LASF8726
     /tmp/ccut0Zoi.s:97276  .debug_str:00000000000280e9 .LASF8727
     /tmp/ccut0Zoi.s:92166  .debug_str:0000000000013076 .LASF8728
     /tmp/ccut0Zoi.s:94142  .debug_str:000000000001b2ab .LASF8729
     /tmp/ccut0Zoi.s:104666  .debug_str:0000000000046219 .LASF8730
     /tmp/ccut0Zoi.s:92866  .debug_str:0000000000015c46 .LASF8731
     /tmp/ccut0Zoi.s:98146  .debug_str:000000000002b8a3 .LASF8732
     /tmp/ccut0Zoi.s:97470  .debug_str:0000000000028ded .LASF8733
     /tmp/ccut0Zoi.s:91020  .debug_str:000000000000e843 .LASF8734
     /tmp/ccut0Zoi.s:90242  .debug_str:000000000000b8a8 .LASF8735
     /tmp/ccut0Zoi.s:91150  .debug_str:000000000000ef4c .LASF8736
     /tmp/ccut0Zoi.s:90018  .debug_str:000000000000a826 .LASF8737
     /tmp/ccut0Zoi.s:105030  .debug_str:0000000000047a6a .LASF8738
     /tmp/ccut0Zoi.s:96522  .debug_str:0000000000024e25 .LASF8739
     /tmp/ccut0Zoi.s:103316  .debug_str:0000000000040a74 .LASF8740
     /tmp/ccut0Zoi.s:88904  .debug_str:0000000000005d99 .LASF8741
     /tmp/ccut0Zoi.s:90828  .debug_str:000000000000dede .LASF8742
     /tmp/ccut0Zoi.s:101900  .debug_str:000000000003ab7d .LASF8743
     /tmp/ccut0Zoi.s:91702  .debug_str:00000000000110cc .LASF8744
     /tmp/ccut0Zoi.s:97192  .debug_str:0000000000027bf4 .LASF8745
     /tmp/ccut0Zoi.s:89120  .debug_str:0000000000006cc8 .LASF8746
     /tmp/ccut0Zoi.s:93102  .debug_str:0000000000016c75 .LASF8747
     /tmp/ccut0Zoi.s:90098  .debug_str:000000000000ae1b .LASF8748
     /tmp/ccut0Zoi.s:99218  .debug_str:0000000000030036 .LASF8749
     /tmp/ccut0Zoi.s:87582  .debug_str:000000000000020d .LASF8750
     /tmp/ccut0Zoi.s:102678  .debug_str:000000000003de5c .LASF8751
     /tmp/ccut0Zoi.s:93672  .debug_str:0000000000019184 .LASF8752
     /tmp/ccut0Zoi.s:97818  .debug_str:000000000002a388 .LASF8753
     /tmp/ccut0Zoi.s:102062  .debug_str:000000000003b5f2 .LASF8754
     /tmp/ccut0Zoi.s:101322  .debug_str:0000000000038383 .LASF8755
     /tmp/ccut0Zoi.s:88940  .debug_str:0000000000005fc7 .LASF8756
     /tmp/ccut0Zoi.s:99214  .debug_str:000000000002fff2 .LASF8757
     /tmp/ccut0Zoi.s:97120  .debug_str:000000000002765a .LASF8758
     /tmp/ccut0Zoi.s:88498  .debug_str:0000000000004234 .LASF8759
     /tmp/ccut0Zoi.s:91078  .debug_str:000000000000eb6c .LASF8760
     /tmp/ccut0Zoi.s:96682  .debug_str:0000000000025959 .LASF8761
     /tmp/ccut0Zoi.s:93992  .debug_str:000000000001a807 .LASF8762
     /tmp/ccut0Zoi.s:96386  .debug_str:0000000000024695 .LASF8763
     /tmp/ccut0Zoi.s:93838  .debug_str:0000000000019e22 .LASF8764
     /tmp/ccut0Zoi.s:105290  .debug_str:0000000000048cd4 .LASF8765
     /tmp/ccut0Zoi.s:93968  .debug_str:000000000001a672 .LASF8766
     /tmp/ccut0Zoi.s:95564  .debug_str:0000000000021421 .LASF8767
     /tmp/ccut0Zoi.s:101986  .debug_str:000000000003b0d9 .LASF8768
     /tmp/ccut0Zoi.s:88076  .debug_str:000000000000242e .LASF8769
     /tmp/ccut0Zoi.s:88286  .debug_str:0000000000003376 .LASF8770
     /tmp/ccut0Zoi.s:97732  .debug_str:0000000000029e5c .LASF8771
     /tmp/ccut0Zoi.s:93972  .debug_str:000000000001a6a8 .LASF8772
     /tmp/ccut0Zoi.s:100662  .debug_str:0000000000035fa1 .LASF8773
     /tmp/ccut0Zoi.s:97202  .debug_str:0000000000027c95 .LASF8774
     /tmp/ccut0Zoi.s:99832  .debug_str:0000000000032887 .LASF8775
     /tmp/ccut0Zoi.s:87612  .debug_str:0000000000000425 .LASF8776
     /tmp/ccut0Zoi.s:96030  .debug_str:00000000000233cf .LASF8777
     /tmp/ccut0Zoi.s:93578  .debug_str:0000000000018b3d .LASF8778
     /tmp/ccut0Zoi.s:87850  .debug_str:0000000000001433 .LASF8779
     /tmp/ccut0Zoi.s:95474  .debug_str:0000000000020e68 .LASF8780
     /tmp/ccut0Zoi.s:90818  .debug_str:000000000000ddf8 .LASF8781
     /tmp/ccut0Zoi.s:99210  .debug_str:000000000002ffa1 .LASF8782
     /tmp/ccut0Zoi.s:104298  .debug_str:00000000000449ab .LASF8783
     /tmp/ccut0Zoi.s:95428  .debug_str:0000000000020c5b .LASF8784
     /tmp/ccut0Zoi.s:101030  .debug_str:00000000000372f9 .LASF8785
     /tmp/ccut0Zoi.s:95166  .debug_str:000000000001fadf .LASF8786
     /tmp/ccut0Zoi.s:95424  .debug_str:0000000000020c27 .LASF8787
     /tmp/ccut0Zoi.s:103500  .debug_str:00000000000416c1 .LASF8788
     /tmp/ccut0Zoi.s:97310  .debug_str:0000000000028301 .LASF8789
     /tmp/ccut0Zoi.s:89994  .debug_str:000000000000a6bf .LASF8790
     /tmp/ccut0Zoi.s:89314  .debug_str:00000000000078d1 .LASF8791
     /tmp/ccut0Zoi.s:97636  .debug_str:0000000000029857 .LASF8792
     /tmp/ccut0Zoi.s:104148  .debug_str:0000000000043f7a .LASF8793
     /tmp/ccut0Zoi.s:102954  .debug_str:000000000003f206 .LASF8794
     /tmp/ccut0Zoi.s:100846  .debug_str:0000000000036944 .LASF8795
     /tmp/ccut0Zoi.s:95814  .debug_str:0000000000022507 .LASF8796
     /tmp/ccut0Zoi.s:103266  .debug_str:00000000000406ca .LASF8797
     /tmp/ccut0Zoi.s:98974  .debug_str:000000000002f0c7 .LASF8798
     /tmp/ccut0Zoi.s:99404  .debug_str:0000000000030d4b .LASF8799
     /tmp/ccut0Zoi.s:88968  .debug_str:000000000000618b .LASF8800
     /tmp/ccut0Zoi.s:105626  .debug_str:000000000004a324 .LASF8801
     /tmp/ccut0Zoi.s:104228  .debug_str:000000000004454e .LASF8802
     /tmp/ccut0Zoi.s:98492  .debug_str:000000000002cfb5 .LASF8803
     /tmp/ccut0Zoi.s:88646  .debug_str:0000000000004bee .LASF8804
     /tmp/ccut0Zoi.s:94436  .debug_str:000000000001c6cd .LASF8805
     /tmp/ccut0Zoi.s:103442  .debug_str:000000000004135f .LASF8806
     /tmp/ccut0Zoi.s:102234  .debug_str:000000000003c21b .LASF8807
     /tmp/ccut0Zoi.s:95136  .debug_str:000000000001f910 .LASF8808
     /tmp/ccut0Zoi.s:95138  .debug_str:000000000001f91a .LASF8809
     /tmp/ccut0Zoi.s:104810  .debug_str:0000000000046c4c .LASF8810
     /tmp/ccut0Zoi.s:95142  .debug_str:000000000001f941 .LASF8811
     /tmp/ccut0Zoi.s:100008  .debug_str:00000000000334b0 .LASF8812
     /tmp/ccut0Zoi.s:98828  .debug_str:000000000002e6ae .LASF8813
     /tmp/ccut0Zoi.s:104090  .debug_str:0000000000043c6c .LASF8814
     /tmp/ccut0Zoi.s:97424  .debug_str:0000000000028a93 .LASF8815
     /tmp/ccut0Zoi.s:93694  .debug_str:00000000000192da .LASF8816
     /tmp/ccut0Zoi.s:89302  .debug_str:000000000000786b .LASF8817
     /tmp/ccut0Zoi.s:89850  .debug_str:0000000000009cc4 .LASF8818
     /tmp/ccut0Zoi.s:93482  .debug_str:00000000000184a8 .LASF8819
     /tmp/ccut0Zoi.s:89852  .debug_str:0000000000009ccf .LASF8820
     /tmp/ccut0Zoi.s:91760  .debug_str:00000000000114dd .LASF8821
     /tmp/ccut0Zoi.s:89854  .debug_str:0000000000009cda .LASF8822
     /tmp/ccut0Zoi.s:97940  .debug_str:000000000002ab7b .LASF8823
     /tmp/ccut0Zoi.s:89856  .debug_str:0000000000009ce5 .LASF8824
     /tmp/ccut0Zoi.s:94422  .debug_str:000000000001c5c0 .LASF8825
     /tmp/ccut0Zoi.s:89858  .debug_str:0000000000009cf0 .LASF8826
     /tmp/ccut0Zoi.s:88448  .debug_str:0000000000003df6 .LASF8827
     /tmp/ccut0Zoi.s:100154  .debug_str:0000000000033f44 .LASF8828
     /tmp/ccut0Zoi.s:88794  .debug_str:0000000000005695 .LASF8829
     /tmp/ccut0Zoi.s:97222  .debug_str:0000000000027da5 .LASF8830
     /tmp/ccut0Zoi.s:103642  .debug_str:0000000000042035 .LASF8831
     /tmp/ccut0Zoi.s:97224  .debug_str:0000000000027daf .LASF8832
     /tmp/ccut0Zoi.s:104418  .debug_str:0000000000045247 .LASF8833
     /tmp/ccut0Zoi.s:100158  .debug_str:0000000000033f77 .LASF8834
     /tmp/ccut0Zoi.s:91780  .debug_str:0000000000011640 .LASF8835
     /tmp/ccut0Zoi.s:97228  .debug_str:0000000000027def .LASF8836
     /tmp/ccut0Zoi.s:104586  .debug_str:0000000000045cce .LASF8837
     /tmp/ccut0Zoi.s:97230  .debug_str:0000000000027df9 .LASF8838
     /tmp/ccut0Zoi.s:100702  .debug_str:0000000000036174 .LASF8839
     /tmp/ccut0Zoi.s:97232  .debug_str:0000000000027e03 .LASF8840
     /tmp/ccut0Zoi.s:92724  .debug_str:00000000000153c3 .LASF8841
     /tmp/ccut0Zoi.s:97234  .debug_str:0000000000027e0d .LASF8842
     /tmp/ccut0Zoi.s:105498  .debug_str:0000000000049ac0 .LASF8843
     /tmp/ccut0Zoi.s:96258  .debug_str:000000000002405f .LASF8844
     /tmp/ccut0Zoi.s:90794  .debug_str:000000000000dc83 .LASF8845
     /tmp/ccut0Zoi.s:93504  .debug_str:00000000000185e0 .LASF8846
     /tmp/ccut0Zoi.s:97754  .debug_str:0000000000029ff4 .LASF8847
     /tmp/ccut0Zoi.s:91708  .debug_str:000000000001114c .LASF8848
     /tmp/ccut0Zoi.s:92542  .debug_str:0000000000014776 .LASF8849
     /tmp/ccut0Zoi.s:103952  .debug_str:0000000000043382 .LASF8850
     /tmp/ccut0Zoi.s:91418  .debug_str:000000000000ff28 .LASF8851
     /tmp/ccut0Zoi.s:102858  .debug_str:000000000003eafe .LASF8852
     /tmp/ccut0Zoi.s:104994  .debug_str:000000000004781d .LASF8853
     /tmp/ccut0Zoi.s:102158  .debug_str:000000000003bd1b .LASF8854
     /tmp/ccut0Zoi.s:92380  .debug_str:0000000000013dcc .LASF8855
     /tmp/ccut0Zoi.s:87942  .debug_str:0000000000001af3 .LASF8856
     /tmp/ccut0Zoi.s:98198  .debug_str:000000000002bb89 .LASF8857
     /tmp/ccut0Zoi.s:105110  .debug_str:0000000000047fa7 .LASF8858
     /tmp/ccut0Zoi.s:101464  .debug_str:0000000000038cf4 .LASF8859
     /tmp/ccut0Zoi.s:99248  .debug_str:00000000000301fe .LASF8860
     /tmp/ccut0Zoi.s:103576  .debug_str:0000000000041c25 .LASF8861
     /tmp/ccut0Zoi.s:95158  .debug_str:000000000001fa65 .LASF8862
     /tmp/ccut0Zoi.s:99116  .debug_str:000000000002f99f .LASF8863
     /tmp/ccut0Zoi.s:91860  .debug_str:0000000000011bd9 .LASF8864
     /tmp/ccut0Zoi.s:92074  .debug_str:0000000000012abc .LASF8865
     /tmp/ccut0Zoi.s:94048  .debug_str:000000000001abc3 .LASF8866
     /tmp/ccut0Zoi.s:95186  .debug_str:000000000001fbf0 .LASF8867
     /tmp/ccut0Zoi.s:96632  .debug_str:00000000000255c3 .LASF8868
     /tmp/ccut0Zoi.s:89454  .debug_str:0000000000008212 .LASF8869
     /tmp/ccut0Zoi.s:98410  .debug_str:000000000002ca26 .LASF8870
     /tmp/ccut0Zoi.s:93658  .debug_str:0000000000019096 .LASF8871
     /tmp/ccut0Zoi.s:92894  .debug_str:0000000000015e5f .LASF8872
     /tmp/ccut0Zoi.s:103994  .debug_str:0000000000043672 .LASF8873
     /tmp/ccut0Zoi.s:93628  .debug_str:0000000000018e74 .LASF8874
     /tmp/ccut0Zoi.s:97172  .debug_str:0000000000027a93 .LASF8875
     /tmp/ccut0Zoi.s:87752  .debug_str:0000000000000d9f .LASF8876
     /tmp/ccut0Zoi.s:94216  .debug_str:000000000001b7bb .LASF8877
     /tmp/ccut0Zoi.s:100674  .debug_str:0000000000035fcb .LASF8878
     /tmp/ccut0Zoi.s:99126  .debug_str:000000000002fa18 .LASF8879
     /tmp/ccut0Zoi.s:95798  .debug_str:00000000000223e3 .LASF8880
     /tmp/ccut0Zoi.s:96878  .debug_str:0000000000026697 .LASF8881
     /tmp/ccut0Zoi.s:95594  .debug_str:0000000000021632 .LASF8882
     /tmp/ccut0Zoi.s:87802  .debug_str:000000000000112b .LASF8883
     /tmp/ccut0Zoi.s:87940  .debug_str:0000000000001acf .LASF8884
     /tmp/ccut0Zoi.s:90540  .debug_str:000000000000cca3 .LASF8885
     /tmp/ccut0Zoi.s:90276  .debug_str:000000000000bad5 .LASF8886
     /tmp/ccut0Zoi.s:98402  .debug_str:000000000002c9c8 .LASF8887
     /tmp/ccut0Zoi.s:94284  .debug_str:000000000001bcb0 .LASF8888
     /tmp/ccut0Zoi.s:98160  .debug_str:000000000002b988 .LASF8889
     /tmp/ccut0Zoi.s:98162  .debug_str:000000000002b98d .LASF8890
     /tmp/ccut0Zoi.s:89270  .debug_str:0000000000007639 .LASF8891
     /tmp/ccut0Zoi.s:89272  .debug_str:000000000000763e .LASF8892
     /tmp/ccut0Zoi.s:105292  .debug_str:0000000000048ce9 .LASF8893
     /tmp/ccut0Zoi.s:101914  .debug_str:000000000003ac3a .LASF8894
     /tmp/ccut0Zoi.s:103186  .debug_str:00000000000401d8 .LASF8895
     /tmp/ccut0Zoi.s:103188  .debug_str:00000000000401de .LASF8896
     /tmp/ccut0Zoi.s:103192  .debug_str:00000000000401f2 .LASF8897
     /tmp/ccut0Zoi.s:96684  .debug_str:0000000000025967 .LASF8898
     /tmp/ccut0Zoi.s:104462  .debug_str:00000000000454f6 .LASF8899
     /tmp/ccut0Zoi.s:93612  .debug_str:0000000000018d48 .LASF8900
     /tmp/ccut0Zoi.s:103638  .debug_str:000000000004200f .LASF8901
     /tmp/ccut0Zoi.s:88376  .debug_str:0000000000003946 .LASF8902
     /tmp/ccut0Zoi.s:95356  .debug_str:0000000000020734 .LASF8903
     /tmp/ccut0Zoi.s:97910  .debug_str:000000000002a9aa .LASF8904
     /tmp/ccut0Zoi.s:103130  .debug_str:000000000003fe45 .LASF8905
     /tmp/ccut0Zoi.s:91728  .debug_str:00000000000112bc .LASF8906
     /tmp/ccut0Zoi.s:98210  .debug_str:000000000002bc74 .LASF8907
     /tmp/ccut0Zoi.s:88200  .debug_str:0000000000002d18 .LASF8908
     /tmp/ccut0Zoi.s:99106  .debug_str:000000000002f918 .LASF8909
     /tmp/ccut0Zoi.s:95984  .debug_str:000000000002305a .LASF8910
     /tmp/ccut0Zoi.s:98212  .debug_str:000000000002bc7d .LASF8911
     /tmp/ccut0Zoi.s:97788  .debug_str:000000000002a1f4 .LASF8912
     /tmp/ccut0Zoi.s:93784  .debug_str:0000000000019958 .LASF8913
     /tmp/ccut0Zoi.s:89240  .debug_str:0000000000007484 .LASF8914
     /tmp/ccut0Zoi.s:98730  .debug_str:000000000002e013 .LASF8915
     /tmp/ccut0Zoi.s:88706  .debug_str:0000000000004fc4 .LASF8916
     /tmp/ccut0Zoi.s:95906  .debug_str:0000000000022aef .LASF8917
     /tmp/ccut0Zoi.s:105810  .debug_str:000000000004b1f8 .LASF8918
     /tmp/ccut0Zoi.s:94868  .debug_str:000000000001e549 .LASF8919
     /tmp/ccut0Zoi.s:106072  .debug_str:000000000004c3a9 .LASF8920
     /tmp/ccut0Zoi.s:89590  .debug_str:0000000000008b56 .LASF8921
     /tmp/ccut0Zoi.s:88134  .debug_str:0000000000002888 .LASF8922
     /tmp/ccut0Zoi.s:103236  .debug_str:0000000000040441 .LASF8923
     /tmp/ccut0Zoi.s:102548  .debug_str:000000000003d639 .LASF8924
     /tmp/ccut0Zoi.s:96834  .debug_str:0000000000026325 .LASF8925
     /tmp/ccut0Zoi.s:101326  .debug_str:00000000000383c6 .LASF8926
     /tmp/ccut0Zoi.s:104446  .debug_str:0000000000045401 .LASF8927
     /tmp/ccut0Zoi.s:93272  .debug_str:00000000000177a8 .LASF8928
     /tmp/ccut0Zoi.s:98756  .debug_str:000000000002e1a3 .LASF8929
     /tmp/ccut0Zoi.s:102074  .debug_str:000000000003b6de .LASF8930
     /tmp/ccut0Zoi.s:99484  .debug_str:00000000000312b4 .LASF8931
     /tmp/ccut0Zoi.s:98078  .debug_str:000000000002b4f7 .LASF8932
     /tmp/ccut0Zoi.s:93078  .debug_str:0000000000016a95 .LASF8933
     /tmp/ccut0Zoi.s:92410  .debug_str:0000000000013fa3 .LASF8934
     /tmp/ccut0Zoi.s:94888  .debug_str:000000000001e6d1 .LASF8935
     /tmp/ccut0Zoi.s:94792  .debug_str:000000000001df5a .LASF8936
     /tmp/ccut0Zoi.s:101348  .debug_str:0000000000038551 .LASF8937
     /tmp/ccut0Zoi.s:102802  .debug_str:000000000003e733 .LASF8938
     /tmp/ccut0Zoi.s:93986  .debug_str:000000000001a7d9 .LASF8939
     /tmp/ccut0Zoi.s:93996  .debug_str:000000000001a820 .LASF8940
     /tmp/ccut0Zoi.s:97986  .debug_str:000000000002af24 .LASF8941
     /tmp/ccut0Zoi.s:100528  .debug_str:00000000000356ef .LASF8942
     /tmp/ccut0Zoi.s:98082  .debug_str:000000000002b52a .LASF8943
     /tmp/ccut0Zoi.s:91886  .debug_str:0000000000011da9 .LASF8944
     /tmp/ccut0Zoi.s:94598  .debug_str:000000000001d22f .LASF8945
     /tmp/ccut0Zoi.s:94180  .debug_str:000000000001b5af .LASF8946
     /tmp/ccut0Zoi.s:106172  .debug_str:000000000004caf0 .LASF8947
     /tmp/ccut0Zoi.s:87724  .debug_str:0000000000000bb3 .LASF8948
     /tmp/ccut0Zoi.s:87844  .debug_str:00000000000013fd .LASF8949
     /tmp/ccut0Zoi.s:93822  .debug_str:0000000000019c83 .LASF8950
     /tmp/ccut0Zoi.s:89006  .debug_str:000000000000643f .LASF8951
     /tmp/ccut0Zoi.s:96400  .debug_str:0000000000024795 .LASF8952
     /tmp/ccut0Zoi.s:102800  .debug_str:000000000003e72c .LASF8953
     /tmp/ccut0Zoi.s:93994  .debug_str:000000000001a816 .LASF8954
     /tmp/ccut0Zoi.s:97650  .debug_str:0000000000029908 .LASF8955
     /tmp/ccut0Zoi.s:93562  .debug_str:00000000000189fc .LASF8956
     /tmp/ccut0Zoi.s:87846  .debug_str:0000000000001408 .LASF8957
     /tmp/ccut0Zoi.s:87876  .debug_str:00000000000015b7 .LASF8958
     /tmp/ccut0Zoi.s:100652  .debug_str:0000000000035efa .LASF8959
     /tmp/ccut0Zoi.s:94746  .debug_str:000000000001dc88 .LASF8960
     /tmp/ccut0Zoi.s:94748  .debug_str:000000000001dc92 .LASF8961
     /tmp/ccut0Zoi.s:94750  .debug_str:000000000001dc9c .LASF8962
     /tmp/ccut0Zoi.s:94752  .debug_str:000000000001dca6 .LASF8963
     /tmp/ccut0Zoi.s:94754  .debug_str:000000000001dcb0 .LASF8964
     /tmp/ccut0Zoi.s:99766  .debug_str:00000000000324b0 .LASF8965
     /tmp/ccut0Zoi.s:94756  .debug_str:000000000001dcba .LASF8966
     /tmp/ccut0Zoi.s:90982  .debug_str:000000000000e616 .LASF8967
     /tmp/ccut0Zoi.s:90984  .debug_str:000000000000e621 .LASF8968
     /tmp/ccut0Zoi.s:105692  .debug_str:000000000004a8c6 .LASF8969
     /tmp/ccut0Zoi.s:102950  .debug_str:000000000003f1f0 .LASF8970
     /tmp/ccut0Zoi.s:89136  .debug_str:0000000000006dac .LASF8971
     /tmp/ccut0Zoi.s:95716  .debug_str:0000000000021e41 .LASF8972
     /tmp/ccut0Zoi.s:89300  .debug_str:000000000000785f .LASF8973
     /tmp/ccut0Zoi.s:102952  .debug_str:000000000003f1fb .LASF8974
     /tmp/ccut0Zoi.s:102024  .debug_str:000000000003b35c .LASF8975
     /tmp/ccut0Zoi.s:88008  .debug_str:0000000000001f4d .LASF8976
     /tmp/ccut0Zoi.s:93408  .debug_str:0000000000017f9a .LASF8977
     /tmp/ccut0Zoi.s:96036  .debug_str:0000000000023432 .LASF8978
     /tmp/ccut0Zoi.s:102220  .debug_str:000000000003c14a .LASF8979
     /tmp/ccut0Zoi.s:101866  .debug_str:000000000003a8f5 .LASF8980
     /tmp/ccut0Zoi.s:87990  .debug_str:0000000000001dfc .LASF8981
     /tmp/ccut0Zoi.s:92028  .debug_str:000000000001270d .LASF8982
     /tmp/ccut0Zoi.s:94966  .debug_str:000000000001ebb2 .LASF8983
     /tmp/ccut0Zoi.s:96104  .debug_str:000000000002383f .LASF8984
     /tmp/ccut0Zoi.s:91610  .debug_str:0000000000010b39 .LASF8985
     /tmp/ccut0Zoi.s:96106  .debug_str:000000000002384a .LASF8986
     /tmp/ccut0Zoi.s:103634  .debug_str:0000000000041fa4 .LASF8987
     /tmp/ccut0Zoi.s:92508  .debug_str:0000000000014558 .LASF8988
     /tmp/ccut0Zoi.s:105742  .debug_str:000000000004ad0a .LASF8989
     /tmp/ccut0Zoi.s:92510  .debug_str:0000000000014563 .LASF8990
     /tmp/ccut0Zoi.s:99856  .debug_str:0000000000032a61 .LASF8991
     /tmp/ccut0Zoi.s:92512  .debug_str:000000000001456e .LASF8992
     /tmp/ccut0Zoi.s:93890  .debug_str:000000000001a179 .LASF8993
     /tmp/ccut0Zoi.s:95434  .debug_str:0000000000020c96 .LASF8994
     /tmp/ccut0Zoi.s:100802  .debug_str:0000000000036770 .LASF8995
     /tmp/ccut0Zoi.s:92306  .debug_str:0000000000013941 .LASF8996
     /tmp/ccut0Zoi.s:89532  .debug_str:0000000000008727 .LASF8997
     /tmp/ccut0Zoi.s:92308  .debug_str:000000000001394c .LASF8998
     /tmp/ccut0Zoi.s:102428  .debug_str:000000000003ce56 .LASF8999
     /tmp/ccut0Zoi.s:92640  .debug_str:0000000000014e21 .LASF9000
     /tmp/ccut0Zoi.s:103750  .debug_str:0000000000042744 .LASF9001
     /tmp/ccut0Zoi.s:100826  .debug_str:00000000000368e2 .LASF9002
     /tmp/ccut0Zoi.s:97882  .debug_str:000000000002a7e9 .LASF9003
     /tmp/ccut0Zoi.s:92648  .debug_str:0000000000014e92 .LASF9004
     /tmp/ccut0Zoi.s:103514  .debug_str:0000000000041787 .LASF9005
     /tmp/ccut0Zoi.s:98972  .debug_str:000000000002f0bd .LASF9006
     /tmp/ccut0Zoi.s:87828  .debug_str:00000000000012a7 .LASF9007
     /tmp/ccut0Zoi.s:93942  .debug_str:000000000001a4cc .LASF9008
     /tmp/ccut0Zoi.s:106182  .debug_str:000000000004cb55 .LASF9009
     /tmp/ccut0Zoi.s:93944  .debug_str:000000000001a4d7 .LASF9010
     /tmp/ccut0Zoi.s:99506  .debug_str:00000000000313f1 .LASF9011
     /tmp/ccut0Zoi.s:90214  .debug_str:000000000000b6e7 .LASF9012
     /tmp/ccut0Zoi.s:89444  .debug_str:00000000000081ac .LASF9013
     /tmp/ccut0Zoi.s:90216  .debug_str:000000000000b6f2 .LASF9014
     /tmp/ccut0Zoi.s:95802  .debug_str:000000000002240d .LASF9015
     /tmp/ccut0Zoi.s:90218  .debug_str:000000000000b6fd .LASF9016
     /tmp/ccut0Zoi.s:89754  .debug_str:00000000000096f4 .LASF9017
     /tmp/ccut0Zoi.s:102446  .debug_str:000000000003cfa0 .LASF9018
     /tmp/ccut0Zoi.s:93656  .debug_str:0000000000019070 .LASF9019
     /tmp/ccut0Zoi.s:97210  .debug_str:0000000000027d0c .LASF9020
     /tmp/ccut0Zoi.s:97212  .debug_str:0000000000027d20 .LASF9021
     /tmp/ccut0Zoi.s:97214  .debug_str:0000000000027d34 .LASF9022
     /tmp/ccut0Zoi.s:96260  .debug_str:000000000002406b .LASF9023
     /tmp/ccut0Zoi.s:96262  .debug_str:000000000002407c .LASF9024
     /tmp/ccut0Zoi.s:88024  .debug_str:00000000000020b0 .LASF9025
     /tmp/ccut0Zoi.s:96266  .debug_str:00000000000240ba .LASF9026
     /tmp/ccut0Zoi.s:96268  .debug_str:00000000000240cb .LASF9027
     /tmp/ccut0Zoi.s:89268  .debug_str:0000000000007627 .LASF9028
     /tmp/ccut0Zoi.s:96350  .debug_str:000000000002449f .LASF9029
     /tmp/ccut0Zoi.s:92618  .debug_str:0000000000014c56 .LASF9030
     /tmp/ccut0Zoi.s:92642  .debug_str:0000000000014e2c .LASF9031
     /tmp/ccut0Zoi.s:105608  .debug_str:000000000004a227 .LASF9032
     /tmp/ccut0Zoi.s:91112  .debug_str:000000000000ed8e .LASF9033
     /tmp/ccut0Zoi.s:99610  .debug_str:0000000000031afc .LASF9034
     /tmp/ccut0Zoi.s:104828  .debug_str:0000000000046d7c .LASF9035
     /tmp/ccut0Zoi.s:103564  .debug_str:0000000000041b37 .LASF9036
     /tmp/ccut0Zoi.s:91820  .debug_str:0000000000011964 .LASF9037
     /tmp/ccut0Zoi.s:94372  .debug_str:000000000001c244 .LASF9038
     /tmp/ccut0Zoi.s:98102  .debug_str:000000000002b622 .LASF9039
     /tmp/ccut0Zoi.s:100612  .debug_str:0000000000035c1b .LASF9040
     /tmp/ccut0Zoi.s:103482  .debug_str:00000000000415c6 .LASF9041
     /tmp/ccut0Zoi.s:88682  .debug_str:0000000000004e51 .LASF9042
     /tmp/ccut0Zoi.s:95550  .debug_str:000000000002132e .LASF9043
     /tmp/ccut0Zoi.s:94132  .debug_str:000000000001b257 .LASF9044
     /tmp/ccut0Zoi.s:97906  .debug_str:000000000002a964 .LASF9045
     /tmp/ccut0Zoi.s:96562  .debug_str:00000000000250cc .LASF9046
     /tmp/ccut0Zoi.s:98578  .debug_str:000000000002d57f .LASF9047
     /tmp/ccut0Zoi.s:89938  .debug_str:000000000000a2ea .LASF9048
     /tmp/ccut0Zoi.s:95778  .debug_str:000000000002224f .LASF9049
     /tmp/ccut0Zoi.s:98990  .debug_str:000000000002f1ee .LASF9050
     /tmp/ccut0Zoi.s:95072  .debug_str:000000000001f3f9 .LASF9051
     /tmp/ccut0Zoi.s:101384  .debug_str:00000000000387b1 .LASF9052
     /tmp/ccut0Zoi.s:101386  .debug_str:00000000000387bc .LASF9053
     /tmp/ccut0Zoi.s:101388  .debug_str:00000000000387c7 .LASF9054
     /tmp/ccut0Zoi.s:101390  .debug_str:00000000000387d2 .LASF9055
     /tmp/ccut0Zoi.s:88300  .debug_str:00000000000033e8 .LASF9056
     /tmp/ccut0Zoi.s:94928  .debug_str:000000000001e954 .LASF9057
     /tmp/ccut0Zoi.s:100214  .debug_str:000000000003430a .LASF9058
     /tmp/ccut0Zoi.s:91488  .debug_str:00000000000102c5 .LASF9059
     /tmp/ccut0Zoi.s:105842  .debug_str:000000000004b44c .LASF9060
     /tmp/ccut0Zoi.s:103856  .debug_str:0000000000042dae .LASF9061
     /tmp/ccut0Zoi.s:89760  .debug_str:0000000000009750 .LASF9062
     /tmp/ccut0Zoi.s:103378  .debug_str:0000000000040eef .LASF9063
     /tmp/ccut0Zoi.s:105226  .debug_str:000000000004886c .LASF9064
     /tmp/ccut0Zoi.s:102378  .debug_str:000000000003caec .LASF9065
     /tmp/ccut0Zoi.s:91516  .debug_str:0000000000010531 .LASF9066
     /tmp/ccut0Zoi.s:94054  .debug_str:000000000001ac4f .LASF9067
     /tmp/ccut0Zoi.s:98708  .debug_str:000000000002dec6 .LASF9068
     /tmp/ccut0Zoi.s:92702  .debug_str:000000000001528f .LASF9069
     /tmp/ccut0Zoi.s:97292  .debug_str:0000000000028220 .LASF9070
     /tmp/ccut0Zoi.s:100768  .debug_str:0000000000036511 .LASF9071
     /tmp/ccut0Zoi.s:104326  .debug_str:0000000000044b7e .LASF9072
     /tmp/ccut0Zoi.s:97678  .debug_str:0000000000029a39 .LASF9073
     /tmp/ccut0Zoi.s:94006  .debug_str:000000000001a8a8 .LASF9074
     /tmp/ccut0Zoi.s:104618  .debug_str:0000000000045ea0 .LASF9075
     /tmp/ccut0Zoi.s:98994  .debug_str:000000000002f226 .LASF9076
     /tmp/ccut0Zoi.s:89876  .debug_str:0000000000009e53 .LASF9077
     /tmp/ccut0Zoi.s:95140  .debug_str:000000000001f924 .LASF9078
     /tmp/ccut0Zoi.s:100470  .debug_str:00000000000353a9 .LASF9079
     /tmp/ccut0Zoi.s:91350  .debug_str:000000000000fb6a .LASF9080
     /tmp/ccut0Zoi.s:92360  .debug_str:0000000000013c7f .LASF9081
     /tmp/ccut0Zoi.s:106270  .debug_str:000000000004d159 .LASF9082
     /tmp/ccut0Zoi.s:102988  .debug_str:000000000003f43f .LASF9083
     /tmp/ccut0Zoi.s:92222  .debug_str:000000000001341d .LASF9084
     /tmp/ccut0Zoi.s:87982  .debug_str:0000000000001d6a .LASF9085
     /tmp/ccut0Zoi.s:102348  .debug_str:000000000003c8d9 .LASF9086
     /tmp/ccut0Zoi.s:98230  .debug_str:000000000002bd8c .LASF9087
     /tmp/ccut0Zoi.s:93764  .debug_str:0000000000019825 .LASF9088
     /tmp/ccut0Zoi.s:89460  .debug_str:000000000000826f .LASF9089
     /tmp/ccut0Zoi.s:104074  .debug_str:0000000000043b83 .LASF9090
     /tmp/ccut0Zoi.s:99726  .debug_str:000000000003223a .LASF9091
     /tmp/ccut0Zoi.s:95486  .debug_str:0000000000020ef2 .LASF9092
     /tmp/ccut0Zoi.s:91016  .debug_str:000000000000e7f2 .LASF9093
     /tmp/ccut0Zoi.s:104296  .debug_str:0000000000044980 .LASF9094
     /tmp/ccut0Zoi.s:94166  .debug_str:000000000001b45f .LASF9095
     /tmp/ccut0Zoi.s:90198  .debug_str:000000000000b5bd .LASF9096
     /tmp/ccut0Zoi.s:101192  .debug_str:0000000000037b4b .LASF9097
     /tmp/ccut0Zoi.s:88098  .debug_str:0000000000002600 .LASF9098
     /tmp/ccut0Zoi.s:96896  .debug_str:000000000002675f .LASF9099
     /tmp/ccut0Zoi.s:105756  .debug_str:000000000004ae3f .LASF9100
     /tmp/ccut0Zoi.s:95916  .debug_str:0000000000022b70 .LASF9101
     /tmp/ccut0Zoi.s:104812  .debug_str:0000000000046c56 .LASF9102
     /tmp/ccut0Zoi.s:95016  .debug_str:000000000001efe3 .LASF9103
     /tmp/ccut0Zoi.s:90110  .debug_str:000000000000aefd .LASF9104
     /tmp/ccut0Zoi.s:98982  .debug_str:000000000002f171 .LASF9105
     /tmp/ccut0Zoi.s:88728  .debug_str:000000000000512f .LASF9106
     /tmp/ccut0Zoi.s:98084  .debug_str:000000000002b532 .LASF9107
     /tmp/ccut0Zoi.s:95400  .debug_str:0000000000020a3c .LASF9108
     /tmp/ccut0Zoi.s:104266  .debug_str:0000000000044769 .LASF9109
     /tmp/ccut0Zoi.s:94434  .debug_str:000000000001c6a2 .LASF9110
     /tmp/ccut0Zoi.s:103138  .debug_str:000000000003fef7 .LASF9111
     /tmp/ccut0Zoi.s:93338  .debug_str:0000000000017bda .LASF9112
     /tmp/ccut0Zoi.s:102230  .debug_str:000000000003c1de .LASF9113
     /tmp/ccut0Zoi.s:97516  .debug_str:000000000002905d .LASF9114
     /tmp/ccut0Zoi.s:87604  .debug_str:0000000000000395 .LASF9115
     /tmp/ccut0Zoi.s:93674  .debug_str:000000000001918e .LASF9116
     /tmp/ccut0Zoi.s:103934  .debug_str:0000000000043235 .LASF9117
     /tmp/ccut0Zoi.s:101518  .debug_str:00000000000390b3 .LASF9118
     /tmp/ccut0Zoi.s:91966  .debug_str:00000000000122f2 .LASF9119
     /tmp/ccut0Zoi.s:102196  .debug_str:000000000003bf98 .LASF9120
     /tmp/ccut0Zoi.s:93728  .debug_str:0000000000019560 .LASF9121
     /tmp/ccut0Zoi.s:89078  .debug_str:0000000000006981 .LASF9122
     /tmp/ccut0Zoi.s:101232  .debug_str:0000000000037d49 .LASF9123
     /tmp/ccut0Zoi.s:95854  .debug_str:00000000000227bb .LASF9124
     /tmp/ccut0Zoi.s:100946  .debug_str:0000000000036e99 .LASF9125
     /tmp/ccut0Zoi.s:92382  .debug_str:0000000000013dd4 .LASF9126
     /tmp/ccut0Zoi.s:98264  .debug_str:000000000002bfce .LASF9127
     /tmp/ccut0Zoi.s:89576  .debug_str:0000000000008aa5 .LASF9128
     /tmp/ccut0Zoi.s:94822  .debug_str:000000000001e206 .LASF9129
     /tmp/ccut0Zoi.s:98342  .debug_str:000000000002c55c .LASF9130
     /tmp/ccut0Zoi.s:100152  .debug_str:0000000000033f2b .LASF9131
     /tmp/ccut0Zoi.s:104452  .debug_str:0000000000045454 .LASF9132
     /tmp/ccut0Zoi.s:87608  .debug_str:00000000000003f9 .LASF9133
     /tmp/ccut0Zoi.s:90640  .debug_str:000000000000d325 .LASF9134
     /tmp/ccut0Zoi.s:104826  .debug_str:0000000000046d63 .LASF9135
     /tmp/ccut0Zoi.s:106274  .debug_str:000000000004d187 .LASF9136
     /tmp/ccut0Zoi.s:97876  .debug_str:000000000002a766 .LASF9137
     /tmp/ccut0Zoi.s:89236  .debug_str:0000000000007441 .LASF9138
     /tmp/ccut0Zoi.s:92900  .debug_str:0000000000015e86 .LASF9139
     /tmp/ccut0Zoi.s:103472  .debug_str:0000000000041549 .LASF9140
     /tmp/ccut0Zoi.s:96604  .debug_str:00000000000253ff .LASF9141
     /tmp/ccut0Zoi.s:100284  .debug_str:00000000000347c0 .LASF9142
     /tmp/ccut0Zoi.s:98952  .debug_str:000000000002ef5d .LASF9143
     /tmp/ccut0Zoi.s:102044  .debug_str:000000000003b4e4 .LASF9144
     /tmp/ccut0Zoi.s:89012  .debug_str:0000000000006491 .LASF9145
     /tmp/ccut0Zoi.s:93328  .debug_str:0000000000017b4f .LASF9146
     /tmp/ccut0Zoi.s:101908  .debug_str:000000000003abf0 .LASF9147
     /tmp/ccut0Zoi.s:105986  .debug_str:000000000004be1d .LASF9148
     /tmp/ccut0Zoi.s:88926  .debug_str:0000000000005ef4 .LASF9149
     /tmp/ccut0Zoi.s:104056  .debug_str:0000000000043a54 .LASF9150
     /tmp/ccut0Zoi.s:103568  .debug_str:0000000000041b8e .LASF9151
     /tmp/ccut0Zoi.s:88346  .debug_str:0000000000003702 .LASF9152
     /tmp/ccut0Zoi.s:93870  .debug_str:000000000001a012 .LASF9153
     /tmp/ccut0Zoi.s:87592  .debug_str:00000000000002a5 .LASF9154
     /tmp/ccut0Zoi.s:93424  .debug_str:000000000001803d .LASF9155
     /tmp/ccut0Zoi.s:103224  .debug_str:0000000000040374 .LASF9156
     /tmp/ccut0Zoi.s:89016  .debug_str:00000000000064e3 .LASF9157
     /tmp/ccut0Zoi.s:93936  .debug_str:000000000001a445 .LASF9158
     /tmp/ccut0Zoi.s:88272  .debug_str:000000000000328d .LASF9159
     /tmp/ccut0Zoi.s:93228  .debug_str:000000000001749c .LASF9160
     /tmp/ccut0Zoi.s:91482  .debug_str:000000000001025e .LASF9161
     /tmp/ccut0Zoi.s:101820  .debug_str:000000000003a5f0 .LASF9162
     /tmp/ccut0Zoi.s:93434  .debug_str:000000000001811c .LASF9163
     /tmp/ccut0Zoi.s:103678  .debug_str:00000000000422e3 .LASF9164
     /tmp/ccut0Zoi.s:95242  .debug_str:000000000001ff33 .LASF9165
     /tmp/ccut0Zoi.s:87722  .debug_str:0000000000000b9d .LASF9166
     /tmp/ccut0Zoi.s:95624  .debug_str:0000000000021820 .LASF9167
     /tmp/ccut0Zoi.s:101834  .debug_str:000000000003a6bb .LASF9168
     /tmp/ccut0Zoi.s:89400  .debug_str:0000000000007e76 .LASF9169
     /tmp/ccut0Zoi.s:92312  .debug_str:0000000000013980 .LASF9170
     /tmp/ccut0Zoi.s:89294  .debug_str:00000000000077ed .LASF9171
     /tmp/ccut0Zoi.s:93182  .debug_str:0000000000017212 .LASF9172
     /tmp/ccut0Zoi.s:100400  .debug_str:0000000000034f0f .LASF9173
     /tmp/ccut0Zoi.s:90466  .debug_str:000000000000c77b .LASF9174
     /tmp/ccut0Zoi.s:92842  .debug_str:0000000000015b18 .LASF9175
     /tmp/ccut0Zoi.s:102926  .debug_str:000000000003f094 .LASF9176
     /tmp/ccut0Zoi.s:99294  .debug_str:00000000000304fd .LASF9177
     /tmp/ccut0Zoi.s:95436  .debug_str:0000000000020ca0 .LASF9178
     /tmp/ccut0Zoi.s:91498  .debug_str:00000000000103ac .LASF9179
     /tmp/ccut0Zoi.s:104076  .debug_str:0000000000043bac .LASF9180
     /tmp/ccut0Zoi.s:102326  .debug_str:000000000003c84a .LASF9181
     /tmp/ccut0Zoi.s:105216  .debug_str:00000000000487b2 .LASF9182
     /tmp/ccut0Zoi.s:99078  .debug_str:000000000002f73d .LASF9183
     /tmp/ccut0Zoi.s:103864  .debug_str:0000000000042e00 .LASF9184
     /tmp/ccut0Zoi.s:97382  .debug_str:00000000000287bf .LASF9185
     /tmp/ccut0Zoi.s:100540  .debug_str:00000000000357ea .LASF9186
     /tmp/ccut0Zoi.s:104888  .debug_str:00000000000470f5 .LASF9187
     /tmp/ccut0Zoi.s:95980  .debug_str:0000000000023011 .LASF9188
     /tmp/ccut0Zoi.s:106236  .debug_str:000000000004cf30 .LASF9189
     /tmp/ccut0Zoi.s:97836  .debug_str:000000000002a460 .LASF9190
     /tmp/ccut0Zoi.s:89188  .debug_str:00000000000070e1 .LASF9191
     /tmp/ccut0Zoi.s:99534  .debug_str:00000000000315fb .LASF9192
     /tmp/ccut0Zoi.s:88816  .debug_str:0000000000005849 .LASF9193
     /tmp/ccut0Zoi.s:101510  .debug_str:000000000003902b .LASF9194
     /tmp/ccut0Zoi.s:92928  .debug_str:00000000000160c1 .LASF9195
     /tmp/ccut0Zoi.s:102342  .debug_str:000000000003c8b7 .LASF9196
     /tmp/ccut0Zoi.s:94846  .debug_str:000000000001e3df .LASF9197
     /tmp/ccut0Zoi.s:93218  .debug_str:00000000000173d2 .LASF9198
     /tmp/ccut0Zoi.s:99594  .debug_str:00000000000319e3 .LASF9199
     /tmp/ccut0Zoi.s:90996  .debug_str:000000000000e6ad .LASF9200
     /tmp/ccut0Zoi.s:101410  .debug_str:0000000000038999 .LASF9201
     /tmp/ccut0Zoi.s:99372  .debug_str:0000000000030ae9 .LASF9202
     /tmp/ccut0Zoi.s:103196  .debug_str:000000000004020a .LASF9203
     /tmp/ccut0Zoi.s:94726  .debug_str:000000000001db34 .LASF9204
     /tmp/ccut0Zoi.s:104940  .debug_str:000000000004749b .LASF9205
     /tmp/ccut0Zoi.s:94446  .debug_str:000000000001c74d .LASF9206
     /tmp/ccut0Zoi.s:88132  .debug_str:0000000000002871 .LASF9207
     /tmp/ccut0Zoi.s:103270  .debug_str:0000000000040712 .LASF9208
     /tmp/ccut0Zoi.s:89604  .debug_str:0000000000008c1a .LASF9209
     /tmp/ccut0Zoi.s:105156  .debug_str:000000000004835d .LASF9210
     /tmp/ccut0Zoi.s:96712  .debug_str:0000000000025b2a .LASF9211
     /tmp/ccut0Zoi.s:88190  .debug_str:0000000000002c5d .LASF9212
     /tmp/ccut0Zoi.s:98686  .debug_str:000000000002dda0 .LASF9213
     /tmp/ccut0Zoi.s:90688  .debug_str:000000000000d5a9 .LASF9214
     /tmp/ccut0Zoi.s:91838  .debug_str:0000000000011aaa .LASF9215
     /tmp/ccut0Zoi.s:91890  .debug_str:0000000000011dd9 .LASF9216
     /tmp/ccut0Zoi.s:102116  .debug_str:000000000003ba07 .LASF9217
     /tmp/ccut0Zoi.s:98748  .debug_str:000000000002e125 .LASF9218
     /tmp/ccut0Zoi.s:90084  .debug_str:000000000000ad41 .LASF9219
     /tmp/ccut0Zoi.s:100616  .debug_str:0000000000035c4b .LASF9220
     /tmp/ccut0Zoi.s:92090  .debug_str:0000000000012c1b .LASF9221
     /tmp/ccut0Zoi.s:94202  .debug_str:000000000001b6d4 .LASF9222
     /tmp/ccut0Zoi.s:93850  .debug_str:0000000000019eb4 .LASF9223
     /tmp/ccut0Zoi.s:104096  .debug_str:0000000000043cae .LASF9224
     /tmp/ccut0Zoi.s:95770  .debug_str:00000000000221d0 .LASF9225
     /tmp/ccut0Zoi.s:106008  .debug_str:000000000004bfdd .LASF9226
     /tmp/ccut0Zoi.s:92322  .debug_str:0000000000013a63 .LASF9227
     /tmp/ccut0Zoi.s:96298  .debug_str:00000000000242b2 .LASF9228
     /tmp/ccut0Zoi.s:104306  .debug_str:0000000000044a17 .LASF9229
     /tmp/ccut0Zoi.s:95816  .debug_str:000000000002250e .LASF9230
     /tmp/ccut0Zoi.s:106060  .debug_str:000000000004c2f5 .LASF9231
     /tmp/ccut0Zoi.s:97814  .debug_str:000000000002a351 .LASF9232
     /tmp/ccut0Zoi.s:89170  .debug_str:0000000000007021 .LASF9233
     /tmp/ccut0Zoi.s:99510  .debug_str:000000000003145a .LASF9234
     /tmp/ccut0Zoi.s:90912  .debug_str:000000000000e33d .LASF9235
     /tmp/ccut0Zoi.s:101312  .debug_str:00000000000382f3 .LASF9236
     /tmp/ccut0Zoi.s:92902  .debug_str:0000000000015ea0 .LASF9237
     /tmp/ccut0Zoi.s:89218  .debug_str:000000000000731c .LASF9238
     /tmp/ccut0Zoi.s:99748  .debug_str:000000000003235f .LASF9239
     /tmp/ccut0Zoi.s:105004  .debug_str:00000000000478d1 .LASF9240
     /tmp/ccut0Zoi.s:101534  .debug_str:0000000000039211 .LASF9241
     /tmp/ccut0Zoi.s:92958  .debug_str:000000000001626e .LASF9242
     /tmp/ccut0Zoi.s:99834  .debug_str:0000000000032893 .LASF9243
     /tmp/ccut0Zoi.s:94876  .debug_str:000000000001e5c0 .LASF9244
     /tmp/ccut0Zoi.s:105076  .debug_str:0000000000047d68 .LASF9245
     /tmp/ccut0Zoi.s:96644  .debug_str:0000000000025697 .LASF9246
     /tmp/ccut0Zoi.s:88104  .debug_str:0000000000002660 .LASF9247
     /tmp/ccut0Zoi.s:103422  .debug_str:00000000000411f0 .LASF9248
     /tmp/ccut0Zoi.s:94932  .debug_str:000000000001e975 .LASF9249
     /tmp/ccut0Zoi.s:105130  .debug_str:0000000000048194 .LASF9250
     /tmp/ccut0Zoi.s:94790  .debug_str:000000000001df43 .LASF9251
     /tmp/ccut0Zoi.s:91354  .debug_str:000000000000fb96 .LASF9252
     /tmp/ccut0Zoi.s:98136  .debug_str:000000000002b80d .LASF9253
     /tmp/ccut0Zoi.s:92050  .debug_str:000000000001292e .LASF9254
     /tmp/ccut0Zoi.s:104782  .debug_str:0000000000046a64 .LASF9255
     /tmp/ccut0Zoi.s:98856  .debug_str:000000000002e885 .LASF9256
     /tmp/ccut0Zoi.s:94074  .debug_str:000000000001ade7 .LASF9257
     /tmp/ccut0Zoi.s:102898  .debug_str:000000000003ee64 .LASF9258
     /tmp/ccut0Zoi.s:102060  .debug_str:000000000003b5e3 .LASF9259
     /tmp/ccut0Zoi.s:102460  .debug_str:000000000003d068 .LASF9260
     /tmp/ccut0Zoi.s:99620  .debug_str:0000000000031bb1 .LASF9261
     /tmp/ccut0Zoi.s:101370  .debug_str:00000000000386c3 .LASF9262
     /tmp/ccut0Zoi.s:99622  .debug_str:0000000000031bbb .LASF9263
     /tmp/ccut0Zoi.s:97286  .debug_str:00000000000281ad .LASF9264
     /tmp/ccut0Zoi.s:99624  .debug_str:0000000000031bc5 .LASF9265
     /tmp/ccut0Zoi.s:104706  .debug_str:0000000000046509 .LASF9266
     /tmp/ccut0Zoi.s:99626  .debug_str:0000000000031bcf .LASF9267
     /tmp/ccut0Zoi.s:97726  .debug_str:0000000000029dfe .LASF9268
     /tmp/ccut0Zoi.s:96084  .debug_str:0000000000023615 .LASF9269
     /tmp/ccut0Zoi.s:99546  .debug_str:00000000000316be .LASF9270
     /tmp/ccut0Zoi.s:99628  .debug_str:0000000000031bd9 .LASF9271
     /tmp/ccut0Zoi.s:101450  .debug_str:0000000000038c16 .LASF9272
     /tmp/ccut0Zoi.s:96156  .debug_str:0000000000023ae9 .LASF9273
     /tmp/ccut0Zoi.s:92288  .debug_str:0000000000013828 .LASF9274
     /tmp/ccut0Zoi.s:99630  .debug_str:0000000000031be3 .LASF9275
     /tmp/ccut0Zoi.s:102090  .debug_str:000000000003b816 .LASF9276
     /tmp/ccut0Zoi.s:96246  .debug_str:0000000000023fd4 .LASF9277
     /tmp/ccut0Zoi.s:103988  .debug_str:0000000000043630 .LASF9278
     /tmp/ccut0Zoi.s:89666  .debug_str:0000000000009068 .LASF9279
     /tmp/ccut0Zoi.s:95038  .debug_str:000000000001f186 .LASF9280
     /tmp/ccut0Zoi.s:96338  .debug_str:00000000000243e6 .LASF9281
     /tmp/ccut0Zoi.s:96924  .debug_str:0000000000026972 .LASF9282
     /tmp/ccut0Zoi.s:99634  .debug_str:0000000000031c01 .LASF9283
     /tmp/ccut0Zoi.s:99636  .debug_str:0000000000031c0b .LASF9284
     /tmp/ccut0Zoi.s:96114  .debug_str:00000000000238d9 .LASF9285
     /tmp/ccut0Zoi.s:87770  .debug_str:0000000000000ee2 .LASF9286
     /tmp/ccut0Zoi.s:102010  .debug_str:000000000003b28b .LASF9287
     /tmp/ccut0Zoi.s:91954  .debug_str:0000000000012222 .LASF9288
     /tmp/ccut0Zoi.s:105418  .debug_str:000000000004956e .LASF9289
     /tmp/ccut0Zoi.s:92026  .debug_str:00000000000126fd .LASF9290
     /tmp/ccut0Zoi.s:95184  .debug_str:000000000001fbdd .LASF9291
     /tmp/ccut0Zoi.s:92106  .debug_str:0000000000012d0d .LASF9292
     /tmp/ccut0Zoi.s:95268  .debug_str:0000000000020114 .LASF9293
     /tmp/ccut0Zoi.s:92176  .debug_str:0000000000013101 .LASF9294
     /tmp/ccut0Zoi.s:95340  .debug_str:000000000002063d .LASF9295
     /tmp/ccut0Zoi.s:92258  .debug_str:0000000000013628 .LASF9296
     /tmp/ccut0Zoi.s:95412  .debug_str:0000000000020b7b .LASF9297
     /tmp/ccut0Zoi.s:103996  .debug_str:0000000000043680 .LASF9298
     /tmp/ccut0Zoi.s:102416  .debug_str:000000000003cdac .LASF9299
     /tmp/ccut0Zoi.s:92372  .debug_str:0000000000013d48 .LASF9300
     /tmp/ccut0Zoi.s:88990  .debug_str:0000000000006322 .LASF9301
     /tmp/ccut0Zoi.s:101352  .debug_str:0000000000038576 .LASF9302
     /tmp/ccut0Zoi.s:104950  .debug_str:000000000004752a .LASF9303
     /tmp/ccut0Zoi.s:104988  .debug_str:0000000000047797 .LASF9304
     /tmp/ccut0Zoi.s:89290  .debug_str:000000000000779e .LASF9305
     /tmp/ccut0Zoi.s:89684  .debug_str:00000000000091b2 .LASF9306
     /tmp/ccut0Zoi.s:89186  .debug_str:00000000000070d4 .LASF9307
     /tmp/ccut0Zoi.s:105576  .debug_str:000000000004a072 .LASF9308
     /tmp/ccut0Zoi.s:91894  .debug_str:0000000000011e11 .LASF9309
     /tmp/ccut0Zoi.s:100290  .debug_str:0000000000034807 .LASF9310
     /tmp/ccut0Zoi.s:105138  .debug_str:000000000004821a .LASF9311
     /tmp/ccut0Zoi.s:104100  .debug_str:0000000000043cf6 .LASF9312
     /tmp/ccut0Zoi.s:89984  .debug_str:000000000000a613 .LASF9313
     /tmp/ccut0Zoi.s:100862  .debug_str:0000000000036a98 .LASF9314
     /tmp/ccut0Zoi.s:92848  .debug_str:0000000000015b51 .LASF9315
     /tmp/ccut0Zoi.s:94546  .debug_str:000000000001ce5d .LASF9316
     /tmp/ccut0Zoi.s:94098  .debug_str:000000000001af9a .LASF9317
     /tmp/ccut0Zoi.s:104538  .debug_str:00000000000459d6 .LASF9318
     /tmp/ccut0Zoi.s:104328  .debug_str:0000000000044b9f .LASF9319
     /tmp/ccut0Zoi.s:100594  .debug_str:0000000000035a94 .LASF9320
     /tmp/ccut0Zoi.s:95842  .debug_str:00000000000226d8 .LASF9321
     /tmp/ccut0Zoi.s:96550  .debug_str:0000000000025001 .LASF9322
     /tmp/ccut0Zoi.s:105574  .debug_str:000000000004a05f .LASF9323
     /tmp/ccut0Zoi.s:92500  .debug_str:00000000000144e0 .LASF9324
     /tmp/ccut0Zoi.s:103716  .debug_str:0000000000042522 .LASF9325
     /tmp/ccut0Zoi.s:91286  .debug_str:000000000000f822 .LASF9326
     /tmp/ccut0Zoi.s:90538  .debug_str:000000000000cc95 .LASF9327
     /tmp/ccut0Zoi.s:101436  .debug_str:0000000000038b87 .LASF9328
     /tmp/ccut0Zoi.s:105382  .debug_str:0000000000049312 .LASF9329
     /tmp/ccut0Zoi.s:103022  .debug_str:000000000003f66b .LASF9330
     /tmp/ccut0Zoi.s:103184  .debug_str:00000000000401be .LASF9331
     /tmp/ccut0Zoi.s:95672  .debug_str:0000000000021baa .LASF9332
     /tmp/ccut0Zoi.s:99544  .debug_str:00000000000316a7 .LASF9338
     /tmp/ccut0Zoi.s:1177   .text.trap_from_machine_mode:0000000000000000 .LFB26
     /tmp/ccut0Zoi.s:1328   .text.trap_from_machine_mode:0000000000000118 .LFE26
     /tmp/ccut0Zoi.s:88120  .debug_str:00000000000027c8 .LASF9333
     /tmp/ccut0Zoi.s:94352  .debug_str:000000000001c0e8 .LASF9334
     /tmp/ccut0Zoi.s:98000  .debug_str:000000000002afca .LASF9335
     /tmp/ccut0Zoi.s:96384  .debug_str:000000000002468e .LASF9336
     /tmp/ccut0Zoi.s:1191   .text.trap_from_machine_mode:0000000000000014 .LBB6
     /tmp/ccut0Zoi.s:1200   .text.trap_from_machine_mode:0000000000000020 .LBE6
     /tmp/ccut0Zoi.s:98658  .debug_str:000000000002db8c .LASF9337
     /tmp/ccut0Zoi.s:1296   .text.trap_from_machine_mode:00000000000000e8 .LBB7
     /tmp/ccut0Zoi.s:1316   .text.trap_from_machine_mode:000000000000010e .LBE7
     /tmp/ccut0Zoi.s:95618  .debug_str:00000000000217d5 .LASF9339
     /tmp/ccut0Zoi.s:1114   .text.handle_local_interrupt:0000000000000000 .LFB25
     /tmp/ccut0Zoi.s:1170   .text.handle_local_interrupt:0000000000000058 .LFE25
     /tmp/ccut0Zoi.s:99406  .debug_str:0000000000030d56 .LASF9340
     /tmp/ccut0Zoi.s:90178  .debug_str:000000000000b414 .LASF9341
     /tmp/ccut0Zoi.s:100638  .debug_str:0000000000035dc5 .LASF9342
     /tmp/ccut0Zoi.s:103282  .debug_str:00000000000407af .LASF9343
     /tmp/ccut0Zoi.s:1127   .text.handle_local_interrupt:000000000000000e .LBB5
     /tmp/ccut0Zoi.s:1136   .text.handle_local_interrupt:000000000000001a .LBE5
     /tmp/ccut0Zoi.s:95274  .debug_str:0000000000020177 .LASF9344
     /tmp/ccut0Zoi.s:1039   .text.handle_m_ext_interrupt:0000000000000000 .LFB24
     /tmp/ccut0Zoi.s:1107   .text.handle_m_ext_interrupt:000000000000007e .LFE24
     /tmp/ccut0Zoi.s:100050  .debug_str:000000000003378b .LASF9345
     /tmp/ccut0Zoi.s:91100  .debug_str:000000000000eca6 .LASF9346
     /tmp/ccut0Zoi.s:88602  .debug_str:00000000000048e2 .LASF9347
     /tmp/ccut0Zoi.s:542    .text.pmp_trap:0000000000000000 .LFB23
     /tmp/ccut0Zoi.s:558    .text.pmp_trap:0000000000000014 .LFE23
     /tmp/ccut0Zoi.s:103770  .debug_str:000000000004286c .LASF9348
     /tmp/ccut0Zoi.s:519    .text.illegal_insn_trap:0000000000000000 .LFB22
     /tmp/ccut0Zoi.s:535    .text.illegal_insn_trap:0000000000000014 .LFE22
     /tmp/ccut0Zoi.s:88180  .debug_str:0000000000002ba8 .LASF9349
     /tmp/ccut0Zoi.s:496    .text.misaligned_load_trap:0000000000000000 .LFB21
     /tmp/ccut0Zoi.s:512    .text.misaligned_load_trap:0000000000000014 .LFE21
     /tmp/ccut0Zoi.s:106118  .debug_str:000000000004c6fb .LASF9350
     /tmp/ccut0Zoi.s:473    .text.misaligned_store_trap:0000000000000000 .LFB20
     /tmp/ccut0Zoi.s:489    .text.misaligned_store_trap:0000000000000014 .LFE20
     /tmp/ccut0Zoi.s:103906  .debug_str:0000000000043073 .LASF9351
     /tmp/ccut0Zoi.s:449    .text.bad_trap:0000000000000000 .LFB19
     /tmp/ccut0Zoi.s:466    .text.bad_trap:0000000000000014 .LFE19
     /tmp/ccut0Zoi.s:103292  .debug_str:000000000004087a .LASF9359
     /tmp/ccut0Zoi.s:384    .text.PLIC_CompleteIRQ:0000000000000000 .LFB13
     /tmp/ccut0Zoi.s:442    .text.PLIC_CompleteIRQ:000000000000005a .LFE13
     /tmp/ccut0Zoi.s:101340  .debug_str:00000000000384a9 .LASF9352
     /tmp/ccut0Zoi.s:93760  .debug_str:00000000000197cf .LASF9353
     /tmp/ccut0Zoi.s:395    .text.PLIC_CompleteIRQ:000000000000000c .LBB4
     /tmp/ccut0Zoi.s:404    .text.PLIC_CompleteIRQ:0000000000000018 .LBE4
     /tmp/ccut0Zoi.s:98600  .debug_str:000000000002d6e4 .LASF9360
     /tmp/ccut0Zoi.s:334    .text.PLIC_ClaimIRQ:0000000000000000 .LFB12
     /tmp/ccut0Zoi.s:378    .text.PLIC_ClaimIRQ:0000000000000040 .LFE12
     /tmp/ccut0Zoi.s:343    .text.PLIC_ClaimIRQ:0000000000000006 .LBB3
     /tmp/ccut0Zoi.s:352    .text.PLIC_ClaimIRQ:0000000000000012 .LBE3
     /tmp/ccut0Zoi.s:105770  .debug_str:000000000004af64 .LASF9361
     /tmp/ccut0Zoi.s:13     .text.PLIC_DisableIRQ:0000000000000000 .LFB8
     /tmp/ccut0Zoi.s:328    .text.PLIC_DisableIRQ:000000000000028e .LFE8
     /tmp/ccut0Zoi.s:105602  .debug_str:000000000004a1e2 .LASF9354
     /tmp/ccut0Zoi.s:102242  .debug_str:000000000003c269 .LASF9355
     /tmp/ccut0Zoi.s:25     .text.PLIC_DisableIRQ:000000000000000c .LBB2
     /tmp/ccut0Zoi.s:34     .text.PLIC_DisableIRQ:0000000000000018 .LBE2
     /tmp/ccut0Zoi.s:1340   .debug_info:0000000000000000 .Ldebug_info0
     /tmp/ccut0Zoi.s:70310  .debug_macro:0000000000000000 .Ldebug_macro2
     /tmp/ccut0Zoi.s:97176  .debug_str:0000000000027af8 .LASF324
     /tmp/ccut0Zoi.s:71287  .debug_macro:0000000000000000 .Ldebug_macro3
     /tmp/ccut0Zoi.s:71451  .debug_macro:0000000000000000 .Ldebug_macro4
     /tmp/ccut0Zoi.s:93872  .debug_str:000000000001a029 .LASF383
     /tmp/ccut0Zoi.s:102672  .debug_str:000000000003ddef .LASF384
     /tmp/ccut0Zoi.s:100356  .debug_str:0000000000034cce .LASF385
     /tmp/ccut0Zoi.s:71471  .debug_macro:0000000000000000 .Ldebug_macro5
     /tmp/ccut0Zoi.s:71491  .debug_macro:0000000000000000 .Ldebug_macro6
     /tmp/ccut0Zoi.s:71556  .debug_macro:0000000000000000 .Ldebug_macro7
     /tmp/ccut0Zoi.s:71597  .debug_macro:0000000000000000 .Ldebug_macro8
     /tmp/ccut0Zoi.s:71719  .debug_macro:0000000000000000 .Ldebug_macro9
     /tmp/ccut0Zoi.s:71775  .debug_macro:0000000000000000 .Ldebug_macro10
     /tmp/ccut0Zoi.s:93498  .debug_str:0000000000018581 .LASF539
     /tmp/ccut0Zoi.s:71987  .debug_macro:0000000000000000 .Ldebug_macro11
     /tmp/ccut0Zoi.s:71998  .debug_macro:0000000000000000 .Ldebug_macro12
     /tmp/ccut0Zoi.s:73797  .debug_macro:0000000000000000 .Ldebug_macro13
     /tmp/ccut0Zoi.s:94568  .debug_str:000000000001d036 .LASF1162
     /tmp/ccut0Zoi.s:73868  .debug_macro:0000000000000000 .Ldebug_macro14
     /tmp/ccut0Zoi.s:102582  .debug_str:000000000003d852 .LASF3353
     /tmp/ccut0Zoi.s:80443  .debug_macro:0000000000000000 .Ldebug_macro15
     /tmp/ccut0Zoi.s:80460  .debug_macro:0000000000000000 .Ldebug_macro16
     /tmp/ccut0Zoi.s:80483  .debug_macro:0000000000000000 .Ldebug_macro17
     /tmp/ccut0Zoi.s:80500  .debug_macro:0000000000000000 .Ldebug_macro18
     /tmp/ccut0Zoi.s:80529  .debug_macro:0000000000000000 .Ldebug_macro19
     /tmp/ccut0Zoi.s:80588  .debug_macro:0000000000000000 .Ldebug_macro20
     /tmp/ccut0Zoi.s:80611  .debug_macro:0000000000000000 .Ldebug_macro21
     /tmp/ccut0Zoi.s:80670  .debug_macro:0000000000000000 .Ldebug_macro22
     /tmp/ccut0Zoi.s:83429  .debug_macro:0000000000000000 .Ldebug_macro23
     /tmp/ccut0Zoi.s:83473  .debug_macro:0000000000000000 .Ldebug_macro24
     /tmp/ccut0Zoi.s:83559  .debug_macro:0000000000000000 .Ldebug_macro25
     /tmp/ccut0Zoi.s:83588  .debug_macro:0000000000000000 .Ldebug_macro26
     /tmp/ccut0Zoi.s:83647  .debug_macro:0000000000000000 .Ldebug_macro27
     /tmp/ccut0Zoi.s:83709  .debug_macro:0000000000000000 .Ldebug_macro28
     /tmp/ccut0Zoi.s:83771  .debug_macro:0000000000000000 .Ldebug_macro29
     /tmp/ccut0Zoi.s:83833  .debug_macro:0000000000000000 .Ldebug_macro30
     /tmp/ccut0Zoi.s:83895  .debug_macro:0000000000000000 .Ldebug_macro31
     /tmp/ccut0Zoi.s:83957  .debug_macro:0000000000000000 .Ldebug_macro32
     /tmp/ccut0Zoi.s:84013  .debug_macro:0000000000000000 .Ldebug_macro33
     /tmp/ccut0Zoi.s:84069  .debug_macro:0000000000000000 .Ldebug_macro34
     /tmp/ccut0Zoi.s:84101  .debug_macro:0000000000000000 .Ldebug_macro35
     /tmp/ccut0Zoi.s:84121  .debug_macro:0000000000000000 .Ldebug_macro36
     /tmp/ccut0Zoi.s:84153  .debug_macro:0000000000000000 .Ldebug_macro37
     /tmp/ccut0Zoi.s:84185  .debug_macro:0000000000000000 .Ldebug_macro38
     /tmp/ccut0Zoi.s:84205  .debug_macro:0000000000000000 .Ldebug_macro39
     /tmp/ccut0Zoi.s:84225  .debug_macro:0000000000000000 .Ldebug_macro40
     /tmp/ccut0Zoi.s:84257  .debug_macro:0000000000000000 .Ldebug_macro41
     /tmp/ccut0Zoi.s:84271  .debug_macro:0000000000000000 .Ldebug_macro42
     /tmp/ccut0Zoi.s:84372  .debug_macro:0000000000000000 .Ldebug_macro43
     /tmp/ccut0Zoi.s:84389  .debug_macro:0000000000000000 .Ldebug_macro44
     /tmp/ccut0Zoi.s:84427  .debug_macro:0000000000000000 .Ldebug_macro45
     /tmp/ccut0Zoi.s:84450  .debug_macro:0000000000000000 .Ldebug_macro46
     /tmp/ccut0Zoi.s:84578  .debug_macro:0000000000000000 .Ldebug_macro47
     /tmp/ccut0Zoi.s:84592  .debug_macro:0000000000000000 .Ldebug_macro48
     /tmp/ccut0Zoi.s:84606  .debug_macro:0000000000000000 .Ldebug_macro49
     /tmp/ccut0Zoi.s:84662  .debug_macro:0000000000000000 .Ldebug_macro50
     /tmp/ccut0Zoi.s:85777  .debug_macro:0000000000000000 .Ldebug_macro51
     /tmp/ccut0Zoi.s:85809  .debug_macro:0000000000000000 .Ldebug_macro52
     /tmp/ccut0Zoi.s:85829  .debug_macro:0000000000000000 .Ldebug_macro53
     /tmp/ccut0Zoi.s:85873  .debug_macro:0000000000000000 .Ldebug_macro54
     /tmp/ccut0Zoi.s:85920  .debug_macro:0000000000000000 .Ldebug_macro55
     /tmp/ccut0Zoi.s:85967  .debug_macro:0000000000000000 .Ldebug_macro56
     /tmp/ccut0Zoi.s:86002  .debug_macro:0000000000000000 .Ldebug_macro57
     /tmp/ccut0Zoi.s:86025  .debug_macro:0000000000000000 .Ldebug_macro58
     /tmp/ccut0Zoi.s:87652  .debug_str:0000000000000704 .LASF5147
     /tmp/ccut0Zoi.s:86042  .debug_macro:0000000000000000 .Ldebug_macro59
     /tmp/ccut0Zoi.s:104678  .debug_str:0000000000046314 .LASF5302
     /tmp/ccut0Zoi.s:86509  .debug_macro:0000000000000000 .Ldebug_macro60
     /tmp/ccut0Zoi.s:86526  .debug_macro:0000000000000000 .Ldebug_macro61
     /tmp/ccut0Zoi.s:86540  .debug_macro:0000000000000000 .Ldebug_macro62
     /tmp/ccut0Zoi.s:86857  .debug_macro:0000000000000000 .Ldebug_macro63
     /tmp/ccut0Zoi.s:86877  .debug_macro:0000000000000000 .Ldebug_macro64
     /tmp/ccut0Zoi.s:98330  .debug_str:000000000002c484 .LASF5458
     /tmp/ccut0Zoi.s:86999  .debug_macro:0000000000000000 .Ldebug_macro65
     /tmp/ccut0Zoi.s:87061  .debug_macro:0000000000000000 .Ldebug_macro66
     /tmp/ccut0Zoi.s:97016  .debug_str:0000000000026f27 .LASF5480
     /tmp/ccut0Zoi.s:87072  .debug_macro:0000000000000000 .Ldebug_macro67
     /tmp/ccut0Zoi.s:87101  .debug_macro:0000000000000000 .Ldebug_macro68
     /tmp/ccut0Zoi.s:101442  .debug_str:0000000000038bd9 .LASF5505
     /tmp/ccut0Zoi.s:87154  .debug_macro:0000000000000000 .Ldebug_macro69
     /tmp/ccut0Zoi.s:105446  .debug_str:000000000004972b .LASF5525
     /tmp/ccut0Zoi.s:87216  .debug_macro:0000000000000000 .Ldebug_macro70
     /tmp/ccut0Zoi.s:87284  .debug_macro:0000000000000000 .Ldebug_macro71
     /tmp/ccut0Zoi.s:87307  .debug_macro:0000000000000000 .Ldebug_macro72
     /tmp/ccut0Zoi.s:87387  .debug_macro:0000000000000000 .Ldebug_macro73
     /tmp/ccut0Zoi.s:87518  .debug_macro:0000000000000000 .Ldebug_macro74
     /tmp/ccut0Zoi.s:87538  .debug_macro:0000000000000000 .Ldebug_macro75
     /tmp/ccut0Zoi.s:104662  .debug_str:00000000000461d6 .LASF5628
     /tmp/ccut0Zoi.s:92238  .debug_str:0000000000013536 .LASF0
     /tmp/ccut0Zoi.s:98848  .debug_str:000000000002e822 .LASF1
     /tmp/ccut0Zoi.s:96116  .debug_str:00000000000238e0 .LASF2
     /tmp/ccut0Zoi.s:96182  .debug_str:0000000000023c86 .LASF3
     /tmp/ccut0Zoi.s:90806  .debug_str:000000000000dd4e .LASF4
     /tmp/ccut0Zoi.s:90986  .debug_str:000000000000e62c .LASF5
     /tmp/ccut0Zoi.s:101372  .debug_str:00000000000386d3 .LASF6
     /tmp/ccut0Zoi.s:89748  .debug_str:000000000000969f .LASF7
     /tmp/ccut0Zoi.s:88124  .debug_str:000000000000280f .LASF8
     /tmp/ccut0Zoi.s:87818  .debug_str:000000000000122a .LASF9
     /tmp/ccut0Zoi.s:100904  .debug_str:0000000000036d3b .LASF10
     /tmp/ccut0Zoi.s:104488  .debug_str:00000000000456a7 .LASF11
     /tmp/ccut0Zoi.s:98550  .debug_str:000000000002d3e1 .LASF12
     /tmp/ccut0Zoi.s:94366  .debug_str:000000000001c1e4 .LASF13
     /tmp/ccut0Zoi.s:90554  .debug_str:000000000000cd81 .LASF14
     /tmp/ccut0Zoi.s:89778  .debug_str:000000000000984d .LASF15
     /tmp/ccut0Zoi.s:103592  .debug_str:0000000000041cf7 .LASF16
     /tmp/ccut0Zoi.s:101990  .debug_str:000000000003b116 .LASF17
     /tmp/ccut0Zoi.s:93344  .debug_str:0000000000017c73 .LASF18
     /tmp/ccut0Zoi.s:104442  .debug_str:00000000000453cd .LASF19
     /tmp/ccut0Zoi.s:104182  .debug_str:000000000004425d .LASF20
     /tmp/ccut0Zoi.s:95464  .debug_str:0000000000020dfa .LASF21
     /tmp/ccut0Zoi.s:89110  .debug_str:0000000000006c11 .LASF22
     /tmp/ccut0Zoi.s:90922  .debug_str:000000000000e3b8 .LASF23
     /tmp/ccut0Zoi.s:102992  .debug_str:000000000003f46b .LASF24
     /tmp/ccut0Zoi.s:101298  .debug_str:00000000000381d9 .LASF25
     /tmp/ccut0Zoi.s:90458  .debug_str:000000000000c6de .LASF26
     /tmp/ccut0Zoi.s:89512  .debug_str:00000000000085f4 .LASF27
     /tmp/ccut0Zoi.s:102872  .debug_str:000000000003ec4f .LASF28
     /tmp/ccut0Zoi.s:101182  .debug_str:0000000000037a9c .LASF29
     /tmp/ccut0Zoi.s:93058  .debug_str:000000000001692e .LASF30
     /tmp/ccut0Zoi.s:100296  .debug_str:0000000000034844 .LASF31
     /tmp/ccut0Zoi.s:94022  .debug_str:000000000001a99b .LASF32
     /tmp/ccut0Zoi.s:98002  .debug_str:000000000002afcf .LASF33
     /tmp/ccut0Zoi.s:97684  .debug_str:0000000000029aa7 .LASF34
     /tmp/ccut0Zoi.s:90288  .debug_str:000000000000bb7e .LASF35
     /tmp/ccut0Zoi.s:92462  .debug_str:000000000001423c .LASF36
     /tmp/ccut0Zoi.s:96904  .debug_str:00000000000267e8 .LASF37
     /tmp/ccut0Zoi.s:106160  .debug_str:000000000004c9fa .LASF38
     /tmp/ccut0Zoi.s:94474  .debug_str:000000000001c92e .LASF39
     /tmp/ccut0Zoi.s:97098  .debug_str:000000000002750a .LASF40
     /tmp/ccut0Zoi.s:92424  .debug_str:0000000000014077 .LASF41
     /tmp/ccut0Zoi.s:88980  .debug_str:0000000000006254 .LASF42
     /tmp/ccut0Zoi.s:101786  .debug_str:000000000003a39b .LASF43
     /tmp/ccut0Zoi.s:88278  .debug_str:00000000000032ef .LASF44
     /tmp/ccut0Zoi.s:102742  .debug_str:000000000003e28e .LASF45
     /tmp/ccut0Zoi.s:88950  .debug_str:0000000000006059 .LASF46
     /tmp/ccut0Zoi.s:101294  .debug_str:00000000000381a2 .LASF47
     /tmp/ccut0Zoi.s:98288  .debug_str:000000000002c1df .LASF48
     /tmp/ccut0Zoi.s:94616  .debug_str:000000000001d3ae .LASF49
     /tmp/ccut0Zoi.s:90294  .debug_str:000000000000bbd5 .LASF50
     /tmp/ccut0Zoi.s:89168  .debug_str:0000000000007001 .LASF51
     /tmp/ccut0Zoi.s:93436  .debug_str:0000000000018134 .LASF52
     /tmp/ccut0Zoi.s:100040  .debug_str:00000000000336dd .LASF53
     /tmp/ccut0Zoi.s:87968  .debug_str:0000000000001c9a .LASF54
     /tmp/ccut0Zoi.s:90416  .debug_str:000000000000c43e .LASF55
     /tmp/ccut0Zoi.s:104180  .debug_str:0000000000044234 .LASF56
     /tmp/ccut0Zoi.s:102634  .debug_str:000000000003db7f .LASF57
     /tmp/ccut0Zoi.s:105318  .debug_str:0000000000048eb9 .LASF58
     /tmp/ccut0Zoi.s:103810  .debug_str:0000000000042aed .LASF59
     /tmp/ccut0Zoi.s:98252  .debug_str:000000000002bf25 .LASF60
     /tmp/ccut0Zoi.s:103874  .debug_str:0000000000042ed5 .LASF61
     /tmp/ccut0Zoi.s:97218  .debug_str:0000000000027d63 .LASF62
     /tmp/ccut0Zoi.s:102534  .debug_str:000000000003d575 .LASF63
     /tmp/ccut0Zoi.s:96582  .debug_str:0000000000025233 .LASF64
     /tmp/ccut0Zoi.s:97904  .debug_str:000000000002a942 .LASF65
     /tmp/ccut0Zoi.s:99240  .debug_str:000000000003017e .LASF66
     /tmp/ccut0Zoi.s:94666  .debug_str:000000000001d71f .LASF67
     /tmp/ccut0Zoi.s:103938  .debug_str:0000000000043280 .LASF68
     /tmp/ccut0Zoi.s:101678  .debug_str:0000000000039b9b .LASF69
     /tmp/ccut0Zoi.s:106162  .debug_str:000000000004ca13 .LASF70
     /tmp/ccut0Zoi.s:92970  .debug_str:0000000000016334 .LASF71
     /tmp/ccut0Zoi.s:88072  .debug_str:00000000000023e5 .LASF72
     /tmp/ccut0Zoi.s:104394  .debug_str:0000000000045054 .LASF73
     /tmp/ccut0Zoi.s:96482  .debug_str:0000000000024bcb .LASF74
     /tmp/ccut0Zoi.s:93016  .debug_str:00000000000165f3 .LASF75
     /tmp/ccut0Zoi.s:95820  .debug_str:0000000000022530 .LASF76
     /tmp/ccut0Zoi.s:89554  .debug_str:0000000000008900 .LASF77
     /tmp/ccut0Zoi.s:99450  .debug_str:0000000000031082 .LASF78
     /tmp/ccut0Zoi.s:97584  .debug_str:0000000000029469 .LASF79
     /tmp/ccut0Zoi.s:99004  .debug_str:000000000002f2c0 .LASF80
     /tmp/ccut0Zoi.s:92212  .debug_str:000000000001333d .LASF81
     /tmp/ccut0Zoi.s:89726  .debug_str:00000000000094e6 .LASF82
     /tmp/ccut0Zoi.s:89756  .debug_str:000000000000971b .LASF83
     /tmp/ccut0Zoi.s:91422  .debug_str:000000000000ff5a .LASF84
     /tmp/ccut0Zoi.s:97948  .debug_str:000000000002ac09 .LASF85
     /tmp/ccut0Zoi.s:88516  .debug_str:000000000000431d .LASF86
     /tmp/ccut0Zoi.s:96162  .debug_str:0000000000023b4a .LASF87
     /tmp/ccut0Zoi.s:104760  .debug_str:000000000004692b .LASF88
     /tmp/ccut0Zoi.s:89044  .debug_str:0000000000006733 .LASF89
     /tmp/ccut0Zoi.s:96830  .debug_str:00000000000262ef .LASF90
     /tmp/ccut0Zoi.s:93686  .debug_str:000000000001922d .LASF91
     /tmp/ccut0Zoi.s:95834  .debug_str:000000000002266f .LASF92
     /tmp/ccut0Zoi.s:104780  .debug_str:0000000000046a4f .LASF93
     /tmp/ccut0Zoi.s:105204  .debug_str:00000000000486de .LASF94
     /tmp/ccut0Zoi.s:99290  .debug_str:00000000000304a3 .LASF95
     /tmp/ccut0Zoi.s:95422  .debug_str:0000000000020c13 .LASF96
     /tmp/ccut0Zoi.s:90812  .debug_str:000000000000dd83 .LASF97
     /tmp/ccut0Zoi.s:99446  .debug_str:0000000000031047 .LASF98
     /tmp/ccut0Zoi.s:101420  .debug_str:0000000000038a65 .LASF99
     /tmp/ccut0Zoi.s:100844  .debug_str:0000000000036932 .LASF100
     /tmp/ccut0Zoi.s:88246  .debug_str:00000000000030b7 .LASF101
     /tmp/ccut0Zoi.s:98108  .debug_str:000000000002b68e .LASF102
     /tmp/ccut0Zoi.s:90468  .debug_str:000000000000c796 .LASF103
     /tmp/ccut0Zoi.s:97984  .debug_str:000000000002af11 .LASF104
     /tmp/ccut0Zoi.s:96040  .debug_str:000000000002346e .LASF105
     /tmp/ccut0Zoi.s:97792  .debug_str:000000000002a213 .LASF106
     /tmp/ccut0Zoi.s:88620  .debug_str:0000000000004a58 .LASF107
     /tmp/ccut0Zoi.s:100486  .debug_str:000000000003549e .LASF108
     /tmp/ccut0Zoi.s:98950  .debug_str:000000000002ef4f .LASF109
     /tmp/ccut0Zoi.s:101290  .debug_str:0000000000038178 .LASF110
     /tmp/ccut0Zoi.s:90620  .debug_str:000000000000d1e7 .LASF111
     /tmp/ccut0Zoi.s:101242  .debug_str:0000000000037dae .LASF112
     /tmp/ccut0Zoi.s:87720  .debug_str:0000000000000b84 .LASF113
     /tmp/ccut0Zoi.s:103150  .debug_str:000000000003ffb3 .LASF114
     /tmp/ccut0Zoi.s:104562  .debug_str:0000000000045b32 .LASF115
     /tmp/ccut0Zoi.s:96382  .debug_str:0000000000024675 .LASF116
     /tmp/ccut0Zoi.s:91982  .debug_str:000000000001240c .LASF117
     /tmp/ccut0Zoi.s:92532  .debug_str:00000000000146c7 .LASF118
     /tmp/ccut0Zoi.s:100480  .debug_str:0000000000035451 .LASF119
     /tmp/ccut0Zoi.s:98292  .debug_str:000000000002c213 .LASF120
     /tmp/ccut0Zoi.s:91352  .debug_str:000000000000fb87 .LASF121
     /tmp/ccut0Zoi.s:92762  .debug_str:000000000001558d .LASF122
     /tmp/ccut0Zoi.s:91550  .debug_str:00000000000106dd .LASF123
     /tmp/ccut0Zoi.s:93642  .debug_str:0000000000018f61 .LASF124
     /tmp/ccut0Zoi.s:100980  .debug_str:00000000000370a5 .LASF125
     /tmp/ccut0Zoi.s:102530  .debug_str:000000000003d535 .LASF126
     /tmp/ccut0Zoi.s:102170  .debug_str:000000000003bde9 .LASF127
     /tmp/ccut0Zoi.s:101414  .debug_str:00000000000389e6 .LASF128
     /tmp/ccut0Zoi.s:97412  .debug_str:00000000000289a9 .LASF129
     /tmp/ccut0Zoi.s:102052  .debug_str:000000000003b56b .LASF130
     /tmp/ccut0Zoi.s:91722  .debug_str:000000000001125d .LASF131
     /tmp/ccut0Zoi.s:95578  .debug_str:00000000000214d3 .LASF132
     /tmp/ccut0Zoi.s:97482  .debug_str:0000000000028e92 .LASF133
     /tmp/ccut0Zoi.s:92076  .debug_str:0000000000012ac8 .LASF134
     /tmp/ccut0Zoi.s:104318  .debug_str:0000000000044adc .LASF135
     /tmp/ccut0Zoi.s:102358  .debug_str:000000000003c961 .LASF136
     /tmp/ccut0Zoi.s:102528  .debug_str:000000000003d515 .LASF137
     /tmp/ccut0Zoi.s:94536  .debug_str:000000000001cdb9 .LASF138
     /tmp/ccut0Zoi.s:100552  .debug_str:00000000000358c9 .LASF139
     /tmp/ccut0Zoi.s:92660  .debug_str:0000000000014f50 .LASF140
     /tmp/ccut0Zoi.s:105346  .debug_str:00000000000490c1 .LASF141
     /tmp/ccut0Zoi.s:97328  .debug_str:0000000000028439 .LASF142
     /tmp/ccut0Zoi.s:96302  .debug_str:00000000000242d7 .LASF143
     /tmp/ccut0Zoi.s:91778  .debug_str:0000000000011628 .LASF144
     /tmp/ccut0Zoi.s:90390  .debug_str:000000000000c249 .LASF145
     /tmp/ccut0Zoi.s:91366  .debug_str:000000000000fc28 .LASF146
     /tmp/ccut0Zoi.s:92134  .debug_str:0000000000012e5d .LASF147
     /tmp/ccut0Zoi.s:94944  .debug_str:000000000001ea41 .LASF148
     /tmp/ccut0Zoi.s:99002  .debug_str:000000000002f2ac .LASF149
     /tmp/ccut0Zoi.s:102578  .debug_str:000000000003d82b .LASF150
     /tmp/ccut0Zoi.s:93722  .debug_str:00000000000194f5 .LASF151
     /tmp/ccut0Zoi.s:96434  .debug_str:000000000002485f .LASF152
     /tmp/ccut0Zoi.s:89700  .debug_str:000000000000931a .LASF153
     /tmp/ccut0Zoi.s:102984  .debug_str:000000000003f412 .LASF154
     /tmp/ccut0Zoi.s:92104  .debug_str:0000000000012cf7 .LASF155
     /tmp/ccut0Zoi.s:104372  .debug_str:0000000000044e97 .LASF156
     /tmp/ccut0Zoi.s:98122  .debug_str:000000000002b72f .LASF157
     /tmp/ccut0Zoi.s:88792  .debug_str:000000000000565b .LASF158
     /tmp/ccut0Zoi.s:89040  .debug_str:00000000000066b1 .LASF159
     /tmp/ccut0Zoi.s:105614  .debug_str:000000000004a28d .LASF160
     /tmp/ccut0Zoi.s:102784  .debug_str:000000000003e5f1 .LASF161
     /tmp/ccut0Zoi.s:98442  .debug_str:000000000002cc0f .LASF162
     /tmp/ccut0Zoi.s:91844  .debug_str:0000000000011b15 .LASF163
     /tmp/ccut0Zoi.s:92670  .debug_str:0000000000014fe9 .LASF164
     /tmp/ccut0Zoi.s:104880  .debug_str:000000000004707e .LASF165
     /tmp/ccut0Zoi.s:99296  .debug_str:0000000000030518 .LASF166
     /tmp/ccut0Zoi.s:91926  .debug_str:0000000000012048 .LASF167
     /tmp/ccut0Zoi.s:88062  .debug_str:0000000000002323 .LASF168
     /tmp/ccut0Zoi.s:98344  .debug_str:000000000002c577 .LASF169
     /tmp/ccut0Zoi.s:101504  .debug_str:0000000000038faa .LASF170
     /tmp/ccut0Zoi.s:99986  .debug_str:00000000000332f3 .LASF171
     /tmp/ccut0Zoi.s:98788  .debug_str:000000000002e3f7 .LASF172
     /tmp/ccut0Zoi.s:90032  .debug_str:000000000000a8fc .LASF173
     /tmp/ccut0Zoi.s:101686  .debug_str:0000000000039c2c .LASF174
     /tmp/ccut0Zoi.s:99236  .debug_str:000000000003014f .LASF175
     /tmp/ccut0Zoi.s:92142  .debug_str:0000000000012ee7 .LASF176
     /tmp/ccut0Zoi.s:92068  .debug_str:0000000000012a5b .LASF177
     /tmp/ccut0Zoi.s:100814  .debug_str:000000000003684b .LASF178
     /tmp/ccut0Zoi.s:98244  .debug_str:000000000002be9f .LASF179
     /tmp/ccut0Zoi.s:100014  .debug_str:0000000000033517 .LASF180
     /tmp/ccut0Zoi.s:92178  .debug_str:0000000000013111 .LASF181
     /tmp/ccut0Zoi.s:105260  .debug_str:0000000000048a9c .LASF182
     /tmp/ccut0Zoi.s:89776  .debug_str:0000000000009836 .LASF183
     /tmp/ccut0Zoi.s:104492  .debug_str:00000000000456c8 .LASF184
     /tmp/ccut0Zoi.s:95720  .debug_str:0000000000021e5f .LASF185
     /tmp/ccut0Zoi.s:92960  .debug_str:0000000000016285 .LASF186
     /tmp/ccut0Zoi.s:96576  .debug_str:0000000000025194 .LASF187
     /tmp/ccut0Zoi.s:88670  .debug_str:0000000000004da1 .LASF188
     /tmp/ccut0Zoi.s:88550  .debug_str:000000000000450c .LASF189
     /tmp/ccut0Zoi.s:92048  .debug_str:00000000000128ed .LASF190
     /tmp/ccut0Zoi.s:105852  .debug_str:000000000004b4e8 .LASF191
     /tmp/ccut0Zoi.s:102262  .debug_str:000000000003c3d4 .LASF192
     /tmp/ccut0Zoi.s:94850  .debug_str:000000000001e409 .LASF193
     /tmp/ccut0Zoi.s:88554  .debug_str:000000000000455c .LASF194
     /tmp/ccut0Zoi.s:102608  .debug_str:000000000003d9d4 .LASF195
     /tmp/ccut0Zoi.s:104046  .debug_str:0000000000043992 .LASF196
     /tmp/ccut0Zoi.s:95886  .debug_str:0000000000022995 .LASF197
     /tmp/ccut0Zoi.s:87618  .debug_str:0000000000000469 .LASF198
     /tmp/ccut0Zoi.s:88270  .debug_str:0000000000003275 .LASF199
     /tmp/ccut0Zoi.s:103170  .debug_str:00000000000400f8 .LASF200
     /tmp/ccut0Zoi.s:98514  .debug_str:000000000002d14f .LASF201
     /tmp/ccut0Zoi.s:104718  .debug_str:00000000000465f3 .LASF202
     /tmp/ccut0Zoi.s:101188  .debug_str:0000000000037afd .LASF203
     /tmp/ccut0Zoi.s:88734  .debug_str:0000000000005190 .LASF204
     /tmp/ccut0Zoi.s:104688  .debug_str:00000000000463bf .LASF205
     /tmp/ccut0Zoi.s:96028  .debug_str:00000000000233b6 .LASF206
     /tmp/ccut0Zoi.s:103154  .debug_str:0000000000040013 .LASF207
     /tmp/ccut0Zoi.s:99300  .debug_str:0000000000030551 .LASF208
     /tmp/ccut0Zoi.s:97752  .debug_str:0000000000029fde .LASF209
     /tmp/ccut0Zoi.s:93070  .debug_str:0000000000016a23 .LASF210
     /tmp/ccut0Zoi.s:90738  .debug_str:000000000000d8d0 .LASF211
     /tmp/ccut0Zoi.s:105968  .debug_str:000000000004bccd .LASF212
     /tmp/ccut0Zoi.s:103274  .debug_str:000000000004073c .LASF213
     /tmp/ccut0Zoi.s:93138  .debug_str:0000000000016ef7 .LASF214
     /tmp/ccut0Zoi.s:96292  .debug_str:000000000002424b .LASF215
     /tmp/ccut0Zoi.s:94632  .debug_str:000000000001d4b0 .LASF216
     /tmp/ccut0Zoi.s:92916  .debug_str:0000000000015fbf .LASF217
     /tmp/ccut0Zoi.s:94396  .debug_str:000000000001c3d9 .LASF218
     /tmp/ccut0Zoi.s:88868  .debug_str:0000000000005b49 .LASF219
     /tmp/ccut0Zoi.s:95684  .debug_str:0000000000021c85 .LASF220
     /tmp/ccut0Zoi.s:105766  .debug_str:000000000004af19 .LASF221
     /tmp/ccut0Zoi.s:102206  .debug_str:000000000003c046 .LASF222
     /tmp/ccut0Zoi.s:92326  .debug_str:0000000000013a9a .LASF223
     /tmp/ccut0Zoi.s:103732  .debug_str:000000000004261a .LASF224
     /tmp/ccut0Zoi.s:105488  .debug_str:0000000000049a08 .LASF225
     /tmp/ccut0Zoi.s:93698  .debug_str:0000000000019336 .LASF226
     /tmp/ccut0Zoi.s:102130  .debug_str:000000000003bb38 .LASF227
     /tmp/ccut0Zoi.s:93786  .debug_str:000000000001996c .LASF228
     /tmp/ccut0Zoi.s:100842  .debug_str:0000000000036917 .LASF229
     /tmp/ccut0Zoi.s:89764  .debug_str:0000000000009781 .LASF230
     /tmp/ccut0Zoi.s:90038  .debug_str:000000000000a981 .LASF231
     /tmp/ccut0Zoi.s:93818  .debug_str:0000000000019c25 .LASF232
     /tmp/ccut0Zoi.s:91570  .debug_str:0000000000010832 .LASF233
     /tmp/ccut0Zoi.s:88802  .debug_str:0000000000005712 .LASF234
     /tmp/ccut0Zoi.s:101810  .debug_str:000000000003a568 .LASF235
     /tmp/ccut0Zoi.s:99058  .debug_str:000000000002f611 .LASF236
     /tmp/ccut0Zoi.s:91262  .debug_str:000000000000f69f .LASF237
     /tmp/ccut0Zoi.s:90920  .debug_str:000000000000e3a1 .LASF238
     /tmp/ccut0Zoi.s:105152  .debug_str:000000000004830b .LASF239
     /tmp/ccut0Zoi.s:93242  .debug_str:0000000000017547 .LASF240
     /tmp/ccut0Zoi.s:94502  .debug_str:000000000001cb81 .LASF241
     /tmp/ccut0Zoi.s:89008  .debug_str:0000000000006447 .LASF242
     /tmp/ccut0Zoi.s:92128  .debug_str:0000000000012e1a .LASF243
     /tmp/ccut0Zoi.s:103884  .debug_str:0000000000042f3f .LASF244
     /tmp/ccut0Zoi.s:100184  .debug_str:00000000000340e8 .LASF245
     /tmp/ccut0Zoi.s:93224  .debug_str:0000000000017434 .LASF246
     /tmp/ccut0Zoi.s:102940  .debug_str:000000000003f146 .LASF247
     /tmp/ccut0Zoi.s:95822  .debug_str:0000000000022557 .LASF248
     /tmp/ccut0Zoi.s:100180  .debug_str:00000000000340bd .LASF249
     /tmp/ccut0Zoi.s:94580  .debug_str:000000000001d0ee .LASF250
     /tmp/ccut0Zoi.s:104770  .debug_str:00000000000469da .LASF251
     /tmp/ccut0Zoi.s:94008  .debug_str:000000000001a8c5 .LASF252
     /tmp/ccut0Zoi.s:100704  .debug_str:000000000003619a .LASF253
     /tmp/ccut0Zoi.s:88866  .debug_str:0000000000005b37 .LASF254
     /tmp/ccut0Zoi.s:101714  .debug_str:0000000000039e56 .LASF255
     /tmp/ccut0Zoi.s:89080  .debug_str:00000000000069a2 .LASF256
     /tmp/ccut0Zoi.s:89352  .debug_str:0000000000007b19 .LASF257
     /tmp/ccut0Zoi.s:105074  .debug_str:0000000000047d4d .LASF258
     /tmp/ccut0Zoi.s:103020  .debug_str:000000000003f651 .LASF259
     /tmp/ccut0Zoi.s:91122  .debug_str:000000000000ee25 .LASF260
     /tmp/ccut0Zoi.s:94678  .debug_str:000000000001d7e2 .LASF261
     /tmp/ccut0Zoi.s:104150  .debug_str:0000000000043f82 .LASF262
     /tmp/ccut0Zoi.s:101888  .debug_str:000000000003aa9f .LASF263
     /tmp/ccut0Zoi.s:97934  .debug_str:000000000002ab37 .LASF264
     /tmp/ccut0Zoi.s:90264  .debug_str:000000000000b9e7 .LASF265
     /tmp/ccut0Zoi.s:95656  .debug_str:0000000000021a4f .LASF266
     /tmp/ccut0Zoi.s:98408  .debug_str:000000000002ca11 .LASF267
     /tmp/ccut0Zoi.s:94962  .debug_str:000000000001eb60 .LASF268
     /tmp/ccut0Zoi.s:100766  .debug_str:00000000000364fc .LASF269
     /tmp/ccut0Zoi.s:99326  .debug_str:000000000003075f .LASF270
     /tmp/ccut0Zoi.s:91096  .debug_str:000000000000ec6b .LASF271
     /tmp/ccut0Zoi.s:105250  .debug_str:0000000000048a10 .LASF272
     /tmp/ccut0Zoi.s:92236  .debug_str:000000000001350f .LASF273
     /tmp/ccut0Zoi.s:94596  .debug_str:000000000001d219 .LASF274
     /tmp/ccut0Zoi.s:101214  .debug_str:0000000000037c61 .LASF275
     /tmp/ccut0Zoi.s:96826  .debug_str:000000000002629b .LASF276
     /tmp/ccut0Zoi.s:87702  .debug_str:0000000000000a86 .LASF277
     /tmp/ccut0Zoi.s:100524  .debug_str:00000000000356ba .LASF278
     /tmp/ccut0Zoi.s:99416  .debug_str:0000000000030de5 .LASF279
     /tmp/ccut0Zoi.s:105374  .debug_str:0000000000049265 .LASF280
     /tmp/ccut0Zoi.s:97666  .debug_str:00000000000299b7 .LASF281
     /tmp/ccut0Zoi.s:102724  .debug_str:000000000003e125 .LASF282
     /tmp/ccut0Zoi.s:87926  .debug_str:0000000000001984 .LASF283
     /tmp/ccut0Zoi.s:106266  .debug_str:000000000004d12b .LASF284
     /tmp/ccut0Zoi.s:99432  .debug_str:0000000000030f1d .LASF285
     /tmp/ccut0Zoi.s:99230  .debug_str:0000000000030105 .LASF286
     /tmp/ccut0Zoi.s:92910  .debug_str:0000000000015f1f .LASF287
     /tmp/ccut0Zoi.s:105964  .debug_str:000000000004bc9f .LASF288
     /tmp/ccut0Zoi.s:104686  .debug_str:00000000000463a8 .LASF289
     /tmp/ccut0Zoi.s:93158  .debug_str:0000000000017099 .LASF290
     /tmp/ccut0Zoi.s:89702  .debug_str:000000000000932e .LASF291
     /tmp/ccut0Zoi.s:101864  .debug_str:000000000003a8d0 .LASF292
     /tmp/ccut0Zoi.s:103606  .debug_str:0000000000041dcd .LASF293
     /tmp/ccut0Zoi.s:100614  .debug_str:0000000000035c2d .LASF294
     /tmp/ccut0Zoi.s:89262  .debug_str:00000000000075c9 .LASF295
     /tmp/ccut0Zoi.s:97318  .debug_str:000000000002837c .LASF296
     /tmp/ccut0Zoi.s:95018  .debug_str:000000000001f00d .LASF297
     /tmp/ccut0Zoi.s:102648  .debug_str:000000000003dc45 .LASF298
     /tmp/ccut0Zoi.s:90108  .debug_str:000000000000aede .LASF299
     /tmp/ccut0Zoi.s:102818  .debug_str:000000000003e85f .LASF300
     /tmp/ccut0Zoi.s:92636  .debug_str:0000000000014dc7 .LASF301
     /tmp/ccut0Zoi.s:102760  .debug_str:000000000003e3bd .LASF302
     /tmp/ccut0Zoi.s:91170  .debug_str:000000000000f0ba .LASF303
     /tmp/ccut0Zoi.s:96664  .debug_str:0000000000025828 .LASF304
     /tmp/ccut0Zoi.s:101334  .debug_str:0000000000038434 .LASF305
     /tmp/ccut0Zoi.s:99470  .debug_str:00000000000311bd .LASF306
     /tmp/ccut0Zoi.s:95848  .debug_str:0000000000022768 .LASF307
     /tmp/ccut0Zoi.s:104712  .debug_str:0000000000046591 .LASF308
     /tmp/ccut0Zoi.s:104724  .debug_str:0000000000046681 .LASF309
     /tmp/ccut0Zoi.s:98904  .debug_str:000000000002ebc9 .LASF310
     /tmp/ccut0Zoi.s:89284  .debug_str:0000000000007746 .LASF311
     /tmp/ccut0Zoi.s:87710  .debug_str:0000000000000ad7 .LASF312
     /tmp/ccut0Zoi.s:101208  .debug_str:0000000000037c2e .LASF313
     /tmp/ccut0Zoi.s:99618  .debug_str:0000000000031ba3 .LASF314
     /tmp/ccut0Zoi.s:100462  .debug_str:000000000003535c .LASF315
     /tmp/ccut0Zoi.s:87784  .debug_str:0000000000000fbe .LASF316
     /tmp/ccut0Zoi.s:94518  .debug_str:000000000001cc92 .LASF317
     /tmp/ccut0Zoi.s:95690  .debug_str:0000000000021cd1 .LASF318
     /tmp/ccut0Zoi.s:95032  .debug_str:000000000001f146 .LASF319
     /tmp/ccut0Zoi.s:104954  .debug_str:0000000000047564 .LASF320
     /tmp/ccut0Zoi.s:102488  .debug_str:000000000003d214 .LASF321
     /tmp/ccut0Zoi.s:99066  .debug_str:000000000002f6a5 .LASF322
     /tmp/ccut0Zoi.s:92796  .debug_str:00000000000157b4 .LASF323
     /tmp/ccut0Zoi.s:106226  .debug_str:000000000004ce79 .LASF325
     /tmp/ccut0Zoi.s:93532  .debug_str:00000000000187d4 .LASF326
     /tmp/ccut0Zoi.s:96626  .debug_str:000000000002555a .LASF327
     /tmp/ccut0Zoi.s:101912  .debug_str:000000000003ac2e .LASF328
     /tmp/ccut0Zoi.s:89542  .debug_str:0000000000008808 .LASF329
     /tmp/ccut0Zoi.s:104872  .debug_str:000000000004701e .LASF330
     /tmp/ccut0Zoi.s:104340  .debug_str:0000000000044c4c .LASF331
     /tmp/ccut0Zoi.s:94900  .debug_str:000000000001e787 .LASF332
     /tmp/ccut0Zoi.s:92364  .debug_str:0000000000013cb0 .LASF333
     /tmp/ccut0Zoi.s:92534  .debug_str:00000000000146db .LASF334
     /tmp/ccut0Zoi.s:104302  .debug_str:00000000000449c8 .LASF335
     /tmp/ccut0Zoi.s:98022  .debug_str:000000000002b0e3 .LASF336
     /tmp/ccut0Zoi.s:103326  .debug_str:0000000000040ad5 .LASF337
     /tmp/ccut0Zoi.s:101984  .debug_str:000000000003b0cd .LASF338
     /tmp/ccut0Zoi.s:102396  .debug_str:000000000003cc3d .LASF339
     /tmp/ccut0Zoi.s:95920  .debug_str:0000000000022bc9 .LASF340
     /tmp/ccut0Zoi.s:105242  .debug_str:000000000004897f .LASF341
     /tmp/ccut0Zoi.s:102746  .debug_str:000000000003e2bf .LASF342
     /tmp/ccut0Zoi.s:99170  .debug_str:000000000002fd44 .LASF343
     /tmp/ccut0Zoi.s:102100  .debug_str:000000000003b8ad .LASF344
     /tmp/ccut0Zoi.s:90544  .debug_str:000000000000ccd9 .LASF345
     /tmp/ccut0Zoi.s:104766  .debug_str:000000000004698b .LASF346
     /tmp/ccut0Zoi.s:102698  .debug_str:000000000003df5f .LASF347
     /tmp/ccut0Zoi.s:89214  .debug_str:00000000000072c7 .LASF348
     /tmp/ccut0Zoi.s:88138  .debug_str:00000000000028cc .LASF349
     /tmp/ccut0Zoi.s:92040  .debug_str:0000000000012821 .LASF350
     /tmp/ccut0Zoi.s:95082  .debug_str:000000000001f48f .LASF351
     /tmp/ccut0Zoi.s:98866  .debug_str:000000000002e93d .LASF352
     /tmp/ccut0Zoi.s:89474  .debug_str:0000000000008354 .LASF353
     /tmp/ccut0Zoi.s:94368  .debug_str:000000000001c1f7 .LASF354
     /tmp/ccut0Zoi.s:89508  .debug_str:00000000000085cf .LASF355
     /tmp/ccut0Zoi.s:99810  .debug_str:000000000003274e .LASF356
     /tmp/ccut0Zoi.s:97782  .debug_str:000000000002a1d3 .LASF357
     /tmp/ccut0Zoi.s:93170  .debug_str:000000000001717b .LASF358
     /tmp/ccut0Zoi.s:88910  .debug_str:0000000000005e00 .LASF359
     /tmp/ccut0Zoi.s:106240  .debug_str:000000000004cf80 .LASF360
     /tmp/ccut0Zoi.s:104850  .debug_str:0000000000046efb .LASF361
     /tmp/ccut0Zoi.s:100536  .debug_str:00000000000357af .LASF362
     /tmp/ccut0Zoi.s:95570  .debug_str:000000000002146f .LASF363
     /tmp/ccut0Zoi.s:89336  .debug_str:0000000000007a0d .LASF364
     /tmp/ccut0Zoi.s:88444  .debug_str:0000000000003dd1 .LASF365
     /tmp/ccut0Zoi.s:88650  .debug_str:0000000000004c31 .LASF366
     /tmp/ccut0Zoi.s:105258  .debug_str:0000000000048a8a .LASF367
     /tmp/ccut0Zoi.s:97070  .debug_str:0000000000027369 .LASF368
     /tmp/ccut0Zoi.s:103182  .debug_str:00000000000401b0 .LASF369
     /tmp/ccut0Zoi.s:91506  .debug_str:0000000000010449 .LASF370
     /tmp/ccut0Zoi.s:102594  .debug_str:000000000003d918 .LASF371
     /tmp/ccut0Zoi.s:101520  .debug_str:00000000000390cf .LASF372
     /tmp/ccut0Zoi.s:98236  .debug_str:000000000002be01 .LASF373
     /tmp/ccut0Zoi.s:96714  .debug_str:0000000000025b41 .LASF374
     /tmp/ccut0Zoi.s:91258  .debug_str:000000000000f67e .LASF375
     /tmp/ccut0Zoi.s:94164  .debug_str:000000000001b427 .LASF376
     /tmp/ccut0Zoi.s:100186  .debug_str:0000000000034126 .LASF377
     /tmp/ccut0Zoi.s:90772  .debug_str:000000000000db03 .LASF378
     /tmp/ccut0Zoi.s:93544  .debug_str:00000000000188cb .LASF379
     /tmp/ccut0Zoi.s:97670  .debug_str:00000000000299eb .LASF380
     /tmp/ccut0Zoi.s:97308  .debug_str:00000000000282f9 .LASF381
     /tmp/ccut0Zoi.s:105956  .debug_str:000000000004bc1c .LASF382
     /tmp/ccut0Zoi.s:93640  .debug_str:0000000000018f4b .LASF386
     /tmp/ccut0Zoi.s:100332  .debug_str:0000000000034af3 .LASF387
     /tmp/ccut0Zoi.s:97656  .debug_str:000000000002994f .LASF388
     /tmp/ccut0Zoi.s:92332  .debug_str:0000000000013adc .LASF389
     /tmp/ccut0Zoi.s:100986  .debug_str:0000000000037115 .LASF390
     /tmp/ccut0Zoi.s:98228  .debug_str:000000000002bd38 .LASF391
     /tmp/ccut0Zoi.s:88930  .debug_str:0000000000005f1f .LASF392
     /tmp/ccut0Zoi.s:102276  .debug_str:000000000003c4e5 .LASF393
     /tmp/ccut0Zoi.s:87668  .debug_str:0000000000000813 .LASF394
     /tmp/ccut0Zoi.s:92494  .debug_str:0000000000014473 .LASF395
     /tmp/ccut0Zoi.s:94628  .debug_str:000000000001d467 .LASF396
     /tmp/ccut0Zoi.s:94082  .debug_str:000000000001ae50 .LASF397
     /tmp/ccut0Zoi.s:92566  .debug_str:0000000000014918 .LASF398
     /tmp/ccut0Zoi.s:97568  .debug_str:00000000000293a4 .LASF399
     /tmp/ccut0Zoi.s:102472  .debug_str:000000000003d10a .LASF400
     /tmp/ccut0Zoi.s:102886  .debug_str:000000000003ed71 .LASF401
     /tmp/ccut0Zoi.s:101058  .debug_str:0000000000037472 .LASF402
     /tmp/ccut0Zoi.s:92672  .debug_str:0000000000014ffd .LASF403
     /tmp/ccut0Zoi.s:93572  .debug_str:0000000000018aac .LASF404
     /tmp/ccut0Zoi.s:96424  .debug_str:00000000000247fa .LASF405
     /tmp/ccut0Zoi.s:98568  .debug_str:000000000002d4f2 .LASF406
     /tmp/ccut0Zoi.s:90702  .debug_str:000000000000d654 .LASF407
     /tmp/ccut0Zoi.s:94104  .debug_str:000000000001aff9 .LASF408
     /tmp/ccut0Zoi.s:93790  .debug_str:000000000001998d .LASF409
     /tmp/ccut0Zoi.s:90614  .debug_str:000000000000d19b .LASF410
     /tmp/ccut0Zoi.s:93216  .debug_str:00000000000173bd .LASF411
     /tmp/ccut0Zoi.s:103648  .debug_str:00000000000420ac .LASF412
     /tmp/ccut0Zoi.s:91486  .debug_str:00000000000102b5 .LASF413
     /tmp/ccut0Zoi.s:88402  .debug_str:0000000000003adc .LASF414
     /tmp/ccut0Zoi.s:92290  .debug_str:0000000000013838 .LASF415
     /tmp/ccut0Zoi.s:103962  .debug_str:000000000004343b .LASF416
     /tmp/ccut0Zoi.s:93398  .debug_str:0000000000017f3f .LASF417
     /tmp/ccut0Zoi.s:91282  .debug_str:000000000000f7f4 .LASF418
     /tmp/ccut0Zoi.s:98736  .debug_str:000000000002e091 .LASF419
     /tmp/ccut0Zoi.s:101960  .debug_str:000000000003af6a .LASF420
     /tmp/ccut0Zoi.s:99346  .debug_str:000000000003092c .LASF421
     /tmp/ccut0Zoi.s:99234  .debug_str:0000000000030149 .LASF422
     /tmp/ccut0Zoi.s:103746  .debug_str:0000000000042702 .LASF423
     /tmp/ccut0Zoi.s:87912  .debug_str:00000000000018a1 .LASF424
     /tmp/ccut0Zoi.s:100378  .debug_str:0000000000034e16 .LASF425
     /tmp/ccut0Zoi.s:97998  .debug_str:000000000002afc1 .LASF426
     /tmp/ccut0Zoi.s:92416  .debug_str:000000000001400e .LASF427
     /tmp/ccut0Zoi.s:97272  .debug_str:00000000000280be .LASF428
     /tmp/ccut0Zoi.s:106000  .debug_str:000000000004bf2b .LASF429
     /tmp/ccut0Zoi.s:98948  .debug_str:000000000002ef45 .LASF430
     /tmp/ccut0Zoi.s:99700  .debug_str:000000000003205c .LASF431
     /tmp/ccut0Zoi.s:88014  .debug_str:0000000000001fe5 .LASF432
     /tmp/ccut0Zoi.s:90346  .debug_str:000000000000bf3c .LASF433
     /tmp/ccut0Zoi.s:98818  .debug_str:000000000002e639 .LASF434
     /tmp/ccut0Zoi.s:96988  .debug_str:0000000000026d48 .LASF435
     /tmp/ccut0Zoi.s:104798  .debug_str:0000000000046b73 .LASF436
     /tmp/ccut0Zoi.s:101018  .debug_str:0000000000037203 .LASF437
     /tmp/ccut0Zoi.s:99902  .debug_str:0000000000032de9 .LASF438
     /tmp/ccut0Zoi.s:104000  .debug_str:00000000000436c2 .LASF439
     /tmp/ccut0Zoi.s:100208  .debug_str:00000000000342a6 .LASF440
     /tmp/ccut0Zoi.s:94192  .debug_str:000000000001b654 .LASF441
     /tmp/ccut0Zoi.s:100260  .debug_str:000000000003462c .LASF442
     /tmp/ccut0Zoi.s:99452  .debug_str:00000000000310a5 .LASF443
     /tmp/ccut0Zoi.s:93438  .debug_str:0000000000018153 .LASF444
     /tmp/ccut0Zoi.s:105024  .debug_str:0000000000047a3d .LASF445
     /tmp/ccut0Zoi.s:90796  .debug_str:000000000000dc90 .LASF446
     /tmp/ccut0Zoi.s:100906  .debug_str:0000000000036d4e .LASF447
     /tmp/ccut0Zoi.s:89028  .debug_str:00000000000065db .LASF448
     /tmp/ccut0Zoi.s:91594  .debug_str:0000000000010a19 .LASF449
     /tmp/ccut0Zoi.s:94260  .debug_str:000000000001bb6a .LASF450
     /tmp/ccut0Zoi.s:101146  .debug_str:0000000000037937 .LASF451
     /tmp/ccut0Zoi.s:106180  .debug_str:000000000004cb47 .LASF452
     /tmp/ccut0Zoi.s:96902  .debug_str:00000000000267d8 .LASF453
     /tmp/ccut0Zoi.s:95300  .debug_str:000000000002032e .LASF454
     /tmp/ccut0Zoi.s:101444  .debug_str:0000000000038be9 .LASF455
     /tmp/ccut0Zoi.s:92742  .debug_str:00000000000154c3 .LASF456
     /tmp/ccut0Zoi.s:104514  .debug_str:0000000000045832 .LASF457
     /tmp/ccut0Zoi.s:94936  .debug_str:000000000001e9a2 .LASF458
     /tmp/ccut0Zoi.s:102236  .debug_str:000000000003c228 .LASF459
     /tmp/ccut0Zoi.s:97472  .debug_str:0000000000028e14 .LASF460
     /tmp/ccut0Zoi.s:87826  .debug_str:0000000000001293 .LASF461
     /tmp/ccut0Zoi.s:95188  .debug_str:000000000001fbfc .LASF462
     /tmp/ccut0Zoi.s:103700  .debug_str:0000000000042428 .LASF463
     /tmp/ccut0Zoi.s:96014  .debug_str:00000000000232d4 .LASF464
     /tmp/ccut0Zoi.s:99336  .debug_str:000000000003081b .LASF465
     /tmp/ccut0Zoi.s:104948  .debug_str:0000000000047516 .LASF466
     /tmp/ccut0Zoi.s:98874  .debug_str:000000000002e98a .LASF467
     /tmp/ccut0Zoi.s:97760  .debug_str:000000000002a052 .LASF468
     /tmp/ccut0Zoi.s:100306  .debug_str:000000000003495f .LASF469
     /tmp/ccut0Zoi.s:104396  .debug_str:0000000000045068 .LASF470
     /tmp/ccut0Zoi.s:101104  .debug_str:000000000003767d .LASF471
     /tmp/ccut0Zoi.s:91766  .debug_str:0000000000011562 .LASF472
     /tmp/ccut0Zoi.s:100012  .debug_str:00000000000334fd .LASF473
     /tmp/ccut0Zoi.s:88890  .debug_str:0000000000005c78 .LASF474
     /tmp/ccut0Zoi.s:102564  .debug_str:000000000003d741 .LASF475
     /tmp/ccut0Zoi.s:95358  .debug_str:0000000000020746 .LASF476
     /tmp/ccut0Zoi.s:87580  .debug_str:00000000000001f4 .LASF477
     /tmp/ccut0Zoi.s:94912  .debug_str:000000000001e87a .LASF478
     /tmp/ccut0Zoi.s:95704  .debug_str:0000000000021d9f .LASF479
     /tmp/ccut0Zoi.s:103496  .debug_str:000000000004166c .LASF480
     /tmp/ccut0Zoi.s:104830  .debug_str:0000000000046d8a .LASF481
     /tmp/ccut0Zoi.s:96974  .debug_str:0000000000026c42 .LASF482
     /tmp/ccut0Zoi.s:95094  .debug_str:000000000001f5aa .LASF483
     /tmp/ccut0Zoi.s:99006  .debug_str:000000000002f2d0 .LASF484
     /tmp/ccut0Zoi.s:98032  .debug_str:000000000002b18b .LASF485
     /tmp/ccut0Zoi.s:94158  .debug_str:000000000001b3ab .LASF486
     /tmp/ccut0Zoi.s:105736  .debug_str:000000000004aca1 .LASF487
     /tmp/ccut0Zoi.s:91126  .debug_str:000000000000ee77 .LASF488
     /tmp/ccut0Zoi.s:104242  .debug_str:0000000000044622 .LASF489
     /tmp/ccut0Zoi.s:97334  .debug_str:0000000000028493 .LASF490
     /tmp/ccut0Zoi.s:88954  .debug_str:00000000000060ad .LASF491
     /tmp/ccut0Zoi.s:104238  .debug_str:00000000000445ed .LASF492
     /tmp/ccut0Zoi.s:91980  .debug_str:00000000000123ed .LASF493
     /tmp/ccut0Zoi.s:95692  .debug_str:0000000000021ce1 .LASF494
     /tmp/ccut0Zoi.s:104440  .debug_str:00000000000453b1 .LASF495
     /tmp/ccut0Zoi.s:88100  .debug_str:000000000000262a .LASF496
     /tmp/ccut0Zoi.s:99118  .debug_str:000000000002f9a8 .LASF497
     /tmp/ccut0Zoi.s:106166  .debug_str:000000000004ca4e .LASF498
     /tmp/ccut0Zoi.s:102652  .debug_str:000000000003dc93 .LASF499
     /tmp/ccut0Zoi.s:88652  .debug_str:0000000000004c3d .LASF500
     /tmp/ccut0Zoi.s:89190  .debug_str:00000000000070f7 .LASF501
     /tmp/ccut0Zoi.s:104644  .debug_str:00000000000460aa .LASF502
     /tmp/ccut0Zoi.s:100684  .debug_str:0000000000035ff2 .LASF503
     /tmp/ccut0Zoi.s:104002  .debug_str:00000000000436ca .LASF504
     /tmp/ccut0Zoi.s:87766  .debug_str:0000000000000e8d .LASF505
     /tmp/ccut0Zoi.s:91826  .debug_str:00000000000119b7 .LASF506
     /tmp/ccut0Zoi.s:104804  .debug_str:0000000000046bb8 .LASF507
     /tmp/ccut0Zoi.s:87878  .debug_str:00000000000015de .LASF508
     /tmp/ccut0Zoi.s:95786  .debug_str:00000000000222d1 .LASF509
     /tmp/ccut0Zoi.s:87958  .debug_str:0000000000001bea .LASF510
     /tmp/ccut0Zoi.s:89126  .debug_str:0000000000006cef .LASF511
     /tmp/ccut0Zoi.s:98382  .debug_str:000000000002c827 .LASF512
     /tmp/ccut0Zoi.s:98158  .debug_str:000000000002b962 .LASF513
     /tmp/ccut0Zoi.s:99462  .debug_str:000000000003111d .LASF514
     /tmp/ccut0Zoi.s:105220  .debug_str:000000000004880c .LASF515
     /tmp/ccut0Zoi.s:99682  .debug_str:0000000000031f1e .LASF516
     /tmp/ccut0Zoi.s:101802  .debug_str:000000000003a4ec .LASF517
     /tmp/ccut0Zoi.s:104146  .debug_str:0000000000043f5d .LASF518
     /tmp/ccut0Zoi.s:92330  .debug_str:0000000000013abe .LASF519
     /tmp/ccut0Zoi.s:93990  .debug_str:000000000001a7ef .LASF520
     /tmp/ccut0Zoi.s:98528  .debug_str:000000000002d25d .LASF521
     /tmp/ccut0Zoi.s:103742  .debug_str:00000000000426b4 .LASF522
     /tmp/ccut0Zoi.s:100162  .debug_str:0000000000033fbd .LASF523
     /tmp/ccut0Zoi.s:104280  .debug_str:0000000000044847 .LASF524
     /tmp/ccut0Zoi.s:98208  .debug_str:000000000002bc5a .LASF525
     /tmp/ccut0Zoi.s:97000  .debug_str:0000000000026e0c .LASF526
     /tmp/ccut0Zoi.s:95420  .debug_str:0000000000020bfb .LASF527
     /tmp/ccut0Zoi.s:100190  .debug_str:0000000000034162 .LASF528
     /tmp/ccut0Zoi.s:105806  .debug_str:000000000004b1c9 .LASF529
     /tmp/ccut0Zoi.s:105636  .debug_str:000000000004a3cf .LASF530
     /tmp/ccut0Zoi.s:102614  .debug_str:000000000003da29 .LASF531
     /tmp/ccut0Zoi.s:100458  .debug_str:0000000000035331 .LASF532
     /tmp/ccut0Zoi.s:92788  .debug_str:0000000000015772 .LASF533
     /tmp/ccut0Zoi.s:100352  .debug_str:0000000000034c76 .LASF534
     /tmp/ccut0Zoi.s:104920  .debug_str:000000000004737d .LASF535
     /tmp/ccut0Zoi.s:104184  .debug_str:0000000000044274 .LASF536
     /tmp/ccut0Zoi.s:95788  .debug_str:00000000000222f5 .LASF537
     /tmp/ccut0Zoi.s:92242  .debug_str:0000000000013549 .LASF538
     /tmp/ccut0Zoi.s:89102  .debug_str:0000000000006b8e .LASF540
     /tmp/ccut0Zoi.s:105248  .debug_str:00000000000489c4 .LASF541
     /tmp/ccut0Zoi.s:94376  .debug_str:000000000001c293 .LASF542
     /tmp/ccut0Zoi.s:94766  .debug_str:000000000001dd77 .LASF543
     /tmp/ccut0Zoi.s:101228  .debug_str:0000000000037cf5 .LASF544
     /tmp/ccut0Zoi.s:95992  .debug_str:00000000000230f2 .LASF545
     /tmp/ccut0Zoi.s:100256  .debug_str:00000000000345aa .LASF546
     /tmp/ccut0Zoi.s:105014  .debug_str:0000000000047950 .LASF547
     /tmp/ccut0Zoi.s:91280  .debug_str:000000000000f7b2 .LASF548
     /tmp/ccut0Zoi.s:96010  .debug_str:0000000000023281 .LASF549
     /tmp/ccut0Zoi.s:100598  .debug_str:0000000000035aee .LASF550
     /tmp/ccut0Zoi.s:105252  .debug_str:0000000000048a29 .LASF551
     /tmp/ccut0Zoi.s:91184  .debug_str:000000000000f1d9 .LASF552
     /tmp/ccut0Zoi.s:94224  .debug_str:000000000001b831 .LASF553
     /tmp/ccut0Zoi.s:91466  .debug_str:0000000000010155 .LASF554
     /tmp/ccut0Zoi.s:103812  .debug_str:0000000000042b04 .LASF555
     /tmp/ccut0Zoi.s:94988  .debug_str:000000000001ed78 .LASF556
     /tmp/ccut0Zoi.s:101100  .debug_str:00000000000375f9 .LASF557
     /tmp/ccut0Zoi.s:88564  .debug_str:0000000000004605 .LASF558
     /tmp/ccut0Zoi.s:90192  .debug_str:000000000000b545 .LASF559
     /tmp/ccut0Zoi.s:99508  .debug_str:0000000000031418 .LASF560
     /tmp/ccut0Zoi.s:89822  .debug_str:0000000000009b13 .LASF561
     /tmp/ccut0Zoi.s:99308  .debug_str:00000000000305c9 .LASF562
     /tmp/ccut0Zoi.s:105122  .debug_str:00000000000480ca .LASF563
     /tmp/ccut0Zoi.s:95632  .debug_str:000000000002187e .LASF564
     /tmp/ccut0Zoi.s:94394  .debug_str:000000000001c397 .LASF565
     /tmp/ccut0Zoi.s:101842  .debug_str:000000000003a742 .LASF566
     /tmp/ccut0Zoi.s:90274  .debug_str:000000000000ba93 .LASF567
     /tmp/ccut0Zoi.s:90316  .debug_str:000000000000bd24 .LASF568
     /tmp/ccut0Zoi.s:90080  .debug_str:000000000000ace8 .LASF569
     /tmp/ccut0Zoi.s:99392  .debug_str:0000000000030c37 .LASF570
     /tmp/ccut0Zoi.s:87598  .debug_str:0000000000000313 .LASF571
     /tmp/ccut0Zoi.s:99186  .debug_str:000000000002fe36 .LASF572
     /tmp/ccut0Zoi.s:105000  .debug_str:0000000000047861 .LASF573
     /tmp/ccut0Zoi.s:95508  .debug_str:00000000000210ad .LASF574
     /tmp/ccut0Zoi.s:104814  .debug_str:0000000000046c80 .LASF575
     /tmp/ccut0Zoi.s:95320  .debug_str:00000000000204a9 .LASF576
     /tmp/ccut0Zoi.s:90152  .debug_str:000000000000b203 .LASF577
     /tmp/ccut0Zoi.s:99474  .debug_str:000000000003121a .LASF578
     /tmp/ccut0Zoi.s:89956  .debug_str:000000000000a3eb .LASF579
     /tmp/ccut0Zoi.s:99274  .debug_str:000000000003037f .LASF580
     /tmp/ccut0Zoi.s:89574  .debug_str:0000000000008a63 .LASF581
     /tmp/ccut0Zoi.s:97094  .debug_str:00000000000274ac .LASF582
     /tmp/ccut0Zoi.s:104898  .debug_str:0000000000047171 .LASF583
     /tmp/ccut0Zoi.s:89154  .debug_str:0000000000006f0e .LASF584
     /tmp/ccut0Zoi.s:104708  .debug_str:0000000000046519 .LASF585
     /tmp/ccut0Zoi.s:95200  .debug_str:000000000001fca1 .LASF586
     /tmp/ccut0Zoi.s:90050  .debug_str:000000000000aac3 .LASF587
     /tmp/ccut0Zoi.s:99362  .debug_str:0000000000030a62 .LASF588
     /tmp/ccut0Zoi.s:89836  .debug_str:0000000000009c2d .LASF589
     /tmp/ccut0Zoi.s:99154  .debug_str:000000000002fbcf .LASF590
     /tmp/ccut0Zoi.s:96168  .debug_str:0000000000023b8b .LASF591
     /tmp/ccut0Zoi.s:90398  .debug_str:000000000000c2d3 .LASF592
     /tmp/ccut0Zoi.s:103522  .debug_str:0000000000041819 .LASF593
     /tmp/ccut0Zoi.s:103376  .debug_str:0000000000040eac .LASF594
     /tmp/ccut0Zoi.s:97072  .debug_str:000000000002737a .LASF595
     /tmp/ccut0Zoi.s:99850  .debug_str:00000000000329be .LASF596
     /tmp/ccut0Zoi.s:90880  .debug_str:000000000000e168 .LASF597
     /tmp/ccut0Zoi.s:105466  .debug_str:000000000004988b .LASF598
     /tmp/ccut0Zoi.s:92684  .debug_str:00000000000150d9 .LASF599
     /tmp/ccut0Zoi.s:106190  .debug_str:000000000004cbee .LASF600
     /tmp/ccut0Zoi.s:94908  .debug_str:000000000001e7ff .LASF601
     /tmp/ccut0Zoi.s:103942  .debug_str:00000000000432af .LASF602
     /tmp/ccut0Zoi.s:103632  .debug_str:0000000000041f5d .LASF603
     /tmp/ccut0Zoi.s:103370  .debug_str:0000000000040e30 .LASF604
     /tmp/ccut0Zoi.s:87928  .debug_str:000000000000199c .LASF605
     /tmp/ccut0Zoi.s:102834  .debug_str:000000000003e966 .LASF606
     /tmp/ccut0Zoi.s:96702  .debug_str:0000000000025a7c .LASF607
     /tmp/ccut0Zoi.s:100440  .debug_str:00000000000351c4 .LASF608
     /tmp/ccut0Zoi.s:94898  .debug_str:000000000001e740 .LASF609
     /tmp/ccut0Zoi.s:94602  .debug_str:000000000001d270 .LASF610
     /tmp/ccut0Zoi.s:92806  .debug_str:0000000000015845 .LASF611
     /tmp/ccut0Zoi.s:105670  .debug_str:000000000004a69d .LASF612
     /tmp/ccut0Zoi.s:99542  .debug_str:0000000000031664 .LASF613
     /tmp/ccut0Zoi.s:95088  .debug_str:000000000001f51f .LASF614
     /tmp/ccut0Zoi.s:98882  .debug_str:000000000002ea0e .LASF615
     /tmp/ccut0Zoi.s:98626  .debug_str:000000000002d8bd .LASF616
     /tmp/ccut0Zoi.s:88060  .debug_str:00000000000022e2 .LASF617
     /tmp/ccut0Zoi.s:92714  .debug_str:000000000001530e .LASF618
     /tmp/ccut0Zoi.s:101514  .debug_str:0000000000039052 .LASF619
     /tmp/ccut0Zoi.s:89696  .debug_str:000000000000929d .LASF620
     /tmp/ccut0Zoi.s:91680  .debug_str:0000000000010f24 .LASF621
     /tmp/ccut0Zoi.s:105652  .debug_str:000000000004a4e4 .LASF622
     /tmp/ccut0Zoi.s:100550  .debug_str:0000000000035888 .LASF623
     /tmp/ccut0Zoi.s:88484  .debug_str:00000000000040cd .LASF624
     /tmp/ccut0Zoi.s:87790  .debug_str:0000000000001031 .LASF625
     /tmp/ccut0Zoi.s:98422  .debug_str:000000000002caba .LASF626
     /tmp/ccut0Zoi.s:96476  .debug_str:0000000000024b71 .LASF627
     /tmp/ccut0Zoi.s:105674  .debug_str:000000000004a710 .LASF628
     /tmp/ccut0Zoi.s:105460  .debug_str:000000000004980c .LASF629
     /tmp/ccut0Zoi.s:106196  .debug_str:000000000004cc63 .LASF630
     /tmp/ccut0Zoi.s:92692  .debug_str:00000000000151c4 .LASF631
     /tmp/ccut0Zoi.s:97982  .debug_str:000000000002aed1 .LASF632
     /tmp/ccut0Zoi.s:103094  .debug_str:000000000003fb8f .LASF633
     /tmp/ccut0Zoi.s:102008  .debug_str:000000000003b24b .LASF634
     /tmp/ccut0Zoi.s:88430  .debug_str:0000000000003c9d .LASF635
     /tmp/ccut0Zoi.s:91490  .debug_str:00000000000102d2 .LASF636
     /tmp/ccut0Zoi.s:98964  .debug_str:000000000002f01a .LASF637
     /tmp/ccut0Zoi.s:104158  .debug_str:0000000000044035 .LASF638
     /tmp/ccut0Zoi.s:98928  .debug_str:000000000002ed94 .LASF639
     /tmp/ccut0Zoi.s:104376  .debug_str:0000000000044f05 .LASF640
     /tmp/ccut0Zoi.s:94832  .debug_str:000000000001e2ae .LASF641
     /tmp/ccut0Zoi.s:104038  .debug_str:0000000000043920 .LASF642
     /tmp/ccut0Zoi.s:94610  .debug_str:000000000001d313 .LASF643
     /tmp/ccut0Zoi.s:100534  .debug_str:000000000003576d .LASF644
     /tmp/ccut0Zoi.s:90888  .debug_str:000000000000e1da .LASF645
     /tmp/ccut0Zoi.s:100318  .debug_str:0000000000034a17 .LASF646
     /tmp/ccut0Zoi.s:90654  .debug_str:000000000000d3f4 .LASF647
     /tmp/ccut0Zoi.s:99974  .debug_str:00000000000331ec .LASF648
     /tmp/ccut0Zoi.s:102774  .debug_str:000000000003e4fb .LASF649
     /tmp/ccut0Zoi.s:102762  .debug_str:000000000003e3dc .LASF650
     /tmp/ccut0Zoi.s:94326  .debug_str:000000000001bf7e .LASF651
     /tmp/ccut0Zoi.s:103920  .debug_str:000000000004312c .LASF652
     /tmp/ccut0Zoi.s:94500  .debug_str:000000000001cb3f .LASF653
     /tmp/ccut0Zoi.s:100406  .debug_str:0000000000034f4d .LASF654
     /tmp/ccut0Zoi.s:90748  .debug_str:000000000000d973 .LASF655
     /tmp/ccut0Zoi.s:100212  .debug_str:00000000000342c8 .LASF656
     /tmp/ccut0Zoi.s:88184  .debug_str:0000000000002be1 .LASF657
     /tmp/ccut0Zoi.s:99854  .debug_str:0000000000032a1f .LASF658
     /tmp/ccut0Zoi.s:90156  .debug_str:000000000000b272 .LASF659
     /tmp/ccut0Zoi.s:104156  .debug_str:0000000000043ff3 .LASF660
     /tmp/ccut0Zoi.s:94574  .debug_str:000000000001d07c .LASF661
     /tmp/ccut0Zoi.s:97474  .debug_str:0000000000028e27 .LASF662
     /tmp/ccut0Zoi.s:89182  .debug_str:0000000000007087 .LASF663
     /tmp/ccut0Zoi.s:99012  .debug_str:000000000002f33f .LASF664
     /tmp/ccut0Zoi.s:94322  .debug_str:000000000001bf5d .LASF665
     /tmp/ccut0Zoi.s:95362  .debug_str:000000000002076c .LASF666
     /tmp/ccut0Zoi.s:100222  .debug_str:0000000000034366 .LASF667
     /tmp/ccut0Zoi.s:89616  .debug_str:0000000000008d64 .LASF668
     /tmp/ccut0Zoi.s:92870  .debug_str:0000000000015c65 .LASF669
     /tmp/ccut0Zoi.s:106074  .debug_str:000000000004c3b3 .LASF670
     /tmp/ccut0Zoi.s:95458  .debug_str:0000000000020db4 .LASF671
     /tmp/ccut0Zoi.s:93648  .debug_str:0000000000018fd0 .LASF672
     /tmp/ccut0Zoi.s:105476  .debug_str:000000000004995c .LASF673
     /tmp/ccut0Zoi.s:98680  .debug_str:000000000002dd2b .LASF674
     /tmp/ccut0Zoi.s:98752  .debug_str:000000000002e171 .LASF675
     /tmp/ccut0Zoi.s:96034  .debug_str:000000000002341d .LASF676
     /tmp/ccut0Zoi.s:88546  .debug_str:00000000000044e2 .LASF677
     /tmp/ccut0Zoi.s:98526  .debug_str:000000000002d244 .LASF678
     /tmp/ccut0Zoi.s:100382  .debug_str:0000000000034e31 .LASF679
     /tmp/ccut0Zoi.s:100216  .debug_str:0000000000034312 .LASF680
     /tmp/ccut0Zoi.s:91698  .debug_str:000000000001109f .LASF681
     /tmp/ccut0Zoi.s:102176  .debug_str:000000000003be48 .LASF682
     /tmp/ccut0Zoi.s:93704  .debug_str:00000000000193a6 .LASF683
     /tmp/ccut0Zoi.s:103968  .debug_str:000000000004348d .LASF684
     /tmp/ccut0Zoi.s:95472  .debug_str:0000000000020e4f .LASF685
     /tmp/ccut0Zoi.s:92000  .debug_str:0000000000012549 .LASF686
     /tmp/ccut0Zoi.s:105808  .debug_str:000000000004b1df .LASF687
     /tmp/ccut0Zoi.s:93922  .debug_str:000000000001a36e .LASF688
     /tmp/ccut0Zoi.s:104172  .debug_str:0000000000044185 .LASF689
     /tmp/ccut0Zoi.s:95686  .debug_str:0000000000021c9c .LASF690
     /tmp/ccut0Zoi.s:105920  .debug_str:000000000004b9bb .LASF691
     /tmp/ccut0Zoi.s:97570  .debug_str:00000000000293b3 .LASF692
     /tmp/ccut0Zoi.s:89114  .debug_str:0000000000006c5b .LASF693
     /tmp/ccut0Zoi.s:99440  .debug_str:0000000000030fdd .LASF694
     /tmp/ccut0Zoi.s:90838  .debug_str:000000000000df94 .LASF695
     /tmp/ccut0Zoi.s:106198  .debug_str:000000000004cca3 .LASF696
     /tmp/ccut0Zoi.s:103714  .debug_str:0000000000042509 .LASF697
     /tmp/ccut0Zoi.s:89162  .debug_str:0000000000006fa0 .LASF698
     /tmp/ccut0Zoi.s:99500  .debug_str:000000000003139c .LASF699
     /tmp/ccut0Zoi.s:91082  .debug_str:000000000000eb91 .LASF700
     /tmp/ccut0Zoi.s:101478  .debug_str:0000000000038df8 .LASF701
     /tmp/ccut0Zoi.s:102006  .debug_str:000000000003b232 .LASF702
     /tmp/ccut0Zoi.s:103164  .debug_str:00000000000400ae .LASF703
     /tmp/ccut0Zoi.s:94694  .debug_str:000000000001d958 .LASF704
     /tmp/ccut0Zoi.s:105080  .debug_str:0000000000047d90 .LASF705
     /tmp/ccut0Zoi.s:90134  .debug_str:000000000000b0e2 .LASF706
     /tmp/ccut0Zoi.s:93178  .debug_str:00000000000171e8 .LASF707
     /tmp/ccut0Zoi.s:103430  .debug_str:0000000000041289 .LASF708
     /tmp/ccut0Zoi.s:104354  .debug_str:0000000000044d45 .LASF709
     /tmp/ccut0Zoi.s:91204  .debug_str:000000000000f380 .LASF710
     /tmp/ccut0Zoi.s:104632  .debug_str:0000000000045fae .LASF711
     /tmp/ccut0Zoi.s:95860  .debug_str:000000000002281d .LASF712
     /tmp/ccut0Zoi.s:88736  .debug_str:00000000000051d2 .LASF713
     /tmp/ccut0Zoi.s:100492  .debug_str:00000000000354e8 .LASF714
     /tmp/ccut0Zoi.s:99632  .debug_str:0000000000031bed .LASF715
     /tmp/ccut0Zoi.s:93096  .debug_str:0000000000016c16 .LASF716
     /tmp/ccut0Zoi.s:92296  .debug_str:000000000001388d .LASF717
     /tmp/ccut0Zoi.s:103992  .debug_str:000000000004365c .LASF718
     /tmp/ccut0Zoi.s:96756  .debug_str:0000000000025d43 .LASF719
     /tmp/ccut0Zoi.s:92378  .debug_str:0000000000013db8 .LASF720
     /tmp/ccut0Zoi.s:91284  .debug_str:000000000000f80e .LASF721
     /tmp/ccut0Zoi.s:100002  .debug_str:0000000000033449 .LASF722
     /tmp/ccut0Zoi.s:105236  .debug_str:00000000000488db .LASF723
     /tmp/ccut0Zoi.s:93106  .debug_str:0000000000016cb6 .LASF724
     /tmp/ccut0Zoi.s:93392  .debug_str:0000000000017ef9 .LASF725
     /tmp/ccut0Zoi.s:105830  .debug_str:000000000004b34e .LASF726
     /tmp/ccut0Zoi.s:97398  .debug_str:00000000000288e1 .LASF727
     /tmp/ccut0Zoi.s:88800  .debug_str:00000000000056f7 .LASF728
     /tmp/ccut0Zoi.s:99204  .debug_str:000000000002ff49 .LASF729
     /tmp/ccut0Zoi.s:90742  .debug_str:000000000000d907 .LASF730
     /tmp/ccut0Zoi.s:101148  .debug_str:0000000000037942 .LASF731
     /tmp/ccut0Zoi.s:95064  .debug_str:000000000001f36b .LASF732
     /tmp/ccut0Zoi.s:102812  .debug_str:000000000003e7e1 .LASF733
     /tmp/ccut0Zoi.s:94358  .debug_str:000000000001c141 .LASF734
     /tmp/ccut0Zoi.s:97018  .debug_str:0000000000026f33 .LASF735
     /tmp/ccut0Zoi.s:88452  .debug_str:0000000000003e66 .LASF736
     /tmp/ccut0Zoi.s:98804  .debug_str:000000000002e54b .LASF737
     /tmp/ccut0Zoi.s:90144  .debug_str:000000000000b1a5 .LASF738
     /tmp/ccut0Zoi.s:102998  .debug_str:000000000003f4da .LASF739
     /tmp/ccut0Zoi.s:92226  .debug_str:0000000000013456 .LASF740
     /tmp/ccut0Zoi.s:102454  .debug_str:000000000003d01a .LASF741
     /tmp/ccut0Zoi.s:93998  .debug_str:000000000001a826 .LASF742
     /tmp/ccut0Zoi.s:104226  .debug_str:0000000000044532 .LASF743
     /tmp/ccut0Zoi.s:95744  .debug_str:000000000002202a .LASF744
     /tmp/ccut0Zoi.s:92284  .debug_str:0000000000013804 .LASF745
     /tmp/ccut0Zoi.s:102510  .debug_str:000000000003d3cb .LASF746
     /tmp/ccut0Zoi.s:94210  .debug_str:000000000001b750 .LASF747
     /tmp/ccut0Zoi.s:104450  .debug_str:0000000000045438 .LASF748
     /tmp/ccut0Zoi.s:96002  .debug_str:00000000000231e8 .LASF749
     /tmp/ccut0Zoi.s:92920  .debug_str:000000000001602d .LASF750
     /tmp/ccut0Zoi.s:97860  .debug_str:000000000002a666 .LASF751
     /tmp/ccut0Zoi.s:89374  .debug_str:0000000000007c80 .LASF752
     /tmp/ccut0Zoi.s:99746  .debug_str:0000000000032343 .LASF753
     /tmp/ccut0Zoi.s:91152  .debug_str:000000000000ef53 .LASF754
     /tmp/ccut0Zoi.s:87746  .debug_str:0000000000000d27 .LASF755
     /tmp/ccut0Zoi.s:98070  .debug_str:000000000002b480 .LASF756
     /tmp/ccut0Zoi.s:92294  .debug_str:0000000000013862 .LASF757
     /tmp/ccut0Zoi.s:88264  .debug_str:00000000000031f7 .LASF758
     /tmp/ccut0Zoi.s:99792  .debug_str:0000000000032670 .LASF759
     /tmp/ccut0Zoi.s:93696  .debug_str:0000000000019301 .LASF760
     /tmp/ccut0Zoi.s:99688  .debug_str:0000000000031fbe .LASF761
     /tmp/ccut0Zoi.s:96200  .debug_str:0000000000023d97 .LASF762
     /tmp/ccut0Zoi.s:101304  .debug_str:000000000003826c .LASF763
     /tmp/ccut0Zoi.s:95680  .debug_str:0000000000021c1e .LASF764
     /tmp/ccut0Zoi.s:102310  .debug_str:000000000003c75c .LASF765
     /tmp/ccut0Zoi.s:95156  .debug_str:000000000001fa30 .LASF766
     /tmp/ccut0Zoi.s:101982  .debug_str:000000000003b09a .LASF767
     /tmp/ccut0Zoi.s:93926  .debug_str:000000000001a393 .LASF768
     /tmp/ccut0Zoi.s:104848  .debug_str:0000000000046ec8 .LASF769
     /tmp/ccut0Zoi.s:103620  .debug_str:0000000000041e75 .LASF770
     /tmp/ccut0Zoi.s:93774  .debug_str:000000000001989c .LASF771
     /tmp/ccut0Zoi.s:93550  .debug_str:000000000001891b .LASF772
     /tmp/ccut0Zoi.s:93150  .debug_str:0000000000016fc6 .LASF773
     /tmp/ccut0Zoi.s:92924  .debug_str:0000000000016053 .LASF774
     /tmp/ccut0Zoi.s:92538  .debug_str:0000000000014707 .LASF775
     /tmp/ccut0Zoi.s:92304  .debug_str:00000000000138eb .LASF776
     /tmp/ccut0Zoi.s:91914  .debug_str:0000000000011f59 .LASF777
     /tmp/ccut0Zoi.s:91672  .debug_str:0000000000010e2e .LASF778
     /tmp/ccut0Zoi.s:91244  .debug_str:000000000000f589 .LASF779
     /tmp/ccut0Zoi.s:91496  .debug_str:0000000000010353 .LASF780
     /tmp/ccut0Zoi.s:89720  .debug_str:000000000000944a .LASF781
     /tmp/ccut0Zoi.s:88096  .debug_str:00000000000025a7 .LASF782
     /tmp/ccut0Zoi.s:105116  .debug_str:0000000000048009 .LASF783
     /tmp/ccut0Zoi.s:90120  .debug_str:000000000000af8e .LASF784
     /tmp/ccut0Zoi.s:94840  .debug_str:000000000001e32a .LASF785
     /tmp/ccut0Zoi.s:99666  .debug_str:0000000000031e19 .LASF786
     /tmp/ccut0Zoi.s:104400  .debug_str:000000000004509b .LASF787
     /tmp/ccut0Zoi.s:90180  .debug_str:000000000000b41d .LASF788
     /tmp/ccut0Zoi.s:95096  .debug_str:000000000001f5c4 .LASF789
     /tmp/ccut0Zoi.s:90160  .debug_str:000000000000b2db .LASF790
     /tmp/ccut0Zoi.s:100686  .debug_str:0000000000036018 .LASF791
     /tmp/ccut0Zoi.s:105240  .debug_str:0000000000048928 .LASF792
     /tmp/ccut0Zoi.s:101922  .debug_str:000000000003acc8 .LASF793
     /tmp/ccut0Zoi.s:95116  .debug_str:000000000001f7a8 .LASF794
     /tmp/ccut0Zoi.s:105522  .debug_str:0000000000049ca7 .LASF795
     /tmp/ccut0Zoi.s:97122  .debug_str:0000000000027666 .LASF796
     /tmp/ccut0Zoi.s:88764  .debug_str:00000000000053cc .LASF797
     /tmp/ccut0Zoi.s:99138  .debug_str:000000000002faa3 .LASF798
     /tmp/ccut0Zoi.s:90722  .debug_str:000000000000d775 .LASF799
     /tmp/ccut0Zoi.s:94886  .debug_str:000000000001e678 .LASF800
     /tmp/ccut0Zoi.s:105316  .debug_str:0000000000048e60 .LASF801
     /tmp/ccut0Zoi.s:98472  .debug_str:000000000002ce67 .LASF802
     /tmp/ccut0Zoi.s:96184  .debug_str:0000000000023c98 .LASF803
     /tmp/ccut0Zoi.s:101738  .debug_str:000000000003a02c .LASF804
     /tmp/ccut0Zoi.s:99528  .debug_str:000000000003157f .LASF805
     /tmp/ccut0Zoi.s:97586  .debug_str:0000000000029482 .LASF806
     /tmp/ccut0Zoi.s:95376  .debug_str:000000000002088b .LASF807
     /tmp/ccut0Zoi.s:99090  .debug_str:000000000002f7de .LASF808
     /tmp/ccut0Zoi.s:97600  .debug_str:000000000002953d .LASF809
     /tmp/ccut0Zoi.s:91240  .debug_str:000000000000f51c .LASF810
     /tmp/ccut0Zoi.s:90990  .debug_str:000000000000e644 .LASF811
     /tmp/ccut0Zoi.s:92652  .debug_str:0000000000014ec8 .LASF812
     /tmp/ccut0Zoi.s:103908  .debug_str:000000000004307c .LASF813
     /tmp/ccut0Zoi.s:89498  .debug_str:0000000000008525 .LASF814
     /tmp/ccut0Zoi.s:97878  .debug_str:000000000002a782 .LASF815
     /tmp/ccut0Zoi.s:94958  .debug_str:000000000001eb0f .LASF816
     /tmp/ccut0Zoi.s:94466  .debug_str:000000000001c895 .LASF817
     /tmp/ccut0Zoi.s:102826  .debug_str:000000000003e8c1 .LASF818
     /tmp/ccut0Zoi.s:102414  .debug_str:000000000003cd76 .LASF819
     /tmp/ccut0Zoi.s:88274  .debug_str:00000000000032a6 .LASF820
     /tmp/ccut0Zoi.s:98148  .debug_str:000000000002b8ae .LASF821
     /tmp/ccut0Zoi.s:106222  .debug_str:000000000004ce27 .LASF822
     /tmp/ccut0Zoi.s:105998  .debug_str:000000000004bef3 .LASF823
     /tmp/ccut0Zoi.s:97170  .debug_str:0000000000027a5b .LASF824
     /tmp/ccut0Zoi.s:94784  .debug_str:000000000001dead .LASF825
     /tmp/ccut0Zoi.s:93654  .debug_str:000000000001903c .LASF826
     /tmp/ccut0Zoi.s:99342  .debug_str:00000000000308bd .LASF827
     /tmp/ccut0Zoi.s:97032  .debug_str:0000000000027054 .LASF828
     /tmp/ccut0Zoi.s:101790  .debug_str:000000000003a3de .LASF829
     /tmp/ccut0Zoi.s:87726  .debug_str:0000000000000bbc .LASF830
     /tmp/ccut0Zoi.s:97976  .debug_str:000000000002ae4c .LASF831
     /tmp/ccut0Zoi.s:103658  .debug_str:0000000000042166 .LASF832
     /tmp/ccut0Zoi.s:99568  .debug_str:00000000000317fa .LASF833
     /tmp/ccut0Zoi.s:90644  .debug_str:000000000000d35f .LASF834
     /tmp/ccut0Zoi.s:103484  .debug_str:00000000000415cd .LASF835
     /tmp/ccut0Zoi.s:97008  .debug_str:0000000000026ea4 .LASF836
     /tmp/ccut0Zoi.s:87786  .debug_str:0000000000000fcf .LASF837
     /tmp/ccut0Zoi.s:96442  .debug_str:00000000000248b3 .LASF838
     /tmp/ccut0Zoi.s:100464  .debug_str:000000000003536a .LASF839
     /tmp/ccut0Zoi.s:103088  .debug_str:000000000003fafd .LASF840
     /tmp/ccut0Zoi.s:89082  .debug_str:00000000000069c0 .LASF841
     /tmp/ccut0Zoi.s:90998  .debug_str:000000000000e6c4 .LASF842
     /tmp/ccut0Zoi.s:95942  .debug_str:0000000000022d49 .LASF843
     /tmp/ccut0Zoi.s:96876  .debug_str:0000000000026669 .LASF844
     /tmp/ccut0Zoi.s:103030  .debug_str:000000000003f6c7 .LASF845
     /tmp/ccut0Zoi.s:97262  .debug_str:0000000000027fa4 .LASF846
     /tmp/ccut0Zoi.s:96120  .debug_str:0000000000023906 .LASF847
     /tmp/ccut0Zoi.s:95050  .debug_str:000000000001f241 .LASF848
     /tmp/ccut0Zoi.s:88314  .debug_str:00000000000034b9 .LASF849
     /tmp/ccut0Zoi.s:101710  .debug_str:0000000000039df8 .LASF850
     /tmp/ccut0Zoi.s:93638  .debug_str:0000000000018f1b .LASF851
     /tmp/ccut0Zoi.s:103260  .debug_str:0000000000040637 .LASF852
     /tmp/ccut0Zoi.s:105306  .debug_str:0000000000048dc9 .LASF853
     /tmp/ccut0Zoi.s:95638  .debug_str:000000000002190b .LASF854
     /tmp/ccut0Zoi.s:95556  .debug_str:000000000002135b .LASF855
     /tmp/ccut0Zoi.s:100708  .debug_str:00000000000361c0 .LASF856
     /tmp/ccut0Zoi.s:98426  .debug_str:000000000002cb1c .LASF857
     /tmp/ccut0Zoi.s:104710  .debug_str:000000000004655b .LASF858
     /tmp/ccut0Zoi.s:92182  .debug_str:000000000001316e .LASF859
     /tmp/ccut0Zoi.s:98632  .debug_str:000000000002d94b .LASF860
     /tmp/ccut0Zoi.s:96454  .debug_str:00000000000249ae .LASF861
     /tmp/ccut0Zoi.s:94844  .debug_str:000000000001e3a9 .LASF862
     /tmp/ccut0Zoi.s:93980  .debug_str:000000000001a724 .LASF863
     /tmp/ccut0Zoi.s:88640  .debug_str:0000000000004b64 .LASF864
     /tmp/ccut0Zoi.s:95092  .debug_str:000000000001f574 .LASF865
     /tmp/ccut0Zoi.s:98540  .debug_str:000000000002d314 .LASF866
     /tmp/ccut0Zoi.s:106084  .debug_str:000000000004c449 .LASF867
     /tmp/ccut0Zoi.s:93706  .debug_str:00000000000193bf .LASF868
     /tmp/ccut0Zoi.s:89228  .debug_str:00000000000073ac .LASF869
     /tmp/ccut0Zoi.s:94682  .debug_str:000000000001d84d .LASF870
     /tmp/ccut0Zoi.s:87852  .debug_str:000000000000143b .LASF871
     /tmp/ccut0Zoi.s:101128  .debug_str:00000000000377f1 .LASF872
     /tmp/ccut0Zoi.s:88088  .debug_str:0000000000002500 .LASF873
     /tmp/ccut0Zoi.s:97606  .debug_str:00000000000295cd .LASF874
     /tmp/ccut0Zoi.s:99426  .debug_str:0000000000030eb7 .LASF875
     /tmp/ccut0Zoi.s:106200  .debug_str:000000000004ccbc .LASF876
     /tmp/ccut0Zoi.s:94296  .debug_str:000000000001bd83 .LASF877
     /tmp/ccut0Zoi.s:101184  .debug_str:0000000000037ab6 .LASF878
     /tmp/ccut0Zoi.s:93276  .debug_str:00000000000177fc .LASF879
     /tmp/ccut0Zoi.s:95982  .debug_str:0000000000023027 .LASF880
     /tmp/ccut0Zoi.s:102102  .debug_str:000000000003b8b7 .LASF881
     /tmp/ccut0Zoi.s:87760  .debug_str:0000000000000e2e .LASF882
     /tmp/ccut0Zoi.s:97802  .debug_str:000000000002a289 .LASF883
     /tmp/ccut0Zoi.s:104544  .debug_str:0000000000045a01 .LASF884
     /tmp/ccut0Zoi.s:96868  .debug_str:0000000000026594 .LASF885
     /tmp/ccut0Zoi.s:104058  .debug_str:0000000000043a70 .LASF886
     /tmp/ccut0Zoi.s:102200  .debug_str:000000000003bfe2 .LASF887
     /tmp/ccut0Zoi.s:105022  .debug_str:0000000000047a08 .LASF888
     /tmp/ccut0Zoi.s:88118  .debug_str:0000000000002793 .LASF889
     /tmp/ccut0Zoi.s:91870  .debug_str:0000000000011cb0 .LASF890
     /tmp/ccut0Zoi.s:94526  .debug_str:000000000001ccf9 .LASF891
     /tmp/ccut0Zoi.s:97280  .debug_str:0000000000028133 .LASF892
     /tmp/ccut0Zoi.s:100116  .debug_str:0000000000033c72 .LASF893
     /tmp/ccut0Zoi.s:102740  .debug_str:000000000003e259 .LASF894
     /tmp/ccut0Zoi.s:93864  .debug_str:0000000000019f92 .LASF895
     /tmp/ccut0Zoi.s:96558  .debug_str:0000000000025067 .LASF896
     /tmp/ccut0Zoi.s:99270  .debug_str:0000000000030323 .LASF897
     /tmp/ccut0Zoi.s:102086  .debug_str:000000000003b7cf .LASF898
     /tmp/ccut0Zoi.s:104756  .debug_str:00000000000468e2 .LASF899
     /tmp/ccut0Zoi.s:88830  .debug_str:00000000000058e1 .LASF900
     /tmp/ccut0Zoi.s:91522  .debug_str:00000000000105a2 .LASF901
     /tmp/ccut0Zoi.s:94258  .debug_str:000000000001bb35 .LASF902
     /tmp/ccut0Zoi.s:97130  .debug_str:0000000000027735 .LASF903
     /tmp/ccut0Zoi.s:99824  .debug_str:000000000003281b .LASF904
     /tmp/ccut0Zoi.s:90788  .debug_str:000000000000dc22 .LASF905
     /tmp/ccut0Zoi.s:93566  .debug_str:0000000000018a43 .LASF906
     /tmp/ccut0Zoi.s:96230  .debug_str:0000000000023f6e .LASF907
     /tmp/ccut0Zoi.s:91404  .debug_str:000000000000fe5c .LASF908
     /tmp/ccut0Zoi.s:101840  .debug_str:000000000003a70d .LASF909
     /tmp/ccut0Zoi.s:104636  .debug_str:0000000000045ff3 .LASF910
     /tmp/ccut0Zoi.s:98206  .debug_str:000000000002bc25 .LASF911
     /tmp/ccut0Zoi.s:91386  .debug_str:000000000000fceb .LASF912
     /tmp/ccut0Zoi.s:94130  .debug_str:000000000001b222 .LASF913
     /tmp/ccut0Zoi.s:96838  .debug_str:0000000000026353 .LASF914
     /tmp/ccut0Zoi.s:87884  .debug_str:0000000000001671 .LASF915
     /tmp/ccut0Zoi.s:90490  .debug_str:000000000000c942 .LASF916
     /tmp/ccut0Zoi.s:93426  .debug_str:0000000000018052 .LASF917
     /tmp/ccut0Zoi.s:96102  .debug_str:000000000002380a .LASF918
     /tmp/ccut0Zoi.s:98858  .debug_str:000000000002e8a6 .LASF919
     /tmp/ccut0Zoi.s:101698  .debug_str:0000000000039d13 .LASF920
     /tmp/ccut0Zoi.s:104338  .debug_str:0000000000044c17 .LASF921
     /tmp/ccut0Zoi.s:88410  .debug_str:0000000000003b50 .LASF922
     /tmp/ccut0Zoi.s:91084  .debug_str:000000000000ebaa .LASF923
     /tmp/ccut0Zoi.s:93832  .debug_str:0000000000019d7d .LASF924
     /tmp/ccut0Zoi.s:103650  .debug_str:00000000000420c0 .LASF925
     /tmp/ccut0Zoi.s:94810  .debug_str:000000000001e0c0 .LASF926
     /tmp/ccut0Zoi.s:95664  .debug_str:0000000000021af9 .LASF927
     /tmp/ccut0Zoi.s:90564  .debug_str:000000000000ce26 .LASF928
     /tmp/ccut0Zoi.s:95830  .debug_str:000000000002260d .LASF929
     /tmp/ccut0Zoi.s:98750  .debug_str:000000000002e13c .LASF930
     /tmp/ccut0Zoi.s:101458  .debug_str:0000000000038c85 .LASF931
     /tmp/ccut0Zoi.s:104214  .debug_str:000000000004448c .LASF932
     /tmp/ccut0Zoi.s:88136  .debug_str:0000000000002897 .LASF933
     /tmp/ccut0Zoi.s:90752  .debug_str:000000000000d9bf .LASF934
     /tmp/ccut0Zoi.s:100714  .debug_str:0000000000036236 .LASF935
     /tmp/ccut0Zoi.s:103362  .debug_str:0000000000040d8f .LASF936
     /tmp/ccut0Zoi.s:100138  .debug_str:0000000000033e0c .LASF937
     /tmp/ccut0Zoi.s:90068  .debug_str:000000000000abb5 .LASF938
     /tmp/ccut0Zoi.s:94940  .debug_str:000000000001e9d4 .LASF939
     /tmp/ccut0Zoi.s:98604  .debug_str:000000000002d710 .LASF940
     /tmp/ccut0Zoi.s:98056  .debug_str:000000000002b31e .LASF941
     /tmp/ccut0Zoi.s:97514  .debug_str:0000000000029012 .LASF942
     /tmp/ccut0Zoi.s:96766  .debug_str:0000000000025de6 .LASF943
     /tmp/ccut0Zoi.s:105212  .debug_str:0000000000048753 .LASF944
     /tmp/ccut0Zoi.s:92010  .debug_str:00000000000125c4 .LASF945
     /tmp/ccut0Zoi.s:99992  .debug_str:0000000000033373 .LASF946
     /tmp/ccut0Zoi.s:90486  .debug_str:000000000000c905 .LASF947
     /tmp/ccut0Zoi.s:97930  .debug_str:000000000002aaea .LASF948
     /tmp/ccut0Zoi.s:91494  .debug_str:0000000000010324 .LASF949
     /tmp/ccut0Zoi.s:102916  .debug_str:000000000003efc2 .LASF950
     /tmp/ccut0Zoi.s:90396  .debug_str:000000000000c2a4 .LASF951
     /tmp/ccut0Zoi.s:93938  .debug_str:000000000001a45c .LASF952
     /tmp/ccut0Zoi.s:100852  .debug_str:0000000000036998 .LASF953
     /tmp/ccut0Zoi.s:101490  .debug_str:0000000000038ec5 .LASF954
     /tmp/ccut0Zoi.s:105272  .debug_str:0000000000048bb4 .LASF955
     /tmp/ccut0Zoi.s:103176  .debug_str:000000000004013d .LASF956
     /tmp/ccut0Zoi.s:92046  .debug_str:00000000000128a4 .LASF957
     /tmp/ccut0Zoi.s:100596  .debug_str:0000000000035aa5 .LASF958
     /tmp/ccut0Zoi.s:90096  .debug_str:000000000000add2 .LASF959
     /tmp/ccut0Zoi.s:98778  .debug_str:000000000002e300 .LASF960
     /tmp/ccut0Zoi.s:88450  .debug_str:0000000000003e1d .LASF961
     /tmp/ccut0Zoi.s:96874  .debug_str:0000000000026620 .LASF962
     /tmp/ccut0Zoi.s:105344  .debug_str:0000000000049078 .LASF963
     /tmp/ccut0Zoi.s:94996  .debug_str:000000000001ee44 .LASF964
     /tmp/ccut0Zoi.s:104654  .debug_str:000000000004611c .LASF965
     /tmp/ccut0Zoi.s:88310  .debug_str:0000000000003462 .LASF966
     /tmp/ccut0Zoi.s:88012  .debug_str:0000000000001f97 .LASF967
     /tmp/ccut0Zoi.s:94408  .debug_str:000000000001c4e7 .LASF968
     /tmp/ccut0Zoi.s:106218  .debug_str:000000000004cdbf .LASF969
     /tmp/ccut0Zoi.s:88368  .debug_str:000000000000387b .LASF970
     /tmp/ccut0Zoi.s:95894  .debug_str:0000000000022a16 .LASF971
     /tmp/ccut0Zoi.s:92264  .debug_str:0000000000013688 .LASF972
     /tmp/ccut0Zoi.s:89728  .debug_str:0000000000009508 .LASF973
     /tmp/ccut0Zoi.s:94360  .debug_str:000000000001c15c .LASF974
     /tmp/ccut0Zoi.s:102494  .debug_str:000000000003d24f .LASF975
     /tmp/ccut0Zoi.s:90028  .debug_str:000000000000a8a0 .LASF976
     /tmp/ccut0Zoi.s:92962  .debug_str:000000000001629d .LASF977
     /tmp/ccut0Zoi.s:99340  .debug_str:0000000000030871 .LASF978
     /tmp/ccut0Zoi.s:105452  .debug_str:000000000004977c .LASF979
     /tmp/ccut0Zoi.s:93090  .debug_str:0000000000016b89 .LASF980
     /tmp/ccut0Zoi.s:99320  .debug_str:00000000000306d2 .LASF981
     /tmp/ccut0Zoi.s:105644  .debug_str:000000000004a439 .LASF982
     /tmp/ccut0Zoi.s:93432  .debug_str:00000000000180ce .LASF983
     /tmp/ccut0Zoi.s:99840  .debug_str:00000000000328f0 .LASF984
     /tmp/ccut0Zoi.s:100240  .debug_str:0000000000034492 .LASF985
     /tmp/ccut0Zoi.s:93798  .debug_str:0000000000019a47 .LASF986
     /tmp/ccut0Zoi.s:93762  .debug_str:00000000000197d7 .LASF987
     /tmp/ccut0Zoi.s:88614  .debug_str:00000000000049bb .LASF988
     /tmp/ccut0Zoi.s:89990  .debug_str:000000000000a66c .LASF989
     /tmp/ccut0Zoi.s:90244  .debug_str:000000000000b8ae .LASF990
     /tmp/ccut0Zoi.s:88966  .debug_str:000000000000615b .LASF991
     /tmp/ccut0Zoi.s:103076  .debug_str:000000000003fa25 .LASF992
     /tmp/ccut0Zoi.s:93084  .debug_str:0000000000016b18 .LASF993
     /tmp/ccut0Zoi.s:94548  .debug_str:000000000001ce6b .LASF994
     /tmp/ccut0Zoi.s:88528  .debug_str:000000000000439d .LASF995
     /tmp/ccut0Zoi.s:97854  .debug_str:000000000002a60e .LASF996
     /tmp/ccut0Zoi.s:94432  .debug_str:000000000001c66b .LASF997
     /tmp/ccut0Zoi.s:103776  .debug_str:00000000000428c1 .LASF998
     /tmp/ccut0Zoi.s:103768  .debug_str:000000000004284d .LASF999
     /tmp/ccut0Zoi.s:94804  .debug_str:000000000001e027 .LASF1000
     /tmp/ccut0Zoi.s:103704  .debug_str:000000000004244d .LASF1001
     /tmp/ccut0Zoi.s:96490  .debug_str:0000000000024c39 .LASF1002
     /tmp/ccut0Zoi.s:99690  .debug_str:0000000000031ff7 .LASF1003
     /tmp/ccut0Zoi.s:91250  .debug_str:000000000000f5f8 .LASF1004
     /tmp/ccut0Zoi.s:102398  .debug_str:000000000003cc49 .LASF1005
     /tmp/ccut0Zoi.s:104324  .debug_str:0000000000044b53 .LASF1006
     /tmp/ccut0Zoi.s:97522  .debug_str:00000000000290ce .LASF1007
     /tmp/ccut0Zoi.s:102896  .debug_str:000000000003ee3d .LASF1008
     /tmp/ccut0Zoi.s:97026  .debug_str:0000000000026fbf .LASF1009
     /tmp/ccut0Zoi.s:89558  .debug_str:000000000000892c .LASF1010
     /tmp/ccut0Zoi.s:101132  .debug_str:0000000000037845 .LASF1011
     /tmp/ccut0Zoi.s:87586  .debug_str:000000000000023e .LASF1012
     /tmp/ccut0Zoi.s:95732  .debug_str:0000000000021f11 .LASF1013
     /tmp/ccut0Zoi.s:88776  .debug_str:0000000000005534 .LASF1014
     /tmp/ccut0Zoi.s:92780  .debug_str:00000000000156c7 .LASF1015
     /tmp/ccut0Zoi.s:104744  .debug_str:00000000000467db .LASF1016
     /tmp/ccut0Zoi.s:96688  .debug_str:000000000002598d .LASF1017
     /tmp/ccut0Zoi.s:95266  .debug_str:00000000000200eb .LASF1018
     /tmp/ccut0Zoi.s:91972  .debug_str:0000000000012360 .LASF1019
     /tmp/ccut0Zoi.s:89158  .debug_str:0000000000006f6b .LASF1020
     /tmp/ccut0Zoi.s:96716  .debug_str:0000000000025b52 .LASF1021
     /tmp/ccut0Zoi.s:99152  .debug_str:000000000002fba6 .LASF1022
     /tmp/ccut0Zoi.s:92550  .debug_str:00000000000147ee .LASF1023
     /tmp/ccut0Zoi.s:92832  .debug_str:0000000000015a46 .LASF1024
     /tmp/ccut0Zoi.s:94046  .debug_str:000000000001ab9a .LASF1025
     /tmp/ccut0Zoi.s:97300  .debug_str:0000000000028278 .LASF1026
     /tmp/ccut0Zoi.s:93570  .debug_str:0000000000018a89 .LASF1027
     /tmp/ccut0Zoi.s:88006  .debug_str:0000000000001f2e .LASF1028
     /tmp/ccut0Zoi.s:99466  .debug_str:000000000003116d .LASF1029
     /tmp/ccut0Zoi.s:102140  .debug_str:000000000003bbeb .LASF1030
     /tmp/ccut0Zoi.s:94230  .debug_str:000000000001b8d0 .LASF1031
     /tmp/ccut0Zoi.s:104978  .debug_str:00000000000476eb .LASF1032
     /tmp/ccut0Zoi.s:88038  .debug_str:00000000000021ab .LASF1033
     /tmp/ccut0Zoi.s:96538  .debug_str:0000000000024f12 .LASF1034
     /tmp/ccut0Zoi.s:102754  .debug_str:000000000003e362 .LASF1035
     /tmp/ccut0Zoi.s:99418  .debug_str:0000000000030dff .LASF1036
     /tmp/ccut0Zoi.s:95972  .debug_str:0000000000022f89 .LASF1037
     /tmp/ccut0Zoi.s:92608  .debug_str:0000000000014bc5 .LASF1038
     /tmp/ccut0Zoi.s:91636  .debug_str:0000000000010c4d .LASF1039
     /tmp/ccut0Zoi.s:90656  .debug_str:000000000000d436 .LASF1040
     /tmp/ccut0Zoi.s:88616  .debug_str:0000000000004a09 .LASF1041
     /tmp/ccut0Zoi.s:91428  .debug_str:000000000000ff9d .LASF1042
     /tmp/ccut0Zoi.s:103126  .debug_str:000000000003fdd0 .LASF1043
     /tmp/ccut0Zoi.s:105680  .debug_str:000000000004a771 .LASF1044
     /tmp/ccut0Zoi.s:93160  .debug_str:00000000000170b0 .LASF1045
     /tmp/ccut0Zoi.s:99400  .debug_str:0000000000030cdd .LASF1046
     /tmp/ccut0Zoi.s:105558  .debug_str:0000000000049f74 .LASF1047
     /tmp/ccut0Zoi.s:93062  .debug_str:0000000000016981 .LASF1048
     /tmp/ccut0Zoi.s:91872  .debug_str:0000000000011ce5 .LASF1049
     /tmp/ccut0Zoi.s:98154  .debug_str:000000000002b91f .LASF1050
     /tmp/ccut0Zoi.s:104278  .debug_str:000000000004481c .LASF1051
     /tmp/ccut0Zoi.s:91742  .debug_str:000000000001139e .LASF1052
     /tmp/ccut0Zoi.s:98028  .debug_str:000000000002b149 .LASF1053
     /tmp/ccut0Zoi.s:103476  .debug_str:000000000004157b .LASF1054
     /tmp/ccut0Zoi.s:89134  .debug_str:0000000000006d7c .LASF1055
     /tmp/ccut0Zoi.s:103146  .debug_str:000000000003ff6a .LASF1056
     /tmp/ccut0Zoi.s:98784  .debug_str:000000000002e39a .LASF1057
     /tmp/ccut0Zoi.s:90768  .debug_str:000000000000da8f .LASF1058
     /tmp/ccut0Zoi.s:91326  .debug_str:000000000000f9ce .LASF1059
     /tmp/ccut0Zoi.s:90506  .debug_str:000000000000ca5d .LASF1060
     /tmp/ccut0Zoi.s:102654  .debug_str:000000000003dcb2 .LASF1061
     /tmp/ccut0Zoi.s:94842  .debug_str:000000000001e381 .LASF1062
     /tmp/ccut0Zoi.s:105566  .debug_str:0000000000049fd0 .LASF1063
     /tmp/ccut0Zoi.s:95286  .debug_str:000000000002022a .LASF1064
     /tmp/ccut0Zoi.s:89644  .debug_str:0000000000008efa .LASF1065
     /tmp/ccut0Zoi.s:100696  .debug_str:0000000000036119 .LASF1066
     /tmp/ccut0Zoi.s:92680  .debug_str:000000000001506f .LASF1067
     /tmp/ccut0Zoi.s:103562  .debug_str:0000000000041b0f .LASF1068
     /tmp/ccut0Zoi.s:95604  .debug_str:00000000000216d6 .LASF1069
     /tmp/ccut0Zoi.s:99668  .debug_str:0000000000031e70 .LASF1070
     /tmp/ccut0Zoi.s:89866  .debug_str:0000000000009da0 .LASF1071
     /tmp/ccut0Zoi.s:99322  .debug_str:0000000000030720 .LASF1072
     /tmp/ccut0Zoi.s:89598  .debug_str:0000000000008bbf .LASF1073
     /tmp/ccut0Zoi.s:98916  .debug_str:000000000002ecb6 .LASF1074
     /tmp/ccut0Zoi.s:89376  .debug_str:0000000000007c9c .LASF1075
     /tmp/ccut0Zoi.s:98682  .debug_str:000000000002dd3b .LASF1076
     /tmp/ccut0Zoi.s:89142  .debug_str:0000000000006e24 .LASF1077
     /tmp/ccut0Zoi.s:98444  .debug_str:000000000002cc27 .LASF1078
     /tmp/ccut0Zoi.s:88906  .debug_str:0000000000005da4 .LASF1079
     /tmp/ccut0Zoi.s:98192  .debug_str:000000000002bb36 .LASF1080
     /tmp/ccut0Zoi.s:90342  .debug_str:000000000000bed3 .LASF1081
     /tmp/ccut0Zoi.s:94648  .debug_str:000000000001d62b .LASF1082
     /tmp/ccut0Zoi.s:89928  .debug_str:000000000000a236 .LASF1083
     /tmp/ccut0Zoi.s:99388  .debug_str:0000000000030be6 .LASF1084
     /tmp/ccut0Zoi.s:102190  .debug_str:000000000003bf20 .LASF1085
     /tmp/ccut0Zoi.s:99136  .debug_str:000000000002fa79 .LASF1086
     /tmp/ccut0Zoi.s:89442  .debug_str:0000000000008182 .LASF1087
     /tmp/ccut0Zoi.s:98896  .debug_str:000000000002eb1b .LASF1088
     /tmp/ccut0Zoi.s:89202  .debug_str:00000000000071d7 .LASF1089
     /tmp/ccut0Zoi.s:90504  .debug_str:000000000000ca33 .LASF1090
     /tmp/ccut0Zoi.s:90668  .debug_str:000000000000d4cf .LASF1091
     /tmp/ccut0Zoi.s:99964  .debug_str:0000000000033165 .LASF1092
     /tmp/ccut0Zoi.s:90426  .debug_str:000000000000c4dc .LASF1093
     /tmp/ccut0Zoi.s:99722  .debug_str:00000000000321f7 .LASF1094
     /tmp/ccut0Zoi.s:94668  .debug_str:000000000001d738 .LASF1095
     /tmp/ccut0Zoi.s:99458  .debug_str:00000000000310d9 .LASF1096
     /tmp/ccut0Zoi.s:89916  .debug_str:000000000000a179 .LASF1097
     /tmp/ccut0Zoi.s:99212  .debug_str:000000000002ffc8 .LASF1098
     /tmp/ccut0Zoi.s:89648  .debug_str:0000000000008f38 .LASF1099
     /tmp/ccut0Zoi.s:98958  .debug_str:000000000002efc7 .LASF1100
     /tmp/ccut0Zoi.s:91032  .debug_str:000000000000e92b .LASF1101
     /tmp/ccut0Zoi.s:100432  .debug_str:000000000003512d .LASF1102
     /tmp/ccut0Zoi.s:90746  .debug_str:000000000000d949 .LASF1103
     /tmp/ccut0Zoi.s:100188  .debug_str:0000000000034138 .LASF1104
     /tmp/ccut0Zoi.s:90494  .debug_str:000000000000c985 .LASF1105
     /tmp/ccut0Zoi.s:99950  .debug_str:0000000000033046 .LASF1106
     /tmp/ccut0Zoi.s:90232  .debug_str:000000000000b7e7 .LASF1107
     /tmp/ccut0Zoi.s:99524  .debug_str:000000000003152d .LASF1108
     /tmp/ccut0Zoi.s:89986  .debug_str:000000000000a621 .LASF1109
     /tmp/ccut0Zoi.s:105594  .debug_str:000000000004a15f .LASF1110
     /tmp/ccut0Zoi.s:91546  .debug_str:00000000000106ac .LASF1111
     /tmp/ccut0Zoi.s:100792  .debug_str:00000000000366bc .LASF1112
     /tmp/ccut0Zoi.s:91276  .debug_str:000000000000f76e .LASF1113
     /tmp/ccut0Zoi.s:100512  .debug_str:00000000000355c3 .LASF1114
     /tmp/ccut0Zoi.s:103366  .debug_str:0000000000040dd0 .LASF1115
     /tmp/ccut0Zoi.s:100248  .debug_str:0000000000034528 .LASF1116
     /tmp/ccut0Zoi.s:90560  .debug_str:000000000000cde3 .LASF1117
     /tmp/ccut0Zoi.s:100026  .debug_str:00000000000335e3 .LASF1118
     /tmp/ccut0Zoi.s:90304  .debug_str:000000000000bc61 .LASF1119
     /tmp/ccut0Zoi.s:99780  .debug_str:000000000003257a .LASF1120
     /tmp/ccut0Zoi.s:91912  .debug_str:0000000000011f2f .LASF1121
     /tmp/ccut0Zoi.s:101310  .debug_str:00000000000382c9 .LASF1122
     /tmp/ccut0Zoi.s:91626  .debug_str:0000000000010c07 .LASF1123
     /tmp/ccut0Zoi.s:100864  .debug_str:0000000000036aa4 .LASF1124
     /tmp/ccut0Zoi.s:91572  .debug_str:0000000000010873 .LASF1125
     /tmp/ccut0Zoi.s:92406  .debug_str:0000000000013f62 .LASF1126
     /tmp/ccut0Zoi.s:87556  .debug_str:0000000000000021 .LASF1127
     /tmp/ccut0Zoi.s:101392  .debug_str:00000000000387dd .LASF1128
     /tmp/ccut0Zoi.s:95366  .debug_str:000000000002079e .LASF1129
     /tmp/ccut0Zoi.s:103410  .debug_str:000000000004112b .LASF1130
     /tmp/ccut0Zoi.s:88244  .debug_str:0000000000003086 .LASF1131
     /tmp/ccut0Zoi.s:88608  .debug_str:0000000000004938 .LASF1132
     /tmp/ccut0Zoi.s:89020  .debug_str:000000000000650f .LASF1133
     /tmp/ccut0Zoi.s:89368  .debug_str:0000000000007c06 .LASF1134
     /tmp/ccut0Zoi.s:92172  .debug_str:000000000001309d .LASF1135
     /tmp/ccut0Zoi.s:92502  .debug_str:00000000000144f1 .LASF1136
     /tmp/ccut0Zoi.s:100052  .debug_str:0000000000033793 .LASF1137
     /tmp/ccut0Zoi.s:102502  .debug_str:000000000003d2f4 .LASF1138
     /tmp/ccut0Zoi.s:104992  .debug_str:00000000000477e6 .LASF1139
     /tmp/ccut0Zoi.s:89022  .debug_str:0000000000006540 .LASF1140
     /tmp/ccut0Zoi.s:105184  .debug_str:000000000004854d .LASF1141
     /tmp/ccut0Zoi.s:88404  .debug_str:0000000000003af0 .LASF1142
     /tmp/ccut0Zoi.s:94402  .debug_str:000000000001c46c .LASF1143
     /tmp/ccut0Zoi.s:103910  .debug_str:00000000000430b8 .LASF1144
     /tmp/ccut0Zoi.s:102676  .debug_str:000000000003de3b .LASF1145
     /tmp/ccut0Zoi.s:102856  .debug_str:000000000003eadd .LASF1146
     /tmp/ccut0Zoi.s:93592  .debug_str:0000000000018bfb .LASF1147
     /tmp/ccut0Zoi.s:93230  .debug_str:00000000000174b7 .LASF1148
     /tmp/ccut0Zoi.s:105966  .debug_str:000000000004bcb4 .LASF1149
     /tmp/ccut0Zoi.s:97628  .debug_str:00000000000297e1 .LASF1150
     /tmp/ccut0Zoi.s:91336  .debug_str:000000000000fa5b .LASF1151
     /tmp/ccut0Zoi.s:99790  .debug_str:000000000003265a .LASF1152
     /tmp/ccut0Zoi.s:89774  .debug_str:0000000000009820 .LASF1153
     /tmp/ccut0Zoi.s:87564  .debug_str:00000000000000ad .LASF1154
     /tmp/ccut0Zoi.s:95648  .debug_str:00000000000219e4 .LASF1155
     /tmp/ccut0Zoi.s:95890  .debug_str:00000000000229eb .LASF1156
     /tmp/ccut0Zoi.s:101748  .debug_str:000000000003a0f2 .LASF1157
     /tmp/ccut0Zoi.s:103878  .debug_str:0000000000042f10 .LASF1158
     /tmp/ccut0Zoi.s:105334  .debug_str:0000000000048fe3 .LASF1159
     /tmp/ccut0Zoi.s:95070  .debug_str:000000000001f3d9 .LASF1160
     /tmp/ccut0Zoi.s:98718  .debug_str:000000000002df6a .LASF1161
     /tmp/ccut0Zoi.s:91582  .debug_str:0000000000010951 .LASF1163
     /tmp/ccut0Zoi.s:104704  .debug_str:00000000000464f6 .LASF1164
     /tmp/ccut0Zoi.s:92810  .debug_str:000000000001589b .LASF1165
     /tmp/ccut0Zoi.s:97238  .debug_str:0000000000027e44 .LASF1166
     /tmp/ccut0Zoi.s:92662  .debug_str:0000000000014f73 .LASF1167
     /tmp/ccut0Zoi.s:92604  .debug_str:0000000000014bb0 .LASF1168
     /tmp/ccut0Zoi.s:98688  .debug_str:000000000002ddb7 .LASF1169
     /tmp/ccut0Zoi.s:87614  .debug_str:0000000000000431 .LASF1170
     /tmp/ccut0Zoi.s:92896  .debug_str:0000000000015e68 .LASF1171
     /tmp/ccut0Zoi.s:94860  .debug_str:000000000001e4c1 .LASF1172
     /tmp/ccut0Zoi.s:95962  .debug_str:0000000000022eb1 .LASF1173
     /tmp/ccut0Zoi.s:103106  .debug_str:000000000003fc7d .LASF1174
     /tmp/ccut0Zoi.s:91074  .debug_str:000000000000eb2e .LASF1175
     /tmp/ccut0Zoi.s:97464  .debug_str:0000000000028d53 .LASF1176
     /tmp/ccut0Zoi.s:89046  .debug_str:0000000000006745 .LASF1177
     /tmp/ccut0Zoi.s:89906  .debug_str:000000000000a0a6 .LASF1178
     /tmp/ccut0Zoi.s:97812  .debug_str:000000000002a326 .LASF1179
     /tmp/ccut0Zoi.s:89900  .debug_str:000000000000a04d .LASF1180
     /tmp/ccut0Zoi.s:94698  .debug_str:000000000001d9ab .LASF1181
     /tmp/ccut0Zoi.s:99656  .debug_str:0000000000031d4a .LASF1182
     /tmp/ccut0Zoi.s:104310  .debug_str:0000000000044a42 .LASF1183
     /tmp/ccut0Zoi.s:88240  .debug_str:000000000000303d .LASF1184
     /tmp/ccut0Zoi.s:97332  .debug_str:0000000000028473 .LASF1185
     /tmp/ccut0Zoi.s:88624  .debug_str:0000000000004a8c .LASF1186
     /tmp/ccut0Zoi.s:90728  .debug_str:000000000000d81b .LASF1187
     /tmp/ccut0Zoi.s:106202  .debug_str:000000000004ccef .LASF1188
     /tmp/ccut0Zoi.s:97106  .debug_str:0000000000027588 .LASF1189
     /tmp/ccut0Zoi.s:105910  .debug_str:000000000004b90a .LASF1190
     /tmp/ccut0Zoi.s:97460  .debug_str:0000000000028d08 .LASF1191
     /tmp/ccut0Zoi.s:104380  .debug_str:0000000000044f7f .LASF1192
     /tmp/ccut0Zoi.s:103420  .debug_str:00000000000411d5 .LASF1193
     /tmp/ccut0Zoi.s:91098  .debug_str:000000000000ec87 .LASF1194
     /tmp/ccut0Zoi.s:104876  .debug_str:000000000004703b .LASF1195
     /tmp/ccut0Zoi.s:94062  .debug_str:000000000001acca .LASF1196
     /tmp/ccut0Zoi.s:93600  .debug_str:0000000000018c76 .LASF1197
     /tmp/ccut0Zoi.s:97438  .debug_str:0000000000028b6f .LASF1198
     /tmp/ccut0Zoi.s:89428  .debug_str:0000000000008071 .LASF1199
     /tmp/ccut0Zoi.s:91578  .debug_str:00000000000108f8 .LASF1200
     /tmp/ccut0Zoi.s:99442  .debug_str:0000000000030ff6 .LASF1201
     /tmp/ccut0Zoi.s:90830  .debug_str:000000000000df05 .LASF1202
     /tmp/ccut0Zoi.s:104764  .debug_str:0000000000046969 .LASF1203
     /tmp/ccut0Zoi.s:93662  .debug_str:00000000000190e7 .LASF1204
     /tmp/ccut0Zoi.s:106014  .debug_str:000000000004c04d .LASF1205
     /tmp/ccut0Zoi.s:91382  .debug_str:000000000000fc98 .LASF1206
     /tmp/ccut0Zoi.s:99826  .debug_str:0000000000032850 .LASF1207
     /tmp/ccut0Zoi.s:105858  .debug_str:000000000004b557 .LASF1208
     /tmp/ccut0Zoi.s:98802  .debug_str:000000000002e52c .LASF1209
     /tmp/ccut0Zoi.s:96828  .debug_str:00000000000262b1 .LASF1210
     /tmp/ccut0Zoi.s:99600  .debug_str:0000000000031a34 .LASF1211
     /tmp/ccut0Zoi.s:93836  .debug_str:0000000000019dde .LASF1212
     /tmp/ccut0Zoi.s:100560  .debug_str:000000000003596a .LASF1213
     /tmp/ccut0Zoi.s:103040  .debug_str:000000000003f7a6 .LASF1214
     /tmp/ccut0Zoi.s:101894  .debug_str:000000000003ab40 .LASF1215
     /tmp/ccut0Zoi.s:94160  .debug_str:000000000001b3d1 .LASF1216
     /tmp/ccut0Zoi.s:98142  .debug_str:000000000002b851 .LASF1217
     /tmp/ccut0Zoi.s:105428  .debug_str:0000000000049608 .LASF1218
     /tmp/ccut0Zoi.s:91426  .debug_str:000000000000ff73 .LASF1219
     /tmp/ccut0Zoi.s:90432  .debug_str:000000000000c54f .LASF1220
     /tmp/ccut0Zoi.s:90136  .debug_str:000000000000b0fb .LASF1221
     /tmp/ccut0Zoi.s:87946  .debug_str:0000000000001b27 .LASF1222
     /tmp/ccut0Zoi.s:99328  .debug_str:0000000000030775 .LASF1223
     /tmp/ccut0Zoi.s:92650  .debug_str:0000000000014e9d .LASF1224
     /tmp/ccut0Zoi.s:90944  .debug_str:000000000000e4f4 .LASF1225
     /tmp/ccut0Zoi.s:99532  .debug_str:00000000000315d0 .LASF1226
     /tmp/ccut0Zoi.s:94830  .debug_str:000000000001e27b .LASF1227
     /tmp/ccut0Zoi.s:93494  .debug_str:0000000000018544 .LASF1228
     /tmp/ccut0Zoi.s:100218  .debug_str:000000000003432b .LASF1229
     /tmp/ccut0Zoi.s:89676  .debug_str:00000000000090d5 .LASF1230
     /tmp/ccut0Zoi.s:100264  .debug_str:0000000000034667 .LASF1231
     /tmp/ccut0Zoi.s:103048  .debug_str:000000000003f830 .LASF1232
     /tmp/ccut0Zoi.s:94534  .debug_str:000000000001cd92 .LASF1233
     /tmp/ccut0Zoi.s:105972  .debug_str:000000000004bcf3 .LASF1234
     /tmp/ccut0Zoi.s:103044  .debug_str:000000000003f802 .LASF1235
     /tmp/ccut0Zoi.s:105994  .debug_str:000000000004bea2 .LASF1236
     /tmp/ccut0Zoi.s:90630  .debug_str:000000000000d284 .LASF1237
     /tmp/ccut0Zoi.s:105472  .debug_str:00000000000498ff .LASF1238
     /tmp/ccut0Zoi.s:94760  .debug_str:000000000001dd03 .LASF1239
     /tmp/ccut0Zoi.s:104844  .debug_str:0000000000046e9a .LASF1240
     /tmp/ccut0Zoi.s:88722  .debug_str:00000000000050bf .LASF1241
     /tmp/ccut0Zoi.s:93112  .debug_str:0000000000016cf8 .LASF1242
     /tmp/ccut0Zoi.s:103342  .debug_str:0000000000040bcc .LASF1243
     /tmp/ccut0Zoi.s:93460  .debug_str:000000000001830b .LASF1244
     /tmp/ccut0Zoi.s:96092  .debug_str:00000000000236a4 .LASF1245
     /tmp/ccut0Zoi.s:95528  .debug_str:0000000000021261 .LASF1246
     /tmp/ccut0Zoi.s:106174  .debug_str:000000000004cafa .LASF1247
     /tmp/ccut0Zoi.s:99314  .debug_str:000000000003065d .LASF1248
     /tmp/ccut0Zoi.s:89762  .debug_str:0000000000009766 .LASF1249
     /tmp/ccut0Zoi.s:96398  .debug_str:0000000000024770 .LASF1250
     /tmp/ccut0Zoi.s:99862  .debug_str:0000000000032aaa .LASF1251
     /tmp/ccut0Zoi.s:87748  .debug_str:0000000000000d43 .LASF1252
     /tmp/ccut0Zoi.s:91034  .debug_str:000000000000e955 .LASF1253
     /tmp/ccut0Zoi.s:106100  .debug_str:000000000004c53c .LASF1254
     /tmp/ccut0Zoi.s:105180  .debug_str:0000000000048506 .LASF1255
     /tmp/ccut0Zoi.s:97692  .debug_str:0000000000029b18 .LASF1256
     /tmp/ccut0Zoi.s:96500  .debug_str:0000000000024cc0 .LASF1257
     /tmp/ccut0Zoi.s:90386  .debug_str:000000000000c206 .LASF1258
     /tmp/ccut0Zoi.s:95636  .debug_str:00000000000218e3 .LASF1259
     /tmp/ccut0Zoi.s:99654  .debug_str:0000000000031d14 .LASF1260
     /tmp/ccut0Zoi.s:104660  .debug_str:00000000000461c0 .LASF1261
     /tmp/ccut0Zoi.s:106232  .debug_str:000000000004ced9 .LASF1262
     /tmp/ccut0Zoi.s:101970  .debug_str:000000000003afec .LASF1263
     /tmp/ccut0Zoi.s:97832  .debug_str:000000000002a434 .LASF1264
     /tmp/ccut0Zoi.s:93210  .debug_str:0000000000017375 .LASF1265
     /tmp/ccut0Zoi.s:89346  .debug_str:0000000000007aa4 .LASF1266
     /tmp/ccut0Zoi.s:94374  .debug_str:000000000001c26e .LASF1267
     /tmp/ccut0Zoi.s:99714  .debug_str:0000000000032166 .LASF1268
     /tmp/ccut0Zoi.s:94488  .debug_str:000000000001ca1a .LASF1269
     /tmp/ccut0Zoi.s:91118  .debug_str:000000000000ede7 .LASF1270
     /tmp/ccut0Zoi.s:104496  .debug_str:00000000000456ef .LASF1271
     /tmp/ccut0Zoi.s:104696  .debug_str:000000000004648c .LASF1272
     /tmp/ccut0Zoi.s:93712  .debug_str:000000000001942d .LASF1273
     /tmp/ccut0Zoi.s:96186  .debug_str:0000000000023cd3 .LASF1274
     /tmp/ccut0Zoi.s:103710  .debug_str:00000000000424be .LASF1275
     /tmp/ccut0Zoi.s:87712  .debug_str:0000000000000aec .LASF1276
     /tmp/ccut0Zoi.s:94994  .debug_str:000000000001ee21 .LASF1277
     /tmp/ccut0Zoi.s:98036  .debug_str:000000000002b1d8 .LASF1278
     /tmp/ccut0Zoi.s:92250  .debug_str:00000000000135bd .LASF1279
     /tmp/ccut0Zoi.s:89394  .debug_str:0000000000007df1 .LASF1280
     /tmp/ccut0Zoi.s:100442  .debug_str:000000000003520b .LASF1281
     /tmp/ccut0Zoi.s:103018  .debug_str:000000000003f637 .LASF1282
     /tmp/ccut0Zoi.s:92392  .debug_str:0000000000013e8e .LASF1283
     /tmp/ccut0Zoi.s:101592  .debug_str:00000000000395a7 .LASF1284
     /tmp/ccut0Zoi.s:102386  .debug_str:000000000003cb60 .LASF1285
     /tmp/ccut0Zoi.s:88936  .debug_str:0000000000005f80 .LASF1286
     /tmp/ccut0Zoi.s:96530  .debug_str:0000000000024e93 .LASF1287
     /tmp/ccut0Zoi.s:99260  .debug_str:0000000000030298 .LASF1288
     /tmp/ccut0Zoi.s:87774  .debug_str:0000000000000f0d .LASF1289
     /tmp/ccut0Zoi.s:100350  .debug_str:0000000000034c5c .LASF1290
     /tmp/ccut0Zoi.s:92748  .debug_str:00000000000154f7 .LASF1291
     /tmp/ccut0Zoi.s:91858  .debug_str:0000000000011bbf .LASF1292
     /tmp/ccut0Zoi.s:102728  .debug_str:000000000003e178 .LASF1293
     /tmp/ccut0Zoi.s:102808  .debug_str:000000000003e782 .LASF1294
     /tmp/ccut0Zoi.s:94776  .debug_str:000000000001de50 .LASF1295
     /tmp/ccut0Zoi.s:95946  .debug_str:0000000000022d90 .LASF1296
     /tmp/ccut0Zoi.s:103950  .debug_str:000000000004335f .LASF1297
     /tmp/ccut0Zoi.s:94024  .debug_str:000000000001a9c8 .LASF1298
     /tmp/ccut0Zoi.s:101424  .debug_str:0000000000038aa0 .LASF1299
     /tmp/ccut0Zoi.s:105366  .debug_str:00000000000491fb .LASF1300
     /tmp/ccut0Zoi.s:92586  .debug_str:0000000000014a51 .LASF1301
     /tmp/ccut0Zoi.s:98934  .debug_str:000000000002ee37 .LASF1302
     /tmp/ccut0Zoi.s:95754  .debug_str:00000000000220cf .LASF1303
     /tmp/ccut0Zoi.s:90936  .debug_str:000000000000e478 .LASF1304
     /tmp/ccut0Zoi.s:94556  .debug_str:000000000001cf0c .LASF1305
     /tmp/ccut0Zoi.s:101256  .debug_str:0000000000037e96 .LASF1306
     /tmp/ccut0Zoi.s:94038  .debug_str:000000000001ab05 .LASF1307
     /tmp/ccut0Zoi.s:100516  .debug_str:000000000003560d .LASF1308
     /tmp/ccut0Zoi.s:102706  .debug_str:000000000003dfc1 .LASF1309
     /tmp/ccut0Zoi.s:97296  .debug_str:0000000000028236 .LASF1310
     /tmp/ccut0Zoi.s:98572  .debug_str:000000000002d515 .LASF1311
     /tmp/ccut0Zoi.s:96004  .debug_str:0000000000023204 .LASF1312
     /tmp/ccut0Zoi.s:90088  .debug_str:000000000000ad68 .LASF1313
     /tmp/ccut0Zoi.s:91176  .debug_str:000000000000f143 .LASF1314
     /tmp/ccut0Zoi.s:87848  .debug_str:0000000000001413 .LASF1315
     /tmp/ccut0Zoi.s:102628  .debug_str:000000000003daf5 .LASF1316
     /tmp/ccut0Zoi.s:90498  .debug_str:000000000000c9ef .LASF1317
     /tmp/ccut0Zoi.s:93610  .debug_str:0000000000018d21 .LASF1318
     /tmp/ccut0Zoi.s:98466  .debug_str:000000000002cdeb .LASF1319
     /tmp/ccut0Zoi.s:103464  .debug_str:00000000000414cc .LASF1320
     /tmp/ccut0Zoi.s:90698  .debug_str:000000000000d625 .LASF1321
     /tmp/ccut0Zoi.s:95646  .debug_str:00000000000219b9 .LASF1322
     /tmp/ccut0Zoi.s:101116  .debug_str:000000000003772e .LASF1323
     /tmp/ccut0Zoi.s:97996  .debug_str:000000000002af96 .LASF1324
     /tmp/ccut0Zoi.s:92560  .debug_str:00000000000148ce .LASF1325
     /tmp/ccut0Zoi.s:96936  .debug_str:0000000000026a0b .LASF1326
     /tmp/ccut0Zoi.s:102944  .debug_str:000000000003f1ab .LASF1327
     /tmp/ccut0Zoi.s:88152  .debug_str:0000000000002983 .LASF1328
     /tmp/ccut0Zoi.s:94478  .debug_str:000000000001c974 .LASF1329
     /tmp/ccut0Zoi.s:98270  .debug_str:000000000002c02b .LASF1330
     /tmp/ccut0Zoi.s:106122  .debug_str:000000000004c721 .LASF1331
     /tmp/ccut0Zoi.s:102382  .debug_str:000000000003cb1d .LASF1332
     /tmp/ccut0Zoi.s:97710  .debug_str:0000000000029d14 .LASF1333
     /tmp/ccut0Zoi.s:88814  .debug_str:0000000000005821 .LASF1334
     /tmp/ccut0Zoi.s:103914  .debug_str:00000000000430f6 .LASF1335
     /tmp/ccut0Zoi.s:94884  .debug_str:000000000001e650 .LASF1336
     /tmp/ccut0Zoi.s:95896  .debug_str:0000000000022a62 .LASF1337
     /tmp/ccut0Zoi.s:97866  .debug_str:000000000002a6c7 .LASF1338
     /tmp/ccut0Zoi.s:103252  .debug_str:000000000004056c .LASF1339
     /tmp/ccut0Zoi.s:102722  .debug_str:000000000003e0fd .LASF1340
     /tmp/ccut0Zoi.s:104260  .debug_str:000000000004470a .LASF1341
     /tmp/ccut0Zoi.s:94026  .debug_str:000000000001a9e4 .LASF1342
     /tmp/ccut0Zoi.s:92616  .debug_str:0000000000014c36 .LASF1343
     /tmp/ccut0Zoi.s:104584  .debug_str:0000000000045ca6 .LASF1344
     /tmp/ccut0Zoi.s:106070  .debug_str:000000000004c388 .LASF1345
     /tmp/ccut0Zoi.s:93080  .debug_str:0000000000016aa8 .LASF1346
     /tmp/ccut0Zoi.s:100048  .debug_str:000000000003376b .LASF1347
     /tmp/ccut0Zoi.s:103718  .debug_str:0000000000042538 .LASF1348
     /tmp/ccut0Zoi.s:93252  .debug_str:0000000000017626 .LASF1349
     /tmp/ccut0Zoi.s:89026  .debug_str:00000000000065b2 .LASF1350
     /tmp/ccut0Zoi.s:88626  .debug_str:0000000000004ab4 .LASF1351
     /tmp/ccut0Zoi.s:93074  .debug_str:0000000000016a4a .LASF1352
     /tmp/ccut0Zoi.s:102778  .debug_str:000000000003e557 .LASF1353
     /tmp/ccut0Zoi.s:105534  .debug_str:0000000000049db2 .LASF1354
     /tmp/ccut0Zoi.s:98284  .debug_str:000000000002c17c .LASF1355
     /tmp/ccut0Zoi.s:95940  .debug_str:0000000000022d1f .LASF1356
     /tmp/ccut0Zoi.s:95282  .debug_str:00000000000201f8 .LASF1357
     /tmp/ccut0Zoi.s:98018  .debug_str:000000000002b09f .LASF1358
     /tmp/ccut0Zoi.s:94642  .debug_str:000000000001d5ab .LASF1359
     /tmp/ccut0Zoi.s:94056  .debug_str:000000000001ac65 .LASF1360
     /tmp/ccut0Zoi.s:89954  .debug_str:000000000000a3ca .LASF1361
     /tmp/ccut0Zoi.s:103344  .debug_str:0000000000040be8 .LASF1362
     /tmp/ccut0Zoi.s:104194  .debug_str:00000000000442fd .LASF1363
     /tmp/ccut0Zoi.s:94294  .debug_str:000000000001bd5a .LASF1364
     /tmp/ccut0Zoi.s:93710  .debug_str:000000000001940c .LASF1365
     /tmp/ccut0Zoi.s:103436  .debug_str:00000000000412e8 .LASF1366
     /tmp/ccut0Zoi.s:88710  .debug_str:0000000000004ff1 .LASF1367
     /tmp/ccut0Zoi.s:102640  .debug_str:000000000003dbcf .LASF1368
     /tmp/ccut0Zoi.s:104892  .debug_str:0000000000047123 .LASF1369
     /tmp/ccut0Zoi.s:98080  .debug_str:000000000002b502 .LASF1370
     /tmp/ccut0Zoi.s:104092  .debug_str:0000000000043c7c .LASF1371
     /tmp/ccut0Zoi.s:89434  .debug_str:00000000000080f4 .LASF1372
     /tmp/ccut0Zoi.s:96594  .debug_str:0000000000025337 .LASF1373
     /tmp/ccut0Zoi.s:101164  .debug_str:0000000000037a06 .LASF1374
     /tmp/ccut0Zoi.s:102452  .debug_str:000000000003cff4 .LASF1375
     /tmp/ccut0Zoi.s:92614  .debug_str:0000000000014c18 .LASF1376
     /tmp/ccut0Zoi.s:93976  .debug_str:000000000001a6e6 .LASF1377
     /tmp/ccut0Zoi.s:104050  .debug_str:00000000000439c5 .LASF1378
     /tmp/ccut0Zoi.s:103302  .debug_str:0000000000040938 .LASF1379
     /tmp/ccut0Zoi.s:104886  .debug_str:00000000000470d6 .LASF1380
     /tmp/ccut0Zoi.s:89892  .debug_str:0000000000009fb6 .LASF1381
     /tmp/ccut0Zoi.s:99414  .debug_str:0000000000030dc4 .LASF1382
     /tmp/ccut0Zoi.s:95402  .debug_str:0000000000020a67 .LASF1383
     /tmp/ccut0Zoi.s:94058  .debug_str:000000000001ac8e .LASF1384
     /tmp/ccut0Zoi.s:105352  .debug_str:0000000000049110 .LASF1385
     /tmp/ccut0Zoi.s:104286  .debug_str:00000000000448ea .LASF1386
     /tmp/ccut0Zoi.s:96498  .debug_str:0000000000024c97 .LASF1387
     /tmp/ccut0Zoi.s:95800  .debug_str:00000000000223ec .LASF1388
     /tmp/ccut0Zoi.s:89832  .debug_str:0000000000009be3 .LASF1389
     /tmp/ccut0Zoi.s:106038  .debug_str:000000000004c1af .LASF1390
     /tmp/ccut0Zoi.s:97842  .debug_str:000000000002a51b .LASF1391
     /tmp/ccut0Zoi.s:92138  .debug_str:0000000000012e7e .LASF1392
     /tmp/ccut0Zoi.s:98968  .debug_str:000000000002f084 .LASF1393
     /tmp/ccut0Zoi.s:102376  .debug_str:000000000003cace .LASF1394
     /tmp/ccut0Zoi.s:105262  .debug_str:0000000000048ab8 .LASF1395
     /tmp/ccut0Zoi.s:96852  .debug_str:0000000000026446 .LASF1396
     /tmp/ccut0Zoi.s:99278  .debug_str:00000000000303cf .LASF1397
     /tmp/ccut0Zoi.s:98944  .debug_str:000000000002eefe .LASF1398
     /tmp/ccut0Zoi.s:90420  .debug_str:000000000000c482 .LASF1399
     /tmp/ccut0Zoi.s:89210  .debug_str:0000000000007281 .LASF1400
     /tmp/ccut0Zoi.s:95652  .debug_str:0000000000021a06 .LASF1401
     /tmp/ccut0Zoi.s:99548  .debug_str:00000000000316ce .LASF1402
     /tmp/ccut0Zoi.s:105634  .debug_str:000000000004a3a9 .LASF1403
     /tmp/ccut0Zoi.s:90566  .debug_str:000000000000ce5b .LASF1404
     /tmp/ccut0Zoi.s:97554  .debug_str:00000000000292a6 .LASF1405
     /tmp/ccut0Zoi.s:98004  .debug_str:000000000002afe4 .LASF1406
     /tmp/ccut0Zoi.s:87664  .debug_str:00000000000007c7 .LASF1407
     /tmp/ccut0Zoi.s:104750  .debug_str:000000000004686c .LASF1408
     /tmp/ccut0Zoi.s:105694  .debug_str:000000000004a8d1 .LASF1409
     /tmp/ccut0Zoi.s:92088  .debug_str:0000000000012bfc .LASF1410
     /tmp/ccut0Zoi.s:94492  .debug_str:000000000001ca83 .LASF1411
     /tmp/ccut0Zoi.s:98702  .debug_str:000000000002de4d .LASF1412
     /tmp/ccut0Zoi.s:94800  .debug_str:000000000001dfbf .LASF1413
     /tmp/ccut0Zoi.s:94040  .debug_str:000000000001ab27 .LASF1414
     /tmp/ccut0Zoi.s:103972  .debug_str:00000000000434dd .LASF1415
     /tmp/ccut0Zoi.s:89332  .debug_str:00000000000079b4 .LASF1416
     /tmp/ccut0Zoi.s:105662  .debug_str:000000000004a60c .LASF1417
     /tmp/ccut0Zoi.s:100420  .debug_str:0000000000035074 .LASF1418
     /tmp/ccut0Zoi.s:103382  .debug_str:0000000000040f41 .LASF1419
     /tmp/ccut0Zoi.s:97376  .debug_str:000000000002876d .LASF1420
     /tmp/ccut0Zoi.s:99502  .debug_str:00000000000313b5 .LASF1421
     /tmp/ccut0Zoi.s:97478  .debug_str:0000000000028e63 .LASF1422
     /tmp/ccut0Zoi.s:89772  .debug_str:00000000000097f9 .LASF1423
     /tmp/ccut0Zoi.s:102852  .debug_str:000000000003ea9a .LASF1424
     /tmp/ccut0Zoi.s:105222  .debug_str:0000000000048830 .LASF1425
     /tmp/ccut0Zoi.s:98352  .debug_str:000000000002c5dd .LASF1426
     /tmp/ccut0Zoi.s:89872  .debug_str:0000000000009e03 .LASF1427
     /tmp/ccut0Zoi.s:101976  .debug_str:000000000003b033 .LASF1428
     /tmp/ccut0Zoi.s:102228  .debug_str:000000000003c1b5 .LASF1429
     /tmp/ccut0Zoi.s:101142  .debug_str:0000000000037900 .LASF1430
     /tmp/ccut0Zoi.s:90610  .debug_str:000000000000d153 .LASF1431
     /tmp/ccut0Zoi.s:97816  .debug_str:000000000002a368 .LASF1432
     /tmp/ccut0Zoi.s:99662  .debug_str:0000000000031dc7 .LASF1433
     /tmp/ccut0Zoi.s:87616  .debug_str:0000000000000453 .LASF1434
     /tmp/ccut0Zoi.s:90036  .debug_str:000000000000a962 .LASF1435
     /tmp/ccut0Zoi.s:93682  .debug_str:00000000000191e2 .LASF1436
     /tmp/ccut0Zoi.s:89898  .debug_str:000000000000a02e .LASF1437
     /tmp/ccut0Zoi.s:96668  .debug_str:0000000000025861 .LASF1438
     /tmp/ccut0Zoi.s:102660  .debug_str:000000000003dd2a .LASF1439
     /tmp/ccut0Zoi.s:93472  .debug_str:00000000000183be .LASF1440
     /tmp/ccut0Zoi.s:106010  .debug_str:000000000004bff4 .LASF1441
     /tmp/ccut0Zoi.s:94036  .debug_str:000000000001aadb .LASF1442
     /tmp/ccut0Zoi.s:100250  .debug_str:0000000000034552 .LASF1443
     /tmp/ccut0Zoi.s:104742  .debug_str:00000000000467ba .LASF1444
     /tmp/ccut0Zoi.s:102504  .debug_str:000000000003d32b .LASF1445
     /tmp/ccut0Zoi.s:98800  .debug_str:000000000002e50b .LASF1446
     /tmp/ccut0Zoi.s:103622  .debug_str:0000000000041ecb .LASF1447
     /tmp/ccut0Zoi.s:103074  .debug_str:000000000003fa0f .LASF1448
     /tmp/ccut0Zoi.s:96630  .debug_str:00000000000255a6 .LASF1449
     /tmp/ccut0Zoi.s:89358  .debug_str:0000000000007b77 .LASF1450
     /tmp/ccut0Zoi.s:97610  .debug_str:000000000002964b .LASF1451
     /tmp/ccut0Zoi.s:97184  .debug_str:0000000000027b57 .LASF1452
     /tmp/ccut0Zoi.s:92252  .debug_str:00000000000135e0 .LASF1453
     /tmp/ccut0Zoi.s:99108  .debug_str:000000000002f925 .LASF1454
     /tmp/ccut0Zoi.s:93050  .debug_str:0000000000016870 .LASF1455
     /tmp/ccut0Zoi.s:97824  .debug_str:000000000002a3cc .LASF1456
     /tmp/ccut0Zoi.s:89636  .debug_str:0000000000008e9e .LASF1457
     /tmp/ccut0Zoi.s:104188  .debug_str:000000000004429e .LASF1458
     /tmp/ccut0Zoi.s:98786  .debug_str:000000000002e3c4 .LASF1459
     /tmp/ccut0Zoi.s:88732  .debug_str:000000000000516f .LASF1460
     /tmp/ccut0Zoi.s:90478  .debug_str:000000000000c82a .LASF1461
     /tmp/ccut0Zoi.s:88456  .debug_str:0000000000003eaf .LASF1462
     /tmp/ccut0Zoi.s:92954  .debug_str:0000000000016225 .LASF1463
     /tmp/ccut0Zoi.s:89578  .debug_str:0000000000008aba .LASF1464
     /tmp/ccut0Zoi.s:98826  .debug_str:000000000002e684 .LASF1465
     /tmp/ccut0Zoi.s:100054  .debug_str:00000000000337ca .LASF1466
     /tmp/ccut0Zoi.s:96672  .debug_str:000000000002589d .LASF1467
     /tmp/ccut0Zoi.s:96842  .debug_str:00000000000263a5 .LASF1468
     /tmp/ccut0Zoi.s:91928  .debug_str:0000000000012062 .LASF1469
     /tmp/ccut0Zoi.s:100812  .debug_str:000000000003682d .LASF1470
     /tmp/ccut0Zoi.s:91012  .debug_str:000000000000e79a .LASF1471
     /tmp/ccut0Zoi.s:88356  .debug_str:00000000000037b8 .LASF1472
     /tmp/ccut0Zoi.s:105888  .debug_str:000000000004b7c0 .LASF1473
     /tmp/ccut0Zoi.s:98266  .debug_str:000000000002bfe3 .LASF1474
     /tmp/ccut0Zoi.s:100776  .debug_str:00000000000365c3 .LASF1475
     /tmp/ccut0Zoi.s:105624  .debug_str:000000000004a2f9 .LASF1476
     /tmp/ccut0Zoi.s:95232  .debug_str:000000000001fe91 .LASF1477
     /tmp/ccut0Zoi.s:95346  .debug_str:000000000002068c .LASF1478
     /tmp/ccut0Zoi.s:95772  .debug_str:00000000000221e7 .LASF1479
     /tmp/ccut0Zoi.s:90410  .debug_str:000000000000c3c3 .LASF1480
     /tmp/ccut0Zoi.s:100286  .debug_str:00000000000347dc .LASF1481
     /tmp/ccut0Zoi.s:99966  .debug_str:000000000003318f .LASF1482
     /tmp/ccut0Zoi.s:90194  .debug_str:000000000000b587 .LASF1483
     /tmp/ccut0Zoi.s:91818  .debug_str:000000000001194c .LASF1484
     /tmp/ccut0Zoi.s:97408  .debug_str:0000000000028967 .LASF1485
     /tmp/ccut0Zoi.s:90592  .debug_str:000000000000d018 .LASF1486
     /tmp/ccut0Zoi.s:102266  .debug_str:000000000003c423 .LASF1487
     /tmp/ccut0Zoi.s:88144  .debug_str:0000000000002916 .LASF1488
     /tmp/ccut0Zoi.s:99272  .debug_str:0000000000030358 .LASF1489
     /tmp/ccut0Zoi.s:101360  .debug_str:0000000000038614 .LASF1490
     /tmp/ccut0Zoi.s:102796  .debug_str:000000000003e6e2 .LASF1491
     /tmp/ccut0Zoi.s:93548  .debug_str:0000000000018902 .LASF1492
     /tmp/ccut0Zoi.s:98482  .debug_str:000000000002cef7 .LASF1493
     /tmp/ccut0Zoi.s:99050  .debug_str:000000000002f58b .LASF1494
     /tmp/ccut0Zoi.s:92422  .debug_str:0000000000014056 .LASF1495
     /tmp/ccut0Zoi.s:98956  .debug_str:000000000002ef9e .LASF1496
     /tmp/ccut0Zoi.s:90582  .debug_str:000000000000cf60 .LASF1497
     /tmp/ccut0Zoi.s:95960  .debug_str:0000000000022e91 .LASF1498
     /tmp/ccut0Zoi.s:98930  .debug_str:000000000002edd4 .LASF1499
     /tmp/ccut0Zoi.s:92184  .debug_str:00000000000131a4 .LASF1500
     /tmp/ccut0Zoi.s:88022  .debug_str:000000000000208a .LASF1501
     /tmp/ccut0Zoi.s:94228  .debug_str:000000000001b8ac .LASF1502
     /tmp/ccut0Zoi.s:90726  .debug_str:000000000000d7ef .LASF1503
     /tmp/ccut0Zoi.s:101336  .debug_str:0000000000038450 .LASF1504
     /tmp/ccut0Zoi.s:98966  .debug_str:000000000002f05a .LASF1505
     /tmp/ccut0Zoi.s:94152  .debug_str:000000000001b339 .LASF1506
     /tmp/ccut0Zoi.s:97476  .debug_str:0000000000028e3d .LASF1507
     /tmp/ccut0Zoi.s:103982  .debug_str:00000000000435cc .LASF1508
     /tmp/ccut0Zoi.s:89624  .debug_str:0000000000008dcf .LASF1509
     /tmp/ccut0Zoi.s:102122  .debug_str:000000000003ba6e .LASF1510
     /tmp/ccut0Zoi.s:95850  .debug_str:000000000002277d .LASF1511
     /tmp/ccut0Zoi.s:99088  .debug_str:000000000002f7c4 .LASF1512
     /tmp/ccut0Zoi.s:89814  .debug_str:0000000000009a93 .LASF1513
     /tmp/ccut0Zoi.s:92668  .debug_str:0000000000014fd1 .LASF1514
     /tmp/ccut0Zoi.s:90352  .debug_str:000000000000bfbd .LASF1515
     /tmp/ccut0Zoi.s:98340  .debug_str:000000000002c534 .LASF1516
     /tmp/ccut0Zoi.s:95030  .debug_str:000000000001f128 .LASF1517
     /tmp/ccut0Zoi.s:94590  .debug_str:000000000001d1b3 .LASF1518
     /tmp/ccut0Zoi.s:91342  .debug_str:000000000000faac .LASF1519
     /tmp/ccut0Zoi.s:96648  .debug_str:00000000000256ea .LASF1520
     /tmp/ccut0Zoi.s:91602  .debug_str:0000000000010aa6 .LASF1521
     /tmp/ccut0Zoi.s:103092  .debug_str:000000000003fb69 .LASF1522
     /tmp/ccut0Zoi.s:99988  .debug_str:0000000000033335 .LASF1523
     /tmp/ccut0Zoi.s:88944  .debug_str:0000000000005fe5 .LASF1524
     /tmp/ccut0Zoi.s:91156  .debug_str:000000000000ef82 .LASF1525
     /tmp/ccut0Zoi.s:99016  .debug_str:000000000002f378 .LASF1526
     /tmp/ccut0Zoi.s:102574  .debug_str:000000000003d7ed .LASF1527
     /tmp/ccut0Zoi.s:96108  .debug_str:0000000000023855 .LASF1528
     /tmp/ccut0Zoi.s:102478  .debug_str:000000000003d17f .LASF1529
     /tmp/ccut0Zoi.s:88900  .debug_str:0000000000005d59 .LASF1530
     /tmp/ccut0Zoi.s:94066  .debug_str:000000000001ad23 .LASF1531
     /tmp/ccut0Zoi.s:105166  .debug_str:00000000000483f8 .LASF1532
     /tmp/ccut0Zoi.s:97762  .debug_str:000000000002a066 .LASF1533
     /tmp/ccut0Zoi.s:94090  .debug_str:000000000001aeda .LASF1534
     /tmp/ccut0Zoi.s:91836  .debug_str:0000000000011a83 .LASF1535
     /tmp/ccut0Zoi.s:88700  .debug_str:0000000000004f66 .LASF1536
     /tmp/ccut0Zoi.s:95272  .debug_str:000000000002014f .LASF1537
     /tmp/ccut0Zoi.s:91720  .debug_str:000000000001122d .LASF1538
     /tmp/ccut0Zoi.s:87950  .debug_str:0000000000001b70 .LASF1539
     /tmp/ccut0Zoi.s:94016  .debug_str:000000000001a944 .LASF1540
     /tmp/ccut0Zoi.s:103358  .debug_str:0000000000040d23 .LASF1541
     /tmp/ccut0Zoi.s:97022  .debug_str:0000000000026f6e .LASF1542
     /tmp/ccut0Zoi.s:94736  .debug_str:000000000001dbf6 .LASF1543
     /tmp/ccut0Zoi.s:99582  .debug_str:00000000000318d9 .LASF1544
     /tmp/ccut0Zoi.s:99492  .debug_str:00000000000312fb .LASF1545
     /tmp/ccut0Zoi.s:93720  .debug_str:00000000000194c4 .LASF1546
     /tmp/ccut0Zoi.s:102686  .debug_str:000000000003dee0 .LASF1547
     /tmp/ccut0Zoi.s:104270  .debug_str:00000000000447b5 .LASF1548
     /tmp/ccut0Zoi.s:89372  .debug_str:0000000000007c57 .LASF1549
     /tmp/ccut0Zoi.s:93516  .debug_str:00000000000186b8 .LASF1550
     /tmp/ccut0Zoi.s:101558  .debug_str:00000000000393e5 .LASF1551
     /tmp/ccut0Zoi.s:104436  .debug_str:000000000004537d .LASF1552
     /tmp/ccut0Zoi.s:99438  .debug_str:0000000000030faf .LASF1553
     /tmp/ccut0Zoi.s:104900  .debug_str:00000000000471b3 .LASF1554
     /tmp/ccut0Zoi.s:95502  .debug_str:000000000002103e .LASF1555
     /tmp/ccut0Zoi.s:99716  .debug_str:0000000000032183 .LASF1556
     /tmp/ccut0Zoi.s:89234  .debug_str:0000000000007412 .LASF1557
     /tmp/ccut0Zoi.s:104818  .debug_str:0000000000046cde .LASF1558
     /tmp/ccut0Zoi.s:93446  .debug_str:00000000000181dc .LASF1559
     /tmp/ccut0Zoi.s:100690  .debug_str:00000000000360b8 .LASF1560
     /tmp/ccut0Zoi.s:100364  .debug_str:0000000000034d2e .LASF1561
     /tmp/ccut0Zoi.s:94970  .debug_str:000000000001ebf2 .LASF1562
     /tmp/ccut0Zoi.s:97090  .debug_str:0000000000027475 .LASF1563
     /tmp/ccut0Zoi.s:104934  .debug_str:000000000004744b .LASF1564
     /tmp/ccut0Zoi.s:103738  .debug_str:000000000004267e .LASF1565
     /tmp/ccut0Zoi.s:96216  .debug_str:0000000000023e8f .LASF1566
     /tmp/ccut0Zoi.s:88488  .debug_str:0000000000004163 .LASF1567
     /tmp/ccut0Zoi.s:102410  .debug_str:000000000003cd1f .LASF1568
     /tmp/ccut0Zoi.s:89518  .debug_str:0000000000008636 .LASF1569
     /tmp/ccut0Zoi.s:105016  .debug_str:0000000000047992 .LASF1570
     /tmp/ccut0Zoi.s:99894  .debug_str:0000000000032d58 .LASF1571
     /tmp/ccut0Zoi.s:105380  .debug_str:00000000000492e9 .LASF1572
     /tmp/ccut0Zoi.s:95708  .debug_str:0000000000021dce .LASF1573
     /tmp/ccut0Zoi.s:93854  .debug_str:0000000000019ef3 .LASF1574
     /tmp/ccut0Zoi.s:105846  .debug_str:000000000004b46e .LASF1575
     /tmp/ccut0Zoi.s:91048  .debug_str:000000000000ea5d .LASF1576
     /tmp/ccut0Zoi.s:102418  .debug_str:000000000003cdc2 .LASF1577
     /tmp/ccut0Zoi.s:103118  .debug_str:000000000003fd2d .LASF1578
     /tmp/ccut0Zoi.s:104444  .debug_str:00000000000453df .LASF1579
     /tmp/ccut0Zoi.s:96370  .debug_str:00000000000245e8 .LASF1580
     /tmp/ccut0Zoi.s:97828  .debug_str:000000000002a404 .LASF1581
     /tmp/ccut0Zoi.s:104086  .debug_str:0000000000043c0e .LASF1582
     /tmp/ccut0Zoi.s:87560  .debug_str:0000000000000069 .LASF1583
     /tmp/ccut0Zoi.s:95616  .debug_str:00000000000217ae .LASF1584
     /tmp/ccut0Zoi.s:97654  .debug_str:0000000000029920 .LASF1585
     /tmp/ccut0Zoi.s:92418  .debug_str:0000000000014013 .LASF1586
     /tmp/ccut0Zoi.s:88796  .debug_str:00000000000056bb .LASF1587
     /tmp/ccut0Zoi.s:102046  .debug_str:000000000003b500 .LASF1588
     /tmp/ccut0Zoi.s:96752  .debug_str:0000000000025cfd .LASF1589
     /tmp/ccut0Zoi.s:88116  .debug_str:000000000000276c .LASF1590
     /tmp/ccut0Zoi.s:97748  .debug_str:0000000000029f7d .LASF1591
     /tmp/ccut0Zoi.s:98474  .debug_str:000000000002cea2 .LASF1592
     /tmp/ccut0Zoi.s:88896  .debug_str:0000000000005ce9 .LASF1593
     /tmp/ccut0Zoi.s:93146  .debug_str:0000000000016f94 .LASF1594
     /tmp/ccut0Zoi.s:90040  .debug_str:000000000000a9c0 .LASF1595
     /tmp/ccut0Zoi.s:105072  .debug_str:0000000000047d27 .LASF1596
     /tmp/ccut0Zoi.s:101500  .debug_str:0000000000038f5b .LASF1597
     /tmp/ccut0Zoi.s:95858  .debug_str:00000000000227f7 .LASF1598
     /tmp/ccut0Zoi.s:94550  .debug_str:000000000001ce9b .LASF1599
     /tmp/ccut0Zoi.s:105482  .debug_str:00000000000499bb .LASF1600
     /tmp/ccut0Zoi.s:105640  .debug_str:000000000004a3ef .LASF1601
     /tmp/ccut0Zoi.s:95998  .debug_str:0000000000023197 .LASF1602
     /tmp/ccut0Zoi.s:91692  .debug_str:0000000000011022 .LASF1603
     /tmp/ccut0Zoi.s:100806  .debug_str:00000000000367b1 .LASF1604
     /tmp/ccut0Zoi.s:95002  .debug_str:000000000001eed7 .LASF1605
     /tmp/ccut0Zoi.s:101676  .debug_str:0000000000039b7a .LASF1606
     /tmp/ccut0Zoi.s:94458  .debug_str:000000000001c81b .LASF1607
     /tmp/ccut0Zoi.s:91716  .debug_str:00000000000111d6 .LASF1608
     /tmp/ccut0Zoi.s:88978  .debug_str:000000000000622d .LASF1609
     /tmp/ccut0Zoi.s:99080  .debug_str:000000000002f758 .LASF1610
     /tmp/ccut0Zoi.s:92554  .debug_str:0000000000014860 .LASF1611
     /tmp/ccut0Zoi.s:105444  .debug_str:0000000000049707 .LASF1612
     /tmp/ccut0Zoi.s:94504  .debug_str:000000000001cb9e .LASF1613
     /tmp/ccut0Zoi.s:91526  .debug_str:00000000000105ea .LASF1614
     /tmp/ccut0Zoi.s:103784  .debug_str:0000000000042979 .LASF1615
     /tmp/ccut0Zoi.s:98106  .debug_str:000000000002b66c .LASF1616
     /tmp/ccut0Zoi.s:99030  .debug_str:000000000002f47b .LASF1617
     /tmp/ccut0Zoi.s:88400  .debug_str:0000000000003aba .LASF1618
     /tmp/ccut0Zoi.s:88172  .debug_str:0000000000002b4d .LASF1619
     /tmp/ccut0Zoi.s:89992  .debug_str:000000000000a69c .LASF1620
     /tmp/ccut0Zoi.s:102306  .debug_str:000000000003c703 .LASF1621
     /tmp/ccut0Zoi.s:91322  .debug_str:000000000000f964 .LASF1622
     /tmp/ccut0Zoi.s:90130  .debug_str:000000000000b0b0 .LASF1623
     /tmp/ccut0Zoi.s:100592  .debug_str:0000000000035a71 .LASF1624
     /tmp/ccut0Zoi.s:104200  .debug_str:0000000000044368 .LASF1625
     /tmp/ccut0Zoi.s:90906  .debug_str:000000000000e292 .LASF1626
     /tmp/ccut0Zoi.s:88030  .debug_str:0000000000002103 .LASF1627
     /tmp/ccut0Zoi.s:94718  .debug_str:000000000001da9b .LASF1628
     /tmp/ccut0Zoi.s:102174  .debug_str:000000000003be2d .LASF1629
     /tmp/ccut0Zoi.s:103890  .debug_str:0000000000042f8f .LASF1630
     /tmp/ccut0Zoi.s:101428  .debug_str:0000000000038af1 .LASF1631
     /tmp/ccut0Zoi.s:104072  .debug_str:0000000000043b61 .LASF1632
     /tmp/ccut0Zoi.s:96734  .debug_str:0000000000025c29 .LASF1633
     /tmp/ccut0Zoi.s:94472  .debug_str:000000000001c90c .LASF1634
     /tmp/ccut0Zoi.s:88758  .debug_str:000000000000537a .LASF1635
     /tmp/ccut0Zoi.s:102792  .debug_str:000000000003e682 .LASF1636
     /tmp/ccut0Zoi.s:102910  .debug_str:000000000003ef5d .LASF1637
     /tmp/ccut0Zoi.s:95518  .debug_str:000000000002118f .LASF1638
     /tmp/ccut0Zoi.s:105350  .debug_str:00000000000490f5 .LASF1639
     /tmp/ccut0Zoi.s:92216  .debug_str:000000000001339f .LASF1640
     /tmp/ccut0Zoi.s:100804  .debug_str:0000000000036796 .LASF1641
     /tmp/ccut0Zoi.s:106112  .debug_str:000000000004c672 .LASF1642
     /tmp/ccut0Zoi.s:103708  .debug_str:00000000000424a3 .LASF1643
     /tmp/ccut0Zoi.s:105546  .debug_str:0000000000049e99 .LASF1644
     /tmp/ccut0Zoi.s:95270  .debug_str:0000000000020127 .LASF1645
     /tmp/ccut0Zoi.s:87744  .debug_str:0000000000000d07 .LASF1646
     /tmp/ccut0Zoi.s:104364  .debug_str:0000000000044e3d .LASF1647
     /tmp/ccut0Zoi.s:94460  .debug_str:000000000001c844 .LASF1648
     /tmp/ccut0Zoi.s:104854  .debug_str:0000000000046f31 .LASF1649
     /tmp/ccut0Zoi.s:89742  .debug_str:0000000000009639 .LASF1650
     /tmp/ccut0Zoi.s:95324  .debug_str:00000000000204f4 .LASF1651
     /tmp/ccut0Zoi.s:96512  .debug_str:0000000000024d7b .LASF1652
     /tmp/ccut0Zoi.s:91340  .debug_str:000000000000fa83 .LASF1653
     /tmp/ccut0Zoi.s:91892  .debug_str:0000000000011df0 .LASF1654
     /tmp/ccut0Zoi.s:105758  .debug_str:000000000004ae69 .LASF1655
     /tmp/ccut0Zoi.s:100584  .debug_str:0000000000035a28 .LASF1656
     /tmp/ccut0Zoi.s:90682  .debug_str:000000000000d535 .LASF1657
     /tmp/ccut0Zoi.s:89602  .debug_str:0000000000008bf9 .LASF1658
     /tmp/ccut0Zoi.s:100122  .debug_str:0000000000033cff .LASF1659
     /tmp/ccut0Zoi.s:103078  .debug_str:000000000003fa55 .LASF1660
     /tmp/ccut0Zoi.s:97338  .debug_str:00000000000284c7 .LASF1661
     /tmp/ccut0Zoi.s:98582  .debug_str:000000000002d5a5 .LASF1662
     /tmp/ccut0Zoi.s:91650  .debug_str:0000000000010d0e .LASF1663
     /tmp/ccut0Zoi.s:99888  .debug_str:0000000000032ced .LASF1664
     /tmp/ccut0Zoi.s:98920  .debug_str:000000000002ed12 .LASF1665
     /tmp/ccut0Zoi.s:95252  .debug_str:000000000001ffe8 .LASF1666
     /tmp/ccut0Zoi.s:89208  .debug_str:0000000000007258 .LASF1667
     /tmp/ccut0Zoi.s:93076  .debug_str:0000000000016a74 .LASF1668
     /tmp/ccut0Zoi.s:93042  .debug_str:00000000000167c5 .LASF1669
     /tmp/ccut0Zoi.s:88284  .debug_str:0000000000003355 .LASF1670
     /tmp/ccut0Zoi.s:102162  .debug_str:000000000003bd51 .LASF1671
     /tmp/ccut0Zoi.s:88712  .debug_str:0000000000005014 .LASF1672
     /tmp/ccut0Zoi.s:94570  .debug_str:000000000001d047 .LASF1673
     /tmp/ccut0Zoi.s:100398  .debug_str:0000000000034ee8 .LASF1674
     /tmp/ccut0Zoi.s:97644  .debug_str:00000000000298b6 .LASF1675
     /tmp/ccut0Zoi.s:103098  .debug_str:000000000003fbf4 .LASF1676
     /tmp/ccut0Zoi.s:103828  .debug_str:0000000000042bb5 .LASF1677
     /tmp/ccut0Zoi.s:101890  .debug_str:000000000003aae5 .LASF1678
     /tmp/ccut0Zoi.s:92834  .debug_str:0000000000015a71 .LASF1679
     /tmp/ccut0Zoi.s:95868  .debug_str:000000000002286d .LASF1680
     /tmp/ccut0Zoi.s:88864  .debug_str:0000000000005b1c .LASF1681
     /tmp/ccut0Zoi.s:91182  .debug_str:000000000000f1ba .LASF1682
     /tmp/ccut0Zoi.s:94378  .debug_str:000000000001c2a9 .LASF1683
     /tmp/ccut0Zoi.s:98962  .debug_str:000000000002f000 .LASF1684
     /tmp/ccut0Zoi.s:105526  .debug_str:0000000000049d2a .LASF1685
     /tmp/ccut0Zoi.s:104600  .debug_str:0000000000045d91 .LASF1686
     /tmp/ccut0Zoi.s:100444  .debug_str:000000000003522e .LASF1687
     /tmp/ccut0Zoi.s:104606  .debug_str:0000000000045deb .LASF1688
     /tmp/ccut0Zoi.s:98068  .debug_str:000000000002b458 .LASF1689
     /tmp/ccut0Zoi.s:101734  .debug_str:0000000000039ffa .LASF1690
     /tmp/ccut0Zoi.s:93820  .debug_str:0000000000019c64 .LASF1691
     /tmp/ccut0Zoi.s:106052  .debug_str:000000000004c23f .LASF1692
     /tmp/ccut0Zoi.s:89976  .debug_str:000000000000a542 .LASF1693
     /tmp/ccut0Zoi.s:102664  .debug_str:000000000003dd58 .LASF1694
     /tmp/ccut0Zoi.s:95958  .debug_str:0000000000022e68 .LASF1695
     /tmp/ccut0Zoi.s:99960  .debug_str:0000000000033112 .LASF1696
     /tmp/ccut0Zoi.s:105086  .debug_str:0000000000047dd1 .LASF1697
     /tmp/ccut0Zoi.s:89654  .debug_str:0000000000008fb6 .LASF1698
     /tmp/ccut0Zoi.s:99952  .debug_str:0000000000033070 .LASF1699
     /tmp/ccut0Zoi.s:103736  .debug_str:000000000004265c .LASF1700
     /tmp/ccut0Zoi.s:90220  .debug_str:000000000000b708 .LASF1701
     /tmp/ccut0Zoi.s:91808  .debug_str:0000000000011880 .LASF1702
     /tmp/ccut0Zoi.s:91642  .debug_str:0000000000010c98 .LASF1703
     /tmp/ccut0Zoi.s:105754  .debug_str:000000000004ae1d .LASF1704
     /tmp/ccut0Zoi.s:100858  .debug_str:0000000000036a2b .LASF1705
     /tmp/ccut0Zoi.s:89528  .debug_str:00000000000086e9 .LASF1706
     /tmp/ccut0Zoi.s:104564  .debug_str:0000000000045b41 .LASF1707
     /tmp/ccut0Zoi.s:103764  .debug_str:00000000000427ff .LASF1708
     /tmp/ccut0Zoi.s:94972  .debug_str:000000000001ec1b .LASF1709
     /tmp/ccut0Zoi.s:102244  .debug_str:000000000003c271 .LASF1710
     /tmp/ccut0Zoi.s:102038  .debug_str:000000000003b492 .LASF1711
     /tmp/ccut0Zoi.s:97728  .debug_str:0000000000029e0e .LASF1712
     /tmp/ccut0Zoi.s:92430  .debug_str:00000000000140be .LASF1713
     /tmp/ccut0Zoi.s:90272  .debug_str:000000000000ba71 .LASF1714
     /tmp/ccut0Zoi.s:93916  .debug_str:000000000001a32a .LASF1715
     /tmp/ccut0Zoi.s:104342  .debug_str:0000000000044c59 .LASF1716
     /tmp/ccut0Zoi.s:103034  .debug_str:000000000003f72c .LASF1717
     /tmp/ccut0Zoi.s:88186  .debug_str:0000000000002c23 .LASF1718
     /tmp/ccut0Zoi.s:88042  .debug_str:00000000000021ea .LASF1719
     /tmp/ccut0Zoi.s:87678  .debug_str:00000000000008df .LASF1720
     /tmp/ccut0Zoi.s:97254  .debug_str:0000000000027efa .LASF1721
     /tmp/ccut0Zoi.s:99922  .debug_str:0000000000032eb5 .LASF1722
     /tmp/ccut0Zoi.s:102854  .debug_str:000000000003eab9 .LASF1723
     /tmp/ccut0Zoi.s:93386  .debug_str:0000000000017e99 .LASF1724
     /tmp/ccut0Zoi.s:101754  .debug_str:000000000003a160 .LASF1725
     /tmp/ccut0Zoi.s:97288  .debug_str:00000000000281bb .LASF1726
     /tmp/ccut0Zoi.s:103744  .debug_str:00000000000426db .LASF1727
     /tmp/ccut0Zoi.s:101942  .debug_str:000000000003ae46 .LASF1728
     /tmp/ccut0Zoi.s:95790  .debug_str:000000000002230f .LASF1729
     /tmp/ccut0Zoi.s:98488  .debug_str:000000000002cf53 .LASF1730
     /tmp/ccut0Zoi.s:102198  .debug_str:000000000003bfb4 .LASF1731
     /tmp/ccut0Zoi.s:93376  .debug_str:0000000000017dd4 .LASF1732
     /tmp/ccut0Zoi.s:99866  .debug_str:0000000000032aee .LASF1733
     /tmp/ccut0Zoi.s:103412  .debug_str:000000000004115a .LASF1734
     /tmp/ccut0Zoi.s:101804  .debug_str:000000000003a508 .LASF1735
     /tmp/ccut0Zoi.s:93664  .debug_str:000000000001912b .LASF1736
     /tmp/ccut0Zoi.s:99598  .debug_str:0000000000031a0c .LASF1737
     /tmp/ccut0Zoi.s:87886  .debug_str:00000000000016a6 .LASF1738
     /tmp/ccut0Zoi.s:89344  .debug_str:0000000000007a7b .LASF1739
     /tmp/ccut0Zoi.s:96348  .debug_str:000000000002446e .LASF1740
     /tmp/ccut0Zoi.s:96872  .debug_str:00000000000265f6 .LASF1741
     /tmp/ccut0Zoi.s:104966  .debug_str:0000000000047632 .LASF1742
     /tmp/ccut0Zoi.s:95148  .debug_str:000000000001f9a2 .LASF1743
     /tmp/ccut0Zoi.s:91910  .debug_str:0000000000011efd .LASF1744
     /tmp/ccut0Zoi.s:87716  .debug_str:0000000000000b38 .LASF1745
     /tmp/ccut0Zoi.s:100532  .debug_str:000000000003573a .LASF1746
     /tmp/ccut0Zoi.s:105162  .debug_str:00000000000483b0 .LASF1747
     /tmp/ccut0Zoi.s:95602  .debug_str:00000000000216a0 .LASF1748
     /tmp/ccut0Zoi.s:101070  .debug_str:0000000000037546 .LASF1749
     /tmp/ccut0Zoi.s:105748  .debug_str:000000000004ad8d .LASF1750
     /tmp/ccut0Zoi.s:98886  .debug_str:000000000002ea80 .LASF1751
     /tmp/ccut0Zoi.s:99876  .debug_str:0000000000032b9b .LASF1752
     /tmp/ccut0Zoi.s:96858  .debug_str:00000000000264b1 .LASF1753
     /tmp/ccut0Zoi.s:94050  .debug_str:000000000001abcf .LASF1754
     /tmp/ccut0Zoi.s:105556  .debug_str:0000000000049f44 .LASF1755
     /tmp/ccut0Zoi.s:103132  .debug_str:000000000003fe5a .LASF1756
     /tmp/ccut0Zoi.s:98100  .debug_str:000000000002b5f2 .LASF1757
     /tmp/ccut0Zoi.s:96456  .debug_str:00000000000249e4 .LASF1758
     /tmp/ccut0Zoi.s:94172  .debug_str:000000000001b4e2 .LASF1759
     /tmp/ccut0Zoi.s:101728  .debug_str:0000000000039f84 .LASF1760
     /tmp/ccut0Zoi.s:90376  .debug_str:000000000000c126 .LASF1761
     /tmp/ccut0Zoi.s:89534  .debug_str:000000000000874e .LASF1762
     /tmp/ccut0Zoi.s:100076  .debug_str:000000000003397e .LASF1763
     /tmp/ccut0Zoi.s:90692  .debug_str:000000000000d5db .LASF1764
     /tmp/ccut0Zoi.s:103136  .debug_str:000000000003fed6 .LASF1765
     /tmp/ccut0Zoi.s:106116  .debug_str:000000000004c6d3 .LASF1766
     /tmp/ccut0Zoi.s:95954  .debug_str:0000000000022e16 .LASF1767
     /tmp/ccut0Zoi.s:102960  .debug_str:000000000003f268 .LASF1768
     /tmp/ccut0Zoi.s:94100  .debug_str:000000000001afad .LASF1769
     /tmp/ccut0Zoi.s:91052  .debug_str:000000000000ea9d .LASF1770
     /tmp/ccut0Zoi.s:97466  .debug_str:0000000000028d77 .LASF1771
     /tmp/ccut0Zoi.s:88064  .debug_str:0000000000002338 .LASF1772
     /tmp/ccut0Zoi.s:88908  .debug_str:0000000000005dce .LASF1773
     /tmp/ccut0Zoi.s:88726  .debug_str:0000000000005105 .LASF1774
     /tmp/ccut0Zoi.s:99280  .debug_str:00000000000303f5 .LASF1775
     /tmp/ccut0Zoi.s:96546  .debug_str:0000000000024faa .LASF1776
     /tmp/ccut0Zoi.s:105828  .debug_str:000000000004b31a .LASF1777
     /tmp/ccut0Zoi.s:99104  .debug_str:000000000002f8f8 .LASF1778
     /tmp/ccut0Zoi.s:91444  .debug_str:00000000000100a2 .LASF1779
     /tmp/ccut0Zoi.s:87634  .debug_str:00000000000005f9 .LASF1780
     /tmp/ccut0Zoi.s:91596  .debug_str:0000000000010a27 .LASF1781
     /tmp/ccut0Zoi.s:95974  .debug_str:0000000000022fae .LASF1782
     /tmp/ccut0Zoi.s:105996  .debug_str:000000000004bece .LASF1783
     /tmp/ccut0Zoi.s:97730  .debug_str:0000000000029e2f .LASF1784
     /tmp/ccut0Zoi.s:87570  .debug_str:0000000000000116 .LASF1785
     /tmp/ccut0Zoi.s:102464  .debug_str:000000000003d091 .LASF1786
     /tmp/ccut0Zoi.s:105508  .debug_str:0000000000049b7c .LASF1787
     /tmp/ccut0Zoi.s:94676  .debug_str:000000000001d7ae .LASF1788
     /tmp/ccut0Zoi.s:99756  .debug_str:00000000000323e0 .LASF1789
     /tmp/ccut0Zoi.s:105012  .debug_str:0000000000047921 .LASF1790
     /tmp/ccut0Zoi.s:97992  .debug_str:000000000002af47 .LASF1791
     /tmp/ccut0Zoi.s:89318  .debug_str:0000000000007907 .LASF1792
     /tmp/ccut0Zoi.s:94112  .debug_str:000000000001b0bc .LASF1793
     /tmp/ccut0Zoi.s:101712  .debug_str:0000000000039e28 .LASF1794
     /tmp/ccut0Zoi.s:89238  .debug_str:000000000000745d .LASF1795
     /tmp/ccut0Zoi.s:99444  .debug_str:0000000000031018 .LASF1796
     /tmp/ccut0Zoi.s:103198  .debug_str:0000000000040221 .LASF1797
     /tmp/ccut0Zoi.s:90212  .debug_str:000000000000b6b7 .LASF1798
     /tmp/ccut0Zoi.s:88832  .debug_str:0000000000005916 .LASF1799
     /tmp/ccut0Zoi.s:102560  .debug_str:000000000003d6f7 .LASF1800
     /tmp/ccut0Zoi.s:101756  .debug_str:000000000003a184 .LASF1801
     /tmp/ccut0Zoi.s:98764  .debug_str:000000000002e22b .LASF1802
     /tmp/ccut0Zoi.s:89296  .debug_str:0000000000007808 .LASF1803
     /tmp/ccut0Zoi.s:100272  .debug_str:00000000000346ed .LASF1804
     /tmp/ccut0Zoi.s:103954  .debug_str:000000000004338c .LASF1805
     /tmp/ccut0Zoi.s:88326  .debug_str:000000000000356f .LASF1806
     /tmp/ccut0Zoi.s:101956  .debug_str:000000000003af37 .LASF1807
     /tmp/ccut0Zoi.s:101246  .debug_str:0000000000037ddf .LASF1808
     /tmp/ccut0Zoi.s:99938  .debug_str:0000000000032f8b .LASF1809
     /tmp/ccut0Zoi.s:95278  .debug_str:00000000000201b1 .LASF1810
     /tmp/ccut0Zoi.s:100456  .debug_str:0000000000035303 .LASF1811
     /tmp/ccut0Zoi.s:92816  .debug_str:00000000000158e1 .LASF1812
     /tmp/ccut0Zoi.s:92890  .debug_str:0000000000015e16 .LASF1813
     /tmp/ccut0Zoi.s:103428  .debug_str:0000000000041253 .LASF1814
     /tmp/ccut0Zoi.s:89140  .debug_str:0000000000006df6 .LASF1815
     /tmp/ccut0Zoi.s:92038  .debug_str:00000000000127eb .LASF1816
     /tmp/ccut0Zoi.s:88562  .debug_str:00000000000045d7 .LASF1817
     /tmp/ccut0Zoi.s:98258  .debug_str:000000000002bf6c .LASF1818
     /tmp/ccut0Zoi.s:93780  .debug_str:000000000001991c .LASF1819
     /tmp/ccut0Zoi.s:103796  .debug_str:00000000000429f2 .LASF1820
     /tmp/ccut0Zoi.s:100268  .debug_str:00000000000346c5 .LASF1821
     /tmp/ccut0Zoi.s:89470  .debug_str:0000000000008323 .LASF1822
     /tmp/ccut0Zoi.s:101780  .debug_str:000000000003a31c .LASF1823
     /tmp/ccut0Zoi.s:91782  .debug_str:0000000000011666 .LASF1824
     /tmp/ccut0Zoi.s:103298  .debug_str:00000000000408d4 .LASF1825
     /tmp/ccut0Zoi.s:97778  .debug_str:000000000002a199 .LASF1826
     /tmp/ccut0Zoi.s:94364  .debug_str:000000000001c1b8 .LASF1827
     /tmp/ccut0Zoi.s:94656  .debug_str:000000000001d686 .LASF1828
     /tmp/ccut0Zoi.s:104456  .debug_str:0000000000045485 .LASF1829
     /tmp/ccut0Zoi.s:95250  .debug_str:000000000001ffc4 .LASF1830
     /tmp/ccut0Zoi.s:95990  .debug_str:00000000000230c6 .LASF1831
     /tmp/ccut0Zoi.s:103406  .debug_str:00000000000410f3 .LASF1832
     /tmp/ccut0Zoi.s:91138  .debug_str:000000000000eeb4 .LASF1833
     /tmp/ccut0Zoi.s:93816  .debug_str:0000000000019bff .LASF1834
     /tmp/ccut0Zoi.s:94864  .debug_str:000000000001e4f8 .LASF1835
     /tmp/ccut0Zoi.s:95870  .debug_str:0000000000022895 .LASF1836
     /tmp/ccut0Zoi.s:95878  .debug_str:0000000000022916 .LASF1837
     /tmp/ccut0Zoi.s:96916  .debug_str:00000000000268d0 .LASF1838
     /tmp/ccut0Zoi.s:98654  .debug_str:000000000002db44 .LASF1839
     /tmp/ccut0Zoi.s:90282  .debug_str:000000000000bb0d .LASF1840
     /tmp/ccut0Zoi.s:97258  .debug_str:0000000000027f50 .LASF1841
     /tmp/ccut0Zoi.s:92496  .debug_str:0000000000014481 .LASF1842
     /tmp/ccut0Zoi.s:98316  .debug_str:000000000002c392 .LASF1843
     /tmp/ccut0Zoi.s:96022  .debug_str:0000000000023353 .LASF1844
     /tmp/ccut0Zoi.s:105606  .debug_str:000000000004a1f9 .LASF1845
     /tmp/ccut0Zoi.s:98172  .debug_str:000000000002ba2f .LASF1846
     /tmp/ccut0Zoi.s:104676  .debug_str:00000000000462e9 .LASF1847
     /tmp/ccut0Zoi.s:102238  .debug_str:000000000003c23c .LASF1848
     /tmp/ccut0Zoi.s:92932  .debug_str:000000000001611b .LASF1849
     /tmp/ccut0Zoi.s:89894  .debug_str:0000000000009fdd .LASF1850
     /tmp/ccut0Zoi.s:95034  .debug_str:000000000001f155 .LASF1851
     /tmp/ccut0Zoi.s:95932  .debug_str:0000000000022c76 .LASF1852
     /tmp/ccut0Zoi.s:104136  .debug_str:0000000000043ea7 .LASF1853
     /tmp/ccut0Zoi.s:102084  .debug_str:000000000003b7a4 .LASF1854
     /tmp/ccut0Zoi.s:100280  .debug_str:0000000000034759 .LASF1855
     /tmp/ccut0Zoi.s:89298  .debug_str:0000000000007834 .LASF1856
     /tmp/ccut0Zoi.s:99486  .debug_str:00000000000312bf .LASF1857
     /tmp/ccut0Zoi.s:95378  .debug_str:00000000000208c6 .LASF1858
     /tmp/ccut0Zoi.s:102482  .debug_str:000000000003d1cc .LASF1859
     /tmp/ccut0Zoi.s:93726  .debug_str:0000000000019533 .LASF1860
     /tmp/ccut0Zoi.s:96506  .debug_str:0000000000024d20 .LASF1861
     /tmp/ccut0Zoi.s:92278  .debug_str:0000000000013782 .LASF1862
     /tmp/ccut0Zoi.s:90384  .debug_str:000000000000c1e1 .LASF1863
     /tmp/ccut0Zoi.s:91512  .debug_str:00000000000104d5 .LASF1864
     /tmp/ccut0Zoi.s:105044  .debug_str:0000000000047b1a .LASF1865
     /tmp/ccut0Zoi.s:90186  .debug_str:000000000000b4e3 .LASF1866
     /tmp/ccut0Zoi.s:97220  .debug_str:0000000000027d80 .LASF1867
     /tmp/ccut0Zoi.s:88808  .debug_str:00000000000057a2 .LASF1868
     /tmp/ccut0Zoi.s:87808  .debug_str:000000000000116b .LASF1869
     /tmp/ccut0Zoi.s:90568  .debug_str:000000000000ce79 .LASF1870
     /tmp/ccut0Zoi.s:93738  .debug_str:0000000000019604 .LASF1871
     /tmp/ccut0Zoi.s:105698  .debug_str:000000000004a936 .LASF1872
     /tmp/ccut0Zoi.s:91986  .debug_str:000000000001245c .LASF1873
     /tmp/ccut0Zoi.s:101910  .debug_str:000000000003ac0b .LASF1874
     /tmp/ccut0Zoi.s:105804  .debug_str:000000000004b19e .LASF1875
     /tmp/ccut0Zoi.s:98250  .debug_str:000000000002bf02 .LASF1876
     /tmp/ccut0Zoi.s:93116  .debug_str:0000000000016d5e .LASF1877
     /tmp/ccut0Zoi.s:94320  .debug_str:000000000001bf3a .LASF1878
     /tmp/ccut0Zoi.s:99110  .debug_str:000000000002f950 .LASF1879
     /tmp/ccut0Zoi.s:103820  .debug_str:0000000000042b72 .LASF1880
     /tmp/ccut0Zoi.s:106264  .debug_str:000000000004d0fe .LASF1881
     /tmp/ccut0Zoi.s:97868  .debug_str:000000000002a6ef .LASF1882
     /tmp/ccut0Zoi.s:104332  .debug_str:0000000000044bcd .LASF1883
     /tmp/ccut0Zoi.s:91776  .debug_str:0000000000011603 .LASF1884
     /tmp/ccut0Zoi.s:103602  .debug_str:0000000000041d91 .LASF1885
     /tmp/ccut0Zoi.s:104502  .debug_str:000000000004575d .LASF1886
     /tmp/ccut0Zoi.s:104608  .debug_str:0000000000045e0a .LASF1887
     /tmp/ccut0Zoi.s:98558  .debug_str:000000000002d485 .LASF1888
     /tmp/ccut0Zoi.s:100968  .debug_str:0000000000036fd8 .LASF1889
     /tmp/ccut0Zoi.s:90940  .debug_str:000000000000e4be .LASF1890
     /tmp/ccut0Zoi.s:90586  .debug_str:000000000000cf95 .LASF1891
     /tmp/ccut0Zoi.s:100422  .debug_str:0000000000035093 .LASF1892
     /tmp/ccut0Zoi.s:95714  .debug_str:0000000000021e11 .LASF1893
     /tmp/ccut0Zoi.s:89166  .debug_str:0000000000006fd9 .LASF1894
     /tmp/ccut0Zoi.s:100944  .debug_str:0000000000036e69 .LASF1895
     /tmp/ccut0Zoi.s:100482  .debug_str:000000000003546a .LASF1896
     /tmp/ccut0Zoi.s:106046  .debug_str:000000000004c1f8 .LASF1897
     /tmp/ccut0Zoi.s:91066  .debug_str:000000000000eaf1 .LASF1898
     /tmp/ccut0Zoi.s:92482  .debug_str:00000000000143a1 .LASF1899
     /tmp/ccut0Zoi.s:89860  .debug_str:0000000000009cfb .LASF1900
     /tmp/ccut0Zoi.s:88112  .debug_str:0000000000002703 .LASF1901
     /tmp/ccut0Zoi.s:101878  .debug_str:000000000003a9f1 .LASF1902
     /tmp/ccut0Zoi.s:98468  .debug_str:000000000002ce0c .LASF1903
     /tmp/ccut0Zoi.s:93100  .debug_str:0000000000016c4b .LASF1904
     /tmp/ccut0Zoi.s:88806  .debug_str:0000000000005781 .LASF1905
     /tmp/ccut0Zoi.s:103294  .debug_str:000000000004088b .LASF1906
     /tmp/ccut0Zoi.s:89002  .debug_str:00000000000063ed .LASF1907
     /tmp/ccut0Zoi.s:87836  .debug_str:0000000000001349 .LASF1908
     /tmp/ccut0Zoi.s:105772  .debug_str:000000000004af74 .LASF1909
     /tmp/ccut0Zoi.s:97926  .debug_str:000000000002aaaf .LASF1910
     /tmp/ccut0Zoi.s:99226  .debug_str:00000000000300c4 .LASF1911
     /tmp/ccut0Zoi.s:95976  .debug_str:0000000000022fd8 .LASF1912
     /tmp/ccut0Zoi.s:98234  .debug_str:000000000002bddd .LASF1913
     /tmp/ccut0Zoi.s:103766  .debug_str:0000000000042821 .LASF1914
     /tmp/ccut0Zoi.s:92730  .debug_str:000000000001541b .LASF1915
     /tmp/ccut0Zoi.s:105922  .debug_str:000000000004b9d4 .LASF1916
     /tmp/ccut0Zoi.s:91862  .debug_str:0000000000011be8 .LASF1917
     /tmp/ccut0Zoi.s:92664  .debug_str:0000000000014f87 .LASF1918
     /tmp/ccut0Zoi.s:104130  .debug_str:0000000000043e6b .LASF1919
     /tmp/ccut0Zoi.s:96548  .debug_str:0000000000024fd6 .LASF1920
     /tmp/ccut0Zoi.s:95654  .debug_str:0000000000021a2c .LASF1921
     /tmp/ccut0Zoi.s:88324  .debug_str:0000000000003544 .LASF1922
     /tmp/ccut0Zoi.s:105876  .debug_str:000000000004b6be .LASF1923
     /tmp/ccut0Zoi.s:98432  .debug_str:000000000002cb8a .LASF1924
     /tmp/ccut0Zoi.s:97626  .debug_str:00000000000297be .LASF1925
     /tmp/ccut0Zoi.s:89520  .debug_str:0000000000008657 .LASF1926
     /tmp/ccut0Zoi.s:106186  .debug_str:000000000004cbb7 .LASF1927
     /tmp/ccut0Zoi.s:91696  .debug_str:0000000000011077 .LASF1928
     /tmp/ccut0Zoi.s:105314  .debug_str:0000000000048e42 .LASF1929
     /tmp/ccut0Zoi.s:99930  .debug_str:0000000000032f15 .LASF1930
     /tmp/ccut0Zoi.s:105906  .debug_str:000000000004b8cd .LASF1931
     /tmp/ccut0Zoi.s:96774  .debug_str:0000000000025e9c .LASF1932
     /tmp/ccut0Zoi.s:97206  .debug_str:0000000000027cac .LASF1933
     /tmp/ccut0Zoi.s:94114  .debug_str:000000000001b0e2 .LASF1934
     /tmp/ccut0Zoi.s:91076  .debug_str:000000000000eb44 .LASF1935
     /tmp/ccut0Zoi.s:87554  .debug_str:0000000000000000 .LASF1936
     /tmp/ccut0Zoi.s:92080  .debug_str:0000000000012b32 .LASF1937
     /tmp/ccut0Zoi.s:97880  .debug_str:000000000002a7c8 .LASF1938
     /tmp/ccut0Zoi.s:102094  .debug_str:000000000003b82d .LASF1939
     /tmp/ccut0Zoi.s:104480  .debug_str:0000000000045636 .LASF1940
     /tmp/ccut0Zoi.s:92472  .debug_str:00000000000142da .LASF1941
     /tmp/ccut0Zoi.s:93260  .debug_str:00000000000176de .LASF1942
     /tmp/ccut0Zoi.s:101746  .debug_str:000000000003a0c7 .LASF1943
     /tmp/ccut0Zoi.s:91192  .debug_str:000000000000f264 .LASF1944
     /tmp/ccut0Zoi.s:91560  .debug_str:0000000000010784 .LASF1945
     /tmp/ccut0Zoi.s:97180  .debug_str:0000000000027b2a .LASF1946
     /tmp/ccut0Zoi.s:99082  .debug_str:000000000002f77b .LASF1947
     /tmp/ccut0Zoi.s:95414  .debug_str:0000000000020b8e .LASF1948
     /tmp/ccut0Zoi.s:92036  .debug_str:00000000000127c1 .LASF1949
     /tmp/ccut0Zoi.s:105630  .debug_str:000000000004a34c .LASF1950
     /tmp/ccut0Zoi.s:88772  .debug_str:00000000000054c6 .LASF1951
     /tmp/ccut0Zoi.s:91006  .debug_str:000000000000e74f .LASF1952
     /tmp/ccut0Zoi.s:98878  .debug_str:000000000002e9cc .LASF1953
     /tmp/ccut0Zoi.s:88770  .debug_str:00000000000054a4 .LASF1954
     /tmp/ccut0Zoi.s:90002  .debug_str:000000000000a716 .LASF1955
     /tmp/ccut0Zoi.s:98912  .debug_str:000000000002ec52 .LASF1956
     /tmp/ccut0Zoi.s:91462  .debug_str:0000000000010116 .LASF1957
     /tmp/ccut0Zoi.s:104510  .debug_str:00000000000457f2 .LASF1958
     /tmp/ccut0Zoi.s:102756  .debug_str:000000000003e387 .LASF1959
     /tmp/ccut0Zoi.s:105854  .debug_str:000000000004b4fe .LASF1960
     /tmp/ccut0Zoi.s:88198  .debug_str:0000000000002cf8 .LASF1961
     /tmp/ccut0Zoi.s:97164  .debug_str:00000000000279d4 .LASF1962
     /tmp/ccut0Zoi.s:87924  .debug_str:0000000000001965 .LASF1963
     /tmp/ccut0Zoi.s:98240  .debug_str:000000000002be4a .LASF1964
     /tmp/ccut0Zoi.s:93970  .debug_str:000000000001a688 .LASF1965
     /tmp/ccut0Zoi.s:91888  .debug_str:0000000000011db1 .LASF1966
     /tmp/ccut0Zoi.s:95388  .debug_str:0000000000020976 .LASF1967
     /tmp/ccut0Zoi.s:101926  .debug_str:000000000003ad57 .LASF1968
     /tmp/ccut0Zoi.s:96054  .debug_str:000000000002352e .LASF1969
     /tmp/ccut0Zoi.s:93374  .debug_str:0000000000017dad .LASF1970
     /tmp/ccut0Zoi.s:88026  .debug_str:00000000000020c1 .LASF1971
     /tmp/ccut0Zoi.s:104730  .debug_str:00000000000466ab .LASF1972
     /tmp/ccut0Zoi.s:88742  .debug_str:0000000000005241 .LASF1973
     /tmp/ccut0Zoi.s:91166  .debug_str:000000000000f074 .LASF1974
     /tmp/ccut0Zoi.s:90878  .debug_str:000000000000e149 .LASF1975
     /tmp/ccut0Zoi.s:96026  .debug_str:000000000002338f .LASF1976
     /tmp/ccut0Zoi.s:101526  .debug_str:0000000000039137 .LASF1977
     /tmp/ccut0Zoi.s:88600  .debug_str:00000000000048b9 .LASF1978
     /tmp/ccut0Zoi.s:93128  .debug_str:0000000000016e43 .LASF1979
     /tmp/ccut0Zoi.s:99232  .debug_str:0000000000030120 .LASF1980
     /tmp/ccut0Zoi.s:103372  .debug_str:0000000000040e77 .LASF1981
     /tmp/ccut0Zoi.s:90372  .debug_str:000000000000c0c7 .LASF1982
     /tmp/ccut0Zoi.s:94880  .debug_str:000000000001e604 .LASF1983
     /tmp/ccut0Zoi.s:100496  .debug_str:000000000003550a .LASF1984
     /tmp/ccut0Zoi.s:97618  .debug_str:000000000002970b .LASF1985
     /tmp/ccut0Zoi.s:88884  .debug_str:0000000000005c1c .LASF1986
     /tmp/ccut0Zoi.s:105734  .debug_str:000000000004ac85 .LASF1987
     /tmp/ccut0Zoi.s:101244  .debug_str:0000000000037dbd .LASF1988
     /tmp/ccut0Zoi.s:90128  .debug_str:000000000000b086 .LASF1989
     /tmp/ccut0Zoi.s:90090  .debug_str:000000000000ad88 .LASF1990
     /tmp/ccut0Zoi.s:101272  .debug_str:0000000000038012 .LASF1991
     /tmp/ccut0Zoi.s:98388  .debug_str:000000000002c8a0 .LASF1992
     /tmp/ccut0Zoi.s:99770  .debug_str:00000000000324f1 .LASF1993
     /tmp/ccut0Zoi.s:97062  .debug_str:000000000002728e .LASF1994
     /tmp/ccut0Zoi.s:104602  .debug_str:0000000000045db8 .LASF1995
     /tmp/ccut0Zoi.s:102888  .debug_str:000000000003ed84 .LASF1996
     /tmp/ccut0Zoi.s:99640  .debug_str:0000000000031c4e .LASF1997
     /tmp/ccut0Zoi.s:93368  .debug_str:0000000000017d6e .LASF1998
     /tmp/ccut0Zoi.s:88504  .debug_str:0000000000004289 .LASF1999
     /tmp/ccut0Zoi.s:92350  .debug_str:0000000000013bd8 .LASF2000
     /tmp/ccut0Zoi.s:104288  .debug_str:000000000004490b .LASF2001
     /tmp/ccut0Zoi.s:90842  .debug_str:000000000000dfc2 .LASF2002
     /tmp/ccut0Zoi.s:103844  .debug_str:0000000000042cb7 .LASF2003
     /tmp/ccut0Zoi.s:92058  .debug_str:00000000000129e1 .LASF2004
     /tmp/ccut0Zoi.s:98998  .debug_str:000000000002f251 .LASF2005
     /tmp/ccut0Zoi.s:98588  .debug_str:000000000002d5e9 .LASF2006
     /tmp/ccut0Zoi.s:92946  .debug_str:00000000000161d1 .LASF2007
     /tmp/ccut0Zoi.s:98794  .debug_str:000000000002e464 .LASF2008
     /tmp/ccut0Zoi.s:105660  .debug_str:000000000004a5e8 .LASF2009
     /tmp/ccut0Zoi.s:95968  .debug_str:0000000000022f3a .LASF2010
     /tmp/ccut0Zoi.s:99708  .debug_str:00000000000320e0 .LASF2011
     /tmp/ccut0Zoi.s:95298  .debug_str:0000000000020302 .LASF2012
     /tmp/ccut0Zoi.s:93660  .debug_str:00000000000190c3 .LASF2013
     /tmp/ccut0Zoi.s:93834  .debug_str:0000000000019db2 .LASF2014
     /tmp/ccut0Zoi.s:97574  .debug_str:00000000000293dc .LASF2015
     /tmp/ccut0Zoi.s:99664  .debug_str:0000000000031def .LASF2016
     /tmp/ccut0Zoi.s:90066  .debug_str:000000000000ab93 .LASF2017
     /tmp/ccut0Zoi.s:102152  .debug_str:000000000003bc74 .LASF2018
     /tmp/ccut0Zoi.s:104520  .debug_str:0000000000045885 .LASF2019
     /tmp/ccut0Zoi.s:90714  .debug_str:000000000000d6ff .LASF2020
     /tmp/ccut0Zoi.s:99254  .debug_str:000000000003024d .LASF2021
     /tmp/ccut0Zoi.s:101130  .debug_str:000000000003782b .LASF2022
     /tmp/ccut0Zoi.s:90612  .debug_str:000000000000d179 .LASF2023
     /tmp/ccut0Zoi.s:92578  .debug_str:00000000000149ec .LASF2024
     /tmp/ccut0Zoi.s:101020  .debug_str:0000000000037210 .LASF2025
     /tmp/ccut0Zoi.s:104788  .debug_str:0000000000046ae9 .LASF2026
     /tmp/ccut0Zoi.s:93000  .debug_str:00000000000164e8 .LASF2027
     /tmp/ccut0Zoi.s:89632  .debug_str:0000000000008e76 .LASF2028
     /tmp/ccut0Zoi.s:97004  .debug_str:0000000000026e40 .LASF2029
     /tmp/ccut0Zoi.s:99358  .debug_str:0000000000030a23 .LASF2030
     /tmp/ccut0Zoi.s:87600  .debug_str:0000000000000355 .LASF2031
     /tmp/ccut0Zoi.s:99140  .debug_str:000000000002fafc .LASF2032
     /tmp/ccut0Zoi.s:97186  .debug_str:0000000000027b7a .LASF2033
     /tmp/ccut0Zoi.s:95520  .debug_str:00000000000211b2 .LASF2034
     /tmp/ccut0Zoi.s:88308  .debug_str:000000000000343f .LASF2035
     /tmp/ccut0Zoi.s:101472  .debug_str:0000000000038d80 .LASF2036
     /tmp/ccut0Zoi.s:89128  .debug_str:0000000000006d18 .LASF2037
     /tmp/ccut0Zoi.s:104216  .debug_str:00000000000444c1 .LASF2038
     /tmp/ccut0Zoi.s:99460  .debug_str:0000000000031103 .LASF2039
     /tmp/ccut0Zoi.s:95726  .debug_str:0000000000021ec8 .LASF2040
     /tmp/ccut0Zoi.s:97402  .debug_str:0000000000028905 .LASF2041
     /tmp/ccut0Zoi.s:90660  .debug_str:000000000000d47e .LASF2042
     /tmp/ccut0Zoi.s:88818  .debug_str:000000000000585f .LASF2043
     /tmp/ccut0Zoi.s:101608  .debug_str:000000000003968f .LASF2044
     /tmp/ccut0Zoi.s:98978  .debug_str:000000000002f114 .LASF2045
     /tmp/ccut0Zoi.s:93960  .debug_str:000000000001a5e4 .LASF2046
     /tmp/ccut0Zoi.s:89586  .debug_str:0000000000008b2b .LASF2047
     /tmp/ccut0Zoi.s:103314  .debug_str:0000000000040a50 .LASF2048
     /tmp/ccut0Zoi.s:97776  .debug_str:000000000002a182 .LASF2049
     /tmp/ccut0Zoi.s:98120  .debug_str:000000000002b714 .LASF2050
     /tmp/ccut0Zoi.s:91266  .debug_str:000000000000f6e7 .LASF2051
     /tmp/ccut0Zoi.s:101642  .debug_str:00000000000398e4 .LASF2052
     /tmp/ccut0Zoi.s:101622  .debug_str:0000000000039764 .LASF2053
     /tmp/ccut0Zoi.s:93268  .debug_str:000000000001777d .LASF2054
     /tmp/ccut0Zoi.s:93068  .debug_str:0000000000016a00 .LASF2055
     /tmp/ccut0Zoi.s:103516  .debug_str:00000000000417ae .LASF2056
     /tmp/ccut0Zoi.s:103850  .debug_str:0000000000042d28 .LASF2057
     /tmp/ccut0Zoi.s:94450  .debug_str:000000000001c77a .LASF2058
     /tmp/ccut0Zoi.s:97284  .debug_str:0000000000028189 .LASF2059
     /tmp/ccut0Zoi.s:89736  .debug_str:00000000000095b9 .LASF2060
     /tmp/ccut0Zoi.s:87866  .debug_str:000000000000151d .LASF2061
     /tmp/ccut0Zoi.s:100176  .debug_str:0000000000034080 .LASF2062
     /tmp/ccut0Zoi.s:90648  .debug_str:000000000000d3b4 .LASF2063
     /tmp/ccut0Zoi.s:95590  .debug_str:00000000000215da .LASF2064
     /tmp/ccut0Zoi.s:100700  .debug_str:0000000000036150 .LASF2065
     /tmp/ccut0Zoi.s:93902  .debug_str:000000000001a234 .LASF2066
     /tmp/ccut0Zoi.s:94060  .debug_str:000000000001acaf .LASF2067
     /tmp/ccut0Zoi.s:97956  .debug_str:000000000002ac91 .LASF2068
     /tmp/ccut0Zoi.s:104292  .debug_str:000000000004493c .LASF2069
     /tmp/ccut0Zoi.s:89730  .debug_str:0000000000009554 .LASF2070
     /tmp/ccut0Zoi.s:95808  .debug_str:000000000002248d .LASF2071
     /tmp/ccut0Zoi.s:100104  .debug_str:0000000000033b31 .LASF2072
     /tmp/ccut0Zoi.s:106064  .debug_str:000000000004c317 .LASF2073
     /tmp/ccut0Zoi.s:106130  .debug_str:000000000004c7e4 .LASF2074
     /tmp/ccut0Zoi.s:100308  .debug_str:0000000000034974 .LASF2075
     /tmp/ccut0Zoi.s:90966  .debug_str:000000000000e59d .LASF2076
     /tmp/ccut0Zoi.s:95710  .debug_str:0000000000021dee .LASF2077
     /tmp/ccut0Zoi.s:102942  .debug_str:000000000003f187 .LASF2078
     /tmp/ccut0Zoi.s:101562  .debug_str:000000000003940a .LASF2079
     /tmp/ccut0Zoi.s:93618  .debug_str:0000000000018dad .LASF2080
     /tmp/ccut0Zoi.s:105026  .debug_str:0000000000047a46 .LASF2081
     /tmp/ccut0Zoi.s:103508  .debug_str:000000000004173b .LASF2082
     /tmp/ccut0Zoi.s:98844  .debug_str:000000000002e7c6 .LASF2083
     /tmp/ccut0Zoi.s:96598  .debug_str:00000000000253a1 .LASF2084
     /tmp/ccut0Zoi.s:105160  .debug_str:000000000004838d .LASF2085
     /tmp/ccut0Zoi.s:88080  .debug_str:0000000000002478 .LASF2086
     /tmp/ccut0Zoi.s:96708  .debug_str:0000000000025afd .LASF2087
     /tmp/ccut0Zoi.s:93758  .debug_str:00000000000197b4 .LASF2088
     /tmp/ccut0Zoi.s:88176  .debug_str:0000000000002b71 .LASF2089
     /tmp/ccut0Zoi.s:89932  .debug_str:000000000000a26b .LASF2090
     /tmp/ccut0Zoi.s:99092  .debug_str:000000000002f820 .LASF2091
     /tmp/ccut0Zoi.s:106136  .debug_str:000000000004c860 .LASF2092
     /tmp/ccut0Zoi.s:104864  .debug_str:0000000000046fb4 .LASF2093
     /tmp/ccut0Zoi.s:97096  .debug_str:00000000000274ee .LASF2094
     /tmp/ccut0Zoi.s:99360  .debug_str:0000000000030a3e .LASF2095
     /tmp/ccut0Zoi.s:96802  .debug_str:0000000000026073 .LASF2096
     /tmp/ccut0Zoi.s:90890  .debug_str:000000000000e21c .LASF2097
     /tmp/ccut0Zoi.s:92164  .debug_str:000000000001305a .LASF2098
     /tmp/ccut0Zoi.s:99904  .debug_str:0000000000032df0 .LASF2099
     /tmp/ccut0Zoi.s:105048  .debug_str:0000000000047b5a .LASF2100
     /tmp/ccut0Zoi.s:92016  .debug_str:000000000001264b .LASF2101
     /tmp/ccut0Zoi.s:94442  .debug_str:000000000001c714 .LASF2102
     /tmp/ccut0Zoi.s:102994  .debug_str:000000000003f485 .LASF2103
     /tmp/ccut0Zoi.s:97436  .debug_str:0000000000028b4b .LASF2104
     /tmp/ccut0Zoi.s:97850  .debug_str:000000000002a5b1 .LASF2105
     /tmp/ccut0Zoi.s:87920  .debug_str:0000000000001928 .LASF2106
     /tmp/ccut0Zoi.s:95144  .debug_str:000000000001f94b .LASF2107
     /tmp/ccut0Zoi.s:91288  .debug_str:000000000000f83e .LASF2108
     /tmp/ccut0Zoi.s:92764  .debug_str:00000000000155a9 .LASF2109
     /tmp/ccut0Zoi.s:100658  .debug_str:0000000000035f68 .LASF2110
     /tmp/ccut0Zoi.s:92978  .debug_str:00000000000163b3 .LASF2111
     /tmp/ccut0Zoi.s:99762  .debug_str:000000000003247e .LASF2112
     /tmp/ccut0Zoi.s:95098  .debug_str:000000000001f61b .LASF2113
     /tmp/ccut0Zoi.s:99942  .debug_str:0000000000032fdd .LASF2114
     /tmp/ccut0Zoi.s:105458  .debug_str:00000000000497ed .LASF2115
     /tmp/ccut0Zoi.s:91116  .debug_str:000000000000edc0 .LASF2116
     /tmp/ccut0Zoi.s:97020  .debug_str:0000000000026f4f .LASF2117
     /tmp/ccut0Zoi.s:101270  .debug_str:0000000000037feb .LASF2118
     /tmp/ccut0Zoi.s:88976  .debug_str:000000000000620d .LASF2119
     /tmp/ccut0Zoi.s:104738  .debug_str:0000000000046769 .LASF2120
     /tmp/ccut0Zoi.s:93232  .debug_str:00000000000174ca .LASF2121
     /tmp/ccut0Zoi.s:102350  .debug_str:000000000003c902 .LASF2122
     /tmp/ccut0Zoi.s:90876  .debug_str:000000000000e118 .LASF2123
     /tmp/ccut0Zoi.s:102248  .debug_str:000000000003c2be .LASF2124
     /tmp/ccut0Zoi.s:90428  .debug_str:000000000000c506 .LASF2125
     /tmp/ccut0Zoi.s:104972  .debug_str:0000000000047694 .LASF2126
     /tmp/ccut0Zoi.s:95246  .debug_str:000000000001ff73 .LASF2127
     /tmp/ccut0Zoi.s:102524  .debug_str:000000000003d4cb .LASF2128
     /tmp/ccut0Zoi.s:105598  .debug_str:000000000004a1a2 .LASF2129
     /tmp/ccut0Zoi.s:93824  .debug_str:0000000000019caa .LASF2130
     /tmp/ccut0Zoi.s:97144  .debug_str:000000000002781a .LASF2131
     /tmp/ccut0Zoi.s:100438  .debug_str:0000000000035181 .LASF2132
     /tmp/ccut0Zoi.s:105794  .debug_str:000000000004b100 .LASF2133
     /tmp/ccut0Zoi.s:95336  .debug_str:00000000000205f4 .LASF2134
     /tmp/ccut0Zoi.s:100876  .debug_str:0000000000036b6e .LASF2135
     /tmp/ccut0Zoi.s:105282  .debug_str:0000000000048c32 .LASF2136
     /tmp/ccut0Zoi.s:92498  .debug_str:00000000000144a8 .LASF2137
     /tmp/ccut0Zoi.s:96590  .debug_str:00000000000252cb .LASF2138
     /tmp/ccut0Zoi.s:102726  .debug_str:000000000003e140 .LASF2139
     /tmp/ccut0Zoi.s:87842  .debug_str:00000000000013bd .LASF2140
     /tmp/ccut0Zoi.s:101772  .debug_str:000000000003a29d .LASF2141
     /tmp/ccut0Zoi.s:96128  .debug_str:00000000000239d5 .LASF2142
     /tmp/ccut0Zoi.s:89116  .debug_str:0000000000006c74 .LASF2143
     /tmp/ccut0Zoi.s:103956  .debug_str:00000000000433b8 .LASF2144
     /tmp/ccut0Zoi.s:90464  .debug_str:000000000000c73f .LASF2145
     /tmp/ccut0Zoi.s:96986  .debug_str:0000000000026d04 .LASF2146
     /tmp/ccut0Zoi.s:98636  .debug_str:000000000002d9c3 .LASF2147
     /tmp/ccut0Zoi.s:105434  .debug_str:0000000000049662 .LASF2148
     /tmp/ccut0Zoi.s:104734  .debug_str:00000000000466f9 .LASF2149
     /tmp/ccut0Zoi.s:105708  .debug_str:000000000004aa0c .LASF2150
     /tmp/ccut0Zoi.s:96094  .debug_str:00000000000236d4 .LASF2151
     /tmp/ccut0Zoi.s:98286  .debug_str:000000000002c19e .LASF2152
     /tmp/ccut0Zoi.s:94096  .debug_str:000000000001af5a .LASF2153
     /tmp/ccut0Zoi.s:102632  .debug_str:000000000003db37 .LASF2154
     /tmp/ccut0Zoi.s:102506  .debug_str:000000000003d354 .LASF2155
     /tmp/ccut0Zoi.s:93380  .debug_str:0000000000017e1a .LASF2156
     /tmp/ccut0Zoi.s:101524  .debug_str:00000000000390fb .LASF2157
     /tmp/ccut0Zoi.s:87880  .debug_str:0000000000001607 .LASF2158
     /tmp/ccut0Zoi.s:96680  .debug_str:000000000002591d .LASF2159
     /tmp/ccut0Zoi.s:97056  .debug_str:0000000000027205 .LASF2160
     /tmp/ccut0Zoi.s:92052  .debug_str:000000000001294f .LASF2161
     /tmp/ccut0Zoi.s:106170  .debug_str:000000000004caac .LASF2162
     /tmp/ccut0Zoi.s:93802  .debug_str:0000000000019aca .LASF2163
     /tmp/ccut0Zoi.s:105412  .debug_str:00000000000494c8 .LASF2164
     /tmp/ccut0Zoi.s:88996  .debug_str:0000000000006375 .LASF2165
     /tmp/ccut0Zoi.s:95844  .debug_str:00000000000226eb .LASF2166
     /tmp/ccut0Zoi.s:103116  .debug_str:000000000003fcf4 .LASF2167
     /tmp/ccut0Zoi.s:104944  .debug_str:00000000000474cb .LASF2168
     /tmp/ccut0Zoi.s:98470  .debug_str:000000000002ce2e .LASF2169
     /tmp/ccut0Zoi.s:91476  .debug_str:0000000000010209 .LASF2170
     /tmp/ccut0Zoi.s:104408  .debug_str:0000000000045178 .LASF2171
     /tmp/ccut0Zoi.s:93716  .debug_str:0000000000019460 .LASF2172
     /tmp/ccut0Zoi.s:96654  .debug_str:000000000002574b .LASF2173
     /tmp/ccut0Zoi.s:89862  .debug_str:0000000000009d1a .LASF2174
     /tmp/ccut0Zoi.s:102720  .debug_str:000000000003e0c0 .LASF2175
     /tmp/ccut0Zoi.s:92034  .debug_str:000000000001277c .LASF2176
     /tmp/ccut0Zoi.s:89100  .debug_str:0000000000006b57 .LASF2177
     /tmp/ccut0Zoi.s:106126  .debug_str:000000000004c762 .LASF2178
     /tmp/ccut0Zoi.s:103498  .debug_str:000000000004168a .LASF2179
     /tmp/ccut0Zoi.s:105832  .debug_str:000000000004b369 .LASF2180
     /tmp/ccut0Zoi.s:100738  .debug_str:0000000000036437 .LASF2181
     /tmp/ccut0Zoi.s:88584  .debug_str:00000000000047a4 .LASF2182
     /tmp/ccut0Zoi.s:99472  .debug_str:00000000000311d9 .LASF2183
     /tmp/ccut0Zoi.s:100688  .debug_str:000000000003606f .LASF2184
     /tmp/ccut0Zoi.s:91804  .debug_str:0000000000011807 .LASF2185
     /tmp/ccut0Zoi.s:90048  .debug_str:000000000000aa7b .LASF2186
     /tmp/ccut0Zoi.s:104174  .debug_str:000000000004419e .LASF2187
     /tmp/ccut0Zoi.s:91612  .debug_str:0000000000010b60 .LASF2188
     /tmp/ccut0Zoi.s:89292  .debug_str:00000000000077aa .LASF2189
     /tmp/ccut0Zoi.s:102068  .debug_str:000000000003b646 .LASF2190
     /tmp/ccut0Zoi.s:99402  .debug_str:0000000000030d08 .LASF2191
     /tmp/ccut0Zoi.s:93564  .debug_str:0000000000018a08 .LASF2192
     /tmp/ccut0Zoi.s:90546  .debug_str:000000000000cce3 .LASF2193
     /tmp/ccut0Zoi.s:95740  .debug_str:0000000000021fae .LASF2194
     /tmp/ccut0Zoi.s:105480  .debug_str:000000000004997b .LASF2195
     /tmp/ccut0Zoi.s:91174  .debug_str:000000000000f10b .LASF2196
     /tmp/ccut0Zoi.s:96804  .debug_str:000000000002608f .LASF2197
     /tmp/ccut0Zoi.s:88756  .debug_str:0000000000005342 .LASF2198
     /tmp/ccut0Zoi.s:88018  .debug_str:0000000000002006 .LASF2199
     /tmp/ccut0Zoi.s:89106  .debug_str:0000000000006bc7 .LASF2200
     /tmp/ccut0Zoi.s:98128  .debug_str:000000000002b79e .LASF2201
     /tmp/ccut0Zoi.s:88108  .debug_str:00000000000026b0 .LASF2202
     /tmp/ccut0Zoi.s:105932  .debug_str:000000000004ba94 .LASF2203
     /tmp/ccut0Zoi.s:88790  .debug_str:0000000000005622 .LASF2204
     /tmp/ccut0Zoi.s:88532  .debug_str:00000000000043ed .LASF2205
     /tmp/ccut0Zoi.s:95642  .debug_str:0000000000021970 .LASF2206
     /tmp/ccut0Zoi.s:88000  .debug_str:0000000000001e94 .LASF2207
     /tmp/ccut0Zoi.s:104402  .debug_str:00000000000450f2 .LASF2208
     /tmp/ccut0Zoi.s:94918  .debug_str:000000000001e8cf .LASF2209
     /tmp/ccut0Zoi.s:91856  .debug_str:0000000000011b89 .LASF2210
     /tmp/ccut0Zoi.s:95024  .debug_str:000000000001f06a .LASF2211
     /tmp/ccut0Zoi.s:102066  .debug_str:000000000003b60d .LASF2212
     /tmp/ccut0Zoi.s:101794  .debug_str:000000000003a43f .LASF2213
     /tmp/ccut0Zoi.s:103502  .debug_str:00000000000416cd .LASF2214
     /tmp/ccut0Zoi.s:103518  .debug_str:00000000000417c9 .LASF2215
     /tmp/ccut0Zoi.s:96862  .debug_str:00000000000264f6 .LASF2216
     /tmp/ccut0Zoi.s:97946  .debug_str:000000000002abc2 .LASF2217
     /tmp/ccut0Zoi.s:87758  .debug_str:0000000000000df2 .LASF2218
     /tmp/ccut0Zoi.s:97770  .debug_str:000000000002a0eb .LASF2219
     /tmp/ccut0Zoi.s:101782  .debug_str:000000000003a346 .LASF2220
     /tmp/ccut0Zoi.s:88084  .debug_str:00000000000024a0 .LASF2221
     /tmp/ccut0Zoi.s:97156  .debug_str:0000000000027939 .LASF2222
     /tmp/ccut0Zoi.s:97468  .debug_str:0000000000028da9 .LASF2223
     /tmp/ccut0Zoi.s:99786  .debug_str:00000000000325ea .LASF2224
     /tmp/ccut0Zoi.s:102912  .debug_str:000000000003ef78 .LASF2225
     /tmp/ccut0Zoi.s:95162  .debug_str:000000000001fa93 .LASF2226
     /tmp/ccut0Zoi.s:99424  .debug_str:0000000000030e76 .LASF2227
     /tmp/ccut0Zoi.s:90254  .debug_str:000000000000b93e .LASF2228
     /tmp/ccut0Zoi.s:89682  .debug_str:0000000000009171 .LASF2229
     /tmp/ccut0Zoi.s:104486  .debug_str:000000000004566e .LASF2230
     /tmp/ccut0Zoi.s:98980  .debug_str:000000000002f130 .LASF2231
     /tmp/ccut0Zoi.s:91584  .debug_str:000000000001095f .LASF2232
     /tmp/ccut0Zoi.s:98814  .debug_str:000000000002e5c8 .LASF2233
     /tmp/ccut0Zoi.s:93120  .debug_str:0000000000016dc2 .LASF2234
     /tmp/ccut0Zoi.s:100628  .debug_str:0000000000035d0b .LASF2235
     /tmp/ccut0Zoi.s:105886  .debug_str:000000000004b783 .LASF2236
     /tmp/ccut0Zoi.s:94688  .debug_str:000000000001d8c5 .LASF2237
     /tmp/ccut0Zoi.s:95526  .debug_str:000000000002122a .LASF2238
     /tmp/ccut0Zoi.s:101356  .debug_str:0000000000038599 .LASF2239
     /tmp/ccut0Zoi.s:97520  .debug_str:0000000000029097 .LASF2240
     /tmp/ccut0Zoi.s:105916  .debug_str:000000000004b958 .LASF2241
     /tmp/ccut0Zoi.s:90074  .debug_str:000000000000ac57 .LASF2242
     /tmp/ccut0Zoi.s:96222  .debug_str:0000000000023edb .LASF2243
     /tmp/ccut0Zoi.s:102974  .debug_str:000000000003f37f .LASF2244
     /tmp/ccut0Zoi.s:99020  .debug_str:000000000002f3af .LASF2245
     /tmp/ccut0Zoi.s:101892  .debug_str:000000000003ab00 .LASF2246
     /tmp/ccut0Zoi.s:105732  .debug_str:000000000004ac3d .LASF2247
     /tmp/ccut0Zoi.s:103330  .debug_str:0000000000040aef .LASF2248
     /tmp/ccut0Zoi.s:88070  .debug_str:00000000000023aa .LASF2249
     /tmp/ccut0Zoi.s:94738  .debug_str:000000000001dc1e .LASF2250
     /tmp/ccut0Zoi.s:103348  .debug_str:0000000000040c4c .LASF2251
     /tmp/ccut0Zoi.s:104754  .debug_str:000000000004689f .LASF2252
     /tmp/ccut0Zoi.s:89912  .debug_str:000000000000a110 .LASF2253
     /tmp/ccut0Zoi.s:96006  .debug_str:000000000002322c .LASF2254
     /tmp/ccut0Zoi.s:100950  .debug_str:0000000000036ec7 .LASF2255
     /tmp/ccut0Zoi.s:99190  .debug_str:000000000002fe8a .LASF2256
     /tmp/ccut0Zoi.s:92390  .debug_str:0000000000013e56 .LASF2257
     /tmp/ccut0Zoi.s:88050  .debug_str:0000000000002253 .LASF2258
     /tmp/ccut0Zoi.s:95418  .debug_str:0000000000020bc3 .LASF2259
     /tmp/ccut0Zoi.s:98166  .debug_str:000000000002b9a4 .LASF2260
     /tmp/ccut0Zoi.s:94318  .debug_str:000000000001bf02 .LASF2261
     /tmp/ccut0Zoi.s:89276  .debug_str:000000000000764f .LASF2262
     /tmp/ccut0Zoi.s:94600  .debug_str:000000000001d238 .LASF2263
     /tmp/ccut0Zoi.s:94122  .debug_str:000000000001b175 .LASF2264
     /tmp/ccut0Zoi.s:87596  .debug_str:00000000000002da .LASF2265
     /tmp/ccut0Zoi.s:92124  .debug_str:0000000000012dbb .LASF2266
     /tmp/ccut0Zoi.s:100728  .debug_str:000000000003634e .LASF2267
     /tmp/ccut0Zoi.s:97912  .debug_str:000000000002a9c0 .LASF2268
     /tmp/ccut0Zoi.s:91470  .debug_str:00000000000101a6 .LASF2269
     /tmp/ccut0Zoi.s:102904  .debug_str:000000000003eed9 .LASF2270
     /tmp/ccut0Zoi.s:97604  .debug_str:0000000000029597 .LASF2271
     /tmp/ccut0Zoi.s:103016  .debug_str:000000000003f5f9 .LASF2272
     /tmp/ccut0Zoi.s:89334  .debug_str:00000000000079d4 .LASF2273
     /tmp/ccut0Zoi.s:105096  .debug_str:0000000000047e7c .LASF2274
     /tmp/ccut0Zoi.s:102768  .debug_str:000000000003e483 .LASF2275
     /tmp/ccut0Zoi.s:104234  .debug_str:000000000004457d .LASF2276
     /tmp/ccut0Zoi.s:91962  .debug_str:00000000000122a4 .LASF2277
     /tmp/ccut0Zoi.s:102364  .debug_str:000000000003c9af .LASF2278
     /tmp/ccut0Zoi.s:92840  .debug_str:0000000000015adc .LASF2279
     /tmp/ccut0Zoi.s:102716  .debug_str:000000000003e06e .LASF2280
     /tmp/ccut0Zoi.s:88036  .debug_str:000000000000216f .LASF2281
     /tmp/ccut0Zoi.s:95348  .debug_str:00000000000206b0 .LASF2282
     /tmp/ccut0Zoi.s:102184  .debug_str:000000000003beaa .LASF2283
     /tmp/ccut0Zoi.s:88434  .debug_str:0000000000003ceb .LASF2284
     /tmp/ccut0Zoi.s:105668  .debug_str:000000000004a664 .LASF2285
     /tmp/ccut0Zoi.s:93644  .debug_str:0000000000018f82 .LASF2286
     /tmp/ccut0Zoi.s:101136  .debug_str:000000000003789f .LASF2287
     /tmp/ccut0Zoi.s:102750  .debug_str:000000000003e2f5 .LASF2288
     /tmp/ccut0Zoi.s:96472  .debug_str:0000000000024b18 .LASF2289
     /tmp/ccut0Zoi.s:93350  .debug_str:0000000000017cdd .LASF2290
     /tmp/ccut0Zoi.s:91674  .debug_str:0000000000010e84 .LASF2291
     /tmp/ccut0Zoi.s:102476  .debug_str:000000000003d13e .LASF2292
     /tmp/ccut0Zoi.s:98512  .debug_str:000000000002d116 .LASF2293
     /tmp/ccut0Zoi.s:102290  .debug_str:000000000003c602 .LASF2294
     /tmp/ccut0Zoi.s:96846  .debug_str:00000000000263d9 .LASF2295
     /tmp/ccut0Zoi.s:92682  .debug_str:0000000000015097 .LASF2296
     /tmp/ccut0Zoi.s:93040  .debug_str:0000000000016788 .LASF2297
     /tmp/ccut0Zoi.s:98846  .debug_str:000000000002e7dd .LASF2298
     /tmp/ccut0Zoi.s:95792  .debug_str:000000000002233e .LASF2299
     /tmp/ccut0Zoi.s:106054  .debug_str:000000000004c267 .LASF2300
     /tmp/ccut0Zoi.s:91346  .debug_str:000000000000fb23 .LASF2301
     /tmp/ccut0Zoi.s:101110  .debug_str:00000000000376a5 .LASF2302
     /tmp/ccut0Zoi.s:98304  .debug_str:000000000002c2a9 .LASF2303
     /tmp/ccut0Zoi.s:88122  .debug_str:00000000000027cd .LASF2304
     /tmp/ccut0Zoi.s:87794  .debug_str:0000000000001091 .LASF2305
     /tmp/ccut0Zoi.s:93826  .debug_str:0000000000019ced .LASF2306
     /tmp/ccut0Zoi.s:98910  .debug_str:000000000002ec12 .LASF2307
     /tmp/ccut0Zoi.s:91710  .debug_str:0000000000011152 .LASF2308
     /tmp/ccut0Zoi.s:102516  .debug_str:000000000003d440 .LASF2309
     /tmp/ccut0Zoi.s:103254  .debug_str:000000000004058c .LASF2310
     /tmp/ccut0Zoi.s:99292  .debug_str:00000000000304ba .LASF2311
     /tmp/ccut0Zoi.s:93950  .debug_str:000000000001a51d .LASF2312
     /tmp/ccut0Zoi.s:91536  .debug_str:000000000001064d .LASF2313
     /tmp/ccut0Zoi.s:105284  .debug_str:0000000000048c72 .LASF2314
     /tmp/ccut0Zoi.s:101506  .debug_str:0000000000038fc1 .LASF2315
     /tmp/ccut0Zoi.s:106028  .debug_str:000000000004c0de .LASF2316
     /tmp/ccut0Zoi.s:88252  .debug_str:00000000000030ea .LASF2317
     /tmp/ccut0Zoi.s:97614  .debug_str:000000000002969e .LASF2318
     /tmp/ccut0Zoi.s:98362  .debug_str:000000000002c68d .LASF2319
     /tmp/ccut0Zoi.s:89014  .debug_str:00000000000064ab .LASF2320
     /tmp/ccut0Zoi.s:89458  .debug_str:000000000000822f .LASF2321
     /tmp/ccut0Zoi.s:99330  .debug_str:00000000000307a2 .LASF2322
     /tmp/ccut0Zoi.s:99586  .debug_str:0000000000031914 .LASF2323
     /tmp/ccut0Zoi.s:98360  .debug_str:000000000002c655 .LASF2324
     /tmp/ccut0Zoi.s:88644  .debug_str:0000000000004bae .LASF2325
     /tmp/ccut0Zoi.s:88222  .debug_str:0000000000002f58 .LASF2326
     /tmp/ccut0Zoi.s:103392  .debug_str:0000000000040ff5 .LASF2327
     /tmp/ccut0Zoi.s:105744  .debug_str:000000000004ad31 .LASF2328
     /tmp/ccut0Zoi.s:104990  .debug_str:00000000000477a2 .LASF2329
     /tmp/ccut0Zoi.s:97226  .debug_str:0000000000027db9 .LASF2330
     /tmp/ccut0Zoi.s:92214  .debug_str:0000000000013361 .LASF2331
     /tmp/ccut0Zoi.s:103368  .debug_str:0000000000040dfa .LASF2332
     /tmp/ccut0Zoi.s:92320  .debug_str:0000000000013a25 .LASF2333
     /tmp/ccut0Zoi.s:95390  .debug_str:0000000000020996 .LASF2334
     /tmp/ccut0Zoi.s:89414  .debug_str:0000000000007f62 .LASF2335
     /tmp/ccut0Zoi.s:89560  .debug_str:0000000000008959 .LASF2336
     /tmp/ccut0Zoi.s:105064  .debug_str:0000000000047c8a .LASF2337
     /tmp/ccut0Zoi.s:105656  .debug_str:000000000004a565 .LASF2338
     /tmp/ccut0Zoi.s:88114  .debug_str:0000000000002725 .LASF2339
     /tmp/ccut0Zoi.s:97970  .debug_str:000000000002adcf .LASF2340
     /tmp/ccut0Zoi.s:96464  .debug_str:0000000000024a8c .LASF2341
     /tmp/ccut0Zoi.s:106076  .debug_str:000000000004c3c8 .LASF2342
     /tmp/ccut0Zoi.s:89098  .debug_str:0000000000006b13 .LASF2343
     /tmp/ccut0Zoi.s:103842  .debug_str:0000000000042c7b .LASF2344
     /tmp/ccut0Zoi.s:98380  .debug_str:000000000002c7e3 .LASF2345
     /tmp/ccut0Zoi.s:93060  .debug_str:0000000000016948 .LASF2346
     /tmp/ccut0Zoi.s:97414  .debug_str:00000000000289c0 .LASF2347
     /tmp/ccut0Zoi.s:88258  .debug_str:000000000000316a .LASF2348
     /tmp/ccut0Zoi.s:94614  .debug_str:000000000001d36d .LASF2349
     /tmp/ccut0Zoi.s:102392  .debug_str:000000000003cbbc .LASF2350
     /tmp/ccut0Zoi.s:96762  .debug_str:0000000000025d78 .LASF2351
     /tmp/ccut0Zoi.s:97702  .debug_str:0000000000029c5a .LASF2352
     /tmp/ccut0Zoi.s:105880  .debug_str:000000000004b70c .LASF2353
     /tmp/ccut0Zoi.s:103654  .debug_str:00000000000420ff .LASF2354
     /tmp/ccut0Zoi.s:105848  .debug_str:000000000004b48e .LASF2355
     /tmp/ccut0Zoi.s:105214  .debug_str:0000000000048778 .LASF2356
     /tmp/ccut0Zoi.s:104498  .debug_str:0000000000045714 .LASF2357
     /tmp/ccut0Zoi.s:98076  .debug_str:000000000002b4ba .LASF2358
     /tmp/ccut0Zoi.s:104694  .debug_str:0000000000046447 .LASF2359
     /tmp/ccut0Zoi.s:89630  .debug_str:0000000000008e3f .LASF2360
     /tmp/ccut0Zoi.s:91484  .debug_str:0000000000010276 .LASF2361
     /tmp/ccut0Zoi.s:104102  .debug_str:0000000000043d01 .LASF2362
     /tmp/ccut0Zoi.s:96144  .debug_str:0000000000023a87 .LASF2363
     /tmp/ccut0Zoi.s:106238  .debug_str:000000000004cf46 .LASF2364
     /tmp/ccut0Zoi.s:98842  .debug_str:000000000002e784 .LASF2365
     /tmp/ccut0Zoi.s:90070  .debug_str:000000000000abea .LASF2366
     /tmp/ccut0Zoi.s:90480  .debug_str:000000000000c853 .LASF2367
     /tmp/ccut0Zoi.s:103334  .debug_str:0000000000040b3f .LASF2368
     /tmp/ccut0Zoi.s:92600  .debug_str:0000000000014b3d .LASF2369
     /tmp/ccut0Zoi.s:101744  .debug_str:000000000003a0a0 .LASF2370
     /tmp/ccut0Zoi.s:99760  .debug_str:0000000000032443 .LASF2371
     /tmp/ccut0Zoi.s:105688  .debug_str:000000000004a829 .LASF2372
     /tmp/ccut0Zoi.s:97908  .debug_str:000000000002a96f .LASF2373
     /tmp/ccut0Zoi.s:96998  .debug_str:0000000000026dc9 .LASF2374
     /tmp/ccut0Zoi.s:101672  .debug_str:0000000000039b31 .LASF2375
     /tmp/ccut0Zoi.s:88216  .debug_str:0000000000002ebb .LASF2376
     /tmp/ccut0Zoi.s:92450  .debug_str:000000000001418d .LASF2377
     /tmp/ccut0Zoi.s:97128  .debug_str:00000000000276f5 .LASF2378
     /tmp/ccut0Zoi.s:90104  .debug_str:000000000000ae8e .LASF2379
     /tmp/ccut0Zoi.s:89484  .debug_str:00000000000083fb .LASF2380
     /tmp/ccut0Zoi.s:94198  .debug_str:000000000001b68a .LASF2381
     /tmp/ccut0Zoi.s:99614  .debug_str:0000000000031b28 .LASF2382
     /tmp/ccut0Zoi.s:104432  .debug_str:0000000000045328 .LASF2383
     /tmp/ccut0Zoi.s:90762  .debug_str:000000000000da3b .LASF2384
     /tmp/ccut0Zoi.s:98936  .debug_str:000000000002ee53 .LASF2385
     /tmp/ccut0Zoi.s:98798  .debug_str:000000000002e4cb .LASF2386
     /tmp/ccut0Zoi.s:92976  .debug_str:000000000001637a .LASF2387
     /tmp/ccut0Zoi.s:102000  .debug_str:000000000003b1d2 .LASF2388
     /tmp/ccut0Zoi.s:92082  .debug_str:0000000000012b5b .LASF2389
     /tmp/ccut0Zoi.s:100282  .debug_str:000000000003477c .LASF2390
     /tmp/ccut0Zoi.s:103014  .debug_str:000000000003f5c3 .LASF2391
     /tmp/ccut0Zoi.s:100258  .debug_str:00000000000345ee .LASF2392
     /tmp/ccut0Zoi.s:90374  .debug_str:000000000000c0f0 .LASF2393
     /tmp/ccut0Zoi.s:100354  .debug_str:0000000000034c90 .LASF2394
     /tmp/ccut0Zoi.s:95810  .debug_str:00000000000224a8 .LASF2395
     /tmp/ccut0Zoi.s:93502  .debug_str:000000000001859f .LASF2396
     /tmp/ccut0Zoi.s:99898  .debug_str:0000000000032d88 .LASF2397
     /tmp/ccut0Zoi.s:103546  .debug_str:00000000000419c9 .LASF2398
     /tmp/ccut0Zoi.s:100234  .debug_str:0000000000034423 .LASF2399
     /tmp/ccut0Zoi.s:87918  .debug_str:00000000000018e1 .LASF2400
     /tmp/ccut0Zoi.s:100064  .debug_str:00000000000338d2 .LASF2401
     /tmp/ccut0Zoi.s:89692  .debug_str:000000000000920d .LASF2402
     /tmp/ccut0Zoi.s:97852  .debug_str:000000000002a5d2 .LASF2403
     /tmp/ccut0Zoi.s:98988  .debug_str:000000000002f1aa .LASF2404
     /tmp/ccut0Zoi.s:93594  .debug_str:0000000000018c17 .LASF2405
     /tmp/ccut0Zoi.s:89286  .debug_str:0000000000007750 .LASF2406
     /tmp/ccut0Zoi.s:97278  .debug_str:00000000000280fa .LASF2407
     /tmp/ccut0Zoi.s:100786  .debug_str:000000000003665e .LASF2408
     /tmp/ccut0Zoi.s:97374  .debug_str:0000000000028734 .LASF2409
     /tmp/ccut0Zoi.s:96534  .debug_str:0000000000024ec3 .LASF2410
     /tmp/ccut0Zoi.s:102318  .debug_str:000000000003c7c4 .LASF2411
     /tmp/ccut0Zoi.s:100298  .debug_str:000000000003486b .LASF2412
     /tmp/ccut0Zoi.s:100114  .debug_str:0000000000033c39 .LASF2413
     /tmp/ccut0Zoi.s:90590  .debug_str:000000000000cfd7 .LASF2414
     /tmp/ccut0Zoi.s:90774  .debug_str:000000000000db0f .LASF2415
     /tmp/ccut0Zoi.s:102218  .debug_str:000000000003c109 .LASF2416
     /tmp/ccut0Zoi.s:94528  .debug_str:000000000001cd2e .LASF2417
     /tmp/ccut0Zoi.s:95254  .debug_str:0000000000020009 .LASF2418
     /tmp/ccut0Zoi.s:96772  .debug_str:0000000000025e5f .LASF2419
     /tmp/ccut0Zoi.s:105270  .debug_str:0000000000048b6f .LASF2420
     /tmp/ccut0Zoi.s:102422  .debug_str:000000000003ce03 .LASF2421
     /tmp/ccut0Zoi.s:105218  .debug_str:00000000000487cd .LASF2422
     /tmp/ccut0Zoi.s:95178  .debug_str:000000000001fb85 .LASF2423
     /tmp/ccut0Zoi.s:91254  .debug_str:000000000000f62d .LASF2424
     /tmp/ccut0Zoi.s:91970  .debug_str:0000000000012326 .LASF2425
     /tmp/ccut0Zoi.s:98282  .debug_str:000000000002c13a .LASF2426
     /tmp/ccut0Zoi.s:94732  .debug_str:000000000001db8f .LASF2427
     /tmp/ccut0Zoi.s:102076  .debug_str:000000000003b70d .LASF2428
     /tmp/ccut0Zoi.s:94802  .debug_str:000000000001dfe7 .LASF2429
     /tmp/ccut0Zoi.s:93304  .debug_str:0000000000017995 .LASF2430
     /tmp/ccut0Zoi.s:102556  .debug_str:000000000003d6b7 .LASF2431
     /tmp/ccut0Zoi.s:106114  .debug_str:000000000004c695 .LASF2432
     /tmp/ccut0Zoi.s:95668  .debug_str:0000000000021b3f .LASF2433
     /tmp/ccut0Zoi.s:97704  .debug_str:0000000000029c93 .LASF2434
     /tmp/ccut0Zoi.s:94348  .debug_str:000000000001c098 .LASF2435
     /tmp/ccut0Zoi.s:89092  .debug_str:0000000000006aa2 .LASF2436
     /tmp/ccut0Zoi.s:99878  .debug_str:0000000000032bd1 .LASF2437
     /tmp/ccut0Zoi.s:105704  .debug_str:000000000004a9c2 .LASF2438
     /tmp/ccut0Zoi.s:99098  .debug_str:000000000002f883 .LASF2439
     /tmp/ccut0Zoi.s:97268  .debug_str:000000000002803c .LASF2440
     /tmp/ccut0Zoi.s:91208  .debug_str:000000000000f3aa .LASF2441
     /tmp/ccut0Zoi.s:94256  .debug_str:000000000001bafa .LASF2442
     /tmp/ccut0Zoi.s:100348  .debug_str:0000000000034c19 .LASF2443
     /tmp/ccut0Zoi.s:105474  .debug_str:0000000000049921 .LASF2444
     /tmp/ccut0Zoi.s:91576  .debug_str:00000000000108b5 .LASF2445
     /tmp/ccut0Zoi.s:98932  .debug_str:000000000002edfc .LASF2446
     /tmp/ccut0Zoi.s:99518  .debug_str:00000000000314c8 .LASF2447
     /tmp/ccut0Zoi.s:96158  .debug_str:0000000000023af4 .LASF2448
     /tmp/ccut0Zoi.s:88206  .debug_str:0000000000002dae .LASF2449
     /tmp/ccut0Zoi.s:102828  .debug_str:000000000003e8f5 .LASF2450
     /tmp/ccut0Zoi.s:105724  .debug_str:000000000004ab6b .LASF2451
     /tmp/ccut0Zoi.s:87862  .debug_str:00000000000014d2 .LASF2452
     /tmp/ccut0Zoi.s:97006  .debug_str:0000000000026e63 .LASF2453
     /tmp/ccut0Zoi.s:93884  .debug_str:000000000001a105 .LASF2454
     /tmp/ccut0Zoi.s:92528  .debug_str:000000000001464f .LASF2455
     /tmp/ccut0Zoi.s:98278  .debug_str:000000000002c0b9 .LASF2456
     /tmp/ccut0Zoi.s:101318  .debug_str:000000000003832b .LASF2457
     /tmp/ccut0Zoi.s:100478  .debug_str:000000000003540e .LASF2458
     /tmp/ccut0Zoi.s:99434  .debug_str:0000000000030f57 .LASF2459
     /tmp/ccut0Zoi.s:90124  .debug_str:000000000000b02b .LASF2460
     /tmp/ccut0Zoi.s:89280  .debug_str:00000000000076d0 .LASF2461
     /tmp/ccut0Zoi.s:95012  .debug_str:000000000001ef9b .LASF2462
     /tmp/ccut0Zoi.s:96866  .debug_str:000000000002654d .LASF2463
     /tmp/ccut0Zoi.s:90286  .debug_str:000000000000bb3f .LASF2464
     /tmp/ccut0Zoi.s:97270  .debug_str:0000000000028077 .LASF2465
     /tmp/ccut0Zoi.s:104524  .debug_str:00000000000458d3 .LASF2466
     /tmp/ccut0Zoi.s:96388  .debug_str:00000000000246a3 .LASF2467
     /tmp/ccut0Zoi.s:95872  .debug_str:00000000000228bb .LASF2468
     /tmp/ccut0Zoi.s:102658  .debug_str:000000000003dce6 .LASF2469
     /tmp/ccut0Zoi.s:91044  .debug_str:000000000000ea02 .LASF2470
     /tmp/ccut0Zoi.s:98238  .debug_str:000000000002be06 .LASF2471
     /tmp/ccut0Zoi.s:105200  .debug_str:0000000000048689 .LASF2472
     /tmp/ccut0Zoi.s:89216  .debug_str:00000000000072d8 .LASF2473
     /tmp/ccut0Zoi.s:102368  .debug_str:000000000003ca1b .LASF2474
     /tmp/ccut0Zoi.s:105658  .debug_str:000000000004a5a4 .LASF2475
     /tmp/ccut0Zoi.s:87742  .debug_str:0000000000000ccb .LASF2476
     /tmp/ccut0Zoi.s:98494  .debug_str:000000000002cfc2 .LASF2477
     /tmp/ccut0Zoi.s:88338  .debug_str:0000000000003654 .LASF2478
     /tmp/ccut0Zoi.s:91110  .debug_str:000000000000ed49 .LASF2479
     /tmp/ccut0Zoi.s:93144  .debug_str:0000000000016f54 .LASF2480
     /tmp/ccut0Zoi.s:102766  .debug_str:000000000003e43b .LASF2481
     /tmp/ccut0Zoi.s:94786  .debug_str:000000000001dee1 .LASF2482
     /tmp/ccut0Zoi.s:89652  .debug_str:0000000000008f74 .LASF2483
     /tmp/ccut0Zoi.s:90302  .debug_str:000000000000bc27 .LASF2484
     /tmp/ccut0Zoi.s:96390  .debug_str:00000000000246ea .LASF2485
     /tmp/ccut0Zoi.s:90200  .debug_str:000000000000b5e8 .LASF2486
     /tmp/ccut0Zoi.s:105540  .debug_str:0000000000049e1a .LASF2487
     /tmp/ccut0Zoi.s:98464  .debug_str:000000000002cda7 .LASF2488
     /tmp/ccut0Zoi.s:101402  .debug_str:00000000000388f5 .LASF2489
     /tmp/ccut0Zoi.s:100454  .debug_str:00000000000352c0 .LASF2490
     /tmp/ccut0Zoi.s:87632  .debug_str:00000000000005ae .LASF2491
     /tmp/ccut0Zoi.s:93122  .debug_str:0000000000016dfc .LASF2492
     /tmp/ccut0Zoi.s:98554  .debug_str:000000000002d432 .LASF2493
     /tmp/ccut0Zoi.s:88668  .debug_str:0000000000004d5b .LASF2494
     /tmp/ccut0Zoi.s:101718  .debug_str:0000000000039e8a .LASF2495
     /tmp/ccut0Zoi.s:102814  .debug_str:000000000003e7fc .LASF2496
     /tmp/ccut0Zoi.s:93348  .debug_str:0000000000017c9f .LASF2497
     /tmp/ccut0Zoi.s:90122  .debug_str:000000000000afe5 .LASF2498
     /tmp/ccut0Zoi.s:91200  .debug_str:000000000000f32e .LASF2499
     /tmp/ccut0Zoi.s:93274  .debug_str:00000000000177b9 .LASF2500
     /tmp/ccut0Zoi.s:102030  .debug_str:000000000003b3cc .LASF2501
     /tmp/ccut0Zoi.s:87960  .debug_str:0000000000001c10 .LASF2502
     /tmp/ccut0Zoi.s:94028  .debug_str:000000000001aa0c .LASF2503
     /tmp/ccut0Zoi.s:98066  .debug_str:000000000002b415 .LASF2504
     /tmp/ccut0Zoi.s:93026  .debug_str:00000000000166ec .LASF2505
     /tmp/ccut0Zoi.s:89198  .debug_str:0000000000007162 .LASF2506
     /tmp/ccut0Zoi.s:91994  .debug_str:00000000000124de .LASF2507
     /tmp/ccut0Zoi.s:97188  .debug_str:0000000000027b9d .LASF2508
     /tmp/ccut0Zoi.s:96636  .debug_str:00000000000255db .LASF2509
     /tmp/ccut0Zoi.s:104112  .debug_str:0000000000043d95 .LASF2510
     /tmp/ccut0Zoi.s:94758  .debug_str:000000000001dcc4 .LASF2511
     /tmp/ccut0Zoi.s:91324  .debug_str:000000000000f987 .LASF2512
     /tmp/ccut0Zoi.s:95078  .debug_str:000000000001f429 .LASF2513
     /tmp/ccut0Zoi.s:103152  .debug_str:000000000003ffd2 .LASF2514
     /tmp/ccut0Zoi.s:101638  .debug_str:000000000003986c .LASF2515
     /tmp/ccut0Zoi.s:89146  .debug_str:0000000000006e70 .LASF2516
     /tmp/ccut0Zoi.s:103556  .debug_str:0000000000041a71 .LASF2517
     /tmp/ccut0Zoi.s:98612  .debug_str:000000000002d7e2 .LASF2518
     /tmp/ccut0Zoi.s:98372  .debug_str:000000000002c732 .LASF2519
     /tmp/ccut0Zoi.s:100108  .debug_str:0000000000033b95 .LASF2520
     /tmp/ccut0Zoi.s:89612  .debug_str:0000000000008cdf .LASF2521
     /tmp/ccut0Zoi.s:105296  .debug_str:0000000000048d28 .LASF2522
     /tmp/ccut0Zoi.s:95614  .debug_str:000000000002176f .LASF2523
     /tmp/ccut0Zoi.s:93280  .debug_str:000000000001783e .LASF2524
     /tmp/ccut0Zoi.s:104012  .debug_str:00000000000437a5 .LASF2525
     /tmp/ccut0Zoi.s:95660  .debug_str:0000000000021a9b .LASF2526
     /tmp/ccut0Zoi.s:90344  .debug_str:000000000000befd .LASF2527
     /tmp/ccut0Zoi.s:88192  .debug_str:0000000000002c74 .LASF2528
     /tmp/ccut0Zoi.s:89964  .debug_str:000000000000a49c .LASF2529
     /tmp/ccut0Zoi.s:91684  .debug_str:0000000000010f93 .LASF2530
     /tmp/ccut0Zoi.s:96660  .debug_str:00000000000257b8 .LASF2531
     /tmp/ccut0Zoi.s:95994  .debug_str:0000000000023138 .LASF2532
     /tmp/ccut0Zoi.s:91880  .debug_str:0000000000011d46 .LASF2533
     /tmp/ccut0Zoi.s:93006  .debug_str:000000000001653a .LASF2534
     /tmp/ccut0Zoi.s:106002  .debug_str:000000000004bf33 .LASF2535
     /tmp/ccut0Zoi.s:95742  .debug_str:0000000000021fe6 .LASF2536
     /tmp/ccut0Zoi.s:93130  .debug_str:0000000000016e64 .LASF2537
     /tmp/ccut0Zoi.s:95582  .debug_str:000000000002150b .LASF2538
     /tmp/ccut0Zoi.s:98188  .debug_str:000000000002bae6 .LASF2539
     /tmp/ccut0Zoi.s:90228  .debug_str:000000000000b789 .LASF2540
     /tmp/ccut0Zoi.s:94084  .debug_str:000000000001ae60 .LASF2541
     /tmp/ccut0Zoi.s:92230  .debug_str:0000000000013480 .LASF2542
     /tmp/ccut0Zoi.s:93292  .debug_str:00000000000178ed .LASF2543
     /tmp/ccut0Zoi.s:94170  .debug_str:000000000001b4a0 .LASF2544
     /tmp/ccut0Zoi.s:88858  .debug_str:0000000000005a88 .LASF2545
     /tmp/ccut0Zoi.s:98860  .debug_str:000000000002e8db .LASF2546
     /tmp/ccut0Zoi.s:92146  .debug_str:0000000000012f2c .LASF2547
     /tmp/ccut0Zoi.s:104560  .debug_str:0000000000045aed .LASF2548
     /tmp/ccut0Zoi.s:99818  .debug_str:00000000000327a9 .LASF2549
     /tmp/ccut0Zoi.s:91768  .debug_str:000000000001157c .LASF2550
     /tmp/ccut0Zoi.s:93220  .debug_str:00000000000173e9 .LASF2551
     /tmp/ccut0Zoi.s:87904  .debug_str:000000000000180d .LASF2552
     /tmp/ccut0Zoi.s:89656  .debug_str:0000000000008fd8 .LASF2553
     /tmp/ccut0Zoi.s:94700  .debug_str:000000000001d9da .LASF2554
     /tmp/ccut0Zoi.s:102214  .debug_str:000000000003c0c1 .LASF2555
     /tmp/ccut0Zoi.s:95132  .debug_str:000000000001f8d2 .LASF2556
     /tmp/ccut0Zoi.s:95658  .debug_str:0000000000021a6a .LASF2557
     /tmp/ccut0Zoi.s:102058  .debug_str:000000000003b5c2 .LASF2558
     /tmp/ccut0Zoi.s:99266  .debug_str:00000000000302eb .LASF2559
     /tmp/ccut0Zoi.s:104024  .debug_str:00000000000438a1 .LASF2560
     /tmp/ccut0Zoi.s:104670  .debug_str:0000000000046258 .LASF2561
     /tmp/ccut0Zoi.s:88744  .debug_str:0000000000005261 .LASF2562
     /tmp/ccut0Zoi.s:96694  .debug_str:00000000000259e4 .LASF2563
     /tmp/ccut0Zoi.s:101538  .debug_str:0000000000039269 .LASF2564
     /tmp/ccut0Zoi.s:90378  .debug_str:000000000000c156 .LASF2565
     /tmp/ccut0Zoi.s:89980  .debug_str:000000000000a565 .LASF2566
     /tmp/ccut0Zoi.s:101648  .debug_str:0000000000039953 .LASF2567
     /tmp/ccut0Zoi.s:102150  .debug_str:000000000003bc34 .LASF2568
     /tmp/ccut0Zoi.s:88478  .debug_str:0000000000004057 .LASF2569
     /tmp/ccut0Zoi.s:100870  .debug_str:0000000000036b18 .LASF2570
     /tmp/ccut0Zoi.s:95048  .debug_str:000000000001f209 .LASF2571
     /tmp/ccut0Zoi.s:92086  .debug_str:0000000000012bbc .LASF2572
     /tmp/ccut0Zoi.s:95042  .debug_str:000000000001f1a8 .LASF2573
     /tmp/ccut0Zoi.s:102104  .debug_str:000000000003b8ea .LASF2574
     /tmp/ccut0Zoi.s:94010  .debug_str:000000000001a8d9 .LASF2575
     /tmp/ccut0Zoi.s:97154  .debug_str:00000000000278f9 .LASF2576
     /tmp/ccut0Zoi.s:98336  .debug_str:000000000002c4e0 .LASF2577
     /tmp/ccut0Zoi.s:102154  .debug_str:000000000003bc9e .LASF2578
     /tmp/ccut0Zoi.s:88952  .debug_str:0000000000006071 .LASF2579
     /tmp/ccut0Zoi.s:95722  .debug_str:0000000000021e72 .LASF2580
     /tmp/ccut0Zoi.s:100088  .debug_str:0000000000033a44 .LASF2581
     /tmp/ccut0Zoi.s:105018  .debug_str:00000000000479bb .LASF2582
     /tmp/ccut0Zoi.s:106068  .debug_str:000000000004c352 .LASF2583
     /tmp/ccut0Zoi.s:89950  .debug_str:000000000000a36a .LASF2584
     /tmp/ccut0Zoi.s:105332  .debug_str:0000000000048faa .LASF2585
     /tmp/ccut0Zoi.s:96608  .debug_str:0000000000025442 .LASF2586
     /tmp/ccut0Zoi.s:92374  .debug_str:0000000000013d54 .LASF2587
     /tmp/ccut0Zoi.s:93904  .debug_str:000000000001a24b .LASF2588
     /tmp/ccut0Zoi.s:103868  .debug_str:0000000000042e44 .LASF2589
     /tmp/ccut0Zoi.s:98662  .debug_str:000000000002dbb2 .LASF2590
     /tmp/ccut0Zoi.s:99908  .debug_str:0000000000032e1b .LASF2591
     /tmp/ccut0Zoi.s:105358  .debug_str:0000000000049182 .LASF2592
     /tmp/ccut0Zoi.s:95306  .debug_str:0000000000020372 .LASF2593
     /tmp/ccut0Zoi.s:95794  .debug_str:0000000000022375 .LASF2594
     /tmp/ccut0Zoi.s:92688  .debug_str:0000000000015150 .LASF2595
     /tmp/ccut0Zoi.s:101938  .debug_str:000000000003adf0 .LASF2596
     /tmp/ccut0Zoi.s:100102  .debug_str:0000000000033af8 .LASF2597
     /tmp/ccut0Zoi.s:103666  .debug_str:00000000000421ff .LASF2598
     /tmp/ccut0Zoi.s:95052  .debug_str:000000000001f271 .LASF2599
     /tmp/ccut0Zoi.s:94246  .debug_str:000000000001ba3e .LASF2600
     /tmp/ccut0Zoi.s:97558  .debug_str:00000000000292f9 .LASF2601
     /tmp/ccut0Zoi.s:103384  .debug_str:0000000000040f68 .LASF2602
     /tmp/ccut0Zoi.s:95260  .debug_str:0000000000020082 .LASF2603
     /tmp/ccut0Zoi.s:93794  .debug_str:00000000000199ce .LASF2604
     /tmp/ccut0Zoi.s:93984  .debug_str:000000000001a7a0 .LASF2605
     /tmp/ccut0Zoi.s:93620  .debug_str:0000000000018dd1 .LASF2606
     /tmp/ccut0Zoi.s:100056  .debug_str:00000000000337de .LASF2607
     /tmp/ccut0Zoi.s:91946  .debug_str:0000000000012180 .LASF2608
     /tmp/ccut0Zoi.s:97486  .debug_str:0000000000028ebe .LASF2609
     /tmp/ccut0Zoi.s:98914  .debug_str:000000000002ec71 .LASF2610
     /tmp/ccut0Zoi.s:89112  .debug_str:0000000000006c24 .LASF2611
     /tmp/ccut0Zoi.s:94000  .debug_str:000000000001a842 .LASF2612
     /tmp/ccut0Zoi.s:103352  .debug_str:0000000000040cb6 .LASF2613
     /tmp/ccut0Zoi.s:92012  .debug_str:00000000000125fb .LASF2614
     /tmp/ccut0Zoi.s:88576  .debug_str:000000000000473c .LASF2615
     /tmp/ccut0Zoi.s:105826  .debug_str:000000000004b2d8 .LASF2616
     /tmp/ccut0Zoi.s:91586  .debug_str:0000000000010998 .LASF2617
     /tmp/ccut0Zoi.s:88982  .debug_str:000000000000626c .LASF2618
     /tmp/ccut0Zoi.s:101916  .debug_str:000000000003ac3f .LASF2619
     /tmp/ccut0Zoi.s:100146  .debug_str:0000000000033ea2 .LASF2620
     /tmp/ccut0Zoi.s:103124  .debug_str:000000000003fda9 .LASF2621
     /tmp/ccut0Zoi.s:95888  .debug_str:00000000000229b0 .LASF2622
     /tmp/ccut0Zoi.s:94370  .debug_str:000000000001c201 .LASF2623
     /tmp/ccut0Zoi.s:93046  .debug_str:00000000000167ff .LASF2624
     /tmp/ccut0Zoi.s:104356  .debug_str:0000000000044d5e .LASF2625
     /tmp/ccut0Zoi.s:103268  .debug_str:00000000000406d7 .LASF2626
     /tmp/ccut0Zoi.s:100300  .debug_str:00000000000348ac .LASF2627
     /tmp/ccut0Zoi.s:90510  .debug_str:000000000000cabf .LASF2628
     /tmp/ccut0Zoi.s:101532  .debug_str:00000000000391d1 .LASF2629
     /tmp/ccut0Zoi.s:100086  .debug_str:0000000000033a0c .LASF2630
     /tmp/ccut0Zoi.s:92280  .debug_str:00000000000137af .LASF2631
     /tmp/ccut0Zoi.s:89826  .debug_str:0000000000009b81 .LASF2632
     /tmp/ccut0Zoi.s:102274  .debug_str:000000000003c4a5 .LASF2633
     /tmp/ccut0Zoi.s:100194  .debug_str:000000000003418d .LASF2634
     /tmp/ccut0Zoi.s:88466  .debug_str:0000000000003f66 .LASF2635
     /tmp/ccut0Zoi.s:99184  .debug_str:000000000002fdfe .LASF2636
     /tmp/ccut0Zoi.s:101528  .debug_str:0000000000039158 .LASF2637
     /tmp/ccut0Zoi.s:95028  .debug_str:000000000001f0ef .LASF2638
     /tmp/ccut0Zoi.s:105702  .debug_str:000000000004a981 .LASF2639
     /tmp/ccut0Zoi.s:94076  .debug_str:000000000001adf6 .LASF2640
     /tmp/ccut0Zoi.s:105490  .debug_str:0000000000049a1a .LASF2641
     /tmp/ccut0Zoi.s:105898  .debug_str:000000000004b84e .LASF2642
     /tmp/ccut0Zoi.s:98042  .debug_str:000000000002b255 .LASF2643
     /tmp/ccut0Zoi.s:91358  .debug_str:000000000000fbdd .LASF2644
     /tmp/ccut0Zoi.s:103090  .debug_str:000000000003fb2b .LASF2645
     /tmp/ccut0Zoi.s:92556  .debug_str:000000000001488b .LASF2646
     /tmp/ccut0Zoi.s:100058  .debug_str:0000000000033818 .LASF2647
     /tmp/ccut0Zoi.s:102404  .debug_str:000000000003cc98 .LASF2648
     /tmp/ccut0Zoi.s:94588  .debug_str:000000000001d16b .LASF2649
     /tmp/ccut0Zoi.s:103424  .debug_str:0000000000041207 .LASF2650
     /tmp/ccut0Zoi.s:94110  .debug_str:000000000001b075 .LASF2651
     /tmp/ccut0Zoi.s:104916  .debug_str:0000000000047317 .LASF2652
     /tmp/ccut0Zoi.s:104142  .debug_str:0000000000043f02 .LASF2653
     /tmp/ccut0Zoi.s:100344  .debug_str:0000000000034bb5 .LASF2654
     /tmp/ccut0Zoi.s:87810  .debug_str:0000000000001186 .LASF2655
     /tmp/ccut0Zoi.s:95592  .debug_str:00000000000215f6 .LASF2656
     /tmp/ccut0Zoi.s:101400  .debug_str:00000000000388b1 .LASF2657
     /tmp/ccut0Zoi.s:90138  .debug_str:000000000000b12b .LASF2658
     /tmp/ccut0Zoi.s:88438  .debug_str:0000000000003d4c .LASF2659
     /tmp/ccut0Zoi.s:104208  .debug_str:0000000000044422 .LASF2660
     /tmp/ccut0Zoi.s:103286  .debug_str:00000000000407e4 .LASF2661
     /tmp/ccut0Zoi.s:99638  .debug_str:0000000000031c15 .LASF2662
     /tmp/ccut0Zoi.s:88010  .debug_str:0000000000001f56 .LASF2663
     /tmp/ccut0Zoi.s:95004  .debug_str:000000000001eef4 .LASF2664
     /tmp/ccut0Zoi.s:97394  .debug_str:0000000000028868 .LASF2665
     /tmp/ccut0Zoi.s:91236  .debug_str:000000000000f4cb .LASF2666
     /tmp/ccut0Zoi.s:97196  .debug_str:0000000000027c1d .LASF2667
     /tmp/ccut0Zoi.s:89248  .debug_str:00000000000074e2 .LASF2668
     /tmp/ccut0Zoi.s:102570  .debug_str:000000000003d779 .LASF2669
     /tmp/ccut0Zoi.s:100784  .debug_str:0000000000036621 .LASF2670
     /tmp/ccut0Zoi.s:102922  .debug_str:000000000003f037 .LASF2671
     /tmp/ccut0Zoi.s:101724  .debug_str:0000000000039f38 .LASF2672
     /tmp/ccut0Zoi.s:89084  .debug_str:00000000000069ea .LASF2673
     /tmp/ccut0Zoi.s:97352  .debug_str:00000000000285ab .LASF2674
     /tmp/ccut0Zoi.s:94232  .debug_str:000000000001b8f3 .LASF2675
     /tmp/ccut0Zoi.s:104206  .debug_str:00000000000443e8 .LASF2676
     /tmp/ccut0Zoi.s:98332  .debug_str:000000000002c490 .LASF2677
     /tmp/ccut0Zoi.s:100722  .debug_str:00000000000362c7 .LASF2678
     /tmp/ccut0Zoi.s:104506  .debug_str:0000000000045790 .LASF2679
     /tmp/ccut0Zoi.s:100546  .debug_str:0000000000035831 .LASF2680
     /tmp/ccut0Zoi.s:88004  .debug_str:0000000000001ee6 .LASF2681
     /tmp/ccut0Zoi.s:104068  .debug_str:0000000000043b22 .LASF2682
     /tmp/ccut0Zoi.s:98040  .debug_str:000000000002b21a .LASF2683
     /tmp/ccut0Zoi.s:95086  .debug_str:000000000001f4dc .LASF2684
     /tmp/ccut0Zoi.s:89396  .debug_str:0000000000007e0c .LASF2685
     /tmp/ccut0Zoi.s:103212  .debug_str:00000000000402bd .LASF2686
     /tmp/ccut0Zoi.s:98796  .debug_str:000000000002e490 .LASF2687
     /tmp/ccut0Zoi.s:94722  .debug_str:000000000001daea .LASF2688
     /tmp/ccut0Zoi.s:93156  .debug_str:0000000000017061 .LASF2689
     /tmp/ccut0Zoi.s:92314  .debug_str:000000000001399c .LASF2690
     /tmp/ccut0Zoi.s:93464  .debug_str:000000000001834e .LASF2691
     /tmp/ccut0Zoi.s:89468  .debug_str:00000000000082e3 .LASF2692
     /tmp/ccut0Zoi.s:104808  .debug_str:0000000000046c14 .LASF2693
     /tmp/ccut0Zoi.s:93602  .debug_str:0000000000018c9b .LASF2694
     /tmp/ccut0Zoi.s:105294  .debug_str:0000000000048cf0 .LASF2695
     /tmp/ccut0Zoi.s:103598  .debug_str:0000000000041d28 .LASF2696
     /tmp/ccut0Zoi.s:101330  .debug_str:00000000000383e5 .LASF2697
     /tmp/ccut0Zoi.s:92752  .debug_str:0000000000015531 .LASF2698
     /tmp/ccut0Zoi.s:91502  .debug_str:00000000000103e1 .LASF2699
     /tmp/ccut0Zoi.s:90434  .debug_str:000000000000c577 .LASF2700
     /tmp/ccut0Zoi.s:99162  .debug_str:000000000002fc9f .LASF2701
     /tmp/ccut0Zoi.s:96596  .debug_str:000000000002535d .LASF2702
     /tmp/ccut0Zoi.s:96914  .debug_str:000000000002689a .LASF2703
     /tmp/ccut0Zoi.s:106004  .debug_str:000000000004bf6f .LASF2704
     /tmp/ccut0Zoi.s:99046  .debug_str:000000000002f548 .LASF2705
     /tmp/ccut0Zoi.s:96448  .debug_str:0000000000024920 .LASF2706
     /tmp/ccut0Zoi.s:98734  .debug_str:000000000002e058 .LASF2707
     /tmp/ccut0Zoi.s:103528  .debug_str:000000000004189f .LASF2708
     /tmp/ccut0Zoi.s:93878  .debug_str:000000000001a064 .LASF2709
     /tmp/ccut0Zoi.s:95498  .debug_str:0000000000020fd5 .LASF2710
     /tmp/ccut0Zoi.s:104304  .debug_str:00000000000449d8 .LASF2711
     /tmp/ccut0Zoi.s:98674  .debug_str:000000000002dcb7 .LASF2712
     /tmp/ccut0Zoi.s:106104  .debug_str:000000000004c5ad .LASF2713
     /tmp/ccut0Zoi.s:106244  .debug_str:000000000004cfb9 .LASF2714
     /tmp/ccut0Zoi.s:96450  .debug_str:000000000002495e .LASF2715
     /tmp/ccut0Zoi.s:92574  .debug_str:000000000001498f .LASF2716
     /tmp/ccut0Zoi.s:94186  .debug_str:000000000001b5df .LASF2717
     /tmp/ccut0Zoi.s:105978  .debug_str:000000000004bd7a .LASF2718
     /tmp/ccut0Zoi.s:102996  .debug_str:000000000003f4a1 .LASF2719
     /tmp/ccut0Zoi.s:92030  .debug_str:0000000000012717 .LASF2720
     /tmp/ccut0Zoi.s:91528  .debug_str:00000000000105ff .LASF2721
     /tmp/ccut0Zoi.s:101264  .debug_str:0000000000037f2d .LASF2722
     /tmp/ccut0Zoi.s:105516  .debug_str:0000000000049c1d .LASF2723
     /tmp/ccut0Zoi.s:99658  .debug_str:0000000000031d62 .LASF2724
     /tmp/ccut0Zoi.s:100984  .debug_str:00000000000370dc .LASF2725
     /tmp/ccut0Zoi.s:100772  .debug_str:0000000000036553 .LASF2726
     /tmp/ccut0Zoi.s:88032  .debug_str:000000000000211e .LASF2727
     /tmp/ccut0Zoi.s:104178  .debug_str:00000000000441f3 .LASF2728
     /tmp/ccut0Zoi.s:97418  .debug_str:0000000000028a25 .LASF2729
     /tmp/ccut0Zoi.s:94634  .debug_str:000000000001d4ec .LASF2730
     /tmp/ccut0Zoi.s:102794  .debug_str:000000000003e6a5 .LASF2731
     /tmp/ccut0Zoi.s:96514  .debug_str:0000000000024d9c .LASF2732
     /tmp/ccut0Zoi.s:87750  .debug_str:0000000000000d68 .LASF2733
     /tmp/ccut0Zoi.s:102968  .debug_str:000000000003f31b .LASF2734
     /tmp/ccut0Zoi.s:91196  .debug_str:000000000000f2af .LASF2735
     /tmp/ccut0Zoi.s:88848  .debug_str:00000000000059d4 .LASF2736
     /tmp/ccut0Zoi.s:91618  .debug_str:0000000000010bb8 .LASF2737
     /tmp/ccut0Zoi.s:90046  .debug_str:000000000000aa39 .LASF2738
     /tmp/ccut0Zoi.s:104768  .debug_str:0000000000046999 .LASF2739
     /tmp/ccut0Zoi.s:101154  .debug_str:000000000003798e .LASF2740
     /tmp/ccut0Zoi.s:88766  .debug_str:0000000000005425 .LASF2741
     /tmp/ccut0Zoi.s:98500  .debug_str:000000000002d031 .LASF2742
     /tmp/ccut0Zoi.s:101606  .debug_str:0000000000039668 .LASF2743
     /tmp/ccut0Zoi.s:99750  .debug_str:0000000000032376 .LASF2744
     /tmp/ccut0Zoi.s:105268  .debug_str:0000000000048b2c .LASF2745
     /tmp/ccut0Zoi.s:104656  .debug_str:0000000000046165 .LASF2746
     /tmp/ccut0Zoi.s:96224  .debug_str:0000000000023f1d .LASF2747
     /tmp/ccut0Zoi.s:96130  .debug_str:0000000000023a15 .LASF2748
     /tmp/ccut0Zoi.s:87830  .debug_str:00000000000012cd .LASF2749
     /tmp/ccut0Zoi.s:98390  .debug_str:000000000002c8c9 .LASF2750
     /tmp/ccut0Zoi.s:105646  .debug_str:000000000004a487 .LASF2751
     /tmp/ccut0Zoi.s:89698  .debug_str:00000000000092e2 .LASF2752
     /tmp/ccut0Zoi.s:102602  .debug_str:000000000003d96b .LASF2753
     /tmp/ccut0Zoi.s:97694  .debug_str:0000000000029b3d .LASF2754
     /tmp/ccut0Zoi.s:97042  .debug_str:0000000000027102 .LASF2755
     /tmp/ccut0Zoi.s:91718  .debug_str:00000000000111f5 .LASF2756
     /tmp/ccut0Zoi.s:105154  .debug_str:000000000004831d .LASF2757
     /tmp/ccut0Zoi.s:101702  .debug_str:0000000000039d6b .LASF2758
     /tmp/ccut0Zoi.s:102918  .debug_str:000000000003efef .LASF2759
     /tmp/ccut0Zoi.s:90822  .debug_str:000000000000de2a .LASF2760
     /tmp/ccut0Zoi.s:94092  .debug_str:000000000001aef5 .LASF2761
     /tmp/ccut0Zoi.s:104196  .debug_str:000000000004431e .LASF2762
     /tmp/ccut0Zoi.s:87654  .debug_str:0000000000000714 .LASF2763
     /tmp/ccut0Zoi.s:100124  .debug_str:0000000000033d28 .LASF2764
     /tmp/ccut0Zoi.s:95328  .debug_str:000000000002052d .LASF2765
     /tmp/ccut0Zoi.s:97264  .debug_str:0000000000027fda .LASF2766
     /tmp/ccut0Zoi.s:95586  .debug_str:000000000002157b .LASF2767
     /tmp/ccut0Zoi.s:93444  .debug_str:00000000000181a3 .LASF2768
     /tmp/ccut0Zoi.s:88334  .debug_str:00000000000035d9 .LASF2769
     /tmp/ccut0Zoi.s:102406  .debug_str:000000000003ccd8 .LASF2770
     /tmp/ccut0Zoi.s:100558  .debug_str:0000000000035922 .LASF2771
     /tmp/ccut0Zoi.s:93692  .debug_str:000000000001929b .LASF2772
     /tmp/ccut0Zoi.s:103070  .debug_str:000000000003f9b1 .LASF2773
     /tmp/ccut0Zoi.s:96340  .debug_str:00000000000243f1 .LASF2774
     /tmp/ccut0Zoi.s:104902  .debug_str:00000000000471da .LASF2775
     /tmp/ccut0Zoi.s:106230  .debug_str:000000000004ce9d .LASF2776
     /tmp/ccut0Zoi.s:87624  .debug_str:0000000000000505 .LASF2777
     /tmp/ccut0Zoi.s:104008  .debug_str:0000000000043731 .LASF2778
     /tmp/ccut0Zoi.s:97068  .debug_str:0000000000027325 .LASF2779
     /tmp/ccut0Zoi.s:102114  .debug_str:000000000003b9ce .LASF2780
     /tmp/ccut0Zoi.s:102286  .debug_str:000000000003c581 .LASF2781
     /tmp/ccut0Zoi.s:102224  .debug_str:000000000003c161 .LASF2782
     /tmp/ccut0Zoi.s:104720  .debug_str:000000000004662e .LASF2783
     /tmp/ccut0Zoi.s:100018  .debug_str:000000000003353d .LASF2784
     /tmp/ccut0Zoi.s:95170  .debug_str:000000000001faf2 .LASF2785
     /tmp/ccut0Zoi.s:88106  .debug_str:0000000000002677 .LASF2786
     /tmp/ccut0Zoi.s:104282  .debug_str:0000000000044866 .LASF2787
     /tmp/ccut0Zoi.s:99056  .debug_str:000000000002f5d8 .LASF2788
     /tmp/ccut0Zoi.s:99060  .debug_str:000000000002f62b .LASF2789
     /tmp/ccut0Zoi.s:95930  .debug_str:0000000000022c3c .LASF2790
     /tmp/ccut0Zoi.s:102928  .debug_str:000000000003f0af .LASF2791
     /tmp/ccut0Zoi.s:89030  .debug_str:00000000000065e8 .LASF2792
     /tmp/ccut0Zoi.s:92552  .debug_str:000000000001481b .LASF2793
     /tmp/ccut0Zoi.s:89490  .debug_str:000000000000845d .LASF2794
     /tmp/ccut0Zoi.s:98200  .debug_str:000000000002bb94 .LASF2795
     /tmp/ccut0Zoi.s:103970  .debug_str:00000000000434a6 .LASF2796
     /tmp/ccut0Zoi.s:102738  .debug_str:000000000003e21a .LASF2797
     /tmp/ccut0Zoi.s:87670  .debug_str:0000000000000825 .LASF2798
     /tmp/ccut0Zoi.s:99338  .debug_str:000000000003082f .LASF2799
     /tmp/ccut0Zoi.s:89494  .debug_str:00000000000084a6 .LASF2800
     /tmp/ccut0Zoi.s:97918  .debug_str:000000000002aa1d .LASF2801
     /tmp/ccut0Zoi.s:98900  .debug_str:000000000002eb71 .LASF2802
     /tmp/ccut0Zoi.s:102394  .debug_str:000000000003cbf5 .LASF2803
     /tmp/ccut0Zoi.s:100732  .debug_str:00000000000363ca .LASF2804
     /tmp/ccut0Zoi.s:88260  .debug_str:00000000000031a3 .LASF2805
     /tmp/ccut0Zoi.s:102192  .debug_str:000000000003bf4a .LASF2806
     /tmp/ccut0Zoi.s:101180  .debug_str:0000000000037a61 .LASF2807
     /tmp/ccut0Zoi.s:94068  .debug_str:000000000001ad54 .LASF2808
     /tmp/ccut0Zoi.s:92622  .debug_str:0000000000014c75 .LASF2809
     /tmp/ccut0Zoi.s:100418  .debug_str:0000000000035031 .LASF2810
     /tmp/ccut0Zoi.s:103462  .debug_str:0000000000041494 .LASF2811
     /tmp/ccut0Zoi.s:102288  .debug_str:000000000003c5c2 .LASF2812
     /tmp/ccut0Zoi.s:94974  .debug_str:000000000001ec45 .LASF2813
     /tmp/ccut0Zoi.s:103846  .debug_str:0000000000042cd8 .LASF2814
     /tmp/ccut0Zoi.s:105176  .debug_str:00000000000484a7 .LASF2815
     /tmp/ccut0Zoi.s:95126  .debug_str:000000000001f86f .LASF2816
     /tmp/ccut0Zoi.s:93166  .debug_str:000000000001712d .LASF2817
     /tmp/ccut0Zoi.s:105060  .debug_str:0000000000047c2f .LASF2818
     /tmp/ccut0Zoi.s:101056  .debug_str:000000000003743a .LASF2819
     /tmp/ccut0Zoi.s:94254  .debug_str:000000000001baba .LASF2820
     /tmp/ccut0Zoi.s:103582  .debug_str:0000000000041c74 .LASF2821
     /tmp/ccut0Zoi.s:97544  .debug_str:00000000000291bf .LASF2822
     /tmp/ccut0Zoi.s:92162  .debug_str:000000000001301e .LASF2823
     /tmp/ccut0Zoi.s:97608  .debug_str:0000000000029607 .LASF2824
     /tmp/ccut0Zoi.s:104350  .debug_str:0000000000044cef .LASF2825
     /tmp/ccut0Zoi.s:103308  .debug_str:00000000000409b2 .LASF2826
     /tmp/ccut0Zoi.s:91798  .debug_str:00000000000117ab .LASF2827
     /tmp/ccut0Zoi.s:103572  .debug_str:0000000000041bd5 .LASF2828
     /tmp/ccut0Zoi.s:91806  .debug_str:0000000000011847 .LASF2829
     /tmp/ccut0Zoi.s:91908  .debug_str:0000000000011ebc .LASF2830
     /tmp/ccut0Zoi.s:95408  .debug_str:0000000000020b02 .LASF2831
     /tmp/ccut0Zoi.s:103158  .debug_str:0000000000040044 .LASF2832
     /tmp/ccut0Zoi.s:88768  .debug_str:0000000000005465 .LASF2833
     /tmp/ccut0Zoi.s:105934  .debug_str:000000000004bad4 .LASF2834
     /tmp/ccut0Zoi.s:99604  .debug_str:0000000000031a6c .LASF2835
     /tmp/ccut0Zoi.s:90380  .debug_str:000000000000c191 .LASF2836
     /tmp/ccut0Zoi.s:97362  .debug_str:0000000000028671 .LASF2837
     /tmp/ccut0Zoi.s:101846  .debug_str:000000000003a795 .LASF2838
     /tmp/ccut0Zoi.s:95084  .debug_str:000000000001f4a0 .LASF2839
     /tmp/ccut0Zoi.s:88094  .debug_str:0000000000002563 .LASF2840
     /tmp/ccut0Zoi.s:89404  .debug_str:0000000000007ea0 .LASF2841
     /tmp/ccut0Zoi.s:99172  .debug_str:000000000002fd4d .LASF2842
     /tmp/ccut0Zoi.s:103456  .debug_str:0000000000041414 .LASF2843
     /tmp/ccut0Zoi.s:101546  .debug_str:0000000000039306 .LASF2844
     /tmp/ccut0Zoi.s:101542  .debug_str:00000000000392c2 .LASF2845
     /tmp/ccut0Zoi.s:98762  .debug_str:000000000002e1ea .LASF2846
     /tmp/ccut0Zoi.s:94240  .debug_str:000000000001b9be .LASF2847
     /tmp/ccut0Zoi.s:89062  .debug_str:000000000000680d .LASF2848
     /tmp/ccut0Zoi.s:102128  .debug_str:000000000003baff .LASF2849
     /tmp/ccut0Zoi.s:88862  .debug_str:0000000000005adb .LASF2850
     /tmp/ccut0Zoi.s:94696  .debug_str:000000000001d971 .LASF2851
     /tmp/ccut0Zoi.s:94354  .debug_str:000000000001c0ee .LASF2852
     /tmp/ccut0Zoi.s:91562  .debug_str:00000000000107ad .LASF2853
     /tmp/ccut0Zoi.s:98280  .debug_str:000000000002c0f5 .LASF2854
     /tmp/ccut0Zoi.s:102264  .debug_str:000000000003c3ec .LASF2855
     /tmp/ccut0Zoi.s:93248  .debug_str:00000000000175cc .LASF2856
     /tmp/ccut0Zoi.s:97962  .debug_str:000000000002ad25 .LASF2857
     /tmp/ccut0Zoi.s:99398  .debug_str:0000000000030c9e .LASF2858
     /tmp/ccut0Zoi.s:95736  .debug_str:0000000000021f65 .LASF2859
     /tmp/ccut0Zoi.s:87932  .debug_str:0000000000001a01 .LASF2860
     /tmp/ccut0Zoi.s:91434  .debug_str:000000000000fffe .LASF2861
     /tmp/ccut0Zoi.s:95112  .debug_str:000000000001f71e .LASF2862
     /tmp/ccut0Zoi.s:90210  .debug_str:000000000000b677 .LASF2863
     /tmp/ccut0Zoi.s:103262  .debug_str:0000000000040669 .LASF2864
     /tmp/ccut0Zoi.s:89412  .debug_str:0000000000007f39 .LASF2865
     /tmp/ccut0Zoi.s:90350  .debug_str:000000000000bf7f .LASF2866
     /tmp/ccut0Zoi.s:94108  .debug_str:000000000001b02f .LASF2867
     /tmp/ccut0Zoi.s:89800  .debug_str:0000000000009987 .LASF2868
     /tmp/ccut0Zoi.s:102260  .debug_str:000000000003c38e .LASF2869
     /tmp/ccut0Zoi.s:92368  .debug_str:0000000000013ccb .LASF2870
     /tmp/ccut0Zoi.s:91704  .debug_str:00000000000110f2 .LASF2871
     /tmp/ccut0Zoi.s:96894  .debug_str:0000000000026724 .LASF2872
     /tmp/ccut0Zoi.s:89390  .debug_str:0000000000007d89 .LASF2873
     /tmp/ccut0Zoi.s:88350  .debug_str:000000000000373d .LASF2874
     /tmp/ccut0Zoi.s:100010  .debug_str:00000000000334ba .LASF2875
     /tmp/ccut0Zoi.s:98684  .debug_str:000000000002dd65 .LASF2876
     /tmp/ccut0Zoi.s:105820  .debug_str:000000000004b273 .LASF2877
     /tmp/ccut0Zoi.s:106184  .debug_str:000000000004cb7c .LASF2878
     /tmp/ccut0Zoi.s:93940  .debug_str:000000000001a489 .LASF2879
     /tmp/ccut0Zoi.s:89068  .debug_str:0000000000006897 .LASF2880
     /tmp/ccut0Zoi.s:103128  .debug_str:000000000003fe02 .LASF2881
     /tmp/ccut0Zoi.s:89570  .debug_str:0000000000008a06 .LASF2882
     /tmp/ccut0Zoi.s:105710  .debug_str:000000000004aa4a .LASF2883
     /tmp/ccut0Zoi.s:90008  .debug_str:000000000000a77e .LASF2884
     /tmp/ccut0Zoi.s:101998  .debug_str:000000000003b18b .LASF2885
     /tmp/ccut0Zoi.s:97138  .debug_str:00000000000277aa .LASF2886
     /tmp/ccut0Zoi.s:92042  .debug_str:0000000000012833 .LASF2887
     /tmp/ccut0Zoi.s:103080  .debug_str:000000000003fa75 .LASF2888
     /tmp/ccut0Zoi.s:101536  .debug_str:0000000000039228 .LASF2889
     /tmp/ccut0Zoi.s:96646  .debug_str:00000000000256ae .LASF2890
     /tmp/ccut0Zoi.s:100038  .debug_str:0000000000033699 .LASF2891
     /tmp/ccut0Zoi.s:104060  .debug_str:0000000000043aa5 .LASF2892
     /tmp/ccut0Zoi.s:101750  .debug_str:000000000003a10c .LASF2893
     /tmp/ccut0Zoi.s:89090  .debug_str:0000000000006a60 .LASF2894
     /tmp/ccut0Zoi.s:104582  .debug_str:0000000000045c5c .LASF2895
     /tmp/ccut0Zoi.s:101800  .debug_str:000000000003a4ad .LASF2896
     /tmp/ccut0Zoi.s:93082  .debug_str:0000000000016ad1 .LASF2897
     /tmp/ccut0Zoi.s:94658  .debug_str:000000000001d6aa .LASF2898
     /tmp/ccut0Zoi.s:89880  .debug_str:0000000000009e88 .LASF2899
     /tmp/ccut0Zoi.s:92370  .debug_str:0000000000013d09 .LASF2900
     /tmp/ccut0Zoi.s:92628  .debug_str:0000000000014d04 .LASF2901
     /tmp/ccut0Zoi.s:90482  .debug_str:000000000000c89c .LASF2902
     /tmp/ccut0Zoi.s:102810  .debug_str:000000000003e79d .LASF2903
     /tmp/ccut0Zoi.s:105654  .debug_str:000000000004a529 .LASF2904
     /tmp/ccut0Zoi.s:97714  .debug_str:0000000000029d3e .LASF2905
     /tmp/ccut0Zoi.s:105150  .debug_str:00000000000482cf .LASF2906
     /tmp/ccut0Zoi.s:88020  .debug_str:0000000000002046 .LASF2907
     /tmp/ccut0Zoi.s:91748  .debug_str:00000000000113fa .LASF2908
     /tmp/ccut0Zoi.s:99348  .debug_str:0000000000030947 .LASF2909
     /tmp/ccut0Zoi.s:104906  .debug_str:0000000000047247 .LASF2910
     /tmp/ccut0Zoi.s:97028  .debug_str:0000000000026fec .LASF2911
     /tmp/ccut0Zoi.s:102866  .debug_str:000000000003ebb9 .LASF2912
     /tmp/ccut0Zoi.s:99608  .debug_str:0000000000031ab7 .LASF2913
     /tmp/ccut0Zoi.s:88610  .debug_str:0000000000004969 .LASF2914
     /tmp/ccut0Zoi.s:91510  .debug_str:000000000001048d .LASF2915
     /tmp/ccut0Zoi.s:94964  .debug_str:000000000001eb78 .LASF2916
     /tmp/ccut0Zoi.s:93740  .debug_str:000000000001962f .LASF2917
     /tmp/ccut0Zoi.s:105776  .debug_str:000000000004afb7 .LASF2918
     /tmp/ccut0Zoi.s:94398  .debug_str:000000000001c418 .LASF2919
     /tmp/ccut0Zoi.s:101344  .debug_str:00000000000384de .LASF2920
     /tmp/ccut0Zoi.s:101266  .debug_str:0000000000037f6e .LASF2921
     /tmp/ccut0Zoi.s:89936  .debug_str:000000000000a2a6 .LASF2922
     /tmp/ccut0Zoi.s:95406  .debug_str:0000000000020ab6 .LASF2923
     /tmp/ccut0Zoi.s:100562  .debug_str:000000000003598d .LASF2924
     /tmp/ccut0Zoi.s:98652  .debug_str:000000000002daf9 .LASF2925
     /tmp/ccut0Zoi.s:101870  .debug_str:000000000003a920 .LASF2926
     /tmp/ccut0Zoi.s:94646  .debug_str:000000000001d5ed .LASF2927
     /tmp/ccut0Zoi.s:102514  .debug_str:000000000003d3fa .LASF2928
     /tmp/ccut0Zoi.s:100726  .debug_str:0000000000036310 .LASF2929
     /tmp/ccut0Zoi.s:93814  .debug_str:0000000000019bb9 .LASF2930
     /tmp/ccut0Zoi.s:94808  .debug_str:000000000001e082 .LASF2931
     /tmp/ccut0Zoi.s:103834  .debug_str:0000000000042bf1 .LASF2932
     /tmp/ccut0Zoi.s:90628  .debug_str:000000000000d249 .LASF2933
     /tmp/ccut0Zoi.s:101758  .debug_str:000000000003a1ad .LASF2934
     /tmp/ccut0Zoi.s:101046  .debug_str:00000000000373a3 .LASF2935
     /tmp/ccut0Zoi.s:92986  .debug_str:000000000001642a .LASF2936
     /tmp/ccut0Zoi.s:92490  .debug_str:0000000000014421 .LASF2937
     /tmp/ccut0Zoi.s:99496  .debug_str:000000000003134b .LASF2938
     /tmp/ccut0Zoi.s:102714  .debug_str:000000000003e033 .LASF2939
     /tmp/ccut0Zoi.s:94264  .debug_str:000000000001bb82 .LASF2940
     /tmp/ccut0Zoi.s:101762  .debug_str:000000000003a1f9 .LASF2941
     /tmp/ccut0Zoi.s:102126  .debug_str:000000000003babc .LASF2942
     /tmp/ccut0Zoi.s:94174  .debug_str:000000000001b512 .LASF2943
     /tmp/ccut0Zoi.s:102846  .debug_str:000000000003ea29 .LASF2944
     /tmp/ccut0Zoi.s:104466  .debug_str:000000000004551c .LASF2945
     /tmp/ccut0Zoi.s:98638  .debug_str:000000000002d9f9 .LASF2946
     /tmp/ccut0Zoi.s:92634  .debug_str:0000000000014d8e .LASF2947
     /tmp/ccut0Zoi.s:89278  .debug_str:000000000000768f .LASF2948
     /tmp/ccut0Zoi.s:98706  .debug_str:000000000002de8d .LASF2949
     /tmp/ccut0Zoi.s:90338  .debug_str:000000000000be89 .LASF2950
     /tmp/ccut0Zoi.s:102156  .debug_str:000000000003bcdf .LASF2951
     /tmp/ccut0Zoi.s:97166  .debug_str:00000000000279fc .LASF2952
     /tmp/ccut0Zoi.s:103256  .debug_str:00000000000405c7 .LASF2953
     /tmp/ccut0Zoi.s:92140  .debug_str:0000000000012e9c .LASF2954
     /tmp/ccut0Zoi.s:103312  .debug_str:0000000000040a0e .LASF2955
     /tmp/ccut0Zoi.s:95988  .debug_str:000000000002307c .LASF2956
     /tmp/ccut0Zoi.s:104358  .debug_str:0000000000044da1 .LASF2957
     /tmp/ccut0Zoi.s:100848  .debug_str:0000000000036949 .LASF2958
     /tmp/ccut0Zoi.s:97682  .debug_str:0000000000029a68 .LASF2959
     /tmp/ccut0Zoi.s:98722  .debug_str:000000000002df99 .LASF2960
     /tmp/ccut0Zoi.s:105974  .debug_str:000000000004bd09 .LASF2961
     /tmp/ccut0Zoi.s:89024  .debug_str:000000000000656b .LASF2962
     /tmp/ccut0Zoi.s:99886  .debug_str:0000000000032cb1 .LASF2963
     /tmp/ccut0Zoi.s:104478  .debug_str:00000000000455f2 .LASF2964
     /tmp/ccut0Zoi.s:95106  .debug_str:000000000001f6c5 .LASF2965
     /tmp/ccut0Zoi.s:94774  .debug_str:000000000001de0c .LASF2966
     /tmp/ccut0Zoi.s:103854  .debug_str:0000000000042d72 .LASF2967
     /tmp/ccut0Zoi.s:89536  .debug_str:0000000000008786 .LASF2968
     /tmp/ccut0Zoi.s:101014  .debug_str:00000000000371b9 .LASF2969
     /tmp/ccut0Zoi.s:94490  .debug_str:000000000001ca3f .LASF2970
     /tmp/ccut0Zoi.s:91518  .debug_str:0000000000010545 .LASF2971
     /tmp/ccut0Zoi.s:101874  .debug_str:000000000003a979 .LASF2972
     /tmp/ccut0Zoi.s:92802  .debug_str:00000000000157f9 .LASF2973
     /tmp/ccut0Zoi.s:105764  .debug_str:000000000004aed4 .LASF2974
     /tmp/ccut0Zoi.s:97774  .debug_str:000000000002a142 .LASF2975
     /tmp/ccut0Zoi.s:91198  .debug_str:000000000000f2e6 .LASF2976
     /tmp/ccut0Zoi.s:98574  .debug_str:000000000002d535 .LASF2977
     /tmp/ccut0Zoi.s:96122  .debug_str:0000000000023939 .LASF2978
     /tmp/ccut0Zoi.s:89034  .debug_str:0000000000006649 .LASF2979
     /tmp/ccut0Zoi.s:93748  .debug_str:00000000000196ef .LASF2980
     /tmp/ccut0Zoi.s:93808  .debug_str:0000000000019b4f .LASF2981
     /tmp/ccut0Zoi.s:94070  .debug_str:000000000001ad97 .LASF2982
     /tmp/ccut0Zoi.s:98460  .debug_str:000000000002cd46 .LASF2983
     /tmp/ccut0Zoi.s:89694  .debug_str:0000000000009251 .LASF2984
     /tmp/ccut0Zoi.s:101620  .debug_str:0000000000039721 .LASF2985
     /tmp/ccut0Zoi.s:89072  .debug_str:0000000000006910 .LASF2986
     /tmp/ccut0Zoi.s:95468  .debug_str:0000000000020e20 .LASF2987
     /tmp/ccut0Zoi.s:98780  .debug_str:000000000002e349 .LASF2988
     /tmp/ccut0Zoi.s:92694  .debug_str:0000000000015204 .LASF2989
     /tmp/ccut0Zoi.s:90116  .debug_str:000000000000af3f .LASF2990
     /tmp/ccut0Zoi.s:102682  .debug_str:000000000003de93 .LASF2991
     /tmp/ccut0Zoi.s:89496  .debug_str:00000000000084e7 .LASF2992
     /tmp/ccut0Zoi.s:93982  .debug_str:000000000001a75a .LASF2993
     /tmp/ccut0Zoi.s:103346  .debug_str:0000000000040c11 .LASF2994
     /tmp/ccut0Zoi.s:99558  .debug_str:000000000003176a .LASF2995
     /tmp/ccut0Zoi.s:94858  .debug_str:000000000001e486 .LASF2996
     /tmp/ccut0Zoi.s:104284  .debug_str:00000000000448a7 .LASF2997
     /tmp/ccut0Zoi.s:96642  .debug_str:000000000002565c .LASF2998
     /tmp/ccut0Zoi.s:100860  .debug_str:0000000000036a55 .LASF2999
     /tmp/ccut0Zoi.s:96806  .debug_str:00000000000260cf .LASF3000
     /tmp/ccut0Zoi.s:92078  .debug_str:0000000000012aef .LASF3001
     /tmp/ccut0Zoi.s:95756  .debug_str:00000000000220f3 .LASF3002
     /tmp/ccut0Zoi.s:99996  .debug_str:00000000000333be .LASF3003
     /tmp/ccut0Zoi.s:88214  .debug_str:0000000000002e7f .LASF3004
     /tmp/ccut0Zoi.s:100044  .debug_str:000000000003370d .LASF3005
     /tmp/ccut0Zoi.s:87690  .debug_str:0000000000000978 .LASF3006
     /tmp/ccut0Zoi.s:95026  .debug_str:000000000001f0a8 .LASF3007
     /tmp/ccut0Zoi.s:102120  .debug_str:000000000003ba35 .LASF3008
     /tmp/ccut0Zoi.s:88898  .debug_str:0000000000005d18 .LASF3009
     /tmp/ccut0Zoi.s:94156  .debug_str:000000000001b372 .LASF3010
     /tmp/ccut0Zoi.s:94406  .debug_str:000000000001c4a6 .LASF3011
     /tmp/ccut0Zoi.s:88746  .debug_str:00000000000052a4 .LASF3012
     /tmp/ccut0Zoi.s:93450  .debug_str:0000000000018227 .LASF3013
     /tmp/ccut0Zoi.s:99160  .debug_str:000000000002fc5c .LASF3014
     /tmp/ccut0Zoi.s:102284  .debug_str:000000000003c536 .LASF3015
     /tmp/ccut0Zoi.s:94144  .debug_str:000000000001b2b1 .LASF3016
     /tmp/ccut0Zoi.s:98606  .debug_str:000000000002d75b .LASF3017
     /tmp/ccut0Zoi.s:93262  .debug_str:0000000000017701 .LASF3018
     /tmp/ccut0Zoi.s:104680  .debug_str:0000000000046321 .LASF3019
     /tmp/ccut0Zoi.s:105416  .debug_str:000000000004952f .LASF3020
     /tmp/ccut0Zoi.s:96812  .debug_str:000000000002614b .LASF3021
     /tmp/ccut0Zoi.s:97174  .debug_str:0000000000027ab9 .LASF3022
     /tmp/ccut0Zoi.s:89882  .debug_str:0000000000009ecf .LASF3023
     /tmp/ccut0Zoi.s:105192  .debug_str:00000000000485c6 .LASF3024
     /tmp/ccut0Zoi.s:106108  .debug_str:000000000004c60a .LASF3025
     /tmp/ccut0Zoi.s:100648  .debug_str:0000000000035e91 .LASF3026
     /tmp/ccut0Zoi.s:99356  .debug_str:00000000000309df .LASF3027
     /tmp/ccut0Zoi.s:95846  .debug_str:000000000002272c .LASF3028
     /tmp/ccut0Zoi.s:101300  .debug_str:00000000000381ed .LASF3029
     /tmp/ccut0Zoi.s:100640  .debug_str:0000000000035dd8 .LASF3030
     /tmp/ccut0Zoi.s:91600  .debug_str:0000000000010a62 .LASF3031
     /tmp/ccut0Zoi.s:89152  .debug_str:0000000000006ed2 .LASF3032
     /tmp/ccut0Zoi.s:91392  .debug_str:000000000000fd5b .LASF3033
     /tmp/ccut0Zoi.s:101652  .debug_str:00000000000399ac .LASF3034
     /tmp/ccut0Zoi.s:98520  .debug_str:000000000002d1d4 .LASF3035
     /tmp/ccut0Zoi.s:87980  .debug_str:0000000000001d2a .LASF3036
     /tmp/ccut0Zoi.s:93474  .debug_str:00000000000183e8 .LASF3037
     /tmp/ccut0Zoi.s:91952  .debug_str:00000000000121e8 .LASF3038
     /tmp/ccut0Zoi.s:98634  .debug_str:000000000002d981 .LASF3039
     /tmp/ccut0Zoi.s:89430  .debug_str:0000000000008093 .LASF3040
     /tmp/ccut0Zoi.s:103380  .debug_str:0000000000040eff .LASF3041
     /tmp/ccut0Zoi.s:102438  .debug_str:000000000003cf29 .LASF3042
     /tmp/ccut0Zoi.s:103778  .debug_str:00000000000428e0 .LASF3043
     /tmp/ccut0Zoi.s:99570  .debug_str:0000000000031830 .LASF3044
     /tmp/ccut0Zoi.s:95334  .debug_str:00000000000205a8 .LASF3045
     /tmp/ccut0Zoi.s:95238  .debug_str:000000000001fecb .LASF3046
     /tmp/ccut0Zoi.s:89678  .debug_str:0000000000009100 .LASF3047
     /tmp/ccut0Zoi.s:88804  .debug_str:0000000000005758 .LASF3048
     /tmp/ccut0Zoi.s:102894  .debug_str:000000000003edff .LASF3049
     /tmp/ccut0Zoi.s:104322  .debug_str:0000000000044b0d .LASF3050
     /tmp/ccut0Zoi.s:94430  .debug_str:000000000001c62d .LASF3051
     /tmp/ccut0Zoi.s:92862  .debug_str:0000000000015be7 .LASF3052
     /tmp/ccut0Zoi.s:104674  .debug_str:00000000000462ab .LASF3053
     /tmp/ccut0Zoi.s:102842  .debug_str:000000000003e9c4 .LASF3054
     /tmp/ccut0Zoi.s:97434  .debug_str:0000000000028b10 .LASF3055
     /tmp/ccut0Zoi.s:101102  .debug_str:000000000003763a .LASF3056
     /tmp/ccut0Zoi.s:88840  .debug_str:000000000000596b .LASF3057
     /tmp/ccut0Zoi.s:88418  .debug_str:0000000000003bc2 .LASF3058
     /tmp/ccut0Zoi.s:94030  .debug_str:000000000001aa47 .LASF3059
     /tmp/ccut0Zoi.s:98542  .debug_str:000000000002d34a .LASF3060
     /tmp/ccut0Zoi.s:90550  .debug_str:000000000000cd35 .LASF3061
     /tmp/ccut0Zoi.s:89628  .debug_str:0000000000008dfc .LASF3062
     /tmp/ccut0Zoi.s:89526  .debug_str:00000000000086ae .LASF3063
     /tmp/ccut0Zoi.s:103454  .debug_str:00000000000413d1 .LASF3064
     /tmp/ccut0Zoi.s:99710  .debug_str:0000000000032104 .LASF3065
     /tmp/ccut0Zoi.s:97356  .debug_str:00000000000285fa .LASF3066
     /tmp/ccut0Zoi.s:94042  .debug_str:000000000001ab47 .LASF3067
     /tmp/ccut0Zoi.s:91396  .debug_str:000000000000fda7 .LASF3068
     /tmp/ccut0Zoi.s:102370  .debug_str:000000000003ca57 .LASF3069
     /tmp/ccut0Zoi.s:95114  .debug_str:000000000001f767 .LASF3070
     /tmp/ccut0Zoi.s:89552  .debug_str:00000000000088c7 .LASF3071
     /tmp/ccut0Zoi.s:94238  .debug_str:000000000001b97d .LASF3072
     /tmp/ccut0Zoi.s:95966  .debug_str:0000000000022efe .LASF3073
     /tmp/ccut0Zoi.s:100530  .debug_str:00000000000356f6 .LASF3074
     /tmp/ccut0Zoi.s:92770  .debug_str:0000000000015604 .LASF3075
     /tmp/ccut0Zoi.s:102966  .debug_str:000000000003f2d0 .LASF3076
     /tmp/ccut0Zoi.s:103976  .debug_str:000000000004350f .LASF3077
     /tmp/ccut0Zoi.s:101720  .debug_str:0000000000039ec8 .LASF3078
     /tmp/ccut0Zoi.s:104884  .debug_str:0000000000047097 .LASF3079
     /tmp/ccut0Zoi.s:101380  .debug_str:000000000003875d .LASF3080
     /tmp/ccut0Zoi.s:100312  .debug_str:00000000000349b3 .LASF3081
     /tmp/ccut0Zoi.s:91678  .debug_str:0000000000010edd .LASF3082
     /tmp/ccut0Zoi.s:95558  .debug_str:00000000000213a1 .LASF3083
     /tmp/ccut0Zoi.s:100892  .debug_str:0000000000036c48 .LASF3084
     /tmp/ccut0Zoi.s:91868  .debug_str:0000000000011c74 .LASF3085
     /tmp/ccut0Zoi.s:89544  .debug_str:0000000000008815 .LASF3086
     /tmp/ccut0Zoi.s:105990  .debug_str:000000000004be4e .LASF3087
     /tmp/ccut0Zoi.s:101022  .debug_str:0000000000037232 .LASF3088
     /tmp/ccut0Zoi.s:101476  .debug_str:0000000000038dbc .LASF3089
     /tmp/ccut0Zoi.s:93538  .debug_str:0000000000018832 .LASF3090
     /tmp/ccut0Zoi.s:96628  .debug_str:000000000002556a .LASF3091
     /tmp/ccut0Zoi.s:88720  .debug_str:000000000000507b .LASF3092
     /tmp/ccut0Zoi.s:101630  .debug_str:00000000000397f1 .LASF3093
     /tmp/ccut0Zoi.s:88536  .debug_str:000000000000443d .LASF3094
     /tmp/ccut0Zoi.s:104054  .debug_str:0000000000043a17 .LASF3095
     /tmp/ccut0Zoi.s:96580  .debug_str:00000000000251ee .LASF3096
     /tmp/ccut0Zoi.s:97066  .debug_str:00000000000272e5 .LASF3097
     /tmp/ccut0Zoi.s:102110  .debug_str:000000000003b95e .LASF3098
     /tmp/ccut0Zoi.s:90354  .debug_str:000000000000bfdd .LASF3099
     /tmp/ccut0Zoi.s:90412  .debug_str:000000000000c3eb .LASF3100
     /tmp/ccut0Zoi.s:104784  .debug_str:0000000000046a85 .LASF3101
     /tmp/ccut0Zoi.s:105788  .debug_str:000000000004b08b .LASF3102
     /tmp/ccut0Zoi.s:102518  .debug_str:000000000003d467 .LASF3103
     /tmp/ccut0Zoi.s:92206  .debug_str:00000000000132b4 .LASF3104
     /tmp/ccut0Zoi.s:92824  .debug_str:00000000000159ac .LASF3105
     /tmp/ccut0Zoi.s:100656  .debug_str:0000000000035f1c .LASF3106
     /tmp/ccut0Zoi.s:103980  .debug_str:0000000000043589 .LASF3107
     /tmp/ccut0Zoi.s:102624  .debug_str:000000000003da9f .LASF3108
     /tmp/ccut0Zoi.s:105578  .debug_str:000000000004a080 .LASF3109
     /tmp/ccut0Zoi.s:88210  .debug_str:0000000000002e2b .LASF3110
     /tmp/ccut0Zoi.s:101376  .debug_str:000000000003870d .LASF3111
     /tmp/ccut0Zoi.s:98552  .debug_str:000000000002d3f4 .LASF3112
     /tmp/ccut0Zoi.s:101950  .debug_str:000000000003aead .LASF3113
     /tmp/ccut0Zoi.s:89890  .debug_str:0000000000009f78 .LASF3114
     /tmp/ccut0Zoi.s:93024  .debug_str:00000000000166a6 .LASF3115
     /tmp/ccut0Zoi.s:103038  .debug_str:000000000003f76b .LASF3116
     /tmp/ccut0Zoi.s:94852  .debug_str:000000000001e422 .LASF3117
     /tmp/ccut0Zoi.s:101578  .debug_str:00000000000394e1 .LASF3118
     /tmp/ccut0Zoi.s:104834  .debug_str:0000000000046dc8 .LASF3119
     /tmp/ccut0Zoi.s:93022  .debug_str:000000000001666b .LASF3120
     /tmp/ccut0Zoi.s:96110  .debug_str:000000000002387d .LASF3121
     /tmp/ccut0Zoi.s:103238  .debug_str:0000000000040452 .LASF3122
     /tmp/ccut0Zoi.s:106128  .debug_str:000000000004c7a1 .LASF3123
     /tmp/ccut0Zoi.s:103774  .debug_str:0000000000042886 .LASF3124
     /tmp/ccut0Zoi.s:95316  .debug_str:000000000002044a .LASF3125
     /tmp/ccut0Zoi.s:94120  .debug_str:000000000001b139 .LASF3126
     /tmp/ccut0Zoi.s:100206  .debug_str:0000000000034262 .LASF3127
     /tmp/ccut0Zoi.s:87622  .debug_str:00000000000004c6 .LASF3128
     /tmp/ccut0Zoi.s:99976  .debug_str:000000000003322e .LASF3129
     /tmp/ccut0Zoi.s:97810  .debug_str:000000000002a2ed .LASF3130
     /tmp/ccut0Zoi.s:98204  .debug_str:000000000002bbe4 .LASF3131
     /tmp/ccut0Zoi.s:103930  .debug_str:00000000000431d6 .LASF3132
     /tmp/ccut0Zoi.s:101574  .debug_str:000000000003948e .LASF3133
     /tmp/ccut0Zoi.s:99758  .debug_str:0000000000032407 .LASF3134
     /tmp/ccut0Zoi.s:88664  .debug_str:0000000000004cfa .LASF3135
     /tmp/ccut0Zoi.s:105752  .debug_str:000000000004adda .LASF3136
     /tmp/ccut0Zoi.s:91840  .debug_str:0000000000011ac1 .LASF3137
     /tmp/ccut0Zoi.s:99166  .debug_str:000000000002fcea .LASF3138
     /tmp/ccut0Zoi.s:93340  .debug_str:0000000000017c05 .LASF3139
     /tmp/ccut0Zoi.s:105188  .debug_str:0000000000048577 .LASF3140
     /tmp/ccut0Zoi.s:92884  .debug_str:0000000000015d64 .LASF3141
     /tmp/ccut0Zoi.s:98384  .debug_str:000000000002c84b .LASF3142
     /tmp/ccut0Zoi.s:104202  .debug_str:0000000000044383 .LASF3143
     /tmp/ccut0Zoi.s:100118  .debug_str:0000000000033ca7 .LASF3144
     /tmp/ccut0Zoi.s:96814  .debug_str:0000000000026192 .LASF3145
     /tmp/ccut0Zoi.s:97450  .debug_str:0000000000028c45 .LASF3146
     /tmp/ccut0Zoi.s:95934  .debug_str:0000000000022ca1 .LASF3147
     /tmp/ccut0Zoi.s:92638  .debug_str:0000000000014de5 .LASF3148
     /tmp/ccut0Zoi.s:105052  .debug_str:0000000000047b95 .LASF3149
     /tmp/ccut0Zoi.s:87996  .debug_str:0000000000001e43 .LASF3150
     /tmp/ccut0Zoi.s:95522  .debug_str:00000000000211cd .LASF3151
     /tmp/ccut0Zoi.s:102136  .debug_str:000000000003bb8d .LASF3152
     /tmp/ccut0Zoi.s:104642  .debug_str:0000000000046066 .LASF3153
     /tmp/ccut0Zoi.s:89206  .debug_str:000000000000721c .LASF3154
     /tmp/ccut0Zoi.s:104622  .debug_str:0000000000045ef7 .LASF3155
     /tmp/ccut0Zoi.s:100334  .debug_str:0000000000034b0b .LASF3156
     /tmp/ccut0Zoi.s:93052  .debug_str:00000000000168a3 .LASF3157
     /tmp/ccut0Zoi.s:90462  .debug_str:000000000000c6ff .LASF3158
     /tmp/ccut0Zoi.s:97326  .debug_str:00000000000283f1 .LASF3159
     /tmp/ccut0Zoi.s:88912  .debug_str:0000000000005e0b .LASF3160
     /tmp/ccut0Zoi.s:103558  .debug_str:0000000000041aad .LASF3161
     /tmp/ccut0Zoi.s:103300  .debug_str:00000000000408fe .LASF3162
     /tmp/ccut0Zoi.s:89546  .debug_str:0000000000008859 .LASF3163
     /tmp/ccut0Zoi.s:101254  .debug_str:0000000000037e59 .LASF3164
     /tmp/ccut0Zoi.s:91160  .debug_str:000000000000efe9 .LASF3165
     /tmp/ccut0Zoi.s:89864  .debug_str:0000000000009d5c .LASF3166
     /tmp/ccut0Zoi.s:106102  .debug_str:000000000004c561 .LASF3167
     /tmp/ccut0Zoi.s:93574  .debug_str:0000000000018ac1 .LASF3168
     /tmp/ccut0Zoi.s:91094  .debug_str:000000000000ec20 .LASF3169
     /tmp/ccut0Zoi.s:87994  .debug_str:0000000000001e1a .LASF3170
     /tmp/ccut0Zoi.s:89070  .debug_str:00000000000068d2 .LASF3171
     /tmp/ccut0Zoi.s:101418  .debug_str:0000000000038a1f .LASF3172
     /tmp/ccut0Zoi.s:99884  .debug_str:0000000000032c73 .LASF3173
     /tmp/ccut0Zoi.s:92596  .debug_str:0000000000014ae7 .LASF3174
     /tmp/ccut0Zoi.s:91864  .debug_str:0000000000011c09 .LASF3175
     /tmp/ccut0Zoi.s:103062  .debug_str:000000000003f8fb .LASF3176
     /tmp/ccut0Zoi.s:105632  .debug_str:000000000004a36e .LASF3177
     /tmp/ccut0Zoi.s:90182  .debug_str:000000000000b474 .LASF3178
     /tmp/ccut0Zoi.s:98714  .debug_str:000000000002df0c .LASF3179
     /tmp/ccut0Zoi.s:103240  .debug_str:000000000004048d .LASF3180
     /tmp/ccut0Zoi.s:101398  .debug_str:0000000000038876 .LASF3181
     /tmp/ccut0Zoi.s:94514  .debug_str:000000000001cc33 .LASF3182
     /tmp/ccut0Zoi.s:92818  .debug_str:0000000000015917 .LASF3183
     /tmp/ccut0Zoi.s:87626  .debug_str:0000000000000549 .LASF3184
     /tmp/ccut0Zoi.s:91792  .debug_str:0000000000011737 .LASF3185
     /tmp/ccut0Zoi.s:93688  .debug_str:000000000001923f .LASF3186
     /tmp/ccut0Zoi.s:100160  .debug_str:0000000000033f81 .LASF3187
     /tmp/ccut0Zoi.s:93622  .debug_str:0000000000018e12 .LASF3188
     /tmp/ccut0Zoi.s:88698  .debug_str:0000000000004f27 .LASF3189
     /tmp/ccut0Zoi.s:87620  .debug_str:000000000000047f .LASF3190
     /tmp/ccut0Zoi.s:102806  .debug_str:000000000003e749 .LASF3191
     /tmp/ccut0Zoi.s:96526  .debug_str:0000000000024e3e .LASF3192
     /tmp/ccut0Zoi.s:88160  .debug_str:0000000000002a66 .LASF3193
     /tmp/ccut0Zoi.s:93914  .debug_str:000000000001a2e9 .LASF3194
     /tmp/ccut0Zoi.s:91734  .debug_str:0000000000011300 .LASF3195
     /tmp/ccut0Zoi.s:101824  .debug_str:000000000003a637 .LASF3196
     /tmp/ccut0Zoi.s:94814  .debug_str:000000000001e111 .LASF3197
     /tmp/ccut0Zoi.s:92476  .debug_str:000000000001431e .LASF3198
     /tmp/ccut0Zoi.s:87572  .debug_str:0000000000000143 .LASF3199
     /tmp/ccut0Zoi.s:95490  .debug_str:0000000000020f28 .LASF3200
     /tmp/ccut0Zoi.s:87894  .debug_str:0000000000001740 .LASF3201
     /tmp/ccut0Zoi.s:96056  .debug_str:000000000002354d .LASF3202
     /tmp/ccut0Zoi.s:101640  .debug_str:00000000000398a5 .LASF3203
     /tmp/ccut0Zoi.s:87696  .debug_str:0000000000000a07 .LASF3204
     /tmp/ccut0Zoi.s:101880  .debug_str:000000000003aa1b .LASF3205
     /tmp/ccut0Zoi.s:100022  .debug_str:000000000003358c .LASF3206
     /tmp/ccut0Zoi.s:89194  .debug_str:0000000000007120 .LASF3207
     /tmp/ccut0Zoi.s:89042  .debug_str:00000000000066ef .LASF3208
     /tmp/ccut0Zoi.s:103396  .debug_str:0000000000041050 .LASF3209
     /tmp/ccut0Zoi.s:95104  .debug_str:000000000001f681 .LASF3210
     /tmp/ccut0Zoi.s:98840  .debug_str:000000000002e748 .LASF3211
     /tmp/ccut0Zoi.s:96940  .debug_str:0000000000026a61 .LASF3212
     /tmp/ccut0Zoi.s:94034  .debug_str:000000000001aa9f .LASF3213
     /tmp/ccut0Zoi.s:106056  .debug_str:000000000004c2a6 .LASF3214
     /tmp/ccut0Zoi.s:89438  .debug_str:000000000000812d .LASF3215
     /tmp/ccut0Zoi.s:106032  .debug_str:000000000004c137 .LASF3216
     /tmp/ccut0Zoi.s:105196  .debug_str:000000000004861a .LASF3217
     /tmp/ccut0Zoi.s:94558  .debug_str:000000000001cf30 .LASF3218
     /tmp/ccut0Zoi.s:90496  .debug_str:000000000000c9af .LASF3219
     /tmp/ccut0Zoi.s:98672  .debug_str:000000000002dc6f .LASF3220
     /tmp/ccut0Zoi.s:91896  .debug_str:0000000000011e1d .LASF3221
     /tmp/ccut0Zoi.s:101904  .debug_str:000000000003ab94 .LASF3222
     /tmp/ccut0Zoi.s:106234  .debug_str:000000000004cef6 .LASF3223
     /tmp/ccut0Zoi.s:87900  .debug_str:00000000000017b3 .LASF3224
     /tmp/ccut0Zoi.s:105740  .debug_str:000000000004accd .LASF3225
     /tmp/ccut0Zoi.s:90910  .debug_str:000000000000e2f8 .LASF3226
     /tmp/ccut0Zoi.s:100646  .debug_str:0000000000035e4d .LASF3227
     /tmp/ccut0Zoi.s:105720  .debug_str:000000000004ab14 .LASF3228
     /tmp/ccut0Zoi.s:90908  .debug_str:000000000000e2b5 .LASF3229
     /tmp/ccut0Zoi.s:101274  .debug_str:0000000000038033 .LASF3230
     /tmp/ccut0Zoi.s:100228  .debug_str:000000000003439b .LASF3231
     /tmp/ccut0Zoi.s:102032  .debug_str:000000000003b407 .LASF3232
     /tmp/ccut0Zoi.s:94636  .debug_str:000000000001d52e .LASF3233
     /tmp/ccut0Zoi.s:92886  .debug_str:0000000000015dab .LASF3234
     /tmp/ccut0Zoi.s:91344  .debug_str:000000000000fadd .LASF3235
     /tmp/ccut0Zoi.s:103290  .debug_str:000000000004083c .LASF3236
     /tmp/ccut0Zoi.s:88570  .debug_str:000000000000469b .LASF3237
     /tmp/ccut0Zoi.s:94626  .debug_str:000000000001d42c .LASF3238
     /tmp/ccut0Zoi.s:90826  .debug_str:000000000000de9b .LASF3239
     /tmp/ccut0Zoi.s:103664  .debug_str:00000000000421c4 .LASF3240
     /tmp/ccut0Zoi.s:100972  .debug_str:0000000000037016 .LASF3241
     /tmp/ccut0Zoi.s:97454  .debug_str:0000000000028c93 .LASF3242
     /tmp/ccut0Zoi.s:92180  .debug_str:000000000001312b .LASF3243
     /tmp/ccut0Zoi.s:105570  .debug_str:000000000004a00a .LASF3244
     /tmp/ccut0Zoi.s:89614  .debug_str:0000000000008d21 .LASF3245
     /tmp/ccut0Zoi.s:104568  .debug_str:0000000000045b91 .LASF3246
     /tmp/ccut0Zoi.s:103946  .debug_str:000000000004330e .LASF3247
     /tmp/ccut0Zoi.s:90076  .debug_str:000000000000ac91 .LASF3248
     /tmp/ccut0Zoi.s:100518  .debug_str:000000000003562a .LASF3249
     /tmp/ccut0Zoi.s:90442  .debug_str:000000000000c604 .LASF3250
     /tmp/ccut0Zoi.s:102780  .debug_str:000000000003e579 .LASF3251
     /tmp/ccut0Zoi.s:101324  .debug_str:000000000003838d .LASF3252
     /tmp/ccut0Zoi.s:89476  .debug_str:000000000000835d .LASF3253
     /tmp/ccut0Zoi.s:88472  .debug_str:0000000000003fca .LASF3254
     /tmp/ccut0Zoi.s:102890  .debug_str:000000000003edad .LASF3255
     /tmp/ccut0Zoi.s:97146  .debug_str:0000000000027855 .LASF3256
     /tmp/ccut0Zoi.s:101644  .debug_str:00000000000398ff .LASF3257
     /tmp/ccut0Zoi.s:92470  .debug_str:0000000000014297 .LASF3258
     /tmp/ccut0Zoi.s:104314  .debug_str:0000000000044a7f .LASF3259
     /tmp/ccut0Zoi.s:99868  .debug_str:0000000000032b17 .LASF3260
     /tmp/ccut0Zoi.s:95762  .debug_str:0000000000022149 .LASF3261
     /tmp/ccut0Zoi.s:101120  .debug_str:0000000000037763 .LASF3262
     /tmp/ccut0Zoi.s:93752  .debug_str:000000000001974e .LASF3263
     /tmp/ccut0Zoi.s:105862  .debug_str:000000000004b5ac .LASF3264
     /tmp/ccut0Zoi.s:102868  .debug_str:000000000003ebf6 .LASF3265
     /tmp/ccut0Zoi.s:91652  .debug_str:0000000000010d36 .LASF3266
     /tmp/ccut0Zoi.s:93458  .debug_str:00000000000182c4 .LASF3267
     /tmp/ccut0Zoi.s:94806  .debug_str:000000000001e046 .LASF3268
     /tmp/ccut0Zoi.s:94496  .debug_str:000000000001cad8 .LASF3269
     /tmp/ccut0Zoi.s:91762  .debug_str:0000000000011504 .LASF3270
     /tmp/ccut0Zoi.s:103636  .debug_str:0000000000041fcb .LASF3271
     /tmp/ccut0Zoi.s:104170  .debug_str:0000000000044149 .LASF3272
     /tmp/ccut0Zoi.s:94064  .debug_str:000000000001acdf .LASF3273
     /tmp/ccut0Zoi.s:99588  .debug_str:0000000000031954 .LASF3274
     /tmp/ccut0Zoi.s:103360  .debug_str:0000000000040d4b .LASF3275
     /tmp/ccut0Zoi.s:105396  .debug_str:00000000000493d5 .LASF3276
     /tmp/ccut0Zoi.s:103134  .debug_str:000000000003fe92 .LASF3277
     /tmp/ccut0Zoi.s:94820  .debug_str:000000000001e1c9 .LASF3278
     /tmp/ccut0Zoi.s:93742  .debug_str:0000000000019671 .LASF3279
     /tmp/ccut0Zoi.s:100730  .debug_str:000000000003638a .LASF3280
     /tmp/ccut0Zoi.s:92348  .debug_str:0000000000013b90 .LASF3281
     /tmp/ccut0Zoi.s:99720  .debug_str:00000000000321bd .LASF3282
     /tmp/ccut0Zoi.s:104422  .debug_str:000000000004528e .LASF3283
     /tmp/ccut0Zoi.s:104736  .debug_str:000000000004672f .LASF3284
     /tmp/ccut0Zoi.s:103780  .debug_str:0000000000042925 .LASF3285
     /tmp/ccut0Zoi.s:90176  .debug_str:000000000000b3d7 .LASF3286
     /tmp/ccut0Zoi.s:93164  .debug_str:00000000000170e8 .LASF3287
     /tmp/ccut0Zoi.s:88464  .debug_str:0000000000003f22 .LASF3288
     /tmp/ccut0Zoi.s:96780  .debug_str:0000000000025efa .LASF3289
     /tmp/ccut0Zoi.s:106138  .debug_str:000000000004c87c .LASF3290
     /tmp/ccut0Zoi.s:101394  .debug_str:0000000000038814 .LASF3291
     /tmp/ccut0Zoi.s:92718  .debug_str:0000000000015365 .LASF3292
     /tmp/ccut0Zoi.s:97198  .debug_str:0000000000027c5e .LASF3293
     /tmp/ccut0Zoi.s:95804  .debug_str:0000000000022434 .LASF3294
     /tmp/ccut0Zoi.s:88810  .debug_str:00000000000057cf .LASF3295
     /tmp/ccut0Zoi.s:91332  .debug_str:000000000000fa2c .LASF3296
     /tmp/ccut0Zoi.s:96276  .debug_str:0000000000024123 .LASF3297
     /tmp/ccut0Zoi.s:97100  .debug_str:000000000002752d .LASF3298
     /tmp/ccut0Zoi.s:94390  .debug_str:000000000001c340 .LASF3299
     /tmp/ccut0Zoi.s:94680  .debug_str:000000000001d821 .LASF3300
     /tmp/ccut0Zoi.s:100822  .debug_str:00000000000368c1 .LASF3301
     /tmp/ccut0Zoi.s:104312  .debug_str:0000000000044a61 .LASF3302
     /tmp/ccut0Zoi.s:101432  .debug_str:0000000000038b41 .LASF3303
     /tmp/ccut0Zoi.s:101496  .debug_str:0000000000038f33 .LASF3304
     /tmp/ccut0Zoi.s:93396  .debug_str:0000000000017f21 .LASF3305
     /tmp/ccut0Zoi.s:88920  .debug_str:0000000000005e89 .LASF3306
     /tmp/ccut0Zoi.s:104412  .debug_str:00000000000451c7 .LASF3307
     /tmp/ccut0Zoi.s:102636  .debug_str:000000000003dba2 .LASF3308
     /tmp/ccut0Zoi.s:103680  .debug_str:00000000000422fb .LASF3309
     /tmp/ccut0Zoi.s:92892  .debug_str:0000000000015e44 .LASF3310
     /tmp/ccut0Zoi.s:96652  .debug_str:000000000002572d .LASF3311
     /tmp/ccut0Zoi.s:90594  .debug_str:000000000000d039 .LASF3312
     /tmp/ccut0Zoi.s:96792  .debug_str:0000000000025fe3 .LASF3313
     /tmp/ccut0Zoi.s:87814  .debug_str:00000000000011da .LASF3314
     /tmp/ccut0Zoi.s:100368  .debug_str:0000000000034d60 .LASF3315
     /tmp/ccut0Zoi.s:90634  .debug_str:000000000000d2d7 .LASF3316
     /tmp/ccut0Zoi.s:99978  .debug_str:0000000000033275 .LASF3317
     /tmp/ccut0Zoi.s:91918  .debug_str:0000000000011fbb .LASF3318
     /tmp/ccut0Zoi.s:92386  .debug_str:0000000000013e0a .LASF3319
     /tmp/ccut0Zoi.s:99552  .debug_str:0000000000031702 .LASF3320
     /tmp/ccut0Zoi.s:105940  .debug_str:000000000004bb6d .LASF3321
     /tmp/ccut0Zoi.s:100338  .debug_str:0000000000034b59 .LASF3322
     /tmp/ccut0Zoi.s:89144  .debug_str:0000000000006e4e .LASF3323
     /tmp/ccut0Zoi.s:89482  .debug_str:00000000000083cf .LASF3324
     /tmp/ccut0Zoi.s:89416  .debug_str:0000000000007fa3 .LASF3325
     /tmp/ccut0Zoi.s:92116  .debug_str:0000000000012d86 .LASF3326
     /tmp/ccut0Zoi.s:96850  .debug_str:000000000002641f .LASF3327
     /tmp/ccut0Zoi.s:92190  .debug_str:0000000000013201 .LASF3328
     /tmp/ccut0Zoi.s:105980  .debug_str:000000000004bdbe .LASF3329
     /tmp/ccut0Zoi.s:94916  .debug_str:000000000001e8ac .LASF3330
     /tmp/ccut0Zoi.s:94106  .debug_str:000000000001b00a .LASF3331
     /tmp/ccut0Zoi.s:94544  .debug_str:000000000001ce38 .LASF3332
     /tmp/ccut0Zoi.s:99514  .debug_str:000000000003148a .LASF3333
     /tmp/ccut0Zoi.s:95670  .debug_str:0000000000021b85 .LASF3334
     /tmp/ccut0Zoi.s:94606  .debug_str:000000000001d2d8 .LASF3335
     /tmp/ccut0Zoi.s:89798  .debug_str:0000000000009964 .LASF3336
     /tmp/ccut0Zoi.s:96980  .debug_str:0000000000026ca0 .LASF3337
     /tmp/ccut0Zoi.s:95276  .debug_str:000000000002018e .LASF3338
     /tmp/ccut0Zoi.s:87898  .debug_str:0000000000001792 .LASF3339
     /tmp/ccut0Zoi.s:99944  .debug_str:0000000000033004 .LASF3340
     /tmp/ccut0Zoi.s:104204  .debug_str:00000000000443ca .LASF3341
     /tmp/ccut0Zoi.s:98220  .debug_str:000000000002bce3 .LASF3342
     /tmp/ccut0Zoi.s:92194  .debug_str:0000000000013226 .LASF3343
     /tmp/ccut0Zoi.s:91730  .debug_str:00000000000112cc .LASF3344
     /tmp/ccut0Zoi.s:91038  .debug_str:000000000000e993 .LASF3345
     /tmp/ccut0Zoi.s:99740  .debug_str:00000000000322fc .LASF3346
     /tmp/ccut0Zoi.s:99062  .debug_str:000000000002f66c .LASF3347
     /tmp/ccut0Zoi.s:89032  .debug_str:0000000000006625 .LASF3348
     /tmp/ccut0Zoi.s:98486  .debug_str:000000000002cf31 .LASF3349
     /tmp/ccut0Zoi.s:98922  .debug_str:000000000002ed3b .LASF3350
     /tmp/ccut0Zoi.s:102134  .debug_str:000000000003bb69 .LASF3351
     /tmp/ccut0Zoi.s:95372  .debug_str:0000000000020827 .LASF3352
     /tmp/ccut0Zoi.s:99660  .debug_str:0000000000031da3 .LASF3354
     /tmp/ccut0Zoi.s:103142  .debug_str:000000000003ff3b .LASF3355
     /tmp/ccut0Zoi.s:89530  .debug_str:000000000000870b .LASF3356
     /tmp/ccut0Zoi.s:98806  .debug_str:000000000002e567 .LASF3357
     /tmp/ccut0Zoi.s:98450  .debug_str:000000000002cca3 .LASF3358
     /tmp/ccut0Zoi.s:98698  .debug_str:000000000002de06 .LASF3359
     /tmp/ccut0Zoi.s:97890  .debug_str:000000000002a87e .LASF3360
     /tmp/ccut0Zoi.s:102138  .debug_str:000000000003bbc9 .LASF3361
     /tmp/ccut0Zoi.s:88586  .debug_str:00000000000047e6 .LASF3362
     /tmp/ccut0Zoi.s:105198  .debug_str:0000000000048657 .LASF3363
     /tmp/ccut0Zoi.s:96194  .debug_str:0000000000023d3d .LASF3364
     /tmp/ccut0Zoi.s:93958  .debug_str:000000000001a5c1 .LASF3365
     /tmp/ccut0Zoi.s:95952  .debug_str:0000000000022def .LASF3366
     /tmp/ccut0Zoi.s:105878  .debug_str:000000000004b6e1 .LASF3367
     /tmp/ccut0Zoi.s:104512  .debug_str:000000000004580f .LASF3368
     /tmp/ccut0Zoi.s:99034  .debug_str:000000000002f4cd .LASF3369
     /tmp/ccut0Zoi.s:101700  .debug_str:0000000000039d48 .LASF3370
     /tmp/ccut0Zoi.s:105392  .debug_str:000000000004939d .LASF3371
     /tmp/ccut0Zoi.s:91902  .debug_str:0000000000011e69 .LASF3372
     /tmp/ccut0Zoi.s:101474  .debug_str:0000000000038d97 .LASF3373
     /tmp/ccut0Zoi.s:96568  .debug_str:0000000000025101 .LASF3374
     /tmp/ccut0Zoi.s:105266  .debug_str:0000000000048b06 .LASF3375
     /tmp/ccut0Zoi.s:88248  .debug_str:00000000000030cc .LASF3376
     /tmp/ccut0Zoi.s:94524  .debug_str:000000000001cce3 .LASF3377
     /tmp/ccut0Zoi.s:99324  .debug_str:000000000003074a .LASF3378
     /tmp/ccut0Zoi.s:92210  .debug_str:0000000000013320 .LASF3379
     /tmp/ccut0Zoi.s:88642  .debug_str:0000000000004b9a .LASF3380
     /tmp/ccut0Zoi.s:99054  .debug_str:000000000002f5c1 .LASF3381
     /tmp/ccut0Zoi.s:92864  .debug_str:0000000000015c2d .LASF3382
     /tmp/ccut0Zoi.s:91568  .debug_str:000000000001081b .LASF3383
     /tmp/ccut0Zoi.s:99754  .debug_str:00000000000323c9 .LASF3384
     /tmp/ccut0Zoi.s:88870  .debug_str:0000000000005b8c .LASF3385
     /tmp/ccut0Zoi.s:104144  .debug_str:0000000000043f46 .LASF3386
     /tmp/ccut0Zoi.s:104868  .debug_str:0000000000046ff4 .LASF3387
     /tmp/ccut0Zoi.s:92150  .debug_str:0000000000012f99 .LASF3388
     /tmp/ccut0Zoi.s:101704  .debug_str:0000000000039da3 .LASF3389
     /tmp/ccut0Zoi.s:97354  .debug_str:00000000000285e2 .LASF3390
     /tmp/ccut0Zoi.s:97518  .debug_str:0000000000029088 .LASF3391
     /tmp/ccut0Zoi.s:105738  .debug_str:000000000004acc0 .LASF3392
     /tmp/ccut0Zoi.s:101446  .debug_str:0000000000038bfc .LASF3393
     /tmp/ccut0Zoi.s:91348  .debug_str:000000000000fb5a .LASF3394
     /tmp/ccut0Zoi.s:105730  .debug_str:000000000004ac14 .LASF3395
     /tmp/ccut0Zoi.s:102864  .debug_str:000000000003eb7b .LASF3396
     /tmp/ccut0Zoi.s:87934  .debug_str:0000000000001a43 .LASF3397
     /tmp/ccut0Zoi.s:95828  .debug_str:00000000000225d5 .LASF3398
     /tmp/ccut0Zoi.s:91030  .debug_str:000000000000e8fa .LASF3399
     /tmp/ccut0Zoi.s:92446  .debug_str:0000000000014154 .LASF3400
     /tmp/ccut0Zoi.s:88414  .debug_str:0000000000003b8f .LASF3401
     /tmp/ccut0Zoi.s:104426  .debug_str:00000000000452df .LASF3402
     /tmp/ccut0Zoi.s:98518  .debug_str:000000000002d1b1 .LASF3403
     /tmp/ccut0Zoi.s:99014  .debug_str:000000000002f35b .LASF3404
     /tmp/ccut0Zoi.s:104832  .debug_str:0000000000046da7 .LASF3405
     /tmp/ccut0Zoi.s:105774  .debug_str:000000000004af96 .LASF3406
     /tmp/ccut0Zoi.s:97706  .debug_str:0000000000029cd1 .LASF3407
     /tmp/ccut0Zoi.s:94178  .debug_str:000000000001b567 .LASF3408
     /tmp/ccut0Zoi.s:94456  .debug_str:000000000001c7bb .LASF3409
     /tmp/ccut0Zoi.s:105010  .debug_str:0000000000047912 .LASF3410
     /tmp/ccut0Zoi.s:106062  .debug_str:000000000004c30c .LASF3411
     /tmp/ccut0Zoi.s:97988  .debug_str:000000000002af2c .LASF3412
     /tmp/ccut0Zoi.s:98820  .debug_str:000000000002e641 .LASF3413
     /tmp/ccut0Zoi.s:99572  .debug_str:0000000000031874 .LASF3414
     /tmp/ccut0Zoi.s:88588  .debug_str:000000000000481b .LASF3415
     /tmp/ccut0Zoi.s:101052  .debug_str:000000000003741a .LASF3416
     /tmp/ccut0Zoi.s:102764  .debug_str:000000000003e41e .LASF3417
     /tmp/ccut0Zoi.s:105438  .debug_str:00000000000496c0 .LASF3418
     /tmp/ccut0Zoi.s:98894  .debug_str:000000000002eb04 .LASF3419
     /tmp/ccut0Zoi.s:105782  .debug_str:000000000004b030 .LASF3420
     /tmp/ccut0Zoi.s:103790  .debug_str:00000000000429c0 .LASF3421
     /tmp/ccut0Zoi.s:103050  .debug_str:000000000003f84f .LASF3422
     /tmp/ccut0Zoi.s:99168  .debug_str:000000000002fd2c .LASF3423
     /tmp/ccut0Zoi.s:90808  .debug_str:000000000000dd60 .LASF3424
     /tmp/ccut0Zoi.s:101314  .debug_str:000000000003830a .LASF3425
     /tmp/ccut0Zoi.s:97602  .debug_str:000000000002957f .LASF3426
     /tmp/ccut0Zoi.s:97576  .debug_str:00000000000293fe .LASF3427
     /tmp/ccut0Zoi.s:99148  .debug_str:000000000002fb78 .LASF3428
     /tmp/ccut0Zoi.s:89330  .debug_str:000000000000799d .LASF3429
     /tmp/ccut0Zoi.s:94934  .debug_str:000000000001e98c .LASF3430
     /tmp/ccut0Zoi.s:88630  .debug_str:0000000000004b00 .LASF3431
     /tmp/ccut0Zoi.s:101284  .debug_str:00000000000380eb .LASF3432
     /tmp/ccut0Zoi.s:105860  .debug_str:000000000004b595 .LASF3433
     /tmp/ccut0Zoi.s:100964  .debug_str:0000000000036fb8 .LASF3434
     /tmp/ccut0Zoi.s:99074  .debug_str:000000000002f709 .LASF3435
     /tmp/ccut0Zoi.s:93470  .debug_str:00000000000183a8 .LASF3436
     /tmp/ccut0Zoi.s:95484  .debug_str:0000000000020edb .LASF3437
     /tmp/ccut0Zoi.s:100434  .debug_str:0000000000035157 .LASF3438
     /tmp/ccut0Zoi.s:101220  .debug_str:0000000000037ca6 .LASF3439
     /tmp/ccut0Zoi.s:88440  .debug_str:0000000000003d8d .LASF3440
     /tmp/ccut0Zoi.s:103356  .debug_str:0000000000040d01 .LASF3441
     /tmp/ccut0Zoi.s:97322  .debug_str:00000000000283ad .LASF3442
     /tmp/ccut0Zoi.s:97162  .debug_str:00000000000279b4 .LASF3443
     /tmp/ccut0Zoi.s:104454  .debug_str:000000000004546e .LASF3444
     /tmp/ccut0Zoi.s:105946  .debug_str:000000000004bbcf .LASF3445
     /tmp/ccut0Zoi.s:90258  .debug_str:000000000000b9ab .LASF3446
     /tmp/ccut0Zoi.s:104870  .debug_str:0000000000047006 .LASF3447
     /tmp/ccut0Zoi.s:97888  .debug_str:000000000002a867 .LASF3448
     /tmp/ccut0Zoi.s:90004  .debug_str:000000000000a740 .LASF3449
     /tmp/ccut0Zoi.s:98926  .debug_str:000000000002ed7e .LASF3450
     /tmp/ccut0Zoi.s:106178  .debug_str:000000000004cb30 .LASF3451
     /tmp/ccut0Zoi.s:94182  .debug_str:000000000001b5b8 .LASF3452
     /tmp/ccut0Zoi.s:96666  .debug_str:0000000000025849 .LASF3453
     /tmp/ccut0Zoi.s:90686  .debug_str:000000000000d589 .LASF3454
     /tmp/ccut0Zoi.s:92536  .debug_str:00000000000146ef .LASF3455
     /tmp/ccut0Zoi.s:95312  .debug_str:0000000000020429 .LASF3456
     /tmp/ccut0Zoi.s:95294  .debug_str:00000000000202b3 .LASF3457
     /tmp/ccut0Zoi.s:95554  .debug_str:0000000000021346 .LASF3458
     /tmp/ccut0Zoi.s:87630  .debug_str:0000000000000599 .LASF3459
     /tmp/ccut0Zoi.s:97302  .debug_str:000000000002829b .LASF3460
     /tmp/ccut0Zoi.s:104064  .debug_str:0000000000043b02 .LASF3461
     /tmp/ccut0Zoi.s:103536  .debug_str:0000000000041933 .LASF3462
     /tmp/ccut0Zoi.s:104276  .debug_str:0000000000044807 .LASF3463
     /tmp/ccut0Zoi.s:101928  .debug_str:000000000003ad7f .LASF3464
     /tmp/ccut0Zoi.s:100294  .debug_str:000000000003482f .LASF3465
     /tmp/ccut0Zoi.s:104874  .debug_str:000000000004702a .LASF3466
     /tmp/ccut0Zoi.s:100448  .debug_str:0000000000035251 .LASF3467
     /tmp/ccut0Zoi.s:105454  .debug_str:00000000000497c8 .LASF3468
     /tmp/ccut0Zoi.s:89650  .debug_str:0000000000008f62 .LASF3469
     /tmp/ccut0Zoi.s:88428  .debug_str:0000000000003c8b .LASF3470
     /tmp/ccut0Zoi.s:104604  .debug_str:0000000000045dd9 .LASF3471
     /tmp/ccut0Zoi.s:93072  .debug_str:0000000000016a34 .LASF3472
     /tmp/ccut0Zoi.s:103584  .debug_str:0000000000041cad .LASF3473
     /tmp/ccut0Zoi.s:101250  .debug_str:0000000000037e2c .LASF3474
     /tmp/ccut0Zoi.s:93056  .debug_str:0000000000016905 .LASF3475
     /tmp/ccut0Zoi.s:99526  .debug_str:0000000000031557 .LASF3476
     /tmp/ccut0Zoi.s:104548  .debug_str:0000000000045a47 .LASF3477
     /tmp/ccut0Zoi.s:89848  .debug_str:0000000000009cab .LASF3478
     /tmp/ccut0Zoi.s:90636  .debug_str:000000000000d2f6 .LASF3479
     /tmp/ccut0Zoi.s:103390  .debug_str:0000000000040fd9 .LASF3480
     /tmp/ccut0Zoi.s:102202  .debug_str:000000000003c017 .LASF3481
     /tmp/ccut0Zoi.s:88860  .debug_str:0000000000005ac2 .LASF3482
     /tmp/ccut0Zoi.s:99158  .debug_str:000000000002fc49 .LASF3483
     /tmp/ccut0Zoi.s:105988  .debug_str:000000000004be3b .LASF3484
     /tmp/ccut0Zoi.s:96890  .debug_str:0000000000026708 .LASF3485
     /tmp/ccut0Zoi.s:98782  .debug_str:000000000002e387 .LASF3486
     /tmp/ccut0Zoi.s:98538  .debug_str:000000000002d2fb .LASF3487
     /tmp/ccut0Zoi.s:96312  .debug_str:0000000000024355 .LASF3488
     /tmp/ccut0Zoi.s:93142  .debug_str:0000000000016f3e .LASF3489
     /tmp/ccut0Zoi.s:103036  .debug_str:000000000003f756 .LASF3490
     /tmp/ccut0Zoi.s:91686  .debug_str:0000000000010fd7 .LASF3491
     /tmp/ccut0Zoi.s:92458  .debug_str:0000000000014206 .LASF3492
     /tmp/ccut0Zoi.s:102480  .debug_str:000000000003d1af .LASF3493
     /tmp/ccut0Zoi.s:90512  .debug_str:000000000000caf7 .LASF3494
     /tmp/ccut0Zoi.s:104468  .debug_str:000000000004555b .LASF3495
     /tmp/ccut0Zoi.s:90784  .debug_str:000000000000dbe8 .LASF3496
     /tmp/ccut0Zoi.s:92276  .debug_str:000000000001376b .LASF3497
     /tmp/ccut0Zoi.s:101396  .debug_str:000000000003885f .LASF3498
     /tmp/ccut0Zoi.s:95768  .debug_str:00000000000221bc .LASF3499
     /tmp/ccut0Zoi.s:103354  .debug_str:0000000000040ced .LASF3500
     /tmp/ccut0Zoi.s:99456  .debug_str:00000000000310bf .LASF3501
     /tmp/ccut0Zoi.s:95996  .debug_str:000000000002317c .LASF3502
     /tmp/ccut0Zoi.s:98758  .debug_str:000000000002e1b6 .LASF3503
     /tmp/ccut0Zoi.s:89312  .debug_str:00000000000078b5 .LASF3504
     /tmp/ccut0Zoi.s:95764  .debug_str:0000000000022193 .LASF3505
     /tmp/ccut0Zoi.s:104232  .debug_str:0000000000044560 .LASF3506
     /tmp/ccut0Zoi.s:98462  .debug_str:000000000002cd8a .LASF3507
     /tmp/ccut0Zoi.s:90786  .debug_str:000000000000dc05 .LASF3508
     /tmp/ccut0Zoi.s:106208  .debug_str:000000000004cd4e .LASF3509
     /tmp/ccut0Zoi.s:93104  .debug_str:0000000000016c9b .LASF3510
     /tmp/ccut0Zoi.s:98710  .debug_str:000000000002dedb .LASF3511
     /tmp/ccut0Zoi.s:99188  .debug_str:000000000002fe78 .LASF3512
     /tmp/ccut0Zoi.s:91430  .debug_str:000000000000ffd3 .LASF3513
     /tmp/ccut0Zoi.s:89176  .debug_str:0000000000007064 .LASF3514
     /tmp/ccut0Zoi.s:98850  .debug_str:000000000002e83b .LASF3515
     /tmp/ccut0Zoi.s:103882  .debug_str:0000000000042f37 .LASF3516
     /tmp/ccut0Zoi.s:105948  .debug_str:000000000004bbe6 .LASF3517
     /tmp/ccut0Zoi.s:105450  .debug_str:0000000000049764 .LASF3518
     /tmp/ccut0Zoi.s:104014  .debug_str:00000000000437e4 .LASF3519
     /tmp/ccut0Zoi.s:99150  .debug_str:000000000002fb8f .LASF3520
     /tmp/ccut0Zoi.s:94530  .debug_str:000000000001cd68 .LASF3521
     /tmp/ccut0Zoi.s:91188  .debug_str:000000000000f221 .LASF3522
     /tmp/ccut0Zoi.s:101812  .debug_str:000000000003a580 .LASF3523
     /tmp/ccut0Zoi.s:94904  .debug_str:000000000001e7b7 .LASF3524
     /tmp/ccut0Zoi.s:95908  .debug_str:0000000000022af7 .LASF3525
     /tmp/ccut0Zoi.s:94400  .debug_str:000000000001c45a .LASF3526
     /tmp/ccut0Zoi.s:95986  .debug_str:000000000002306a .LASF3527
     /tmp/ccut0Zoi.s:88296  .debug_str:00000000000033ca .LASF3528
     /tmp/ccut0Zoi.s:101808  .debug_str:000000000003a555 .LASF3529
     /tmp/ccut0Zoi.s:99370  .debug_str:0000000000030ade .LASF3530
     /tmp/ccut0Zoi.s:104700  .debug_str:00000000000464d9 .LASF3531
     /tmp/ccut0Zoi.s:101544  .debug_str:00000000000392fb .LASF3532
     /tmp/ccut0Zoi.s:96440  .debug_str:00000000000248a8 .LASF3533
     /tmp/ccut0Zoi.s:92464  .debug_str:000000000001424f .LASF3534
     /tmp/ccut0Zoi.s:90382  .debug_str:000000000000c1d5 .LASF3535
     /tmp/ccut0Zoi.s:99538  .debug_str:0000000000031634 .LASF3536
     /tmp/ccut0Zoi.s:99052  .debug_str:000000000002f5b4 .LASF3537
     /tmp/ccut0Zoi.s:98696  .debug_str:000000000002ddf7 .LASF3538
     /tmp/ccut0Zoi.s:97340  .debug_str:00000000000284ef .LASF3539
     /tmp/ccut0Zoi.s:96970  .debug_str:0000000000026c14 .LASF3540
     /tmp/ccut0Zoi.s:91948  .debug_str:00000000000121c2 .LASF3541
     /tmp/ccut0Zoi.s:96362  .debug_str:0000000000024552 .LASF3542
     /tmp/ccut0Zoi.s:101226  .debug_str:0000000000037ce7 .LASF3543
     /tmp/ccut0Zoi.s:90114  .debug_str:000000000000af31 .LASF3544
     /tmp/ccut0Zoi.s:96190  .debug_str:0000000000023d12 .LASF3545
     /tmp/ccut0Zoi.s:96696  .debug_str:0000000000025a1f .LASF3546
     /tmp/ccut0Zoi.s:103426  .debug_str:0000000000041246 .LASF3547
     /tmp/ccut0Zoi.s:104078  .debug_str:0000000000043bc7 .LASF3548
     /tmp/ccut0Zoi.s:92444  .debug_str:0000000000014148 .LASF3549
     /tmp/ccut0Zoi.s:99822  .debug_str:0000000000032801 .LASF3550
     /tmp/ccut0Zoi.s:104596  .debug_str:0000000000045d65 .LASF3551
     /tmp/ccut0Zoi.s:93314  .debug_str:0000000000017a48 .LASF3552
     /tmp/ccut0Zoi.s:93894  .debug_str:000000000001a1b4 .LASF3553
     /tmp/ccut0Zoi.s:93306  .debug_str:00000000000179dd .LASF3554
     /tmp/ccut0Zoi.s:96046  .debug_str:00000000000234cb .LASF3555
     /tmp/ccut0Zoi.s:93626  .debug_str:0000000000018e68 .LASF3556
     /tmp/ccut0Zoi.s:100326  .debug_str:0000000000034aa8 .LASF3557
     /tmp/ccut0Zoi.s:87730  .debug_str:0000000000000c17 .LASF3558
     /tmp/ccut0Zoi.s:104574  .debug_str:0000000000045c00 .LASF3559
     /tmp/ccut0Zoi.s:98544  .debug_str:000000000002d38d .LASF3560
     /tmp/ccut0Zoi.s:91390  .debug_str:000000000000fd4f .LASF3561
     /tmp/ccut0Zoi.s:88960  .debug_str:000000000000610d .LASF3562
     /tmp/ccut0Zoi.s:103604  .debug_str:0000000000041dbe .LASF3563
     /tmp/ccut0Zoi.s:93568  .debug_str:0000000000018a78 .LASF3564
     /tmp/ccut0Zoi.s:88774  .debug_str:00000000000054f0 .LASF3565
     /tmp/ccut0Zoi.s:104672  .debug_str:0000000000046293 .LASF3566
     /tmp/ccut0Zoi.s:92854  .debug_str:0000000000015b7e .LASF3567
     /tmp/ccut0Zoi.s:105322  .debug_str:0000000000048f1d .LASF3568
     /tmp/ccut0Zoi.s:95840  .debug_str:00000000000226c0 .LASF3569
     /tmp/ccut0Zoi.s:104610  .debug_str:0000000000045e37 .LASF3570
     /tmp/ccut0Zoi.s:103524  .debug_str:0000000000041853 .LASF3571
     /tmp/ccut0Zoi.s:104132  .debug_str:0000000000043e8e .LASF3572
     /tmp/ccut0Zoi.s:99912  .debug_str:0000000000032e63 .LASF3573
     /tmp/ccut0Zoi.s:90798  .debug_str:000000000000dc9a .LASF3574
     /tmp/ccut0Zoi.s:97840  .debug_str:000000000002a4af .LASF3575
     /tmp/ccut0Zoi.s:91026  .debug_str:000000000000e878 .LASF3576
     /tmp/ccut0Zoi.s:102876  .debug_str:000000000003ec80 .LASF3577
     /tmp/ccut0Zoi.s:88158  .debug_str:00000000000029e3 .LASF3578
     /tmp/ccut0Zoi.s:97698  .debug_str:0000000000029ba5 .LASF3579
     /tmp/ccut0Zoi.s:104922  .debug_str:0000000000047395 .LASF3580
     /tmp/ccut0Zoi.s:90168  .debug_str:000000000000b37f .LASF3581
     /tmp/ccut0Zoi.s:98562  .debug_str:000000000002d4b8 .LASF3582
     /tmp/ccut0Zoi.s:104316  .debug_str:0000000000044aca .LASF3583
     /tmp/ccut0Zoi.s:99812  .debug_str:000000000003275b .LASF3584
     /tmp/ccut0Zoi.s:93420  .debug_str:0000000000017ffa .LASF3585
     /tmp/ccut0Zoi.s:87764  .debug_str:0000000000000e7c .LASF3586
     /tmp/ccut0Zoi.s:104554  .debug_str:0000000000045ab4 .LASF3587
     /tmp/ccut0Zoi.s:105078  .debug_str:0000000000047d7f .LASF3588
     /tmp/ccut0Zoi.s:90306  .debug_str:000000000000bc8b .LASF3589
     /tmp/ccut0Zoi.s:100142  .debug_str:0000000000033e59 .LASF3590
     /tmp/ccut0Zoi.s:89600  .debug_str:0000000000008be9 .LASF3591
     /tmp/ccut0Zoi.s:101238  .debug_str:0000000000037d8d .LASF3592
     /tmp/ccut0Zoi.s:91824  .debug_str:00000000000119a6 .LASF3593
     /tmp/ccut0Zoi.s:91492  .debug_str:0000000000010312 .LASF3594
     /tmp/ccut0Zoi.s:88380  .debug_str:0000000000003982 .LASF3595
     /tmp/ccut0Zoi.s:94184  .debug_str:000000000001b5cf .LASF3596
     /tmp/ccut0Zoi.s:95666  .debug_str:0000000000021b2e .LASF3597
     /tmp/ccut0Zoi.s:94018  .debug_str:000000000001a973 .LASF3598
     /tmp/ccut0Zoi.s:95730  .debug_str:0000000000021f03 .LASF3599
     /tmp/ccut0Zoi.s:100360  .debug_str:0000000000034cf5 .LASF3600
     /tmp/ccut0Zoi.s:90312  .debug_str:000000000000bce7 .LASF3601
     /tmp/ccut0Zoi.s:106016  .debug_str:000000000004c06e .LASF3602
     /tmp/ccut0Zoi.s:99070  .debug_str:000000000002f6d9 .LASF3603
     /tmp/ccut0Zoi.s:96378  .debug_str:0000000000024651 .LASF3604
     /tmp/ccut0Zoi.s:102892  .debug_str:000000000003edee .LASF3605
     /tmp/ccut0Zoi.s:88612  .debug_str:00000000000049a9 .LASF3606
     /tmp/ccut0Zoi.s:96670  .debug_str:0000000000025888 .LASF3607
     /tmp/ccut0Zoi.s:94890  .debug_str:000000000001e6e4 .LASF3608
     /tmp/ccut0Zoi.s:92712  .debug_str:00000000000152fd .LASF3609
     /tmp/ccut0Zoi.s:105394  .debug_str:00000000000493c2 .LASF3610
     /tmp/ccut0Zoi.s:99858  .debug_str:0000000000032a88 .LASF3611
     /tmp/ccut0Zoi.s:99198  .debug_str:000000000002ff15 .LASF3612
     /tmp/ccut0Zoi.s:100460  .debug_str:000000000003534b .LASF3613
     /tmp/ccut0Zoi.s:89148  .debug_str:0000000000006eb1 .LASF3614
     /tmp/ccut0Zoi.s:94204  .debug_str:000000000001b6eb .LASF3615
     /tmp/ccut0Zoi.s:93860  .debug_str:0000000000019f42 .LASF3616
     /tmp/ccut0Zoi.s:89264  .debug_str:00000000000075e7 .LASF3617
     /tmp/ccut0Zoi.s:93044  .debug_str:00000000000167ee .LASF3618
     /tmp/ccut0Zoi.s:102210  .debug_str:000000000003c079 .LASF3619
     /tmp/ccut0Zoi.s:94922  .debug_str:000000000001e91d .LASF3620
     /tmp/ccut0Zoi.s:95698  .debug_str:0000000000021d48 .LASF3621
     /tmp/ccut0Zoi.s:94248  .debug_str:000000000001ba7f .LASF3622
     /tmp/ccut0Zoi.s:96452  .debug_str:000000000002499a .LASF3623
     /tmp/ccut0Zoi.s:97720  .debug_str:0000000000029da7 .LASF3624
     /tmp/ccut0Zoi.s:101706  .debug_str:0000000000039db8 .LASF3625
     /tmp/ccut0Zoi.s:104336  .debug_str:0000000000044c06 .LASF3626
     /tmp/ccut0Zoi.s:96528  .debug_str:0000000000024e7f .LASF3627
     /tmp/ccut0Zoi.s:98134  .debug_str:000000000002b7fc .LASF3628
     /tmp/ccut0Zoi.s:103862  .debug_str:0000000000042dec .LASF3629
     /tmp/ccut0Zoi.s:96494  .debug_str:0000000000024c69 .LASF3630
     /tmp/ccut0Zoi.s:105562  .debug_str:0000000000049faf .LASF3631
     /tmp/ccut0Zoi.s:90414  .debug_str:000000000000c42d .LASF3632
     /tmp/ccut0Zoi.s:95760  .debug_str:0000000000022135 .LASF3633
     /tmp/ccut0Zoi.s:94356  .debug_str:000000000001c130 .LASF3634
     /tmp/ccut0Zoi.s:101898  .debug_str:000000000003ab69 .LASF3635
     /tmp/ccut0Zoi.s:104794  .debug_str:0000000000046b54 .LASF3636
     /tmp/ccut0Zoi.s:94848  .debug_str:000000000001e3f5 .LASF3637
     /tmp/ccut0Zoi.s:94414  .debug_str:000000000001c564 .LASF3638
     /tmp/ccut0Zoi.s:101586  .debug_str:0000000000039568 .LASF3639
     /tmp/ccut0Zoi.s:103058  .debug_str:000000000003f8d1 .LASF3640
     /tmp/ccut0Zoi.s:105908  .debug_str:000000000004b8f6 .LASF3641
     /tmp/ccut0Zoi.s:106020  .debug_str:000000000004c09b .LASF3642
     /tmp/ccut0Zoi.s:90460  .debug_str:000000000000c6ed .LASF3643
     /tmp/ccut0Zoi.s:103726  .debug_str:00000000000425cf .LASF3644
     /tmp/ccut0Zoi.s:102758  .debug_str:000000000003e3a7 .LASF3645
     /tmp/ccut0Zoi.s:87992  .debug_str:0000000000001e07 .LASF3646
     /tmp/ccut0Zoi.s:88964  .debug_str:0000000000006145 .LASF3647
     /tmp/ccut0Zoi.s:90014  .debug_str:000000000000a7f3 .LASF3648
     /tmp/ccut0Zoi.s:99602  .debug_str:0000000000031a56 .LASF3649
     /tmp/ccut0Zoi.s:92572  .debug_str:000000000001497f .LASF3650
     /tmp/ccut0Zoi.s:97922  .debug_str:000000000002aa82 .LASF3651
     /tmp/ccut0Zoi.s:104598  .debug_str:0000000000045d7b .LASF3652
     /tmp/ccut0Zoi.s:103740  .debug_str:000000000004269f .LASF3653
     /tmp/ccut0Zoi.s:94834  .debug_str:000000000001e2f0 .LASF3654
     /tmp/ccut0Zoi.s:94272  .debug_str:000000000001bc05 .LASF3655
     /tmp/ccut0Zoi.s:97718  .debug_str:0000000000029d95 .LASF3656
     /tmp/ccut0Zoi.s:104752  .debug_str:000000000004688a .LASF3657
     /tmp/ccut0Zoi.s:88058  .debug_str:00000000000022cc .LASF3658
     /tmp/ccut0Zoi.s:99934  .debug_str:0000000000032f46 .LASF3659
     /tmp/ccut0Zoi.s:104220  .debug_str:00000000000444ef .LASF3660
     /tmp/ccut0Zoi.s:98960  .debug_str:000000000002eff1 .LASF3661
     /tmp/ccut0Zoi.s:103530  .debug_str:00000000000418e0 .LASF3662
     /tmp/ccut0Zoi.s:90548  .debug_str:000000000000cd26 .LASF3663
     /tmp/ccut0Zoi.s:88154  .debug_str:00000000000029ae .LASF3664
     /tmp/ccut0Zoi.s:94578  .debug_str:000000000001d0df .LASF3665
     /tmp/ccut0Zoi.s:94652  .debug_str:000000000001d66f .LASF3666
     /tmp/ccut0Zoi.s:95552  .debug_str:0000000000021337 .LASF3667
     /tmp/ccut0Zoi.s:100366  .debug_str:0000000000034d4f .LASF3668
     /tmp/ccut0Zoi.s:93400  .debug_str:0000000000017f54 .LASF3669
     /tmp/ccut0Zoi.s:100970  .debug_str:0000000000037005 .LASF3670
     /tmp/ccut0Zoi.s:95326  .debug_str:000000000002051d .LASF3671
     /tmp/ccut0Zoi.s:98010  .debug_str:000000000002b037 .LASF3672
     /tmp/ccut0Zoi.s:87944  .debug_str:0000000000001b17 .LASF3673
     /tmp/ccut0Zoi.s:99114  .debug_str:000000000002f991 .LASF3674
     /tmp/ccut0Zoi.s:99896  .debug_str:0000000000032d79 .LASF3675
     /tmp/ccut0Zoi.s:99676  .debug_str:0000000000031ebc .LASF3676
     /tmp/ccut0Zoi.s:105300  .debug_str:0000000000048d7c .LASF3677
     /tmp/ccut0Zoi.s:91564  .debug_str:00000000000107ea .LASF3678
     /tmp/ccut0Zoi.s:90444  .debug_str:000000000000c643 .LASF3679
     /tmp/ccut0Zoi.s:90086  .debug_str:000000000000ad58 .LASF3680
     /tmp/ccut0Zoi.s:96564  .debug_str:00000000000250d6 .LASF3681
     /tmp/ccut0Zoi.s:93988  .debug_str:000000000001a7df .LASF3682
     /tmp/ccut0Zoi.s:105102  .debug_str:0000000000047ef5 .LASF3683
     /tmp/ccut0Zoi.s:101836  .debug_str:000000000003a6d8 .LASF3684
     /tmp/ccut0Zoi.s:87922  .debug_str:0000000000001951 .LASF3685
     /tmp/ccut0Zoi.s:89018  .debug_str:00000000000064fb .LASF3686
     /tmp/ccut0Zoi.s:98480  .debug_str:000000000002cee3 .LASF3687
     /tmp/ccut0Zoi.s:88396  .debug_str:0000000000003a8d .LASF3688
     /tmp/ccut0Zoi.s:104300  .debug_str:00000000000449b3 .LASF3689
     /tmp/ccut0Zoi.s:88224  .debug_str:0000000000002f91 .LASF3690
     /tmp/ccut0Zoi.s:95480  .debug_str:0000000000020e98 .LASF3691
     /tmp/ccut0Zoi.s:90092  .debug_str:000000000000ad9f .LASF3692
     /tmp/ccut0Zoi.s:97092  .debug_str:0000000000027496 .LASF3693
     /tmp/ccut0Zoi.s:96930  .debug_str:00000000000269a2 .LASF3694
     /tmp/ccut0Zoi.s:101796  .debug_str:000000000003a480 .LASF3695
     /tmp/ccut0Zoi.s:93402  .debug_str:0000000000017f64 .LASF3696
     /tmp/ccut0Zoi.s:89562  .debug_str:0000000000008999 .LASF3697
     /tmp/ccut0Zoi.s:93770  .debug_str:0000000000019876 .LASF3698
     /tmp/ccut0Zoi.s:96196  .debug_str:0000000000023d57 .LASF3699
     /tmp/ccut0Zoi.s:105224  .debug_str:0000000000048857 .LASF3700
     /tmp/ccut0Zoi.s:91996  .debug_str:0000000000012519 .LASF3701
     /tmp/ccut0Zoi.s:96178  .debug_str:0000000000023c62 .LASF3702
     /tmp/ccut0Zoi.s:97330  .debug_str:000000000002845e .LASF3703
     /tmp/ccut0Zoi.s:105550  .debug_str:0000000000049ee1 .LASF3704
     /tmp/ccut0Zoi.s:92956  .debug_str:0000000000016259 .LASF3705
     /tmp/ccut0Zoi.s:94412  .debug_str:000000000001c54e .LASF3706
     /tmp/ccut0Zoi.s:98712  .debug_str:000000000002def6 .LASF3707
     /tmp/ccut0Zoi.s:98126  .debug_str:000000000002b789 .LASF3708
     /tmp/ccut0Zoi.s:101366  .debug_str:000000000003866f .LASF3709
     /tmp/ccut0Zoi.s:90622  .debug_str:000000000000d202 .LASF3710
     /tmp/ccut0Zoi.s:98774  .debug_str:000000000002e2de .LASF3711
     /tmp/ccut0Zoi.s:94292  .debug_str:000000000001bd44 .LASF3712
     /tmp/ccut0Zoi.s:97078  .debug_str:00000000000273dd .LASF3713
     /tmp/ccut0Zoi.s:98406  .debug_str:000000000002c9f7 .LASF3714
     /tmp/ccut0Zoi.s:102468  .debug_str:000000000003d0e7 .LASF3715
     /tmp/ccut0Zoi.s:103168  .debug_str:00000000000400df .LASF3716
     /tmp/ccut0Zoi.s:102612  .debug_str:000000000003da11 .LASF3717
     /tmp/ccut0Zoi.s:97738  .debug_str:0000000000029ecb .LASF3718
     /tmp/ccut0Zoi.s:101406  .debug_str:0000000000038969 .LASF3719
     /tmp/ccut0Zoi.s:88886  .debug_str:0000000000005c42 .LASF3720
     /tmp/ccut0Zoi.s:99724  .debug_str:0000000000032221 .LASF3721
     /tmp/ccut0Zoi.s:105182  .debug_str:0000000000048533 .LASF3722
     /tmp/ccut0Zoi.s:103060  .debug_str:000000000003f8e2 .LASF3723
     /tmp/ccut0Zoi.s:92814  .debug_str:00000000000158c6 .LASF3724
     /tmp/ccut0Zoi.s:87688  .debug_str:000000000000095e .LASF3725
     /tmp/ccut0Zoi.s:90078  .debug_str:000000000000accd .LASF3726
     /tmp/ccut0Zoi.s:95580  .debug_str:00000000000214f1 .LASF3727
     /tmp/ccut0Zoi.s:104082  .debug_str:0000000000043bdf .LASF3728
     /tmp/ccut0Zoi.s:99852  .debug_str:0000000000032a05 .LASF3729
     /tmp/ccut0Zoi.s:89466  .debug_str:00000000000082cd .LASF3730
     /tmp/ccut0Zoi.s:106268  .debug_str:000000000004d144 .LASF3731
     /tmp/ccut0Zoi.s:93466  .debug_str:0000000000018386 .LASF3732
     /tmp/ccut0Zoi.s:95382  .debug_str:0000000000020922 .LASF3733
     /tmp/ccut0Zoi.s:95194  .debug_str:000000000001fc5e .LASF3734
     /tmp/ccut0Zoi.s:100600  .debug_str:0000000000035b30 .LASF3735
     /tmp/ccut0Zoi.s:99238  .debug_str:0000000000030164 .LASF3736
     /tmp/ccut0Zoi.s:102018  .debug_str:000000000003b318 .LASF3737
     /tmp/ccut0Zoi.s:96444  .debug_str:00000000000248e7 .LASF3738
     /tmp/ccut0Zoi.s:94692  .debug_str:000000000001d940 .LASF3739
     /tmp/ccut0Zoi.s:98678  .debug_str:000000000002dd11 .LASF3740
     /tmp/ccut0Zoi.s:98610  .debug_str:000000000002d7c9 .LASF3741
     /tmp/ccut0Zoi.s:104398  .debug_str:0000000000045081 .LASF3742
     /tmp/ccut0Zoi.s:88128  .debug_str:0000000000002833 .LASF3743
     /tmp/ccut0Zoi.s:96356  .debug_str:00000000000244de .LASF3744
     /tmp/ccut0Zoi.s:102580  .debug_str:000000000003d839 .LASF3745
     /tmp/ccut0Zoi.s:100170  .debug_str:0000000000034035 .LASF3746
     /tmp/ccut0Zoi.s:98580  .debug_str:000000000002d58b .LASF3747
     /tmp/ccut0Zoi.s:88958  .debug_str:00000000000060f2 .LASF3748
     /tmp/ccut0Zoi.s:105642  .debug_str:000000000004a41f .LASF3749
     /tmp/ccut0Zoi.s:96160  .debug_str:0000000000023b30 .LASF3750
     /tmp/ccut0Zoi.s:90248  .debug_str:000000000000b8f6 .LASF3751
     /tmp/ccut0Zoi.s:89926  .debug_str:000000000000a220 .LASF3752
     /tmp/ccut0Zoi.s:93596  .debug_str:0000000000018c53 .LASF3753
     /tmp/ccut0Zoi.s:99112  .debug_str:000000000002f97b .LASF3754
     /tmp/ccut0Zoi.s:92064  .debug_str:0000000000012a31 .LASF3755
     /tmp/ccut0Zoi.s:89388  .debug_str:0000000000007d78 .LASF3756
     /tmp/ccut0Zoi.s:92008  .debug_str:00000000000125ae .LASF3757
     /tmp/ccut0Zoi.s:105792  .debug_str:000000000004b0ea .LASF3758
     /tmp/ccut0Zoi.s:98324  .debug_str:000000000002c416 .LASF3759
     /tmp/ccut0Zoi.s:103398  .debug_str:000000000004108c .LASF3760
     /tmp/ccut0Zoi.s:101218  .debug_str:0000000000037c91 .LASF3761
     /tmp/ccut0Zoi.s:93552  .debug_str:0000000000018971 .LASF3762
     /tmp/ccut0Zoi.s:99394  .debug_str:0000000000030c79 .LASF3763
     /tmp/ccut0Zoi.s:105326  .debug_str:0000000000048f57 .LASF3764
     /tmp/ccut0Zoi.s:103414  .debug_str:000000000004118b .LASF3765
     /tmp/ccut0Zoi.s:89000  .debug_str:00000000000063d7 .LASF3766
     /tmp/ccut0Zoi.s:93034  .debug_str:000000000001675a .LASF3767
     /tmp/ccut0Zoi.s:93666  .debug_str:000000000001915a .LASF3768
     /tmp/ccut0Zoi.s:98222  .debug_str:000000000002bd08 .LASF3769
     /tmp/ccut0Zoi.s:93240  .debug_str:000000000001752b .LASF3770
     /tmp/ccut0Zoi.s:96942  .debug_str:0000000000026aa5 .LASF3771
     /tmp/ccut0Zoi.s:89406  .debug_str:0000000000007ed9 .LASF3772
     /tmp/ccut0Zoi.s:90918  .debug_str:000000000000e38d .LASF3773
     /tmp/ccut0Zoi.s:93382  .debug_str:0000000000017e61 .LASF3774
     /tmp/ccut0Zoi.s:98176  .debug_str:000000000002ba8a .LASF3775
     /tmp/ccut0Zoi.s:96520  .debug_str:0000000000024e12 .LASF3776
     /tmp/ccut0Zoi.s:96134  .debug_str:0000000000023a59 .LASF3777
     /tmp/ccut0Zoi.s:88988  .debug_str:000000000000630f .LASF3778
     /tmp/ccut0Zoi.s:105280  .debug_str:0000000000048c20 .LASF3779
     /tmp/ccut0Zoi.s:91400  .debug_str:000000000000fe13 .LASF3780
     /tmp/ccut0Zoi.s:104546  .debug_str:0000000000045a34 .LASF3781
     /tmp/ccut0Zoi.s:97580  .debug_str:0000000000029436 .LASF3782
     /tmp/ccut0Zoi.s:94012  .debug_str:000000000001a911 .LASF3783
     /tmp/ccut0Zoi.s:92460  .debug_str:0000000000014228 .LASF3784
     /tmp/ccut0Zoi.s:95280  .debug_str:00000000000201e5 .LASF3785
     /tmp/ccut0Zoi.s:89320  .debug_str:0000000000007934 .LASF3786
     /tmp/ccut0Zoi.s:101886  .debug_str:000000000003aa88 .LASF3787
     /tmp/ccut0Zoi.s:97634  .debug_str:0000000000029840 .LASF3788
     /tmp/ccut0Zoi.s:88902  .debug_str:0000000000005d82 .LASF3789
     /tmp/ccut0Zoi.s:92738  .debug_str:000000000001549d .LASF3790
     /tmp/ccut0Zoi.s:102986  .debug_str:000000000003f428 .LASF3791
     /tmp/ccut0Zoi.s:105092  .debug_str:0000000000047e51 .LASF3792
     /tmp/ccut0Zoi.s:101554  .debug_str:00000000000393ad .LASF3793
     /tmp/ccut0Zoi.s:97304  .debug_str:00000000000282b0 .LASF3794
     /tmp/ccut0Zoi.s:98902  .debug_str:000000000002ebb1 .LASF3795
     /tmp/ccut0Zoi.s:102630  .debug_str:000000000003db1d .LASF3796
     /tmp/ccut0Zoi.s:105900  .debug_str:000000000004b884 .LASF3797
     /tmp/ccut0Zoi.s:90792  .debug_str:000000000000dc69 .LASF3798
     /tmp/ccut0Zoi.s:92540  .debug_str:000000000001475d .LASF3799
     /tmp/ccut0Zoi.s:98132  .debug_str:000000000002b7e4 .LASF3800
     /tmp/ccut0Zoi.s:95910  .debug_str:0000000000022b09 .LASF3801
     /tmp/ccut0Zoi.s:96274  .debug_str:000000000002410b .LASF3802
     /tmp/ccut0Zoi.s:95944  .debug_str:0000000000022d79 .LASF3803
     /tmp/ccut0Zoi.s:96992  .debug_str:0000000000026d69 .LASF3804
     /tmp/ccut0Zoi.s:101666  .debug_str:0000000000039ae4 .LASF3805
     /tmp/ccut0Zoi.s:90044  .debug_str:000000000000aa22 .LASF3806
     /tmp/ccut0Zoi.s:105230  .debug_str:00000000000488a3 .LASF3807
     /tmp/ccut0Zoi.s:100084  .debug_str:00000000000339f5 .LASF3808
     /tmp/ccut0Zoi.s:106262  .debug_str:000000000004d0e7 .LASF3809
     /tmp/ccut0Zoi.s:88188  .debug_str:0000000000002c45 .LASF3810
     /tmp/ccut0Zoi.s:101408  .debug_str:0000000000038982 .LASF3811
     /tmp/ccut0Zoi.s:96946  .debug_str:0000000000026ad2 .LASF3812
     /tmp/ccut0Zoi.s:89452  .debug_str:00000000000081fb .LASF3813
     /tmp/ccut0Zoi.s:103838  .debug_str:0000000000042c4e .LASF3814
     /tmp/ccut0Zoi.s:92456  .debug_str:00000000000141ee .LASF3815
     /tmp/ccut0Zoi.s:105054  .debug_str:0000000000047bd9 .LASF3816
     /tmp/ccut0Zoi.s:104640  .debug_str:000000000004604d .LASF3817
     /tmp/ccut0Zoi.s:95352  .debug_str:00000000000206ff .LASF3818
     /tmp/ccut0Zoi.s:88262  .debug_str:00000000000031de .LASF3819
     /tmp/ccut0Zoi.s:100196  .debug_str:00000000000341c5 .LASF3820
     /tmp/ccut0Zoi.s:87642  .debug_str:0000000000000670 .LASF3821
     /tmp/ccut0Zoi.s:106142  .debug_str:000000000004c8d5 .LASF3822
     /tmp/ccut0Zoi.s:87976  .debug_str:0000000000001cfa .LASF3823
     /tmp/ccut0Zoi.s:98420  .debug_str:000000000002caa0 .LASF3824
     /tmp/ccut0Zoi.s:106228  .debug_str:000000000004ce84 .LASF3825
     /tmp/ccut0Zoi.s:105372  .debug_str:000000000004924b .LASF3826
     /tmp/ccut0Zoi.s:90020  .debug_str:000000000000a82b .LASF3827
     /tmp/ccut0Zoi.s:104320  .debug_str:0000000000044af4 .LASF3828
     /tmp/ccut0Zoi.s:94486  .debug_str:000000000001ca02 .LASF3829
     /tmp/ccut0Zoi.s:105648  .debug_str:000000000004a4c7 .LASF3830
     /tmp/ccut0Zoi.s:97118  .debug_str:0000000000027643 .LASF3831
     /tmp/ccut0Zoi.s:96860  .debug_str:00000000000264df .LASF3832
     /tmp/ccut0Zoi.s:89948  .debug_str:000000000000a353 .LASF3833
     /tmp/ccut0Zoi.s:105194  .debug_str:0000000000048602 .LASF3834
     /tmp/ccut0Zoi.s:103836  .debug_str:0000000000042c37 .LASF3835
     /tmp/ccut0Zoi.s:90246  .debug_str:000000000000b8de .LASF3836
     /tmp/ccut0Zoi.s:93336  .debug_str:0000000000017bc3 .LASF3837
     /tmp/ccut0Zoi.s:96304  .debug_str:00000000000242e7 .LASF3838
     /tmp/ccut0Zoi.s:94798  .debug_str:000000000001dfa7 .LASF3839
     /tmp/ccut0Zoi.s:88578  .debug_str:0000000000004776 .LASF3840
     /tmp/ccut0Zoi.s:88390  .debug_str:0000000000003a27 .LASF3841
     /tmp/ccut0Zoi.s:93440  .debug_str:000000000001815f .LASF3842
     /tmp/ccut0Zoi.s:90522  .debug_str:000000000000cbac .LASF3843
     /tmp/ccut0Zoi.s:97542  .debug_str:00000000000291a7 .LASF3844
     /tmp/ccut0Zoi.s:94338  .debug_str:000000000001c038 .LASF3845
     /tmp/ccut0Zoi.s:104274  .debug_str:00000000000447ef .LASF3846
     /tmp/ccut0Zoi.s:97826  .debug_str:000000000002a3ed .LASF3847
     /tmp/ccut0Zoi.s:88718  .debug_str:0000000000005061 .LASF3848
     /tmp/ccut0Zoi.s:101096  .debug_str:00000000000375d7 .LASF3849
     /tmp/ccut0Zoi.s:101946  .debug_str:000000000003ae88 .LASF3850
     /tmp/ccut0Zoi.s:91104  .debug_str:000000000000ecdc .LASF3851
     /tmp/ccut0Zoi.s:95212  .debug_str:000000000001fd79 .LASF3852
     /tmp/ccut0Zoi.s:88342  .debug_str:00000000000036bb .LASF3853
     /tmp/ccut0Zoi.s:101262  .debug_str:0000000000037f13 .LASF3854
     /tmp/ccut0Zoi.s:101588  .debug_str:000000000003957b .LASF3855
     /tmp/ccut0Zoi.s:102442  .debug_str:000000000003cf7f .LASF3856
     /tmp/ccut0Zoi.s:99752  .debug_str:00000000000323b1 .LASF3857
     /tmp/ccut0Zoi.s:104212  .debug_str:0000000000044475 .LASF3858
     /tmp/ccut0Zoi.s:97936  .debug_str:000000000002ab4f .LASF3859
     /tmp/ccut0Zoi.s:94894  .debug_str:000000000001e71b .LASF3860
     /tmp/ccut0Zoi.s:91802  .debug_str:00000000000117f1 .LASF3861
     /tmp/ccut0Zoi.s:89970  .debug_str:000000000000a4f6 .LASF3862
     /tmp/ccut0Zoi.s:88730  .debug_str:0000000000005159 .LASF3863
     /tmp/ccut0Zoi.s:89704  .debug_str:000000000000933e .LASF3864
     /tmp/ccut0Zoi.s:101044  .debug_str:000000000003738d .LASF3865
     /tmp/ccut0Zoi.s:98524  .debug_str:000000000002d22d .LASF3866
     /tmp/ccut0Zoi.s:90472  .debug_str:000000000000c7d9 .LASF3867
     /tmp/ccut0Zoi.s:102182  .debug_str:000000000003be93 .LASF3868
     /tmp/ccut0Zoi.s:97158  .debug_str:0000000000027975 .LASF3869
     /tmp/ccut0Zoi.s:95884  .debug_str:000000000002297e .LASF3870
     /tmp/ccut0Zoi.s:106140  .debug_str:000000000004c8bf .LASF3871
     /tmp/ccut0Zoi.s:96588  .debug_str:00000000000252b4 .LASF3872
     /tmp/ccut0Zoi.s:89946  .debug_str:000000000000a33d .LASF3873
     /tmp/ccut0Zoi.s:100328  .debug_str:0000000000034ab4 .LASF3874
     /tmp/ccut0Zoi.s:105762  .debug_str:000000000004aebe .LASF3875
     /tmp/ccut0Zoi.s:101198  .debug_str:0000000000037b9e .LASF3876
     /tmp/ccut0Zoi.s:91944  .debug_str:0000000000012167 .LASF3877
     /tmp/ccut0Zoi.s:102384  .debug_str:000000000003cb45 .LASF3878
     /tmp/ccut0Zoi.s:87840  .debug_str:00000000000013a3 .LASF3879
     /tmp/ccut0Zoi.s:100046  .debug_str:0000000000033751 .LASF3880
     /tmp/ccut0Zoi.s:88992  .debug_str:000000000000632f .LASF3881
     /tmp/ccut0Zoi.s:92272  .debug_str:0000000000013749 .LASF3882
     /tmp/ccut0Zoi.s:91022  .debug_str:000000000000e848 .LASF3883
     /tmp/ccut0Zoi.s:93690  .debug_str:0000000000019282 .LASF3884
     /tmp/ccut0Zoi.s:96294  .debug_str:0000000000024264 .LASF3885
     /tmp/ccut0Zoi.s:91976  .debug_str:00000000000123a7 .LASF3886
     /tmp/ccut0Zoi.s:105844  .debug_str:000000000004b455 .LASF3887
     /tmp/ccut0Zoi.s:94650  .debug_str:000000000001d655 .LASF3888
     /tmp/ccut0Zoi.s:103148  .debug_str:000000000003ff9a .LASF3889
     /tmp/ccut0Zoi.s:101024  .debug_str:0000000000037276 .LASF3890
     /tmp/ccut0Zoi.s:97002  .debug_str:0000000000026e26 .LASF3891
     /tmp/ccut0Zoi.s:103788  .debug_str:00000000000429a6 .LASF3892
     /tmp/ccut0Zoi.s:101798  .debug_str:000000000003a494 .LASF3893
     /tmp/ccut0Zoi.s:92344  .debug_str:0000000000013b6b .LASF3894
     /tmp/ccut0Zoi.s:96722  .debug_str:0000000000025bc2 .LASF3895
     /tmp/ccut0Zoi.s:105406  .debug_str:0000000000049473 .LASF3896
     /tmp/ccut0Zoi.s:101962  .debug_str:000000000003af85 .LASF3897
     /tmp/ccut0Zoi.s:91852  .debug_str:0000000000011b5c .LASF3898
     /tmp/ccut0Zoi.s:103690  .debug_str:0000000000042395 .LASF3899
     /tmp/ccut0Zoi.s:94968  .debug_str:000000000001ebd8 .LASF3900
     /tmp/ccut0Zoi.s:105686  .debug_str:000000000004a810 .LASF3901
     /tmp/ccut0Zoi.s:93912  .debug_str:000000000001a2ce .LASF3902
     /tmp/ccut0Zoi.s:103178  .debug_str:000000000004016a .LASF3903
     /tmp/ccut0Zoi.s:91668  .debug_str:0000000000010e0d .LASF3904
     /tmp/ccut0Zoi.s:97596  .debug_str:0000000000029503 .LASF3905
     /tmp/ccut0Zoi.s:104982  .debug_str:0000000000047735 .LASF3906
     /tmp/ccut0Zoi.s:98370  .debug_str:000000000002c718 .LASF3907
     /tmp/ccut0Zoi.s:91010  .debug_str:000000000000e781 .LASF3908
     /tmp/ccut0Zoi.s:98156  .debug_str:000000000002b94a .LASF3909
     /tmp/ccut0Zoi.s:91440  .debug_str:0000000000010076 .LASF3910
     /tmp/ccut0Zoi.s:104110  .debug_str:0000000000043d7c .LASF3911
     /tmp/ccut0Zoi.s:91644  .debug_str:0000000000010cc2 .LASF3912
     /tmp/ccut0Zoi.s:87978  .debug_str:0000000000001d11 .LASF3913
     /tmp/ccut0Zoi.s:91320  .debug_str:000000000000f949 .LASF3914
     /tmp/ccut0Zoi.s:106224  .debug_str:000000000004ce5f .LASF3915
     /tmp/ccut0Zoi.s:99784  .debug_str:00000000000325d0 .LASF3916
     /tmp/ccut0Zoi.s:105850  .debug_str:000000000004b4cf .LASF3917
     /tmp/ccut0Zoi.s:87820  .debug_str:000000000000123d .LASF3918
     /tmp/ccut0Zoi.s:103336  .debug_str:0000000000040b7f .LASF3919
     /tmp/ccut0Zoi.s:104556  .debug_str:0000000000045ac4 .LASF3920
     /tmp/ccut0Zoi.s:93154  .debug_str:0000000000017049 .LASF3921
     /tmp/ccut0Zoi.s:95572  .debug_str:000000000002147e .LASF3922
     /tmp/ccut0Zoi.s:93782  .debug_str:000000000001993f .LASF3923
     /tmp/ccut0Zoi.s:105062  .debug_str:0000000000047c6f .LASF3924
     /tmp/ccut0Zoi.s:101934  .debug_str:000000000003adca .LASF3925
     /tmp/ccut0Zoi.s:101906  .debug_str:000000000003abd6 .LASF3926
     /tmp/ccut0Zoi.s:93184  .debug_str:000000000001722d .LASF3927
     /tmp/ccut0Zoi.s:101252  .debug_str:0000000000037e3e .LASF3928
     /tmp/ccut0Zoi.s:97054  .debug_str:00000000000271eb .LASF3929
     /tmp/ccut0Zoi.s:98350  .debug_str:000000000002c5c4 .LASF3930
     /tmp/ccut0Zoi.s:99256  .debug_str:000000000003026f .LASF3931
     /tmp/ccut0Zoi.s:106248  .debug_str:000000000004d02c .LASF3932
     /tmp/ccut0Zoi.s:102040  .debug_str:000000000003b4bb .LASF3933
     /tmp/ccut0Zoi.s:105046  .debug_str:0000000000047b3f .LASF3934
     /tmp/ccut0Zoi.s:91646  .debug_str:0000000000010cdc .LASF3935
     /tmp/ccut0Zoi.s:98438  .debug_str:000000000002cbe8 .LASF3936
     /tmp/ccut0Zoi.s:94410  .debug_str:000000000001c535 .LASF3937
     /tmp/ccut0Zoi.s:96964  .debug_str:0000000000026bc4 .LASF3938
     /tmp/ccut0Zoi.s:100276  .debug_str:0000000000034738 .LASF3939
     /tmp/ccut0Zoi.s:105610  .debug_str:000000000004a239 .LASF3940
     /tmp/ccut0Zoi.s:100140  .debug_str:0000000000033e41 .LASF3941
     /tmp/ccut0Zoi.s:105838  .debug_str:000000000004b40e .LASF3942
     /tmp/ccut0Zoi.s:97480  .debug_str:0000000000028e82 .LASF3943
     /tmp/ccut0Zoi.s:104974  .debug_str:00000000000476bb .LASF3944
     /tmp/ccut0Zoi.s:89722  .debug_str:00000000000094a3 .LASF3945
     /tmp/ccut0Zoi.s:97240  .debug_str:0000000000027e52 .LASF3946
     /tmp/ccut0Zoi.s:99860  .debug_str:0000000000032a9a .LASF3947
     /tmp/ccut0Zoi.s:101974  .debug_str:000000000003b022 .LASF3948
     /tmp/ccut0Zoi.s:95454  .debug_str:0000000000020d89 .LASF3949
     /tmp/ccut0Zoi.s:90694  .debug_str:000000000000d608 .LASF3950
     /tmp/ccut0Zoi.s:104518  .debug_str:0000000000045875 .LASF3951
     /tmp/ccut0Zoi.s:95476  .debug_str:0000000000020e70 .LASF3952
     /tmp/ccut0Zoi.s:105082  .debug_str:0000000000047da9 .LASF3953
     /tmp/ccut0Zoi.s:90222  .debug_str:000000000000b732 .LASF3954
     /tmp/ccut0Zoi.s:105914  .debug_str:000000000004b941 .LASF3955
     /tmp/ccut0Zoi.s:103272  .debug_str:0000000000040729 .LASF3956
     /tmp/ccut0Zoi.s:102204  .debug_str:000000000003c02f .LASF3957
     /tmp/ccut0Zoi.s:88040  .debug_str:00000000000021d6 .LASF3958
     /tmp/ccut0Zoi.s:104070  .debug_str:0000000000043b49 .LASF3959
     /tmp/ccut0Zoi.s:94426  .debug_str:000000000001c5f9 .LASF3960
     /tmp/ccut0Zoi.s:93172  .debug_str:0000000000017185 .LASF3961
     /tmp/ccut0Zoi.s:89074  .debug_str:000000000000695b .LASF3962
     /tmp/ccut0Zoi.s:100074  .debug_str:0000000000033967 .LASF3963
     /tmp/ccut0Zoi.s:104160  .debug_str:0000000000044075 .LASF3964
     /tmp/ccut0Zoi.s:101736  .debug_str:000000000003a015 .LASF3965
     /tmp/ccut0Zoi.s:96768  .debug_str:0000000000025e31 .LASF3966
     /tmp/ccut0Zoi.s:101202  .debug_str:0000000000037bd4 .LASF3967
     /tmp/ccut0Zoi.s:98790  .debug_str:000000000002e439 .LASF3968
     /tmp/ccut0Zoi.s:100408  .debug_str:0000000000034f8f .LASF3969
     /tmp/ccut0Zoi.s:104624  .debug_str:0000000000045f3b .LASF3970
     /tmp/ccut0Zoi.s:95478  .debug_str:0000000000020e81 .LASF3971
     /tmp/ccut0Zoi.s:104382  .debug_str:0000000000044fa4 .LASF3972
     /tmp/ccut0Zoi.s:87590  .debug_str:000000000000028e .LASF3973
     /tmp/ccut0Zoi.s:90150  .debug_str:000000000000b1ea .LASF3974
     /tmp/ccut0Zoi.s:102268  .debug_str:000000000003c44c .LASF3975
     /tmp/ccut0Zoi.s:95524  .debug_str:0000000000021211 .LASF3976
     /tmp/ccut0Zoi.s:105006  .debug_str:00000000000478e8 .LASF3977
     /tmp/ccut0Zoi.s:92436  .debug_str:00000000000140fb .LASF3978
     /tmp/ccut0Zoi.s:92132  .debug_str:0000000000012e4b .LASF3979
     /tmp/ccut0Zoi.s:101178  .debug_str:0000000000037a49 .LASF3980
     /tmp/ccut0Zoi.s:88276  .debug_str:00000000000032d8 .LASF3981
     /tmp/ccut0Zoi.s:102362  .debug_str:000000000003c99d .LASF3982
     /tmp/ccut0Zoi.s:91882  .debug_str:0000000000011d82 .LASF3983
     /tmp/ccut0Zoi.s:93310  .debug_str:0000000000017a17 .LASF3984
     /tmp/ccut0Zoi.s:100644  .debug_str:0000000000035e3a .LASF3985
     /tmp/ccut0Zoi.s:90456  .debug_str:000000000000c6c8 .LASF3986
     /tmp/ccut0Zoi.s:98012  .debug_str:000000000002b048 .LASF3987
     /tmp/ccut0Zoi.s:98224  .debug_str:000000000002bd1d .LASF3988
     /tmp/ccut0Zoi.s:103490  .debug_str:0000000000041619 .LASF3989
     /tmp/ccut0Zoi.s:96966  .debug_str:0000000000026bdf .LASF3990
     /tmp/ccut0Zoi.s:93676  .debug_str:00000000000191aa .LASF3991
     /tmp/ccut0Zoi.s:88292  .debug_str:000000000000339d .LASF3992
     /tmp/ccut0Zoi.s:96794  .debug_str:0000000000025ffe .LASF3993
     /tmp/ccut0Zoi.s:88178  .debug_str:0000000000002b94 .LASF3994
     /tmp/ccut0Zoi.s:98692  .debug_str:000000000002ddd8 .LASF3995
     /tmp/ccut0Zoi.s:102296  .debug_str:000000000003c661 .LASF3996
     /tmp/ccut0Zoi.s:91854  .debug_str:0000000000011b76 .LASF3997
     /tmp/ccut0Zoi.s:92362  .debug_str:0000000000013c9b .LASF3998
     /tmp/ccut0Zoi.s:100548  .debug_str:0000000000035871 .LASF3999
     /tmp/ccut0Zoi.s:96470  .debug_str:0000000000024b05 .LASF4000
     /tmp/ccut0Zoi.s:105542  .debug_str:0000000000049e5f .LASF4001
     /tmp/ccut0Zoi.s:97364  .debug_str:00000000000286ad .LASF4002
     /tmp/ccut0Zoi.s:105286  .debug_str:0000000000048cad .LASF4003
     /tmp/ccut0Zoi.s:97126  .debug_str:00000000000276e2 .LASF4004
     /tmp/ccut0Zoi.s:91936  .debug_str:0000000000012104 .LASF4005
     /tmp/ccut0Zoi.s:104026  .debug_str:00000000000438c8 .LASF4006
     /tmp/ccut0Zoi.s:101576  .debug_str:00000000000394cf .LASF4007
     /tmp/ccut0Zoi.s:104846  .debug_str:0000000000046eb6 .LASF4008
     /tmp/ccut0Zoi.s:100226  .debug_str:000000000003438a .LASF4009
     /tmp/ccut0Zoi.s:101222  .debug_str:0000000000037cc6 .LASF4010
     /tmp/ccut0Zoi.s:90252  .debug_str:000000000000b92c .LASF4011
     /tmp/ccut0Zoi.s:102680  .debug_str:000000000003de82 .LASF4012
     /tmp/ccut0Zoi.s:100386  .debug_str:0000000000034e5d .LASF4013
     /tmp/ccut0Zoi.s:94780  .debug_str:000000000001de7e .LASF4014
     /tmp/ccut0Zoi.s:105568  .debug_str:0000000000049ff8 .LASF4015
     /tmp/ccut0Zoi.s:100340  .debug_str:0000000000034b78 .LASF4016
     /tmp/ccut0Zoi.s:92746  .debug_str:00000000000154e6 .LASF4017
     /tmp/ccut0Zoi.s:91154  .debug_str:000000000000ef6f .LASF4018
     /tmp/ccut0Zoi.s:98164  .debug_str:000000000002b992 .LASF4019
     /tmp/ccut0Zoi.s:104758  .debug_str:0000000000046917 .LASF4020
     /tmp/ccut0Zoi.s:91086  .debug_str:000000000000ebdf .LASF4021
     /tmp/ccut0Zoi.s:97428  .debug_str:0000000000028aaa .LASF4022
     /tmp/ccut0Zoi.s:102028  .debug_str:000000000003b3b9 .LASF4023
     /tmp/ccut0Zoi.s:87868  .debug_str:0000000000001541 .LASF4024
     /tmp/ccut0Zoi.s:88446  .debug_str:0000000000003de3 .LASF4025
     /tmp/ccut0Zoi.s:98168  .debug_str:000000000002b9e4 .LASF4026
     /tmp/ccut0Zoi.s:98570  .debug_str:000000000002d503 .LASF4027
     /tmp/ccut0Zoi.s:90310  .debug_str:000000000000bcd4 .LASF4028
     /tmp/ccut0Zoi.s:102824  .debug_str:000000000003e8af .LASF4029
     /tmp/ccut0Zoi.s:91248  .debug_str:000000000000f5e6 .LASF4030
     /tmp/ccut0Zoi.s:99130  .debug_str:000000000002fa30 .LASF4031
     /tmp/ccut0Zoi.s:105484  .debug_str:00000000000499e3 .LASF4032
     /tmp/ccut0Zoi.s:101940  .debug_str:000000000003ae34 .LASF4033
     /tmp/ccut0Zoi.s:91700  .debug_str:00000000000110b8 .LASF4034
     /tmp/ccut0Zoi.s:103762  .debug_str:00000000000427ec .LASF4035
     /tmp/ccut0Zoi.s:101992  .debug_str:000000000003b121 .LASF4036
     /tmp/ccut0Zoi.s:101040  .debug_str:000000000003736f .LASF4037
     /tmp/ccut0Zoi.s:95562  .debug_str:0000000000021410 .LASF4038
     /tmp/ccut0Zoi.s:98576  .debug_str:000000000002d56f .LASF4039
     /tmp/ccut0Zoi.s:91328  .debug_str:000000000000f9f8 .LASF4040
     /tmp/ccut0Zoi.s:94924  .debug_str:000000000001e92f .LASF4041
     /tmp/ccut0Zoi.s:90454  .debug_str:000000000000c6b4 .LASF4042
     /tmp/ccut0Zoi.s:90328  .debug_str:000000000000bdf2 .LASF4043
     /tmp/ccut0Zoi.s:90958  .debug_str:000000000000e577 .LASF4044
     /tmp/ccut0Zoi.s:100066  .debug_str:000000000003390e .LASF4045
     /tmp/ccut0Zoi.s:92594  .debug_str:0000000000014ad2 .LASF4046
     /tmp/ccut0Zoi.s:89884  .debug_str:0000000000009f16 .LASF4047
     /tmp/ccut0Zoi.s:104924  .debug_str:00000000000473ad .LASF4048
     /tmp/ccut0Zoi.s:96354  .debug_str:00000000000244cb .LASF4049
     /tmp/ccut0Zoi.s:99504  .debug_str:00000000000313dc .LASF4050
     /tmp/ccut0Zoi.s:89662  .debug_str:0000000000009033 .LASF4051
     /tmp/ccut0Zoi.s:102870  .debug_str:000000000003ec3d .LASF4052
     /tmp/ccut0Zoi.s:94310  .debug_str:000000000001be73 .LASF4053
     /tmp/ccut0Zoi.s:95416  .debug_str:0000000000020bb0 .LASF4054
     /tmp/ccut0Zoi.s:104968  .debug_str:0000000000047664 .LASF4055
     /tmp/ccut0Zoi.s:102964  .debug_str:000000000003f2bb .LASF4056
     /tmp/ccut0Zoi.s:97660  .debug_str:0000000000029989 .LASF4057
     /tmp/ccut0Zoi.s:106040  .debug_str:000000000004c1d0 .LASF4058
     /tmp/ccut0Zoi.s:104572  .debug_str:0000000000045bed .LASF4059
     /tmp/ccut0Zoi.s:96754  .debug_str:0000000000025d2e .LASF4060
     /tmp/ccut0Zoi.s:96164  .debug_str:0000000000023b61 .LASF4061
     /tmp/ccut0Zoi.s:93866  .debug_str:0000000000019fc7 .LASF4062
     /tmp/ccut0Zoi.s:94686  .debug_str:000000000001d8b1 .LASF4063
     /tmp/ccut0Zoi.s:94148  .debug_str:000000000001b305 .LASF4064
     /tmp/ccut0Zoi.s:99800  .debug_str:00000000000326f7 .LASF4065
     /tmp/ccut0Zoi.s:98484  .debug_str:000000000002cf14 .LASF4066
     /tmp/ccut0Zoi.s:98890  .debug_str:000000000002eac0 .LASF4067
     /tmp/ccut0Zoi.s:101742  .debug_str:000000000003a088 .LASF4068
     /tmp/ccut0Zoi.s:102216  .debug_str:000000000003c0f2 .LASF4069
     /tmp/ccut0Zoi.s:90250  .debug_str:000000000000b910 .LASF4070
     /tmp/ccut0Zoi.s:93804  .debug_str:0000000000019b03 .LASF4071
     /tmp/ccut0Zoi.s:88196  .debug_str:0000000000002cd8 .LASF4072
     /tmp/ccut0Zoi.s:89582  .debug_str:0000000000008afd .LASF4073
     /tmp/ccut0Zoi.s:93756  .debug_str:00000000000197a1 .LASF4074
     /tmp/ccut0Zoi.s:93190  .debug_str:0000000000017267 .LASF4075
     /tmp/ccut0Zoi.s:105158  .debug_str:0000000000048374 .LASF4076
     /tmp/ccut0Zoi.s:92750  .debug_str:0000000000015519 .LASF4077
     /tmp/ccut0Zoi.s:90866  .debug_str:000000000000e071 .LASF4078
     /tmp/ccut0Zoi.s:94102  .debug_str:000000000001afdd .LASF4079
     /tmp/ccut0Zoi.s:96698  .debug_str:0000000000025a2c .LASF4080
     /tmp/ccut0Zoi.s:95204  .debug_str:000000000001fd1a .LASF4081
     /tmp/ccut0Zoi.s:96566  .debug_str:00000000000250e5 .LASF4082
     /tmp/ccut0Zoi.s:90690  .debug_str:000000000000d5c0 .LASF4083
     /tmp/ccut0Zoi.s:93888  .debug_str:000000000001a159 .LASF4084
     /tmp/ccut0Zoi.s:102844  .debug_str:000000000003ea0a .LASF4085
     /tmp/ccut0Zoi.s:91524  .debug_str:00000000000105d7 .LASF4086
     /tmp/ccut0Zoi.s:94044  .debug_str:000000000001ab86 .LASF4087
     /tmp/ccut0Zoi.s:97742  .debug_str:0000000000029f26 .LASF4088
     /tmp/ccut0Zoi.s:91464  .debug_str:000000000001013d .LASF4089
     /tmp/ccut0Zoi.s:101684  .debug_str:0000000000039c0f .LASF4090
     /tmp/ccut0Zoi.s:93198  .debug_str:00000000000172bd .LASF4091
     /tmp/ccut0Zoi.s:89744  .debug_str:000000000000965a .LASF4092
     /tmp/ccut0Zoi.s:91416  .debug_str:000000000000ff11 .LASF4093
     /tmp/ccut0Zoi.s:96976  .debug_str:0000000000026c5a .LASF4094
     /tmp/ccut0Zoi.s:90190  .debug_str:000000000000b52a .LASF4095
     /tmp/ccut0Zoi.s:95342  .debug_str:0000000000020650 .LASF4096
     /tmp/ccut0Zoi.s:94638  .debug_str:000000000001d574 .LASF4097
     /tmp/ccut0Zoi.s:104476  .debug_str:00000000000455df .LASF4098
     /tmp/ccut0Zoi.s:104308  .debug_str:0000000000044a2e .LASF4099
     /tmp/ccut0Zoi.s:92006  .debug_str:0000000000012595 .LASF4100
     /tmp/ccut0Zoi.s:94640  .debug_str:000000000001d593 .LASF4101
     /tmp/ccut0Zoi.s:90740  .debug_str:000000000000d8ea .LASF4102
     /tmp/ccut0Zoi.s:96496  .debug_str:0000000000024c7b .LASF4103
     /tmp/ccut0Zoi.s:101716  .debug_str:0000000000039e72 .LASF4104
     /tmp/ccut0Zoi.s:99642  .debug_str:0000000000031c6f .LASF4105
     /tmp/ccut0Zoi.s:103804  .debug_str:0000000000042a89 .LASF4106
     /tmp/ccut0Zoi.s:105984  .debug_str:000000000004be02 .LASF4107
     /tmp/ccut0Zoi.s:99072  .debug_str:000000000002f6e9 .LASF4108
     /tmp/ccut0Zoi.s:98110  .debug_str:000000000002b6a7 .LASF4109
     /tmp/ccut0Zoi.s:88290  .debug_str:000000000000338e .LASF4110
     /tmp/ccut0Zoi.s:100712  .debug_str:000000000003622a .LASF4111
     /tmp/ccut0Zoi.s:95446  .debug_str:0000000000020d3d .LASF4112
     /tmp/ccut0Zoi.s:99396  .debug_str:0000000000030c8e .LASF4113
     /tmp/ccut0Zoi.s:91964  .debug_str:00000000000122e3 .LASF4114
     /tmp/ccut0Zoi.s:97452  .debug_str:0000000000028c81 .LASF4115
     /tmp/ccut0Zoi.s:89646  .debug_str:0000000000008f22 .LASF4116
     /tmp/ccut0Zoi.s:97938  .debug_str:000000000002ab65 .LASF4117
     /tmp/ccut0Zoi.s:106132  .debug_str:000000000004c807 .LASF4118
     /tmp/ccut0Zoi.s:88392  .debug_str:0000000000003a40 .LASF4119
     /tmp/ccut0Zoi.s:93322  .debug_str:0000000000017ae6 .LASF4120
     /tmp/ccut0Zoi.s:98326  .debug_str:000000000002c42d .LASF4121
     /tmp/ccut0Zoi.s:101814  .debug_str:000000000003a59f .LASF4122
     /tmp/ccut0Zoi.s:100080  .debug_str:00000000000339b4 .LASF4123
     /tmp/ccut0Zoi.s:93002  .debug_str:000000000001650a .LASF4124
     /tmp/ccut0Zoi.s:94480  .debug_str:000000000001c997 .LASF4125
     /tmp/ccut0Zoi.s:94388  .debug_str:000000000001c329 .LASF4126
     /tmp/ccut0Zoi.s:88874  .debug_str:0000000000005bae .LASF4127
     /tmp/ccut0Zoi.s:88568  .debug_str:0000000000004684 .LASF4128
     /tmp/ccut0Zoi.s:102118  .debug_str:000000000003ba1e .LASF4129
     /tmp/ccut0Zoi.s:105140  .debug_str:0000000000048227 .LASF4130
     /tmp/ccut0Zoi.s:98498  .debug_str:000000000002d01a .LASF4131
     /tmp/ccut0Zoi.s:102976  .debug_str:000000000003f3c0 .LASF4132
     /tmp/ccut0Zoi.s:95044  .debug_str:000000000001f1e0 .LASF4133
     /tmp/ccut0Zoi.s:103288  .debug_str:0000000000040825 .LASF4134
     /tmp/ccut0Zoi.s:93202  .debug_str:000000000001730b .LASF4135
     /tmp/ccut0Zoi.s:90132  .debug_str:000000000000b0cb .LASF4136
     /tmp/ccut0Zoi.s:106188  .debug_str:000000000004cbd7 .LASF4137
     /tmp/ccut0Zoi.s:88382  .debug_str:0000000000003993 .LASF4138
     /tmp/ccut0Zoi.s:88462  .debug_str:0000000000003f0b .LASF4139
     /tmp/ccut0Zoi.s:100288  .debug_str:00000000000347f0 .LASF4140
     /tmp/ccut0Zoi.s:95206  .debug_str:000000000001fd31 .LASF4141
     /tmp/ccut0Zoi.s:94572  .debug_str:000000000001d065 .LASF4142
     /tmp/ccut0Zoi.s:105336  .debug_str:0000000000049003 .LASF4143
     /tmp/ccut0Zoi.s:94404  .debug_str:000000000001c48f .LASF4144
     /tmp/ccut0Zoi.s:105824  .debug_str:000000000004b2c6 .LASF4145
     /tmp/ccut0Zoi.s:99448  .debug_str:0000000000031074 .LASF4146
     /tmp/ccut0Zoi.s:91008  .debug_str:000000000000e771 .LASF4147
     /tmp/ccut0Zoi.s:92292  .debug_str:000000000001384d .LASF4148
     /tmp/ccut0Zoi.s:98670  .debug_str:000000000002dc5c .LASF4149
     /tmp/ccut0Zoi.s:102430  .debug_str:000000000003ce7d .LASF4150
     /tmp/ccut0Zoi.s:88218  .debug_str:0000000000002efe .LASF4151
     /tmp/ccut0Zoi.s:88762  .debug_str:00000000000053b9 .LASF4152
     /tmp/ccut0Zoi.s:99174  .debug_str:000000000002fd8e .LASF4153
     /tmp/ccut0Zoi.s:96288  .debug_str:0000000000024223 .LASF4154
     /tmp/ccut0Zoi.s:87860  .debug_str:00000000000014c0 .LASF4155
     /tmp/ccut0Zoi.s:89446  .debug_str:00000000000081d3 .LASF4156
     /tmp/ccut0Zoi.s:103112  .debug_str:000000000003fcbe .LASF4157
     /tmp/ccut0Zoi.s:89108  .debug_str:0000000000006bff .LASF4158
     /tmp/ccut0Zoi.s:94896  .debug_str:000000000001e732 .LASF4159
     /tmp/ccut0Zoi.s:87856  .debug_str:0000000000001489 .LASF4160
     /tmp/ccut0Zoi.s:95134  .debug_str:000000000001f8fb .LASF4161
     /tmp/ccut0Zoi.s:89660  .debug_str:0000000000009020 .LASF4162
     /tmp/ccut0Zoi.s:99476  .debug_str:000000000003125c .LASF4163
     /tmp/ccut0Zoi.s:101140  .debug_str:00000000000378ef .LASF4164
     /tmp/ccut0Zoi.s:104028  .debug_str:00000000000438db .LASF4165
     /tmp/ccut0Zoi.s:105246  .debug_str:00000000000489b6 .LASF4166
     /tmp/ccut0Zoi.s:98888  .debug_str:000000000002eaae .LASF4167
     /tmp/ccut0Zoi.s:88354  .debug_str:00000000000037a6 .LASF4168
     /tmp/ccut0Zoi.s:89310  .debug_str:00000000000078a3 .LASF4169
     /tmp/ccut0Zoi.s:94424  .debug_str:000000000001c5e7 .LASF4170
     /tmp/ccut0Zoi.s:97368  .debug_str:00000000000286df .LASF4171
     /tmp/ccut0Zoi.s:105580  .debug_str:000000000004a0a9 .LASF4172
     /tmp/ccut0Zoi.s:95164  .debug_str:000000000001facc .LASF4173
     /tmp/ccut0Zoi.s:103404  .debug_str:00000000000410e0 .LASF4174
     /tmp/ccut0Zoi.s:95706  .debug_str:0000000000021dbb .LASF4175
     /tmp/ccut0Zoi.s:101292  .debug_str:000000000003818f .LASF4176
     /tmp/ccut0Zoi.s:90652  .debug_str:000000000000d3e1 .LASF4177
     /tmp/ccut0Zoi.s:103008  .debug_str:000000000003f568 .LASF4178
     /tmp/ccut0Zoi.s:101966  .debug_str:000000000003afb6 .LASF4179
     /tmp/ccut0Zoi.s:99192  .debug_str:000000000002feca .LASF4180
     /tmp/ccut0Zoi.s:102002  .debug_str:000000000003b213 .LASF4181
     /tmp/ccut0Zoi.s:91468  .debug_str:0000000000010192 .LASF4182
     /tmp/ccut0Zoi.s:99820  .debug_str:00000000000327ed .LASF4183
     /tmp/ccut0Zoi.s:104190  .debug_str:00000000000442c9 .LASF4184
     /tmp/ccut0Zoi.s:97672  .debug_str:00000000000299f2 .LASF4185
     /tmp/ccut0Zoi.s:105870  .debug_str:000000000004b661 .LASF4186
     /tmp/ccut0Zoi.s:92060  .debug_str:0000000000012a0a .LASF4187
     /tmp/ccut0Zoi.s:93388  .debug_str:0000000000017ec5 .LASF4188
     /tmp/ccut0Zoi.s:95892  .debug_str:0000000000022a05 .LASF4189
     /tmp/ccut0Zoi.s:90118  .debug_str:000000000000af7d .LASF4190
     /tmp/ccut0Zoi.s:104424  .debug_str:00000000000452d0 .LASF4191
     /tmp/ccut0Zoi.s:101774  .debug_str:000000000003a2d5 .LASF4192
     /tmp/ccut0Zoi.s:101596  .debug_str:00000000000395ce .LASF4193
     /tmp/ccut0Zoi.s:91384  .debug_str:000000000000fcda .LASF4194
     /tmp/ccut0Zoi.s:93288  .debug_str:00000000000178cc .LASF4195
     /tmp/ccut0Zoi.s:91232  .debug_str:000000000000f4ad .LASF4196
     /tmp/ccut0Zoi.s:101138  .debug_str:00000000000378d8 .LASF4197
     /tmp/ccut0Zoi.s:102700  .debug_str:000000000003df71 .LASF4198
     /tmp/ccut0Zoi.s:95074  .debug_str:000000000001f403 .LASF4199
     /tmp/ccut0Zoi.s:103318  .debug_str:0000000000040a7b .LASF4200
     /tmp/ccut0Zoi.s:92868  .debug_str:0000000000015c4e .LASF4201
     /tmp/ccut0Zoi.s:101216  .debug_str:0000000000037c7a .LASF4202
     /tmp/ccut0Zoi.s:103646  .debug_str:0000000000042094 .LASF4203
     /tmp/ccut0Zoi.s:100940  .debug_str:0000000000036e2d .LASF4204
     /tmp/ccut0Zoi.s:94662  .debug_str:000000000001d6f6 .LASF4205
     /tmp/ccut0Zoi.s:102924  .debug_str:000000000003f07c .LASF4206
     /tmp/ccut0Zoi.s:92488  .debug_str:0000000000014409 .LASF4207
     /tmp/ccut0Zoi.s:89642  .debug_str:0000000000008ee2 .LASF4208
     /tmp/ccut0Zoi.s:90208  .debug_str:000000000000b65f .LASF4209
     /tmp/ccut0Zoi.s:98656  .debug_str:000000000002db74 .LASF4210
     /tmp/ccut0Zoi.s:100202  .debug_str:000000000003421c .LASF4211
     /tmp/ccut0Zoi.s:100404  .debug_str:0000000000034f35 .LASF4212
     /tmp/ccut0Zoi.s:88398  .debug_str:0000000000003aa2 .LASF4213
     /tmp/ccut0Zoi.s:104792  .debug_str:0000000000046b3c .LASF4214
     /tmp/ccut0Zoi.s:88268  .debug_str:000000000000325d .LASF4215
     /tmp/ccut0Zoi.s:94508  .debug_str:000000000001cbe2 .LASF4216
     /tmp/ccut0Zoi.s:91000  .debug_str:000000000000e6ee .LASF4217
     /tmp/ccut0Zoi.s:92334  .debug_str:0000000000013aef .LASF4218
     /tmp/ccut0Zoi.s:92984  .debug_str:0000000000016412 .LASF4219
     /tmp/ccut0Zoi.s:94194  .debug_str:000000000001b660 .LASF4220
     /tmp/ccut0Zoi.s:98534  .debug_str:000000000002d2b8 .LASF4221
     /tmp/ccut0Zoi.s:87972  .debug_str:0000000000001cd1 .LASF4222
     /tmp/ccut0Zoi.s:98824  .debug_str:000000000002e66c .LASF4223
     /tmp/ccut0Zoi.s:88294  .debug_str:00000000000033b2 .LASF4224
     /tmp/ccut0Zoi.s:103450  .debug_str:0000000000041390 .LASF4225
     /tmp/ccut0Zoi.s:102054  .debug_str:000000000003b589 .LASF4226
     /tmp/ccut0Zoi.s:97314  .debug_str:000000000002833b .LASF4227
     /tmp/ccut0Zoi.s:102786  .debug_str:000000000003e608 .LASF4228
     /tmp/ccut0Zoi.s:91690  .debug_str:000000000001100d .LASF4229
     /tmp/ccut0Zoi.s:99120  .debug_str:000000000002f9ce .LASF4230
     /tmp/ccut0Zoi.s:104856  .debug_str:0000000000046f5a .LASF4231
     /tmp/ccut0Zoi.s:105288  .debug_str:0000000000048cbe .LASF4232
     /tmp/ccut0Zoi.s:92734  .debug_str:000000000001546b .LASF4233
     /tmp/ccut0Zoi.s:101060  .debug_str:0000000000037482 .LASF4234
     /tmp/ccut0Zoi.s:105254  .debug_str:0000000000048a6b .LASF4235
     /tmp/ccut0Zoi.s:98862  .debug_str:000000000002e91d .LASF4236
     /tmp/ccut0Zoi.s:88330  .debug_str:00000000000035b6 .LASF4237
     /tmp/ccut0Zoi.s:96656  .debug_str:0000000000025785 .LASF4238
     /tmp/ccut0Zoi.s:104890  .debug_str:000000000004710d .LASF4239
     /tmp/ccut0Zoi.s:94448  .debug_str:000000000001c764 .LASF4240
     /tmp/ccut0Zoi.s:102532  .debug_str:000000000003d55f .LASF4241
     /tmp/ccut0Zoi.s:93410  .debug_str:0000000000017fa5 .LASF4242
     /tmp/ccut0Zoi.s:103010  .debug_str:000000000003f57b .LASF4243
     /tmp/ccut0Zoi.s:92568  .debug_str:0000000000014930 .LASF4244
     /tmp/ccut0Zoi.s:100896  .debug_str:0000000000036cb7 .LASF4245
     /tmp/ccut0Zoi.s:90268  .debug_str:000000000000ba10 .LASF4246
     /tmp/ccut0Zoi.s:98348  .debug_str:000000000002c5ae .LASF4247
     /tmp/ccut0Zoi.s:88212  .debug_str:0000000000002e69 .LASF4248
     /tmp/ccut0Zoi.s:96346  .debug_str:0000000000024458 .LASF4249
     /tmp/ccut0Zoi.s:104614  .debug_str:0000000000045e80 .LASF4250
     /tmp/ccut0Zoi.s:94168  .debug_str:000000000001b48a .LASF4251
     /tmp/ccut0Zoi.s:105042  .debug_str:0000000000047b04 .LASF4252
     /tmp/ccut0Zoi.s:89172  .debug_str:0000000000007038 .LASF4253
     /tmp/ccut0Zoi.s:104044  .debug_str:000000000004397e .LASF4254
     /tmp/ccut0Zoi.s:105486  .debug_str:00000000000499f6 .LASF4255
     /tmp/ccut0Zoi.s:95056  .debug_str:000000000001f2c4 .LASF4256
     /tmp/ccut0Zoi.s:94190  .debug_str:000000000001b642 .LASF4257
     /tmp/ccut0Zoi.s:93678  .debug_str:00000000000191bb .LASF4258
     /tmp/ccut0Zoi.s:105056  .debug_str:0000000000047bf3 .LASF4259
     /tmp/ccut0Zoi.s:94930  .debug_str:000000000001e962 .LASF4260
     /tmp/ccut0Zoi.s:98030  .debug_str:000000000002b174 .LASF4261
     /tmp/ccut0Zoi.s:89422  .debug_str:0000000000008003 .LASF4262
     /tmp/ccut0Zoi.s:99816  .debug_str:0000000000032792 .LASF4263
     /tmp/ccut0Zoi.s:91272  .debug_str:000000000000f735 .LASF4264
     /tmp/ccut0Zoi.s:99064  .debug_str:000000000002f68e .LASF4265
     /tmp/ccut0Zoi.s:91906  .debug_str:0000000000011ea5 .LASF4266
     /tmp/ccut0Zoi.s:92492  .debug_str:000000000001445c .LASF4267
     /tmp/ccut0Zoi.s:102014  .debug_str:000000000003b2cb .LASF4268
     /tmp/ccut0Zoi.s:101818  .debug_str:000000000003a5d8 .LASF4269
     /tmp/ccut0Zoi.s:103640  .debug_str:000000000004201d .LASF4270
     /tmp/ccut0Zoi.s:103944  .debug_str:00000000000432f6 .LASF4271
     /tmp/ccut0Zoi.s:90062  .debug_str:000000000000ab6d .LASF4272
     /tmp/ccut0Zoi.s:97036  .debug_str:00000000000270ca .LASF4273
     /tmp/ccut0Zoi.s:100394  .debug_str:0000000000034e9c .LASF4274
     /tmp/ccut0Zoi.s:96990  .debug_str:0000000000026d51 .LASF4275
     /tmp/ccut0Zoi.s:102388  .debug_str:000000000003cb82 .LASF4276
     /tmp/ccut0Zoi.s:100522  .debug_str:00000000000356a2 .LASF4277
     /tmp/ccut0Zoi.s:96048  .debug_str:00000000000234d7 .LASF4278
     /tmp/ccut0Zoi.s:101354  .debug_str:0000000000038581 .LASF4279
     /tmp/ccut0Zoi.s:97822  .debug_str:000000000002a3b4 .LASF4280
     /tmp/ccut0Zoi.s:91290  .debug_str:000000000000f865 .LASF4281
     /tmp/ccut0Zoi.s:89716  .debug_str:0000000000009421 .LASF4282
     /tmp/ccut0Zoi.s:91042  .debug_str:000000000000e9ea .LASF4283
     /tmp/ccut0Zoi.s:91050  .debug_str:000000000000ea85 .LASF4284
     /tmp/ccut0Zoi.s:92974  .debug_str:0000000000016362 .LASF4285
     /tmp/ccut0Zoi.s:103230  .debug_str:00000000000403d3 .LASF4286
     /tmp/ccut0Zoi.s:94612  .debug_str:000000000001d355 .LASF4287
     /tmp/ccut0Zoi.s:90106  .debug_str:000000000000aec6 .LASF4288
     /tmp/ccut0Zoi.s:100610  .debug_str:0000000000035c03 .LASF4289
     /tmp/ccut0Zoi.s:101616  .debug_str:00000000000396e2 .LASF4290
     /tmp/ccut0Zoi.s:100912  .debug_str:0000000000036d82 .LASF4291
     /tmp/ccut0Zoi.s:90476  .debug_str:000000000000c812 .LASF4292
     /tmp/ccut0Zoi.s:101688  .debug_str:0000000000039c75 .LASF4293
     /tmp/ccut0Zoi.s:93188  .debug_str:000000000001724f .LASF4294
     /tmp/ccut0Zoi.s:103474  .debug_str:0000000000041563 .LASF4295
     /tmp/ccut0Zoi.s:102618  .debug_str:000000000003da4d .LASF4296
     /tmp/ccut0Zoi.s:101210  .debug_str:0000000000037c3f .LASF4297
     /tmp/ccut0Zoi.s:96864  .debug_str:0000000000026535 .LASF4298
     /tmp/ccut0Zoi.s:93896  .debug_str:000000000001a1cb .LASF4299
     /tmp/ccut0Zoi.s:103264  .debug_str:00000000000406b1 .LASF4300
     /tmp/ccut0Zoi.s:95728  .debug_str:0000000000021eea .LASF4301
     /tmp/ccut0Zoi.s:99520  .debug_str:000000000003150b .LASF4302
     /tmp/ccut0Zoi.s:100910  .debug_str:0000000000036d69 .LASF4303
     /tmp/ccut0Zoi.s:105172  .debug_str:0000000000048466 .LASF4304
     /tmp/ccut0Zoi.s:99242  .debug_str:00000000000301a5 .LASF4305
     /tmp/ccut0Zoi.s:90646  .debug_str:000000000000d39b .LASF4306
     /tmp/ccut0Zoi.s:101092  .debug_str:00000000000375b0 .LASF4307
     /tmp/ccut0Zoi.s:92576  .debug_str:00000000000149d3 .LASF4308
     /tmp/ccut0Zoi.s:87954  .debug_str:0000000000001bb0 .LASF4309
     /tmp/ccut0Zoi.s:98358  .debug_str:000000000002c63c .LASF4310
     /tmp/ccut0Zoi.s:89688  .debug_str:00000000000091c6 .LASF4311
     /tmp/ccut0Zoi.s:100120  .debug_str:0000000000033ce6 .LASF4312
     /tmp/ccut0Zoi.s:91598  .debug_str:0000000000010a49 .LASF4313
     /tmp/ccut0Zoi.s:93858  .debug_str:0000000000019f29 .LASF4314
     /tmp/ccut0Zoi.s:93332  .debug_str:0000000000017b77 .LASF4315
     /tmp/ccut0Zoi.s:90230  .debug_str:000000000000b7ce .LASF4316
     /tmp/ccut0Zoi.s:102402  .debug_str:000000000003cc7f .LASF4317
     /tmp/ccut0Zoi.s:105410  .debug_str:00000000000494af .LASF4318
     /tmp/ccut0Zoi.s:100902  .debug_str:0000000000036d22 .LASF4319
     /tmp/ccut0Zoi.s:93586  .debug_str:0000000000018b94 .LASF4320
     /tmp/ccut0Zoi.s:101306  .debug_str:000000000003829f .LASF4321
     /tmp/ccut0Zoi.s:89356  .debug_str:0000000000007b60 .LASF4322
     /tmp/ccut0Zoi.s:103068  .debug_str:000000000003f993 .LASF4323
     /tmp/ccut0Zoi.s:90196  .debug_str:000000000000b5a8 .LASF4324
     /tmp/ccut0Zoi.s:94452  .debug_str:000000000001c796 .LASF4325
     /tmp/ccut0Zoi.s:105032  .debug_str:0000000000047a70 .LASF4326
     /tmp/ccut0Zoi.s:98020  .debug_str:000000000002b0c8 .LASF4327
     /tmp/ccut0Zoi.s:102520  .debug_str:000000000003d4a4 .LASF4328
     /tmp/ccut0Zoi.s:100620  .debug_str:0000000000035c85 .LASF4329
     /tmp/ccut0Zoi.s:99970  .debug_str:00000000000331b1 .LASF4330
     /tmp/ccut0Zoi.s:93886  .debug_str:000000000001a13e .LASF4331
     /tmp/ccut0Zoi.s:104684  .debug_str:0000000000046390 .LASF4332
     /tmp/ccut0Zoi.s:93448  .debug_str:000000000001820c .LASF4333
     /tmp/ccut0Zoi.s:97932  .debug_str:000000000002ab1d .LASF4334
     /tmp/ccut0Zoi.s:97348  .debug_str:000000000002856c .LASF4335
     /tmp/ccut0Zoi.s:100042  .debug_str:00000000000336f6 .LASF4336
     /tmp/ccut0Zoi.s:91828  .debug_str:00000000000119d9 .LASF4337
     /tmp/ccut0Zoi.s:105514  .debug_str:0000000000049bf5 .LASF4338
     /tmp/ccut0Zoi.s:98064  .debug_str:000000000002b3ee .LASF4339
     /tmp/ccut0Zoi.s:88384  .debug_str:00000000000039aa .LASF4340
     /tmp/ccut0Zoi.s:105426  .debug_str:00000000000495e5 .LASF4341
     /tmp/ccut0Zoi.s:103892  .debug_str:0000000000042fb2 .LASF4342
     /tmp/ccut0Zoi.s:89252  .debug_str:0000000000007528 .LASF4343
     /tmp/ccut0Zoi.s:98248  .debug_str:000000000002bedf .LASF4344
     /tmp/ccut0Zoi.s:103526  .debug_str:000000000004186f .LASF4345
     /tmp/ccut0Zoi.s:97700  .debug_str:0000000000029c2a .LASF4346
     /tmp/ccut0Zoi.s:92148  .debug_str:0000000000012f69 .LASF4347
     /tmp/ccut0Zoi.s:87776  .debug_str:0000000000000f2f .LASF4348
     /tmp/ccut0Zoi.s:97652  .debug_str:0000000000029912 .LASF4349
     /tmp/ccut0Zoi.s:97556  .debug_str:00000000000292cc .LASF4350
     /tmp/ccut0Zoi.s:96458  .debug_str:0000000000024a1c .LASF4351
     /tmp/ccut0Zoi.s:88938  .debug_str:0000000000005f9a .LASF4352
     /tmp/ccut0Zoi.s:94882  .debug_str:000000000001e625 .LASF4353
     /tmp/ccut0Zoi.s:99262  .debug_str:00000000000302b2 .LASF4354
     /tmp/ccut0Zoi.s:93316  .debug_str:0000000000017a5e .LASF4355
     /tmp/ccut0Zoi.s:90814  .debug_str:000000000000dda1 .LASF4356
     /tmp/ccut0Zoi.s:90684  .debug_str:000000000000d55e .LASF4357
     /tmp/ccut0Zoi.s:91866  .debug_str:0000000000011c47 .LASF4358
     /tmp/ccut0Zoi.s:89804  .debug_str:00000000000099e8 .LASF4359
     /tmp/ccut0Zoi.s:90820  .debug_str:000000000000de03 .LASF4360
     /tmp/ccut0Zoi.s:96824  .debug_str:0000000000026271 .LASF4361
     /tmp/ccut0Zoi.s:101112  .debug_str:00000000000376e4 .LASF4362
     /tmp/ccut0Zoi.s:99382  .debug_str:0000000000030b6e .LASF4363
     /tmp/ccut0Zoi.s:98446  .debug_str:000000000002cc51 .LASF4364
     /tmp/ccut0Zoi.s:102302  .debug_str:000000000003c6b0 .LASF4365
     /tmp/ccut0Zoi.s:97658  .debug_str:000000000002995c .LASF4366
     /tmp/ccut0Zoi.s:105002  .debug_str:00000000000478a3 .LASF4367
     /tmp/ccut0Zoi.s:88156  .debug_str:00000000000029be .LASF4368
     /tmp/ccut0Zoi.s:100894  .debug_str:0000000000036c8f .LASF4369
     /tmp/ccut0Zoi.s:97178  .debug_str:0000000000027b03 .LASF4370
     /tmp/ccut0Zoi.s:100148  .debug_str:0000000000033eea .LASF4371
     /tmp/ccut0Zoi.s:100330  .debug_str:0000000000034acb .LASF4372
     /tmp/ccut0Zoi.s:87676  .debug_str:00000000000008b2 .LASF4373
     /tmp/ccut0Zoi.s:93952  .debug_str:000000000001a558 .LASF4374
     /tmp/ccut0Zoi.s:88358  .debug_str:00000000000037cb .LASF4375
     /tmp/ccut0Zoi.s:90930  .debug_str:000000000000e41c .LASF4376
     /tmp/ccut0Zoi.s:89714  .debug_str:00000000000093f3 .LASF4377
     /tmp/ccut0Zoi.s:96278  .debug_str:0000000000024149 .LASF4378
     /tmp/ccut0Zoi.s:103228  .debug_str:00000000000403ad .LASF4379
     /tmp/ccut0Zoi.s:90800  .debug_str:000000000000dcf7 .LASF4380
     /tmp/ccut0Zoi.s:92318  .debug_str:00000000000139fc .LASF4381
     /tmp/ccut0Zoi.s:91102  .debug_str:000000000000ecae .LASF4382
     /tmp/ccut0Zoi.s:97870  .debug_str:000000000002a714 .LASF4383
     /tmp/ccut0Zoi.s:104652  .debug_str:000000000004610f .LASF4384
     /tmp/ccut0Zoi.s:99576  .debug_str:000000000003188c .LASF4385
     /tmp/ccut0Zoi.s:105422  .debug_str:00000000000495a1 .LASF4386
     /tmp/ccut0Zoi.s:100976  .debug_str:0000000000037062 .LASF4387
     /tmp/ccut0Zoi.s:87964  .debug_str:0000000000001c5e .LASF4388
     /tmp/ccut0Zoi.s:93806  .debug_str:0000000000019b1e .LASF4389
     /tmp/ccut0Zoi.s:99650  .debug_str:0000000000031ccb .LASF4390
     /tmp/ccut0Zoi.s:103676  .debug_str:00000000000422b3 .LASF4391
     /tmp/ccut0Zoi.s:92338  .debug_str:0000000000013b14 .LASF4392
     /tmp/ccut0Zoi.s:92270  .debug_str:0000000000013717 .LASF4393
     /tmp/ccut0Zoi.s:103012  .debug_str:000000000003f591 .LASF4394
     /tmp/ccut0Zoi.s:104698  .debug_str:00000000000464a7 .LASF4395
     /tmp/ccut0Zoi.s:93528  .debug_str:0000000000018771 .LASF4396
     /tmp/ccut0Zoi.s:95060  .debug_str:000000000001f310 .LASF4397
     /tmp/ccut0Zoi.s:102572  .debug_str:000000000003d7bb .LASF4398
     /tmp/ccut0Zoi.s:95682  .debug_str:0000000000021c53 .LASF4399
     /tmp/ccut0Zoi.s:92918  .debug_str:0000000000015ffb .LASF4400
     /tmp/ccut0Zoi.s:101730  .debug_str:0000000000039fbc .LASF4401
     /tmp/ccut0Zoi.s:97928  .debug_str:000000000002aad9 .LASF4402
     /tmp/ccut0Zoi.s:92988  .debug_str:000000000001646d .LASF4403
     /tmp/ccut0Zoi.s:96368  .debug_str:00000000000245b1 .LASF4404
     /tmp/ccut0Zoi.s:102212  .debug_str:000000000003c089 .LASF4405
     /tmp/ccut0Zoi.s:88662  .debug_str:0000000000004cc2 .LASF4406
     /tmp/ccut0Zoi.s:91158  .debug_str:000000000000efb1 .LASF4407
     /tmp/ccut0Zoi.s:103978  .debug_str:0000000000043551 .LASF4408
     /tmp/ccut0Zoi.s:88362  .debug_str:0000000000003807 .LASF4409
     /tmp/ccut0Zoi.s:91956  .debug_str:0000000000012232 .LASF4410
     /tmp/ccut0Zoi.s:104692  .debug_str:000000000004640f .LASF4411
     /tmp/ccut0Zoi.s:98770  .debug_str:000000000002e293 .LASF4412
     /tmp/ccut0Zoi.s:92708  .debug_str:00000000000152ba .LASF4413
     /tmp/ccut0Zoi.s:95296  .debug_str:00000000000202ca .LASF4414
     /tmp/ccut0Zoi.s:94562  .debug_str:000000000001cfa2 .LASF4415
     /tmp/ccut0Zoi.s:100304  .debug_str:0000000000034926 .LASF4416
     /tmp/ccut0Zoi.s:93576  .debug_str:0000000000018b04 .LASF4417
     /tmp/ccut0Zoi.s:102436  .debug_str:000000000003cef0 .LASF4418
     /tmp/ccut0Zoi.s:92580  .debug_str:0000000000014a06 .LASF4419
     /tmp/ccut0Zoi.s:101530  .debug_str:0000000000039198 .LASF4420
     /tmp/ccut0Zoi.s:90202  .debug_str:000000000000b625 .LASF4421
     /tmp/ccut0Zoi.s:88812  .debug_str:00000000000057ea .LASF4422
     /tmp/ccut0Zoi.s:89908  .debug_str:000000000000a0c9 .LASF4423
     /tmp/ccut0Zoi.s:103984  .debug_str:00000000000435e9 .LASF4424
     /tmp/ccut0Zoi.s:90508  .debug_str:000000000000ca87 .LASF4425
     /tmp/ccut0Zoi.s:88974  .debug_str:00000000000061d5 .LASF4426
     /tmp/ccut0Zoi.s:97396  .debug_str:00000000000288a9 .LASF4427
     /tmp/ccut0Zoi.s:97612  .debug_str:0000000000029666 .LASF4428
     /tmp/ccut0Zoi.s:102508  .debug_str:000000000003d393 .LASF4429
     /tmp/ccut0Zoi.s:98174  .debug_str:000000000002ba52 .LASF4430
     /tmp/ccut0Zoi.s:93796  .debug_str:0000000000019a0f .LASF4431
     /tmp/ccut0Zoi.s:104960  .debug_str:00000000000475c3 .LASF4432
     /tmp/ccut0Zoi.s:99032  .debug_str:000000000002f495 .LASF4433
     /tmp/ccut0Zoi.s:105132  .debug_str:00000000000481ab .LASF4434
     /tmp/ccut0Zoi.s:99216  .debug_str:000000000002fffd .LASF4435
     /tmp/ccut0Zoi.s:93176  .debug_str:00000000000171af .LASF4436
     /tmp/ccut0Zoi.s:105924  .debug_str:000000000004b9fe .LASF4437
     /tmp/ccut0Zoi.s:99956  .debug_str:00000000000330bd .LASF4438
     /tmp/ccut0Zoi.s:93930  .debug_str:000000000001a3d4 .LASF4439
     /tmp/ccut0Zoi.s:98872  .debug_str:000000000002e979 .LASF4440
     /tmp/ccut0Zoi.s:96254  .debug_str:000000000002400e .LASF4441
     /tmp/ccut0Zoi.s:91750  .debug_str:0000000000011436 .LASF4442
     /tmp/ccut0Zoi.s:97404  .debug_str:0000000000028920 .LASF4443
     /tmp/ccut0Zoi.s:92690  .debug_str:000000000001518c .LASF4444
     /tmp/ccut0Zoi.s:96932  .debug_str:00000000000269b6 .LASF4445
     /tmp/ccut0Zoi.s:99010  .debug_str:000000000002f307 .LASF4446
     /tmp/ccut0Zoi.s:90934  .debug_str:000000000000e440 .LASF4447
     /tmp/ccut0Zoi.s:97724  .debug_str:0000000000029dc6 .LASF4448
     /tmp/ccut0Zoi.s:100144  .debug_str:0000000000033e6a .LASF4449
     /tmp/ccut0Zoi.s:104378  .debug_str:0000000000044f47 .LASF4450
     /tmp/ccut0Zoi.s:99156  .debug_str:000000000002fc11 .LASF4451
     /tmp/ccut0Zoi.s:92396  .debug_str:0000000000013ed9 .LASF4452
     /tmp/ccut0Zoi.s:97838  .debug_str:000000000002a476 .LASF4453
     /tmp/ccut0Zoi.s:91754  .debug_str:0000000000011474 .LASF4454
     /tmp/ccut0Zoi.s:93868  .debug_str:0000000000019fd9 .LASF4455
     /tmp/ccut0Zoi.s:88208  .debug_str:0000000000002df2 .LASF4456
     /tmp/ccut0Zoi.s:92872  .debug_str:0000000000015c7a .LASF4457
     /tmp/ccut0Zoi.s:91148  .debug_str:000000000000ef13 .LASF4458
     /tmp/ccut0Zoi.s:100244  .debug_str:0000000000034500 .LASF4459
     /tmp/ccut0Zoi.s:102908  .debug_str:000000000003ef26 .LASF4460
     /tmp/ccut0Zoi.s:96044  .debug_str:0000000000023494 .LASF4461
     /tmp/ccut0Zoi.s:90824  .debug_str:000000000000de63 .LASF4462
     /tmp/ccut0Zoi.s:96280  .debug_str:0000000000024179 .LASF4463
     /tmp/ccut0Zoi.s:98852  .debug_str:000000000002e843 .LASF4464
     /tmp/ccut0Zoi.s:88892  .debug_str:0000000000005c90 .LASF4465
     /tmp/ccut0Zoi.s:97058  .debug_str:0000000000027249 .LASF4466
     /tmp/ccut0Zoi.s:87908  .debug_str:0000000000001861 .LASF4467
     /tmp/ccut0Zoi.s:89708  .debug_str:0000000000009375 .LASF4468
     /tmp/ccut0Zoi.s:97864  .debug_str:000000000002a68f .LASF4469
     /tmp/ccut0Zoi.s:91786  .debug_str:00000000000116a8 .LASF4470
     /tmp/ccut0Zoi.s:104528  .debug_str:0000000000045931 .LASF4471
     /tmp/ccut0Zoi.s:90236  .debug_str:000000000000b82a .LASF4472
     /tmp/ccut0Zoi.s:105464  .debug_str:0000000000049852 .LASF4473
     /tmp/ccut0Zoi.s:97112  .debug_str:00000000000275d9 .LASF4474
     /tmp/ccut0Zoi.s:102862  .debug_str:000000000003eb42 .LASF4475
     /tmp/ccut0Zoi.s:93020  .debug_str:0000000000016632 .LASF4476
     /tmp/ccut0Zoi.s:105938  .debug_str:000000000004bb34 .LASF4477
     /tmp/ccut0Zoi.s:98616  .debug_str:000000000002d848 .LASF4478
     /tmp/ccut0Zoi.s:100634  .debug_str:0000000000035d7f .LASF4479
     /tmp/ccut0Zoi.s:96906  .debug_str:0000000000026803 .LASF4480
     /tmp/ccut0Zoi.s:88986  .debug_str:00000000000062d7 .LASF4481
     /tmp/ccut0Zoi.s:105330  .debug_str:0000000000048f72 .LASF4482
     /tmp/ccut0Zoi.s:101924  .debug_str:000000000003ad1f .LASF4483
     /tmp/ccut0Zoi.s:96600  .debug_str:00000000000253bc .LASF4484
     /tmp/ccut0Zoi.s:95146  .debug_str:000000000001f96a .LASF4485
     /tmp/ccut0Zoi.s:104620  .debug_str:0000000000045ebf .LASF4486
     /tmp/ccut0Zoi.s:97384  .debug_str:00000000000287db .LASF4487
     /tmp/ccut0Zoi.s:102956  .debug_str:000000000003f20c .LASF4488
     /tmp/ccut0Zoi.s:89806  .debug_str:0000000000009a13 .LASF4489
     /tmp/ccut0Zoi.s:98170  .debug_str:000000000002b9f7 .LASF4490
     /tmp/ccut0Zoi.s:95190  .debug_str:000000000001fc10 .LASF4491
     /tmp/ccut0Zoi.s:95674  .debug_str:0000000000021bb8 .LASF4492
     /tmp/ccut0Zoi.s:103102  .debug_str:000000000003fc3b .LASF4493
     /tmp/ccut0Zoi.s:103644  .debug_str:000000000004205b .LASF4494
     /tmp/ccut0Zoi.s:98938  .debug_str:000000000002ee8b .LASF4495
     /tmp/ccut0Zoi.s:90308  .debug_str:000000000000bc9b .LASF4496
     /tmp/ccut0Zoi.s:96248  .debug_str:0000000000023fdf .LASF4497
     /tmp/ccut0Zoi.s:97388  .debug_str:000000000002881c .LASF4498
     /tmp/ccut0Zoi.s:91292  .debug_str:000000000000f87d .LASF4499
     /tmp/ccut0Zoi.s:104088  .debug_str:0000000000043c35 .LASF4500
     /tmp/ccut0Zoi.s:94954  .debug_str:000000000001eac8 .LASF4501
     /tmp/ccut0Zoi.s:101656  .debug_str:0000000000039a11 .LASF4502
     /tmp/ccut0Zoi.s:91726  .debug_str:0000000000011285 .LASF4503
     /tmp/ccut0Zoi.s:99026  .debug_str:000000000002f41a .LASF4504
     /tmp/ccut0Zoi.s:90632  .debug_str:000000000000d2a0 .LASF4505
     /tmp/ccut0Zoi.s:105726  .debug_str:000000000004abb2 .LASF4506
     /tmp/ccut0Zoi.s:99788  .debug_str:0000000000032623 .LASF4507
     /tmp/ccut0Zoi.s:100960  .debug_str:0000000000036f74 .LASF4508
     /tmp/ccut0Zoi.s:94910  .debug_str:000000000001e842 .LASF4509
     /tmp/ccut0Zoi.s:104668  .debug_str:0000000000046220 .LASF4510
     /tmp/ccut0Zoi.s:101680  .debug_str:0000000000039bc3 .LASF4511
     /tmp/ccut0Zoi.s:105118  .debug_str:0000000000048062 .LASF4512
     /tmp/ccut0Zoi.s:104746  .debug_str:0000000000046808 .LASF4513
     /tmp/ccut0Zoi.s:90326  .debug_str:000000000000bde2 .LASF4514
     /tmp/ccut0Zoi.s:100302  .debug_str:00000000000348ef .LASF4515
     /tmp/ccut0Zoi.s:103626  .debug_str:0000000000041f00 .LASF4516
     /tmp/ccut0Zoi.s:104252  .debug_str:000000000004467c .LASF4517
     /tmp/ccut0Zoi.s:89342  .debug_str:0000000000007a44 .LASF4518
     /tmp/ccut0Zoi.s:104374  .debug_str:0000000000044ece .LASF4519
     /tmp/ccut0Zoi.s:88394  .debug_str:0000000000003a56 .LASF4520
     /tmp/ccut0Zoi.s:97342  .debug_str:00000000000284fc .LASF4521
     /tmp/ccut0Zoi.s:105090  .debug_str:0000000000047e1a .LASF4522
     /tmp/ccut0Zoi.s:93452  .debug_str:000000000001826b .LASF4523
     /tmp/ccut0Zoi.s:93134  .debug_str:0000000000016eb2 .LASF4524
     /tmp/ccut0Zoi.s:93476  .debug_str:0000000000018430 .LASF4525
     /tmp/ccut0Zoi.s:97490  .debug_str:0000000000028f23 .LASF4526
     /tmp/ccut0Zoi.s:100232  .debug_str:00000000000343eb .LASF4527
     /tmp/ccut0Zoi.s:94226  .debug_str:000000000001b874 .LASF4528
     /tmp/ccut0Zoi.s:88204  .debug_str:0000000000002d76 .LASF4529
     /tmp/ccut0Zoi.s:101028  .debug_str:00000000000372c1 .LASF4530
     /tmp/ccut0Zoi.s:93608  .debug_str:0000000000018d11 .LASF4531
     /tmp/ccut0Zoi.s:97632  .debug_str:0000000000029809 .LASF4532
     /tmp/ccut0Zoi.s:105834  .debug_str:000000000004b3a8 .LASF4533
     /tmp/ccut0Zoi.s:95950  .debug_str:0000000000022db8 .LASF4534
     /tmp/ccut0Zoi.s:104824  .debug_str:0000000000046d2c .LASF4535
     /tmp/ccut0Zoi.s:94986  .debug_str:000000000001ed41 .LASF4536
     /tmp/ccut0Zoi.s:97208  .debug_str:0000000000027cd5 .LASF4537
     /tmp/ccut0Zoi.s:104522  .debug_str:000000000004589c .LASF4538
     /tmp/ccut0Zoi.s:98592  .debug_str:000000000002d627 .LASF4539
     /tmp/ccut0Zoi.s:101766  .debug_str:000000000003a25c .LASF4540
     /tmp/ccut0Zoi.s:95410  .debug_str:0000000000020b42 .LASF4541
     /tmp/ccut0Zoi.s:94630  .debug_str:000000000001d477 .LASF4542
     /tmp/ccut0Zoi.s:94392  .debug_str:000000000001c35e .LASF4543
     /tmp/ccut0Zoi.s:88202  .debug_str:0000000000002d3d .LASF4544
     /tmp/ccut0Zoi.s:99932  .debug_str:0000000000032f36 .LASF4545
     /tmp/ccut0Zoi.s:92220  .debug_str:00000000000133e6 .LASF4546
     /tmp/ccut0Zoi.s:104930  .debug_str:00000000000473df .LASF4547
     /tmp/ccut0Zoi.s:99000  .debug_str:000000000002f275 .LASF4548
     /tmp/ccut0Zoi.s:88372  .debug_str:00000000000038f6 .LASF4549
     /tmp/ccut0Zoi.s:105872  .debug_str:000000000004b675 .LASF4550
     /tmp/ccut0Zoi.s:94906  .debug_str:000000000001e7c8 .LASF4551
     /tmp/ccut0Zoi.s:93880  .debug_str:000000000001a0a4 .LASF4552
     /tmp/ccut0Zoi.s:87874  .debug_str:0000000000001580 .LASF4553
     /tmp/ccut0Zoi.s:106026  .debug_str:000000000004c0ce .LASF4554
     /tmp/ccut0Zoi.s:96584  .debug_str:0000000000025255 .LASF4555
     /tmp/ccut0Zoi.s:93632  .debug_str:0000000000018ea4 .LASF4556
     /tmp/ccut0Zoi.s:92530  .debug_str:0000000000014690 .LASF4557
     /tmp/ccut0Zoi.s:105238  .debug_str:00000000000488f1 .LASF4558
     /tmp/ccut0Zoi.s:99302  .debug_str:0000000000030564 .LASF4559
     /tmp/ccut0Zoi.s:96488  .debug_str:0000000000024c02 .LASF4560
     /tmp/ccut0Zoi.s:106012  .debug_str:000000000004c016 .LASF4561
     /tmp/ccut0Zoi.s:102434  .debug_str:000000000003ceb9 .LASF4562
     /tmp/ccut0Zoi.s:101308  .debug_str:00000000000382ba .LASF4563
     /tmp/ccut0Zoi.s:101346  .debug_str:000000000003851b .LASF4564
     /tmp/ccut0Zoi.s:106168  .debug_str:000000000004ca76 .LASF4565
     /tmp/ccut0Zoi.s:96296  .debug_str:000000000002427c .LASF4566
     /tmp/ccut0Zoi.s:102026  .debug_str:000000000003b383 .LASF4567
     /tmp/ccut0Zoi.s:91988  .debug_str:0000000000012487 .LASF4568
     /tmp/ccut0Zoi.s:93048  .debug_str:000000000001683a .LASF4569
     /tmp/ccut0Zoi.s:99848  .debug_str:0000000000032988 .LASF4570
     /tmp/ccut0Zoi.s:93510  .debug_str:0000000000018623 .LASF4571
     /tmp/ccut0Zoi.s:102666  .debug_str:000000000003dd79 .LASF4572
     /tmp/ccut0Zoi.s:103986  .debug_str:0000000000043621 .LASF4573
     /tmp/ccut0Zoi.s:105960  .debug_str:000000000004bc54 .LASF4574
     /tmp/ccut0Zoi.s:93828  .debug_str:0000000000019d36 .LASF4575
     /tmp/ccut0Zoi.s:92686  .debug_str:000000000001511a .LASF4576
     /tmp/ccut0Zoi.s:87938  .debug_str:0000000000001a99 .LASF4577
     /tmp/ccut0Zoi.s:89740  .debug_str:0000000000009603 .LASF4578
     /tmp/ccut0Zoi.s:94690  .debug_str:000000000001d90a .LASF4579
     /tmp/ccut0Zoi.s:101412  .debug_str:00000000000389b0 .LASF4580
     /tmp/ccut0Zoi.s:101662  .debug_str:0000000000039a93 .LASF4581
     /tmp/ccut0Zoi.s:97422  .debug_str:0000000000028a82 .LASF4582
     /tmp/ccut0Zoi.s:101268  .debug_str:0000000000037fb3 .LASF4583
     /tmp/ccut0Zoi.s:88078  .debug_str:0000000000002440 .LASF4584
     /tmp/ccut0Zoi.s:105620  .debug_str:000000000004a2b7 .LASF4585
     /tmp/ccut0Zoi.s:98594  .debug_str:000000000002d65e .LASF4586
     /tmp/ccut0Zoi.s:99686  .debug_str:0000000000031f98 .LASF4587
     /tmp/ccut0Zoi.s:88598  .debug_str:0000000000004893 .LASF4588
     /tmp/ccut0Zoi.s:103674  .debug_str:000000000004228d .LASF4589
     /tmp/ccut0Zoi.s:102280  .debug_str:000000000003c500 .LASF4590
     /tmp/ccut0Zoi.s:99712  .debug_str:0000000000032140 .LASF4591
     /tmp/ccut0Zoi.s:92260  .debug_str:0000000000013638 .LASF4592
     /tmp/ccut0Zoi.s:104346  .debug_str:0000000000044c8b .LASF4593
     /tmp/ccut0Zoi.s:90240  .debug_str:000000000000b872 .LASF4594
     /tmp/ccut0Zoi.s:88074  .debug_str:00000000000023f8 .LASF4595
     /tmp/ccut0Zoi.s:89366  .debug_str:0000000000007bd0 .LASF4596
     /tmp/ccut0Zoi.s:103722  .debug_str:0000000000042574 .LASF4597
     /tmp/ccut0Zoi.s:87576  .debug_str:000000000000019e .LASF4598
     /tmp/ccut0Zoi.s:97622  .debug_str:000000000002974d .LASF4599
     /tmp/ccut0Zoi.s:92352  .debug_str:0000000000013c01 .LASF4600
     /tmp/ccut0Zoi.s:104552  .debug_str:0000000000045a85 .LASF4601
     /tmp/ccut0Zoi.s:98508  .debug_str:000000000002d0bd .LASF4602
     /tmp/ccut0Zoi.s:102166  .debug_str:000000000003bd8b .LASF4603
     /tmp/ccut0Zoi.s:101430  .debug_str:0000000000038b0b .LASF4604
     /tmp/ccut0Zoi.s:100502  .debug_str:000000000003556f .LASF4605
     /tmp/ccut0Zoi.s:95510  .debug_str:00000000000210ef .LASF4606
     /tmp/ccut0Zoi.s:104806  .debug_str:0000000000046bdc .LASF4607
     /tmp/ccut0Zoi.s:93974  .debug_str:000000000001a6ae .LASF4608
     /tmp/ccut0Zoi.s:106258  .debug_str:000000000004d0a1 .LASF4609
     /tmp/ccut0Zoi.s:99882  .debug_str:0000000000032c3b .LASF4610
     /tmp/ccut0Zoi.s:93254  .debug_str:0000000000017647 .LASF4611
     /tmp/ccut0Zoi.s:95544  .debug_str:00000000000212bc .LASF4612
     /tmp/ccut0Zoi.s:90102  .debug_str:000000000000ae56 .LASF4613
     /tmp/ccut0Zoi.s:103418  .debug_str:00000000000411ab .LASF4614
     /tmp/ccut0Zoi.s:100770  .debug_str:0000000000036529 .LASF4615
     /tmp/ccut0Zoi.s:104022  .debug_str:0000000000043869 .LASF4616
     /tmp/ccut0Zoi.s:99838  .debug_str:00000000000328e0 .LASF4617
     /tmp/ccut0Zoi.s:100880  .debug_str:0000000000036bb5 .LASF4618
     /tmp/ccut0Zoi.s:100198  .debug_str:00000000000341dd .LASF4619
     /tmp/ccut0Zoi.s:95174  .debug_str:000000000001fb47 .LASF4620
     /tmp/ccut0Zoi.s:99206  .debug_str:000000000002ff64 .LASF4621
     /tmp/ccut0Zoi.s:97756  .debug_str:0000000000029ffa .LASF4622
     /tmp/ccut0Zoi.s:94984  .debug_str:000000000001ed1c .LASF4623
     /tmp/ccut0Zoi.s:97274  .debug_str:00000000000280c4 .LASF4624
     /tmp/ccut0Zoi.s:91830  .debug_str:0000000000011a0a .LASF4625
     /tmp/ccut0Zoi.s:103852  .debug_str:0000000000042d4b .LASF4626
     /tmp/ccut0Zoi.s:91398  .debug_str:000000000000fdee .LASF4627
     /tmp/ccut0Zoi.s:94118  .debug_str:000000000001b114 .LASF4628
     /tmp/ccut0Zoi.s:103084  .debug_str:000000000003fabc .LASF4629
     /tmp/ccut0Zoi.s:101064  .debug_str:00000000000374ad .LASF4630
     /tmp/ccut0Zoi.s:106036  .debug_str:000000000004c188 .LASF4631
     /tmp/ccut0Zoi.s:98970  .debug_str:000000000002f0aa .LASF4632
     /tmp/ccut0Zoi.s:104010  .debug_str:000000000004376d .LASF4633
     /tmp/ccut0Zoi.s:90926  .debug_str:000000000000e3d6 .LASF4634
     /tmp/ccut0Zoi.s:93200  .debug_str:00000000000172d9 .LASF4635
     /tmp/ccut0Zoi.s:100342  .debug_str:0000000000034b8a .LASF4636
     /tmp/ccut0Zoi.s:97740  .debug_str:0000000000029ee5 .LASF4637
     /tmp/ccut0Zoi.s:98668  .debug_str:000000000002dc49 .LASF4638
     /tmp/ccut0Zoi.s:90736  .debug_str:000000000000d8ab .LASF4639
     /tmp/ccut0Zoi.s:99846  .debug_str:0000000000032961 .LASF4640
     /tmp/ccut0Zoi.s:89790  .debug_str:00000000000098ca .LASF4641
     /tmp/ccut0Zoi.s:104852  .debug_str:0000000000046f06 .LASF4642
     /tmp/ccut0Zoi.s:92800  .debug_str:00000000000157d1 .LASF4643
     /tmp/ccut0Zoi.s:94086  .debug_str:000000000001aea0 .LASF4644
     /tmp/ccut0Zoi.s:91992  .debug_str:00000000000124af .LASF4645
     /tmp/ccut0Zoi.s:91014  .debug_str:000000000000e7c0 .LASF4646
     /tmp/ccut0Zoi.s:87838  .debug_str:0000000000001373 .LASF4647
     /tmp/ccut0Zoi.s:94976  .debug_str:000000000001ec7d .LASF4648
     /tmp/ccut0Zoi.s:104842  .debug_str:0000000000046e6c .LASF4649
     /tmp/ccut0Zoi.s:94242  .debug_str:000000000001b9f7 .LASF4650
     /tmp/ccut0Zoi.s:99100  .debug_str:000000000002f8c6 .LASF4651
     /tmp/ccut0Zoi.s:93536  .debug_str:0000000000018807 .LASF4652
     /tmp/ccut0Zoi.s:96126  .debug_str:00000000000239ab .LASF4653
     /tmp/ccut0Zoi.s:104912  .debug_str:00000000000472c2 .LASF4654
     /tmp/ccut0Zoi.s:92820  .debug_str:0000000000015952 .LASF4655
     /tmp/ccut0Zoi.s:93326  .debug_str:0000000000017b1d .LASF4656
     /tmp/ccut0Zoi.s:90542  .debug_str:000000000000cca9 .LASF4657
     /tmp/ccut0Zoi.s:105672  .debug_str:000000000004a6e0 .LASF4658
     /tmp/ccut0Zoi.s:101872  .debug_str:000000000003a949 .LASF4659
     /tmp/ccut0Zoi.s:98024  .debug_str:000000000002b0f8 .LASF4660
     /tmp/ccut0Zoi.s:105868  .debug_str:000000000004b633 .LASF4661
     /tmp/ccut0Zoi.s:96560  .debug_str:000000000002509c .LASF4662
     /tmp/ccut0Zoi.s:103468  .debug_str:0000000000041500 .LASF4663
     /tmp/ccut0Zoi.s:103066  .debug_str:000000000003f963 .LASF4664
     /tmp/ccut0Zoi.s:104006  .debug_str:0000000000043704 .LASF4665
     /tmp/ccut0Zoi.s:101848  .debug_str:000000000003a7d9 .LASF4666
     /tmp/ccut0Zoi.s:92108  .debug_str:0000000000012d1d .LASF4667
     /tmp/ccut0Zoi.s:89818  .debug_str:0000000000009ad5 .LASF4668
     /tmp/ccut0Zoi.s:92860  .debug_str:0000000000015bbc .LASF4669
     /tmp/ccut0Zoi.s:91814  .debug_str:00000000000118f2 .LASF4670
     /tmp/ccut0Zoi.s:96920  .debug_str:0000000000026916 .LASF4671
     /tmp/ccut0Zoi.s:89810  .debug_str:0000000000009a55 .LASF4672
     /tmp/ccut0Zoi.s:88994  .debug_str:0000000000006348 .LASF4673
     /tmp/ccut0Zoi.s:105554  .debug_str:0000000000049f17 .LASF4674
     /tmp/ccut0Zoi.s:91264  .debug_str:000000000000f6ba .LASF4675
     /tmp/ccut0Zoi.s:95606  .debug_str:00000000000216fe .LASF4676
     /tmp/ccut0Zoi.s:98536  .debug_str:000000000002d2d0 .LASF4677
     /tmp/ccut0Zoi.s:97978  .debug_str:000000000002ae80 .LASF4678
     /tmp/ccut0Zoi.s:95608  .debug_str:000000000002172b .LASF4679
     /tmp/ccut0Zoi.s:94312  .debug_str:000000000001be84 .LASF4680
     /tmp/ccut0Zoi.s:89670  .debug_str:000000000000907c .LASF4681
     /tmp/ccut0Zoi.s:95926  .debug_str:0000000000022c0c .LASF4682
     /tmp/ccut0Zoi.s:87788  .debug_str:0000000000001005 .LASF4683
     /tmp/ccut0Zoi.s:95392  .debug_str:00000000000209cf .LASF4684
     /tmp/ccut0Zoi.s:92224  .debug_str:0000000000013446 .LASF4685
     /tmp/ccut0Zoi.s:94762  .debug_str:000000000001dd33 .LASF4686
     /tmp/ccut0Zoi.s:100310  .debug_str:0000000000034990 .LASF4687
     /tmp/ccut0Zoi.s:91190  .debug_str:000000000000f241 .LASF4688
     /tmp/ccut0Zoi.s:97084  .debug_str:0000000000027418 .LASF4689
     /tmp/ccut0Zoi.s:102848  .debug_str:000000000003ea6d .LASF4690
     /tmp/ccut0Zoi.s:101968  .debug_str:000000000003afc9 .LASF4691
     /tmp/ccut0Zoi.s:95752  .debug_str:00000000000220ac .LASF4692
     /tmp/ccut0Zoi.s:101768  .debug_str:000000000003a26e .LASF4693
     /tmp/ccut0Zoi.s:103926  .debug_str:00000000000431a2 .LASF4694
     /tmp/ccut0Zoi.s:95914  .debug_str:0000000000022b4d .LASF4695
     /tmp/ccut0Zoi.s:90616  .debug_str:000000000000d1b1 .LASF4696
     /tmp/ccut0Zoi.s:89138  .debug_str:0000000000006dd3 .LASF4697
     /tmp/ccut0Zoi.s:102250  .debug_str:000000000003c2df .LASF4698
     /tmp/ccut0Zoi.s:95826  .debug_str:00000000000225b2 .LASF4699
     /tmp/ccut0Zoi.s:87648  .debug_str:00000000000006d5 .LASF4700
     /tmp/ccut0Zoi.s:92426  .debug_str:0000000000014094 .LASF4701
     /tmp/ccut0Zoi.s:102948  .debug_str:000000000003f1e4 .LASF4702
     /tmp/ccut0Zoi.s:93334  .debug_str:0000000000017b90 .LASF4703
     /tmp/ccut0Zoi.s:88370  .debug_str:00000000000038c9 .LASF4704
     /tmp/ccut0Zoi.s:103696  .debug_str:00000000000423dd .LASF4705
     /tmp/ccut0Zoi.s:101302  .debug_str:0000000000038231 .LASF4706
     /tmp/ccut0Zoi.s:94818  .debug_str:000000000001e18d .LASF4707
     /tmp/ccut0Zoi.s:101822  .debug_str:000000000003a608 .LASF4708
     /tmp/ccut0Zoi.s:102012  .debug_str:000000000003b29c .LASF4709
     /tmp/ccut0Zoi.s:92144  .debug_str:0000000000012efe .LASF4710
     /tmp/ccut0Zoi.s:101696  .debug_str:0000000000039ce5 .LASF4711
     /tmp/ccut0Zoi.s:89354  .debug_str:0000000000007b32 .LASF4712
     /tmp/ccut0Zoi.s:100800  .debug_str:0000000000036742 .LASF4713
     /tmp/ccut0Zoi.s:98242  .debug_str:000000000002be71 .LASF4714
     /tmp/ccut0Zoi.s:89914  .debug_str:000000000000a14b .LASF4715
     /tmp/ccut0Zoi.s:91682  .debug_str:0000000000010f65 .LASF4716
     /tmp/ccut0Zoi.s:102702  .debug_str:000000000003df88 .LASF4717
     /tmp/ccut0Zoi.s:87822  .debug_str:0000000000001258 .LASF4718
     /tmp/ccut0Zoi.s:98740  .debug_str:000000000002e0b7 .LASF4719
     /tmp/ccut0Zoi.s:91504  .debug_str:000000000001041a .LASF4720
     /tmp/ccut0Zoi.s:89212  .debug_str:000000000000729f .LASF4721
     /tmp/ccut0Zoi.s:100068  .debug_str:0000000000033921 .LASF4722
     /tmp/ccut0Zoi.s:101654  .debug_str:00000000000399e9 .LASF4723
     /tmp/ccut0Zoi.s:89658  .debug_str:0000000000008ff8 .LASF4724
     /tmp/ccut0Zoi.s:96540  .debug_str:0000000000024f3a .LASF4725
     /tmp/ccut0Zoi.s:96700  .debug_str:0000000000025a44 .LASF4726
     /tmp/ccut0Zoi.s:98322  .debug_str:000000000002c3ef .LASF4727
     /tmp/ccut0Zoi.s:92056  .debug_str:00000000000129b6 .LASF4728
     /tmp/ccut0Zoi.s:96544  .debug_str:0000000000024f76 .LASF4729
     /tmp/ccut0Zoi.s:89254  .debug_str:000000000000754b .LASF4730
     /tmp/ccut0Zoi.s:106006  .debug_str:000000000004bfad .LASF4731
     /tmp/ccut0Zoi.s:90580  .debug_str:000000000000cf2e .LASF4732
     /tmp/ccut0Zoi.s:100808  .debug_str:00000000000367e0 .LASF4733
     /tmp/ccut0Zoi.s:94622  .debug_str:000000000001d3e6 .LASF4734
     /tmp/ccut0Zoi.s:103002  .debug_str:000000000003f509 .LASF4735
     /tmp/ccut0Zoi.s:95546  .debug_str:00000000000212f4 .LASF4736
     /tmp/ccut0Zoi.s:90436  .debug_str:000000000000c5b8 .LASF4737
     /tmp/ccut0Zoi.s:88320  .debug_str:0000000000003507 .LASF4738
     /tmp/ccut0Zoi.s:102072  .debug_str:000000000003b6ab .LASF4739
     /tmp/ccut0Zoi.s:92096  .debug_str:0000000000012c73 .LASF4740
     /tmp/ccut0Zoi.s:96822  .debug_str:000000000002623b .LASF4741
     /tmp/ccut0Zoi.s:101438  .debug_str:0000000000038ba1 .LASF4742
     /tmp/ccut0Zoi.s:90402  .debug_str:000000000000c331 .LASF4743
     /tmp/ccut0Zoi.s:93320  .debug_str:0000000000017ab2 .LASF4744
     /tmp/ccut0Zoi.s:99768  .debug_str:00000000000324bf .LASF4745
     /tmp/ccut0Zoi.s:98034  .debug_str:000000000002b1af .LASF4746
     /tmp/ccut0Zoi.s:93226  .debug_str:0000000000017472 .LASF4747
     /tmp/ccut0Zoi.s:97136  .debug_str:0000000000027780 .LASF4748
     /tmp/ccut0Zoi.s:104958  .debug_str:000000000004758d .LASF4749
     /tmp/ccut0Zoi.s:94280  .debug_str:000000000001bc79 .LASF4750
     /tmp/ccut0Zoi.s:93934  .debug_str:000000000001a416 .LASF4751
     /tmp/ccut0Zoi.s:101980  .debug_str:000000000003b065 .LASF4752
     /tmp/ccut0Zoi.s:96678  .debug_str:00000000000258ed .LASF4753
     /tmp/ccut0Zoi.s:105148  .debug_str:000000000004829d .LASF4754
     /tmp/ccut0Zoi.s:94438  .debug_str:000000000001c6d9 .LASF4755
     /tmp/ccut0Zoi.s:96032  .debug_str:00000000000233f7 .LASF4756
     /tmp/ccut0Zoi.s:100720  .debug_str:0000000000036295 .LASF4757
     /tmp/ccut0Zoi.s:93540  .debug_str:0000000000018876 .LASF4758
     /tmp/ccut0Zoi.s:92072  .debug_str:0000000000012a8b .LASF4759
     /tmp/ccut0Zoi.s:96314  .debug_str:000000000002436c .LASF4760
     /tmp/ccut0Zoi.s:87834  .debug_str:0000000000001323 .LASF4761
     /tmp/ccut0Zoi.s:103056  .debug_str:000000000003f8ab .LASF4762
     /tmp/ccut0Zoi.s:101918  .debug_str:000000000003ac7f .LASF4763
     /tmp/ccut0Zoi.s:93590  .debug_str:0000000000018bce .LASF4764
     /tmp/ccut0Zoi.s:94278  .debug_str:000000000001bc4c .LASF4765
     /tmp/ccut0Zoi.s:96782  .debug_str:0000000000025f46 .LASF4766
     /tmp/ccut0Zoi.s:100452  .debug_str:000000000003529b .LASF4767
     /tmp/ccut0Zoi.s:87666  .debug_str:00000000000007ee .LASF4768
     /tmp/ccut0Zoi.s:95152  .debug_str:000000000001f9f4 .LASF4769
     /tmp/ccut0Zoi.s:91388  .debug_str:000000000000fd20 .LASF4770
     /tmp/ccut0Zoi.s:103544  .debug_str:0000000000041995 .LASF4771
     /tmp/ccut0Zoi.s:91822  .debug_str:0000000000011972 .LASF4772
     /tmp/ccut0Zoi.s:100006  .debug_str:000000000003347c .LASF4773
     /tmp/ccut0Zoi.s:93964  .debug_str:000000000001a61d .LASF4774
     /tmp/ccut0Zoi.s:96000  .debug_str:00000000000231b4 .LASF4775
     /tmp/ccut0Zoi.s:102788  .debug_str:000000000003e61d .LASF4776
     /tmp/ccut0Zoi.s:87738  .debug_str:0000000000000c8a .LASF4777
     /tmp/ccut0Zoi.s:93702  .debug_str:0000000000019372 .LASF4778
     /tmp/ccut0Zoi.s:95600  .debug_str:000000000002166c .LASF4779
     /tmp/ccut0Zoi.s:92876  .debug_str:0000000000015cc1 .LASF4780
     /tmp/ccut0Zoi.s:100520  .debug_str:000000000003566e .LASF4781
     /tmp/ccut0Zoi.s:105128  .debug_str:0000000000048160 .LASF4782
     /tmp/ccut0Zoi.s:100396  .debug_str:0000000000034eb4 .LASF4783
     /tmp/ccut0Zoi.s:94314  .debug_str:000000000001beac .LASF4784
     /tmp/ccut0Zoi.s:94566  .debug_str:000000000001d002 .LASF4785
     /tmp/ccut0Zoi.s:96662  .debug_str:00000000000257f4 .LASF4786
     /tmp/ccut0Zoi.s:102256  .debug_str:000000000003c346 .LASF4787
     /tmp/ccut0Zoi.s:88778  .debug_str:000000000000555b .LASF4788
     /tmp/ccut0Zoi.s:101258  .debug_str:0000000000037eb0 .LASF4789
     /tmp/ccut0Zoi.s:99704  .debug_str:000000000003208b .LASF4790
     /tmp/ccut0Zoi.s:100692  .debug_str:00000000000360d5 .LASF4791
     /tmp/ccut0Zoi.s:104348  .debug_str:0000000000044cba .LASF4792
     /tmp/ccut0Zoi.s:94670  .debug_str:000000000001d762 .LASF4793
     /tmp/ccut0Zoi.s:102098  .debug_str:000000000003b878 .LASF4794
     /tmp/ccut0Zoi.s:97260  .debug_str:0000000000027f6f .LASF4795
     /tmp/ccut0Zoi.s:90608  .debug_str:000000000000d11e .LASF4796
     /tmp/ccut0Zoi.s:91402  .debug_str:000000000000fe27 .LASF4797
     /tmp/ccut0Zoi.s:104052  .debug_str:00000000000439e2 .LASF4798
     /tmp/ccut0Zoi.s:88162  .debug_str:0000000000002a9f .LASF4799
     /tmp/ccut0Zoi.s:98394  .debug_str:000000000002c931 .LASF4800
     /tmp/ccut0Zoi.s:95780  .debug_str:0000000000022259 .LASF4801
     /tmp/ccut0Zoi.s:97734  .debug_str:0000000000029e83 .LASF4802
     /tmp/ccut0Zoi.s:88336  .debug_str:000000000000361a .LASF4803
     /tmp/ccut0Zoi.s:89874  .debug_str:0000000000009e2a .LASF4804
     /tmp/ccut0Zoi.s:101374  .debug_str:00000000000386e4 .LASF4805
     /tmp/ccut0Zoi.s:89130  .debug_str:0000000000006d32 .LASF4806
     /tmp/ccut0Zoi.s:90006  .debug_str:000000000000a756 .LASF4807
     /tmp/ccut0Zoi.s:104740  .debug_str:0000000000046792 .LASF4808
     /tmp/ccut0Zoi.s:105356  .debug_str:000000000004914b .LASF4809
     /tmp/ccut0Zoi.s:106242  .debug_str:000000000004cf8a .LASF4810
     /tmp/ccut0Zoi.s:103400  .debug_str:00000000000410a0 .LASF4811
     /tmp/ccut0Zoi.s:89738  .debug_str:00000000000095d5 .LASF4812
     /tmp/ccut0Zoi.s:99778  .debug_str:0000000000032548 .LASF4813
     /tmp/ccut0Zoi.s:101426  .debug_str:0000000000038ac4 .LASF4814
     /tmp/ccut0Zoi.s:104964  .debug_str:0000000000047605 .LASF4815
     /tmp/ccut0Zoi.s:91438  .debug_str:0000000000010049 .LASF4816
     /tmp/ccut0Zoi.s:88458  .debug_str:0000000000003edb .LASF4817
     /tmp/ccut0Zoi.s:101260  .debug_str:0000000000037ee4 .LASF4818
     /tmp/ccut0Zoi.s:99982  .debug_str:00000000000332c3 .LASF4819
     /tmp/ccut0Zoi.s:99286  .debug_str:0000000000030456 .LASF4820
     /tmp/ccut0Zoi.s:98716  .debug_str:000000000002df47 .LASF4821
     /tmp/ccut0Zoi.s:90744  .debug_str:000000000000d922 .LASF4822
     /tmp/ccut0Zoi.s:94874  .debug_str:000000000001e594 .LASF4823
     /tmp/ccut0Zoi.s:97194  .debug_str:0000000000027bf9 .LASF4824
     /tmp/ccut0Zoi.s:104838  .debug_str:0000000000046e2f .LASF4825
     /tmp/ccut0Zoi.s:103924  .debug_str:000000000004317e .LASF4826
     /tmp/ccut0Zoi.s:100618  .debug_str:0000000000035c62 .LASF4827
     /tmp/ccut0Zoi.s:104580  .debug_str:0000000000045c39 .LASF4828
     /tmp/ccut0Zoi.s:93342  .debug_str:0000000000017c4f .LASF4829
     /tmp/ccut0Zoi.s:105050  .debug_str:0000000000047b71 .LASF4830
     /tmp/ccut0Zoi.s:87930  .debug_str:00000000000019dd .LASF4831
     /tmp/ccut0Zoi.s:92298  .debug_str:00000000000138a3 .LASF4832
     /tmp/ccut0Zoi.s:103242  .debug_str:00000000000404d0 .LASF4833
     /tmp/ccut0Zoi.s:88672  .debug_str:0000000000004ddb .LASF4834
     /tmp/ccut0Zoi.s:95784  .debug_str:00000000000222ae .LASF4835
     /tmp/ccut0Zoi.s:100942  .debug_str:0000000000036e45 .LASF4836
     /tmp/ccut0Zoi.s:99540  .debug_str:0000000000031641 .LASF4837
     /tmp/ccut0Zoi.s:105338  .debug_str:000000000004901a .LASF4838
     /tmp/ccut0Zoi.s:95918  .debug_str:0000000000022b9a .LASF4839
     /tmp/ccut0Zoi.s:93152  .debug_str:000000000001701c .LASF4840
     /tmp/ccut0Zoi.s:104590  .debug_str:0000000000045d15 .LASF4841
     /tmp/ccut0Zoi.s:94768  .debug_str:000000000001ddbb .LASF4842
     /tmp/ccut0Zoi.s:89594  .debug_str:0000000000008b7f .LASF4843
     /tmp/ccut0Zoi.s:102790  .debug_str:000000000003e651 .LASF4844
     /tmp/ccut0Zoi.s:97746  .debug_str:0000000000029f4b .LASF4845
     /tmp/ccut0Zoi.s:95696  .debug_str:0000000000021d1a .LASF4846
     /tmp/ccut0Zoi.s:88696  .debug_str:0000000000004f03 .LASF4847
     /tmp/ccut0Zoi.s:88490  .debug_str:0000000000004186 .LASF4848
     /tmp/ccut0Zoi.s:99536  .debug_str:0000000000031611 .LASF4849
     /tmp/ccut0Zoi.s:94298  .debug_str:000000000001bdb6 .LASF4850
     /tmp/ccut0Zoi.s:106110  .debug_str:000000000004c64e .LASF4851
     /tmp/ccut0Zoi.s:89282  .debug_str:000000000000771a .LASF4852
     /tmp/ccut0Zoi.s:104404  .debug_str:0000000000045128 .LASF4853
     /tmp/ccut0Zoi.s:100204  .debug_str:0000000000034234 .LASF4854
     /tmp/ccut0Zoi.s:95482  .debug_str:0000000000020eaf .LASF4855
     /tmp/ccut0Zoi.s:102034  .debug_str:000000000003b445 .LASF4856
     /tmp/ccut0Zoi.s:104020  .debug_str:000000000004383c .LASF4857
     /tmp/ccut0Zoi.s:94482  .debug_str:000000000001c9ae .LASF4858
     /tmp/ccut0Zoi.s:104634  .debug_str:0000000000045fc4 .LASF4859
     /tmp/ccut0Zoi.s:106246  .debug_str:000000000004cffd .LASF4860
     /tmp/ccut0Zoi.s:87890  .debug_str:00000000000016f7 .LASF4861
     /tmp/ccut0Zoi.s:105536  .debug_str:0000000000049ddc .LASF4862
     /tmp/ccut0Zoi.s:93900  .debug_str:000000000001a205 .LASF4863
     /tmp/ccut0Zoi.s:104458  .debug_str:00000000000454b1 .LASF4864
     /tmp/ccut0Zoi.s:98062  .debug_str:000000000002b3bf .LASF4865
     /tmp/ccut0Zoi.s:90704  .debug_str:000000000000d66b .LASF4866
     /tmp/ccut0Zoi.s:89794  .debug_str:000000000000990f .LASF4867
     /tmp/ccut0Zoi.s:95386  .debug_str:0000000000020947 .LASF4868
     /tmp/ccut0Zoi.s:101584  .debug_str:0000000000039539 .LASF4869
     /tmp/ccut0Zoi.s:100262  .debug_str:0000000000034638 .LASF4870
     /tmp/ccut0Zoi.s:94538  .debug_str:000000000001cdd9 .LASF4871
     /tmp/ccut0Zoi.s:100374  .debug_str:0000000000034dbf .LASF4872
     /tmp/ccut0Zoi.s:92786  .debug_str:0000000000015743 .LASF4873
     /tmp/ccut0Zoi.s:98214  .debug_str:000000000002bc8d .LASF4874
     /tmp/ccut0Zoi.s:98548  .debug_str:000000000002d3b2 .LASF4875
     /tmp/ccut0Zoi.s:98992  .debug_str:000000000002f1f6 .LASF4876
     /tmp/ccut0Zoi.s:97696  .debug_str:0000000000029b75 .LASF4877
     /tmp/ccut0Zoi.s:102366  .debug_str:000000000003c9f6 .LASF4878
     /tmp/ccut0Zoi.s:88716  .debug_str:000000000000503b .LASF4879
     /tmp/ccut0Zoi.s:91556  .debug_str:0000000000010727 .LASF4880
     /tmp/ccut0Zoi.s:90720  .debug_str:000000000000d74d .LASF4881
     /tmp/ccut0Zoi.s:92032  .debug_str:0000000000012758 .LASF4882
     /tmp/ccut0Zoi.s:89506  .debug_str:00000000000085ac .LASF4883
     /tmp/ccut0Zoi.s:103120  .debug_str:000000000003fd55 .LASF4884
     /tmp/ccut0Zoi.s:87948  .debug_str:0000000000001b4c .LASF4885
     /tmp/ccut0Zoi.s:91746  .debug_str:00000000000113d2 .LASF4886
     /tmp/ccut0Zoi.s:97416  .debug_str:0000000000028a01 .LASF4887
     /tmp/ccut0Zoi.s:95504  .debug_str:000000000002106d .LASF4888
     /tmp/ccut0Zoi.s:96504  .debug_str:0000000000024cfb .LASF4889
     /tmp/ccut0Zoi.s:99464  .debug_str:0000000000031146 .LASF4890
     /tmp/ccut0Zoi.s:93724  .debug_str:000000000001950c .LASF4891
     /tmp/ccut0Zoi.s:104406  .debug_str:0000000000045150 .LASF4892
     /tmp/ccut0Zoi.s:104836  .debug_str:0000000000046e0b .LASF4893
     /tmp/ccut0Zoi.s:99782  .debug_str:00000000000325a4 .LASF4894
     /tmp/ccut0Zoi.s:98646  .debug_str:000000000002daa2 .LASF4895
     /tmp/ccut0Zoi.s:98884  .debug_str:000000000002ea55 .LASF4896
     /tmp/ccut0Zoi.s:90874  .debug_str:000000000000e0e9 .LASF4897
     /tmp/ccut0Zoi.s:105108  .debug_str:0000000000047f7b .LASF4898
     /tmp/ccut0Zoi.s:94828  .debug_str:000000000001e24b .LASF4899
     /tmp/ccut0Zoi.s:96978  .debug_str:0000000000026c76 .LASF4900
     /tmp/ccut0Zoi.s:100362  .debug_str:0000000000034d04 .LASF4901
     /tmp/ccut0Zoi.s:96552  .debug_str:0000000000025012 .LASF4902
     /tmp/ccut0Zoi.s:90348  .debug_str:000000000000bf48 .LASF4903
     /tmp/ccut0Zoi.s:99554  .debug_str:0000000000031725 .LASF4904
     /tmp/ccut0Zoi.s:99354  .debug_str:00000000000309b6 .LASF4905
     /tmp/ccut0Zoi.s:94126  .debug_str:000000000001b1df .LASF4906
     /tmp/ccut0Zoi.s:95796  .debug_str:00000000000223b9 .LASF4907
     /tmp/ccut0Zoi.s:105124  .debug_str:000000000004810c .LASF4908
     /tmp/ccut0Zoi.s:102246  .debug_str:000000000003c292 .LASF4909
     /tmp/ccut0Zoi.s:96922  .debug_str:0000000000026946 .LASF4910
     /tmp/ccut0Zoi.s:105780  .debug_str:000000000004b00b .LASF4911
     /tmp/ccut0Zoi.s:102172  .debug_str:000000000003bdff .LASF4912
     /tmp/ccut0Zoi.s:88856  .debug_str:0000000000005a54 .LASF4913
     /tmp/ccut0Zoi.s:92722  .debug_str:0000000000015391 .LASF4914
     /tmp/ccut0Zoi.s:97750  .debug_str:0000000000029fac .LASF4915
     /tmp/ccut0Zoi.s:88688  .debug_str:0000000000004e8d .LASF4916
     /tmp/ccut0Zoi.s:95374  .debug_str:0000000000020867 .LASF4917
     /tmp/ccut0Zoi.s:93542  .debug_str:00000000000188a7 .LASF4918
     /tmp/ccut0Zoi.s:91810  .debug_str:00000000000118a2 .LASF4919
     /tmp/ccut0Zoi.s:95970  .debug_str:0000000000022f66 .LASF4920
     /tmp/ccut0Zoi.s:98268  .debug_str:000000000002c008 .LASF4921
     /tmp/ccut0Zoi.s:105120  .debug_str:000000000004809a .LASF4922
     /tmp/ccut0Zoi.s:103122  .debug_str:000000000003fd7b .LASF4923
     /tmp/ccut0Zoi.s:89958  .debug_str:000000000000a42d .LASF4924
     /tmp/ccut0Zoi.s:97316  .debug_str:0000000000028350 .LASF4925
     /tmp/ccut0Zoi.s:104952  .debug_str:0000000000047537 .LASF4926
     /tmp/ccut0Zoi.s:95560  .debug_str:00000000000213e0 .LASF4927
     /tmp/ccut0Zoi.s:92880  .debug_str:0000000000015d10 .LASF4928
     /tmp/ccut0Zoi.s:91938  .debug_str:0000000000012116 .LASF4929
     /tmp/ccut0Zoi.s:101150  .debug_str:000000000003795d .LASF4930
     /tmp/ccut0Zoi.s:103802  .debug_str:0000000000042a56 .LASF4931
     /tmp/ccut0Zoi.s:89094  .debug_str:0000000000006ae0 .LASF4932
     /tmp/ccut0Zoi.s:101624  .debug_str:0000000000039787 .LASF4933
     /tmp/ccut0Zoi.s:104168  .debug_str:0000000000044118 .LASF4934
     /tmp/ccut0Zoi.s:99926  .debug_str:0000000000032ede .LASF4935
     /tmp/ccut0Zoi.s:92208  .debug_str:00000000000132f9 .LASF4936
     /tmp/ccut0Zoi.s:89734  .debug_str:0000000000009592 .LASF4937
     /tmp/ccut0Zoi.s:104166  .debug_str:00000000000440f1 .LASF4938
     /tmp/ccut0Zoi.s:102674  .debug_str:000000000003de0a .LASF4939
     /tmp/ccut0Zoi.s:102498  .debug_str:000000000003d2b6 .LASF4940
     /tmp/ccut0Zoi.s:89788  .debug_str:000000000000989d .LASF4941
     /tmp/ccut0Zoi.s:98732  .debug_str:000000000002e02a .LASF4942
     /tmp/ccut0Zoi.s:102168  .debug_str:000000000003bdc1 .LASF4943
     /tmp/ccut0Zoi.s:92262  .debug_str:000000000001365e .LASF4944
     /tmp/ccut0Zoi.s:101066  .debug_str:00000000000374d4 .LASF4945
     /tmp/ccut0Zoi.s:91604  .debug_str:0000000000010ad8 .LASF4946
     /tmp/ccut0Zoi.s:96020  .debug_str:0000000000023325 .LASF4947
     /tmp/ccut0Zoi.s:105840  .debug_str:000000000004b41f .LASF4948
     /tmp/ccut0Zoi.s:104164  .debug_str:00000000000440c3 .LASF4949
     /tmp/ccut0Zoi.s:89426  .debug_str:0000000000008043 .LASF4950
     /tmp/ccut0Zoi.s:90392  .debug_str:000000000000c25f .LASF4951
     /tmp/ccut0Zoi.s:90256  .debug_str:000000000000b977 .LASF4952
     /tmp/ccut0Zoi.s:89766  .debug_str:000000000000979b .LASF4953
     /tmp/ccut0Zoi.s:96284  .debug_str:00000000000241d3 .LASF4954
     /tmp/ccut0Zoi.s:95380  .debug_str:00000000000208f1 .LASF4955
     /tmp/ccut0Zoi.s:91790  .debug_str:00000000000116fd .LASF4956
     /tmp/ccut0Zoi.s:101368  .debug_str:0000000000038684 .LASF4957
     /tmp/ccut0Zoi.s:99616  .debug_str:0000000000031b68 .LASF4958
     /tmp/ccut0Zoi.s:101484  .debug_str:0000000000038e63 .LASF4959
     /tmp/ccut0Zoi.s:105768  .debug_str:000000000004af32 .LASF4960
     /tmp/ccut0Zoi.s:99028  .debug_str:000000000002f451 .LASF4961
     /tmp/ccut0Zoi.s:90100  .debug_str:000000000000ae26 .LASF4962
     /tmp/ccut0Zoi.s:96508  .debug_str:0000000000024d45 .LASF4963
     /tmp/ccut0Zoi.s:103656  .debug_str:0000000000042138 .LASF4964
     /tmp/ccut0Zoi.s:105144  .debug_str:0000000000048264 .LASF4965
     /tmp/ccut0Zoi.s:95000  .debug_str:000000000001eea6 .LASF4966
     /tmp/ccut0Zoi.s:103032  .debug_str:000000000003f6f9 .LASF4967
     /tmp/ccut0Zoi.s:93256  .debug_str:000000000001767f .LASF4968
     /tmp/ccut0Zoi.s:98060  .debug_str:000000000002b38c .LASF4969
     /tmp/ccut0Zoi.s:98328  .debug_str:000000000002c443 .LASF4970
     /tmp/ccut0Zoi.s:89104  .debug_str:0000000000006ba1 .LASF4971
     /tmp/ccut0Zoi.s:95404  .debug_str:0000000000020a90 .LASF4972
     /tmp/ccut0Zoi.s:100156  .debug_str:0000000000033f4e .LASF4973
     /tmp/ccut0Zoi.s:91924  .debug_str:0000000000012017 .LASF4974
     /tmp/ccut0Zoi.s:101034  .debug_str:0000000000037318 .LASF4975
     /tmp/ccut0Zoi.s:96360  .debug_str:0000000000024518 .LASF4976
     /tmp/ccut0Zoi.s:101690  .debug_str:0000000000039c8d .LASF4977
     /tmp/ccut0Zoi.s:97372  .debug_str:00000000000286fb .LASF4978
     /tmp/ccut0Zoi.s:99094  .debug_str:000000000002f843 .LASF4979
     /tmp/ccut0Zoi.s:89712  .debug_str:00000000000093b7 .LASF4980
     /tmp/ccut0Zoi.s:91958  .debug_str:000000000001226a .LASF4981
     /tmp/ccut0Zoi.s:97848  .debug_str:000000000002a57f .LASF4982
     /tmp/ccut0Zoi.s:103748  .debug_str:0000000000042712 .LASF4983
     /tmp/ccut0Zoi.s:90708  .debug_str:000000000000d6a2 .LASF4984
     /tmp/ccut0Zoi.s:96640  .debug_str:000000000002562a .LASF4985
     /tmp/ccut0Zoi.s:87816  .debug_str:00000000000011f8 .LASF4986
     /tmp/ccut0Zoi.s:89418  .debug_str:0000000000007fbf .LASF4987
     /tmp/ccut0Zoi.s:91040  .debug_str:000000000000e9b8 .LASF4988
     /tmp/ccut0Zoi.s:89386  .debug_str:0000000000007d4d .LASF4989
     /tmp/ccut0Zoi.s:92024  .debug_str:00000000000126cc .LASF4990
     /tmp/ccut0Zoi.s:94162  .debug_str:000000000001b3f2 .LASF4991
     /tmp/ccut0Zoi.s:95020  .debug_str:000000000001f02f .LASF4992
     /tmp/ccut0Zoi.s:88364  .debug_str:000000000000383f .LASF4993
     /tmp/ccut0Zoi.s:99836  .debug_str:00000000000328aa .LASF4994
     /tmp/ccut0Zoi.s:104516  .debug_str:0000000000045845 .LASF4995
     /tmp/ccut0Zoi.s:105816  .debug_str:000000000004b23a .LASF4996
     /tmp/ccut0Zoi.s:105386  .debug_str:0000000000049341 .LASF4997
     /tmp/ccut0Zoi.s:88474  .debug_str:0000000000004003 .LASF4998
     /tmp/ccut0Zoi.s:89010  .debug_str:000000000000645f .LASF4999
     /tmp/ccut0Zoi.s:101952  .debug_str:000000000003aef3 .LASF5000
     /tmp/ccut0Zoi.s:100734  .debug_str:00000000000363f1 .LASF5001
     /tmp/ccut0Zoi.s:97440  .debug_str:0000000000028bb9 .LASF5002
     /tmp/ccut0Zoi.s:96176  .debug_str:0000000000023c2e .LASF5003
     /tmp/ccut0Zoi.s:88302  .debug_str:00000000000033f4 .LASF5004
     /tmp/ccut0Zoi.s:92044  .debug_str:0000000000012874 .LASF5005
     /tmp/ccut0Zoi.s:98144  .debug_str:000000000002b87a .LASF5006
     /tmp/ccut0Zoi.s:96310  .debug_str:000000000002432b .LASF5007
     /tmp/ccut0Zoi.s:92914  .debug_str:0000000000015f90 .LASF5008
     /tmp/ccut0Zoi.s:92838  .debug_str:0000000000015ab2 .LASF5009
     /tmp/ccut0Zoi.s:93948  .debug_str:000000000001a4f5 .LASF5010
     /tmp/ccut0Zoi.s:98054  .debug_str:000000000002b2f5 .LASF5011
     /tmp/ccut0Zoi.s:96912  .debug_str:000000000002686b .LASF5012
     /tmp/ccut0Zoi.s:92174  .debug_str:00000000000130d2 .LASF5013
     /tmp/ccut0Zoi.s:99936  .debug_str:0000000000032f5b .LASF5014
     /tmp/ccut0Zoi.s:101026  .debug_str:0000000000037291 .LASF5015
     /tmp/ccut0Zoi.s:96124  .debug_str:000000000002397b .LASF5016
     /tmp/ccut0Zoi.s:101996  .debug_str:000000000003b15b .LASF5017
     /tmp/ccut0Zoi.s:89004  .debug_str:000000000000640f .LASF5018
     /tmp/ccut0Zoi.s:100796  .debug_str:00000000000366f6 .LASF5019
     /tmp/ccut0Zoi.s:88738  .debug_str:00000000000051e8 .LASF5020
     /tmp/ccut0Zoi.s:94586  .debug_str:000000000001d13d .LASF5021
     /tmp/ccut0Zoi.s:104472  .debug_str:0000000000045594 .LASF5022
     /tmp/ccut0Zoi.s:102016  .debug_str:000000000003b2e3 .LASF5023
     /tmp/ccut0Zoi.s:94206  .debug_str:000000000001b700 .LASF5024
     /tmp/ccut0Zoi.s:97064  .debug_str:00000000000272b7 .LASF5025
     /tmp/ccut0Zoi.s:100450  .debug_str:0000000000035262 .LASF5026
     /tmp/ccut0Zoi.s:104414  .debug_str:00000000000451e2 .LASF5027
     /tmp/ccut0Zoi.s:90142  .debug_str:000000000000b175 .LASF5028
     /tmp/ccut0Zoi.s:98816  .debug_str:000000000002e609 .LASF5029
     /tmp/ccut0Zoi.s:87754  .debug_str:0000000000000dac .LASF5030
     /tmp/ccut0Zoi.s:105376  .debug_str:0000000000049296 .LASF5031
     /tmp/ccut0Zoi.s:91508  .debug_str:000000000001045c .LASF5032
     /tmp/ccut0Zoi.s:90224  .debug_str:000000000000b745 .LASF5033
     /tmp/ccut0Zoi.s:96786  .debug_str:0000000000025f79 .LASF5034
     /tmp/ccut0Zoi.s:93114  .debug_str:0000000000016d28 .LASF5035
     /tmp/ccut0Zoi.s:88606  .debug_str:0000000000004902 .LASF5036
     /tmp/ccut0Zoi.s:88592  .debug_str:0000000000004832 .LASF5037
     /tmp/ccut0Zoi.s:94302  .debug_str:000000000001bde9 .LASF5038
     /tmp/ccut0Zoi.s:89184  .debug_str:00000000000070a4 .LASF5039
     /tmp/ccut0Zoi.s:103936  .debug_str:0000000000043251 .LASF5040
     /tmp/ccut0Zoi.s:94816  .debug_str:000000000001e154 .LASF5041
     /tmp/ccut0Zoi.s:92570  .debug_str:0000000000014946 .LASF5042
     /tmp/ccut0Zoi.s:97290  .debug_str:00000000000281e7 .LASF5043
     /tmp/ccut0Zoi.s:93118  .debug_str:0000000000016d89 .LASF5044
     /tmp/ccut0Zoi.s:101338  .debug_str:0000000000038472 .LASF5045
     /tmp/ccut0Zoi.s:104986  .debug_str:0000000000047760 .LASF5046
     /tmp/ccut0Zoi.s:103534  .debug_str:00000000000418fc .LASF5047
     /tmp/ccut0Zoi.s:96800  .debug_str:000000000002603c .LASF5048
     /tmp/ccut0Zoi.s:94214  .debug_str:000000000001b782 .LASF5049
     /tmp/ccut0Zoi.s:100060  .debug_str:0000000000033859 .LASF5050
     /tmp/ccut0Zoi.s:104690  .debug_str:00000000000463d6 .LASF5051
     /tmp/ccut0Zoi.s:105504  .debug_str:0000000000049b21 .LASF5052
     /tmp/ccut0Zoi.s:94982  .debug_str:000000000001ece7 .LASF5053
     /tmp/ccut0Zoi.s:100820  .debug_str:000000000003688c .LASF5054
     /tmp/ccut0Zoi.s:95912  .debug_str:0000000000022b20 .LASF5055
     /tmp/ccut0Zoi.s:94494  .debug_str:000000000001caaa .LASF5056
     /tmp/ccut0Zoi.s:105174  .debug_str:000000000004847f .LASF5057
     /tmp/ccut0Zoi.s:105836  .debug_str:000000000004b3df .LASF5058
     /tmp/ccut0Zoi.s:105786  .debug_str:000000000004b05d .LASF5059
     /tmp/ccut0Zoi.s:101618  .debug_str:00000000000396f4 .LASF5060
     /tmp/ccut0Zoi.s:96994  .debug_str:0000000000026d82 .LASF5061
     /tmp/ccut0Zoi.s:97432  .debug_str:0000000000028adf .LASF5062
     /tmp/ccut0Zoi.s:105714  .debug_str:000000000004aaab .LASF5063
     /tmp/ccut0Zoi.s:94334  .debug_str:000000000001bfff .LASF5064
     /tmp/ccut0Zoi.s:103570  .debug_str:0000000000041ba9 .LASF5065
     /tmp/ccut0Zoi.s:96090  .debug_str:000000000002366f .LASF5066
     /tmp/ccut0Zoi.s:99962  .debug_str:0000000000033133 .LASF5067
     /tmp/ccut0Zoi.s:97758  .debug_str:000000000002a021 .LASF5068
     /tmp/ccut0Zoi.s:93514  .debug_str:0000000000018687 .LASF5069
     /tmp/ccut0Zoi.s:98430  .debug_str:000000000002cb5a .LASF5070
     /tmp/ccut0Zoi.s:95700  .debug_str:0000000000021d59 .LASF5071
     /tmp/ccut0Zoi.s:102522  .debug_str:000000000003d4bb .LASF5072
     /tmp/ccut0Zoi.s:102050  .debug_str:000000000003b549 .LASF5073
     /tmp/ccut0Zoi.s:91514  .debug_str:0000000000010502 .LASF5074
     /tmp/ccut0Zoi.s:90172  .debug_str:000000000000b3a1 .LASF5075
     /tmp/ccut0Zoi.s:101764  .debug_str:000000000003a234 .LASF5076
     /tmp/ccut0Zoi.s:92266  .debug_str:00000000000136d4 .LASF5077
     /tmp/ccut0Zoi.s:98954  .debug_str:000000000002ef79 .LASF5078
     /tmp/ccut0Zoi.s:97562  .debug_str:0000000000029343 .LASF5079
     /tmp/ccut0Zoi.s:102096  .debug_str:000000000003b856 .LASF5080
     /tmp/ccut0Zoi.s:100436  .debug_str:000000000003516f .LASF5081
     /tmp/ccut0Zoi.s:100602  .debug_str:0000000000035b49 .LASF5082
     /tmp/ccut0Zoi.s:97886  .debug_str:000000000002a837 .LASF5083
     /tmp/ccut0Zoi.s:103566  .debug_str:0000000000041b61 .LASF5084
     /tmp/ccut0Zoi.s:104236  .debug_str:00000000000445c5 .LASF5085
     /tmp/ccut0Zoi.s:99478  .debug_str:000000000003126b .LASF5086
     /tmp/ccut0Zoi.s:91108  .debug_str:000000000000ed20 .LASF5087
     /tmp/ccut0Zoi.s:102962  .debug_str:000000000003f290 .LASF5088
     /tmp/ccut0Zoi.s:105494  .debug_str:0000000000049a6d .LASF5089
     /tmp/ccut0Zoi.s:96592  .debug_str:000000000002530b .LASF5090
     /tmp/ccut0Zoi.s:93478  .debug_str:0000000000018468 .LASF5091
     /tmp/ccut0Zoi.s:101122  .debug_str:00000000000377a2 .LASF5092
     /tmp/ccut0Zoi.s:105448  .debug_str:000000000004973c .LASF5093
     /tmp/ccut0Zoi.s:98246  .debug_str:000000000002beb5 .LASF5094
     /tmp/ccut0Zoi.s:90980  .debug_str:000000000000e5eb .LASF5095
     /tmp/ccut0Zoi.s:97046  .debug_str:000000000002715e .LASF5096
     /tmp/ccut0Zoi.s:105882  .debug_str:000000000004b74d .LASF5097
     /tmp/ccut0Zoi.s:89266  .debug_str:00000000000075fc .LASF5098
     /tmp/ccut0Zoi.s:99244  .debug_str:00000000000301be .LASF5099
     /tmp/ccut0Zoi.s:88424  .debug_str:0000000000003c38 .LASF5100
     /tmp/ccut0Zoi.s:103612  .debug_str:0000000000041e0f .LASF5101
     /tmp/ccut0Zoi.s:103258  .debug_str:000000000004060a .LASF5102
     /tmp/ccut0Zoi.s:103452  .debug_str:00000000000413a5 .LASF5103
     /tmp/ccut0Zoi.s:102732  .debug_str:000000000003e1c3 .LASF5104
     /tmp/ccut0Zoi.s:89690  .debug_str:00000000000091df .LASF5105
     /tmp/ccut0Zoi.s:105512  .debug_str:0000000000049bc9 .LASF5106
     /tmp/ccut0Zoi.s:94124  .debug_str:000000000001b1b5 .LASF5107
     /tmp/ccut0Zoi.s:105760  .debug_str:000000000004ae92 .LASF5108
     /tmp/ccut0Zoi.s:100650  .debug_str:0000000000035ecd .LASF5109
     /tmp/ccut0Zoi.s:96764  .debug_str:0000000000025db9 .LASF5110
     /tmp/ccut0Zoi.s:102650  .debug_str:000000000003dc66 .LASF5111
     /tmp/ccut0Zoi.s:88454  .debug_str:0000000000003e82 .LASF5112
     /tmp/ccut0Zoi.s:103024  .debug_str:000000000003f685 .LASF5113
     /tmp/ccut0Zoi.s:95290  .debug_str:0000000000020277 .LASF5114
     /tmp/ccut0Zoi.s:94992  .debug_str:000000000001edf8 .LASF5115
     /tmp/ccut0Zoi.s:91930  .debug_str:0000000000012076 .LASF5116
     /tmp/ccut0Zoi.s:99384  .debug_str:0000000000030b9c .LASF5117
     /tmp/ccut0Zoi.s:88962  .debug_str:0000000000006119 .LASF5118
     /tmp/ccut0Zoi.s:90604  .debug_str:000000000000d0dd .LASF5119
     /tmp/ccut0Zoi.s:100914  .debug_str:0000000000036d96 .LASF5120
     /tmp/ccut0Zoi.s:100110  .debug_str:0000000000033be0 .LASF5121
     /tmp/ccut0Zoi.s:93840  .debug_str:0000000000019e2c .LASF5122
     /tmp/ccut0Zoi.s:91242  .debug_str:000000000000f55e .LASF5123
     /tmp/ccut0Zoi.s:92054  .debug_str:000000000001298b .LASF5124
     /tmp/ccut0Zoi.s:100608  .debug_str:0000000000035bd8 .LASF5125
     /tmp/ccut0Zoi.s:90558  .debug_str:000000000000cdb8 .LASF5126
     /tmp/ccut0Zoi.s:91338  .debug_str:000000000000fa70 .LASF5127
     /tmp/ccut0Zoi.s:95398  .debug_str:0000000000020a14 .LASF5128
     /tmp/ccut0Zoi.s:93302  .debug_str:000000000001796b .LASF5129
     /tmp/ccut0Zoi.s:93556  .debug_str:0000000000018990 .LASF5130
     /tmp/ccut0Zoi.s:100134  .debug_str:0000000000033dc8 .LASF5131
     /tmp/ccut0Zoi.s:103760  .debug_str:00000000000427c0 .LASF5132
     /tmp/ccut0Zoi.s:90406  .debug_str:000000000000c376 .LASF5133
     /tmp/ccut0Zoi.s:93652  .debug_str:000000000001900f .LASF5134
     /tmp/ccut0Zoi.s:97236  .debug_str:0000000000027e17 .LASF5135
     /tmp/ccut0Zoi.s:88500  .debug_str:000000000000423f .LASF5136
     /tmp/ccut0Zoi.s:104938  .debug_str:0000000000047486 .LASF5137
     /tmp/ccut0Zoi.s:98458  .debug_str:000000000002cd1a .LASF5138
     /tmp/ccut0Zoi.s:105106  .debug_str:0000000000047f4c .LASF5139
     /tmp/ccut0Zoi.s:88750  .debug_str:00000000000052ee .LASF5140
     /tmp/ccut0Zoi.s:95514  .debug_str:0000000000021144 .LASF5141
     /tmp/ccut0Zoi.s:103866  .debug_str:0000000000042e18 .LASF5142
     /tmp/ccut0Zoi.s:95566  .debug_str:0000000000021432 .LASF5143
     /tmp/ccut0Zoi.s:90520  .debug_str:000000000000cb88 .LASF5144
     /tmp/ccut0Zoi.s:99998  .debug_str:0000000000033401 .LASF5145
     /tmp/ccut0Zoi.s:90514  .debug_str:000000000000cb15 .LASF5146
     /tmp/ccut0Zoi.s:106030  .debug_str:000000000004c116 .LASF5148
     /tmp/ccut0Zoi.s:90400  .debug_str:000000000000c30d .LASF5149
     /tmp/ccut0Zoi.s:95160  .debug_str:000000000001fa77 .LASF5150
     /tmp/ccut0Zoi.s:90530  .debug_str:000000000000cc00 .LASF5151
     /tmp/ccut0Zoi.s:97668  .debug_str:00000000000299ce .LASF5152
     /tmp/ccut0Zoi.s:98124  .debug_str:000000000002b766 .LASF5153
     /tmp/ccut0Zoi.s:92474  .debug_str:0000000000014302 .LASF5154
     /tmp/ccut0Zoi.s:91274  .debug_str:000000000000f74c .LASF5155
     /tmp/ccut0Zoi.s:96840  .debug_str:0000000000026388 .LASF5156
     /tmp/ccut0Zoi.s:102390  .debug_str:000000000003cb9a .LASF5157
     /tmp/ccut0Zoi.s:98522  .debug_str:000000000002d219 .LASF5158
     /tmp/ccut0Zoi.s:89350  .debug_str:0000000000007b00 .LASF5159
     /tmp/ccut0Zoi.s:102360  .debug_str:000000000003c980 .LASF5160
     /tmp/ccut0Zoi.s:94418  .debug_str:000000000001c58c .LASF5161
     /tmp/ccut0Zoi.s:100168  .debug_str:000000000003401b .LASF5162
     /tmp/ccut0Zoi.s:97110  .debug_str:00000000000275bc .LASF5163
     /tmp/ccut0Zoi.s:89086  .debug_str:0000000000006a29 .LASF5164
     /tmp/ccut0Zoi.s:93094  .debug_str:0000000000016beb .LASF5165
     /tmp/ccut0Zoi.s:104362  .debug_str:0000000000044e07 .LASF5166
     /tmp/ccut0Zoi.s:90318  .debug_str:000000000000bd66 .LASF5167
     /tmp/ccut0Zoi.s:87606  .debug_str:00000000000003c0 .LASF5168
     /tmp/ccut0Zoi.s:94290  .debug_str:000000000001bd0f .LASF5169
     /tmp/ccut0Zoi.s:105612  .debug_str:000000000004a252 .LASF5170
     /tmp/ccut0Zoi.s:90734  .debug_str:000000000000d872 .LASF5171
     /tmp/ccut0Zoi.s:102934  .debug_str:000000000003f108 .LASF5172
     /tmp/ccut0Zoi.s:94288  .debug_str:000000000001bcef .LASF5173
     /tmp/ccut0Zoi.s:88480  .debug_str:000000000000408f .LASF5174
     /tmp/ccut0Zoi.s:95150  .debug_str:000000000001f9cc .LASF5175
     /tmp/ccut0Zoi.s:100642  .debug_str:0000000000035e14 .LASF5176
     /tmp/ccut0Zoi.s:101572  .debug_str:000000000003946c .LASF5177
     /tmp/ccut0Zoi.s:88242  .debug_str:0000000000003065 .LASF5178
     /tmp/ccut0Zoi.s:89768  .debug_str:00000000000097cd .LASF5179
     /tmp/ccut0Zoi.s:101048  .debug_str:00000000000373de .LASF5180
     /tmp/ccut0Zoi.s:102646  .debug_str:000000000003dc2d .LASF5181
     /tmp/ccut0Zoi.s:87902  .debug_str:00000000000017f5 .LASF5182
     /tmp/ccut0Zoi.s:97924  .debug_str:000000000002aa97 .LASF5183
     /tmp/ccut0Zoi.s:103250  .debug_str:0000000000040555 .LASF5184
     /tmp/ccut0Zoi.s:102314  .debug_str:000000000003c79f .LASF5185
     /tmp/ccut0Zoi.s:97044  .debug_str:0000000000027142 .LASF5186
     /tmp/ccut0Zoi.s:94032  .debug_str:000000000001aa82 .LASF5187
     /tmp/ccut0Zoi.s:92100  .debug_str:0000000000012cc8 .LASF5188
     /tmp/ccut0Zoi.s:88628  .debug_str:0000000000004ad6 .LASF5189
     /tmp/ccut0Zoi.s:98152  .debug_str:000000000002b90c .LASF5190
     /tmp/ccut0Zoi.s:96614  .debug_str:00000000000254a5 .LASF5191
     /tmp/ccut0Zoi.s:90730  .debug_str:000000000000d837 .LASF5192
     /tmp/ccut0Zoi.s:95750  .debug_str:000000000002207a .LASF5193
     /tmp/ccut0Zoi.s:97960  .debug_str:000000000002acf3 .LASF5194
     /tmp/ccut0Zoi.s:102882  .debug_str:000000000003ed21 .LASF5195
     /tmp/ccut0Zoi.s:89674  .debug_str:00000000000090b9 .LASF5196
     /tmp/ccut0Zoi.s:101422  .debug_str:0000000000038a7d .LASF5197
     /tmp/ccut0Zoi.s:95258  .debug_str:0000000000020061 .LASF5198
     /tmp/ccut0Zoi.s:89516  .debug_str:0000000000008619 .LASF5199
     /tmp/ccut0Zoi.s:105510  .debug_str:0000000000049ba8 .LASF5200
     /tmp/ccut0Zoi.s:101204  .debug_str:0000000000037bec .LASF5201
     /tmp/ccut0Zoi.s:93812  .debug_str:0000000000019b97 .LASF5202
     /tmp/ccut0Zoi.s:100428  .debug_str:00000000000350e7 .LASF5203
     /tmp/ccut0Zoi.s:89592  .debug_str:0000000000008b65 .LASF5204
     /tmp/ccut0Zoi.s:87562  .debug_str:0000000000000098 .LASF5205
     /tmp/ccut0Zoi.s:99530  .debug_str:00000000000315ba .LASF5206
     /tmp/ccut0Zoi.s:91884  .debug_str:0000000000011d93 .LASF5207
     /tmp/ccut0Zoi.s:95058  .debug_str:000000000001f2d5 .LASF5208
     /tmp/ccut0Zoi.s:97034  .debug_str:000000000002708c .LASF5209
     /tmp/ccut0Zoi.s:101552  .debug_str:000000000003936f .LASF5210
     /tmp/ccut0Zoi.s:105320  .debug_str:0000000000048ee1 .LASF5211
     /tmp/ccut0Zoi.s:98276  .debug_str:000000000002c07d .LASF5212
     /tmp/ccut0Zoi.s:89066  .debug_str:000000000000685a .LASF5213
     /tmp/ccut0Zoi.s:99794  .debug_str:00000000000326b1 .LASF5214
     /tmp/ccut0Zoi.s:91178  .debug_str:000000000000f16b .LASF5215
     /tmp/ccut0Zoi.s:105126  .debug_str:0000000000048135 .LASF5216
     /tmp/ccut0Zoi.s:89608  .debug_str:0000000000008c4b .LASF5217
     /tmp/ccut0Zoi.s:88220  .debug_str:0000000000002f0f .LASF5218
     /tmp/ccut0Zoi.s:87686  .debug_str:0000000000000949 .LASF5219
     /tmp/ccut0Zoi.s:98368  .debug_str:000000000002c6ea .LASF5220
     /tmp/ccut0Zoi.s:89746  .debug_str:0000000000009672 .LASF5221
     /tmp/ccut0Zoi.s:98836  .debug_str:000000000002e709 .LASF5222
     /tmp/ccut0Zoi.s:89960  .debug_str:000000000000a45b .LASF5223
     /tmp/ccut0Zoi.s:98180  .debug_str:000000000002baac .LASF5224
     /tmp/ccut0Zoi.s:102500  .debug_str:000000000003d2e2 .LASF5225
     /tmp/ccut0Zoi.s:89180  .debug_str:0000000000007076 .LASF5226
     /tmp/ccut0Zoi.s:94212  .debug_str:000000000001b76c .LASF5227
     /tmp/ccut0Zoi.s:90314  .debug_str:000000000000bcf5 .LASF5228
     /tmp/ccut0Zoi.s:98392  .debug_str:000000000002c901 .LASF5229
     /tmp/ccut0Zoi.s:103350  .debug_str:0000000000040c87 .LASF5230
     /tmp/ccut0Zoi.s:93792  .debug_str:000000000001999d .LASF5231
     /tmp/ccut0Zoi.s:89922  .debug_str:000000000000a1e2 .LASF5232
     /tmp/ccut0Zoi.s:97142  .debug_str:00000000000277eb .LASF5233
     /tmp/ccut0Zoi.s:90832  .debug_str:000000000000df49 .LASF5234
     /tmp/ccut0Zoi.s:99592  .debug_str:00000000000319b4 .LASF5235
     /tmp/ccut0Zoi.s:99678  .debug_str:0000000000031ecc .LASF5236
     /tmp/ccut0Zoi.s:89940  .debug_str:000000000000a2f6 .LASF5237
     /tmp/ccut0Zoi.s:95584  .debug_str:000000000002154f .LASF5238
     /tmp/ccut0Zoi.s:98150  .debug_str:000000000002b8e0 .LASF5239
     /tmp/ccut0Zoi.s:105302  .debug_str:0000000000048d8b .LASF5240
     /tmp/ccut0Zoi.s:97104  .debug_str:000000000002755c .LASF5241
     /tmp/ccut0Zoi.s:102432  .debug_str:000000000003ce8c .LASF5242
     /tmp/ccut0Zoi.s:101930  .debug_str:000000000003ad91 .LASF5243
     /tmp/ccut0Zoi.s:100254  .debug_str:000000000003457d .LASF5244
     /tmp/ccut0Zoi.s:95080  .debug_str:000000000001f462 .LASF5245
     /tmp/ccut0Zoi.s:97266  .debug_str:0000000000028010 .LASF5246
     /tmp/ccut0Zoi.s:95776  .debug_str:0000000000022223 .LASF5247
     /tmp/ccut0Zoi.s:88972  .debug_str:00000000000061a9 .LASF5248
     /tmp/ccut0Zoi.s:103180  .debug_str:0000000000040184 .LASF5249
     /tmp/ccut0Zoi.s:88066  .debug_str:0000000000002362 .LASF5250
     /tmp/ccut0Zoi.s:92732  .debug_str:000000000001543d .LASF5251
     /tmp/ccut0Zoi.s:96962  .debug_str:0000000000026b96 .LASF5252
     /tmp/ccut0Zoi.s:91934  .debug_str:00000000000120d6 .LASF5253
     /tmp/ccut0Zoi.s:88344  .debug_str:00000000000036d4 .LASF5254
     /tmp/ccut0Zoi.s:103728  .debug_str:00000000000425e2 .LASF5255
     /tmp/ccut0Zoi.s:105066  .debug_str:0000000000047cd2 .LASF5256
     /tmp/ccut0Zoi.s:94552  .debug_str:000000000001cec9 .LASF5257
     /tmp/ccut0Zoi.s:100866  .debug_str:0000000000036ace .LASF5258
     /tmp/ccut0Zoi.s:95006  .debug_str:000000000001ef2d .LASF5259
     /tmp/ccut0Zoi.s:95748  .debug_str:000000000002204e .LASF5260
     /tmp/ccut0Zoi.s:102412  .debug_str:000000000003cd4a .LASF5261
     /tmp/ccut0Zoi.s:88924  .debug_str:0000000000005ec7 .LASF5262
     /tmp/ccut0Zoi.s:95806  .debug_str:0000000000022460 .LASF5263
     /tmp/ccut0Zoi.s:102610  .debug_str:000000000003d9e4 .LASF5264
     /tmp/ccut0Zoi.s:90484  .debug_str:000000000000c8d8 .LASF5265
     /tmp/ccut0Zoi.s:90072  .debug_str:000000000000ac2b .LASF5266
     /tmp/ccut0Zoi.s:91740  .debug_str:0000000000011372 .LASF5267
     /tmp/ccut0Zoi.s:96856  .debug_str:0000000000026485 .LASF5268
     /tmp/ccut0Zoi.s:91796  .debug_str:000000000001177f .LASF5269
     /tmp/ccut0Zoi.s:93140  .debug_str:0000000000016f10 .LASF5270
     /tmp/ccut0Zoi.s:97462  .debug_str:0000000000028d25 .LASF5271
     /tmp/ccut0Zoi.s:88352  .debug_str:0000000000003778 .LASF5272
     /tmp/ccut0Zoi.s:101342  .debug_str:00000000000384b0 .LASF5273
     /tmp/ccut0Zoi.s:91180  .debug_str:000000000000f18c .LASF5274
     /tmp/ccut0Zoi.s:90060  .debug_str:000000000000ab3f .LASF5275
     /tmp/ccut0Zoi.s:96052  .debug_str:0000000000023500 .LASF5276
     /tmp/ccut0Zoi.s:102592  .debug_str:000000000003d8ea .LASF5277
     /tmp/ccut0Zoi.s:92400  .debug_str:0000000000013f1f .LASF5278
     /tmp/ccut0Zoi.s:105712  .debug_str:000000000004aa8e .LASF5279
     /tmp/ccut0Zoi.s:102638  .debug_str:000000000003dbc0 .LASF5280
     /tmp/ccut0Zoi.s:90320  .debug_str:000000000000bda1 .LASF5281
     /tmp/ccut0Zoi.s:89920  .debug_str:000000000000a1d3 .LASF5282
     /tmp/ccut0Zoi.s:95494  .debug_str:0000000000020f8f .LASF5283
     /tmp/ccut0Zoi.s:89664  .debug_str:0000000000009047 .LASF5284
     /tmp/ccut0Zoi.s:89834  .debug_str:0000000000009c0c .LASF5285
     /tmp/ccut0Zoi.s:95904  .debug_str:0000000000022ace .LASF5286
     /tmp/ccut0Zoi.s:87804  .debug_str:0000000000001133 .LASF5287
     /tmp/ccut0Zoi.s:91654  .debug_str:0000000000010d75 .LASF5288
     /tmp/ccut0Zoi.s:94576  .debug_str:000000000001d0be .LASF5289
     /tmp/ccut0Zoi.s:100412  .debug_str:0000000000034fce .LASF5290
     /tmp/ccut0Zoi.s:93492  .debug_str:0000000000018523 .LASF5291
     /tmp/ccut0Zoi.s:94764  .debug_str:000000000001dd56 .LASF5292
     /tmp/ccut0Zoi.s:94252  .debug_str:000000000001ba99 .LASF5293
     /tmp/ccut0Zoi.s:102270  .debug_str:000000000003c464 .LASF5294
     /tmp/ccut0Zoi.s:88348  .debug_str:000000000000371c .LASF5295
     /tmp/ccut0Zoi.s:88894  .debug_str:0000000000005cc8 .LASF5296
     /tmp/ccut0Zoi.s:105208  .debug_str:000000000004870b .LASF5297
     /tmp/ccut0Zoi.s:89538  .debug_str:00000000000087ca .LASF5298
     /tmp/ccut0Zoi.s:99910  .debug_str:0000000000032e57 .LASF5299
     /tmp/ccut0Zoi.s:103432  .debug_str:00000000000412a2 .LASF5300
     /tmp/ccut0Zoi.s:99684  .debug_str:0000000000031f44 .LASF5301
     /tmp/ccut0Zoi.s:97736  .debug_str:0000000000029eb8 .LASF5303
     /tmp/ccut0Zoi.s:92358  .debug_str:0000000000013c74 .LASF5304
     /tmp/ccut0Zoi.s:100426  .debug_str:00000000000350de .LASF5305
     /tmp/ccut0Zoi.s:89870  .debug_str:0000000000009de2 .LASF5306
     /tmp/ccut0Zoi.s:87566  .debug_str:00000000000000fa .LASF5307
     /tmp/ccut0Zoi.s:106216  .debug_str:000000000004cda3 .LASF5308
     /tmp/ccut0Zoi.s:98598  .debug_str:000000000002d6ab .LASF5309
     /tmp/ccut0Zoi.s:95292  .debug_str:00000000000202a2 .LASF5310
     /tmp/ccut0Zoi.s:102822  .debug_str:000000000003e88c .LASF5311
     /tmp/ccut0Zoi.s:95634  .debug_str:00000000000218c0 .LASF5312
     /tmp/ccut0Zoi.s:96908  .debug_str:000000000002683a .LASF5313
     /tmp/ccut0Zoi.s:93390  .debug_str:0000000000017ed6 .LASF5314
     /tmp/ccut0Zoi.s:102708  .debug_str:000000000003dfe6 .LASF5315
     /tmp/ccut0Zoi.s:101454  .debug_str:0000000000038c46 .LASF5316
     /tmp/ccut0Zoi.s:99580  .debug_str:00000000000318bc .LASF5317
     /tmp/ccut0Zoi.s:103114  .debug_str:000000000003fcd0 .LASF5318
     /tmp/ccut0Zoi.s:98016  .debug_str:000000000002b07c .LASF5319
     /tmp/ccut0Zoi.s:90450  .debug_str:000000000000c682 .LASF5320
     /tmp/ccut0Zoi.s:92420  .debug_str:000000000001403a .LASF5321
     /tmp/ccut0Zoi.s:94812  .debug_str:000000000001e0f5 .LASF5322
     /tmp/ccut0Zoi.s:100884  .debug_str:0000000000036be8 .LASF5323
     /tmp/ccut0Zoi.s:88090  .debug_str:000000000000253a .LASF5324
     /tmp/ccut0Zoi.s:94136  .debug_str:000000000001b26f .LASF5325
     /tmp/ccut0Zoi.s:100166  .debug_str:0000000000033fff .LASF5326
     /tmp/ccut0Zoi.s:93054  .debug_str:00000000000168e8 .LASF5327
     /tmp/ccut0Zoi.s:100100  .debug_str:0000000000033ade .LASF5328
     /tmp/ccut0Zoi.s:102252  .debug_str:000000000003c302 .LASF5329
     /tmp/ccut0Zoi.s:90994  .debug_str:000000000000e68f .LASF5330
     /tmp/ccut0Zoi.s:104866  .debug_str:0000000000046fd8 .LASF5331
     /tmp/ccut0Zoi.s:89816  .debug_str:0000000000009ab5 .LASF5332
     /tmp/ccut0Zoi.s:104626  .debug_str:0000000000045f53 .LASF5333
     /tmp/ccut0Zoi.s:102440  .debug_str:000000000003cf66 .LASF5334
     /tmp/ccut0Zoi.s:90234  .debug_str:000000000000b811 .LASF5335
     /tmp/ccut0Zoi.s:93004  .debug_str:0000000000016521 .LASF5336
     /tmp/ccut0Zoi.s:96308  .debug_str:0000000000024312 .LASF5337
     /tmp/ccut0Zoi.s:103470  .debug_str:0000000000041530 .LASF5338
     /tmp/ccut0Zoi.s:105936  .debug_str:000000000004bb1b .LASF5339
     /tmp/ccut0Zoi.s:90026  .debug_str:000000000000a887 .LASF5340
     /tmp/ccut0Zoi.s:98940  .debug_str:000000000002eec4 .LASF5341
     /tmp/ccut0Zoi.s:97150  .debug_str:00000000000278bb .LASF5342
     /tmp/ccut0Zoi.s:96460  .debug_str:0000000000024a47 .LASF5343
     /tmp/ccut0Zoi.s:91432  .debug_str:000000000000ffe5 .LASF5344
     /tmp/ccut0Zoi.s:92254  .debug_str:00000000000135f4 .LASF5345
     /tmp/ccut0Zoi.s:90146  .debug_str:000000000000b1c1 .LASF5346
     /tmp/ccut0Zoi.s:95628  .debug_str:0000000000021858 .LASF5347
     /tmp/ccut0Zoi.s:104840  .debug_str:0000000000046e53 .LASF5348
     /tmp/ccut0Zoi.s:101784  .debug_str:000000000003a382 .LASF5349
     /tmp/ccut0Zoi.s:100718  .debug_str:000000000003627c .LASF5350
     /tmp/ccut0Zoi.s:92630  .debug_str:0000000000014d4b .LASF5351
     /tmp/ccut0Zoi.s:92302  .debug_str:00000000000138d2 .LASF5352
     /tmp/ccut0Zoi.s:92654  .debug_str:0000000000014ef2 .LASF5353
     /tmp/ccut0Zoi.s:104956  .debug_str:0000000000047574 .LASF5354
     /tmp/ccut0Zoi.s:105068  .debug_str:0000000000047d00 .LASF5355
     /tmp/ccut0Zoi.s:103340  .debug_str:0000000000040bb3 .LASF5356
     /tmp/ccut0Zoi.s:101144  .debug_str:000000000003791e .LASF5357
     /tmp/ccut0Zoi.s:96880  .debug_str:00000000000266a8 .LASF5358
     /tmp/ccut0Zoi.s:96948  .debug_str:0000000000026aea .LASF5359
     /tmp/ccut0Zoi.s:95182  .debug_str:000000000001fbc4 .LASF5360
     /tmp/ccut0Zoi.s:103140  .debug_str:000000000003ff22 .LASF5361
     /tmp/ccut0Zoi.s:101248  .debug_str:0000000000037e13 .LASF5362
     /tmp/ccut0Zoi.s:91114  .debug_str:000000000000eda7 .LASF5363
     /tmp/ccut0Zoi.s:97010  .debug_str:0000000000026edc .LASF5364
     /tmp/ccut0Zoi.s:105008  .debug_str:0000000000047900 .LASF5365
     /tmp/ccut0Zoi.s:95068  .debug_str:000000000001f3c3 .LASF5366
     /tmp/ccut0Zoi.s:96256  .debug_str:0000000000024045 .LASF5367
     /tmp/ccut0Zoi.s:104434  .debug_str:0000000000045360 .LASF5368
     /tmp/ccut0Zoi.s:101522  .debug_str:00000000000390de .LASF5369
     /tmp/ccut0Zoi.s:96018  .debug_str:0000000000023308 .LASF5370
     /tmp/ccut0Zoi.s:89204  .debug_str:0000000000007201 .LASF5371
     /tmp/ccut0Zoi.s:92878  .debug_str:0000000000015cf5 .LASF5372
     /tmp/ccut0Zoi.s:105502  .debug_str:0000000000049b07 .LASF5373
     /tmp/ccut0Zoi.s:91788  .debug_str:00000000000116e0 .LASF5374
     /tmp/ccut0Zoi.s:104016  .debug_str:00000000000437fc .LASF5375
     /tmp/ccut0Zoi.s:87602  .debug_str:0000000000000378 .LASF5376
     /tmp/ccut0Zoi.s:104330  .debug_str:0000000000044bb2 .LASF5377
     /tmp/ccut0Zoi.s:89436  .debug_str:0000000000008112 .LASF5378
     /tmp/ccut0Zoi.s:101296  .debug_str:00000000000381bf .LASF5379
     /tmp/ccut0Zoi.s:96934  .debug_str:00000000000269ee .LASF5380
     /tmp/ccut0Zoi.s:94268  .debug_str:000000000001bbd6 .LASF5381
     /tmp/ccut0Zoi.s:98760  .debug_str:000000000002e1d2 .LASF5382
     /tmp/ccut0Zoi.s:90394  .debug_str:000000000000c28c .LASF5383
     /tmp/ccut0Zoi.s:94512  .debug_str:000000000001cc1b .LASF5384
     /tmp/ccut0Zoi.s:99200  .debug_str:000000000002ff27 .LASF5385
     /tmp/ccut0Zoi.s:104648  .debug_str:00000000000460ee .LASF5386
     /tmp/ccut0Zoi.s:101236  .debug_str:0000000000037d75 .LASF5387
     /tmp/ccut0Zoi.s:93558  .debug_str:00000000000189ba .LASF5388
     /tmp/ccut0Zoi.s:97040  .debug_str:00000000000270ea .LASF5389
     /tmp/ccut0Zoi.s:95506  .debug_str:0000000000021095 .LASF5390
     /tmp/ccut0Zoi.s:99802  .debug_str:000000000003270f .LASF5391
     /tmp/ccut0Zoi.s:90126  .debug_str:000000000000b06d .LASF5392
     /tmp/ccut0Zoi.s:97972  .debug_str:000000000002ae0b .LASF5393
     /tmp/ccut0Zoi.s:104802  .debug_str:0000000000046b9f .LASF5394
     /tmp/ccut0Zoi.s:102208  .debug_str:000000000003c060 .LASF5395
     /tmp/ccut0Zoi.s:91770  .debug_str:00000000000115c8 .LASF5396
     /tmp/ccut0Zoi.s:103958  .debug_str:00000000000433f9 .LASF5397
     /tmp/ccut0Zoi.s:87574  .debug_str:0000000000000185 .LASF5398
     /tmp/ccut0Zoi.s:90578  .debug_str:000000000000cf15 .LASF5399
     /tmp/ccut0Zoi.s:92626  .debug_str:0000000000014ceb .LASF5400
     /tmp/ccut0Zoi.s:100150  .debug_str:0000000000033f12 .LASF5401
     /tmp/ccut0Zoi.s:91904  .debug_str:0000000000011e8c .LASF5402
     /tmp/ccut0Zoi.s:104646  .debug_str:00000000000460d5 .LASF5403
     /tmp/ccut0Zoi.s:87700  .debug_str:0000000000000a6d .LASF5404
     /tmp/ccut0Zoi.s:104430  .debug_str:000000000004530f .LASF5405
     /tmp/ccut0Zoi.s:100948  .debug_str:0000000000036eae .LASF5406
     /tmp/ccut0Zoi.s:99142  .debug_str:000000000002fb17 .LASF5407
     /tmp/ccut0Zoi.s:96372  .debug_str:0000000000024612 .LASF5408
     /tmp/ccut0Zoi.s:96112  .debug_str:00000000000238c0 .LASF5409
     /tmp/ccut0Zoi.s:94128  .debug_str:000000000001b209 .LASF5410
     /tmp/ccut0Zoi.s:91942  .debug_str:000000000001214e .LASF5411
     /tmp/ccut0Zoi.s:102598  .debug_str:000000000003d947 .LASF5412
     /tmp/ccut0Zoi.s:102462  .debug_str:000000000003d078 .LASF5413
     /tmp/ccut0Zoi.s:105722  .debug_str:000000000004ab60 .LASF5414
     /tmp/ccut0Zoi.s:87800  .debug_str:000000000000110b .LASF5415
     /tmp/ccut0Zoi.s:96286  .debug_str:0000000000024202 .LASF5416
     /tmp/ccut0Zoi.s:104658  .debug_str:00000000000461a0 .LASF5417
     /tmp/ccut0Zoi.s:93520  .debug_str:00000000000186f0 .LASF5418
     /tmp/ccut0Zoi.s:92584  .debug_str:0000000000014a46 .LASF5419
     /tmp/ccut0Zoi.s:91774  .debug_str:00000000000115ee .LASF5420
     /tmp/ccut0Zoi.s:105312  .debug_str:0000000000048e2d .LASF5421
     /tmp/ccut0Zoi.s:91608  .debug_str:0000000000010b19 .LASF5422
     /tmp/ccut0Zoi.s:98260  .debug_str:000000000002bfa2 .LASF5423
     /tmp/ccut0Zoi.s:92316  .debug_str:00000000000139dc .LASF5424
     /tmp/ccut0Zoi.s:91676  .debug_str:0000000000010ebd .LASF5425
     /tmp/ccut0Zoi.s:96578  .debug_str:00000000000251ce .LASF5426
     /tmp/ccut0Zoi.s:91168  .debug_str:000000000000f09c .LASF5427
     /tmp/ccut0Zoi.s:97564  .debug_str:000000000002936c .LASF5428
     /tmp/ccut0Zoi.s:90870  .debug_str:000000000000e0a2 .LASF5429
     /tmp/ccut0Zoi.s:94938  .debug_str:000000000001e9b6 .LASF5430
     /tmp/ccut0Zoi.s:89038  .debug_str:0000000000006693 .LASF5431
     /tmp/ccut0Zoi.s:88408  .debug_str:0000000000003b32 .LASF5432
     /tmp/ccut0Zoi.s:100816  .debug_str:000000000003685b .LASF5433
     /tmp/ccut0Zoi.s:102830  .debug_str:000000000003e934 .LASF5434
     /tmp/ccut0Zoi.s:96918  .debug_str:00000000000268f8 .LASF5435
     /tmp/ccut0Zoi.s:103244  .debug_str:00000000000404f4 .LASF5436
     /tmp/ccut0Zoi.s:105912  .debug_str:000000000004b923 .LASF5437
     /tmp/ccut0Zoi.s:104970  .debug_str:0000000000047676 .LASF5438
     /tmp/ccut0Zoi.s:102744  .debug_str:000000000003e2a1 .LASF5439
     /tmp/ccut0Zoi.s:87792  .debug_str:0000000000001072 .LASF5440
     /tmp/ccut0Zoi.s:101114  .debug_str:000000000003770f .LASF5441
     /tmp/ccut0Zoi.s:96192  .debug_str:0000000000023d1e .LASF5442
     /tmp/ccut0Zoi.s:103698  .debug_str:0000000000042409 .LASF5443
     /tmp/ccut0Zoi.s:98272  .debug_str:000000000002c056 .LASF5444
     /tmp/ccut0Zoi.s:100242  .debug_str:00000000000344e0 .LASF5445
     /tmp/ccut0Zoi.s:100004  .debug_str:000000000003345c .LASF5446
     /tmp/ccut0Zoi.s:99076  .debug_str:000000000002f720 .LASF5447
     /tmp/ccut0Zoi.s:101556  .debug_str:00000000000393c4 .LASF5448
     /tmp/ccut0Zoi.s:87638  .debug_str:0000000000000631 .LASF5449
     /tmp/ccut0Zoi.s:104976  .debug_str:00000000000476cc .LASF5450
     /tmp/ccut0Zoi.s:99378  .debug_str:0000000000030b44 .LASF5451
     /tmp/ccut0Zoi.s:101636  .debug_str:000000000003984f .LASF5452
     /tmp/ccut0Zoi.s:102816  .debug_str:000000000003e842 .LASF5453
     /tmp/ccut0Zoi.s:98830  .debug_str:000000000002e6bb .LASF5454
     /tmp/ccut0Zoi.s:104774  .debug_str:0000000000046a0b .LASF5455
     /tmp/ccut0Zoi.s:105790  .debug_str:000000000004b0cd .LASF5456
     /tmp/ccut0Zoi.s:97244  .debug_str:0000000000027e75 .LASF5457
     /tmp/ccut0Zoi.s:92186  .debug_str:00000000000131c2 .LASF5459
     /tmp/ccut0Zoi.s:101944  .debug_str:000000000003ae75 .LASF5460
     /tmp/ccut0Zoi.s:102880  .debug_str:000000000003ed03 .LASF5461
     /tmp/ccut0Zoi.s:97950  .debug_str:000000000002ac1a .LASF5462
     /tmp/ccut0Zoi.s:103478  .debug_str:00000000000415a3 .LASF5463
     /tmp/ccut0Zoi.s:100200  .debug_str:0000000000034206 .LASF5464
     /tmp/ccut0Zoi.s:98746  .debug_str:000000000002e10e .LASF5465
     /tmp/ccut0Zoi.s:96008  .debug_str:000000000002326f .LASF5466
     /tmp/ccut0Zoi.s:87952  .debug_str:0000000000001b97 .LASF5467
     /tmp/ccut0Zoi.s:91554  .debug_str:000000000001070e .LASF5468
     /tmp/ccut0Zoi.s:95128  .debug_str:000000000001f8af .LASF5469
     /tmp/ccut0Zoi.s:97200  .debug_str:0000000000027c7c .LASF5470
     /tmp/ccut0Zoi.s:103662  .debug_str:00000000000421ab .LASF5471
     /tmp/ccut0Zoi.s:99022  .debug_str:000000000002f3f8 .LASF5472
     /tmp/ccut0Zoi.s:94176  .debug_str:000000000001b54e .LASF5473
     /tmp/ccut0Zoi.s:102458  .debug_str:000000000003d04f .LASF5474
     /tmp/ccut0Zoi.s:105596  .debug_str:000000000004a189 .LASF5475
     /tmp/ccut0Zoi.s:105520  .debug_str:0000000000049c8b .LASF5476
     /tmp/ccut0Zoi.s:102124  .debug_str:000000000003ba93 .LASF5477
     /tmp/ccut0Zoi.s:94384  .debug_str:000000000001c2ed .LASF5478
     /tmp/ccut0Zoi.s:88068  .debug_str:0000000000002390 .LASF5479
     /tmp/ccut0Zoi.s:89618  .debug_str:0000000000008d79 .LASF5481
     /tmp/ccut0Zoi.s:99132  .debug_str:000000000002fa41 .LASF5482
     /tmp/ccut0Zoi.s:93800  .debug_str:0000000000019a95 .LASF5483
     /tmp/ccut0Zoi.s:96982  .debug_str:0000000000026cc3 .LASF5484
     /tmp/ccut0Zoi.s:101600  .debug_str:0000000000039607 .LASF5485
     /tmp/ccut0Zoi.s:104748  .debug_str:0000000000046840 .LASF5486
     /tmp/ccut0Zoi.s:94342  .debug_str:000000000001c060 .LASF5487
     /tmp/ccut0Zoi.s:88374  .debug_str:000000000000392d .LASF5488
     /tmp/ccut0Zoi.s:92402  .debug_str:0000000000013f33 .LASF5489
     /tmp/ccut0Zoi.s:95310  .debug_str:00000000000203cd .LASF5490
     /tmp/ccut0Zoi.s:102486  .debug_str:000000000003d206 .LASF5491
     /tmp/ccut0Zoi.s:101978  .debug_str:000000000003b054 .LASF5492
     /tmp/ccut0Zoi.s:92544  .debug_str:0000000000014798 .LASF5493
     /tmp/ccut0Zoi.s:101658  .debug_str:0000000000039a48 .LASF5494
     /tmp/ccut0Zoi.s:106134  .debug_str:000000000004c81d .LASF5495
     /tmp/ccut0Zoi.s:99468  .debug_str:000000000003118c .LASF5496
     /tmp/ccut0Zoi.s:96960  .debug_str:0000000000026b70 .LASF5497
     /tmp/ccut0Zoi.s:104790  .debug_str:0000000000046b03 .LASF5498
     /tmp/ccut0Zoi.s:90914  .debug_str:000000000000e354 .LASF5499
     /tmp/ccut0Zoi.s:103486  .debug_str:0000000000041601 .LASF5500
     /tmp/ccut0Zoi.s:88130  .debug_str:000000000000284c .LASF5501
     /tmp/ccut0Zoi.s:89982  .debug_str:000000000000a5a8 .LASF5502
     /tmp/ccut0Zoi.s:106090  .debug_str:000000000004c4be .LASF5503
     /tmp/ccut0Zoi.s:105690  .debug_str:000000000004a86c .LASF5504
     /tmp/ccut0Zoi.s:100898  .debug_str:0000000000036ccd .LASF5506
     /tmp/ccut0Zoi.s:95724  .debug_str:0000000000021eb6 .LASF5507
     /tmp/ccut0Zoi.s:100484  .debug_str:0000000000035492 .LASF5508
     /tmp/ccut0Zoi.s:93744  .debug_str:00000000000196b6 .LASF5509
     /tmp/ccut0Zoi.s:89156  .debug_str:0000000000006f50 .LASF5510
     /tmp/ccut0Zoi.s:95678  .debug_str:0000000000021c09 .LASF5511
     /tmp/ccut0Zoi.s:105696  .debug_str:000000000004a8f7 .LASF5512
     /tmp/ccut0Zoi.s:104420  .debug_str:000000000004526d .LASF5513
     /tmp/ccut0Zoi.s:91974  .debug_str:0000000000012389 .LASF5514
     /tmp/ccut0Zoi.s:100868  .debug_str:0000000000036afa .LASF5515
     /tmp/ccut0Zoi.s:95598  .debug_str:000000000002164a .LASF5516
     /tmp/ccut0Zoi.s:92152  .debug_str:0000000000012fad .LASF5517
     /tmp/ccut0Zoi.s:88760  .debug_str:0000000000005395 .LASF5518
     /tmp/ccut0Zoi.s:104914  .debug_str:00000000000472f3 .LASF5519
     /tmp/ccut0Zoi.s:88932  .debug_str:0000000000005f4c .LASF5520
     /tmp/ccut0Zoi.s:99562  .debug_str:00000000000317ce .LASF5521
     /tmp/ccut0Zoi.s:92300  .debug_str:00000000000138c6 .LASF5522
     /tmp/ccut0Zoi.s:93148  .debug_str:0000000000016fba .LASF5523
     /tmp/ccut0Zoi.s:103440  .debug_str:0000000000041322 .LASF5524
     /tmp/ccut0Zoi.s:99874  .debug_str:0000000000032b8a .LASF5526
     /tmp/ccut0Zoi.s:90042  .debug_str:000000000000a9ee .LASF5527
     /tmp/ccut0Zoi.s:102690  .debug_str:000000000003df2b .LASF5528
     /tmp/ccut0Zoi.s:88256  .debug_str:0000000000003136 .LASF5529
     /tmp/ccut0Zoi.s:101126  .debug_str:00000000000377dd .LASF5530
     /tmp/ccut0Zoi.s:93862  .debug_str:0000000000019f58 .LASF5531
     /tmp/ccut0Zoi.s:93772  .debug_str:000000000001988a .LASF5532
     /tmp/ccut0Zoi.s:104162  .debug_str:000000000004408d .LASF5533
     /tmp/ccut0Zoi.s:96272  .debug_str:00000000000240f7 .LASF5534
     /tmp/ccut0Zoi.s:88572  .debug_str:00000000000046e1 .LASF5535
     /tmp/ccut0Zoi.s:92726  .debug_str:00000000000153e9 .LASF5536
     /tmp/ccut0Zoi.s:102752  .debug_str:000000000003e336 .LASF5537
     /tmp/ccut0Zoi.s:95256  .debug_str:000000000002004b .LASF5538
     /tmp/ccut0Zoi.s:91932  .debug_str:00000000000120a1 .LASF5539
     /tmp/ccut0Zoi.s:88694  .debug_str:0000000000004eef .LASF5540
     /tmp/ccut0Zoi.s:91832  .debug_str:0000000000011a2f .LASF5541
     /tmp/ccut0Zoi.s:99480  .debug_str:000000000003127e .LASF5542
     /tmp/ccut0Zoi.s:93244  .debug_str:0000000000017562 .LASF5543
     /tmp/ccut0Zoi.s:92412  .debug_str:0000000000013fd2 .LASF5544
     /tmp/ccut0Zoi.s:93422  .debug_str:000000000001800a .LASF5545
     /tmp/ccut0Zoi.s:102552  .debug_str:000000000003d67b .LASF5546
     /tmp/ccut0Zoi.s:103858  .debug_str:0000000000042dbe .LASF5547
     /tmp/ccut0Zoi.s:89888  .debug_str:0000000000009f4b .LASF5548
     /tmp/ccut0Zoi.s:91172  .debug_str:000000000000f0de .LASF5549
     /tmp/ccut0Zoi.s:96882  .debug_str:00000000000266c1 .LASF5550
     /tmp/ccut0Zoi.s:95462  .debug_str:0000000000020ddf .LASF5551
     /tmp/ccut0Zoi.s:103512  .debug_str:000000000004176c .LASF5552
     /tmp/ccut0Zoi.s:103630  .debug_str:0000000000041f41 .LASF5553
     /tmp/ccut0Zoi.s:91080  .debug_str:000000000000eb79 .LASF5554
     /tmp/ccut0Zoi.s:104894  .debug_str:0000000000047143 .LASF5555
     /tmp/ccut0Zoi.s:93086  .debug_str:0000000000016b48 .LASF5556
     /tmp/ccut0Zoi.s:91164  .debug_str:000000000000f053 .LASF5557
     /tmp/ccut0Zoi.s:95230  .debug_str:000000000001fe6b .LASF5558
     /tmp/ccut0Zoi.s:99772  .debug_str:0000000000032512 .LASF5559
     /tmp/ccut0Zoi.s:97642  .debug_str:000000000002989b .LASF5560
     /tmp/ccut0Zoi.s:91294  .debug_str:000000000000f8b4 .LASF5561
     /tmp/ccut0Zoi.s:88618  .debug_str:0000000000004a3d .LASF5562
     /tmp/ccut0Zoi.s:102226  .debug_str:000000000003c19a .LASF5563
     /tmp/ccut0Zoi.s:91278  .debug_str:000000000000f798 .LASF5564
     /tmp/ccut0Zoi.s:89088  .debug_str:0000000000006a45 .LASF5565
     /tmp/ccut0Zoi.s:96290  .debug_str:0000000000024233 .LASF5566
     /tmp/ccut0Zoi.s:93616  .debug_str:0000000000018d95 .LASF5567
     /tmp/ccut0Zoi.s:90574  .debug_str:000000000000ceee .LASF5568
     /tmp/ccut0Zoi.s:88110  .debug_str:00000000000026e8 .LASF5569
     /tmp/ccut0Zoi.s:92766  .debug_str:00000000000155ca .LASF5570
     /tmp/ccut0Zoi.s:103028  .debug_str:000000000003f6ae .LASF5571
     /tmp/ccut0Zoi.s:104508  .debug_str:00000000000457d9 .LASF5572
     /tmp/ccut0Zoi.s:98546  .debug_str:000000000002d399 .LASF5573
     /tmp/ccut0Zoi.s:87970  .debug_str:0000000000001cb8 .LASF5574
     /tmp/ccut0Zoi.s:96650  .debug_str:0000000000025714 .LASF5575
     /tmp/ccut0Zoi.s:99086  .debug_str:000000000002f7ab .LASF5576
     /tmp/ccut0Zoi.s:90278  .debug_str:000000000000bade .LASF5577
     /tmp/ccut0Zoi.s:96818  .debug_str:0000000000026203 .LASF5578
     /tmp/ccut0Zoi.s:97892  .debug_str:000000000002a89d .LASF5579
     /tmp/ccut0Zoi.s:102496  .debug_str:000000000003d29b .LASF5580
     /tmp/ccut0Zoi.s:94592  .debug_str:000000000001d1dc .LASF5581
     /tmp/ccut0Zoi.s:99652  .debug_str:0000000000031cfc .LASF5582
     /tmp/ccut0Zoi.s:95774  .debug_str:0000000000022207 .LASF5583
     /tmp/ccut0Zoi.s:89792  .debug_str:00000000000098f2 .LASF5584
     /tmp/ccut0Zoi.s:104474  .debug_str:00000000000455c2 .LASF5585
     /tmp/ccut0Zoi.s:91238  .debug_str:000000000000f504 .LASF5586
     /tmp/ccut0Zoi.s:92504  .debug_str:0000000000014528 .LASF5587
     /tmp/ccut0Zoi.s:94236  .debug_str:000000000001b940 .LASF5588
     /tmp/ccut0Zoi.s:98398  .debug_str:000000000002c976 .LASF5589
     /tmp/ccut0Zoi.s:99344  .debug_str:00000000000308ef .LASF5590
     /tmp/ccut0Zoi.s:104878  .debug_str:0000000000047062 .LASF5591
     /tmp/ccut0Zoi.s:94782  .debug_str:000000000001de91 .LASF5592
     /tmp/ccut0Zoi.s:92982  .debug_str:00000000000163e1 .LASF5593
     /tmp/ccut0Zoi.s:104210  .debug_str:000000000004445b .LASF5594
     /tmp/ccut0Zoi.s:102374  .debug_str:000000000003caab .LASF5595
     /tmp/ccut0Zoi.s:93546  .debug_str:00000000000188d6 .LASF5596
     /tmp/ccut0Zoi.s:90536  .debug_str:000000000000cc6f .LASF5597
     /tmp/ccut0Zoi.s:95882  .debug_str:000000000002294f .LASF5598
     /tmp/ccut0Zoi.s:89934  .debug_str:000000000000a286 .LASF5599
     /tmp/ccut0Zoi.s:96750  .debug_str:0000000000025ce7 .LASF5600
     /tmp/ccut0Zoi.s:89680  .debug_str:000000000000914b .LASF5601
     /tmp/ccut0Zoi.s:92658  .debug_str:0000000000014f2b .LASF5602
     /tmp/ccut0Zoi.s:98104  .debug_str:000000000002b63e .LASF5603
     /tmp/ccut0Zoi.s:88956  .debug_str:00000000000060d3 .LASF5604
     /tmp/ccut0Zoi.s:98564  .debug_str:000000000002d4d6 .LASF5605
     /tmp/ccut0Zoi.s:103712  .debug_str:00000000000424e1 .LASF5606
     /tmp/ccut0Zoi.s:88492  .debug_str:00000000000041a9 .LASF5607
     /tmp/ccut0Zoi.s:88984  .debug_str:00000000000062b5 .LASF5608
     /tmp/ccut0Zoi.s:90270  .debug_str:000000000000ba26 .LASF5609
     /tmp/ccut0Zoi.s:90598  .debug_str:000000000000d076 .LASF5610
     /tmp/ccut0Zoi.s:102106  .debug_str:000000000003b92a .LASF5611
     /tmp/ccut0Zoi.s:88486  .debug_str:0000000000004112 .LASF5612
     /tmp/ccut0Zoi.s:101286  .debug_str:0000000000038103 .LASF5613
     /tmp/ccut0Zoi.s:103860  .debug_str:0000000000042dd1 .LASF5614
     /tmp/ccut0Zoi.s:97216  .debug_str:0000000000027d48 .LASF5615
     /tmp/ccut0Zoi.s:101358  .debug_str:00000000000385d8 .LASF5616
     /tmp/ccut0Zoi.s:96214  .debug_str:0000000000023e53 .LASF5617
     /tmp/ccut0Zoi.s:101278  .debug_str:00000000000380a5 .LASF5618
     /tmp/ccut0Zoi.s:97552  .debug_str:0000000000029294 .LASF5619
     /tmp/ccut0Zoi.s:103216  .debug_str:000000000004030e .LASF5620
     /tmp/ccut0Zoi.s:90164  .debug_str:000000000000b350 .LASF5621
     /tmp/ccut0Zoi.s:89502  .debug_str:0000000000008570 .LASF5622
     /tmp/ccut0Zoi.s:96606  .debug_str:0000000000025418 .LASF5623
     /tmp/ccut0Zoi.s:87986  .debug_str:0000000000001da3 .LASF5624
     /tmp/ccut0Zoi.s:96428  .debug_str:0000000000024819 .LASF5625
     /tmp/ccut0Zoi.s:96524  .debug_str:0000000000024e2a .LASF5626
     /tmp/ccut0Zoi.s:99612  .debug_str:0000000000031b14 .LASF5627
                           .group:0000000000000000 wm4.0.2cde0bba310258ac5fb120644dc52a54
                           .group:0000000000000000 wm4.stddef.h.39.a38874c8f8a57e66301090908ec2a69f
                           .group:0000000000000000 wm4.stdbool.h.29.07dce69c3b78884144b7f7bd19483461
                           .group:0000000000000000 wm4._newlib_version.h.4.9ba035841e762c3308916a0ce96032e7
                           .group:0000000000000000 wm4.features.h.33.318b64d71e0957639cfb30f1db1f7ec8
                           .group:0000000000000000 wm4._default_types.h.15.61e9869194cab90bdfa4c7fc42203a0e
                           .group:0000000000000000 wm4._intsup.h.10.b28b45fc63caeb010c3f7ee592257700
                           .group:0000000000000000 wm4._stdint.h.10.c24fa3af3bc1706662bb5593a907e841
                           .group:0000000000000000 wm4.stdint.h.23.d53047a68f4a85177f80b422d52785ed
                           .group:0000000000000000 wm4.mss_assert.h.10.09559128d1f6dbd833ab24347e71c76c
                           .group:0000000000000000 wm4.mss_legacy_defines.h.20.594d5f03b0f5314e3b2e801d98173479
                           .group:0000000000000000 wm4.mss_ddr_defs.h.18.58f9a87b5146acaefd5d9382d54140ba
                           .group:0000000000000000 wm4.mss_sysreg.h.19.614456a035a0cca3fd9d4348b0740228
                           .group:0000000000000000 wm4.mss_ddr_sgmii_regs.h.5543.4c565db9c25f7d4b45bd9b264c475c73
                           .group:0000000000000000 wm4.mss_io_config.h.18.b70207dea5a59bac7da73ad6eee375d0
                           .group:0000000000000000 wm4.mss_pll.h.192.d6d9146a5a36ce9e7f6a5ae2e7816970
                           .group:0000000000000000 wm4.mss_scb_nwc_regs.h.19.92192026ece1a0bf26c7a7af9a56e40a
                           .group:0000000000000000 wm4.mss_sw_config.h.37.2f79a8233593e640cb9660b9e2020907
                           .group:0000000000000000 wm4.atomic.h.33.7c17fdf64e267483cec1d3aead0473f4
                           .group:0000000000000000 wm4.bits.h.32.2ced66ae3bdb7651edf1ccfb67de7b38
                           .group:0000000000000000 wm4.encoding.h.34.68f898bac6356b153788044b6c29d177
                           .group:0000000000000000 wm4.fpga_design_config.h.28.572b3893a09debe9cb72c1441369aee0
                           .group:0000000000000000 wm4.hw_memory.h.28.20599cf485f90ffaa97f313798a86238
                           .group:0000000000000000 wm4.hw_apb_split.h.28.a2537f445f7a8784a4f064a3a60be381
                           .group:0000000000000000 wm4.hw_cache.h.28.aa59d0803f1283c480a862ba52ff4d4f
                           .group:0000000000000000 wm4.hw_pmp_hart0.h.28.354eeff78ff2eb91d2783e01dbe4e5a4
                           .group:0000000000000000 wm4.hw_pmp_hart1.h.28.0ab9e64d9d5e4b3cdd2ef9fae2ec18f2
                           .group:0000000000000000 wm4.hw_pmp_hart2.h.28.361fe83e7fd64067a0988f3e9bcd6e5d
                           .group:0000000000000000 wm4.hw_pmp_hart3.h.28.8c3eca8078d58a4979d23ae7fc3ceb35
                           .group:0000000000000000 wm4.hw_pmp_hart4.h.28.f8bf6b50f09effab3f4dfc16a44d5d0e
                           .group:0000000000000000 wm4.hw_mpu_fic0.h.28.3a719367ee0b56c20c7541cca5239296
                           .group:0000000000000000 wm4.hw_mpu_fic1.h.28.35d3b72b131707dc62529924d8a0d281
                           .group:0000000000000000 wm4.hw_mpu_fic2.h.28.88b1cd488fc04fd09199876067a670cb
                           .group:0000000000000000 wm4.hw_mpu_crypto.h.28.45628d14bd81b7ae15853711bd55f118
                           .group:0000000000000000 wm4.hw_mpu_gem0.h.28.e88b73a77e588162ac08b038acfe3e30
                           .group:0000000000000000 wm4.hw_mpu_gem1.h.28.dadc3a640dcfb61a8f24791560fa3605
                           .group:0000000000000000 wm4.hw_mpu_usb.h.28.0b0c25c65da87670d72dffa8e9b51ad6
                           .group:0000000000000000 wm4.hw_mpu_mmc.h.28.a5df85f7a87dfaafd939c0c9743b44a9
                           .group:0000000000000000 wm4.hw_mpu_scb.h.28.2b778d620a29a13b1a33733b3fefaf3e
                           .group:0000000000000000 wm4.hw_mpu_trace.h.28.dbb150e27983d45d78ea646dfe7486fe
                           .group:0000000000000000 wm4.hw_mssio_mux.h.28.b18396e0f5e6c83835b3b8e1dfadc1b4
                           .group:0000000000000000 wm4.hw_hsio_mux.h.28.924a66a0f83f27c24767fbfdaffeb21f
                           .group:0000000000000000 wm4.hw_sgmii_tip.h.28.c2c656c87ab558ebf9f510f55b530997
                           .group:0000000000000000 wm4.hw_ddr_options.h.28.583107ebf3250a7e99a4e34ca34040f9
                           .group:0000000000000000 wm4.hw_ddr_io_bank.h.28.09e373f4be71534c2b0bf629a50788a8
                           .group:0000000000000000 wm4.hw_ddr_mode.h.28.3ecff7868bb6c2027433e8aaf3a6e9d0
                           .group:0000000000000000 wm4.hw_ddr_off_mode.h.28.c8f0d4bcf68d083d8ff0335e558930e9
                           .group:0000000000000000 wm4.hw_ddr_segs.h.28.93c530a254cc8a9c015d0bae044125b2
                           .group:0000000000000000 wm4.hw_ddrc.h.28.d858943fbdd3e7761d52c974b21ea425
                           .group:0000000000000000 wm4.hw_mss_clks.h.28.53b1f012440894624f35e610477ed6d8
                           .group:0000000000000000 wm4.hw_clk_sysreg.h.28.adf2eb2b08eeb2ee56f6129328388395
                           .group:0000000000000000 wm4.hw_clk_mss_pll.h.28.f255323a7f4276a824501e07bd0f464a
                           .group:0000000000000000 wm4.hw_clk_sgmii_pll.h.28.b1aefe04f9cda949aee4586f0025e039
                           .group:0000000000000000 wm4.hw_clk_ddr_pll.h.28.8f0ed359dbfb59ae6f0aa1f29002d60d
                           .group:0000000000000000 wm4.hw_clk_mss_cfm.h.28.365f11189fcbf1e2f08db25b2ea1557a
                           .group:0000000000000000 wm4.hw_clk_sgmii_cfm.h.28.f59fda78ad3b4981ccbc9fbc0d90ca0a
                           .group:0000000000000000 wm4.hw_gen_peripherals.h.28.67a363af3ea61147ac365f904e7b6183
                           .group:0000000000000000 wm4.mss_ddr.h.335.a7fe38050b0f6ce3ee0df6f9cb324a9e
                           .group:0000000000000000 wm4.mss_clint.h.28.3d2c636f4c8175d64797a2e961db02ff
                           .group:0000000000000000 wm4.mss_h2f.h.21.7086260854010c63b41a469cd9f7486d
                           .group:0000000000000000 wm4.mss_hart_ints.h.20.df914e6570bee6a0a5e5635d9329f21b
                           .group:0000000000000000 wm4.mss_mpu.h.20.dd1fa2a8702d0e819fbbb263dc6428d1
                           .group:0000000000000000 wm4.mss_pmp.h.19.8f83d750289fe5e95625891444a65774
                           .group:0000000000000000 wm4.mss_plic.h.38.63bddd8b7aeec5445a0ab9c829719734
                           .group:0000000000000000 wm4.mss_seg.h.38.d7fedb2c993ff2eb58c3c1c5f57af66f
                           .group:0000000000000000 wm4.mss_util.h.31.57922375d48cf596b0783b975bb89aba
                           .group:0000000000000000 wm4.mss_mtrap.h.32.75bfcc4d9a15120a34cb2ee456cde55a
                           .group:0000000000000000 wm4.mss_l2_cache.h.430.934410ee5d62996f3b8869a34907e316
                           .group:0000000000000000 wm4.mss_axiswitch.h.110.fc13072c0144cbd8e516d1d4f8c599b2
                           .group:0000000000000000 wm4.mss_peripherals.h.19.9837bc1f8d1c62dfd266b4590a8830b2
                           .group:0000000000000000 wm4.mss_cfm.h.20.474baf099ef6f60b14912c934c5e47c6
                           .group:0000000000000000 wm4.mss_sgmii.h.18.7850ab5b5e05dabb42db8143f362bae8
                           .group:0000000000000000 wm4.system_startup.h.17.372727b49fdab2e286123d13f6b6542a
                           .group:0000000000000000 wm4.mss_ddr_debug.h.40.79a83a45aea2f09f97e5663e254e5e65

UNDEFINED SYMBOLS
plic_hart_lookup
PLIC_Invalid_IRQHandler
PLIC_l2_metadata_corr_IRQHandler
PLIC_l2_metadata_uncorr_IRQHandler
PLIC_l2_data_corr_IRQHandler
PLIC_l2_data_uncorr_IRQHandler
PLIC_dma_ch0_DONE_IRQHandler
PLIC_dma_ch0_ERR_IRQHandler
PLIC_dma_ch1_DONE_IRQHandler
PLIC_dma_ch1_ERR_IRQHandler
PLIC_dma_ch2_DONE_IRQHandler
PLIC_dma_ch2_ERR_IRQHandler
PLIC_dma_ch3_DONE_IRQHandler
PLIC_dma_ch3_ERR_IRQHandler
PLIC_gpio0_bit0_or_gpio2_bit13_IRQHandler
PLIC_gpio0_bit1_or_gpio2_bit13_IRQHandler
PLIC_gpio0_bit2_or_gpio2_bit13_IRQHandler
PLIC_gpio0_bit3_or_gpio2_bit13_IRQHandler
PLIC_gpio0_bit4_or_gpio2_bit13_IRQHandler
PLIC_gpio0_bit5_or_gpio2_bit13_IRQHandler
PLIC_gpio0_bit6_or_gpio2_bit13_IRQHandler
PLIC_gpio0_bit7_or_gpio2_bit13_IRQHandler
PLIC_gpio0_bit8_or_gpio2_bit13_IRQHandler
PLIC_gpio0_bit9_or_gpio2_bit13_IRQHandler
PLIC_gpio0_bit10_or_gpio2_bit13_IRQHandler
PLIC_gpio0_bit11_or_gpio2_bit13_IRQHandler
PLIC_gpio0_bit12_or_gpio2_bit13_IRQHandler
PLIC_gpio0_bit13_or_gpio2_bit13_IRQHandler
PLIC_gpio1_bit0_or_gpio2_bit14_IRQHandler
PLIC_gpio1_bit1_or_gpio2_bit15_IRQHandler
PLIC_gpio1_bit2_or_gpio2_bit16_IRQHandler
PLIC_gpio1_bit3_or_gpio2_bit17_IRQHandler
PLIC_gpio1_bit4_or_gpio2_bit18_IRQHandler
PLIC_gpio1_bit5_or_gpio2_bit19_IRQHandler
PLIC_gpio1_bit6_or_gpio2_bit20_IRQHandler
PLIC_gpio1_bit7_or_gpio2_bit21_IRQHandler
PLIC_gpio1_bit8_or_gpio2_bit22_IRQHandler
PLIC_gpio1_bit9_or_gpio2_bit23_IRQHandler
PLIC_gpio1_bit10_or_gpio2_bit24_IRQHandler
PLIC_gpio1_bit11_or_gpio2_bit25_IRQHandler
PLIC_gpio1_bit12_or_gpio2_bit26_IRQHandler
PLIC_gpio1_bit13_or_gpio2_bit27_IRQHandler
PLIC_gpio1_bit14_or_gpio2_bit28_IRQHandler
PLIC_gpio1_bit15_or_gpio2_bit29_IRQHandler
PLIC_gpio1_bit16_or_gpio2_bit30_IRQHandler
PLIC_gpio1_bit17_or_gpio2_bit31_IRQHandler
PLIC_gpio1_bit18_IRQHandler
PLIC_gpio1_bit19_IRQHandler
PLIC_gpio1_bit20_IRQHandler
PLIC_gpio1_bit21_IRQHandler
PLIC_gpio1_bit22_IRQHandler
PLIC_gpio1_bit23_IRQHandler
PLIC_gpio0_non_direct_IRQHandler
PLIC_gpio1_non_direct_IRQHandler
PLIC_gpio2_non_direct_IRQHandler
PLIC_spi0_IRQHandler
PLIC_spi1_IRQHandler
PLIC_external_can0_IRQHandler
PLIC_can1_IRQHandler
PLIC_External_i2c0_main_IRQHandler
PLIC_External_i2c0_alert_IRQHandler
PLIC_i2c0_sus_IRQHandler
PLIC_i2c1_main_IRQHandler
PLIC_i2c1_alert_IRQHandler
PLIC_i2c1_sus_IRQHandler
PLIC_mac0_int_IRQHandler
PLIC_mac0_queue1_IRQHandler
PLIC_mac0_queue2_IRQHandler
PLIC_mac0_queue3_IRQHandler
PLIC_mac0_emac_IRQHandler
PLIC_mac0_mmsl_IRQHandler
PLIC_mac1_int_IRQHandler
PLIC_mac1_queue1_IRQHandler
PLIC_mac1_queue2_IRQHandler
PLIC_mac1_queue3_IRQHandler
PLIC_mac1_emac_IRQHandler
PLIC_mac1_mmsl_IRQHandler
PLIC_ddrc_train_IRQHandler
PLIC_scb_interrupt_IRQHandler
PLIC_ecc_error_IRQHandler
PLIC_ecc_correct_IRQHandler
PLIC_rtc_wakeup_IRQHandler
PLIC_rtc_match_IRQHandler
PLIC_timer1_IRQHandler
PLIC_timer2_IRQHandler
PLIC_envm_IRQHandler
PLIC_qspi_IRQHandler
PLIC_usb_dma_IRQHandler
PLIC_usb_mc_IRQHandler
PLIC_mmc_main_IRQHandler
PLIC_mmc_wakeup_IRQHandler
PLIC_mmuart0_IRQHandler
PLIC_mmuart1_IRQHandler
PLIC_mmuart2_IRQHandler
PLIC_mmuart3_IRQHandler
PLIC_mmuart4_IRQHandler
PLIC_devrst_IRQHandler
PLIC_g5c_message_IRQHandler
PLIC_usoc_vc_interrupt_IRQHandler
PLIC_usoc_smb_interrupt_IRQHandler
PLIC_E51_Maintence_IRQHandler
PLIC_wdog0_mvrp_IRQHandler
PLIC_wdog1_mvrp_IRQHandler
PLIC_wdog2_mvrp_IRQHandler
PLIC_wdog3_mvrp_IRQHandler
PLIC_wdog4_mvrp_IRQHandler
PLIC_wdog0_tout_IRQHandler
PLIC_wdog1_tout_IRQHandler
PLIC_wdog2_tout_IRQHandler
PLIC_wdog3_tout_IRQHandler
PLIC_wdog4_tout_IRQHandler
PLIC_g5c_mss_spi_IRQHandler
PLIC_volt_temp_alarm_IRQHandler
PLIC_athena_complete_IRQHandler
PLIC_athena_alarm_IRQHandler
PLIC_athena_bus_error_IRQHandler
PLIC_usoc_axic_us_IRQHandler
PLIC_usoc_axic_ds_IRQHandler
PLIC_reserved_104_IRQHandler
PLIC_f2m_0_IRQHandler
PLIC_f2m_1_IRQHandler
PLIC_f2m_2_IRQHandler
PLIC_f2m_3_IRQHandler
PLIC_f2m_4_IRQHandler
PLIC_f2m_5_IRQHandler
PLIC_f2m_6_IRQHandler
PLIC_f2m_7_IRQHandler
PLIC_f2m_8_IRQHandler
PLIC_f2m_9_IRQHandler
PLIC_f2m_10_IRQHandler
PLIC_f2m_11_IRQHandler
PLIC_f2m_12_IRQHandler
PLIC_f2m_13_IRQHandler
PLIC_f2m_14_IRQHandler
PLIC_f2m_15_IRQHandler
PLIC_f2m_16_IRQHandler
PLIC_f2m_17_IRQHandler
PLIC_f2m_18_IRQHandler
PLIC_f2m_19_IRQHandler
PLIC_f2m_20_IRQHandler
PLIC_f2m_21_IRQHandler
PLIC_f2m_22_IRQHandler
PLIC_f2m_23_IRQHandler
PLIC_f2m_24_IRQHandler
PLIC_f2m_25_IRQHandler
PLIC_f2m_26_IRQHandler
PLIC_f2m_27_IRQHandler
PLIC_f2m_28_IRQHandler
PLIC_f2m_29_IRQHandler
PLIC_f2m_30_IRQHandler
PLIC_f2m_31_IRQHandler
PLIC_f2m_32_IRQHandler
PLIC_f2m_33_IRQHandler
PLIC_f2m_34_IRQHandler
PLIC_f2m_35_IRQHandler
PLIC_f2m_36_IRQHandler
PLIC_f2m_37_IRQHandler
PLIC_f2m_38_IRQHandler
PLIC_f2m_39_IRQHandler
PLIC_f2m_40_IRQHandler
PLIC_f2m_41_IRQHandler
PLIC_f2m_42_IRQHandler
PLIC_f2m_43_IRQHandler
PLIC_f2m_44_IRQHandler
PLIC_f2m_45_IRQHandler
PLIC_f2m_46_IRQHandler
PLIC_f2m_47_IRQHandler
PLIC_f2m_48_IRQHandler
PLIC_f2m_49_IRQHandler
PLIC_f2m_50_IRQHandler
PLIC_f2m_51_IRQHandler
PLIC_f2m_52_IRQHandler
PLIC_f2m_53_IRQHandler
PLIC_f2m_54_IRQHandler
PLIC_f2m_55_IRQHandler
PLIC_f2m_56_IRQHandler
PLIC_f2m_57_IRQHandler
PLIC_f2m_58_IRQHandler
PLIC_f2m_59_IRQHandler
PLIC_f2m_60_IRQHandler
PLIC_f2m_61_IRQHandler
PLIC_f2m_62_IRQHandler
PLIC_f2m_63_IRQHandler
PLIC_E51_bus_error_unit_IRQHandler
PLIC_U54_1_bus_error_unit_IRQHandler
PLIC_U54_2_bus_error_unit_IRQHandler
PLIC_U54_3_bus_error_unit_IRQHandler
PLIC_U54_4_bus_error_unit_IRQHandler
E51_maintenance_local_IRQHandler
E51_usoc_smb_local_IRQHandler
E51_usoc_vc_local_IRQHandler
E51_g5c_message_local_IRQHandler
E51_g5c_devrst_local_IRQHandler
E51_wdog4_tout_local_IRQHandler
E51_wdog3_tout_local_IRQHandler
E51_wdog2_tout_local_IRQHandler
E51_wdog1_tout_local_IRQHandler
E51_wdog0_tout_local_IRQHandler
E51_wdog0_mvrp_local_IRQHandler
E51_mmuart0_local_IRQHandler
E51_envm_local_IRQHandler
E51_ecc_correct_local_IRQHandler
E51_ecc_error_local_IRQHandler
E51_scb_local_IRQHandler
E51_f2m_32_local_IRQHandler
E51_f2m_33_local_IRQHandler
E51_f2m_34_local_IRQHandler
E51_f2m_35_local_IRQHandler
E51_f2m_36_local_IRQHandler
E51_f2m_37_local_IRQHandler
E51_f2m_38_local_IRQHandler
E51_f2m_39_local_IRQHandler
E51_f2m_40_local_IRQHandler
E51_f2m_41_local_IRQHandler
E51_f2m_42_local_IRQHandler
E51_f2m_43_local_IRQHandler
E51_f2m_44_local_IRQHandler
E51_f2m_45_local_IRQHandler
E51_f2m_46_local_IRQHandler
E51_f2m_47_local_IRQHandler
E51_f2m_48_local_IRQHandler
E51_f2m_49_local_IRQHandler
E51_f2m_50_local_IRQHandler
E51_f2m_51_local_IRQHandler
E51_f2m_52_local_IRQHandler
E51_f2m_53_local_IRQHandler
E51_f2m_54_local_IRQHandler
E51_f2m_55_local_IRQHandler
E51_f2m_56_local_IRQHandler
E51_f2m_57_local_IRQHandler
E51_f2m_58_local_IRQHandler
E51_f2m_59_local_IRQHandler
E51_f2m_60_local_IRQHandler
E51_f2m_61_local_IRQHandler
E51_f2m_62_local_IRQHandler
E51_f2m_63_local_IRQHandler
U54_spare_0_local_IRQHandler
U54_spare_1_local_IRQHandler
U54_spare_2_local_IRQHandler
U54_1_mac0_mmsl_local_IRQHandler
U54_1_mac0_emac_local_IRQHandler
U54_1_mac0_queue3_local_IRQHandler
U54_1_mac0_queue2_local_IRQHandler
U54_1_mac0_queue1_local_IRQHandler
U54_1_mac0_int_local_IRQHandler
U54_1_wdog_tout_local_IRQHandler
U54_1_wdog_mvrp_local_IRQHandler
U54_1_mmuart1_local_IRQHandler
U54_spare_3_local_IRQHandler
U54_spare_4_local_IRQHandler
U54_spare_5_local_IRQHandler
U54_spare_6_local_IRQHandler
U54_f2m_0_local_IRQHandler
U54_f2m_1_local_IRQHandler
U54_f2m_2_local_IRQHandler
U54_f2m_3_local_IRQHandler
U54_f2m_4_local_IRQHandler
U54_f2m_5_local_IRQHandler
U54_f2m_6_local_IRQHandler
U54_f2m_7_local_IRQHandler
U54_f2m_8_local_IRQHandler
U54_f2m_9_local_IRQHandler
U54_f2m_10_local_IRQHandler
U54_f2m_11_local_IRQHandler
U54_f2m_12_local_IRQHandler
U54_f2m_13_local_IRQHandler
U54_f2m_14_local_IRQHandler
U54_f2m_15_local_IRQHandler
U54_f2m_16_local_IRQHandler
U54_f2m_17_local_IRQHandler
U54_f2m_18_local_IRQHandler
U54_f2m_19_local_IRQHandler
U54_f2m_20_local_IRQHandler
U54_f2m_21_local_IRQHandler
U54_f2m_22_local_IRQHandler
U54_f2m_23_local_IRQHandler
U54_f2m_24_local_IRQHandler
U54_f2m_25_local_IRQHandler
U54_f2m_26_local_IRQHandler
U54_f2m_27_local_IRQHandler
U54_f2m_28_local_IRQHandler
U54_f2m_29_local_IRQHandler
U54_f2m_30_local_IRQHandler
U54_f2m_31_local_IRQHandler
U54_2_mac0_mmsl_local_IRQHandler
U54_2_mac0_emac_local_IRQHandler
U54_2_mac0_queue3_local_IRQHandler
U54_2_mac0_queue2_local_IRQHandler
U54_2_mac0_queue1_local_IRQHandler
U54_2_mac0_int_local_IRQHandler
U54_2_wdog_tout_local_IRQHandler
U54_2_wdog_mvrp_local_IRQHandler
U54_2_mmuart2_local_IRQHandler
U54_3_mac1_mmsl_local_IRQHandler
U54_3_mac1_emac_local_IRQHandler
U54_3_mac1_queue3_local_IRQHandler
U54_3_mac1_queue2_local_IRQHandler
U54_3_mac1_queue1_local_IRQHandler
U54_3_mac1_int_local_IRQHandler
U54_3_wdog_tout_local_IRQHandler
U54_3_wdog_mvrp_local_IRQHandler
U54_3_mmuart3_local_IRQHandler
U54_4_mac1_mmsl_local_IRQHandler
U54_4_mac1_emac_local_IRQHandler
U54_4_mac1_queue3_local_IRQHandler
U54_4_mac1_queue2_local_IRQHandler
U54_4_mac1_queue1_local_IRQHandler
U54_4_mac1_int_local_IRQHandler
U54_4_wdog_tout_local_IRQHandler
U54_4_wdog_mvrp_local_IRQHandler
U54_4_mmuart4_local_IRQHandler
handle_m_soft_interrupt
handle_m_timer_interrupt
