   1              		.file	"mss_pmp.c"
   2              		.option nopic
   3              		.attribute arch, "rv64i2p0_m2p0_a2p0_f2p0_d2p0_c2p0"
   4              		.attribute unaligned_access, 0
   5              		.attribute stack_align, 16
   6              		.text
   7              	.Ltext0:
   8              		.cfi_sections	.debug_frame
   9              		.globl	pmp_values
  10              		.section	.rodata.pmp_values,"a"
  11              		.align	3
  14              	pmp_values:
  15 0000 00000000 		.dword	0
  15      00000000 
  16 0008 00000000 		.dword	0
  16      00000000 
  17 0010 00000000 		.dword	0
  17      00000000 
  18 0018 00000000 		.dword	0
  18      00000000 
  19 0020 00000000 		.dword	0
  19      00000000 
  20 0028 00000000 		.dword	0
  20      00000000 
  21 0030 00000000 		.dword	0
  21      00000000 
  22 0038 00000000 		.dword	0
  22      00000000 
  23 0040 00000000 		.dword	0
  23      00000000 
  24 0048 00000000 		.dword	0
  24      00000000 
  25 0050 00000000 		.dword	0
  25      00000000 
  26 0058 00000000 		.dword	0
  26      00000000 
  27 0060 00000000 		.dword	0
  27      00000000 
  28 0068 00000000 		.dword	0
  28      00000000 
  29 0070 00000000 		.dword	0
  29      00000000 
  30 0078 00000000 		.dword	0
  30      00000000 
  31 0080 00000000 		.dword	0
  31      00000000 
  32 0088 00000000 		.dword	0
  32      00000000 
  33 0090 9F000000 		.dword	159
  33      00000000 
  34 0098 00000000 		.dword	0
  34      00000000 
  35 00a0 FFFFFFFF 		.dword	-1
  35      FFFFFFFF 
  36 00a8 00000000 		.dword	0
  36      00000000 
  37 00b0 00000000 		.dword	0
  37      00000000 
  38 00b8 00000000 		.dword	0
  38      00000000 
  39 00c0 00000000 		.dword	0
  39      00000000 
  40 00c8 00000000 		.dword	0
  40      00000000 
  41 00d0 00000000 		.dword	0
  41      00000000 
  42 00d8 00000000 		.dword	0
  42      00000000 
  43 00e0 00000000 		.dword	0
  43      00000000 
  44 00e8 00000000 		.dword	0
  44      00000000 
  45 00f0 00000000 		.dword	0
  45      00000000 
  46 00f8 00000000 		.dword	0
  46      00000000 
  47 0100 00000000 		.dword	0
  47      00000000 
  48 0108 00000000 		.dword	0
  48      00000000 
  49 0110 00000000 		.dword	0
  49      00000000 
  50 0118 00000000 		.dword	0
  50      00000000 
  51 0120 9F000000 		.dword	159
  51      00000000 
  52 0128 00000000 		.dword	0
  52      00000000 
  53 0130 FFFFFFFF 		.dword	-1
  53      FFFFFFFF 
  54 0138 00000000 		.dword	0
  54      00000000 
  55 0140 00000000 		.dword	0
  55      00000000 
  56 0148 00000000 		.dword	0
  56      00000000 
  57 0150 00000000 		.dword	0
  57      00000000 
  58 0158 00000000 		.dword	0
  58      00000000 
  59 0160 00000000 		.dword	0
  59      00000000 
  60 0168 00000000 		.dword	0
  60      00000000 
  61 0170 00000000 		.dword	0
  61      00000000 
  62 0178 00000000 		.dword	0
  62      00000000 
  63 0180 00000000 		.dword	0
  63      00000000 
  64 0188 00000000 		.dword	0
  64      00000000 
  65 0190 00000000 		.dword	0
  65      00000000 
  66 0198 00000000 		.dword	0
  66      00000000 
  67 01a0 00000000 		.dword	0
  67      00000000 
  68 01a8 00000000 		.dword	0
  68      00000000 
  69 01b0 9F000000 		.dword	159
  69      00000000 
  70 01b8 00000000 		.dword	0
  70      00000000 
  71 01c0 FFFFFFFF 		.dword	-1
  71      FFFFFFFF 
  72 01c8 00000000 		.dword	0
  72      00000000 
  73 01d0 00000000 		.dword	0
  73      00000000 
  74 01d8 00000000 		.dword	0
  74      00000000 
  75 01e0 00000000 		.dword	0
  75      00000000 
  76 01e8 00000000 		.dword	0
  76      00000000 
  77 01f0 00000000 		.dword	0
  77      00000000 
  78 01f8 00000000 		.dword	0
  78      00000000 
  79 0200 00000000 		.dword	0
  79      00000000 
  80 0208 00000000 		.dword	0
  80      00000000 
  81 0210 00000000 		.dword	0
  81      00000000 
  82 0218 00000000 		.dword	0
  82      00000000 
  83 0220 00000000 		.dword	0
  83      00000000 
  84 0228 00000000 		.dword	0
  84      00000000 
  85 0230 00000000 		.dword	0
  85      00000000 
  86 0238 00000000 		.dword	0
  86      00000000 
  87 0240 9F000000 		.dword	159
  87      00000000 
  88 0248 00000000 		.dword	0
  88      00000000 
  89 0250 FFFFFFFF 		.dword	-1
  89      FFFFFFFF 
  90 0258 00000000 		.dword	0
  90      00000000 
  91 0260 00000000 		.dword	0
  91      00000000 
  92 0268 00000000 		.dword	0
  92      00000000 
  93 0270 00000000 		.dword	0
  93      00000000 
  94 0278 00000000 		.dword	0
  94      00000000 
  95 0280 00000000 		.dword	0
  95      00000000 
  96 0288 00000000 		.dword	0
  96      00000000 
  97 0290 00000000 		.dword	0
  97      00000000 
  98 0298 00000000 		.dword	0
  98      00000000 
  99 02a0 00000000 		.dword	0
  99      00000000 
 100 02a8 00000000 		.dword	0
 100      00000000 
 101 02b0 00000000 		.dword	0
 101      00000000 
 102 02b8 00000000 		.dword	0
 102      00000000 
 103 02c0 00000000 		.dword	0
 103      00000000 
 104 02c8 00000000 		.dword	0
 104      00000000 
 105              		.section	.text.pmp_configure,"ax",@progbits
 106              		.align	1
 107              		.globl	pmp_configure
 109              	pmp_configure:
 110              	.LFB23:
 111              		.file 1 "../src/platform/mpfs_hal/common/mss_pmp.c"
   1:../src/platform/mpfs_hal/common/mss_pmp.c **** /*******************************************************************************
   2:../src/platform/mpfs_hal/common/mss_pmp.c ****  * Copyright 2019-2022 Microchip FPGA Embedded Systems Solutions.
   3:../src/platform/mpfs_hal/common/mss_pmp.c ****  *
   4:../src/platform/mpfs_hal/common/mss_pmp.c ****  * SPDX-License-Identifier: MIT
   5:../src/platform/mpfs_hal/common/mss_pmp.c ****  *
   6:../src/platform/mpfs_hal/common/mss_pmp.c ****  * MPFS HAL Embedded Software
   7:../src/platform/mpfs_hal/common/mss_pmp.c ****  *
   8:../src/platform/mpfs_hal/common/mss_pmp.c ****  */
   9:../src/platform/mpfs_hal/common/mss_pmp.c **** /*******************************************************************************
  10:../src/platform/mpfs_hal/common/mss_pmp.c ****  * @file mss_pmp.c
  11:../src/platform/mpfs_hal/common/mss_pmp.c ****  * @author Microchip-FPGA Embedded Systems Solutions
  12:../src/platform/mpfs_hal/common/mss_pmp.c ****  * @brief PolarFire SoC MSS PMP configuration using MSS configurator values.
  13:../src/platform/mpfs_hal/common/mss_pmp.c ****  *
  14:../src/platform/mpfs_hal/common/mss_pmp.c ****  */
  15:../src/platform/mpfs_hal/common/mss_pmp.c **** /*=========================================================================*//**
  16:../src/platform/mpfs_hal/common/mss_pmp.c **** 
  17:../src/platform/mpfs_hal/common/mss_pmp.c ****  *//*=========================================================================*/
  18:../src/platform/mpfs_hal/common/mss_pmp.c **** #include <stdio.h>
  19:../src/platform/mpfs_hal/common/mss_pmp.c **** #include <string.h>
  20:../src/platform/mpfs_hal/common/mss_pmp.c **** #include "mpfs_hal/mss_hal.h"
  21:../src/platform/mpfs_hal/common/mss_pmp.c **** 
  22:../src/platform/mpfs_hal/common/mss_pmp.c **** /**
  23:../src/platform/mpfs_hal/common/mss_pmp.c ****  * \brief PMP configuration from Libero
  24:../src/platform/mpfs_hal/common/mss_pmp.c ****  *
  25:../src/platform/mpfs_hal/common/mss_pmp.c ****  */
  26:../src/platform/mpfs_hal/common/mss_pmp.c **** const uint64_t pmp_values[][18] = {
  27:../src/platform/mpfs_hal/common/mss_pmp.c ****         /* hart 0 */
  28:../src/platform/mpfs_hal/common/mss_pmp.c ****         {LIBERO_SETTING_HART0_CSR_PMPCFG0,
  29:../src/platform/mpfs_hal/common/mss_pmp.c ****         LIBERO_SETTING_HART0_CSR_PMPCFG2,
  30:../src/platform/mpfs_hal/common/mss_pmp.c ****         LIBERO_SETTING_HART0_CSR_PMPADDR0,
  31:../src/platform/mpfs_hal/common/mss_pmp.c ****         LIBERO_SETTING_HART0_CSR_PMPADDR1,
  32:../src/platform/mpfs_hal/common/mss_pmp.c ****         LIBERO_SETTING_HART0_CSR_PMPADDR2,
  33:../src/platform/mpfs_hal/common/mss_pmp.c ****         LIBERO_SETTING_HART0_CSR_PMPADDR3,
  34:../src/platform/mpfs_hal/common/mss_pmp.c ****         LIBERO_SETTING_HART0_CSR_PMPADDR4,
  35:../src/platform/mpfs_hal/common/mss_pmp.c ****         LIBERO_SETTING_HART0_CSR_PMPADDR5,
  36:../src/platform/mpfs_hal/common/mss_pmp.c ****         LIBERO_SETTING_HART0_CSR_PMPADDR6,
  37:../src/platform/mpfs_hal/common/mss_pmp.c ****         LIBERO_SETTING_HART0_CSR_PMPADDR7,
  38:../src/platform/mpfs_hal/common/mss_pmp.c ****         LIBERO_SETTING_HART0_CSR_PMPADDR8,
  39:../src/platform/mpfs_hal/common/mss_pmp.c ****         LIBERO_SETTING_HART0_CSR_PMPADDR9,
  40:../src/platform/mpfs_hal/common/mss_pmp.c ****         LIBERO_SETTING_HART0_CSR_PMPADDR10,
  41:../src/platform/mpfs_hal/common/mss_pmp.c ****         LIBERO_SETTING_HART0_CSR_PMPADDR11,
  42:../src/platform/mpfs_hal/common/mss_pmp.c ****         LIBERO_SETTING_HART0_CSR_PMPADDR12,
  43:../src/platform/mpfs_hal/common/mss_pmp.c ****         LIBERO_SETTING_HART0_CSR_PMPADDR13,
  44:../src/platform/mpfs_hal/common/mss_pmp.c ****         LIBERO_SETTING_HART0_CSR_PMPADDR14,
  45:../src/platform/mpfs_hal/common/mss_pmp.c ****         LIBERO_SETTING_HART0_CSR_PMPADDR15},
  46:../src/platform/mpfs_hal/common/mss_pmp.c ****         /* hart 1 */
  47:../src/platform/mpfs_hal/common/mss_pmp.c ****         {LIBERO_SETTING_HART1_CSR_PMPCFG0,
  48:../src/platform/mpfs_hal/common/mss_pmp.c ****         LIBERO_SETTING_HART1_CSR_PMPCFG2,
  49:../src/platform/mpfs_hal/common/mss_pmp.c ****         LIBERO_SETTING_HART1_CSR_PMPADDR0,
  50:../src/platform/mpfs_hal/common/mss_pmp.c ****         LIBERO_SETTING_HART1_CSR_PMPADDR1,
  51:../src/platform/mpfs_hal/common/mss_pmp.c ****         LIBERO_SETTING_HART1_CSR_PMPADDR2,
  52:../src/platform/mpfs_hal/common/mss_pmp.c ****         LIBERO_SETTING_HART1_CSR_PMPADDR3,
  53:../src/platform/mpfs_hal/common/mss_pmp.c ****         LIBERO_SETTING_HART1_CSR_PMPADDR4,
  54:../src/platform/mpfs_hal/common/mss_pmp.c ****         LIBERO_SETTING_HART1_CSR_PMPADDR5,
  55:../src/platform/mpfs_hal/common/mss_pmp.c ****         LIBERO_SETTING_HART1_CSR_PMPADDR6,
  56:../src/platform/mpfs_hal/common/mss_pmp.c ****         LIBERO_SETTING_HART1_CSR_PMPADDR7,
  57:../src/platform/mpfs_hal/common/mss_pmp.c ****         LIBERO_SETTING_HART1_CSR_PMPADDR8,
  58:../src/platform/mpfs_hal/common/mss_pmp.c ****         LIBERO_SETTING_HART1_CSR_PMPADDR9,
  59:../src/platform/mpfs_hal/common/mss_pmp.c ****         LIBERO_SETTING_HART1_CSR_PMPADDR10,
  60:../src/platform/mpfs_hal/common/mss_pmp.c ****         LIBERO_SETTING_HART1_CSR_PMPADDR11,
  61:../src/platform/mpfs_hal/common/mss_pmp.c ****         LIBERO_SETTING_HART1_CSR_PMPADDR12,
  62:../src/platform/mpfs_hal/common/mss_pmp.c ****         LIBERO_SETTING_HART1_CSR_PMPADDR13,
  63:../src/platform/mpfs_hal/common/mss_pmp.c ****         LIBERO_SETTING_HART1_CSR_PMPADDR14,
  64:../src/platform/mpfs_hal/common/mss_pmp.c ****         LIBERO_SETTING_HART1_CSR_PMPADDR15},
  65:../src/platform/mpfs_hal/common/mss_pmp.c ****         /* hart 2 */
  66:../src/platform/mpfs_hal/common/mss_pmp.c ****         {LIBERO_SETTING_HART2_CSR_PMPCFG0,
  67:../src/platform/mpfs_hal/common/mss_pmp.c ****         LIBERO_SETTING_HART2_CSR_PMPCFG2,
  68:../src/platform/mpfs_hal/common/mss_pmp.c ****         LIBERO_SETTING_HART2_CSR_PMPADDR0,
  69:../src/platform/mpfs_hal/common/mss_pmp.c ****         LIBERO_SETTING_HART2_CSR_PMPADDR1,
  70:../src/platform/mpfs_hal/common/mss_pmp.c ****         LIBERO_SETTING_HART2_CSR_PMPADDR2,
  71:../src/platform/mpfs_hal/common/mss_pmp.c ****         LIBERO_SETTING_HART2_CSR_PMPADDR3,
  72:../src/platform/mpfs_hal/common/mss_pmp.c ****         LIBERO_SETTING_HART2_CSR_PMPADDR4,
  73:../src/platform/mpfs_hal/common/mss_pmp.c ****         LIBERO_SETTING_HART2_CSR_PMPADDR5,
  74:../src/platform/mpfs_hal/common/mss_pmp.c ****         LIBERO_SETTING_HART2_CSR_PMPADDR6,
  75:../src/platform/mpfs_hal/common/mss_pmp.c ****         LIBERO_SETTING_HART2_CSR_PMPADDR7,
  76:../src/platform/mpfs_hal/common/mss_pmp.c ****         LIBERO_SETTING_HART2_CSR_PMPADDR8,
  77:../src/platform/mpfs_hal/common/mss_pmp.c ****         LIBERO_SETTING_HART2_CSR_PMPADDR9,
  78:../src/platform/mpfs_hal/common/mss_pmp.c ****         LIBERO_SETTING_HART2_CSR_PMPADDR10,
  79:../src/platform/mpfs_hal/common/mss_pmp.c ****         LIBERO_SETTING_HART2_CSR_PMPADDR11,
  80:../src/platform/mpfs_hal/common/mss_pmp.c ****         LIBERO_SETTING_HART2_CSR_PMPADDR12,
  81:../src/platform/mpfs_hal/common/mss_pmp.c ****         LIBERO_SETTING_HART2_CSR_PMPADDR13,
  82:../src/platform/mpfs_hal/common/mss_pmp.c ****         LIBERO_SETTING_HART2_CSR_PMPADDR14,
  83:../src/platform/mpfs_hal/common/mss_pmp.c ****         LIBERO_SETTING_HART2_CSR_PMPADDR15},
  84:../src/platform/mpfs_hal/common/mss_pmp.c ****         /* hart 3 */
  85:../src/platform/mpfs_hal/common/mss_pmp.c ****         {LIBERO_SETTING_HART3_CSR_PMPCFG0,
  86:../src/platform/mpfs_hal/common/mss_pmp.c ****         LIBERO_SETTING_HART3_CSR_PMPCFG2,
  87:../src/platform/mpfs_hal/common/mss_pmp.c ****         LIBERO_SETTING_HART3_CSR_PMPADDR0,
  88:../src/platform/mpfs_hal/common/mss_pmp.c ****         LIBERO_SETTING_HART3_CSR_PMPADDR1,
  89:../src/platform/mpfs_hal/common/mss_pmp.c ****         LIBERO_SETTING_HART3_CSR_PMPADDR2,
  90:../src/platform/mpfs_hal/common/mss_pmp.c ****         LIBERO_SETTING_HART3_CSR_PMPADDR3,
  91:../src/platform/mpfs_hal/common/mss_pmp.c ****         LIBERO_SETTING_HART3_CSR_PMPADDR4,
  92:../src/platform/mpfs_hal/common/mss_pmp.c ****         LIBERO_SETTING_HART3_CSR_PMPADDR5,
  93:../src/platform/mpfs_hal/common/mss_pmp.c ****         LIBERO_SETTING_HART3_CSR_PMPADDR6,
  94:../src/platform/mpfs_hal/common/mss_pmp.c ****         LIBERO_SETTING_HART3_CSR_PMPADDR7,
  95:../src/platform/mpfs_hal/common/mss_pmp.c ****         LIBERO_SETTING_HART3_CSR_PMPADDR8,
  96:../src/platform/mpfs_hal/common/mss_pmp.c ****         LIBERO_SETTING_HART3_CSR_PMPADDR9,
  97:../src/platform/mpfs_hal/common/mss_pmp.c ****         LIBERO_SETTING_HART3_CSR_PMPADDR10,
  98:../src/platform/mpfs_hal/common/mss_pmp.c ****         LIBERO_SETTING_HART3_CSR_PMPADDR11,
  99:../src/platform/mpfs_hal/common/mss_pmp.c ****         LIBERO_SETTING_HART3_CSR_PMPADDR12,
 100:../src/platform/mpfs_hal/common/mss_pmp.c ****         LIBERO_SETTING_HART3_CSR_PMPADDR13,
 101:../src/platform/mpfs_hal/common/mss_pmp.c ****         LIBERO_SETTING_HART3_CSR_PMPADDR14,
 102:../src/platform/mpfs_hal/common/mss_pmp.c ****         LIBERO_SETTING_HART3_CSR_PMPADDR15},
 103:../src/platform/mpfs_hal/common/mss_pmp.c ****         /* hart 4 */
 104:../src/platform/mpfs_hal/common/mss_pmp.c ****         {LIBERO_SETTING_HART4_CSR_PMPCFG0,
 105:../src/platform/mpfs_hal/common/mss_pmp.c ****         LIBERO_SETTING_HART4_CSR_PMPCFG2,
 106:../src/platform/mpfs_hal/common/mss_pmp.c ****         LIBERO_SETTING_HART4_CSR_PMPADDR0,
 107:../src/platform/mpfs_hal/common/mss_pmp.c ****         LIBERO_SETTING_HART4_CSR_PMPADDR1,
 108:../src/platform/mpfs_hal/common/mss_pmp.c ****         LIBERO_SETTING_HART4_CSR_PMPADDR2,
 109:../src/platform/mpfs_hal/common/mss_pmp.c ****         LIBERO_SETTING_HART4_CSR_PMPADDR3,
 110:../src/platform/mpfs_hal/common/mss_pmp.c ****         LIBERO_SETTING_HART4_CSR_PMPADDR4,
 111:../src/platform/mpfs_hal/common/mss_pmp.c ****         LIBERO_SETTING_HART4_CSR_PMPADDR5,
 112:../src/platform/mpfs_hal/common/mss_pmp.c ****         LIBERO_SETTING_HART4_CSR_PMPADDR6,
 113:../src/platform/mpfs_hal/common/mss_pmp.c ****         LIBERO_SETTING_HART4_CSR_PMPADDR7,
 114:../src/platform/mpfs_hal/common/mss_pmp.c ****         LIBERO_SETTING_HART4_CSR_PMPADDR8,
 115:../src/platform/mpfs_hal/common/mss_pmp.c ****         LIBERO_SETTING_HART4_CSR_PMPADDR9,
 116:../src/platform/mpfs_hal/common/mss_pmp.c ****         LIBERO_SETTING_HART4_CSR_PMPADDR10,
 117:../src/platform/mpfs_hal/common/mss_pmp.c ****         LIBERO_SETTING_HART4_CSR_PMPADDR11,
 118:../src/platform/mpfs_hal/common/mss_pmp.c ****         LIBERO_SETTING_HART4_CSR_PMPADDR12,
 119:../src/platform/mpfs_hal/common/mss_pmp.c ****         LIBERO_SETTING_HART4_CSR_PMPADDR13,
 120:../src/platform/mpfs_hal/common/mss_pmp.c ****         LIBERO_SETTING_HART4_CSR_PMPADDR14,
 121:../src/platform/mpfs_hal/common/mss_pmp.c ****         LIBERO_SETTING_HART4_CSR_PMPADDR15},
 122:../src/platform/mpfs_hal/common/mss_pmp.c **** };
 123:../src/platform/mpfs_hal/common/mss_pmp.c **** 
 124:../src/platform/mpfs_hal/common/mss_pmp.c **** /**
 125:../src/platform/mpfs_hal/common/mss_pmp.c ****  * pmp_configure()
 126:../src/platform/mpfs_hal/common/mss_pmp.c ****  * Set PMP's up with configuration from Libero
 127:../src/platform/mpfs_hal/common/mss_pmp.c ****  * @param hart_id hart Id
 128:../src/platform/mpfs_hal/common/mss_pmp.c ****  * @return
 129:../src/platform/mpfs_hal/common/mss_pmp.c ****  */
 130:../src/platform/mpfs_hal/common/mss_pmp.c **** uint8_t pmp_configure(uint8_t hart_id) /* set-up with settings from Libero */
 131:../src/platform/mpfs_hal/common/mss_pmp.c **** {
 112              		.loc 1 131 1
 113              		.cfi_startproc
 114 0000 0111     		addi	sp,sp,-32
 115              		.cfi_def_cfa_offset 32
 116 0002 22EC     		sd	s0,24(sp)
 117              		.cfi_offset 8, -8
 118 0004 0010     		addi	s0,sp,32
 119              		.cfi_def_cfa 8, 0
 120 0006 AA87     		mv	a5,a0
 121 0008 A307F4FE 		sb	a5,-17(s0)
 132:../src/platform/mpfs_hal/common/mss_pmp.c **** #if ((LIBERO_SETTING_MEM_CONFIGS_ENABLED & PMP_ENABLED_MASK) == PMP_ENABLED_MASK)
 133:../src/platform/mpfs_hal/common/mss_pmp.c ****     uint64_t pmp0cfg;
 134:../src/platform/mpfs_hal/common/mss_pmp.c **** #endif
 135:../src/platform/mpfs_hal/common/mss_pmp.c ****     /* make sure enables are off */
 136:../src/platform/mpfs_hal/common/mss_pmp.c ****     write_csr(pmpcfg0, 0);
 122              		.loc 1 136 5
 123              	 #APP
 124              	# 136 "../src/platform/mpfs_hal/common/mss_pmp.c" 1
 137              	    write_csr(pmpcfg2, 0);
 125              		csrw pmpcfg0, 0
 126              	# 0 "" 2
 127              		.loc 1 137 5
 128              	# 137 "../src/platform/mpfs_hal/common/mss_pmp.c" 1
 138              	    /* set required addressing */
 139:../src/platform/mpfs_hal/common/mss_pmp.c ****     write_csr(pmpaddr0, pmp_values[hart_id][2]);
 129              		csrw pmpcfg2, 0
 130              	# 0 "" 2
 131              		.loc 1 139 5
 132              	 #NO_APP
 133 0014 8347F4FE 		lbu	a5,-17(s0)
 134 0018 1B870700 		sext.w	a4,a5
 135 001c 97060000 		lla	a3,pmp_values
 135      93860600 
 136 0024 BA87     		mv	a5,a4
 137 0026 8E07     		slli	a5,a5,3
 138 0028 BA97     		add	a5,a5,a4
 139 002a 9207     		slli	a5,a5,4
 140 002c B697     		add	a5,a3,a5
 141 002e 9C6B     		ld	a5,16(a5)
 142              	 #APP
 143              	# 139 "../src/platform/mpfs_hal/common/mss_pmp.c" 1
 140              	    write_csr(pmpaddr1, pmp_values[hart_id][3]);
 144              		csrw pmpaddr0, a5
 145              	# 0 "" 2
 146              		.loc 1 140 5
 147              	 #NO_APP
 148 0034 8347F4FE 		lbu	a5,-17(s0)
 149 0038 1B870700 		sext.w	a4,a5
 150 003c 97060000 		lla	a3,pmp_values
 150      93860600 
 151 0044 BA87     		mv	a5,a4
 152 0046 8E07     		slli	a5,a5,3
 153 0048 BA97     		add	a5,a5,a4
 154 004a 9207     		slli	a5,a5,4
 155 004c B697     		add	a5,a3,a5
 156 004e 9C6F     		ld	a5,24(a5)
 157              	 #APP
 158              	# 140 "../src/platform/mpfs_hal/common/mss_pmp.c" 1
 141              	    write_csr(pmpaddr2, pmp_values[hart_id][4]);
 159              		csrw pmpaddr1, a5
 160              	# 0 "" 2
 161              		.loc 1 141 5
 162              	 #NO_APP
 163 0054 8347F4FE 		lbu	a5,-17(s0)
 164 0058 1B870700 		sext.w	a4,a5
 165 005c 97060000 		lla	a3,pmp_values
 165      93860600 
 166 0064 BA87     		mv	a5,a4
 167 0066 8E07     		slli	a5,a5,3
 168 0068 BA97     		add	a5,a5,a4
 169 006a 9207     		slli	a5,a5,4
 170 006c B697     		add	a5,a3,a5
 171 006e 9C73     		ld	a5,32(a5)
 172              	 #APP
 173              	# 141 "../src/platform/mpfs_hal/common/mss_pmp.c" 1
 142              	    write_csr(pmpaddr3, pmp_values[hart_id][5]);
 174              		csrw pmpaddr2, a5
 175              	# 0 "" 2
 176              		.loc 1 142 5
 177              	 #NO_APP
 178 0074 8347F4FE 		lbu	a5,-17(s0)
 179 0078 1B870700 		sext.w	a4,a5
 180 007c 97060000 		lla	a3,pmp_values
 180      93860600 
 181 0084 BA87     		mv	a5,a4
 182 0086 8E07     		slli	a5,a5,3
 183 0088 BA97     		add	a5,a5,a4
 184 008a 9207     		slli	a5,a5,4
 185 008c B697     		add	a5,a3,a5
 186 008e 9C77     		ld	a5,40(a5)
 187              	 #APP
 188              	# 142 "../src/platform/mpfs_hal/common/mss_pmp.c" 1
 143              	    write_csr(pmpaddr4, pmp_values[hart_id][6]);
 189              		csrw pmpaddr3, a5
 190              	# 0 "" 2
 191              		.loc 1 143 5
 192              	 #NO_APP
 193 0094 8347F4FE 		lbu	a5,-17(s0)
 194 0098 1B870700 		sext.w	a4,a5
 195 009c 97060000 		lla	a3,pmp_values
 195      93860600 
 196 00a4 BA87     		mv	a5,a4
 197 00a6 8E07     		slli	a5,a5,3
 198 00a8 BA97     		add	a5,a5,a4
 199 00aa 9207     		slli	a5,a5,4
 200 00ac B697     		add	a5,a3,a5
 201 00ae 9C7B     		ld	a5,48(a5)
 202              	 #APP
 203              	# 143 "../src/platform/mpfs_hal/common/mss_pmp.c" 1
 144              	    write_csr(pmpaddr5, pmp_values[hart_id][7]);
 204              		csrw pmpaddr4, a5
 205              	# 0 "" 2
 206              		.loc 1 144 5
 207              	 #NO_APP
 208 00b4 8347F4FE 		lbu	a5,-17(s0)
 209 00b8 1B870700 		sext.w	a4,a5
 210 00bc 97060000 		lla	a3,pmp_values
 210      93860600 
 211 00c4 BA87     		mv	a5,a4
 212 00c6 8E07     		slli	a5,a5,3
 213 00c8 BA97     		add	a5,a5,a4
 214 00ca 9207     		slli	a5,a5,4
 215 00cc B697     		add	a5,a3,a5
 216 00ce 9C7F     		ld	a5,56(a5)
 217              	 #APP
 218              	# 144 "../src/platform/mpfs_hal/common/mss_pmp.c" 1
 145              	    write_csr(pmpaddr6, pmp_values[hart_id][8]);
 219              		csrw pmpaddr5, a5
 220              	# 0 "" 2
 221              		.loc 1 145 5
 222              	 #NO_APP
 223 00d4 8347F4FE 		lbu	a5,-17(s0)
 224 00d8 1B870700 		sext.w	a4,a5
 225 00dc 97060000 		lla	a3,pmp_values
 225      93860600 
 226 00e4 BA87     		mv	a5,a4
 227 00e6 8E07     		slli	a5,a5,3
 228 00e8 BA97     		add	a5,a5,a4
 229 00ea 9207     		slli	a5,a5,4
 230 00ec B697     		add	a5,a3,a5
 231 00ee BC63     		ld	a5,64(a5)
 232              	 #APP
 233              	# 145 "../src/platform/mpfs_hal/common/mss_pmp.c" 1
 146              	    write_csr(pmpaddr7, pmp_values[hart_id][9]);
 234              		csrw pmpaddr6, a5
 235              	# 0 "" 2
 236              		.loc 1 146 5
 237              	 #NO_APP
 238 00f4 8347F4FE 		lbu	a5,-17(s0)
 239 00f8 1B870700 		sext.w	a4,a5
 240 00fc 97060000 		lla	a3,pmp_values
 240      93860600 
 241 0104 BA87     		mv	a5,a4
 242 0106 8E07     		slli	a5,a5,3
 243 0108 BA97     		add	a5,a5,a4
 244 010a 9207     		slli	a5,a5,4
 245 010c B697     		add	a5,a3,a5
 246 010e BC67     		ld	a5,72(a5)
 247              	 #APP
 248              	# 146 "../src/platform/mpfs_hal/common/mss_pmp.c" 1
 147              	    write_csr(pmpaddr8, pmp_values[hart_id][10]);
 249              		csrw pmpaddr7, a5
 250              	# 0 "" 2
 251              		.loc 1 147 5
 252              	 #NO_APP
 253 0114 8347F4FE 		lbu	a5,-17(s0)
 254 0118 1B870700 		sext.w	a4,a5
 255 011c 97060000 		lla	a3,pmp_values
 255      93860600 
 256 0124 BA87     		mv	a5,a4
 257 0126 8E07     		slli	a5,a5,3
 258 0128 BA97     		add	a5,a5,a4
 259 012a 9207     		slli	a5,a5,4
 260 012c B697     		add	a5,a3,a5
 261 012e BC6B     		ld	a5,80(a5)
 262              	 #APP
 263              	# 147 "../src/platform/mpfs_hal/common/mss_pmp.c" 1
 148              	    write_csr(pmpaddr9, pmp_values[hart_id][11]);
 264              		csrw pmpaddr8, a5
 265              	# 0 "" 2
 266              		.loc 1 148 5
 267              	 #NO_APP
 268 0134 8347F4FE 		lbu	a5,-17(s0)
 269 0138 1B870700 		sext.w	a4,a5
 270 013c 97060000 		lla	a3,pmp_values
 270      93860600 
 271 0144 BA87     		mv	a5,a4
 272 0146 8E07     		slli	a5,a5,3
 273 0148 BA97     		add	a5,a5,a4
 274 014a 9207     		slli	a5,a5,4
 275 014c B697     		add	a5,a3,a5
 276 014e BC6F     		ld	a5,88(a5)
 277              	 #APP
 278              	# 148 "../src/platform/mpfs_hal/common/mss_pmp.c" 1
 149              	    write_csr(pmpaddr10, pmp_values[hart_id][12]);
 279              		csrw pmpaddr9, a5
 280              	# 0 "" 2
 281              		.loc 1 149 5
 282              	 #NO_APP
 283 0154 8347F4FE 		lbu	a5,-17(s0)
 284 0158 1B870700 		sext.w	a4,a5
 285 015c 97060000 		lla	a3,pmp_values
 285      93860600 
 286 0164 BA87     		mv	a5,a4
 287 0166 8E07     		slli	a5,a5,3
 288 0168 BA97     		add	a5,a5,a4
 289 016a 9207     		slli	a5,a5,4
 290 016c B697     		add	a5,a3,a5
 291 016e BC73     		ld	a5,96(a5)
 292              	 #APP
 293              	# 149 "../src/platform/mpfs_hal/common/mss_pmp.c" 1
 150              	    write_csr(pmpaddr11, pmp_values[hart_id][13]);
 294              		csrw pmpaddr10, a5
 295              	# 0 "" 2
 296              		.loc 1 150 5
 297              	 #NO_APP
 298 0174 8347F4FE 		lbu	a5,-17(s0)
 299 0178 1B870700 		sext.w	a4,a5
 300 017c 97060000 		lla	a3,pmp_values
 300      93860600 
 301 0184 BA87     		mv	a5,a4
 302 0186 8E07     		slli	a5,a5,3
 303 0188 BA97     		add	a5,a5,a4
 304 018a 9207     		slli	a5,a5,4
 305 018c B697     		add	a5,a3,a5
 306 018e BC77     		ld	a5,104(a5)
 307              	 #APP
 308              	# 150 "../src/platform/mpfs_hal/common/mss_pmp.c" 1
 151              	    write_csr(pmpaddr12, pmp_values[hart_id][14]);
 309              		csrw pmpaddr11, a5
 310              	# 0 "" 2
 311              		.loc 1 151 5
 312              	 #NO_APP
 313 0194 8347F4FE 		lbu	a5,-17(s0)
 314 0198 1B870700 		sext.w	a4,a5
 315 019c 97060000 		lla	a3,pmp_values
 315      93860600 
 316 01a4 BA87     		mv	a5,a4
 317 01a6 8E07     		slli	a5,a5,3
 318 01a8 BA97     		add	a5,a5,a4
 319 01aa 9207     		slli	a5,a5,4
 320 01ac B697     		add	a5,a3,a5
 321 01ae BC7B     		ld	a5,112(a5)
 322              	 #APP
 323              	# 151 "../src/platform/mpfs_hal/common/mss_pmp.c" 1
 152              	    write_csr(pmpaddr13, pmp_values[hart_id][15]);
 324              		csrw pmpaddr12, a5
 325              	# 0 "" 2
 326              		.loc 1 152 5
 327              	 #NO_APP
 328 01b4 8347F4FE 		lbu	a5,-17(s0)
 329 01b8 1B870700 		sext.w	a4,a5
 330 01bc 97060000 		lla	a3,pmp_values
 330      93860600 
 331 01c4 BA87     		mv	a5,a4
 332 01c6 8E07     		slli	a5,a5,3
 333 01c8 BA97     		add	a5,a5,a4
 334 01ca 9207     		slli	a5,a5,4
 335 01cc B697     		add	a5,a3,a5
 336 01ce BC7F     		ld	a5,120(a5)
 337              	 #APP
 338              	# 152 "../src/platform/mpfs_hal/common/mss_pmp.c" 1
 153              	    write_csr(pmpaddr14, pmp_values[hart_id][16]);
 339              		csrw pmpaddr13, a5
 340              	# 0 "" 2
 341              		.loc 1 153 5
 342              	 #NO_APP
 343 01d4 8347F4FE 		lbu	a5,-17(s0)
 344 01d8 1B870700 		sext.w	a4,a5
 345 01dc 97060000 		lla	a3,pmp_values
 345      93860600 
 346 01e4 BA87     		mv	a5,a4
 347 01e6 8E07     		slli	a5,a5,3
 348 01e8 BA97     		add	a5,a5,a4
 349 01ea 9207     		slli	a5,a5,4
 350 01ec B697     		add	a5,a3,a5
 351 01ee DC63     		ld	a5,128(a5)
 352              	 #APP
 353              	# 153 "../src/platform/mpfs_hal/common/mss_pmp.c" 1
 154              	    write_csr(pmpaddr15, pmp_values[hart_id][17]);
 354              		csrw pmpaddr14, a5
 355              	# 0 "" 2
 356              		.loc 1 154 5
 357              	 #NO_APP
 358 01f4 8347F4FE 		lbu	a5,-17(s0)
 359 01f8 1B870700 		sext.w	a4,a5
 360 01fc 97060000 		lla	a3,pmp_values
 360      93860600 
 361 0204 BA87     		mv	a5,a4
 362 0206 8E07     		slli	a5,a5,3
 363 0208 BA97     		add	a5,a5,a4
 364 020a 9207     		slli	a5,a5,4
 365 020c B697     		add	a5,a3,a5
 366 020e DC67     		ld	a5,136(a5)
 367              	 #APP
 368              	# 154 "../src/platform/mpfs_hal/common/mss_pmp.c" 1
 155              	#if ((LIBERO_SETTING_MEM_CONFIGS_ENABLED & PMP_ENABLED_MASK) == PMP_ENABLED_MASK)
 156:../src/platform/mpfs_hal/common/mss_pmp.c ****     pmp0cfg = pmp_values[hart_id][0];
 157:../src/platform/mpfs_hal/common/mss_pmp.c ****     pmp_master_configs(hart_id, &pmp0cfg);
 158:../src/platform/mpfs_hal/common/mss_pmp.c ****     write_csr(pmpcfg0, pmp0cfg);
 159:../src/platform/mpfs_hal/common/mss_pmp.c ****     write_csr(pmpcfg2, pmp_values[hart_id][1]);
 160:../src/platform/mpfs_hal/common/mss_pmp.c **** #else
 161:../src/platform/mpfs_hal/common/mss_pmp.c ****     write_csr(pmpcfg0, pmp_values[hart_id][0]);
 369              		csrw pmpaddr15, a5
 370              	# 0 "" 2
 371              		.loc 1 161 5
 372              	 #NO_APP
 373 0214 8347F4FE 		lbu	a5,-17(s0)
 374 0218 1B870700 		sext.w	a4,a5
 375 021c 97060000 		lla	a3,pmp_values
 375      93860600 
 376 0224 BA87     		mv	a5,a4
 377 0226 8E07     		slli	a5,a5,3
 378 0228 BA97     		add	a5,a5,a4
 379 022a 9207     		slli	a5,a5,4
 380 022c B697     		add	a5,a3,a5
 381 022e 9C63     		ld	a5,0(a5)
 382              	 #APP
 383              	# 161 "../src/platform/mpfs_hal/common/mss_pmp.c" 1
 162              	#endif
 163:../src/platform/mpfs_hal/common/mss_pmp.c **** 
 164:../src/platform/mpfs_hal/common/mss_pmp.c ****     return(0);
 384              		csrw pmpcfg0, a5
 385              	# 0 "" 2
 386              		.loc 1 164 11
 387              	 #NO_APP
 388 0234 8147     		li	a5,0
 165:../src/platform/mpfs_hal/common/mss_pmp.c **** }
 389              		.loc 1 165 1
 390 0236 3E85     		mv	a0,a5
 391 0238 6264     		ld	s0,24(sp)
 392              		.cfi_restore 8
 393              		.cfi_def_cfa 2, 32
 394 023a 0561     		addi	sp,sp,32
 395              		.cfi_def_cfa_offset 0
 396 023c 8280     		jr	ra
 397              		.cfi_endproc
 398              	.LFE23:
 400              		.section	.text.pmp_master_configs,"ax",@progbits
 401              		.align	1
 402              		.weak	pmp_master_configs
 404              	pmp_master_configs:
 405              	.LFB24:
 166:../src/platform/mpfs_hal/common/mss_pmp.c **** 
 167:../src/platform/mpfs_hal/common/mss_pmp.c **** /*-------------------------------------------------------------------------*//**
 168:../src/platform/mpfs_hal/common/mss_pmp.c ****   Please note the first four PMP's are set to zero by MSS Configurator v2021.1
 169:../src/platform/mpfs_hal/common/mss_pmp.c ****   These will need to be set by the HSS. The first three relate to HSS footprint
 170:../src/platform/mpfs_hal/common/mss_pmp.c ****   The PMP4 is used to open a hole for debug region.
 171:../src/platform/mpfs_hal/common/mss_pmp.c **** 
 172:../src/platform/mpfs_hal/common/mss_pmp.c ****   | PMP | cfg  | L  | XWR | Detail                                             |
 173:../src/platform/mpfs_hal/common/mss_pmp.c ****   |-----|-----------|-----|----------------------------------------------------|
 174:../src/platform/mpfs_hal/common/mss_pmp.c ****   |  0  | 0x18 | N  |     | 256KB | Closes access for s and U mode             |
 175:../src/platform/mpfs_hal/common/mss_pmp.c ****   |  1  | 0x98 | Y  | X R | 256KB | Opens up area for m-mode only              |
 176:../src/platform/mpfs_hal/common/mss_pmp.c ****   |  2  | 0x98 | Y  | XRW |  64KB | OpenSBI scratch per scratch                |
 177:../src/platform/mpfs_hal/common/mss_pmp.c ****   |  3  | 0x98 | Y  | XRW |   4KB | Open window for debug                      |
 178:../src/platform/mpfs_hal/common/mss_pmp.c ****   |  .. | ..   | .. | ..  |  ..   | ..                                         |
 179:../src/platform/mpfs_hal/common/mss_pmp.c ****   |  15 | 0x18 | Y  |     |   -   | Close everything not opened                |
 180:../src/platform/mpfs_hal/common/mss_pmp.c **** 
 181:../src/platform/mpfs_hal/common/mss_pmp.c ****  @param pmp0cfg return with config for first four PMP's
 182:../src/platform/mpfs_hal/common/mss_pmp.c **** 
 183:../src/platform/mpfs_hal/common/mss_pmp.c ****  */
 184:../src/platform/mpfs_hal/common/mss_pmp.c **** __attribute__((weak))  void pmp_master_configs(uint8_t hart_id, uint64_t * pmp0cfg)
 185:../src/platform/mpfs_hal/common/mss_pmp.c **** {
 406              		.loc 1 185 1
 407              		.cfi_startproc
 408 0000 0111     		addi	sp,sp,-32
 409              		.cfi_def_cfa_offset 32
 410 0002 22EC     		sd	s0,24(sp)
 411              		.cfi_offset 8, -8
 412 0004 0010     		addi	s0,sp,32
 413              		.cfi_def_cfa 8, 0
 414 0006 AA87     		mv	a5,a0
 415 0008 2330B4FE 		sd	a1,-32(s0)
 416 000c A307F4FE 		sb	a5,-17(s0)
 186:../src/platform/mpfs_hal/common/mss_pmp.c ****     if ( hart_id == 0U )
 417              		.loc 1 186 8
 418 0010 8347F4FE 		lbu	a5,-17(s0)
 419 0014 93F7F70F 		andi	a5,a5,0xff
 420 0018 D1E7     		bne	a5,zero,.L4
 187:../src/platform/mpfs_hal/common/mss_pmp.c ****     {
 188:../src/platform/mpfs_hal/common/mss_pmp.c ****         *pmp0cfg = LIBERO_SETTING_HART0_CSR_PMPCFG0;
 421              		.loc 1 188 18
 422 001a 833704FE 		ld	a5,-32(s0)
 423 001e 23B00700 		sd	zero,0(a5)
 189:../src/platform/mpfs_hal/common/mss_pmp.c ****         write_csr(pmpaddr0, pmp_values[hart_id][2]);
 424              		.loc 1 189 9
 425 0022 8347F4FE 		lbu	a5,-17(s0)
 426 0026 1B870700 		sext.w	a4,a5
 427 002a 97060000 		lla	a3,pmp_values
 427      93860600 
 428 0032 BA87     		mv	a5,a4
 429 0034 8E07     		slli	a5,a5,3
 430 0036 BA97     		add	a5,a5,a4
 431 0038 9207     		slli	a5,a5,4
 432 003a B697     		add	a5,a3,a5
 433 003c 9C6B     		ld	a5,16(a5)
 434              	 #APP
 435              	# 189 "../src/platform/mpfs_hal/common/mss_pmp.c" 1
 190              	        write_csr(pmpaddr1, pmp_values[hart_id][3]);
 436              		csrw pmpaddr0, a5
 437              	# 0 "" 2
 438              		.loc 1 190 9
 439              	 #NO_APP
 440 0042 8347F4FE 		lbu	a5,-17(s0)
 441 0046 1B870700 		sext.w	a4,a5
 442 004a 97060000 		lla	a3,pmp_values
 442      93860600 
 443 0052 BA87     		mv	a5,a4
 444 0054 8E07     		slli	a5,a5,3
 445 0056 BA97     		add	a5,a5,a4
 446 0058 9207     		slli	a5,a5,4
 447 005a B697     		add	a5,a3,a5
 448 005c 9C6F     		ld	a5,24(a5)
 449              	 #APP
 450              	# 190 "../src/platform/mpfs_hal/common/mss_pmp.c" 1
 191              	        write_csr(pmpaddr2, pmp_values[hart_id][4]);
 451              		csrw pmpaddr1, a5
 452              	# 0 "" 2
 453              		.loc 1 191 9
 454              	 #NO_APP
 455 0062 8347F4FE 		lbu	a5,-17(s0)
 456 0066 1B870700 		sext.w	a4,a5
 457 006a 97060000 		lla	a3,pmp_values
 457      93860600 
 458 0072 BA87     		mv	a5,a4
 459 0074 8E07     		slli	a5,a5,3
 460 0076 BA97     		add	a5,a5,a4
 461 0078 9207     		slli	a5,a5,4
 462 007a B697     		add	a5,a3,a5
 463 007c 9C73     		ld	a5,32(a5)
 464              	 #APP
 465              	# 191 "../src/platform/mpfs_hal/common/mss_pmp.c" 1
 192              	        write_csr(pmpaddr3, pmp_values[hart_id][5]);
 466              		csrw pmpaddr2, a5
 467              	# 0 "" 2
 468              		.loc 1 192 9
 469              	 #NO_APP
 470 0082 8347F4FE 		lbu	a5,-17(s0)
 471 0086 1B870700 		sext.w	a4,a5
 472 008a 97060000 		lla	a3,pmp_values
 472      93860600 
 473 0092 BA87     		mv	a5,a4
 474 0094 8E07     		slli	a5,a5,3
 475 0096 BA97     		add	a5,a5,a4
 476 0098 9207     		slli	a5,a5,4
 477 009a B697     		add	a5,a3,a5
 478 009c 9C77     		ld	a5,40(a5)
 479              	 #APP
 480              	# 192 "../src/platform/mpfs_hal/common/mss_pmp.c" 1
 193              	    }
 194:../src/platform/mpfs_hal/common/mss_pmp.c ****     else
 195:../src/platform/mpfs_hal/common/mss_pmp.c ****     {
 196:../src/platform/mpfs_hal/common/mss_pmp.c ****         /*
 197:../src/platform/mpfs_hal/common/mss_pmp.c ****          * Example of closed memory map, must be created based on HSS footprint
 198:../src/platform/mpfs_hal/common/mss_pmp.c ****          */
 199:../src/platform/mpfs_hal/common/mss_pmp.c **** #define CLOSE_S_U_ACCESS_HSS_PMP0_LIM_EG0          0x2007FFFULL   /* 256K LIM */
 200:../src/platform/mpfs_hal/common/mss_pmp.c **** #define CLOSE_S_U_ACCESS_HSS_PMP0_LIM_EG1          0x200FFFFULL   /* 512K LIM */
 201:../src/platform/mpfs_hal/common/mss_pmp.c **** #define OPEN_M_ACCESS_HSS_PMP1_LIM_EG0             0x2007FFFULL   /* 256K LIM */
 202:../src/platform/mpfs_hal/common/mss_pmp.c **** #define OPEN_M_ACCESS_HSS_PMP1_LIM_EG1             0x200FFFFULL   /* 512K LIM */
 203:../src/platform/mpfs_hal/common/mss_pmp.c **** #define OPEN_M_ACCESS_HSS_PMP1_SCRATCH_EG          0x280FFFFULL   /* 512K SCRATCHPAD */
 204:../src/platform/mpfs_hal/common/mss_pmp.c **** #define OPEN_CONTEXT_ACCESS_LIM_PMP2_H1            0x2011FFFULL   /*  64K LIM */
 205:../src/platform/mpfs_hal/common/mss_pmp.c **** #define OPEN_CONTEXT_ACCESS_LIM_PMP2_H2            0x2015FFFULL   /*  64K LIM */
 206:../src/platform/mpfs_hal/common/mss_pmp.c **** #define OPEN_DEBUG_ACCESS_PMP3                     0x1FFULL
 207:../src/platform/mpfs_hal/common/mss_pmp.c **** #define HSS_CLOSED_CFG_MASK                        ~0xFFFFFFFFULL
 208:../src/platform/mpfs_hal/common/mss_pmp.c **** #define HSS_CLOSED_CFG                             0x9F9F9D18ULL
 209:../src/platform/mpfs_hal/common/mss_pmp.c ****         /*
 210:../src/platform/mpfs_hal/common/mss_pmp.c ****          * We will open 512K LIM and scratchpad in weak pmp_master_configs()
 211:../src/platform/mpfs_hal/common/mss_pmp.c ****          * for all harts.
 212:../src/platform/mpfs_hal/common/mss_pmp.c ****          */
 213:../src/platform/mpfs_hal/common/mss_pmp.c **** #define  LIM_512K_FROM_BASE                        0x200FFFFULL   /* 512K LIM */
 214:../src/platform/mpfs_hal/common/mss_pmp.c **** #define  SCRATCH_512K_FROM_BASE                    0x280FFFFULL   /* 512K LIM */
 215:../src/platform/mpfs_hal/common/mss_pmp.c ****         *pmp0cfg &= HSS_CLOSED_CFG_MASK;
 216:../src/platform/mpfs_hal/common/mss_pmp.c ****         *pmp0cfg |= 0x9F009F9FULL;  /* open 0,1 and 3 to allow open access */
 217:../src/platform/mpfs_hal/common/mss_pmp.c ****         write_csr(pmpaddr0, OPEN_M_ACCESS_HSS_PMP1_LIM_EG1);
 218:../src/platform/mpfs_hal/common/mss_pmp.c ****         write_csr(pmpaddr1, OPEN_M_ACCESS_HSS_PMP1_SCRATCH_EG);
 219:../src/platform/mpfs_hal/common/mss_pmp.c ****         write_csr(pmpaddr2, 0ULL);
 220:../src/platform/mpfs_hal/common/mss_pmp.c ****         write_csr(pmpaddr3, OPEN_DEBUG_ACCESS_PMP3);
 221:../src/platform/mpfs_hal/common/mss_pmp.c ****     }
 222:../src/platform/mpfs_hal/common/mss_pmp.c **** 
 223:../src/platform/mpfs_hal/common/mss_pmp.c ****     /*
 224:../src/platform/mpfs_hal/common/mss_pmp.c ****      *
 225:../src/platform/mpfs_hal/common/mss_pmp.c ****      */
 226:../src/platform/mpfs_hal/common/mss_pmp.c **** #define LOCAL_PMP_SETTINGS
 227:../src/platform/mpfs_hal/common/mss_pmp.c **** #ifdef LOCAL_PMP_SETTINGS
 228:../src/platform/mpfs_hal/common/mss_pmp.c **** 
 229:../src/platform/mpfs_hal/common/mss_pmp.c **** #endif
 230:../src/platform/mpfs_hal/common/mss_pmp.c ****     return;
 481              		csrw pmpaddr3, a5
 482              	# 0 "" 2
 483              		.loc 1 230 5
 484              	 #NO_APP
 485 00a2 B9A0     		j	.L3
 486              	.L4:
 215:../src/platform/mpfs_hal/common/mss_pmp.c ****         *pmp0cfg |= 0x9F009F9FULL;  /* open 0,1 and 3 to allow open access */
 487              		.loc 1 215 18
 488 00a4 833704FE 		ld	a5,-32(s0)
 489 00a8 9863     		ld	a4,0(a5)
 490 00aa FD57     		li	a5,-1
 491 00ac 8217     		slli	a5,a5,32
 492 00ae 7D8F     		and	a4,a4,a5
 493 00b0 833704FE 		ld	a5,-32(s0)
 494 00b4 98E3     		sd	a4,0(a5)
 216:../src/platform/mpfs_hal/common/mss_pmp.c ****         write_csr(pmpaddr0, OPEN_M_ACCESS_HSS_PMP1_LIM_EG1);
 495              		.loc 1 216 18
 496 00b6 833704FE 		ld	a5,-32(s0)
 497 00ba 9863     		ld	a4,0(a5)
 498 00bc B757804F 		li	a5,1333809152
 499 00c0 8607     		slli	a5,a5,1
 500 00c2 9387F7F9 		addi	a5,a5,-97
 501 00c6 5D8F     		or	a4,a4,a5
 502 00c8 833704FE 		ld	a5,-32(s0)
 503 00cc 98E3     		sd	a4,0(a5)
 217:../src/platform/mpfs_hal/common/mss_pmp.c ****         write_csr(pmpaddr1, OPEN_M_ACCESS_HSS_PMP1_SCRATCH_EG);
 504              		.loc 1 217 9
 505 00ce B7070102 		li	a5,33619968
 506 00d2 FD17     		addi	a5,a5,-1
 507              	 #APP
 508              	# 217 "../src/platform/mpfs_hal/common/mss_pmp.c" 1
 218:../src/platform/mpfs_hal/common/mss_pmp.c ****         write_csr(pmpaddr2, 0ULL);
 509              		csrw pmpaddr0, a5
 510              	# 0 "" 2
 511              		.loc 1 218 9
 512              	 #NO_APP
 513 00d8 B7078102 		li	a5,42008576
 514 00dc FD17     		addi	a5,a5,-1
 515              	 #APP
 516              	# 218 "../src/platform/mpfs_hal/common/mss_pmp.c" 1
 219:../src/platform/mpfs_hal/common/mss_pmp.c ****         write_csr(pmpaddr3, OPEN_DEBUG_ACCESS_PMP3);
 517              		csrw pmpaddr1, a5
 518              	# 0 "" 2
 519              		.loc 1 219 9
 520              	# 219 "../src/platform/mpfs_hal/common/mss_pmp.c" 1
 220:../src/platform/mpfs_hal/common/mss_pmp.c ****     }
 521              		csrw pmpaddr2, 0
 522              	# 0 "" 2
 523              		.loc 1 220 9
 524              	 #NO_APP
 525 00e6 9307F01F 		li	a5,511
 526              	 #APP
 527              	# 220 "../src/platform/mpfs_hal/common/mss_pmp.c" 1
 528              		csrw pmpaddr3, a5
 529              	# 0 "" 2
 530              		.loc 1 230 5
 531              	 #NO_APP
 532 00ee 0100     		nop
 533              	.L3:
 231:../src/platform/mpfs_hal/common/mss_pmp.c **** }
 534              		.loc 1 231 1
 535 00f0 6264     		ld	s0,24(sp)
 536              		.cfi_restore 8
 537              		.cfi_def_cfa 2, 32
 538 00f2 0561     		addi	sp,sp,32
 539              		.cfi_def_cfa_offset 0
 540 00f4 8280     		jr	ra
 541              		.cfi_endproc
 542              	.LFE24:
 544              		.text
 545              	.Letext0:
 546              		.file 2 "/home/vinay/Desktop/soft_console/SoftConsole-v2022.2-RISC-V-747/riscv-unknown-elf-gcc/ris
 547              		.file 3 "/home/vinay/Desktop/soft_console/SoftConsole-v2022.2-RISC-V-747/riscv-unknown-elf-gcc/lib
 548              		.file 4 "/home/vinay/Desktop/soft_console/SoftConsole-v2022.2-RISC-V-747/riscv-unknown-elf-gcc/ris
 549              		.file 5 "/home/vinay/Desktop/soft_console/SoftConsole-v2022.2-RISC-V-747/riscv-unknown-elf-gcc/ris
 550              		.file 6 "/home/vinay/Desktop/soft_console/SoftConsole-v2022.2-RISC-V-747/riscv-unknown-elf-gcc/ris
 551              		.file 7 "/home/vinay/Desktop/soft_console/SoftConsole-v2022.2-RISC-V-747/riscv-unknown-elf-gcc/ris
 552              		.file 8 "/home/vinay/Desktop/softconsole_watershed/Water-shed/src/platform/mpfs_hal/common/nwc/mss
 553              		.file 9 "/home/vinay/Desktop/softconsole_watershed/Water-shed/src/platform/mpfs_hal/common/nwc/mss
 554              		.file 10 "/home/vinay/Desktop/softconsole_watershed/Water-shed/src/platform/mpfs_hal/common/nwc/ms
 555              		.file 11 "/home/vinay/Desktop/softconsole_watershed/Water-shed/src/platform/mpfs_hal/common/mss_mp
 556              		.file 12 "/home/vinay/Desktop/softconsole_watershed/Water-shed/src/platform/mpfs_hal/common/mss_pl
 557              		.file 13 "/home/vinay/Desktop/softconsole_watershed/Water-shed/src/platform/mpfs_hal/startup_gcc/s