   1              		.file	"mss_h2f.c"
   2              		.option nopic
   3              		.attribute arch, "rv64i2p0_m2p0_a2p0_f2p0_d2p0_c2p0"
   4              		.attribute unaligned_access, 0
   5              		.attribute stack_align, 16
   6              		.text
   7              	.Ltext0:
   8              		.cfi_sections	.debug_frame
   9              		.globl	M2F_int_mapping
  10              		.section	.rodata.M2F_int_mapping,"a"
  11              		.align	3
  14              	M2F_int_mapping:
  15 0000 FF       		.byte	-1
  16 0001 FF       		.byte	-1
  17 0002 FF       		.byte	-1
  18 0003 FF       		.byte	-1
  19 0004 FF       		.byte	-1
  20 0005 FF       		.byte	-1
  21 0006 FF       		.byte	-1
  22 0007 FF       		.byte	-1
  23 0008 FF       		.byte	-1
  24 0009 FF       		.byte	-1
  25 000a FF       		.byte	-1
  26 000b FF       		.byte	-1
  27 000c FF       		.byte	-1
  28 000d 00       		.byte	0
  29 000e 00       		.byte	0
  30 000f 00       		.byte	0
  31 0010 00       		.byte	0
  32 0011 00       		.byte	0
  33 0012 00       		.byte	0
  34 0013 00       		.byte	0
  35 0014 00       		.byte	0
  36 0015 00       		.byte	0
  37 0016 00       		.byte	0
  38 0017 00       		.byte	0
  39 0018 00       		.byte	0
  40 0019 00       		.byte	0
  41 001a 00       		.byte	0
  42 001b 00       		.byte	0
  43 001c 00       		.byte	0
  44 001d 00       		.byte	0
  45 001e 00       		.byte	0
  46 001f 00       		.byte	0
  47 0020 00       		.byte	0
  48 0021 00       		.byte	0
  49 0022 00       		.byte	0
  50 0023 00       		.byte	0
  51 0024 00       		.byte	0
  52 0025 00       		.byte	0
  53 0026 00       		.byte	0
  54 0027 00       		.byte	0
  55 0028 00       		.byte	0
  56 0029 00       		.byte	0
  57 002a 00       		.byte	0
  58 002b 00       		.byte	0
  59 002c 00       		.byte	0
  60 002d 00       		.byte	0
  61 002e 00       		.byte	0
  62 002f 00       		.byte	0
  63 0030 00       		.byte	0
  64 0031 00       		.byte	0
  65 0032 00       		.byte	0
  66 0033 00       		.byte	0
  67 0034 00       		.byte	0
  68 0035 00       		.byte	0
  69 0036 01       		.byte	1
  70 0037 01       		.byte	1
  71 0038 01       		.byte	1
  72 0039 01       		.byte	1
  73 003a 02       		.byte	2
  74 003b 02       		.byte	2
  75 003c 02       		.byte	2
  76 003d 02       		.byte	2
  77 003e 02       		.byte	2
  78 003f 02       		.byte	2
  79 0040 03       		.byte	3
  80 0041 03       		.byte	3
  81 0042 03       		.byte	3
  82 0043 03       		.byte	3
  83 0044 03       		.byte	3
  84 0045 03       		.byte	3
  85 0046 04       		.byte	4
  86 0047 04       		.byte	4
  87 0048 04       		.byte	4
  88 0049 04       		.byte	4
  89 004a 04       		.byte	4
  90 004b 04       		.byte	4
  91 004c 09       		.byte	9
  92 004d 07       		.byte	7
  93 004e 06       		.byte	6
  94 004f 06       		.byte	6
  95 0050 0B       		.byte	11
  96 0051 0B       		.byte	11
  97 0052 0C       		.byte	12
  98 0053 0C       		.byte	12
  99 0054 0D       		.byte	13
 100 0055 0D       		.byte	13
 101 0056 0E       		.byte	14
 102 0057 0E       		.byte	14
 103 0058 0F       		.byte	15
 104 0059 0F       		.byte	15
 105 005a 01       		.byte	1
 106 005b 01       		.byte	1
 107 005c 01       		.byte	1
 108 005d 01       		.byte	1
 109 005e 01       		.byte	1
 110 005f 0A       		.byte	10
 111 0060 08       		.byte	8
 112 0061 0B       		.byte	11
 113 0062 0B       		.byte	11
 114 0063 06       		.byte	6
 115 0064 05       		.byte	5
 116 0065 05       		.byte	5
 117 0066 05       		.byte	5
 118 0067 05       		.byte	5
 119 0068 05       		.byte	5
 120 0069 05       		.byte	5
 121 006a 05       		.byte	5
 122 006b 05       		.byte	5
 123 006c 05       		.byte	5
 124 006d 05       		.byte	5
 125 006e 0D       		.byte	13
 126 006f FF       		.byte	-1
 127 0070 FF       		.byte	-1
 128 0071 FF       		.byte	-1
 129 0072 FF       		.byte	-1
 130 0073 0B       		.byte	11
 131 0074 0B       		.byte	11
 132 0075 FF       		.byte	-1
 133 0076 FF       		.byte	-1
 134 0077 FF       		.byte	-1
 135 0078 FF       		.byte	-1
 136 0079 FF       		.byte	-1
 137 007a FF       		.byte	-1
 138 007b FF       		.byte	-1
 139 007c FF       		.byte	-1
 140 007d FF       		.byte	-1
 141 007e FF       		.byte	-1
 142 007f FF       		.byte	-1
 143 0080 FF       		.byte	-1
 144 0081 FF       		.byte	-1
 145 0082 FF       		.byte	-1
 146 0083 FF       		.byte	-1
 147 0084 FF       		.byte	-1
 148 0085 FF       		.byte	-1
 149 0086 FF       		.byte	-1
 150 0087 FF       		.byte	-1
 151 0088 FF       		.byte	-1
 152 0089 FF       		.byte	-1
 153 008a FF       		.byte	-1
 154 008b FF       		.byte	-1
 155 008c FF       		.byte	-1
 156 008d FF       		.byte	-1
 157 008e FF       		.byte	-1
 158 008f FF       		.byte	-1
 159 0090 FF       		.byte	-1
 160 0091 FF       		.byte	-1
 161 0092 FF       		.byte	-1
 162 0093 FF       		.byte	-1
 163 0094 FF       		.byte	-1
 164 0095 FF       		.byte	-1
 165 0096 FF       		.byte	-1
 166 0097 FF       		.byte	-1
 167 0098 FF       		.byte	-1
 168 0099 FF       		.byte	-1
 169 009a FF       		.byte	-1
 170 009b FF       		.byte	-1
 171 009c FF       		.byte	-1
 172 009d FF       		.byte	-1
 173 009e FF       		.byte	-1
 174 009f FF       		.byte	-1
 175 00a0 FF       		.byte	-1
 176 00a1 FF       		.byte	-1
 177 00a2 FF       		.byte	-1
 178 00a3 FF       		.byte	-1
 179 00a4 FF       		.byte	-1
 180 00a5 FF       		.byte	-1
 181 00a6 FF       		.byte	-1
 182 00a7 FF       		.byte	-1
 183 00a8 FF       		.byte	-1
 184 00a9 FF       		.byte	-1
 185 00aa FF       		.byte	-1
 186 00ab FF       		.byte	-1
 187 00ac FF       		.byte	-1
 188 00ad FF       		.byte	-1
 189 00ae FF       		.byte	-1
 190 00af FF       		.byte	-1
 191 00b0 FF       		.byte	-1
 192 00b1 FF       		.byte	-1
 193 00b2 FF       		.byte	-1
 194 00b3 FF       		.byte	-1
 195 00b4 FF       		.byte	-1
 196 00b5 FF       		.byte	-1
 197 00b6 FF       		.byte	-1
 198 00b7 FF       		.byte	-1
 199 00b8 FF       		.byte	-1
 200 00b9 FF       		.byte	-1
 201              		.section	.text.get_corresponding_m2f_output,"ax",@progbits
 202              		.align	1
 204              	get_corresponding_m2f_output:
 205              	.LFB11:
 206              		.file 1 "../src/platform/mpfs_hal/common/mss_h2f.c"
   1:../src/platform/mpfs_hal/common/mss_h2f.c **** /*******************************************************************************
   2:../src/platform/mpfs_hal/common/mss_h2f.c ****  * Copyright 2019-2022 Microchip FPGA Embedded Systems Solutions.
   3:../src/platform/mpfs_hal/common/mss_h2f.c ****  *
   4:../src/platform/mpfs_hal/common/mss_h2f.c ****  * SPDX-License-Identifier: MIT
   5:../src/platform/mpfs_hal/common/mss_h2f.c ****  *
   6:../src/platform/mpfs_hal/common/mss_h2f.c ****  * MPFS HAL Embedded Software
   7:../src/platform/mpfs_hal/common/mss_h2f.c ****  *
   8:../src/platform/mpfs_hal/common/mss_h2f.c ****  */
   9:../src/platform/mpfs_hal/common/mss_h2f.c **** 
  10:../src/platform/mpfs_hal/common/mss_h2f.c **** /*******************************************************************************
  11:../src/platform/mpfs_hal/common/mss_h2f.c ****  *
  12:../src/platform/mpfs_hal/common/mss_h2f.c ****  * @file mss_m2f.c
  13:../src/platform/mpfs_hal/common/mss_h2f.c ****  * @author Microchip-FPGA Embedded Systems Solutions
  14:../src/platform/mpfs_hal/common/mss_h2f.c ****  * @brief M2F access data structures and functions.
  15:../src/platform/mpfs_hal/common/mss_h2f.c ****  *
  16:../src/platform/mpfs_hal/common/mss_h2f.c ****  */
  17:../src/platform/mpfs_hal/common/mss_h2f.c **** #include "mss_plic.h"
  18:../src/platform/mpfs_hal/common/mss_h2f.c **** #include "mss_h2f.h"
  19:../src/platform/mpfs_hal/common/mss_h2f.c **** 
  20:../src/platform/mpfs_hal/common/mss_h2f.c **** #ifdef __cplusplus
  21:../src/platform/mpfs_hal/common/mss_h2f.c **** extern "C" {
  22:../src/platform/mpfs_hal/common/mss_h2f.c **** #endif
  23:../src/platform/mpfs_hal/common/mss_h2f.c **** 
  24:../src/platform/mpfs_hal/common/mss_h2f.c **** #define M2F_MAPPING_INVALID 255U
  25:../src/platform/mpfs_hal/common/mss_h2f.c **** 
  26:../src/platform/mpfs_hal/common/mss_h2f.c **** /*==============================================================================
  27:../src/platform/mpfs_hal/common/mss_h2f.c ****  * M2F_int_mapping, source to M2F output lines
  28:../src/platform/mpfs_hal/common/mss_h2f.c ****  * The internal interrupt are multiplexed to fabric I/O lines.
  29:../src/platform/mpfs_hal/common/mss_h2f.c ****  * That is, each line will contain several interrupts.
  30:../src/platform/mpfs_hal/common/mss_h2f.c ****  */
  31:../src/platform/mpfs_hal/common/mss_h2f.c **** 
  32:../src/platform/mpfs_hal/common/mss_h2f.c **** const uint8_t M2F_int_mapping[PLIC_U54_4_BUS_ERROR_UNIT_OFFSET]= { \
  33:../src/platform/mpfs_hal/common/mss_h2f.c **** 
  34:../src/platform/mpfs_hal/common/mss_h2f.c ****     M2F_MAPPING_INVALID /*INVALID_IRQn              = 0*/, \
  35:../src/platform/mpfs_hal/common/mss_h2f.c ****     M2F_MAPPING_INVALID /*L2_METADATA_CORR_IRQn     = 1*/, \
  36:../src/platform/mpfs_hal/common/mss_h2f.c ****     M2F_MAPPING_INVALID /*L2_METADAT_UNCORR_IRQn    = 2*/, \
  37:../src/platform/mpfs_hal/common/mss_h2f.c ****     M2F_MAPPING_INVALID /*L2_DATA_CORR_IRQn         = 3*/, \
  38:../src/platform/mpfs_hal/common/mss_h2f.c ****     M2F_MAPPING_INVALID /*L2_DATA_UNCORR_IRQn       = 4*/, \
  39:../src/platform/mpfs_hal/common/mss_h2f.c ****     M2F_MAPPING_INVALID /*DMA_CH0_DONE_IRQn         = 5*/, \
  40:../src/platform/mpfs_hal/common/mss_h2f.c ****     M2F_MAPPING_INVALID /*DMA_CH0_ERR_IRQn          = 6*/, \
  41:../src/platform/mpfs_hal/common/mss_h2f.c ****     M2F_MAPPING_INVALID /*DMA_CH1_DONE_IRQn         = 7*/, \
  42:../src/platform/mpfs_hal/common/mss_h2f.c ****     M2F_MAPPING_INVALID /*DMA_CH1_ERR_IRQn          = 8*/, \
  43:../src/platform/mpfs_hal/common/mss_h2f.c ****     M2F_MAPPING_INVALID /*DMA_CH2_DONE_IRQn         = 9*/, \
  44:../src/platform/mpfs_hal/common/mss_h2f.c ****     M2F_MAPPING_INVALID /*DMA_CH2_ERR_IRQn          = 10*/, \
  45:../src/platform/mpfs_hal/common/mss_h2f.c ****     M2F_MAPPING_INVALID /*DMA_CH3_DONE_IRQn         = 11*/, \
  46:../src/platform/mpfs_hal/common/mss_h2f.c ****     M2F_MAPPING_INVALID /*DMA_CH3_ERR_IRQn          = 12*/, \
  47:../src/platform/mpfs_hal/common/mss_h2f.c **** 
  48:../src/platform/mpfs_hal/common/mss_h2f.c ****     0x00U /*GPIO0_BIT0_or_GPIO2_BIT0_PLIC_0          = 0 + OFFSET_TO_MSS_GLOBAL_INTS*/, \
  49:../src/platform/mpfs_hal/common/mss_h2f.c ****     0x00U /*GPIO0_BIT1_or_GPIO2_BIT1_PLIC_1          = 1 + OFFSET_TO_MSS_GLOBAL_INTS*/, \
  50:../src/platform/mpfs_hal/common/mss_h2f.c ****     0x00U /*GPIO0_BIT2_or_GPIO2_BIT2_PLIC_2          = 2 + OFFSET_TO_MSS_GLOBAL_INTS*/, \
  51:../src/platform/mpfs_hal/common/mss_h2f.c ****     0x00U /*GPIO0_BIT3_or_GPIO2_BIT3_PLIC_3          = 3 + OFFSET_TO_MSS_GLOBAL_INTS*/, \
  52:../src/platform/mpfs_hal/common/mss_h2f.c ****     0x00U /*GPIO0_BIT4_or_GPIO2_BIT4_PLIC_4          = 4 + OFFSET_TO_MSS_GLOBAL_INTS*/, \
  53:../src/platform/mpfs_hal/common/mss_h2f.c ****     0x00U /*GPIO0_BIT5_or_GPIO2_BIT5_PLIC_5          = 5 + OFFSET_TO_MSS_GLOBAL_INTS*/, \
  54:../src/platform/mpfs_hal/common/mss_h2f.c ****     0x00U /*GPIO0_BIT6_or_GPIO2_BIT6_PLIC_6          = 6 + OFFSET_TO_MSS_GLOBAL_INTS*/, \
  55:../src/platform/mpfs_hal/common/mss_h2f.c ****     0x00U /*GPIO0_BIT7_or_GPIO2_BIT7_PLIC_7          = 7 + OFFSET_TO_MSS_GLOBAL_INTS*/, \
  56:../src/platform/mpfs_hal/common/mss_h2f.c ****     0x00U /*GPIO0_BIT8_or_GPIO2_BIT8_PLIC_8          = 8 + OFFSET_TO_MSS_GLOBAL_INTS*/, \
  57:../src/platform/mpfs_hal/common/mss_h2f.c ****     0x00U /*GPIO0_BIT9_or_GPIO2_BIT9_PLIC_9          = 9 + OFFSET_TO_MSS_GLOBAL_INTS*/, \
  58:../src/platform/mpfs_hal/common/mss_h2f.c ****     0x00U /*GPIO0_BIT10_or_GPIO2_BIT10_PLIC_10       = 10 + OFFSET_TO_MSS_GLOBAL_INTS*/, \
  59:../src/platform/mpfs_hal/common/mss_h2f.c ****     0x00U /*GPIO0_BIT11_or_GPIO2_BIT11_PLIC_11       = 11 + OFFSET_TO_MSS_GLOBAL_INTS*/, \
  60:../src/platform/mpfs_hal/common/mss_h2f.c ****     0x00U /*GPIO0_BIT12_or_GPIO2_BIT12_PLIC_12       = 12 + OFFSET_TO_MSS_GLOBAL_INTS*/, \
  61:../src/platform/mpfs_hal/common/mss_h2f.c **** 
  62:../src/platform/mpfs_hal/common/mss_h2f.c ****     0x00U /*GPIO0_BIT14_or_GPIO2_BIT13_PLIC_13       = 13 + OFFSET_TO_MSS_GLOBAL_INTS*/, \
  63:../src/platform/mpfs_hal/common/mss_h2f.c ****     0x00U /*GPIO1_BIT0_or_GPIO2_BIT14_PLIC_14        = 14 + OFFSET_TO_MSS_GLOBAL_INTS*/, \
  64:../src/platform/mpfs_hal/common/mss_h2f.c ****     0x00U /*GPIO1_BIT1_or_GPIO2_BIT15_PLIC_15        = 15 + OFFSET_TO_MSS_GLOBAL_INTS*/, \
  65:../src/platform/mpfs_hal/common/mss_h2f.c ****     0x00U /*GPIO1_BIT2_or_GPIO2_BIT16_PLIC_16        = 16 + OFFSET_TO_MSS_GLOBAL_INTS*/, \
  66:../src/platform/mpfs_hal/common/mss_h2f.c ****     0x00U /*GPIO1_BIT3_or_GPIO2_BIT17_PLIC_17        = 17 + OFFSET_TO_MSS_GLOBAL_INTS*/, \
  67:../src/platform/mpfs_hal/common/mss_h2f.c ****     0x00U /*GPIO1_BIT4_or_GPIO2_BIT18_PLIC_18        = 18 + OFFSET_TO_MSS_GLOBAL_INTS*/, \
  68:../src/platform/mpfs_hal/common/mss_h2f.c ****     0x00U /*GPIO1_BIT5_or_GPIO2_BIT19_PLIC_19        = 19 + OFFSET_TO_MSS_GLOBAL_INTS*/, \
  69:../src/platform/mpfs_hal/common/mss_h2f.c ****     0x00U /*GPIO1_BIT6_or_GPIO2_BIT20_PLIC_20        = 20 + OFFSET_TO_MSS_GLOBAL_INTS*/, \
  70:../src/platform/mpfs_hal/common/mss_h2f.c ****     0x00U /*GPIO1_BIT7_or_GPIO2_BIT21_PLIC_21        = 21 + OFFSET_TO_MSS_GLOBAL_INTS*/, \
  71:../src/platform/mpfs_hal/common/mss_h2f.c ****     0x00U /*GPIO1_BIT8_or_GPIO2_BIT22_PLIC_22        = 22 + OFFSET_TO_MSS_GLOBAL_INTS*/, \
  72:../src/platform/mpfs_hal/common/mss_h2f.c ****     0x00U /*GPIO1_BIT9_or_GPIO2_BIT23_PLIC_23        = 23 + OFFSET_TO_MSS_GLOBAL_INTS*/, \
  73:../src/platform/mpfs_hal/common/mss_h2f.c ****     0x00U /*GPIO1_BIT10_or_GPIO2_BIT24_PLIC_24       = 24 + OFFSET_TO_MSS_GLOBAL_INTS*/, \
  74:../src/platform/mpfs_hal/common/mss_h2f.c ****     0x00U /*GPIO1_BIT11_or_GPIO2_BIT25_PLIC_25       = 25 + OFFSET_TO_MSS_GLOBAL_INTS*/, \
  75:../src/platform/mpfs_hal/common/mss_h2f.c ****     0x00U /*GPIO1_BIT12_or_GPIO2_BIT26_PLIC_26       = 26 + OFFSET_TO_MSS_GLOBAL_INTS*/, \
  76:../src/platform/mpfs_hal/common/mss_h2f.c ****     0x00U /*GPIO1_BIT13_or_GPIO2_BIT27_PLIC_27       = 27 + OFFSET_TO_MSS_GLOBAL_INTS*/, \
  77:../src/platform/mpfs_hal/common/mss_h2f.c **** 
  78:../src/platform/mpfs_hal/common/mss_h2f.c ****     0x00U /*GPIO1_BIT14_or_GPIO2_BIT28_PLIC_28       = 28 + OFFSET_TO_MSS_GLOBAL_INTS*/, \
  79:../src/platform/mpfs_hal/common/mss_h2f.c ****     0x00U /*GPIO1_BIT15_or_GPIO2_BIT29_PLIC_29       = 29 + OFFSET_TO_MSS_GLOBAL_INTS*/, \
  80:../src/platform/mpfs_hal/common/mss_h2f.c ****     0x00U /*GPIO1_BIT16_or_GPIO2_BIT30_PLIC_30       = 30 + OFFSET_TO_MSS_GLOBAL_INTS*/, \
  81:../src/platform/mpfs_hal/common/mss_h2f.c ****     0x00U /*GPIO1_BIT17_or_GPIO2_BIT31_PLIC_31       = 31 + OFFSET_TO_MSS_GLOBAL_INTS*/, \
  82:../src/platform/mpfs_hal/common/mss_h2f.c **** 
  83:../src/platform/mpfs_hal/common/mss_h2f.c ****     0x00U /*GPIO1_BIT18_PLIC_32 = 32 + OFFSET_TO_MSS_GLOBAL_INTS*/, \
  84:../src/platform/mpfs_hal/common/mss_h2f.c ****     0x00U /*GPIO1_BIT19_PLIC_33                      = 33 + OFFSET_TO_MSS_GLOBAL_INTS*/, \
  85:../src/platform/mpfs_hal/common/mss_h2f.c ****     0x00U /*GPIO1_BIT20_PLIC_34                      = 34 + OFFSET_TO_MSS_GLOBAL_INTS*/, \
  86:../src/platform/mpfs_hal/common/mss_h2f.c ****     0x00U /*GPIO1_BIT21_PLIC_35                      = 35 + OFFSET_TO_MSS_GLOBAL_INTS*/, \
  87:../src/platform/mpfs_hal/common/mss_h2f.c ****     0x00U /*GPIO1_BIT22_PLIC_36                      = 36 + OFFSET_TO_MSS_GLOBAL_INTS*/, \
  88:../src/platform/mpfs_hal/common/mss_h2f.c ****     0x00U /*GPIO1_BIT23_PLIC_37                      = 37 + OFFSET_TO_MSS_GLOBAL_INTS*/, \
  89:../src/platform/mpfs_hal/common/mss_h2f.c **** 
  90:../src/platform/mpfs_hal/common/mss_h2f.c ****     0x00U /*GPIO0_NON_DIRECT_PLI                     =38 + OFFSET_TO_MSS_GLOBAL_INTS*/, \
  91:../src/platform/mpfs_hal/common/mss_h2f.c ****     0x00U /*GPIO1_NON_DIRECT_PLIC                    =39 + OFFSET_TO_MSS_GLOBAL_INTS*/, \
  92:../src/platform/mpfs_hal/common/mss_h2f.c ****     0x00U /*GPIO2_NON_DIRECT_PLIC                    =40 + OFFSET_TO_MSS_GLOBAL_INTS*/, \
  93:../src/platform/mpfs_hal/common/mss_h2f.c **** 
  94:../src/platform/mpfs_hal/common/mss_h2f.c ****     0x01U /*SPI0_PLIC                                =41 + OFFSET_TO_MSS_GLOBAL_INTS*/, \
  95:../src/platform/mpfs_hal/common/mss_h2f.c ****     0x01U /*SPI1_PLIC                                =42 + OFFSET_TO_MSS_GLOBAL_INTS*/, \
  96:../src/platform/mpfs_hal/common/mss_h2f.c ****     0x01U /*CAN0_PLIC                                =43 + OFFSET_TO_MSS_GLOBAL_INTS*/, \
  97:../src/platform/mpfs_hal/common/mss_h2f.c ****     0x01U /*CAN1_PLIC                                =44 + OFFSET_TO_MSS_GLOBAL_INTS*/, \
  98:../src/platform/mpfs_hal/common/mss_h2f.c ****     0x02U /*I2C0_MAIN_PLIC                           =45 + OFFSET_TO_MSS_GLOBAL_INTS*/, \
  99:../src/platform/mpfs_hal/common/mss_h2f.c ****     0x02U /*I2C0_ALERT_PLIC                          =46 + OFFSET_TO_MSS_GLOBAL_INTS*/, \
 100:../src/platform/mpfs_hal/common/mss_h2f.c ****     0x02U /*I2C0_SUS_PLIC                            =47 + OFFSET_TO_MSS_GLOBAL_INTS*/, \
 101:../src/platform/mpfs_hal/common/mss_h2f.c ****     0x02U /*I2C1_MAIN_PLIC                           =48 + OFFSET_TO_MSS_GLOBAL_INTS*/, \
 102:../src/platform/mpfs_hal/common/mss_h2f.c ****     0x02U /*I2C1_ALERT_PLIC                          =49 + OFFSET_TO_MSS_GLOBAL_INTS*/, \
 103:../src/platform/mpfs_hal/common/mss_h2f.c ****     0x02U /*I2C1_SUS_PLIC                            =50 + OFFSET_TO_MSS_GLOBAL_INTS*/, \
 104:../src/platform/mpfs_hal/common/mss_h2f.c ****     0x03U /*MAC0_INT_PLIC                            =51 + OFFSET_TO_MSS_GLOBAL_INTS*/, \
 105:../src/platform/mpfs_hal/common/mss_h2f.c ****     0x03U /*MAC0_QUEUE1_PLIC                         =52 + OFFSET_TO_MSS_GLOBAL_INTS*/, \
 106:../src/platform/mpfs_hal/common/mss_h2f.c ****     0x03U /*MAC0_QUEUE2_PLIC                         =53 + OFFSET_TO_MSS_GLOBAL_INTS*/, \
 107:../src/platform/mpfs_hal/common/mss_h2f.c ****     0x03U /*MAC0_QUEUE3_PLIC                         =54 + OFFSET_TO_MSS_GLOBAL_INTS*/, \
 108:../src/platform/mpfs_hal/common/mss_h2f.c ****     0x03U /*MAC0_eMAC_PLIC                           =55 + OFFSET_TO_MSS_GLOBAL_INTS*/, \
 109:../src/platform/mpfs_hal/common/mss_h2f.c ****     0x03U /*MAC0_MMSL_PLIC                           =56 + OFFSET_TO_MSS_GLOBAL_INTS*/, \
 110:../src/platform/mpfs_hal/common/mss_h2f.c ****     0x04U /*MAC1_int_PLIC                            =57 + OFFSET_TO_MSS_GLOBAL_INTS*/, \
 111:../src/platform/mpfs_hal/common/mss_h2f.c ****     0x04U /*MAC1_QUEUE1_PLIC                         =58 + OFFSET_TO_MSS_GLOBAL_INTS*/, \
 112:../src/platform/mpfs_hal/common/mss_h2f.c ****     0x04U /*MAC1_QUEUE2_PLIC                         =59 + OFFSET_TO_MSS_GLOBAL_INTS*/, \
 113:../src/platform/mpfs_hal/common/mss_h2f.c ****     0x04U /*MAC1_QUEUE3_PLIC                         =60 + OFFSET_TO_MSS_GLOBAL_INTS*/, \
 114:../src/platform/mpfs_hal/common/mss_h2f.c ****     0x04U /*MAC1_EMAC_PLIC                           =61 + OFFSET_TO_MSS_GLOBAL_INTS*/, \
 115:../src/platform/mpfs_hal/common/mss_h2f.c ****     0x04U /*MAC1_MMSL_PLIC                           =62 + OFFSET_TO_MSS_GLOBAL_INTS*/, \
 116:../src/platform/mpfs_hal/common/mss_h2f.c ****     0x09U /*DDRC_TRAIN_PLIC                          =63 + OFFSET_TO_MSS_GLOBAL_INTS*/, \
 117:../src/platform/mpfs_hal/common/mss_h2f.c ****     0x07U /*SCB_INTERRUPT_PLIC                       =64 + OFFSET_TO_MSS_GLOBAL_INTS*/, \
 118:../src/platform/mpfs_hal/common/mss_h2f.c ****     0x06U /*ECC_ERROR_PLIC                           =65 + OFFSET_TO_MSS_GLOBAL_INTS*/, \
 119:../src/platform/mpfs_hal/common/mss_h2f.c ****     0x06U /*ECC_CORRECT_PLIC                         =66 + OFFSET_TO_MSS_GLOBAL_INTS*/, \
 120:../src/platform/mpfs_hal/common/mss_h2f.c ****     0x0BU /*RTC_WAKEUP_PLIC                          =67 + OFFSET_TO_MSS_GLOBAL_INTS*/, \
 121:../src/platform/mpfs_hal/common/mss_h2f.c ****     0x0BU /*RTC_MATCH_PLIC                           =68 + OFFSET_TO_MSS_GLOBAL_INTS*/, \
 122:../src/platform/mpfs_hal/common/mss_h2f.c ****     0x0CU /*TIMER1_PLIC                              =69 + OFFSET_TO_MSS_GLOBAL_INTS*/, \
 123:../src/platform/mpfs_hal/common/mss_h2f.c ****     0x0CU /*TIMER2_PLIC                              =70 + OFFSET_TO_MSS_GLOBAL_INTS*/, \
 124:../src/platform/mpfs_hal/common/mss_h2f.c ****     0x0DU /*ENVM_PLIC                                =71 + OFFSET_TO_MSS_GLOBAL_INTS*/, \
 125:../src/platform/mpfs_hal/common/mss_h2f.c ****     0x0DU /*QSPI_PLIC                                =72 + OFFSET_TO_MSS_GLOBAL_INTS*/, \
 126:../src/platform/mpfs_hal/common/mss_h2f.c ****     0x0EU /*USB_DMA_PLIC                             =73 + OFFSET_TO_MSS_GLOBAL_INTS*/, \
 127:../src/platform/mpfs_hal/common/mss_h2f.c ****     0x0EU /*USB_MC_PLIC                              =74 + OFFSET_TO_MSS_GLOBAL_INTS*/, \
 128:../src/platform/mpfs_hal/common/mss_h2f.c ****     0x0FU /*MMC_main_PLIC                            =75 + OFFSET_TO_MSS_GLOBAL_INTS*/, \
 129:../src/platform/mpfs_hal/common/mss_h2f.c ****     0x0FU /*MMC_wakeup_PLIC                          =76 + OFFSET_TO_MSS_GLOBAL_INTS*/, \
 130:../src/platform/mpfs_hal/common/mss_h2f.c ****     0x01U /*MMUART0_PLIC_77                          =77 + OFFSET_TO_MSS_GLOBAL_INTS*/, \
 131:../src/platform/mpfs_hal/common/mss_h2f.c ****     0x01U /*MMUART1_PLIC                             =78 + OFFSET_TO_MSS_GLOBAL_INTS*/, \
 132:../src/platform/mpfs_hal/common/mss_h2f.c ****     0x01U /*MMUART2_PLIC                             =79 + OFFSET_TO_MSS_GLOBAL_INTS*/, \
 133:../src/platform/mpfs_hal/common/mss_h2f.c ****     0x01U /*MMUART3_PLIC                             =80 + OFFSET_TO_MSS_GLOBAL_INTS*/, \
 134:../src/platform/mpfs_hal/common/mss_h2f.c ****     0x01U /*MMUART4_PLIC                             =81 + OFFSET_TO_MSS_GLOBAL_INTS*/, \
 135:../src/platform/mpfs_hal/common/mss_h2f.c ****     0x0AU /*G5C_DEVRST_PLIC                          =82 + OFFSET_TO_MSS_GLOBAL_INTS*/, \
 136:../src/platform/mpfs_hal/common/mss_h2f.c ****     0x08U /*g5c_MESSAGE_PLIC                         =83 + OFFSET_TO_MSS_GLOBAL_INTS*/, \
 137:../src/platform/mpfs_hal/common/mss_h2f.c ****     0x0BU /*USOC_VC_INTERRUPT_PLIC                   =84 + OFFSET_TO_MSS_GLOBAL_INTS*/, \
 138:../src/platform/mpfs_hal/common/mss_h2f.c ****     0x0BU /*USOC_SMB_INTERRUPT_PLIC                  =85 + OFFSET_TO_MSS_GLOBAL_INTS*/, \
 139:../src/platform/mpfs_hal/common/mss_h2f.c ****     0x06U /*E51_0_MAINTENACE_PLIC                    =86 + OFFSET_TO_MSS_GLOBAL_INTS*/, \
 140:../src/platform/mpfs_hal/common/mss_h2f.c ****     0x05U /*WDOG0_MRVP_PLIC                          =87 + OFFSET_TO_MSS_GLOBAL_INTS*/, \
 141:../src/platform/mpfs_hal/common/mss_h2f.c ****     0x05U /*WDOG1_MRVP_PLIC                          =88 + OFFSET_TO_MSS_GLOBAL_INTS*/, \
 142:../src/platform/mpfs_hal/common/mss_h2f.c ****     0x05U /*WDOG2_MRVP_PLIC                          =89 + OFFSET_TO_MSS_GLOBAL_INTS*/, \
 143:../src/platform/mpfs_hal/common/mss_h2f.c ****     0x05U /*WDOG3_MRVP_PLIC                          =90 + OFFSET_TO_MSS_GLOBAL_INTS*/, \
 144:../src/platform/mpfs_hal/common/mss_h2f.c ****     0x05U /*WDOG4_MRVP_PLIC                          =91 + OFFSET_TO_MSS_GLOBAL_INTS*/, \
 145:../src/platform/mpfs_hal/common/mss_h2f.c ****     0x05U /*WDOG0_TOUT_PLIC                          =92 + OFFSET_TO_MSS_GLOBAL_INTS*/, \
 146:../src/platform/mpfs_hal/common/mss_h2f.c ****     0x05U /*WDOG1_TOUT_PLIC                          =93 + OFFSET_TO_MSS_GLOBAL_INTS*/, \
 147:../src/platform/mpfs_hal/common/mss_h2f.c ****     0x05U /*WDOG2_TOUT_PLIC                          =94 + OFFSET_TO_MSS_GLOBAL_INTS*/, \
 148:../src/platform/mpfs_hal/common/mss_h2f.c ****     0x05U /*WDOG3_TOUT_PLIC                          =95 + OFFSET_TO_MSS_GLOBAL_INTS*/, \
 149:../src/platform/mpfs_hal/common/mss_h2f.c ****     0x05U /*WDOG4_TOUT_PLIC                          =96 + OFFSET_TO_MSS_GLOBAL_INTS*/, \
 150:../src/platform/mpfs_hal/common/mss_h2f.c ****     0x0DU /*G5C_MSS_SPI_PLIC                         =97 + OFFSET_TO_MSS_GLOBAL_INTS*/, \
 151:../src/platform/mpfs_hal/common/mss_h2f.c ****     M2F_MAPPING_INVALID /*VOLT_TEMP_ALARM_PLIC      =98 + OFFSET_TO_MSS_GLOBAL_INTS*/, \
 152:../src/platform/mpfs_hal/common/mss_h2f.c ****     M2F_MAPPING_INVALID /*ATHENA_COMPLETE_PLIC      =99 + OFFSET_TO_MSS_GLOBAL_INTS*/, \
 153:../src/platform/mpfs_hal/common/mss_h2f.c ****     M2F_MAPPING_INVALID /*ATHENA_ALARM_PLIC         =100 + OFFSET_TO_MSS_GLOBAL_INTS*/, \
 154:../src/platform/mpfs_hal/common/mss_h2f.c ****     M2F_MAPPING_INVALID /*ATHENA_BUS_ERROR_PLIC     =101 + OFFSET_TO_MSS_GLOBAL_INTS*/, \
 155:../src/platform/mpfs_hal/common/mss_h2f.c ****     0x0BU /*USOC_AXIC_US_PLIC                        =102 + OFFSET_TO_MSS_GLOBAL_INTS*/, \
 156:../src/platform/mpfs_hal/common/mss_h2f.c ****     0x0BU /*USOC_AXIC_DS_PLIC                        =103 + OFFSET_TO_MSS_GLOBAL_INTS*/, \
 157:../src/platform/mpfs_hal/common/mss_h2f.c **** 
 158:../src/platform/mpfs_hal/common/mss_h2f.c ****     M2F_MAPPING_INVALID /*MSS_INT_F2M_0_PLIC        = 105 + OFFSET_TO_MSS_GLOBAL_INTS*/, \
 159:../src/platform/mpfs_hal/common/mss_h2f.c ****     M2F_MAPPING_INVALID /*MSS_INT_F2M_1_PLIC        = 106 + OFFSET_TO_MSS_GLOBAL_INTS*/, \
 160:../src/platform/mpfs_hal/common/mss_h2f.c ****     M2F_MAPPING_INVALID /*MSS_INT_F2M_2_PLIC        = 107 + OFFSET_TO_MSS_GLOBAL_INTS*/, \
 161:../src/platform/mpfs_hal/common/mss_h2f.c ****     M2F_MAPPING_INVALID /*MSS_INT_F2M_3_PLIC        = 108 + OFFSET_TO_MSS_GLOBAL_INTS*/, \
 162:../src/platform/mpfs_hal/common/mss_h2f.c ****     M2F_MAPPING_INVALID /*MSS_INT_F2M_4_PLIC        = 109 + OFFSET_TO_MSS_GLOBAL_INTS*/, \
 163:../src/platform/mpfs_hal/common/mss_h2f.c ****     M2F_MAPPING_INVALID /*MSS_INT_F2M_5_PLIC        = 110 + OFFSET_TO_MSS_GLOBAL_INTS*/, \
 164:../src/platform/mpfs_hal/common/mss_h2f.c ****     M2F_MAPPING_INVALID /*MSS_INT_F2M_6_PLIC        = 111 + OFFSET_TO_MSS_GLOBAL_INTS*/, \
 165:../src/platform/mpfs_hal/common/mss_h2f.c ****     M2F_MAPPING_INVALID /*MSS_INT_F2M_7_PLIC        = 112 + OFFSET_TO_MSS_GLOBAL_INTS*/, \
 166:../src/platform/mpfs_hal/common/mss_h2f.c ****     M2F_MAPPING_INVALID /*MSS_INT_F2M_8_PLIC        = 113 + OFFSET_TO_MSS_GLOBAL_INTS*/, \
 167:../src/platform/mpfs_hal/common/mss_h2f.c ****     M2F_MAPPING_INVALID /*MSS_INT_F2M_9_PLIC        = 114 + OFFSET_TO_MSS_GLOBAL_INTS*/, \
 168:../src/platform/mpfs_hal/common/mss_h2f.c **** 
 169:../src/platform/mpfs_hal/common/mss_h2f.c ****     M2F_MAPPING_INVALID /*MSS_INT_F2M_10_PLIC        = 115 + OFFSET_TO_MSS_GLOBAL_INTS*/, \
 170:../src/platform/mpfs_hal/common/mss_h2f.c ****     M2F_MAPPING_INVALID /*MSS_INT_F2M_11_PLIC        = 116 + OFFSET_TO_MSS_GLOBAL_INTS*/, \
 171:../src/platform/mpfs_hal/common/mss_h2f.c ****     M2F_MAPPING_INVALID /*MSS_INT_F2M_12_PLIC        = 117 + OFFSET_TO_MSS_GLOBAL_INTS*/, \
 172:../src/platform/mpfs_hal/common/mss_h2f.c ****     M2F_MAPPING_INVALID /*MSS_INT_F2M_13_PLIC        = 118 + OFFSET_TO_MSS_GLOBAL_INTS*/, \
 173:../src/platform/mpfs_hal/common/mss_h2f.c ****     M2F_MAPPING_INVALID /*MSS_INT_F2M_14_PLIC        = 119 + OFFSET_TO_MSS_GLOBAL_INTS*/, \
 174:../src/platform/mpfs_hal/common/mss_h2f.c ****     M2F_MAPPING_INVALID /*MSS_INT_F2M_15_PLIC        = 120 + OFFSET_TO_MSS_GLOBAL_INTS*/, \
 175:../src/platform/mpfs_hal/common/mss_h2f.c ****     M2F_MAPPING_INVALID /*MSS_INT_F2M_16_PLIC        = 121 + OFFSET_TO_MSS_GLOBAL_INTS*/, \
 176:../src/platform/mpfs_hal/common/mss_h2f.c ****     M2F_MAPPING_INVALID /*MSS_INT_F2M_17_PLIC        = 122 + OFFSET_TO_MSS_GLOBAL_INTS*/, \
 177:../src/platform/mpfs_hal/common/mss_h2f.c ****     M2F_MAPPING_INVALID /*MSS_INT_F2M_18_PLIC        = 123 + OFFSET_TO_MSS_GLOBAL_INTS*/, \
 178:../src/platform/mpfs_hal/common/mss_h2f.c ****     M2F_MAPPING_INVALID /*MSS_INT_F2M_19_PLIC        = 124 + OFFSET_TO_MSS_GLOBAL_INTS*/, \
 179:../src/platform/mpfs_hal/common/mss_h2f.c **** 
 180:../src/platform/mpfs_hal/common/mss_h2f.c ****     M2F_MAPPING_INVALID /*MSS_INT_F2M_20_PLIC        = 125 + OFFSET_TO_MSS_GLOBAL_INTS*/, \
 181:../src/platform/mpfs_hal/common/mss_h2f.c ****     M2F_MAPPING_INVALID /*MSS_INT_F2M_21_PLIC        = 126 + OFFSET_TO_MSS_GLOBAL_INTS*/, \
 182:../src/platform/mpfs_hal/common/mss_h2f.c ****     M2F_MAPPING_INVALID /*MSS_INT_F2M_22_PLIC        = 127 + OFFSET_TO_MSS_GLOBAL_INTS*/, \
 183:../src/platform/mpfs_hal/common/mss_h2f.c ****     M2F_MAPPING_INVALID /*MSS_INT_F2M_23_PLIC        = 128 + OFFSET_TO_MSS_GLOBAL_INTS*/, \
 184:../src/platform/mpfs_hal/common/mss_h2f.c ****     M2F_MAPPING_INVALID /*MSS_INT_F2M_24_PLIC        = 129 + OFFSET_TO_MSS_GLOBAL_INTS*/, \
 185:../src/platform/mpfs_hal/common/mss_h2f.c ****     M2F_MAPPING_INVALID /*MSS_INT_F2M_25_PLIC        = 130 + OFFSET_TO_MSS_GLOBAL_INTS*/, \
 186:../src/platform/mpfs_hal/common/mss_h2f.c ****     M2F_MAPPING_INVALID /*MSS_INT_F2M_26_PLIC        = 131 + OFFSET_TO_MSS_GLOBAL_INTS*/, \
 187:../src/platform/mpfs_hal/common/mss_h2f.c ****     M2F_MAPPING_INVALID /*MSS_INT_F2M_27_PLIC        = 132 + OFFSET_TO_MSS_GLOBAL_INTS*/, \
 188:../src/platform/mpfs_hal/common/mss_h2f.c ****     M2F_MAPPING_INVALID /*MSS_INT_F2M_28_PLIC        = 133 + OFFSET_TO_MSS_GLOBAL_INTS*/, \
 189:../src/platform/mpfs_hal/common/mss_h2f.c ****     M2F_MAPPING_INVALID /*MSS_INT_F2M_29_PLIC        = 134 + OFFSET_TO_MSS_GLOBAL_INTS*/, \
 190:../src/platform/mpfs_hal/common/mss_h2f.c **** 
 191:../src/platform/mpfs_hal/common/mss_h2f.c ****     M2F_MAPPING_INVALID /*MSS_INT_F2M_30_PLIC        = 135 + OFFSET_TO_MSS_GLOBAL_INTS*/, \
 192:../src/platform/mpfs_hal/common/mss_h2f.c ****     M2F_MAPPING_INVALID /*MSS_INT_F2M_31_PLIC        = 136 + OFFSET_TO_MSS_GLOBAL_INTS*/, \
 193:../src/platform/mpfs_hal/common/mss_h2f.c **** 
 194:../src/platform/mpfs_hal/common/mss_h2f.c ****     M2F_MAPPING_INVALID /*MSS_INT_F2M_32_PLIC        = 137 + OFFSET_TO_MSS_GLOBAL_INTS*/, \
 195:../src/platform/mpfs_hal/common/mss_h2f.c ****     M2F_MAPPING_INVALID /*MSS_INT_F2M_33_PLIC        = 138 + OFFSET_TO_MSS_GLOBAL_INTS*/, \
 196:../src/platform/mpfs_hal/common/mss_h2f.c ****     M2F_MAPPING_INVALID /*MSS_INT_F2M_34_PLIC        = 139 + OFFSET_TO_MSS_GLOBAL_INTS*/, \
 197:../src/platform/mpfs_hal/common/mss_h2f.c ****     M2F_MAPPING_INVALID /*MSS_INT_F2M_35_PLIC        = 140 + OFFSET_TO_MSS_GLOBAL_INTS*/, \
 198:../src/platform/mpfs_hal/common/mss_h2f.c ****     M2F_MAPPING_INVALID /*MSS_INT_F2M_36_PLIC        = 141 + OFFSET_TO_MSS_GLOBAL_INTS*/, \
 199:../src/platform/mpfs_hal/common/mss_h2f.c ****     M2F_MAPPING_INVALID /*MSS_INT_F2M_37_PLIC        = 142 + OFFSET_TO_MSS_GLOBAL_INTS*/, \
 200:../src/platform/mpfs_hal/common/mss_h2f.c ****     M2F_MAPPING_INVALID /*MSS_INT_F2M_38_PLIC        = 143 + OFFSET_TO_MSS_GLOBAL_INTS*/, \
 201:../src/platform/mpfs_hal/common/mss_h2f.c ****     M2F_MAPPING_INVALID /*MSS_INT_F2M_39_PLIC        = 144 + OFFSET_TO_MSS_GLOBAL_INTS*/, \
 202:../src/platform/mpfs_hal/common/mss_h2f.c ****     M2F_MAPPING_INVALID /*MSS_INT_F2M_40_PLIC        = 145 + OFFSET_TO_MSS_GLOBAL_INTS*/, \
 203:../src/platform/mpfs_hal/common/mss_h2f.c ****     M2F_MAPPING_INVALID /*MSS_INT_F2M_41_PLIC        = 146 + OFFSET_TO_MSS_GLOBAL_INTS*/, \
 204:../src/platform/mpfs_hal/common/mss_h2f.c **** 
 205:../src/platform/mpfs_hal/common/mss_h2f.c ****     M2F_MAPPING_INVALID /*MSS_INT_F2M_42_PLIC        = 147 + OFFSET_TO_MSS_GLOBAL_INTS*/, \
 206:../src/platform/mpfs_hal/common/mss_h2f.c ****     M2F_MAPPING_INVALID /*MSS_INT_F2M_43_PLIC        = 148 + OFFSET_TO_MSS_GLOBAL_INTS*/, \
 207:../src/platform/mpfs_hal/common/mss_h2f.c ****     M2F_MAPPING_INVALID /*MSS_INT_F2M_44_PLIC        = 149 + OFFSET_TO_MSS_GLOBAL_INTS*/, \
 208:../src/platform/mpfs_hal/common/mss_h2f.c ****     M2F_MAPPING_INVALID /*MSS_INT_F2M_45_PLIC        = 150 + OFFSET_TO_MSS_GLOBAL_INTS*/, \
 209:../src/platform/mpfs_hal/common/mss_h2f.c ****     M2F_MAPPING_INVALID /*MSS_INT_F2M_46_PLIC        = 151 + OFFSET_TO_MSS_GLOBAL_INTS*/, \
 210:../src/platform/mpfs_hal/common/mss_h2f.c ****     M2F_MAPPING_INVALID /*MSS_INT_F2M_47_PLIC        = 152 + OFFSET_TO_MSS_GLOBAL_INTS*/, \
 211:../src/platform/mpfs_hal/common/mss_h2f.c ****     M2F_MAPPING_INVALID /*MSS_INT_F2M_48_PLIC        = 153 + OFFSET_TO_MSS_GLOBAL_INTS*/, \
 212:../src/platform/mpfs_hal/common/mss_h2f.c ****     M2F_MAPPING_INVALID /*MSS_INT_F2M_49_PLIC        = 154 + OFFSET_TO_MSS_GLOBAL_INTS*/, \
 213:../src/platform/mpfs_hal/common/mss_h2f.c ****     M2F_MAPPING_INVALID /*MSS_INT_F2M_50_PLIC        = 155 + OFFSET_TO_MSS_GLOBAL_INTS*/, \
 214:../src/platform/mpfs_hal/common/mss_h2f.c ****     M2F_MAPPING_INVALID /*MSS_INT_F2M_51_PLIC        = 156 + OFFSET_TO_MSS_GLOBAL_INTS*/, \
 215:../src/platform/mpfs_hal/common/mss_h2f.c **** 
 216:../src/platform/mpfs_hal/common/mss_h2f.c ****     M2F_MAPPING_INVALID /*MSS_INT_F2M_52_PLIC        = 157 + OFFSET_TO_MSS_GLOBAL_INTS*/, \
 217:../src/platform/mpfs_hal/common/mss_h2f.c ****     M2F_MAPPING_INVALID /*MSS_INT_F2M_53_PLIC        = 158 + OFFSET_TO_MSS_GLOBAL_INTS*/, \
 218:../src/platform/mpfs_hal/common/mss_h2f.c ****     M2F_MAPPING_INVALID /*MSS_INT_F2M_54_PLIC        = 159 + OFFSET_TO_MSS_GLOBAL_INTS*/, \
 219:../src/platform/mpfs_hal/common/mss_h2f.c ****     M2F_MAPPING_INVALID /*MSS_INT_F2M_55_PLIC        = 160 + OFFSET_TO_MSS_GLOBAL_INTS*/, \
 220:../src/platform/mpfs_hal/common/mss_h2f.c ****     M2F_MAPPING_INVALID /*MSS_INT_F2M_56_PLIC        = 161 + OFFSET_TO_MSS_GLOBAL_INTS*/, \
 221:../src/platform/mpfs_hal/common/mss_h2f.c ****     M2F_MAPPING_INVALID /*MSS_INT_F2M_57_PLIC        = 162 + OFFSET_TO_MSS_GLOBAL_INTS*/, \
 222:../src/platform/mpfs_hal/common/mss_h2f.c ****     M2F_MAPPING_INVALID /*MSS_INT_F2M_58_PLIC        = 163 + OFFSET_TO_MSS_GLOBAL_INTS*/, \
 223:../src/platform/mpfs_hal/common/mss_h2f.c ****     M2F_MAPPING_INVALID /*MSS_INT_F2M_59_PLIC        = 164 + OFFSET_TO_MSS_GLOBAL_INTS*/, \
 224:../src/platform/mpfs_hal/common/mss_h2f.c ****     M2F_MAPPING_INVALID /*MSS_INT_F2M_60_PLIC        = 165 + OFFSET_TO_MSS_GLOBAL_INTS*/, \
 225:../src/platform/mpfs_hal/common/mss_h2f.c ****     M2F_MAPPING_INVALID /*MSS_INT_F2M_61_PLIC        = 166 + OFFSET_TO_MSS_GLOBAL_INTS*/, \
 226:../src/platform/mpfs_hal/common/mss_h2f.c **** 
 227:../src/platform/mpfs_hal/common/mss_h2f.c ****     M2F_MAPPING_INVALID /*MSS_INT_F2M_62_PLIC        = 167 + OFFSET_TO_MSS_GLOBAL_INTS*/, \
 228:../src/platform/mpfs_hal/common/mss_h2f.c ****     M2F_MAPPING_INVALID /*MSS_INT_F2M_63_PLIC        = 168 + OFFSET_TO_MSS_GLOBAL_INTS*/, \
 229:../src/platform/mpfs_hal/common/mss_h2f.c **** 
 230:../src/platform/mpfs_hal/common/mss_h2f.c ****     M2F_MAPPING_INVALID /*BUS_ERROR_UNIT_HART_0    = 182*/, \
 231:../src/platform/mpfs_hal/common/mss_h2f.c ****     M2F_MAPPING_INVALID /*BUS_ERROR_UNIT_HART_1    = 183*/, \
 232:../src/platform/mpfs_hal/common/mss_h2f.c ****     M2F_MAPPING_INVALID /*BUS_ERROR_UNIT_HART_2    = 184*/, \
 233:../src/platform/mpfs_hal/common/mss_h2f.c ****     M2F_MAPPING_INVALID /*BUS_ERROR_UNIT_HART_3    = 185*/, \
 234:../src/platform/mpfs_hal/common/mss_h2f.c ****     M2F_MAPPING_INVALID /*BUS_ERROR_UNIT_HART_4    = 186 */
 235:../src/platform/mpfs_hal/common/mss_h2f.c **** 
 236:../src/platform/mpfs_hal/common/mss_h2f.c **** };
 237:../src/platform/mpfs_hal/common/mss_h2f.c **** 
 238:../src/platform/mpfs_hal/common/mss_h2f.c **** 
 239:../src/platform/mpfs_hal/common/mss_h2f.c **** /**
 240:../src/platform/mpfs_hal/common/mss_h2f.c ****  * get source to fabric signal mapping
 241:../src/platform/mpfs_hal/common/mss_h2f.c ****  * @param source_int
 242:../src/platform/mpfs_hal/common/mss_h2f.c ****  * @return
 243:../src/platform/mpfs_hal/common/mss_h2f.c ****  */
 244:../src/platform/mpfs_hal/common/mss_h2f.c **** static uint32_t get_corresponding_m2f_output(uint32_t source_int)
 245:../src/platform/mpfs_hal/common/mss_h2f.c **** {
 207              		.loc 1 245 1
 208              		.cfi_startproc
 209 0000 7971     		addi	sp,sp,-48
 210              		.cfi_def_cfa_offset 48
 211 0002 22F4     		sd	s0,40(sp)
 212              		.cfi_offset 8, -8
 213 0004 0018     		addi	s0,sp,48
 214              		.cfi_def_cfa 8, 0
 215 0006 AA87     		mv	a5,a0
 216 0008 232EF4FC 		sw	a5,-36(s0)
 246:../src/platform/mpfs_hal/common/mss_h2f.c ****     uint32_t m2f_line = M2F_int_mapping[source_int];
 217              		.loc 1 246 40
 218 000c 17070000 		lla	a4,M2F_int_mapping
 218      13070700 
 219 0014 8367C4FD 		lwu	a5,-36(s0)
 220 0018 BA97     		add	a5,a4,a5
 221 001a 83C70700 		lbu	a5,0(a5)
 222              		.loc 1 246 14
 223 001e 2326F4FE 		sw	a5,-20(s0)
 247:../src/platform/mpfs_hal/common/mss_h2f.c **** 
 248:../src/platform/mpfs_hal/common/mss_h2f.c ****     if(m2f_line < M2F_MAPPING_INVALID) /* if no error */
 224              		.loc 1 248 7
 225 0022 8327C4FE 		lw	a5,-20(s0)
 226 0026 1B870700 		sext.w	a4,a5
 227 002a 9307E00F 		li	a5,254
 228 002e 63E9E700 		bgtu	a4,a5,.L2
 249:../src/platform/mpfs_hal/common/mss_h2f.c ****     {
 250:../src/platform/mpfs_hal/common/mss_h2f.c ****         return(0x01U << m2f_line);
 229              		.loc 1 250 22
 230 0032 8327C4FE 		lw	a5,-20(s0)
 231 0036 0547     		li	a4,1
 232 0038 BB17F700 		sllw	a5,a4,a5
 233 003c 8127     		sext.w	a5,a5
 234 003e 19A0     		j	.L3
 235              	.L2:
 251:../src/platform/mpfs_hal/common/mss_h2f.c ****     }
 252:../src/platform/mpfs_hal/common/mss_h2f.c **** 
 253:../src/platform/mpfs_hal/common/mss_h2f.c ****     return(m2f_line);
 236              		.loc 1 253 11
 237 0040 8327C4FE 		lw	a5,-20(s0)
 238              	.L3:
 254:../src/platform/mpfs_hal/common/mss_h2f.c **** 
 255:../src/platform/mpfs_hal/common/mss_h2f.c **** }
 239              		.loc 1 255 1
 240 0044 3E85     		mv	a0,a5
 241 0046 2274     		ld	s0,40(sp)
 242              		.cfi_restore 8
 243              		.cfi_def_cfa 2, 48
 244 0048 4561     		addi	sp,sp,48
 245              		.cfi_def_cfa_offset 0
 246 004a 8280     		jr	ra
 247              		.cfi_endproc
 248              	.LFE11:
 250              		.section	.text.reset_m2f,"ax",@progbits
 251              		.align	1
 252              		.globl	reset_m2f
 254              	reset_m2f:
 255              	.LFB12:
 256:../src/platform/mpfs_hal/common/mss_h2f.c **** 
 257:../src/platform/mpfs_hal/common/mss_h2f.c **** /**
 258:../src/platform/mpfs_hal/common/mss_h2f.c ****  * set M2F controller to reset to defaults- disabled
 259:../src/platform/mpfs_hal/common/mss_h2f.c ****  */
 260:../src/platform/mpfs_hal/common/mss_h2f.c **** void reset_m2f(void)
 261:../src/platform/mpfs_hal/common/mss_h2f.c **** {
 256              		.loc 1 261 1
 257              		.cfi_startproc
 258 0000 0111     		addi	sp,sp,-32
 259              		.cfi_def_cfa_offset 32
 260 0002 22EC     		sd	s0,24(sp)
 261              		.cfi_offset 8, -8
 262 0004 0010     		addi	s0,sp,32
 263              		.cfi_def_cfa 8, 0
 262:../src/platform/mpfs_hal/common/mss_h2f.c ****     uint8_t index = 0U;
 264              		.loc 1 262 13
 265 0006 A30704FE 		sb	zero,-17(s0)
 263:../src/platform/mpfs_hal/common/mss_h2f.c ****     M2F_CONTROLLER->ENABLE = 0U;
 266              		.loc 1 263 19
 267 000a B7671220 		li	a5,538075136
 268              		.loc 1 263 28
 269 000e 23A00700 		sw	zero,0(a5)
 264:../src/platform/mpfs_hal/common/mss_h2f.c ****     while(index < 4U)
 270              		.loc 1 264 10
 271 0012 05A0     		j	.L5
 272              	.L6:
 265:../src/platform/mpfs_hal/common/mss_h2f.c ****     {
 266:../src/platform/mpfs_hal/common/mss_h2f.c ****         M2F_CONTROLLER->PLENABLE[index] = 0U;
 273              		.loc 1 266 23
 274 0014 37671220 		li	a4,538075136
 275              		.loc 1 266 33
 276 0018 8347F4FE 		lbu	a5,-17(s0)
 277 001c 8127     		sext.w	a5,a5
 278              		.loc 1 266 41
 279 001e A107     		addi	a5,a5,8
 280 0020 8A07     		slli	a5,a5,2
 281 0022 BA97     		add	a5,a4,a5
 282 0024 23A00700 		sw	zero,0(a5)
 267:../src/platform/mpfs_hal/common/mss_h2f.c ****         index++;
 283              		.loc 1 267 14
 284 0028 8347F4FE 		lbu	a5,-17(s0)
 285 002c 8527     		addiw	a5,a5,1
 286 002e A307F4FE 		sb	a5,-17(s0)
 287              	.L5:
 264:../src/platform/mpfs_hal/common/mss_h2f.c ****     while(index < 4U)
 288              		.loc 1 264 10
 289 0032 8347F4FE 		lbu	a5,-17(s0)
 290 0036 13F7F70F 		andi	a4,a5,0xff
 291 003a 8D47     		li	a5,3
 292 003c E3FCE7FC 		bleu	a4,a5,.L6
 268:../src/platform/mpfs_hal/common/mss_h2f.c ****     }
 269:../src/platform/mpfs_hal/common/mss_h2f.c **** }
 293              		.loc 1 269 1
 294 0040 0100     		nop
 295 0042 6264     		ld	s0,24(sp)
 296              		.cfi_restore 8
 297              		.cfi_def_cfa 2, 32
 298 0044 0561     		addi	sp,sp,32
 299              		.cfi_def_cfa_offset 0
 300 0046 8280     		jr	ra
 301              		.cfi_endproc
 302              	.LFE12:
 304              		.section	.text.enable_m2f_int_output,"ax",@progbits
 305              		.align	1
 306              		.globl	enable_m2f_int_output
 308              	enable_m2f_int_output:
 309              	.LFB13:
 270:../src/platform/mpfs_hal/common/mss_h2f.c **** 
 271:../src/platform/mpfs_hal/common/mss_h2f.c **** /**
 272:../src/platform/mpfs_hal/common/mss_h2f.c ****  * enables output which will mirror PLIC input. PLIC mapping given above for reference
 273:../src/platform/mpfs_hal/common/mss_h2f.c ****  * @param source_int
 274:../src/platform/mpfs_hal/common/mss_h2f.c ****  */
 275:../src/platform/mpfs_hal/common/mss_h2f.c **** void enable_m2f_int_output(uint32_t source_int)
 276:../src/platform/mpfs_hal/common/mss_h2f.c **** {
 310              		.loc 1 276 1
 311              		.cfi_startproc
 312 0000 7971     		addi	sp,sp,-48
 313              		.cfi_def_cfa_offset 48
 314 0002 06F4     		sd	ra,40(sp)
 315 0004 22F0     		sd	s0,32(sp)
 316              		.cfi_offset 1, -8
 317              		.cfi_offset 8, -16
 318 0006 0018     		addi	s0,sp,48
 319              		.cfi_def_cfa 8, 0
 320 0008 AA87     		mv	a5,a0
 321 000a 232EF4FC 		sw	a5,-36(s0)
 277:../src/platform/mpfs_hal/common/mss_h2f.c **** 
 278:../src/platform/mpfs_hal/common/mss_h2f.c ****     uint32_t output_signal = get_corresponding_m2f_output(source_int);
 322              		.loc 1 278 30
 323 000e 8327C4FD 		lw	a5,-36(s0)
 324 0012 3E85     		mv	a0,a5
 325 0014 97000000 		call	get_corresponding_m2f_output
 325      E7800000 
 326 001c AA87     		mv	a5,a0
 327 001e 2326F4FE 		sw	a5,-20(s0)
 279:../src/platform/mpfs_hal/common/mss_h2f.c **** 
 280:../src/platform/mpfs_hal/common/mss_h2f.c ****     if(output_signal != M2F_MAPPING_INVALID)
 328              		.loc 1 280 7
 329 0022 8327C4FE 		lw	a5,-20(s0)
 330 0026 1B870700 		sext.w	a4,a5
 331 002a 9307F00F 		li	a5,255
 332 002e 6300F708 		beq	a4,a5,.L9
 281:../src/platform/mpfs_hal/common/mss_h2f.c ****     {
 282:../src/platform/mpfs_hal/common/mss_h2f.c ****         source_int -= OFFSET_TO_MSS_GLOBAL_INTS;
 333              		.loc 1 282 20
 334 0032 8327C4FD 		lw	a5,-36(s0)
 335 0036 CD37     		addiw	a5,a5,-13
 336 0038 232EF4FC 		sw	a5,-36(s0)
 283:../src/platform/mpfs_hal/common/mss_h2f.c **** 
 284:../src/platform/mpfs_hal/common/mss_h2f.c ****         /* enable the input */
 285:../src/platform/mpfs_hal/common/mss_h2f.c ****         M2F_CONTROLLER->PLENABLE[source_int/32U] |= (0x01U << (source_int % 32U));
 337              		.loc 1 285 50
 338 003c 37671220 		li	a4,538075136
 339              		.loc 1 285 44
 340 0040 8327C4FD 		lw	a5,-36(s0)
 341 0044 9BD75700 		srliw	a5,a5,5
 342 0048 1B860700 		sext.w	a2,a5
 343              		.loc 1 285 50
 344 004c 93170602 		slli	a5,a2,32
 345 0050 8193     		srli	a5,a5,32
 346 0052 A107     		addi	a5,a5,8
 347 0054 8A07     		slli	a5,a5,2
 348 0056 BA97     		add	a5,a4,a5
 349 0058 9C43     		lw	a5,0(a5)
 350 005a 1B870700 		sext.w	a4,a5
 351              		.loc 1 285 75
 352 005e 8327C4FD 		lw	a5,-36(s0)
 353 0062 FD8B     		andi	a5,a5,31
 354 0064 8127     		sext.w	a5,a5
 355              		.loc 1 285 60
 356 0066 BE86     		mv	a3,a5
 357 0068 8547     		li	a5,1
 358 006a BB97D700 		sllw	a5,a5,a3
 359 006e 8127     		sext.w	a5,a5
 360              		.loc 1 285 50
 361 0070 B7661220 		li	a3,538075136
 362 0074 D98F     		or	a5,a4,a5
 363 0076 1B870700 		sext.w	a4,a5
 364 007a 93170602 		slli	a5,a2,32
 365 007e 8193     		srli	a5,a5,32
 366 0080 A107     		addi	a5,a5,8
 367 0082 8A07     		slli	a5,a5,2
 368 0084 B697     		add	a5,a3,a5
 369 0086 98C3     		sw	a4,0(a5)
 286:../src/platform/mpfs_hal/common/mss_h2f.c **** 
 287:../src/platform/mpfs_hal/common/mss_h2f.c ****         /* enable the output */
 288:../src/platform/mpfs_hal/common/mss_h2f.c ****         M2F_CONTROLLER->ENABLE |= ((output_signal<<16U) | 0x01U);
 370              		.loc 1 288 32
 371 0088 B7671220 		li	a5,538075136
 372 008c 9C43     		lw	a5,0(a5)
 373 008e 1B870700 		sext.w	a4,a5
 374              		.loc 1 288 50
 375 0092 8327C4FE 		lw	a5,-20(s0)
 376 0096 9B970701 		slliw	a5,a5,16
 377 009a 8127     		sext.w	a5,a5
 378              		.loc 1 288 32
 379 009c D98F     		or	a5,a4,a5
 380 009e 1B870700 		sext.w	a4,a5
 381 00a2 B7671220 		li	a5,538075136
 382 00a6 13671700 		ori	a4,a4,1
 383 00aa 0127     		sext.w	a4,a4
 384 00ac 98C3     		sw	a4,0(a5)
 385              	.L9:
 289:../src/platform/mpfs_hal/common/mss_h2f.c ****     }
 290:../src/platform/mpfs_hal/common/mss_h2f.c **** }
 386              		.loc 1 290 1
 387 00ae 0100     		nop
 388 00b0 A270     		ld	ra,40(sp)
 389              		.cfi_restore 1
 390 00b2 0274     		ld	s0,32(sp)
 391              		.cfi_restore 8
 392              		.cfi_def_cfa 2, 48
 393 00b4 4561     		addi	sp,sp,48
 394              		.cfi_def_cfa_offset 0
 395 00b6 8280     		jr	ra
 396              		.cfi_endproc
 397              	.LFE13:
 399              		.section	.text.disable_m2f_int_output,"ax",@progbits
 400              		.align	1
 401              		.globl	disable_m2f_int_output
 403              	disable_m2f_int_output:
 404              	.LFB14:
 291:../src/platform/mpfs_hal/common/mss_h2f.c **** 
 292:../src/platform/mpfs_hal/common/mss_h2f.c **** 
 293:../src/platform/mpfs_hal/common/mss_h2f.c **** /**
 294:../src/platform/mpfs_hal/common/mss_h2f.c ****  * enables output which will mirror PLIC input. PLIC mapping given above for reference
 295:../src/platform/mpfs_hal/common/mss_h2f.c ****  * @param source_int
 296:../src/platform/mpfs_hal/common/mss_h2f.c ****  */
 297:../src/platform/mpfs_hal/common/mss_h2f.c **** void disable_m2f_int_output(uint32_t source_int)
 298:../src/platform/mpfs_hal/common/mss_h2f.c **** {
 405              		.loc 1 298 1
 406              		.cfi_startproc
 407 0000 7971     		addi	sp,sp,-48
 408              		.cfi_def_cfa_offset 48
 409 0002 06F4     		sd	ra,40(sp)
 410 0004 22F0     		sd	s0,32(sp)
 411              		.cfi_offset 1, -8
 412              		.cfi_offset 8, -16
 413 0006 0018     		addi	s0,sp,48
 414              		.cfi_def_cfa 8, 0
 415 0008 AA87     		mv	a5,a0
 416 000a 232EF4FC 		sw	a5,-36(s0)
 299:../src/platform/mpfs_hal/common/mss_h2f.c ****     uint32_t output_signal = get_corresponding_m2f_output(source_int);
 417              		.loc 1 299 30
 418 000e 8327C4FD 		lw	a5,-36(s0)
 419 0012 3E85     		mv	a0,a5
 420 0014 97000000 		call	get_corresponding_m2f_output
 420      E7800000 
 421 001c AA87     		mv	a5,a0
 422 001e 2326F4FE 		sw	a5,-20(s0)
 300:../src/platform/mpfs_hal/common/mss_h2f.c **** 
 301:../src/platform/mpfs_hal/common/mss_h2f.c ****     if(output_signal != M2F_MAPPING_INVALID)
 423              		.loc 1 301 7
 424 0022 8327C4FE 		lw	a5,-20(s0)
 425 0026 1B870700 		sext.w	a4,a5
 426 002a 9307F00F 		li	a5,255
 427 002e 6309F706 		beq	a4,a5,.L12
 302:../src/platform/mpfs_hal/common/mss_h2f.c ****     {
 303:../src/platform/mpfs_hal/common/mss_h2f.c ****         /* enable the input */
 304:../src/platform/mpfs_hal/common/mss_h2f.c ****         M2F_CONTROLLER->PLENABLE[source_int/32U] &= ~(source_int % 32U);
 428              		.loc 1 304 50
 429 0032 37671220 		li	a4,538075136
 430              		.loc 1 304 44
 431 0036 8327C4FD 		lw	a5,-36(s0)
 432 003a 9BD75700 		srliw	a5,a5,5
 433 003e 1B860700 		sext.w	a2,a5
 434              		.loc 1 304 50
 435 0042 93170602 		slli	a5,a2,32
 436 0046 8193     		srli	a5,a5,32
 437 0048 A107     		addi	a5,a5,8
 438 004a 8A07     		slli	a5,a5,2
 439 004c BA97     		add	a5,a4,a5
 440 004e 9C43     		lw	a5,0(a5)
 441 0050 1B870700 		sext.w	a4,a5
 442              		.loc 1 304 66
 443 0054 8327C4FD 		lw	a5,-36(s0)
 444 0058 FD8B     		andi	a5,a5,31
 445 005a 8127     		sext.w	a5,a5
 446              		.loc 1 304 53
 447 005c 93C7F7FF 		not	a5,a5
 448 0060 8127     		sext.w	a5,a5
 449              		.loc 1 304 50
 450 0062 B7661220 		li	a3,538075136
 451 0066 F98F     		and	a5,a4,a5
 452 0068 1B870700 		sext.w	a4,a5
 453 006c 93170602 		slli	a5,a2,32
 454 0070 8193     		srli	a5,a5,32
 455 0072 A107     		addi	a5,a5,8
 456 0074 8A07     		slli	a5,a5,2
 457 0076 B697     		add	a5,a3,a5
 458 0078 98C3     		sw	a4,0(a5)
 305:../src/platform/mpfs_hal/common/mss_h2f.c ****         /* enable the output */
 306:../src/platform/mpfs_hal/common/mss_h2f.c ****         M2F_CONTROLLER->ENABLE &= ~(((output_signal<<16U)));
 459              		.loc 1 306 32
 460 007a B7671220 		li	a5,538075136
 461 007e 9C43     		lw	a5,0(a5)
 462 0080 9B860700 		sext.w	a3,a5
 463              		.loc 1 306 52
 464 0084 8327C4FE 		lw	a5,-20(s0)
 465 0088 9B970701 		slliw	a5,a5,16
 466 008c 8127     		sext.w	a5,a5
 467              		.loc 1 306 35
 468 008e 93C7F7FF 		not	a5,a5
 469 0092 1B870700 		sext.w	a4,a5
 470              		.loc 1 306 32
 471 0096 B7671220 		li	a5,538075136
 472 009a 758F     		and	a4,a3,a4
 473 009c 0127     		sext.w	a4,a4
 474 009e 98C3     		sw	a4,0(a5)
 475              	.L12:
 307:../src/platform/mpfs_hal/common/mss_h2f.c ****     }
 308:../src/platform/mpfs_hal/common/mss_h2f.c **** }
 476              		.loc 1 308 1
 477 00a0 0100     		nop
 478 00a2 A270     		ld	ra,40(sp)
 479              		.cfi_restore 1
 480 00a4 0274     		ld	s0,32(sp)
 481              		.cfi_restore 8
 482              		.cfi_def_cfa 2, 48
 483 00a6 4561     		addi	sp,sp,48
 484              		.cfi_def_cfa_offset 0
 485 00a8 8280     		jr	ra
 486              		.cfi_endproc
 487              	.LFE14:
 489              		.text
 490              	.Letext0:
 491              		.file 2 "/home/vinay/Desktop/soft_console/SoftConsole-v2022.2-RISC-V-747/riscv-unknown-elf-gcc/ris
 492              		.file 3 "/home/vinay/Desktop/soft_console/SoftConsole-v2022.2-RISC-V-747/riscv-unknown-elf-gcc/ris
 493              		.file 4 "../src/platform/mpfs_hal/common/mss_h2f.h"
 494              		.file 5 "../src/platform/mpfs_hal/common/mss_plic.h"
DEFINED SYMBOLS
                            *ABS*:0000000000000000 mss_h2f.c
     /tmp/ccJwlT8t.s:14     .rodata.M2F_int_mapping:0000000000000000 M2F_int_mapping
     /tmp/ccJwlT8t.s:204    .text.get_corresponding_m2f_output:0000000000000000 get_corresponding_m2f_output
     /tmp/ccJwlT8t.s:208    .text.get_corresponding_m2f_output:0000000000000000 .L0 
     /tmp/ccJwlT8t.s:209    .text.get_corresponding_m2f_output:0000000000000000 .L0 
     /tmp/ccJwlT8t.s:210    .text.get_corresponding_m2f_output:0000000000000002 .L0 
     /tmp/ccJwlT8t.s:212    .text.get_corresponding_m2f_output:0000000000000004 .L0 
     /tmp/ccJwlT8t.s:214    .text.get_corresponding_m2f_output:0000000000000006 .L0 
     /tmp/ccJwlT8t.s:218    .text.get_corresponding_m2f_output:000000000000000c .L0 
     /tmp/ccJwlT8t.s:223    .text.get_corresponding_m2f_output:000000000000001e .L0 
     /tmp/ccJwlT8t.s:225    .text.get_corresponding_m2f_output:0000000000000022 .L0 
     /tmp/ccJwlT8t.s:230    .text.get_corresponding_m2f_output:0000000000000032 .L0 
     /tmp/ccJwlT8t.s:237    .text.get_corresponding_m2f_output:0000000000000040 .L0 
     /tmp/ccJwlT8t.s:240    .text.get_corresponding_m2f_output:0000000000000044 .L0 
     /tmp/ccJwlT8t.s:242    .text.get_corresponding_m2f_output:0000000000000048 .L0 
     /tmp/ccJwlT8t.s:243    .text.get_corresponding_m2f_output:0000000000000048 .L0 
     /tmp/ccJwlT8t.s:245    .text.get_corresponding_m2f_output:000000000000004a .L0 
     /tmp/ccJwlT8t.s:247    .text.get_corresponding_m2f_output:000000000000004c .L0 
     /tmp/ccJwlT8t.s:254    .text.reset_m2f:0000000000000000 reset_m2f
     /tmp/ccJwlT8t.s:257    .text.reset_m2f:0000000000000000 .L0 
     /tmp/ccJwlT8t.s:258    .text.reset_m2f:0000000000000000 .L0 
     /tmp/ccJwlT8t.s:259    .text.reset_m2f:0000000000000002 .L0 
     /tmp/ccJwlT8t.s:261    .text.reset_m2f:0000000000000004 .L0 
     /tmp/ccJwlT8t.s:263    .text.reset_m2f:0000000000000006 .L0 
     /tmp/ccJwlT8t.s:265    .text.reset_m2f:0000000000000006 .L0 
     /tmp/ccJwlT8t.s:267    .text.reset_m2f:000000000000000a .L0 
     /tmp/ccJwlT8t.s:269    .text.reset_m2f:000000000000000e .L0 
     /tmp/ccJwlT8t.s:271    .text.reset_m2f:0000000000000012 .L0 
     /tmp/ccJwlT8t.s:274    .text.reset_m2f:0000000000000014 .L0 
     /tmp/ccJwlT8t.s:276    .text.reset_m2f:0000000000000018 .L0 
     /tmp/ccJwlT8t.s:279    .text.reset_m2f:000000000000001e .L0 
     /tmp/ccJwlT8t.s:284    .text.reset_m2f:0000000000000028 .L0 
     /tmp/ccJwlT8t.s:289    .text.reset_m2f:0000000000000032 .L0 
     /tmp/ccJwlT8t.s:294    .text.reset_m2f:0000000000000040 .L0 
     /tmp/ccJwlT8t.s:296    .text.reset_m2f:0000000000000044 .L0 
     /tmp/ccJwlT8t.s:297    .text.reset_m2f:0000000000000044 .L0 
     /tmp/ccJwlT8t.s:299    .text.reset_m2f:0000000000000046 .L0 
     /tmp/ccJwlT8t.s:301    .text.reset_m2f:0000000000000048 .L0 
     /tmp/ccJwlT8t.s:308    .text.enable_m2f_int_output:0000000000000000 enable_m2f_int_output
     /tmp/ccJwlT8t.s:311    .text.enable_m2f_int_output:0000000000000000 .L0 
     /tmp/ccJwlT8t.s:312    .text.enable_m2f_int_output:0000000000000000 .L0 
     /tmp/ccJwlT8t.s:313    .text.enable_m2f_int_output:0000000000000002 .L0 
     /tmp/ccJwlT8t.s:316    .text.enable_m2f_int_output:0000000000000006 .L0 
     /tmp/ccJwlT8t.s:317    .text.enable_m2f_int_output:0000000000000006 .L0 
     /tmp/ccJwlT8t.s:319    .text.enable_m2f_int_output:0000000000000008 .L0 
     /tmp/ccJwlT8t.s:323    .text.enable_m2f_int_output:000000000000000e .L0 
     /tmp/ccJwlT8t.s:329    .text.enable_m2f_int_output:0000000000000022 .L0 
     /tmp/ccJwlT8t.s:334    .text.enable_m2f_int_output:0000000000000032 .L0 
     /tmp/ccJwlT8t.s:338    .text.enable_m2f_int_output:000000000000003c .L0 
     /tmp/ccJwlT8t.s:340    .text.enable_m2f_int_output:0000000000000040 .L0 
     /tmp/ccJwlT8t.s:344    .text.enable_m2f_int_output:000000000000004c .L0 
     /tmp/ccJwlT8t.s:352    .text.enable_m2f_int_output:000000000000005e .L0 
     /tmp/ccJwlT8t.s:356    .text.enable_m2f_int_output:0000000000000066 .L0 
     /tmp/ccJwlT8t.s:361    .text.enable_m2f_int_output:0000000000000070 .L0 
     /tmp/ccJwlT8t.s:371    .text.enable_m2f_int_output:0000000000000088 .L0 
     /tmp/ccJwlT8t.s:375    .text.enable_m2f_int_output:0000000000000092 .L0 
     /tmp/ccJwlT8t.s:379    .text.enable_m2f_int_output:000000000000009c .L0 
     /tmp/ccJwlT8t.s:387    .text.enable_m2f_int_output:00000000000000ae .L0 
     /tmp/ccJwlT8t.s:389    .text.enable_m2f_int_output:00000000000000b2 .L0 
     /tmp/ccJwlT8t.s:391    .text.enable_m2f_int_output:00000000000000b4 .L0 
     /tmp/ccJwlT8t.s:392    .text.enable_m2f_int_output:00000000000000b4 .L0 
     /tmp/ccJwlT8t.s:394    .text.enable_m2f_int_output:00000000000000b6 .L0 
     /tmp/ccJwlT8t.s:396    .text.enable_m2f_int_output:00000000000000b8 .L0 
     /tmp/ccJwlT8t.s:403    .text.disable_m2f_int_output:0000000000000000 disable_m2f_int_output
     /tmp/ccJwlT8t.s:406    .text.disable_m2f_int_output:0000000000000000 .L0 
     /tmp/ccJwlT8t.s:407    .text.disable_m2f_int_output:0000000000000000 .L0 
     /tmp/ccJwlT8t.s:408    .text.disable_m2f_int_output:0000000000000002 .L0 
     /tmp/ccJwlT8t.s:411    .text.disable_m2f_int_output:0000000000000006 .L0 
     /tmp/ccJwlT8t.s:412    .text.disable_m2f_int_output:0000000000000006 .L0 
     /tmp/ccJwlT8t.s:414    .text.disable_m2f_int_output:0000000000000008 .L0 
     /tmp/ccJwlT8t.s:418    .text.disable_m2f_int_output:000000000000000e .L0 
     /tmp/ccJwlT8t.s:424    .text.disable_m2f_int_output:0000000000000022 .L0 
     /tmp/ccJwlT8t.s:429    .text.disable_m2f_int_output:0000000000000032 .L0 
     /tmp/ccJwlT8t.s:431    .text.disable_m2f_int_output:0000000000000036 .L0 
     /tmp/ccJwlT8t.s:435    .text.disable_m2f_int_output:0000000000000042 .L0 
     /tmp/ccJwlT8t.s:443    .text.disable_m2f_int_output:0000000000000054 .L0 
     /tmp/ccJwlT8t.s:447    .text.disable_m2f_int_output:000000000000005c .L0 
     /tmp/ccJwlT8t.s:450    .text.disable_m2f_int_output:0000000000000062 .L0 
     /tmp/ccJwlT8t.s:460    .text.disable_m2f_int_output:000000000000007a .L0 
     /tmp/ccJwlT8t.s:464    .text.disable_m2f_int_output:0000000000000084 .L0 
     /tmp/ccJwlT8t.s:468    .text.disable_m2f_int_output:000000000000008e .L0 
     /tmp/ccJwlT8t.s:471    .text.disable_m2f_int_output:0000000000000096 .L0 
     /tmp/ccJwlT8t.s:477    .text.disable_m2f_int_output:00000000000000a0 .L0 
     /tmp/ccJwlT8t.s:479    .text.disable_m2f_int_output:00000000000000a4 .L0 
     /tmp/ccJwlT8t.s:481    .text.disable_m2f_int_output:00000000000000a6 .L0 
     /tmp/ccJwlT8t.s:482    .text.disable_m2f_int_output:00000000000000a6 .L0 
     /tmp/ccJwlT8t.s:484    .text.disable_m2f_int_output:00000000000000a8 .L0 
     /tmp/ccJwlT8t.s:486    .text.disable_m2f_int_output:00000000000000aa .L0 
     /tmp/ccJwlT8t.s:250    .text.get_corresponding_m2f_output:000000000000004c .L0 
     /tmp/ccJwlT8t.s:304    .text.reset_m2f:0000000000000048 .L0 
     /tmp/ccJwlT8t.s:399    .text.enable_m2f_int_output:00000000000000b8 .L0 
     /tmp/ccJwlT8t.s:489    .text.disable_m2f_int_output:00000000000000aa .L0 
                     .debug_frame:0000000000000000 .L0 
     /tmp/ccJwlT8t.s:218    .text.get_corresponding_m2f_output:000000000000000c .L0 
     /tmp/ccJwlT8t.s:235    .text.get_corresponding_m2f_output:0000000000000040 .L2
     /tmp/ccJwlT8t.s:238    .text.get_corresponding_m2f_output:0000000000000044 .L3
     /tmp/ccJwlT8t.s:287    .text.reset_m2f:0000000000000032 .L5
     /tmp/ccJwlT8t.s:272    .text.reset_m2f:0000000000000014 .L6
     /tmp/ccJwlT8t.s:385    .text.enable_m2f_int_output:00000000000000ae .L9
     /tmp/ccJwlT8t.s:475    .text.disable_m2f_int_output:00000000000000a0 .L12
     /tmp/ccJwlT8t.s:1345   .debug_abbrev:0000000000000000 .Ldebug_abbrev0
     /tmp/ccJwlT8t.s:11027  .debug_str:000000000000b8cf .LASF2253
     /tmp/ccJwlT8t.s:11891  .debug_str:000000000000ede4 .LASF2254
     /tmp/ccJwlT8t.s:8375   .debug_str:000000000000153b .LASF2255
     /tmp/ccJwlT8t.s:1701   .debug_ranges:0000000000000000 .Ldebug_ranges0
     /tmp/ccJwlT8t.s:8025   .debug_line:0000000000000000 .Ldebug_line0
     /tmp/ccJwlT8t.s:1713   .debug_macro:0000000000000000 .Ldebug_macro0
     /tmp/ccJwlT8t.s:10503  .debug_str:000000000000992c .LASF2041
     /tmp/ccJwlT8t.s:8139   .debug_str:000000000000070a .LASF2045
     /tmp/ccJwlT8t.s:9135   .debug_str:00000000000046b8 .LASF2042
     /tmp/ccJwlT8t.s:12287  .debug_str:000000000001085c .LASF2043
     /tmp/ccJwlT8t.s:10497  .debug_str:00000000000098d5 .LASF2044
     /tmp/ccJwlT8t.s:11555  .debug_str:000000000000da10 .LASF2046
     /tmp/ccJwlT8t.s:8211   .debug_str:0000000000000b2c .LASF2047
     /tmp/ccJwlT8t.s:10793  .debug_str:000000000000aa9c .LASF2048
     /tmp/ccJwlT8t.s:12227  .debug_str:0000000000010450 .LASF2049
     /tmp/ccJwlT8t.s:9661   .debug_str:00000000000064fd .LASF2050
     /tmp/ccJwlT8t.s:10927  .debug_str:000000000000b232 .LASF2051
     /tmp/ccJwlT8t.s:12163  .debug_str:0000000000010070 .LASF2052
     /tmp/ccJwlT8t.s:8835   .debug_str:00000000000032f4 .LASF2053
     /tmp/ccJwlT8t.s:8265   .debug_str:0000000000000e70 .LASF2054
     /tmp/ccJwlT8t.s:9177   .debug_str:00000000000049c4 .LASF2055
     /tmp/ccJwlT8t.s:11267  .debug_str:000000000000c7fe .LASF2056
     /tmp/ccJwlT8t.s:8079   .debug_str:0000000000000311 .LASF2057
     /tmp/ccJwlT8t.s:10545  .debug_str:0000000000009b58 .LASF2058
     /tmp/ccJwlT8t.s:8345   .debug_str:0000000000001317 .LASF2059
     /tmp/ccJwlT8t.s:11347  .debug_str:000000000000cd09 .LASF2060
     /tmp/ccJwlT8t.s:10627  .debug_str:000000000000a030 .LASF2061
     /tmp/ccJwlT8t.s:8483   .debug_str:0000000000001daa .LASF2062
     /tmp/ccJwlT8t.s:8285   .debug_str:0000000000000f61 .LASF2063
     /tmp/ccJwlT8t.s:9137   .debug_str:00000000000046c6 .LASF2064
     /tmp/ccJwlT8t.s:11237  .debug_str:000000000000c66c .LASF2065
     /tmp/ccJwlT8t.s:11065  .debug_str:000000000000bbd9 .LASF2066
     /tmp/ccJwlT8t.s:8623   .debug_str:0000000000002674 .LASF2067
     /tmp/ccJwlT8t.s:8729   .debug_str:0000000000002d37 .LASF2068
     /tmp/ccJwlT8t.s:10781  .debug_str:000000000000a9d6 .LASF2069
     /tmp/ccJwlT8t.s:10869  .debug_str:000000000000af15 .LASF2070
     /tmp/ccJwlT8t.s:10947  .debug_str:000000000000b336 .LASF2071
     /tmp/ccJwlT8t.s:8501   .debug_str:0000000000001ee7 .LASF2072
     /tmp/ccJwlT8t.s:8591   .debug_str:00000000000024c0 .LASF2073
     /tmp/ccJwlT8t.s:10683  .debug_str:000000000000a379 .LASF2074
     /tmp/ccJwlT8t.s:10009  .debug_str:0000000000007a08 .LASF2075
     /tmp/ccJwlT8t.s:10499  .debug_str:00000000000098e8 .LASF2076
     /tmp/ccJwlT8t.s:10975  .debug_str:000000000000b4db .LASF2077
     /tmp/ccJwlT8t.s:8959   .debug_str:0000000000003a30 .LASF2078
     /tmp/ccJwlT8t.s:11829  .debug_str:000000000000ea61 .LASF2079
     /tmp/ccJwlT8t.s:9873   .debug_str:000000000000720c .LASF2080
     /tmp/ccJwlT8t.s:10397  .debug_str:0000000000009282 .LASF2081
     /tmp/ccJwlT8t.s:10857  .debug_str:000000000000ae83 .LASF2082
     /tmp/ccJwlT8t.s:11349  .debug_str:000000000000cd25 .LASF2083
     /tmp/ccJwlT8t.s:11861  .debug_str:000000000000ec39 .LASF2084
     /tmp/ccJwlT8t.s:12009  .debug_str:000000000000f653 .LASF2085
     /tmp/ccJwlT8t.s:11923  .debug_str:000000000000f018 .LASF2086
     /tmp/ccJwlT8t.s:10533  .debug_str:0000000000009aba .LASF2087
     /tmp/ccJwlT8t.s:11001  .debug_str:000000000000b6b6 .LASF2088
     /tmp/ccJwlT8t.s:12481  .debug_str:0000000000011465 .LASF2089
     /tmp/ccJwlT8t.s:8493   .debug_str:0000000000001e40 .LASF2090
     /tmp/ccJwlT8t.s:9023   .debug_str:0000000000003e81 .LASF2091
     /tmp/ccJwlT8t.s:8871   .debug_str:00000000000034fd .LASF2092
     /tmp/ccJwlT8t.s:11947  .debug_str:000000000000f18a .LASF2093
     /tmp/ccJwlT8t.s:12515  .debug_str:000000000001166a .LASF2094
     /tmp/ccJwlT8t.s:8123   .debug_str:0000000000000609 .LASF2095
     /tmp/ccJwlT8t.s:8665   .debug_str:000000000000290c .LASF2096
     /tmp/ccJwlT8t.s:9979   .debug_str:000000000000789d .LASF2097
     /tmp/ccJwlT8t.s:8921   .debug_str:00000000000037db .LASF2098
     /tmp/ccJwlT8t.s:12015  .debug_str:000000000000f6b6 .LASF2099
     /tmp/ccJwlT8t.s:10991  .debug_str:000000000000b5fe .LASF2100
     /tmp/ccJwlT8t.s:10045  .debug_str:0000000000007c79 .LASF2101
     /tmp/ccJwlT8t.s:8983   .debug_str:0000000000003bcf .LASF2102
     /tmp/ccJwlT8t.s:8563   .debug_str:00000000000022a9 .LASF2103
     /tmp/ccJwlT8t.s:11961  .debug_str:000000000000f2c2 .LASF2104
     /tmp/ccJwlT8t.s:10873  .debug_str:000000000000af57 .LASF2105
     /tmp/ccJwlT8t.s:10221  .debug_str:000000000000873a .LASF2106
     /tmp/ccJwlT8t.s:9159   .debug_str:000000000000486d .LASF2107
     /tmp/ccJwlT8t.s:11215  .debug_str:000000000000c50b .LASF2108
     /tmp/ccJwlT8t.s:9843   .debug_str:000000000000705e .LASF2109
     /tmp/ccJwlT8t.s:9517   .debug_str:0000000000005d57 .LASF2110
     /tmp/ccJwlT8t.s:10163  .debug_str:00000000000083d7 .LASF2111
     /tmp/ccJwlT8t.s:11409  .debug_str:000000000000d175 .LASF2112
     /tmp/ccJwlT8t.s:10553  .debug_str:0000000000009bd9 .LASF2113
     /tmp/ccJwlT8t.s:8455   .debug_str:0000000000001b91 .LASF2114
     /tmp/ccJwlT8t.s:8993   .debug_str:0000000000003cc3 .LASF2115
     /tmp/ccJwlT8t.s:10643  .debug_str:000000000000a155 .LASF2116
     /tmp/ccJwlT8t.s:12363  .debug_str:0000000000010caf .LASF2117
     /tmp/ccJwlT8t.s:11339  .debug_str:000000000000cc86 .LASF2118
     /tmp/ccJwlT8t.s:10399  .debug_str:00000000000092ac .LASF2119
     /tmp/ccJwlT8t.s:10525  .debug_str:0000000000009a5f .LASF2120
     /tmp/ccJwlT8t.s:10593  .debug_str:0000000000009e0a .LASF2121
     /tmp/ccJwlT8t.s:9859   .debug_str:0000000000007133 .LASF2122
     /tmp/ccJwlT8t.s:8109   .debug_str:0000000000000516 .LASF2123
     /tmp/ccJwlT8t.s:11601  .debug_str:000000000000dcaf .LASF2124
     /tmp/ccJwlT8t.s:10645  .debug_str:000000000000a16e .LASF2125
     /tmp/ccJwlT8t.s:10255  .debug_str:0000000000008974 .LASF2126
     /tmp/ccJwlT8t.s:11693  .debug_str:000000000000e1f7 .LASF2127
     /tmp/ccJwlT8t.s:8671   .debug_str:0000000000002960 .LASF2128
     /tmp/ccJwlT8t.s:8633   .debug_str:0000000000002715 .LASF2129
     /tmp/ccJwlT8t.s:10251  .debug_str:0000000000008918 .LASF2130
     /tmp/ccJwlT8t.s:8203   .debug_str:0000000000000a9a .LASF2131
     /tmp/ccJwlT8t.s:8931   .debug_str:000000000000385e .LASF2132
     /tmp/ccJwlT8t.s:10359  .debug_str:0000000000008fe1 .LASF2133
     /tmp/ccJwlT8t.s:10915  .debug_str:000000000000b1a8 .LASF2134
     /tmp/ccJwlT8t.s:9945   .debug_str:0000000000007646 .LASF2135
     /tmp/ccJwlT8t.s:9201   .debug_str:0000000000004b20 .LASF2136
     /tmp/ccJwlT8t.s:11759  .debug_str:000000000000e67f .LASF2137
     /tmp/ccJwlT8t.s:8191   .debug_str:00000000000009ed .LASF2138
     /tmp/ccJwlT8t.s:11837  .debug_str:000000000000eae1 .LASF2139
     /tmp/ccJwlT8t.s:10421  .debug_str:0000000000009430 .LASF2140
     /tmp/ccJwlT8t.s:9087   .debug_str:0000000000004293 .LASF2141
     /tmp/ccJwlT8t.s:8897   .debug_str:00000000000036a2 .LASF2142
     /tmp/ccJwlT8t.s:12369  .debug_str:0000000000010d05 .LASF2143
     /tmp/ccJwlT8t.s:9399   .debug_str:000000000000566a .LASF2144
     /tmp/ccJwlT8t.s:10567  .debug_str:0000000000009cc4 .LASF2145
     /tmp/ccJwlT8t.s:11851  .debug_str:000000000000eb83 .LASF2146
     /tmp/ccJwlT8t.s:11783  .debug_str:000000000000e7be .LASF2147
     /tmp/ccJwlT8t.s:8217   .debug_str:0000000000000b94 .LASF2148
     /tmp/ccJwlT8t.s:11807  .debug_str:000000000000e927 .LASF2149
     /tmp/ccJwlT8t.s:10333  .debug_str:0000000000008e43 .LASF2150
     /tmp/ccJwlT8t.s:12261  .debug_str:00000000000106c4 .LASF2151
     /tmp/ccJwlT8t.s:12353  .debug_str:0000000000010c48 .LASF2152
     /tmp/ccJwlT8t.s:8145   .debug_str:000000000000075e .LASF2153
     /tmp/ccJwlT8t.s:12371  .debug_str:0000000000010d1d .LASF2154
     /tmp/ccJwlT8t.s:10181  .debug_str:00000000000084e3 .LASF2155
     /tmp/ccJwlT8t.s:9869   .debug_str:00000000000071d8 .LASF2156
     /tmp/ccJwlT8t.s:11039  .debug_str:000000000000ba36 .LASF2157
     /tmp/ccJwlT8t.s:8791   .debug_str:0000000000003049 .LASF2158
     /tmp/ccJwlT8t.s:8485   .debug_str:0000000000001dc6 .LASF2159
     /tmp/ccJwlT8t.s:8169   .debug_str:00000000000008a7 .LASF2160
     /tmp/ccJwlT8t.s:8869   .debug_str:00000000000034e2 .LASF2161
     /tmp/ccJwlT8t.s:9393   .debug_str:0000000000005622 .LASF2162
     /tmp/ccJwlT8t.s:9791   .debug_str:0000000000006d20 .LASF2163
     /tmp/ccJwlT8t.s:8927   .debug_str:000000000000381e .LASF2164
     /tmp/ccJwlT8t.s:11611  .debug_str:000000000000dd6c .LASF2165
     /tmp/ccJwlT8t.s:10259  .debug_str:00000000000089d0 .LASF2166
     /tmp/ccJwlT8t.s:11813  .debug_str:000000000000e96e .LASF2167
     /tmp/ccJwlT8t.s:11391  .debug_str:000000000000d068 .LASF2168
     /tmp/ccJwlT8t.s:11801  .debug_str:000000000000e8b7 .LASF2169
     /tmp/ccJwlT8t.s:11029  .debug_str:000000000000b996 .LASF2170
     /tmp/ccJwlT8t.s:9827   .debug_str:0000000000006f9a .LASF2171
     /tmp/ccJwlT8t.s:11691  .debug_str:000000000000e1e1 .LASF2172
     /tmp/ccJwlT8t.s:12259  .debug_str:00000000000106ae .LASF2173
     /tmp/ccJwlT8t.s:9293   .debug_str:0000000000005081 .LASF2174
     /tmp/ccJwlT8t.s:8249   .debug_str:0000000000000d29 .LASF2175
     /tmp/ccJwlT8t.s:11729  .debug_str:000000000000e460 .LASF2176
     /tmp/ccJwlT8t.s:10749  .debug_str:000000000000a796 .LASF2177
     /tmp/ccJwlT8t.s:12255  .debug_str:0000000000010656 .LASF2178
     /tmp/ccJwlT8t.s:10743  .debug_str:000000000000a74f .LASF2179
     /tmp/ccJwlT8t.s:9745   .debug_str:0000000000006999 .LASF2180
     /tmp/ccJwlT8t.s:8713   .debug_str:0000000000002c2f .LASF2181
     /tmp/ccJwlT8t.s:12177  .debug_str:0000000000010163 .LASF2182
     /tmp/ccJwlT8t.s:9221   .debug_str:0000000000004c5f .LASF2183
     /tmp/ccJwlT8t.s:8167   .debug_str:0000000000000890 .LASF2184
     /tmp/ccJwlT8t.s:11663  .debug_str:000000000000e05d .LASF2185
     /tmp/ccJwlT8t.s:10701  .debug_str:000000000000a46a .LASF2186
     /tmp/ccJwlT8t.s:9677   .debug_str:0000000000006594 .LASF2187
     /tmp/ccJwlT8t.s:11153  .debug_str:000000000000c163 .LASF2188
     /tmp/ccJwlT8t.s:11721  .debug_str:000000000000e40e .LASF2189
     /tmp/ccJwlT8t.s:8769   .debug_str:0000000000002f1c .LASF2190
     /tmp/ccJwlT8t.s:12241  .debug_str:0000000000010551 .LASF2191
     /tmp/ccJwlT8t.s:11223  .debug_str:000000000000c5c2 .LASF2192
     /tmp/ccJwlT8t.s:10281  .debug_str:0000000000008b41 .LASF2193
     /tmp/ccJwlT8t.s:11719  .debug_str:000000000000e3f7 .LASF2194
     /tmp/ccJwlT8t.s:10739  .debug_str:000000000000a703 .LASF2195
     /tmp/ccJwlT8t.s:9741   .debug_str:0000000000006976 .LASF2196
     /tmp/ccJwlT8t.s:8711   .debug_str:0000000000002c18 .LASF2197
     /tmp/ccJwlT8t.s:12175  .debug_str:000000000001014c .LASF2198
     /tmp/ccJwlT8t.s:10799  .debug_str:000000000000aacc .LASF2199
     /tmp/ccJwlT8t.s:9819   .debug_str:0000000000006f2a .LASF2200
     /tmp/ccJwlT8t.s:9143   .debug_str:0000000000004756 .LASF2201
     /tmp/ccJwlT8t.s:10345  .debug_str:0000000000008f1f .LASF2202
     /tmp/ccJwlT8t.s:9283   .debug_str:0000000000005011 .LASF2203
     /tmp/ccJwlT8t.s:8239   .debug_str:0000000000000c9f .LASF2204
     /tmp/ccJwlT8t.s:10513  .debug_str:0000000000009996 .LASF2205
     /tmp/ccJwlT8t.s:8765   .debug_str:0000000000002ef1 .LASF2206
     /tmp/ccJwlT8t.s:12237  .debug_str:0000000000010516 .LASF2207
     /tmp/ccJwlT8t.s:11219  .debug_str:000000000000c569 .LASF2208
     /tmp/ccJwlT8t.s:9887   .debug_str:00000000000072e1 .LASF2209
     /tmp/ccJwlT8t.s:8833   .debug_str:00000000000032dd .LASF2210
     /tmp/ccJwlT8t.s:12093  .debug_str:000000000000fbfd .LASF2211
     /tmp/ccJwlT8t.s:11275  .debug_str:000000000000c87b .LASF2212
     /tmp/ccJwlT8t.s:8845   .debug_str:000000000000339d .LASF2213
     /tmp/ccJwlT8t.s:11785  .debug_str:000000000000e7d4 .LASF2214
     /tmp/ccJwlT8t.s:10795  .debug_str:000000000000aaa5 .LASF2215
     /tmp/ccJwlT8t.s:9817   .debug_str:0000000000006f13 .LASF2216
     /tmp/ccJwlT8t.s:10247  .debug_str:00000000000088ea .LASF2217
     /tmp/ccJwlT8t.s:10343  .debug_str:0000000000008f08 .LASF2218
     /tmp/ccJwlT8t.s:10861  .debug_str:000000000000aec5 .LASF2219
     /tmp/ccJwlT8t.s:12367  .debug_str:0000000000010cee .LASF2220
     /tmp/ccJwlT8t.s:11343  .debug_str:000000000000ccbd .LASF2221
     /tmp/ccJwlT8t.s:10401  .debug_str:00000000000092c8 .LASF2222
     /tmp/ccJwlT8t.s:9345   .debug_str:00000000000053bd .LASF2223
     /tmp/ccJwlT8t.s:8299   .debug_str:0000000000001038 .LASF2224
     /tmp/ccJwlT8t.s:8535   .debug_str:00000000000020c4 .LASF2225
     /tmp/ccJwlT8t.s:8943   .debug_str:000000000000392d .LASF2226
     /tmp/ccJwlT8t.s:12303  .debug_str:000000000001096a .LASF2227
     /tmp/ccJwlT8t.s:9567   .debug_str:0000000000006014 .LASF2228
     /tmp/ccJwlT8t.s:9947   .debug_str:000000000000765d .LASF2229
     /tmp/ccJwlT8t.s:8895   .debug_str:000000000000368b .LASF2230
     /tmp/ccJwlT8t.s:9607   .debug_str:0000000000006239 .LASF2231
     /tmp/ccJwlT8t.s:9395   .debug_str:0000000000005639 .LASF2232
     /tmp/ccJwlT8t.s:11395  .debug_str:000000000000d09e .LASF2233
     /tmp/ccJwlT8t.s:9889   .debug_str:00000000000072f8 .LASF2234
     /tmp/ccJwlT8t.s:11637  .debug_str:000000000000deb5 .LASF2235
     /tmp/ccJwlT8t.s:9689   .debug_str:0000000000006636 .LASF2236
     /tmp/ccJwlT8t.s:9475   .debug_str:0000000000005a6e .LASF2237
     /tmp/ccJwlT8t.s:10047  .debug_str:0000000000007c95 .LASF2244
     /tmp/ccJwlT8t.s:12395  .debug_str:0000000000010eaf .LASF2238
     /tmp/ccJwlT8t.s:10403  .debug_str:00000000000092df .LASF2239
     /tmp/ccJwlT8t.s:11677  .debug_str:000000000000e104 .LASF2240
     /tmp/ccJwlT8t.s:9449   .debug_str:0000000000005944 .LASF2241
     /tmp/ccJwlT8t.s:10569  .debug_str:0000000000009cdc .LASF2242
     /tmp/ccJwlT8t.s:12183  .debug_str:00000000000101c8 .LASF2243
     /tmp/ccJwlT8t.s:8641   .debug_str:0000000000002771 .LASF2245
     /tmp/ccJwlT8t.s:8705   .debug_str:0000000000002bcd .LASF2246
     /tmp/ccJwlT8t.s:404    .text.disable_m2f_int_output:0000000000000000 .LFB14
     /tmp/ccJwlT8t.s:487    .text.disable_m2f_int_output:00000000000000aa .LFE14
     /tmp/ccJwlT8t.s:9939   .debug_str:0000000000007609 .LASF2248
     /tmp/ccJwlT8t.s:10603  .debug_str:0000000000009eaf .LASF2249
     /tmp/ccJwlT8t.s:10051  .debug_str:0000000000007cfc .LASF2247
     /tmp/ccJwlT8t.s:309    .text.enable_m2f_int_output:0000000000000000 .LFB13
     /tmp/ccJwlT8t.s:397    .text.enable_m2f_int_output:00000000000000b8 .LFE13
     /tmp/ccJwlT8t.s:10539  .debug_str:0000000000009b33 .LASF2250
     /tmp/ccJwlT8t.s:255    .text.reset_m2f:0000000000000000 .LFB12
     /tmp/ccJwlT8t.s:302    .text.reset_m2f:0000000000000048 .LFE12
     /tmp/ccJwlT8t.s:8757   .debug_str:0000000000002e9b .LASF2251
     /tmp/ccJwlT8t.s:12525  .debug_str:0000000000011712 .LASF2256
     /tmp/ccJwlT8t.s:205    .text.get_corresponding_m2f_output:0000000000000000 .LFB11
     /tmp/ccJwlT8t.s:248    .text.get_corresponding_m2f_output:000000000000004c .LFE11
     /tmp/ccJwlT8t.s:9287   .debug_str:0000000000005040 .LASF2252
     /tmp/ccJwlT8t.s:496    .debug_info:0000000000000000 .Ldebug_info0
     /tmp/ccJwlT8t.s:1831   .debug_macro:0000000000000000 .Ldebug_macro2
     /tmp/ccJwlT8t.s:10923  .debug_str:000000000000b20f .LASF324
     /tmp/ccJwlT8t.s:11473  .debug_str:000000000000d4d0 .LASF325
     /tmp/ccJwlT8t.s:11261  .debug_str:000000000000c794 .LASF326
     /tmp/ccJwlT8t.s:11587  .debug_str:000000000000dbfd .LASF327
     /tmp/ccJwlT8t.s:2808   .debug_macro:0000000000000000 .Ldebug_macro3
     /tmp/ccJwlT8t.s:2828   .debug_macro:0000000000000000 .Ldebug_macro4
     /tmp/ccJwlT8t.s:2893   .debug_macro:0000000000000000 .Ldebug_macro5
     /tmp/ccJwlT8t.s:2934   .debug_macro:0000000000000000 .Ldebug_macro6
     /tmp/ccJwlT8t.s:3056   .debug_macro:0000000000000000 .Ldebug_macro7
     /tmp/ccJwlT8t.s:3112   .debug_macro:0000000000000000 .Ldebug_macro8
     /tmp/ccJwlT8t.s:9883   .debug_str:00000000000072b7 .LASF481
     /tmp/ccJwlT8t.s:3324   .debug_macro:0000000000000000 .Ldebug_macro9
     /tmp/ccJwlT8t.s:6083   .debug_macro:0000000000000000 .Ldebug_macro10
     /tmp/ccJwlT8t.s:7882   .debug_macro:0000000000000000 .Ldebug_macro11
     /tmp/ccJwlT8t.s:7893   .debug_macro:0000000000000000 .Ldebug_macro12
     /tmp/ccJwlT8t.s:10007  .debug_str:00000000000079fd .LASF2019
     /tmp/ccJwlT8t.s:7955   .debug_macro:0000000000000000 .Ldebug_macro13
     /tmp/ccJwlT8t.s:8014   .debug_macro:0000000000000000 .Ldebug_macro14
     /tmp/ccJwlT8t.s:11201  .debug_str:000000000000c46b .LASF2040
     /tmp/ccJwlT8t.s:8147   .debug_str:0000000000000779 .LASF0
     /tmp/ccJwlT8t.s:12017  .debug_str:000000000000f6d2 .LASF1
     /tmp/ccJwlT8t.s:12443  .debug_str:0000000000011214 .LASF2
     /tmp/ccJwlT8t.s:8651   .debug_str:0000000000002802 .LASF3
     /tmp/ccJwlT8t.s:9895   .debug_str:000000000000732f .LASF4
     /tmp/ccJwlT8t.s:12473  .debug_str:0000000000011412 .LASF5
     /tmp/ccJwlT8t.s:12437  .debug_str:0000000000011199 .LASF6
     /tmp/ccJwlT8t.s:12533  .debug_str:0000000000011797 .LASF7
     /tmp/ccJwlT8t.s:11497  .debug_str:000000000000d5eb .LASF8
     /tmp/ccJwlT8t.s:12031  .debug_str:000000000000f7e2 .LASF9
     /tmp/ccJwlT8t.s:8777   .debug_str:0000000000002f97 .LASF10
     /tmp/ccJwlT8t.s:10589  .debug_str:0000000000009ddd .LASF11
     /tmp/ccJwlT8t.s:12097  .debug_str:000000000000fc2d .LASF12
     /tmp/ccJwlT8t.s:11635  .debug_str:000000000000dea2 .LASF13
     /tmp/ccJwlT8t.s:11887  .debug_str:000000000000eda1 .LASF14
     /tmp/ccJwlT8t.s:11359  .debug_str:000000000000ce64 .LASF15
     /tmp/ccJwlT8t.s:12453  .debug_str:00000000000112ae .LASF16
     /tmp/ccJwlT8t.s:9577   .debug_str:00000000000060c5 .LASF17
     /tmp/ccJwlT8t.s:8497   .debug_str:0000000000001e80 .LASF18
     /tmp/ccJwlT8t.s:8219   .debug_str:0000000000000bab .LASF19
     /tmp/ccJwlT8t.s:9303   .debug_str:0000000000005180 .LASF20
     /tmp/ccJwlT8t.s:11797  .debug_str:000000000000e88a .LASF21
     /tmp/ccJwlT8t.s:12321  .debug_str:0000000000010a84 .LASF22
     /tmp/ccJwlT8t.s:11511  .debug_str:000000000000d69e .LASF23
     /tmp/ccJwlT8t.s:12373  .debug_str:0000000000010d38 .LASF24
     /tmp/ccJwlT8t.s:9223   .debug_str:0000000000004c76 .LASF25
     /tmp/ccJwlT8t.s:10543  .debug_str:0000000000009b49 .LASF26
     /tmp/ccJwlT8t.s:8519   .debug_str:0000000000001ff4 .LASF27
     /tmp/ccJwlT8t.s:9155   .debug_str:000000000000483b .LASF28
     /tmp/ccJwlT8t.s:11245  .debug_str:000000000000c6df .LASF29
     /tmp/ccJwlT8t.s:9921   .debug_str:00000000000074de .LASF30
     /tmp/ccJwlT8t.s:9447   .debug_str:000000000000591d .LASF31
     /tmp/ccJwlT8t.s:8047   .debug_str:0000000000000137 .LASF32
     /tmp/ccJwlT8t.s:10959  .debug_str:000000000000b40d .LASF33
     /tmp/ccJwlT8t.s:12425  .debug_str:00000000000110eb .LASF34
     /tmp/ccJwlT8t.s:12499  .debug_str:00000000000115a2 .LASF35
     /tmp/ccJwlT8t.s:8141   .debug_str:0000000000000714 .LASF36
     /tmp/ccJwlT8t.s:9793   .debug_str:0000000000006d3b .LASF37
     /tmp/ccJwlT8t.s:9119   .debug_str:000000000000456a .LASF38
     /tmp/ccJwlT8t.s:10583  .debug_str:0000000000009d9b .LASF39
     /tmp/ccJwlT8t.s:12365  .debug_str:0000000000010ccb .LASF40
     /tmp/ccJwlT8t.s:10977  .debug_str:000000000000b506 .LASF41
     /tmp/ccJwlT8t.s:8515   .debug_str:0000000000001fc2 .LASF42
     /tmp/ccJwlT8t.s:11645  .debug_str:000000000000df2a .LASF43
     /tmp/ccJwlT8t.s:9617   .debug_str:00000000000062b1 .LASF44
     /tmp/ccJwlT8t.s:10585  .debug_str:0000000000009dbe .LASF45
     /tmp/ccJwlT8t.s:8851   .debug_str:00000000000033e5 .LASF46
     /tmp/ccJwlT8t.s:8619   .debug_str:0000000000002622 .LASF47
     /tmp/ccJwlT8t.s:8695   .debug_str:0000000000002b25 .LASF48
     /tmp/ccJwlT8t.s:10433  .debug_str:00000000000094d7 .LASF49
     /tmp/ccJwlT8t.s:9551   .debug_str:0000000000005ef3 .LASF50
     /tmp/ccJwlT8t.s:10245  .debug_str:00000000000088ca .LASF51
     /tmp/ccJwlT8t.s:11893  .debug_str:000000000000ee0e .LASF52
     /tmp/ccJwlT8t.s:11933  .debug_str:000000000000f0d6 .LASF53
     /tmp/ccJwlT8t.s:8461   .debug_str:0000000000001bfa .LASF54
     /tmp/ccJwlT8t.s:12335  .debug_str:0000000000010b2d .LASF55
     /tmp/ccJwlT8t.s:11103  .debug_str:000000000000bdfa .LASF56
     /tmp/ccJwlT8t.s:9639   .debug_str:00000000000063d7 .LASF57
     /tmp/ccJwlT8t.s:9511   .debug_str:0000000000005d05 .LASF58
     /tmp/ccJwlT8t.s:10745  .debug_str:000000000000a766 .LASF59
     /tmp/ccJwlT8t.s:10183  .debug_str:00000000000084fe .LASF60
     /tmp/ccJwlT8t.s:11683  .debug_str:000000000000e166 .LASF61
     /tmp/ccJwlT8t.s:11207  .debug_str:000000000000c4b2 .LASF62
     /tmp/ccJwlT8t.s:8799   .debug_str:00000000000030cb .LASF63
     /tmp/ccJwlT8t.s:8481   .debug_str:0000000000001d88 .LASF64
     /tmp/ccJwlT8t.s:11263  .debug_str:000000000000c7af .LASF65
     /tmp/ccJwlT8t.s:10269  .debug_str:0000000000008a3f .LASF66
     /tmp/ccJwlT8t.s:8427   .debug_str:0000000000001967 .LASF67
     /tmp/ccJwlT8t.s:8599   .debug_str:000000000000252d .LASF68
     /tmp/ccJwlT8t.s:9855   .debug_str:00000000000070e1 .LASF69
     /tmp/ccJwlT8t.s:10575  .debug_str:0000000000009d27 .LASF70
     /tmp/ccJwlT8t.s:10241  .debug_str:000000000000889b .LASF71
     /tmp/ccJwlT8t.s:9801   .debug_str:0000000000006dff .LASF72
     /tmp/ccJwlT8t.s:8419   .debug_str:00000000000018f4 .LASF73
     /tmp/ccJwlT8t.s:10235  .debug_str:000000000000885d .LASF74
     /tmp/ccJwlT8t.s:10445  .debug_str:00000000000095ca .LASF75
     /tmp/ccJwlT8t.s:11015  .debug_str:000000000000b805 .LASF76
     /tmp/ccJwlT8t.s:10995  .debug_str:000000000000b631 .LASF77
     /tmp/ccJwlT8t.s:8311   .debug_str:0000000000001116 .LASF78
     /tmp/ccJwlT8t.s:9057   .debug_str:000000000000406b .LASF79
     /tmp/ccJwlT8t.s:10797  .debug_str:000000000000aabc .LASF80
     /tmp/ccJwlT8t.s:8137   .debug_str:00000000000006e6 .LASF81
     /tmp/ccJwlT8t.s:8609   .debug_str:00000000000025a6 .LASF82
     /tmp/ccJwlT8t.s:9915   .debug_str:00000000000074a2 .LASF83
     /tmp/ccJwlT8t.s:8269   .debug_str:0000000000000ea2 .LASF84
     /tmp/ccJwlT8t.s:9545   .debug_str:0000000000005e8f .LASF85
     /tmp/ccJwlT8t.s:11809  .debug_str:000000000000e944 .LASF86
     /tmp/ccJwlT8t.s:11075  .debug_str:000000000000bc84 .LASF87
     /tmp/ccJwlT8t.s:10865  .debug_str:000000000000aef5 .LASF88
     /tmp/ccJwlT8t.s:10655  .debug_str:000000000000a20a .LASF89
     /tmp/ccJwlT8t.s:9237   .debug_str:0000000000004d71 .LASF90
     /tmp/ccJwlT8t.s:9417   .debug_str:000000000000577a .LASF91
     /tmp/ccJwlT8t.s:12147  .debug_str:000000000000ff5d .LASF92
     /tmp/ccJwlT8t.s:8813   .debug_str:00000000000031a6 .LASF93
     /tmp/ccJwlT8t.s:10053  .debug_str:0000000000007d12 .LASF94
     /tmp/ccJwlT8t.s:12483  .debug_str:0000000000011490 .LASF95
     /tmp/ccJwlT8t.s:10443  .debug_str:00000000000095b6 .LASF96
     /tmp/ccJwlT8t.s:9217   .debug_str:0000000000004c29 .LASF97
     /tmp/ccJwlT8t.s:11265  .debug_str:000000000000c7d1 .LASF98
     /tmp/ccJwlT8t.s:11189  .debug_str:000000000000c3a7 .LASF99
     /tmp/ccJwlT8t.s:10273  .debug_str:0000000000008abd .LASF100
     /tmp/ccJwlT8t.s:9367   .debug_str:00000000000054ba .LASF101
     /tmp/ccJwlT8t.s:8463   .debug_str:0000000000001c18 .LASF102
     /tmp/ccJwlT8t.s:10159  .debug_str:0000000000008399 .LASF103
     /tmp/ccJwlT8t.s:11815  .debug_str:000000000000e986 .LASF104
     /tmp/ccJwlT8t.s:8451   .debug_str:0000000000001b25 .LASF105
     /tmp/ccJwlT8t.s:10815  .debug_str:000000000000abd9 .LASF106
     /tmp/ccJwlT8t.s:8745   .debug_str:0000000000002e10 .LASF107
     /tmp/ccJwlT8t.s:12517  .debug_str:0000000000011695 .LASF108
     /tmp/ccJwlT8t.s:8747   .debug_str:0000000000002e34 .LASF109
     /tmp/ccJwlT8t.s:8817   .debug_str:00000000000031d2 .LASF110
     /tmp/ccJwlT8t.s:8655   .debug_str:000000000000286a .LASF111
     /tmp/ccJwlT8t.s:11769  .debug_str:000000000000e6e8 .LASF112
     /tmp/ccJwlT8t.s:8389   .debug_str:0000000000001674 .LASF113
     /tmp/ccJwlT8t.s:10785  .debug_str:000000000000aa34 .LASF114
     /tmp/ccJwlT8t.s:9461   .debug_str:00000000000059d7 .LASF115
     /tmp/ccJwlT8t.s:10189  .debug_str:000000000000854a .LASF116
     /tmp/ccJwlT8t.s:10015  .debug_str:0000000000007a8b .LASF117
     /tmp/ccJwlT8t.s:12521  .debug_str:00000000000116e6 .LASF118
     /tmp/ccJwlT8t.s:10025  .debug_str:0000000000007b3b .LASF119
     /tmp/ccJwlT8t.s:12505  .debug_str:00000000000115e3 .LASF120
     /tmp/ccJwlT8t.s:9093   .debug_str:000000000000432f .LASF121
     /tmp/ccJwlT8t.s:9191   .debug_str:0000000000004a99 .LASF122
     /tmp/ccJwlT8t.s:8541   .debug_str:0000000000002104 .LASF123
     /tmp/ccJwlT8t.s:8887   .debug_str:0000000000003607 .LASF124
     /tmp/ccJwlT8t.s:11139  .debug_str:000000000000c087 .LASF125
     /tmp/ccJwlT8t.s:9083   .debug_str:000000000000424f .LASF126
     /tmp/ccJwlT8t.s:11885  .debug_str:000000000000ed8b .LASF127
     /tmp/ccJwlT8t.s:8855   .debug_str:0000000000003410 .LASF128
     /tmp/ccJwlT8t.s:11593  .debug_str:000000000000dc38 .LASF129
     /tmp/ccJwlT8t.s:8081   .debug_str:000000000000032e .LASF130
     /tmp/ccJwlT8t.s:8287   .debug_str:0000000000000f7e .LASF131
     /tmp/ccJwlT8t.s:11445  .debug_str:000000000000d378 .LASF132
     /tmp/ccJwlT8t.s:9933   .debug_str:00000000000075a3 .LASF133
     /tmp/ccJwlT8t.s:9005   .debug_str:0000000000003d43 .LASF134
     /tmp/ccJwlT8t.s:9755   .debug_str:0000000000006a8e .LASF135
     /tmp/ccJwlT8t.s:10377  .debug_str:0000000000009142 .LASF136
     /tmp/ccJwlT8t.s:10319  .debug_str:0000000000008d7e .LASF137
     /tmp/ccJwlT8t.s:11513  .debug_str:000000000000d6b2 .LASF138
     /tmp/ccJwlT8t.s:8403   .debug_str:00000000000017b6 .LASF139
     /tmp/ccJwlT8t.s:10659  .debug_str:000000000000a227 .LASF140
     /tmp/ccJwlT8t.s:11235  .debug_str:000000000000c658 .LASF141
     /tmp/ccJwlT8t.s:11053  .debug_str:000000000000bb3b .LASF142
     /tmp/ccJwlT8t.s:10101  .debug_str:0000000000008001 .LASF143
     /tmp/ccJwlT8t.s:8843   .debug_str:0000000000003385 .LASF144
     /tmp/ccJwlT8t.s:12107  .debug_str:000000000000fcc3 .LASF145
     /tmp/ccJwlT8t.s:9487   .debug_str:0000000000005b26 .LASF146
     /tmp/ccJwlT8t.s:12215  .debug_str:000000000001038b .LASF147
     /tmp/ccJwlT8t.s:9501   .debug_str:0000000000005c5f .LASF148
     /tmp/ccJwlT8t.s:9369   .debug_str:00000000000054cf .LASF149
     /tmp/ccJwlT8t.s:9179   .debug_str:00000000000049e1 .LASF150
     /tmp/ccJwlT8t.s:9435   .debug_str:0000000000005849 .LASF151
     /tmp/ccJwlT8t.s:8989   .debug_str:0000000000003c53 .LASF152
     /tmp/ccJwlT8t.s:8767   .debug_str:0000000000002f08 .LASF153
     /tmp/ccJwlT8t.s:11447  .debug_str:000000000000d396 .LASF154
     /tmp/ccJwlT8t.s:11307  .debug_str:000000000000ca7b .LASF155
     /tmp/ccJwlT8t.s:11071  .debug_str:000000000000bc31 .LASF156
     /tmp/ccJwlT8t.s:12421  .debug_str:000000000001109b .LASF157
     /tmp/ccJwlT8t.s:9059   .debug_str:0000000000004084 .LASF158
     /tmp/ccJwlT8t.s:12199  .debug_str:0000000000010270 .LASF159
     /tmp/ccJwlT8t.s:12283  .debug_str:000000000001081d .LASF160
     /tmp/ccJwlT8t.s:8295   .debug_str:0000000000001007 .LASF161
     /tmp/ccJwlT8t.s:9879   .debug_str:0000000000007264 .LASF162
     /tmp/ccJwlT8t.s:9697   .debug_str:0000000000006693 .LASF163
     /tmp/ccJwlT8t.s:12295  .debug_str:00000000000108c2 .LASF164
     /tmp/ccJwlT8t.s:12535  .debug_str:00000000000117ad .LASF165
     /tmp/ccJwlT8t.s:11985  .debug_str:000000000000f478 .LASF166
     /tmp/ccJwlT8t.s:8967   .debug_str:0000000000003abc .LASF167
     /tmp/ccJwlT8t.s:9185   .debug_str:0000000000004a2a .LASF168
     /tmp/ccJwlT8t.s:8179   .debug_str:0000000000000912 .LASF169
     /tmp/ccJwlT8t.s:9301   .debug_str:0000000000005169 .LASF170
     /tmp/ccJwlT8t.s:12165  .debug_str:0000000000010088 .LASF171
     /tmp/ccJwlT8t.s:8205   .debug_str:0000000000000ab6 .LASF172
     /tmp/ccJwlT8t.s:9139   .debug_str:00000000000046e2 .LASF173
     /tmp/ccJwlT8t.s:11163  .debug_str:000000000000c205 .LASF174
     /tmp/ccJwlT8t.s:10807  .debug_str:000000000000ab6d .LASF175
     /tmp/ccJwlT8t.s:8401   .debug_str:000000000000179f .LASF176
     /tmp/ccJwlT8t.s:11675  .debug_str:000000000000e0ec .LASF177
     /tmp/ccJwlT8t.s:10561  .debug_str:0000000000009c8b .LASF178
     /tmp/ccJwlT8t.s:12305  .debug_str:0000000000010981 .LASF179
     /tmp/ccJwlT8t.s:8365   .debug_str:00000000000014ad .LASF180
     /tmp/ccJwlT8t.s:11165  .debug_str:000000000000c24e .LASF181
     /tmp/ccJwlT8t.s:12339  .debug_str:0000000000010b66 .LASF182
     /tmp/ccJwlT8t.s:12427  .debug_str:000000000001110b .LASF183
     /tmp/ccJwlT8t.s:10459  .debug_str:0000000000009681 .LASF184
     /tmp/ccJwlT8t.s:8963   .debug_str:0000000000003a90 .LASF185
     /tmp/ccJwlT8t.s:8751   .debug_str:0000000000002e59 .LASF186
     /tmp/ccJwlT8t.s:8425   .debug_str:000000000000192d .LASF187
     /tmp/ccJwlT8t.s:9757   .debug_str:0000000000006aa6 .LASF188
     /tmp/ccJwlT8t.s:12201  .debug_str:00000000000102ae .LASF189
     /tmp/ccJwlT8t.s:11543  .debug_str:000000000000d912 .LASF190
     /tmp/ccJwlT8t.s:10661  .debug_str:000000000000a24a .LASF191
     /tmp/ccJwlT8t.s:12217  .debug_str:00000000000103a1 .LASF192
     /tmp/ccJwlT8t.s:11109  .debug_str:000000000000be92 .LASF193
     /tmp/ccJwlT8t.s:8793   .debug_str:0000000000003064 .LASF194
     /tmp/ccJwlT8t.s:8065   .debug_str:0000000000000225 .LASF195
     /tmp/ccJwlT8t.s:8951   .debug_str:000000000000398b .LASF196
     /tmp/ccJwlT8t.s:8629   .debug_str:00000000000026c6 .LASF197
     /tmp/ccJwlT8t.s:8155   .debug_str:00000000000007f3 .LASF198
     /tmp/ccJwlT8t.s:10629  .debug_str:000000000000a04d .LASF199
     /tmp/ccJwlT8t.s:9317   .debug_str:0000000000005253 .LASF200
     /tmp/ccJwlT8t.s:9101   .debug_str:00000000000043b6 .LASF201
     /tmp/ccJwlT8t.s:11527  .debug_str:000000000000d7e4 .LASF202
     /tmp/ccJwlT8t.s:11883  .debug_str:000000000000ed4d .LASF203
     /tmp/ccJwlT8t.s:8431   .debug_str:000000000000199d .LASF204
     /tmp/ccJwlT8t.s:10903  .debug_str:000000000000b107 .LASF205
     /tmp/ccJwlT8t.s:8117   .debug_str:00000000000005c2 .LASF206
     /tmp/ccJwlT8t.s:11695  .debug_str:000000000000e211 .LASF207
     /tmp/ccJwlT8t.s:12313  .debug_str:0000000000010a01 .LASF208
     /tmp/ccJwlT8t.s:8087   .debug_str:0000000000000383 .LASF209
     /tmp/ccJwlT8t.s:11431  .debug_str:000000000000d2ac .LASF210
     /tmp/ccJwlT8t.s:11681  .debug_str:000000000000e14c .LASF211
     /tmp/ccJwlT8t.s:8133   .debug_str:00000000000006b7 .LASF212
     /tmp/ccJwlT8t.s:10693  .debug_str:000000000000a402 .LASF213
     /tmp/ccJwlT8t.s:10817  .debug_str:000000000000abf4 .LASF214
     /tmp/ccJwlT8t.s:11869  .debug_str:000000000000ec9e .LASF215
     /tmp/ccJwlT8t.s:10335  .debug_str:0000000000008e61 .LASF216
     /tmp/ccJwlT8t.s:11551  .debug_str:000000000000d9b9 .LASF217
     /tmp/ccJwlT8t.s:10639  .debug_str:000000000000a110 .LASF218
     /tmp/ccJwlT8t.s:11115  .debug_str:000000000000beda .LASF219
     /tmp/ccJwlT8t.s:12275  .debug_str:0000000000010798 .LASF220
     /tmp/ccJwlT8t.s:11005  .debug_str:000000000000b6f4 .LASF221
     /tmp/ccJwlT8t.s:9387   .debug_str:00000000000055ac .LASF222
     /tmp/ccJwlT8t.s:11231  .debug_str:000000000000c62d .LASF223
     /tmp/ccJwlT8t.s:11845  .debug_str:000000000000eb3e .LASF224
     /tmp/ccJwlT8t.s:9619   .debug_str:00000000000062ca .LASF225
     /tmp/ccJwlT8t.s:11979  .debug_str:000000000000f415 .LASF226
     /tmp/ccJwlT8t.s:8301   .debug_str:000000000000104f .LASF227
     /tmp/ccJwlT8t.s:11329  .debug_str:000000000000cbe3 .LASF228
     /tmp/ccJwlT8t.s:8805   .debug_str:0000000000003114 .LASF229
     /tmp/ccJwlT8t.s:12281  .debug_str:0000000000010803 .LASF230
     /tmp/ccJwlT8t.s:11177  .debug_str:000000000000c300 .LASF231
     /tmp/ccJwlT8t.s:8465   .debug_str:0000000000001c31 .LASF232
     /tmp/ccJwlT8t.s:10493  .debug_str:000000000000987f .LASF233
     /tmp/ccJwlT8t.s:11355  .debug_str:000000000000cd9b .LASF234
     /tmp/ccJwlT8t.s:10215  .debug_str:00000000000086d6 .LASF235
     /tmp/ccJwlT8t.s:11793  .debug_str:000000000000e85c .LASF236
     /tmp/ccJwlT8t.s:12057  .debug_str:000000000000f981 .LASF237
     /tmp/ccJwlT8t.s:9531   .debug_str:0000000000005df4 .LASF238
     /tmp/ccJwlT8t.s:9473   .debug_str:0000000000005a5c .LASF239
     /tmp/ccJwlT8t.s:11735  .debug_str:000000000000e4db .LASF240
     /tmp/ccJwlT8t.s:10913  .debug_str:000000000000b18b .LASF241
     /tmp/ccJwlT8t.s:9211   .debug_str:0000000000004bb7 .LASF242
     /tmp/ccJwlT8t.s:8503   .debug_str:0000000000001f10 .LASF243
     /tmp/ccJwlT8t.s:9609   .debug_str:0000000000006250 .LASF244
     /tmp/ccJwlT8t.s:11303  .debug_str:000000000000ca2a .LASF245
     /tmp/ccJwlT8t.s:11953  .debug_str:000000000000f244 .LASF246
     /tmp/ccJwlT8t.s:10845  .debug_str:000000000000adab .LASF247
     /tmp/ccJwlT8t.s:8981   .debug_str:0000000000003b8a .LASF248
     /tmp/ccJwlT8t.s:10833  .debug_str:000000000000acfa .LASF249
     /tmp/ccJwlT8t.s:8731   .debug_str:0000000000002d60 .LASF250
     /tmp/ccJwlT8t.s:11963  .debug_str:000000000000f2e3 .LASF251
     /tmp/ccJwlT8t.s:10453  .debug_str:000000000000962e .LASF252
     /tmp/ccJwlT8t.s:11843  .debug_str:000000000000eb26 .LASF253
     /tmp/ccJwlT8t.s:10563  .debug_str:0000000000009c9b .LASF254
     /tmp/ccJwlT8t.s:11987  .debug_str:000000000000f490 .LASF255
     /tmp/ccJwlT8t.s:9075   .debug_str:00000000000041ad .LASF256
     /tmp/ccJwlT8t.s:11021  .debug_str:000000000000b85a .LASF257
     /tmp/ccJwlT8t.s:9315   .debug_str:0000000000005238 .LASF258
     /tmp/ccJwlT8t.s:11495  .debug_str:000000000000d5d1 .LASF259
     /tmp/ccJwlT8t.s:9235   .debug_str:0000000000004d32 .LASF260
     /tmp/ccJwlT8t.s:10227  .debug_str:0000000000008782 .LASF261
     /tmp/ccJwlT8t.s:11325  .debug_str:000000000000cb8c .LASF262
     /tmp/ccJwlT8t.s:11745  .debug_str:000000000000e5ba .LASF263
     /tmp/ccJwlT8t.s:11259  .debug_str:000000000000c77c .LASF264
     /tmp/ccJwlT8t.s:10537  .debug_str:0000000000009b19 .LASF265
     /tmp/ccJwlT8t.s:11091  .debug_str:000000000000bd69 .LASF266
     /tmp/ccJwlT8t.s:12193  .debug_str:0000000000010232 .LASF267
     /tmp/ccJwlT8t.s:10417  .debug_str:00000000000093d6 .LASF268
     /tmp/ccJwlT8t.s:10481  .debug_str:00000000000097e6 .LASF269
     /tmp/ccJwlT8t.s:9433   .debug_str:0000000000005833 .LASF270
     /tmp/ccJwlT8t.s:12043  .debug_str:000000000000f8ae .LASF271
     /tmp/ccJwlT8t.s:9029   .debug_str:0000000000003ede .LASF272
     /tmp/ccJwlT8t.s:9523   .debug_str:0000000000005d9a .LASF273
     /tmp/ccJwlT8t.s:9877   .debug_str:000000000000724e .LASF274
     /tmp/ccJwlT8t.s:8129   .debug_str:0000000000000688 .LASF275
     /tmp/ccJwlT8t.s:10647  .debug_str:000000000000a18a .LASF276
     /tmp/ccJwlT8t.s:12173  .debug_str:0000000000010135 .LASF277
     /tmp/ccJwlT8t.s:11443  .debug_str:000000000000d352 .LASF278
     /tmp/ccJwlT8t.s:10467  .debug_str:000000000000972b .LASF279
     /tmp/ccJwlT8t.s:10777  .debug_str:000000000000a990 .LASF280
     /tmp/ccJwlT8t.s:8415   .debug_str:00000000000018b4 .LASF281
     /tmp/ccJwlT8t.s:8159   .debug_str:0000000000000822 .LASF282
     /tmp/ccJwlT8t.s:9679   .debug_str:00000000000065ab .LASF283
     /tmp/ccJwlT8t.s:9865   .debug_str:00000000000071a6 .LASF284
     /tmp/ccJwlT8t.s:9225   .debug_str:0000000000004c8a .LASF285
     /tmp/ccJwlT8t.s:12327  .debug_str:0000000000010acf .LASF286
     /tmp/ccJwlT8t.s:12127  .debug_str:000000000000fdd3 .LASF287
     /tmp/ccJwlT8t.s:10703  .debug_str:000000000000a481 .LASF288
     /tmp/ccJwlT8t.s:8875   .debug_str:0000000000003540 .LASF289
     /tmp/ccJwlT8t.s:10841  .debug_str:000000000000ad7b .LASF290
     /tmp/ccJwlT8t.s:12195  .debug_str:0000000000010247 .LASF291
     /tmp/ccJwlT8t.s:11653  .debug_str:000000000000dfa7 .LASF292
     /tmp/ccJwlT8t.s:8929   .debug_str:0000000000003839 .LASF293
     /tmp/ccJwlT8t.s:11435  .debug_str:000000000000d2e8 .LASF294
     /tmp/ccJwlT8t.s:8477   .debug_str:0000000000001d3a .LASF295
     /tmp/ccJwlT8t.s:10831  .debug_str:000000000000acd8 .LASF296
     /tmp/ccJwlT8t.s:9613   .debug_str:0000000000006286 .LASF297
     /tmp/ccJwlT8t.s:11927  .debug_str:000000000000f069 .LASF298
     /tmp/ccJwlT8t.s:10941  .debug_str:000000000000b2ed .LASF299
     /tmp/ccJwlT8t.s:10689  .debug_str:000000000000a3cd .LASF300
     /tmp/ccJwlT8t.s:9647   .debug_str:0000000000006434 .LASF301
     /tmp/ccJwlT8t.s:11057  .debug_str:000000000000bb76 .LASF302
     /tmp/ccJwlT8t.s:9079   .debug_str:0000000000004200 .LASF303
     /tmp/ccJwlT8t.s:10605  .debug_str:0000000000009ebd .LASF304
     /tmp/ccJwlT8t.s:9805   .debug_str:0000000000006e4c .LASF305
     /tmp/ccJwlT8t.s:8543   .debug_str:0000000000002114 .LASF306
     /tmp/ccJwlT8t.s:11877  .debug_str:000000000000ed11 .LASF307
     /tmp/ccJwlT8t.s:10265  .debug_str:0000000000008a18 .LASF308
     /tmp/ccJwlT8t.s:11859  .debug_str:000000000000ec25 .LASF309
     /tmp/ccJwlT8t.s:11937  .debug_str:000000000000f11f .LASF310
     /tmp/ccJwlT8t.s:11199  .debug_str:000000000000c461 .LASF311
     /tmp/ccJwlT8t.s:11489  .debug_str:000000000000d597 .LASF312
     /tmp/ccJwlT8t.s:8667   .debug_str:0000000000002937 .LASF313
     /tmp/ccJwlT8t.s:11629  .debug_str:000000000000de41 .LASF314
     /tmp/ccJwlT8t.s:8781   .debug_str:0000000000002fc2 .LASF315
     /tmp/ccJwlT8t.s:9515   .debug_str:0000000000005d46 .LASF316
     /tmp/ccJwlT8t.s:12357  .debug_str:0000000000010c7c .LASF317
     /tmp/ccJwlT8t.s:11117  .debug_str:000000000000bf1d .LASF318
     /tmp/ccJwlT8t.s:9365   .debug_str:00000000000054ab .LASF319
     /tmp/ccJwlT8t.s:12155  .debug_str:000000000000ffe9 .LASF320
     /tmp/ccJwlT8t.s:12103  .debug_str:000000000000fc75 .LASF321
     /tmp/ccJwlT8t.s:8393   .debug_str:00000000000016a6 .LASF322
     /tmp/ccJwlT8t.s:8207   .debug_str:0000000000000af8 .LASF323
     /tmp/ccJwlT8t.s:11725  .debug_str:000000000000e43e .LASF328
     /tmp/ccJwlT8t.s:10321  .debug_str:0000000000008d9e .LASF329
     /tmp/ccJwlT8t.s:10085  .debug_str:0000000000007f00 .LASF330
     /tmp/ccJwlT8t.s:9323   .debug_str:00000000000052b7 .LASF331
     /tmp/ccJwlT8t.s:9533   .debug_str:0000000000005e0b .LASF332
     /tmp/ccJwlT8t.s:10997  .debug_str:000000000000b64a .LASF333
     /tmp/ccJwlT8t.s:11673  .debug_str:000000000000e0bf .LASF334
     /tmp/ccJwlT8t.s:9701   .debug_str:00000000000066d4 .LASF335
     /tmp/ccJwlT8t.s:9337   .debug_str:0000000000005340 .LASF336
     /tmp/ccJwlT8t.s:9049   .debug_str:0000000000004026 .LASF337
     /tmp/ccJwlT8t.s:11761  .debug_str:000000000000e694 .LASF338
     /tmp/ccJwlT8t.s:8267   .debug_str:0000000000000e92 .LASF339
     /tmp/ccJwlT8t.s:11129  .debug_str:000000000000c013 .LASF340
     /tmp/ccJwlT8t.s:11969  .debug_str:000000000000f353 .LASF341
     /tmp/ccJwlT8t.s:11669  .debug_str:000000000000e098 .LASF342
     /tmp/ccJwlT8t.s:10813  .debug_str:000000000000abc6 .LASF343
     /tmp/ccJwlT8t.s:11209  .debug_str:000000000000c4cf .LASF344
     /tmp/ccJwlT8t.s:11533  .debug_str:000000000000d84c .LASF345
     /tmp/ccJwlT8t.s:9585   .debug_str:0000000000006125 .LASF346
     /tmp/ccJwlT8t.s:10773  .debug_str:000000000000a963 .LASF347
     /tmp/ccJwlT8t.s:8075   .debug_str:00000000000002b9 .LASF348
     /tmp/ccJwlT8t.s:10083  .debug_str:0000000000007ee9 .LASF349
     /tmp/ccJwlT8t.s:9691   .debug_str:0000000000006657 .LASF350
     /tmp/ccJwlT8t.s:10875  .debug_str:000000000000af78 .LASF351
     /tmp/ccJwlT8t.s:10757  .debug_str:000000000000a819 .LASF352
     /tmp/ccJwlT8t.s:8811   .debug_str:0000000000003191 .LASF353
     /tmp/ccJwlT8t.s:12225  .debug_str:000000000001043c .LASF354
     /tmp/ccJwlT8t.s:10263  .debug_str:0000000000008a08 .LASF355
     /tmp/ccJwlT8t.s:11187  .debug_str:000000000000c393 .LASF356
     /tmp/ccJwlT8t.s:9401   .debug_str:0000000000005682 .LASF357
     /tmp/ccJwlT8t.s:9775   .debug_str:0000000000006bea .LASF358
     /tmp/ccJwlT8t.s:10615  .debug_str:0000000000009f87 .LASF359
     /tmp/ccJwlT8t.s:9355   .debug_str:0000000000005430 .LASF360
     /tmp/ccJwlT8t.s:10303  .debug_str:0000000000008cca .LASF361
     /tmp/ccJwlT8t.s:8283   .debug_str:0000000000000f46 .LASF362
     /tmp/ccJwlT8t.s:10465  .debug_str:0000000000009710 .LASF363
     /tmp/ccJwlT8t.s:10641  .debug_str:000000000000a14f .LASF364
     /tmp/ccJwlT8t.s:12361  .debug_str:0000000000010c9f .LASF365
     /tmp/ccJwlT8t.s:11411  .debug_str:000000000000d18e .LASF366
     /tmp/ccJwlT8t.s:8737   .debug_str:0000000000002dad .LASF367
     /tmp/ccJwlT8t.s:10209  .debug_str:0000000000008668 .LASF368
     /tmp/ccJwlT8t.s:11081  .debug_str:000000000000bcfb .LASF369
     /tmp/ccJwlT8t.s:8527   .debug_str:0000000000002063 .LASF370
     /tmp/ccJwlT8t.s:10347  .debug_str:0000000000008f36 .LASF371
     /tmp/ccJwlT8t.s:8509   .debug_str:0000000000001f80 .LASF372
     /tmp/ccJwlT8t.s:12113  .debug_str:000000000000fcfb .LASF373
     /tmp/ccJwlT8t.s:9891   .debug_str:0000000000007319 .LASF374
     /tmp/ccJwlT8t.s:12111  .debug_str:000000000000fcef .LASF375
     /tmp/ccJwlT8t.s:11253  .debug_str:000000000000c735 .LASF376
     /tmp/ccJwlT8t.s:10469  .debug_str:0000000000009745 .LASF377
     /tmp/ccJwlT8t.s:8977   .debug_str:0000000000003b6b .LASF378
     /tmp/ccJwlT8t.s:10573  .debug_str:0000000000009d1a .LASF379
     /tmp/ccJwlT8t.s:9469   .debug_str:0000000000005a2b .LASF380
     /tmp/ccJwlT8t.s:11471  .debug_str:000000000000d4c8 .LASF381
     /tmp/ccJwlT8t.s:9061   .debug_str:00000000000040be .LASF382
     /tmp/ccJwlT8t.s:9743   .debug_str:000000000000698d .LASF383
     /tmp/ccJwlT8t.s:10541  .debug_str:0000000000009b3d .LASF384
     /tmp/ccJwlT8t.s:9615   .debug_str:00000000000062a8 .LASF385
     /tmp/ccJwlT8t.s:12509  .debug_str:0000000000011632 .LASF386
     /tmp/ccJwlT8t.s:9181   .debug_str:00000000000049ef .LASF387
     /tmp/ccJwlT8t.s:9581   .debug_str:0000000000006105 .LASF388
     /tmp/ccJwlT8t.s:10199  .debug_str:00000000000085d3 .LASF389
     /tmp/ccJwlT8t.s:12391  .debug_str:0000000000010e8a .LASF390
     /tmp/ccJwlT8t.s:10901  .debug_str:000000000000b0f9 .LASF391
     /tmp/ccJwlT8t.s:10511  .debug_str:0000000000009988 .LASF392
     /tmp/ccJwlT8t.s:10707  .debug_str:000000000000a4ad .LASF393
     /tmp/ccJwlT8t.s:9199   .debug_str:0000000000004b12 .LASF394
     /tmp/ccJwlT8t.s:11427  .debug_str:000000000000d283 .LASF395
     /tmp/ccJwlT8t.s:10361  .debug_str:0000000000008ffb .LASF396
     /tmp/ccJwlT8t.s:9017   .debug_str:0000000000003e27 .LASF397
     /tmp/ccJwlT8t.s:9527   .debug_str:0000000000005dd0 .LASF398
     /tmp/ccJwlT8t.s:11453  .debug_str:000000000000d3d7 .LASF399
     /tmp/ccJwlT8t.s:11131  .debug_str:000000000000c02b .LASF400
     /tmp/ccJwlT8t.s:9931   .debug_str:000000000000758f .LASF401
     /tmp/ccJwlT8t.s:9543   .debug_str:0000000000005e7c .LASF402
     /tmp/ccJwlT8t.s:11959  .debug_str:000000000000f2ae .LASF403
     /tmp/ccJwlT8t.s:12441  .debug_str:0000000000011200 .LASF404
     /tmp/ccJwlT8t.s:11623  .debug_str:000000000000ddf1 .LASF405
     /tmp/ccJwlT8t.s:9593   .debug_str:0000000000006192 .LASF406
     /tmp/ccJwlT8t.s:10127  .debug_str:000000000000817b .LASF407
     /tmp/ccJwlT8t.s:8127   .debug_str:0000000000000674 .LASF408
     /tmp/ccJwlT8t.s:11461  .debug_str:000000000000d450 .LASF409
     /tmp/ccJwlT8t.s:11101  .debug_str:000000000000bde6 .LASF410
     /tmp/ccJwlT8t.s:10133  .debug_str:00000000000081d9 .LASF411
     /tmp/ccJwlT8t.s:8031   .debug_str:0000000000000046 .LASF412
     /tmp/ccJwlT8t.s:11211  .debug_str:000000000000c4df .LASF413
     /tmp/ccJwlT8t.s:12531  .debug_str:000000000001177d .LASF414
     /tmp/ccJwlT8t.s:8297   .debug_str:000000000000101e .LASF415
     /tmp/ccJwlT8t.s:9573   .debug_str:000000000000608a .LASF416
     /tmp/ccJwlT8t.s:9627   .debug_str:0000000000006316 .LASF417
     /tmp/ccJwlT8t.s:9649   .debug_str:0000000000006452 .LASF418
     /tmp/ccJwlT8t.s:11715  .debug_str:000000000000e3cd .LASF419
     /tmp/ccJwlT8t.s:11685  .debug_str:000000000000e17e .LASF420
     /tmp/ccJwlT8t.s:11133  .debug_str:000000000000c03f .LASF421
     /tmp/ccJwlT8t.s:10035  .debug_str:0000000000007bd9 .LASF422
     /tmp/ccJwlT8t.s:11019  .debug_str:000000000000b83d .LASF423
     /tmp/ccJwlT8t.s:11175  .debug_str:000000000000c2e8 .LASF424
     /tmp/ccJwlT8t.s:10791  .debug_str:000000000000aa82 .LASF425
     /tmp/ccJwlT8t.s:11225  .debug_str:000000000000c5d9 .LASF426
     /tmp/ccJwlT8t.s:10057  .debug_str:0000000000007d6c .LASF427
     /tmp/ccJwlT8t.s:9729   .debug_str:00000000000068c6 .LASF428
     /tmp/ccJwlT8t.s:9027   .debug_str:0000000000003ebf .LASF429
     /tmp/ccJwlT8t.s:10185  .debug_str:0000000000008516 .LASF430
     /tmp/ccJwlT8t.s:8819   .debug_str:00000000000031e9 .LASF431
     /tmp/ccJwlT8t.s:9081   .debug_str:0000000000004224 .LASF432
     /tmp/ccJwlT8t.s:12149  .debug_str:000000000000ff80 .LASF433
     /tmp/ccJwlT8t.s:11169  .debug_str:000000000000c27e .LASF434
     /tmp/ccJwlT8t.s:9849   .debug_str:0000000000007096 .LASF435
     /tmp/ccJwlT8t.s:12539  .debug_str:00000000000117d1 .LASF436
     /tmp/ccJwlT8t.s:11281  .debug_str:000000000000c8be .LASF437
     /tmp/ccJwlT8t.s:11389  .debug_str:000000000000d03d .LASF438
     /tmp/ccJwlT8t.s:10383  .debug_str:00000000000091c5 .LASF439
     /tmp/ccJwlT8t.s:9497   .debug_str:0000000000005bde .LASF440
     /tmp/ccJwlT8t.s:8605   .debug_str:0000000000002571 .LASF441
     /tmp/ccJwlT8t.s:8849   .debug_str:00000000000033cb .LASF442
     /tmp/ccJwlT8t.s:10261  .debug_str:00000000000089ec .LASF443
     /tmp/ccJwlT8t.s:12001  .debug_str:000000000000f592 .LASF444
     /tmp/ccJwlT8t.s:8985   .debug_str:0000000000003beb .LASF445
     /tmp/ccJwlT8t.s:11257  .debug_str:000000000000c754 .LASF446
     /tmp/ccJwlT8t.s:11925  .debug_str:000000000000f042 .LASF447
     /tmp/ccJwlT8t.s:9553   .debug_str:0000000000005f15 .LASF448
     /tmp/ccJwlT8t.s:10853  .debug_str:000000000000ae4d .LASF449
     /tmp/ccJwlT8t.s:8513   .debug_str:0000000000001f99 .LASF450
     /tmp/ccJwlT8t.s:8935   .debug_str:000000000000388c .LASF451
     /tmp/ccJwlT8t.s:10391  .debug_str:000000000000922e .LASF452
     /tmp/ccJwlT8t.s:8417   .debug_str:00000000000018cb .LASF453
     /tmp/ccJwlT8t.s:12239  .debug_str:000000000001052d .LASF454
     /tmp/ccJwlT8t.s:11093  .debug_str:000000000000bd84 .LASF455
     /tmp/ccJwlT8t.s:8331   .debug_str:000000000000122d .LASF456
     /tmp/ccJwlT8t.s:8085   .debug_str:000000000000035f .LASF457
     /tmp/ccJwlT8t.s:11625  .debug_str:000000000000de04 .LASF458
     /tmp/ccJwlT8t.s:10473  .debug_str:000000000000975d .LASF459
     /tmp/ccJwlT8t.s:8429   .debug_str:0000000000001980 .LASF460
     /tmp/ccJwlT8t.s:11387  .debug_str:000000000000d01f .LASF461
     /tmp/ccJwlT8t.s:12133  .debug_str:000000000000fe78 .LASF462
     /tmp/ccJwlT8t.s:11777  .debug_str:000000000000e747 .LASF463
     /tmp/ccJwlT8t.s:12011  .debug_str:000000000000f67d .LASF464
     /tmp/ccJwlT8t.s:11381  .debug_str:000000000000cf83 .LASF465
     /tmp/ccJwlT8t.s:9291   .debug_str:0000000000005062 .LASF466
     /tmp/ccJwlT8t.s:12403  .debug_str:0000000000010f34 .LASF467
     /tmp/ccJwlT8t.s:10001  .debug_str:00000000000079b8 .LASF468
     /tmp/ccJwlT8t.s:12523  .debug_str:00000000000116fa .LASF469
     /tmp/ccJwlT8t.s:10673  .debug_str:000000000000a2c9 .LASF470
     /tmp/ccJwlT8t.s:10957  .debug_str:000000000000b3f7 .LASF471
     /tmp/ccJwlT8t.s:9957   .debug_str:0000000000007704 .LASF472
     /tmp/ccJwlT8t.s:9285   .debug_str:0000000000005028 .LASF473
     /tmp/ccJwlT8t.s:10387  .debug_str:0000000000009201 .LASF474
     /tmp/ccJwlT8t.s:8199   .debug_str:0000000000000a6f .LASF475
     /tmp/ccJwlT8t.s:10293  .debug_str:0000000000008c03 .LASF476
     /tmp/ccJwlT8t.s:8241   .debug_str:0000000000000cb6 .LASF477
     /tmp/ccJwlT8t.s:11025  .debug_str:000000000000b8b5 .LASF478
     /tmp/ccJwlT8t.s:9493   .debug_str:0000000000005b9a .LASF479
     /tmp/ccJwlT8t.s:11111  .debug_str:000000000000beab .LASF480
     /tmp/ccJwlT8t.s:11741  .debug_str:000000000000e562 .LASF482
     /tmp/ccJwlT8t.s:8051   .debug_str:000000000000017d .LASF483
     /tmp/ccJwlT8t.s:8055   .debug_str:00000000000001a9 .LASF484
     /tmp/ccJwlT8t.s:10109  .debug_str:00000000000080a5 .LASF485
     /tmp/ccJwlT8t.s:10437  .debug_str:000000000000950a .LASF486
     /tmp/ccJwlT8t.s:8251   .debug_str:0000000000000d3f .LASF487
     /tmp/ccJwlT8t.s:9875   .debug_str:0000000000007236 .LASF488
     /tmp/ccJwlT8t.s:8195   .debug_str:0000000000000a47 .LASF489
     /tmp/ccJwlT8t.s:8827   .debug_str:0000000000003281 .LASF490
     /tmp/ccJwlT8t.s:12455  .debug_str:00000000000112b6 .LASF491
     /tmp/ccJwlT8t.s:8313   .debug_str:0000000000001139 .LASF492
     /tmp/ccJwlT8t.s:11573  .debug_str:000000000000daea .LASF493
     /tmp/ccJwlT8t.s:11545  .debug_str:000000000000d953 .LASF494
     /tmp/ccJwlT8t.s:8131   .debug_str:00000000000006a1 .LASF495
     /tmp/ccJwlT8t.s:12231  .debug_str:0000000000010474 .LASF496
     /tmp/ccJwlT8t.s:10879  .debug_str:000000000000af9b .LASF497
     /tmp/ccJwlT8t.s:11485  .debug_str:000000000000d569 .LASF498
     /tmp/ccJwlT8t.s:12023  .debug_str:000000000000f749 .LASF499
     /tmp/ccJwlT8t.s:12081  .debug_str:000000000000fb31 .LASF500
     /tmp/ccJwlT8t.s:10249  .debug_str:0000000000008901 .LASF501
     /tmp/ccJwlT8t.s:10283  .debug_str:0000000000008b58 .LASF502
     /tmp/ccJwlT8t.s:12323  .debug_str:0000000000010a97 .LASF503
     /tmp/ccJwlT8t.s:9413   .debug_str:000000000000574b .LASF504
     /tmp/ccJwlT8t.s:10115  .debug_str:00000000000080e7 .LASF505
     /tmp/ccJwlT8t.s:10889  .debug_str:000000000000b01e .LASF506
     /tmp/ccJwlT8t.s:10679  .debug_str:000000000000a332 .LASF507
     /tmp/ccJwlT8t.s:11989  .debug_str:000000000000f4ac .LASF508
     /tmp/ccJwlT8t.s:11255  .debug_str:000000000000c73d .LASF509
     /tmp/ccJwlT8t.s:10691  .debug_str:000000000000a3ea .LASF510
     /tmp/ccJwlT8t.s:8999   .debug_str:0000000000003cfa .LASF511
     /tmp/ccJwlT8t.s:11875  .debug_str:000000000000ecfa .LASF512
     /tmp/ccJwlT8t.s:11273  .debug_str:000000000000c865 .LASF513
     /tmp/ccJwlT8t.s:11671  .debug_str:000000000000e0a9 .LASF514
     /tmp/ccJwlT8t.s:10355  .debug_str:0000000000008fb2 .LASF515
     /tmp/ccJwlT8t.s:10935  .debug_str:000000000000b2b2 .LASF516
     /tmp/ccJwlT8t.s:8091   .debug_str:00000000000003b4 .LASF517
     /tmp/ccJwlT8t.s:8709   .debug_str:0000000000002bf8 .LASF518
     /tmp/ccJwlT8t.s:11239  .debug_str:000000000000c695 .LASF519
     /tmp/ccJwlT8t.s:9157   .debug_str:0000000000004858 .LASF520
     /tmp/ccJwlT8t.s:12347  .debug_str:0000000000010bc9 .LASF521
     /tmp/ccJwlT8t.s:11227  .debug_str:000000000000c602 .LASF522
     /tmp/ccJwlT8t.s:8525   .debug_str:000000000000204e .LASF523
     /tmp/ccJwlT8t.s:11143  .debug_str:000000000000c0ac .LASF524
     /tmp/ccJwlT8t.s:11099  .debug_str:000000000000bdd1 .LASF525
     /tmp/ccJwlT8t.s:12135  .debug_str:000000000000fe90 .LASF526
     /tmp/ccJwlT8t.s:10427  .debug_str:0000000000009486 .LASF527
     /tmp/ccJwlT8t.s:11213  .debug_str:000000000000c4f9 .LASF528
     /tmp/ccJwlT8t.s:11977  .debug_str:000000000000f400 .LASF529
     /tmp/ccJwlT8t.s:10551  .debug_str:0000000000009bc8 .LASF530
     /tmp/ccJwlT8t.s:8691   .debug_str:0000000000002af2 .LASF531
     /tmp/ccJwlT8t.s:8487   .debug_str:0000000000001de1 .LASF532
     /tmp/ccJwlT8t.s:9349   .debug_str:00000000000053ec .LASF533
     /tmp/ccJwlT8t.s:10059  .debug_str:0000000000007d90 .LASF534
     /tmp/ccJwlT8t.s:9325   .debug_str:00000000000052ca .LASF535
     /tmp/ccJwlT8t.s:12071  .debug_str:000000000000fa4e .LASF536
     /tmp/ccJwlT8t.s:12277  .debug_str:00000000000107af .LASF537
     /tmp/ccJwlT8t.s:10763  .debug_str:000000000000a8b4 .LASF538
     /tmp/ccJwlT8t.s:11775  .debug_str:000000000000e71e .LASF539
     /tmp/ccJwlT8t.s:12083  .debug_str:000000000000fb47 .LASF540
     /tmp/ccJwlT8t.s:9097   .debug_str:0000000000004374 .LASF541
     /tmp/ccJwlT8t.s:9371   .debug_str:00000000000054e3 .LASF542
     /tmp/ccJwlT8t.s:12267  .debug_str:000000000001070c .LASF543
     /tmp/ccJwlT8t.s:10633  .debug_str:000000000000a07f .LASF544
     /tmp/ccJwlT8t.s:8441   .debug_str:0000000000001a6b .LASF545
     /tmp/ccJwlT8t.s:9987   .debug_str:000000000000792f .LASF546
     /tmp/ccJwlT8t.s:9541   .debug_str:0000000000005e69 .LASF547
     /tmp/ccJwlT8t.s:9505   .debug_str:0000000000005cb8 .LASF548
     /tmp/ccJwlT8t.s:8933   .debug_str:0000000000003879 .LASF549
     /tmp/ccJwlT8t.s:11965  .debug_str:000000000000f2fe .LASF550
     /tmp/ccJwlT8t.s:8391   .debug_str:000000000000168d .LASF551
     /tmp/ccJwlT8t.s:8815   .debug_str:00000000000031bb .LASF552
     /tmp/ccJwlT8t.s:10119  .debug_str:000000000000811f .LASF553
     /tmp/ccJwlT8t.s:8683   .debug_str:0000000000002a3c .LASF554
     /tmp/ccJwlT8t.s:10529  .debug_str:0000000000009a90 .LASF555
     /tmp/ccJwlT8t.s:8693   .debug_str:0000000000002b03 .LASF556
     /tmp/ccJwlT8t.s:11819  .debug_str:000000000000e9c3 .LASF557
     /tmp/ccJwlT8t.s:10709  .debug_str:000000000000a4b8 .LASF558
     /tmp/ccJwlT8t.s:11943  .debug_str:000000000000f162 .LASF559
     /tmp/ccJwlT8t.s:8889   .debug_str:0000000000003628 .LASF560
     /tmp/ccJwlT8t.s:10527  .debug_str:0000000000009a79 .LASF561
     /tmp/ccJwlT8t.s:10201  .debug_str:00000000000085dd .LASF562
     /tmp/ccJwlT8t.s:12171  .debug_str:0000000000010121 .LASF563
     /tmp/ccJwlT8t.s:11185  .debug_str:000000000000c37f .LASF564
     /tmp/ccJwlT8t.s:12377  .debug_str:0000000000010d7c .LASF565
     /tmp/ccJwlT8t.s:10611  .debug_str:0000000000009f37 .LASF566
     /tmp/ccJwlT8t.s:9251   .debug_str:0000000000004e12 .LASF567
     /tmp/ccJwlT8t.s:10825  .debug_str:000000000000ac85 .LASF568
     /tmp/ccJwlT8t.s:10161  .debug_str:00000000000083bb .LASF569
     /tmp/ccJwlT8t.s:12289  .debug_str:0000000000010866 .LASF570
     /tmp/ccJwlT8t.s:9013   .debug_str:0000000000003df1 .LASF571
     /tmp/ccJwlT8t.s:9795   .debug_str:0000000000006d56 .LASF572
     /tmp/ccJwlT8t.s:9965   .debug_str:00000000000077b9 .LASF573
     /tmp/ccJwlT8t.s:9107   .debug_str:0000000000004467 .LASF574
     /tmp/ccJwlT8t.s:8919   .debug_str:00000000000037c0 .LASF575
     /tmp/ccJwlT8t.s:9383   .debug_str:0000000000005581 .LASF576
     /tmp/ccJwlT8t.s:8803   .debug_str:0000000000003102 .LASF577
     /tmp/ccJwlT8t.s:12457  .debug_str:00000000000112cd .LASF578
     /tmp/ccJwlT8t.s:11557  .debug_str:000000000000da1b .LASF579
     /tmp/ccJwlT8t.s:11285  .debug_str:000000000000c8f6 .LASF580
     /tmp/ccJwlT8t.s:8995   .debug_str:0000000000003cdc .LASF581
     /tmp/ccJwlT8t.s:12329  .debug_str:0000000000010aea .LASF582
     /tmp/ccJwlT8t.s:12513  .debug_str:0000000000011652 .LASF583
     /tmp/ccJwlT8t.s:8847   .debug_str:00000000000033b4 .LASF584
     /tmp/ccJwlT8t.s:9509   .debug_str:0000000000005ce5 .LASF585
     /tmp/ccJwlT8t.s:11827  .debug_str:000000000000ea41 .LASF586
     /tmp/ccJwlT8t.s:11193  .debug_str:000000000000c3d5 .LASF587
     /tmp/ccJwlT8t.s:9067   .debug_str:00000000000040fe .LASF588
     /tmp/ccJwlT8t.s:10145  .debug_str:00000000000082d4 .LASF589
     /tmp/ccJwlT8t.s:9329   .debug_str:00000000000052ed .LASF590
     /tmp/ccJwlT8t.s:11045  .debug_str:000000000000baaa .LASF591
     /tmp/ccJwlT8t.s:10505  .debug_str:0000000000009938 .LASF592
     /tmp/ccJwlT8t.s:9909   .debug_str:0000000000007447 .LASF593
     /tmp/ccJwlT8t.s:11945  .debug_str:000000000000f17f .LASF594
     /tmp/ccJwlT8t.s:11755  .debug_str:000000000000e65f .LASF595
     /tmp/ccJwlT8t.s:9989   .debug_str:0000000000007948 .LASF596
     /tmp/ccJwlT8t.s:10657  .debug_str:000000000000a21c .LASF597
     /tmp/ccJwlT8t.s:9733   .debug_str:0000000000006902 .LASF598
     /tmp/ccJwlT8t.s:9423   .debug_str:00000000000057ae .LASF599
     /tmp/ccJwlT8t.s:8507   .debug_str:0000000000001f73 .LASF600
     /tmp/ccJwlT8t.s:10867  .debug_str:000000000000af08 .LASF601
     /tmp/ccJwlT8t.s:8411   .debug_str:000000000000187d .LASF602
     /tmp/ccJwlT8t.s:11505  .debug_str:000000000000d667 .LASF603
     /tmp/ccJwlT8t.s:11317  .debug_str:000000000000cb24 .LASF604
     /tmp/ccJwlT8t.s:10929  .debug_str:000000000000b23b .LASF605
     /tmp/ccJwlT8t.s:11323  .debug_str:000000000000cb7e .LASF606
     /tmp/ccJwlT8t.s:11183  .debug_str:000000000000c371 .LASF607
     /tmp/ccJwlT8t.s:11247  .debug_str:000000000000c6f9 .LASF608
     /tmp/ccJwlT8t.s:9893   .debug_str:0000000000007323 .LASF609
     /tmp/ccJwlT8t.s:11375  .debug_str:000000000000cf49 .LASF610
     /tmp/ccJwlT8t.s:8911   .debug_str:000000000000372b .LASF611
     /tmp/ccJwlT8t.s:12209  .debug_str:000000000001034e .LASF612
     /tmp/ccJwlT8t.s:9713   .debug_str:00000000000067a4 .LASF613
     /tmp/ccJwlT8t.s:12039  .debug_str:000000000000f87f .LASF614
     /tmp/ccJwlT8t.s:8059   .debug_str:00000000000001dd .LASF615
     /tmp/ccJwlT8t.s:8721   .debug_str:0000000000002ce5 .LASF616
     /tmp/ccJwlT8t.s:10311  .debug_str:0000000000008d29 .LASF617
     /tmp/ccJwlT8t.s:9073   .debug_str:0000000000004198 .LASF618
     /tmp/ccJwlT8t.s:8637   .debug_str:000000000000274b .LASF619
     /tmp/ccJwlT8t.s:9273   .debug_str:0000000000004f7e .LASF620
     /tmp/ccJwlT8t.s:9625   .debug_str:000000000000630a .LASF621
     /tmp/ccJwlT8t.s:10587  .debug_str:0000000000009dd1 .LASF622
     /tmp/ccJwlT8t.s:8973   .debug_str:0000000000003b11 .LASF623
     /tmp/ccJwlT8t.s:11727  .debug_str:000000000000e454 .LASF624
     /tmp/ccJwlT8t.s:8423   .debug_str:0000000000001921 .LASF625
     /tmp/ccJwlT8t.s:12493  .debug_str:0000000000011541 .LASF626
     /tmp/ccJwlT8t.s:9485   .debug_str:0000000000005b17 .LASF627
     /tmp/ccJwlT8t.s:11449  .debug_str:000000000000d3ac .LASF628
     /tmp/ccJwlT8t.s:9215   .debug_str:0000000000004be5 .LASF629
     /tmp/ccJwlT8t.s:12393  .debug_str:0000000000010e97 .LASF630
     /tmp/ccJwlT8t.s:9851   .debug_str:00000000000070b5 .LASF631
     /tmp/ccJwlT8t.s:11757  .debug_str:000000000000e66a .LASF632
     /tmp/ccJwlT8t.s:9753   .debug_str:0000000000006a76 .LASF633
     /tmp/ccJwlT8t.s:8779   .debug_str:0000000000002faa .LASF634
     /tmp/ccJwlT8t.s:9785   .debug_str:0000000000006cb8 .LASF635
     /tmp/ccJwlT8t.s:8337   .debug_str:00000000000012cb .LASF636
     /tmp/ccJwlT8t.s:9175   .debug_str:00000000000049a2 .LASF637
     /tmp/ccJwlT8t.s:9167   .debug_str:00000000000048de .LASF638
     /tmp/ccJwlT8t.s:12411  .debug_str:0000000000010f8d .LASF639
     /tmp/ccJwlT8t.s:10271  .debug_str:0000000000008a66 .LASF640
     /tmp/ccJwlT8t.s:11951  .debug_str:000000000000f1cd .LASF641
     /tmp/ccJwlT8t.s:11357  .debug_str:000000000000cde1 .LASF642
     /tmp/ccJwlT8t.s:9295   .debug_str:0000000000005097 .LASF643
     /tmp/ccJwlT8t.s:8613   .debug_str:00000000000025df .LASF644
     /tmp/ccJwlT8t.s:10079  .debug_str:0000000000007eb6 .LASF645
     /tmp/ccJwlT8t.s:12101  .debug_str:000000000000fc57 .LASF646
     /tmp/ccJwlT8t.s:12263  .debug_str:00000000000106e0 .LASF647
     /tmp/ccJwlT8t.s:11463  .debug_str:000000000000d465 .LASF648
     /tmp/ccJwlT8t.s:8197   .debug_str:0000000000000a5f .LASF649
     /tmp/ccJwlT8t.s:9847   .debug_str:0000000000007085 .LASF650
     /tmp/ccJwlT8t.s:11607  .debug_str:000000000000dd43 .LASF651
     /tmp/ccJwlT8t.s:8221   .debug_str:0000000000000bbd .LASF652
     /tmp/ccJwlT8t.s:8043   .debug_str:0000000000000116 .LASF653
     /tmp/ccJwlT8t.s:9407   .debug_str:00000000000056f4 .LASF654
     /tmp/ccJwlT8t.s:11519  .debug_str:000000000000d760 .LASF655
     /tmp/ccJwlT8t.s:10855  .debug_str:000000000000ae71 .LASF656
     /tmp/ccJwlT8t.s:8661   .debug_str:00000000000028e1 .LASF657
     /tmp/ccJwlT8t.s:10483  .debug_str:00000000000097fb .LASF658
     /tmp/ccJwlT8t.s:10897  .debug_str:000000000000b0af .LASF659
     /tmp/ccJwlT8t.s:9977   .debug_str:000000000000788d .LASF660
     /tmp/ccJwlT8t.s:9641   .debug_str:00000000000063fa .LASF661
     /tmp/ccJwlT8t.s:9643   .debug_str:000000000000640b .LASF662
     /tmp/ccJwlT8t.s:8275   .debug_str:0000000000000ede .LASF663
     /tmp/ccJwlT8t.s:8795   .debug_str:000000000000307a .LASF664
     /tmp/ccJwlT8t.s:9907   .debug_str:0000000000007439 .LASF665
     /tmp/ccJwlT8t.s:8233   .debug_str:0000000000000c63 .LASF666
     /tmp/ccJwlT8t.s:10919  .debug_str:000000000000b1ec .LASF667
     /tmp/ccJwlT8t.s:10313  .debug_str:0000000000008d40 .LASF668
     /tmp/ccJwlT8t.s:10367  .debug_str:000000000000909b .LASF669
     /tmp/ccJwlT8t.s:10191  .debug_str:0000000000008563 .LASF670
     /tmp/ccJwlT8t.s:8181   .debug_str:0000000000000929 .LASF671
     /tmp/ccJwlT8t.s:12399  .debug_str:0000000000010ee1 .LASF672
     /tmp/ccJwlT8t.s:8601   .debug_str:0000000000002550 .LASF673
     /tmp/ccJwlT8t.s:10373  .debug_str:00000000000090d8 .LASF674
     /tmp/ccJwlT8t.s:10423  .debug_str:0000000000009449 .LASF675
     /tmp/ccJwlT8t.s:8545   .debug_str:0000000000002130 .LASF676
     /tmp/ccJwlT8t.s:11367  .debug_str:000000000000ced5 .LASF677
     /tmp/ccJwlT8t.s:8177   .debug_str:0000000000000900 .LASF678
     /tmp/ccJwlT8t.s:9823   .debug_str:0000000000006f58 .LASF679
     /tmp/ccJwlT8t.s:9919   .debug_str:00000000000074c8 .LASF680
     /tmp/ccJwlT8t.s:12407  .debug_str:0000000000010f5f .LASF681
     /tmp/ccJwlT8t.s:11295  .debug_str:000000000000c9ba .LASF682
     /tmp/ccJwlT8t.s:9123   .debug_str:00000000000045c5 .LASF683
     /tmp/ccJwlT8t.s:8593   .debug_str:00000000000024e9 .LASF684
     /tmp/ccJwlT8t.s:9421   .debug_str:000000000000579d .LASF685
     /tmp/ccJwlT8t.s:10471  .debug_str:000000000000974e .LASF686
     /tmp/ccJwlT8t.s:11415  .debug_str:000000000000d1c0 .LASF687
     /tmp/ccJwlT8t.s:9703   .debug_str:00000000000066e4 .LASF688
     /tmp/ccJwlT8t.s:9297   .debug_str:000000000000511c .LASF689
     /tmp/ccJwlT8t.s:8579   .debug_str:000000000000239c .LASF690
     /tmp/ccJwlT8t.s:11373  .debug_str:000000000000cf35 .LASF691
     /tmp/ccJwlT8t.s:9031   .debug_str:0000000000003ef7 .LASF692
     /tmp/ccJwlT8t.s:8339   .debug_str:00000000000012dc .LASF693
     /tmp/ccJwlT8t.s:8909   .debug_str:0000000000003719 .LASF694
     /tmp/ccJwlT8t.s:8327   .debug_str:0000000000001204 .LASF695
     /tmp/ccJwlT8t.s:9815   .debug_str:0000000000006f02 .LASF696
     /tmp/ccJwlT8t.s:11665  .debug_str:000000000000e074 .LASF697
     /tmp/ccJwlT8t.s:8317   .debug_str:0000000000001175 .LASF698
     /tmp/ccJwlT8t.s:9635   .debug_str:00000000000063a9 .LASF699
     /tmp/ccJwlT8t.s:8949   .debug_str:0000000000003976 .LASF700
     /tmp/ccJwlT8t.s:11135  .debug_str:000000000000c05b .LASF701
     /tmp/ccJwlT8t.s:10597  .debug_str:0000000000009e37 .LASF702
     /tmp/ccJwlT8t.s:11063  .debug_str:000000000000bbc6 .LASF703
     /tmp/ccJwlT8t.s:8165   .debug_str:000000000000087f .LASF704
     /tmp/ccJwlT8t.s:9811   .debug_str:0000000000006ec4 .LASF705
     /tmp/ccJwlT8t.s:9419   .debug_str:000000000000578c .LASF706
     /tmp/ccJwlT8t.s:8369   .debug_str:00000000000014d6 .LASF707
     /tmp/ccJwlT8t.s:10727  .debug_str:000000000000a62e .LASF708
     /tmp/ccJwlT8t.s:11751  .debug_str:000000000000e632 .LASF709
     /tmp/ccJwlT8t.s:8237   .debug_str:0000000000000c8c .LASF710
     /tmp/ccJwlT8t.s:12387  .debug_str:0000000000010e5f .LASF711
     /tmp/ccJwlT8t.s:8185   .debug_str:0000000000000979 .LASF712
     /tmp/ccJwlT8t.s:8033   .debug_str:000000000000005f .LASF713
     /tmp/ccJwlT8t.s:11035  .debug_str:000000000000b9f3 .LASF714
     /tmp/ccJwlT8t.s:9621   .debug_str:00000000000062dc .LASF715
     /tmp/ccJwlT8t.s:9213   .debug_str:0000000000004bcf .LASF716
     /tmp/ccJwlT8t.s:10803  .debug_str:000000000000ab23 .LASF717
     /tmp/ccJwlT8t.s:9381   .debug_str:000000000000556f .LASF718
     /tmp/ccJwlT8t.s:12537  .debug_str:00000000000117bc .LASF719
     /tmp/ccJwlT8t.s:9267   .debug_str:0000000000004f1f .LASF720
     /tmp/ccJwlT8t.s:12151  .debug_str:000000000000ffa6 .LASF721
     /tmp/ccJwlT8t.s:12477  .debug_str:0000000000011437 .LASF722
     /tmp/ccJwlT8t.s:12221  .debug_str:00000000000103f7 .LASF723
     /tmp/ccJwlT8t.s:9445   .debug_str:0000000000005910 .LASF724
     /tmp/ccJwlT8t.s:8071   .debug_str:0000000000000293 .LASF725
     /tmp/ccJwlT8t.s:10041  .debug_str:0000000000007c36 .LASF726
     /tmp/ccJwlT8t.s:11863  .debug_str:000000000000ec63 .LASF727
     /tmp/ccJwlT8t.s:8603   .debug_str:0000000000002561 .LASF728
     /tmp/ccJwlT8t.s:9669   .debug_str:000000000000653b .LASF729
     /tmp/ccJwlT8t.s:9427   .debug_str:00000000000057d5 .LASF730
     /tmp/ccJwlT8t.s:11149  .debug_str:000000000000c12a .LASF731
     /tmp/ccJwlT8t.s:8883   .debug_str:00000000000035de .LASF732
     /tmp/ccJwlT8t.s:9055   .debug_str:000000000000405b .LASF733
     /tmp/ccJwlT8t.s:11641  .debug_str:000000000000dee7 .LASF734
     /tmp/ccJwlT8t.s:9777   .debug_str:0000000000006bff .LASF735
     /tmp/ccJwlT8t.s:9529   .debug_str:0000000000005de3 .LASF736
     /tmp/ccJwlT8t.s:9985   .debug_str:000000000000791f .LASF737
     /tmp/ccJwlT8t.s:11561  .debug_str:000000000000da3e .LASF738
     /tmp/ccJwlT8t.s:8149   .debug_str:0000000000000784 .LASF739
     /tmp/ccJwlT8t.s:12469  .debug_str:00000000000113b6 .LASF740
     /tmp/ccJwlT8t.s:8787   .debug_str:0000000000002ff5 .LASF741
     /tmp/ccJwlT8t.s:8839   .debug_str:0000000000003340 .LASF742
     /tmp/ccJwlT8t.s:9997   .debug_str:000000000000798e .LASF743
     /tmp/ccJwlT8t.s:9671   .debug_str:000000000000654a .LASF744
     /tmp/ccJwlT8t.s:8363   .debug_str:000000000000149e .LASF745
     /tmp/ccJwlT8t.s:9829   .debug_str:0000000000006fb0 .LASF746
     /tmp/ccJwlT8t.s:10177  .debug_str:00000000000084ba .LASF747
     /tmp/ccJwlT8t.s:10751  .debug_str:000000000000a7ac .LASF748
     /tmp/ccJwlT8t.s:10685  .debug_str:000000000000a3a2 .LASF749
     /tmp/ccJwlT8t.s:12203  .debug_str:00000000000102ea .LASF750
     /tmp/ccJwlT8t.s:11621  .debug_str:000000000000dddd .LASF751
     /tmp/ccJwlT8t.s:10491  .debug_str:000000000000986a .LASF752
     /tmp/ccJwlT8t.s:8053   .debug_str:0000000000000194 .LASF753
     /tmp/ccJwlT8t.s:9587   .debug_str:000000000000613a .LASF754
     /tmp/ccJwlT8t.s:10963  .debug_str:000000000000b439 .LASF755
     /tmp/ccJwlT8t.s:10117  .debug_str:0000000000008109 .LASF756
     /tmp/ccJwlT8t.s:8881   .debug_str:00000000000035c8 .LASF757
     /tmp/ccJwlT8t.s:11425  .debug_str:000000000000d26f .LASF758
     /tmp/ccJwlT8t.s:11003  .debug_str:000000000000b6e0 .LASF759
     /tmp/ccJwlT8t.s:12157  .debug_str:000000000000fff9 .LASF760
     /tmp/ccJwlT8t.s:11205  .debug_str:000000000000c49d .LASF761
     /tmp/ccJwlT8t.s:12503  .debug_str:00000000000115cf .LASF762
     /tmp/ccJwlT8t.s:9853   .debug_str:00000000000070cd .LASF763
     /tmp/ccJwlT8t.s:10407  .debug_str:0000000000009335 .LASF764
     /tmp/ccJwlT8t.s:8917   .debug_str:00000000000037ab .LASF765
     /tmp/ccJwlT8t.s:11981  .debug_str:000000000000f431 .LASF766
     /tmp/ccJwlT8t.s:12169  .debug_str:000000000001010c .LASF767
     /tmp/ccJwlT8t.s:8539   .debug_str:00000000000020ef .LASF768
     /tmp/ccJwlT8t.s:10715  .debug_str:000000000000a51d .LASF769
     /tmp/ccJwlT8t.s:10385  .debug_str:00000000000091eb .LASF770
     /tmp/ccJwlT8t.s:8529   .debug_str:0000000000002069 .LASF771
     /tmp/ccJwlT8t.s:8773   .debug_str:0000000000002f6a .LASF772
     /tmp/ccJwlT8t.s:10495  .debug_str:00000000000098c0 .LASF773
     /tmp/ccJwlT8t.s:12337  .debug_str:0000000000010b50 .LASF774
     /tmp/ccJwlT8t.s:11841  .debug_str:000000000000eb10 .LASF775
     /tmp/ccJwlT8t.s:11571  .debug_str:000000000000dad4 .LASF776
     /tmp/ccJwlT8t.s:12095  .debug_str:000000000000fc14 .LASF777
     /tmp/ccJwlT8t.s:9507   .debug_str:0000000000005ccb .LASF778
     /tmp/ccJwlT8t.s:11609  .debug_str:000000000000dd53 .LASF779
     /tmp/ccJwlT8t.s:8829   .debug_str:0000000000003299 .LASF780
     /tmp/ccJwlT8t.s:10357  .debug_str:0000000000008fc9 .LASF781
     /tmp/ccJwlT8t.s:10819  .debug_str:000000000000ac0d .LASF782
     /tmp/ccJwlT8t.s:8027   .debug_str:0000000000000000 .LASF783
     /tmp/ccJwlT8t.s:9683   .debug_str:00000000000065f9 .LASF784
     /tmp/ccJwlT8t.s:9239   .debug_str:0000000000004d86 .LASF785
     /tmp/ccJwlT8t.s:11451  .debug_str:000000000000d3bd .LASF786
     /tmp/ccJwlT8t.s:9767   .debug_str:0000000000006b92 .LASF787
     /tmp/ccJwlT8t.s:9171   .debug_str:000000000000496e .LASF788
     /tmp/ccJwlT8t.s:8491   .debug_str:0000000000001e26 .LASF789
     /tmp/ccJwlT8t.s:8321   .debug_str:000000000000119c .LASF790
     /tmp/ccJwlT8t.s:10069  .debug_str:0000000000007e42 .LASF791
     /tmp/ccJwlT8t.s:12449  .debug_str:0000000000011267 .LASF792
     /tmp/ccJwlT8t.s:12063  .debug_str:000000000000f9f0 .LASF793
     /tmp/ccJwlT8t.s:11413  .debug_str:000000000000d1aa .LASF794
     /tmp/ccJwlT8t.s:8925   .debug_str:0000000000003809 .LASF795
     /tmp/ccJwlT8t.s:10173  .debug_str:000000000000848b .LASF796
     /tmp/ccJwlT8t.s:9539   .debug_str:0000000000005e54 .LASF797
     /tmp/ccJwlT8t.s:10489  .debug_str:0000000000009854 .LASF798
     /tmp/ccJwlT8t.s:12213  .debug_str:0000000000010372 .LASF799
     /tmp/ccJwlT8t.s:11767  .debug_str:000000000000e6ce .LASF800
     /tmp/ccJwlT8t.s:11733  .debug_str:000000000000e4c2 .LASF801
     /tmp/ccJwlT8t.s:9165   .debug_str:00000000000048c5 .LASF802
     /tmp/ccJwlT8t.s:11499  .debug_str:000000000000d5ff .LASF803
     /tmp/ccJwlT8t.s:9125   .debug_str:00000000000045d5 .LASF804
     /tmp/ccJwlT8t.s:11429  .debug_str:000000000000d293 .LASF805
     /tmp/ccJwlT8t.s:11903  .debug_str:000000000000eec0 .LASF806
     /tmp/ccJwlT8t.s:9363   .debug_str:0000000000005492 .LASF807
     /tmp/ccJwlT8t.s:10981  .debug_str:000000000000b54d .LASF808
     /tmp/ccJwlT8t.s:9905   .debug_str:0000000000007420 .LASF809
     /tmp/ccJwlT8t.s:11439  .debug_str:000000000000d321 .LASF810
     /tmp/ccJwlT8t.s:10415  .debug_str:00000000000093bc .LASF811
     /tmp/ccJwlT8t.s:10665  .debug_str:000000000000a26e .LASF812
     /tmp/ccJwlT8t.s:10193  .debug_str:0000000000008575 .LASF813
     /tmp/ccJwlT8t.s:10121  .debug_str:0000000000008135 .LASF814
     /tmp/ccJwlT8t.s:8639   .debug_str:0000000000002757 .LASF815
     /tmp/ccJwlT8t.s:9247   .debug_str:0000000000004de5 .LASF816
     /tmp/ccJwlT8t.s:9053   .debug_str:0000000000004046 .LASF817
     /tmp/ccJwlT8t.s:10651  .debug_str:000000000000a1b2 .LASF818
     /tmp/ccJwlT8t.s:9673   .debug_str:000000000000655a .LASF819
     /tmp/ccJwlT8t.s:8445   .debug_str:0000000000001ab2 .LASF820
     /tmp/ccJwlT8t.s:9375   .debug_str:000000000000552f .LASF821
     /tmp/ccJwlT8t.s:11649  .debug_str:000000000000df79 .LASF822
     /tmp/ccJwlT8t.s:9241   .debug_str:0000000000004d9f .LASF823
     /tmp/ccJwlT8t.s:9917   .debug_str:00000000000074b4 .LASF824
     /tmp/ccJwlT8t.s:8867   .debug_str:00000000000034cd .LASF825
     /tmp/ccJwlT8t.s:11067  .debug_str:000000000000bc02 .LASF826
     /tmp/ccJwlT8t.s:8357   .debug_str:0000000000001414 .LASF827
     /tmp/ccJwlT8t.s:9519   .debug_str:0000000000005d71 .LASF828
     /tmp/ccJwlT8t.s:8673   .debug_str:000000000000297b .LASF829
     /tmp/ccJwlT8t.s:11773  .debug_str:000000000000e708 .LASF830
     /tmp/ccJwlT8t.s:8903   .debug_str:00000000000036de .LASF831
     /tmp/ccJwlT8t.s:10229  .debug_str:00000000000087c1 .LASF832
     /tmp/ccJwlT8t.s:12291  .debug_str:0000000000010883 .LASF833
     /tmp/ccJwlT8t.s:9967   .debug_str:00000000000077d4 .LASF834
     /tmp/ccJwlT8t.s:9841   .debug_str:0000000000007043 .LASF835
     /tmp/ccJwlT8t.s:8119   .debug_str:00000000000005db .LASF836
     /tmp/ccJwlT8t.s:10125  .debug_str:0000000000008167 .LASF837
     /tmp/ccJwlT8t.s:11033  .debug_str:000000000000b9e0 .LASF838
     /tmp/ccJwlT8t.s:8901   .debug_str:00000000000036cc .LASF839
     /tmp/ccJwlT8t.s:12333  .debug_str:0000000000010b1a .LASF840
     /tmp/ccJwlT8t.s:8099   .debug_str:0000000000000471 .LASF841
     /tmp/ccJwlT8t.s:9437   .debug_str:0000000000005860 .LASF842
     /tmp/ccJwlT8t.s:11541  .debug_str:000000000000d900 .LASF843
     /tmp/ccJwlT8t.s:8707   .debug_str:0000000000002be4 .LASF844
     /tmp/ccJwlT8t.s:10371  .debug_str:00000000000090c5 .LASF845
     /tmp/ccJwlT8t.s:10621  .debug_str:0000000000009fee .LASF846
     /tmp/ccJwlT8t.s:10329  .debug_str:0000000000008e1e .LASF847
     /tmp/ccJwlT8t.s:8279   .debug_str:0000000000000f19 .LASF848
     /tmp/ccJwlT8t.s:10141  .debug_str:0000000000008287 .LASF849
     /tmp/ccJwlT8t.s:12013  .debug_str:000000000000f6a4 .LASF850
     /tmp/ccJwlT8t.s:12433  .debug_str:0000000000011159 .LASF851
     /tmp/ccJwlT8t.s:8597   .debug_str:0000000000002516 .LASF852
     /tmp/ccJwlT8t.s:8523   .debug_str:0000000000002037 .LASF853
     /tmp/ccJwlT8t.s:9065   .debug_str:00000000000040e6 .LASF854
     /tmp/ccJwlT8t.s:9833   .debug_str:0000000000006fd7 .LASF855
     /tmp/ccJwlT8t.s:9455   .debug_str:000000000000597f .LASF856
     /tmp/ccJwlT8t.s:11487  .debug_str:000000000000d580 .LASF857
     /tmp/ccJwlT8t.s:12211  .debug_str:0000000000010359 .LASF858
     /tmp/ccJwlT8t.s:9737   .debug_str:000000000000691e .LASF859
     /tmp/ccJwlT8t.s:9389   .debug_str:00000000000055c6 .LASF860
     /tmp/ccJwlT8t.s:8565   .debug_str:00000000000022ca .LASF861
     /tmp/ccJwlT8t.s:11531  .debug_str:000000000000d832 .LASF862
     /tmp/ccJwlT8t.s:10447  .debug_str:00000000000095eb .LASF863
     /tmp/ccJwlT8t.s:9595   .debug_str:00000000000061a6 .LASF864
     /tmp/ccJwlT8t.s:11251  .debug_str:000000000000c71e .LASF865
     /tmp/ccJwlT8t.s:12243  .debug_str:0000000000010568 .LASF866
     /tmp/ccJwlT8t.s:11753  .debug_str:000000000000e648 .LASF867
     /tmp/ccJwlT8t.s:11277  .debug_str:000000000000c892 .LASF868
     /tmp/ccJwlT8t.s:10123  .debug_str:000000000000814f .LASF869
     /tmp/ccJwlT8t.s:9835   .debug_str:0000000000006fee .LASF870
     /tmp/ccJwlT8t.s:11041  .debug_str:000000000000ba51 .LASF871
     /tmp/ccJwlT8t.s:8245   .debug_str:0000000000000cf8 .LASF872
     /tmp/ccJwlT8t.s:11617  .debug_str:000000000000ddb1 .LASF873
     /tmp/ccJwlT8t.s:9597   .debug_str:00000000000061be .LASF874
     /tmp/ccJwlT8t.s:8387   .debug_str:000000000000165d .LASF875
     /tmp/ccJwlT8t.s:8235   .debug_str:0000000000000c74 .LASF876
     /tmp/ccJwlT8t.s:10179  .debug_str:00000000000084cc .LASF877
     /tmp/ccJwlT8t.s:8215   .debug_str:0000000000000b7b .LASF878
     /tmp/ccJwlT8t.s:8303   .debug_str:000000000000106d .LASF879
     /tmp/ccJwlT8t.s:11857  .debug_str:000000000000ec0b .LASF880
     /tmp/ccJwlT8t.s:9173   .debug_str:0000000000004989 .LASF881
     /tmp/ccJwlT8t.s:11331  .debug_str:000000000000cbfc .LASF882
     /tmp/ccJwlT8t.s:12137  .debug_str:000000000000fea7 .LASF883
     /tmp/ccJwlT8t.s:8373   .debug_str:0000000000001523 .LASF884
     /tmp/ccJwlT8t.s:11823  .debug_str:000000000000e9f8 .LASF885
     /tmp/ccJwlT8t.s:11059  .debug_str:000000000000bb95 .LASF886
     /tmp/ccJwlT8t.s:10431  .debug_str:00000000000094c0 .LASF887
     /tmp/ccJwlT8t.s:10521  .debug_str:0000000000009a18 .LASF888
     /tmp/ccJwlT8t.s:9409   .debug_str:0000000000005705 .LASF889
     /tmp/ccJwlT8t.s:8663   .debug_str:00000000000028f2 .LASF890
     /tmp/ccJwlT8t.s:10157  .debug_str:0000000000008380 .LASF891
     /tmp/ccJwlT8t.s:9009   .debug_str:0000000000003dad .LASF892
     /tmp/ccJwlT8t.s:8669   .debug_str:0000000000002948 .LASF893
     /tmp/ccJwlT8t.s:10961  .debug_str:000000000000b422 .LASF894
     /tmp/ccJwlT8t.s:10031  .debug_str:0000000000007baf .LASF895
     /tmp/ccJwlT8t.s:12033  .debug_str:000000000000f7f5 .LASF896
     /tmp/ccJwlT8t.s:10581  .debug_str:0000000000009d84 .LASF897
     /tmp/ccJwlT8t.s:12019  .debug_str:000000000000f6eb .LASF898
     /tmp/ccJwlT8t.s:9839   .debug_str:000000000000702c .LASF899
     /tmp/ccJwlT8t.s:8471   .debug_str:0000000000001cc3 .LASF900
     /tmp/ccJwlT8t.s:9047   .debug_str:000000000000400f .LASF901
     /tmp/ccJwlT8t.s:8457   .debug_str:0000000000001bac .LASF902
     /tmp/ccJwlT8t.s:9219   .debug_str:0000000000004c47 .LASF903
     /tmp/ccJwlT8t.s:10187  .debug_str:0000000000008530 .LASF904
     /tmp/ccJwlT8t.s:8049   .debug_str:0000000000000164 .LASF905
     /tmp/ccJwlT8t.s:8247   .debug_str:0000000000000d0f .LASF906
     /tmp/ccJwlT8t.s:9163   .debug_str:00000000000048ac .LASF907
     /tmp/ccJwlT8t.s:11125  .debug_str:000000000000bfd2 .LASF908
     /tmp/ccJwlT8t.s:10775  .debug_str:000000000000a979 .LASF909
     /tmp/ccJwlT8t.s:9335   .debug_str:0000000000005328 .LASF910
     /tmp/ccJwlT8t.s:11249  .debug_str:000000000000c707 .LASF911
     /tmp/ccJwlT8t.s:10095  .debug_str:0000000000007fc1 .LASF912
     /tmp/ccJwlT8t.s:10081  .debug_str:0000000000007ed0 .LASF913
     /tmp/ccJwlT8t.s:12475  .debug_str:000000000001141d .LASF914
     /tmp/ccJwlT8t.s:8093   .debug_str:00000000000003cc .LASF915
     /tmp/ccJwlT8t.s:9983   .debug_str:0000000000007905 .LASF916
     /tmp/ccJwlT8t.s:12117  .debug_str:000000000000fd2a .LASF917
     /tmp/ccJwlT8t.s:9629   .debug_str:000000000000632f .LASF918
     /tmp/ccJwlT8t.s:10787  .debug_str:000000000000aa53 .LASF919
     /tmp/ccJwlT8t.s:8351   .debug_str:000000000000138f .LASF920
     /tmp/ccJwlT8t.s:9569   .debug_str:000000000000602b .LASF921
     /tmp/ccJwlT8t.s:12429  .debug_str:0000000000011122 .LASF922
     /tmp/ccJwlT8t.s:8997   .debug_str:0000000000003ce4 .LASF923
     /tmp/ccJwlT8t.s:10111  .debug_str:00000000000080bc .LASF924
     /tmp/ccJwlT8t.s:9707   .debug_str:000000000000671e .LASF925
     /tmp/ccJwlT8t.s:12099  .debug_str:000000000000fc40 .LASF926
     /tmp/ccJwlT8t.s:11401  .debug_str:000000000000d0e5 .LASF927
     /tmp/ccJwlT8t.s:10925  .debug_str:000000000000b21b .LASF928
     /tmp/ccJwlT8t.s:9885   .debug_str:00000000000072cb .LASF929
     /tmp/ccJwlT8t.s:9307   .debug_str:00000000000051ad .LASF930
     /tmp/ccJwlT8t.s:8271   .debug_str:0000000000000eb4 .LASF931
     /tmp/ccJwlT8t.s:9249   .debug_str:0000000000004dfb .LASF932
     /tmp/ccJwlT8t.s:10099  .debug_str:0000000000007feb .LASF933
     /tmp/ccJwlT8t.s:10885  .debug_str:000000000000aff7 .LASF934
     /tmp/ccJwlT8t.s:8037   .debug_str:00000000000000ab .LASF935
     /tmp/ccJwlT8t.s:12047  .debug_str:000000000000f8e0 .LASF936
     /tmp/ccJwlT8t.s:11697  .debug_str:000000000000e22b .LASF937
     /tmp/ccJwlT8t.s:10023  .debug_str:0000000000007b24 .LASF938
     /tmp/ccJwlT8t.s:11615  .debug_str:000000000000dd9b .LASF939
     /tmp/ccJwlT8t.s:9397   .debug_str:0000000000005650 .LASF940
     /tmp/ccJwlT8t.s:9715   .debug_str:00000000000067b0 .LASF941
     /tmp/ccJwlT8t.s:9425   .debug_str:00000000000057ba .LASF942
     /tmp/ccJwlT8t.s:8255   .debug_str:0000000000000d8c .LASF943
     /tmp/ccJwlT8t.s:9431   .debug_str:0000000000005819 .LASF944
     /tmp/ccJwlT8t.s:12383  .debug_str:0000000000010e04 .LASF945
     /tmp/ccJwlT8t.s:9603   .debug_str:000000000000620d .LASF946
     /tmp/ccJwlT8t.s:8571   .debug_str:0000000000002316 .LASF947
     /tmp/ccJwlT8t.s:9971   .debug_str:0000000000007826 .LASF948
     /tmp/ccJwlT8t.s:12331  .debug_str:0000000000010b02 .LASF949
     /tmp/ccJwlT8t.s:8223   .debug_str:0000000000000bce .LASF950
     /tmp/ccJwlT8t.s:12355  .debug_str:0000000000010c63 .LASF951
     /tmp/ccJwlT8t.s:10591  .debug_str:0000000000009df0 .LASF952
     /tmp/ccJwlT8t.s:8281   .debug_str:0000000000000f2d .LASF953
     /tmp/ccJwlT8t.s:9999   .debug_str:000000000000799d .LASF954
     /tmp/ccJwlT8t.s:11365  .debug_str:000000000000cebb .LASF955
     /tmp/ccJwlT8t.s:11241  .debug_str:000000000000c6ad .LASF956
     /tmp/ccJwlT8t.s:10987  .debug_str:000000000000b597 .LASF957
     /tmp/ccJwlT8t.s:10171  .debug_str:0000000000008470 .LASF958
     /tmp/ccJwlT8t.s:11655  .debug_str:000000000000dfcc .LASF959
     /tmp/ccJwlT8t.s:12409  .debug_str:0000000000010f74 .LASF960
     /tmp/ccJwlT8t.s:10949  .debug_str:000000000000b35f .LASF961
     /tmp/ccJwlT8t.s:9807   .debug_str:0000000000006e68 .LASF962
     /tmp/ccJwlT8t.s:10971  .debug_str:000000000000b4a9 .LASF963
     /tmp/ccJwlT8t.s:10197  .debug_str:00000000000085b9 .LASF964
     /tmp/ccJwlT8t.s:11705  .debug_str:000000000000e2db .LASF965
     /tmp/ccJwlT8t.s:10225  .debug_str:0000000000008767 .LASF966
     /tmp/ccJwlT8t.s:12265  .debug_str:00000000000106f2 .LASF967
     /tmp/ccJwlT8t.s:8171   .debug_str:00000000000008c2 .LASF968
     /tmp/ccJwlT8t.s:11865  .debug_str:000000000000ec72 .LASF969
     /tmp/ccJwlT8t.s:9453   .debug_str:0000000000005964 .LASF970
     /tmp/ccJwlT8t.s:10631  .debug_str:000000000000a065 .LASF971
     /tmp/ccJwlT8t.s:10695  .debug_str:000000000000a419 .LASF972
     /tmp/ccJwlT8t.s:11821  .debug_str:000000000000e9e0 .LASF973
     /tmp/ccJwlT8t.s:9003   .debug_str:0000000000003d29 .LASF974
     /tmp/ccJwlT8t.s:9937   .debug_str:00000000000075f0 .LASF975
     /tmp/ccJwlT8t.s:9085   .debug_str:0000000000004279 .LASF976
     /tmp/ccJwlT8t.s:9289   .debug_str:0000000000005049 .LASF977
     /tmp/ccJwlT8t.s:8733   .debug_str:0000000000002d7a .LASF978
     /tmp/ccJwlT8t.s:11971  .debug_str:000000000000f362 .LASF979
     /tmp/ccJwlT8t.s:12489  .debug_str:00000000000114e0 .LASF980
     /tmp/ccJwlT8t.s:10871  .debug_str:000000000000af3e .LASF981
     /tmp/ccJwlT8t.s:8679   .debug_str:00000000000029e9 .LASF982
     /tmp/ccJwlT8t.s:10153  .debug_str:0000000000008352 .LASF983
     /tmp/ccJwlT8t.s:11723  .debug_str:000000000000e425 .LASF984
     /tmp/ccJwlT8t.s:11811  .debug_str:000000000000e956 .LASF985
     /tmp/ccJwlT8t.s:10353  .debug_str:0000000000008f98 .LASF986
     /tmp/ccJwlT8t.s:8575   .debug_str:0000000000002367 .LASF987
     /tmp/ccJwlT8t.s:10027  .debug_str:0000000000007b54 .LASF988
     /tmp/ccJwlT8t.s:11289  .debug_str:000000000000c926 .LASF989
     /tmp/ccJwlT8t.s:9227   .debug_str:0000000000004cc4 .LASF990
     /tmp/ccJwlT8t.s:10217  .debug_str:00000000000086ee .LASF991
     /tmp/ccJwlT8t.s:12311  .debug_str:00000000000109e6 .LASF992
     /tmp/ccJwlT8t.s:8517   .debug_str:0000000000001fda .LASF993
     /tmp/ccJwlT8t.s:10477  .debug_str:000000000000978b .LASF994
     /tmp/ccJwlT8t.s:8885   .debug_str:00000000000035ef .LASF995
     /tmp/ccJwlT8t.s:9645   .debug_str:000000000000641a .LASF996
     /tmp/ccJwlT8t.s:11085  .debug_str:000000000000bd28 .LASF997
     /tmp/ccJwlT8t.s:11437  .debug_str:000000000000d306 .LASF998
     /tmp/ccJwlT8t.s:11475  .debug_str:000000000000d4db .LASF999
     /tmp/ccJwlT8t.s:8533   .debug_str:00000000000020aa .LASF1000
     /tmp/ccJwlT8t.s:12529  .debug_str:0000000000011764 .LASF1001
     /tmp/ccJwlT8t.s:12087  .debug_str:000000000000fb9f .LASF1002
     /tmp/ccJwlT8t.s:9637   .debug_str:00000000000063bd .LASF1003
     /tmp/ccJwlT8t.s:10863  .debug_str:000000000000aedc .LASF1004
     /tmp/ccJwlT8t.s:8873   .debug_str:0000000000003528 .LASF1005
     /tmp/ccJwlT8t.s:11491  .debug_str:000000000000d5ac .LASF1006
     /tmp/ccJwlT8t.s:11569  .debug_str:000000000000dac4 .LASF1007
     /tmp/ccJwlT8t.s:12315  .debug_str:0000000000010a14 .LASF1008
     /tmp/ccJwlT8t.s:10305  .debug_str:0000000000008ce5 .LASF1009
     /tmp/ccJwlT8t.s:8785   .debug_str:0000000000002fe4 .LASF1010
     /tmp/ccJwlT8t.s:9035   .debug_str:0000000000003f19 .LASF1011
     /tmp/ccJwlT8t.s:11717  .debug_str:000000000000e3e6 .LASF1012
     /tmp/ccJwlT8t.s:11667  .debug_str:000000000000e088 .LASF1013
     /tmp/ccJwlT8t.s:8045   .debug_str:0000000000000126 .LASF1014
     /tmp/ccJwlT8t.s:11141  .debug_str:000000000000c09c .LASF1015
     /tmp/ccJwlT8t.s:9665   .debug_str:0000000000006514 .LASF1016
     /tmp/ccJwlT8t.s:9117   .debug_str:000000000000455a .LASF1017
     /tmp/ccJwlT8t.s:9941   .debug_str:0000000000007614 .LASF1018
     /tmp/ccJwlT8t.s:9361   .debug_str:000000000000547b .LASF1019
     /tmp/ccJwlT8t.s:11529  .debug_str:000000000000d81f .LASF1020
     /tmp/ccJwlT8t.s:8585   .debug_str:000000000000241c .LASF1021
     /tmp/ccJwlT8t.s:10065  .debug_str:0000000000007df4 .LASF1022
     /tmp/ccJwlT8t.s:12067  .debug_str:000000000000fa1e .LASF1023
     /tmp/ccJwlT8t.s:8341   .debug_str:00000000000012f0 .LASF1024
     /tmp/ccJwlT8t.s:9115   .debug_str:0000000000004542 .LASF1025
     /tmp/ccJwlT8t.s:9405   .debug_str:00000000000056dc .LASF1026
     /tmp/ccJwlT8t.s:8617   .debug_str:000000000000260b .LASF1027
     /tmp/ccJwlT8t.s:8635   .debug_str:0000000000002733 .LASF1028
     /tmp/ccJwlT8t.s:9451   .debug_str:000000000000594d .LASF1029
     /tmp/ccJwlT8t.s:11069  .debug_str:000000000000bc18 .LASF1030
     /tmp/ccJwlT8t.s:11137  .debug_str:000000000000c06f .LASF1031
     /tmp/ccJwlT8t.s:9559   .debug_str:0000000000005f6d .LASF1032
     /tmp/ccJwlT8t.s:11915  .debug_str:000000000000efb5 .LASF1033
     /tmp/ccJwlT8t.s:10943  .debug_str:000000000000b30c .LASF1034
     /tmp/ccJwlT8t.s:9821   .debug_str:0000000000006f41 .LASF1035
     /tmp/ccJwlT8t.s:10243  .debug_str:00000000000088b2 .LASF1036
     /tmp/ccJwlT8t.s:11627  .debug_str:000000000000de2a .LASF1037
     /tmp/ccJwlT8t.s:10369  .debug_str:00000000000090ac .LASF1038
     /tmp/ccJwlT8t.s:8877   .debug_str:0000000000003557 .LASF1039
     /tmp/ccJwlT8t.s:11077  .debug_str:000000000000bc9b .LASF1040
     /tmp/ccJwlT8t.s:9657   .debug_str:00000000000064bf .LASF1041
     /tmp/ccJwlT8t.s:9331   .debug_str:00000000000052ff .LASF1042
     /tmp/ccJwlT8t.s:12229  .debug_str:0000000000010462 .LASF1043
     /tmp/ccJwlT8t.s:9863   .debug_str:000000000000718e .LASF1044
     /tmp/ccJwlT8t.s:10711  .debug_str:000000000000a4d6 .LASF1045
     /tmp/ccJwlT8t.s:11399  .debug_str:000000000000d0d3 .LASF1046
     /tmp/ccJwlT8t.s:9479   .debug_str:0000000000005aa7 .LASF1047
     /tmp/ccJwlT8t.s:10449  .debug_str:0000000000009604 .LASF1048
     /tmp/ccJwlT8t.s:8825   .debug_str:000000000000326e .LASF1049
     /tmp/ccJwlT8t.s:9459   .debug_str:00000000000059c1 .LASF1050
     /tmp/ccJwlT8t.s:9229   .debug_str:0000000000004cde .LASF1051
     /tmp/ccJwlT8t.s:10769  .debug_str:000000000000a921 .LASF1052
     /tmp/ccJwlT8t.s:9605   .debug_str:0000000000006228 .LASF1053
     /tmp/ccJwlT8t.s:9357   .debug_str:000000000000544a .LASF1054
     /tmp/ccJwlT8t.s:9687   .debug_str:0000000000006625 .LASF1055
     /tmp/ccJwlT8t.s:11049  .debug_str:000000000000bad0 .LASF1056
     /tmp/ccJwlT8t.s:9763   .debug_str:0000000000006b32 .LASF1057
     /tmp/ccJwlT8t.s:10237  .debug_str:0000000000008874 .LASF1058
     /tmp/ccJwlT8t.s:12359  .debug_str:0000000000010c8c .LASF1059
     /tmp/ccJwlT8t.s:10531  .debug_str:0000000000009aa6 .LASF1060
     /tmp/ccJwlT8t.s:8135   .debug_str:00000000000006d3 .LASF1061
     /tmp/ccJwlT8t.s:10607  .debug_str:0000000000009ede .LASF1062
     /tmp/ccJwlT8t.s:9351   .debug_str:00000000000053fe .LASF1063
     /tmp/ccJwlT8t.s:8201   .debug_str:0000000000000a87 .LASF1064
     /tmp/ccJwlT8t.s:10945  .debug_str:000000000000b324 .LASF1065
     /tmp/ccJwlT8t.s:9773   .debug_str:0000000000006bd8 .LASF1066
     /tmp/ccJwlT8t.s:10939  .debug_str:000000000000b2dc .LASF1067
     /tmp/ccJwlT8t.s:9279   .debug_str:0000000000004fc9 .LASF1068
     /tmp/ccJwlT8t.s:8725   .debug_str:0000000000002d0d .LASF1069
     /tmp/ccJwlT8t.s:11305  .debug_str:000000000000ca68 .LASF1070
     /tmp/ccJwlT8t.s:8923   .debug_str:00000000000037f7 .LASF1071
     /tmp/ccJwlT8t.s:11301  .debug_str:000000000000ca18 .LASF1072
     /tmp/ccJwlT8t.s:11017  .debug_str:000000000000b82c .LASF1073
     /tmp/ccJwlT8t.s:12343  .debug_str:0000000000010b9d .LASF1074
     /tmp/ccJwlT8t.s:10327  .debug_str:0000000000008e0c .LASF1075
     /tmp/ccJwlT8t.s:10619  .debug_str:0000000000009fdd .LASF1076
     /tmp/ccJwlT8t.s:8753   .debug_str:0000000000002e71 .LASF1077
     /tmp/ccJwlT8t.s:11113  .debug_str:000000000000bec7 .LASF1078
     /tmp/ccJwlT8t.s:10267  .debug_str:0000000000008a2d .LASF1079
     /tmp/ccJwlT8t.s:8899   .debug_str:00000000000036ba .LASF1080
     /tmp/ccJwlT8t.s:9377   .debug_str:0000000000005545 .LASF1081
     /tmp/ccJwlT8t.s:8625   .debug_str:000000000000269d .LASF1082
     /tmp/ccJwlT8t.s:9845   .debug_str:0000000000007073 .LASF1083
     /tmp/ccJwlT8t.s:9465   .debug_str:00000000000059ff .LASF1084
     /tmp/ccJwlT8t.s:9555   .debug_str:0000000000005f37 .LASF1085
     /tmp/ccJwlT8t.s:11047  .debug_str:000000000000babc .LASF1086
     /tmp/ccJwlT8t.s:12121  .debug_str:000000000000fd5b .LASF1087
     /tmp/ccJwlT8t.s:11493  .debug_str:000000000000d5bd .LASF1088
     /tmp/ccJwlT8t.s:10149  .debug_str:00000000000082fd .LASF1089
     /tmp/ccJwlT8t.s:9483   .debug_str:0000000000005b04 .LASF1090
     /tmp/ccJwlT8t.s:10649  .debug_str:000000000000a1a0 .LASF1091
     /tmp/ccJwlT8t.s:10203  .debug_str:00000000000085f4 .LASF1092
     /tmp/ccJwlT8t.s:9187   .debug_str:0000000000004a3f .LASF1093
     /tmp/ccJwlT8t.s:11467  .debug_str:000000000000d49e .LASF1094
     /tmp/ccJwlT8t.s:11639  .debug_str:000000000000ded6 .LASF1095
     /tmp/ccJwlT8t.s:12501  .debug_str:00000000000115bc .LASF1096
     /tmp/ccJwlT8t.s:11591  .debug_str:000000000000dc26 .LASF1097
     /tmp/ccJwlT8t.s:12511  .debug_str:000000000001163e .LASF1098
     /tmp/ccJwlT8t.s:8853   .debug_str:00000000000033fd .LASF1099
     /tmp/ccJwlT8t.s:9275   .debug_str:0000000000004f8a .LASF1100
     /tmp/ccJwlT8t.s:10003  .debug_str:00000000000079d2 .LASF1101
     /tmp/ccJwlT8t.s:9033   .debug_str:0000000000003f08 .LASF1102
     /tmp/ccJwlT8t.s:10887  .debug_str:000000000000b00e .LASF1103
     /tmp/ccJwlT8t.s:12065  .debug_str:000000000000fa0a .LASF1104
     /tmp/ccJwlT8t.s:8343   .debug_str:0000000000001304 .LASF1105
     /tmp/ccJwlT8t.s:11795  .debug_str:000000000000e876 .LASF1106
     /tmp/ccJwlT8t.s:9045   .debug_str:0000000000003ffc .LASF1107
     /tmp/ccJwlT8t.s:11377  .debug_str:000000000000cf56 .LASF1108
     /tmp/ccJwlT8t.s:9491   .debug_str:0000000000005b87 .LASF1109
     /tmp/ccJwlT8t.s:11779  .debug_str:000000000000e773 .LASF1110
     /tmp/ccJwlT8t.s:8439   .debug_str:0000000000001a57 .LASF1111
     /tmp/ccJwlT8t.s:10323  .debug_str:0000000000008db6 .LASF1112
     /tmp/ccJwlT8t.s:10389  .debug_str:000000000000921b .LASF1113
     /tmp/ccJwlT8t.s:11901  .debug_str:000000000000eeab .LASF1114
     /tmp/ccJwlT8t.s:10909  .debug_str:000000000000b14d .LASF1115
     /tmp/ccJwlT8t.s:11849  .debug_str:000000000000eb71 .LASF1116
     /tmp/ccJwlT8t.s:9327   .debug_str:00000000000052dc .LASF1117
     /tmp/ccJwlT8t.s:10341  .debug_str:0000000000008ef5 .LASF1118
     /tmp/ccJwlT8t.s:10089  .debug_str:0000000000007f40 .LASF1119
     /tmp/ccJwlT8t.s:8101   .debug_str:0000000000000483 .LASF1120
     /tmp/ccJwlT8t.s:8273   .debug_str:0000000000000eca .LASF1121
     /tmp/ccJwlT8t.s:8615   .debug_str:00000000000025f7 .LASF1122
     /tmp/ccJwlT8t.s:10239  .debug_str:0000000000008888 .LASF1123
     /tmp/ccJwlT8t.s:11619  .debug_str:000000000000ddc8 .LASF1124
     /tmp/ccJwlT8t.s:10767  .debug_str:000000000000a90d .LASF1125
     /tmp/ccJwlT8t.s:9685   .debug_str:0000000000006613 .LASF1126
     /tmp/ccJwlT8t.s:8329   .debug_str:0000000000001219 .LASF1127
     /tmp/ccJwlT8t.s:9259   .debug_str:0000000000004ea7 .LASF1128
     /tmp/ccJwlT8t.s:10005  .debug_str:00000000000079e5 .LASF1129
     /tmp/ccJwlT8t.s:12463  .debug_str:0000000000011336 .LASF1130
     /tmp/ccJwlT8t.s:12187  .debug_str:00000000000101f8 .LASF1131
     /tmp/ccJwlT8t.s:8229   .debug_str:0000000000000c35 .LASF1132
     /tmp/ccJwlT8t.s:8291   .debug_str:0000000000000fd8 .LASF1133
     /tmp/ccJwlT8t.s:8469   .debug_str:0000000000001ca7 .LASF1134
     /tmp/ccJwlT8t.s:8089   .debug_str:0000000000000399 .LASF1135
     /tmp/ccJwlT8t.s:12415  .debug_str:000000000001100a .LASF1136
     /tmp/ccJwlT8t.s:9925   .debug_str:000000000000753a .LASF1137
     /tmp/ccJwlT8t.s:11867  .debug_str:000000000000ec8b .LASF1138
     /tmp/ccJwlT8t.s:8435   .debug_str:0000000000001a14 .LASF1139
     /tmp/ccJwlT8t.s:8367   .debug_str:00000000000014bd .LASF1140
     /tmp/ccJwlT8t.s:8941   .debug_str:0000000000003915 .LASF1141
     /tmp/ccJwlT8t.s:11481  .debug_str:000000000000d534 .LASF1142
     /tmp/ccJwlT8t.s:11073  .debug_str:000000000000bc68 .LASF1143
     /tmp/ccJwlT8t.s:10999  .debug_str:000000000000b69e .LASF1144
     /tmp/ccJwlT8t.s:10147  .debug_str:00000000000082e6 .LASF1145
     /tmp/ccJwlT8t.s:10967  .debug_str:000000000000b465 .LASF1146
     /tmp/ccJwlT8t.s:9353   .debug_str:0000000000005415 .LASF1147
     /tmp/ccJwlT8t.s:8309   .debug_str:00000000000010f6 .LASF1148
     /tmp/ccJwlT8t.s:10205  .debug_str:0000000000008607 .LASF1149
     /tmp/ccJwlT8t.s:9521   .debug_str:0000000000005d87 .LASF1150
     /tmp/ccJwlT8t.s:8537   .debug_str:00000000000020db .LASF1151
     /tmp/ccJwlT8t.s:12089  .debug_str:000000000000fbba .LASF1152
     /tmp/ccJwlT8t.s:12419  .debug_str:0000000000011083 .LASF1153
     /tmp/ccJwlT8t.s:8057   .debug_str:00000000000001c0 .LASF1154
     /tmp/ccJwlT8t.s:11921  .debug_str:000000000000effc .LASF1155
     /tmp/ccJwlT8t.s:10093  .debug_str:0000000000007fa9 .LASF1156
     /tmp/ccJwlT8t.s:12073  .debug_str:000000000000fa64 .LASF1157
     /tmp/ccJwlT8t.s:10485  .debug_str:000000000000980d .LASF1158
     /tmp/ccJwlT8t.s:8595   .debug_str:00000000000024fb .LASF1159
     /tmp/ccJwlT8t.s:12431  .debug_str:0000000000011139 .LASF1160
     /tmp/ccJwlT8t.s:10461  .debug_str:000000000000969a .LASF1161
     /tmp/ccJwlT8t.s:10073  .debug_str:0000000000007e75 .LASF1162
     /tmp/ccJwlT8t.s:8645   .debug_str:0000000000002793 .LASF1163
     /tmp/ccJwlT8t.s:11203  .debug_str:000000000000c484 .LASF1164
     /tmp/ccJwlT8t.s:8567   .debug_str:00000000000022e3 .LASF1165
     /tmp/ccJwlT8t.s:11577  .debug_str:000000000000db43 .LASF1166
     /tmp/ccJwlT8t.s:10827  .debug_str:000000000000aca1 .LASF1167
     /tmp/ccJwlT8t.s:10859  .debug_str:000000000000aead .LASF1168
     /tmp/ccJwlT8t.s:9311   .debug_str:00000000000051dc .LASF1169
     /tmp/ccJwlT8t.s:9897   .debug_str:0000000000007341 .LASF1170
     /tmp/ccJwlT8t.s:12341  .debug_str:0000000000010b82 .LASF1171
     /tmp/ccJwlT8t.s:9233   .debug_str:0000000000004d12 .LASF1172
     /tmp/ccJwlT8t.s:11309  .debug_str:000000000000ca91 .LASF1173
     /tmp/ccJwlT8t.s:11881  .debug_str:000000000000ed3e .LASF1174
     /tmp/ccJwlT8t.s:11371  .debug_str:000000000000cf29 .LASF1175
     /tmp/ccJwlT8t.s:10411  .debug_str:0000000000009363 .LASF1176
     /tmp/ccJwlT8t.s:8971   .debug_str:0000000000003b01 .LASF1177
     /tmp/ccJwlT8t.s:12487  .debug_str:00000000000114d1 .LASF1178
     /tmp/ccJwlT8t.s:11833  .debug_str:000000000000eaa2 .LASF1179
     /tmp/ccJwlT8t.s:9955   .debug_str:00000000000076ee .LASF1180
     /tmp/ccJwlT8t.s:8319   .debug_str:0000000000001186 .LASF1181
     /tmp/ccJwlT8t.s:9305   .debug_str:0000000000005197 .LASF1182
     /tmp/ccJwlT8t.s:10309  .debug_str:0000000000008d13 .LASF1183
     /tmp/ccJwlT8t.s:11191  .debug_str:000000000000c3bf .LASF1184
     /tmp/ccJwlT8t.s:12159  .debug_str:000000000001000e .LASF1185
     /tmp/ccJwlT8t.s:8627   .debug_str:00000000000026b0 .LASF1186
     /tmp/ccJwlT8t.s:12141  .debug_str:000000000000fed6 .LASF1187
     /tmp/ccJwlT8t.s:8611   .debug_str:00000000000025c8 .LASF1188
     /tmp/ccJwlT8t.s:9591   .debug_str:000000000000617b .LASF1189
     /tmp/ccJwlT8t.s:10565  .debug_str:0000000000009cad .LASF1190
     /tmp/ccJwlT8t.s:10075  .debug_str:0000000000007e88 .LASF1191
     /tmp/ccJwlT8t.s:12445  .debug_str:0000000000011226 .LASF1192
     /tmp/ccJwlT8t.s:8937   .debug_str:00000000000038b0 .LASF1193
     /tmp/ccJwlT8t.s:9927   .debug_str:0000000000007559 .LASF1194
     /tmp/ccJwlT8t.s:10851  .debug_str:000000000000ae36 .LASF1195
     /tmp/ccJwlT8t.s:9321   .debug_str:00000000000052a0 .LASF1196
     /tmp/ccJwlT8t.s:12271  .debug_str:000000000001073f .LASF1197
     /tmp/ccJwlT8t.s:8749   .debug_str:0000000000002e42 .LASF1198
     /tmp/ccJwlT8t.s:9721   .debug_str:0000000000006854 .LASF1199
     /tmp/ccJwlT8t.s:10687  .debug_str:000000000000a3b6 .LASF1200
     /tmp/ccJwlT8t.s:11597  .debug_str:000000000000dc7c .LASF1201
     /tmp/ccJwlT8t.s:8061   .debug_str:00000000000001f3 .LASF1202
     /tmp/ccJwlT8t.s:8739   .debug_str:0000000000002db4 .LASF1203
     /tmp/ccJwlT8t.s:10107  .debug_str:000000000000808e .LASF1204
     /tmp/ccJwlT8t.s:10993  .debug_str:000000000000b61a .LASF1205
     /tmp/ccJwlT8t.s:11955  .debug_str:000000000000f282 .LASF1206
     /tmp/ccJwlT8t.s:8863   .debug_str:000000000000349d .LASF1207
     /tmp/ccJwlT8t.s:8905   .debug_str:00000000000036f3 .LASF1208
     /tmp/ccJwlT8t.s:10579  .debug_str:0000000000009d72 .LASF1209
     /tmp/ccJwlT8t.s:12207  .debug_str:0000000000010340 .LASF1210
     /tmp/ccJwlT8t.s:10097  .debug_str:0000000000007fdb .LASF1211
     /tmp/ccJwlT8t.s:9415   .debug_str:0000000000005765 .LASF1212
     /tmp/ccJwlT8t.s:11787  .debug_str:000000000000e7eb .LASF1213
     /tmp/ccJwlT8t.s:8259   .debug_str:0000000000000dfc .LASF1214
     /tmp/ccJwlT8t.s:9991   .debug_str:0000000000007953 .LASF1215
     /tmp/ccJwlT8t.s:12007  .debug_str:000000000000f640 .LASF1216
     /tmp/ccJwlT8t.s:9151   .debug_str:00000000000047fe .LASF1217
     /tmp/ccJwlT8t.s:8759   .debug_str:0000000000002ea1 .LASF1218
     /tmp/ccJwlT8t.s:8723   .debug_str:0000000000002cfb .LASF1219
     /tmp/ccJwlT8t.s:8907   .debug_str:000000000000370a .LASF1220
     /tmp/ccJwlT8t.s:11765  .debug_str:000000000000e6bc .LASF1221
     /tmp/ccJwlT8t.s:10331  .debug_str:0000000000008e31 .LASF1222
     /tmp/ccJwlT8t.s:10663  .debug_str:000000000000a260 .LASF1223
     /tmp/ccJwlT8t.s:12191  .debug_str:0000000000010222 .LASF1224
     /tmp/ccJwlT8t.s:11477  .debug_str:000000000000d4f5 .LASF1225
     /tmp/ccJwlT8t.s:11087  .debug_str:000000000000bd41 .LASF1226
     /tmp/ccJwlT8t.s:9525   .debug_str:0000000000005dc1 .LASF1227
     /tmp/ccJwlT8t.s:12413  .debug_str:0000000000010ff9 .LASF1228
     /tmp/ccJwlT8t.s:11279  .debug_str:000000000000c8ab .LASF1229
     /tmp/ccJwlT8t.s:9995   .debug_str:0000000000007980 .LASF1230
     /tmp/ccJwlT8t.s:8677   .debug_str:00000000000029d7 .LASF1231
     /tmp/ccJwlT8t.s:9655   .debug_str:00000000000064ad .LASF1232
     /tmp/ccJwlT8t.s:10623  .debug_str:000000000000a002 .LASF1233
     /tmp/ccJwlT8t.s:11525  .debug_str:000000000000d7d2 .LASF1234
     /tmp/ccJwlT8t.s:10393  .debug_str:0000000000009254 .LASF1235
     /tmp/ccJwlT8t.s:11271  .debug_str:000000000000c852 .LASF1236
     /tmp/ccJwlT8t.s:12249  .debug_str:00000000000105df .LASF1237
     /tmp/ccJwlT8t.s:10507  .debug_str:000000000000994b .LASF1238
     /tmp/ccJwlT8t.s:9695   .debug_str:0000000000006680 .LASF1239
     /tmp/ccJwlT8t.s:10669  .debug_str:000000000000a2a1 .LASF1240
     /tmp/ccJwlT8t.s:11563  .debug_str:000000000000da4c .LASF1241
     /tmp/ccJwlT8t.s:8041   .debug_str:0000000000000103 .LASF1242
     /tmp/ccJwlT8t.s:9025   .debug_str:0000000000003eac .LASF1243
     /tmp/ccJwlT8t.s:10033  .debug_str:0000000000007bc6 .LASF1244
     /tmp/ccJwlT8t.s:9099   .debug_str:00000000000043a2 .LASF1245
     /tmp/ccJwlT8t.s:11337  .debug_str:000000000000cc72 .LASF1246
     /tmp/ccJwlT8t.s:12309  .debug_str:00000000000109d2 .LASF1247
     /tmp/ccJwlT8t.s:8783   .debug_str:0000000000002fd0 .LASF1248
     /tmp/ccJwlT8t.s:9769   .debug_str:0000000000006bab .LASF1249
     /tmp/ccJwlT8t.s:10719  .debug_str:000000000000a55d .LASF1250
     /tmp/ccJwlT8t.s:11583  .debug_str:000000000000db94 .LASF1251
     /tmp/ccJwlT8t.s:10519  .debug_str:0000000000009a07 .LASF1252
     /tmp/ccJwlT8t.s:11423  .debug_str:000000000000d25e .LASF1253
     /tmp/ccJwlT8t.s:12405  .debug_str:0000000000010f4e .LASF1254
     /tmp/ccJwlT8t.s:9193   .debug_str:0000000000004ab5 .LASF1255
     /tmp/ccJwlT8t.s:12189  .debug_str:0000000000010214 .LASF1256
     /tmp/ccJwlT8t.s:8083   .debug_str:000000000000034c .LASF1257
     /tmp/ccJwlT8t.s:9209   .debug_str:0000000000004ba6 .LASF1258
     /tmp/ccJwlT8t.s:10921  .debug_str:000000000000b1fc .LASF1259
     /tmp/ccJwlT8t.s:10705  .debug_str:000000000000a496 .LASF1260
     /tmp/ccJwlT8t.s:11613  .debug_str:000000000000dd84 .LASF1261
     /tmp/ccJwlT8t.s:8073   .debug_str:00000000000002a2 .LASF1262
     /tmp/ccJwlT8t.s:9063   .debug_str:00000000000040cf .LASF1263
     /tmp/ccJwlT8t.s:10077  .debug_str:0000000000007e9f .LASF1264
     /tmp/ccJwlT8t.s:10013  .debug_str:0000000000007a74 .LASF1265
     /tmp/ccJwlT8t.s:11919  .debug_str:000000000000efe5 .LASF1266
     /tmp/ccJwlT8t.s:10839  .debug_str:000000000000ad63 .LASF1267
     /tmp/ccJwlT8t.s:11763  .debug_str:000000000000e6a4 .LASF1268
     /tmp/ccJwlT8t.s:8225   .debug_str:0000000000000be8 .LASF1269
     /tmp/ccJwlT8t.s:8735   .debug_str:0000000000002d95 .LASF1270
     /tmp/ccJwlT8t.s:11469  .debug_str:000000000000d4b0 .LASF1271
     /tmp/ccJwlT8t.s:11105  .debug_str:000000000000be23 .LASF1272
     /tmp/ccJwlT8t.s:8293   .debug_str:0000000000000fef .LASF1273
     /tmp/ccJwlT8t.s:8555   .debug_str:0000000000002205 .LASF1274
     /tmp/ccJwlT8t.s:9535   .debug_str:0000000000005e23 .LASF1275
     /tmp/ccJwlT8t.s:10515  .debug_str:00000000000099ad .LASF1276
     /tmp/ccJwlT8t.s:10951  .debug_str:000000000000b377 .LASF1277
     /tmp/ccJwlT8t.s:11899  .debug_str:000000000000ee93 .LASF1278
     /tmp/ccJwlT8t.s:10275  .debug_str:0000000000008acf .LASF1279
     /tmp/ccJwlT8t.s:9347   .debug_str:00000000000053d4 .LASF1280
     /tmp/ccJwlT8t.s:10351  .debug_str:0000000000008f80 .LASF1281
     /tmp/ccJwlT8t.s:11233  .debug_str:000000000000c640 .LASF1282
     /tmp/ccJwlT8t.s:12247  .debug_str:00000000000105c7 .LASF1283
     /tmp/ccJwlT8t.s:8727   .debug_str:0000000000002d1f .LASF1284
     /tmp/ccJwlT8t.s:9693   .debug_str:0000000000006668 .LASF1285
     /tmp/ccJwlT8t.s:10667  .debug_str:000000000000a289 .LASF1286
     /tmp/ccJwlT8t.s:11907  .debug_str:000000000000ef28 .LASF1287
     /tmp/ccJwlT8t.s:12069  .debug_str:000000000000fa36 .LASF1288
     /tmp/ccJwlT8t.s:12041  .debug_str:000000000000f899 .LASF1289
     /tmp/ccJwlT8t.s:8495   .debug_str:0000000000001e6b .LASF1290
     /tmp/ccJwlT8t.s:11405  .debug_str:000000000000d130 .LASF1291
     /tmp/ccJwlT8t.s:12389  .debug_str:0000000000010e75 .LASF1292
     /tmp/ccJwlT8t.s:8857   .debug_str:000000000000342d .LASF1293
     /tmp/ccJwlT8t.s:8697   .debug_str:0000000000002b48 .LASF1294
     /tmp/ccJwlT8t.s:10779  .debug_str:000000000000a9c1 .LASF1295
     /tmp/ccJwlT8t.s:10169  .debug_str:000000000000845a .LASF1296
     /tmp/ccJwlT8t.s:11055  .debug_str:000000000000bb60 .LASF1297
     /tmp/ccJwlT8t.s:12025  .debug_str:000000000000f760 .LASF1298
     /tmp/ccJwlT8t.s:8475   .debug_str:0000000000001d24 .LASF1299
     /tmp/ccJwlT8t.s:11157  .debug_str:000000000000c196 .LASF1300
     /tmp/ccJwlT8t.s:10451  .debug_str:0000000000009618 .LASF1301
     /tmp/ccJwlT8t.s:11363  .debug_str:000000000000cea5 .LASF1302
     /tmp/ccJwlT8t.s:9207   .debug_str:0000000000004b90 .LASF1303
     /tmp/ccJwlT8t.s:8801   .debug_str:00000000000030ec .LASF1304
     /tmp/ccJwlT8t.s:11709  .debug_str:000000000000e31e .LASF1305
     /tmp/ccJwlT8t.s:10289  .debug_str:0000000000008bc4 .LASF1306
     /tmp/ccJwlT8t.s:11167  .debug_str:000000000000c268 .LASF1307
     /tmp/ccJwlT8t.s:12139  .debug_str:000000000000fec0 .LASF1308
     /tmp/ccJwlT8t.s:8607   .debug_str:0000000000002590 .LASF1309
     /tmp/ccJwlT8t.s:9583   .debug_str:000000000000610f .LASF1310
     /tmp/ccJwlT8t.s:10559  .debug_str:0000000000009c75 .LASF1311
     /tmp/ccJwlT8t.s:11507  .debug_str:000000000000d674 .LASF1312
     /tmp/ccJwlT8t.s:10017  .debug_str:0000000000007ab3 .LASF1313
     /tmp/ccJwlT8t.s:11441  .debug_str:000000000000d33c .LASF1314
     /tmp/ccJwlT8t.s:11297  .debug_str:000000000000c9cb .LASF1315
     /tmp/ccJwlT8t.s:10435  .debug_str:00000000000094f4 .LASF1316
     /tmp/ccJwlT8t.s:11327  .debug_str:000000000000cbcd .LASF1317
     /tmp/ccJwlT8t.s:9781   .debug_str:0000000000006c5d .LASF1318
     /tmp/ccJwlT8t.s:8643   .debug_str:0000000000002781 .LASF1319
     /tmp/ccJwlT8t.s:11771  .debug_str:000000000000e6f7 .LASF1320
     /tmp/ccJwlT8t.s:10475  .debug_str:0000000000009779 .LASF1321
     /tmp/ccJwlT8t.s:9735   .debug_str:000000000000690d .LASF1322
     /tmp/ccJwlT8t.s:10131  .debug_str:00000000000081c9 .LASF1323
     /tmp/ccJwlT8t.s:10877  .debug_str:000000000000af88 .LASF1324
     /tmp/ccJwlT8t.s:8323   .debug_str:00000000000011b7 .LASF1325
     /tmp/ccJwlT8t.s:10891  .debug_str:000000000000b036 .LASF1326
     /tmp/ccJwlT8t.s:11315  .debug_str:000000000000cb0d .LASF1327
     /tmp/ccJwlT8t.s:9001   .debug_str:0000000000003d12 .LASF1328
     /tmp/ccJwlT8t.s:8755   .debug_str:0000000000002e84 .LASF1329
     /tmp/ccJwlT8t.s:11565  .debug_str:000000000000da5f .LASF1330
     /tmp/ccJwlT8t.s:8957   .debug_str:0000000000003a19 .LASF1331
     /tmp/ccJwlT8t.s:9205   .debug_str:0000000000004b78 .LASF1332
     /tmp/ccJwlT8t.s:11243  .debug_str:000000000000c6c7 .LASF1333
     /tmp/ccJwlT8t.s:11353  .debug_str:000000000000cd83 .LASF1334
     /tmp/ccJwlT8t.s:11159  .debug_str:000000000000c1ac .LASF1335
     /tmp/ccJwlT8t.s:12479  .debug_str:000000000001144d .LASF1336
     /tmp/ccJwlT8t.s:11651  .debug_str:000000000000df8f .LASF1337
     /tmp/ccJwlT8t.s:9467   .debug_str:0000000000005a13 .LASF1338
     /tmp/ccJwlT8t.s:11879  .debug_str:000000000000ed26 .LASF1339
     /tmp/ccJwlT8t.s:11995  .debug_str:000000000000f52e .LASF1340
     /tmp/ccJwlT8t.s:9477   .debug_str:0000000000005a8f .LASF1341
     /tmp/ccJwlT8t.s:9243   .debug_str:0000000000004db6 .LASF1342
     /tmp/ccJwlT8t.s:10277  .debug_str:0000000000008ae7 .LASF1343
     /tmp/ccJwlT8t.s:11631  .debug_str:000000000000de4f .LASF1344
     /tmp/ccJwlT8t.s:11483  .debug_str:000000000000d551 .LASF1345
     /tmp/ccJwlT8t.s:11579  .debug_str:000000000000db60 .LASF1346
     /tmp/ccJwlT8t.s:11689  .debug_str:000000000000e1c9 .LASF1347
     /tmp/ccJwlT8t.s:11839  .debug_str:000000000000eaf8 .LASF1348
     /tmp/ccJwlT8t.s:11949  .debug_str:000000000000f1b5 .LASF1349
     /tmp/ccJwlT8t.s:12061  .debug_str:000000000000f9d8 .LASF1350
     /tmp/ccJwlT8t.s:9651   .debug_str:000000000000646b .LASF1351
     /tmp/ccJwlT8t.s:9309   .debug_str:00000000000051c4 .LASF1352
     /tmp/ccJwlT8t.s:11917  .debug_str:000000000000efcd .LASF1353
     /tmp/ccJwlT8t.s:8173   .debug_str:00000000000008dc .LASF1354
     /tmp/ccJwlT8t.s:11095  .debug_str:000000000000bdaa .LASF1355
     /tmp/ccJwlT8t.s:9561   .debug_str:0000000000005f86 .LASF1356
     /tmp/ccJwlT8t.s:11589  .debug_str:000000000000dc0e .LASF1357
     /tmp/ccJwlT8t.s:11699  .debug_str:000000000000e241 .LASF1358
     /tmp/ccJwlT8t.s:11805  .debug_str:000000000000e90f .LASF1359
     /tmp/ccJwlT8t.s:11909  .debug_str:000000000000ef40 .LASF1360
     /tmp/ccJwlT8t.s:10223  .debug_str:000000000000874f .LASF1361
     /tmp/ccJwlT8t.s:12119  .debug_str:000000000000fd43 .LASF1362
     /tmp/ccJwlT8t.s:8861   .debug_str:0000000000003484 .LASF1363
     /tmp/ccJwlT8t.s:10213  .debug_str:00000000000086bd .LASF1364
     /tmp/ccJwlT8t.s:9513   .debug_str:0000000000005d2d .LASF1365
     /tmp/ccJwlT8t.s:9623   .debug_str:00000000000062f1 .LASF1366
     /tmp/ccJwlT8t.s:9723   .debug_str:000000000000686b .LASF1367
     /tmp/ccJwlT8t.s:11749  .debug_str:000000000000e619 .LASF1368
     /tmp/ccJwlT8t.s:11873  .debug_str:000000000000ece1 .LASF1369
     /tmp/ccJwlT8t.s:9379   .debug_str:0000000000005556 .LASF1370
     /tmp/ccJwlT8t.s:9537   .debug_str:0000000000005e3b .LASF1371
     /tmp/ccJwlT8t.s:12179  .debug_str:000000000001017a .LASF1372
     /tmp/ccJwlT8t.s:9343   .debug_str:00000000000053a4 .LASF1373
     /tmp/ccJwlT8t.s:9443   .debug_str:00000000000058f7 .LASF1374
     /tmp/ccJwlT8t.s:9549   .debug_str:0000000000005eda .LASF1375
     /tmp/ccJwlT8t.s:9963   .debug_str:00000000000077a0 .LASF1376
     /tmp/ccJwlT8t.s:9771   .debug_str:0000000000006bbf .LASF1377
     /tmp/ccJwlT8t.s:11789  .debug_str:000000000000e7fe .LASF1378
     /tmp/ccJwlT8t.s:11941  .debug_str:000000000000f149 .LASF1379
     /tmp/ccJwlT8t.s:12053  .debug_str:000000000000f94c .LASF1380
     /tmp/ccJwlT8t.s:12145  .debug_str:000000000000ff44 .LASF1381
     /tmp/ccJwlT8t.s:12253  .debug_str:000000000001063d .LASF1382
     /tmp/ccJwlT8t.s:12197  .debug_str:0000000000010257 .LASF1383
     /tmp/ccJwlT8t.s:9015   .debug_str:0000000000003e0e .LASF1384
     /tmp/ccJwlT8t.s:9601   .debug_str:00000000000061f2 .LASF1385
     /tmp/ccJwlT8t.s:12123  .debug_str:000000000000fd6e .LASF1386
     /tmp/ccJwlT8t.s:11393  .debug_str:000000000000d080 .LASF1387
     /tmp/ccJwlT8t.s:10037  .debug_str:0000000000007bf7 .LASF1388
     /tmp/ccJwlT8t.s:12269  .debug_str:0000000000010725 .LASF1389
     /tmp/ccJwlT8t.s:12109  .debug_str:000000000000fcd9 .LASF1390
     /tmp/ccJwlT8t.s:8569   .debug_str:00000000000022fb .LASF1391
     /tmp/ccJwlT8t.s:10457  .debug_str:000000000000966a .LASF1392
     /tmp/ccJwlT8t.s:10671  .debug_str:000000000000a2b4 .LASF1393
     /tmp/ccJwlT8t.s:11553  .debug_str:000000000000d9f5 .LASF1394
     /tmp/ccJwlT8t.s:9129   .debug_str:0000000000004626 .LASF1395
     /tmp/ccJwlT8t.s:12325  .debug_str:0000000000010ab7 .LASF1396
     /tmp/ccJwlT8t.s:11559  .debug_str:000000000000da23 .LASF1397
     /tmp/ccJwlT8t.s:11799  .debug_str:000000000000e89d .LASF1398
     /tmp/ccJwlT8t.s:10829  .debug_str:000000000000acbd .LASF1399
     /tmp/ccJwlT8t.s:11397  .debug_str:000000000000d0bd .LASF1400
     /tmp/ccJwlT8t.s:12379  .debug_str:0000000000010d96 .LASF1401
     /tmp/ccJwlT8t.s:9189   .debug_str:0000000000004a51 .LASF1402
     /tmp/ccJwlT8t.s:10723  .debug_str:000000000000a5a6 .LASF1403
     /tmp/ccJwlT8t.s:12077  .debug_str:000000000000fabd .LASF1404
     /tmp/ccJwlT8t.s:12273  .debug_str:0000000000010756 .LASF1405
     /tmp/ccJwlT8t.s:8347   .debug_str:0000000000001334 .LASF1406
     /tmp/ccJwlT8t.s:12205  .debug_str:00000000000102fe .LASF1407
     /tmp/ccJwlT8t.s:9751   .debug_str:0000000000006a34 .LASF1408
     /tmp/ccJwlT8t.s:9809   .debug_str:0000000000006e82 .LASF1409
     /tmp/ccJwlT8t.s:9861   .debug_str:000000000000714c .LASF1410
     /tmp/ccJwlT8t.s:9203   .debug_str:0000000000004b35 .LASF1411
     /tmp/ccJwlT8t.s:9041   .debug_str:0000000000003f66 .LASF1412
     /tmp/ccJwlT8t.s:8467   .debug_str:0000000000001c70 .LASF1413
     /tmp/ccJwlT8t.s:9403   .debug_str:0000000000005697 .LASF1414
     /tmp/ccJwlT8t.s:12401  .debug_str:0000000000010ef3 .LASF1415
     /tmp/ccJwlT8t.s:8395   .debug_str:00000000000016be .LASF1416
     /tmp/ccJwlT8t.s:12279  .debug_str:00000000000107c1 .LASF1417
     /tmp/ccJwlT8t.s:9439   .debug_str:0000000000005873 .LASF1418
     /tmp/ccJwlT8t.s:9133   .debug_str:0000000000004676 .LASF1419
     /tmp/ccJwlT8t.s:10755  .debug_str:000000000000a7d7 .LASF1420
     /tmp/ccJwlT8t.s:9749   .debug_str:00000000000069f2 .LASF1421
     /tmp/ccJwlT8t.s:8587   .debug_str:0000000000002433 .LASF1422
     /tmp/ccJwlT8t.s:11803  .debug_str:000000000000e8cd .LASF1423
     /tmp/ccJwlT8t.s:9959   .debug_str:000000000000771c .LASF1424
     /tmp/ccJwlT8t.s:9121   .debug_str:0000000000004583 .LASF1425
     /tmp/ccJwlT8t.s:8797   .debug_str:0000000000003089 .LASF1426
     /tmp/ccJwlT8t.s:10479  .debug_str:00000000000097a4 .LASF1427
     /tmp/ccJwlT8t.s:12075  .debug_str:000000000000fa7b .LASF1428
     /tmp/ccJwlT8t.s:10257  .debug_str:000000000000898e .LASF1429
     /tmp/ccJwlT8t.s:8701   .debug_str:0000000000002b74 .LASF1430
     /tmp/ccJwlT8t.s:8039   .debug_str:00000000000000c1 .LASF1431
     /tmp/ccJwlT8t.s:11221  .debug_str:000000000000c580 .LASF1432
     /tmp/ccJwlT8t.s:10207  .debug_str:0000000000008626 .LASF1433
     /tmp/ccJwlT8t.s:10517  .debug_str:00000000000099c5 .LASF1434
     /tmp/ccJwlT8t.s:11739  .debug_str:000000000000e520 .LASF1435
     /tmp/ccJwlT8t.s:8915   .debug_str:0000000000003769 .LASF1436
     /tmp/ccJwlT8t.s:8583   .debug_str:00000000000023da .LASF1437
     /tmp/ccJwlT8t.s:10279  .debug_str:0000000000008aff .LASF1438
     /tmp/ccJwlT8t.s:10349  .debug_str:0000000000008f3e .LASF1439
     /tmp/ccJwlT8t.s:11517  .debug_str:000000000000d71e .LASF1440
     /tmp/ccJwlT8t.s:12233  .debug_str:000000000001048c .LASF1441
     /tmp/ccJwlT8t.s:9391   .debug_str:00000000000055e0 .LASF1442
     /tmp/ccJwlT8t.s:9069   .debug_str:000000000000410f .LASF1443
     /tmp/ccJwlT8t.s:10725  .debug_str:000000000000a5ec .LASF1444
     /tmp/ccJwlT8t.s:9961   .debug_str:000000000000775e .LASF1445
     /tmp/ccJwlT8t.s:10325  .debug_str:0000000000008dca .LASF1446
     /tmp/ccJwlT8t.s:11967  .debug_str:000000000000f311 .LASF1447
     /tmp/ccJwlT8t.s:8353   .debug_str:00000000000013a8 .LASF1448
     /tmp/ccJwlT8t.s:10067  .debug_str:0000000000007e08 .LASF1449
     /tmp/ccJwlT8t.s:10105  .debug_str:0000000000008054 .LASF1450
     /tmp/ccJwlT8t.s:10143  .debug_str:000000000000829a .LASF1451
     /tmp/ccJwlT8t.s:8095   .debug_str:00000000000003e5 .LASF1452
     /tmp/ccJwlT8t.s:11011  .debug_str:000000000000b790 .LASF1453
     /tmp/ccJwlT8t.s:10439  .debug_str:0000000000009521 .LASF1454
     /tmp/ccJwlT8t.s:12131  .debug_str:000000000000fe31 .LASF1455
     /tmp/ccJwlT8t.s:12245  .debug_str:0000000000010580 .LASF1456
     /tmp/ccJwlT8t.s:10617  .debug_str:0000000000009f9c .LASF1457
     /tmp/ccJwlT8t.s:9007   .debug_str:0000000000003d6a .LASF1458
     /tmp/ccJwlT8t.s:11121  .debug_str:000000000000bf5a .LASF1459
     /tmp/ccJwlT8t.s:10135  .debug_str:00000000000081ee .LASF1460
     /tmp/ccJwlT8t.s:8675   .debug_str:0000000000002990 .LASF1461
     /tmp/ccJwlT8t.s:9071   .debug_str:0000000000004151 .LASF1462
     /tmp/ccJwlT8t.s:9103   .debug_str:00000000000043f1 .LASF1463
     /tmp/ccJwlT8t.s:8553   .debug_str:00000000000021c2 .LASF1464
     /tmp/ccJwlT8t.s:8657   .debug_str:0000000000002885 .LASF1465
     /tmp/ccJwlT8t.s:11079  .debug_str:000000000000bcb4 .LASF1466
     /tmp/ccJwlT8t.s:9571   .debug_str:0000000000006043 .LASF1467
     /tmp/ccJwlT8t.s:8077   .debug_str:00000000000002ca .LASF1468
     /tmp/ccJwlT8t.s:10011  .debug_str:0000000000007a33 .LASF1469
     /tmp/ccJwlT8t.s:11369  .debug_str:000000000000cee6 .LASF1470
     /tmp/ccJwlT8t.s:10103  .debug_str:0000000000008011 .LASF1471
     /tmp/ccJwlT8t.s:10765  .debug_str:000000000000a8c6 .LASF1472
     /tmp/ccJwlT8t.s:12491  .debug_str:00000000000114fa .LASF1473
     /tmp/ccJwlT8t.s:9783   .debug_str:0000000000006c71 .LASF1474
     /tmp/ccJwlT8t.s:11855  .debug_str:000000000000ebca .LASF1475
     /tmp/ccJwlT8t.s:11791  .debug_str:000000000000e817 .LASF1476
     /tmp/ccJwlT8t.s:11161  .debug_str:000000000000c1c4 .LASF1477
     /tmp/ccJwlT8t.s:9313   .debug_str:00000000000051f3 .LASF1478
     /tmp/ccJwlT8t.s:9563   .debug_str:0000000000005f9e .LASF1479
     /tmp/ccJwlT8t.s:10759  .debug_str:000000000000a82f .LASF1480
     /tmp/ccJwlT8t.s:11679  .debug_str:000000000000e10b .LASF1481
     /tmp/ccJwlT8t.s:8789   .debug_str:0000000000003004 .LASF1482
     /tmp/ccJwlT8t.s:11895  .debug_str:000000000000ee2d .LASF1483
     /tmp/ccJwlT8t.s:8153   .debug_str:00000000000007b8 .LASF1484
     /tmp/ccJwlT8t.s:8183   .debug_str:000000000000093e .LASF1485
     /tmp/ccJwlT8t.s:11633  .debug_str:000000000000de67 .LASF1486
     /tmp/ccJwlT8t.s:8263   .debug_str:0000000000000e35 .LASF1487
     /tmp/ccJwlT8t.s:10761  .debug_str:000000000000a874 .LASF1488
     /tmp/ccJwlT8t.s:12497  .debug_str:0000000000011562 .LASF1489
     /tmp/ccJwlT8t.s:9739   .debug_str:0000000000006936 .LASF1490
     /tmp/ccJwlT8t.s:10029  .debug_str:0000000000007b6f .LASF1491
     /tmp/ccJwlT8t.s:9147   .debug_str:0000000000004783 .LASF1492
     /tmp/ccJwlT8t.s:10231  .debug_str:00000000000087d7 .LASF1493
     /tmp/ccJwlT8t.s:9711   .debug_str:0000000000006764 .LASF1494
     /tmp/ccJwlT8t.s:10801  .debug_str:000000000000aae3 .LASF1495
     /tmp/ccJwlT8t.s:10933  .debug_str:000000000000b272 .LASF1496
     /tmp/ccJwlT8t.s:9899   .debug_str:000000000000735d .LASF1497
     /tmp/ccJwlT8t.s:8859   .debug_str:0000000000003442 .LASF1498
     /tmp/ccJwlT8t.s:12461  .debug_str:00000000000112f4 .LASF1499
     /tmp/ccJwlT8t.s:10419  .debug_str:00000000000093ee .LASF1500
     /tmp/ccJwlT8t.s:11575  .debug_str:000000000000db01 .LASF1501
     /tmp/ccJwlT8t.s:9441   .debug_str:00000000000058b5 .LASF1502
     /tmp/ccJwlT8t.s:8193   .debug_str:0000000000000a05 .LASF1503
     /tmp/ccJwlT8t.s:11291  .debug_str:000000000000c940 .LASF1504
     /tmp/ccJwlT8t.s:12167  .debug_str:00000000000100ca .LASF1505
     /tmp/ccJwlT8t.s:10151  .debug_str:0000000000008310 .LASF1506
     /tmp/ccJwlT8t.s:11711  .debug_str:000000000000e334 .LASF1507
     /tmp/ccJwlT8t.s:8987   .debug_str:0000000000003c11 .LASF1508
     /tmp/ccJwlT8t.s:10653  .debug_str:000000000000a1c8 .LASF1509
     /tmp/ccJwlT8t.s:12257  .debug_str:000000000001066c .LASF1510
     /tmp/ccJwlT8t.s:11023  .debug_str:000000000000b873 .LASF1511
     /tmp/ccJwlT8t.s:8111   .debug_str:0000000000000532 .LASF1512
     /tmp/ccJwlT8t.s:11043  .debug_str:000000000000ba68 .LASF1513
     /tmp/ccJwlT8t.s:12385  .debug_str:0000000000010e1d .LASF1514
     /tmp/ccJwlT8t.s:8649   .debug_str:00000000000027c0 .LASF1515
     /tmp/ccJwlT8t.s:8213   .debug_str:0000000000000b39 .LASF1516
     /tmp/ccJwlT8t.s:9923   .debug_str:00000000000074f8 .LASF1517
     /tmp/ccJwlT8t.s:11603  .debug_str:000000000000dccb .LASF1518
     /tmp/ccJwlT8t.s:11743  .debug_str:000000000000e578 .LASF1519
     /tmp/ccJwlT8t.s:11455  .debug_str:000000000000d3ea .LASF1520
     /tmp/ccJwlT8t.s:9787   .debug_str:0000000000006cd4 .LASF1521
     /tmp/ccJwlT8t.s:9759   .debug_str:0000000000006ae0 .LASF1522
     /tmp/ccJwlT8t.s:8231   .debug_str:0000000000000c4d .LASF1523
     /tmp/ccJwlT8t.s:10965  .debug_str:000000000000b450 .LASF1524
     /tmp/ccJwlT8t.s:10847  .debug_str:000000000000adec .LASF1525
     /tmp/ccJwlT8t.s:11957  .debug_str:000000000000f299 .LASF1526
     /tmp/ccJwlT8t.s:11089  .debug_str:000000000000bd54 .LASF1527
     /tmp/ccJwlT8t.s:10315  .debug_str:0000000000008d50 .LASF1528
     /tmp/ccJwlT8t.s:8547   .debug_str:0000000000002142 .LASF1529
     /tmp/ccJwlT8t.s:9667   .debug_str:0000000000006525 .LASF1530
     /tmp/ccJwlT8t.s:9037   .debug_str:0000000000003f29 .LASF1531
     /tmp/ccJwlT8t.s:10735  .debug_str:000000000000a6bc .LASF1532
     /tmp/ccJwlT8t.s:8703   .debug_str:0000000000002bb6 .LASF1533
     /tmp/ccJwlT8t.s:10729  .debug_str:000000000000a641 .LASF1534
     /tmp/ccJwlT8t.s:11523  .debug_str:000000000000d7b9 .LASF1535
     /tmp/ccJwlT8t.s:8377   .debug_str:000000000000157a .LASF1536
     /tmp/ccJwlT8t.s:8647   .debug_str:00000000000027a7 .LASF1537
     /tmp/ccJwlT8t.s:11747  .debug_str:000000000000e600 .LASF1538
     /tmp/ccJwlT8t.s:9333   .debug_str:000000000000530f .LASF1539
     /tmp/ccJwlT8t.s:9463   .debug_str:00000000000059e6 .LASF1540
     /tmp/ccJwlT8t.s:10317  .debug_str:0000000000008d65 .LASF1541
     /tmp/ccJwlT8t.s:9255   .debug_str:0000000000004e65 .LASF1542
     /tmp/ccJwlT8t.s:8659   .debug_str:00000000000028c8 .LASF1543
     /tmp/ccJwlT8t.s:10747  .debug_str:000000000000a77d .LASF1544
     /tmp/ccJwlT8t.s:10381  .debug_str:00000000000091ac .LASF1545
     /tmp/ccJwlT8t.s:12129  .debug_str:000000000000fe18 .LASF1546
     /tmp/ccJwlT8t.s:10843  .debug_str:000000000000ad92 .LASF1547
     /tmp/ccJwlT8t.s:9867   .debug_str:00000000000071bf .LASF1548
     /tmp/ccJwlT8t.s:8809   .debug_str:0000000000003178 .LASF1549
     /tmp/ccJwlT8t.s:12345  .debug_str:0000000000010bb0 .LASF1550
     /tmp/ccJwlT8t.s:9385   .debug_str:0000000000005593 .LASF1551
     /tmp/ccJwlT8t.s:8349   .debug_str:0000000000001376 .LASF1552
     /tmp/ccJwlT8t.s:10577  .debug_str:0000000000009d59 .LASF1553
     /tmp/ccJwlT8t.s:9973   .debug_str:000000000000783f .LASF1554
     /tmp/ccJwlT8t.s:8163   .debug_str:0000000000000866 .LASF1555
     /tmp/ccJwlT8t.s:8421   .debug_str:0000000000001908 .LASF1556
     /tmp/ccJwlT8t.s:8965   .debug_str:0000000000003aa3 .LASF1557
     /tmp/ccJwlT8t.s:8947   .debug_str:000000000000395d .LASF1558
     /tmp/ccJwlT8t.s:12423  .debug_str:00000000000110d2 .LASF1559
     /tmp/ccJwlT8t.s:8121   .debug_str:00000000000005f0 .LASF1560
     /tmp/ccJwlT8t.s:10501  .debug_str:0000000000009913 .LASF1561
     /tmp/ccJwlT8t.s:8157   .debug_str:0000000000000809 .LASF1562
     /tmp/ccJwlT8t.s:10973  .debug_str:000000000000b4c2 .LASF1563
     /tmp/ccJwlT8t.s:10071  .debug_str:0000000000007e5c .LASF1564
     /tmp/ccJwlT8t.s:8561   .debug_str:0000000000002290 .LASF1565
     /tmp/ccJwlT8t.s:12051  .debug_str:000000000000f933 .LASF1566
     /tmp/ccJwlT8t.s:10175  .debug_str:00000000000084a1 .LASF1567
     /tmp/ccJwlT8t.s:12027  .debug_str:000000000000f776 .LASF1568
     /tmp/ccJwlT8t.s:8763   .debug_str:0000000000002edb .LASF1569
     /tmp/ccJwlT8t.s:10753  .debug_str:000000000000a7c1 .LASF1570
     /tmp/ccJwlT8t.s:12045  .debug_str:000000000000f8ca .LASF1571
     /tmp/ccJwlT8t.s:10155  .debug_str:000000000000836c .LASF1572
     /tmp/ccJwlT8t.s:10113  .debug_str:00000000000080d3 .LASF1573
     /tmp/ccJwlT8t.s:10595  .debug_str:0000000000009e24 .LASF1574
     /tmp/ccJwlT8t.s:10789  .debug_str:000000000000aa6c .LASF1575
     /tmp/ccJwlT8t.s:11929  .debug_str:000000000000f08a .LASF1576
     /tmp/ccJwlT8t.s:11229  .debug_str:000000000000c617 .LASF1577
     /tmp/ccJwlT8t.s:8979   .debug_str:0000000000003b76 .LASF1578
     /tmp/ccJwlT8t.s:10905  .debug_str:000000000000b11e .LASF1579
     /tmp/ccJwlT8t.s:10937  .debug_str:000000000000b2c9 .LASF1580
     /tmp/ccJwlT8t.s:9731   .debug_str:00000000000068ec .LASF1581
     /tmp/ccJwlT8t.s:12495  .debug_str:000000000001154d .LASF1582
     /tmp/ccJwlT8t.s:8821   .debug_str:0000000000003205 .LASF1583
     /tmp/ccJwlT8t.s:10395  .debug_str:0000000000009267 .LASF1584
     /tmp/ccJwlT8t.s:9339   .debug_str:0000000000005352 .LASF1585
     /tmp/ccJwlT8t.s:9195   .debug_str:0000000000004ac4 .LASF1586
     /tmp/ccJwlT8t.s:11847  .debug_str:000000000000eb56 .LASF1587
     /tmp/ccJwlT8t.s:8893   .debug_str:0000000000003670 .LASF1588
     /tmp/ccJwlT8t.s:10907  .debug_str:000000000000b132 .LASF1589
     /tmp/ccJwlT8t.s:11341  .debug_str:000000000000cca2 .LASF1590
     /tmp/ccJwlT8t.s:11547  .debug_str:000000000000d969 .LASF1591
     /tmp/ccJwlT8t.s:8063   .debug_str:000000000000020a .LASF1592
     /tmp/ccJwlT8t.s:10625  .debug_str:000000000000a014 .LASF1593
     /tmp/ccJwlT8t.s:9599   .debug_str:00000000000061d6 .LASF1594
     /tmp/ccJwlT8t.s:9263   .debug_str:0000000000004ed9 .LASF1595
     /tmp/ccJwlT8t.s:12055  .debug_str:000000000000f965 .LASF1596
     /tmp/ccJwlT8t.s:11379  .debug_str:000000000000cf67 .LASF1597
     /tmp/ccJwlT8t.s:8103   .debug_str:0000000000000498 .LASF1598
     /tmp/ccJwlT8t.s:11283  .debug_str:000000000000c8da .LASF1599
     /tmp/ccJwlT8t.s:10637  .debug_str:000000000000a0f4 .LASF1600
     /tmp/ccJwlT8t.s:9611   .debug_str:000000000000626a .LASF1601
     /tmp/ccJwlT8t.s:8577   .debug_str:0000000000002380 .LASF1602
     /tmp/ccJwlT8t.s:11659  .debug_str:000000000000e010 .LASF1603
     /tmp/ccJwlT8t.s:10699  .debug_str:000000000000a44e .LASF1604
     /tmp/ccJwlT8t.s:10697  .debug_str:000000000000a432 .LASF1605
     /tmp/ccJwlT8t.s:11155  .debug_str:000000000000c17a .LASF1606
     /tmp/ccJwlT8t.s:10285  .debug_str:0000000000008b70 .LASF1607
     /tmp/ccJwlT8t.s:9993   .debug_str:0000000000007964 .LASF1608
     /tmp/ccJwlT8t.s:11599  .debug_str:000000000000dc93 .LASF1609
     /tmp/ccJwlT8t.s:10835  .debug_str:000000000000ad12 .LASF1610
     /tmp/ccJwlT8t.s:8719   .debug_str:0000000000002cc9 .LASF1611
     /tmp/ccJwlT8t.s:12185  .debug_str:00000000000101dc .LASF1612
     /tmp/ccJwlT8t.s:10811  .debug_str:000000000000abaa .LASF1613
     /tmp/ccJwlT8t.s:11181  .debug_str:000000000000c355 .LASF1614
     /tmp/ccJwlT8t.s:12397  .debug_str:0000000000010eb6 .LASF1615
     /tmp/ccJwlT8t.s:12035  .debug_str:000000000000f80c .LASF1616
     /tmp/ccJwlT8t.s:8305   .debug_str:0000000000001085 .LASF1617
     /tmp/ccJwlT8t.s:11145  .debug_str:000000000000c0c1 .LASF1618
     /tmp/ccJwlT8t.s:10899  .debug_str:000000000000b0c0 .LASF1619
     /tmp/ccJwlT8t.s:8115   .debug_str:000000000000058d .LASF1620
     /tmp/ccJwlT8t.s:10087  .debug_str:0000000000007f0d .LASF1621
     /tmp/ccJwlT8t.s:10599  .debug_str:0000000000009e47 .LASF1622
     /tmp/ccJwlT8t.s:11037  .debug_str:000000000000ba03 .LASF1623
     /tmp/ccJwlT8t.s:11647  .debug_str:000000000000df44 .LASF1624
     /tmp/ccJwlT8t.s:10165  .debug_str:00000000000083f2 .LASF1625
     /tmp/ccJwlT8t.s:10805  .debug_str:000000000000ab38 .LASF1626
     /tmp/ccJwlT8t.s:9169   .debug_str:000000000000493b .LASF1627
     /tmp/ccJwlT8t.s:9797   .debug_str:0000000000006d73 .LASF1628
     /tmp/ccJwlT8t.s:8453   .debug_str:0000000000001b3b .LASF1629
     /tmp/ccJwlT8t.s:9719   .debug_str:00000000000067fe .LASF1630
     /tmp/ccJwlT8t.s:10049  .debug_str:0000000000007ca6 .LASF1631
     /tmp/ccJwlT8t.s:11051  .debug_str:000000000000bae5 .LASF1632
     /tmp/ccJwlT8t.s:12439  .debug_str:00000000000111aa .LASF1633
     /tmp/ccJwlT8t.s:8359   .debug_str:0000000000001429 .LASF1634
     /tmp/ccJwlT8t.s:8257   .debug_str:0000000000000da6 .LASF1635
     /tmp/ccJwlT8t.s:8653   .debug_str:0000000000002814 .LASF1636
     /tmp/ccJwlT8t.s:8499   .debug_str:0000000000001e91 .LASF1637
     /tmp/ccJwlT8t.s:11701  .debug_str:000000000000e259 .LASF1638
     /tmp/ccJwlT8t.s:11007  .debug_str:000000000000b70d .LASF1639
     /tmp/ccJwlT8t.s:8397   .debug_str:00000000000016fd .LASF1640
     /tmp/ccJwlT8t.s:10365  .debug_str:0000000000009042 .LASF1641
     /tmp/ccJwlT8t.s:11713  .debug_str:000000000000e376 .LASF1642
     /tmp/ccJwlT8t.s:12143  .debug_str:000000000000feed .LASF1643
     /tmp/ccJwlT8t.s:10555  .debug_str:0000000000009bf3 .LASF1644
     /tmp/ccJwlT8t.s:9091   .debug_str:00000000000042d8 .LASF1645
     /tmp/ccJwlT8t.s:11585  .debug_str:000000000000dba6 .LASF1646
     /tmp/ccJwlT8t.s:10375  .debug_str:00000000000090eb .LASF1647
     /tmp/ccJwlT8t.s:10463  .debug_str:00000000000096b9 .LASF1648
     /tmp/ccJwlT8t.s:11107  .debug_str:000000000000be3b .LASF1649
     /tmp/ccJwlT8t.s:8991   .debug_str:0000000000003c6c .LASF1650
     /tmp/ccJwlT8t.s:10091  .debug_str:0000000000007f52 .LASF1651
     /tmp/ccJwlT8t.s:12003  .debug_str:000000000000f5bd .LASF1652
     /tmp/ccJwlT8t.s:8879   .debug_str:000000000000356f .LASF1653
     /tmp/ccJwlT8t.s:9113   .debug_str:00000000000044e9 .LASF1654
     /tmp/ccJwlT8t.s:9043   .debug_str:0000000000003fa3 .LASF1655
     /tmp/ccJwlT8t.s:12417  .debug_str:000000000001102a .LASF1656
     /tmp/ccJwlT8t.s:12029  .debug_str:000000000000f789 .LASF1657
     /tmp/ccJwlT8t.s:9499   .debug_str:0000000000005c06 .LASF1658
     /tmp/ccJwlT8t.s:10635  .debug_str:000000000000a09b .LASF1659
     /tmp/ccJwlT8t.s:12307  .debug_str:0000000000010997 .LASF1660
     /tmp/ccJwlT8t.s:8559   .debug_str:0000000000002255 .LASF1661
     /tmp/ccJwlT8t.s:9881   .debug_str:000000000000727c .LASF1662
     /tmp/ccJwlT8t.s:8379   .debug_str:0000000000001593 .LASF1663
     /tmp/ccJwlT8t.s:9149   .debug_str:00000000000047c3 .LASF1664
     /tmp/ccJwlT8t.s:8371   .debug_str:00000000000014e8 .LASF1665
     /tmp/ccJwlT8t.s:11197  .debug_str:000000000000c41f .LASF1666
     /tmp/ccJwlT8t.s:9747   .debug_str:00000000000069b0 .LASF1667
     /tmp/ccJwlT8t.s:10253  .debug_str:0000000000008932 .LASF1668
     /tmp/ccJwlT8t.s:9471   .debug_str:0000000000005a32 .LASF1669
     /tmp/ccJwlT8t.s:11321  .debug_str:000000000000cb54 .LASF1670
     /tmp/ccJwlT8t.s:12049  .debug_str:000000000000f8f7 .LASF1671
     /tmp/ccJwlT8t.s:8315   .debug_str:0000000000001150 .LASF1672
     /tmp/ccJwlT8t.s:12021  .debug_str:000000000000f703 .LASF1673
     /tmp/ccJwlT8t.s:12235  .debug_str:00000000000104ce .LASF1674
     /tmp/ccJwlT8t.s:11539  .debug_str:000000000000d8ce .LASF1675
     /tmp/ccJwlT8t.s:11973  .debug_str:000000000000f37c .LASF1676
     /tmp/ccJwlT8t.s:9109   .debug_str:0000000000004482 .LASF1677
     /tmp/ccJwlT8t.s:11825  .debug_str:000000000000ea0f .LASF1678
     /tmp/ccJwlT8t.s:11983  .debug_str:000000000000f446 .LASF1679
     /tmp/ccJwlT8t.s:8681   .debug_str:0000000000002a04 .LASF1680
     /tmp/ccJwlT8t.s:10287  .debug_str:0000000000008b8c .LASF1681
     /tmp/ccJwlT8t.s:10895  .debug_str:000000000000b077 .LASF1682
     /tmp/ccJwlT8t.s:9429   .debug_str:00000000000057e5 .LASF1683
     /tmp/ccJwlT8t.s:11031  .debug_str:000000000000b9ac .LASF1684
     /tmp/ccJwlT8t.s:9183   .debug_str:00000000000049f8 .LASF1685
     /tmp/ccJwlT8t.s:8449   .debug_str:0000000000001aed .LASF1686
     /tmp/ccJwlT8t.s:11293  .debug_str:000000000000c982 .LASF1687
     /tmp/ccJwlT8t.s:8107   .debug_str:00000000000004de .LASF1688
     /tmp/ccJwlT8t.s:8631   .debug_str:00000000000026e1 .LASF1689
     /tmp/ccJwlT8t.s:11147  .debug_str:000000000000c0f6 .LASF1690
     /tmp/ccJwlT8t.s:9681   .debug_str:00000000000065c3 .LASF1691
     /tmp/ccJwlT8t.s:12059  .debug_str:000000000000f99c .LASF1692
     /tmp/ccJwlT8t.s:8689   .debug_str:0000000000002abe .LASF1693
     /tmp/ccJwlT8t.s:8687   .debug_str:0000000000002a86 .LASF1694
     /tmp/ccJwlT8t.s:11605  .debug_str:000000000000dd0d .LASF1695
     /tmp/ccJwlT8t.s:9269   .debug_str:0000000000004f31 .LASF1696
     /tmp/ccJwlT8t.s:12351  .debug_str:0000000000010c1a .LASF1697
     /tmp/ccJwlT8t.s:12465  .debug_str:0000000000011353 .LASF1698
     /tmp/ccJwlT8t.s:11465  .debug_str:000000000000d474 .LASF1699
     /tmp/ccJwlT8t.s:9089   .debug_str:00000000000042ae .LASF1700
     /tmp/ccJwlT8t.s:12223  .debug_str:000000000001040c .LASF1701
     /tmp/ccJwlT8t.s:12153  .debug_str:000000000000ffbb .LASF1702
     /tmp/ccJwlT8t.s:11643  .debug_str:000000000000def8 .LASF1703
     /tmp/ccJwlT8t.s:11931  .debug_str:000000000000f0a0 .LASF1704
     /tmp/ccJwlT8t.s:10601  .debug_str:0000000000009e7c .LASF1705
     /tmp/ccJwlT8t.s:8307   .debug_str:00000000000010c6 .LASF1706
     /tmp/ccJwlT8t.s:9709   .debug_str:0000000000006734 .LASF1707
     /tmp/ccJwlT8t.s:12085  .debug_str:000000000000fb6f .LASF1708
     /tmp/ccJwlT8t.s:11407  .debug_str:000000000000d145 .LASF1709
     /tmp/ccJwlT8t.s:11013  .debug_str:000000000000b7d3 .LASF1710
     /tmp/ccJwlT8t.s:11417  .debug_str:000000000000d1d4 .LASF1711
     /tmp/ccJwlT8t.s:10609  .debug_str:0000000000009ef3 .LASF1712
     /tmp/ccJwlT8t.s:10233  .debug_str:0000000000008817 .LASF1713
     /tmp/ccJwlT8t.s:12219  .debug_str:00000000000103b9 .LASF1714
     /tmp/ccJwlT8t.s:8325   .debug_str:00000000000011ce .LASF1715
     /tmp/ccJwlT8t.s:9095   .debug_str:000000000000433e .LASF1716
     /tmp/ccJwlT8t.s:11781  .debug_str:000000000000e788 .LASF1717
     /tmp/ccJwlT8t.s:8035   .debug_str:0000000000000075 .LASF1718
     /tmp/ccJwlT8t.s:12507  .debug_str:00000000000115fc .LASF1719
     /tmp/ccJwlT8t.s:11991  .debug_str:000000000000f4c3 .LASF1720
     /tmp/ccJwlT8t.s:12037  .debug_str:000000000000f849 .LASF1721
     /tmp/ccJwlT8t.s:10299  .debug_str:0000000000008c6f .LASF1722
     /tmp/ccJwlT8t.s:9761   .debug_str:0000000000006afc .LASF1723
     /tmp/ccJwlT8t.s:9969   .debug_str:00000000000077f0 .LASF1724
     /tmp/ccJwlT8t.s:8557   .debug_str:000000000000221d .LASF1725
     /tmp/ccJwlT8t.s:8125   .debug_str:0000000000000634 .LASF1726
     /tmp/ccJwlT8t.s:9489   .debug_str:0000000000005b47 .LASF1727
     /tmp/ccJwlT8t.s:9547   .debug_str:0000000000005ea0 .LASF1728
     /tmp/ccJwlT8t.s:8289   .debug_str:0000000000000f96 .LASF1729
     /tmp/ccJwlT8t.s:9803   .debug_str:0000000000006e12 .LASF1730
     /tmp/ccJwlT8t.s:10129  .debug_str:000000000000818f .LASF1731
     /tmp/ccJwlT8t.s:12349  .debug_str:0000000000010be0 .LASF1732
     /tmp/ccJwlT8t.s:10043  .debug_str:0000000000007c46 .LASF1733
     /tmp/ccJwlT8t.s:8189   .debug_str:00000000000009ba .LASF1734
     /tmp/ccJwlT8t.s:10953  .debug_str:000000000000b38f .LASF1735
     /tmp/ccJwlT8t.s:9197   .debug_str:0000000000004adf .LASF1736
     /tmp/ccJwlT8t.s:11913  .debug_str:000000000000ef82 .LASF1737
     /tmp/ccJwlT8t.s:10219  .debug_str:0000000000008707 .LASF1738
     /tmp/ccJwlT8t.s:8381   .debug_str:00000000000015ce .LASF1739
     /tmp/ccJwlT8t.s:10019  .debug_str:0000000000007ac9 .LASF1740
     /tmp/ccJwlT8t.s:9373   .debug_str:00000000000054fc .LASF1741
     /tmp/ccJwlT8t.s:12105  .debug_str:000000000000fc90 .LASF1742
     /tmp/ccJwlT8t.s:10837  .debug_str:000000000000ad2e .LASF1743
     /tmp/ccJwlT8t.s:10363  .debug_str:000000000000900d .LASF1744
     /tmp/ccJwlT8t.s:11123  .debug_str:000000000000bf9d .LASF1745
     /tmp/ccJwlT8t.s:10783  .debug_str:000000000000a9ff .LASF1746
     /tmp/ccJwlT8t.s:8685   .debug_str:0000000000002a51 .LASF1747
     /tmp/ccJwlT8t.s:11311  .debug_str:000000000000cab0 .LASF1748
     /tmp/ccJwlT8t.s:8433   .debug_str:00000000000019df .LASF1749
     /tmp/ccJwlT8t.s:8961   .debug_str:0000000000003a5b .LASF1750
     /tmp/ccJwlT8t.s:9717   .debug_str:00000000000067c9 .LASF1751
     /tmp/ccJwlT8t.s:9725   .debug_str:0000000000006884 .LASF1752
     /tmp/ccJwlT8t.s:9633   .debug_str:0000000000006374 .LASF1753
     /tmp/ccJwlT8t.s:9281   .debug_str:0000000000004fdc .LASF1754
     /tmp/ccJwlT8t.s:12301  .debug_str:0000000000010935 .LASF1755
     /tmp/ccJwlT8t.s:12467  .debug_str:0000000000011381 .LASF1756
     /tmp/ccJwlT8t.s:8067   .debug_str:0000000000000235 .LASF1757
     /tmp/ccJwlT8t.s:10677  .debug_str:000000000000a2fd .LASF1758
     /tmp/ccJwlT8t.s:10849  .debug_str:000000000000ae01 .LASF1759
     /tmp/ccJwlT8t.s:10955  .debug_str:000000000000b3c2 .LASF1760
     /tmp/ccJwlT8t.s:9105   .debug_str:0000000000004432 .LASF1761
     /tmp/ccJwlT8t.s:8489   .debug_str:0000000000001df1 .LASF1762
     /tmp/ccJwlT8t.s:9021   .debug_str:0000000000003e4c .LASF1763
     /tmp/ccJwlT8t.s:9131   .debug_str:0000000000004641 .LASF1764
     /tmp/ccJwlT8t.s:11549  .debug_str:000000000000d984 .LASF1765
     /tmp/ccJwlT8t.s:9935   .debug_str:00000000000075bb .LASF1766
     /tmp/ccJwlT8t.s:11997  .debug_str:000000000000f546 .LASF1767
     /tmp/ccJwlT8t.s:9975   .debug_str:0000000000007858 .LASF1768
     /tmp/ccJwlT8t.s:10731  .debug_str:000000000000a656 .LASF1769
     /tmp/ccJwlT8t.s:8383   .debug_str:0000000000001601 .LASF1770
     /tmp/ccJwlT8t.s:11345  .debug_str:000000000000ccd4 .LASF1771
     /tmp/ccJwlT8t.s:8227   .debug_str:0000000000000c00 .LASF1772
     /tmp/ccJwlT8t.s:8405   .debug_str:00000000000017df .LASF1773
     /tmp/ccJwlT8t.s:9319   .debug_str:000000000000526b .LASF1774
     /tmp/ccJwlT8t.s:11403  .debug_str:000000000000d0fb .LASF1775
     /tmp/ccJwlT8t.s:11993  .debug_str:000000000000f4f9 .LASF1776
     /tmp/ccJwlT8t.s:11385  .debug_str:000000000000cfea .LASF1777
     /tmp/ccJwlT8t.s:9565   .debug_str:0000000000005fdf .LASF1778
     /tmp/ccJwlT8t.s:9901   .debug_str:000000000000739d .LASF1779
     /tmp/ccJwlT8t.s:12299  .debug_str:0000000000010900 .LASF1780
     /tmp/ccJwlT8t.s:10535  .debug_str:0000000000009ae4 .LASF1781
     /tmp/ccJwlT8t.s:12527  .debug_str:000000000001172f .LASF1782
     /tmp/ccJwlT8t.s:12317  .debug_str:0000000000010a25 .LASF1783
     /tmp/ccJwlT8t.s:9579   .debug_str:00000000000060d0 .LASF1784
     /tmp/ccJwlT8t.s:10613  .debug_str:0000000000009f52 .LASF1785
     /tmp/ccJwlT8t.s:10721  .debug_str:000000000000a571 .LASF1786
     /tmp/ccJwlT8t.s:10821  .debug_str:000000000000ac27 .LASF1787
     /tmp/ccJwlT8t.s:8459   .debug_str:0000000000001bc5 .LASF1788
     /tmp/ccJwlT8t.s:9077   .debug_str:00000000000041cb .LASF1789
     /tmp/ccJwlT8t.s:8621   .debug_str:000000000000263f .LASF1790
     /tmp/ccJwlT8t.s:10741  .debug_str:000000000000a71a .LASF1791
     /tmp/ccJwlT8t.s:11269  .debug_str:000000000000c81d .LASF1792
     /tmp/ccJwlT8t.s:8253   .debug_str:0000000000000d57 .LASF1793
     /tmp/ccJwlT8t.s:8841   .debug_str:0000000000003350 .LASF1794
     /tmp/ccJwlT8t.s:10055  .debug_str:0000000000007d37 .LASF1795
     /tmp/ccJwlT8t.s:10571  .debug_str:0000000000009ce5 .LASF1796
     /tmp/ccJwlT8t.s:11975  .debug_str:000000000000f3b0 .LASF1797
     /tmp/ccJwlT8t.s:12251  .debug_str:00000000000105f2 .LASF1798
     /tmp/ccJwlT8t.s:8589   .debug_str:0000000000002475 .LASF1799
     /tmp/ccJwlT8t.s:10379  .debug_str:0000000000009161 .LASF1800
     /tmp/ccJwlT8t.s:8953   .debug_str:00000000000039a4 .LASF1801
     /tmp/ccJwlT8t.s:8151   .debug_str:0000000000000793 .LASF1802
     /tmp/ccJwlT8t.s:8143   .debug_str:0000000000000727 .LASF1803
     /tmp/ccJwlT8t.s:9299   .debug_str:0000000000005130 .LASF1804
     /tmp/ccJwlT8t.s:9153   .debug_str:000000000000480c .LASF1805
     /tmp/ccJwlT8t.s:9911   .debug_str:000000000000745a .LASF1806
     /tmp/ccJwlT8t.s:9789   .debug_str:0000000000006cf1 .LASF1807
     /tmp/ccJwlT8t.s:10917  .debug_str:000000000000b1bf .LASF1808
     /tmp/ccJwlT8t.s:8443   .debug_str:0000000000001a83 .LASF1809
     /tmp/ccJwlT8t.s:11595  .debug_str:000000000000dc4f .LASF1810
     /tmp/ccJwlT8t.s:8437   .debug_str:0000000000001a28 .LASF1811
     /tmp/ccJwlT8t.s:9825   .debug_str:0000000000006f6d .LASF1812
     /tmp/ccJwlT8t.s:9141   .debug_str:0000000000004727 .LASF1813
     /tmp/ccJwlT8t.s:12451  .debug_str:0000000000011281 .LASF1814
     /tmp/ccJwlT8t.s:8505   .debug_str:0000000000001f2a .LASF1815
     /tmp/ccJwlT8t.s:11521  .debug_str:000000000000d770 .LASF1816
     /tmp/ccJwlT8t.s:8097   .debug_str:0000000000000428 .LASF1817
     /tmp/ccJwlT8t.s:11217  .debug_str:000000000000c520 .LASF1818
     /tmp/ccJwlT8t.s:8473   .debug_str:0000000000001cdb .LASF1819
     /tmp/ccJwlT8t.s:8807   .debug_str:000000000000312f .LASF1820
     /tmp/ccJwlT8t.s:11383  .debug_str:000000000000cfa1 .LASF1821
     /tmp/ccJwlT8t.s:8399   .debug_str:0000000000001756 .LASF1822
     /tmp/ccJwlT8t.s:9503   .debug_str:0000000000005c6f .LASF1823
     /tmp/ccJwlT8t.s:11537  .debug_str:000000000000d885 .LASF1824
     /tmp/ccJwlT8t.s:10441  .debug_str:0000000000009568 .LASF1825
     /tmp/ccJwlT8t.s:10989  .debug_str:000000000000b5b0 .LASF1826
     /tmp/ccJwlT8t.s:11905  .debug_str:000000000000eeda .LASF1827
     /tmp/ccJwlT8t.s:8335   .debug_str:000000000000127d .LASF1828
     /tmp/ccJwlT8t.s:9981   .debug_str:00000000000078b9 .LASF1829
     /tmp/ccJwlT8t.s:10405  .debug_str:00000000000092e9 .LASF1830
     /tmp/ccJwlT8t.s:11515  .debug_str:000000000000d6d2 .LASF1831
     /tmp/ccJwlT8t.s:10211  .debug_str:0000000000008671 .LASF1832
     /tmp/ccJwlT8t.s:12161  .debug_str:0000000000010024 .LASF1833
     /tmp/ccJwlT8t.s:9481   .debug_str:0000000000005ab8 .LASF1834
     /tmp/ccJwlT8t.s:9765   .debug_str:0000000000006b46 .LASF1835
     /tmp/ccJwlT8t.s:11731  .debug_str:000000000000e476 .LASF1836
     /tmp/ccJwlT8t.s:8717   .debug_str:0000000000002c7d .LASF1837
     /tmp/ccJwlT8t.s:12471  .debug_str:00000000000113c6 .LASF1838
     /tmp/ccJwlT8t.s:8939   .debug_str:00000000000038c7 .LASF1839
     /tmp/ccJwlT8t.s:9903   .debug_str:00000000000073d2 .LASF1840
     /tmp/ccJwlT8t.s:8823   .debug_str:0000000000003220 .LASF1841
     /tmp/ccJwlT8t.s:9779   .debug_str:0000000000006c0f .LASF1842
     /tmp/ccJwlT8t.s:8975   .debug_str:0000000000003b1d .LASF1843
     /tmp/ccJwlT8t.s:11567  .debug_str:000000000000da76 .LASF1844
     /tmp/ccJwlT8t.s:12125  .debug_str:000000000000fd85 .LASF1845
     /tmp/ccJwlT8t.s:8549   .debug_str:0000000000002157 .LASF1846
     /tmp/ccJwlT8t.s:8743   .debug_str:0000000000002de0 .LASF1847
     /tmp/ccJwlT8t.s:12079  .debug_str:000000000000fb01 .LASF1848
     /tmp/ccJwlT8t.s:8479   .debug_str:0000000000001d58 .LASF1849
     /tmp/ccJwlT8t.s:9699   .debug_str:00000000000066a4 .LASF1850
     /tmp/ccJwlT8t.s:10771  .debug_str:000000000000a933 .LASF1851
     /tmp/ccJwlT8t.s:11935  .debug_str:000000000000f0ef .LASF1852
     /tmp/ccJwlT8t.s:11459  .debug_str:000000000000d419 .LASF1853
     /tmp/ccJwlT8t.s:8573   .debug_str:0000000000002330 .LASF1854
     /tmp/ccJwlT8t.s:8771   .debug_str:0000000000002f33 .LASF1855
     /tmp/ccJwlT8t.s:9231   .debug_str:0000000000004cf3 .LASF1856
     /tmp/ccJwlT8t.s:9943   .debug_str:0000000000007627 .LASF1857
     /tmp/ccJwlT8t.s:9929   .debug_str:0000000000007570 .LASF1858
     /tmp/ccJwlT8t.s:9359   .debug_str:000000000000545c .LASF1859
     /tmp/ccJwlT8t.s:11127  .debug_str:000000000000bfea .LASF1860
     /tmp/ccJwlT8t.s:8831   .debug_str:00000000000032b2 .LASF1861
     /tmp/ccJwlT8t.s:11421  .debug_str:000000000000d237 .LASF1862
     /tmp/ccJwlT8t.s:11703  .debug_str:000000000000e2b2 .LASF1863
     /tmp/ccJwlT8t.s:9277   .debug_str:0000000000004f9e .LASF1864
     /tmp/ccJwlT8t.s:8385   .debug_str:0000000000001636 .LASF1865
     /tmp/ccJwlT8t.s:10681  .debug_str:000000000000a352 .LASF1866
     /tmp/ccJwlT8t.s:8277   .debug_str:0000000000000eec .LASF1867
     /tmp/ccJwlT8t.s:9411   .debug_str:000000000000571e .LASF1868
     /tmp/ccJwlT8t.s:8581   .debug_str:00000000000023ad .LASF1869
     /tmp/ccJwlT8t.s:11535  .debug_str:000000000000d85c .LASF1870
     /tmp/ccJwlT8t.s:10823  .debug_str:000000000000ac5c .LASF1871
     /tmp/ccJwlT8t.s:9837   .debug_str:0000000000007005 .LASF1872
     /tmp/ccJwlT8t.s:8029   .debug_str:0000000000000019 .LASF1873
     /tmp/ccJwlT8t.s:10523  .debug_str:0000000000009a32 .LASF1874
     /tmp/ccJwlT8t.s:11119  .debug_str:000000000000bf2d .LASF1875
     /tmp/ccJwlT8t.s:8161   .debug_str:000000000000083d .LASF1876
     /tmp/ccJwlT8t.s:12435  .debug_str:0000000000011170 .LASF1877
     /tmp/ccJwlT8t.s:8531   .debug_str:000000000000207f .LASF1878
     /tmp/ccJwlT8t.s:8913   .debug_str:0000000000003738 .LASF1879
     /tmp/ccJwlT8t.s:10291  .debug_str:0000000000008bda .LASF1880
     /tmp/ccJwlT8t.s:11835  .debug_str:000000000000eab4 .LASF1881
     /tmp/ccJwlT8t.s:11419  .debug_str:000000000000d20c .LASF1882
     /tmp/ccJwlT8t.s:9257   .debug_str:0000000000004e7e .LASF1883
     /tmp/ccJwlT8t.s:11319  .debug_str:000000000000cb31 .LASF1884
     /tmp/ccJwlT8t.s:9557   .debug_str:0000000000005f4a .LASF1885
     /tmp/ccJwlT8t.s:8361   .debug_str:000000000000147f .LASF1886
     /tmp/ccJwlT8t.s:12459  .debug_str:00000000000112d5 .LASF1887
     /tmp/ccJwlT8t.s:10301  .debug_str:0000000000008ca5 .LASF1888
     /tmp/ccJwlT8t.s:9575   .debug_str:00000000000060a2 .LASF1889
     /tmp/ccJwlT8t.s:8333   .debug_str:0000000000001256 .LASF1890
     /tmp/ccJwlT8t.s:10425  .debug_str:000000000000945b .LASF1891
     /tmp/ccJwlT8t.s:8413   .debug_str:000000000000188c .LASF1892
     /tmp/ccJwlT8t.s:9675   .debug_str:000000000000656f .LASF1893
     /tmp/ccJwlT8t.s:9705   .debug_str:00000000000066f9 .LASF1894
     /tmp/ccJwlT8t.s:10429  .debug_str:000000000000949b .LASF1895
     /tmp/ccJwlT8t.s:11897  .debug_str:000000000000ee6e .LASF1896
     /tmp/ccJwlT8t.s:9659   .debug_str:00000000000064d7 .LASF1897
     /tmp/ccJwlT8t.s:10021  .debug_str:0000000000007afc .LASF1898
     /tmp/ccJwlT8t.s:11351  .debug_str:000000000000cd4f .LASF1899
     /tmp/ccJwlT8t.s:9799   .debug_str:0000000000006dc9 .LASF1900
     /tmp/ccJwlT8t.s:11335  .debug_str:000000000000cc40 .LASF1901
     /tmp/ccJwlT8t.s:11433  .debug_str:000000000000d2bd .LASF1902
     /tmp/ccJwlT8t.s:8891   .debug_str:0000000000003645 .LASF1903
     /tmp/ccJwlT8t.s:10717  .debug_str:000000000000a532 .LASF1904
     /tmp/ccJwlT8t.s:11195  .debug_str:000000000000c3f4 .LASF1905
     /tmp/ccJwlT8t.s:8969   .debug_str:0000000000003ad6 .LASF1906
     /tmp/ccJwlT8t.s:10487  .debug_str:0000000000009829 .LASF1907
     /tmp/ccJwlT8t.s:8837   .debug_str:0000000000003315 .LASF1908
     /tmp/ccJwlT8t.s:9011   .debug_str:0000000000003dc6 .LASF1909
     /tmp/ccJwlT8t.s:10557  .debug_str:0000000000009c4a .LASF1910
     /tmp/ccJwlT8t.s:9631   .debug_str:0000000000006349 .LASF1911
     /tmp/ccJwlT8t.s:10061  .debug_str:0000000000007da2 .LASF1912
     /tmp/ccJwlT8t.s:10713  .debug_str:000000000000a4ed .LASF1913
     /tmp/ccJwlT8t.s:11889  .debug_str:000000000000edb4 .LASF1914
     /tmp/ccJwlT8t.s:8761   .debug_str:0000000000002eb1 .LASF1915
     /tmp/ccJwlT8t.s:8407   .debug_str:0000000000001814 .LASF1916
     /tmp/ccJwlT8t.s:12285  .debug_str:0000000000010832 .LASF1917
     /tmp/ccJwlT8t.s:11361  .debug_str:000000000000ce7b .LASF1918
     /tmp/ccJwlT8t.s:11083  .debug_str:000000000000bd00 .LASF1919
     /tmp/ccJwlT8t.s:9953   .debug_str:00000000000076c6 .LASF1920
     /tmp/ccJwlT8t.s:10809  .debug_str:000000000000ab82 .LASF1921
     /tmp/ccJwlT8t.s:9949   .debug_str:0000000000007674 .LASF1922
     /tmp/ccJwlT8t.s:10969  .debug_str:000000000000b481 .LASF1923
     /tmp/ccJwlT8t.s:10137  .debug_str:0000000000008235 .LASF1924
     /tmp/ccJwlT8t.s:11313  .debug_str:000000000000cae5 .LASF1925
     /tmp/ccJwlT8t.s:10297  .debug_str:0000000000008c47 .LASF1926
     /tmp/ccJwlT8t.s:11287  .debug_str:000000000000c8fe .LASF1927
     /tmp/ccJwlT8t.s:10455  .debug_str:0000000000009642 .LASF1928
     /tmp/ccJwlT8t.s:8209   .debug_str:0000000000000b02 .LASF1929
     /tmp/ccJwlT8t.s:11871  .debug_str:000000000000ecb7 .LASF1930
     /tmp/ccJwlT8t.s:9457   .debug_str:0000000000005997 .LASF1931
     /tmp/ccJwlT8t.s:11479  .debug_str:000000000000d50a .LASF1932
     /tmp/ccJwlT8t.s:9039   .debug_str:0000000000003f3c .LASF1933
     /tmp/ccJwlT8t.s:9161   .debug_str:0000000000004882 .LASF1934
     /tmp/ccJwlT8t.s:11657  .debug_str:000000000000dfe6 .LASF1935
     /tmp/ccJwlT8t.s:8187   .debug_str:0000000000000990 .LASF1936
     /tmp/ccJwlT8t.s:8243   .debug_str:0000000000000cce .LASF1937
     /tmp/ccJwlT8t.s:8955   .debug_str:00000000000039ef .LASF1938
     /tmp/ccJwlT8t.s:10063  .debug_str:0000000000007dca .LASF1939
     /tmp/ccJwlT8t.s:9813   .debug_str:0000000000006ed8 .LASF1940
     /tmp/ccJwlT8t.s:11817  .debug_str:000000000000e999 .LASF1941
     /tmp/ccJwlT8t.s:11911  .debug_str:000000000000ef58 .LASF1942
     /tmp/ccJwlT8t.s:9495   .debug_str:0000000000005bb4 .LASF1943
     /tmp/ccJwlT8t.s:9589   .debug_str:0000000000006151 .LASF1944
     /tmp/ccJwlT8t.s:8355   .debug_str:00000000000013ea .LASF1945
     /tmp/ccJwlT8t.s:11707  .debug_str:000000000000e2f4 .LASF1946
     /tmp/ccJwlT8t.s:11009  .debug_str:000000000000b766 .LASF1947
     /tmp/ccJwlT8t.s:8105   .debug_str:00000000000004b4 .LASF1948
     /tmp/ccJwlT8t.s:11173  .debug_str:000000000000c2be .LASF1949
     /tmp/ccJwlT8t.s:12297  .debug_str:00000000000108d6 .LASF1950
     /tmp/ccJwlT8t.s:10931  .debug_str:000000000000b248 .LASF1951
     /tmp/ccJwlT8t.s:9857   .debug_str:0000000000007109 .LASF1952
     /tmp/ccJwlT8t.s:9951   .debug_str:000000000000769c .LASF1953
     /tmp/ccJwlT8t.s:8521   .debug_str:000000000000200d .LASF1954
     /tmp/ccJwlT8t.s:10195  .debug_str:000000000000858f .LASF1955
     /tmp/ccJwlT8t.s:11151  .debug_str:000000000000c139 .LASF1956
     /tmp/ccJwlT8t.s:8261   .debug_str:0000000000000e0b .LASF1957
     /tmp/ccJwlT8t.s:11737  .debug_str:000000000000e4f6 .LASF1958
     /tmp/ccJwlT8t.s:12485  .debug_str:00000000000114a7 .LASF1959
     /tmp/ccJwlT8t.s:10911  .debug_str:000000000000b161 .LASF1960
     /tmp/ccJwlT8t.s:11687  .debug_str:000000000000e19f .LASF1961
     /tmp/ccJwlT8t.s:10295  .debug_str:0000000000008c1d .LASF1962
     /tmp/ccJwlT8t.s:11333  .debug_str:000000000000cc16 .LASF1963
     /tmp/ccJwlT8t.s:12381  .debug_str:0000000000010dda .LASF1964
     /tmp/ccJwlT8t.s:12375  .debug_str:0000000000010d52 .LASF1965
     /tmp/ccJwlT8t.s:12005  .debug_str:000000000000f616 .LASF1966
     /tmp/ccJwlT8t.s:12091  .debug_str:000000000000fbd3 .LASF1967
     /tmp/ccJwlT8t.s:10549  .debug_str:0000000000009b9e .LASF1968
     /tmp/ccJwlT8t.s:12115  .debug_str:000000000000fd00 .LASF1969
     /tmp/ccJwlT8t.s:10509  .debug_str:000000000000995e .LASF1970
     /tmp/ccJwlT8t.s:12293  .debug_str:0000000000010898 .LASF1971
     /tmp/ccJwlT8t.s:10979  .debug_str:000000000000b523 .LASF1972
     /tmp/ccJwlT8t.s:9265   .debug_str:0000000000004ef5 .LASF1973
     /tmp/ccJwlT8t.s:10337  .debug_str:0000000000008e9d .LASF1974
     /tmp/ccJwlT8t.s:12319  .debug_str:0000000000010a5a .LASF1975
     /tmp/ccJwlT8t.s:9653   .debug_str:0000000000006483 .LASF1976
     /tmp/ccJwlT8t.s:10039  .debug_str:0000000000007c0c .LASF1977
     /tmp/ccJwlT8t.s:10139  .debug_str:000000000000825d .LASF1978
     /tmp/ccJwlT8t.s:10893  .debug_str:000000000000b04d .LASF1979
     /tmp/ccJwlT8t.s:12447  .debug_str:000000000001123d .LASF1980
     /tmp/ccJwlT8t.s:8447   .debug_str:0000000000001ac3 .LASF1981
     /tmp/ccJwlT8t.s:10547  .debug_str:0000000000009b74 .LASF1982
     /tmp/ccJwlT8t.s:10167  .debug_str:0000000000008425 .LASF1983
     /tmp/ccJwlT8t.s:8715   .debug_str:0000000000002c46 .LASF1984
     /tmp/ccJwlT8t.s:9341   .debug_str:000000000000536d .LASF1985
     /tmp/ccJwlT8t.s:9127   .debug_str:00000000000045ef .LASF1986
     /tmp/ccJwlT8t.s:9253   .debug_str:0000000000004e2e .LASF1987
     /tmp/ccJwlT8t.s:11853  .debug_str:000000000000eb9b .LASF1988
     /tmp/ccJwlT8t.s:10733  .debug_str:000000000000a68b .LASF1989
     /tmp/ccJwlT8t.s:11661  .debug_str:000000000000e02c .LASF1990
     /tmp/ccJwlT8t.s:10883  .debug_str:000000000000afc6 .LASF1991
     /tmp/ccJwlT8t.s:9111   .debug_str:00000000000044b8 .LASF1992
     /tmp/ccJwlT8t.s:12181  .debug_str:0000000000010193 .LASF1993
     /tmp/ccJwlT8t.s:11299  .debug_str:000000000000c9e1 .LASF1994
     /tmp/ccJwlT8t.s:11503  .debug_str:000000000000d630 .LASF1995
     /tmp/ccJwlT8t.s:8409   .debug_str:0000000000001846 .LASF1996
     /tmp/ccJwlT8t.s:10737  .debug_str:000000000000a6cc .LASF1997
     /tmp/ccJwlT8t.s:11097  .debug_str:000000000000bdbe .LASF1998
     /tmp/ccJwlT8t.s:10413  .debug_str:0000000000009370 .LASF1999
     /tmp/ccJwlT8t.s:8775   .debug_str:0000000000002f7f .LASF2000
     /tmp/ccJwlT8t.s:11939  .debug_str:000000000000f136 .LASF2001
     /tmp/ccJwlT8t.s:10307  .debug_str:0000000000008cf5 .LASF2002
     /tmp/ccJwlT8t.s:10339  .debug_str:0000000000008ec7 .LASF2003
     /tmp/ccJwlT8t.s:8113   .debug_str:0000000000000574 .LASF2004
     /tmp/ccJwlT8t.s:9145   .debug_str:000000000000476d .LASF2005
     /tmp/ccJwlT8t.s:9245   .debug_str:0000000000004dce .LASF2006
     /tmp/ccJwlT8t.s:9019   .debug_str:0000000000003e3a .LASF2007
     /tmp/ccJwlT8t.s:9261   .debug_str:0000000000004ec0 .LASF2008
     /tmp/ccJwlT8t.s:9271   .debug_str:0000000000004f65 .LASF2009
     /tmp/ccJwlT8t.s:8865   .debug_str:00000000000034b4 .LASF2010
     /tmp/ccJwlT8t.s:9871   .debug_str:00000000000071f3 .LASF2011
     /tmp/ccJwlT8t.s:8945   .debug_str:0000000000003944 .LASF2012
     /tmp/ccJwlT8t.s:10409  .debug_str:000000000000934a .LASF2013
     /tmp/ccJwlT8t.s:10983  .debug_str:000000000000b567 .LASF2014
     /tmp/ccJwlT8t.s:11457  .debug_str:000000000000d400 .LASF2015
     /tmp/ccJwlT8t.s:11061  .debug_str:000000000000bbad .LASF2016
     /tmp/ccJwlT8t.s:10675  .debug_str:000000000000a2e1 .LASF2017
     /tmp/ccJwlT8t.s:8069   .debug_str:000000000000026a .LASF2018
     /tmp/ccJwlT8t.s:8175   .debug_str:00000000000008ee .LASF2020
     /tmp/ccJwlT8t.s:11179  .debug_str:000000000000c33f .LASF2021
     /tmp/ccJwlT8t.s:8741   .debug_str:0000000000002dcb .LASF2022
     /tmp/ccJwlT8t.s:8551   .debug_str:00000000000021a5 .LASF2023
     /tmp/ccJwlT8t.s:11509  .debug_str:000000000000d68a .LASF2024
     /tmp/ccJwlT8t.s:9831   .debug_str:0000000000006fc0 .LASF2025
     /tmp/ccJwlT8t.s:11501  .debug_str:000000000000d617 .LASF2026
     /tmp/ccJwlT8t.s:11999  .debug_str:000000000000f57b .LASF2027
     /tmp/ccJwlT8t.s:8699   .debug_str:0000000000002b5d .LASF2028
     /tmp/ccJwlT8t.s:11831  .debug_str:000000000000ea8b .LASF2029
     /tmp/ccJwlT8t.s:10985  .debug_str:000000000000b580 .LASF2030
     /tmp/ccJwlT8t.s:9051   .debug_str:0000000000004034 .LASF2031
     /tmp/ccJwlT8t.s:10881  .debug_str:000000000000afb2 .LASF2032
     /tmp/ccJwlT8t.s:9913   .debug_str:000000000000748d .LASF2033
     /tmp/ccJwlT8t.s:11171  .debug_str:000000000000c2a6 .LASF2034
     /tmp/ccJwlT8t.s:9663   .debug_str:0000000000006505 .LASF2035
     /tmp/ccJwlT8t.s:9727   .debug_str:00000000000068b9 .LASF2036
     /tmp/ccJwlT8t.s:8511   .debug_str:0000000000001f8a .LASF2037
     /tmp/ccJwlT8t.s:11581  .debug_str:000000000000db78 .LASF2038
     /tmp/ccJwlT8t.s:12519  .debug_str:00000000000116ad .LASF2039
                           .group:0000000000000000 wm4.0.2cde0bba310258ac5fb120644dc52a54
                           .group:0000000000000000 wm4._newlib_version.h.4.9ba035841e762c3308916a0ce96032e7
                           .group:0000000000000000 wm4.features.h.33.318b64d71e0957639cfb30f1db1f7ec8
                           .group:0000000000000000 wm4._default_types.h.15.61e9869194cab90bdfa4c7fc42203a0e
                           .group:0000000000000000 wm4._intsup.h.10.b28b45fc63caeb010c3f7ee592257700
                           .group:0000000000000000 wm4._stdint.h.10.c24fa3af3bc1706662bb5593a907e841
                           .group:0000000000000000 wm4.stdint.h.23.d53047a68f4a85177f80b422d52785ed
                           .group:0000000000000000 wm4.encoding.h.34.68f898bac6356b153788044b6c29d177
                           .group:0000000000000000 wm4.mss_legacy_defines.h.20.594d5f03b0f5314e3b2e801d98173479
                           .group:0000000000000000 wm4.mss_assert.h.10.09559128d1f6dbd833ab24347e71c76c
                           .group:0000000000000000 wm4.mss_plic.h.38.63bddd8b7aeec5445a0ab9c829719734
                           .group:0000000000000000 wm4.mss_sw_config.h.37.2f79a8233593e640cb9660b9e2020907
                           .group:0000000000000000 wm4.mss_h2f.h.74.cd8faa9c47f68d379bc29c44c0034060

NO UNDEFINED SYMBOLS
