   1              		.file	"mss_peripherals.c"
   2              		.option nopic
   3              		.attribute arch, "rv64i2p0_m2p0_a2p0_f2p0_d2p0_c2p0"
   4              		.attribute unaligned_access, 0
   5              		.attribute stack_align, 16
   6              		.text
   7              	.Ltext0:
   8              		.cfi_sections	.debug_frame
   9              		.globl	LIBERO_SETTING_CONTEXT_EN
  10              		.section	.rodata.LIBERO_SETTING_CONTEXT_EN,"a"
  11              		.align	3
  14              	LIBERO_SETTING_CONTEXT_EN:
  15 0000 00000000 		.word	0
  16 0004 00000000 		.word	0
  17 0008 0F000000 		.word	15
  18 000c 0F000000 		.word	15
  19              		.globl	PERIPHERAL_SETUP
  20              		.section	.rodata.PERIPHERAL_SETUP,"a"
  21              		.align	3
  24              	PERIPHERAL_SETUP:
  25 0000 00000000 		.word	0
  26 0004 00000000 		.word	0
  27 0008 01000000 		.word	1
  28 000c 20000000 		.word	32
  29 0010 01000000 		.word	1
  30 0014 00000000 		.word	0
  31 0018 02000000 		.word	2
  32 001c 40000000 		.word	64
  33 0020 02000000 		.word	2
  34 0024 00000000 		.word	0
  35 0028 04000000 		.word	4
  36 002c 80000000 		.word	128
  37 0030 03000000 		.word	3
  38 0034 00000000 		.word	0
  39 0038 08000000 		.word	8
  40 003c 00010000 		.word	256
  41 0040 04000000 		.word	4
  42 0044 00000000 		.word	0
  43 0048 10000000 		.word	16
  44 004c 00020000 		.word	512
  45 0050 05000000 		.word	5
  46 0054 00000000 		.word	0
  47 0058 20000000 		.word	32
  48 005c 00000000 		.word	0
  49 0060 06000000 		.word	6
  50 0064 00000000 		.word	0
  51 0068 40000000 		.word	64
  52 006c 00000000 		.word	0
  53 0070 07000000 		.word	7
  54 0074 00000000 		.word	0
  55 0078 80000000 		.word	128
  56 007c 00000000 		.word	0
  57 0080 08000000 		.word	8
  58 0084 00000000 		.word	0
  59 0088 00010000 		.word	256
  60 008c 00000000 		.word	0
  61 0090 09000000 		.word	9
  62 0094 00000000 		.word	0
  63 0098 00020000 		.word	512
  64 009c 00000000 		.word	0
  65 00a0 0A000000 		.word	10
  66 00a4 00000000 		.word	0
  67 00a8 00040000 		.word	1024
  68 00ac 00040000 		.word	1024
  69 00b0 0B000000 		.word	11
  70 00b4 00000000 		.word	0
  71 00b8 00080000 		.word	2048
  72 00bc 00080000 		.word	2048
  73 00c0 0C000000 		.word	12
  74 00c4 00000000 		.word	0
  75 00c8 00100000 		.word	4096
  76 00cc 00100000 		.word	4096
  77 00d0 0D000000 		.word	13
  78 00d4 00000000 		.word	0
  79 00d8 00200000 		.word	8192
  80 00dc 00200000 		.word	8192
  81 00e0 0E000000 		.word	14
  82 00e4 00000000 		.word	0
  83 00e8 00400000 		.word	16384
  84 00ec 00400000 		.word	16384
  85 00f0 0F000000 		.word	15
  86 00f4 00000000 		.word	0
  87 00f8 00800000 		.word	32768
  88 00fc 00800000 		.word	32768
  89 0100 10000000 		.word	16
  90 0104 00000000 		.word	0
  91 0108 00000100 		.word	65536
  92 010c 02000000 		.word	2
  93 0110 11000000 		.word	17
  94 0114 00000000 		.word	0
  95 0118 00000200 		.word	131072
  96 011c 04000000 		.word	4
  97 0120 12000000 		.word	18
  98 0124 00000000 		.word	0
  99 0128 00000400 		.word	262144
 100 012c 10000000 		.word	16
 101 0130 13000000 		.word	19
 102 0134 00000000 		.word	0
 103 0138 00000800 		.word	524288
 104 013c 00001000 		.word	1048576
 105 0140 14000000 		.word	20
 106 0144 00000000 		.word	0
 107 0148 00001000 		.word	1048576
 108 014c 00002000 		.word	2097152
 109 0150 15000000 		.word	21
 110 0154 00000000 		.word	0
 111 0158 00002000 		.word	2097152
 112 015c 00004000 		.word	4194304
 113 0160 16000000 		.word	22
 114 0164 00000000 		.word	0
 115 0168 00004000 		.word	4194304
 116 016c 00000400 		.word	262144
 117 0170 17000000 		.word	23
 118 0174 00000000 		.word	0
 119 0178 00008000 		.word	8388608
 120 017c 00000000 		.word	0
 121 0180 18000000 		.word	24
 122 0184 00000000 		.word	0
 123 0188 00000001 		.word	16777216
 124 018c 00000010 		.word	268435456
 125 0190 19000000 		.word	25
 126 0194 00000000 		.word	0
 127 0198 00000002 		.word	33554432
 128 019c 00000100 		.word	65536
 129 01a0 1A000000 		.word	26
 130 01a4 00000000 		.word	0
 131 01a8 00000004 		.word	67108864
 132 01ac 00000800 		.word	524288
 133 01b0 1B000000 		.word	27
 134 01b4 00000000 		.word	0
 135 01b8 00000008 		.word	134217728
 136 01bc 00000010 		.word	268435456
 137 01c0 1C000000 		.word	28
 138 01c4 00000000 		.word	0
 139 01c8 00000040 		.word	1073741824
 140 01cc 08000000 		.word	8
 141 01d0 1D000000 		.word	29
 142 01d4 00000000 		.word	0
 143 01d8 00000040 		.word	1073741824
 144 01dc 08000000 		.word	8
 145 01e0 1E000000 		.word	30
 146 01e4 00000000 		.word	0
 147 01e8 00000040 		.word	1073741824
 148 01ec 08000000 		.word	8
 149 01f0 1F000000 		.word	31
 150 01f4 00000000 		.word	0
 151 01f8 00000080 		.word	-2147483648
 152 01fc 00000020 		.word	536870912
 153 0200 20000000 		.word	32
 154 0204 01000000 		.word	1
 155 0208 01000000 		.word	1
 156 020c 00000001 		.word	16777216
 157 0210 21000000 		.word	33
 158 0214 01000000 		.word	1
 159 0218 02000000 		.word	2
 160 021c 00000002 		.word	33554432
 161 0220 22000000 		.word	34
 162 0224 01000000 		.word	1
 163 0228 04000000 		.word	4
 164 022c 00000004 		.word	67108864
 165 0230 23000000 		.word	35
 166 0234 01000000 		.word	1
 167 0238 08000000 		.word	8
 168 023c 00000008 		.word	134217728
 169              		.section	.text.verify_context_enable,"ax",@progbits
 170              		.align	1
 172              	verify_context_enable:
 173              	.LFB23:
 174              		.file 1 "../src/platform/mpfs_hal/common/mss_peripherals.c"
   1:../src/platform/mpfs_hal/common/mss_peripherals.c **** /*******************************************************************************
   2:../src/platform/mpfs_hal/common/mss_peripherals.c ****  * Copyright 2019-2022 Microchip FPGA Embedded Systems Solutions.
   3:../src/platform/mpfs_hal/common/mss_peripherals.c ****  *
   4:../src/platform/mpfs_hal/common/mss_peripherals.c ****  * SPDX-License-Identifier: MIT
   5:../src/platform/mpfs_hal/common/mss_peripherals.c ****  *
   6:../src/platform/mpfs_hal/common/mss_peripherals.c ****  * MPFS HAL Embedded Software
   7:../src/platform/mpfs_hal/common/mss_peripherals.c ****  *
   8:../src/platform/mpfs_hal/common/mss_peripherals.c ****  */
   9:../src/platform/mpfs_hal/common/mss_peripherals.c **** /*******************************************************************************
  10:../src/platform/mpfs_hal/common/mss_peripherals.c ****  * @file mss_peripherals.c
  11:../src/platform/mpfs_hal/common/mss_peripherals.c ****  * @author Microchip-FPGA Embedded Systems Solutions
  12:../src/platform/mpfs_hal/common/mss_peripherals.c ****  * @brief PolarFire SoC MSS functions related to peripherals.
  13:../src/platform/mpfs_hal/common/mss_peripherals.c ****  *
  14:../src/platform/mpfs_hal/common/mss_peripherals.c ****  */
  15:../src/platform/mpfs_hal/common/mss_peripherals.c **** /*=========================================================================*//**
  16:../src/platform/mpfs_hal/common/mss_peripherals.c **** 
  17:../src/platform/mpfs_hal/common/mss_peripherals.c ****  *//*=========================================================================*/
  18:../src/platform/mpfs_hal/common/mss_peripherals.c **** #include <stdio.h>
  19:../src/platform/mpfs_hal/common/mss_peripherals.c **** #include <string.h>
  20:../src/platform/mpfs_hal/common/mss_peripherals.c **** #include "mpfs_hal/mss_hal.h"
  21:../src/platform/mpfs_hal/common/mss_peripherals.c **** 
  22:../src/platform/mpfs_hal/common/mss_peripherals.c **** const uint32_t LIBERO_SETTING_CONTEXT_EN[][2U] = {
  23:../src/platform/mpfs_hal/common/mss_peripherals.c ****                 {LIBERO_SETTING_CONTEXT_A_EN,
  24:../src/platform/mpfs_hal/common/mss_peripherals.c ****                  LIBERO_SETTING_CONTEXT_B_EN},
  25:../src/platform/mpfs_hal/common/mss_peripherals.c ****                 {LIBERO_SETTING_CONTEXT_A_EN_FIC,
  26:../src/platform/mpfs_hal/common/mss_peripherals.c ****                  LIBERO_SETTING_CONTEXT_B_EN_FIC},
  27:../src/platform/mpfs_hal/common/mss_peripherals.c **** };
  28:../src/platform/mpfs_hal/common/mss_peripherals.c **** 
  29:../src/platform/mpfs_hal/common/mss_peripherals.c **** /* offsets used in PERIPHERAL_SETUP array */
  30:../src/platform/mpfs_hal/common/mss_peripherals.c **** #define PERIPHERAL_INDEX_OFFSET         0U /* used for sanity check */
  31:../src/platform/mpfs_hal/common/mss_peripherals.c **** #define CONTEXT_EN_INDEX_OFFSET         1U
  32:../src/platform/mpfs_hal/common/mss_peripherals.c **** #define CONTEXT_MASK_INDEX_OFFSET       2U
  33:../src/platform/mpfs_hal/common/mss_peripherals.c **** #define CONTEXT_SUBCLK_INDEX_OFFSET     3U
  34:../src/platform/mpfs_hal/common/mss_peripherals.c **** 
  35:../src/platform/mpfs_hal/common/mss_peripherals.c **** const uint32_t PERIPHERAL_SETUP[][4U] = {
  36:../src/platform/mpfs_hal/common/mss_peripherals.c ****         {MSS_PERIPH_MMUART0,CONTEXT_EN_INDEX, CONTEXT_EN_MASK_MMUART0,SUBBLK_CLOCK_CR_MMUART0_MASK}
  37:../src/platform/mpfs_hal/common/mss_peripherals.c ****         {MSS_PERIPH_MMUART1,CONTEXT_EN_INDEX, CONTEXT_EN_MASK_MMUART1,SUBBLK_CLOCK_CR_MMUART1_MASK}
  38:../src/platform/mpfs_hal/common/mss_peripherals.c ****         {MSS_PERIPH_MMUART2,CONTEXT_EN_INDEX, CONTEXT_EN_MASK_MMUART2,SUBBLK_CLOCK_CR_MMUART2_MASK}
  39:../src/platform/mpfs_hal/common/mss_peripherals.c ****         {MSS_PERIPH_MMUART3,CONTEXT_EN_INDEX, CONTEXT_EN_MASK_MMUART3,SUBBLK_CLOCK_CR_MMUART3_MASK}
  40:../src/platform/mpfs_hal/common/mss_peripherals.c ****         {MSS_PERIPH_MMUART4,CONTEXT_EN_INDEX, CONTEXT_EN_MASK_MMUART4,SUBBLK_CLOCK_CR_MMUART4_MASK}
  41:../src/platform/mpfs_hal/common/mss_peripherals.c ****         {MSS_PERIPH_WDOG0,CONTEXT_EN_INDEX, CONTEXT_EN_MASK_WDOG0,SUBBLK_CLOCK_NA_MASK},
  42:../src/platform/mpfs_hal/common/mss_peripherals.c ****         {MSS_PERIPH_WDOG1,CONTEXT_EN_INDEX, CONTEXT_EN_MASK_WDOG1,SUBBLK_CLOCK_NA_MASK},
  43:../src/platform/mpfs_hal/common/mss_peripherals.c ****         {MSS_PERIPH_WDOG2,CONTEXT_EN_INDEX, CONTEXT_EN_MASK_WDOG2,SUBBLK_CLOCK_NA_MASK},
  44:../src/platform/mpfs_hal/common/mss_peripherals.c ****         {MSS_PERIPH_WDOG3,CONTEXT_EN_INDEX, CONTEXT_EN_MASK_WDOG3,SUBBLK_CLOCK_NA_MASK},
  45:../src/platform/mpfs_hal/common/mss_peripherals.c ****         {MSS_PERIPH_WDOG4,CONTEXT_EN_INDEX, CONTEXT_EN_MASK_WDOG4,SUBBLK_CLOCK_NA_MASK},
  46:../src/platform/mpfs_hal/common/mss_peripherals.c ****         {MSS_PERIPH_SPI0,CONTEXT_EN_INDEX, CONTEXT_EN_MASK_SPI0,SUBBLK_CLOCK_CR_SPI0_MASK},
  47:../src/platform/mpfs_hal/common/mss_peripherals.c ****         {MSS_PERIPH_SPI1,CONTEXT_EN_INDEX, CONTEXT_EN_MASK_SPI1,SUBBLK_CLOCK_CR_SPI1_MASK},
  48:../src/platform/mpfs_hal/common/mss_peripherals.c ****         {MSS_PERIPH_I2C0,CONTEXT_EN_INDEX, CONTEXT_EN_MASK_I2C0,SUBBLK_CLOCK_CR_I2C0_MASK},
  49:../src/platform/mpfs_hal/common/mss_peripherals.c ****         {MSS_PERIPH_I2C1,CONTEXT_EN_INDEX, CONTEXT_EN_MASK_I2C1,SUBBLK_CLOCK_CR_I2C1_MASK},
  50:../src/platform/mpfs_hal/common/mss_peripherals.c ****         {MSS_PERIPH_CAN0,CONTEXT_EN_INDEX, CONTEXT_EN_MASK_CAN0,SUBBLK_CLOCK_CR_CAN0_MASK},
  51:../src/platform/mpfs_hal/common/mss_peripherals.c ****         {MSS_PERIPH_CAN1,CONTEXT_EN_INDEX, CONTEXT_EN_MASK_CAN1,SUBBLK_CLOCK_CR_CAN1_MASK},
  52:../src/platform/mpfs_hal/common/mss_peripherals.c ****         {MSS_PERIPH_MAC0,CONTEXT_EN_INDEX, CONTEXT_EN_MASK_MAC0,SUBBLK_CLOCK_CR_MAC0_MASK},
  53:../src/platform/mpfs_hal/common/mss_peripherals.c ****         {MSS_PERIPH_MAC1,CONTEXT_EN_INDEX, CONTEXT_EN_MASK_MAC1,SUBBLK_CLOCK_CR_MAC1_MASK},
  54:../src/platform/mpfs_hal/common/mss_peripherals.c ****         {MSS_PERIPH_TIMER,CONTEXT_EN_INDEX, CONTEXT_EN_MASK_TIMER,SUBBLK_CLOCK_CR_TIMER_MASK},
  55:../src/platform/mpfs_hal/common/mss_peripherals.c ****         {MSS_PERIPH_GPIO0,CONTEXT_EN_INDEX, CONTEXT_EN_MASK_GPIO0,SUBBLK_CLOCK_CR_GPIO0_MASK},
  56:../src/platform/mpfs_hal/common/mss_peripherals.c ****         {MSS_PERIPH_GPIO1,CONTEXT_EN_INDEX, CONTEXT_EN_MASK_GPIO1,SUBBLK_CLOCK_CR_GPIO1_MASK},
  57:../src/platform/mpfs_hal/common/mss_peripherals.c ****         {MSS_PERIPH_GPIO2,CONTEXT_EN_INDEX, CONTEXT_EN_MASK_GPIO2,SUBBLK_CLOCK_CR_GPIO2_MASK},
  58:../src/platform/mpfs_hal/common/mss_peripherals.c ****         {MSS_PERIPH_RTC,CONTEXT_EN_INDEX, CONTEXT_EN_MASK_RTC,SUBBLK_CLOCK_CR_RTC_MASK},
  59:../src/platform/mpfs_hal/common/mss_peripherals.c ****         {MSS_PERIPH_M2FINT,CONTEXT_EN_INDEX, CONTEXT_EN_MASK_M2FINT,  SUBBLK_CLOCK_NA_MASK},
  60:../src/platform/mpfs_hal/common/mss_peripherals.c ****         {MSS_PERIPH_CRYPTO,CONTEXT_EN_INDEX, CONTEXT_EN_MASK_CRYPTO,SUBBLK_CLOCK_CR_ATHENA_MASK},
  61:../src/platform/mpfs_hal/common/mss_peripherals.c ****         {MSS_PERIPH_USB,CONTEXT_EN_INDEX, CONTEXT_EN_MASK_USB,SUBBLK_CLOCK_CR_USB_MASK},
  62:../src/platform/mpfs_hal/common/mss_peripherals.c ****         {MSS_PERIPH_QSPIXIP,CONTEXT_EN_INDEX, CONTEXT_EN_MASK_QSPIXIP,SUBBLK_CLOCK_CR_QSPI_MASK},
  63:../src/platform/mpfs_hal/common/mss_peripherals.c ****         {MSS_PERIPH_ATHENA,CONTEXT_EN_INDEX, CONTEXT_EN_MASK_ATHENA,SUBBLK_CLOCK_CR_ATHENA_MASK},
  64:../src/platform/mpfs_hal/common/mss_peripherals.c ****         {MSS_PERIPH_TRACE,CONTEXT_EN_INDEX, CONTEXT_EN_MASK_MMC,SUBBLK_CLOCK_CR_MMC_MASK},
  65:../src/platform/mpfs_hal/common/mss_peripherals.c ****         {MSS_PERIPH_MAILBOX_SC,CONTEXT_EN_INDEX, CONTEXT_EN_MASK_MMC,SUBBLK_CLOCK_CR_MMC_MASK},
  66:../src/platform/mpfs_hal/common/mss_peripherals.c ****         {MSS_PERIPH_EMMC,CONTEXT_EN_INDEX, CONTEXT_EN_MASK_MMC,SUBBLK_CLOCK_CR_MMC_MASK},
  67:../src/platform/mpfs_hal/common/mss_peripherals.c ****         {MSS_PERIPH_CFM,CONTEXT_EN_INDEX, CONTEXT_EN_MASK_CFM,SUBBLK_CLOCK_CR_CFM_MASK},
  68:../src/platform/mpfs_hal/common/mss_peripherals.c ****         {MSS_PERIPH_FIC0,CONTEXT_EN_INDEX_FIC, CONTEXT_EN_MASK_FIC0,SUBBLK_CLOCK_CR_FIC0_MASK},
  69:../src/platform/mpfs_hal/common/mss_peripherals.c ****         {MSS_PERIPH_FIC1,CONTEXT_EN_INDEX_FIC, CONTEXT_EN_MASK_FIC1,SUBBLK_CLOCK_CR_FIC1_MASK},
  70:../src/platform/mpfs_hal/common/mss_peripherals.c ****         {MSS_PERIPH_FIC2,CONTEXT_EN_INDEX_FIC, CONTEXT_EN_MASK_FIC2,SUBBLK_CLOCK_CR_FIC2_MASK},
  71:../src/platform/mpfs_hal/common/mss_peripherals.c ****         {MSS_PERIPH_FIC3,CONTEXT_EN_INDEX_FIC, CONTEXT_EN_MASK_FIC3,SUBBLK_CLOCK_CR_FIC3_MASK}
  72:../src/platform/mpfs_hal/common/mss_peripherals.c **** };
  73:../src/platform/mpfs_hal/common/mss_peripherals.c **** 
  74:../src/platform/mpfs_hal/common/mss_peripherals.c **** /**
  75:../src/platform/mpfs_hal/common/mss_peripherals.c ****  * If contexts set-up, verify allowed access to peripheral
  76:../src/platform/mpfs_hal/common/mss_peripherals.c ****  * @param option - Two option, , FIC enables set separately. CONTEXT_EN_INDEX_FIC or CONTEXT_EN_IND
  77:../src/platform/mpfs_hal/common/mss_peripherals.c ****  * @param periph_context_mask See CONTEXT_EN_MASK_ defines for options
  78:../src/platform/mpfs_hal/common/mss_peripherals.c ****  * @param hart The hart ID of origin of request.
  79:../src/platform/mpfs_hal/common/mss_peripherals.c ****  * @return
  80:../src/platform/mpfs_hal/common/mss_peripherals.c ****  */
  81:../src/platform/mpfs_hal/common/mss_peripherals.c **** static inline uint8_t verify_context_enable(uint8_t option, uint32_t periph_context_mask , uint8_t 
  82:../src/platform/mpfs_hal/common/mss_peripherals.c **** {
 175              		.loc 1 82 1
 176              		.cfi_startproc
 177 0000 7971     		addi	sp,sp,-48
 178              		.cfi_def_cfa_offset 48
 179 0002 22F4     		sd	s0,40(sp)
 180              		.cfi_offset 8, -8
 181 0004 0018     		addi	s0,sp,48
 182              		.cfi_def_cfa 8, 0
 183 0006 AA87     		mv	a5,a0
 184 0008 AE86     		mv	a3,a1
 185 000a 3287     		mv	a4,a2
 186 000c A30FF4FC 		sb	a5,-33(s0)
 187 0010 B687     		mv	a5,a3
 188 0012 232CF4FC 		sw	a5,-40(s0)
 189 0016 BA87     		mv	a5,a4
 190 0018 230FF4FC 		sb	a5,-34(s0)
  83:../src/platform/mpfs_hal/common/mss_peripherals.c ****     uint8_t result = 1U;
 191              		.loc 1 83 13
 192 001c 8547     		li	a5,1
 193 001e A307F4FE 		sb	a5,-17(s0)
  84:../src/platform/mpfs_hal/common/mss_peripherals.c **** #if ((LIBERO_SETTING_MEM_CONFIGS_ENABLED & PMP_ENABLED_MASK) == PMP_ENABLED_MASK)
  85:../src/platform/mpfs_hal/common/mss_peripherals.c ****     if (hart != (uint8_t) 0U)
  86:../src/platform/mpfs_hal/common/mss_peripherals.c ****     {
  87:../src/platform/mpfs_hal/common/mss_peripherals.c ****         if (LIBERO_SETTING_CONTEXT_A_HART_EN & hart )
  88:../src/platform/mpfs_hal/common/mss_peripherals.c ****         {
  89:../src/platform/mpfs_hal/common/mss_peripherals.c ****             if (LIBERO_SETTING_CONTEXT_EN[option][0U] & periph_context_mask)
  90:../src/platform/mpfs_hal/common/mss_peripherals.c ****             {
  91:../src/platform/mpfs_hal/common/mss_peripherals.c ****                 result = 0U;
  92:../src/platform/mpfs_hal/common/mss_peripherals.c ****             }
  93:../src/platform/mpfs_hal/common/mss_peripherals.c ****         }
  94:../src/platform/mpfs_hal/common/mss_peripherals.c **** 
  95:../src/platform/mpfs_hal/common/mss_peripherals.c ****         if (LIBERO_SETTING_CONTEXT_B_HART_EN & hart )
  96:../src/platform/mpfs_hal/common/mss_peripherals.c ****         {
  97:../src/platform/mpfs_hal/common/mss_peripherals.c ****             if (LIBERO_SETTING_CONTEXT_EN[option][1U] & periph_context_mask)
  98:../src/platform/mpfs_hal/common/mss_peripherals.c ****             {
  99:../src/platform/mpfs_hal/common/mss_peripherals.c ****                 result = 0U;
 100:../src/platform/mpfs_hal/common/mss_peripherals.c ****             }
 101:../src/platform/mpfs_hal/common/mss_peripherals.c ****         }
 102:../src/platform/mpfs_hal/common/mss_peripherals.c ****     }
 103:../src/platform/mpfs_hal/common/mss_peripherals.c ****     else
 104:../src/platform/mpfs_hal/common/mss_peripherals.c ****     {
 105:../src/platform/mpfs_hal/common/mss_peripherals.c ****         hart = 0U;
 106:../src/platform/mpfs_hal/common/mss_peripherals.c ****     }
 107:../src/platform/mpfs_hal/common/mss_peripherals.c **** #else
 108:../src/platform/mpfs_hal/common/mss_peripherals.c ****     (void)hart;
 109:../src/platform/mpfs_hal/common/mss_peripherals.c ****     (void)periph_context_mask;
 110:../src/platform/mpfs_hal/common/mss_peripherals.c ****     (void)option;
 111:../src/platform/mpfs_hal/common/mss_peripherals.c ****     result = 0U;
 194              		.loc 1 111 12
 195 0022 A30704FE 		sb	zero,-17(s0)
 112:../src/platform/mpfs_hal/common/mss_peripherals.c **** #endif
 113:../src/platform/mpfs_hal/common/mss_peripherals.c ****     return result;
 196              		.loc 1 113 12
 197 0026 8347F4FE 		lbu	a5,-17(s0)
 114:../src/platform/mpfs_hal/common/mss_peripherals.c **** }
 198              		.loc 1 114 1
 199 002a 3E85     		mv	a0,a5
 200 002c 2274     		ld	s0,40(sp)
 201              		.cfi_restore 8
 202              		.cfi_def_cfa 2, 48
 203 002e 4561     		addi	sp,sp,48
 204              		.cfi_def_cfa_offset 0
 205 0030 8280     		jr	ra
 206              		.cfi_endproc
 207              	.LFE23:
 209              		.section	.text.peripheral_on_off,"ax",@progbits
 210              		.align	1
 212              	peripheral_on_off:
 213              	.LFB24:
 115:../src/platform/mpfs_hal/common/mss_peripherals.c **** 
 116:../src/platform/mpfs_hal/common/mss_peripherals.c **** /**
 117:../src/platform/mpfs_hal/common/mss_peripherals.c ****  * Turn on/off mss peripheral as required
 118:../src/platform/mpfs_hal/common/mss_peripherals.c ****  * @param peripheral_mask
 119:../src/platform/mpfs_hal/common/mss_peripherals.c ****  * @param req_state
 120:../src/platform/mpfs_hal/common/mss_peripherals.c ****  */
 121:../src/platform/mpfs_hal/common/mss_peripherals.c **** static inline void peripheral_on_off(uint32_t peripheral_mask , PERIPH_RESET_STATE req_state)
 122:../src/platform/mpfs_hal/common/mss_peripherals.c **** {
 214              		.loc 1 122 1
 215              		.cfi_startproc
 216 0000 0111     		addi	sp,sp,-32
 217              		.cfi_def_cfa_offset 32
 218 0002 22EC     		sd	s0,24(sp)
 219              		.cfi_offset 8, -8
 220 0004 0010     		addi	s0,sp,32
 221              		.cfi_def_cfa 8, 0
 222 0006 AA87     		mv	a5,a0
 223 0008 2E87     		mv	a4,a1
 224 000a 2326F4FE 		sw	a5,-20(s0)
 225 000e BA87     		mv	a5,a4
 226 0010 2324F4FE 		sw	a5,-24(s0)
 123:../src/platform/mpfs_hal/common/mss_peripherals.c ****     if (req_state == PERIPHERAL_OFF)
 227              		.loc 1 123 8
 228 0014 832784FE 		lw	a5,-24(s0)
 229 0018 1B870700 		sext.w	a4,a5
 230 001c 8547     		li	a5,1
 231 001e 6313F704 		bne	a4,a5,.L4
 124:../src/platform/mpfs_hal/common/mss_peripherals.c ****     {
 125:../src/platform/mpfs_hal/common/mss_peripherals.c ****         /* Turn off clock */
 126:../src/platform/mpfs_hal/common/mss_peripherals.c ****         SYSREG->SUBBLK_CLOCK_CR &= (uint32_t)~(peripheral_mask);
 232              		.loc 1 126 33
 233 0022 B7270020 		li	a5,536879104
 234 0026 83A74708 		lw	a5,132(a5)
 235 002a 9B860700 		sext.w	a3,a5
 236              		.loc 1 126 46
 237 002e 8327C4FE 		lw	a5,-20(s0)
 238 0032 93C7F7FF 		not	a5,a5
 239 0036 1B870700 		sext.w	a4,a5
 240              		.loc 1 126 33
 241 003a B7270020 		li	a5,536879104
 242 003e 758F     		and	a4,a3,a4
 243 0040 0127     		sext.w	a4,a4
 244 0042 23A2E708 		sw	a4,132(a5)
 127:../src/platform/mpfs_hal/common/mss_peripherals.c ****         /* Hold in reset */
 128:../src/platform/mpfs_hal/common/mss_peripherals.c ****         SYSREG->SOFT_RESET_CR   |= (uint32_t)(peripheral_mask);
 245              		.loc 1 128 33
 246 0046 B7270020 		li	a5,536879104
 247 004a 83A78708 		lw	a5,136(a5)
 248 004e 9B860700 		sext.w	a3,a5
 249 0052 B7270020 		li	a5,536879104
 250 0056 0327C4FE 		lw	a4,-20(s0)
 251 005a 558F     		or	a4,a4,a3
 252 005c 0127     		sext.w	a4,a4
 253 005e 23A4E708 		sw	a4,136(a5)
 129:../src/platform/mpfs_hal/common/mss_peripherals.c ****     }
 130:../src/platform/mpfs_hal/common/mss_peripherals.c ****     else
 131:../src/platform/mpfs_hal/common/mss_peripherals.c ****     {
 132:../src/platform/mpfs_hal/common/mss_peripherals.c ****         /* Turn on clock */
 133:../src/platform/mpfs_hal/common/mss_peripherals.c ****         SYSREG->SUBBLK_CLOCK_CR |= (peripheral_mask);
 134:../src/platform/mpfs_hal/common/mss_peripherals.c ****         /* Remove soft reset */
 135:../src/platform/mpfs_hal/common/mss_peripherals.c ****         SYSREG->SOFT_RESET_CR   &= (uint32_t)~(peripheral_mask);
 136:../src/platform/mpfs_hal/common/mss_peripherals.c ****     }
 137:../src/platform/mpfs_hal/common/mss_peripherals.c **** }
 254              		.loc 1 137 1
 255 0062 89A0     		j	.L6
 256              	.L4:
 133:../src/platform/mpfs_hal/common/mss_peripherals.c ****         /* Remove soft reset */
 257              		.loc 1 133 33
 258 0064 B7270020 		li	a5,536879104
 259 0068 83A74708 		lw	a5,132(a5)
 260 006c 9B860700 		sext.w	a3,a5
 261 0070 B7270020 		li	a5,536879104
 262 0074 0327C4FE 		lw	a4,-20(s0)
 263 0078 558F     		or	a4,a4,a3
 264 007a 0127     		sext.w	a4,a4
 265 007c 23A2E708 		sw	a4,132(a5)
 135:../src/platform/mpfs_hal/common/mss_peripherals.c ****     }
 266              		.loc 1 135 33
 267 0080 B7270020 		li	a5,536879104
 268 0084 83A78708 		lw	a5,136(a5)
 269 0088 9B860700 		sext.w	a3,a5
 135:../src/platform/mpfs_hal/common/mss_peripherals.c ****     }
 270              		.loc 1 135 46
 271 008c 8327C4FE 		lw	a5,-20(s0)
 272 0090 93C7F7FF 		not	a5,a5
 273 0094 1B870700 		sext.w	a4,a5
 135:../src/platform/mpfs_hal/common/mss_peripherals.c ****     }
 274              		.loc 1 135 33
 275 0098 B7270020 		li	a5,536879104
 276 009c 758F     		and	a4,a3,a4
 277 009e 0127     		sext.w	a4,a4
 278 00a0 23A4E708 		sw	a4,136(a5)
 279              	.L6:
 280              		.loc 1 137 1
 281 00a4 0100     		nop
 282 00a6 6264     		ld	s0,24(sp)
 283              		.cfi_restore 8
 284              		.cfi_def_cfa 2, 32
 285 00a8 0561     		addi	sp,sp,32
 286              		.cfi_def_cfa_offset 0
 287 00aa 8280     		jr	ra
 288              		.cfi_endproc
 289              	.LFE24:
 291              		.section	.text.mss_config_clk_rst,"ax",@progbits
 292              		.align	1
 293              		.weak	mss_config_clk_rst
 295              	mss_config_clk_rst:
 296              	.LFB25:
 138:../src/platform/mpfs_hal/common/mss_peripherals.c **** 
 139:../src/platform/mpfs_hal/common/mss_peripherals.c **** 
 140:../src/platform/mpfs_hal/common/mss_peripherals.c **** /***************************************************************************//**
 141:../src/platform/mpfs_hal/common/mss_peripherals.c ****  * See mss_peripherals.h for details of how to use this function.
 142:../src/platform/mpfs_hal/common/mss_peripherals.c ****  */
 143:../src/platform/mpfs_hal/common/mss_peripherals.c **** __attribute__((weak))  uint8_t mss_config_clk_rst(mss_peripherals peripheral, uint8_t hart, PERIPH_
 144:../src/platform/mpfs_hal/common/mss_peripherals.c **** {
 297              		.loc 1 144 1
 298              		.cfi_startproc
 299 0000 7971     		addi	sp,sp,-48
 300              		.cfi_def_cfa_offset 48
 301 0002 06F4     		sd	ra,40(sp)
 302 0004 22F0     		sd	s0,32(sp)
 303              		.cfi_offset 1, -8
 304              		.cfi_offset 8, -16
 305 0006 0018     		addi	s0,sp,48
 306              		.cfi_def_cfa 8, 0
 307 0008 AA87     		mv	a5,a0
 308 000a AE86     		mv	a3,a1
 309 000c 3287     		mv	a4,a2
 310 000e 232EF4FC 		sw	a5,-36(s0)
 311 0012 B687     		mv	a5,a3
 312 0014 A30DF4FC 		sb	a5,-37(s0)
 313 0018 BA87     		mv	a5,a4
 314 001a 232AF4FC 		sw	a5,-44(s0)
 145:../src/platform/mpfs_hal/common/mss_peripherals.c ****     uint8_t result = 1U;
 315              		.loc 1 145 13
 316 001e 8547     		li	a5,1
 317 0020 A307F4FE 		sb	a5,-17(s0)
 146:../src/platform/mpfs_hal/common/mss_peripherals.c **** 
 147:../src/platform/mpfs_hal/common/mss_peripherals.c ****     ASSERT(PERIPHERAL_SETUP[peripheral][PERIPHERAL_INDEX_OFFSET] == peripheral);
 318              		.loc 1 147 5
 319 0024 17070000 		lla	a4,PERIPHERAL_SETUP
 319      13070700 
 320 002c 8367C4FD 		lwu	a5,-36(s0)
 321 0030 9207     		slli	a5,a5,4
 322 0032 BA97     		add	a5,a4,a5
 323 0034 9843     		lw	a4,0(a5)
 324 0036 8327C4FD 		lw	a5,-36(s0)
 325 003a 8127     		sext.w	a5,a5
 326 003c 6383E700 		beq	a5,a4,.L8
 327              		.loc 1 147 5 is_stmt 0 discriminator 1
 328              	 #APP
 329              	# 147 "../src/platform/mpfs_hal/common/mss_peripherals.c" 1
 148              	
 330              		ebreak
 331              	# 0 "" 2
 332              	 #NO_APP
 333              	.L8:
 149:../src/platform/mpfs_hal/common/mss_peripherals.c ****     result = verify_context_enable((uint8_t)PERIPHERAL_SETUP[peripheral][CONTEXT_EN_INDEX_OFFSET], 
 334              		.loc 1 149 73 is_stmt 1
 335 0042 17070000 		lla	a4,PERIPHERAL_SETUP
 335      13070700 
 336 004a 8367C4FD 		lwu	a5,-36(s0)
 337 004e 9207     		slli	a5,a5,4
 338 0050 BA97     		add	a5,a4,a5
 339 0052 DC43     		lw	a5,4(a5)
 340              		.loc 1 149 14
 341 0054 93F6F70F 		andi	a3,a5,0xff
 342 0058 17070000 		lla	a4,PERIPHERAL_SETUP
 342      13070700 
 343 0060 8367C4FD 		lwu	a5,-36(s0)
 344 0064 9207     		slli	a5,a5,4
 345 0066 BA97     		add	a5,a4,a5
 346 0068 9C47     		lw	a5,8(a5)
 347 006a 0347B4FD 		lbu	a4,-37(s0)
 348 006e 3A86     		mv	a2,a4
 349 0070 BE85     		mv	a1,a5
 350 0072 3685     		mv	a0,a3
 351 0074 97000000 		call	verify_context_enable
 351      E7800000 
 352 007c AA87     		mv	a5,a0
 353 007e A307F4FE 		sb	a5,-17(s0)
 150:../src/platform/mpfs_hal/common/mss_peripherals.c **** 
 151:../src/platform/mpfs_hal/common/mss_peripherals.c ****     if (result == 0U)
 354              		.loc 1 151 8
 355 0082 8347F4FE 		lbu	a5,-17(s0)
 356 0086 93F7F70F 		andi	a5,a5,0xff
 357 008a 95E3     		bne	a5,zero,.L9
 152:../src/platform/mpfs_hal/common/mss_peripherals.c ****     {
 153:../src/platform/mpfs_hal/common/mss_peripherals.c ****         peripheral_on_off(PERIPHERAL_SETUP[peripheral][CONTEXT_SUBCLK_INDEX_OFFSET] , req_state);
 358              		.loc 1 153 9
 359 008c 17070000 		lla	a4,PERIPHERAL_SETUP
 359      13070700 
 360 0094 8367C4FD 		lwu	a5,-36(s0)
 361 0098 9207     		slli	a5,a5,4
 362 009a BA97     		add	a5,a4,a5
 363 009c DC47     		lw	a5,12(a5)
 364 009e 032744FD 		lw	a4,-44(s0)
 365 00a2 BA85     		mv	a1,a4
 366 00a4 3E85     		mv	a0,a5
 367 00a6 97000000 		call	peripheral_on_off
 367      E7800000 
 368              	.L9:
 154:../src/platform/mpfs_hal/common/mss_peripherals.c ****     }
 155:../src/platform/mpfs_hal/common/mss_peripherals.c ****     return result;
 369              		.loc 1 155 12
 370 00ae 8347F4FE 		lbu	a5,-17(s0)
 156:../src/platform/mpfs_hal/common/mss_peripherals.c **** }
 371              		.loc 1 156 1
 372 00b2 3E85     		mv	a0,a5
 373 00b4 A270     		ld	ra,40(sp)
 374              		.cfi_restore 1
 375 00b6 0274     		ld	s0,32(sp)
 376              		.cfi_restore 8
 377              		.cfi_def_cfa 2, 48
 378 00b8 4561     		addi	sp,sp,48
 379              		.cfi_def_cfa_offset 0
 380 00ba 8280     		jr	ra
 381              		.cfi_endproc
 382              	.LFE25:
 384              		.section	.text.mss_enable_fabric,"ax",@progbits
 385              		.align	1
 386              		.weak	mss_enable_fabric
 388              	mss_enable_fabric:
 389              	.LFB26:
 157:../src/platform/mpfs_hal/common/mss_peripherals.c **** 
 158:../src/platform/mpfs_hal/common/mss_peripherals.c **** /***************************************************************************//**
 159:../src/platform/mpfs_hal/common/mss_peripherals.c ****  * See mss_peripherals.h for details of how to use this function.
 160:../src/platform/mpfs_hal/common/mss_peripherals.c ****  */
 161:../src/platform/mpfs_hal/common/mss_peripherals.c **** __attribute__((weak)) void mss_enable_fabric(void)
 162:../src/platform/mpfs_hal/common/mss_peripherals.c **** {
 390              		.loc 1 162 1
 391              		.cfi_startproc
 392 0000 4111     		addi	sp,sp,-16
 393              		.cfi_def_cfa_offset 16
 394 0002 22E4     		sd	s0,8(sp)
 395              		.cfi_offset 8, -8
 396 0004 0008     		addi	s0,sp,16
 397              		.cfi_def_cfa 8, 0
 163:../src/platform/mpfs_hal/common/mss_peripherals.c ****     /* Remove soft reset */
 164:../src/platform/mpfs_hal/common/mss_peripherals.c ****     SYSREG->SOFT_RESET_CR &= (uint32_t)~(SOFT_RESET_CR_FPGA_MASK);
 398              		.loc 1 164 27
 399 0006 B7270020 		li	a5,536879104
 400 000a 83A78708 		lw	a5,136(a5)
 401 000e 1B870700 		sext.w	a4,a5
 402 0012 B7270020 		li	a5,536879104
 403 0016 BA86     		mv	a3,a4
 404 0018 0177     		li	a4,-131072
 405 001a 7D17     		addi	a4,a4,-1
 406 001c 758F     		and	a4,a3,a4
 407 001e 0127     		sext.w	a4,a4
 408 0020 23A4E708 		sw	a4,136(a5)
 165:../src/platform/mpfs_hal/common/mss_peripherals.c **** }
 409              		.loc 1 165 1
 410 0024 0100     		nop
 411 0026 2264     		ld	s0,8(sp)
 412              		.cfi_restore 8
 413              		.cfi_def_cfa 2, 16
 414 0028 4101     		addi	sp,sp,16
 415              		.cfi_def_cfa_offset 0
 416 002a 8280     		jr	ra
 417              		.cfi_endproc
 418              	.LFE26:
 420              		.section	.text.mss_disable_fabric,"ax",@progbits
 421              		.align	1
 422              		.weak	mss_disable_fabric
 424              	mss_disable_fabric:
 425              	.LFB27:
 166:../src/platform/mpfs_hal/common/mss_peripherals.c **** 
 167:../src/platform/mpfs_hal/common/mss_peripherals.c **** /***************************************************************************//**
 168:../src/platform/mpfs_hal/common/mss_peripherals.c ****  * See mss_peripherals.h for details of how to use this function.
 169:../src/platform/mpfs_hal/common/mss_peripherals.c ****  */
 170:../src/platform/mpfs_hal/common/mss_peripherals.c **** __attribute__((weak)) void mss_disable_fabric(void)
 171:../src/platform/mpfs_hal/common/mss_peripherals.c **** {
 426              		.loc 1 171 1
 427              		.cfi_startproc
 428 0000 4111     		addi	sp,sp,-16
 429              		.cfi_def_cfa_offset 16
 430 0002 22E4     		sd	s0,8(sp)
 431              		.cfi_offset 8, -8
 432 0004 0008     		addi	s0,sp,16
 433              		.cfi_def_cfa 8, 0
 172:../src/platform/mpfs_hal/common/mss_peripherals.c ****     /* Apply reset */
 173:../src/platform/mpfs_hal/common/mss_peripherals.c ****     SYSREG->SOFT_RESET_CR |= SOFT_RESET_CR_FPGA_MASK;
 434              		.loc 1 173 27
 435 0006 B7270020 		li	a5,536879104
 436 000a 83A78708 		lw	a5,136(a5)
 437 000e 1B870700 		sext.w	a4,a5
 438 0012 B7270020 		li	a5,536879104
 439 0016 BA86     		mv	a3,a4
 440 0018 37070200 		li	a4,131072
 441 001c 558F     		or	a4,a3,a4
 442 001e 0127     		sext.w	a4,a4
 443 0020 23A4E708 		sw	a4,136(a5)
 174:../src/platform/mpfs_hal/common/mss_peripherals.c **** }
 444              		.loc 1 174 1
 445 0024 0100     		nop
 446 0026 2264     		ld	s0,8(sp)
 447              		.cfi_restore 8
 448              		.cfi_def_cfa 2, 16
 449 0028 4101     		addi	sp,sp,16
 450              		.cfi_def_cfa_offset 0
 451 002a 8280     		jr	ra
 452              		.cfi_endproc
 453              	.LFE27:
 455              		.section	.text.mss_set_apb_bus_cr,"ax",@progbits
 456              		.align	1
 457              		.weak	mss_set_apb_bus_cr
 459              	mss_set_apb_bus_cr:
 460              	.LFB28:
 175:../src/platform/mpfs_hal/common/mss_peripherals.c **** 
 176:../src/platform/mpfs_hal/common/mss_peripherals.c **** /***************************************************************************//**
 177:../src/platform/mpfs_hal/common/mss_peripherals.c ****  * See mss_peripherals.h for details of how to use this function.
 178:../src/platform/mpfs_hal/common/mss_peripherals.c ****  */
 179:../src/platform/mpfs_hal/common/mss_peripherals.c **** __attribute__((weak)) void mss_set_apb_bus_cr(uint32_t reg_value)
 180:../src/platform/mpfs_hal/common/mss_peripherals.c **** {
 461              		.loc 1 180 1
 462              		.cfi_startproc
 463 0000 0111     		addi	sp,sp,-32
 464              		.cfi_def_cfa_offset 32
 465 0002 22EC     		sd	s0,24(sp)
 466              		.cfi_offset 8, -8
 467 0004 0010     		addi	s0,sp,32
 468              		.cfi_def_cfa 8, 0
 469 0006 AA87     		mv	a5,a0
 470 0008 2326F4FE 		sw	a5,-20(s0)
 181:../src/platform/mpfs_hal/common/mss_peripherals.c ****     SYSREG->APBBUS_CR = reg_value;
 471              		.loc 1 181 11
 472 000c B7270020 		li	a5,536879104
 473              		.loc 1 181 23
 474 0010 0327C4FE 		lw	a4,-20(s0)
 475 0014 23A0E708 		sw	a4,128(a5)
 182:../src/platform/mpfs_hal/common/mss_peripherals.c **** }
 476              		.loc 1 182 1
 477 0018 0100     		nop
 478 001a 6264     		ld	s0,24(sp)
 479              		.cfi_restore 8
 480              		.cfi_def_cfa 2, 32
 481 001c 0561     		addi	sp,sp,32
 482              		.cfi_def_cfa_offset 0
 483 001e 8280     		jr	ra
 484              		.cfi_endproc
 485              	.LFE28:
 487              		.section	.text.mss_get_apb_bus_cr,"ax",@progbits
 488              		.align	1
 489              		.weak	mss_get_apb_bus_cr
 491              	mss_get_apb_bus_cr:
 492              	.LFB29:
 183:../src/platform/mpfs_hal/common/mss_peripherals.c **** 
 184:../src/platform/mpfs_hal/common/mss_peripherals.c **** /***************************************************************************//**
 185:../src/platform/mpfs_hal/common/mss_peripherals.c ****  * See mss_peripherals.h for details of how to use this function.
 186:../src/platform/mpfs_hal/common/mss_peripherals.c ****  */
 187:../src/platform/mpfs_hal/common/mss_peripherals.c **** __attribute__((weak)) uint32_t mss_get_apb_bus_cr(void)
 188:../src/platform/mpfs_hal/common/mss_peripherals.c **** {
 493              		.loc 1 188 1
 494              		.cfi_startproc
 495 0000 4111     		addi	sp,sp,-16
 496              		.cfi_def_cfa_offset 16
 497 0002 22E4     		sd	s0,8(sp)
 498              		.cfi_offset 8, -8
 499 0004 0008     		addi	s0,sp,16
 500              		.cfi_def_cfa 8, 0
 189:../src/platform/mpfs_hal/common/mss_peripherals.c ****     return (SYSREG->APBBUS_CR);
 501              		.loc 1 189 19
 502 0006 B7270020 		li	a5,536879104
 503 000a 83A70708 		lw	a5,128(a5)
 504 000e 8127     		sext.w	a5,a5
 190:../src/platform/mpfs_hal/common/mss_peripherals.c **** }
 505              		.loc 1 190 1
 506 0010 3E85     		mv	a0,a5
 507 0012 2264     		ld	s0,8(sp)
 508              		.cfi_restore 8
 509              		.cfi_def_cfa 2, 16
 510 0014 4101     		addi	sp,sp,16
 511              		.cfi_def_cfa_offset 0
 512 0016 8280     		jr	ra
 513              		.cfi_endproc
 514              	.LFE29:
 516              		.text
 517              	.Letext0:
 518              		.file 2 "/home/vinay/Desktop/soft_console/SoftConsole-v2022.2-RISC-V-747/riscv-unknown-elf-gcc/ris
 519              		.file 3 "/home/vinay/Desktop/soft_console/SoftConsole-v2022.2-RISC-V-747/riscv-unknown-elf-gcc/lib
 520              		.file 4 "/home/vinay/Desktop/soft_console/SoftConsole-v2022.2-RISC-V-747/riscv-unknown-elf-gcc/ris
 521              		.file 5 "/home/vinay/Desktop/soft_console/SoftConsole-v2022.2-RISC-V-747/riscv-unknown-elf-gcc/ris
 522              		.file 6 "/home/vinay/Desktop/soft_console/SoftConsole-v2022.2-RISC-V-747/riscv-unknown-elf-gcc/ris
 523              		.file 7 "/home/vinay/Desktop/soft_console/SoftConsole-v2022.2-RISC-V-747/riscv-unknown-elf-gcc/ris
 524              		.file 8 "/home/vinay/Desktop/softconsole_watershed/Water-shed/src/platform/mpfs_hal/common/nwc/../
 525              		.file 9 "/home/vinay/Desktop/softconsole_watershed/Water-shed/src/platform/mpfs_hal/common/nwc/mss
 526              		.file 10 "/home/vinay/Desktop/softconsole_watershed/Water-shed/src/platform/mpfs_hal/common/nwc/ms
 527              		.file 11 "/home/vinay/Desktop/softconsole_watershed/Water-shed/src/platform/mpfs_hal/common/nwc/ms
 528              		.file 12 "/home/vinay/Desktop/softconsole_watershed/Water-shed/src/platform/mpfs_hal/common/mss_mp
 529              		.file 13 "/home/vinay/Desktop/softconsole_watershed/Water-shed/src/platform/mpfs_hal/common/mss_pl
 530              		.file 14 "/home/vinay/Desktop/softconsole_watershed/Water-shed/src/platform/mpfs_hal/common/mss_pe
 531              		.file 15 "/home/vinay/Desktop/softconsole_watershed/Water-shed/src/platform/mpfs_hal/startup_gcc/s
DEFINED SYMBOLS
                            *ABS*:0000000000000000 mss_peripherals.c
     /tmp/cc2IngwB.s:14     .rodata.LIBERO_SETTING_CONTEXT_EN:0000000000000000 LIBERO_SETTING_CONTEXT_EN
     /tmp/cc2IngwB.s:24     .rodata.PERIPHERAL_SETUP:0000000000000000 PERIPHERAL_SETUP
     /tmp/cc2IngwB.s:172    .text.verify_context_enable:0000000000000000 verify_context_enable
     /tmp/cc2IngwB.s:176    .text.verify_context_enable:0000000000000000 .L0 
     /tmp/cc2IngwB.s:177    .text.verify_context_enable:0000000000000000 .L0 
     /tmp/cc2IngwB.s:178    .text.verify_context_enable:0000000000000002 .L0 
     /tmp/cc2IngwB.s:180    .text.verify_context_enable:0000000000000004 .L0 
     /tmp/cc2IngwB.s:182    .text.verify_context_enable:0000000000000006 .L0 
     /tmp/cc2IngwB.s:192    .text.verify_context_enable:000000000000001c .L0 
     /tmp/cc2IngwB.s:195    .text.verify_context_enable:0000000000000022 .L0 
     /tmp/cc2IngwB.s:197    .text.verify_context_enable:0000000000000026 .L0 
     /tmp/cc2IngwB.s:199    .text.verify_context_enable:000000000000002a .L0 
     /tmp/cc2IngwB.s:201    .text.verify_context_enable:000000000000002e .L0 
     /tmp/cc2IngwB.s:202    .text.verify_context_enable:000000000000002e .L0 
     /tmp/cc2IngwB.s:204    .text.verify_context_enable:0000000000000030 .L0 
     /tmp/cc2IngwB.s:206    .text.verify_context_enable:0000000000000032 .L0 
     /tmp/cc2IngwB.s:212    .text.peripheral_on_off:0000000000000000 peripheral_on_off
     /tmp/cc2IngwB.s:215    .text.peripheral_on_off:0000000000000000 .L0 
     /tmp/cc2IngwB.s:216    .text.peripheral_on_off:0000000000000000 .L0 
     /tmp/cc2IngwB.s:217    .text.peripheral_on_off:0000000000000002 .L0 
     /tmp/cc2IngwB.s:219    .text.peripheral_on_off:0000000000000004 .L0 
     /tmp/cc2IngwB.s:221    .text.peripheral_on_off:0000000000000006 .L0 
     /tmp/cc2IngwB.s:228    .text.peripheral_on_off:0000000000000014 .L0 
     /tmp/cc2IngwB.s:233    .text.peripheral_on_off:0000000000000022 .L0 
     /tmp/cc2IngwB.s:237    .text.peripheral_on_off:000000000000002e .L0 
     /tmp/cc2IngwB.s:241    .text.peripheral_on_off:000000000000003a .L0 
     /tmp/cc2IngwB.s:246    .text.peripheral_on_off:0000000000000046 .L0 
     /tmp/cc2IngwB.s:255    .text.peripheral_on_off:0000000000000062 .L0 
     /tmp/cc2IngwB.s:258    .text.peripheral_on_off:0000000000000064 .L0 
     /tmp/cc2IngwB.s:267    .text.peripheral_on_off:0000000000000080 .L0 
     /tmp/cc2IngwB.s:271    .text.peripheral_on_off:000000000000008c .L0 
     /tmp/cc2IngwB.s:275    .text.peripheral_on_off:0000000000000098 .L0 
     /tmp/cc2IngwB.s:281    .text.peripheral_on_off:00000000000000a4 .L0 
     /tmp/cc2IngwB.s:283    .text.peripheral_on_off:00000000000000a8 .L0 
     /tmp/cc2IngwB.s:284    .text.peripheral_on_off:00000000000000a8 .L0 
     /tmp/cc2IngwB.s:286    .text.peripheral_on_off:00000000000000aa .L0 
     /tmp/cc2IngwB.s:288    .text.peripheral_on_off:00000000000000ac .L0 
     /tmp/cc2IngwB.s:295    .text.mss_config_clk_rst:0000000000000000 mss_config_clk_rst
     /tmp/cc2IngwB.s:298    .text.mss_config_clk_rst:0000000000000000 .L0 
     /tmp/cc2IngwB.s:299    .text.mss_config_clk_rst:0000000000000000 .L0 
     /tmp/cc2IngwB.s:300    .text.mss_config_clk_rst:0000000000000002 .L0 
     /tmp/cc2IngwB.s:303    .text.mss_config_clk_rst:0000000000000006 .L0 
     /tmp/cc2IngwB.s:304    .text.mss_config_clk_rst:0000000000000006 .L0 
     /tmp/cc2IngwB.s:306    .text.mss_config_clk_rst:0000000000000008 .L0 
     /tmp/cc2IngwB.s:316    .text.mss_config_clk_rst:000000000000001e .L0 
     /tmp/cc2IngwB.s:319    .text.mss_config_clk_rst:0000000000000024 .L0 
../src/platform/mpfs_hal/common/mss_peripherals.c:147    .text.mss_config_clk_rst:0000000000000040 .L0 
     /tmp/cc2IngwB.s:335    .text.mss_config_clk_rst:0000000000000042 .L0 
     /tmp/cc2IngwB.s:341    .text.mss_config_clk_rst:0000000000000054 .L0 
     /tmp/cc2IngwB.s:355    .text.mss_config_clk_rst:0000000000000082 .L0 
     /tmp/cc2IngwB.s:359    .text.mss_config_clk_rst:000000000000008c .L0 
     /tmp/cc2IngwB.s:370    .text.mss_config_clk_rst:00000000000000ae .L0 
     /tmp/cc2IngwB.s:372    .text.mss_config_clk_rst:00000000000000b2 .L0 
     /tmp/cc2IngwB.s:374    .text.mss_config_clk_rst:00000000000000b6 .L0 
     /tmp/cc2IngwB.s:376    .text.mss_config_clk_rst:00000000000000b8 .L0 
     /tmp/cc2IngwB.s:377    .text.mss_config_clk_rst:00000000000000b8 .L0 
     /tmp/cc2IngwB.s:379    .text.mss_config_clk_rst:00000000000000ba .L0 
     /tmp/cc2IngwB.s:381    .text.mss_config_clk_rst:00000000000000bc .L0 
     /tmp/cc2IngwB.s:388    .text.mss_enable_fabric:0000000000000000 mss_enable_fabric
     /tmp/cc2IngwB.s:391    .text.mss_enable_fabric:0000000000000000 .L0 
     /tmp/cc2IngwB.s:392    .text.mss_enable_fabric:0000000000000000 .L0 
     /tmp/cc2IngwB.s:393    .text.mss_enable_fabric:0000000000000002 .L0 
     /tmp/cc2IngwB.s:395    .text.mss_enable_fabric:0000000000000004 .L0 
     /tmp/cc2IngwB.s:397    .text.mss_enable_fabric:0000000000000006 .L0 
     /tmp/cc2IngwB.s:399    .text.mss_enable_fabric:0000000000000006 .L0 
     /tmp/cc2IngwB.s:410    .text.mss_enable_fabric:0000000000000024 .L0 
     /tmp/cc2IngwB.s:412    .text.mss_enable_fabric:0000000000000028 .L0 
     /tmp/cc2IngwB.s:413    .text.mss_enable_fabric:0000000000000028 .L0 
     /tmp/cc2IngwB.s:415    .text.mss_enable_fabric:000000000000002a .L0 
     /tmp/cc2IngwB.s:417    .text.mss_enable_fabric:000000000000002c .L0 
     /tmp/cc2IngwB.s:424    .text.mss_disable_fabric:0000000000000000 mss_disable_fabric
     /tmp/cc2IngwB.s:427    .text.mss_disable_fabric:0000000000000000 .L0 
     /tmp/cc2IngwB.s:428    .text.mss_disable_fabric:0000000000000000 .L0 
     /tmp/cc2IngwB.s:429    .text.mss_disable_fabric:0000000000000002 .L0 
     /tmp/cc2IngwB.s:431    .text.mss_disable_fabric:0000000000000004 .L0 
     /tmp/cc2IngwB.s:433    .text.mss_disable_fabric:0000000000000006 .L0 
     /tmp/cc2IngwB.s:435    .text.mss_disable_fabric:0000000000000006 .L0 
     /tmp/cc2IngwB.s:445    .text.mss_disable_fabric:0000000000000024 .L0 
     /tmp/cc2IngwB.s:447    .text.mss_disable_fabric:0000000000000028 .L0 
     /tmp/cc2IngwB.s:448    .text.mss_disable_fabric:0000000000000028 .L0 
     /tmp/cc2IngwB.s:450    .text.mss_disable_fabric:000000000000002a .L0 
     /tmp/cc2IngwB.s:452    .text.mss_disable_fabric:000000000000002c .L0 
     /tmp/cc2IngwB.s:459    .text.mss_set_apb_bus_cr:0000000000000000 mss_set_apb_bus_cr
     /tmp/cc2IngwB.s:462    .text.mss_set_apb_bus_cr:0000000000000000 .L0 
     /tmp/cc2IngwB.s:463    .text.mss_set_apb_bus_cr:0000000000000000 .L0 
     /tmp/cc2IngwB.s:464    .text.mss_set_apb_bus_cr:0000000000000002 .L0 
     /tmp/cc2IngwB.s:466    .text.mss_set_apb_bus_cr:0000000000000004 .L0 
     /tmp/cc2IngwB.s:468    .text.mss_set_apb_bus_cr:0000000000000006 .L0 
     /tmp/cc2IngwB.s:472    .text.mss_set_apb_bus_cr:000000000000000c .L0 
     /tmp/cc2IngwB.s:474    .text.mss_set_apb_bus_cr:0000000000000010 .L0 
     /tmp/cc2IngwB.s:477    .text.mss_set_apb_bus_cr:0000000000000018 .L0 
     /tmp/cc2IngwB.s:479    .text.mss_set_apb_bus_cr:000000000000001c .L0 
     /tmp/cc2IngwB.s:480    .text.mss_set_apb_bus_cr:000000000000001c .L0 
     /tmp/cc2IngwB.s:482    .text.mss_set_apb_bus_cr:000000000000001e .L0 
     /tmp/cc2IngwB.s:484    .text.mss_set_apb_bus_cr:0000000000000020 .L0 
     /tmp/cc2IngwB.s:491    .text.mss_get_apb_bus_cr:0000000000000000 mss_get_apb_bus_cr
     /tmp/cc2IngwB.s:494    .text.mss_get_apb_bus_cr:0000000000000000 .L0 
     /tmp/cc2IngwB.s:495    .text.mss_get_apb_bus_cr:0000000000000000 .L0 
     /tmp/cc2IngwB.s:496    .text.mss_get_apb_bus_cr:0000000000000002 .L0 
     /tmp/cc2IngwB.s:498    .text.mss_get_apb_bus_cr:0000000000000004 .L0 
     /tmp/cc2IngwB.s:500    .text.mss_get_apb_bus_cr:0000000000000006 .L0 
     /tmp/cc2IngwB.s:502    .text.mss_get_apb_bus_cr:0000000000000006 .L0 
     /tmp/cc2IngwB.s:506    .text.mss_get_apb_bus_cr:0000000000000010 .L0 
     /tmp/cc2IngwB.s:508    .text.mss_get_apb_bus_cr:0000000000000014 .L0 
     /tmp/cc2IngwB.s:509    .text.mss_get_apb_bus_cr:0000000000000014 .L0 
     /tmp/cc2IngwB.s:511    .text.mss_get_apb_bus_cr:0000000000000016 .L0 
     /tmp/cc2IngwB.s:513    .text.mss_get_apb_bus_cr:0000000000000018 .L0 
     /tmp/cc2IngwB.s:209    .text.verify_context_enable:0000000000000032 .L0 
     /tmp/cc2IngwB.s:291    .text.peripheral_on_off:00000000000000ac .L0 
     /tmp/cc2IngwB.s:384    .text.mss_config_clk_rst:00000000000000bc .L0 
     /tmp/cc2IngwB.s:420    .text.mss_enable_fabric:000000000000002c .L0 
     /tmp/cc2IngwB.s:455    .text.mss_disable_fabric:000000000000002c .L0 
     /tmp/cc2IngwB.s:487    .text.mss_set_apb_bus_cr:0000000000000020 .L0 
     /tmp/cc2IngwB.s:516    .text.mss_get_apb_bus_cr:0000000000000018 .L0 
                     .debug_frame:0000000000000000 .L0 
     /tmp/cc2IngwB.s:256    .text.peripheral_on_off:0000000000000064 .L4
     /tmp/cc2IngwB.s:279    .text.peripheral_on_off:00000000000000a4 .L6
     /tmp/cc2IngwB.s:319    .text.mss_config_clk_rst:0000000000000024 .L0 
     /tmp/cc2IngwB.s:335    .text.mss_config_clk_rst:0000000000000042 .L0 
     /tmp/cc2IngwB.s:342    .text.mss_config_clk_rst:0000000000000058 .L0 
     /tmp/cc2IngwB.s:359    .text.mss_config_clk_rst:000000000000008c .L0 
     /tmp/cc2IngwB.s:333    .text.mss_config_clk_rst:0000000000000042 .L8
     /tmp/cc2IngwB.s:368    .text.mss_config_clk_rst:00000000000000ae .L9
     /tmp/cc2IngwB.s:69352  .debug_abbrev:0000000000000000 .Ldebug_abbrev0
     /tmp/cc2IngwB.s:98819  .debug_str:0000000000024f07 .LASF9854
     /tmp/cc2IngwB.s:104009  .debug_str:00000000000399c6 .LASF9855
     /tmp/cc2IngwB.s:109373  .debug_str:000000000005024b .LASF9856
     /tmp/cc2IngwB.s:70283  .debug_ranges:0000000000000000 .Ldebug_ranges0
     /tmp/cc2IngwB.s:89773  .debug_line:0000000000000000 .Ldebug_line0
     /tmp/cc2IngwB.s:70301  .debug_macro:0000000000000000 .Ldebug_macro0
     /tmp/cc2IngwB.s:107345  .debug_str:000000000004798a .LASF6028
     /tmp/cc2IngwB.s:90913  .debug_str:0000000000004e5b .LASF6032
     /tmp/cc2IngwB.s:94669  .debug_str:0000000000013eeb .LASF6029
     /tmp/cc2IngwB.s:105511  .debug_str:000000000003fccb .LASF6030
     /tmp/cc2IngwB.s:101483  .debug_str:000000000002f77d .LASF6031
     /tmp/cc2IngwB.s:98537  .debug_str:0000000000023d65 .LASF6033
     /tmp/cc2IngwB.s:90539  .debug_str:00000000000034a3 .LASF6034
     /tmp/cc2IngwB.s:107801  .debug_str:000000000004976f .LASF6035
     /tmp/cc2IngwB.s:95987  .debug_str:0000000000019253 .LASF6036
     /tmp/cc2IngwB.s:109327  .debug_str:000000000004feb4 .LASF6037
     /tmp/cc2IngwB.s:102203  .debug_str:0000000000032565 .LASF6038
     /tmp/cc2IngwB.s:101225  .debug_str:000000000002e68a .LASF6039
     /tmp/cc2IngwB.s:94133  .debug_str:0000000000011abf .LASF6040
     /tmp/cc2IngwB.s:90463  .debug_str:0000000000002fd3 .LASF6041
     /tmp/cc2IngwB.s:91101  .debug_str:0000000000005a91 .LASF6042
     /tmp/cc2IngwB.s:102753  .debug_str:0000000000034acc .LASF6043
     /tmp/cc2IngwB.s:103145  .debug_str:00000000000366b5 .LASF6044
     /tmp/cc2IngwB.s:103685  .debug_str:00000000000388c1 .LASF6045
     /tmp/cc2IngwB.s:108683  .debug_str:000000000004d2d4 .LASF6046
     /tmp/cc2IngwB.s:102731  .debug_str:000000000003496a .LASF6047
     /tmp/cc2IngwB.s:101069  .debug_str:000000000002dbf0 .LASF6048
     /tmp/cc2IngwB.s:91093  .debug_str:00000000000059e4 .LASF6049
     /tmp/cc2IngwB.s:95739  .debug_str:0000000000018386 .LASF6050
     /tmp/cc2IngwB.s:95901  .debug_str:0000000000018cde .LASF6055
     /tmp/cc2IngwB.s:108137  .debug_str:000000000004ac84 .LASF6051
     /tmp/cc2IngwB.s:89895  .debug_str:000000000000082e .LASF6052
     /tmp/cc2IngwB.s:104839  .debug_str:000000000003d05b .LASF6053
     /tmp/cc2IngwB.s:91903  .debug_str:000000000000905e .LASF6054
     /tmp/cc2IngwB.s:101727  .debug_str:0000000000030768 .LASF6056
     /tmp/cc2IngwB.s:93045  .debug_str:000000000000ddaf .LASF6057
     /tmp/cc2IngwB.s:100641  .debug_str:000000000002c17c .LASF6058
     /tmp/cc2IngwB.s:107911  .debug_str:0000000000049ee9 .LASF6059
     /tmp/cc2IngwB.s:102231  .debug_str:0000000000032744 .LASF6060
     /tmp/cc2IngwB.s:98505  .debug_str:0000000000023b36 .LASF6061
     /tmp/cc2IngwB.s:94211  .debug_str:000000000001200e .LASF6062
     /tmp/cc2IngwB.s:97995  .debug_str:00000000000218bb .LASF6063
     /tmp/cc2IngwB.s:108539  .debug_str:000000000004c904 .LASF6064
     /tmp/cc2IngwB.s:90875  .debug_str:0000000000004b95 .LASF6065
     /tmp/cc2IngwB.s:105321  .debug_str:000000000003f145 .LASF6066
     /tmp/cc2IngwB.s:90401  .debug_str:0000000000002b71 .LASF6067
     /tmp/cc2IngwB.s:93577  .debug_str:000000000000fa51 .LASF6068
     /tmp/cc2IngwB.s:104771  .debug_str:000000000003cc3d .LASF6069
     /tmp/cc2IngwB.s:100759  .debug_str:000000000002c94d .LASF6070
     /tmp/cc2IngwB.s:91955  .debug_str:000000000000938a .LASF6071
     /tmp/cc2IngwB.s:95993  .debug_str:00000000000192b1 .LASF6072
     /tmp/cc2IngwB.s:99591  .debug_str:0000000000027da6 .LASF6073
     /tmp/cc2IngwB.s:100731  .debug_str:000000000002c7cb .LASF6074
     /tmp/cc2IngwB.s:100747  .debug_str:000000000002c897 .LASF6075
     /tmp/cc2IngwB.s:99447  .debug_str:0000000000027458 .LASF6076
     /tmp/cc2IngwB.s:106301  .debug_str:00000000000435a4 .LASF6077
     /tmp/cc2IngwB.s:102915  .debug_str:00000000000355e9 .LASF6078
     /tmp/cc2IngwB.s:104859  .debug_str:000000000003d1b0 .LASF6079
     /tmp/cc2IngwB.s:99167  .debug_str:000000000002624a .LASF6080
     /tmp/cc2IngwB.s:90795  .debug_str:00000000000045e4 .LASF6081
     /tmp/cc2IngwB.s:93927  .debug_str:0000000000010df1 .LASF6082
     /tmp/cc2IngwB.s:93385  .debug_str:000000000000ef2a .LASF6083
     /tmp/cc2IngwB.s:98841  .debug_str:0000000000025104 .LASF6084
     /tmp/cc2IngwB.s:98699  .debug_str:00000000000247f6 .LASF6085
     /tmp/cc2IngwB.s:103199  .debug_str:0000000000036a7a .LASF6086
     /tmp/cc2IngwB.s:108005  .debug_str:000000000004a551 .LASF6087
     /tmp/cc2IngwB.s:95991  .debug_str:00000000000192ac .LASF6088
     /tmp/cc2IngwB.s:102669  .debug_str:00000000000345a0 .LASF6089
     /tmp/cc2IngwB.s:104273  .debug_str:000000000003a97e .LASF6090
     /tmp/cc2IngwB.s:94239  .debug_str:00000000000121d4 .LASF6091
     /tmp/cc2IngwB.s:97321  .debug_str:000000000001ea19 .LASF6092
     /tmp/cc2IngwB.s:96689  .debug_str:000000000001bff7 .LASF6093
     /tmp/cc2IngwB.s:103441  .debug_str:00000000000379de .LASF6094
     /tmp/cc2IngwB.s:107341  .debug_str:0000000000047966 .LASF6095
     /tmp/cc2IngwB.s:108499  .debug_str:000000000004c63b .LASF6096
     /tmp/cc2IngwB.s:100587  .debug_str:000000000002bf09 .LASF6097
     /tmp/cc2IngwB.s:106465  .debug_str:0000000000044105 .LASF6098
     /tmp/cc2IngwB.s:99827  .debug_str:0000000000028d9f .LASF6099
     /tmp/cc2IngwB.s:105491  .debug_str:000000000003fb98 .LASF6100
     /tmp/cc2IngwB.s:91045  .debug_str:00000000000056a9 .LASF6101
     /tmp/cc2IngwB.s:101651  .debug_str:00000000000302a2 .LASF6102
     /tmp/cc2IngwB.s:102627  .debug_str:00000000000342d8 .LASF6103
     /tmp/cc2IngwB.s:106291  .debug_str:000000000004350e .LASF6104
     /tmp/cc2IngwB.s:97955  .debug_str:0000000000021615 .LASF6105
     /tmp/cc2IngwB.s:104923  .debug_str:000000000003d5d3 .LASF6106
     /tmp/cc2IngwB.s:95261  .debug_str:000000000001631a .LASF6107
     /tmp/cc2IngwB.s:108395  .debug_str:000000000004bf63 .LASF6108
     /tmp/cc2IngwB.s:102235  .debug_str:0000000000032779 .LASF6109
     /tmp/cc2IngwB.s:93741  .debug_str:000000000001041d .LASF6110
     /tmp/cc2IngwB.s:102089  .debug_str:0000000000031ece .LASF6111
     /tmp/cc2IngwB.s:99621  .debug_str:0000000000027fc8 .LASF6112
     /tmp/cc2IngwB.s:94855  .debug_str:0000000000014a66 .LASF6113
     /tmp/cc2IngwB.s:100839  .debug_str:000000000002cdf2 .LASF6114
     /tmp/cc2IngwB.s:106855  .debug_str:00000000000459e7 .LASF6115
     /tmp/cc2IngwB.s:102029  .debug_str:0000000000031a45 .LASF6116
     /tmp/cc2IngwB.s:104837  .debug_str:000000000003d053 .LASF6117
     /tmp/cc2IngwB.s:98339  .debug_str:0000000000022fca .LASF840
     /tmp/cc2IngwB.s:95847  .debug_str:0000000000018a9c .LASF6118
     /tmp/cc2IngwB.s:107827  .debug_str:000000000004992c .LASF6119
     /tmp/cc2IngwB.s:103945  .debug_str:00000000000396c2 .LASF6120
     /tmp/cc2IngwB.s:105167  .debug_str:000000000003e74e .LASF6121
     /tmp/cc2IngwB.s:107933  .debug_str:000000000004a014 .LASF6122
     /tmp/cc2IngwB.s:102213  .debug_str:0000000000032610 .LASF6123
     /tmp/cc2IngwB.s:107675  .debug_str:0000000000048f9a .LASF6124
     /tmp/cc2IngwB.s:91369  .debug_str:0000000000006be4 .LASF6125
     /tmp/cc2IngwB.s:96083  .debug_str:0000000000019945 .LASF6126
     /tmp/cc2IngwB.s:94583  .debug_str:00000000000139ac .LASF6127
     /tmp/cc2IngwB.s:107869  .debug_str:0000000000049c03 .LASF6128
     /tmp/cc2IngwB.s:94147  .debug_str:0000000000011baa .LASF6129
     /tmp/cc2IngwB.s:107193  .debug_str:0000000000046f7d .LASF6130
     /tmp/cc2IngwB.s:89789  .debug_str:0000000000000127 .LASF6131
     /tmp/cc2IngwB.s:91459  .debug_str:0000000000007316 .LASF6132
     /tmp/cc2IngwB.s:96477  .debug_str:000000000001b331 .LASF6133
     /tmp/cc2IngwB.s:92459  .debug_str:000000000000b6ba .LASF6134
     /tmp/cc2IngwB.s:94325  .debug_str:0000000000012795 .LASF6135
     /tmp/cc2IngwB.s:108595  .debug_str:000000000004cc6f .LASF6136
     /tmp/cc2IngwB.s:104927  .debug_str:000000000003d5fe .LASF6137
     /tmp/cc2IngwB.s:101825  .debug_str:0000000000030e15 .LASF6138
     /tmp/cc2IngwB.s:96645  .debug_str:000000000001bcbf .LASF6139
     /tmp/cc2IngwB.s:92393  .debug_str:000000000000b174 .LASF6140
     /tmp/cc2IngwB.s:100799  .debug_str:000000000002cb82 .LASF6141
     /tmp/cc2IngwB.s:108425  .debug_str:000000000004c181 .LASF6142
     /tmp/cc2IngwB.s:94813  .debug_str:00000000000147be .LASF6143
     /tmp/cc2IngwB.s:96313  .debug_str:000000000001a8c7 .LASF6144
     /tmp/cc2IngwB.s:104659  .debug_str:000000000003c411 .LASF9857
     /tmp/cc2IngwB.s:109397  .debug_str:00000000000503de .LASF6145
     /tmp/cc2IngwB.s:108609  .debug_str:000000000004cd65 .LASF6146
     /tmp/cc2IngwB.s:93701  .debug_str:0000000000010291 .LASF6147
     /tmp/cc2IngwB.s:102787  .debug_str:0000000000034c52 .LASF6148
     /tmp/cc2IngwB.s:108289  .debug_str:000000000004b75c .LASF6149
     /tmp/cc2IngwB.s:100791  .debug_str:000000000002cb00 .LASF6150
     /tmp/cc2IngwB.s:94035  .debug_str:000000000001151c .LASF6151
     /tmp/cc2IngwB.s:107081  .debug_str:000000000004687e .LASF6152
     /tmp/cc2IngwB.s:91239  .debug_str:000000000000634b .LASF6153
     /tmp/cc2IngwB.s:104395  .debug_str:000000000003b1e2 .LASF6154
     /tmp/cc2IngwB.s:104397  .debug_str:000000000003b1e8 .LASF6155
     /tmp/cc2IngwB.s:95657  .debug_str:0000000000017e30 .LASF6156
     /tmp/cc2IngwB.s:91755  .debug_str:0000000000008632 .LASF6157
     /tmp/cc2IngwB.s:102001  .debug_str:00000000000318d1 .LASF6158
     /tmp/cc2IngwB.s:96745  .debug_str:000000000001c36f .LASF6159
     /tmp/cc2IngwB.s:101347  .debug_str:000000000002eeb3 .LASF6160
     /tmp/cc2IngwB.s:106571  .debug_str:0000000000044820 .LASF6161
     /tmp/cc2IngwB.s:106787  .debug_str:00000000000455f8 .LASF6162
     /tmp/cc2IngwB.s:91829  .debug_str:0000000000008b4e .LASF6163
     /tmp/cc2IngwB.s:90781  .debug_str:0000000000004556 .LASF6164
     /tmp/cc2IngwB.s:103221  .debug_str:0000000000036bd1 .LASF6165
     /tmp/cc2IngwB.s:103223  .debug_str:0000000000036be2 .LASF6166
     /tmp/cc2IngwB.s:103225  .debug_str:0000000000036bf3 .LASF6167
     /tmp/cc2IngwB.s:103227  .debug_str:0000000000036c04 .LASF6168
     /tmp/cc2IngwB.s:103229  .debug_str:0000000000036c15 .LASF6169
     /tmp/cc2IngwB.s:109257  .debug_str:000000000004fb1a .LASF6170
     /tmp/cc2IngwB.s:109259  .debug_str:000000000004fb2a .LASF6171
     /tmp/cc2IngwB.s:109261  .debug_str:000000000004fb3a .LASF6172
     /tmp/cc2IngwB.s:97361  .debug_str:000000000001ece3 .LASF6173
     /tmp/cc2IngwB.s:103683  .debug_str:00000000000388b2 .LASF6174
     /tmp/cc2IngwB.s:97143  .debug_str:000000000001dda6 .LASF6175
     /tmp/cc2IngwB.s:103231  .debug_str:0000000000036c26 .LASF6176
     /tmp/cc2IngwB.s:98161  .debug_str:0000000000022406 .LASF6177
     /tmp/cc2IngwB.s:108047  .debug_str:000000000004a786 .LASF6178
     /tmp/cc2IngwB.s:98173  .debug_str:0000000000022466 .LASF6179
     /tmp/cc2IngwB.s:96263  .debug_str:000000000001a58b .LASF6180
     /tmp/cc2IngwB.s:96265  .debug_str:000000000001a59d .LASF6181
     /tmp/cc2IngwB.s:105081  .debug_str:000000000003e04c .LASF6182
     /tmp/cc2IngwB.s:105085  .debug_str:000000000003e07f .LASF6183
     /tmp/cc2IngwB.s:96271  .debug_str:000000000001a5e2 .LASF6184
     /tmp/cc2IngwB.s:96273  .debug_str:000000000001a5f4 .LASF6185
     /tmp/cc2IngwB.s:99409  .debug_str:000000000002724a .LASF6186
     /tmp/cc2IngwB.s:105763  .debug_str:0000000000040c3c .LASF6187
     /tmp/cc2IngwB.s:107011  .debug_str:0000000000046405 .LASF6188
     /tmp/cc2IngwB.s:103601  .debug_str:0000000000038369 .LASF6189
     /tmp/cc2IngwB.s:90325  .debug_str:00000000000026b3 .LASF6190
     /tmp/cc2IngwB.s:90753  .debug_str:0000000000004371 .LASF6191
     /tmp/cc2IngwB.s:91165  .debug_str:0000000000005eb4 .LASF6192
     /tmp/cc2IngwB.s:107503  .debug_str:00000000000483e3 .LASF6193
     /tmp/cc2IngwB.s:90703  .debug_str:0000000000003f8f .LASF6194
     /tmp/cc2IngwB.s:103065  .debug_str:00000000000360a4 .LASF6195
     /tmp/cc2IngwB.s:90327  .debug_str:00000000000026bd .LASF6196
     /tmp/cc2IngwB.s:93139  .debug_str:000000000000e2aa .LASF6197
     /tmp/cc2IngwB.s:99673  .debug_str:0000000000028310 .LASF6198
     /tmp/cc2IngwB.s:91719  .debug_str:0000000000008395 .LASF6199
     /tmp/cc2IngwB.s:107435  .debug_str:0000000000047f76 .LASF6200
     /tmp/cc2IngwB.s:95751  .debug_str:000000000001846d .LASF6201
     /tmp/cc2IngwB.s:100789  .debug_str:000000000002caee .LASF6202
     /tmp/cc2IngwB.s:98463  .debug_str:00000000000237e2 .LASF6203
     /tmp/cc2IngwB.s:93965  .debug_str:00000000000110e4 .LASF6204
     /tmp/cc2IngwB.s:96277  .debug_str:000000000001a629 .LASF6205
     /tmp/cc2IngwB.s:96279  .debug_str:000000000001a63b .LASF6206
     /tmp/cc2IngwB.s:96337  .debug_str:000000000001aa50 .LASF6207
     /tmp/cc2IngwB.s:96339  .debug_str:000000000001aa62 .LASF6208
     /tmp/cc2IngwB.s:96341  .debug_str:000000000001aa74 .LASF6209
     /tmp/cc2IngwB.s:96343  .debug_str:000000000001aa86 .LASF6210
     /tmp/cc2IngwB.s:96345  .debug_str:000000000001aa98 .LASF6211
     /tmp/cc2IngwB.s:96347  .debug_str:000000000001aaaa .LASF6212
     /tmp/cc2IngwB.s:96349  .debug_str:000000000001aabc .LASF6213
     /tmp/cc2IngwB.s:92943  .debug_str:000000000000d768 .LASF6214
     /tmp/cc2IngwB.s:101749  .debug_str:00000000000308b9 .LASF6215
     /tmp/cc2IngwB.s:106065  .debug_str:0000000000042310 .LASF6216
     /tmp/cc2IngwB.s:93349  .debug_str:000000000000ee04 .LASF6217
     /tmp/cc2IngwB.s:95921  .debug_str:0000000000018e28 .LASF6218
     /tmp/cc2IngwB.s:108229  .debug_str:000000000004b354 .LASF6219
     /tmp/cc2IngwB.s:95181  .debug_str:0000000000015eb8 .LASF6220
     /tmp/cc2IngwB.s:102993  .debug_str:0000000000035b9f .LASF6221
     /tmp/cc2IngwB.s:90209  .debug_str:0000000000001f01 .LASF6222
     /tmp/cc2IngwB.s:90211  .debug_str:0000000000001f0f .LASF6223
     /tmp/cc2IngwB.s:96197  .debug_str:000000000001a116 .LASF6224
     /tmp/cc2IngwB.s:98951  .debug_str:0000000000025768 .LASF6225
     /tmp/cc2IngwB.s:98953  .debug_str:0000000000025776 .LASF6226
     /tmp/cc2IngwB.s:91023  .debug_str:0000000000005502 .LASF6227
     /tmp/cc2IngwB.s:96351  .debug_str:000000000001aace .LASF6228
     /tmp/cc2IngwB.s:96353  .debug_str:000000000001aae0 .LASF6229
     /tmp/cc2IngwB.s:96355  .debug_str:000000000001aaf2 .LASF6230
     /tmp/cc2IngwB.s:96431  .debug_str:000000000001b0b2 .LASF6231
     /tmp/cc2IngwB.s:96433  .debug_str:000000000001b0c4 .LASF6232
     /tmp/cc2IngwB.s:96435  .debug_str:000000000001b0d6 .LASF6233
     /tmp/cc2IngwB.s:92145  .debug_str:000000000000a09e .LASF6234
     /tmp/cc2IngwB.s:96609  .debug_str:000000000001baf0 .LASF6235
     /tmp/cc2IngwB.s:97271  .debug_str:000000000001e69c .LASF6236
     /tmp/cc2IngwB.s:105281  .debug_str:000000000003ee88 .LASF6237
     /tmp/cc2IngwB.s:96635  .debug_str:000000000001bc07 .LASF6238
     /tmp/cc2IngwB.s:99659  .debug_str:0000000000028220 .LASF6239
     /tmp/cc2IngwB.s:100099  .debug_str:0000000000029f43 .LASF6240
     /tmp/cc2IngwB.s:105199  .debug_str:000000000003e954 .LASF6241
     /tmp/cc2IngwB.s:96437  .debug_str:000000000001b0e8 .LASF6242
     /tmp/cc2IngwB.s:96439  .debug_str:000000000001b0fa .LASF6243
     /tmp/cc2IngwB.s:93213  .debug_str:000000000000e6d1 .LASF6244
     /tmp/cc2IngwB.s:97861  .debug_str:000000000002100a .LASF6245
     /tmp/cc2IngwB.s:107605  .debug_str:0000000000048ad2 .LASF6246
     /tmp/cc2IngwB.s:102209  .debug_str:00000000000325be .LASF6247
     /tmp/cc2IngwB.s:96441  .debug_str:000000000001b10c .LASF6248
     /tmp/cc2IngwB.s:96443  .debug_str:000000000001b11e .LASF6249
     /tmp/cc2IngwB.s:96445  .debug_str:000000000001b130 .LASF6250
     /tmp/cc2IngwB.s:96447  .debug_str:000000000001b142 .LASF6251
     /tmp/cc2IngwB.s:96449  .debug_str:000000000001b154 .LASF6252
     /tmp/cc2IngwB.s:96523  .debug_str:000000000001b608 .LASF6253
     /tmp/cc2IngwB.s:96525  .debug_str:000000000001b61a .LASF6254
     /tmp/cc2IngwB.s:105523  .debug_str:000000000003fd6d .LASF6255
     /tmp/cc2IngwB.s:105527  .debug_str:000000000003fda4 .LASF6256
     /tmp/cc2IngwB.s:96531  .debug_str:000000000001b642 .LASF6257
     /tmp/cc2IngwB.s:96533  .debug_str:000000000001b654 .LASF6258
     /tmp/cc2IngwB.s:96535  .debug_str:000000000001b666 .LASF6259
     /tmp/cc2IngwB.s:96537  .debug_str:000000000001b678 .LASF6260
     /tmp/cc2IngwB.s:96539  .debug_str:000000000001b68a .LASF6261
     /tmp/cc2IngwB.s:94845  .debug_str:00000000000149cd .LASF6262
     /tmp/cc2IngwB.s:96615  .debug_str:000000000001bb42 .LASF6263
     /tmp/cc2IngwB.s:104277  .debug_str:000000000003a996 .LASF6264
     /tmp/cc2IngwB.s:96619  .debug_str:000000000001bb6d .LASF6265
     /tmp/cc2IngwB.s:95063  .debug_str:00000000000156e8 .LASF6266
     /tmp/cc2IngwB.s:96623  .debug_str:000000000001bb9b .LASF6267
     /tmp/cc2IngwB.s:96625  .debug_str:000000000001bbad .LASF6268
     /tmp/cc2IngwB.s:96627  .debug_str:000000000001bbbf .LASF6269
     /tmp/cc2IngwB.s:96629  .debug_str:000000000001bbd1 .LASF6270
     /tmp/cc2IngwB.s:96631  .debug_str:000000000001bbe3 .LASF6271
     /tmp/cc2IngwB.s:96633  .debug_str:000000000001bbf5 .LASF6272
     /tmp/cc2IngwB.s:96707  .debug_str:000000000001c119 .LASF6273
     /tmp/cc2IngwB.s:96709  .debug_str:000000000001c12b .LASF6274
     /tmp/cc2IngwB.s:96711  .debug_str:000000000001c13d .LASF6275
     /tmp/cc2IngwB.s:105851  .debug_str:000000000004129b .LASF6276
     /tmp/cc2IngwB.s:96715  .debug_str:000000000001c162 .LASF6277
     /tmp/cc2IngwB.s:96717  .debug_str:000000000001c174 .LASF6278
     /tmp/cc2IngwB.s:105857  .debug_str:00000000000412f6 .LASF6279
     /tmp/cc2IngwB.s:105859  .debug_str:0000000000041308 .LASF6280
     /tmp/cc2IngwB.s:96723  .debug_str:000000000001c1c0 .LASF6281
     /tmp/cc2IngwB.s:102285  .debug_str:0000000000032b9f .LASF6282
     /tmp/cc2IngwB.s:109297  .debug_str:000000000004fd02 .LASF6283
     /tmp/cc2IngwB.s:96721  .debug_str:000000000001c1b6 .LASF6284
     /tmp/cc2IngwB.s:103887  .debug_str:0000000000039429 .LASF6285
     /tmp/cc2IngwB.s:91105  .debug_str:0000000000005ac7 .LASF6286
     /tmp/cc2IngwB.s:98335  .debug_str:0000000000022f9f .LASF6287
     /tmp/cc2IngwB.s:105395  .debug_str:000000000003f53d .LASF6288
     /tmp/cc2IngwB.s:96725  .debug_str:000000000001c1d2 .LASF6289
     /tmp/cc2IngwB.s:96799  .debug_str:000000000001c70b .LASF6290
     /tmp/cc2IngwB.s:96801  .debug_str:000000000001c71d .LASF6291
     /tmp/cc2IngwB.s:96803  .debug_str:000000000001c72f .LASF6292
     /tmp/cc2IngwB.s:96805  .debug_str:000000000001c741 .LASF6293
     /tmp/cc2IngwB.s:97561  .debug_str:000000000001fb3b .LASF6294
     /tmp/cc2IngwB.s:108287  .debug_str:000000000004b742 .LASF6295
     /tmp/cc2IngwB.s:90299  .debug_str:00000000000024e0 .LASF6296
     /tmp/cc2IngwB.s:91987  .debug_str:0000000000009610 .LASF6297
     /tmp/cc2IngwB.s:93973  .debug_str:0000000000011149 .LASF6298
     /tmp/cc2IngwB.s:95767  .debug_str:0000000000018500 .LASF6299
     /tmp/cc2IngwB.s:100407  .debug_str:000000000002b347 .LASF6300
     /tmp/cc2IngwB.s:98725  .debug_str:00000000000249f0 .LASF6301
     /tmp/cc2IngwB.s:95585  .debug_str:00000000000178a3 .LASF6302
     /tmp/cc2IngwB.s:92883  .debug_str:000000000000d3e8 .LASF6303
     /tmp/cc2IngwB.s:91473  .debug_str:00000000000073fc .LASF6304
     /tmp/cc2IngwB.s:97401  .debug_str:000000000001ef5c .LASF6305
     /tmp/cc2IngwB.s:98473  .debug_str:0000000000023848 .LASF6306
     /tmp/cc2IngwB.s:100277  .debug_str:000000000002ab70 .LASF6307
     /tmp/cc2IngwB.s:108411  .debug_str:000000000004c087 .LASF6308
     /tmp/cc2IngwB.s:100553  .debug_str:000000000002bcd3 .LASF6309
     /tmp/cc2IngwB.s:92521  .debug_str:000000000000bb10 .LASF6310
     /tmp/cc2IngwB.s:104633  .debug_str:000000000003c206 .LASF6311
     /tmp/cc2IngwB.s:96789  .debug_str:000000000001c63d .LASF6312
     /tmp/cc2IngwB.s:105903  .debug_str:0000000000041776 .LASF6313
     /tmp/cc2IngwB.s:94521  .debug_str:0000000000013582 .LASF6314
     /tmp/cc2IngwB.s:96807  .debug_str:000000000001c753 .LASF6315
     /tmp/cc2IngwB.s:106023  .debug_str:0000000000042095 .LASF6316
     /tmp/cc2IngwB.s:96811  .debug_str:000000000001c795 .LASF6317
     /tmp/cc2IngwB.s:96813  .debug_str:000000000001c7a7 .LASF6318
     /tmp/cc2IngwB.s:95567  .debug_str:0000000000017754 .LASF6319
     /tmp/cc2IngwB.s:96817  .debug_str:000000000001c857 .LASF6320
     /tmp/cc2IngwB.s:96885  .debug_str:000000000001cd0e .LASF6321
     /tmp/cc2IngwB.s:96887  .debug_str:000000000001cd20 .LASF6322
     /tmp/cc2IngwB.s:106177  .debug_str:0000000000042d59 .LASF6323
     /tmp/cc2IngwB.s:90557  .debug_str:000000000000355a .LASF6324
     /tmp/cc2IngwB.s:93921  .debug_str:0000000000010d94 .LASF6325
     /tmp/cc2IngwB.s:92305  .debug_str:000000000000abc1 .LASF6326
     /tmp/cc2IngwB.s:99027  .debug_str:0000000000025bb0 .LASF6327
     /tmp/cc2IngwB.s:106131  .debug_str:0000000000042a34 .LASF6328
     /tmp/cc2IngwB.s:93409  .debug_str:000000000000f05e .LASF6329
     /tmp/cc2IngwB.s:100725  .debug_str:000000000002c763 .LASF6330
     /tmp/cc2IngwB.s:107731  .debug_str:00000000000492e4 .LASF6331
     /tmp/cc2IngwB.s:96891  .debug_str:000000000001cd4e .LASF6332
     /tmp/cc2IngwB.s:96893  .debug_str:000000000001cd60 .LASF6333
     /tmp/cc2IngwB.s:95467  .debug_str:00000000000170cf .LASF6334
     /tmp/cc2IngwB.s:94375  .debug_str:0000000000012a9f .LASF6335
     /tmp/cc2IngwB.s:95453  .debug_str:0000000000017020 .LASF6336
     /tmp/cc2IngwB.s:91953  .debug_str:000000000000937b .LASF6337
     /tmp/cc2IngwB.s:97337  .debug_str:000000000001eb0a .LASF6338
     /tmp/cc2IngwB.s:103835  .debug_str:00000000000390cc .LASF6339
     /tmp/cc2IngwB.s:95913  .debug_str:0000000000018da5 .LASF6340
     /tmp/cc2IngwB.s:108077  .debug_str:000000000004a9a0 .LASF6341
     /tmp/cc2IngwB.s:94491  .debug_str:00000000000132b8 .LASF6342
     /tmp/cc2IngwB.s:93813  .debug_str:00000000000107c2 .LASF6343
     /tmp/cc2IngwB.s:100489  .debug_str:000000000002b7ec .LASF6344
     /tmp/cc2IngwB.s:97667  .debug_str:000000000002026a .LASF6345
     /tmp/cc2IngwB.s:98267  .debug_str:0000000000022ae1 .LASF6346
     /tmp/cc2IngwB.s:91923  .debug_str:0000000000009193 .LASF6347
     /tmp/cc2IngwB.s:90641  .debug_str:0000000000003b37 .LASF6348
     /tmp/cc2IngwB.s:102079  .debug_str:0000000000031e03 .LASF6349
     /tmp/cc2IngwB.s:105813  .debug_str:0000000000040f8c .LASF6350
     /tmp/cc2IngwB.s:90681  .debug_str:0000000000003dd0 .LASF6351
     /tmp/cc2IngwB.s:108785  .debug_str:000000000004da2d .LASF6352
     /tmp/cc2IngwB.s:105347  .debug_str:000000000003f2fa .LASF6353
     /tmp/cc2IngwB.s:101495  .debug_str:000000000002f849 .LASF6354
     /tmp/cc2IngwB.s:89885  .debug_str:0000000000000789 .LASF6355
     /tmp/cc2IngwB.s:102303  .debug_str:0000000000032cac .LASF6356
     /tmp/cc2IngwB.s:106989  .debug_str:00000000000462d1 .LASF6357
     /tmp/cc2IngwB.s:95871  .debug_str:0000000000018bee .LASF6358
     /tmp/cc2IngwB.s:102357  .debug_str:0000000000033043 .LASF6359
     /tmp/cc2IngwB.s:102295  .debug_str:0000000000032c3f .LASF6360
     /tmp/cc2IngwB.s:98055  .debug_str:0000000000021ca8 .LASF6361
     /tmp/cc2IngwB.s:102081  .debug_str:0000000000031e1a .LASF6362
     /tmp/cc2IngwB.s:102797  .debug_str:0000000000034d21 .LASF6363
     /tmp/cc2IngwB.s:103023  .debug_str:0000000000035e2d .LASF6364
     /tmp/cc2IngwB.s:102323  .debug_str:0000000000032dee .LASF6365
     /tmp/cc2IngwB.s:108619  .debug_str:000000000004ce11 .LASF6366
     /tmp/cc2IngwB.s:92217  .debug_str:000000000000a508 .LASF6367
     /tmp/cc2IngwB.s:95325  .debug_str:000000000001671a .LASF6368
     /tmp/cc2IngwB.s:98031  .debug_str:0000000000021b43 .LASF6369
     /tmp/cc2IngwB.s:90841  .debug_str:000000000000491d .LASF6370
     /tmp/cc2IngwB.s:101195  .debug_str:000000000002e460 .LASF6371
     /tmp/cc2IngwB.s:103067  .debug_str:00000000000360ac .LASF6372
     /tmp/cc2IngwB.s:100809  .debug_str:000000000002cc30 .LASF6373
     /tmp/cc2IngwB.s:101509  .debug_str:000000000002f9ab .LASF6374
     /tmp/cc2IngwB.s:102241  .debug_str:00000000000327d6 .LASF6375
     /tmp/cc2IngwB.s:101221  .debug_str:000000000002e630 .LASF6376
     /tmp/cc2IngwB.s:107499  .debug_str:0000000000048393 .LASF6377
     /tmp/cc2IngwB.s:91679  .debug_str:00000000000080e1 .LASF6378
     /tmp/cc2IngwB.s:94187  .debug_str:0000000000011e4f .LASF6379
     /tmp/cc2IngwB.s:96889  .debug_str:000000000001cd32 .LASF6380
     /tmp/cc2IngwB.s:89925  .debug_str:0000000000000a2c .LASF6381
     /tmp/cc2IngwB.s:104541  .debug_str:000000000003bc59 .LASF6382
     /tmp/cc2IngwB.s:105927  .debug_str:00000000000418e5 .LASF6383
     /tmp/cc2IngwB.s:107789  .debug_str:000000000004969d .LASF6384
     /tmp/cc2IngwB.s:100121  .debug_str:000000000002a0b7 .LASF6385
     /tmp/cc2IngwB.s:102343  .debug_str:0000000000032f6e .LASF6386
     /tmp/cc2IngwB.s:90027  .debug_str:000000000000110d .LASF6387
     /tmp/cc2IngwB.s:92235  .debug_str:000000000000a69f .LASF6388
     /tmp/cc2IngwB.s:95117  .debug_str:0000000000015a18 .LASF6389
     /tmp/cc2IngwB.s:90121  .debug_str:0000000000001789 .LASF6390
     /tmp/cc2IngwB.s:103789  .debug_str:0000000000038ed4 .LASF6391
     /tmp/cc2IngwB.s:101531  .debug_str:000000000002fb38 .LASF6392
     /tmp/cc2IngwB.s:94565  .debug_str:0000000000013899 .LASF6393
     /tmp/cc2IngwB.s:108103  .debug_str:000000000004aafd .LASF6394
     /tmp/cc2IngwB.s:90047  .debug_str:000000000000126f .LASF6395
     /tmp/cc2IngwB.s:98421  .debug_str:00000000000234e2 .LASF6396
     /tmp/cc2IngwB.s:95709  .debug_str:0000000000018187 .LASF6397
     /tmp/cc2IngwB.s:107207  .debug_str:0000000000047013 .LASF6398
     /tmp/cc2IngwB.s:97095  .debug_str:000000000001da0b .LASF6399
     /tmp/cc2IngwB.s:101223  .debug_str:000000000002e657 .LASF6400
     /tmp/cc2IngwB.s:109007  .debug_str:000000000004ea74 .LASF6401
     /tmp/cc2IngwB.s:106783  .debug_str:00000000000455bc .LASF6402
     /tmp/cc2IngwB.s:94145  .debug_str:0000000000011b76 .LASF6403
     /tmp/cc2IngwB.s:105633  .debug_str:0000000000040468 .LASF6404
     /tmp/cc2IngwB.s:95519  .debug_str:00000000000173be .LASF6405
     /tmp/cc2IngwB.s:90941  .debug_str:0000000000004fb9 .LASF6406
     /tmp/cc2IngwB.s:89963  .debug_str:0000000000000c60 .LASF6407
     /tmp/cc2IngwB.s:96659  .debug_str:000000000001bd86 .LASF6408
     /tmp/cc2IngwB.s:107531  .debug_str:00000000000485ae .LASF6409
     /tmp/cc2IngwB.s:109105  .debug_str:000000000004f142 .LASF6410
     /tmp/cc2IngwB.s:103829  .debug_str:000000000003903e .LASF6411
     /tmp/cc2IngwB.s:92919  .debug_str:000000000000d613 .LASF6412
     /tmp/cc2IngwB.s:93103  .debug_str:000000000000e022 .LASF6413
     /tmp/cc2IngwB.s:108899  .debug_str:000000000004e17b .LASF6414
     /tmp/cc2IngwB.s:106493  .debug_str:00000000000442ec .LASF6415
     /tmp/cc2IngwB.s:91809  .debug_str:00000000000089e6 .LASF6416
     /tmp/cc2IngwB.s:90517  .debug_str:0000000000003357 .LASF6417
     /tmp/cc2IngwB.s:92291  .debug_str:000000000000aade .LASF6418
     /tmp/cc2IngwB.s:95439  .debug_str:0000000000016f2c .LASF6419
     /tmp/cc2IngwB.s:104791  .debug_str:000000000003cd78 .LASF6420
     /tmp/cc2IngwB.s:91895  .debug_str:0000000000008fae .LASF6421
     /tmp/cc2IngwB.s:91079  .debug_str:00000000000058da .LASF6422
     /tmp/cc2IngwB.s:103667  .debug_str:00000000000387b1 .LASF6423
     /tmp/cc2IngwB.s:103607  .debug_str:00000000000383d6 .LASF6424
     /tmp/cc2IngwB.s:104059  .debug_str:0000000000039cf9 .LASF6425
     /tmp/cc2IngwB.s:90801  .debug_str:0000000000004624 .LASF6426
     /tmp/cc2IngwB.s:99813  .debug_str:0000000000028c6c .LASF6427
     /tmp/cc2IngwB.s:108429  .debug_str:000000000004c1a1 .LASF6428
     /tmp/cc2IngwB.s:100379  .debug_str:000000000002b10c .LASF6429
     /tmp/cc2IngwB.s:95281  .debug_str:000000000001645f .LASF6430
     /tmp/cc2IngwB.s:93425  .debug_str:000000000000f168 .LASF6431
     /tmp/cc2IngwB.s:91117  .debug_str:0000000000005b92 .LASF6432
     /tmp/cc2IngwB.s:105973  .debug_str:0000000000041d1e .LASF6433
     /tmp/cc2IngwB.s:104795  .debug_str:000000000003cdd9 .LASF6434
     /tmp/cc2IngwB.s:103703  .debug_str:00000000000389f6 .LASF6435
     /tmp/cc2IngwB.s:93159  .debug_str:000000000000e375 .LASF6436
     /tmp/cc2IngwB.s:97967  .debug_str:00000000000216c0 .LASF6437
     /tmp/cc2IngwB.s:90293  .debug_str:00000000000024a1 .LASF6438
     /tmp/cc2IngwB.s:91163  .debug_str:0000000000005e80 .LASF6439
     /tmp/cc2IngwB.s:95833  .debug_str:00000000000189a8 .LASF6440
     /tmp/cc2IngwB.s:102457  .debug_str:00000000000336f8 .LASF6441
     /tmp/cc2IngwB.s:92079  .debug_str:0000000000009c7a .LASF6442
     /tmp/cc2IngwB.s:99719  .debug_str:00000000000285db .LASF6443
     /tmp/cc2IngwB.s:93939  .debug_str:0000000000010eb3 .LASF6444
     /tmp/cc2IngwB.s:104877  .debug_str:000000000003d2b9 .LASF6445
     /tmp/cc2IngwB.s:108923  .debug_str:000000000004e3a4 .LASF6446
     /tmp/cc2IngwB.s:109471  .debug_str:0000000000050912 .LASF6447
     /tmp/cc2IngwB.s:102781  .debug_str:0000000000034c2e .LASF6448
     /tmp/cc2IngwB.s:98907  .debug_str:00000000000254d7 .LASF6449
     /tmp/cc2IngwB.s:102783  .debug_str:0000000000034c3a .LASF6450
     /tmp/cc2IngwB.s:104201  .debug_str:000000000003a4f4 .LASF6451
     /tmp/cc2IngwB.s:100517  .debug_str:000000000002ba90 .LASF6452
     /tmp/cc2IngwB.s:97439  .debug_str:000000000001f195 .LASF6453
     /tmp/cc2IngwB.s:97551  .debug_str:000000000001fa51 .LASF6454
     /tmp/cc2IngwB.s:101977  .debug_str:0000000000031751 .LASF6455
     /tmp/cc2IngwB.s:92025  .debug_str:0000000000009844 .LASF6456
     /tmp/cc2IngwB.s:97335  .debug_str:000000000001eb02 .LASF6457
     /tmp/cc2IngwB.s:92203  .debug_str:000000000000a4af .LASF6458
     /tmp/cc2IngwB.s:97199  .debug_str:000000000001e1ce .LASF6459
     /tmp/cc2IngwB.s:91995  .debug_str:0000000000009677 .LASF6460
     /tmp/cc2IngwB.s:100381  .debug_str:000000000002b128 .LASF6461
     /tmp/cc2IngwB.s:97033  .debug_str:000000000001d60d .LASF6462
     /tmp/cc2IngwB.s:107741  .debug_str:000000000004938f .LASF6463
     /tmp/cc2IngwB.s:91373  .debug_str:0000000000006c1f .LASF6464
     /tmp/cc2IngwB.s:103359  .debug_str:0000000000037441 .LASF6465
     /tmp/cc2IngwB.s:108493  .debug_str:000000000004c5fa .LASF6466
     /tmp/cc2IngwB.s:108811  .debug_str:000000000004dbb6 .LASF6467
     /tmp/cc2IngwB.s:90779  .debug_str:0000000000004541 .LASF6468
     /tmp/cc2IngwB.s:108827  .debug_str:000000000004dc9c .LASF6469
     /tmp/cc2IngwB.s:92635  .debug_str:000000000000c35a .LASF6470
     /tmp/cc2IngwB.s:98513  .debug_str:0000000000023bc5 .LASF6471
     /tmp/cc2IngwB.s:93149  .debug_str:000000000000e33e .LASF6472
     /tmp/cc2IngwB.s:98635  .debug_str:0000000000024382 .LASF6473
     /tmp/cc2IngwB.s:101035  .debug_str:000000000002d9be .LASF6474
     /tmp/cc2IngwB.s:109143  .debug_str:000000000004f38c .LASF6475
     /tmp/cc2IngwB.s:98573  .debug_str:0000000000023f8c .LASF6476
     /tmp/cc2IngwB.s:99555  .debug_str:0000000000027ad1 .LASF6477
     /tmp/cc2IngwB.s:96021  .debug_str:00000000000194a7 .LASF6478
     /tmp/cc2IngwB.s:96023  .debug_str:00000000000194b6 .LASF6479
     /tmp/cc2IngwB.s:96215  .debug_str:000000000001a261 .LASF6480
     /tmp/cc2IngwB.s:95297  .debug_str:0000000000016529 .LASF6481
     /tmp/cc2IngwB.s:102663  .debug_str:0000000000034529 .LASF6482
     /tmp/cc2IngwB.s:97409  .debug_str:000000000001eff4 .LASF6483
     /tmp/cc2IngwB.s:93503  .debug_str:000000000000f5ab .LASF6484
     /tmp/cc2IngwB.s:93505  .debug_str:000000000000f5ba .LASF6485
     /tmp/cc2IngwB.s:95647  .debug_str:0000000000017d8b .LASF6486
     /tmp/cc2IngwB.s:98987  .debug_str:0000000000025905 .LASF6487
     /tmp/cc2IngwB.s:106211  .debug_str:0000000000043003 .LASF6488
     /tmp/cc2IngwB.s:105609  .debug_str:0000000000040314 .LASF6489
     /tmp/cc2IngwB.s:97411  .debug_str:000000000001effe .LASF6490
     /tmp/cc2IngwB.s:91819  .debug_str:0000000000008ac4 .LASF6491
     /tmp/cc2IngwB.s:99099  .debug_str:0000000000025efc .LASF6492
     /tmp/cc2IngwB.s:107691  .debug_str:0000000000049055 .LASF6493
     /tmp/cc2IngwB.s:96545  .debug_str:000000000001b6e5 .LASF6494
     /tmp/cc2IngwB.s:98763  .debug_str:0000000000024c48 .LASF6495
     /tmp/cc2IngwB.s:104115  .debug_str:0000000000039fac .LASF6496
     /tmp/cc2IngwB.s:101351  .debug_str:000000000002ef04 .LASF6497
     /tmp/cc2IngwB.s:107395  .debug_str:0000000000047c8d .LASF6498
     /tmp/cc2IngwB.s:90729  .debug_str:0000000000004176 .LASF6499
     /tmp/cc2IngwB.s:93841  .debug_str:00000000000109ed .LASF6500
     /tmp/cc2IngwB.s:104275  .debug_str:000000000003a989 .LASF6501
     /tmp/cc2IngwB.s:107241  .debug_str:000000000004728d .LASF6502
     /tmp/cc2IngwB.s:98665  .debug_str:00000000000245b6 .LASF6503
     /tmp/cc2IngwB.s:105767  .debug_str:0000000000040c78 .LASF6504
     /tmp/cc2IngwB.s:106729  .debug_str:00000000000451c4 .LASF6505
     /tmp/cc2IngwB.s:96999  .debug_str:000000000001d3da .LASF6506
     /tmp/cc2IngwB.s:109187  .debug_str:000000000004f605 .LASF6507
     /tmp/cc2IngwB.s:98073  .debug_str:0000000000021e52 .LASF6508
     /tmp/cc2IngwB.s:100905  .debug_str:000000000002d291 .LASF6509
     /tmp/cc2IngwB.s:92367  .debug_str:000000000000aff0 .LASF6510
     /tmp/cc2IngwB.s:91275  .debug_str:000000000000656d .LASF6511
     /tmp/cc2IngwB.s:91143  .debug_str:0000000000005d0c .LASF6512
     /tmp/cc2IngwB.s:92907  .debug_str:000000000000d57c .LASF6513
     /tmp/cc2IngwB.s:106735  .debug_str:0000000000045251 .LASF6514
     /tmp/cc2IngwB.s:102439  .debug_str:00000000000335e6 .LASF6515
     /tmp/cc2IngwB.s:106425  .debug_str:0000000000043dfe .LASF6516
     /tmp/cc2IngwB.s:108099  .debug_str:000000000004aabb .LASF6517
     /tmp/cc2IngwB.s:100911  .debug_str:000000000002d2df .LASF6518
     /tmp/cc2IngwB.s:107375  .debug_str:0000000000047b08 .LASF6519
     /tmp/cc2IngwB.s:108801  .debug_str:000000000004db27 .LASF6520
     /tmp/cc2IngwB.s:103475  .debug_str:0000000000037ba9 .LASF6521
     /tmp/cc2IngwB.s:100161  .debug_str:000000000002a376 .LASF6522
     /tmp/cc2IngwB.s:100173  .debug_str:000000000002a43e .LASF6523
     /tmp/cc2IngwB.s:92983  .debug_str:000000000000da03 .LASF6524
     /tmp/cc2IngwB.s:106925  .debug_str:0000000000045dfa .LASF6525
     /tmp/cc2IngwB.s:106697  .debug_str:0000000000045006 .LASF6526
     /tmp/cc2IngwB.s:106927  .debug_str:0000000000045e04 .LASF6527
     /tmp/cc2IngwB.s:94701  .debug_str:000000000001410a .LASF6528
     /tmp/cc2IngwB.s:106933  .debug_str:0000000000045e56 .LASF6529
     /tmp/cc2IngwB.s:106143  .debug_str:0000000000042b0c .LASF6530
     /tmp/cc2IngwB.s:105095  .debug_str:000000000003e132 .LASF6531
     /tmp/cc2IngwB.s:92719  .debug_str:000000000000c87c .LASF6532
     /tmp/cc2IngwB.s:101941  .debug_str:0000000000031504 .LASF6533
     /tmp/cc2IngwB.s:93151  .debug_str:000000000000e34d .LASF6534
     /tmp/cc2IngwB.s:93153  .debug_str:000000000000e357 .LASF6535
     /tmp/cc2IngwB.s:98145  .debug_str:0000000000022337 .LASF6536
     /tmp/cc2IngwB.s:92715  .debug_str:000000000000c812 .LASF6537
     /tmp/cc2IngwB.s:109277  .debug_str:000000000004fc1d .LASF6538
     /tmp/cc2IngwB.s:94585  .debug_str:00000000000139c3 .LASF6539
     /tmp/cc2IngwB.s:93155  .debug_str:000000000000e361 .LASF6540
     /tmp/cc2IngwB.s:90431  .debug_str:0000000000002d66 .LASF6541
     /tmp/cc2IngwB.s:93157  .debug_str:000000000000e36b .LASF6542
     /tmp/cc2IngwB.s:95203  .debug_str:0000000000016033 .LASF6543
     /tmp/cc2IngwB.s:103373  .debug_str:000000000003751f .LASF6544
     /tmp/cc2IngwB.s:93241  .debug_str:000000000000e8bc .LASF6545
     /tmp/cc2IngwB.s:97635  .debug_str:000000000001ffd0 .LASF6546
     /tmp/cc2IngwB.s:93243  .debug_str:000000000000e8c6 .LASF6547
     /tmp/cc2IngwB.s:101911  .debug_str:000000000003135b .LASF6548
     /tmp/cc2IngwB.s:93519  .debug_str:000000000000f745 .LASF6549
     /tmp/cc2IngwB.s:104035  .debug_str:0000000000039bb1 .LASF6550
     /tmp/cc2IngwB.s:92189  .debug_str:000000000000a3f0 .LASF6551
     /tmp/cc2IngwB.s:107089  .debug_str:00000000000468ff .LASF6552
     /tmp/cc2IngwB.s:105655  .debug_str:00000000000405c3 .LASF6553
     /tmp/cc2IngwB.s:93247  .debug_str:000000000000e8e9 .LASF6554
     /tmp/cc2IngwB.s:92805  .debug_str:000000000000cede .LASF6555
     /tmp/cc2IngwB.s:100955  .debug_str:000000000002d539 .LASF6556
     /tmp/cc2IngwB.s:93249  .debug_str:000000000000e8f3 .LASF6557
     /tmp/cc2IngwB.s:91965  .debug_str:0000000000009470 .LASF6558
     /tmp/cc2IngwB.s:105671  .debug_str:00000000000406aa .LASF6559
     /tmp/cc2IngwB.s:94313  .debug_str:00000000000126f4 .LASF6560
     /tmp/cc2IngwB.s:108321  .debug_str:000000000004ba3f .LASF6561
     /tmp/cc2IngwB.s:101873  .debug_str:0000000000031115 .LASF6562
     /tmp/cc2IngwB.s:91737  .debug_str:000000000000850a .LASF6563
     /tmp/cc2IngwB.s:93251  .debug_str:000000000000e8fd .LASF6564
     /tmp/cc2IngwB.s:108215  .debug_str:000000000004b29f .LASF6565
     /tmp/cc2IngwB.s:93253  .debug_str:000000000000e907 .LASF6566
     /tmp/cc2IngwB.s:102431  .debug_str:0000000000033563 .LASF6567
     /tmp/cc2IngwB.s:90671  .debug_str:0000000000003d2c .LASF6568
     /tmp/cc2IngwB.s:93255  .debug_str:000000000000e911 .LASF6569
     /tmp/cc2IngwB.s:99885  .debug_str:0000000000029170 .LASF6570
     /tmp/cc2IngwB.s:96195  .debug_str:000000000001a0ed .LASF6571
     /tmp/cc2IngwB.s:91379  .debug_str:0000000000006c8b .LASF6572
     /tmp/cc2IngwB.s:95191  .debug_str:0000000000015f9e .LASF6573
     /tmp/cc2IngwB.s:106639  .debug_str:0000000000044c22 .LASF6574
     /tmp/cc2IngwB.s:93257  .debug_str:000000000000e91b .LASF6575
     /tmp/cc2IngwB.s:100135  .debug_str:000000000002a1c2 .LASF6576
     /tmp/cc2IngwB.s:95049  .debug_str:000000000001562d .LASF6577
     /tmp/cc2IngwB.s:107057  .debug_str:00000000000466ee .LASF6578
     /tmp/cc2IngwB.s:95329  .debug_str:0000000000016786 .LASF6579
     /tmp/cc2IngwB.s:96505  .debug_str:000000000001b519 .LASF6580
     /tmp/cc2IngwB.s:108003  .debug_str:000000000004a52a .LASF6581
     /tmp/cc2IngwB.s:89987  .debug_str:0000000000000e0d .LASF6582
     /tmp/cc2IngwB.s:99685  .debug_str:00000000000283d2 .LASF6583
     /tmp/cc2IngwB.s:106013  .debug_str:0000000000041fea .LASF6584
     /tmp/cc2IngwB.s:99815  .debug_str:0000000000028caf .LASF6585
     /tmp/cc2IngwB.s:93445  .debug_str:000000000000f2eb .LASF6586
     /tmp/cc2IngwB.s:107047  .debug_str:000000000004662c .LASF6587
     /tmp/cc2IngwB.s:107321  .debug_str:00000000000477d7 .LASF6588
     /tmp/cc2IngwB.s:93325  .debug_str:000000000000ecf1 .LASF6589
     /tmp/cc2IngwB.s:92423  .debug_str:000000000000b436 .LASF6590
     /tmp/cc2IngwB.s:91761  .debug_str:0000000000008668 .LASF6591
     /tmp/cc2IngwB.s:94489  .debug_str:00000000000132b1 .LASF6592
     /tmp/cc2IngwB.s:94357  .debug_str:000000000001297f .LASF6593
     /tmp/cc2IngwB.s:106739  .debug_str:0000000000045294 .LASF6594
     /tmp/cc2IngwB.s:105317  .debug_str:000000000003f0ea .LASF6595
     /tmp/cc2IngwB.s:99923  .debug_str:0000000000029456 .LASF6596
     /tmp/cc2IngwB.s:92479  .debug_str:000000000000b820 .LASF6597
     /tmp/cc2IngwB.s:106049  .debug_str:0000000000042242 .LASF6598
     /tmp/cc2IngwB.s:97697  .debug_str:00000000000204f5 .LASF6599
     /tmp/cc2IngwB.s:93053  .debug_str:000000000000ddff .LASF6600
     /tmp/cc2IngwB.s:109033  .debug_str:000000000004ebbf .LASF6601
     /tmp/cc2IngwB.s:94581  .debug_str:0000000000013982 .LASF6602
     /tmp/cc2IngwB.s:93603  .debug_str:000000000000fc51 .LASF6603
     /tmp/cc2IngwB.s:105445  .debug_str:000000000003f8bd .LASF6604
     /tmp/cc2IngwB.s:93055  .debug_str:000000000000de09 .LASF6605
     /tmp/cc2IngwB.s:97017  .debug_str:000000000001d509 .LASF6606
     /tmp/cc2IngwB.s:100823  .debug_str:000000000002ccf2 .LASF6607
     /tmp/cc2IngwB.s:99687  .debug_str:00000000000283ec .LASF6608
     /tmp/cc2IngwB.s:101931  .debug_str:000000000003147f .LASF6609
     /tmp/cc2IngwB.s:89877  .debug_str:0000000000000720 .LASF6610
     /tmp/cc2IngwB.s:90555  .debug_str:0000000000003552 .LASF6611
     /tmp/cc2IngwB.s:108253  .debug_str:000000000004b537 .LASF6612
     /tmp/cc2IngwB.s:93201  .debug_str:000000000000e621 .LASF6613
     /tmp/cc2IngwB.s:93057  .debug_str:000000000000de13 .LASF6614
     /tmp/cc2IngwB.s:93059  .debug_str:000000000000de1d .LASF6615
     /tmp/cc2IngwB.s:96597  .debug_str:000000000001ba3d .LASF6616
     /tmp/cc2IngwB.s:106843  .debug_str:0000000000045937 .LASF6617
     /tmp/cc2IngwB.s:100611  .debug_str:000000000002bfc7 .LASF6618
     /tmp/cc2IngwB.s:102363  .debug_str:00000000000330f5 .LASF6619
     /tmp/cc2IngwB.s:99625  .debug_str:0000000000028003 .LASF6620
     /tmp/cc2IngwB.s:92199  .debug_str:000000000000a493 .LASF6621
     /tmp/cc2IngwB.s:107041  .debug_str:00000000000465d5 .LASF6622
     /tmp/cc2IngwB.s:96915  .debug_str:000000000001cec8 .LASF6623
     /tmp/cc2IngwB.s:93181  .debug_str:000000000000e500 .LASF6624
     /tmp/cc2IngwB.s:103867  .debug_str:00000000000392c5 .LASF6625
     /tmp/cc2IngwB.s:100331  .debug_str:000000000002ae04 .LASF6626
     /tmp/cc2IngwB.s:92611  .debug_str:000000000000c1eb .LASF6627
     /tmp/cc2IngwB.s:93407  .debug_str:000000000000f035 .LASF6628
     /tmp/cc2IngwB.s:104047  .debug_str:0000000000039c58 .LASF6629
     /tmp/cc2IngwB.s:102157  .debug_str:0000000000032266 .LASF6630
     /tmp/cc2IngwB.s:98085  .debug_str:0000000000021f46 .LASF6631
     /tmp/cc2IngwB.s:97349  .debug_str:000000000001ebf9 .LASF6632
     /tmp/cc2IngwB.s:91843  .debug_str:0000000000008c3e .LASF6633
     /tmp/cc2IngwB.s:104711  .debug_str:000000000003c7aa .LASF6634
     /tmp/cc2IngwB.s:96929  .debug_str:000000000001cf5d .LASF6635
     /tmp/cc2IngwB.s:92179  .debug_str:000000000000a319 .LASF6636
     /tmp/cc2IngwB.s:106687  .debug_str:0000000000044f8c .LASF6637
     /tmp/cc2IngwB.s:108219  .debug_str:000000000004b2ad .LASF6638
     /tmp/cc2IngwB.s:104085  .debug_str:0000000000039dc0 .LASF6639
     /tmp/cc2IngwB.s:97461  .debug_str:000000000001f2f0 .LASF6640
     /tmp/cc2IngwB.s:91233  .debug_str:00000000000062c0 .LASF6641
     /tmp/cc2IngwB.s:103043  .debug_str:0000000000035f66 .LASF6642
     /tmp/cc2IngwB.s:100957  .debug_str:000000000002d544 .LASF6643
     /tmp/cc2IngwB.s:97685  .debug_str:0000000000020406 .LASF6644
     /tmp/cc2IngwB.s:89791  .debug_str:000000000000012c .LASF6645
     /tmp/cc2IngwB.s:95039  .debug_str:000000000001552c .LASF6646
     /tmp/cc2IngwB.s:98557  .debug_str:0000000000023e8e .LASF6647
     /tmp/cc2IngwB.s:91745  .debug_str:000000000000856a .LASF6648
     /tmp/cc2IngwB.s:107259  .debug_str:0000000000047347 .LASF6649
     /tmp/cc2IngwB.s:91033  .debug_str:00000000000055b8 .LASF6650
     /tmp/cc2IngwB.s:106267  .debug_str:00000000000433f6 .LASF6651
     /tmp/cc2IngwB.s:99467  .debug_str:0000000000027596 .LASF6652
     /tmp/cc2IngwB.s:105333  .debug_str:000000000003f206 .LASF6653
     /tmp/cc2IngwB.s:97587  .debug_str:000000000001fcda .LASF6654
     /tmp/cc2IngwB.s:92399  .debug_str:000000000000b216 .LASF6655
     /tmp/cc2IngwB.s:102171  .debug_str:0000000000032352 .LASF6656
     /tmp/cc2IngwB.s:95361  .debug_str:000000000001692f .LASF6657
     /tmp/cc2IngwB.s:109179  .debug_str:000000000004f5a6 .LASF6658
     /tmp/cc2IngwB.s:103751  .debug_str:0000000000038c27 .LASF6659
     /tmp/cc2IngwB.s:90331  .debug_str:00000000000026d7 .LASF6660
     /tmp/cc2IngwB.s:100545  .debug_str:000000000002bc34 .LASF6661
     /tmp/cc2IngwB.s:103341  .debug_str:0000000000037373 .LASF6662
     /tmp/cc2IngwB.s:103519  .debug_str:0000000000037ec8 .LASF6663
     /tmp/cc2IngwB.s:100577  .debug_str:000000000002be48 .LASF6664
     /tmp/cc2IngwB.s:103357  .debug_str:0000000000037432 .LASF6665
     /tmp/cc2IngwB.s:91125  .debug_str:0000000000005beb .LASF6666
     /tmp/cc2IngwB.s:99847  .debug_str:0000000000028ef3 .LASF6667
     /tmp/cc2IngwB.s:99573  .debug_str:0000000000027c6c .LASF6668
     /tmp/cc2IngwB.s:93333  .debug_str:000000000000ed35 .LASF6669
     /tmp/cc2IngwB.s:92641  .debug_str:000000000000c398 .LASF6670
     /tmp/cc2IngwB.s:92677  .debug_str:000000000000c5b9 .LASF6671
     /tmp/cc2IngwB.s:100573  .debug_str:000000000002be01 .LASF6672
     /tmp/cc2IngwB.s:98387  .debug_str:00000000000232f7 .LASF6673
     /tmp/cc2IngwB.s:102355  .debug_str:000000000003302f .LASF6674
     /tmp/cc2IngwB.s:96049  .debug_str:0000000000019635 .LASF6675
     /tmp/cc2IngwB.s:108743  .debug_str:000000000004d73d .LASF6676
     /tmp/cc2IngwB.s:107037  .debug_str:0000000000046585 .LASF6677
     /tmp/cc2IngwB.s:107597  .debug_str:0000000000048a62 .LASF6678
     /tmp/cc2IngwB.s:96059  .debug_str:0000000000019780 .LASF6679
     /tmp/cc2IngwB.s:101643  .debug_str:0000000000030263 .LASF6680
     /tmp/cc2IngwB.s:92377  .debug_str:000000000000b0be .LASF6681
     /tmp/cc2IngwB.s:101021  .debug_str:000000000002d907 .LASF6682
     /tmp/cc2IngwB.s:94895  .debug_str:0000000000014d18 .LASF6683
     /tmp/cc2IngwB.s:94953  .debug_str:0000000000014fe2 .LASF6684
     /tmp/cc2IngwB.s:105067  .debug_str:000000000003df7a .LASF6685
     /tmp/cc2IngwB.s:100383  .debug_str:000000000002b138 .LASF6686
     /tmp/cc2IngwB.s:100187  .debug_str:000000000002a537 .LASF6687
     /tmp/cc2IngwB.s:104707  .debug_str:000000000003c782 .LASF6688
     /tmp/cc2IngwB.s:98949  .debug_str:0000000000025753 .LASF6689
     /tmp/cc2IngwB.s:92993  .debug_str:000000000000daa7 .LASF6690
     /tmp/cc2IngwB.s:98231  .debug_str:0000000000022929 .LASF6691
     /tmp/cc2IngwB.s:97577  .debug_str:000000000001fc16 .LASF6692
     /tmp/cc2IngwB.s:104181  .debug_str:000000000003a3c7 .LASF6693
     /tmp/cc2IngwB.s:104179  .debug_str:000000000003a3b7 .LASF6694
     /tmp/cc2IngwB.s:102395  .debug_str:0000000000033329 .LASF6695
     /tmp/cc2IngwB.s:92513  .debug_str:000000000000ba9b .LASF6696
     /tmp/cc2IngwB.s:107203  .debug_str:0000000000046fec .LASF6697
     /tmp/cc2IngwB.s:92285  .debug_str:000000000000aa91 .LASF6698
     /tmp/cc2IngwB.s:98047  .debug_str:0000000000021c32 .LASF6699
     /tmp/cc2IngwB.s:96003  .debug_str:0000000000019347 .LASF6700
     /tmp/cc2IngwB.s:98233  .debug_str:0000000000022932 .LASF6701
     /tmp/cc2IngwB.s:95637  .debug_str:0000000000017cd1 .LASF6702
     /tmp/cc2IngwB.s:107401  .debug_str:0000000000047d0c .LASF6703
     /tmp/cc2IngwB.s:101513  .debug_str:000000000002f9f2 .LASF6704
     /tmp/cc2IngwB.s:105535  .debug_str:000000000003fdf4 .LASF6705
     /tmp/cc2IngwB.s:99597  .debug_str:0000000000027dea .LASF6706
     /tmp/cc2IngwB.s:109251  .debug_str:000000000004fac5 .LASF6707
     /tmp/cc2IngwB.s:98235  .debug_str:000000000002293b .LASF6708
     /tmp/cc2IngwB.s:104819  .debug_str:000000000003cf78 .LASF6709
     /tmp/cc2IngwB.s:105537  .debug_str:000000000003fe02 .LASF6710
     /tmp/cc2IngwB.s:91337  .debug_str:00000000000069a7 .LASF6711
     /tmp/cc2IngwB.s:107853  .debug_str:0000000000049b08 .LASF6712
     /tmp/cc2IngwB.s:104625  .debug_str:000000000003c192 .LASF6713
     /tmp/cc2IngwB.s:99757  .debug_str:0000000000028838 .LASF6714
     /tmp/cc2IngwB.s:99743  .debug_str:0000000000028737 .LASF6715
     /tmp/cc2IngwB.s:107549  .debug_str:0000000000048742 .LASF6716
     /tmp/cc2IngwB.s:98891  .debug_str:00000000000253b6 .LASF6717
     /tmp/cc2IngwB.s:93061  .debug_str:000000000000de27 .LASF6718
     /tmp/cc2IngwB.s:98237  .debug_str:0000000000022944 .LASF6719
     /tmp/cc2IngwB.s:98535  .debug_str:0000000000023d42 .LASF6720
     /tmp/cc2IngwB.s:98569  .debug_str:0000000000023f5f .LASF6721
     /tmp/cc2IngwB.s:92711  .debug_str:000000000000c7e1 .LASF6722
     /tmp/cc2IngwB.s:101763  .debug_str:0000000000030964 .LASF6723
     /tmp/cc2IngwB.s:101745  .debug_str:00000000000308a2 .LASF6724
     /tmp/cc2IngwB.s:90381  .debug_str:0000000000002a5e .LASF6725
     /tmp/cc2IngwB.s:91349  .debug_str:0000000000006a8e .LASF6726
     /tmp/cc2IngwB.s:90633  .debug_str:0000000000003ab4 .LASF6727
     /tmp/cc2IngwB.s:93767  .debug_str:00000000000105b9 .LASF6728
     /tmp/cc2IngwB.s:91221  .debug_str:00000000000061e7 .LASF6729
     /tmp/cc2IngwB.s:100427  .debug_str:000000000002b4cd .LASF6730
     /tmp/cc2IngwB.s:106017  .debug_str:000000000004203c .LASF6731
     /tmp/cc2IngwB.s:93063  .debug_str:000000000000de31 .LASF6732
     /tmp/cc2IngwB.s:98239  .debug_str:000000000002294d .LASF6733
     /tmp/cc2IngwB.s:92157  .debug_str:000000000000a188 .LASF6734
     /tmp/cc2IngwB.s:98687  .debug_str:0000000000024751 .LASF6735
     /tmp/cc2IngwB.s:106289  .debug_str:0000000000043500 .LASF6736
     /tmp/cc2IngwB.s:108143  .debug_str:000000000004acf8 .LASF6737
     /tmp/cc2IngwB.s:108123  .debug_str:000000000004ac00 .LASF6738
     /tmp/cc2IngwB.s:93065  .debug_str:000000000000de3b .LASF6739
     /tmp/cc2IngwB.s:98241  .debug_str:0000000000022956 .LASF6740
     /tmp/cc2IngwB.s:105749  .debug_str:0000000000040bad .LASF6741
     /tmp/cc2IngwB.s:91547  .debug_str:00000000000078fe .LASF6742
     /tmp/cc2IngwB.s:109505  .debug_str:0000000000050b14 .LASF6743
     /tmp/cc2IngwB.s:93067  .debug_str:000000000000de45 .LASF6744
     /tmp/cc2IngwB.s:98243  .debug_str:000000000002295f .LASF6745
     /tmp/cc2IngwB.s:99553  .debug_str:0000000000027aae .LASF6746
     /tmp/cc2IngwB.s:90931  .debug_str:0000000000004f5c .LASF6747
     /tmp/cc2IngwB.s:102401  .debug_str:000000000003337e .LASF6748
     /tmp/cc2IngwB.s:99203  .debug_str:00000000000264d0 .LASF6749
     /tmp/cc2IngwB.s:106763  .debug_str:0000000000045452 .LASF6750
     /tmp/cc2IngwB.s:92337  .debug_str:000000000000ad96 .LASF6751
     /tmp/cc2IngwB.s:96149  .debug_str:0000000000019de2 .LASF6752
     /tmp/cc2IngwB.s:94697  .debug_str:00000000000140d6 .LASF6753
     /tmp/cc2IngwB.s:90549  .debug_str:0000000000003508 .LASF6754
     /tmp/cc2IngwB.s:102103  .debug_str:0000000000031f89 .LASF6755
     /tmp/cc2IngwB.s:105021  .debug_str:000000000003dc36 .LASF6756
     /tmp/cc2IngwB.s:91413  .debug_str:0000000000006fd8 .LASF6757
     /tmp/cc2IngwB.s:90805  .debug_str:000000000000467e .LASF6758
     /tmp/cc2IngwB.s:102849  .debug_str:00000000000351de .LASF6759
     /tmp/cc2IngwB.s:108483  .debug_str:000000000004c56b .LASF6760
     /tmp/cc2IngwB.s:97799  .debug_str:0000000000020ca2 .LASF6761
     /tmp/cc2IngwB.s:93781  .debug_str:00000000000106c6 .LASF6762
     /tmp/cc2IngwB.s:96911  .debug_str:000000000001ce7b .LASF6763
     /tmp/cc2IngwB.s:99901  .debug_str:00000000000292c5 .LASF6764
     /tmp/cc2IngwB.s:94105  .debug_str:00000000000118d8 .LASF6765
     /tmp/cc2IngwB.s:100167  .debug_str:000000000002a3f2 .LASF6766
     /tmp/cc2IngwB.s:98347  .debug_str:0000000000023021 .LASF6767
     /tmp/cc2IngwB.s:89903  .debug_str:00000000000008b3 .LASF6768
     /tmp/cc2IngwB.s:108695  .debug_str:000000000004d37f .LASF6769
     /tmp/cc2IngwB.s:97207  .debug_str:000000000001e24e .LASF6770
     /tmp/cc2IngwB.s:106139  .debug_str:0000000000042ade .LASF6771
     /tmp/cc2IngwB.s:108375  .debug_str:000000000004bdde .LASF6772
     /tmp/cc2IngwB.s:91587  .debug_str:0000000000007b3e .LASF6773
     /tmp/cc2IngwB.s:104377  .debug_str:000000000003b0d5 .LASF6774
     /tmp/cc2IngwB.s:99475  .debug_str:0000000000027618 .LASF6775
     /tmp/cc2IngwB.s:106839  .debug_str:0000000000045915 .LASF6776
     /tmp/cc2IngwB.s:100127  .debug_str:000000000002a10b .LASF6777
     /tmp/cc2IngwB.s:106419  .debug_str:0000000000043dca .LASF6778
     /tmp/cc2IngwB.s:105195  .debug_str:000000000003e91d .LASF6779
     /tmp/cc2IngwB.s:96685  .debug_str:000000000001bfd9 .LASF6780
     /tmp/cc2IngwB.s:99477  .debug_str:0000000000027621 .LASF6781
     /tmp/cc2IngwB.s:107681  .debug_str:0000000000048fe4 .LASF6782
     /tmp/cc2IngwB.s:96291  .debug_str:000000000001a6e5 .LASF6783
     /tmp/cc2IngwB.s:103245  .debug_str:0000000000036cec .LASF6784
     /tmp/cc2IngwB.s:98415  .debug_str:00000000000234a2 .LASF6785
     /tmp/cc2IngwB.s:103745  .debug_str:0000000000038b9b .LASF6786
     /tmp/cc2IngwB.s:97389  .debug_str:000000000001ee75 .LASF6787
     /tmp/cc2IngwB.s:102243  .debug_str:0000000000032816 .LASF6788
     /tmp/cc2IngwB.s:99479  .debug_str:000000000002762a .LASF6789
     /tmp/cc2IngwB.s:97839  .debug_str:0000000000020ee0 .LASF6790
     /tmp/cc2IngwB.s:93171  .debug_str:000000000000e444 .LASF6791
     /tmp/cc2IngwB.s:108513  .debug_str:000000000004c758 .LASF6792
     /tmp/cc2IngwB.s:101431  .debug_str:000000000002f415 .LASF6793
     /tmp/cc2IngwB.s:99481  .debug_str:0000000000027633 .LASF6794
     /tmp/cc2IngwB.s:90491  .debug_str:00000000000031a2 .LASF6795
     /tmp/cc2IngwB.s:92535  .debug_str:000000000000bc17 .LASF6796
     /tmp/cc2IngwB.s:100181  .debug_str:000000000002a4db .LASF6797
     /tmp/cc2IngwB.s:96191  .debug_str:000000000001a0ca .LASF6798
     /tmp/cc2IngwB.s:104267  .debug_str:000000000003a927 .LASF6799
     /tmp/cc2IngwB.s:104559  .debug_str:000000000003bd96 .LASF6800
     /tmp/cc2IngwB.s:94853  .debug_str:0000000000014a5c .LASF6801
     /tmp/cc2IngwB.s:97509  .debug_str:000000000001f717 .LASF6802
     /tmp/cc2IngwB.s:100231  .debug_str:000000000002a872 .LASF6803
     /tmp/cc2IngwB.s:99485  .debug_str:0000000000027656 .LASF6804
     /tmp/cc2IngwB.s:91481  .debug_str:0000000000007498 .LASF6805
     /tmp/cc2IngwB.s:109131  .debug_str:000000000004f29e .LASF6806
     /tmp/cc2IngwB.s:101235  .debug_str:000000000002e720 .LASF6807
     /tmp/cc2IngwB.s:101895  .debug_str:0000000000031264 .LASF6808
     /tmp/cc2IngwB.s:103345  .debug_str:00000000000373b1 .LASF6809
     /tmp/cc2IngwB.s:97921  .debug_str:00000000000213aa .LASF6810
     /tmp/cc2IngwB.s:97517  .debug_str:000000000001f7be .LASF6811
     /tmp/cc2IngwB.s:95331  .debug_str:0000000000016790 .LASF6812
     /tmp/cc2IngwB.s:106257  .debug_str:000000000004335c .LASF6813
     /tmp/cc2IngwB.s:91961  .debug_str:00000000000093cb .LASF6814
     /tmp/cc2IngwB.s:103369  .debug_str:00000000000374d1 .LASF6815
     /tmp/cc2IngwB.s:105389  .debug_str:000000000003f507 .LASF6816
     /tmp/cc2IngwB.s:106205  .debug_str:0000000000042fcc .LASF6817
     /tmp/cc2IngwB.s:97889  .debug_str:00000000000211ac .LASF6818
     /tmp/cc2IngwB.s:108389  .debug_str:000000000004bf13 .LASF6819
     /tmp/cc2IngwB.s:99649  .debug_str:000000000002817c .LASF6820
     /tmp/cc2IngwB.s:92859  .debug_str:000000000000d209 .LASF6821
     /tmp/cc2IngwB.s:101025  .debug_str:000000000002d924 .LASF6822
     /tmp/cc2IngwB.s:92379  .debug_str:000000000000b0eb .LASF6823
     /tmp/cc2IngwB.s:107679  .debug_str:0000000000048fc1 .LASF6824
     /tmp/cc2IngwB.s:92965  .debug_str:000000000000d8bd .LASF6825
     /tmp/cc2IngwB.s:102525  .debug_str:0000000000033be0 .LASF6826
     /tmp/cc2IngwB.s:102917  .debug_str:00000000000355f6 .LASF6827
     /tmp/cc2IngwB.s:99381  .debug_str:0000000000027006 .LASF6828
     /tmp/cc2IngwB.s:99041  .debug_str:0000000000025c7c .LASF6829
     /tmp/cc2IngwB.s:101029  .debug_str:000000000002d968 .LASF6830
     /tmp/cc2IngwB.s:90007  .debug_str:0000000000000f87 .LASF6831
     /tmp/cc2IngwB.s:91975  .debug_str:0000000000009546 .LASF6832
     /tmp/cc2IngwB.s:105847  .debug_str:0000000000041261 .LASF6833
     /tmp/cc2IngwB.s:104955  .debug_str:000000000003d7c9 .LASF6834
     /tmp/cc2IngwB.s:105355  .debug_str:000000000003f3a9 .LASF6835
     /tmp/cc2IngwB.s:107025  .debug_str:00000000000464b0 .LASF6836
     /tmp/cc2IngwB.s:105997  .debug_str:0000000000041edd .LASF6837
     /tmp/cc2IngwB.s:108333  .debug_str:000000000004baef .LASF6838
     /tmp/cc2IngwB.s:102041  .debug_str:0000000000031b35 .LASF6839
     /tmp/cc2IngwB.s:104667  .debug_str:000000000003c485 .LASF6840
     /tmp/cc2IngwB.s:91561  .debug_str:00000000000079c6 .LASF6841
     /tmp/cc2IngwB.s:97161  .debug_str:000000000001def8 .LASF6842
     /tmp/cc2IngwB.s:91981  .debug_str:000000000000958e .LASF6843
     /tmp/cc2IngwB.s:96093  .debug_str:0000000000019a01 .LASF6844
     /tmp/cc2IngwB.s:89959  .debug_str:0000000000000c31 .LASF6845
     /tmp/cc2IngwB.s:106091  .debug_str:0000000000042735 .LASF6846
     /tmp/cc2IngwB.s:97691  .debug_str:0000000000020487 .LASF6847
     /tmp/cc2IngwB.s:106995  .debug_str:000000000004633b .LASF6848
     /tmp/cc2IngwB.s:109239  .debug_str:000000000004f9f6 .LASF6849
     /tmp/cc2IngwB.s:100743  .debug_str:000000000002c87d .LASF6850
     /tmp/cc2IngwB.s:105011  .debug_str:000000000003db43 .LASF6851
     /tmp/cc2IngwB.s:92789  .debug_str:000000000000cdc0 .LASF6852
     /tmp/cc2IngwB.s:103719  .debug_str:0000000000038b22 .LASF6853
     /tmp/cc2IngwB.s:97133  .debug_str:000000000001dcf5 .LASF6854
     /tmp/cc2IngwB.s:100767  .debug_str:000000000002c9b8 .LASF6855
     /tmp/cc2IngwB.s:106645  .debug_str:0000000000044c7c .LASF6856
     /tmp/cc2IngwB.s:92115  .debug_str:0000000000009f2d .LASF6857
     /tmp/cc2IngwB.s:100769  .debug_str:000000000002c9c8 .LASF6858
     /tmp/cc2IngwB.s:89883  .debug_str:0000000000000780 .LASF6859
     /tmp/cc2IngwB.s:107135  .debug_str:0000000000046c2d .LASF6860
     /tmp/cc2IngwB.s:96933  .debug_str:000000000001cf9c .LASF6861
     /tmp/cc2IngwB.s:93875  .debug_str:0000000000010ba7 .LASF6862
     /tmp/cc2IngwB.s:107587  .debug_str:00000000000489be .LASF6863
     /tmp/cc2IngwB.s:102065  .debug_str:0000000000031d31 .LASF6864
     /tmp/cc2IngwB.s:97005  .debug_str:000000000001d43c .LASF6865
     /tmp/cc2IngwB.s:102839  .debug_str:00000000000350c9 .LASF6866
     /tmp/cc2IngwB.s:96839  .debug_str:000000000001c97c .LASF6867
     /tmp/cc2IngwB.s:96335  .debug_str:000000000001aa3f .LASF6868
     /tmp/cc2IngwB.s:99703  .debug_str:000000000002851f .LASF6869
     /tmp/cc2IngwB.s:103797  .debug_str:0000000000038f3a .LASF6870
     /tmp/cc2IngwB.s:99225  .debug_str:0000000000026652 .LASF6871
     /tmp/cc2IngwB.s:92277  .debug_str:000000000000aa0a .LASF6872
     /tmp/cc2IngwB.s:102613  .debug_str:000000000003422c .LASF6873
     /tmp/cc2IngwB.s:95807  .debug_str:0000000000018813 .LASF6874
     /tmp/cc2IngwB.s:109077  .debug_str:000000000004ef23 .LASF6875
     /tmp/cc2IngwB.s:102615  .debug_str:0000000000034238 .LASF6876
     /tmp/cc2IngwB.s:105369  .debug_str:000000000003f46a .LASF6877
     /tmp/cc2IngwB.s:102933  .debug_str:0000000000035709 .LASF6878
     /tmp/cc2IngwB.s:102617  .debug_str:0000000000034244 .LASF6879
     /tmp/cc2IngwB.s:105371  .debug_str:000000000003f470 .LASF6880
     /tmp/cc2IngwB.s:98659  .debug_str:0000000000024552 .LASF6881
     /tmp/cc2IngwB.s:100595  .debug_str:000000000002bf39 .LASF6882
     /tmp/cc2IngwB.s:97153  .debug_str:000000000001de59 .LASF6883
     /tmp/cc2IngwB.s:105115  .debug_str:000000000003e324 .LASF6884
     /tmp/cc2IngwB.s:100597  .debug_str:000000000002bf43 .LASF6885
     /tmp/cc2IngwB.s:105375  .debug_str:000000000003f482 .LASF6886
     /tmp/cc2IngwB.s:91701  .debug_str:0000000000008256 .LASF6887
     /tmp/cc2IngwB.s:101647  .debug_str:000000000003028c .LASF6888
     /tmp/cc2IngwB.s:105377  .debug_str:000000000003f488 .LASF6889
     /tmp/cc2IngwB.s:97629  .debug_str:000000000001ff58 .LASF6890
     /tmp/cc2IngwB.s:100601  .debug_str:000000000002bf62 .LASF6891
     /tmp/cc2IngwB.s:95825  .debug_str:000000000001891b .LASF6892
     /tmp/cc2IngwB.s:98319  .debug_str:0000000000022e62 .LASF6893
     /tmp/cc2IngwB.s:108851  .debug_str:000000000004de00 .LASF6894
     /tmp/cc2IngwB.s:105381  .debug_str:000000000003f4c0 .LASF6895
     /tmp/cc2IngwB.s:104867  .debug_str:000000000003d200 .LASF6896
     /tmp/cc2IngwB.s:105677  .debug_str:00000000000406fd .LASF6897
     /tmp/cc2IngwB.s:105383  .debug_str:000000000003f4c6 .LASF6898
     /tmp/cc2IngwB.s:97083  .debug_str:000000000001d90c .LASF6899
     /tmp/cc2IngwB.s:90359  .debug_str:00000000000028f4 .LASF6900
     /tmp/cc2IngwB.s:95877  .debug_str:0000000000018c51 .LASF6901
     /tmp/cc2IngwB.s:94163  .debug_str:0000000000011cad .LASF6902
     /tmp/cc2IngwB.s:90361  .debug_str:00000000000028ff .LASF6903
     /tmp/cc2IngwB.s:95879  .debug_str:0000000000018c58 .LASF6904
     /tmp/cc2IngwB.s:107677  .debug_str:0000000000048fa0 .LASF6905
     /tmp/cc2IngwB.s:105177  .debug_str:000000000003e7ea .LASF6906
     /tmp/cc2IngwB.s:92825  .debug_str:000000000000d03a .LASF6907
     /tmp/cc2IngwB.s:106649  .debug_str:0000000000044c99 .LASF6908
     /tmp/cc2IngwB.s:105179  .debug_str:000000000003e7f3 .LASF6909
     /tmp/cc2IngwB.s:95883  .debug_str:0000000000018c66 .LASF6910
     /tmp/cc2IngwB.s:95171  .debug_str:0000000000015db6 .LASF6911
     /tmp/cc2IngwB.s:105181  .debug_str:000000000003e7fc .LASF6912
     /tmp/cc2IngwB.s:95885  .debug_str:0000000000018c6d .LASF6913
     /tmp/cc2IngwB.s:108635  .debug_str:000000000004cf39 .LASF6914
     /tmp/cc2IngwB.s:105183  .debug_str:000000000003e805 .LASF6915
     /tmp/cc2IngwB.s:94915  .debug_str:0000000000014e47 .LASF6916
     /tmp/cc2IngwB.s:102505  .debug_str:0000000000033a43 .LASF6917
     /tmp/cc2IngwB.s:104965  .debug_str:000000000003d88a .LASF6918
     /tmp/cc2IngwB.s:94919  .debug_str:0000000000014e77 .LASF6919
     /tmp/cc2IngwB.s:96157  .debug_str:0000000000019e4f .LASF6920
     /tmp/cc2IngwB.s:105797  .debug_str:0000000000040e88 .LASF6921
     /tmp/cc2IngwB.s:103481  .debug_str:0000000000037c13 .LASF6922
     /tmp/cc2IngwB.s:92065  .debug_str:0000000000009b45 .LASF6923
     /tmp/cc2IngwB.s:95795  .debug_str:0000000000018726 .LASF6924
     /tmp/cc2IngwB.s:103483  .debug_str:0000000000037c19 .LASF6925
     /tmp/cc2IngwB.s:105637  .debug_str:00000000000404b7 .LASF6926
     /tmp/cc2IngwB.s:93341  .debug_str:000000000000edd2 .LASF6927
     /tmp/cc2IngwB.s:103485  .debug_str:0000000000037c1f .LASF6928
     /tmp/cc2IngwB.s:99433  .debug_str:0000000000027381 .LASF6929
     /tmp/cc2IngwB.s:102591  .debug_str:000000000003405b .LASF6930
     /tmp/cc2IngwB.s:103547  .debug_str:00000000000380d1 .LASF6931
     /tmp/cc2IngwB.s:103449  .debug_str:0000000000037a4d .LASF6932
     /tmp/cc2IngwB.s:90249  .debug_str:0000000000002164 .LASF6933
     /tmp/cc2IngwB.s:103549  .debug_str:00000000000380d7 .LASF6934
     /tmp/cc2IngwB.s:105657  .debug_str:00000000000405cc .LASF6935
     /tmp/cc2IngwB.s:106061  .debug_str:00000000000422ee .LASF6936
     /tmp/cc2IngwB.s:103551  .debug_str:00000000000380dd .LASF6937
     /tmp/cc2IngwB.s:99453  .debug_str:00000000000274d9 .LASF6938
     /tmp/cc2IngwB.s:97887  .debug_str:000000000002119e .LASF6939
     /tmp/cc2IngwB.s:103553  .debug_str:00000000000380e3 .LASF6940
     /tmp/cc2IngwB.s:93043  .debug_str:000000000000dd8f .LASF6941
     /tmp/cc2IngwB.s:97891  .debug_str:00000000000211cf .LASF6942
     /tmp/cc2IngwB.s:103555  .debug_str:00000000000380e9 .LASF6943
     /tmp/cc2IngwB.s:106669  .debug_str:0000000000044e35 .LASF6944
     /tmp/cc2IngwB.s:101175  .debug_str:000000000002e336 .LASF6945
     /tmp/cc2IngwB.s:103557  .debug_str:00000000000380ef .LASF6946
     /tmp/cc2IngwB.s:100509  .debug_str:000000000002ba02 .LASF6947
     /tmp/cc2IngwB.s:108829  .debug_str:000000000004dca5 .LASF6948
     /tmp/cc2IngwB.s:103559  .debug_str:00000000000380f5 .LASF6949
     /tmp/cc2IngwB.s:94139  .debug_str:0000000000011b20 .LASF6950
     /tmp/cc2IngwB.s:102097  .debug_str:0000000000031f51 .LASF6951
     /tmp/cc2IngwB.s:103561  .debug_str:00000000000380fb .LASF6952
     /tmp/cc2IngwB.s:108965  .debug_str:000000000004e73f .LASF6953
     /tmp/cc2IngwB.s:102555  .debug_str:0000000000033e32 .LASF6954
     /tmp/cc2IngwB.s:100465  .debug_str:000000000002b6d0 .LASF6955
     /tmp/cc2IngwB.s:101507  .debug_str:000000000002f98b .LASF6956
     /tmp/cc2IngwB.s:95543  .debug_str:000000000001757b .LASF6957
     /tmp/cc2IngwB.s:103565  .debug_str:0000000000038122 .LASF6958
     /tmp/cc2IngwB.s:95151  .debug_str:0000000000015c73 .LASF6959
     /tmp/cc2IngwB.s:102521  .debug_str:0000000000033ba9 .LASF6960
     /tmp/cc2IngwB.s:103641  .debug_str:00000000000386ab .LASF6961
     /tmp/cc2IngwB.s:107673  .debug_str:0000000000048f7a .LASF6962
     /tmp/cc2IngwB.s:103361  .debug_str:0000000000037450 .LASF6963
     /tmp/cc2IngwB.s:103643  .debug_str:00000000000386b1 .LASF6964
     /tmp/cc2IngwB.s:101525  .debug_str:000000000002fabd .LASF6965
     /tmp/cc2IngwB.s:90643  .debug_str:0000000000003b73 .LASF6966
     /tmp/cc2IngwB.s:103645  .debug_str:00000000000386b7 .LASF6967
     /tmp/cc2IngwB.s:95169  .debug_str:0000000000015d96 .LASF6968
     /tmp/cc2IngwB.s:93917  .debug_str:0000000000010d80 .LASF6969
     /tmp/cc2IngwB.s:103647  .debug_str:00000000000386bd .LASF6970
     /tmp/cc2IngwB.s:108631  .debug_str:000000000004cf03 .LASF6971
     /tmp/cc2IngwB.s:93919  .debug_str:0000000000010d8a .LASF6972
     /tmp/cc2IngwB.s:103649  .debug_str:00000000000386c3 .LASF6973
     /tmp/cc2IngwB.s:90665  .debug_str:0000000000003cb9 .LASF6974
     /tmp/cc2IngwB.s:99803  .debug_str:0000000000028bc5 .LASF6975
     /tmp/cc2IngwB.s:100631  .debug_str:000000000002c103 .LASF6976
     /tmp/cc2IngwB.s:93011  .debug_str:000000000000dbb6 .LASF6977
     /tmp/cc2IngwB.s:109025  .debug_str:000000000004eb6c .LASF6978
     /tmp/cc2IngwB.s:103653  .debug_str:00000000000386d8 .LASF6979
     /tmp/cc2IngwB.s:89889  .debug_str:00000000000007cf .LASF6980
     /tmp/cc2IngwB.s:109029  .debug_str:000000000004eba5 .LASF6981
     /tmp/cc2IngwB.s:103655  .debug_str:00000000000386de .LASF6982
     /tmp/cc2IngwB.s:103463  .debug_str:0000000000037b18 .LASF6983
     /tmp/cc2IngwB.s:93689  .debug_str:00000000000101e7 .LASF6984
     /tmp/cc2IngwB.s:103657  .debug_str:00000000000386e4 .LASF6985
     /tmp/cc2IngwB.s:97187  .debug_str:000000000001e0e8 .LASF6986
     /tmp/cc2IngwB.s:109437  .debug_str:00000000000506c1 .LASF6987
     /tmp/cc2IngwB.s:103659  .debug_str:00000000000386ea .LASF6988
     /tmp/cc2IngwB.s:90833  .debug_str:000000000000486f .LASF6989
     /tmp/cc2IngwB.s:102531  .debug_str:0000000000033c62 .LASF6990
     /tmp/cc2IngwB.s:103723  .debug_str:0000000000038b45 .LASF6991
     /tmp/cc2IngwB.s:103491  .debug_str:0000000000037c63 .LASF6992
     /tmp/cc2IngwB.s:99533  .debug_str:000000000002799a .LASF6993
     /tmp/cc2IngwB.s:103725  .debug_str:0000000000038b4b .LASF6994
     /tmp/cc2IngwB.s:97209  .debug_str:000000000001e25e .LASF6995
     /tmp/cc2IngwB.s:90691  .debug_str:0000000000003e9b .LASF6996
     /tmp/cc2IngwB.s:103727  .debug_str:0000000000038b51 .LASF6997
     /tmp/cc2IngwB.s:90849  .debug_str:00000000000049f5 .LASF6998
     /tmp/cc2IngwB.s:95197  .debug_str:0000000000015fe3 .LASF6999
     /tmp/cc2IngwB.s:103729  .debug_str:0000000000038b57 .LASF7000
     /tmp/cc2IngwB.s:104519  .debug_str:000000000003ba18 .LASF7001
     /tmp/cc2IngwB.s:95199  .debug_str:0000000000015fef .LASF7002
     /tmp/cc2IngwB.s:103731  .debug_str:0000000000038b5d .LASF7003
     /tmp/cc2IngwB.s:98219  .debug_str:000000000002288d .LASF7004
     /tmp/cc2IngwB.s:95433  .debug_str:0000000000016eb4 .LASF7005
     /tmp/cc2IngwB.s:103733  .debug_str:0000000000038b63 .LASF7006
     /tmp/cc2IngwB.s:91825  .debug_str:0000000000008b1d .LASF7007
     /tmp/cc2IngwB.s:90501  .debug_str:0000000000003228 .LASF7008
     /tmp/cc2IngwB.s:103735  .debug_str:0000000000038b69 .LASF7009
     /tmp/cc2IngwB.s:105391  .debug_str:000000000003f512 .LASF7010
     /tmp/cc2IngwB.s:90505  .debug_str:0000000000003274 .LASF7011
     /tmp/cc2IngwB.s:103737  .debug_str:0000000000038b6f .LASF7012
     /tmp/cc2IngwB.s:99187  .debug_str:000000000002635b .LASF7013
     /tmp/cc2IngwB.s:99297  .debug_str:0000000000026a82 .LASF7014
     /tmp/cc2IngwB.s:103739  .debug_str:0000000000038b75 .LASF7015
     /tmp/cc2IngwB.s:92793  .debug_str:000000000000ce01 .LASF7016
     /tmp/cc2IngwB.s:98783  .debug_str:0000000000024d8e .LASF7017
     /tmp/cc2IngwB.s:103741  .debug_str:0000000000038b7b .LASF7018
     /tmp/cc2IngwB.s:106393  .debug_str:0000000000043bd6 .LASF7019
     /tmp/cc2IngwB.s:109097  .debug_str:000000000004f0b0 .LASF7020
     /tmp/cc2IngwB.s:103801  .debug_str:0000000000038f82 .LASF7021
     /tmp/cc2IngwB.s:99209  .debug_str:0000000000026555 .LASF7022
     /tmp/cc2IngwB.s:98375  .debug_str:0000000000023233 .LASF7023
     /tmp/cc2IngwB.s:100951  .debug_str:000000000002d507 .LASF7024
     /tmp/cc2IngwB.s:92813  .debug_str:000000000000cf65 .LASF7025
     /tmp/cc2IngwB.s:104487  .debug_str:000000000003b81d .LASF7026
     /tmp/cc2IngwB.s:103805  .debug_str:0000000000038f93 .LASF7027
     /tmp/cc2IngwB.s:106417  .debug_str:0000000000043daa .LASF7028
     /tmp/cc2IngwB.s:94555  .debug_str:00000000000137ee .LASF7029
     /tmp/cc2IngwB.s:103807  .debug_str:0000000000038f99 .LASF7030
     /tmp/cc2IngwB.s:100229  .debug_str:000000000002a852 .LASF7031
     /tmp/cc2IngwB.s:95289  .debug_str:00000000000164f5 .LASF7032
     /tmp/cc2IngwB.s:103809  .debug_str:0000000000038f9f .LASF7033
     /tmp/cc2IngwB.s:93843  .debug_str:00000000000109fa .LASF7034
     /tmp/cc2IngwB.s:95293  .debug_str:0000000000016512 .LASF7035
     /tmp/cc2IngwB.s:103811  .debug_str:0000000000038fa5 .LASF7036
     /tmp/cc2IngwB.s:107387  .debug_str:0000000000047bc7 .LASF7037
     /tmp/cc2IngwB.s:105393  .debug_str:000000000003f532 .LASF7038
     /tmp/cc2IngwB.s:103813  .debug_str:0000000000038fab .LASF7039
     /tmp/cc2IngwB.s:101267  .debug_str:000000000002e8f1 .LASF7040
     /tmp/cc2IngwB.s:89971  .debug_str:0000000000000cfb .LASF7041
     /tmp/cc2IngwB.s:103815  .debug_str:0000000000038fb1 .LASF7042
     /tmp/cc2IngwB.s:94891  .debug_str:0000000000014cc1 .LASF7043
     /tmp/cc2IngwB.s:90581  .debug_str:00000000000036d9 .LASF7044
     /tmp/cc2IngwB.s:103817  .debug_str:0000000000038fb7 .LASF7045
     /tmp/cc2IngwB.s:108353  .debug_str:000000000004bc66 .LASF7046
     /tmp/cc2IngwB.s:102433  .debug_str:000000000003356c .LASF7047
     /tmp/cc2IngwB.s:100969  .debug_str:000000000002d629 .LASF7048
     /tmp/cc2IngwB.s:102229  .debug_str:0000000000032724 .LASF7049
     /tmp/cc2IngwB.s:100617  .debug_str:000000000002c02a .LASF7050
     /tmp/cc2IngwB.s:103907  .debug_str:0000000000039522 .LASF7051
     /tmp/cc2IngwB.s:95081  .debug_str:00000000000157f7 .LASF7052
     /tmp/cc2IngwB.s:100619  .debug_str:000000000002c038 .LASF7053
     /tmp/cc2IngwB.s:103909  .debug_str:0000000000039528 .LASF7054
     /tmp/cc2IngwB.s:108553  .debug_str:000000000004c9ee .LASF7055
     /tmp/cc2IngwB.s:94037  .debug_str:0000000000011524 .LASF7056
     /tmp/cc2IngwB.s:103911  .debug_str:000000000003952e .LASF7057
     /tmp/cc2IngwB.s:102427  .debug_str:0000000000033538 .LASF7058
     /tmp/cc2IngwB.s:95815  .debug_str:0000000000018895 .LASF7059
     /tmp/cc2IngwB.s:103913  .debug_str:0000000000039534 .LASF7060
     /tmp/cc2IngwB.s:96061  .debug_str:0000000000019790 .LASF7061
     /tmp/cc2IngwB.s:95819  .debug_str:00000000000188dd .LASF7062
     /tmp/cc2IngwB.s:103915  .debug_str:000000000003953a .LASF7063
     /tmp/cc2IngwB.s:89803  .debug_str:0000000000000212 .LASF7064
     /tmp/cc2IngwB.s:95359  .debug_str:000000000001691b .LASF7065
     /tmp/cc2IngwB.s:103917  .debug_str:0000000000039540 .LASF7066
     /tmp/cc2IngwB.s:106051  .debug_str:0000000000042247 .LASF7067
     /tmp/cc2IngwB.s:93677  .debug_str:0000000000010149 .LASF7068
     /tmp/cc2IngwB.s:103919  .debug_str:0000000000039546 .LASF7069
     /tmp/cc2IngwB.s:97121  .debug_str:000000000001dbe4 .LASF7070
     /tmp/cc2IngwB.s:101669  .debug_str:000000000003040d .LASF7071
     /tmp/cc2IngwB.s:103921  .debug_str:000000000003954c .LASF7072
     /tmp/cc2IngwB.s:90745  .debug_str:0000000000004297 .LASF7073
     /tmp/cc2IngwB.s:107309  .debug_str:000000000004770b .LASF7074
     /tmp/cc2IngwB.s:103923  .debug_str:0000000000039552 .LASF7075
     /tmp/cc2IngwB.s:104429  .debug_str:000000000003b412 .LASF7076
     /tmp/cc2IngwB.s:108815  .debug_str:000000000004dbcd .LASF7077
     /tmp/cc2IngwB.s:103925  .debug_str:0000000000039558 .LASF7078
     /tmp/cc2IngwB.s:98123  .debug_str:0000000000022200 .LASF7079
     /tmp/cc2IngwB.s:98295  .debug_str:0000000000022cb8 .LASF7080
     /tmp/cc2IngwB.s:103983  .debug_str:000000000003991d .LASF7081
     /tmp/cc2IngwB.s:90773  .debug_str:00000000000044e4 .LASF7082
     /tmp/cc2IngwB.s:100437  .debug_str:000000000002b564 .LASF7083
     /tmp/cc2IngwB.s:103985  .debug_str:0000000000039923 .LASF7084
     /tmp/cc2IngwB.s:104447  .debug_str:000000000003b54e .LASF7085
     /tmp/cc2IngwB.s:104939  .debug_str:000000000003d6e5 .LASF7086
     /tmp/cc2IngwB.s:103987  .debug_str:0000000000039929 .LASF7087
     /tmp/cc2IngwB.s:98141  .debug_str:0000000000022307 .LASF7088
     /tmp/cc2IngwB.s:104943  .debug_str:000000000003d70b .LASF7089
     /tmp/cc2IngwB.s:103989  .debug_str:000000000003992f .LASF7090
     /tmp/cc2IngwB.s:91743  .debug_str:000000000000854a .LASF7091
     /tmp/cc2IngwB.s:102887  .debug_str:000000000003541d .LASF7092
     /tmp/cc2IngwB.s:103991  .debug_str:0000000000039935 .LASF7093
     /tmp/cc2IngwB.s:105307  .debug_str:000000000003f049 .LASF7094
     /tmp/cc2IngwB.s:96509  .debug_str:000000000001b53f .LASF7095
     /tmp/cc2IngwB.s:103993  .debug_str:000000000003993b .LASF7096
     /tmp/cc2IngwB.s:99093  .debug_str:0000000000025e8e .LASF7097
     /tmp/cc2IngwB.s:96513  .debug_str:000000000001b56c .LASF7098
     /tmp/cc2IngwB.s:103995  .debug_str:0000000000039941 .LASF7099
     /tmp/cc2IngwB.s:92703  .debug_str:000000000000c78d .LASF7100
     /tmp/cc2IngwB.s:96495  .debug_str:000000000001b454 .LASF7101
     /tmp/cc2IngwB.s:103997  .debug_str:0000000000039947 .LASF7102
     /tmp/cc2IngwB.s:106299  .debug_str:0000000000043584 .LASF7103
     /tmp/cc2IngwB.s:90335  .debug_str:000000000000270e .LASF7104
     /tmp/cc2IngwB.s:103999  .debug_str:000000000003994d .LASF7105
     /tmp/cc2IngwB.s:100123  .debug_str:000000000002a0d0 .LASF7106
     /tmp/cc2IngwB.s:90337  .debug_str:000000000000271b .LASF7107
     /tmp/cc2IngwB.s:104001  .debug_str:0000000000039953 .LASF7108
     /tmp/cc2IngwB.s:107745  .debug_str:00000000000493c7 .LASF7109
     /tmp/cc2IngwB.s:105651  .debug_str:0000000000040578 .LASF7110
     /tmp/cc2IngwB.s:104063  .debug_str:0000000000039d6b .LASF7111
     /tmp/cc2IngwB.s:106333  .debug_str:00000000000437b4 .LASF7112
     /tmp/cc2IngwB.s:109305  .debug_str:000000000004fd67 .LASF7113
     /tmp/cc2IngwB.s:104065  .debug_str:0000000000039d71 .LASF7114
     /tmp/cc2IngwB.s:100147  .debug_str:000000000002a27c .LASF7115
     /tmp/cc2IngwB.s:105437  .debug_str:000000000003f817 .LASF7116
     /tmp/cc2IngwB.s:104067  .debug_str:0000000000039d77 .LASF7117
     /tmp/cc2IngwB.s:93761  .debug_str:000000000001056e .LASF7118
     /tmp/cc2IngwB.s:91149  .debug_str:0000000000005d67 .LASF7119
     /tmp/cc2IngwB.s:104069  .debug_str:0000000000039d7d .LASF7120
     /tmp/cc2IngwB.s:107315  .debug_str:000000000004775a .LASF7121
     /tmp/cc2IngwB.s:100309  .debug_str:000000000002acf9 .LASF7122
     /tmp/cc2IngwB.s:104071  .debug_str:0000000000039d83 .LASF7123
     /tmp/cc2IngwB.s:101187  .debug_str:000000000002e3f2 .LASF7124
     /tmp/cc2IngwB.s:103955  .debug_str:000000000003977d .LASF7125
     /tmp/cc2IngwB.s:104073  .debug_str:0000000000039d89 .LASF7126
     /tmp/cc2IngwB.s:94803  .debug_str:000000000001474c .LASF7127
     /tmp/cc2IngwB.s:99459  .debug_str:000000000002753a .LASF7128
     /tmp/cc2IngwB.s:104075  .debug_str:0000000000039d8f .LASF7129
     /tmp/cc2IngwB.s:108271  .debug_str:000000000004b627 .LASF7130
     /tmp/cc2IngwB.s:95537  .debug_str:000000000001754e .LASF7131
     /tmp/cc2IngwB.s:104077  .debug_str:0000000000039d95 .LASF7132
     /tmp/cc2IngwB.s:102139  .debug_str:0000000000032178 .LASF7133
     /tmp/cc2IngwB.s:95541  .debug_str:000000000001756f .LASF7134
     /tmp/cc2IngwB.s:104079  .debug_str:0000000000039d9b .LASF7135
     /tmp/cc2IngwB.s:95791  .debug_str:00000000000186eb .LASF7136
     /tmp/cc2IngwB.s:99509  .debug_str:0000000000027782 .LASF7137
     /tmp/cc2IngwB.s:104081  .debug_str:0000000000039da1 .LASF7138
     /tmp/cc2IngwB.s:109285  .debug_str:000000000004fc6f .LASF7139
     /tmp/cc2IngwB.s:99829  .debug_str:0000000000028dac .LASF7140
     /tmp/cc2IngwB.s:104145  .debug_str:000000000003a1f8 .LASF7141
     /tmp/cc2IngwB.s:102161  .debug_str:000000000003229f .LASF7142
     /tmp/cc2IngwB.s:102951  .debug_str:00000000000358cc .LASF7143
     /tmp/cc2IngwB.s:104147  .debug_str:000000000003a1fe .LASF7144
     /tmp/cc2IngwB.s:95809  .debug_str:0000000000018819 .LASF7145
     /tmp/cc2IngwB.s:102227  .debug_str:0000000000032716 .LASF7146
     /tmp/cc2IngwB.s:101589  .debug_str:000000000002ff22 .LASF7147
     /tmp/cc2IngwB.s:96253  .debug_str:000000000001a4d1 .LASF7148
     /tmp/cc2IngwB.s:105555  .debug_str:000000000003ff63 .LASF7149
     /tmp/cc2IngwB.s:104151  .debug_str:000000000003a221 .LASF7150
     /tmp/cc2IngwB.s:103131  .debug_str:00000000000365dd .LASF7151
     /tmp/cc2IngwB.s:90571  .debug_str:000000000000360b .LASF7152
     /tmp/cc2IngwB.s:101595  .debug_str:000000000002ff7b .LASF7153
     /tmp/cc2IngwB.s:96863  .debug_str:000000000001cb12 .LASF7154
     /tmp/cc2IngwB.s:96423  .debug_str:000000000001b046 .LASF7155
     /tmp/cc2IngwB.s:104155  .debug_str:000000000003a245 .LASF7156
     /tmp/cc2IngwB.s:90531  .debug_str:000000000000343f .LASF7157
     /tmp/cc2IngwB.s:94611  .debug_str:0000000000013b40 .LASF7158
     /tmp/cc2IngwB.s:104157  .debug_str:000000000003a24b .LASF7159
     /tmp/cc2IngwB.s:102365  .debug_str:0000000000033108 .LASF7160
     /tmp/cc2IngwB.s:105041  .debug_str:000000000003dd7a .LASF7161
     /tmp/cc2IngwB.s:104159  .debug_str:000000000003a251 .LASF7162
     /tmp/cc2IngwB.s:97869  .debug_str:000000000002107f .LASF7163
     /tmp/cc2IngwB.s:90489  .debug_str:0000000000003197 .LASF7164
     /tmp/cc2IngwB.s:101609  .debug_str:0000000000030049 .LASF7165
     /tmp/cc2IngwB.s:91485  .debug_str:00000000000074bb .LASF7166
     /tmp/cc2IngwB.s:98733  .debug_str:0000000000024aa3 .LASF7167
     /tmp/cc2IngwB.s:104163  .debug_str:000000000003a27f .LASF7168
     /tmp/cc2IngwB.s:105071  .debug_str:000000000003dfb3 .LASF7169
     /tmp/cc2IngwB.s:103855  .debug_str:0000000000039220 .LASF7170
     /tmp/cc2IngwB.s:93279  .debug_str:000000000000ea57 .LASF7171
     /tmp/cc2IngwB.s:91453  .debug_str:000000000000729e .LASF7172
     /tmp/cc2IngwB.s:103859  .debug_str:0000000000039267 .LASF7173
     /tmp/cc2IngwB.s:94589  .debug_str:00000000000139e4 .LASF7174
     /tmp/cc2IngwB.s:105039  .debug_str:000000000003dd59 .LASF7175
     /tmp/cc2IngwB.s:96261  .debug_str:000000000001a57e .LASF7176
     /tmp/cc2IngwB.s:94593  .debug_str:0000000000013a0a .LASF7177
     /tmp/cc2IngwB.s:96559  .debug_str:000000000001b7e4 .LASF7178
     /tmp/cc2IngwB.s:99131  .debug_str:000000000002615d .LASF7179
     /tmp/cc2IngwB.s:93285  .debug_str:000000000000eaac .LASF7180
     /tmp/cc2IngwB.s:92403  .debug_str:000000000000b26b .LASF7181
     /tmp/cc2IngwB.s:99133  .debug_str:000000000002616c .LASF7182
     /tmp/cc2IngwB.s:93287  .debug_str:000000000000eab3 .LASF7183
     /tmp/cc2IngwB.s:105975  .debug_str:0000000000041d5f .LASF7184
     /tmp/cc2IngwB.s:98143  .debug_str:0000000000022327 .LASF7185
     /tmp/cc2IngwB.s:93289  .debug_str:000000000000eaba .LASF7186
     /tmp/cc2IngwB.s:99787  .debug_str:0000000000028a6d .LASF7187
     /tmp/cc2IngwB.s:95857  .debug_str:0000000000018b34 .LASF7188
     /tmp/cc2IngwB.s:93291  .debug_str:000000000000eac1 .LASF7189
     /tmp/cc2IngwB.s:93397  .debug_str:000000000000ef89 .LASF7190
     /tmp/cc2IngwB.s:92543  .debug_str:000000000000bccf .LASF7191
     /tmp/cc2IngwB.s:93293  .debug_str:000000000000eac8 .LASF7192
     /tmp/cc2IngwB.s:107009  .debug_str:00000000000463e4 .LASF7193
     /tmp/cc2IngwB.s:99353  .debug_str:0000000000026ea2 .LASF7194
     /tmp/cc2IngwB.s:93295  .debug_str:000000000000eacf .LASF7195
     /tmp/cc2IngwB.s:100835  .debug_str:000000000002cd97 .LASF7196
     /tmp/cc2IngwB.s:99357  .debug_str:0000000000026ec5 .LASF7197
     /tmp/cc2IngwB.s:93297  .debug_str:000000000000ead6 .LASF7198
     /tmp/cc2IngwB.s:94471  .debug_str:000000000001318a .LASF7199
     /tmp/cc2IngwB.s:106375  .debug_str:0000000000043a73 .LASF7200
     /tmp/cc2IngwB.s:93361  .debug_str:000000000000ee7f .LASF7201
     /tmp/cc2IngwB.s:107031  .debug_str:000000000004653c .LASF7202
     /tmp/cc2IngwB.s:94631  .debug_str:0000000000013c7b .LASF7203
     /tmp/cc2IngwB.s:93363  .debug_str:000000000000ee86 .LASF7204
     /tmp/cc2IngwB.s:100859  .debug_str:000000000002cf01 .LASF7205
     /tmp/cc2IngwB.s:94633  .debug_str:0000000000013c8c .LASF7206
     /tmp/cc2IngwB.s:93365  .debug_str:000000000000ee8d .LASF7207
     /tmp/cc2IngwB.s:94487  .debug_str:0000000000013290 .LASF7208
     /tmp/cc2IngwB.s:91549  .debug_str:000000000000790e .LASF7209
     /tmp/cc2IngwB.s:93367  .debug_str:000000000000ee94 .LASF7210
     /tmp/cc2IngwB.s:107965  .debug_str:000000000004a1e9 .LASF7211
     /tmp/cc2IngwB.s:102023  .debug_str:00000000000319fc .LASF7212
     /tmp/cc2IngwB.s:93369  .debug_str:000000000000ee9b .LASF7213
     /tmp/cc2IngwB.s:101829  .debug_str:0000000000030e38 .LASF7214
     /tmp/cc2IngwB.s:102031  .debug_str:0000000000031a4e .LASF7215
     /tmp/cc2IngwB.s:93371  .debug_str:000000000000eea2 .LASF7216
     /tmp/cc2IngwB.s:95475  .debug_str:0000000000017182 .LASF7217
     /tmp/cc2IngwB.s:92135  .debug_str:000000000000a038 .LASF7218
     /tmp/cc2IngwB.s:93373  .debug_str:000000000000eea9 .LASF7219
     /tmp/cc2IngwB.s:90763  .debug_str:000000000000442e .LASF7220
     /tmp/cc2IngwB.s:89861  .debug_str:000000000000062b .LASF7221
     /tmp/cc2IngwB.s:93375  .debug_str:000000000000eeb0 .LASF7222
     /tmp/cc2IngwB.s:102827  .debug_str:0000000000034f89 .LASF7223
     /tmp/cc2IngwB.s:91651  .debug_str:0000000000007f33 .LASF7224
     /tmp/cc2IngwB.s:93377  .debug_str:000000000000eeb7 .LASF7225
     /tmp/cc2IngwB.s:96491  .debug_str:000000000001b428 .LASF7226
     /tmp/cc2IngwB.s:102077  .debug_str:0000000000031df2 .LASF7227
     /tmp/cc2IngwB.s:93379  .debug_str:000000000000eebe .LASF7228
     /tmp/cc2IngwB.s:90179  .debug_str:0000000000001c80 .LASF7229
     /tmp/cc2IngwB.s:94745  .debug_str:0000000000014350 .LASF7230
     /tmp/cc2IngwB.s:93463  .debug_str:000000000000f430 .LASF7231
     /tmp/cc2IngwB.s:108445  .debug_str:000000000004c27f .LASF7232
     /tmp/cc2IngwB.s:102181  .debug_str:00000000000323df .LASF7233
     /tmp/cc2IngwB.s:93465  .debug_str:000000000000f437 .LASF7234
     /tmp/cc2IngwB.s:96511  .debug_str:000000000001b54b .LASF7235
     /tmp/cc2IngwB.s:94921  .debug_str:0000000000014e7e .LASF7236
     /tmp/cc2IngwB.s:93467  .debug_str:000000000000f43e .LASF7237
     /tmp/cc2IngwB.s:90201  .debug_str:0000000000001e35 .LASF7238
     /tmp/cc2IngwB.s:97465  .debug_str:000000000001f347 .LASF7239
     /tmp/cc2IngwB.s:93469  .debug_str:000000000000f445 .LASF7240
     /tmp/cc2IngwB.s:108031  .debug_str:000000000004a6b7 .LASF7241
     /tmp/cc2IngwB.s:97467  .debug_str:000000000001f356 .LASF7242
     /tmp/cc2IngwB.s:93471  .debug_str:000000000000f44c .LASF7243
     /tmp/cc2IngwB.s:97535  .debug_str:000000000001f906 .LASF7244
     /tmp/cc2IngwB.s:90761  .debug_str:0000000000004421 .LASF7245
     /tmp/cc2IngwB.s:93473  .debug_str:000000000000f453 .LASF7246
     /tmp/cc2IngwB.s:91179  .debug_str:0000000000005f2d .LASF7247
     /tmp/cc2IngwB.s:106353  .debug_str:000000000004391f .LASF7248
     /tmp/cc2IngwB.s:93475  .debug_str:000000000000f45a .LASF7249
     /tmp/cc2IngwB.s:104781  .debug_str:000000000003ccbb .LASF7250
     /tmp/cc2IngwB.s:90213  .debug_str:0000000000001f1d .LASF7251
     /tmp/cc2IngwB.s:93477  .debug_str:000000000000f461 .LASF7252
     /tmp/cc2IngwB.s:90127  .debug_str:0000000000001814 .LASF7253
     /tmp/cc2IngwB.s:109395  .debug_str:00000000000503d5 .LASF7254
     /tmp/cc2IngwB.s:93479  .debug_str:000000000000f468 .LASF7255
     /tmp/cc2IngwB.s:109279  .debug_str:000000000004fc28 .LASF7256
     /tmp/cc2IngwB.s:105313  .debug_str:000000000003f0b9 .LASF7257
     /tmp/cc2IngwB.s:93481  .debug_str:000000000000f46f .LASF7258
     /tmp/cc2IngwB.s:105701  .debug_str:0000000000040865 .LASF7259
     /tmp/cc2IngwB.s:97111  .debug_str:000000000001db1c .LASF7260
     /tmp/cc2IngwB.s:95073  .debug_str:00000000000157aa .LASF7261
     /tmp/cc2IngwB.s:105507  .debug_str:000000000003fc91 .LASF7262
     /tmp/cc2IngwB.s:97281  .debug_str:000000000001e731 .LASF7263
     /tmp/cc2IngwB.s:93541  .debug_str:000000000000f8da .LASF7264
     /tmp/cc2IngwB.s:92105  .debug_str:0000000000009e87 .LASF7265
     /tmp/cc2IngwB.s:106059  .debug_str:00000000000422e0 .LASF7266
     /tmp/cc2IngwB.s:93543  .debug_str:000000000000f8e1 .LASF7267
     /tmp/cc2IngwB.s:105729  .debug_str:0000000000040a64 .LASF7268
     /tmp/cc2IngwB.s:94647  .debug_str:0000000000013d63 .LASF7269
     /tmp/cc2IngwB.s:93545  .debug_str:000000000000f8e8 .LASF7270
     /tmp/cc2IngwB.s:99539  .debug_str:00000000000279e5 .LASF7271
     /tmp/cc2IngwB.s:102931  .debug_str:0000000000035700 .LASF7272
     /tmp/cc2IngwB.s:93547  .debug_str:000000000000f8ef .LASF7273
     /tmp/cc2IngwB.s:93111  .debug_str:000000000000e0d7 .LASF7274
     /tmp/cc2IngwB.s:91391  .debug_str:0000000000006db1 .LASF7275
     /tmp/cc2IngwB.s:93549  .debug_str:000000000000f8f6 .LASF7276
     /tmp/cc2IngwB.s:106727  .debug_str:00000000000451a3 .LASF7277
     /tmp/cc2IngwB.s:95055  .debug_str:0000000000015675 .LASF7278
     /tmp/cc2IngwB.s:93551  .debug_str:000000000000f8fd .LASF7279
     /tmp/cc2IngwB.s:100575  .debug_str:000000000002be27 .LASF7280
     /tmp/cc2IngwB.s:103479  .debug_str:0000000000037c07 .LASF7281
     /tmp/cc2IngwB.s:93553  .debug_str:000000000000f904 .LASF7282
     /tmp/cc2IngwB.s:91327  .debug_str:00000000000068a5 .LASF7283
     /tmp/cc2IngwB.s:103863  .debug_str:000000000003929f .LASF7284
     /tmp/cc2IngwB.s:93555  .debug_str:000000000000f90b .LASF7285
     /tmp/cc2IngwB.s:107715  .debug_str:00000000000491fc .LASF7286
     /tmp/cc2IngwB.s:101649  .debug_str:0000000000030296 .LASF7287
     /tmp/cc2IngwB.s:95103  .debug_str:0000000000015964 .LASF7288
     /tmp/cc2IngwB.s:104357  .debug_str:000000000003af1e .LASF7289
     /tmp/cc2IngwB.s:97909  .debug_str:00000000000212ca .LASF7290
     /tmp/cc2IngwB.s:93631  .debug_str:000000000000feb6 .LASF7291
     /tmp/cc2IngwB.s:102671  .debug_str:00000000000345ab .LASF7292
     /tmp/cc2IngwB.s:98707  .debug_str:0000000000024869 .LASF7293
     /tmp/cc2IngwB.s:95237  .debug_str:00000000000161f9 .LASF7294
     /tmp/cc2IngwB.s:107737  .debug_str:0000000000049340 .LASF7295
     /tmp/cc2IngwB.s:91147  .debug_str:0000000000005d5c .LASF7296
     /tmp/cc2IngwB.s:93635  .debug_str:000000000000fecd .LASF7297
     /tmp/cc2IngwB.s:101597  .debug_str:000000000002ff81 .LASF7298
     /tmp/cc2IngwB.s:95305  .debug_str:00000000000165cd .LASF7299
     /tmp/cc2IngwB.s:93637  .debug_str:000000000000fed4 .LASF7300
     /tmp/cc2IngwB.s:95219  .debug_str:00000000000160f6 .LASF7301
     /tmp/cc2IngwB.s:95283  .debug_str:00000000000164a1 .LASF7302
     /tmp/cc2IngwB.s:93639  .debug_str:000000000000fedb .LASF7303
     /tmp/cc2IngwB.s:108703  .debug_str:000000000004d407 .LASF7304
     /tmp/cc2IngwB.s:94223  .debug_str:00000000000120d5 .LASF7305
     /tmp/cc2IngwB.s:93641  .debug_str:000000000000fee2 .LASF7306
     /tmp/cc2IngwB.s:102575  .debug_str:0000000000033f43 .LASF7307
     /tmp/cc2IngwB.s:96977  .debug_str:000000000001d2ca .LASF7308
     /tmp/cc2IngwB.s:95249  .debug_str:00000000000162c1 .LASF7309
     /tmp/cc2IngwB.s:101813  .debug_str:0000000000030d1f .LASF7310
     /tmp/cc2IngwB.s:100925  .debug_str:000000000002d39e .LASF7311
     /tmp/cc2IngwB.s:95251  .debug_str:00000000000162c8 .LASF7312
     /tmp/cc2IngwB.s:89949  .debug_str:0000000000000bab .LASF7313
     /tmp/cc2IngwB.s:102747  .debug_str:0000000000034a8b .LASF7314
     /tmp/cc2IngwB.s:95253  .debug_str:00000000000162cf .LASF7315
     /tmp/cc2IngwB.s:103521  .debug_str:0000000000037ed6 .LASF7316
     /tmp/cc2IngwB.s:91139  .debug_str:0000000000005cef .LASF7317
     /tmp/cc2IngwB.s:95255  .debug_str:00000000000162d6 .LASF7318
     /tmp/cc2IngwB.s:97245  .debug_str:000000000001e4ed .LASF7319
     /tmp/cc2IngwB.s:105989  .debug_str:0000000000041e49 .LASF7320
     /tmp/cc2IngwB.s:93721  .debug_str:00000000000103d7 .LASF7321
     /tmp/cc2IngwB.s:89965  .debug_str:0000000000000c80 .LASF7322
     /tmp/cc2IngwB.s:96123  .debug_str:0000000000019c1e .LASF7323
     /tmp/cc2IngwB.s:93723  .debug_str:00000000000103de .LASF7324
     /tmp/cc2IngwB.s:106057  .debug_str:00000000000422bf .LASF7325
     /tmp/cc2IngwB.s:107357  .debug_str:00000000000479f0 .LASF7326
     /tmp/cc2IngwB.s:93725  .debug_str:00000000000103e5 .LASF7327
     /tmp/cc2IngwB.s:97267  .debug_str:000000000001e663 .LASF7328
     /tmp/cc2IngwB.s:92269  .debug_str:000000000000a967 .LASF7329
     /tmp/cc2IngwB.s:93727  .debug_str:00000000000103ec .LASF7330
     /tmp/cc2IngwB.s:107397  .debug_str:0000000000047cbb .LASF7331
     /tmp/cc2IngwB.s:101211  .debug_str:000000000002e583 .LASF7332
     /tmp/cc2IngwB.s:93729  .debug_str:00000000000103f3 .LASF7333
     /tmp/cc2IngwB.s:104569  .debug_str:000000000003bde0 .LASF7334
     /tmp/cc2IngwB.s:94157  .debug_str:0000000000011c4b .LASF7335
     /tmp/cc2IngwB.s:93731  .debug_str:00000000000103fa .LASF7336
     /tmp/cc2IngwB.s:98287  .debug_str:0000000000022c39 .LASF7337
     /tmp/cc2IngwB.s:108281  .debug_str:000000000004b6d4 .LASF7338
     /tmp/cc2IngwB.s:93733  .debug_str:0000000000010401 .LASF7339
     /tmp/cc2IngwB.s:91879  .debug_str:0000000000008e47 .LASF7340
     /tmp/cc2IngwB.s:96325  .debug_str:000000000001a99f .LASF7341
     /tmp/cc2IngwB.s:93735  .debug_str:0000000000010408 .LASF7342
     /tmp/cc2IngwB.s:105457  .debug_str:000000000003f987 .LASF7343
     /tmp/cc2IngwB.s:109115  .debug_str:000000000004f1d4 .LASF7344
     /tmp/cc2IngwB.s:93737  .debug_str:000000000001040f .LASF7345
     /tmp/cc2IngwB.s:99257  .debug_str:0000000000026820 .LASF7346
     /tmp/cc2IngwB.s:90231  .debug_str:0000000000002048 .LASF7347
     /tmp/cc2IngwB.s:93739  .debug_str:0000000000010416 .LASF7348
     /tmp/cc2IngwB.s:92855  .debug_str:000000000000d1d2 .LASF7349
     /tmp/cc2IngwB.s:91589  .debug_str:0000000000007b4e .LASF7350
     /tmp/cc2IngwB.s:93793  .debug_str:0000000000010762 .LASF7351
     /tmp/cc2IngwB.s:105645  .debug_str:0000000000040522 .LASF7352
     /tmp/cc2IngwB.s:100819  .debug_str:000000000002ccbd .LASF7353
     /tmp/cc2IngwB.s:93795  .debug_str:0000000000010769 .LASF7354
     /tmp/cc2IngwB.s:99439  .debug_str:00000000000273d7 .LASF7355
     /tmp/cc2IngwB.s:104551  .debug_str:000000000003bd0a .LASF7356
     /tmp/cc2IngwB.s:93797  .debug_str:0000000000010770 .LASF7357
     /tmp/cc2IngwB.s:93027  .debug_str:000000000000dcc3 .LASF7358
     /tmp/cc2IngwB.s:105593  .debug_str:0000000000040214 .LASF7359
     /tmp/cc2IngwB.s:97315  .debug_str:000000000001e9af .LASF7360
     /tmp/cc2IngwB.s:106651  .debug_str:0000000000044cba .LASF7361
     /tmp/cc2IngwB.s:90955  .debug_str:00000000000050ec .LASF7362
     /tmp/cc2IngwB.s:93801  .debug_str:0000000000010798 .LASF7363
     /tmp/cc2IngwB.s:100491  .debug_str:000000000002b805 .LASF7364
     /tmp/cc2IngwB.s:95399  .debug_str:0000000000016c19 .LASF7365
     /tmp/cc2IngwB.s:93803  .debug_str:000000000001079f .LASF7366
     /tmp/cc2IngwB.s:90001  .debug_str:0000000000000f14 .LASF7367
     /tmp/cc2IngwB.s:104443  .debug_str:000000000003b525 .LASF7368
     /tmp/cc2IngwB.s:93805  .debug_str:00000000000107a6 .LASF7369
     /tmp/cc2IngwB.s:96483  .debug_str:000000000001b376 .LASF7370
     /tmp/cc2IngwB.s:102371  .debug_str:00000000000331ad .LASF7371
     /tmp/cc2IngwB.s:93807  .debug_str:00000000000107ad .LASF7372
     /tmp/cc2IngwB.s:101493  .debug_str:000000000002f828 .LASF7373
     /tmp/cc2IngwB.s:101485  .debug_str:000000000002f790 .LASF7374
     /tmp/cc2IngwB.s:93809  .debug_str:00000000000107b4 .LASF7375
     /tmp/cc2IngwB.s:109335  .debug_str:000000000004ff6f .LASF7376
     /tmp/cc2IngwB.s:96987  .debug_str:000000000001d352 .LASF7377
     /tmp/cc2IngwB.s:93811  .debug_str:00000000000107bb .LASF7378
     /tmp/cc2IngwB.s:108597  .debug_str:000000000004cc7d .LASF7379
     /tmp/cc2IngwB.s:90145  .debug_str:0000000000001a2f .LASF7380
     /tmp/cc2IngwB.s:95707  .debug_str:0000000000018180 .LASF7381
     /tmp/cc2IngwB.s:101515  .debug_str:000000000002f9fc .LASF7382
     /tmp/cc2IngwB.s:92137  .debug_str:000000000000a044 .LASF7383
     /tmp/cc2IngwB.s:95711  .debug_str:00000000000181bb .LASF7384
     /tmp/cc2IngwB.s:95161  .debug_str:0000000000015d18 .LASF7385
     /tmp/cc2IngwB.s:92141  .debug_str:000000000000a066 .LASF7386
     /tmp/cc2IngwB.s:93887  .debug_str:0000000000010c4d .LASF7387
     /tmp/cc2IngwB.s:108625  .debug_str:000000000004ceac .LASF7388
     /tmp/cc2IngwB.s:104029  .debug_str:0000000000039b50 .LASF7389
     /tmp/cc2IngwB.s:93889  .debug_str:0000000000010c54 .LASF7390
     /tmp/cc2IngwB.s:93885  .debug_str:0000000000010c2c .LASF7391
     /tmp/cc2IngwB.s:104005  .debug_str:000000000003997c .LASF7392
     /tmp/cc2IngwB.s:93891  .debug_str:0000000000010c5b .LASF7393
     /tmp/cc2IngwB.s:96131  .debug_str:0000000000019c88 .LASF7394
     /tmp/cc2IngwB.s:97757  .debug_str:0000000000020934 .LASF7395
     /tmp/cc2IngwB.s:93893  .debug_str:0000000000010c62 .LASF7396
     /tmp/cc2IngwB.s:89871  .debug_str:00000000000006bc .LASF7397
     /tmp/cc2IngwB.s:104323  .debug_str:000000000003acaa .LASF7398
     /tmp/cc2IngwB.s:93895  .debug_str:0000000000010c69 .LASF7399
     /tmp/cc2IngwB.s:103447  .debug_str:0000000000037a2c .LASF7400
     /tmp/cc2IngwB.s:99269  .debug_str:00000000000268ac .LASF7401
     /tmp/cc2IngwB.s:93897  .debug_str:0000000000010c70 .LASF7402
     /tmp/cc2IngwB.s:97175  .debug_str:000000000001e017 .LASF7403
     /tmp/cc2IngwB.s:99273  .debug_str:00000000000268fb .LASF7404
     /tmp/cc2IngwB.s:93899  .debug_str:0000000000010c77 .LASF7405
     /tmp/cc2IngwB.s:90815  .debug_str:0000000000004734 .LASF7406
     /tmp/cc2IngwB.s:105335  .debug_str:000000000003f230 .LASF7407
     /tmp/cc2IngwB.s:93901  .debug_str:0000000000010c7e .LASF7408
     /tmp/cc2IngwB.s:104481  .debug_str:000000000003b7b0 .LASF7409
     /tmp/cc2IngwB.s:96759  .debug_str:000000000001c46c .LASF7410
     /tmp/cc2IngwB.s:93971  .debug_str:0000000000011142 .LASF7411
     /tmp/cc2IngwB.s:97189  .debug_str:000000000001e108 .LASF7412
     /tmp/cc2IngwB.s:96763  .debug_str:000000000001c497 .LASF7413
     /tmp/cc2IngwB.s:95873  .debug_str:0000000000018c09 .LASF7414
     /tmp/cc2IngwB.s:90835  .debug_str:000000000000488f .LASF7415
     /tmp/cc2IngwB.s:104501  .debug_str:000000000003b8ea .LASF7416
     /tmp/cc2IngwB.s:93975  .debug_str:0000000000011163 .LASF7417
     /tmp/cc2IngwB.s:104505  .debug_str:000000000003b925 .LASF7418
     /tmp/cc2IngwB.s:91937  .debug_str:00000000000092ae .LASF7419
     /tmp/cc2IngwB.s:95881  .debug_str:0000000000018c5f .LASF7420
     /tmp/cc2IngwB.s:98199  .debug_str:0000000000022672 .LASF7421
     /tmp/cc2IngwB.s:91941  .debug_str:00000000000092d9 .LASF7422
     /tmp/cc2IngwB.s:93979  .debug_str:000000000001117d .LASF7423
     /tmp/cc2IngwB.s:91811  .debug_str:0000000000008a2b .LASF7424
     /tmp/cc2IngwB.s:95239  .debug_str:0000000000016200 .LASF7425
     /tmp/cc2IngwB.s:93981  .debug_str:0000000000011184 .LASF7426
     /tmp/cc2IngwB.s:105367  .debug_str:000000000003f449 .LASF7427
     /tmp/cc2IngwB.s:97707  .debug_str:00000000000205af .LASF7428
     /tmp/cc2IngwB.s:93983  .debug_str:000000000001118b .LASF7429
     /tmp/cc2IngwB.s:99171  .debug_str:0000000000026260 .LASF7430
     /tmp/cc2IngwB.s:97709  .debug_str:00000000000205bd .LASF7431
     /tmp/cc2IngwB.s:93985  .debug_str:0000000000011192 .LASF7432
     /tmp/cc2IngwB.s:92771  .debug_str:000000000000cc34 .LASF7433
     /tmp/cc2IngwB.s:101399  .debug_str:000000000002f20c .LASF7434
     /tmp/cc2IngwB.s:95897  .debug_str:0000000000018cbf .LASF7435
     /tmp/cc2IngwB.s:106379  .debug_str:0000000000043aae .LASF7436
     /tmp/cc2IngwB.s:92875  .debug_str:000000000000d36d .LASF7437
     /tmp/cc2IngwB.s:93989  .debug_str:00000000000111c3 .LASF7438
     /tmp/cc2IngwB.s:100191  .debug_str:000000000002a572 .LASF7439
     /tmp/cc2IngwB.s:92879  .debug_str:000000000000d3b0 .LASF7440
     /tmp/cc2IngwB.s:94067  .debug_str:000000000001171e .LASF7441
     /tmp/cc2IngwB.s:92801  .debug_str:000000000000ce97 .LASF7442
     /tmp/cc2IngwB.s:96403  .debug_str:000000000001aef9 .LASF7443
     /tmp/cc2IngwB.s:94069  .debug_str:0000000000011725 .LASF7444
     /tmp/cc2IngwB.s:106401  .debug_str:0000000000043c6e .LASF7445
     /tmp/cc2IngwB.s:107721  .debug_str:000000000004923c .LASF7446
     /tmp/cc2IngwB.s:94071  .debug_str:000000000001172c .LASF7447
     /tmp/cc2IngwB.s:100215  .debug_str:000000000002a707 .LASF7448
     /tmp/cc2IngwB.s:94275  .debug_str:0000000000012486 .LASF7449
     /tmp/cc2IngwB.s:98087  .debug_str:0000000000021f56 .LASF7450
     /tmp/cc2IngwB.s:107783  .debug_str:0000000000049618 .LASF7451
     /tmp/cc2IngwB.s:95463  .debug_str:000000000001708e .LASF7452
     /tmp/cc2IngwB.s:94075  .debug_str:000000000001175d .LASF7453
     /tmp/cc2IngwB.s:107377  .debug_str:0000000000047b0f .LASF7454
     /tmp/cc2IngwB.s:107523  .debug_str:0000000000048550 .LASF7455
     /tmp/cc2IngwB.s:94077  .debug_str:0000000000011764 .LASF7456
     /tmp/cc2IngwB.s:101253  .debug_str:000000000002e850 .LASF7457
     /tmp/cc2IngwB.s:107527  .debug_str:000000000004858c .LASF7458
     /tmp/cc2IngwB.s:94079  .debug_str:000000000001176b .LASF7459
     /tmp/cc2IngwB.s:94871  .debug_str:0000000000014b78 .LASF7460
     /tmp/cc2IngwB.s:105755  .debug_str:0000000000040bed .LASF7461
     /tmp/cc2IngwB.s:94081  .debug_str:0000000000011772 .LASF7462
     /tmp/cc2IngwB.s:94011  .debug_str:0000000000011311 .LASF7463
     /tmp/cc2IngwB.s:100357  .debug_str:000000000002afd0 .LASF7464
     /tmp/cc2IngwB.s:94083  .debug_str:0000000000011779 .LASF7465
     /tmp/cc2IngwB.s:102207  .debug_str:000000000003259d .LASF7466
     /tmp/cc2IngwB.s:103893  .debug_str:0000000000039450 .LASF7467
     /tmp/cc2IngwB.s:94085  .debug_str:0000000000011780 .LASF7468
     /tmp/cc2IngwB.s:95851  .debug_str:0000000000018ab9 .LASF7469
     /tmp/cc2IngwB.s:103675  .debug_str:0000000000038848 .LASF7470
     /tmp/cc2IngwB.s:98785  .debug_str:0000000000024d9b .LASF7471
     /tmp/cc2IngwB.s:103905  .debug_str:0000000000039501 .LASF7472
     /tmp/cc2IngwB.s:103679  .debug_str:000000000003887f .LASF7473
     /tmp/cc2IngwB.s:98787  .debug_str:0000000000024da2 .LASF7474
     /tmp/cc2IngwB.s:97609  .debug_str:000000000001fe1b .LASF7475
     /tmp/cc2IngwB.s:103941  .debug_str:000000000003968d .LASF7476
     /tmp/cc2IngwB.s:98789  .debug_str:0000000000024da9 .LASF7477
     /tmp/cc2IngwB.s:91251  .debug_str:00000000000063f3 .LASF7478
     /tmp/cc2IngwB.s:98933  .debug_str:000000000002565a .LASF7479
     /tmp/cc2IngwB.s:98791  .debug_str:0000000000024db0 .LASF7480
     /tmp/cc2IngwB.s:104851  .debug_str:000000000003d144 .LASF7481
     /tmp/cc2IngwB.s:98937  .debug_str:0000000000025679 .LASF7482
     /tmp/cc2IngwB.s:98793  .debug_str:0000000000024db7 .LASF7483
     /tmp/cc2IngwB.s:98571  .debug_str:0000000000023f6b .LASF7484
     /tmp/cc2IngwB.s:95347  .debug_str:00000000000168b8 .LASF7485
     /tmp/cc2IngwB.s:98795  .debug_str:0000000000024dbe .LASF7486
     /tmp/cc2IngwB.s:109351  .debug_str:000000000005009a .LASF7487
     /tmp/cc2IngwB.s:96319  .debug_str:000000000001a92b .LASF7488
     /tmp/cc2IngwB.s:98797  .debug_str:0000000000024dc5 .LASF7489
     /tmp/cc2IngwB.s:108735  .debug_str:000000000004d6a2 .LASF7490
     /tmp/cc2IngwB.s:103903  .debug_str:00000000000394f1 .LASF7491
     /tmp/cc2IngwB.s:98799  .debug_str:0000000000024dcc .LASF7492
     /tmp/cc2IngwB.s:99583  .debug_str:0000000000027d22 .LASF7493
     /tmp/cc2IngwB.s:107631  .debug_str:0000000000048c74 .LASF7494
     /tmp/cc2IngwB.s:98801  .debug_str:0000000000024dd3 .LASF7495
     /tmp/cc2IngwB.s:93165  .debug_str:000000000000e3ca .LASF7496
     /tmp/cc2IngwB.s:104985  .debug_str:000000000003d9ce .LASF7497
     /tmp/cc2IngwB.s:98803  .debug_str:0000000000024dda .LASF7498
     /tmp/cc2IngwB.s:106781  .debug_str:000000000004559b .LASF7499
     /tmp/cc2IngwB.s:91691  .debug_str:00000000000081bb .LASF7500
     /tmp/cc2IngwB.s:98861  .debug_str:00000000000252a7 .LASF7501
     /tmp/cc2IngwB.s:99607  .debug_str:0000000000027e98 .LASF7502
     /tmp/cc2IngwB.s:91693  .debug_str:00000000000081ca .LASF7503
     /tmp/cc2IngwB.s:98863  .debug_str:00000000000252ae .LASF7504
     /tmp/cc2IngwB.s:93195  .debug_str:000000000000e5d6 .LASF7505
     /tmp/cc2IngwB.s:91949  .debug_str:0000000000009344 .LASF7506
     /tmp/cc2IngwB.s:98865  .debug_str:00000000000252b5 .LASF7507
     /tmp/cc2IngwB.s:106805  .debug_str:00000000000456e2 .LASF7508
     /tmp/cc2IngwB.s:106859  .debug_str:0000000000045a14 .LASF7509
     /tmp/cc2IngwB.s:98867  .debug_str:00000000000252bc .LASF7510
     /tmp/cc2IngwB.s:100657  .debug_str:000000000002c2d6 .LASF7511
     /tmp/cc2IngwB.s:106863  .debug_str:0000000000045a2d .LASF7512
     /tmp/cc2IngwB.s:98869  .debug_str:00000000000252c3 .LASF7513
     /tmp/cc2IngwB.s:94291  .debug_str:00000000000125b9 .LASF7514
     /tmp/cc2IngwB.s:96063  .debug_str:00000000000197b0 .LASF7515
     /tmp/cc2IngwB.s:98871  .debug_str:00000000000252ca .LASF7516
     /tmp/cc2IngwB.s:107781  .debug_str:00000000000495f7 .LASF7517
     /tmp/cc2IngwB.s:92201  .debug_str:000000000000a4a4 .LASF7518
     /tmp/cc2IngwB.s:98873  .debug_str:00000000000252d1 .LASF7519
     /tmp/cc2IngwB.s:101639  .debug_str:000000000003020a .LASF7520
     /tmp/cc2IngwB.s:92205  .debug_str:000000000000a4b8 .LASF7521
     /tmp/cc2IngwB.s:98875  .debug_str:00000000000252d8 .LASF7522
     /tmp/cc2IngwB.s:95269  .debug_str:0000000000016389 .LASF7523
     /tmp/cc2IngwB.s:105329  .debug_str:000000000003f1e1 .LASF7524
     /tmp/cc2IngwB.s:98877  .debug_str:00000000000252df .LASF7525
     /tmp/cc2IngwB.s:108759  .debug_str:000000000004d850 .LASF7526
     /tmp/cc2IngwB.s:103505  .debug_str:0000000000037dbe .LASF7527
     /tmp/cc2IngwB.s:98879  .debug_str:00000000000252e6 .LASF7528
     /tmp/cc2IngwB.s:102623  .debug_str:0000000000034291 .LASF7529
     /tmp/cc2IngwB.s:98857  .debug_str:0000000000025267 .LASF7530
     /tmp/cc2IngwB.s:98959  .debug_str:0000000000025809 .LASF7531
     /tmp/cc2IngwB.s:92243  .debug_str:000000000000a77b .LASF7532
     /tmp/cc2IngwB.s:107371  .debug_str:0000000000047af2 .LASF7533
     /tmp/cc2IngwB.s:98961  .debug_str:0000000000025810 .LASF7534
     /tmp/cc2IngwB.s:98781  .debug_str:0000000000024d6d .LASF7535
     /tmp/cc2IngwB.s:107373  .debug_str:0000000000047afd .LASF7536
     /tmp/cc2IngwB.s:105745  .debug_str:0000000000040b7e .LASF7537
     /tmp/cc2IngwB.s:105227  .debug_str:000000000003eb2d .LASF7538
     /tmp/cc2IngwB.s:107701  .debug_str:000000000004912b .LASF7539
     /tmp/cc2IngwB.s:98965  .debug_str:000000000002584c .LASF7540
     /tmp/cc2IngwB.s:96293  .debug_str:000000000001a709 .LASF7541
     /tmp/cc2IngwB.s:91141  .debug_str:0000000000005cfe .LASF7542
     /tmp/cc2IngwB.s:98967  .debug_str:0000000000025853 .LASF7543
     /tmp/cc2IngwB.s:90011  .debug_str:0000000000000fc5 .LASF7544
     /tmp/cc2IngwB.s:101363  .debug_str:000000000002ef6f .LASF7545
     /tmp/cc2IngwB.s:98969  .debug_str:000000000002585a .LASF7546
     /tmp/cc2IngwB.s:103603  .debug_str:0000000000038373 .LASF7547
     /tmp/cc2IngwB.s:91757  .debug_str:000000000000863f .LASF7548
     /tmp/cc2IngwB.s:98971  .debug_str:0000000000025861 .LASF7549
     /tmp/cc2IngwB.s:97305  .debug_str:000000000001e927 .LASF7550
     /tmp/cc2IngwB.s:102545  .debug_str:0000000000033d98 .LASF7551
     /tmp/cc2IngwB.s:98973  .debug_str:0000000000025868 .LASF7552
     /tmp/cc2IngwB.s:90967  .debug_str:000000000000518b .LASF7553
     /tmp/cc2IngwB.s:101243  .debug_str:000000000002e7cc .LASF7554
     /tmp/cc2IngwB.s:98975  .debug_str:000000000002586f .LASF7555
     /tmp/cc2IngwB.s:104601  .debug_str:000000000003bfef .LASF7556
     /tmp/cc2IngwB.s:101291  .debug_str:000000000002eaae .LASF7557
     /tmp/cc2IngwB.s:98977  .debug_str:0000000000025876 .LASF7558
     /tmp/cc2IngwB.s:98325  .debug_str:0000000000022ec3 .LASF7559
     /tmp/cc2IngwB.s:108121  .debug_str:000000000004abf5 .LASF7560
     /tmp/cc2IngwB.s:99053  .debug_str:0000000000025d17 .LASF7561
     /tmp/cc2IngwB.s:104271  .debug_str:000000000003a95d .LASF7562
     /tmp/cc2IngwB.s:108125  .debug_str:000000000004ac0a .LASF7563
     /tmp/cc2IngwB.s:99055  .debug_str:0000000000025d1e .LASF7564
     /tmp/cc2IngwB.s:104623  .debug_str:000000000003c171 .LASF7565
     /tmp/cc2IngwB.s:104753  .debug_str:000000000003cb00 .LASF7566
     /tmp/cc2IngwB.s:99057  .debug_str:0000000000025d25 .LASF7567
     /tmp/cc2IngwB.s:98337  .debug_str:0000000000022fa9 .LASF7568
     /tmp/cc2IngwB.s:103543  .debug_str:00000000000380a9 .LASF7569
     /tmp/cc2IngwB.s:99059  .debug_str:0000000000025d2c .LASF7570
     /tmp/cc2IngwB.s:91933  .debug_str:000000000000926e .LASF7571
     /tmp/cc2IngwB.s:108323  .debug_str:000000000004ba6a .LASF7572
     /tmp/cc2IngwB.s:99061  .debug_str:0000000000025d33 .LASF7573
     /tmp/cc2IngwB.s:105517  .debug_str:000000000003fd09 .LASF7574
     /tmp/cc2IngwB.s:100883  .debug_str:000000000002d0f5 .LASF7575
     /tmp/cc2IngwB.s:99063  .debug_str:0000000000025d3a .LASF7576
     /tmp/cc2IngwB.s:99315  .debug_str:0000000000026b86 .LASF7577
     /tmp/cc2IngwB.s:100885  .debug_str:000000000002d101 .LASF7578
     /tmp/cc2IngwB.s:99065  .debug_str:0000000000025d41 .LASF7579
     /tmp/cc2IngwB.s:92915  .debug_str:000000000000d5d8 .LASF7580
     /tmp/cc2IngwB.s:100887  .debug_str:000000000002d10d .LASF7581
     /tmp/cc2IngwB.s:99067  .debug_str:0000000000025d48 .LASF7582
     /tmp/cc2IngwB.s:106539  .debug_str:00000000000445ba .LASF7583
     /tmp/cc2IngwB.s:95499  .debug_str:000000000001730c .LASF7584
     /tmp/cc2IngwB.s:99069  .debug_str:0000000000025d4f .LASF7585
     /tmp/cc2IngwB.s:100363  .debug_str:000000000002b019 .LASF7586
     /tmp/cc2IngwB.s:91501  .debug_str:00000000000075af .LASF7587
     /tmp/cc2IngwB.s:99071  .debug_str:0000000000025d56 .LASF7588
     /tmp/cc2IngwB.s:93961  .debug_str:000000000001108e .LASF7589
     /tmp/cc2IngwB.s:95503  .debug_str:0000000000017327 .LASF7590
     /tmp/cc2IngwB.s:99143  .debug_str:00000000000261e5 .LASF7591
     /tmp/cc2IngwB.s:106567  .debug_str:00000000000447c7 .LASF7592
     /tmp/cc2IngwB.s:99497  .debug_str:00000000000276e2 .LASF7593
     /tmp/cc2IngwB.s:99145  .debug_str:00000000000261ec .LASF7594
     /tmp/cc2IngwB.s:100391  .debug_str:000000000002b1c5 .LASF7595
     /tmp/cc2IngwB.s:102873  .debug_str:000000000003535a .LASF7596
     /tmp/cc2IngwB.s:99147  .debug_str:00000000000261f3 .LASF7597
     /tmp/cc2IngwB.s:93993  .debug_str:00000000000111da .LASF7598
     /tmp/cc2IngwB.s:93083  .debug_str:000000000000df39 .LASF7599
     /tmp/cc2IngwB.s:99149  .debug_str:00000000000261fa .LASF7600
     /tmp/cc2IngwB.s:107519  .debug_str:0000000000048519 .LASF7601
     /tmp/cc2IngwB.s:93085  .debug_str:000000000000df45 .LASF7602
     /tmp/cc2IngwB.s:99151  .debug_str:0000000000026201 .LASF7603
     /tmp/cc2IngwB.s:92355  .debug_str:000000000000af2c .LASF7604
     /tmp/cc2IngwB.s:93087  .debug_str:000000000000df51 .LASF7605
     /tmp/cc2IngwB.s:99153  .debug_str:0000000000026208 .LASF7606
     /tmp/cc2IngwB.s:102857  .debug_str:0000000000035277 .LASF7607
     /tmp/cc2IngwB.s:109263  .debug_str:000000000004fb4a .LASF7608
     /tmp/cc2IngwB.s:99155  .debug_str:000000000002620f .LASF7609
     /tmp/cc2IngwB.s:108495  .debug_str:000000000004c605 .LASF7610
     /tmp/cc2IngwB.s:109265  .debug_str:000000000004fb54 .LASF7611
     /tmp/cc2IngwB.s:99157  .debug_str:0000000000026216 .LASF7612
     /tmp/cc2IngwB.s:91927  .debug_str:00000000000091e9 .LASF7613
     /tmp/cc2IngwB.s:109267  .debug_str:000000000004fb5e .LASF7614
     /tmp/cc2IngwB.s:99159  .debug_str:000000000002621d .LASF7615
     /tmp/cc2IngwB.s:95997  .debug_str:00000000000192d8 .LASF7616
     /tmp/cc2IngwB.s:109269  .debug_str:000000000004fb68 .LASF7617
     /tmp/cc2IngwB.s:99161  .debug_str:0000000000026224 .LASF7618
     /tmp/cc2IngwB.s:109489  .debug_str:0000000000050a20 .LASF7619
     /tmp/cc2IngwB.s:94407  .debug_str:0000000000012d22 .LASF7620
     /tmp/cc2IngwB.s:99233  .debug_str:00000000000266d2 .LASF7621
     /tmp/cc2IngwB.s:103291  .debug_str:0000000000036ffd .LASF7622
     /tmp/cc2IngwB.s:102637  .debug_str:00000000000343ac .LASF7623
     /tmp/cc2IngwB.s:93343  .debug_str:000000000000ede0 .LASF7624
     /tmp/cc2IngwB.s:101703  .debug_str:0000000000030600 .LASF7625
     /tmp/cc2IngwB.s:102639  .debug_str:00000000000343b8 .LASF7626
     /tmp/cc2IngwB.s:93347  .debug_str:000000000000edfc .LASF7627
     /tmp/cc2IngwB.s:95339  .debug_str:000000000001681f .LASF7628
     /tmp/cc2IngwB.s:108135  .debug_str:000000000004ac78 .LASF7629
     /tmp/cc2IngwB.s:94771  .debug_str:0000000000014535 .LASF7630
     /tmp/cc2IngwB.s:92835  .debug_str:000000000000d091 .LASF7631
     /tmp/cc2IngwB.s:105615  .debug_str:000000000004035b .LASF7632
     /tmp/cc2IngwB.s:95517  .debug_str:00000000000173b4 .LASF7633
     /tmp/cc2IngwB.s:98517  .debug_str:0000000000023bf2 .LASF7634
     /tmp/cc2IngwB.s:104769  .debug_str:000000000003cc31 .LASF7635
     /tmp/cc2IngwB.s:104229  .debug_str:000000000003a642 .LASF7636
     /tmp/cc2IngwB.s:101833  .debug_str:0000000000030e77 .LASF7637
     /tmp/cc2IngwB.s:93329  .debug_str:000000000000ed18 .LASF7638
     /tmp/cc2IngwB.s:106565  .debug_str:00000000000447a1 .LASF7639
     /tmp/cc2IngwB.s:105757  .debug_str:0000000000040bff .LASF7640
     /tmp/cc2IngwB.s:93281  .debug_str:000000000000ea5e .LASF7641
     /tmp/cc2IngwB.s:97397  .debug_str:000000000001ef01 .LASF7642
     /tmp/cc2IngwB.s:105631  .debug_str:000000000004045a .LASF7643
     /tmp/cc2IngwB.s:91605  .debug_str:0000000000007c0c .LASF7644
     /tmp/cc2IngwB.s:94359  .debug_str:0000000000012986 .LASF7645
     /tmp/cc2IngwB.s:105753  .debug_str:0000000000040be1 .LASF7646
     /tmp/cc2IngwB.s:102985  .debug_str:0000000000035b2d .LASF7647
     /tmp/cc2IngwB.s:104565  .debug_str:000000000003bdc2 .LASF7648
     /tmp/cc2IngwB.s:106803  .debug_str:00000000000456d4 .LASF7649
     /tmp/cc2IngwB.s:99419  .debug_str:00000000000272c9 .LASF7650
     /tmp/cc2IngwB.s:96959  .debug_str:000000000001d182 .LASF7651
     /tmp/cc2IngwB.s:100447  .debug_str:000000000002b5f0 .LASF7652
     /tmp/cc2IngwB.s:102313  .debug_str:0000000000032d46 .LASF7653
     /tmp/cc2IngwB.s:104467  .debug_str:000000000003b6d3 .LASF7654
     /tmp/cc2IngwB.s:93267  .debug_str:000000000000e987 .LASF7655
     /tmp/cc2IngwB.s:107641  .debug_str:0000000000048d10 .LASF7656
     /tmp/cc2IngwB.s:106959  .debug_str:00000000000460b7 .LASF7657
     /tmp/cc2IngwB.s:97771  .debug_str:0000000000020a19 .LASF7658
     /tmp/cc2IngwB.s:96217  .debug_str:000000000001a26f .LASF7659
     /tmp/cc2IngwB.s:90867  .debug_str:0000000000004b11 .LASF7660
     /tmp/cc2IngwB.s:92807  .debug_str:000000000000cee9 .LASF7661
     /tmp/cc2IngwB.s:97963  .debug_str:0000000000021687 .LASF7662
     /tmp/cc2IngwB.s:106467  .debug_str:0000000000044114 .LASF7663
     /tmp/cc2IngwB.s:90685  .debug_str:0000000000003e23 .LASF7664
     /tmp/cc2IngwB.s:105941  .debug_str:0000000000041a65 .LASF7665
     /tmp/cc2IngwB.s:96493  .debug_str:000000000001b449 .LASF7666
     /tmp/cc2IngwB.s:105489  .debug_str:000000000003fb73 .LASF7667
     /tmp/cc2IngwB.s:90345  .debug_str:00000000000027b6 .LASF7668
     /tmp/cc2IngwB.s:105113  .debug_str:000000000003e317 .LASF7669
     /tmp/cc2IngwB.s:94019  .debug_str:00000000000113bf .LASF7670
     /tmp/cc2IngwB.s:102875  .debug_str:0000000000035362 .LASF7671
     /tmp/cc2IngwB.s:107867  .debug_str:0000000000049bfa .LASF7672
     /tmp/cc2IngwB.s:104003  .debug_str:0000000000039959 .LASF7673
     /tmp/cc2IngwB.s:90995  .debug_str:0000000000005340 .LASF7674
     /tmp/cc2IngwB.s:99639  .debug_str:0000000000028112 .LASF7675
     /tmp/cc2IngwB.s:89815  .debug_str:00000000000002f9 .LASF7676
     /tmp/cc2IngwB.s:100449  .debug_str:000000000002b618 .LASF7677
     /tmp/cc2IngwB.s:100151  .debug_str:000000000002a2af .LASF7678
     /tmp/cc2IngwB.s:94293  .debug_str:00000000000125da .LASF7679
     /tmp/cc2IngwB.s:99709  .debug_str:0000000000028562 .LASF7680
     /tmp/cc2IngwB.s:91169  .debug_str:0000000000005ed5 .LASF7681
     /tmp/cc2IngwB.s:106197  .debug_str:0000000000042f27 .LASF7682
     /tmp/cc2IngwB.s:106151  .debug_str:0000000000042b79 .LASF7683
     /tmp/cc2IngwB.s:92523  .debug_str:000000000000bb2c .LASF7684
     /tmp/cc2IngwB.s:107949  .debug_str:000000000004a0d4 .LASF7685
     /tmp/cc2IngwB.s:108637  .debug_str:000000000004cf5a .LASF7686
     /tmp/cc2IngwB.s:106069  .debug_str:0000000000042337 .LASF7687
     /tmp/cc2IngwB.s:91091  .debug_str:00000000000059d7 .LASF7688
     /tmp/cc2IngwB.s:95101  .debug_str:000000000001593d .LASF7689
     /tmp/cc2IngwB.s:91875  .debug_str:0000000000008e2a .LASF7690
     /tmp/cc2IngwB.s:101925  .debug_str:000000000003144b .LASF7691
     /tmp/cc2IngwB.s:102899  .debug_str:00000000000354ca .LASF7692
     /tmp/cc2IngwB.s:100689  .debug_str:000000000002c50e .LASF7693
     /tmp/cc2IngwB.s:109293  .debug_str:000000000004fceb .LASF7694
     /tmp/cc2IngwB.s:98327  .debug_str:0000000000022ee4 .LASF7695
     /tmp/cc2IngwB.s:107021  .debug_str:000000000004647f .LASF7696
     /tmp/cc2IngwB.s:104097  .debug_str:0000000000039ead .LASF7697
     /tmp/cc2IngwB.s:98313  .debug_str:0000000000022ddb .LASF7698
     /tmp/cc2IngwB.s:95941  .debug_str:0000000000018f31 .LASF7699
     /tmp/cc2IngwB.s:104735  .debug_str:000000000003c9cb .LASF7700
     /tmp/cc2IngwB.s:93393  .debug_str:000000000000ef52 .LASF7701
     /tmp/cc2IngwB.s:102297  .debug_str:0000000000032c57 .LASF7702
     /tmp/cc2IngwB.s:104099  .debug_str:0000000000039eb4 .LASF7703
     /tmp/cc2IngwB.s:91905  .debug_str:0000000000009063 .LASF7704
     /tmp/cc2IngwB.s:104897  .debug_str:000000000003d458 .LASF7705
     /tmp/cc2IngwB.s:102191  .debug_str:00000000000324b6 .LASF7706
     /tmp/cc2IngwB.s:103315  .debug_str:000000000003718b .LASF7707
     /tmp/cc2IngwB.s:101265  .debug_str:000000000002e8dd .LASF7708
     /tmp/cc2IngwB.s:107151  .debug_str:0000000000046d17 .LASF7709
     /tmp/cc2IngwB.s:101777  .debug_str:0000000000030a43 .LASF7710
     /tmp/cc2IngwB.s:90621  .debug_str:00000000000039af .LASF7711
     /tmp/cc2IngwB.s:107153  .debug_str:0000000000046d25 .LASF7712
     /tmp/cc2IngwB.s:95413  .debug_str:0000000000016cff .LASF7713
     /tmp/cc2IngwB.s:99525  .debug_str:00000000000278d6 .LASF7714
     /tmp/cc2IngwB.s:107155  .debug_str:0000000000046d33 .LASF7715
     /tmp/cc2IngwB.s:108917  .debug_str:000000000004e300 .LASF7716
     /tmp/cc2IngwB.s:98561  .debug_str:0000000000023ee1 .LASF7717
     /tmp/cc2IngwB.s:104673  .debug_str:000000000003c4f5 .LASF7718
     /tmp/cc2IngwB.s:102765  .debug_str:0000000000034b36 .LASF7719
     /tmp/cc2IngwB.s:92087  .debug_str:0000000000009d3e .LASF7720
     /tmp/cc2IngwB.s:107159  .debug_str:0000000000046d83 .LASF7721
     /tmp/cc2IngwB.s:96425  .debug_str:000000000001b054 .LASF7722
     /tmp/cc2IngwB.s:103631  .debug_str:00000000000385ff .LASF7723
     /tmp/cc2IngwB.s:107161  .debug_str:0000000000046d91 .LASF7724
     /tmp/cc2IngwB.s:104401  .debug_str:000000000003b208 .LASF7725
     /tmp/cc2IngwB.s:106293  .debug_str:000000000004351a .LASF7726
     /tmp/cc2IngwB.s:101449  .debug_str:000000000002f4ef .LASF7727
     /tmp/cc2IngwB.s:101451  .debug_str:000000000002f501 .LASF7728
     /tmp/cc2IngwB.s:101455  .debug_str:000000000002f53f .LASF7729
     /tmp/cc2IngwB.s:104609  .debug_str:000000000003c06c .LASF7730
     /tmp/cc2IngwB.s:107427  .debug_str:0000000000047ef8 .LASF7731
     /tmp/cc2IngwB.s:101457  .debug_str:000000000002f551 .LASF7732
     /tmp/cc2IngwB.s:106303  .debug_str:00000000000435aa .LASF7733
     /tmp/cc2IngwB.s:106305  .debug_str:00000000000435bc .LASF7734
     /tmp/cc2IngwB.s:106307  .debug_str:00000000000435ce .LASF7735
     /tmp/cc2IngwB.s:104611  .debug_str:000000000003c07b .LASF7736
     /tmp/cc2IngwB.s:101299  .debug_str:000000000002eb1f .LASF7737
     /tmp/cc2IngwB.s:103569  .debug_str:0000000000038130 .LASF7738
     /tmp/cc2IngwB.s:107577  .debug_str:000000000004894d .LASF7739
     /tmp/cc2IngwB.s:99329  .debug_str:0000000000026cc5 .LASF7740
     /tmp/cc2IngwB.s:103305  .debug_str:00000000000370e2 .LASF7741
     /tmp/cc2IngwB.s:104647  .debug_str:000000000003c30c .LASF7742
     /tmp/cc2IngwB.s:107115  .debug_str:0000000000046abc .LASF7743
     /tmp/cc2IngwB.s:105597  .debug_str:0000000000040253 .LASF7744
     /tmp/cc2IngwB.s:109313  .debug_str:000000000004fe06 .LASF7745
     /tmp/cc2IngwB.s:95333  .debug_str:00000000000167a6 .LASF7746
     /tmp/cc2IngwB.s:107121  .debug_str:0000000000046b16 .LASF7747
     /tmp/cc2IngwB.s:90101  .debug_str:00000000000015e8 .LASF7748
     /tmp/cc2IngwB.s:108183  .debug_str:000000000004afc5 .LASF7749
     /tmp/cc2IngwB.s:105165  .debug_str:000000000003e73b .LASF7750
     /tmp/cc2IngwB.s:89837  .debug_str:000000000000045d .LASF7751
     /tmp/cc2IngwB.s:94759  .debug_str:000000000001446c .LASF7752
     /tmp/cc2IngwB.s:91471  .debug_str:00000000000073ed .LASF7753
     /tmp/cc2IngwB.s:91305  .debug_str:0000000000006769 .LASF7754
     /tmp/cc2IngwB.s:100929  .debug_str:000000000002d3bc .LASF7755
     /tmp/cc2IngwB.s:100931  .debug_str:000000000002d3d4 .LASF7756
     /tmp/cc2IngwB.s:100933  .debug_str:000000000002d3ec .LASF7757
     /tmp/cc2IngwB.s:100935  .debug_str:000000000002d404 .LASF7758
     /tmp/cc2IngwB.s:106657  .debug_str:0000000000044d57 .LASF7759
     /tmp/cc2IngwB.s:92039  .debug_str:0000000000009939 .LASF7760
     /tmp/cc2IngwB.s:100937  .debug_str:000000000002d41c .LASF7761
     /tmp/cc2IngwB.s:93643  .debug_str:000000000000fee9 .LASF7762
     /tmp/cc2IngwB.s:93645  .debug_str:000000000000ff07 .LASF7763
     /tmp/cc2IngwB.s:93647  .debug_str:000000000000ff25 .LASF7764
     /tmp/cc2IngwB.s:93649  .debug_str:000000000000ff43 .LASF7765
     /tmp/cc2IngwB.s:93651  .debug_str:000000000000ff61 .LASF7766
     /tmp/cc2IngwB.s:97619  .debug_str:000000000001fed4 .LASF7767
     /tmp/cc2IngwB.s:93315  .debug_str:000000000000ec5f .LASF7768
     /tmp/cc2IngwB.s:97623  .debug_str:000000000001ff01 .LASF7769
     /tmp/cc2IngwB.s:97625  .debug_str:000000000001ff1e .LASF7770
     /tmp/cc2IngwB.s:97627  .debug_str:000000000001ff3b .LASF7771
     /tmp/cc2IngwB.s:109375  .debug_str:000000000005028a .LASF7772
     /tmp/cc2IngwB.s:109377  .debug_str:00000000000502a4 .LASF7773
     /tmp/cc2IngwB.s:109379  .debug_str:00000000000502be .LASF7774
     /tmp/cc2IngwB.s:109381  .debug_str:00000000000502d8 .LASF7775
     /tmp/cc2IngwB.s:109383  .debug_str:00000000000502f2 .LASF7776
     /tmp/cc2IngwB.s:103743  .debug_str:0000000000038b81 .LASF7777
     /tmp/cc2IngwB.s:106011  .debug_str:0000000000041fd3 .LASF7778
     /tmp/cc2IngwB.s:106659  .debug_str:0000000000044d6f .LASF7779
     /tmp/cc2IngwB.s:105635  .debug_str:0000000000040485 .LASF7780
     /tmp/cc2IngwB.s:103089  .debug_str:00000000000362c0 .LASF7781
     /tmp/cc2IngwB.s:91553  .debug_str:000000000000794d .LASF7782
     /tmp/cc2IngwB.s:91555  .debug_str:000000000000796a .LASF7783
     /tmp/cc2IngwB.s:103099  .debug_str:00000000000363b3 .LASF7784
     /tmp/cc2IngwB.s:90403  .debug_str:0000000000002b79 .LASF7785
     /tmp/cc2IngwB.s:100795  .debug_str:000000000002cb25 .LASF7786
     /tmp/cc2IngwB.s:91559  .debug_str:00000000000079a9 .LASF7787
     /tmp/cc2IngwB.s:101147  .debug_str:000000000002e147 .LASF7788
     /tmp/cc2IngwB.s:101149  .debug_str:000000000002e16a .LASF7789
     /tmp/cc2IngwB.s:101151  .debug_str:000000000002e18d .LASF7790
     /tmp/cc2IngwB.s:101153  .debug_str:000000000002e1b0 .LASF7791
     /tmp/cc2IngwB.s:101155  .debug_str:000000000002e1d3 .LASF7792
     /tmp/cc2IngwB.s:97893  .debug_str:00000000000211dd .LASF7793
     /tmp/cc2IngwB.s:97895  .debug_str:00000000000211ff .LASF7794
     /tmp/cc2IngwB.s:99015  .debug_str:0000000000025aa1 .LASF7795
     /tmp/cc2IngwB.s:97899  .debug_str:0000000000021232 .LASF7796
     /tmp/cc2IngwB.s:97901  .debug_str:0000000000021254 .LASF7797
     /tmp/cc2IngwB.s:100711  .debug_str:000000000002c6ac .LASF7798
     /tmp/cc2IngwB.s:100713  .debug_str:000000000002c6cb .LASF7799
     /tmp/cc2IngwB.s:100715  .debug_str:000000000002c6ea .LASF7800
     /tmp/cc2IngwB.s:103981  .debug_str:00000000000398fe .LASF7801
     /tmp/cc2IngwB.s:100719  .debug_str:000000000002c717 .LASF7802
     /tmp/cc2IngwB.s:100845  .debug_str:000000000002ce20 .LASF7803
     /tmp/cc2IngwB.s:106189  .debug_str:0000000000042e77 .LASF7804
     /tmp/cc2IngwB.s:90405  .debug_str:0000000000002b96 .LASF7805
     /tmp/cc2IngwB.s:97875  .debug_str:00000000000210ee .LASF7806
     /tmp/cc2IngwB.s:102673  .debug_str:00000000000345cc .LASF7807
     /tmp/cc2IngwB.s:102675  .debug_str:00000000000345e4 .LASF7808
     /tmp/cc2IngwB.s:102677  .debug_str:00000000000345fc .LASF7809
     /tmp/cc2IngwB.s:102679  .debug_str:0000000000034614 .LASF7810
     /tmp/cc2IngwB.s:97071  .debug_str:000000000001d873 .LASF7811
     /tmp/cc2IngwB.s:96547  .debug_str:000000000001b6f4 .LASF7812
     /tmp/cc2IngwB.s:102681  .debug_str:000000000003462c .LASF7813
     /tmp/cc2IngwB.s:95447  .debug_str:0000000000016fc6 .LASF7814
     /tmp/cc2IngwB.s:95449  .debug_str:0000000000016fe4 .LASF7815
     /tmp/cc2IngwB.s:95451  .debug_str:0000000000017002 .LASF7816
     /tmp/cc2IngwB.s:101005  .debug_str:000000000002d80c .LASF7817
     /tmp/cc2IngwB.s:95455  .debug_str:0000000000017032 .LASF7818
     /tmp/cc2IngwB.s:99359  .debug_str:0000000000026ed6 .LASF7819
     /tmp/cc2IngwB.s:99361  .debug_str:0000000000026ef3 .LASF7820
     /tmp/cc2IngwB.s:99363  .debug_str:0000000000026f10 .LASF7821
     /tmp/cc2IngwB.s:99365  .debug_str:0000000000026f2d .LASF7822
     /tmp/cc2IngwB.s:99367  .debug_str:0000000000026f4a .LASF7823
     /tmp/cc2IngwB.s:91361  .debug_str:0000000000006b7c .LASF7824
     /tmp/cc2IngwB.s:91363  .debug_str:0000000000006b96 .LASF7825
     /tmp/cc2IngwB.s:91365  .debug_str:0000000000006bb0 .LASF7826
     /tmp/cc2IngwB.s:91367  .debug_str:0000000000006bca .LASF7827
     /tmp/cc2IngwB.s:108903  .debug_str:000000000004e1de .LASF7828
     /tmp/cc2IngwB.s:94837  .debug_str:000000000001497e .LASF7829
     /tmp/cc2IngwB.s:102907  .debug_str:0000000000035574 .LASF7830
     /tmp/cc2IngwB.s:97075  .debug_str:000000000001d8a7 .LASF7831
     /tmp/cc2IngwB.s:90235  .debug_str:0000000000002082 .LASF7832
     /tmp/cc2IngwB.s:94107  .debug_str:00000000000118e2 .LASF7833
     /tmp/cc2IngwB.s:94109  .debug_str:00000000000118f9 .LASF7834
     /tmp/cc2IngwB.s:94111  .debug_str:0000000000011910 .LASF7835
     /tmp/cc2IngwB.s:108969  .debug_str:000000000004e795 .LASF7836
     /tmp/cc2IngwB.s:94925  .debug_str:0000000000014e9b .LASF7837
     /tmp/cc2IngwB.s:90809  .debug_str:00000000000046d1 .LASF7838
     /tmp/cc2IngwB.s:94115  .debug_str:0000000000011938 .LASF7839
     /tmp/cc2IngwB.s:105581  .debug_str:0000000000040160 .LASF7840
     /tmp/cc2IngwB.s:105583  .debug_str:000000000004017d .LASF7841
     /tmp/cc2IngwB.s:105585  .debug_str:000000000004019a .LASF7842
     /tmp/cc2IngwB.s:105587  .debug_str:00000000000401b7 .LASF7843
     /tmp/cc2IngwB.s:105589  .debug_str:00000000000401d4 .LASF7844
     /tmp/cc2IngwB.s:94965  .debug_str:00000000000150b6 .LASF7845
     /tmp/cc2IngwB.s:94967  .debug_str:00000000000150d2 .LASF7846
     /tmp/cc2IngwB.s:94969  .debug_str:00000000000150ee .LASF7847
     /tmp/cc2IngwB.s:94971  .debug_str:000000000001510a .LASF7848
     /tmp/cc2IngwB.s:94973  .debug_str:0000000000015126 .LASF7849
     /tmp/cc2IngwB.s:101135  .debug_str:000000000002e090 .LASF7850
     /tmp/cc2IngwB.s:101137  .debug_str:000000000002e0a9 .LASF7851
     /tmp/cc2IngwB.s:101139  .debug_str:000000000002e0c2 .LASF7852
     /tmp/cc2IngwB.s:101141  .debug_str:000000000002e0db .LASF7853
     /tmp/cc2IngwB.s:101143  .debug_str:000000000002e0f4 .LASF7854
     /tmp/cc2IngwB.s:102461  .debug_str:0000000000033736 .LASF7855
     /tmp/cc2IngwB.s:104451  .debug_str:000000000003b597 .LASF7856
     /tmp/cc2IngwB.s:94927  .debug_str:0000000000014eb2 .LASF7857
     /tmp/cc2IngwB.s:96067  .debug_str:00000000000197ef .LASF7858
     /tmp/cc2IngwB.s:95003  .debug_str:00000000000152d7 .LASF7859
     /tmp/cc2IngwB.s:95005  .debug_str:00000000000152fa .LASF7860
     /tmp/cc2IngwB.s:95007  .debug_str:000000000001531d .LASF7861
     /tmp/cc2IngwB.s:95009  .debug_str:0000000000015340 .LASF7862
     /tmp/cc2IngwB.s:95011  .debug_str:0000000000015363 .LASF7863
     /tmp/cc2IngwB.s:109235  .debug_str:000000000004f9c9 .LASF7864
     /tmp/cc2IngwB.s:106331  .debug_str:000000000004377e .LASF7865
     /tmp/cc2IngwB.s:107871  .debug_str:0000000000049c0a .LASF7866
     /tmp/cc2IngwB.s:106317  .debug_str:00000000000436a4 .LASF7867
     /tmp/cc2IngwB.s:106319  .debug_str:00000000000436c8 .LASF7868
     /tmp/cc2IngwB.s:107023  .debug_str:000000000004648c .LASF7869
     /tmp/cc2IngwB.s:106323  .debug_str:00000000000436f8 .LASF7870
     /tmp/cc2IngwB.s:106325  .debug_str:000000000004371c .LASF7871
     /tmp/cc2IngwB.s:101615  .debug_str:0000000000030092 .LASF7872
     /tmp/cc2IngwB.s:109141  .debug_str:000000000004f35e .LASF7873
     /tmp/cc2IngwB.s:97779  .debug_str:0000000000020ae2 .LASF7874
     /tmp/cc2IngwB.s:92949  .debug_str:000000000000d7ce .LASF7875
     /tmp/cc2IngwB.s:101033  .debug_str:000000000002d9a5 .LASF7876
     /tmp/cc2IngwB.s:108575  .debug_str:000000000004cb49 .LASF7877
     /tmp/cc2IngwB.s:101425  .debug_str:000000000002f3d4 .LASF7878
     /tmp/cc2IngwB.s:97789  .debug_str:0000000000020bf1 .LASF7879
     /tmp/cc2IngwB.s:91523  .debug_str:00000000000076c4 .LASF7880
     /tmp/cc2IngwB.s:103853  .debug_str:0000000000039219 .LASF7881
     /tmp/cc2IngwB.s:93559  .debug_str:000000000000f929 .LASF7882
     /tmp/cc2IngwB.s:92331  .debug_str:000000000000ad69 .LASF7883
     /tmp/cc2IngwB.s:97039  .debug_str:000000000001d634 .LASF7884
     /tmp/cc2IngwB.s:92163  .debug_str:000000000000a20f .LASF7885
     /tmp/cc2IngwB.s:91619  .debug_str:0000000000007d5d .LASF7886
     /tmp/cc2IngwB.s:100171  .debug_str:000000000002a432 .LASF7887
     /tmp/cc2IngwB.s:92865  .debug_str:000000000000d272 .LASF7888
     /tmp/cc2IngwB.s:99819  .debug_str:0000000000028cce .LASF7889
     /tmp/cc2IngwB.s:97787  .debug_str:0000000000020bdb .LASF7890
     /tmp/cc2IngwB.s:95437  .debug_str:0000000000016f14 .LASF7891
     /tmp/cc2IngwB.s:109453  .debug_str:00000000000507b5 .LASF7892
     /tmp/cc2IngwB.s:93169  .debug_str:000000000000e410 .LASF7893
     /tmp/cc2IngwB.s:108795  .debug_str:000000000004daca .LASF7894
     /tmp/cc2IngwB.s:108797  .debug_str:000000000004dae9 .LASF7895
     /tmp/cc2IngwB.s:108799  .debug_str:000000000004db08 .LASF7896
     /tmp/cc2IngwB.s:102769  .debug_str:0000000000034b75 .LASF7897
     /tmp/cc2IngwB.s:96961  .debug_str:000000000001d190 .LASF7898
     /tmp/cc2IngwB.s:95769  .debug_str:000000000001851a .LASF7899
     /tmp/cc2IngwB.s:108803  .debug_str:000000000004db35 .LASF7900
     /tmp/cc2IngwB.s:103951  .debug_str:0000000000039729 .LASF7901
     /tmp/cc2IngwB.s:103583  .debug_str:000000000003823d .LASF7902
     /tmp/cc2IngwB.s:99487  .debug_str:000000000002765f .LASF7903
     /tmp/cc2IngwB.s:99489  .debug_str:000000000002767c .LASF7904
     /tmp/cc2IngwB.s:99491  .debug_str:0000000000027699 .LASF7905
     /tmp/cc2IngwB.s:102201  .debug_str:0000000000032548 .LASF7906
     /tmp/cc2IngwB.s:99495  .debug_str:00000000000276c5 .LASF7907
     /tmp/cc2IngwB.s:90615  .debug_str:000000000000393c .LASF7908
     /tmp/cc2IngwB.s:108699  .debug_str:000000000004d3b8 .LASF7909
     /tmp/cc2IngwB.s:103149  .debug_str:00000000000366d4 .LASF7910
     /tmp/cc2IngwB.s:101055  .debug_str:000000000002db01 .LASF7911
     /tmp/cc2IngwB.s:102877  .debug_str:000000000003536f .LASF7912
     /tmp/cc2IngwB.s:89853  .debug_str:0000000000000594 .LASF7913
     /tmp/cc2IngwB.s:104511  .debug_str:000000000003b9a0 .LASF7914
     /tmp/cc2IngwB.s:102989  .debug_str:0000000000035b67 .LASF7915
     /tmp/cc2IngwB.s:102991  .debug_str:0000000000035b83 .LASF7916
     /tmp/cc2IngwB.s:93695  .debug_str:0000000000010229 .LASF7917
     /tmp/cc2IngwB.s:102995  .debug_str:0000000000035bad .LASF7918
     /tmp/cc2IngwB.s:109443  .debug_str:0000000000050711 .LASF7919
     /tmp/cc2IngwB.s:100085  .debug_str:0000000000029e71 .LASF7920
     /tmp/cc2IngwB.s:102997  .debug_str:0000000000035bc9 .LASF7921
     /tmp/cc2IngwB.s:100687  .debug_str:000000000002c4f7 .LASF7922
     /tmp/cc2IngwB.s:107765  .debug_str:00000000000494e3 .LASF7923
     /tmp/cc2IngwB.s:91863  .debug_str:0000000000008d98 .LASF7924
     /tmp/cc2IngwB.s:104663  .debug_str:000000000003c452 .LASF7925
     /tmp/cc2IngwB.s:108543  .debug_str:000000000004c937 .LASF7926
     /tmp/cc2IngwB.s:100093  .debug_str:0000000000029ee3 .LASF7927
     /tmp/cc2IngwB.s:105605  .debug_str:00000000000402cd .LASF7928
     /tmp/cc2IngwB.s:105515  .debug_str:000000000003fce6 .LASF7929
     /tmp/cc2IngwB.s:97735  .debug_str:0000000000020797 .LASF7930
     /tmp/cc2IngwB.s:99817  .debug_str:0000000000028cc0 .LASF7931
     /tmp/cc2IngwB.s:95089  .debug_str:0000000000015898 .LASF7932
     /tmp/cc2IngwB.s:100271  .debug_str:000000000002aaf7 .LASF7933
     /tmp/cc2IngwB.s:109409  .debug_str:00000000000504cc .LASF7934
     /tmp/cc2IngwB.s:95635  .debug_str:0000000000017cbe .LASF7935
     /tmp/cc2IngwB.s:102509  .debug_str:0000000000033a72 .LASF7936
     /tmp/cc2IngwB.s:107077  .debug_str:0000000000046840 .LASF7937
     /tmp/cc2IngwB.s:91135  .debug_str:0000000000005ca6 .LASF7938
     /tmp/cc2IngwB.s:103085  .debug_str:0000000000036280 .LASF7939
     /tmp/cc2IngwB.s:92551  .debug_str:000000000000bd32 .LASF7940
     /tmp/cc2IngwB.s:103765  .debug_str:0000000000038d32 .LASF7941
     /tmp/cc2IngwB.s:102341  .debug_str:0000000000032f45 .LASF7942
     /tmp/cc2IngwB.s:99347  .debug_str:0000000000026e3d .LASF7943
     /tmp/cc2IngwB.s:91517  .debug_str:0000000000007667 .LASF7944
     /tmp/cc2IngwB.s:94673  .debug_str:0000000000013f1d .LASF7945
     /tmp/cc2IngwB.s:91591  .debug_str:0000000000007b5c .LASF7946
     /tmp/cc2IngwB.s:96041  .debug_str:00000000000195be .LASF7947
     /tmp/cc2IngwB.s:108679  .debug_str:000000000004d288 .LASF7948
     /tmp/cc2IngwB.s:104593  .debug_str:000000000003bf8f .LASF7949
     /tmp/cc2IngwB.s:99243  .debug_str:000000000002675d .LASF7950
     /tmp/cc2IngwB.s:94483  .debug_str:0000000000013262 .LASF7951
     /tmp/cc2IngwB.s:95571  .debug_str:000000000001778f .LASF7952
     /tmp/cc2IngwB.s:98591  .debug_str:00000000000240bd .LASF7953
     /tmp/cc2IngwB.s:94059  .debug_str:00000000000116a1 .LASF7954
     /tmp/cc2IngwB.s:106573  .debug_str:000000000004482f .LASF7955
     /tmp/cc2IngwB.s:101905  .debug_str:000000000003130a .LASF7956
     /tmp/cc2IngwB.s:97449  .debug_str:000000000001f234 .LASF7957
     /tmp/cc2IngwB.s:90111  .debug_str:00000000000016b3 .LASF7958
     /tmp/cc2IngwB.s:104599  .debug_str:000000000003bfe4 .LASF7959
     /tmp/cc2IngwB.s:97279  .debug_str:000000000001e726 .LASF7960
     /tmp/cc2IngwB.s:92705  .debug_str:000000000000c7ad .LASF7961
     /tmp/cc2IngwB.s:102345  .debug_str:0000000000032faa .LASF7962
     /tmp/cc2IngwB.s:103349  .debug_str:00000000000373e0 .LASF7963
     /tmp/cc2IngwB.s:98321  .debug_str:0000000000022e82 .LASF7964
     /tmp/cc2IngwB.s:100977  .debug_str:000000000002d675 .LASF7965
     /tmp/cc2IngwB.s:95207  .debug_str:000000000001604f .LASF7966
     /tmp/cc2IngwB.s:99873  .debug_str:000000000002908e .LASF7967
     /tmp/cc2IngwB.s:92125  .debug_str:0000000000009fc3 .LASF7968
     /tmp/cc2IngwB.s:93627  .debug_str:000000000000fe5c .LASF7969
     /tmp/cc2IngwB.s:97987  .debug_str:00000000000217eb .LASF7970
     /tmp/cc2IngwB.s:93623  .debug_str:000000000000fe32 .LASF7971
     /tmp/cc2IngwB.s:97985  .debug_str:00000000000217d2 .LASF7972
     /tmp/cc2IngwB.s:96381  .debug_str:000000000001ad1c .LASF7973
     /tmp/cc2IngwB.s:97567  .debug_str:000000000001fb78 .LASF7974
     /tmp/cc2IngwB.s:108065  .debug_str:000000000004a89c .LASF7975
     /tmp/cc2IngwB.s:96141  .debug_str:0000000000019d43 .LASF7976
     /tmp/cc2IngwB.s:94681  .debug_str:0000000000013fac .LASF7977
     /tmp/cc2IngwB.s:93025  .debug_str:000000000000dcad .LASF7978
     /tmp/cc2IngwB.s:94457  .debug_str:000000000001307a .LASF7979
     /tmp/cc2IngwB.s:96955  .debug_str:000000000001d143 .LASF7980
     /tmp/cc2IngwB.s:105715  .debug_str:000000000004097d .LASF7981
     /tmp/cc2IngwB.s:105721  .debug_str:00000000000409ef .LASF7982
     /tmp/cc2IngwB.s:101093  .debug_str:000000000002dd61 .LASF7983
     /tmp/cc2IngwB.s:93145  .debug_str:000000000000e2f1 .LASF7984
     /tmp/cc2IngwB.s:95377  .debug_str:0000000000016a74 .LASF7985
     /tmp/cc2IngwB.s:96429  .debug_str:000000000001b0a4 .LASF7986
     /tmp/cc2IngwB.s:108203  .debug_str:000000000004b158 .LASF7987
     /tmp/cc2IngwB.s:97527  .debug_str:000000000001f887 .LASF7988
     /tmp/cc2IngwB.s:99035  .debug_str:0000000000025c45 .LASF7989
     /tmp/cc2IngwB.s:95313  .debug_str:000000000001663f .LASF7990
     /tmp/cc2IngwB.s:91217  .debug_str:00000000000061aa .LASF7991
     /tmp/cc2IngwB.s:107881  .debug_str:0000000000049cd1 .LASF7992
     /tmp/cc2IngwB.s:94885  .debug_str:0000000000014c90 .LASF7993
     /tmp/cc2IngwB.s:90819  .debug_str:000000000000476e .LASF7994
     /tmp/cc2IngwB.s:93005  .debug_str:000000000000db72 .LASF7995
     /tmp/cc2IngwB.s:99079  .debug_str:0000000000025df1 .LASF7996
     /tmp/cc2IngwB.s:104729  .debug_str:000000000003c94d .LASF7997
     /tmp/cc2IngwB.s:102467  .debug_str:00000000000337ab .LASF7998
     /tmp/cc2IngwB.s:100897  .debug_str:000000000002d1d5 .LASF7999
     /tmp/cc2IngwB.s:104213  .debug_str:000000000003a57c .LASF8000
     /tmp/cc2IngwB.s:91043  .debug_str:000000000000569b .LASF8001
     /tmp/cc2IngwB.s:103179  .debug_str:00000000000368fb .LASF8002
     /tmp/cc2IngwB.s:99957  .debug_str:00000000000296f0 .LASF8003
     /tmp/cc2IngwB.s:95477  .debug_str:00000000000171a3 .LASF8004
     /tmp/cc2IngwB.s:93681  .debug_str:0000000000010167 .LASF8005
     /tmp/cc2IngwB.s:106771  .debug_str:0000000000045510 .LASF8006
     /tmp/cc2IngwB.s:99667  .debug_str:000000000002829d .LASF8007
     /tmp/cc2IngwB.s:103689  .debug_str:00000000000388e1 .LASF8008
     /tmp/cc2IngwB.s:108297  .debug_str:000000000004b7f1 .LASF8009
     /tmp/cc2IngwB.s:104025  .debug_str:0000000000039b07 .LASF8010
     /tmp/cc2IngwB.s:100607  .debug_str:000000000002bf9d .LASF8011
     /tmp/cc2IngwB.s:90999  .debug_str:000000000000536e .LASF8012
     /tmp/cc2IngwB.s:106097  .debug_str:000000000004279e .LASF8013
     /tmp/cc2IngwB.s:106929  .debug_str:0000000000045e0e .LASF8014
     /tmp/cc2IngwB.s:109165  .debug_str:000000000004f4f0 .LASF8015
     /tmp/cc2IngwB.s:97529  .debug_str:000000000001f895 .LASF8016
     /tmp/cc2IngwB.s:99119  .debug_str:0000000000026068 .LASF8017
     /tmp/cc2IngwB.s:90135  .debug_str:000000000000194b .LASF8018
     /tmp/cc2IngwB.s:102711  .debug_str:0000000000034835 .LASF8019
     /tmp/cc2IngwB.s:91049  .debug_str:00000000000056c9 .LASF8020
     /tmp/cc2IngwB.s:90395  .debug_str:0000000000002b1e .LASF8021
     /tmp/cc2IngwB.s:99281  .debug_str:0000000000026970 .LASF8022
     /tmp/cc2IngwB.s:91835  .debug_str:0000000000008bc8 .LASF8023
     /tmp/cc2IngwB.s:95837  .debug_str:00000000000189e1 .LASF8024
     /tmp/cc2IngwB.s:95907  .debug_str:0000000000018d3b .LASF8025
     /tmp/cc2IngwB.s:98779  .debug_str:0000000000024d60 .LASF8026
     /tmp/cc2IngwB.s:100031  .debug_str:0000000000029aa6 .LASF8027
     /tmp/cc2IngwB.s:90567  .debug_str:00000000000035cf .LASF8028
     /tmp/cc2IngwB.s:96417  .debug_str:000000000001aff6 .LASF8029
     /tmp/cc2IngwB.s:105487  .debug_str:000000000003fb4e .LASF8030
     /tmp/cc2IngwB.s:94537  .debug_str:000000000001369d .LASF8031
     /tmp/cc2IngwB.s:106877  .debug_str:0000000000045b00 .LASF8032
     /tmp/cc2IngwB.s:94533  .debug_str:0000000000013673 .LASF8033
     /tmp/cc2IngwB.s:106873  .debug_str:0000000000045aca .LASF8034
     /tmp/cc2IngwB.s:101961  .debug_str:0000000000031643 .LASF8035
     /tmp/cc2IngwB.s:96981  .debug_str:000000000001d317 .LASF8036
     /tmp/cc2IngwB.s:102501  .debug_str:00000000000339e5 .LASF8037
     /tmp/cc2IngwB.s:105409  .debug_str:000000000003f657 .LASF8038
     /tmp/cc2IngwB.s:103971  .debug_str:0000000000039864 .LASF8039
     /tmp/cc2IngwB.s:98005  .debug_str:0000000000021972 .LASF8040
     /tmp/cc2IngwB.s:100201  .debug_str:000000000002a63b .LASF8041
     /tmp/cc2IngwB.s:107635  .debug_str:0000000000048c9b .LASF8042
     /tmp/cc2IngwB.s:103767  .debug_str:0000000000038d41 .LASF8043
     /tmp/cc2IngwB.s:107645  .debug_str:0000000000048d3c .LASF8044
     /tmp/cc2IngwB.s:95013  .debug_str:0000000000015386 .LASF8045
     /tmp/cc2IngwB.s:89937  .debug_str:0000000000000b0a .LASF8046
     /tmp/cc2IngwB.s:107419  .debug_str:0000000000047e84 .LASF8047
     /tmp/cc2IngwB.s:108593  .debug_str:000000000004cc5f .LASF8048
     /tmp/cc2IngwB.s:105327  .debug_str:000000000003f1d4 .LASF8049
     /tmp/cc2IngwB.s:105839  .debug_str:00000000000411a4 .LASF8050
     /tmp/cc2IngwB.s:109311  .debug_str:000000000004fdec .LASF8051
     /tmp/cc2IngwB.s:100659  .debug_str:000000000002c2f7 .LASF8052
     /tmp/cc2IngwB.s:108117  .debug_str:000000000004abb6 .LASF8053
     /tmp/cc2IngwB.s:94635  .debug_str:0000000000013c9d .LASF8054
     /tmp/cc2IngwB.s:91855  .debug_str:0000000000008d3a .LASF8055
     /tmp/cc2IngwB.s:109447  .debug_str:000000000005072f .LASF8056
     /tmp/cc2IngwB.s:90871  .debug_str:0000000000004b4c .LASF8057
     /tmp/cc2IngwB.s:106579  .debug_str:0000000000044883 .LASF8058
     /tmp/cc2IngwB.s:95521  .debug_str:0000000000017409 .LASF8059
     /tmp/cc2IngwB.s:97843  .debug_str:0000000000020f2d .LASF8060
     /tmp/cc2IngwB.s:93099  .debug_str:000000000000dff4 .LASF8061
     /tmp/cc2IngwB.s:92821  .debug_str:000000000000d01a .LASF8062
     /tmp/cc2IngwB.s:99437  .debug_str:00000000000273ce .LASF8063
     /tmp/cc2IngwB.s:101397  .debug_str:000000000002f1e9 .LASF8064
     /tmp/cc2IngwB.s:95275  .debug_str:0000000000016419 .LASF8065
     /tmp/cc2IngwB.s:98185  .debug_str:000000000002253f .LASF8066
     /tmp/cc2IngwB.s:100647  .debug_str:000000000002c1c9 .LASF8067
     /tmp/cc2IngwB.s:92433  .debug_str:000000000000b4af .LASF8068
     /tmp/cc2IngwB.s:100115  .debug_str:000000000002a062 .LASF8069
     /tmp/cc2IngwB.s:99221  .debug_str:0000000000026628 .LASF8070
     /tmp/cc2IngwB.s:99227  .debug_str:0000000000026668 .LASF8071
     /tmp/cc2IngwB.s:91441  .debug_str:0000000000007199 .LASF8072
     /tmp/cc2IngwB.s:101131  .debug_str:000000000002e066 .LASF8073
     /tmp/cc2IngwB.s:95457  .debug_str:0000000000017050 .LASF8074
     /tmp/cc2IngwB.s:105623  .debug_str:0000000000040409 .LASF8075
     /tmp/cc2IngwB.s:90903  .debug_str:0000000000004dc1 .LASF8076
     /tmp/cc2IngwB.s:108439  .debug_str:000000000004c248 .LASF8077
     /tmp/cc2IngwB.s:107689  .debug_str:0000000000049032 .LASF8078
     /tmp/cc2IngwB.s:108053  .debug_str:000000000004a7c2 .LASF8079
     /tmp/cc2IngwB.s:104433  .debug_str:000000000003b45f .LASF8080
     /tmp/cc2IngwB.s:93167  .debug_str:000000000000e3eb .LASF8081
     /tmp/cc2IngwB.s:94827  .debug_str:0000000000014888 .LASF8082
     /tmp/cc2IngwB.s:91119  .debug_str:0000000000005bae .LASF8083
     /tmp/cc2IngwB.s:106383  .debug_str:0000000000043af2 .LASF8084
     /tmp/cc2IngwB.s:100281  .debug_str:000000000002abb5 .LASF8085
     /tmp/cc2IngwB.s:100283  .debug_str:000000000002abc3 .LASF8086
     /tmp/cc2IngwB.s:100285  .debug_str:000000000002abd1 .LASF8087
     /tmp/cc2IngwB.s:100287  .debug_str:000000000002abdf .LASF8088
     /tmp/cc2IngwB.s:100289  .debug_str:000000000002abed .LASF8089
     /tmp/cc2IngwB.s:100291  .debug_str:000000000002abfb .LASF8090
     /tmp/cc2IngwB.s:100293  .debug_str:000000000002ac09 .LASF8091
     /tmp/cc2IngwB.s:100295  .debug_str:000000000002ac17 .LASF8092
     /tmp/cc2IngwB.s:100297  .debug_str:000000000002ac25 .LASF8093
     /tmp/cc2IngwB.s:100299  .debug_str:000000000002ac33 .LASF8094
     /tmp/cc2IngwB.s:108349  .debug_str:000000000004bc22 .LASF8095
     /tmp/cc2IngwB.s:92453  .debug_str:000000000000b67c .LASF8096
     /tmp/cc2IngwB.s:103241  .debug_str:0000000000036cbe .LASF8097
     /tmp/cc2IngwB.s:98809  .debug_str:0000000000024e2e .LASF8098
     /tmp/cc2IngwB.s:90961  .debug_str:000000000000515b .LASF8099
     /tmp/cc2IngwB.s:106543  .debug_str:0000000000044604 .LASF8100
     /tmp/cc2IngwB.s:98195  .debug_str:0000000000022605 .LASF8101
     /tmp/cc2IngwB.s:95353  .debug_str:00000000000168e6 .LASF8102
     /tmp/cc2IngwB.s:106553  .debug_str:0000000000044673 .LASF8103
     /tmp/cc2IngwB.s:90831  .debug_str:000000000000484b .LASF8104
     /tmp/cc2IngwB.s:89865  .debug_str:0000000000000659 .LASF8105
     /tmp/cc2IngwB.s:97391  .debug_str:000000000001ee7c .LASF8106
     /tmp/cc2IngwB.s:93845  .debug_str:0000000000010a1a .LASF8107
     /tmp/cc2IngwB.s:109119  .debug_str:000000000004f1fa .LASF8108
     /tmp/cc2IngwB.s:92583  .debug_str:000000000000bff3 .LASF8109
     /tmp/cc2IngwB.s:100335  .debug_str:000000000002ae64 .LASF8110
     /tmp/cc2IngwB.s:103353  .debug_str:000000000003740c .LASF8111
     /tmp/cc2IngwB.s:107017  .debug_str:0000000000046459 .LASF8112
     /tmp/cc2IngwB.s:107493  .debug_str:000000000004830e .LASF8113
     /tmp/cc2IngwB.s:94455  .debug_str:0000000000013067 .LASF8114
     /tmp/cc2IngwB.s:107019  .debug_str:000000000004646c .LASF8115
     /tmp/cc2IngwB.s:101379  .debug_str:000000000002f0b3 .LASF8116
     /tmp/cc2IngwB.s:95945  .debug_str:0000000000018f54 .LASF8117
     /tmp/cc2IngwB.s:90939  .debug_str:0000000000004fa7 .LASF8118
     /tmp/cc2IngwB.s:107231  .debug_str:00000000000471e4 .LASF8119
     /tmp/cc2IngwB.s:95947  .debug_str:0000000000018f66 .LASF8120
     /tmp/cc2IngwB.s:103283  .debug_str:0000000000036f79 .LASF8121
     /tmp/cc2IngwB.s:101095  .debug_str:000000000002dd6a .LASF8122
     /tmp/cc2IngwB.s:95949  .debug_str:0000000000018f78 .LASF8123
     /tmp/cc2IngwB.s:90943  .debug_str:0000000000004fe5 .LASF8124
     /tmp/cc2IngwB.s:94711  .debug_str:000000000001418c .LASF8125
     /tmp/cc2IngwB.s:98401  .debug_str:00000000000233cf .LASF8126
     /tmp/cc2IngwB.s:103289  .debug_str:0000000000036feb .LASF8127
     /tmp/cc2IngwB.s:108181  .debug_str:000000000004af9f .LASF8128
     /tmp/cc2IngwB.s:94333  .debug_str:000000000001283e .LASF8129
     /tmp/cc2IngwB.s:108489  .debug_str:000000000004c5b0 .LASF8130
     /tmp/cc2IngwB.s:92255  .debug_str:000000000000a86f .LASF8131
     /tmp/cc2IngwB.s:94335  .debug_str:0000000000012850 .LASF8132
     /tmp/cc2IngwB.s:108813  .debug_str:000000000004dbbb .LASF8133
     /tmp/cc2IngwB.s:105835  .debug_str:000000000004113c .LASF8134
     /tmp/cc2IngwB.s:94337  .debug_str:0000000000012862 .LASF8135
     /tmp/cc2IngwB.s:109109  .debug_str:000000000004f173 .LASF8136
     /tmp/cc2IngwB.s:99655  .debug_str:00000000000281d1 .LASF8137
     /tmp/cc2IngwB.s:95291  .debug_str:0000000000016502 .LASF8138
     /tmp/cc2IngwB.s:89921  .debug_str:0000000000000a02 .LASF8139
     /tmp/cc2IngwB.s:101161  .debug_str:000000000002e22f .LASF8140
     /tmp/cc2IngwB.s:106725  .debug_str:0000000000045192 .LASF8141
     /tmp/cc2IngwB.s:96285  .debug_str:000000000001a691 .LASF8142
     /tmp/cc2IngwB.s:102043  .debug_str:0000000000031b58 .LASF8143
     /tmp/cc2IngwB.s:95505  .debug_str:0000000000017331 .LASF8144
     /tmp/cc2IngwB.s:106779  .debug_str:0000000000045585 .LASF8145
     /tmp/cc2IngwB.s:90421  .debug_str:0000000000002cab .LASF8146
     /tmp/cc2IngwB.s:100833  .debug_str:000000000002cd84 .LASF8147
     /tmp/cc2IngwB.s:91911  .debug_str:00000000000090d6 .LASF8148
     /tmp/cc2IngwB.s:103327  .debug_str:0000000000037279 .LASF8149
     /tmp/cc2IngwB.s:95523  .debug_str:000000000001741d .LASF8150
     /tmp/cc2IngwB.s:102177  .debug_str:00000000000323aa .LASF8151
     /tmp/cc2IngwB.s:99215  .debug_str:00000000000265c1 .LASF8152
     /tmp/cc2IngwB.s:106309  .debug_str:00000000000435e0 .LASF8153
     /tmp/cc2IngwB.s:90089  .debug_str:0000000000001537 .LASF8154
     /tmp/cc2IngwB.s:109139  .debug_str:000000000004f33e .LASF8155
     /tmp/cc2IngwB.s:106321  .debug_str:00000000000436ec .LASF8156
     /tmp/cc2IngwB.s:97997  .debug_str:00000000000218c5 .LASF8157
     /tmp/cc2IngwB.s:98627  .debug_str:00000000000242fc .LASF8158
     /tmp/cc2IngwB.s:99219  .debug_str:000000000002661c .LASF8159
     /tmp/cc2IngwB.s:90721  .debug_str:00000000000040cf .LASF8160
     /tmp/cc2IngwB.s:101567  .debug_str:000000000002fd86 .LASF8161
     /tmp/cc2IngwB.s:106891  .debug_str:0000000000045c13 .LASF8162
     /tmp/cc2IngwB.s:108463  .debug_str:000000000004c407 .LASF8163
     /tmp/cc2IngwB.s:91851  .debug_str:0000000000008cf4 .LASF8164
     /tmp/cc2IngwB.s:92383  .debug_str:000000000000b10b .LASF8165
     /tmp/cc2IngwB.s:95227  .debug_str:000000000001617a .LASF8166
     /tmp/cc2IngwB.s:103517  .debug_str:0000000000037e98 .LASF8167
     /tmp/cc2IngwB.s:99981  .debug_str:0000000000029865 .LASF8168
     /tmp/cc2IngwB.s:91795  .debug_str:0000000000008918 .LASF8169
     /tmp/cc2IngwB.s:97511  .debug_str:000000000001f720 .LASF8170
     /tmp/cc2IngwB.s:94929  .debug_str:0000000000014ec9 .LASF8171
     /tmp/cc2IngwB.s:95803  .debug_str:00000000000187bd .LASF8172
     /tmp/cc2IngwB.s:107385  .debug_str:0000000000047ba4 .LASF8173
     /tmp/cc2IngwB.s:90283  .debug_str:00000000000023e4 .LASF8174
     /tmp/cc2IngwB.s:102497  .debug_str:00000000000339a3 .LASF8175
     /tmp/cc2IngwB.s:103693  .debug_str:000000000003892d .LASF8176
     /tmp/cc2IngwB.s:102685  .debug_str:0000000000034665 .LASF8177
     /tmp/cc2IngwB.s:90055  .debug_str:00000000000012eb .LASF8178
     /tmp/cc2IngwB.s:98275  .debug_str:0000000000022b49 .LASF8179
     /tmp/cc2IngwB.s:104175  .debug_str:000000000003a365 .LASF8180
     /tmp/cc2IngwB.s:103609  .debug_str:00000000000383f4 .LASF8181
     /tmp/cc2IngwB.s:107755  .debug_str:0000000000049453 .LASF8182
     /tmp/cc2IngwB.s:107601  .debug_str:0000000000048aa0 .LASF8183
     /tmp/cc2IngwB.s:101637  .debug_str:00000000000301f4 .LASF8184
     /tmp/cc2IngwB.s:96419  .debug_str:000000000001b001 .LASF8185
     /tmp/cc2IngwB.s:108223  .debug_str:000000000004b302 .LASF8186
     /tmp/cc2IngwB.s:98359  .debug_str:0000000000023105 .LASF8187
     /tmp/cc2IngwB.s:107919  .debug_str:0000000000049f2a .LASF8188
     /tmp/cc2IngwB.s:104549  .debug_str:000000000003bcf2 .LASF8189
     /tmp/cc2IngwB.s:101549  .debug_str:000000000002fcb8 .LASF8190
     /tmp/cc2IngwB.s:105001  .debug_str:000000000003dab5 .LASF8191
     /tmp/cc2IngwB.s:90409  .debug_str:0000000000002bde .LASF8192
     /tmp/cc2IngwB.s:98759  .debug_str:0000000000024c1d .LASF8193
     /tmp/cc2IngwB.s:99657  .debug_str:00000000000281f7 .LASF8194
     /tmp/cc2IngwB.s:94473  .debug_str:00000000000131ab .LASF8195
     /tmp/cc2IngwB.s:96105  .debug_str:0000000000019a9b .LASF8196
     /tmp/cc2IngwB.s:100797  .debug_str:000000000002cb5c .LASF8197
     /tmp/cc2IngwB.s:101929  .debug_str:000000000003146f .LASF8198
     /tmp/cc2IngwB.s:95721  .debug_str:0000000000018258 .LASF8199
     /tmp/cc2IngwB.s:107887  .debug_str:0000000000049d11 .LASF8200
     /tmp/cc2IngwB.s:99961  .debug_str:0000000000029721 .LASF8201
     /tmp/cc2IngwB.s:93911  .debug_str:0000000000010d24 .LASF8202
     /tmp/cc2IngwB.s:95565  .debug_str:0000000000017730 .LASF8203
     /tmp/cc2IngwB.s:106171  .debug_str:0000000000042cfc .LASF8204
     /tmp/cc2IngwB.s:90883  .debug_str:0000000000004bfe .LASF8205
     /tmp/cc2IngwB.s:95271  .debug_str:00000000000163aa .LASF8206
     /tmp/cc2IngwB.s:92901  .debug_str:000000000000d523 .LASF8207
     /tmp/cc2IngwB.s:108559  .debug_str:000000000004ca33 .LASF8208
     /tmp/cc2IngwB.s:104359  .debug_str:000000000003af3f .LASF8209
     /tmp/cc2IngwB.s:97725  .debug_str:00000000000206cf .LASF8210
     /tmp/cc2IngwB.s:101675  .debug_str:0000000000030486 .LASF8211
     /tmp/cc2IngwB.s:98633  .debug_str:0000000000024354 .LASF8212
     /tmp/cc2IngwB.s:95211  .debug_str:000000000001607c .LASF8213
     /tmp/cc2IngwB.s:98057  .debug_str:0000000000021ce9 .LASF8214
     /tmp/cc2IngwB.s:101261  .debug_str:000000000002e8a8 .LASF8215
     /tmp/cc2IngwB.s:90037  .debug_str:00000000000011cb .LASF8216
     /tmp/cc2IngwB.s:93119  .debug_str:000000000000e164 .LASF8217
     /tmp/cc2IngwB.s:106991  .debug_str:00000000000462f8 .LASF8218
     /tmp/cc2IngwB.s:96859  .debug_str:000000000001cacd .LASF8219
     /tmp/cc2IngwB.s:104885  .debug_str:000000000003d359 .LASF8220
     /tmp/cc2IngwB.s:94445  .debug_str:0000000000012fa1 .LASF8221
     /tmp/cc2IngwB.s:102493  .debug_str:000000000003396a .LASF8222
     /tmp/cc2IngwB.s:91497  .debug_str:0000000000007591 .LASF8223
     /tmp/cc2IngwB.s:96101  .debug_str:0000000000019a65 .LASF8224
     /tmp/cc2IngwB.s:100675  .debug_str:000000000002c429 .LASF8225
     /tmp/cc2IngwB.s:103237  .debug_str:0000000000036c7d .LASF8226
     /tmp/cc2IngwB.s:100061  .debug_str:0000000000029d09 .LASF8227
     /tmp/cc2IngwB.s:106717  .debug_str:000000000004512f .LASF8228
     /tmp/cc2IngwB.s:94189  .debug_str:0000000000011e77 .LASF8229
     /tmp/cc2IngwB.s:101479  .debug_str:000000000002f74a .LASF8230
     /tmp/cc2IngwB.s:95233  .debug_str:00000000000161d8 .LASF8231
     /tmp/cc2IngwB.s:106549  .debug_str:000000000004465b .LASF8232
     /tmp/cc2IngwB.s:106163  .debug_str:0000000000042c45 .LASF8233
     /tmp/cc2IngwB.s:100351  .debug_str:000000000002af8e .LASF8234
     /tmp/cc2IngwB.s:108417  .debug_str:000000000004c0e5 .LASF8235
     /tmp/cc2IngwB.s:94955  .debug_str:0000000000014ff1 .LASF8236
     /tmp/cc2IngwB.s:95673  .debug_str:0000000000017f6b .LASF8237
     /tmp/cc2IngwB.s:104903  .debug_str:000000000003d485 .LASF8238
     /tmp/cc2IngwB.s:105427  .debug_str:000000000003f75c .LASF8239
     /tmp/cc2IngwB.s:93745  .debug_str:0000000000010445 .LASF8240
     /tmp/cc2IngwB.s:103139  .debug_str:0000000000036652 .LASF8241
     /tmp/cc2IngwB.s:97229  .debug_str:000000000001e3de .LASF8242
     /tmp/cc2IngwB.s:101307  .debug_str:000000000002eba6 .LASF8243
     /tmp/cc2IngwB.s:97675  .debug_str:000000000002033a .LASF8244
     /tmp/cc2IngwB.s:106865  .debug_str:0000000000045a3c .LASF8245
     /tmp/cc2IngwB.s:107225  .debug_str:000000000004715b .LASF8246
     /tmp/cc2IngwB.s:90029  .debug_str:0000000000001132 .LASF8247
     /tmp/cc2IngwB.s:108447  .debug_str:000000000004c2a0 .LASF8248
     /tmp/cc2IngwB.s:109485  .debug_str:0000000000050a01 .LASF8249
     /tmp/cc2IngwB.s:98745  .debug_str:0000000000024b59 .LASF8250
     /tmp/cc2IngwB.s:93337  .debug_str:000000000000ed80 .LASF8251
     /tmp/cc2IngwB.s:106597  .debug_str:0000000000044964 .LASF8252
     /tmp/cc2IngwB.s:93239  .debug_str:000000000000e8b2 .LASF8253
     /tmp/cc2IngwB.s:89821  .debug_str:0000000000000348 .LASF8254
     /tmp/cc2IngwB.s:106587  .debug_str:00000000000448f0 .LASF8255
     /tmp/cc2IngwB.s:96035  .debug_str:000000000001954a .LASF8256
     /tmp/cc2IngwB.s:94087  .debug_str:0000000000011787 .LASF8257
     /tmp/cc2IngwB.s:95599  .debug_str:00000000000179f4 .LASF8258
     /tmp/cc2IngwB.s:98153  .debug_str:0000000000022386 .LASF8259
     /tmp/cc2IngwB.s:95973  .debug_str:000000000001911a .LASF8260
     /tmp/cc2IngwB.s:97219  .debug_str:000000000001e30f .LASF8261
     /tmp/cc2IngwB.s:95309  .debug_str:000000000001661d .LASF8262
     /tmp/cc2IngwB.s:100923  .debug_str:000000000002d375 .LASF8263
     /tmp/cc2IngwB.s:99549  .debug_str:0000000000027a59 .LASF8264
     /tmp/cc2IngwB.s:102019  .debug_str:00000000000319dd .LASF8265
     /tmp/cc2IngwB.s:106429  .debug_str:0000000000043e2e .LASF8266
     /tmp/cc2IngwB.s:100523  .debug_str:000000000002baca .LASF8267
     /tmp/cc2IngwB.s:106943  .debug_str:0000000000045f86 .LASF8268
     /tmp/cc2IngwB.s:99455  .debug_str:00000000000274f9 .LASF8269
     /tmp/cc2IngwB.s:100513  .debug_str:000000000002ba42 .LASF8270
     /tmp/cc2IngwB.s:106937  .debug_str:0000000000045f30 .LASF8271
     /tmp/cc2IngwB.s:103777  .debug_str:0000000000038e0b .LASF8272
     /tmp/cc2IngwB.s:106705  .debug_str:000000000004505b .LASF8273
     /tmp/cc2IngwB.s:95773  .debug_str:000000000001858f .LASF8274
     /tmp/cc2IngwB.s:97125  .debug_str:000000000001dc36 .LASF8275
     /tmp/cc2IngwB.s:106695  .debug_str:0000000000044ffc .LASF8276
     /tmp/cc2IngwB.s:93351  .debug_str:000000000000ee15 .LASF8277
     /tmp/cc2IngwB.s:94601  .debug_str:0000000000013a7f .LASF8278
     /tmp/cc2IngwB.s:89819  .debug_str:0000000000000337 .LASF8279
     /tmp/cc2IngwB.s:89781  .debug_str:0000000000000085 .LASF8280
     /tmp/cc2IngwB.s:108399  .debug_str:000000000004bf8f .LASF8281
     /tmp/cc2IngwB.s:93049  .debug_str:000000000000dddb .LASF8282
     /tmp/cc2IngwB.s:93013  .debug_str:000000000000dbd6 .LASF8283
     /tmp/cc2IngwB.s:109389  .debug_str:0000000000050365 .LASF8284
     /tmp/cc2IngwB.s:96687  .debug_str:000000000001bfe9 .LASF8285
     /tmp/cc2IngwB.s:90915  .debug_str:0000000000004e65 .LASF8286
     /tmp/cc2IngwB.s:95607  .debug_str:0000000000017a87 .LASF8287
     /tmp/cc2IngwB.s:103959  .debug_str:00000000000397a0 .LASF8288
     /tmp/cc2IngwB.s:93033  .debug_str:000000000000dd39 .LASF8289
     /tmp/cc2IngwB.s:104493  .debug_str:000000000003b89c .LASF8290
     /tmp/cc2IngwB.s:93231  .debug_str:000000000000e852 .LASF8291
     /tmp/cc2IngwB.s:93035  .debug_str:000000000000dd42 .LASF8292
     /tmp/cc2IngwB.s:98189  .debug_str:0000000000022596 .LASF8293
     /tmp/cc2IngwB.s:103967  .debug_str:000000000003982a .LASF8294
     /tmp/cc2IngwB.s:93039  .debug_str:000000000000dd5e .LASF8295
     /tmp/cc2IngwB.s:105363  .debug_str:000000000003f41b .LASF8296
     /tmp/cc2IngwB.s:93105  .debug_str:000000000000e043 .LASF8297
     /tmp/cc2IngwB.s:92601  .debug_str:000000000000c117 .LASF8298
     /tmp/cc2IngwB.s:90095  .debug_str:0000000000001576 .LASF8299
     /tmp/cc2IngwB.s:103531  .debug_str:0000000000037fb8 .LASF8300
     /tmp/cc2IngwB.s:90387  .debug_str:0000000000002aac .LASF8301
     /tmp/cc2IngwB.s:99421  .debug_str:00000000000272cf .LASF8302
     /tmp/cc2IngwB.s:103533  .debug_str:0000000000037fd0 .LASF8303
     /tmp/cc2IngwB.s:97943  .debug_str:000000000002152d .LASF8304
     /tmp/cc2IngwB.s:105811  .debug_str:0000000000040f60 .LASF8305
     /tmp/cc2IngwB.s:108879  .debug_str:000000000004e037 .LASF8306
     /tmp/cc2IngwB.s:95821  .debug_str:00000000000188eb .LASF8307
     /tmp/cc2IngwB.s:101783  .debug_str:0000000000030aac .LASF8308
     /tmp/cc2IngwB.s:108881  .debug_str:000000000004e04f .LASF8309
     /tmp/cc2IngwB.s:95823  .debug_str:0000000000018903 .LASF8310
     /tmp/cc2IngwB.s:95423  .debug_str:0000000000016dcf .LASF8311
     /tmp/cc2IngwB.s:95619  .debug_str:0000000000017b64 .LASF8312
     /tmp/cc2IngwB.s:101367  .debug_str:000000000002efb6 .LASF8313
     /tmp/cc2IngwB.s:94033  .debug_str:00000000000114f0 .LASF8314
     /tmp/cc2IngwB.s:94541  .debug_str:00000000000136ca .LASF8315
     /tmp/cc2IngwB.s:101369  .debug_str:000000000002efce .LASF8316
     /tmp/cc2IngwB.s:107555  .debug_str:00000000000487ac .LASF8317
     /tmp/cc2IngwB.s:100025  .debug_str:0000000000029a4e .LASF8318
     /tmp/cc2IngwB.s:106661  .debug_str:0000000000044d87 .LASF8319
     /tmp/cc2IngwB.s:106377  .debug_str:0000000000043a82 .LASF8320
     /tmp/cc2IngwB.s:100027  .debug_str:0000000000029a66 .LASF8321
     /tmp/cc2IngwB.s:106663  .debug_str:0000000000044d9f .LASF8322
     /tmp/cc2IngwB.s:100189  .debug_str:000000000002a546 .LASF8323
     /tmp/cc2IngwB.s:105359  .debug_str:000000000003f3eb .LASF8324
     /tmp/cc2IngwB.s:101765  .debug_str:000000000003096e .LASF8325
     /tmp/cc2IngwB.s:98927  .debug_str:00000000000255da .LASF8326
     /tmp/cc2IngwB.s:105361  .debug_str:000000000003f403 .LASF8327
     /tmp/cc2IngwB.s:92227  .debug_str:000000000000a616 .LASF8328
     /tmp/cc2IngwB.s:92561  .debug_str:000000000000be52 .LASF8329
     /tmp/cc2IngwB.s:90979  .debug_str:000000000000523e .LASF8330
     /tmp/cc2IngwB.s:97791  .debug_str:0000000000020c19 .LASF8331
     /tmp/cc2IngwB.s:91249  .debug_str:00000000000063c7 .LASF8332
     /tmp/cc2IngwB.s:90981  .debug_str:0000000000005256 .LASF8333
     /tmp/cc2IngwB.s:97793  .debug_str:0000000000020c31 .LASF8334
     /tmp/cc2IngwB.s:104849  .debug_str:000000000003d118 .LASF8335
     /tmp/cc2IngwB.s:96455  .debug_str:000000000001b1aa .LASF8336
     /tmp/cc2IngwB.s:103193  .debug_str:00000000000369fc .LASF8337
     /tmp/cc2IngwB.s:100103  .debug_str:0000000000029f69 .LASF8338
     /tmp/cc2IngwB.s:96457  .debug_str:000000000001b1c2 .LASF8339
     /tmp/cc2IngwB.s:103195  .debug_str:0000000000036a14 .LASF8340
     /tmp/cc2IngwB.s:97385  .debug_str:000000000001ee06 .LASF8341
     /tmp/cc2IngwB.s:101933  .debug_str:000000000003148b .LASF8342
     /tmp/cc2IngwB.s:108525  .debug_str:000000000004c833 .LASF8343
     /tmp/cc2IngwB.s:96147  .debug_str:0000000000019db6 .LASF8344
     /tmp/cc2IngwB.s:101935  .debug_str:00000000000314a3 .LASF8345
     /tmp/cc2IngwB.s:108527  .debug_str:000000000004c84b .LASF8346
     /tmp/cc2IngwB.s:89887  .debug_str:00000000000007a3 .LASF8347
     /tmp/cc2IngwB.s:107273  .debug_str:0000000000047440 .LASF8348
     /tmp/cc2IngwB.s:94205  .debug_str:0000000000011fb7 .LASF8349
     /tmp/cc2IngwB.s:108241  .debug_str:000000000004b40b .LASF8350
     /tmp/cc2IngwB.s:107275  .debug_str:0000000000047458 .LASF8351
     /tmp/cc2IngwB.s:94207  .debug_str:0000000000011fcf .LASF8352
     /tmp/cc2IngwB.s:102111  .debug_str:0000000000031fd0 .LASF8353
     /tmp/cc2IngwB.s:92831  .debug_str:000000000000d061 .LASF8354
     /tmp/cc2IngwB.s:99683  .debug_str:00000000000283ba .LASF8355
     /tmp/cc2IngwB.s:100953  .debug_str:000000000002d50d .LASF8356
     /tmp/cc2IngwB.s:92833  .debug_str:000000000000d079 .LASF8357
     /tmp/cc2IngwB.s:96573  .debug_str:000000000001b8c9 .LASF8358
     /tmp/cc2IngwB.s:94569  .debug_str:00000000000138d4 .LASF8359
     /tmp/cc2IngwB.s:109009  .debug_str:000000000004ea96 .LASF8360
     /tmp/cc2IngwB.s:94385  .debug_str:0000000000012b71 .LASF8361
     /tmp/cc2IngwB.s:96861  .debug_str:000000000001cae5 .LASF8362
     /tmp/cc2IngwB.s:109011  .debug_str:000000000004eaaf .LASF8363
     /tmp/cc2IngwB.s:94387  .debug_str:0000000000012b8a .LASF8364
     /tmp/cc2IngwB.s:90529  .debug_str:0000000000003412 .LASF8365
     /tmp/cc2IngwB.s:94675  .debug_str:0000000000013f39 .LASF8366
     /tmp/cc2IngwB.s:104485  .debug_str:000000000003b804 .LASF8367
     /tmp/cc2IngwB.s:109103  .debug_str:000000000004f115 .LASF8368
     /tmp/cc2IngwB.s:94677  .debug_str:0000000000013f52 .LASF8369
     /tmp/cc2IngwB.s:99849  .debug_str:0000000000028efc .LASF8370
     /tmp/cc2IngwB.s:102953  .debug_str:00000000000358dc .LASF8371
     /tmp/cc2IngwB.s:98133  .debug_str:00000000000222b4 .LASF8372
     /tmp/cc2IngwB.s:105213  .debug_str:000000000003ea44 .LASF8373
     /tmp/cc2IngwB.s:101761  .debug_str:0000000000030937 .LASF8374
     /tmp/cc2IngwB.s:98135  .debug_str:00000000000222cd .LASF8375
     /tmp/cc2IngwB.s:105215  .debug_str:000000000003ea5d .LASF8376
     /tmp/cc2IngwB.s:95389  .debug_str:0000000000016b89 .LASF8377
     /tmp/cc2IngwB.s:108893  .debug_str:000000000004e10d .LASF8378
     /tmp/cc2IngwB.s:90811  .debug_str:0000000000004702 .LASF8379
     /tmp/cc2IngwB.s:93999  .debug_str:0000000000011244 .LASF8380
     /tmp/cc2IngwB.s:105497  .debug_str:000000000003fbe4 .LASF8381
     /tmp/cc2IngwB.s:90813  .debug_str:000000000000471b .LASF8382
     /tmp/cc2IngwB.s:107525  .debug_str:000000000004855f .LASF8383
     /tmp/cc2IngwB.s:91121  .debug_str:0000000000005bb9 .LASF8384
     /tmp/cc2IngwB.s:96287  .debug_str:000000000001a6a2 .LASF8385
     /tmp/cc2IngwB.s:106345  .debug_str:00000000000438a5 .LASF8386
     /tmp/cc2IngwB.s:91123  .debug_str:0000000000005bd2 .LASF8387
     /tmp/cc2IngwB.s:104973  .debug_str:000000000003d8db .LASF8388
     /tmp/cc2IngwB.s:100159  .debug_str:000000000002a349 .LASF8389
     /tmp/cc2IngwB.s:96617  .debug_str:000000000001bb54 .LASF8390
     /tmp/cc2IngwB.s:101791  .debug_str:0000000000030b47 .LASF8391
     /tmp/cc2IngwB.s:98897  .debug_str:0000000000025418 .LASF8392
     /tmp/cc2IngwB.s:90993  .debug_str:0000000000005327 .LASF8393
     /tmp/cc2IngwB.s:101793  .debug_str:0000000000030b60 .LASF8394
     /tmp/cc2IngwB.s:92531  .debug_str:000000000000bba8 .LASF8395
     /tmp/cc2IngwB.s:103287  .debug_str:0000000000036fcd .LASF8396
     /tmp/cc2IngwB.s:95527  .debug_str:000000000001743b .LASF8397
     /tmp/cc2IngwB.s:101807  .debug_str:0000000000030c84 .LASF8398
     /tmp/cc2IngwB.s:105727  .debug_str:0000000000040a57 .LASF8399
     /tmp/cc2IngwB.s:91991  .debug_str:0000000000009641 .LASF8400
     /tmp/cc2IngwB.s:102163  .debug_str:00000000000322bf .LASF8401
     /tmp/cc2IngwB.s:102755  .debug_str:0000000000034ad2 .LASF8402
     /tmp/cc2IngwB.s:94247  .debug_str:000000000001227f .LASF8403
     /tmp/cc2IngwB.s:99825  .debug_str:0000000000028d7e .LASF8404
     /tmp/cc2IngwB.s:102757  .debug_str:0000000000034adf .LASF8405
     /tmp/cc2IngwB.s:91997  .debug_str:0000000000009685 .LASF8406
     /tmp/cc2IngwB.s:103135  .debug_str:0000000000036619 .LASF8407
     /tmp/cc2IngwB.s:101283  .debug_str:000000000002ea26 .LASF8408
     /tmp/cc2IngwB.s:91439  .debug_str:000000000000718d .LASF8409
     /tmp/cc2IngwB.s:96985  .debug_str:000000000001d332 .LASF8410
     /tmp/cc2IngwB.s:105373  .debug_str:000000000003f476 .LASF8411
     /tmp/cc2IngwB.s:96699  .debug_str:000000000001c08d .LASF8412
     /tmp/cc2IngwB.s:108533  .debug_str:000000000004c8c0 .LASF8413
     /tmp/cc2IngwB.s:94165  .debug_str:0000000000011cce .LASF8414
     /tmp/cc2IngwB.s:104629  .debug_str:000000000003c1e4 .LASF8415
     /tmp/cc2IngwB.s:94563  .debug_str:000000000001386a .LASF8416
     /tmp/cc2IngwB.s:107939  .debug_str:000000000004a043 .LASF8417
     /tmp/cc2IngwB.s:96919  .debug_str:000000000001cef5 .LASF8418
     /tmp/cc2IngwB.s:89911  .debug_str:0000000000000957 .LASF8419
     /tmp/cc2IngwB.s:97907  .debug_str:00000000000212b8 .LASF8420
     /tmp/cc2IngwB.s:102215  .debug_str:0000000000032616 .LASF8421
     /tmp/cc2IngwB.s:107051  .debug_str:0000000000046676 .LASF8422
     /tmp/cc2IngwB.s:95643  .debug_str:0000000000017d51 .LASF8423
     /tmp/cc2IngwB.s:100021  .debug_str:0000000000029a1f .LASF8424
     /tmp/cc2IngwB.s:105007  .debug_str:000000000003db00 .LASF8425
     /tmp/cc2IngwB.s:106495  .debug_str:0000000000044306 .LASF8426
     /tmp/cc2IngwB.s:102981  .debug_str:0000000000035ad0 .LASF8427
     /tmp/cc2IngwB.s:103339  .debug_str:0000000000037349 .LASF8428
     /tmp/cc2IngwB.s:92481  .debug_str:000000000000b82b .LASF8429
     /tmp/cc2IngwB.s:104513  .debug_str:000000000003b9c7 .LASF8430
     /tmp/cc2IngwB.s:97141  .debug_str:000000000001dd81 .LASF8431
     /tmp/cc2IngwB.s:106005  .debug_str:0000000000041f84 .LASF8432
     /tmp/cc2IngwB.s:109169  .debug_str:000000000004f50d .LASF8433
     /tmp/cc2IngwB.s:106095  .debug_str:0000000000042779 .LASF8434
     /tmp/cc2IngwB.s:94807  .debug_str:000000000001477f .LASF8435
     /tmp/cc2IngwB.s:101041  .debug_str:000000000002da18 .LASF8436
     /tmp/cc2IngwB.s:100959  .debug_str:000000000002d555 .LASF8437
     /tmp/cc2IngwB.s:105481  .debug_str:000000000003fb13 .LASF8438
     /tmp/cc2IngwB.s:101277  .debug_str:000000000002e9c3 .LASF8439
     /tmp/cc2IngwB.s:102921  .debug_str:0000000000035652 .LASF8440
     /tmp/cc2IngwB.s:90577  .debug_str:000000000000367b .LASF8441
     /tmp/cc2IngwB.s:101057  .debug_str:000000000002db15 .LASF8442
     /tmp/cc2IngwB.s:100875  .debug_str:000000000002d026 .LASF8443
     /tmp/cc2IngwB.s:97323  .debug_str:000000000001ea21 .LASF8444
     /tmp/cc2IngwB.s:100481  .debug_str:000000000002b769 .LASF8445
     /tmp/cc2IngwB.s:89939  .debug_str:0000000000000b1b .LASF8446
     /tmp/cc2IngwB.s:99255  .debug_str:0000000000026810 .LASF8447
     /tmp/cc2IngwB.s:102723  .debug_str:00000000000348d2 .LASF8448
     /tmp/cc2IngwB.s:99713  .debug_str:0000000000028589 .LASF8449
     /tmp/cc2IngwB.s:96517  .debug_str:000000000001b5b1 .LASF8450
     /tmp/cc2IngwB.s:109487  .debug_str:0000000000050a17 .LASF8451
     /tmp/cc2IngwB.s:97769  .debug_str:00000000000209fc .LASF8452
     /tmp/cc2IngwB.s:92333  .debug_str:000000000000ad80 .LASF8453
     /tmp/cc2IngwB.s:102863  .debug_str:00000000000352e2 .LASF8454
     /tmp/cc2IngwB.s:109491  .debug_str:0000000000050a41 .LASF8455
     /tmp/cc2IngwB.s:91877  .debug_str:0000000000008e3c .LASF8456
     /tmp/cc2IngwB.s:91633  .debug_str:0000000000007e58 .LASF8457
     /tmp/cc2IngwB.s:98215  .debug_str:0000000000022843 .LASF8458
     /tmp/cc2IngwB.s:108027  .debug_str:000000000004a693 .LASF8459
     /tmp/cc2IngwB.s:93501  .debug_str:000000000000f59b .LASF8460
     /tmp/cc2IngwB.s:102127  .debug_str:00000000000320cd .LASF8461
     /tmp/cc2IngwB.s:97631  .debug_str:000000000001ff78 .LASF8462
     /tmp/cc2IngwB.s:91645  .debug_str:0000000000007f03 .LASF8463
     /tmp/cc2IngwB.s:96231  .debug_str:000000000001a31b .LASF8464
     /tmp/cc2IngwB.s:94719  .debug_str:0000000000014205 .LASF8465
     /tmp/cc2IngwB.s:108371  .debug_str:000000000004bd97 .LASF8466
     /tmp/cc2IngwB.s:104411  .debug_str:000000000003b2b3 .LASF8467
     /tmp/cc2IngwB.s:109445  .debug_str:0000000000050727 .LASF8468
     /tmp/cc2IngwB.s:93093  .debug_str:000000000000dfa3 .LASF8469
     /tmp/cc2IngwB.s:90777  .debug_str:0000000000004525 .LASF8470
     /tmp/cc2IngwB.s:90859  .debug_str:0000000000004a8a .LASF8471
     /tmp/cc2IngwB.s:94427  .debug_str:0000000000012e51 .LASF8472
     /tmp/cc2IngwB.s:107981  .debug_str:000000000004a322 .LASF8473
     /tmp/cc2IngwB.s:93667  .debug_str:00000000000100b1 .LASF8474
     /tmp/cc2IngwB.s:93163  .debug_str:000000000000e3c3 .LASF8475
     /tmp/cc2IngwB.s:95775  .debug_str:0000000000018599 .LASF8476
     /tmp/cc2IngwB.s:93655  .debug_str:000000000000ff96 .LASF8477
     /tmp/cc2IngwB.s:104141  .debug_str:000000000003a1a8 .LASF8478
     /tmp/cc2IngwB.s:98149  .debug_str:0000000000022356 .LASF8479
     /tmp/cc2IngwB.s:103709  .debug_str:0000000000038a86 .LASF8480
     /tmp/cc2IngwB.s:107149  .debug_str:0000000000046d0f .LASF8481
     /tmp/cc2IngwB.s:97065  .debug_str:000000000001d81e .LASF8482
     /tmp/cc2IngwB.s:89935  .debug_str:0000000000000b02 .LASF8483
     /tmp/cc2IngwB.s:109167  .debug_str:000000000004f505 .LASF8484
     /tmp/cc2IngwB.s:104189  .debug_str:000000000003a455 .LASF8485
     /tmp/cc2IngwB.s:97853  .debug_str:0000000000020fce .LASF8486
     /tmp/cc2IngwB.s:94595  .debug_str:0000000000013a11 .LASF8487
     /tmp/cc2IngwB.s:101753  .debug_str:00000000000308e3 .LASF8488
     /tmp/cc2IngwB.s:94119  .debug_str:0000000000011969 .LASF8489
     /tmp/cc2IngwB.s:104567  .debug_str:000000000003bdd9 .LASF8490
     /tmp/cc2IngwB.s:101625  .debug_str:0000000000030120 .LASF8491
     /tmp/cc2IngwB.s:98449  .debug_str:00000000000236e6 .LASF8492
     /tmp/cc2IngwB.s:101995  .debug_str:0000000000031874 .LASF8493
     /tmp/cc2IngwB.s:91185  .debug_str:0000000000005f83 .LASF8494
     /tmp/cc2IngwB.s:107505  .debug_str:00000000000483eb .LASF8495
     /tmp/cc2IngwB.s:92581  .debug_str:000000000000bfea .LASF8496
     /tmp/cc2IngwB.s:102959  .debug_str:000000000003595e .LASF8497
     /tmp/cc2IngwB.s:94201  .debug_str:0000000000011f77 .LASF8498
     /tmp/cc2IngwB.s:103757  .debug_str:0000000000038c8d .LASF8499
     /tmp/cc2IngwB.s:89993  .debug_str:0000000000000e92 .LASF8500
     /tmp/cc2IngwB.s:103827  .debug_str:0000000000039036 .LASF8501
     /tmp/cc2IngwB.s:107255  .debug_str:000000000004731c .LASF8502
     /tmp/cc2IngwB.s:107611  .debug_str:0000000000048b3e .LASF8503
     /tmp/cc2IngwB.s:92421  .debug_str:000000000000b42f .LASF8504
     /tmp/cc2IngwB.s:102947  .debug_str:0000000000035883 .LASF8505
     /tmp/cc2IngwB.s:98041  .debug_str:0000000000021bec .LASF8506
     /tmp/cc2IngwB.s:97285  .debug_str:000000000001e775 .LASF8507
     /tmp/cc2IngwB.s:106999  .debug_str:0000000000046373 .LASF8508
     /tmp/cc2IngwB.s:89967  .debug_str:0000000000000ca1 .LASF8509
     /tmp/cc2IngwB.s:99175  .debug_str:000000000002629a .LASF8510
     /tmp/cc2IngwB.s:104479  .debug_str:000000000003b79d .LASF8511
     /tmp/cc2IngwB.s:108933  .debug_str:000000000004e482 .LASF8512
     /tmp/cc2IngwB.s:104031  .debug_str:0000000000039b60 .LASF8513
     /tmp/cc2IngwB.s:96765  .debug_str:000000000001c4a6 .LASF8514
     /tmp/cc2IngwB.s:97393  .debug_str:000000000001ee9b .LASF8515
     /tmp/cc2IngwB.s:104607  .debug_str:000000000003c05a .LASF8516
     /tmp/cc2IngwB.s:105833  .debug_str:000000000004112a .LASF8517
     /tmp/cc2IngwB.s:98821  .debug_str:0000000000024fce .LASF8518
     /tmp/cc2IngwB.s:92655  .debug_str:000000000000c46f .LASF8519
     /tmp/cc2IngwB.s:102283  .debug_str:0000000000032b89 .LASF8520
     /tmp/cc2IngwB.s:99567  .debug_str:0000000000027be4 .LASF8521
     /tmp/cc2IngwB.s:97687  .debug_str:0000000000020431 .LASF8522
     /tmp/cc2IngwB.s:100487  .debug_str:000000000002b7d5 .LASF8523
     /tmp/cc2IngwB.s:100771  .debug_str:000000000002c9d8 .LASF8524
     /tmp/cc2IngwB.s:108653  .debug_str:000000000004d0b1 .LASF8525
     /tmp/cc2IngwB.s:104579  .debug_str:000000000003beb1 .LASF8526
     /tmp/cc2IngwB.s:105793  .debug_str:0000000000040e31 .LASF8527
     /tmp/cc2IngwB.s:97441  .debug_str:000000000001f19e .LASF8528
     /tmp/cc2IngwB.s:106025  .debug_str:00000000000420a7 .LASF8529
     /tmp/cc2IngwB.s:107651  .debug_str:0000000000048dac .LASF8530
     /tmp/cc2IngwB.s:93229  .debug_str:000000000000e840 .LASF8531
     /tmp/cc2IngwB.s:106813  .debug_str:0000000000045761 .LASF8532
     /tmp/cc2IngwB.s:91577  .debug_str:0000000000007a85 .LASF8533
     /tmp/cc2IngwB.s:103421  .debug_str:0000000000037887 .LASF8534
     /tmp/cc2IngwB.s:106879  .debug_str:0000000000045b17 .LASF8535
     /tmp/cc2IngwB.s:103259  .debug_str:0000000000036db5 .LASF8536
     /tmp/cc2IngwB.s:92343  .debug_str:000000000000ade2 .LASF8537
     /tmp/cc2IngwB.s:102871  .debug_str:0000000000035353 .LASF8538
     /tmp/cc2IngwB.s:99003  .debug_str:00000000000259cc .LASF8539
     /tmp/cc2IngwB.s:92499  .debug_str:000000000000b9b9 .LASF8540
     /tmp/cc2IngwB.s:103033  .debug_str:0000000000035efb .LASF8541
     /tmp/cc2IngwB.s:96779  .debug_str:000000000001c56d .LASF8542
     /tmp/cc2IngwB.s:95701  .debug_str:000000000001814b .LASF8543
     /tmp/cc2IngwB.s:95507  .debug_str:0000000000017347 .LASF8544
     /tmp/cc2IngwB.s:99401  .debug_str:000000000002719c .LASF8545
     /tmp/cc2IngwB.s:91051  .debug_str:00000000000056dc .LASF8546
     /tmp/cc2IngwB.s:91637  .debug_str:0000000000007e80 .LASF8547
     /tmp/cc2IngwB.s:98639  .debug_str:00000000000243a2 .LASF8548
     /tmp/cc2IngwB.s:103129  .debug_str:00000000000365cd .LASF8549
     /tmp/cc2IngwB.s:90043  .debug_str:0000000000001241 .LASF8550
     /tmp/cc2IngwB.s:99313  .debug_str:0000000000026b62 .LASF8551
     /tmp/cc2IngwB.s:104219  .debug_str:000000000003a5e0 .LASF8552
     /tmp/cc2IngwB.s:90857  .debug_str:0000000000004a7e .LASF8553
     /tmp/cc2IngwB.s:100695  .debug_str:000000000002c5a5 .LASF8554
     /tmp/cc2IngwB.s:102129  .debug_str:00000000000320f1 .LASF8555
     /tmp/cc2IngwB.s:99299  .debug_str:0000000000026a8e .LASF8556
     /tmp/cc2IngwB.s:96173  .debug_str:0000000000019f8b .LASF8557
     /tmp/cc2IngwB.s:97001  .debug_str:000000000001d3e6 .LASF8558
     /tmp/cc2IngwB.s:103771  .debug_str:0000000000038d79 .LASF8559
     /tmp/cc2IngwB.s:106917  .debug_str:0000000000045d64 .LASF8560
     /tmp/cc2IngwB.s:102709  .debug_str:0000000000034825 .LASF8561
     /tmp/cc2IngwB.s:109347  .debug_str:000000000005006a .LASF8562
     /tmp/cc2IngwB.s:98917  .debug_str:000000000002555d .LASF8563
     /tmp/cc2IngwB.s:95501  .debug_str:0000000000017316 .LASF8564
     /tmp/cc2IngwB.s:97897  .debug_str:0000000000021221 .LASF8565
     /tmp/cc2IngwB.s:103585  .debug_str:0000000000038273 .LASF8566
     /tmp/cc2IngwB.s:100311  .debug_str:000000000002ad05 .LASF8567
     /tmp/cc2IngwB.s:107237  .debug_str:0000000000047267 .LASF8568
     /tmp/cc2IngwB.s:101461  .debug_str:000000000002f594 .LASF8569
     /tmp/cc2IngwB.s:100313  .debug_str:000000000002ad18 .LASF8570
     /tmp/cc2IngwB.s:107239  .debug_str:000000000004727a .LASF8571
     /tmp/cc2IngwB.s:96827  .debug_str:000000000001c8d5 .LASF8572
     /tmp/cc2IngwB.s:100315  .debug_str:000000000002ad2b .LASF8573
     /tmp/cc2IngwB.s:99645  .debug_str:0000000000028156 .LASF8574
     /tmp/cc2IngwB.s:108561  .debug_str:000000000004ca40 .LASF8575
     /tmp/cc2IngwB.s:99711  .debug_str:0000000000028576 .LASF8576
     /tmp/cc2IngwB.s:107243  .debug_str:000000000004729a .LASF8577
     /tmp/cc2IngwB.s:102435  .debug_str:000000000003357c .LASF8578
     /tmp/cc2IngwB.s:100319  .debug_str:000000000002ad5f .LASF8579
     /tmp/cc2IngwB.s:107245  .debug_str:00000000000472ad .LASF8580
     /tmp/cc2IngwB.s:96073  .debug_str:000000000001985a .LASF8581
     /tmp/cc2IngwB.s:100321  .debug_str:000000000002ad72 .LASF8582
     /tmp/cc2IngwB.s:107247  .debug_str:00000000000472c0 .LASF8583
     /tmp/cc2IngwB.s:89811  .debug_str:00000000000002a9 .LASF8584
     /tmp/cc2IngwB.s:100323  .debug_str:000000000002ad85 .LASF8585
     /tmp/cc2IngwB.s:107249  .debug_str:00000000000472d3 .LASF8586
     /tmp/cc2IngwB.s:103381  .debug_str:000000000003759c .LASF8587
     /tmp/cc2IngwB.s:100325  .debug_str:000000000002ad98 .LASF8588
     /tmp/cc2IngwB.s:107251  .debug_str:00000000000472e6 .LASF8589
     /tmp/cc2IngwB.s:97127  .debug_str:000000000001dc54 .LASF8590
     /tmp/cc2IngwB.s:100581  .debug_str:000000000002be98 .LASF8591
     /tmp/cc2IngwB.s:97367  .debug_str:000000000001ed4b .LASF8592
     /tmp/cc2IngwB.s:103385  .debug_str:00000000000375e4 .LASF8593
     /tmp/cc2IngwB.s:106895  .debug_str:0000000000045c3f .LASF8594
     /tmp/cc2IngwB.s:97369  .debug_str:000000000001ed5e .LASF8595
     /tmp/cc2IngwB.s:101273  .debug_str:000000000002e966 .LASF8596
     /tmp/cc2IngwB.s:90295  .debug_str:00000000000024ba .LASF8597
     /tmp/cc2IngwB.s:97371  .debug_str:000000000001ed71 .LASF8598
     /tmp/cc2IngwB.s:94901  .debug_str:0000000000014d66 .LASF8599
     /tmp/cc2IngwB.s:90297  .debug_str:00000000000024cd .LASF8600
     /tmp/cc2IngwB.s:97373  .debug_str:000000000001ed84 .LASF8601
     /tmp/cc2IngwB.s:108363  .debug_str:000000000004bd1e .LASF8602
     /tmp/cc2IngwB.s:106903  .debug_str:0000000000045c8b .LASF8603
     /tmp/cc2IngwB.s:97375  .debug_str:000000000001ed97 .LASF8604
     /tmp/cc2IngwB.s:96847  .debug_str:000000000001c9e8 .LASF8605
     /tmp/cc2IngwB.s:90301  .debug_str:00000000000024fa .LASF8606
     /tmp/cc2IngwB.s:97377  .debug_str:000000000001edaa .LASF8607
     /tmp/cc2IngwB.s:96179  .debug_str:000000000001a001 .LASF8608
     /tmp/cc2IngwB.s:90303  .debug_str:000000000000250d .LASF8609
     /tmp/cc2IngwB.s:97379  .debug_str:000000000001edbd .LASF8610
     /tmp/cc2IngwB.s:109371  .debug_str:0000000000050224 .LASF8611
     /tmp/cc2IngwB.s:106913  .debug_str:0000000000045d35 .LASF8612
     /tmp/cc2IngwB.s:97381  .debug_str:000000000001edd0 .LASF8613
     /tmp/cc2IngwB.s:103185  .debug_str:0000000000036944 .LASF8614
     /tmp/cc2IngwB.s:108277  .debug_str:000000000004b69f .LASF8615
     /tmp/cc2IngwB.s:100227  .debug_str:000000000002a83f .LASF8616
     /tmp/cc2IngwB.s:108393  .debug_str:000000000004bf3c .LASF8617
     /tmp/cc2IngwB.s:98311  .debug_str:0000000000022dc8 .LASF8618
     /tmp/cc2IngwB.s:90065  .debug_str:0000000000001391 .LASF8619
     /tmp/cc2IngwB.s:94727  .debug_str:0000000000014251 .LASF8620
     /tmp/cc2IngwB.s:97099  .debug_str:000000000001da3c .LASF8621
     /tmp/cc2IngwB.s:102347  .debug_str:0000000000032fbb .LASF8622
     /tmp/cc2IngwB.s:101197  .debug_str:000000000002e478 .LASF8623
     /tmp/cc2IngwB.s:98839  .debug_str:00000000000250f0 .LASF8624
     /tmp/cc2IngwB.s:104315  .debug_str:000000000003ac40 .LASF8625
     /tmp/cc2IngwB.s:108755  .debug_str:000000000004d813 .LASF8626
     /tmp/cc2IngwB.s:99165  .debug_str:0000000000026241 .LASF8627
     /tmp/cc2IngwB.s:95951  .debug_str:0000000000018f8a .LASF8628
     /tmp/cc2IngwB.s:91711  .debug_str:000000000000830e .LASF8629
     /tmp/cc2IngwB.s:102909  .debug_str:000000000003558b .LASF8630
     /tmp/cc2IngwB.s:109303  .debug_str:000000000004fd5d .LASF8631
     /tmp/cc2IngwB.s:92107  .debug_str:0000000000009ea8 .LASF8632
     /tmp/cc2IngwB.s:103473  .debug_str:0000000000037b95 .LASF8633
     /tmp/cc2IngwB.s:102277  .debug_str:0000000000032b08 .LASF8634
     /tmp/cc2IngwB.s:91151  .debug_str:0000000000005d75 .LASF8635
     /tmp/cc2IngwB.s:105463  .debug_str:000000000003f9c5 .LASF8636
     /tmp/cc2IngwB.s:101557  .debug_str:000000000002fd04 .LASF8637
     /tmp/cc2IngwB.s:94235  .debug_str:000000000001217c .LASF8638
     /tmp/cc2IngwB.s:103175  .debug_str:00000000000368de .LASF8639
     /tmp/cc2IngwB.s:106627  .debug_str:0000000000044b43 .LASF8640
     /tmp/cc2IngwB.s:97181  .debug_str:000000000001e093 .LASF8641
     /tmp/cc2IngwB.s:108591  .debug_str:000000000004cc58 .LASF8642
     /tmp/cc2IngwB.s:104631  .debug_str:000000000003c1ff .LASF8643
     /tmp/cc2IngwB.s:90945  .debug_str:0000000000004ff7 .LASF8644
     /tmp/cc2IngwB.s:106861  .debug_str:0000000000045a23 .LASF8645
     /tmp/cc2IngwB.s:90965  .debug_str:0000000000005181 .LASF8646
     /tmp/cc2IngwB.s:106407  .debug_str:0000000000043cf3 .LASF8647
     /tmp/cc2IngwB.s:103567  .debug_str:0000000000038128 .LASF8648
     /tmp/cc2IngwB.s:107035  .debug_str:000000000004657d .LASF8649
     /tmp/cc2IngwB.s:100737  .debug_str:000000000002c834 .LASF8650
     /tmp/cc2IngwB.s:94381  .debug_str:0000000000012b3b .LASF8651
     /tmp/cc2IngwB.s:107465  .debug_str:0000000000048132 .LASF8652
     /tmp/cc2IngwB.s:98483  .debug_str:00000000000238e9 .LASF8653
     /tmp/cc2IngwB.s:93827  .debug_str:00000000000108ee .LASF8654
     /tmp/cc2IngwB.s:92547  .debug_str:000000000000bcfc .LASF8655
     /tmp/cc2IngwB.s:107987  .debug_str:000000000004a370 .LASF8656
     /tmp/cc2IngwB.s:108773  .debug_str:000000000004d979 .LASF8657
     /tmp/cc2IngwB.s:92197  .debug_str:000000000000a487 .LASF8658
     /tmp/cc2IngwB.s:92987  .debug_str:000000000000da36 .LASF8659
     /tmp/cc2IngwB.s:98025  .debug_str:0000000000021b07 .LASF8660
     /tmp/cc2IngwB.s:97809  .debug_str:0000000000020cfe .LASF8661
     /tmp/cc2IngwB.s:106209  .debug_str:0000000000042fe6 .LASF8662
     /tmp/cc2IngwB.s:93143  .debug_str:000000000000e2e6 .LASF8663
     /tmp/cc2IngwB.s:107623  .debug_str:0000000000048c1f .LASF8664
     /tmp/cc2IngwB.s:89929  .debug_str:0000000000000ab3 .LASF8665
     /tmp/cc2IngwB.s:92293  .debug_str:000000000000aafb .LASF8666
     /tmp/cc2IngwB.s:91449  .debug_str:0000000000007250 .LASF8667
     /tmp/cc2IngwB.s:92757  .debug_str:000000000000cb0e .LASF8668
     /tmp/cc2IngwB.s:99601  .debug_str:0000000000027e32 .LASF8669
     /tmp/cc2IngwB.s:90917  .debug_str:0000000000004e73 .LASF8670
     /tmp/cc2IngwB.s:107485  .debug_str:0000000000048279 .LASF8671
     /tmp/cc2IngwB.s:96357  .debug_str:000000000001ab04 .LASF8672
     /tmp/cc2IngwB.s:99911  .debug_str:0000000000029361 .LASF8673
     /tmp/cc2IngwB.s:97499  .debug_str:000000000001f644 .LASF8674
     /tmp/cc2IngwB.s:89909  .debug_str:0000000000000947 .LASF8675
     /tmp/cc2IngwB.s:90675  .debug_str:0000000000003d59 .LASF8676
     /tmp/cc2IngwB.s:100415  .debug_str:000000000002b3ee .LASF8677
     /tmp/cc2IngwB.s:107683  .debug_str:0000000000048fee .LASF8678
     /tmp/cc2IngwB.s:98935  .debug_str:0000000000025669 .LASF8679
     /tmp/cc2IngwB.s:90437  .debug_str:0000000000002dab .LASF8680
     /tmp/cc2IngwB.s:94305  .debug_str:00000000000126a3 .LASF8681
     /tmp/cc2IngwB.s:101331  .debug_str:000000000002edb2 .LASF8682
     /tmp/cc2IngwB.s:96275  .debug_str:000000000001a606 .LASF8683
     /tmp/cc2IngwB.s:95193  .debug_str:0000000000015faa .LASF8684
     /tmp/cc2IngwB.s:104587  .debug_str:000000000003bf21 .LASF8685
     /tmp/cc2IngwB.s:96047  .debug_str:000000000001960e .LASF8686
     /tmp/cc2IngwB.s:99169  .debug_str:0000000000026250 .LASF8687
     /tmp/cc2IngwB.s:92887  .debug_str:000000000000d421 .LASF8688
     /tmp/cc2IngwB.s:102537  .debug_str:0000000000033ce9 .LASF8689
     /tmp/cc2IngwB.s:100463  .debug_str:000000000002b6bc .LASF8690
     /tmp/cc2IngwB.s:100913  .debug_str:000000000002d2e9 .LASF8691
     /tmp/cc2IngwB.s:105147  .debug_str:000000000003e5a2 .LASF8692
     /tmp/cc2IngwB.s:103469  .debug_str:0000000000037b5e .LASF8693
     /tmp/cc2IngwB.s:107105  .debug_str:0000000000046a53 .LASF8694
     /tmp/cc2IngwB.s:99527  .debug_str:00000000000278f1 .LASF8695
     /tmp/cc2IngwB.s:101883  .debug_str:00000000000311c5 .LASF8696
     /tmp/cc2IngwB.s:92167  .debug_str:000000000000a249 .LASF8697
     /tmp/cc2IngwB.s:103975  .debug_str:000000000003988b .LASF8698
     /tmp/cc2IngwB.s:94737  .debug_str:00000000000142f2 .LASF8699
     /tmp/cc2IngwB.s:95053  .debug_str:000000000001565a .LASF8700
     /tmp/cc2IngwB.s:96963  .debug_str:000000000001d1ac .LASF8701
     /tmp/cc2IngwB.s:96421  .debug_str:000000000001b02b .LASF8702
     /tmp/cc2IngwB.s:96775  .debug_str:000000000001c534 .LASF8703
     /tmp/cc2IngwB.s:91551  .debug_str:000000000000791e .LASF8704
     /tmp/cc2IngwB.s:93673  .debug_str:00000000000100fc .LASF8705
     /tmp/cc2IngwB.s:101603  .debug_str:000000000002ffe7 .LASF8706
     /tmp/cc2IngwB.s:94213  .debug_str:0000000000012018 .LASF8707
     /tmp/cc2IngwB.s:95349  .debug_str:00000000000168c9 .LASF8708
     /tmp/cc2IngwB.s:97871  .debug_str:000000000002109f .LASF8709
     /tmp/cc2IngwB.s:94713  .debug_str:00000000000141b2 .LASF8710
     /tmp/cc2IngwB.s:91797  .debug_str:0000000000008923 .LASF8711
     /tmp/cc2IngwB.s:100479  .debug_str:000000000002b75b .LASF8712
     /tmp/cc2IngwB.s:102257  .debug_str:0000000000032923 .LASF8713
     /tmp/cc2IngwB.s:109495  .debug_str:0000000000050a94 .LASF8714
     /tmp/cc2IngwB.s:90565  .debug_str:00000000000035c1 .LASF8715
     /tmp/cc2IngwB.s:99883  .debug_str:000000000002914e .LASF8716
     /tmp/cc2IngwB.s:108891  .debug_str:000000000004e100 .LASF8717
     /tmp/cc2IngwB.s:91375  .debug_str:0000000000006c3d .LASF8718
     /tmp/cc2IngwB.s:99777  .debug_str:00000000000289a0 .LASF8719
     /tmp/cc2IngwB.s:92671  .debug_str:000000000000c56a .LASF8720
     /tmp/cc2IngwB.s:102829  .debug_str:0000000000034faa .LASF8721
     /tmp/cc2IngwB.s:101159  .debug_str:000000000002e20b .LASF8722
     /tmp/cc2IngwB.s:97595  .debug_str:000000000001fd64 .LASF8723
     /tmp/cc2IngwB.s:107475  .debug_str:00000000000481b3 .LASF8724
     /tmp/cc2IngwB.s:105663  .debug_str:0000000000040629 .LASF8725
     /tmp/cc2IngwB.s:108555  .debug_str:000000000004ca0e .LASF8726
     /tmp/cc2IngwB.s:101913  .debug_str:000000000003136c .LASF8727
     /tmp/cc2IngwB.s:95789  .debug_str:00000000000186ce .LASF8728
     /tmp/cc2IngwB.s:93881  .debug_str:0000000000010bf8 .LASF8729
     /tmp/cc2IngwB.s:97711  .debug_str:00000000000205cb .LASF8730
     /tmp/cc2IngwB.s:104725  .debug_str:000000000003c8f0 .LASF8731
     /tmp/cc2IngwB.s:97171  .debug_str:000000000001dfe7 .LASF8732
     /tmp/cc2IngwB.s:92659  .debug_str:000000000000c49f .LASF8733
     /tmp/cc2IngwB.s:91513  .debug_str:000000000000761f .LASF8734
     /tmp/cc2IngwB.s:106245  .debug_str:0000000000043283 .LASF8735
     /tmp/cc2IngwB.s:99141  .debug_str:00000000000261cf .LASF8736
     /tmp/cc2IngwB.s:90701  .debug_str:0000000000003f65 .LASF8737
     /tmp/cc2IngwB.s:96227  .debug_str:000000000001a2de .LASF8738
     /tmp/cc2IngwB.s:108995  .debug_str:000000000004e983 .LASF8739
     /tmp/cc2IngwB.s:90591  .debug_str:00000000000037b8 .LASF8740
     /tmp/cc2IngwB.s:100591  .debug_str:000000000002bf16 .LASF8741
     /tmp/cc2IngwB.s:93433  .debug_str:000000000000f1bd .LASF8742
     /tmp/cc2IngwB.s:102095  .debug_str:0000000000031f27 .LASF8743
     /tmp/cc2IngwB.s:103443  .debug_str:00000000000379ed .LASF8744
     /tmp/cc2IngwB.s:106901  .debug_str:0000000000045c83 .LASF8745
     /tmp/cc2IngwB.s:95729  .debug_str:00000000000182b5 .LASF8746
     /tmp/cc2IngwB.s:103451  .debug_str:0000000000037a6d .LASF8747
     /tmp/cc2IngwB.s:106909  .debug_str:0000000000045cfa .LASF8748
     /tmp/cc2IngwB.s:107107  .debug_str:0000000000046a61 .LASF8749
     /tmp/cc2IngwB.s:105699  .debug_str:0000000000040853 .LASF8750
     /tmp/cc2IngwB.s:101989  .debug_str:0000000000031806 .LASF8751
     /tmp/cc2IngwB.s:100077  .debug_str:0000000000029dfc .LASF8752
     /tmp/cc2IngwB.s:108415  .debug_str:000000000004c0de .LASF8753
     /tmp/cc2IngwB.s:104563  .debug_str:000000000003bdbb .LASF8754
     /tmp/cc2IngwB.s:99587  .debug_str:0000000000027d56 .LASF8755
     /tmp/cc2IngwB.s:101871  .debug_str:000000000003110e .LASF8756
     /tmp/cc2IngwB.s:102307  .debug_str:0000000000032d04 .LASF8757
     /tmp/cc2IngwB.s:101179  .debug_str:000000000002e37d .LASF8758
     /tmp/cc2IngwB.s:108457  .debug_str:000000000004c3a4 .LASF8759
     /tmp/cc2IngwB.s:107937  .debug_str:000000000004a02f .LASF8760
     /tmp/cc2IngwB.s:106699  .debug_str:000000000004500c .LASF8761
     /tmp/cc2IngwB.s:108935  .debug_str:000000000004e4a9 .LASF8762
     /tmp/cc2IngwB.s:104109  .debug_str:0000000000039f39 .LASF8763
     /tmp/cc2IngwB.s:103599  .debug_str:0000000000038343 .LASF8764
     /tmp/cc2IngwB.s:94063  .debug_str:00000000000116d2 .LASF8765
     /tmp/cc2IngwB.s:99115  .debug_str:0000000000026046 .LASF8766
     /tmp/cc2IngwB.s:90425  .debug_str:0000000000002cf0 .LASF8767
     /tmp/cc2IngwB.s:93245  .debug_str:000000000000e8d0 .LASF8768
     /tmp/cc2IngwB.s:96177  .debug_str:0000000000019fe8 .LASF8769
     /tmp/cc2IngwB.s:98529  .debug_str:0000000000023cd7 .LASF8770
     /tmp/cc2IngwB.s:105089  .debug_str:000000000003e0ae .LASF8771
     /tmp/cc2IngwB.s:99507  .debug_str:0000000000027772 .LASF8772
     /tmp/cc2IngwB.s:107073  .debug_str:0000000000046803 .LASF8773
     /tmp/cc2IngwB.s:108581  .debug_str:000000000004cba3 .LASF8774
     /tmp/cc2IngwB.s:103031  .debug_str:0000000000035ee4 .LASF8775
     /tmp/cc2IngwB.s:95093  .debug_str:00000000000158c3 .LASF8776
     /tmp/cc2IngwB.s:105387  .debug_str:000000000003f4f6 .LASF8777
     /tmp/cc2IngwB.s:99843  .debug_str:0000000000028ec9 .LASF8778
     /tmp/cc2IngwB.s:99927  .debug_str:0000000000029499 .LASF8779
     /tmp/cc2IngwB.s:93345  .debug_str:000000000000ede8 .LASF8780
     /tmp/cc2IngwB.s:100241  .debug_str:000000000002a917 .LASF8781
     /tmp/cc2IngwB.s:109079  .debug_str:000000000004ef43 .LASF8782
     /tmp/cc2IngwB.s:95079  .debug_str:00000000000157e0 .LASF8783
     /tmp/cc2IngwB.s:95037  .debug_str:0000000000015515 .LASF8784
     /tmp/cc2IngwB.s:98437  .debug_str:00000000000235d2 .LASF8785
     /tmp/cc2IngwB.s:91869  .debug_str:0000000000008de0 .LASF8786
     /tmp/cc2IngwB.s:96311  .debug_str:000000000001a8bb .LASF8787
     /tmp/cc2IngwB.s:96927  .debug_str:000000000001cf3d .LASF8788
     /tmp/cc2IngwB.s:109155  .debug_str:000000000004f497 .LASF8789
     /tmp/cc2IngwB.s:92175  .debug_str:000000000000a2c6 .LASF8790
     /tmp/cc2IngwB.s:106833  .debug_str:00000000000458af .LASF8791
     /tmp/cc2IngwB.s:96015  .debug_str:000000000001943f .LASF8792
     /tmp/cc2IngwB.s:106797  .debug_str:0000000000045680 .LASF8793
     /tmp/cc2IngwB.s:107831  .debug_str:0000000000049979 .LASF8794
     /tmp/cc2IngwB.s:101715  .debug_str:00000000000306a9 .LASF8795
     /tmp/cc2IngwB.s:94683  .debug_str:0000000000013fba .LASF8796
     /tmp/cc2IngwB.s:92319  .debug_str:000000000000ac65 .LASF8797
     /tmp/cc2IngwB.s:94605  .debug_str:0000000000013ab8 .LASF8798
     /tmp/cc2IngwB.s:106263  .debug_str:00000000000433c6 .LASF8799
     /tmp/cc2IngwB.s:101343  .debug_str:000000000002ee68 .LASF8800
     /tmp/cc2IngwB.s:97881  .debug_str:0000000000021153 .LASF8801
     /tmp/cc2IngwB.s:93913  .debug_str:0000000000010d34 .LASF8802
     /tmp/cc2IngwB.s:108579  .debug_str:000000000004cb84 .LASF8803
     /tmp/cc2IngwB.s:103203  .debug_str:0000000000036a93 .LASF8804
     /tmp/cc2IngwB.s:108627  .debug_str:000000000004cecd .LASF8805
     /tmp/cc2IngwB.s:108945  .debug_str:000000000004e590 .LASF8806
     /tmp/cc2IngwB.s:92889  .debug_str:000000000000d431 .LASF8807
     /tmp/cc2IngwB.s:101421  .debug_str:000000000002f39a .LASF8808
     /tmp/cc2IngwB.s:105343  .debug_str:000000000003f2b6 .LASF8809
     /tmp/cc2IngwB.s:103699  .debug_str:000000000003899a .LASF8810
     /tmp/cc2IngwB.s:91227  .debug_str:000000000000625e .LASF8811
     /tmp/cc2IngwB.s:108511  .debug_str:000000000004c733 .LASF8812
     /tmp/cc2IngwB.s:101839  .debug_str:0000000000030eb8 .LASF8813
     /tmp/cc2IngwB.s:107189  .debug_str:0000000000046f4b .LASF8814
     /tmp/cc2IngwB.s:98393  .debug_str:000000000002333d .LASF8815
     /tmp/cc2IngwB.s:101329  .debug_str:000000000002eda7 .LASF8816
     /tmp/cc2IngwB.s:96681  .debug_str:000000000001bf92 .LASF8817
     /tmp/cc2IngwB.s:106703  .debug_str:000000000004503c .LASF8818
     /tmp/cc2IngwB.s:108659  .debug_str:000000000004d120 .LASF8819
     /tmp/cc2IngwB.s:104223  .debug_str:000000000003a60d .LASF8820
     /tmp/cc2IngwB.s:102259  .debug_str:0000000000032945 .LASF8821
     /tmp/cc2IngwB.s:106689  .debug_str:0000000000044f9c .LASF8822
     /tmp/cc2IngwB.s:100781  .debug_str:000000000002ca6b .LASF8823
     /tmp/cc2IngwB.s:95843  .debug_str:0000000000018a3f .LASF8824
     /tmp/cc2IngwB.s:94255  .debug_str:0000000000012303 .LASF8825
     /tmp/cc2IngwB.s:98817  .debug_str:0000000000024ef7 .LASF8826
     /tmp/cc2IngwB.s:92941  .debug_str:000000000000d744 .LASF8827
     /tmp/cc2IngwB.s:100345  .debug_str:000000000002af36 .LASF8828
     /tmp/cc2IngwB.s:95691  .debug_str:00000000000180a5 .LASF8829
     /tmp/cc2IngwB.s:92959  .debug_str:000000000000d84c .LASF8830
     /tmp/cc2IngwB.s:105121  .debug_str:000000000003e3a4 .LASF8831
     /tmp/cc2IngwB.s:96835  .debug_str:000000000001c932 .LASF8832
     /tmp/cc2IngwB.s:108075  .debug_str:000000000004a97a .LASF8833
     /tmp/cc2IngwB.s:105365  .debug_str:000000000003f438 .LASF8834
     /tmp/cc2IngwB.s:96991  .debug_str:000000000001d385 .LASF8835
     /tmp/cc2IngwB.s:108569  .debug_str:000000000004cae0 .LASF8836
     /tmp/cc2IngwB.s:91921  .debug_str:000000000000917a .LASF8837
     /tmp/cc2IngwB.s:98273  .debug_str:0000000000022b30 .LASF8838
     /tmp/cc2IngwB.s:104125  .debug_str:000000000003a052 .LASF8839
     /tmp/cc2IngwB.s:105949  .debug_str:0000000000041b77 .LASF8840
     /tmp/cc2IngwB.s:93857  .debug_str:0000000000010ab3 .LASF8841
     /tmp/cc2IngwB.s:103759  .debug_str:0000000000038c94 .LASF8842
     /tmp/cc2IngwB.s:90561  .debug_str:0000000000003583 .LASF8843
     /tmp/cc2IngwB.s:100717  .debug_str:000000000002c709 .LASF8844
     /tmp/cc2IngwB.s:108709  .debug_str:000000000004d47b .LASF8845
     /tmp/cc2IngwB.s:105271  .debug_str:000000000003edc3 .LASF8846
     /tmp/cc2IngwB.s:103465  .debug_str:0000000000037b38 .LASF8847
     /tmp/cc2IngwB.s:108285  .debug_str:000000000004b71c .LASF8848
     /tmp/cc2IngwB.s:94113  .debug_str:0000000000011927 .LASF8849
     /tmp/cc2IngwB.s:91803  .debug_str:0000000000008954 .LASF8850
     /tmp/cc2IngwB.s:105775  .debug_str:0000000000040cd2 .LASF8851
     /tmp/cc2IngwB.s:92975  .debug_str:000000000000d963 .LASF8852
     /tmp/cc2IngwB.s:109087  .debug_str:000000000004efe4 .LASF8853
     /tmp/cc2IngwB.s:109507  .debug_str:0000000000050b25 .LASF8854
     /tmp/cc2IngwB.s:92029  .debug_str:000000000000987a .LASF8855
     /tmp/cc2IngwB.s:99775  .debug_str:000000000002898f .LASF8856
     /tmp/cc2IngwB.s:91919  .debug_str:0000000000009155 .LASF8857
     /tmp/cc2IngwB.s:96031  .debug_str:0000000000019524 .LASF8858
     /tmp/cc2IngwB.s:92425  .debug_str:000000000000b445 .LASF8859
     /tmp/cc2IngwB.s:95141  .debug_str:0000000000015bd4 .LASF8860
     /tmp/cc2IngwB.s:95723  .debug_str:0000000000018268 .LASF8861
     /tmp/cc2IngwB.s:92427  .debug_str:000000000000b457 .LASF8862
     /tmp/cc2IngwB.s:108607  .debug_str:000000000004cd3f .LASF8863
     /tmp/cc2IngwB.s:92935  .debug_str:000000000000d6fc .LASF8864
     /tmp/cc2IngwB.s:92465  .debug_str:000000000000b72d .LASF8865
     /tmp/cc2IngwB.s:92713  .debug_str:000000000000c7ed .LASF8866
     /tmp/cc2IngwB.s:97269  .debug_str:000000000001e684 .LASF8867
     /tmp/cc2IngwB.s:104779  .debug_str:000000000003cca3 .LASF8868
     /tmp/cc2IngwB.s:102941  .debug_str:00000000000357d4 .LASF8869
     /tmp/cc2IngwB.s:100605  .debug_str:000000000002bf87 .LASF8870
     /tmp/cc2IngwB.s:95679  .debug_str:0000000000017fec .LASF8871
     /tmp/cc2IngwB.s:103883  .debug_str:00000000000393ec .LASF8872
     /tmp/cc2IngwB.s:101023  .debug_str:000000000002d911 .LASF8873
     /tmp/cc2IngwB.s:98157  .debug_str:00000000000223b7 .LASF8874
     /tmp/cc2IngwB.s:106149  .debug_str:0000000000042b52 .LASF8875
     /tmp/cc2IngwB.s:90963  .debug_str:000000000000516c .LASF8876
     /tmp/cc2IngwB.s:103209  .debug_str:0000000000036aea .LASF8877
     /tmp/cc2IngwB.s:104353  .debug_str:000000000003aedc .LASF8878
     /tmp/cc2IngwB.s:97545  .debug_str:000000000001f9cf .LASF8879
     /tmp/cc2IngwB.s:101467  .debug_str:000000000002f616 .LASF8880
     /tmp/cc2IngwB.s:91527  .debug_str:000000000000770d .LASF8881
     /tmp/cc2IngwB.s:99893  .debug_str:000000000002921a .LASF8882
     /tmp/cc2IngwB.s:108601  .debug_str:000000000004ccb7 .LASF8883
     /tmp/cc2IngwB.s:106817  .debug_str:0000000000045792 .LASF8884
     /tmp/cc2IngwB.s:98931  .debug_str:000000000002563b .LASF8885
     /tmp/cc2IngwB.s:100567  .debug_str:000000000002bda4 .LASF8886
     /tmp/cc2IngwB.s:92903  .debug_str:000000000000d530 .LASF8887
     /tmp/cc2IngwB.s:96595  .debug_str:000000000001ba26 .LASF8888
     /tmp/cc2IngwB.s:95483  .debug_str:00000000000171e4 .LASF8889
     /tmp/cc2IngwB.s:103405  .debug_str:0000000000037742 .LASF8890
     /tmp/cc2IngwB.s:92253  .debug_str:000000000000a859 .LASF8891
     /tmp/cc2IngwB.s:106347  .debug_str:00000000000438d2 .LASF8892
     /tmp/cc2IngwB.s:94271  .debug_str:0000000000012444 .LASF8893
     /tmp/cc2IngwB.s:90419  .debug_str:0000000000002c9d .LASF8894
     /tmp/cc2IngwB.s:97759  .debug_str:0000000000020942 .LASF8895
     /tmp/cc2IngwB.s:96969  .debug_str:000000000001d237 .LASF8896
     /tmp/cc2IngwB.s:101529  .debug_str:000000000002fb24 .LASF8897
     /tmp/cc2IngwB.s:105613  .debug_str:0000000000040347 .LASF8898
     /tmp/cc2IngwB.s:108751  .debug_str:000000000004d7cb .LASF8899
     /tmp/cc2IngwB.s:104311  .debug_str:000000000003abf3 .LASF8900
     /tmp/cc2IngwB.s:104089  .debug_str:0000000000039de7 .LASF8901
     /tmp/cc2IngwB.s:105799  .debug_str:0000000000040e94 .LASF8902
     /tmp/cc2IngwB.s:109129  .debug_str:000000000004f28c .LASF8903
     /tmp/cc2IngwB.s:96741  .debug_str:000000000001c338 .LASF8904
     /tmp/cc2IngwB.s:104195  .debug_str:000000000003a4a5 .LASF8905
     /tmp/cc2IngwB.s:90973  .debug_str:00000000000051dc .LASF8906
     /tmp/cc2IngwB.s:105291  .debug_str:000000000003ef31 .LASF8907
     /tmp/cc2IngwB.s:99101  .debug_str:0000000000025f25 .LASF8908
     /tmp/cc2IngwB.s:96555  .debug_str:000000000001b79b .LASF8909
     /tmp/cc2IngwB.s:94645  .debug_str:0000000000013d4e .LASF8910
     /tmp/cc2IngwB.s:95569  .debug_str:0000000000017766 .LASF8911
     /tmp/cc2IngwB.s:102275  .debug_str:0000000000032af1 .LASF8912
     /tmp/cc2IngwB.s:100671  .debug_str:000000000002c3f6 .LASF8913
     /tmp/cc2IngwB.s:93401  .debug_str:000000000000efc8 .LASF8914
     /tmp/cc2IngwB.s:96167  .debug_str:0000000000019f31 .LASF8915
     /tmp/cc2IngwB.s:100091  .debug_str:0000000000029ed1 .LASF8916
     /tmp/cc2IngwB.s:90829  .debug_str:0000000000004825 .LASF8917
     /tmp/cc2IngwB.s:91083  .debug_str:0000000000005931 .LASF8918
     /tmp/cc2IngwB.s:93097  .debug_str:000000000000dfdd .LASF8919
     /tmp/cc2IngwB.s:91247  .debug_str:000000000000639c .LASF8920
     /tmp/cc2IngwB.s:92989  .debug_str:000000000000da56 .LASF8921
     /tmp/cc2IngwB.s:91885  .debug_str:0000000000008ec5 .LASF8922
     /tmp/cc2IngwB.s:100419  .debug_str:000000000002b44a .LASF8923
     /tmp/cc2IngwB.s:107959  .debug_str:000000000004a1b3 .LASF8924
     /tmp/cc2IngwB.s:92043  .debug_str:0000000000009975 .LASF8925
     /tmp/cc2IngwB.s:107723  .debug_str:000000000004924b .LASF8926
     /tmp/cc2IngwB.s:107985  .debug_str:000000000004a366 .LASF8927
     /tmp/cc2IngwB.s:92069  .debug_str:0000000000009b9d .LASF8928
     /tmp/cc2IngwB.s:107391  .debug_str:0000000000047c29 .LASF8929
     /tmp/cc2IngwB.s:105459  .debug_str:000000000003f9a8 .LASF8930
     /tmp/cc2IngwB.s:93837  .debug_str:00000000000109ab .LASF8931
     /tmp/cc2IngwB.s:104043  .debug_str:0000000000039c28 .LASF8932
     /tmp/cc2IngwB.s:92839  .debug_str:000000000000d0d0 .LASF8933
     /tmp/cc2IngwB.s:105529  .debug_str:000000000003fdb6 .LASF8934
     /tmp/cc2IngwB.s:106795  .debug_str:0000000000045657 .LASF8935
     /tmp/cc2IngwB.s:100889  .debug_str:000000000002d119 .LASF8936
     /tmp/cc2IngwB.s:106501  .debug_str:0000000000044351 .LASF8937
     /tmp/cc2IngwB.s:89999  .debug_str:0000000000000ee6 .LASF8938
     /tmp/cc2IngwB.s:95315  .debug_str:0000000000016654 .LASF8939
     /tmp/cc2IngwB.s:92391  .debug_str:000000000000b156 .LASF8940
     /tmp/cc2IngwB.s:95963  .debug_str:0000000000019055 .LASF8941
     /tmp/cc2IngwB.s:101489  .debug_str:000000000002f7c5 .LASF8942
     /tmp/cc2IngwB.s:90975  .debug_str:00000000000051f0 .LASF8943
     /tmp/cc2IngwB.s:92363  .debug_str:000000000000afaa .LASF8944
     /tmp/cc2IngwB.s:103545  .debug_str:00000000000380b4 .LASF8945
     /tmp/cc2IngwB.s:90447  .debug_str:0000000000002e96 .LASF8946
     /tmp/cc2IngwB.s:95719  .debug_str:0000000000018227 .LASF8947
     /tmp/cc2IngwB.s:103279  .debug_str:0000000000036f54 .LASF8948
     /tmp/cc2IngwB.s:101751  .debug_str:00000000000308d0 .LASF8949
     /tmp/cc2IngwB.s:91653  .debug_str:0000000000007f41 .LASF8950
     /tmp/cc2IngwB.s:109013  .debug_str:000000000004eac8 .LASF8951
     /tmp/cc2IngwB.s:99715  .debug_str:00000000000285ad .LASF8952
     /tmp/cc2IngwB.s:92151  .debug_str:000000000000a101 .LASF8953
     /tmp/cc2IngwB.s:102319  .debug_str:0000000000032da4 .LASF8954
     /tmp/cc2IngwB.s:108671  .debug_str:000000000004d1f8 .LASF8955
     /tmp/cc2IngwB.s:101247  .debug_str:000000000002e7fa .LASF8956
     /tmp/cc2IngwB.s:98163  .debug_str:0000000000022417 .LASF8957
     /tmp/cc2IngwB.s:108865  .debug_str:000000000004df0d .LASF8958
     /tmp/cc2IngwB.s:90585  .debug_str:0000000000003727 .LASF8959
     /tmp/cc2IngwB.s:91005  .debug_str:00000000000053cb .LASF8960
     /tmp/cc2IngwB.s:95023  .debug_str:0000000000015439 .LASF8961
     /tmp/cc2IngwB.s:104651  .debug_str:000000000003c354 .LASF8962
     /tmp/cc2IngwB.s:103039  .debug_str:0000000000035f3e .LASF8963
     /tmp/cc2IngwB.s:103165  .debug_str:00000000000367cd .LASF8964
     /tmp/cc2IngwB.s:97913  .debug_str:0000000000021319 .LASF8965
     /tmp/cc2IngwB.s:105229  .debug_str:000000000003eb4e .LASF8966
     /tmp/cc2IngwB.s:97933  .debug_str:000000000002147e .LASF8967
     /tmp/cc2IngwB.s:93455  .debug_str:000000000000f3a7 .LASF8968
     /tmp/cc2IngwB.s:96459  .debug_str:000000000001b1da .LASF8969
     /tmp/cc2IngwB.s:91659  .debug_str:0000000000007fb2 .LASF8970
     /tmp/cc2IngwB.s:92183  .debug_str:000000000000a37d .LASF8971
     /tmp/cc2IngwB.s:94175  .debug_str:0000000000011d88 .LASF8972
     /tmp/cc2IngwB.s:108167  .debug_str:000000000004ae81 .LASF8973
     /tmp/cc2IngwB.s:96705  .debug_str:000000000001c0f5 .LASF8974
     /tmp/cc2IngwB.s:99461  .debug_str:0000000000027544 .LASF8975
     /tmp/cc2IngwB.s:95985  .debug_str:0000000000019243 .LASF8976
     /tmp/cc2IngwB.s:99795  .debug_str:0000000000028b13 .LASF8977
     /tmp/cc2IngwB.s:98441  .debug_str:0000000000023637 .LASF8978
     /tmp/cc2IngwB.s:105979  .debug_str:0000000000041d92 .LASF8979
     /tmp/cc2IngwB.s:109315  .debug_str:000000000004fe1b .LASF8980
     /tmp/cc2IngwB.s:101885  .debug_str:00000000000311d3 .LASF8981
     /tmp/cc2IngwB.s:96503  .debug_str:000000000001b50c .LASF8982
     /tmp/cc2IngwB.s:102221  .debug_str:0000000000032677 .LASF8983
     /tmp/cc2IngwB.s:93193  .debug_str:000000000000e5c9 .LASF8984
     /tmp/cc2IngwB.s:95265  .debug_str:0000000000016339 .LASF8985
     /tmp/cc2IngwB.s:101303  .debug_str:000000000002eb70 .LASF8986
     /tmp/cc2IngwB.s:105255  .debug_str:000000000003ece5 .LASF8987
     /tmp/cc2IngwB.s:108549  .debug_str:000000000004c9c4 .LASF8988
     /tmp/cc2IngwB.s:93411  .debug_str:000000000000f06c .LASF8989
     /tmp/cc2IngwB.s:93847  .debug_str:0000000000010a4d .LASF8990
     /tmp/cc2IngwB.s:104695  .debug_str:000000000003c6a4 .LASF8991
     /tmp/cc2IngwB.s:104373  .debug_str:000000000003b06a .LASF8992
     /tmp/cc2IngwB.s:93849  .debug_str:0000000000010a5d .LASF8993
     /tmp/cc2IngwB.s:104697  .debug_str:000000000003c6b4 .LASF8994
     /tmp/cc2IngwB.s:91015  .debug_str:000000000000547e .LASF8995
     /tmp/cc2IngwB.s:95443  .debug_str:0000000000016f93 .LASF8996
     /tmp/cc2IngwB.s:95753  .debug_str:0000000000018479 .LASF8997
     /tmp/cc2IngwB.s:91493  .debug_str:0000000000007557 .LASF8998
     /tmp/cc2IngwB.s:104829  .debug_str:000000000003d013 .LASF8999
     /tmp/cc2IngwB.s:95755  .debug_str:0000000000018489 .LASF9000
     /tmp/cc2IngwB.s:105079  .debug_str:000000000003e028 .LASF9001
     /tmp/cc2IngwB.s:104831  .debug_str:000000000003d023 .LASF9002
     /tmp/cc2IngwB.s:95757  .debug_str:0000000000018499 .LASF9003
     /tmp/cc2IngwB.s:98807  .debug_str:0000000000024e0a .LASF9004
     /tmp/cc2IngwB.s:104833  .debug_str:000000000003d033 .LASF9005
     /tmp/cc2IngwB.s:95759  .debug_str:00000000000184a9 .LASF9006
     /tmp/cc2IngwB.s:101473  .debug_str:000000000002f6c9 .LASF9007
     /tmp/cc2IngwB.s:104835  .debug_str:000000000003d043 .LASF9008
     /tmp/cc2IngwB.s:95761  .debug_str:00000000000184b9 .LASF9009
     /tmp/cc2IngwB.s:106037  .debug_str:000000000004212c .LASF9010
     /tmp/cc2IngwB.s:98015  .debug_str:0000000000021a0a .LASF9011
     /tmp/cc2IngwB.s:101305  .debug_str:000000000002eb91 .LASF9012
     /tmp/cc2IngwB.s:94793  .debug_str:000000000001465c .LASF9013
     /tmp/cc2IngwB.s:95113  .debug_str:00000000000159cd .LASF9014
     /tmp/cc2IngwB.s:104827  .debug_str:000000000003d003 .LASF9015
     /tmp/cc2IngwB.s:94865  .debug_str:0000000000014b38 .LASF9016
     /tmp/cc2IngwB.s:101719  .debug_str:00000000000306c9 .LASF9017
     /tmp/cc2IngwB.s:92737  .debug_str:000000000000ca0c .LASF9018
     /tmp/cc2IngwB.s:108729  .debug_str:000000000004d632 .LASF9019
     /tmp/cc2IngwB.s:90783  .debug_str:0000000000004560 .LASF9020
     /tmp/cc2IngwB.s:92739  .debug_str:000000000000ca22 .LASF9021
     /tmp/cc2IngwB.s:101487  .debug_str:000000000002f79b .LASF9022
     /tmp/cc2IngwB.s:90785  .debug_str:0000000000004576 .LASF9023
     /tmp/cc2IngwB.s:92741  .debug_str:000000000000ca38 .LASF9024
     /tmp/cc2IngwB.s:95125  .debug_str:0000000000015acc .LASF9025
     /tmp/cc2IngwB.s:90787  .debug_str:000000000000458c .LASF9026
     /tmp/cc2IngwB.s:92743  .debug_str:000000000000ca4e .LASF9027
     /tmp/cc2IngwB.s:108589  .debug_str:000000000004cc2e .LASF9028
     /tmp/cc2IngwB.s:90789  .debug_str:00000000000045a2 .LASF9029
     /tmp/cc2IngwB.s:92745  .debug_str:000000000000ca64 .LASF9030
     /tmp/cc2IngwB.s:102645  .debug_str:00000000000343df .LASF9031
     /tmp/cc2IngwB.s:90791  .debug_str:00000000000045b8 .LASF9032
     /tmp/cc2IngwB.s:92747  .debug_str:000000000000ca7a .LASF9033
     /tmp/cc2IngwB.s:96289  .debug_str:000000000001a6bb .LASF9034
     /tmp/cc2IngwB.s:90793  .debug_str:00000000000045ce .LASF9035
     /tmp/cc2IngwB.s:92749  .debug_str:000000000000ca90 .LASF9036
     /tmp/cc2IngwB.s:90009  .debug_str:0000000000000f9b .LASF9037
     /tmp/cc2IngwB.s:107617  .debug_str:0000000000048ba5 .LASF9038
     /tmp/cc2IngwB.s:92751  .debug_str:000000000000caa6 .LASF9039
     /tmp/cc2IngwB.s:95229  .debug_str:0000000000016196 .LASF9040
     /tmp/cc2IngwB.s:105731  .debug_str:0000000000040a85 .LASF9041
     /tmp/cc2IngwB.s:101209  .debug_str:000000000002e574 .LASF9042
     /tmp/cc2IngwB.s:104925  .debug_str:000000000003d5db .LASF9043
     /tmp/cc2IngwB.s:94767  .debug_str:0000000000014504 .LASF9044
     /tmp/cc2IngwB.s:104053  .debug_str:0000000000039c8f .LASF9045
     /tmp/cc2IngwB.s:98681  .debug_str:00000000000246e0 .LASF9046
     /tmp/cc2IngwB.s:101993  .debug_str:000000000003185b .LASF9047
     /tmp/cc2IngwB.s:91785  .debug_str:000000000000885f .LASF9048
     /tmp/cc2IngwB.s:98997  .debug_str:000000000002597d .LASF9049
     /tmp/cc2IngwB.s:97823  .debug_str:0000000000020dcc .LASF9050
     /tmp/cc2IngwB.s:102745  .debug_str:0000000000034a74 .LASF9051
     /tmp/cc2IngwB.s:108221  .debug_str:000000000004b2d7 .LASF9052
     /tmp/cc2IngwB.s:105461  .debug_str:000000000003f9b5 .LASF9053
     /tmp/cc2IngwB.s:99643  .debug_str:0000000000028146 .LASF9054
     /tmp/cc2IngwB.s:104283  .debug_str:000000000003aa11 .LASF9055
     /tmp/cc2IngwB.s:106605  .debug_str:00000000000449d9 .LASF9056
     /tmp/cc2IngwB.s:106437  .debug_str:0000000000043ec5 .LASF9057
     /tmp/cc2IngwB.s:96303  .debug_str:000000000001a7e7 .LASF9058
     /tmp/cc2IngwB.s:98613  .debug_str:0000000000024233 .LASF9059
     /tmp/cc2IngwB.s:94051  .debug_str:000000000001160b .LASF9060
     /tmp/cc2IngwB.s:94451  .debug_str:0000000000013014 .LASF9061
     /tmp/cc2IngwB.s:98695  .debug_str:00000000000247b0 .LASF9062
     /tmp/cc2IngwB.s:94183  .debug_str:0000000000011e00 .LASF9063
     /tmp/cc2IngwB.s:100701  .debug_str:000000000002c60d .LASF9064
     /tmp/cc2IngwB.s:94939  .debug_str:0000000000014f4d .LASF9065
     /tmp/cc2IngwB.s:94303  .debug_str:0000000000012699 .LASF9066
     /tmp/cc2IngwB.s:92539  .debug_str:000000000000bc95 .LASF9067
     /tmp/cc2IngwB.s:106261  .debug_str:00000000000433bb .LASF9068
     /tmp/cc2IngwB.s:106525  .debug_str:00000000000444cf .LASF9069
     /tmp/cc2IngwB.s:100369  .debug_str:000000000002b065 .LASF9070
     /tmp/cc2IngwB.s:104883  .debug_str:000000000003d343 .LASF9071
     /tmp/cc2IngwB.s:109325  .debug_str:000000000004fe9e .LASF9072
     /tmp/cc2IngwB.s:104307  .debug_str:000000000003abb1 .LASF9073
     /tmp/cc2IngwB.s:106273  .debug_str:000000000004343f .LASF9074
     /tmp/cc2IngwB.s:99841  .debug_str:0000000000028eba .LASF9075
     /tmp/cc2IngwB.s:99725  .debug_str:000000000002862e .LASF9076
     /tmp/cc2IngwB.s:93743  .debug_str:0000000000010424 .LASF9077
     /tmp/cc2IngwB.s:108737  .debug_str:000000000004d6c3 .LASF9078
     /tmp/cc2IngwB.s:108723  .debug_str:000000000004d588 .LASF9079
     /tmp/cc2IngwB.s:105059  .debug_str:000000000003df02 .LASF9080
     /tmp/cc2IngwB.s:100317  .debug_str:000000000002ad3e .LASF9081
     /tmp/cc2IngwB.s:100411  .debug_str:000000000002b39b .LASF9082
     /tmp/cc2IngwB.s:102687  .debug_str:0000000000034673 .LASF9083
     /tmp/cc2IngwB.s:109173  .debug_str:000000000004f53e .LASF9084
     /tmp/cc2IngwB.s:100035  .debug_str:0000000000029ae0 .LASF9085
     /tmp/cc2IngwB.s:93691  .debug_str:00000000000101f9 .LASF9086
     /tmp/cc2IngwB.s:104961  .debug_str:000000000003d845 .LASF9087
     /tmp/cc2IngwB.s:109439  .debug_str:00000000000506d1 .LASF9088
     /tmp/cc2IngwB.s:105601  .debug_str:000000000004028d .LASF9089
     /tmp/cc2IngwB.s:91655  .debug_str:0000000000007f68 .LASF9090
     /tmp/cc2IngwB.s:100279  .debug_str:000000000002ab8a .LASF9091
     /tmp/cc2IngwB.s:104853  .debug_str:000000000003d165 .LASF9092
     /tmp/cc2IngwB.s:90479  .debug_str:000000000000311a .LASF9093
     /tmp/cc2IngwB.s:90737  .debug_str:00000000000041fa .LASF9094
     /tmp/cc2IngwB.s:104855  .debug_str:000000000003d17e .LASF9095
     /tmp/cc2IngwB.s:90481  .debug_str:0000000000003133 .LASF9096
     /tmp/cc2IngwB.s:97225  .debug_str:000000000001e378 .LASF9097
     /tmp/cc2IngwB.s:104857  .debug_str:000000000003d197 .LASF9098
     /tmp/cc2IngwB.s:90483  .debug_str:000000000000314c .LASF9099
     /tmp/cc2IngwB.s:98117  .debug_str:00000000000221b8 .LASF9100
     /tmp/cc2IngwB.s:104253  .debug_str:000000000003a7bd .LASF9101
     /tmp/cc2IngwB.s:90485  .debug_str:0000000000003165 .LASF9102
     /tmp/cc2IngwB.s:91717  .debug_str:0000000000008368 .LASF9103
     /tmp/cc2IngwB.s:104861  .debug_str:000000000003d1b7 .LASF9104
     /tmp/cc2IngwB.s:90487  .debug_str:000000000000317e .LASF9105
     /tmp/cc2IngwB.s:105287  .debug_str:000000000003eed0 .LASF9106
     /tmp/cc2IngwB.s:106951  .debug_str:0000000000046006 .LASF9107
     /tmp/cc2IngwB.s:106421  .debug_str:0000000000043dd9 .LASF9108
     /tmp/cc2IngwB.s:100803  .debug_str:000000000002cbaa .LASF9109
     /tmp/cc2IngwB.s:95923  .debug_str:0000000000018e30 .LASF9110
     /tmp/cc2IngwB.s:98587  .debug_str:0000000000024082 .LASF9111
     /tmp/cc2IngwB.s:98611  .debug_str:0000000000024212 .LASF9112
     /tmp/cc2IngwB.s:100733  .debug_str:000000000002c7dd .LASF9113
     /tmp/cc2IngwB.s:94637  .debug_str:0000000000013cba .LASF9114
     /tmp/cc2IngwB.s:98673  .debug_str:0000000000024651 .LASF9115
     /tmp/cc2IngwB.s:93051  .debug_str:000000000000ddec .LASF9116
     /tmp/cc2IngwB.s:102083  .debug_str:0000000000031e41 .LASF9117
     /tmp/cc2IngwB.s:102237  .debug_str:000000000003277f .LASF9118
     /tmp/cc2IngwB.s:96877  .debug_str:000000000001cc49 .LASF9119
     /tmp/cc2IngwB.s:107065  .debug_str:000000000004679c .LASF9120
     /tmp/cc2IngwB.s:102589  .debug_str:0000000000034039 .LASF9121
     /tmp/cc2IngwB.s:101593  .debug_str:000000000002ff6f .LASF9122
     /tmp/cc2IngwB.s:94819  .debug_str:0000000000014824 .LASF9123
     /tmp/cc2IngwB.s:98737  .debug_str:0000000000024ac8 .LASF9124
     /tmp/cc2IngwB.s:96043  .debug_str:00000000000195cb .LASF9125
     /tmp/cc2IngwB.s:95355  .debug_str:00000000000168f6 .LASF9126
     /tmp/cc2IngwB.s:105109  .debug_str:000000000003e2ce .LASF9127
     /tmp/cc2IngwB.s:95939  .debug_str:0000000000018f1d .LASF9128
     /tmp/cc2IngwB.s:95409  .debug_str:0000000000016cd8 .LASF9129
     /tmp/cc2IngwB.s:104463  .debug_str:000000000003b69b .LASF9130
     /tmp/cc2IngwB.s:90731  .debug_str:0000000000004186 .LASF9131
     /tmp/cc2IngwB.s:98283  .debug_str:0000000000022be7 .LASF9132
     /tmp/cc2IngwB.s:98017  .debug_str:0000000000021a1f .LASF9133
     /tmp/cc2IngwB.s:90797  .debug_str:00000000000045ed .LASF9134
     /tmp/cc2IngwB.s:101687  .debug_str:000000000003053d .LASF9135
     /tmp/cc2IngwB.s:108897  .debug_str:000000000004e151 .LASF9136
     /tmp/cc2IngwB.s:91695  .debug_str:00000000000081d9 .LASF9137
     /tmp/cc2IngwB.s:100979  .debug_str:000000000002d682 .LASF9138
     /tmp/cc2IngwB.s:108299  .debug_str:000000000004b802 .LASF9139
     /tmp/cc2IngwB.s:102795  .debug_str:0000000000034d19 .LASF9140
     /tmp/cc2IngwB.s:107883  .debug_str:0000000000049cdf .LASF9141
     /tmp/cc2IngwB.s:100609  .debug_str:000000000002bfab .LASF9142
     /tmp/cc2IngwB.s:91573  .debug_str:0000000000007a5f .LASF9143
     /tmp/cc2IngwB.s:107935  .debug_str:000000000004a01c .LASF9144
     /tmp/cc2IngwB.s:97257  .debug_str:000000000001e59e .LASF9145
     /tmp/cc2IngwB.s:91575  .debug_str:0000000000007a72 .LASF9146
     /tmp/cc2IngwB.s:97407  .debug_str:000000000001efe1 .LASF9147
     /tmp/cc2IngwB.s:107261  .debug_str:0000000000047358 .LASF9148
     /tmp/cc2IngwB.s:103053  .debug_str:0000000000036026 .LASF9149
     /tmp/cc2IngwB.s:91073  .debug_str:000000000000589e .LASF9150
     /tmp/cc2IngwB.s:106201  .debug_str:0000000000042f6b .LASF9151
     /tmp/cc2IngwB.s:103055  .debug_str:000000000003603a .LASF9152
     /tmp/cc2IngwB.s:91075  .debug_str:00000000000058b2 .LASF9153
     /tmp/cc2IngwB.s:100029  .debug_str:0000000000029a7e .LASF9154
     /tmp/cc2IngwB.s:103057  .debug_str:000000000003604e .LASF9155
     /tmp/cc2IngwB.s:91077  .debug_str:00000000000058c6 .LASF9156
     /tmp/cc2IngwB.s:93789  .debug_str:0000000000010704 .LASF9157
     /tmp/cc2IngwB.s:103059  .debug_str:0000000000036062 .LASF9158
     /tmp/cc2IngwB.s:98121  .debug_str:00000000000221ec .LASF9159
     /tmp/cc2IngwB.s:93299  .debug_str:000000000000eadd .LASF9160
     /tmp/cc2IngwB.s:103061  .debug_str:0000000000036076 .LASF9161
     /tmp/cc2IngwB.s:91081  .debug_str:000000000000591d .LASF9162
     /tmp/cc2IngwB.s:101067  .debug_str:000000000002dbc8 .LASF9163
     /tmp/cc2IngwB.s:95489  .debug_str:0000000000017237 .LASF9164
     /tmp/cc2IngwB.s:98583  .debug_str:000000000002405e .LASF9165
     /tmp/cc2IngwB.s:90397  .debug_str:0000000000002b2c .LASF9166
     /tmp/cc2IngwB.s:91669  .debug_str:0000000000008040 .LASF9167
     /tmp/cc2IngwB.s:98585  .debug_str:0000000000024070 .LASF9168
     /tmp/cc2IngwB.s:99135  .debug_str:000000000002617b .LASF9169
     /tmp/cc2IngwB.s:91671  .debug_str:0000000000008052 .LASF9170
     /tmp/cc2IngwB.s:92679  .debug_str:000000000000c5c5 .LASF9171
     /tmp/cc2IngwB.s:105723  .debug_str:00000000000409fb .LASF9172
     /tmp/cc2IngwB.s:90155  .debug_str:0000000000001aa1 .LASF9173
     /tmp/cc2IngwB.s:91173  .debug_str:0000000000005ef7 .LASF9174
     /tmp/cc2IngwB.s:107711  .debug_str:00000000000491c3 .LASF9175
     /tmp/cc2IngwB.s:90157  .debug_str:0000000000001ab3 .LASF9176
     /tmp/cc2IngwB.s:91175  .debug_str:0000000000005f09 .LASF9177
     /tmp/cc2IngwB.s:101563  .debug_str:000000000002fd40 .LASF9178
     /tmp/cc2IngwB.s:106683  .debug_str:0000000000044f50 .LASF9179
     /tmp/cc2IngwB.s:91177  .debug_str:0000000000005f1b .LASF9180
     /tmp/cc2IngwB.s:95195  .debug_str:0000000000015fbd .LASF9181
     /tmp/cc2IngwB.s:107877  .debug_str:0000000000049cab .LASF9182
     /tmp/cc2IngwB.s:101553  .debug_str:000000000002fcdf .LASF9183
     /tmp/cc2IngwB.s:97883  .debug_str:000000000002115e .LASF9184
     /tmp/cc2IngwB.s:106517  .debug_str:0000000000044448 .LASF9185
     /tmp/cc2IngwB.s:108107  .debug_str:000000000004ab45 .LASF9186
     /tmp/cc2IngwB.s:101685  .debug_str:0000000000030517 .LASF9187
     /tmp/cc2IngwB.s:90263  .debug_str:000000000000227b .LASF9188
     /tmp/cc2IngwB.s:102819  .debug_str:0000000000034edb .LASF9189
     /tmp/cc2IngwB.s:103233  .debug_str:0000000000036c37 .LASF9190
     /tmp/cc2IngwB.s:94417  .debug_str:0000000000012dab .LASF9191
     /tmp/cc2IngwB.s:108385  .debug_str:000000000004bed5 .LASF9192
     /tmp/cc2IngwB.s:99561  .debug_str:0000000000027b29 .LASF9193
     /tmp/cc2IngwB.s:97035  .debug_str:000000000001d61c .LASF9194
     /tmp/cc2IngwB.s:107625  .debug_str:0000000000048c2a .LASF9195
     /tmp/cc2IngwB.s:95595  .debug_str:0000000000017987 .LASF9196
     /tmp/cc2IngwB.s:100233  .debug_str:000000000002a87c .LASF9197
     /tmp/cc2IngwB.s:106511  .debug_str:00000000000443fd .LASF9198
     /tmp/cc2IngwB.s:104809  .debug_str:000000000003cef2 .LASF9199
     /tmp/cc2IngwB.s:94725  .debug_str:000000000001423c .LASF9200
     /tmp/cc2IngwB.s:99207  .debug_str:0000000000026540 .LASF9201
     /tmp/cc2IngwB.s:99473  .debug_str:00000000000275ef .LASF9202
     /tmp/cc2IngwB.s:99075  .debug_str:0000000000025d99 .LASF9203
     /tmp/cc2IngwB.s:92461  .debug_str:000000000000b6c7 .LASF9204
     /tmp/cc2IngwB.s:107219  .debug_str:00000000000470e8 .LASF9205
     /tmp/cc2IngwB.s:97543  .debug_str:000000000001f9b2 .LASF9206
     /tmp/cc2IngwB.s:90951  .debug_str:000000000000508e .LASF9207
     /tmp/cc2IngwB.s:109067  .debug_str:000000000004ee17 .LASF9208
     /tmp/cc2IngwB.s:90695  .debug_str:0000000000003eed .LASF9209
     /tmp/cc2IngwB.s:99177  .debug_str:00000000000262ad .LASF9210
     /tmp/cc2IngwB.s:103073  .debug_str:0000000000036160 .LASF9211
     /tmp/cc2IngwB.s:99113  .debug_str:0000000000026032 .LASF9212
     /tmp/cc2IngwB.s:106477  .debug_str:00000000000441bb .LASF9213
     /tmp/cc2IngwB.s:100139  .debug_str:000000000002a1e0 .LASF9214
     /tmp/cc2IngwB.s:105899  .debug_str:000000000004171f .LASF9215
     /tmp/cc2IngwB.s:90825  .debug_str:00000000000047fb .LASF9216
     /tmp/cc2IngwB.s:100275  .debug_str:000000000002ab48 .LASF9217
     /tmp/cc2IngwB.s:108029  .debug_str:000000000004a6a3 .LASF9218
     /tmp/cc2IngwB.s:106829  .debug_str:0000000000045870 .LASF9219
     /tmp/cc2IngwB.s:108733  .debug_str:000000000004d67a .LASF9220
     /tmp/cc2IngwB.s:91243  .debug_str:0000000000006363 .LASF9221
     /tmp/cc2IngwB.s:102955  .debug_str:0000000000035909 .LASF9222
     /tmp/cc2IngwB.s:99317  .debug_str:0000000000026ba7 .LASF9223
     /tmp/cc2IngwB.s:93235  .debug_str:000000000000e874 .LASF9224
     /tmp/cc2IngwB.s:99547  .debug_str:0000000000027a44 .LASF9225
     /tmp/cc2IngwB.s:106709  .debug_str:00000000000450a5 .LASF9226
     /tmp/cc2IngwB.s:97959  .debug_str:0000000000021651 .LASF9227
     /tmp/cc2IngwB.s:102293  .debug_str:0000000000032c2a .LASF9228
     /tmp/cc2IngwB.s:99935  .debug_str:0000000000029527 .LASF9229
     /tmp/cc2IngwB.s:92311  .debug_str:000000000000abea .LASF9230
     /tmp/cc2IngwB.s:107353  .debug_str:00000000000479d9 .LASF9231
     /tmp/cc2IngwB.s:108355  .debug_str:000000000004bc86 .LASF9232
     /tmp/cc2IngwB.s:93259  .debug_str:000000000000e925 .LASF9233
     /tmp/cc2IngwB.s:97847  .debug_str:0000000000020f6c .LASF9234
     /tmp/cc2IngwB.s:101505  .debug_str:000000000002f964 .LASF9235
     /tmp/cc2IngwB.s:95015  .debug_str:0000000000015393 .LASF9236
     /tmp/cc2IngwB.s:107169  .debug_str:0000000000046dda .LASF9237
     /tmp/cc2IngwB.s:107299  .debug_str:0000000000047642 .LASF9238
     /tmp/cc2IngwB.s:92637  .debug_str:000000000000c366 .LASF9239
     /tmp/cc2IngwB.s:95461  .debug_str:0000000000017076 .LASF9240
     /tmp/cc2IngwB.s:109023  .debug_str:000000000004eb40 .LASF9241
     /tmp/cc2IngwB.s:106719  .debug_str:000000000004513d .LASF9242
     /tmp/cc2IngwB.s:102721  .debug_str:00000000000348c3 .LASF9243
     /tmp/cc2IngwB.s:101373  .debug_str:000000000002f01c .LASF9244
     /tmp/cc2IngwB.s:96473  .debug_str:000000000001b306 .LASF9245
     /tmp/cc2IngwB.s:104683  .debug_str:000000000003c596 .LASF9246
     /tmp/cc2IngwB.s:97915  .debug_str:000000000002133e .LASF9247
     /tmp/cc2IngwB.s:92565  .debug_str:000000000000beab .LASF9248
     /tmp/cc2IngwB.s:108989  .debug_str:000000000004e92d .LASF9249
     /tmp/cc2IngwB.s:104669  .debug_str:000000000003c48c .LASF9250
     /tmp/cc2IngwB.s:108461  .debug_str:000000000004c3f0 .LASF9251
     /tmp/cc2IngwB.s:93557  .debug_str:000000000000f912 .LASF9252
     /tmp/cc2IngwB.s:102233  .debug_str:000000000003274e .LASF9253
     /tmp/cc2IngwB.s:90423  .debug_str:0000000000002cd5 .LASF9254
     /tmp/cc2IngwB.s:103387  .debug_str:000000000003760b .LASF9255
     /tmp/cc2IngwB.s:100439  .debug_str:000000000002b572 .LASF9256
     /tmp/cc2IngwB.s:103637  .debug_str:000000000003868f .LASF9257
     /tmp/cc2IngwB.s:101263  .debug_str:000000000002e8cd .LASF9258
     /tmp/cc2IngwB.s:103947  .debug_str:00000000000396c9 .LASF9259
     /tmp/cc2IngwB.s:95621  .debug_str:0000000000017b7c .LASF9260
     /tmp/cc2IngwB.s:90245  .debug_str:000000000000210b .LASF9261
     /tmp/cc2IngwB.s:94881  .debug_str:0000000000014c2f .LASF9262
     /tmp/cc2IngwB.s:93263  .debug_str:000000000000e955 .LASF9263
     /tmp/cc2IngwB.s:103755  .debug_str:0000000000038c79 .LASF9264
     /tmp/cc2IngwB.s:106601  .debug_str:000000000004497f .LASF9265
     /tmp/cc2IngwB.s:96025  .debug_str:00000000000194c5 .LASF9266
     /tmp/cc2IngwB.s:100927  .debug_str:000000000002d3a9 .LASF9267
     /tmp/cc2IngwB.s:91771  .debug_str:000000000000875a .LASF9268
     /tmp/cc2IngwB.s:99853  .debug_str:0000000000028f38 .LASF9269
     /tmp/cc2IngwB.s:98649  .debug_str:0000000000024483 .LASF9270
     /tmp/cc2IngwB.s:108833  .debug_str:000000000004dcc2 .LASF9271
     /tmp/cc2IngwB.s:99855  .debug_str:0000000000028f55 .LASF9272
     /tmp/cc2IngwB.s:98651  .debug_str:00000000000244a0 .LASF9273
     /tmp/cc2IngwB.s:102689  .debug_str:000000000003468b .LASF9274
     /tmp/cc2IngwB.s:105221  .debug_str:000000000003eac9 .LASF9275
     /tmp/cc2IngwB.s:104149  .debug_str:000000000003a204 .LASF9276
     /tmp/cc2IngwB.s:106907  .debug_str:0000000000045cc9 .LASF9277
     /tmp/cc2IngwB.s:105223  .debug_str:000000000003eae6 .LASF9278
     /tmp/cc2IngwB.s:91213  .debug_str:0000000000006177 .LASF9279
     /tmp/cc2IngwB.s:95139  .debug_str:0000000000015ba3 .LASF9280
     /tmp/cc2IngwB.s:107349  .debug_str:00000000000479a3 .LASF9281
     /tmp/cc2IngwB.s:94467  .debug_str:0000000000013156 .LASF9282
     /tmp/cc2IngwB.s:105675  .debug_str:00000000000406ce .LASF9283
     /tmp/cc2IngwB.s:107351  .debug_str:00000000000479be .LASF9284
     /tmp/cc2IngwB.s:103831  .debug_str:0000000000039087 .LASF9285
     /tmp/cc2IngwB.s:99469  .debug_str:00000000000275a6 .LASF9286
     /tmp/cc2IngwB.s:92909  .debug_str:000000000000d581 .LASF9287
     /tmp/cc2IngwB.s:99943  .debug_str:00000000000295dc .LASF9288
     /tmp/cc2IngwB.s:98131  .debug_str:0000000000022285 .LASF9289
     /tmp/cc2IngwB.s:92911  .debug_str:000000000000d59c .LASF9290
     /tmp/cc2IngwB.s:94821  .debug_str:0000000000014830 .LASF9291
     /tmp/cc2IngwB.s:91735  .debug_str:00000000000084db .LASF9292
     /tmp/cc2IngwB.s:98941  .debug_str:00000000000256b4 .LASF9293
     /tmp/cc2IngwB.s:97653  .debug_str:0000000000020133 .LASF9294
     /tmp/cc2IngwB.s:89901  .debug_str:0000000000000882 .LASF9295
     /tmp/cc2IngwB.s:98943  .debug_str:00000000000256d1 .LASF9296
     /tmp/cc2IngwB.s:97655  .debug_str:0000000000020150 .LASF9297
     /tmp/cc2IngwB.s:100333  .debug_str:000000000002ae33 .LASF9298
     /tmp/cc2IngwB.s:104457  .debug_str:000000000003b637 .LASF9299
     /tmp/cc2IngwB.s:103091  .debug_str:00000000000362dd .LASF9300
     /tmp/cc2IngwB.s:102131  .debug_str:0000000000032103 .LASF9301
     /tmp/cc2IngwB.s:104459  .debug_str:000000000003b654 .LASF9302
     /tmp/cc2IngwB.s:103093  .debug_str:00000000000362fa .LASF9303
     /tmp/cc2IngwB.s:95783  .debug_str:000000000001863b .LASF9304
     /tmp/cc2IngwB.s:109425  .debug_str:00000000000505e1 .LASF9305
     /tmp/cc2IngwB.s:92261  .debug_str:000000000000a8db .LASF9306
     /tmp/cc2IngwB.s:96127  .debug_str:0000000000019c42 .LASF9307
     /tmp/cc2IngwB.s:109427  .debug_str:00000000000505fa .LASF9308
     /tmp/cc2IngwB.s:92263  .debug_str:000000000000a8f4 .LASF9309
     /tmp/cc2IngwB.s:89869  .debug_str:000000000000068f .LASF9310
     /tmp/cc2IngwB.s:91827  .debug_str:0000000000008b3d .LASF9311
     /tmp/cc2IngwB.s:104843  .debug_str:000000000003d096 .LASF9312
     /tmp/cc2IngwB.s:93575  .debug_str:000000000000fa2c .LASF9313
     /tmp/cc2IngwB.s:92823  .debug_str:000000000000d028 .LASF9314
     /tmp/cc2IngwB.s:96771  .debug_str:000000000001c509 .LASF9315
     /tmp/cc2IngwB.s:108329  .debug_str:000000000004ba99 .LASF9316
     /tmp/cc2IngwB.s:91977  .debug_str:000000000000955d .LASF9317
     /tmp/cc2IngwB.s:109323  .debug_str:000000000004fe92 .LASF9318
     /tmp/cc2IngwB.s:90275  .debug_str:0000000000002365 .LASF9319
     /tmp/cc2IngwB.s:108097  .debug_str:000000000004aaa8 .LASF9320
     /tmp/cc2IngwB.s:93535  .debug_str:000000000000f89a .LASF9321
     /tmp/cc2IngwB.s:106799  .debug_str:0000000000045694 .LASF9322
     /tmp/cc2IngwB.s:97717  .debug_str:000000000002062c .LASF9323
     /tmp/cc2IngwB.s:101717  .debug_str:00000000000306b7 .LASF9324
     /tmp/cc2IngwB.s:95083  .debug_str:0000000000015817 .LASF9325
     /tmp/cc2IngwB.s:92139  .debug_str:000000000000a04f .LASF9326
     /tmp/cc2IngwB.s:99087  .debug_str:0000000000025e4a .LASF9327
     /tmp/cc2IngwB.s:93437  .debug_str:000000000000f22a .LASF9328
     /tmp/cc2IngwB.s:101613  .debug_str:0000000000030081 .LASF9329
     /tmp/cc2IngwB.s:96995  .debug_str:000000000001d3ad .LASF9330
     /tmp/cc2IngwB.s:100475  .debug_str:000000000002b725 .LASF9331
     /tmp/cc2IngwB.s:98523  .debug_str:0000000000023c69 .LASF9332
     /tmp/cc2IngwB.s:106119  .debug_str:0000000000042966 .LASF9333
     /tmp/cc2IngwB.s:108085  .debug_str:000000000004aa1f .LASF9334
     /tmp/cc2IngwB.s:102635  .debug_str:0000000000034396 .LASF9335
     /tmp/cc2IngwB.s:100793  .debug_str:000000000002cb0f .LASF9336
     /tmp/cc2IngwB.s:93613  .debug_str:000000000000fd1c .LASF9337
     /tmp/cc2IngwB.s:100615  .debug_str:000000000002c015 .LASF9338
     /tmp/cc2IngwB.s:107007  .debug_str:00000000000463cf .LASF9339
     /tmp/cc2IngwB.s:97733  .debug_str:000000000002076e .LASF9340
     /tmp/cc2IngwB.s:101219  .debug_str:000000000002e61c .LASF9341
     /tmp/cc2IngwB.s:97247  .debug_str:000000000001e50e .LASF9342
     /tmp/cc2IngwB.s:103943  .debug_str:000000000003969a .LASF9343
     /tmp/cc2IngwB.s:98983  .debug_str:00000000000258c2 .LASF9344
     /tmp/cc2IngwB.s:105681  .debug_str:0000000000040753 .LASF9345
     /tmp/cc2IngwB.s:108615  .debug_str:000000000004cdc8 .LASF9346
     /tmp/cc2IngwB.s:101017  .debug_str:000000000002d8e1 .LASF9347
     /tmp/cc2IngwB.s:96269  .debug_str:000000000001a5d2 .LASF9348
     /tmp/cc2IngwB.s:106919  .debug_str:0000000000045d88 .LASF9349
     /tmp/cc2IngwB.s:99349  .debug_str:0000000000026e48 .LASF9350
     /tmp/cc2IngwB.s:94751  .debug_str:00000000000143d5 .LASF9351
     /tmp/cc2IngwB.s:92961  .debug_str:000000000000d871 .LASF9352
     /tmp/cc2IngwB.s:107929  .debug_str:0000000000049fe1 .LASF9353
     /tmp/cc2IngwB.s:91215  .debug_str:0000000000006194 .LASF9354
     /tmp/cc2IngwB.s:96465  .debug_str:000000000001b25c .LASF9355
     /tmp/cc2IngwB.s:99519  .debug_str:0000000000027863 .LASF9356
     /tmp/cc2IngwB.s:94025  .debug_str:0000000000011453 .LASF9357
     /tmp/cc2IngwB.s:105865  .debug_str:0000000000041378 .LASF9358
     /tmp/cc2IngwB.s:97865  .debug_str:0000000000021054 .LASF9359
     /tmp/cc2IngwB.s:91713  .debug_str:000000000000832b .LASF9360
     /tmp/cc2IngwB.s:109199  .debug_str:000000000004f6fb .LASF9361
     /tmp/cc2IngwB.s:107381  .debug_str:0000000000047b67 .LASF9362
     /tmp/cc2IngwB.s:99559  .debug_str:0000000000027b15 .LASF9363
     /tmp/cc2IngwB.s:91715  .debug_str:0000000000008340 .LASF9364
     /tmp/cc2IngwB.s:102611  .debug_str:0000000000034214 .LASF9365
     /tmp/cc2IngwB.s:108267  .debug_str:000000000004b5e6 .LASF9366
     /tmp/cc2IngwB.s:101319  .debug_str:000000000002ecb5 .LASF9367
     /tmp/cc2IngwB.s:94301  .debug_str:000000000001267c .LASF9368
     /tmp/cc2IngwB.s:91635  .debug_str:0000000000007e63 .LASF9369
     /tmp/cc2IngwB.s:104343  .debug_str:000000000003ae19 .LASF9370
     /tmp/cc2IngwB.s:95887  .debug_str:0000000000018c74 .LASF9371
     /tmp/cc2IngwB.s:95889  .debug_str:0000000000018c83 .LASF9372
     /tmp/cc2IngwB.s:95891  .debug_str:0000000000018c92 .LASF9373
     /tmp/cc2IngwB.s:98051  .debug_str:0000000000021c54 .LASF9374
     /tmp/cc2IngwB.s:96307  .debug_str:000000000001a857 .LASF9375
     /tmp/cc2IngwB.s:96125  .debug_str:0000000000019c29 .LASF9376
     /tmp/cc2IngwB.s:98001  .debug_str:0000000000021914 .LASF9377
     /tmp/cc2IngwB.s:105955  .debug_str:0000000000041bd9 .LASF9378
     /tmp/cc2IngwB.s:94433  .debug_str:0000000000012ea7 .LASF9379
     /tmp/cc2IngwB.s:103869  .debug_str:00000000000392da .LASF9380
     /tmp/cc2IngwB.s:93275  .debug_str:000000000000ea2f .LASF9381
     /tmp/cc2IngwB.s:94267  .debug_str:00000000000123f2 .LASF9382
     /tmp/cc2IngwB.s:97991  .debug_str:0000000000021840 .LASF9383
     /tmp/cc2IngwB.s:91047  .debug_str:00000000000056b1 .LASF9384
     /tmp/cc2IngwB.s:91435  .debug_str:0000000000007168 .LASF9385
     /tmp/cc2IngwB.s:94941  .debug_str:0000000000014f57 .LASF9386
     /tmp/cc2IngwB.s:94573  .debug_str:0000000000013926 .LASF9387
     /tmp/cc2IngwB.s:105907  .debug_str:000000000004179b .LASF9388
     /tmp/cc2IngwB.s:108535  .debug_str:000000000004c8e0 .LASF9389
     /tmp/cc2IngwB.s:105905  .debug_str:0000000000041792 .LASF9390
     /tmp/cc2IngwB.s:106239  .debug_str:0000000000043248 .LASF9391
     /tmp/cc2IngwB.s:105773  .debug_str:0000000000040ccd .LASF9392
     /tmp/cc2IngwB.s:95741  .debug_str:000000000001838f .LASF9393
     /tmp/cc2IngwB.s:101691  .debug_str:000000000003055c .LASF9394
     /tmp/cc2IngwB.s:94707  .debug_str:0000000000014136 .LASF9395
     /tmp/cc2IngwB.s:98899  .debug_str:0000000000025445 .LASF9396
     /tmp/cc2IngwB.s:95893  .debug_str:0000000000018ca1 .LASF9397
     /tmp/cc2IngwB.s:105123  .debug_str:000000000003e3b6 .LASF9398
     /tmp/cc2IngwB.s:95895  .debug_str:0000000000018cb0 .LASF9399
     /tmp/cc2IngwB.s:100377  .debug_str:000000000002b101 .LASF9400
     /tmp/cc2IngwB.s:91133  .debug_str:0000000000005c92 .LASF9401
     /tmp/cc2IngwB.s:101735  .debug_str:00000000000307c6 .LASF9402
     /tmp/cc2IngwB.s:100209  .debug_str:000000000002a6c1 .LASF9403
     /tmp/cc2IngwB.s:99051  .debug_str:0000000000025d09 .LASF9404
     /tmp/cc2IngwB.s:98341  .debug_str:0000000000022fcf .LASF9405
     /tmp/cc2IngwB.s:91581  .debug_str:0000000000007ae5 .LASF9406
     /tmp/cc2IngwB.s:106551  .debug_str:0000000000044669 .LASF9407
     /tmp/cc2IngwB.s:101105  .debug_str:000000000002de33 .LASF9408
     /tmp/cc2IngwB.s:100073  .debug_str:0000000000029dd6 .LASF9409
     /tmp/cc2IngwB.s:98037  .debug_str:0000000000021bc7 .LASF9410
     /tmp/cc2IngwB.s:95479  .debug_str:00000000000171b1 .LASF9411
     /tmp/cc2IngwB.s:105781  .debug_str:0000000000040d49 .LASF9412
     /tmp/cc2IngwB.s:105917  .debug_str:0000000000041870 .LASF9413
     /tmp/cc2IngwB.s:90149  .debug_str:0000000000001a70 .LASF9414
     /tmp/cc2IngwB.s:96897  .debug_str:000000000001cd81 .LASF9415
     /tmp/cc2IngwB.s:102883  .debug_str:00000000000353e9 .LASF9416
     /tmp/cc2IngwB.s:94095  .debug_str:0000000000011803 .LASF9417
     /tmp/cc2IngwB.s:98467  .debug_str:000000000002380d .LASF9418
     /tmp/cc2IngwB.s:92309  .debug_str:000000000000abe4 .LASF9419
     /tmp/cc2IngwB.s:98609  .debug_str:00000000000241fb .LASF9420
     /tmp/cc2IngwB.s:100055  .debug_str:0000000000029c8a .LASF9421
     /tmp/cc2IngwB.s:106621  .debug_str:0000000000044b08 .LASF9422
     /tmp/cc2IngwB.s:102117  .debug_str:000000000003204d .LASF9423
     /tmp/cc2IngwB.s:107813  .debug_str:000000000004980d .LASF9424
     /tmp/cc2IngwB.s:91209  .debug_str:0000000000006135 .LASF9425
     /tmp/cc2IngwB.s:100985  .debug_str:000000000002d6ea .LASF9426
     /tmp/cc2IngwB.s:100255  .debug_str:000000000002aa22 .LASF9427
     /tmp/cc2IngwB.s:93427  .debug_str:000000000000f190 .LASF9428
     /tmp/cc2IngwB.s:92617  .debug_str:000000000000c247 .LASF9429
     /tmp/cc2IngwB.s:93561  .debug_str:000000000000f935 .LASF9430
     /tmp/cc2IngwB.s:92385  .debug_str:000000000000b127 .LASF9431
     /tmp/cc2IngwB.s:108217  .debug_str:000000000004b2a7 .LASF9432
     /tmp/cc2IngwB.s:107451  .debug_str:0000000000048048 .LASF9433
     /tmp/cc2IngwB.s:106413  .debug_str:0000000000043d77 .LASF9434
     /tmp/cc2IngwB.s:91201  .debug_str:00000000000060c0 .LASF9435
     /tmp/cc2IngwB.s:93223  .debug_str:000000000000e7a5 .LASF9436
     /tmp/cc2IngwB.s:104901  .debug_str:000000000003d47b .LASF9437
     /tmp/cc2IngwB.s:94153  .debug_str:0000000000011bdf .LASF9438
     /tmp/cc2IngwB.s:99965  .debug_str:0000000000029774 .LASF9439
     /tmp/cc2IngwB.s:91437  .debug_str:0000000000007183 .LASF9440
     /tmp/cc2IngwB.s:95611  .debug_str:0000000000017ad3 .LASF9441
     /tmp/cc2IngwB.s:92467  .debug_str:000000000000b73e .LASF9442
     /tmp/cc2IngwB.s:102123  .debug_str:0000000000032097 .LASF9443
     /tmp/cc2IngwB.s:89807  .debug_str:0000000000000273 .LASF9444
     /tmp/cc2IngwB.s:105739  .debug_str:0000000000040b01 .LASF9445
     /tmp/cc2IngwB.s:96219  .debug_str:000000000001a275 .LASF9446
     /tmp/cc2IngwB.s:100627  .debug_str:000000000002c0ca .LASF9447
     /tmp/cc2IngwB.s:91053  .debug_str:00000000000056e4 .LASF9448
     /tmp/cc2IngwB.s:104317  .debug_str:000000000003ac54 .LASF9449
     /tmp/cc2IngwB.s:91241  .debug_str:0000000000006357 .LASF9450
     /tmp/cc2IngwB.s:102119  .debug_str:0000000000032053 .LASF9451
     /tmp/cc2IngwB.s:99889  .debug_str:00000000000291b5 .LASF9452
     /tmp/cc2IngwB.s:90765  .debug_str:000000000000444f .LASF9453
     /tmp/cc2IngwB.s:108115  .debug_str:000000000004aba9 .LASF9454
     /tmp/cc2IngwB.s:99429  .debug_str:000000000002736d .LASF9455
     /tmp/cc2IngwB.s:96585  .debug_str:000000000001b9ac .LASF9456
     /tmp/cc2IngwB.s:99125  .debug_str:00000000000260ca .LASF9457
     /tmp/cc2IngwB.s:96413  .debug_str:000000000001afc2 .LASF9458
     /tmp/cc2IngwB.s:108475  .debug_str:000000000004c4cd .LASF9459
     /tmp/cc2IngwB.s:96563  .debug_str:000000000001b821 .LASF9460
     /tmp/cc2IngwB.s:99653  .debug_str:00000000000281c0 .LASF9461
     /tmp/cc2IngwB.s:104999  .debug_str:000000000003daa4 .LASF9462
     /tmp/cc2IngwB.s:90329  .debug_str:00000000000026c5 .LASF9463
     /tmp/cc2IngwB.s:90537  .debug_str:0000000000003498 .LASF9464
     /tmp/cc2IngwB.s:100531  .debug_str:000000000002bb46 .LASF9465
     /tmp/cc2IngwB.s:96567  .debug_str:000000000001b865 .LASF9466
     /tmp/cc2IngwB.s:103639  .debug_str:000000000003869f .LASF9467
     /tmp/cc2IngwB.s:99977  .debug_str:000000000002982c .LASF9468
     /tmp/cc2IngwB.s:102785  .debug_str:0000000000034c46 .LASF9469
     /tmp/cc2IngwB.s:97813  .debug_str:0000000000020d11 .LASF9470
     /tmp/cc2IngwB.s:98749  .debug_str:0000000000024b88 .LASF9471
     /tmp/cc2IngwB.s:90369  .debug_str:000000000000296b .LASF9472
     /tmp/cc2IngwB.s:90085  .debug_str:00000000000014ed .LASF9473
     /tmp/cc2IngwB.s:98167  .debug_str:0000000000022436 .LASF9474
     /tmp/cc2IngwB.s:93209  .debug_str:000000000000e687 .LASF9475
     /tmp/cc2IngwB.s:102113  .debug_str:0000000000031ffc .LASF9476
     /tmp/cc2IngwB.s:107431  .debug_str:0000000000047f59 .LASF9477
     /tmp/cc2IngwB.s:98119  .debug_str:00000000000221e5 .LASF9478
     /tmp/cc2IngwB.s:104023  .debug_str:0000000000039afb .LASF9479
     /tmp/cc2IngwB.s:97837  .debug_str:0000000000020ed9 .LASF9480
     /tmp/cc2IngwB.s:98115  .debug_str:00000000000221b1 .LASF9481
     /tmp/cc2IngwB.s:106611  .debug_str:0000000000044a5a .LASF9482
     /tmp/cc2IngwB.s:100089  .debug_str:0000000000029ea9 .LASF9483
     /tmp/cc2IngwB.s:92361  .debug_str:000000000000afa0 .LASF9484
     /tmp/cc2IngwB.s:91643  .debug_str:0000000000007edd .LASF9485
     /tmp/cc2IngwB.s:100435  .debug_str:000000000002b55d .LASF9486
     /tmp/cc2IngwB.s:107269  .debug_str:00000000000473f7 .LASF9487
     /tmp/cc2IngwB.s:106033  .debug_str:00000000000420f6 .LASF9488
     /tmp/cc2IngwB.s:103823  .debug_str:0000000000038fea .LASF9489
     /tmp/cc2IngwB.s:98515  .debug_str:0000000000023beb .LASF9490
     /tmp/cc2IngwB.s:106365  .debug_str:00000000000439f3 .LASF9491
     /tmp/cc2IngwB.s:101861  .debug_str:0000000000031015 .LASF9492
     /tmp/cc2IngwB.s:102337  .debug_str:0000000000032f29 .LASF9493
     /tmp/cc2IngwB.s:91273  .debug_str:000000000000655e .LASF9494
     /tmp/cc2IngwB.s:108837  .debug_str:000000000004dd1e .LASF9495
     /tmp/cc2IngwB.s:107355  .debug_str:00000000000479e9 .LASF9496
     /tmp/cc2IngwB.s:90929  .debug_str:0000000000004f33 .LASF9497
     /tmp/cc2IngwB.s:97091  .debug_str:000000000001d9ba .LASF9498
     /tmp/cc2IngwB.s:106547  .debug_str:0000000000044652 .LASF9499
     /tmp/cc2IngwB.s:105265  .debug_str:000000000003ed87 .LASF9500
     /tmp/cc2IngwB.s:97805  .debug_str:0000000000020cea .LASF9501
     /tmp/cc2IngwB.s:97807  .debug_str:0000000000020cf4 .LASF9502
     /tmp/cc2IngwB.s:107975  .debug_str:000000000004a2b7 .LASF9503
     /tmp/cc2IngwB.s:97811  .debug_str:0000000000020d07 .LASF9504
     /tmp/cc2IngwB.s:102967  .debug_str:00000000000359e2 .LASF9505
     /tmp/cc2IngwB.s:101709  .debug_str:0000000000030664 .LASF9506
     /tmp/cc2IngwB.s:107213  .debug_str:0000000000047092 .LASF9507
     /tmp/cc2IngwB.s:100205  .debug_str:000000000002a67b .LASF9508
     /tmp/cc2IngwB.s:96247  .debug_str:000000000001a459 .LASF9509
     /tmp/cc2IngwB.s:102563  .debug_str:0000000000033eb0 .LASF9510
     /tmp/cc2IngwB.s:92209  .debug_str:000000000000a4dc .LASF9511
     /tmp/cc2IngwB.s:96019  .debug_str:0000000000019480 .LASF9512
     /tmp/cc2IngwB.s:92211  .debug_str:000000000000a4e7 .LASF9513
     /tmp/cc2IngwB.s:94209  .debug_str:0000000000011fe7 .LASF9514
     /tmp/cc2IngwB.s:92213  .debug_str:000000000000a4f2 .LASF9515
     /tmp/cc2IngwB.s:100765  .debug_str:000000000002c991 .LASF9516
     /tmp/cc2IngwB.s:92215  .debug_str:000000000000a4fd .LASF9517
     /tmp/cc2IngwB.s:97077  .debug_str:000000000001d8bf .LASF9518
     /tmp/cc2IngwB.s:104933  .debug_str:000000000003d69b .LASF9519
     /tmp/cc2IngwB.s:90709  .debug_str:0000000000003fc6 .LASF9520
     /tmp/cc2IngwB.s:103115  .debug_str:00000000000364ef .LASF9521
     /tmp/cc2IngwB.s:91087  .debug_str:0000000000005982 .LASF9522
     /tmp/cc2IngwB.s:100001  .debug_str:000000000002998d .LASF9523
     /tmp/cc2IngwB.s:106753  .debug_str:0000000000045392 .LASF9524
     /tmp/cc2IngwB.s:100003  .debug_str:0000000000029997 .LASF9525
     /tmp/cc2IngwB.s:104127  .debug_str:000000000003a07f .LASF9526
     /tmp/cc2IngwB.s:100005  .debug_str:00000000000299a1 .LASF9527
     /tmp/cc2IngwB.s:94231  .debug_str:0000000000012134 .LASF9528
     /tmp/cc2IngwB.s:100007  .debug_str:00000000000299ab .LASF9529
     /tmp/cc2IngwB.s:107735  .debug_str:000000000004931a .LASF9530
     /tmp/cc2IngwB.s:100009  .debug_str:00000000000299b5 .LASF9531
     /tmp/cc2IngwB.s:105713  .debug_str:0000000000040957 .LASF9532
     /tmp/cc2IngwB.s:100011  .debug_str:00000000000299bf .LASF9533
     /tmp/cc2IngwB.s:95215  .debug_str:00000000000160bf .LASF9534
     /tmp/cc2IngwB.s:100013  .debug_str:00000000000299c9 .LASF9535
     /tmp/cc2IngwB.s:108701  .debug_str:000000000004d3e1 .LASF9536
     /tmp/cc2IngwB.s:98991  .debug_str:000000000002594f .LASF9537
     /tmp/cc2IngwB.s:93185  .debug_str:000000000000e52c .LASF9538
     /tmp/cc2IngwB.s:96039  .debug_str:0000000000019595 .LASF9539
     /tmp/cc2IngwB.s:100557  .debug_str:000000000002bd05 .LASF9540
     /tmp/cc2IngwB.s:94159  .debug_str:0000000000011c5f .LASF9541
     /tmp/cc2IngwB.s:95033  .debug_str:00000000000154e1 .LASF9542
     /tmp/cc2IngwB.s:107069  .debug_str:00000000000467cd .LASF9543
     /tmp/cc2IngwB.s:93855  .debug_str:0000000000010a8d .LASF9544
     /tmp/cc2IngwB.s:105925  .debug_str:00000000000418de .LASF9545
     /tmp/cc2IngwB.s:108179  .debug_str:000000000004af93 .LASF9546
     /tmp/cc2IngwB.s:105193  .debug_str:000000000003e8f5 .LASF9547
     /tmp/cc2IngwB.s:94869  .debug_str:0000000000014b70 .LASF9548
     /tmp/cc2IngwB.s:90187  .debug_str:0000000000001d27 .LASF9549
     /tmp/cc2IngwB.s:101037  .debug_str:000000000002d9ce .LASF9550
     /tmp/cc2IngwB.s:108295  .debug_str:000000000004b7ca .LASF9551
     /tmp/cc2IngwB.s:104461  .debug_str:000000000003b671 .LASF9552
     /tmp/cc2IngwB.s:102159  .debug_str:0000000000032291 .LASF9553
     /tmp/cc2IngwB.s:106685  .debug_str:0000000000044f62 .LASF9554
     /tmp/cc2IngwB.s:97827  .debug_str:0000000000020e18 .LASF9555
     /tmp/cc2IngwB.s:102011  .debug_str:000000000003195b .LASF9556
     /tmp/cc2IngwB.s:94317  .debug_str:000000000001271f .LASF9557
     /tmp/cc2IngwB.s:94545  .debug_str:0000000000013713 .LASF9558
     /tmp/cc2IngwB.s:96655  .debug_str:000000000001bd44 .LASF9559
     /tmp/cc2IngwB.s:97859  .debug_str:0000000000020ffe .LASF9560
     /tmp/cc2IngwB.s:99375  .debug_str:0000000000026fa7 .LASF9561
     /tmp/cc2IngwB.s:91801  .debug_str:0000000000008948 .LASF9562
     /tmp/cc2IngwB.s:101259  .debug_str:000000000002e897 .LASF9563
     /tmp/cc2IngwB.s:96203  .debug_str:000000000001a17d .LASF9564
     /tmp/cc2IngwB.s:95395  .debug_str:0000000000016bff .LASF9565
     /tmp/cc2IngwB.s:107111  .debug_str:0000000000046a93 .LASF9566
     /tmp/cc2IngwB.s:96171  .debug_str:0000000000019f81 .LASF9567
     /tmp/cc2IngwB.s:99947  .debug_str:000000000002962f .LASF9568
     /tmp/cc2IngwB.s:89983  .debug_str:0000000000000dd0 .LASF9569
     /tmp/cc2IngwB.s:96857  .debug_str:000000000001cabc .LASF9570
     /tmp/cc2IngwB.s:103651  .debug_str:00000000000386c9 .LASF9571
     /tmp/cc2IngwB.s:102021  .debug_str:00000000000319f2 .LASF9572
     /tmp/cc2IngwB.s:98497  .debug_str:0000000000023ab9 .LASF9573
     /tmp/cc2IngwB.s:99633  .debug_str:00000000000280d1 .LASF9574
     /tmp/cc2IngwB.s:98293  .debug_str:0000000000022cb2 .LASF9575
     /tmp/cc2IngwB.s:90185  .debug_str:0000000000001d03 .LASF9576
     /tmp/cc2IngwB.s:92923  .debug_str:000000000000d666 .LASF9577
     /tmp/cc2IngwB.s:92651  .debug_str:000000000000c44d .LASF9578
     /tmp/cc2IngwB.s:101249  .debug_str:000000000002e82e .LASF9579
     /tmp/cc2IngwB.s:96937  .debug_str:000000000001cfc4 .LASF9580
     /tmp/cc2IngwB.s:100999  .debug_str:000000000002d7f0 .LASF9581
     /tmp/cc2IngwB.s:101001  .debug_str:000000000002d7f5 .LASF9582
     /tmp/cc2IngwB.s:91601  .debug_str:0000000000007c02 .LASF9583
     /tmp/cc2IngwB.s:91603  .debug_str:0000000000007c07 .LASF9584
     /tmp/cc2IngwB.s:108477  .debug_str:000000000004c4e2 .LASF9585
     /tmp/cc2IngwB.s:104913  .debug_str:000000000003d50c .LASF9586
     /tmp/cc2IngwB.s:106285  .debug_str:00000000000434f4 .LASF9587
     /tmp/cc2IngwB.s:106287  .debug_str:00000000000434fa .LASF9588
     /tmp/cc2IngwB.s:99427  .debug_str:0000000000027367 .LASF9589
     /tmp/cc2IngwB.s:99431  .debug_str:000000000002737b .LASF9590
     /tmp/cc2IngwB.s:96155  .debug_str:0000000000019e23 .LASF9591
     /tmp/cc2IngwB.s:106749  .debug_str:000000000004536c .LASF9592
     /tmp/cc2IngwB.s:90631  .debug_str:0000000000003a8a .LASF9593
     /tmp/cc2IngwB.s:98043  .debug_str:0000000000021c07 .LASF9594
     /tmp/cc2IngwB.s:100727  .debug_str:000000000002c771 .LASF9595
     /tmp/cc2IngwB.s:106231  .debug_str:0000000000043196 .LASF9596
     /tmp/cc2IngwB.s:94179  .debug_str:0000000000011dcf .LASF9597
     /tmp/cc2IngwB.s:101049  .debug_str:000000000002dab9 .LASF9598
     /tmp/cc2IngwB.s:90453  .debug_str:0000000000002ef3 .LASF9599
     /tmp/cc2IngwB.s:90507  .debug_str:0000000000003280 .LASF9600
     /tmp/cc2IngwB.s:98701  .debug_str:00000000000247fd .LASF9601
     /tmp/cc2IngwB.s:101051  .debug_str:000000000002dac2 .LASF9602
     /tmp/cc2IngwB.s:100599  .debug_str:000000000002bf4d .LASF9603
     /tmp/cc2IngwB.s:96189  .debug_str:000000000001a0b6 .LASF9604
     /tmp/cc2IngwB.s:91571  .debug_str:0000000000007a4d .LASF9605
     /tmp/cc2IngwB.s:101599  .debug_str:000000000002ffa2 .LASF9606
     /tmp/cc2IngwB.s:90997  .debug_str:0000000000005356 .LASF9607
     /tmp/cc2IngwB.s:105689  .debug_str:00000000000407c4 .LASF9608
     /tmp/cc2IngwB.s:109021  .debug_str:000000000004eb34 .LASF9609
     /tmp/cc2IngwB.s:97541  .debug_str:000000000001f9a2 .LASF9610
     /tmp/cc2IngwB.s:109295  .debug_str:000000000004fcf8 .LASF9611
     /tmp/cc2IngwB.s:91943  .debug_str:00000000000092e8 .LASF9612
     /tmp/cc2IngwB.s:90389  .debug_str:0000000000002ac4 .LASF9613
     /tmp/cc2IngwB.s:106335  .debug_str:00000000000437d4 .LASF9614
     /tmp/cc2IngwB.s:105595  .debug_str:0000000000040226 .LASF9615
     /tmp/cc2IngwB.s:99585  .debug_str:0000000000027d43 .LASF9616
     /tmp/cc2IngwB.s:104321  .debug_str:000000000003ac97 .LASF9617
     /tmp/cc2IngwB.s:107585  .debug_str:00000000000489ab .LASF9618
     /tmp/cc2IngwB.s:95797  .debug_str:0000000000018736 .LASF9619
     /tmp/cc2IngwB.s:101627  .debug_str:000000000003013b .LASF9620
     /tmp/cc2IngwB.s:105103  .debug_str:000000000003e216 .LASF9621
     /tmp/cc2IngwB.s:102429  .debug_str:0000000000033558 .LASF9622
     /tmp/cc2IngwB.s:100917  .debug_str:000000000002d33a .LASF9623
     /tmp/cc2IngwB.s:94897  .debug_str:0000000000014d22 .LASF9624
     /tmp/cc2IngwB.s:97463  .debug_str:000000000001f318 .LASF9625
     /tmp/cc2IngwB.s:104341  .debug_str:000000000003ae11 .LASF9626
     /tmp/cc2IngwB.s:105869  .debug_str:00000000000413a8 .LASF9627
     /tmp/cc2IngwB.s:96581  .debug_str:000000000001b996 .LASF9628
     /tmp/cc2IngwB.s:96589  .debug_str:000000000001b9c5 .LASF9629
     /tmp/cc2IngwB.s:100815  .debug_str:000000000002ccaa .LASF9630
     /tmp/cc2IngwB.s:103507  .debug_str:0000000000037dcd .LASF9631
     /tmp/cc2IngwB.s:100921  .debug_str:000000000002d36d .LASF9632
     /tmp/cc2IngwB.s:94345  .debug_str:00000000000128d7 .LASF9633
     /tmp/cc2IngwB.s:97261  .debug_str:000000000001e5db .LASF9634
     /tmp/cc2IngwB.s:96819  .debug_str:000000000001c869 .LASF9635
     /tmp/cc2IngwB.s:109403  .debug_str:0000000000050468 .LASF9636
     /tmp/cc2IngwB.s:89955  .debug_str:0000000000000c00 .LASF9637
     /tmp/cc2IngwB.s:90077  .debug_str:000000000000147e .LASF9638
     /tmp/cc2IngwB.s:96395  .debug_str:000000000001ae2e .LASF9639
     /tmp/cc2IngwB.s:91315  .debug_str:000000000000680d .LASF9640
     /tmp/cc2IngwB.s:99139  .debug_str:00000000000261c6 .LASF9641
     /tmp/cc2IngwB.s:105867  .debug_str:00000000000413a1 .LASF9642
     /tmp/cc2IngwB.s:96587  .debug_str:000000000001b9bb .LASF9643
     /tmp/cc2IngwB.s:100451  .debug_str:000000000002b627 .LASF9644
     /tmp/cc2IngwB.s:96103  .debug_str:0000000000019a8f .LASF9645
     /tmp/cc2IngwB.s:90079  .debug_str:0000000000001489 .LASF9646
     /tmp/cc2IngwB.s:90115  .debug_str:00000000000016f5 .LASF9647
     /tmp/cc2IngwB.s:103629  .debug_str:00000000000385f8 .LASF9648
     /tmp/cc2IngwB.s:97413  .debug_str:000000000001f008 .LASF9649
     /tmp/cc2IngwB.s:97415  .debug_str:000000000001f012 .LASF9650
     /tmp/cc2IngwB.s:97417  .debug_str:000000000001f01c .LASF9651
     /tmp/cc2IngwB.s:97419  .debug_str:000000000001f026 .LASF9652
     /tmp/cc2IngwB.s:97421  .debug_str:000000000001f030 .LASF9653
     /tmp/cc2IngwB.s:102713  .debug_str:0000000000034843 .LASF9654
     /tmp/cc2IngwB.s:97423  .debug_str:000000000001f03a .LASF9655
     /tmp/cc2IngwB.s:93387  .debug_str:000000000000ef31 .LASF9656
     /tmp/cc2IngwB.s:93389  .debug_str:000000000000ef3c .LASF9657
     /tmp/cc2IngwB.s:108909  .debug_str:000000000004e265 .LASF9658
     /tmp/cc2IngwB.s:106029  .debug_str:00000000000420e0 .LASF9659
     /tmp/cc2IngwB.s:91457  .debug_str:00000000000072ef .LASF9660
     /tmp/cc2IngwB.s:98419  .debug_str:00000000000234d9 .LASF9661
     /tmp/cc2IngwB.s:91629  .debug_str:0000000000007e0d .LASF9662
     /tmp/cc2IngwB.s:106031  .debug_str:00000000000420eb .LASF9663
     /tmp/cc2IngwB.s:105043  .debug_str:000000000003dd84 .LASF9664
     /tmp/cc2IngwB.s:90255  .debug_str:00000000000021d9 .LASF9665
     /tmp/cc2IngwB.s:101127  .debug_str:000000000002e038 .LASF9666
     /tmp/cc2IngwB.s:98757  .debug_str:0000000000024bf6 .LASF9667
     /tmp/cc2IngwB.s:105253  .debug_str:000000000003ecda .LASF9668
     /tmp/cc2IngwB.s:104865  .debug_str:000000000003d1f5 .LASF9669
     /tmp/cc2IngwB.s:90237  .debug_str:00000000000020b4 .LASF9670
     /tmp/cc2IngwB.s:94497  .debug_str:0000000000013335 .LASF9671
     /tmp/cc2IngwB.s:97641  .debug_str:0000000000020038 .LASF9672
     /tmp/cc2IngwB.s:98825  .debug_str:0000000000025029 .LASF9673
     /tmp/cc2IngwB.s:94055  .debug_str:000000000001163f .LASF9674
     /tmp/cc2IngwB.s:98827  .debug_str:0000000000025034 .LASF9675
     /tmp/cc2IngwB.s:106745  .debug_str:0000000000045301 .LASF9676
     /tmp/cc2IngwB.s:94997  .debug_str:00000000000152b6 .LASF9677
     /tmp/cc2IngwB.s:108961  .debug_str:000000000004e6dc .LASF9678
     /tmp/cc2IngwB.s:94999  .debug_str:00000000000152c1 .LASF9679
     /tmp/cc2IngwB.s:102811  .debug_str:0000000000034e65 .LASF9680
     /tmp/cc2IngwB.s:95001  .debug_str:00000000000152cc .LASF9681
     /tmp/cc2IngwB.s:96471  .debug_str:000000000001b2df .LASF9682
     /tmp/cc2IngwB.s:98125  .debug_str:0000000000022220 .LASF9683
     /tmp/cc2IngwB.s:103781  .debug_str:0000000000038e31 .LASF9684
     /tmp/cc2IngwB.s:94789  .debug_str:0000000000014646 .LASF9685
     /tmp/cc2IngwB.s:91887  .debug_str:0000000000008eea .LASF9686
     /tmp/cc2IngwB.s:94791  .debug_str:0000000000014651 .LASF9687
     /tmp/cc2IngwB.s:105465  .debug_str:000000000003f9d1 .LASF9688
     /tmp/cc2IngwB.s:95135  .debug_str:0000000000015b89 .LASF9689
     /tmp/cc2IngwB.s:106857  .debug_str:00000000000459ed .LASF9690
     /tmp/cc2IngwB.s:103803  .debug_str:0000000000038f88 .LASF9691
     /tmp/cc2IngwB.s:100699  .debug_str:000000000002c5e6 .LASF9692
     /tmp/cc2IngwB.s:95143  .debug_str:0000000000015bfa .LASF9693
     /tmp/cc2IngwB.s:94347  .debug_str:00000000000128df .LASF9694
     /tmp/cc2IngwB.s:101857  .debug_str:0000000000030ff8 .LASF9695
     /tmp/cc2IngwB.s:90059  .debug_str:000000000000130d .LASF9696
     /tmp/cc2IngwB.s:96527  .debug_str:000000000001b62c .LASF9697
     /tmp/cc2IngwB.s:109415  .debug_str:0000000000050505 .LASF9698
     /tmp/cc2IngwB.s:96529  .debug_str:000000000001b637 .LASF9699
     /tmp/cc2IngwB.s:102451  .debug_str:0000000000033677 .LASF9700
     /tmp/cc2IngwB.s:92591  .debug_str:000000000000c09b .LASF9701
     /tmp/cc2IngwB.s:91789  .debug_str:00000000000088a2 .LASF9702
     /tmp/cc2IngwB.s:92593  .debug_str:000000000000c0a6 .LASF9703
     /tmp/cc2IngwB.s:98501  .debug_str:0000000000023ae3 .LASF9704
     /tmp/cc2IngwB.s:92595  .debug_str:000000000000c0b1 .LASF9705
     /tmp/cc2IngwB.s:92111  .debug_str:0000000000009ef4 .LASF9706
     /tmp/cc2IngwB.s:105485  .debug_str:000000000003fb44 .LASF9707
     /tmp/cc2IngwB.s:96201  .debug_str:000000000001a157 .LASF9708
     /tmp/cc2IngwB.s:99989  .debug_str:00000000000298f4 .LASF9709
     /tmp/cc2IngwB.s:99991  .debug_str:0000000000029908 .LASF9710
     /tmp/cc2IngwB.s:99993  .debug_str:000000000002991c .LASF9711
     /tmp/cc2IngwB.s:98993  .debug_str:000000000002595b .LASF9712
     /tmp/cc2IngwB.s:98995  .debug_str:000000000002596c .LASF9713
     /tmp/cc2IngwB.s:90271  .debug_str:000000000000233c .LASF9714
     /tmp/cc2IngwB.s:98999  .debug_str:00000000000259aa .LASF9715
     /tmp/cc2IngwB.s:99001  .debug_str:00000000000259bb .LASF9716
     /tmp/cc2IngwB.s:91599  .debug_str:0000000000007bf0 .LASF9717
     /tmp/cc2IngwB.s:99085  .debug_str:0000000000025e35 .LASF9718
     /tmp/cc2IngwB.s:95111  .debug_str:00000000000159be .LASF9719
     /tmp/cc2IngwB.s:95137  .debug_str:0000000000015b94 .LASF9720
     /tmp/cc2IngwB.s:108819  .debug_str:000000000004dc0d .LASF9721
     /tmp/cc2IngwB.s:106499  .debug_str:0000000000044338 .LASF9722
     /tmp/cc2IngwB.s:102559  .debug_str:0000000000033e86 .LASF9723
     /tmp/cc2IngwB.s:107993  .debug_str:000000000004a40f .LASF9724
     /tmp/cc2IngwB.s:106673  .debug_str:0000000000044e7d .LASF9725
     /tmp/cc2IngwB.s:90353  .debug_str:00000000000028a3 .LASF9726
     /tmp/cc2IngwB.s:97027  .debug_str:000000000001d5a5 .LASF9727
     /tmp/cc2IngwB.s:100943  .debug_str:000000000002d491 .LASF9728
     /tmp/cc2IngwB.s:103591  .debug_str:00000000000382db .LASF9729
     /tmp/cc2IngwB.s:106589  .debug_str:00000000000448fa .LASF9730
     /tmp/cc2IngwB.s:90971  .debug_str:00000000000051d0 .LASF9731
     /tmp/cc2IngwB.s:98251  .debug_str:00000000000229d7 .LASF9732
     /tmp/cc2IngwB.s:106355  .debug_str:000000000004392a .LASF9733
     /tmp/cc2IngwB.s:100723  .debug_str:000000000002c758 .LASF9734
     /tmp/cc2IngwB.s:99305  .debug_str:0000000000026b05 .LASF9735
     /tmp/cc2IngwB.s:101443  .debug_str:000000000002f4a9 .LASF9736
     /tmp/cc2IngwB.s:92303  .debug_str:000000000000abb5 .LASF9737
     /tmp/cc2IngwB.s:98479  .debug_str:00000000000238aa .LASF9738
     /tmp/cc2IngwB.s:101877  .debug_str:0000000000031161 .LASF9739
     /tmp/cc2IngwB.s:97741  .debug_str:000000000002080a .LASF9740
     /tmp/cc2IngwB.s:104379  .debug_str:000000000003b0e2 .LASF9741
     /tmp/cc2IngwB.s:104381  .debug_str:000000000003b0ed .LASF9742
     /tmp/cc2IngwB.s:104383  .debug_str:000000000003b0f8 .LASF9743
     /tmp/cc2IngwB.s:104385  .debug_str:000000000003b103 .LASF9744
     /tmp/cc2IngwB.s:90551  .debug_str:0000000000003513 .LASF9745
     /tmp/cc2IngwB.s:97605  .debug_str:000000000001fdfa .LASF9746
     /tmp/cc2IngwB.s:103169  .debug_str:0000000000036820 .LASF9747
     /tmp/cc2IngwB.s:102373  .debug_str:00000000000331ba .LASF9748
     /tmp/cc2IngwB.s:109053  .debug_str:000000000004ed3d .LASF9749
     /tmp/cc2IngwB.s:106789  .debug_str:0000000000045601 .LASF9750
     /tmp/cc2IngwB.s:92117  .debug_str:0000000000009f50 .LASF9751
     /tmp/cc2IngwB.s:106485  .debug_str:000000000004424d .LASF9752
     /tmp/cc2IngwB.s:108409  .debug_str:000000000004c077 .LASF9753
     /tmp/cc2IngwB.s:99261  .debug_str:0000000000026854 .LASF9754
     /tmp/cc2IngwB.s:93957  .debug_str:000000000001103a .LASF9755
     /tmp/cc2IngwB.s:96661  .debug_str:000000000001bdd0 .LASF9756
     /tmp/cc2IngwB.s:101571  .debug_str:000000000002fddf .LASF9757
     /tmp/cc2IngwB.s:89831  .debug_str:0000000000000400 .LASF9758
     /tmp/cc2IngwB.s:100071  .debug_str:0000000000029dca .LASF9759
     /tmp/cc2IngwB.s:105029  .debug_str:000000000003dcb3 .LASF9760
     /tmp/cc2IngwB.s:103211  .debug_str:0000000000036aff .LASF9764
     /tmp/cc2IngwB.s:101395  .debug_str:000000000002f1db .LASF9761
     /tmp/cc2IngwB.s:102649  .debug_str:000000000003443d .LASF9762
     /tmp/cc2IngwB.s:109441  .debug_str:00000000000506fe .LASF9763
     /tmp/cc2IngwB.s:94423  .debug_str:0000000000012e0e .LASF9765
     /tmp/cc2IngwB.s:91299  .debug_str:0000000000006730 .LASF9766
     /tmp/cc2IngwB.s:91301  .debug_str:0000000000006743 .LASF9767
     /tmp/cc2IngwB.s:91303  .debug_str:0000000000006756 .LASF9768
     /tmp/cc2IngwB.s:90901  .debug_str:0000000000004dae .LASF9769
     /tmp/cc2IngwB.s:91307  .debug_str:0000000000006792 .LASF9770
     /tmp/cc2IngwB.s:108083  .debug_str:000000000004aa0e .LASF9771
     /tmp/cc2IngwB.s:93531  .debug_str:000000000000f84a .LASF9772
     /tmp/cc2IngwB.s:108087  .debug_str:000000000004aa49 .LASF9773
     /tmp/cc2IngwB.s:108089  .debug_str:000000000004aa5a .LASF9774
     /tmp/cc2IngwB.s:108091  .debug_str:000000000004aa6b .LASF9775
     /tmp/cc2IngwB.s:93851  .debug_str:0000000000010a6d .LASF9776
     /tmp/cc2IngwB.s:93853  .debug_str:0000000000010a7d .LASF9777
     /tmp/cc2IngwB.s:96923  .debug_str:000000000001cf1d .LASF9778
     /tmp/cc2IngwB.s:96925  .debug_str:000000000001cf2d .LASF9779
     /tmp/cc2IngwB.s:104465  .debug_str:000000000003b6c3 .LASF9780
     /tmp/cc2IngwB.s:96767  .debug_str:000000000001c4b7 .LASF9781
     /tmp/cc2IngwB.s:107769  .debug_str:000000000004952a .LASF9782
     /tmp/cc2IngwB.s:107771  .debug_str:000000000004953a .LASF9783
     /tmp/cc2IngwB.s:104101  .debug_str:0000000000039ebb .LASF9784
     /tmp/cc2IngwB.s:93861  .debug_str:0000000000010ad1 .LASF9785
     /tmp/cc2IngwB.s:93863  .debug_str:0000000000010ae2 .LASF9786
     /tmp/cc2IngwB.s:93865  .debug_str:0000000000010af3 .LASF9787
     /tmp/cc2IngwB.s:104515  .debug_str:000000000003b9d8 .LASF9788
     /tmp/cc2IngwB.s:95937  .debug_str:0000000000018f0b .LASF9789
     /tmp/cc2IngwB.s:92967  .debug_str:000000000000d8c5 .LASF9790
     /tmp/cc2IngwB.s:97251  .debug_str:000000000001e550 .LASF9791
     /tmp/cc2IngwB.s:104875  .debug_str:000000000003d2a6 .LASF9792
     /tmp/cc2IngwB.s:95525  .debug_str:0000000000017429 .LASF9793
     /tmp/cc2IngwB.s:103047  .debug_str:0000000000035fa7 .LASF9794
     /tmp/cc2IngwB.s:103715  .debug_str:0000000000038ae5 .LASF9795
     /tmp/cc2IngwB.s:96905  .debug_str:000000000001ce28 .LASF9796
     /tmp/cc2IngwB.s:97857  .debug_str:0000000000020fef .LASF9797
     /tmp/cc2IngwB.s:101355  .debug_str:000000000002ef2f .LASF9798
     /tmp/cc2IngwB.s:101357  .debug_str:000000000002ef3f .LASF9799
     /tmp/cc2IngwB.s:101359  .debug_str:000000000002ef4f .LASF9800
     /tmp/cc2IngwB.s:101361  .debug_str:000000000002ef5f .LASF9801
     /tmp/cc2IngwB.s:109031  .debug_str:000000000004ebaf .LASF9802
     /tmp/cc2IngwB.s:94421  .debug_str:0000000000012dfe .LASF9803
     /tmp/cc2IngwB.s:108613  .debug_str:000000000004cdb5 .LASF9804
     /tmp/cc2IngwB.s:94495  .debug_str:0000000000013325 .LASF9805
     /tmp/cc2IngwB.s:103395  .debug_str:000000000003769d .LASF9806
     /tmp/cc2IngwB.s:94577  .debug_str:0000000000013945 .LASF9807
     /tmp/cc2IngwB.s:97947  .debug_str:000000000002156e .LASF9808
     /tmp/cc2IngwB.s:94653  .debug_str:0000000000013dd2 .LASF9809
     /tmp/cc2IngwB.s:98027  .debug_str:0000000000021b10 .LASF9810
     /tmp/cc2IngwB.s:94739  .debug_str:000000000001430d .LASF9811
     /tmp/cc2IngwB.s:98105  .debug_str:0000000000022118 .LASF9812
     /tmp/cc2IngwB.s:103351  .debug_str:00000000000373f4 .LASF9813
     /tmp/cc2IngwB.s:105453  .debug_str:000000000003f951 .LASF9814
     /tmp/cc2IngwB.s:94861  .debug_str:0000000000014aec .LASF9815
     /tmp/cc2IngwB.s:91295  .debug_str:000000000000670a .LASF9816
     /tmp/cc2IngwB.s:104345  .debug_str:000000000003ae36 .LASF9817
     /tmp/cc2IngwB.s:108127  .debug_str:000000000004ac15 .LASF9818
     /tmp/cc2IngwB.s:108171  .debug_str:000000000004aec8 .LASF9819
     /tmp/cc2IngwB.s:91621  .debug_str:0000000000007d67 .LASF9820
     /tmp/cc2IngwB.s:92041  .debug_str:000000000000996b .LASF9821
     /tmp/cc2IngwB.s:91511  .debug_str:0000000000007612 .LASF9822
     /tmp/cc2IngwB.s:108789  .debug_str:000000000004da5a .LASF9823
     /tmp/cc2IngwB.s:94353  .debug_str:0000000000012939 .LASF9824
     /tmp/cc2IngwB.s:103257  .debug_str:0000000000036da9 .LASF9825
     /tmp/cc2IngwB.s:108325  .debug_str:000000000004ba75 .LASF9826
     /tmp/cc2IngwB.s:107221  .debug_str:0000000000047119 .LASF9827
     /tmp/cc2IngwB.s:92351  .debug_str:000000000000aef4 .LASF9828
     /tmp/cc2IngwB.s:103839  .debug_str:000000000003911c .LASF9829
     /tmp/cc2IngwB.s:95351  .debug_str:00000000000168d6 .LASF9830
     /tmp/cc2IngwB.s:97213  .debug_str:000000000001e2a3 .LASF9831
     /tmp/cc2IngwB.s:96713  .debug_str:000000000001c14f .LASF9832
     /tmp/cc2IngwB.s:107759  .debug_str:000000000004948d .LASF9833
     /tmp/cc2IngwB.s:107459  .debug_str:00000000000480d7 .LASF9834
     /tmp/cc2IngwB.s:103573  .debug_str:0000000000038154 .LASF9835
     /tmp/cc2IngwB.s:98541  .debug_str:0000000000023d88 .LASF9836
     /tmp/cc2IngwB.s:99291  .debug_str:0000000000026a1b .LASF9837
     /tmp/cc2IngwB.s:108787  .debug_str:000000000004da47 .LASF9838
     /tmp/cc2IngwB.s:94989  .debug_str:000000000001522c .LASF9839
     /tmp/cc2IngwB.s:92917  .debug_str:000000000000d5f9 .LASF9840
     /tmp/cc2IngwB.s:107187  .debug_str:0000000000046f3a .LASF9841
     /tmp/cc2IngwB.s:100081  .debug_str:0000000000029e45 .LASF9858
     /tmp/cc2IngwB.s:492    .text.mss_get_apb_bus_cr:0000000000000000 .LFB29
     /tmp/cc2IngwB.s:514    .text.mss_get_apb_bus_cr:0000000000000018 .LFE29
     /tmp/cc2IngwB.s:94981  .debug_str:00000000000151ac .LASF9859
     /tmp/cc2IngwB.s:460    .text.mss_set_apb_bus_cr:0000000000000000 .LFB28
     /tmp/cc2IngwB.s:485    .text.mss_set_apb_bus_cr:0000000000000020 .LFE28
     /tmp/cc2IngwB.s:89801  .debug_str:0000000000000208 .LASF9844
     /tmp/cc2IngwB.s:105169  .debug_str:000000000003e754 .LASF9842
     /tmp/cc2IngwB.s:425    .text.mss_disable_fabric:0000000000000000 .LFB27
     /tmp/cc2IngwB.s:453    .text.mss_disable_fabric:000000000000002c .LFE27
     /tmp/cc2IngwB.s:93311  .debug_str:000000000000ec31 .LASF9843
     /tmp/cc2IngwB.s:389    .text.mss_enable_fabric:0000000000000000 .LFB26
     /tmp/cc2IngwB.s:418    .text.mss_enable_fabric:000000000000002c .LFE26
     /tmp/cc2IngwB.s:99371  .debug_str:0000000000026f77 .LASF9860
     /tmp/cc2IngwB.s:296    .text.mss_config_clk_rst:0000000000000000 .LFB25
     /tmp/cc2IngwB.s:382    .text.mss_config_clk_rst:00000000000000bc .LFE25
     /tmp/cc2IngwB.s:97069  .debug_str:000000000001d868 .LASF9845
     /tmp/cc2IngwB.s:92497  .debug_str:000000000000b9b4 .LASF9846
     /tmp/cc2IngwB.s:105415  .debug_str:000000000003f6b3 .LASF9847
     /tmp/cc2IngwB.s:92861  .debug_str:000000000000d22c .LASF9853
     /tmp/cc2IngwB.s:108887  .debug_str:000000000004e0b3 .LASF9849
     /tmp/cc2IngwB.s:213    .text.peripheral_on_off:0000000000000000 .LFB24
     /tmp/cc2IngwB.s:289    .text.peripheral_on_off:00000000000000ac .LFE24
     /tmp/cc2IngwB.s:106777  .debug_str:0000000000045575 .LASF9848
     /tmp/cc2IngwB.s:107437  .debug_str:0000000000047f7e .LASF9850
     /tmp/cc2IngwB.s:173    .text.verify_context_enable:0000000000000000 .LFB23
     /tmp/cc2IngwB.s:207    .text.verify_context_enable:0000000000000032 .LFE23
     /tmp/cc2IngwB.s:96983  .debug_str:000000000001d32b .LASF9851
     /tmp/cc2IngwB.s:100777  .debug_str:000000000002ca42 .LASF9852
     /tmp/cc2IngwB.s:533    .debug_info:0000000000000000 .Ldebug_info0
     /tmp/cc2IngwB.s:71196  .debug_macro:0000000000000000 .Ldebug_macro2
     /tmp/cc2IngwB.s:94625  .debug_str:0000000000013c38 .LASF324
     /tmp/cc2IngwB.s:100683  .debug_str:000000000002c4bb .LASF325
     /tmp/cc2IngwB.s:104269  .debug_str:000000000003a94e .LASF326
     /tmp/cc2IngwB.s:72173  .debug_macro:0000000000000000 .Ldebug_macro3
     /tmp/cc2IngwB.s:72193  .debug_macro:0000000000000000 .Ldebug_macro4
     /tmp/cc2IngwB.s:95515  .debug_str:00000000000173a2 .LASF341
     /tmp/cc2IngwB.s:72225  .debug_macro:0000000000000000 .Ldebug_macro5
     /tmp/cc2IngwB.s:72239  .debug_macro:0000000000000000 .Ldebug_macro6
     /tmp/cc2IngwB.s:72307  .debug_macro:0000000000000000 .Ldebug_macro7
     /tmp/cc2IngwB.s:72336  .debug_macro:0000000000000000 .Ldebug_macro8
     /tmp/cc2IngwB.s:72365  .debug_macro:0000000000000000 .Ldebug_macro9
     /tmp/cc2IngwB.s:92335  .debug_str:000000000000ad87 .LASF385
     /tmp/cc2IngwB.s:72379  .debug_macro:0000000000000000 .Ldebug_macro10
     /tmp/cc2IngwB.s:72423  .debug_macro:0000000000000000 .Ldebug_macro11
     /tmp/cc2IngwB.s:72491  .debug_macro:0000000000000000 .Ldebug_macro12
     /tmp/cc2IngwB.s:72859  .debug_macro:0000000000000000 .Ldebug_macro13
     /tmp/cc2IngwB.s:101623  .debug_str:000000000003010e .LASF573
     /tmp/cc2IngwB.s:72972  .debug_macro:0000000000000000 .Ldebug_macro14
     /tmp/cc2IngwB.s:104869  .debug_str:000000000003d220 .LASF576
     /tmp/cc2IngwB.s:101089  .debug_str:000000000002dd3a .LASF577
     /tmp/cc2IngwB.s:72983  .debug_macro:0000000000000000 .Ldebug_macro15
     /tmp/cc2IngwB.s:72997  .debug_macro:0000000000000000 .Ldebug_macro16
     /tmp/cc2IngwB.s:103187  .debug_str:000000000003696b .LASF582
     /tmp/cc2IngwB.s:73029  .debug_macro:0000000000000000 .Ldebug_macro17
     /tmp/cc2IngwB.s:73055  .debug_macro:0000000000000000 .Ldebug_macro18
     /tmp/cc2IngwB.s:73066  .debug_macro:0000000000000000 .Ldebug_macro19
     /tmp/cc2IngwB.s:73110  .debug_macro:0000000000000000 .Ldebug_macro20
     /tmp/cc2IngwB.s:73289  .debug_macro:0000000000000000 .Ldebug_macro21
     /tmp/cc2IngwB.s:73300  .debug_macro:0000000000000000 .Ldebug_macro22
     /tmp/cc2IngwB.s:93757  .debug_str:0000000000010544 .LASF682
     /tmp/cc2IngwB.s:73356  .debug_macro:0000000000000000 .Ldebug_macro23
     /tmp/cc2IngwB.s:73373  .debug_macro:0000000000000000 .Ldebug_macro24
     /tmp/cc2IngwB.s:102125  .debug_str:00000000000320be .LASF700
     /tmp/cc2IngwB.s:102339  .debug_str:0000000000032f34 .LASF701
     /tmp/cc2IngwB.s:73417  .debug_macro:0000000000000000 .Ldebug_macro25
     /tmp/cc2IngwB.s:100243  .debug_str:000000000002a92b .LASF712
     /tmp/cc2IngwB.s:90611  .debug_str:00000000000038fc .LASF713
     /tmp/cc2IngwB.s:73452  .debug_macro:0000000000000000 .Ldebug_macro26
     /tmp/cc2IngwB.s:73463  .debug_macro:0000000000000000 .Ldebug_macro27
     /tmp/cc2IngwB.s:73498  .debug_macro:0000000000000000 .Ldebug_macro28
     /tmp/cc2IngwB.s:99761  .debug_str:0000000000028890 .LASF758
     /tmp/cc2IngwB.s:73599  .debug_macro:0000000000000000 .Ldebug_macro29
     /tmp/cc2IngwB.s:73616  .debug_macro:0000000000000000 .Ldebug_macro30
     /tmp/cc2IngwB.s:99263  .debug_str:0000000000026866 .LASF772
     /tmp/cc2IngwB.s:94963  .debug_str:00000000000150a6 .LASF773
     /tmp/cc2IngwB.s:73648  .debug_macro:0000000000000000 .Ldebug_macro31
     /tmp/cc2IngwB.s:73662  .debug_macro:0000000000000000 .Ldebug_macro32
     /tmp/cc2IngwB.s:73814  .debug_macro:0000000000000000 .Ldebug_macro33
     /tmp/cc2IngwB.s:73828  .debug_macro:0000000000000000 .Ldebug_macro34
     /tmp/cc2IngwB.s:93207  .debug_str:000000000000e677 .LASF827
     /tmp/cc2IngwB.s:91111  .debug_str:0000000000005b23 .LASF828
     /tmp/cc2IngwB.s:107791  .debug_str:00000000000496c2 .LASF829
     /tmp/cc2IngwB.s:99951  .debug_str:0000000000029694 .LASF830
     /tmp/cc2IngwB.s:73854  .debug_macro:0000000000000000 .Ldebug_macro35
     /tmp/cc2IngwB.s:96453  .debug_str:000000000001b19f .LASF836
     /tmp/cc2IngwB.s:73874  .debug_macro:0000000000000000 .Ldebug_macro36
     /tmp/cc2IngwB.s:73996  .debug_macro:0000000000000000 .Ldebug_macro37
     /tmp/cc2IngwB.s:96033  .debug_str:0000000000019536 .LASF935
     /tmp/cc2IngwB.s:74208  .debug_macro:0000000000000000 .Ldebug_macro38
     /tmp/cc2IngwB.s:74219  .debug_macro:0000000000000000 .Ldebug_macro39
     /tmp/cc2IngwB.s:76018  .debug_macro:0000000000000000 .Ldebug_macro40
     /tmp/cc2IngwB.s:97233  .debug_str:000000000001e439 .LASF1558
     /tmp/cc2IngwB.s:76089  .debug_macro:0000000000000000 .Ldebug_macro41
     /tmp/cc2IngwB.s:105629  .debug_str:000000000004043f .LASF3749
     /tmp/cc2IngwB.s:82664  .debug_macro:0000000000000000 .Ldebug_macro42
     /tmp/cc2IngwB.s:82681  .debug_macro:0000000000000000 .Ldebug_macro43
     /tmp/cc2IngwB.s:82704  .debug_macro:0000000000000000 .Ldebug_macro44
     /tmp/cc2IngwB.s:82721  .debug_macro:0000000000000000 .Ldebug_macro45
     /tmp/cc2IngwB.s:82750  .debug_macro:0000000000000000 .Ldebug_macro46
     /tmp/cc2IngwB.s:82809  .debug_macro:0000000000000000 .Ldebug_macro47
     /tmp/cc2IngwB.s:82832  .debug_macro:0000000000000000 .Ldebug_macro48
     /tmp/cc2IngwB.s:82891  .debug_macro:0000000000000000 .Ldebug_macro49
     /tmp/cc2IngwB.s:85650  .debug_macro:0000000000000000 .Ldebug_macro50
     /tmp/cc2IngwB.s:85694  .debug_macro:0000000000000000 .Ldebug_macro51
     /tmp/cc2IngwB.s:85780  .debug_macro:0000000000000000 .Ldebug_macro52
     /tmp/cc2IngwB.s:85809  .debug_macro:0000000000000000 .Ldebug_macro53
     /tmp/cc2IngwB.s:85868  .debug_macro:0000000000000000 .Ldebug_macro54
     /tmp/cc2IngwB.s:85930  .debug_macro:0000000000000000 .Ldebug_macro55
     /tmp/cc2IngwB.s:85992  .debug_macro:0000000000000000 .Ldebug_macro56
     /tmp/cc2IngwB.s:86054  .debug_macro:0000000000000000 .Ldebug_macro57
     /tmp/cc2IngwB.s:86116  .debug_macro:0000000000000000 .Ldebug_macro58
     /tmp/cc2IngwB.s:86178  .debug_macro:0000000000000000 .Ldebug_macro59
     /tmp/cc2IngwB.s:86234  .debug_macro:0000000000000000 .Ldebug_macro60
     /tmp/cc2IngwB.s:86290  .debug_macro:0000000000000000 .Ldebug_macro61
     /tmp/cc2IngwB.s:86322  .debug_macro:0000000000000000 .Ldebug_macro62
     /tmp/cc2IngwB.s:86342  .debug_macro:0000000000000000 .Ldebug_macro63
     /tmp/cc2IngwB.s:86374  .debug_macro:0000000000000000 .Ldebug_macro64
     /tmp/cc2IngwB.s:86406  .debug_macro:0000000000000000 .Ldebug_macro65
     /tmp/cc2IngwB.s:86426  .debug_macro:0000000000000000 .Ldebug_macro66
     /tmp/cc2IngwB.s:86446  .debug_macro:0000000000000000 .Ldebug_macro67
     /tmp/cc2IngwB.s:86478  .debug_macro:0000000000000000 .Ldebug_macro68
     /tmp/cc2IngwB.s:86492  .debug_macro:0000000000000000 .Ldebug_macro69
     /tmp/cc2IngwB.s:86593  .debug_macro:0000000000000000 .Ldebug_macro70
     /tmp/cc2IngwB.s:86610  .debug_macro:0000000000000000 .Ldebug_macro71
     /tmp/cc2IngwB.s:86648  .debug_macro:0000000000000000 .Ldebug_macro72
     /tmp/cc2IngwB.s:86671  .debug_macro:0000000000000000 .Ldebug_macro73
     /tmp/cc2IngwB.s:86799  .debug_macro:0000000000000000 .Ldebug_macro74
     /tmp/cc2IngwB.s:86813  .debug_macro:0000000000000000 .Ldebug_macro75
     /tmp/cc2IngwB.s:86827  .debug_macro:0000000000000000 .Ldebug_macro76
     /tmp/cc2IngwB.s:86883  .debug_macro:0000000000000000 .Ldebug_macro77
     /tmp/cc2IngwB.s:87998  .debug_macro:0000000000000000 .Ldebug_macro78
     /tmp/cc2IngwB.s:88030  .debug_macro:0000000000000000 .Ldebug_macro79
     /tmp/cc2IngwB.s:88050  .debug_macro:0000000000000000 .Ldebug_macro80
     /tmp/cc2IngwB.s:88094  .debug_macro:0000000000000000 .Ldebug_macro81
     /tmp/cc2IngwB.s:88141  .debug_macro:0000000000000000 .Ldebug_macro82
     /tmp/cc2IngwB.s:88188  .debug_macro:0000000000000000 .Ldebug_macro83
     /tmp/cc2IngwB.s:88223  .debug_macro:0000000000000000 .Ldebug_macro84
     /tmp/cc2IngwB.s:88246  .debug_macro:0000000000000000 .Ldebug_macro85
     /tmp/cc2IngwB.s:89879  .debug_str:000000000000072c .LASF5543
     /tmp/cc2IngwB.s:88263  .debug_macro:0000000000000000 .Ldebug_macro86
     /tmp/cc2IngwB.s:93765  .debug_str:00000000000105ac .LASF5698
     /tmp/cc2IngwB.s:88730  .debug_macro:0000000000000000 .Ldebug_macro87
     /tmp/cc2IngwB.s:88747  .debug_macro:0000000000000000 .Ldebug_macro88
     /tmp/cc2IngwB.s:88761  .debug_macro:0000000000000000 .Ldebug_macro89
     /tmp/cc2IngwB.s:89078  .debug_macro:0000000000000000 .Ldebug_macro90
     /tmp/cc2IngwB.s:89098  .debug_macro:0000000000000000 .Ldebug_macro91
     /tmp/cc2IngwB.s:101169  .debug_str:000000000002e2a7 .LASF5854
     /tmp/cc2IngwB.s:89220  .debug_macro:0000000000000000 .Ldebug_macro92
     /tmp/cc2IngwB.s:89282  .debug_macro:0000000000000000 .Ldebug_macro93
     /tmp/cc2IngwB.s:100569  .debug_str:000000000002bdc3 .LASF5876
     /tmp/cc2IngwB.s:89293  .debug_macro:0000000000000000 .Ldebug_macro94
     /tmp/cc2IngwB.s:89322  .debug_macro:0000000000000000 .Ldebug_macro95
     /tmp/cc2IngwB.s:104437  .debug_str:000000000003b4d9 .LASF5901
     /tmp/cc2IngwB.s:89375  .debug_macro:0000000000000000 .Ldebug_macro96
     /tmp/cc2IngwB.s:108641  .debug_str:000000000004cf8e .LASF5921
     /tmp/cc2IngwB.s:89437  .debug_macro:0000000000000000 .Ldebug_macro97
     /tmp/cc2IngwB.s:89505  .debug_macro:0000000000000000 .Ldebug_macro98
     /tmp/cc2IngwB.s:89528  .debug_macro:0000000000000000 .Ldebug_macro99
     /tmp/cc2IngwB.s:89608  .debug_macro:0000000000000000 .Ldebug_macro100
     /tmp/cc2IngwB.s:89739  .debug_macro:0000000000000000 .Ldebug_macro101
     /tmp/cc2IngwB.s:89759  .debug_macro:0000000000000000 .Ldebug_macro102
     /tmp/cc2IngwB.s:95187  .debug_str:0000000000015f3d .LASF6024
     /tmp/cc2IngwB.s:103671  .debug_str:00000000000387f8 .LASF6025
     /tmp/cc2IngwB.s:105087  .debug_str:000000000003e091 .LASF6026
     /tmp/cc2IngwB.s:101805  .debug_str:0000000000030c65 .LASF6027
     /tmp/cc2IngwB.s:94717  .debug_str:00000000000141fa .LASF0
     /tmp/cc2IngwB.s:101729  .debug_str:000000000003076d .LASF1
     /tmp/cc2IngwB.s:98837  .debug_str:00000000000250de .LASF2
     /tmp/cc2IngwB.s:98909  .debug_str:00000000000254e6 .LASF3
     /tmp/cc2IngwB.s:93197  .debug_str:000000000000e5f7 .LASF4
     /tmp/cc2IngwB.s:93391  .debug_str:000000000000ef47 .LASF5
     /tmp/cc2IngwB.s:104367  .debug_str:000000000003afea .LASF6
     /tmp/cc2IngwB.s:92103  .debug_str:0000000000009e71 .LASF7
     /tmp/cc2IngwB.s:90379  .debug_str:0000000000002a4a .LASF8
     /tmp/cc2IngwB.s:90049  .debug_str:0000000000001290 .LASF9
     /tmp/cc2IngwB.s:103889  .debug_str:0000000000039433 .LASF10
     /tmp/cc2IngwB.s:107629  .debug_str:0000000000048c61 .LASF11
     /tmp/cc2IngwB.s:101415  .debug_str:000000000002f30b .LASF12
     /tmp/cc2IngwB.s:97021  .debug_str:000000000001d545 .LASF13
     /tmp/cc2IngwB.s:92937  .debug_str:000000000000d70d .LASF14
     /tmp/cc2IngwB.s:92133  .debug_str:000000000000a021 .LASF15
     /tmp/cc2IngwB.s:106701  .debug_str:0000000000045034 .LASF16
     /tmp/cc2IngwB.s:105003  .debug_str:000000000003dae1 .LASF17
     /tmp/cc2IngwB.s:95869  .debug_str:0000000000018bdd .LASF18
     /tmp/cc2IngwB.s:107581  .debug_str:0000000000048977 .LASF19
     /tmp/cc2IngwB.s:107305  .debug_str:00000000000476da .LASF20
     /tmp/cc2IngwB.s:108209  .debug_str:000000000004b247 .LASF21
     /tmp/cc2IngwB.s:91427  .debug_str:00000000000070cc .LASF22
     /tmp/cc2IngwB.s:93323  .debug_str:000000000000ecdd .LASF23
     /tmp/cc2IngwB.s:106071  .debug_str:0000000000042347 .LASF24
     /tmp/cc2IngwB.s:104293  .debug_str:000000000003aa98 .LASF25
     /tmp/cc2IngwB.s:92845  .debug_str:000000000000d10f .LASF26
     /tmp/cc2IngwB.s:91865  .debug_str:0000000000008daf .LASF27
     /tmp/cc2IngwB.s:105939  .debug_str:0000000000041a48 .LASF28
     /tmp/cc2IngwB.s:104171  .debug_str:000000000003a318 .LASF29
     /tmp/cc2IngwB.s:95563  .debug_str:0000000000017716 .LASF30
     /tmp/cc2IngwB.s:103263  .debug_str:0000000000036de6 .LASF31
     /tmp/cc2IngwB.s:91539  .debug_str:000000000000783f .LASF32
     /tmp/cc2IngwB.s:100829  .debug_str:000000000002cd50 .LASF33
     /tmp/cc2IngwB.s:100485  .debug_str:000000000002b7b5 .LASF34
     /tmp/cc2IngwB.s:92663  .debug_str:000000000000c4f6 .LASF35
     /tmp/cc2IngwB.s:94949  .debug_str:0000000000014fc4 .LASF36
     /tmp/cc2IngwB.s:99661  .debug_str:0000000000028228 .LASF37
     /tmp/cc2IngwB.s:109391  .debug_str:000000000005038a .LASF38
     /tmp/cc2IngwB.s:98691  .debug_str:0000000000024779 .LASF39
     /tmp/cc2IngwB.s:99867  .debug_str:0000000000029035 .LASF40
     /tmp/cc2IngwB.s:94911  .debug_str:0000000000014e07 .LASF41
     /tmp/cc2IngwB.s:91285  .debug_str:000000000000663c .LASF42
     /tmp/cc2IngwB.s:104789  .debug_str:000000000003cd5e .LASF43
     /tmp/cc2IngwB.s:90527  .debug_str:00000000000033f9 .LASF44
     /tmp/cc2IngwB.s:105805  .debug_str:0000000000040f25 .LASF45
     /tmp/cc2IngwB.s:91253  .debug_str:0000000000006414 .LASF46
     /tmp/cc2IngwB.s:104289  .debug_str:000000000003aa61 .LASF47
     /tmp/cc2IngwB.s:101129  .debug_str:000000000002e043 .LASF48
     /tmp/cc2IngwB.s:97277  .debug_str:000000000001e709 .LASF49
     /tmp/cc2IngwB.s:108871  .debug_str:000000000004df66 .LASF50
     /tmp/cc2IngwB.s:91491  .debug_str:0000000000007537 .LASF51
     /tmp/cc2IngwB.s:95967  .debug_str:00000000000190d5 .LASF52
     /tmp/cc2IngwB.s:103001  .debug_str:0000000000035c29 .LASF53
     /tmp/cc2IngwB.s:90215  .debug_str:0000000000001f28 .LASF54
     /tmp/cc2IngwB.s:92799  .debug_str:000000000000ce74 .LASF55
     /tmp/cc2IngwB.s:107303  .debug_str:00000000000476b1 .LASF56
     /tmp/cc2IngwB.s:105691  .debug_str:00000000000407cc .LASF57
     /tmp/cc2IngwB.s:108505  .debug_str:000000000004c6ba .LASF58
     /tmp/cc2IngwB.s:106921  .debug_str:0000000000045dac .LASF59
     /tmp/cc2IngwB.s:101091  .debug_str:000000000002dd49 .LASF60
     /tmp/cc2IngwB.s:106993  .debug_str:0000000000046323 .LASF61
     /tmp/cc2IngwB.s:99997  .debug_str:000000000002994b .LASF62
     /tmp/cc2IngwB.s:105579  .debug_str:000000000004013f .LASF63
     /tmp/cc2IngwB.s:99325  .debug_str:0000000000026c6c .LASF64
     /tmp/cc2IngwB.s:100721  .debug_str:000000000002c736 .LASF65
     /tmp/cc2IngwB.s:102151  .debug_str:0000000000032211 .LASF66
     /tmp/cc2IngwB.s:97329  .debug_str:000000000001ea8a .LASF67
     /tmp/cc2IngwB.s:107055  .debug_str:00000000000466cb .LASF68
     /tmp/cc2IngwB.s:104679  .debug_str:000000000003c536 .LASF69
     /tmp/cc2IngwB.s:109393  .debug_str:00000000000503a3 .LASF70
     /tmp/cc2IngwB.s:95481  .debug_str:00000000000171cd .LASF71
     /tmp/cc2IngwB.s:90323  .debug_str:00000000000026a0 .LASF72
     /tmp/cc2IngwB.s:107533  .debug_str:00000000000485da .LASF73
     /tmp/cc2IngwB.s:99223  .debug_str:000000000002663b .LASF74
     /tmp/cc2IngwB.s:105759  .debug_str:0000000000040c04 .LASF75
     /tmp/cc2IngwB.s:98519  .debug_str:0000000000023bfd .LASF76
     /tmp/cc2IngwB.s:91909  .debug_str:00000000000090bd .LASF77
     /tmp/cc2IngwB.s:102391  .debug_str:00000000000332fd .LASF78
     /tmp/cc2IngwB.s:100371  .debug_str:000000000002b084 .LASF79
     /tmp/cc2IngwB.s:101891  .debug_str:000000000003122b .LASF80
     /tmp/cc2IngwB.s:94691  .debug_str:0000000000014051 .LASF81
     /tmp/cc2IngwB.s:92081  .debug_str:0000000000009cad .LASF82
     /tmp/cc2IngwB.s:92113  .debug_str:0000000000009f1b .LASF83
     /tmp/cc2IngwB.s:93859  .debug_str:0000000000010abf .LASF84
     /tmp/cc2IngwB.s:100773  .debug_str:000000000002ca03 .LASF85
     /tmp/cc2IngwB.s:102561  .debug_str:0000000000033e9e .LASF86
     /tmp/cc2IngwB.s:98887  .debug_str:000000000002538b .LASF87
     /tmp/cc2IngwB.s:107915  .debug_str:0000000000049f07 .LASF88
     /tmp/cc2IngwB.s:93121  .debug_str:000000000000e17b .LASF89
     /tmp/cc2IngwB.s:99581  .debug_str:0000000000027d0d .LASF90
     /tmp/cc2IngwB.s:96235  .debug_str:000000000001a370 .LASF91
     /tmp/cc2IngwB.s:98531  .debug_str:0000000000023d04 .LASF92
     /tmp/cc2IngwB.s:107943  .debug_str:000000000004a063 .LASF93
     /tmp/cc2IngwB.s:108387  .debug_str:000000000004beee .LASF94
     /tmp/cc2IngwB.s:96605  .debug_str:000000000001bac6 .LASF95
     /tmp/cc2IngwB.s:98113  .debug_str:000000000002219d .LASF96
     /tmp/cc2IngwB.s:93203  .debug_str:000000000000e62c .LASF97
     /tmp/cc2IngwB.s:102387  .debug_str:00000000000332c2 .LASF98
     /tmp/cc2IngwB.s:104415  .debug_str:000000000003b308 .LASF99
     /tmp/cc2IngwB.s:103821  .debug_str:0000000000038fd8 .LASF100
     /tmp/cc2IngwB.s:90497  .debug_str:0000000000003201 .LASF101
     /tmp/cc2IngwB.s:100947  .debug_str:000000000002d4cf .LASF102
     /tmp/cc2IngwB.s:92853  .debug_str:000000000000d1b0 .LASF103
     /tmp/cc2IngwB.s:100813  .debug_str:000000000002cc97 .LASF104
     /tmp/cc2IngwB.s:98761  .debug_str:0000000000024c32 .LASF105
     /tmp/cc2IngwB.s:100603  .debug_str:000000000002bf6c .LASF106
     /tmp/cc2IngwB.s:90899  .debug_str:0000000000004d8a .LASF107
     /tmp/cc2IngwB.s:103461  .debug_str:0000000000037b00 .LASF108
     /tmp/cc2IngwB.s:101837  .debug_str:0000000000030eaa .LASF109
     /tmp/cc2IngwB.s:105779  .debug_str:0000000000040d32 .LASF110
     /tmp/cc2IngwB.s:93007  .debug_str:000000000000db85 .LASF111
     /tmp/cc2IngwB.s:104231  .debug_str:000000000003a651 .LASF112
     /tmp/cc2IngwB.s:89951  .debug_str:0000000000000bcc .LASF113
     /tmp/cc2IngwB.s:106251  .debug_str:00000000000432e2 .LASF114
     /tmp/cc2IngwB.s:107705  .debug_str:0000000000049180 .LASF115
     /tmp/cc2IngwB.s:99121  .debug_str:000000000002607c .LASF116
     /tmp/cc2IngwB.s:94449  .debug_str:0000000000012fec .LASF117
     /tmp/cc2IngwB.s:95021  .debug_str:0000000000015425 .LASF118
     /tmp/cc2IngwB.s:103455  .debug_str:0000000000037ab8 .LASF119
     /tmp/cc2IngwB.s:101133  .debug_str:000000000002e077 .LASF120
     /tmp/cc2IngwB.s:93787  .debug_str:00000000000106f5 .LASF121
     /tmp/cc2IngwB.s:95257  .debug_str:00000000000162dd .LASF122
     /tmp/cc2IngwB.s:93991  .debug_str:00000000000111ca .LASF123
     /tmp/cc2IngwB.s:96187  .debug_str:000000000001a095 .LASF124
     /tmp/cc2IngwB.s:103973  .debug_str:0000000000039876 .LASF125
     /tmp/cc2IngwB.s:105575  .debug_str:00000000000400ff .LASF126
     /tmp/cc2IngwB.s:105205  .debug_str:000000000003e9c0 .LASF127
     /tmp/cc2IngwB.s:104409  .debug_str:000000000003b296 .LASF128
     /tmp/cc2IngwB.s:100193  .debug_str:000000000002a593 .LASF129
     /tmp/cc2IngwB.s:105075  .debug_str:000000000003dff5 .LASF130
     /tmp/cc2IngwB.s:94173  .debug_str:0000000000011d70 .LASF131
     /tmp/cc2IngwB.s:98277  .debug_str:0000000000022b6b .LASF132
     /tmp/cc2IngwB.s:100269  .debug_str:000000000002aadf .LASF133
     /tmp/cc2IngwB.s:94547  .debug_str:000000000001371f .LASF134
     /tmp/cc2IngwB.s:107449  .debug_str:0000000000048030 .LASF135
     /tmp/cc2IngwB.s:95903  .debug_str:0000000000018ce6 .LASF136
     /tmp/cc2IngwB.s:101205  .debug_str:000000000002e52c .LASF137
     /tmp/cc2IngwB.s:97203  .debug_str:000000000001e1ff .LASF138
     /tmp/cc2IngwB.s:103529  .debug_str:0000000000037f8f .LASF139
     /tmp/cc2IngwB.s:95155  .debug_str:0000000000015cb8 .LASF140
     /tmp/cc2IngwB.s:108531  .debug_str:000000000004c8ac .LASF141
     /tmp/cc2IngwB.s:100107  .debug_str:0000000000029fdd .LASF142
     /tmp/cc2IngwB.s:99037  .debug_str:0000000000025c53 .LASF143
     /tmp/cc2IngwB.s:94229  .debug_str:000000000001211c .LASF144
     /tmp/cc2IngwB.s:92773  .debug_str:000000000000cc55 .LASF145
     /tmp/cc2IngwB.s:93799  .debug_str:0000000000010777 .LASF146
     /tmp/cc2IngwB.s:94609  .debug_str:0000000000013b2a .LASF147
     /tmp/cc2IngwB.s:97621  .debug_str:000000000001fef1 .LASF148
     /tmp/cc2IngwB.s:101889  .debug_str:0000000000031217 .LASF149
     /tmp/cc2IngwB.s:105625  .debug_str:0000000000040418 .LASF150
     /tmp/cc2IngwB.s:96281  .debug_str:000000000001a64d .LASF151
     /tmp/cc2IngwB.s:99173  .debug_str:0000000000026281 .LASF152
     /tmp/cc2IngwB.s:92059  .debug_str:0000000000009b0a .LASF153
     /tmp/cc2IngwB.s:106063  .debug_str:00000000000422fa .LASF154
     /tmp/cc2IngwB.s:94575  .debug_str:000000000001392f .LASF155
     /tmp/cc2IngwB.s:107507  .debug_str:00000000000483f4 .LASF156
     /tmp/cc2IngwB.s:100961  .debug_str:000000000002d57a .LASF157
     /tmp/cc2IngwB.s:91085  .debug_str:0000000000005948 .LASF158
     /tmp/cc2IngwB.s:91353  .debug_str:0000000000006abc .LASF159
     /tmp/cc2IngwB.s:108825  .debug_str:000000000004dc87 .LASF160
     /tmp/cc2IngwB.s:91839  .debug_str:0000000000008bf0 .LASF161
     /tmp/cc2IngwB.s:108317  .debug_str:000000000004b9ee .LASF162
     /tmp/cc2IngwB.s:94299  .debug_str:000000000001266b .LASF163
     /tmp/cc2IngwB.s:95163  .debug_str:0000000000015d39 .LASF164
     /tmp/cc2IngwB.s:108051  .debug_str:000000000004a7b3 .LASF165
     /tmp/cc2IngwB.s:102217  .debug_str:0000000000032628 .LASF166
     /tmp/cc2IngwB.s:94391  .debug_str:0000000000012bd4 .LASF167
     /tmp/cc2IngwB.s:90311  .debug_str:0000000000002599 .LASF168
     /tmp/cc2IngwB.s:101185  .debug_str:000000000002e3db .LASF169
     /tmp/cc2IngwB.s:104507  .debug_str:000000000003b946 .LASF170
     /tmp/cc2IngwB.s:102949  .debug_str:000000000003588a .LASF171
     /tmp/cc2IngwB.s:101665  .debug_str:00000000000303b2 .LASF172
     /tmp/cc2IngwB.s:92401  .debug_str:000000000000b226 .LASF173
     /tmp/cc2IngwB.s:104687  .debug_str:000000000003c5c7 .LASF174
     /tmp/cc2IngwB.s:102147  .debug_str:00000000000321e2 .LASF175
     /tmp/cc2IngwB.s:94617  .debug_str:0000000000013b86 .LASF176
     /tmp/cc2IngwB.s:94539  .debug_str:00000000000136b2 .LASF177
     /tmp/cc2IngwB.s:103793  .debug_str:0000000000038f0c .LASF178
     /tmp/cc2IngwB.s:92365  .debug_str:000000000000afda .LASF179
     /tmp/cc2IngwB.s:102975  .debug_str:0000000000035a60 .LASF180
     /tmp/cc2IngwB.s:94655  .debug_str:0000000000013de2 .LASF181
     /tmp/cc2IngwB.s:108443  .debug_str:000000000004c263 .LASF182
     /tmp/cc2IngwB.s:92131  .debug_str:000000000000a00a .LASF183
     /tmp/cc2IngwB.s:107633  .debug_str:0000000000048c82 .LASF184
     /tmp/cc2IngwB.s:98423  .debug_str:00000000000234f7 .LASF185
     /tmp/cc2IngwB.s:95471  .debug_str:000000000001711e .LASF186
     /tmp/cc2IngwB.s:99319  .debug_str:0000000000026bcd .LASF187
     /tmp/cc2IngwB.s:90957  .debug_str:00000000000050fc .LASF188
     /tmp/cc2IngwB.s:90821  .debug_str:000000000000477f .LASF189
     /tmp/cc2IngwB.s:94519  .debug_str:0000000000013541 .LASF190
     /tmp/cc2IngwB.s:109063  .debug_str:000000000004edd9 .LASF191
     /tmp/cc2IngwB.s:105295  .debug_str:000000000003ef8b .LASF192
     /tmp/cc2IngwB.s:97521  .debug_str:000000000001f7e7 .LASF193
     /tmp/cc2IngwB.s:90827  .debug_str:000000000000480f .LASF194
     /tmp/cc2IngwB.s:105659  .debug_str:00000000000405ec .LASF195
     /tmp/cc2IngwB.s:107167  .debug_str:0000000000046dc1 .LASF196
     /tmp/cc2IngwB.s:98597  .debug_str:000000000002410e .LASF197
     /tmp/cc2IngwB.s:89843  .debug_str:00000000000004a6 .LASF198
     /tmp/cc2IngwB.s:90521  .debug_str:0000000000003398 .LASF199
     /tmp/cc2IngwB.s:106271  .debug_str:0000000000043427 .LASF200
     /tmp/cc2IngwB.s:101377  .debug_str:000000000002f078 .LASF201
     /tmp/cc2IngwB.s:107873  .debug_str:0000000000049c2f .LASF202
     /tmp/cc2IngwB.s:104177  .debug_str:000000000003a379 .LASF203
     /tmp/cc2IngwB.s:91027  .debug_str:0000000000005532 .LASF204
     /tmp/cc2IngwB.s:107837  .debug_str:00000000000499d0 .LASF205
     /tmp/cc2IngwB.s:98747  .debug_str:0000000000024b6f .LASF206
     /tmp/cc2IngwB.s:106255  .debug_str:0000000000043342 .LASF207
     /tmp/cc2IngwB.s:97307  .debug_str:000000000001e948 .LASF208
     /tmp/cc2IngwB.s:100555  .debug_str:000000000002bcef .LASF209
     /tmp/cc2IngwB.s:93487  .debug_str:000000000000f4a5 .LASF210
     /tmp/cc2IngwB.s:93123  .debug_str:000000000000e18d .LASF211
     /tmp/cc2IngwB.s:109185  .debug_str:000000000004f5e9 .LASF212
     /tmp/cc2IngwB.s:106371  .debug_str:0000000000043a4e .LASF213
     /tmp/cc2IngwB.s:95651  .debug_str:0000000000017dce .LASF214
     /tmp/cc2IngwB.s:99029  .debug_str:0000000000025bbe .LASF215
     /tmp/cc2IngwB.s:97293  .debug_str:000000000001e80b .LASF216
     /tmp/cc2IngwB.s:95427  .debug_str:0000000000016e2a .LASF217
     /tmp/cc2IngwB.s:102847  .debug_str:000000000003519f .LASF218
     /tmp/cc2IngwB.s:92721  .debug_str:000000000000c885 .LASF219
     /tmp/cc2IngwB.s:98383  .debug_str:00000000000232c7 .LASF220
     /tmp/cc2IngwB.s:108983  .debug_str:000000000004e8c1 .LASF221
     /tmp/cc2IngwB.s:105241  .debug_str:000000000003ec0e .LASF222
     /tmp/cc2IngwB.s:94805  .debug_str:000000000001476c .LASF223
     /tmp/cc2IngwB.s:106841  .debug_str:000000000004591f .LASF224
     /tmp/cc2IngwB.s:108691  .debug_str:000000000004d329 .LASF225
     /tmp/cc2IngwB.s:96251  .debug_str:000000000001a4b5 .LASF226
     /tmp/cc2IngwB.s:105163  .debug_str:000000000003e71d .LASF227
     /tmp/cc2IngwB.s:99021  .debug_str:0000000000025b13 .LASF228
     /tmp/cc2IngwB.s:103819  .debug_str:0000000000038fbd .LASF229
     /tmp/cc2IngwB.s:92121  .debug_str:0000000000009f87 .LASF230
     /tmp/cc2IngwB.s:92407  .debug_str:000000000000b2ab .LASF231
     /tmp/cc2IngwB.s:96389  .debug_str:000000000001adb5 .LASF232
     /tmp/cc2IngwB.s:94015  .debug_str:0000000000011349 .LASF233
     /tmp/cc2IngwB.s:91095  .debug_str:00000000000059f6 .LASF234
     /tmp/cc2IngwB.s:104813  .debug_str:000000000003cf2b .LASF235
     /tmp/cc2IngwB.s:101951  .debug_str:0000000000031597 .LASF236
     /tmp/cc2IngwB.s:93683  .debug_str:000000000001017c .LASF237
     /tmp/cc2IngwB.s:93321  .debug_str:000000000000ecc6 .LASF238
     /tmp/cc2IngwB.s:108339  .debug_str:000000000004bb66 .LASF239
     /tmp/cc2IngwB.s:95765  .debug_str:00000000000184e5 .LASF240
     /tmp/cc2IngwB.s:97167  .debug_str:000000000001df9e .LASF241
     /tmp/cc2IngwB.s:91317  .debug_str:0000000000006815 .LASF242
     /tmp/cc2IngwB.s:103721  .debug_str:0000000000038b2b .LASF243
     /tmp/cc2IngwB.s:107005  .debug_str:00000000000463b5 .LASF244
     /tmp/cc2IngwB.s:103141  .debug_str:0000000000036665 .LASF245
     /tmp/cc2IngwB.s:95743  .debug_str:0000000000018397 .LASF246
     /tmp/cc2IngwB.s:106015  .debug_str:0000000000041ffb .LASF247
     /tmp/cc2IngwB.s:98521  .debug_str:0000000000023c24 .LASF248
     /tmp/cc2IngwB.s:103137  .debug_str:000000000003663a .LASF249
     /tmp/cc2IngwB.s:97243  .debug_str:000000000001e4d3 .LASF250
     /tmp/cc2IngwB.s:107927  .debug_str:0000000000049fc6 .LASF251
     /tmp/cc2IngwB.s:96601  .debug_str:000000000001ba7a .LASF252
     /tmp/cc2IngwB.s:103687  .debug_str:00000000000388c9 .LASF253
     /tmp/cc2IngwB.s:90607  .debug_str:00000000000038d7 .LASF254
     /tmp/cc2IngwB.s:104717  .debug_str:000000000003c834 .LASF255
     /tmp/cc2IngwB.s:91393  .debug_str:0000000000006dbf .LASF256
     /tmp/cc2IngwB.s:91683  .debug_str:0000000000008138 .LASF257
     /tmp/cc2IngwB.s:108259  .debug_str:000000000004b591 .LASF258
     /tmp/cc2IngwB.s:106113  .debug_str:0000000000042900 .LASF259
     /tmp/cc2IngwB.s:93533  .debug_str:000000000000f85b .LASF260
     /tmp/cc2IngwB.s:97343  .debug_str:000000000001eb54 .LASF261
     /tmp/cc2IngwB.s:107271  .debug_str:00000000000473ff .LASF262
     /tmp/cc2IngwB.s:104889  .debug_str:000000000003d39d .LASF263
     /tmp/cc2IngwB.s:100753  .debug_str:000000000002c8ee .LASF264
     /tmp/cc2IngwB.s:92639  .debug_str:000000000000c37e .LASF265
     /tmp/cc2IngwB.s:98353  .debug_str:0000000000023072 .LASF266
     /tmp/cc2IngwB.s:102133  .debug_str:0000000000032134 .LASF267
     /tmp/cc2IngwB.s:97637  .debug_str:000000000001ffd9 .LASF268
     /tmp/cc2IngwB.s:99865  .debug_str:0000000000029020 .LASF269
     /tmp/cc2IngwB.s:102251  .debug_str:00000000000328a8 .LASF270
     /tmp/cc2IngwB.s:94529  .debug_str:0000000000013645 .LASF271
     /tmp/cc2IngwB.s:108433  .debug_str:000000000004c1d7 .LASF272
     /tmp/cc2IngwB.s:94715  .debug_str:00000000000141d3 .LASF273
     /tmp/cc2IngwB.s:97259  .debug_str:000000000001e5c5 .LASF274
     /tmp/cc2IngwB.s:104203  .debug_str:000000000003a504 .LASF275
     /tmp/cc2IngwB.s:99577  .debug_str:0000000000027cb9 .LASF276
     /tmp/cc2IngwB.s:89933  .debug_str:0000000000000aeb .LASF277
     /tmp/cc2IngwB.s:103503  .debug_str:0000000000037d98 .LASF278
     /tmp/cc2IngwB.s:102351  .debug_str:0000000000032ff0 .LASF279
     /tmp/cc2IngwB.s:108565  .debug_str:000000000004ca81 .LASF280
     /tmp/cc2IngwB.s:100467  .debug_str:000000000002b6d6 .LASF281
     /tmp/cc2IngwB.s:105787  .debug_str:0000000000040dbc .LASF282
     /tmp/cc2IngwB.s:90169  .debug_str:0000000000001b8c .LASF283
     /tmp/cc2IngwB.s:109501  .debug_str:0000000000050ae6 .LASF284
     /tmp/cc2IngwB.s:102367  .debug_str:0000000000033128 .LASF285
     /tmp/cc2IngwB.s:102141  .debug_str:0000000000032198 .LASF286
     /tmp/cc2IngwB.s:95421  .debug_str:0000000000016d8a .LASF287
     /tmp/cc2IngwB.s:109181  .debug_str:000000000004f5bb .LASF288
     /tmp/cc2IngwB.s:107835  .debug_str:00000000000499b9 .LASF289
     /tmp/cc2IngwB.s:95669  .debug_str:0000000000017f29 .LASF290
     /tmp/cc2IngwB.s:92061  .debug_str:0000000000009b1e .LASF291
     /tmp/cc2IngwB.s:104863  .debug_str:000000000003d1d0 .LASF292
     /tmp/cc2IngwB.s:106715  .debug_str:000000000004510a .LASF293
     /tmp/cc2IngwB.s:103593  .debug_str:00000000000382ed .LASF294
     /tmp/cc2IngwB.s:91593  .debug_str:0000000000007b92 .LASF295
     /tmp/cc2IngwB.s:100097  .debug_str:0000000000029f21 .LASF296
     /tmp/cc2IngwB.s:91557  .debug_str:0000000000007987 .LASF297
     /tmp/cc2IngwB.s:105705  .debug_str:00000000000408c2 .LASF298
     /tmp/cc2IngwB.s:92477  .debug_str:000000000000b801 .LASF299
     /tmp/cc2IngwB.s:105887  .debug_str:000000000004163f .LASF300
     /tmp/cc2IngwB.s:95129  .debug_str:0000000000015b2f .LASF301
     /tmp/cc2IngwB.s:105823  .debug_str:0000000000041052 .LASF302
     /tmp/cc2IngwB.s:107547  .debug_str:000000000004871e .LASF303
     /tmp/cc2IngwB.s:99407  .debug_str:0000000000027229 .LASF304
     /tmp/cc2IngwB.s:104327  .debug_str:000000000003aced .LASF305
     /tmp/cc2IngwB.s:102413  .debug_str:000000000003343e .LASF306
     /tmp/cc2IngwB.s:98553  .debug_str:0000000000023e4c .LASF307
     /tmp/cc2IngwB.s:107865  .debug_str:0000000000049be5 .LASF308
     /tmp/cc2IngwB.s:107879  .debug_str:0000000000049cbd .LASF309
     /tmp/cc2IngwB.s:101789  .debug_str:0000000000030b30 .LASF310
     /tmp/cc2IngwB.s:91615  .debug_str:0000000000007d0f .LASF311
     /tmp/cc2IngwB.s:89941  .debug_str:0000000000000b3c .LASF312
     /tmp/cc2IngwB.s:104197  .debug_str:000000000003a4cb .LASF313
     /tmp/cc2IngwB.s:102567  .debug_str:0000000000033edd .LASF314
     /tmp/cc2IngwB.s:103437  .debug_str:00000000000379a2 .LASF315
     /tmp/cc2IngwB.s:90013  .debug_str:0000000000000fe6 .LASF316
     /tmp/cc2IngwB.s:97185  .debug_str:000000000001e0d8 .LASF317
     /tmp/cc2IngwB.s:98389  .debug_str:0000000000023313 .LASF318
     /tmp/cc2IngwB.s:97705  .debug_str:00000000000205a0 .LASF319
     /tmp/cc2IngwB.s:108131  .debug_str:000000000004ac4f .LASF320
     /tmp/cc2IngwB.s:105533  .debug_str:000000000003fdd9 .LASF321
     /tmp/cc2IngwB.s:101959  .debug_str:000000000003162b .LASF322
     /tmp/cc2IngwB.s:95295  .debug_str:000000000001651f .LASF323
     /tmp/cc2IngwB.s:96185  .debug_str:000000000001a07f .LASF327
     /tmp/cc2IngwB.s:103299  .debug_str:0000000000037069 .LASF328
     /tmp/cc2IngwB.s:100457  .debug_str:000000000002b66e .LASF329
     /tmp/cc2IngwB.s:94809  .debug_str:0000000000014790 .LASF330
     /tmp/cc2IngwB.s:103979  .debug_str:00000000000398e6 .LASF331
     /tmp/cc2IngwB.s:92787  .debug_str:000000000000cdaa .LASF332
     /tmp/cc2IngwB.s:106483  .debug_str:0000000000044239 .LASF333
     /tmp/cc2IngwB.s:96651  .debug_str:000000000001bd0d .LASF334
     /tmp/cc2IngwB.s:95725  .debug_str:000000000001827a .LASF335
     /tmp/cc2IngwB.s:106647  .debug_str:0000000000044c85 .LASF336
     /tmp/cc2IngwB.s:96239  .debug_str:000000000001a3c5 .LASF337
     /tmp/cc2IngwB.s:94741  .debug_str:000000000001431d .LASF338
     /tmp/cc2IngwB.s:93129  .debug_str:000000000000e1df .LASF339
     /tmp/cc2IngwB.s:105983  .debug_str:0000000000041dd8 .LASF340
     /tmp/cc2IngwB.s:107521  .debug_str:000000000004853a .LASF342
     /tmp/cc2IngwB.s:98471  .debug_str:000000000002382e .LASF343
     /tmp/cc2IngwB.s:103541  .debug_str:0000000000038081 .LASF344
     /tmp/cc2IngwB.s:103325  .debug_str:0000000000037268 .LASF345
     /tmp/cc2IngwB.s:101065  .debug_str:000000000002db74 .LASF346
     /tmp/cc2IngwB.s:91229  .debug_str:000000000000626f .LASF347
     /tmp/cc2IngwB.s:105311  .debug_str:000000000003f0a9 .LASF348
     /tmp/cc2IngwB.s:89897  .debug_str:0000000000000836 .LASF349
     /tmp/cc2IngwB.s:94983  .debug_str:00000000000151bf .LASF350
     /tmp/cc2IngwB.s:97289  .debug_str:000000000001e7c2 .LASF351
     /tmp/cc2IngwB.s:93633  .debug_str:000000000000febd .LASF352
     /tmp/cc2IngwB.s:95057  .debug_str:0000000000015681 .LASF353
     /tmp/cc2IngwB.s:100353  .debug_str:000000000002afa8 .LASF354
     /tmp/cc2IngwB.s:105513  .debug_str:000000000003fcd5 .LASF355
     /tmp/cc2IngwB.s:105957  .debug_str:0000000000041bf1 .LASF356
     /tmp/cc2IngwB.s:104049  .debug_str:0000000000039c69 .LASF357
     /tmp/cc2IngwB.s:95165  .debug_str:0000000000015d4d .LASF358
     /tmp/cc2IngwB.s:96115  .debug_str:0000000000019b51 .LASF359
     /tmp/cc2IngwB.s:99163  .debug_str:000000000002622b .LASF360
     /tmp/cc2IngwB.s:101433  .debug_str:000000000002f41c .LASF361
     /tmp/cc2IngwB.s:93089  .debug_str:000000000000df5d .LASF362
     /tmp/cc2IngwB.s:96729  .debug_str:000000000001c22f .LASF363
     /tmp/cc2IngwB.s:96359  .debug_str:000000000001ab0c .LASF364
     /tmp/cc2IngwB.s:93001  .debug_str:000000000000db39 .LASF365
     /tmp/cc2IngwB.s:96541  .debug_str:000000000001b69c .LASF366
     /tmp/cc2IngwB.s:105977  .debug_str:0000000000041d80 .LASF367
     /tmp/cc2IngwB.s:109287  .debug_str:000000000004fc8f .LASF368
     /tmp/cc2IngwB.s:89913  .debug_str:000000000000097e .LASF369
     /tmp/cc2IngwB.s:107709  .debug_str:00000000000491b9 .LASF370
     /tmp/cc2IngwB.s:102445  .debug_str:0000000000033634 .LASF371
     /tmp/cc2IngwB.s:100203  .debug_str:000000000002a65e .LASF372
     /tmp/cc2IngwB.s:102405  .debug_str:00000000000333b9 .LASF373
     /tmp/cc2IngwB.s:103127  .debug_str:00000000000365bf .LASF374
     /tmp/cc2IngwB.s:101103  .debug_str:000000000002de27 .LASF375
     /tmp/cc2IngwB.s:96205  .debug_str:000000000001a1aa .LASF376
     /tmp/cc2IngwB.s:107491  .debug_str:00000000000482f5 .LASF377
     /tmp/cc2IngwB.s:95645  .debug_str:0000000000017d63 .LASF378
     /tmp/cc2IngwB.s:99095  .debug_str:0000000000025eae .LASF379
     /tmp/cc2IngwB.s:90221  .debug_str:0000000000001f77 .LASF380
     /tmp/cc2IngwB.s:108255  .debug_str:000000000004b545 .LASF381
     /tmp/cc2IngwB.s:107197  .debug_str:0000000000046f9f .LASF382
     /tmp/cc2IngwB.s:90877  .debug_str:0000000000004ba0 .LASF383
     /tmp/cc2IngwB.s:107141  .debug_str:0000000000046cb5 .LASF384
     /tmp/cc2IngwB.s:105733  .debug_str:0000000000040a94 .LASF386
     /tmp/cc2IngwB.s:95733  .debug_str:0000000000018316 .LASF387
     /tmp/cc2IngwB.s:106759  .debug_str:0000000000045409 .LASF388
     /tmp/cc2IngwB.s:93925  .debug_str:0000000000010de1 .LASF389
     /tmp/cc2IngwB.s:90661  .debug_str:0000000000003c83 .LASF390
     /tmp/cc2IngwB.s:94773  .debug_str:000000000001453d .LASF391
     /tmp/cc2IngwB.s:107079  .debug_str:0000000000046869 .LASF392
     /tmp/cc2IngwB.s:95929  .debug_str:0000000000018e90 .LASF393
     /tmp/cc2IngwB.s:93707  .debug_str:00000000000102fe .LASF394
     /tmp/cc2IngwB.s:101607  .debug_str:000000000003002e .LASF395
     /tmp/cc2IngwB.s:104967  .debug_str:000000000003d891 .LASF396
     /tmp/cc2IngwB.s:102271  .debug_str:0000000000032a92 .LASF397
     /tmp/cc2IngwB.s:102145  .debug_str:00000000000321dc .LASF398
     /tmp/cc2IngwB.s:104997  .debug_str:000000000003da98 .LASF399
     /tmp/cc2IngwB.s:105433  .debug_str:000000000003f7fe .LASF400
     /tmp/cc2IngwB.s:98631  .debug_str:000000000002434b .LASF401
     /tmp/cc2IngwB.s:108427  .debug_str:000000000004c192 .LASF402
     /tmp/cc2IngwB.s:105809  .debug_str:0000000000040f56 .LASF403
     /tmp/cc2IngwB.s:102071  .debug_str:0000000000031d9a .LASF404
     /tmp/cc2IngwB.s:105131  .debug_str:000000000003e43d .LASF405
     /tmp/cc2IngwB.s:92927  .debug_str:000000000000d69c .LASF406
     /tmp/cc2IngwB.s:107923  .debug_str:0000000000049f77 .LASF407
     /tmp/cc2IngwB.s:99377  .debug_str:0000000000026fb8 .LASF408
     /tmp/cc2IngwB.s:91543  .debug_str:00000000000078a9 .LASF409
     /tmp/cc2IngwB.s:90393  .debug_str:0000000000002b08 .LASF410
     /tmp/cc2IngwB.s:94511  .debug_str:0000000000013475 .LASF411
     /tmp/cc2IngwB.s:97751  .debug_str:00000000000208a4 .LASF412
     /tmp/cc2IngwB.s:101747  .debug_str:00000000000308ac .LASF413
     /tmp/cc2IngwB.s:91821  .debug_str:0000000000008ad3 .LASF414
     /tmp/cc2IngwB.s:97023  .debug_str:000000000001d558 .LASF415
     /tmp/cc2IngwB.s:91859  .debug_str:0000000000008d79 .LASF416
     /tmp/cc2IngwB.s:101073  .debug_str:000000000002dc1c .LASF417
     /tmp/cc2IngwB.s:99463  .debug_str:0000000000027554 .LASF418
     /tmp/cc2IngwB.s:93679  .debug_str:000000000001015b .LASF419
     /tmp/cc2IngwB.s:102891  .debug_str:0000000000035448 .LASF420
     /tmp/cc2IngwB.s:107941  .debug_str:000000000004a056 .LASF421
     /tmp/cc2IngwB.s:109319  .debug_str:000000000004fe6f .LASF422
     /tmp/cc2IngwB.s:101803  .debug_str:0000000000030c2c .LASF423
     /tmp/cc2IngwB.s:98407  .debug_str:0000000000023410 .LASF424
     /tmp/cc2IngwB.s:97097  .debug_str:000000000001da20 .LASF425
     /tmp/cc2IngwB.s:100707  .debug_str:000000000002c67b .LASF426
     /tmp/cc2IngwB.s:101799  .debug_str:0000000000030bd3 .LASF427
     /tmp/cc2IngwB.s:90457  .debug_str:0000000000002f33 .LASF428
     /tmp/cc2IngwB.s:95403  .debug_str:0000000000016c54 .LASF429
     /tmp/cc2IngwB.s:100539  .debug_str:000000000002bbcf .LASF430
     /tmp/cc2IngwB.s:94007  .debug_str:00000000000112f4 .LASF431
     /tmp/cc2IngwB.s:106489  .debug_str:000000000004429f .LASF432
     /tmp/cc2IngwB.s:108145  .debug_str:000000000004ad02 .LASF433
     /tmp/cc2IngwB.s:100137  .debug_str:000000000002a1cd .LASF434
     /tmp/cc2IngwB.s:94723  .debug_str:0000000000014229 .LASF435
     /tmp/cc2IngwB.s:99543  .debug_str:0000000000027a21 .LASF436
     /tmp/cc2IngwB.s:90153  .debug_str:0000000000001a94 .LASF437
     /tmp/cc2IngwB.s:96369  .debug_str:000000000001ac14 .LASF438
     /tmp/cc2IngwB.s:91781  .debug_str:000000000000880f .LASF439
     /tmp/cc2IngwB.s:102641  .debug_str:00000000000343c4 .LASF440
     /tmp/cc2IngwB.s:92519  .debug_str:000000000000baf8 .LASF441
     /tmp/cc2IngwB.s:99929  .debug_str:00000000000294be .LASF442
     /tmp/cc2IngwB.s:104783  .debug_str:000000000003ccdc .LASF443
     /tmp/cc2IngwB.s:102415  .debug_str:000000000003345a .LASF444
     /tmp/cc2IngwB.s:91999  .debug_str:0000000000009692 .LASF445
     /tmp/cc2IngwB.s:102697  .debug_str:0000000000034731 .LASF446
     /tmp/cc2IngwB.s:98847  .debug_str:0000000000025180 .LASF447
     /tmp/cc2IngwB.s:91739  .debug_str:0000000000008516 .LASF448
     /tmp/cc2IngwB.s:103333  .debug_str:00000000000372d9 .LASF449
     /tmp/cc2IngwB.s:96669  .debug_str:000000000001be59 .LASF450
     /tmp/cc2IngwB.s:105503  .debug_str:000000000003fc5a .LASF451
     /tmp/cc2IngwB.s:94215  .debug_str:000000000001203a .LASF452
     /tmp/cc2IngwB.s:107003  .debug_str:000000000004639e .LASF453
     /tmp/cc2IngwB.s:93079  .debug_str:000000000000df0f .LASF454
     /tmp/cc2IngwB.s:94811  .debug_str:00000000000147a3 .LASF455
     /tmp/cc2IngwB.s:96245  .debug_str:000000000001a440 .LASF456
     /tmp/cc2IngwB.s:97565  .debug_str:000000000001fb60 .LASF457
     /tmp/cc2IngwB.s:107909  .debug_str:0000000000049ecd .LASF458
     /tmp/cc2IngwB.s:104787  .debug_str:000000000003cd3b .LASF459
     /tmp/cc2IngwB.s:96691  .debug_str:000000000001c001 .LASF460
     /tmp/cc2IngwB.s:107277  .debug_str:0000000000047470 .LASF461
     /tmp/cc2IngwB.s:106215  .debug_str:0000000000043028 .LASF462
     /tmp/cc2IngwB.s:91837  .debug_str:0000000000008be1 .LASF463
     /tmp/cc2IngwB.s:105263  .debug_str:000000000003ed6e .LASF464
     /tmp/cc2IngwB.s:90363  .debug_str:000000000000290a .LASF465
     /tmp/cc2IngwB.s:101517  .debug_str:000000000002fa1d .LASF466
     /tmp/cc2IngwB.s:106431  .debug_str:0000000000043e57 .LASF467
     /tmp/cc2IngwB.s:97429  .debug_str:000000000001f0b3 .LASF468
     /tmp/cc2IngwB.s:105139  .debug_str:000000000003e4fb .LASF469
     /tmp/cc2IngwB.s:105683  .debug_str:000000000004075f .LASF470
     /tmp/cc2IngwB.s:95321  .debug_str:00000000000166c3 .LASF471
     /tmp/cc2IngwB.s:106593  .debug_str:0000000000044935 .LASF472
     /tmp/cc2IngwB.s:99045  .debug_str:0000000000025ca7 .LASF473
     /tmp/cc2IngwB.s:109337  .debug_str:000000000004ff90 .LASF474
     /tmp/cc2IngwB.s:100941  .debug_str:000000000002d464 .LASF475
     /tmp/cc2IngwB.s:106981  .debug_str:0000000000046213 .LASF476
     /tmp/cc2IngwB.s:103901  .debug_str:00000000000394b8 .LASF477
     /tmp/cc2IngwB.s:97603  .debug_str:000000000001fdc5 .LASF478
     /tmp/cc2IngwB.s:106563  .debug_str:0000000000044764 .LASF479
     /tmp/cc2IngwB.s:105639  .debug_str:00000000000404d7 .LASF480
     /tmp/cc2IngwB.s:90495  .debug_str:00000000000031d7 .LASF481
     /tmp/cc2IngwB.s:104825  .debug_str:000000000003cfe2 .LASF482
     /tmp/cc2IngwB.s:102511  .debug_str:0000000000033a81 .LASF483
     /tmp/cc2IngwB.s:107627  .debug_str:0000000000048c37 .LASF484
     /tmp/cc2IngwB.s:91099  .debug_str:0000000000005a65 .LASF485
     /tmp/cc2IngwB.s:108953  .debug_str:000000000004e648 .LASF486
     /tmp/cc2IngwB.s:101983  .debug_str:000000000003178c .LASF487
     /tmp/cc2IngwB.s:95573  .debug_str:00000000000177ba .LASF488
     /tmp/cc2IngwB.s:101365  .debug_str:000000000002ef83 .LASF489
     /tmp/cc2IngwB.s:101907  .debug_str:000000000003131a .LASF490
     /tmp/cc2IngwB.s:103487  .debug_str:0000000000037c25 .LASF491
     /tmp/cc2IngwB.s:96665  .debug_str:000000000001be0f .LASF492
     /tmp/cc2IngwB.s:106295  .debug_str:000000000004352c .LASF493
     /tmp/cc2IngwB.s:91415  .debug_str:0000000000006fe4 .LASF494
     /tmp/cc2IngwB.s:103401  .debug_str:00000000000376f1 .LASF495
     /tmp/cc2IngwB.s:94377  .debug_str:0000000000012ab2 .LASF496
     /tmp/cc2IngwB.s:105667  .debug_str:0000000000040665 .LASF497
     /tmp/cc2IngwB.s:93611  .debug_str:000000000000fcd0 .LASF498
     /tmp/cc2IngwB.s:108001  .debug_str:000000000004a49e .LASF499
     /tmp/cc2IngwB.s:102945  .debug_str:0000000000035824 .LASF500
     /tmp/cc2IngwB.s:92777  .debug_str:000000000000cc98 .LASF501
     /tmp/cc2IngwB.s:98901  .debug_str:0000000000025450 .LASF502
     /tmp/cc2IngwB.s:91237  .debug_str:00000000000062ea .LASF503
     /tmp/cc2IngwB.s:106313  .debug_str:000000000004362f .LASF504
     /tmp/cc2IngwB.s:103871  .debug_str:00000000000392f8 .LASF505
     /tmp/cc2IngwB.s:91443  .debug_str:00000000000071aa .LASF506
     /tmp/cc2IngwB.s:107693  .debug_str:0000000000049065 .LASF507
     /tmp/cc2IngwB.s:96057  .debug_str:0000000000019709 .LASF508
     /tmp/cc2IngwB.s:107027  .debug_str:00000000000464d3 .LASF509
     /tmp/cc2IngwB.s:99023  .debug_str:0000000000025b2c .LASF510
     /tmp/cc2IngwB.s:98689  .debug_str:000000000002475f .LASF511
     /tmp/cc2IngwB.s:92675  .debug_str:000000000000c5a0 .LASF512
     /tmp/cc2IngwB.s:99913  .debug_str:0000000000029369 .LASF513
     /tmp/cc2IngwB.s:109147  .debug_str:000000000004f3db .LASF514
     /tmp/cc2IngwB.s:94615  .debug_str:0000000000013b69 .LASF515
     /tmp/cc2IngwB.s:98097  .debug_str:0000000000022016 .LASF516
     /tmp/cc2IngwB.s:90349  .debug_str:0000000000002807 .LASF517
     /tmp/cc2IngwB.s:98067  .debug_str:0000000000021dc4 .LASF518
     /tmp/cc2IngwB.s:103571  .debug_str:000000000003814a .LASF519
     /tmp/cc2IngwB.s:104499  .debug_str:000000000003b8df .LASF520
     /tmp/cc2IngwB.s:93977  .debug_str:000000000001116a .LASF521
     /tmp/cc2IngwB.s:107591  .debug_str:00000000000489fe .LASF522
     /tmp/cc2IngwB.s:91507  .debug_str:00000000000075e7 .LASF523
     /tmp/cc2IngwB.s:96393  .debug_str:000000000001adff .LASF524
     /tmp/cc2IngwB.s:101345  .debug_str:000000000002ee93 .LASF525
     /tmp/cc2IngwB.s:97451  .debug_str:000000000001f23f .LASF526
     /tmp/cc2IngwB.s:102565  .debug_str:0000000000033eb8 .LASF527
     /tmp/cc2IngwB.s:106769  .debug_str:00000000000454c3 .LASF528
     /tmp/cc2IngwB.s:93309  .debug_str:000000000000ebea .LASF529
     /tmp/cc2IngwB.s:91537  .debug_str:00000000000077ec .LASF530
     /tmp/cc2IngwB.s:97539  .debug_str:000000000001f955 .LASF531
     /tmp/cc2IngwB.s:91541  .debug_str:000000000000786c .LASF532
     /tmp/cc2IngwB.s:102977  .debug_str:0000000000035a70 .LASF533
     /tmp/cc2IngwB.s:97831  .debug_str:0000000000020e46 .LASF534
     /tmp/cc2IngwB.s:90199  .debug_str:0000000000001de4 .LASF535
     /tmp/cc2IngwB.s:96727  .debug_str:000000000001c1e4 .LASF536
     /tmp/cc2IngwB.s:103191  .debug_str:00000000000369b6 .LASF537
     /tmp/cc2IngwB.s:101285  .debug_str:000000000002ea32 .LASF538
     /tmp/cc2IngwB.s:92791  .debug_str:000000000000cdd2 .LASF539
     /tmp/cc2IngwB.s:101997  .debug_str:000000000003187c .LASF540
     /tmp/cc2IngwB.s:109459  .debug_str:0000000000050821 .LASF541
     /tmp/cc2IngwB.s:96071  .debug_str:000000000001984e .LASF542
     /tmp/cc2IngwB.s:99369  .debug_str:0000000000026f67 .LASF543
     /tmp/cc2IngwB.s:104911  .debug_str:000000000003d500 .LASF544
     /tmp/cc2IngwB.s:91897  .debug_str:0000000000008fcb .LASF545
     /tmp/cc2IngwB.s:108041  .debug_str:000000000004a742 .LASF546
     /tmp/cc2IngwB.s:107471  .debug_str:0000000000048184 .LASF547
     /tmp/cc2IngwB.s:97575  .debug_str:000000000001fc09 .LASF548
     /tmp/cc2IngwB.s:95961  .debug_str:0000000000019044 .LASF549
     /tmp/cc2IngwB.s:95025  .debug_str:0000000000015446 .LASF550
     /tmp/cc2IngwB.s:91323  .debug_str:000000000000687d .LASF551
     /tmp/cc2IngwB.s:100855  .debug_str:000000000002cebc .LASF552
     /tmp/cc2IngwB.s:106423  .debug_str:0000000000043ded .LASF553
     /tmp/cc2IngwB.s:102761  .debug_str:0000000000034b1a .LASF554
     /tmp/cc2IngwB.s:100593  .debug_str:000000000002bf2c .LASF555
     /tmp/cc2IngwB.s:95681  .debug_str:0000000000018002 .LASF556
     /tmp/cc2IngwB.s:96391  .debug_str:000000000001adf4 .LASF557
     /tmp/cc2IngwB.s:109473  .debug_str:0000000000050920 .LASF558
     /tmp/cc2IngwB.s:108019  .debug_str:000000000004a61f .LASF559
     /tmp/cc2IngwB.s:103515  .debug_str:0000000000037e8d .LASF560
     /tmp/cc2IngwB.s:98269  .debug_str:0000000000022b07 .LASF561
     /tmp/cc2IngwB.s:91667  .debug_str:000000000000802d .LASF562
     /tmp/cc2IngwB.s:90705  .debug_str:0000000000003fa1 .LASF563
     /tmp/cc2IngwB.s:90935  .debug_str:0000000000004f81 .LASF564
     /tmp/cc2IngwB.s:108441  .debug_str:000000000004c251 .LASF565
     /tmp/cc2IngwB.s:99837  .debug_str:0000000000028e66 .LASF566
     /tmp/cc2IngwB.s:106281  .debug_str:00000000000434c1 .LASF567
     /tmp/cc2IngwB.s:93945  .debug_str:0000000000010f35 .LASF568
     /tmp/cc2IngwB.s:105643  .debug_str:0000000000040514 .LASF569
     /tmp/cc2IngwB.s:104521  .debug_str:000000000003ba38 .LASF570
     /tmp/cc2IngwB.s:96791  .debug_str:000000000001c659 .LASF571
     /tmp/cc2IngwB.s:103143  .debug_str:00000000000366a3 .LASF572
     /tmp/cc2IngwB.s:99275  .debug_str:0000000000026909 .LASF574
     /tmp/cc2IngwB.s:93277  .debug_str:000000000000ea47 .LASF575
     /tmp/cc2IngwB.s:98911  .debug_str:00000000000254f8 .LASF578
     /tmp/cc2IngwB.s:99493  .debug_str:00000000000276b6 .LASF579
     /tmp/cc2IngwB.s:98247  .debug_str:00000000000229a0 .LASF580
     /tmp/cc2IngwB.s:102507  .debug_str:0000000000033a64 .LASF581
     /tmp/cc2IngwB.s:94661  .debug_str:0000000000013e75 .LASF583
     /tmp/cc2IngwB.s:98551  .debug_str:0000000000023e3c .LASF584
     /tmp/cc2IngwB.s:100827  .debug_str:000000000002cd47 .LASF585
     /tmp/cc2IngwB.s:102471  .debug_str:00000000000337de .LASF586
     /tmp/cc2IngwB.s:104983  .debug_str:000000000003d9c0 .LASF587
     /tmp/cc2IngwB.s:96487  .debug_str:000000000001b3c6 .LASF588
     /tmp/cc2IngwB.s:90273  .debug_str:000000000000234d .LASF589
     /tmp/cc2IngwB.s:99731  .debug_str:0000000000028676 .LASF590
     /tmp/cc2IngwB.s:108369  .debug_str:000000000004bd8c .LASF591
     /tmp/cc2IngwB.s:93491  .debug_str:000000000000f4c2 .LASF592
     /tmp/cc2IngwB.s:108821  .debug_str:000000000004dc1f .LASF593
     /tmp/cc2IngwB.s:89851  .debug_str:000000000000055d .LASF594
     /tmp/cc2IngwB.s:102923  .debug_str:000000000003566e .LASF595
     /tmp/cc2IngwB.s:100643  .debug_str:000000000002c185 .LASF596
     /tmp/cc2IngwB.s:96673  .debug_str:000000000001bebb .LASF597
     /tmp/cc2IngwB.s:95855  .debug_str:0000000000018b0c .LASF598
     /tmp/cc2IngwB.s:104347  .debug_str:000000000003ae41 .LASF599
     /tmp/cc2IngwB.s:92767  .debug_str:000000000000cbe8 .LASF600
     /tmp/cc2IngwB.s:102943  .debug_str:0000000000035800 .LASF601
     /tmp/cc2IngwB.s:97067  .debug_str:000000000001d83a .LASF602
     /tmp/cc2IngwB.s:93509  .debug_str:000000000000f614 .LASF603
     /tmp/cc2IngwB.s:107423  .debug_str:0000000000047eb3 .LASF604
     /tmp/cc2IngwB.s:90919  .debug_str:0000000000004e7f .LASF605
     /tmp/cc2IngwB.s:108667  .debug_str:000000000004d1c3 .LASF606
     /tmp/cc2IngwB.s:106503  .debug_str:000000000004436b .LASF607
     /tmp/cc2IngwB.s:108621  .debug_str:000000000004ce2c .LASF608
     /tmp/cc2IngwB.s:97851  .debug_str:0000000000020fb6 .LASF609
     /tmp/cc2IngwB.s:107287  .debug_str:0000000000047556 .LASF610
     /tmp/cc2IngwB.s:108153  .debug_str:000000000004ad91 .LASF611
     /tmp/cc2IngwB.s:98013  .debug_str:00000000000219f2 .LASF612
     /tmp/cc2IngwB.s:106851  .debug_str:00000000000459bf .LASF613
     /tmp/cc2IngwB.s:95899  .debug_str:0000000000018cc6 .LASF614
     /tmp/cc2IngwB.s:101523  .debug_str:000000000002faa8 .LASF615
     /tmp/cc2IngwB.s:98221  .debug_str:00000000000228ad .LASF616
     /tmp/cc2IngwB.s:99793  .debug_str:0000000000028afc .LASF617
     /tmp/cc2IngwB.s:97745  .debug_str:000000000002082b .LASF618
     /tmp/cc2IngwB.s:98485  .debug_str:0000000000023909 .LASF619
     /tmp/cc2IngwB.s:90131  .debug_str:0000000000001864 .LASF620
     /tmp/cc2IngwB.s:99717  .debug_str:00000000000285bf .LASF621
     /tmp/cc2IngwB.s:93511  .debug_str:000000000000f634 .LASF622
     /tmp/cc2IngwB.s:90759  .debug_str:00000000000043b8 .LASF623
     /tmp/cc2IngwB.s:98203  .debug_str:00000000000226cc .LASF624
     /tmp/cc2IngwB.s:105871  .debug_str:00000000000413b0 .LASF625
     /tmp/cc2IngwB.s:103095  .debug_str:0000000000036317 .LASF626
     /tmp/cc2IngwB.s:96815  .debug_str:000000000001c7b9 .LASF627
     /tmp/cc2IngwB.s:93493  .debug_str:000000000000f4d2 .LASF628
     /tmp/cc2IngwB.s:91331  .debug_str:00000000000068da .LASF629
     /tmp/cc2IngwB.s:106079  .debug_str:00000000000423f7 .LASF630
     /tmp/cc2IngwB.s:103617  .debug_str:000000000003849d .LASF631
     /tmp/cc2IngwB.s:106109  .debug_str:000000000004288c .LASF632
     /tmp/cc2IngwB.s:104887  .debug_str:000000000003d371 .LASF633
     /tmp/cc2IngwB.s:99737  .debug_str:00000000000286cb .LASF634
     /tmp/cc2IngwB.s:98663  .debug_str:0000000000024589 .LASF635
     /tmp/cc2IngwB.s:104187  .debug_str:000000000003a428 .LASF636
     /tmp/cc2IngwB.s:106831  .debug_str:0000000000045884 .LASF637
     /tmp/cc2IngwB.s:92443  .debug_str:000000000000b57d .LASF638
     /tmp/cc2IngwB.s:90333  .debug_str:00000000000026de .LASF639
     /tmp/cc2IngwB.s:108119  .debug_str:000000000004abcf .LASF640
     /tmp/cc2IngwB.s:100559  .debug_str:000000000002bd0b .LASF641
     /tmp/cc2IngwB.s:102039  .debug_str:0000000000031b07 .LASF642
     /tmp/cc2IngwB.s:103845  .debug_str:0000000000039170 .LASF643
     /tmp/cc2IngwB.s:90233  .debug_str:0000000000002058 .LASF644
     /tmp/cc2IngwB.s:98853  .debug_str:00000000000251f7 .LASF645
     /tmp/cc2IngwB.s:99857  .debug_str:0000000000028f72 .LASF646
     /tmp/cc2IngwB.s:98859  .debug_str:0000000000025270 .LASF647
     /tmp/cc2IngwB.s:102593  .debug_str:0000000000034069 .LASF648
     /tmp/cc2IngwB.s:105273  .debug_str:000000000003edd5 .LASF649
     /tmp/cc2IngwB.s:108793  .debug_str:000000000004da91 .LASF650
     /tmp/cc2IngwB.s:95405  .debug_str:0000000000016c62 .LASF651
     /tmp/cc2IngwB.s:101579  .debug_str:000000000002fe4c .LASF652
     /tmp/cc2IngwB.s:91411  .debug_str:0000000000006f9b .LASF653
     /tmp/cc2IngwB.s:92371  .debug_str:000000000000b028 .LASF654
     /tmp/cc2IngwB.s:93383  .debug_str:000000000000eef0 .LASF655
     /tmp/cc2IngwB.s:104881  .debug_str:000000000003d317 .LASF656
     /tmp/cc2IngwB.s:97131  .debug_str:000000000001dc9d .LASF657
     /tmp/cc2IngwB.s:107567  .debug_str:000000000004889c .LASF658
     /tmp/cc2IngwB.s:97761  .debug_str:0000000000020950 .LASF659
     /tmp/cc2IngwB.s:92951  .debug_str:000000000000d7e7 .LASF660
     /tmp/cc2IngwB.s:107685  .debug_str:0000000000048ffe .LASF661
     /tmp/cc2IngwB.s:98493  .debug_str:0000000000023a71 .LASF662
     /tmp/cc2IngwB.s:94667  .debug_str:0000000000013ed3 .LASF663
     /tmp/cc2IngwB.s:106373  .debug_str:0000000000043a65 .LASF664
     /tmp/cc2IngwB.s:102831  .debug_str:0000000000034fba .LASF665
     /tmp/cc2IngwB.s:97983  .debug_str:00000000000217c0 .LASF666
     /tmp/cc2IngwB.s:95925  .debug_str:0000000000018e3d .LASF667
     /tmp/cc2IngwB.s:95235  .debug_str:00000000000161e6 .LASF668
     /tmp/cc2IngwB.s:107655  .debug_str:0000000000048df9 .LASF669
     /tmp/cc2IngwB.s:97613  .debug_str:000000000001fe52 .LASF670
     /tmp/cc2IngwB.s:105267  .debug_str:000000000003ed94 .LASF671
     /tmp/cc2IngwB.s:100257  .debug_str:000000000002aa49 .LASF672
     /tmp/cc2IngwB.s:90057  .debug_str:00000000000012f9 .LASF673
     /tmp/cc2IngwB.s:101251  .debug_str:000000000002e83c .LASF674
     /tmp/cc2IngwB.s:106811  .debug_str:000000000004574e .LASF675
     /tmp/cc2IngwB.s:98735  .debug_str:0000000000024ab4 .LASF676
     /tmp/cc2IngwB.s:106469  .debug_str:0000000000044120 .LASF677
     /tmp/cc2IngwB.s:95865  .debug_str:0000000000018ba5 .LASF678
     /tmp/cc2IngwB.s:101757  .debug_str:0000000000030910 .LASF679
     /tmp/cc2IngwB.s:89945  .debug_str:0000000000000b6c .LASF680
     /tmp/cc2IngwB.s:103271  .debug_str:0000000000036ec8 .LASF681
     /tmp/cc2IngwB.s:98693  .debug_str:000000000002479c .LASF683
     /tmp/cc2IngwB.s:100477  .debug_str:000000000002b74a .LASF684
     /tmp/cc2IngwB.s:91509  .debug_str:0000000000007601 .LASF685
     /tmp/cc2IngwB.s:101713  .debug_str:000000000003068e .LASF686
     /tmp/cc2IngwB.s:109107  .debug_str:000000000004f162 .LASF687
     /tmp/cc2IngwB.s:98223  .debug_str:00000000000228c6 .LASF688
     /tmp/cc2IngwB.s:94001  .debug_str:0000000000011271 .LASF689
     /tmp/cc2IngwB.s:107811  .debug_str:00000000000497f6 .LASF690
     /tmp/cc2IngwB.s:105505  .debug_str:000000000003fc7a .LASF691
     /tmp/cc2IngwB.s:105143  .debug_str:000000000003e543 .LASF692
     /tmp/cc2IngwB.s:90679  .debug_str:0000000000003dac .LASF693
     /tmp/cc2IngwB.s:92939  .debug_str:000000000000d720 .LASF694
     /tmp/cc2IngwB.s:108779  .debug_str:000000000004d9bf .LASF695
     /tmp/cc2IngwB.s:109321  .debug_str:000000000004fe78 .LASF696
     /tmp/cc2IngwB.s:109175  .debug_str:000000000004f556 .LASF697
     /tmp/cc2IngwB.s:92667  .debug_str:000000000000c535 .LASF698
     /tmp/cc2IngwB.s:90595  .debug_str:00000000000037fb .LASF699
     /tmp/cc2IngwB.s:95933  .debug_str:0000000000018ee9 .LASF702
     /tmp/cc2IngwB.s:91747  .debug_str:0000000000008595 .LASF703
     /tmp/cc2IngwB.s:94705  .debug_str:0000000000014124 .LASF704
     /tmp/cc2IngwB.s:104677  .debug_str:000000000003c524 .LASF705
     /tmp/cc2IngwB.s:101007  .debug_str:000000000002d82a .LASF706
     /tmp/cc2IngwB.s:95649  .debug_str:0000000000017d99 .LASF707
     /tmp/cc2IngwB.s:101309  .debug_str:000000000002ebbf .LASF708
     /tmp/cc2IngwB.s:103171  .debug_str:0000000000036828 .LASF709
     /tmp/cc2IngwB.s:108205  .debug_str:000000000004b167 .LASF710
     /tmp/cc2IngwB.s:106935  .debug_str:0000000000045e60 .LASF711
     /tmp/cc2IngwB.s:103005  .debug_str:0000000000035c59 .LASF714
     /tmp/cc2IngwB.s:104435  .debug_str:000000000003b46a .LASF715
     /tmp/cc2IngwB.s:108357  .debug_str:000000000004bcaa .LASF716
     /tmp/cc2IngwB.s:93357  .debug_str:000000000000ee5b .LASF717
     /tmp/cc2IngwB.s:107727  .debug_str:000000000004928c .LASF718
     /tmp/cc2IngwB.s:96521  .debug_str:000000000001b5e9 .LASF719
     /tmp/cc2IngwB.s:102309  .debug_str:0000000000032d0b .LASF720
     /tmp/cc2IngwB.s:92307  .debug_str:000000000000abcf .LASF721
     /tmp/cc2IngwB.s:109209  .debug_str:000000000004f7aa .LASF722
     /tmp/cc2IngwB.s:99103  .debug_str:0000000000025f4d .LASF723
     /tmp/cc2IngwB.s:108175  .debug_str:000000000004af17 .LASF724
     /tmp/cc2IngwB.s:104133  .debug_str:000000000003a0d4 .LASF725
     /tmp/cc2IngwB.s:91565  .debug_str:00000000000079fe .LASF726
     /tmp/cc2IngwB.s:101257  .debug_str:000000000002e88b .LASF727
     /tmp/cc2IngwB.s:101773  .debug_str:0000000000030a12 .LASF728
     /tmp/cc2IngwB.s:95107  .debug_str:0000000000015989 .LASF729
     /tmp/cc2IngwB.s:98895  .debug_str:0000000000025406 .LASF730
     /tmp/cc2IngwB.s:100629  .debug_str:000000000002c0f0 .LASF731
     /tmp/cc2IngwB.s:95547  .debug_str:00000000000175c5 .LASF732
     /tmp/cc2IngwB.s:99289  .debug_str:0000000000026a09 .LASF733
     /tmp/cc2IngwB.s:101859  .debug_str:0000000000031002 .LASF734
     /tmp/cc2IngwB.s:98137  .debug_str:00000000000222e6 .LASF735
     /tmp/cc2IngwB.s:109157  .debug_str:000000000004f4a8 .LASF736
     /tmp/cc2IngwB.s:108905  .debug_str:000000000004e1f8 .LASF737
     /tmp/cc2IngwB.s:108105  .debug_str:000000000004ab32 .LASF738
     /tmp/cc2IngwB.s:107845  .debug_str:0000000000049a9d .LASF739
     /tmp/cc2IngwB.s:103885  .debug_str:0000000000039416 .LASF740
     /tmp/cc2IngwB.s:104745  .debug_str:000000000003ca7e .LASF741
     /tmp/cc2IngwB.s:90243  .debug_str:00000000000020fb .LASF742
     /tmp/cc2IngwB.s:92389  .debug_str:000000000000b145 .LASF743
     /tmp/cc2IngwB.s:94041  .debug_str:000000000001153e .LASF744
     /tmp/cc2IngwB.s:92525  .debug_str:000000000000bb3c .LASF745
     /tmp/cc2IngwB.s:109247  .debug_str:000000000004fa70 .LASF746
     /tmp/cc2IngwB.s:100421  .debug_str:000000000002b483 .LASF747
     /tmp/cc2IngwB.s:100565  .debug_str:000000000002bd93 .LASF748
     /tmp/cc2IngwB.s:102107  .debug_str:0000000000031fae .LASF749
     /tmp/cc2IngwB.s:108885  .debug_str:000000000004e0a0 .LASF750
     /tmp/cc2IngwB.s:96327  .debug_str:000000000001a9b1 .LASF751
     /tmp/cc2IngwB.s:105521  .debug_str:000000000003fd5a .LASF752
     /tmp/cc2IngwB.s:99251  .debug_str:00000000000267da .LASF753
     /tmp/cc2IngwB.s:100779  .debug_str:000000000002ca56 .LASF754
     /tmp/cc2IngwB.s:101939  .debug_str:00000000000314f1 .LASF755
     /tmp/cc2IngwB.s:107529  .debug_str:000000000004859b .LASF756
     /tmp/cc2IngwB.s:109117  .debug_str:000000000004f1e4 .LASF757
     /tmp/cc2IngwB.s:97221  .debug_str:000000000001e324 .LASF759
     /tmp/cc2IngwB.s:96757  .debug_str:000000000001c45e .LASF760
     /tmp/cc2IngwB.s:108669  .debug_str:000000000004d1eb .LASF761
     /tmp/cc2IngwB.s:90933  .debug_str:0000000000004f76 .LASF762
     /tmp/cc2IngwB.s:89823  .debug_str:0000000000000366 .LASF763
     /tmp/cc2IngwB.s:92615  .debug_str:000000000000c230 .LASF764
     /tmp/cc2IngwB.s:100259  .debug_str:000000000002aa5c .LASF765
     /tmp/cc2IngwB.s:89979  .debug_str:0000000000000d80 .LASF766
     /tmp/cc2IngwB.s:96935  .debug_str:000000000001cfaa .LASF767
     /tmp/cc2IngwB.s:92283  .debug_str:000000000000aa77 .LASF768
     /tmp/cc2IngwB.s:100837  .debug_str:000000000002cdb8 .LASF769
     /tmp/cc2IngwB.s:102063  .debug_str:0000000000031cf9 .LASF770
     /tmp/cc2IngwB.s:106969  .debug_str:000000000004618a .LASF771
     /tmp/cc2IngwB.s:92957  .debug_str:000000000000d83b .LASF774
     /tmp/cc2IngwB.s:104455  .debug_str:000000000003b5e2 .LASF775
     /tmp/cc2IngwB.s:90317  .debug_str:0000000000002606 .LASF776
     /tmp/cc2IngwB.s:90741  .debug_str:000000000000425f .LASF777
     /tmp/cc2IngwB.s:102137  .debug_str:000000000003216a .LASF778
     /tmp/cc2IngwB.s:105303  .debug_str:000000000003f01b .LASF779
     /tmp/cc2IngwB.s:98307  .debug_str:0000000000022dab .LASF780
     /tmp/cc2IngwB.s:104645  .debug_str:000000000003c2ff .LASF781
     /tmp/cc2IngwB.s:98547  .debug_str:0000000000023df2 .LASF782
     /tmp/cc2IngwB.s:91207  .debug_str:0000000000006127 .LASF783
     /tmp/cc2IngwB.s:106977  .debug_str:00000000000461f1 .LASF784
     /tmp/cc2IngwB.s:104303  .debug_str:000000000003ab79 .LASF785
     /tmp/cc2IngwB.s:108869  .debug_str:000000000004df58 .LASF786
     /tmp/cc2IngwB.s:104333  .debug_str:000000000003ad62 .LASF787
     /tmp/cc2IngwB.s:93215  .debug_str:000000000000e6e3 .LASF788
     /tmp/cc2IngwB.s:107747  .debug_str:00000000000493e7 .LASF789
     /tmp/cc2IngwB.s:108805  .debug_str:000000000004db54 .LASF790
     /tmp/cc2IngwB.s:107165  .debug_str:0000000000046db3 .LASF791
     /tmp/cc2IngwB.s:93431  .debug_str:000000000000f1af .LASF792
     /tmp/cc2IngwB.s:91647  .debug_str:0000000000007f13 .LASF793
     /tmp/cc2IngwB.s:101689  .debug_str:0000000000030553 .LASF794
     /tmp/cc2IngwB.s:99905  .debug_str:00000000000292f5 .LASF795
     /tmp/cc2IngwB.s:105849  .debug_str:0000000000041292 .LASF796
     /tmp/cc2IngwB.s:97919  .debug_str:00000000000213a1 .LASF797
     /tmp/cc2IngwB.s:103391  .debug_str:0000000000037669 .LASF798
     /tmp/cc2IngwB.s:105435  .debug_str:000000000003f80a .LASF799
     /tmp/cc2IngwB.s:104909  .debug_str:000000000003d4ee .LASF800
     /tmp/cc2IngwB.s:95419  .debug_str:0000000000016d74 .LASF801
     /tmp/cc2IngwB.s:107917  .debug_str:0000000000049f1a .LASF802
     /tmp/cc2IngwB.s:104497  .debug_str:000000000003b8d4 .LASF803
     /tmp/cc2IngwB.s:94993  .debug_str:0000000000015272 .LASF804
     /tmp/cc2IngwB.s:90281  .debug_str:00000000000023d9 .LASF805
     /tmp/cc2IngwB.s:93077  .debug_str:000000000000df04 .LASF806
     /tmp/cc2IngwB.s:97055  .debug_str:000000000001d749 .LASF807
     /tmp/cc2IngwB.s:90373  .debug_str:00000000000029b8 .LASF808
     /tmp/cc2IngwB.s:105573  .debug_str:00000000000400e6 .LASF809
     /tmp/cc2IngwB.s:103371  .debug_str:0000000000037505 .LASF810
     /tmp/cc2IngwB.s:101821  .debug_str:0000000000030dbe .LASF811
     /tmp/cc2IngwB.s:107343  .debug_str:000000000004796e .LASF812
     /tmp/cc2IngwB.s:97593  .debug_str:000000000001fd4c .LASF813
     /tmp/cc2IngwB.s:104523  .debug_str:000000000003ba47 .LASF814
     /tmp/cc2IngwB.s:94607  .debug_str:0000000000013acf .LASF815
     /tmp/cc2IngwB.s:106187  .debug_str:0000000000042e1e .LASF816
     /tmp/cc2IngwB.s:90767  .debug_str:000000000000445a .LASF817
     /tmp/cc2IngwB.s:108839  .debug_str:000000000004dd24 .LASF818
     /tmp/cc2IngwB.s:105379  .debug_str:000000000003f48e .LASF819
     /tmp/cc2IngwB.s:103775  .debug_str:0000000000038dd2 .LASF820
     /tmp/cc2IngwB.s:101621  .debug_str:00000000000300f4 .LASF821
     /tmp/cc2IngwB.s:92007  .debug_str:0000000000009717 .LASF822
     /tmp/cc2IngwB.s:96399  .debug_str:000000000001ae98 .LASF823
     /tmp/cc2IngwB.s:103495  .debug_str:0000000000037ca0 .LASF824
     /tmp/cc2IngwB.s:97053  .debug_str:000000000001d73c .LASF825
     /tmp/cc2IngwB.s:92929  .debug_str:000000000000d6a6 .LASF826
     /tmp/cc2IngwB.s:93161  .debug_str:000000000000e3b7 .LASF831
     /tmp/cc2IngwB.s:95277  .debug_str:0000000000016427 .LASF832
     /tmp/cc2IngwB.s:100471  .debug_str:000000000002b70a .LASF833
     /tmp/cc2IngwB.s:100087  .debug_str:0000000000029ea1 .LASF834
     /tmp/cc2IngwB.s:109171  .debug_str:000000000004f51e .LASF835
     /tmp/cc2IngwB.s:106853  .debug_str:00000000000459d7 .LASF837
     /tmp/cc2IngwB.s:90151  .debug_str:0000000000001a78 .LASF838
     /tmp/cc2IngwB.s:103347  .debug_str:00000000000373d9 .LASF839
     /tmp/cc2IngwB.s:100051  .debug_str:0000000000029c5f .LASF841
     /tmp/cc2IngwB.s:109219  .debug_str:000000000004f88f .LASF842
     /tmp/cc2IngwB.s:101835  .debug_str:0000000000030ea0 .LASF843
     /tmp/cc2IngwB.s:102643  .debug_str:00000000000343da .LASF844
     /tmp/cc2IngwB.s:90261  .debug_str:0000000000002271 .LASF845
     /tmp/cc2IngwB.s:92727  .debug_str:000000000000c931 .LASF846
     /tmp/cc2IngwB.s:101697  .debug_str:00000000000305d7 .LASF847
     /tmp/cc2IngwB.s:99747  .debug_str:0000000000028790 .LASF848
     /tmp/cc2IngwB.s:107961  .debug_str:000000000004a1bd .LASF849
     /tmp/cc2IngwB.s:104011  .debug_str:00000000000399f8 .LASF850
     /tmp/cc2IngwB.s:102859  .debug_str:0000000000035298 .LASF851
     /tmp/cc2IngwB.s:107117  .debug_str:0000000000046ae6 .LASF852
     /tmp/cc2IngwB.s:103163  .debug_str:00000000000367bc .LASF853
     /tmp/cc2IngwB.s:96831  .debug_str:000000000001c90e .LASF854
     /tmp/cc2IngwB.s:103217  .debug_str:0000000000036b95 .LASF855
     /tmp/cc2IngwB.s:102393  .debug_str:0000000000033320 .LASF856
     /tmp/cc2IngwB.s:95969  .debug_str:00000000000190f4 .LASF857
     /tmp/cc2IngwB.s:108207  .debug_str:000000000004b23e .LASF858
     /tmp/cc2IngwB.s:93187  .debug_str:000000000000e539 .LASF859
     /tmp/cc2IngwB.s:103891  .debug_str:0000000000039446 .LASF860
     /tmp/cc2IngwB.s:91341  .debug_str:00000000000069e6 .LASF861
     /tmp/cc2IngwB.s:94039  .debug_str:0000000000011530 .LASF862
     /tmp/cc2IngwB.s:96909  .debug_str:000000000001ce6d .LASF863
     /tmp/cc2IngwB.s:104135  .debug_str:000000000003a158 .LASF864
     /tmp/cc2IngwB.s:109413  .debug_str:00000000000504f7 .LASF865
     /tmp/cc2IngwB.s:107535  .debug_str:00000000000485ee .LASF866
     /tmp/cc2IngwB.s:101797  .debug_str:0000000000030bb9 .LASF867
     /tmp/cc2IngwB.s:94217  .debug_str:0000000000012056 .LASF868
     /tmp/cc2IngwB.s:102971  .debug_str:0000000000035a2f .LASF869
     /tmp/cc2IngwB.s:91187  .debug_str:0000000000005f9f .LASF870
     /tmp/cc2IngwB.s:105611  .debug_str:000000000004032e .LASF871
     /tmp/cc2IngwB.s:98045  .debug_str:0000000000021c19 .LASF872
     /tmp/cc2IngwB.s:106625  .debug_str:0000000000044b2a .LASF873
     /tmp/cc2IngwB.s:97585  .debug_str:000000000001fcb9 .LASF874
     /tmp/cc2IngwB.s:98403  .debug_str:00000000000233e1 .LASF875
     /tmp/cc2IngwB.s:106607  .debug_str:00000000000449f3 .LASF876
     /tmp/cc2IngwB.s:107995  .debug_str:000000000004a41d .LASF877
     /tmp/cc2IngwB.s:99729  .debug_str:000000000002865e .LASF878
     /tmp/cc2IngwB.s:97763  .debug_str:000000000002096a .LASF879
     /tmp/cc2IngwB.s:101893  .debug_str:000000000003123b .LASF880
     /tmp/cc2IngwB.s:100865  .debug_str:000000000002cf64 .LASF881
     /tmp/cc2IngwB.s:96783  .debug_str:000000000001c5c1 .LASF882
     /tmp/cc2IngwB.s:108955  .debug_str:000000000004e673 .LASF883
     /tmp/cc2IngwB.s:93539  .debug_str:000000000000f8c0 .LASF884
     /tmp/cc2IngwB.s:107367  .debug_str:0000000000047ab0 .LASF885
     /tmp/cc2IngwB.s:100113  .debug_str:000000000002a037 .LASF886
     /tmp/cc2IngwB.s:91259  .debug_str:0000000000006481 .LASF887
     /tmp/cc2IngwB.s:107365  .debug_str:0000000000047a88 .LASF888
     /tmp/cc2IngwB.s:94447  .debug_str:0000000000012fcd .LASF889
     /tmp/cc2IngwB.s:98391  .debug_str:0000000000023323 .LASF890
     /tmp/cc2IngwB.s:107579  .debug_str:000000000004895b .LASF891
     /tmp/cc2IngwB.s:90357  .debug_str:00000000000028c9 .LASF892
     /tmp/cc2IngwB.s:102013  .debug_str:0000000000031964 .LASF893
     /tmp/cc2IngwB.s:95667  .debug_str:0000000000017f01 .LASF894
     /tmp/cc2IngwB.s:105709  .debug_str:0000000000040910 .LASF895
     /tmp/cc2IngwB.s:90937  .debug_str:0000000000004f8d .LASF896
     /tmp/cc2IngwB.s:91515  .debug_str:000000000000764b .LASF897
     /tmp/cc2IngwB.s:107907  .debug_str:0000000000049ea2 .LASF898
     /tmp/cc2IngwB.s:103663  .debug_str:0000000000038734 .LASF899
     /tmp/cc2IngwB.s:107119  .debug_str:0000000000046aee .LASF900
     /tmp/cc2IngwB.s:93179  .debug_str:000000000000e4d9 .LASF901
     /tmp/cc2IngwB.s:94283  .debug_str:000000000001250e .LASF902
     /tmp/cc2IngwB.s:107969  .debug_str:000000000004a223 .LASF903
     /tmp/cc2IngwB.s:90117  .debug_str:000000000000171c .LASF904
     /tmp/cc2IngwB.s:98487  .debug_str:00000000000239ff .LASF905
     /tmp/cc2IngwB.s:90205  .debug_str:0000000000001e98 .LASF906
     /tmp/cc2IngwB.s:107383  .debug_str:0000000000047b7b .LASF907
     /tmp/cc2IngwB.s:101227  .debug_str:000000000002e691 .LASF908
     /tmp/cc2IngwB.s:100997  .debug_str:000000000002d7ca .LASF909
     /tmp/cc2IngwB.s:102403  .debug_str:0000000000033390 .LASF910
     /tmp/cc2IngwB.s:108405  .debug_str:000000000004c02c .LASF911
     /tmp/cc2IngwB.s:102625  .debug_str:00000000000342b2 .LASF912
     /tmp/cc2IngwB.s:104805  .debug_str:000000000003ceaf .LASF913
     /tmp/cc2IngwB.s:107267  .debug_str:00000000000473da .LASF914
     /tmp/cc2IngwB.s:90927  .debug_str:0000000000004f15 .LASF915
     /tmp/cc2IngwB.s:91325  .debug_str:000000000000688d .LASF916
     /tmp/cc2IngwB.s:101393  .debug_str:000000000002f1af .LASF917
     /tmp/cc2IngwB.s:106849  .debug_str:0000000000045998 .LASF918
     /tmp/cc2IngwB.s:100585  .debug_str:000000000002beeb .LASF919
     /tmp/cc2IngwB.s:107409  .debug_str:0000000000047d92 .LASF920
     /tmp/cc2IngwB.s:101047  .debug_str:000000000002da9f .LASF921
     /tmp/cc2IngwB.s:99763  .debug_str:00000000000288a7 .LASF922
     /tmp/cc2IngwB.s:98111  .debug_str:0000000000022185 .LASF923
     /tmp/cc2IngwB.s:103147  .debug_str:00000000000366bc .LASF924
     /tmp/cc2IngwB.s:109017  .debug_str:000000000004eb05 .LASF925
     /tmp/cc2IngwB.s:108849  .debug_str:000000000004dde8 .LASF926
     /tmp/cc2IngwB.s:105669  .debug_str:0000000000040692 .LASF927
     /tmp/cc2IngwB.s:103433  .debug_str:000000000003796f .LASF928
     /tmp/cc2IngwB.s:95287  .debug_str:00000000000164dd .LASF929
     /tmp/cc2IngwB.s:103321  .debug_str:0000000000037210 .LASF930
     /tmp/cc2IngwB.s:93585  .debug_str:000000000000fac4 .LASF931
     /tmp/cc2IngwB.s:107307  .debug_str:00000000000476f1 .LASF932
     /tmp/cc2IngwB.s:93711  .debug_str:000000000001032c .LASF933
     /tmp/cc2IngwB.s:94721  .debug_str:000000000001420d .LASF934
     /tmp/cc2IngwB.s:91419  .debug_str:0000000000007049 .LASF936
     /tmp/cc2IngwB.s:108605  .debug_str:000000000004ccf3 .LASF937
     /tmp/cc2IngwB.s:97029  .debug_str:000000000001d5cf .LASF938
     /tmp/cc2IngwB.s:97435  .debug_str:000000000001f11f .LASF939
     /tmp/cc2IngwB.s:104217  .debug_str:000000000003a598 .LASF940
     /tmp/cc2IngwB.s:98709  .debug_str:0000000000024876 .LASF941
     /tmp/cc2IngwB.s:103213  .debug_str:0000000000036b13 .LASF942
     /tmp/cc2IngwB.s:108197  .debug_str:000000000004b0af .LASF943
     /tmp/cc2IngwB.s:93705  .debug_str:00000000000102bc .LASF944
     /tmp/cc2IngwB.s:98731  .debug_str:0000000000024a61 .LASF945
     /tmp/cc2IngwB.s:103577  .debug_str:00000000000381ae .LASF946
     /tmp/cc2IngwB.s:108435  .debug_str:000000000004c1f0 .LASF947
     /tmp/cc2IngwB.s:93601  .debug_str:000000000000fc0f .LASF948
     /tmp/cc2IngwB.s:96865  .debug_str:000000000001cb32 .LASF949
     /tmp/cc2IngwB.s:93905  .debug_str:0000000000010c9d .LASF950
     /tmp/cc2IngwB.s:106923  .debug_str:0000000000045dc3 .LASF951
     /tmp/cc2IngwB.s:97665  .debug_str:0000000000020225 .LASF952
     /tmp/cc2IngwB.s:104091  .debug_str:0000000000039df0 .LASF953
     /tmp/cc2IngwB.s:90839  .debug_str:00000000000048de .LASF954
     /tmp/cc2IngwB.s:92569  .debug_str:000000000000bee0 .LASF955
     /tmp/cc2IngwB.s:102453  .debug_str:000000000003369e .LASF956
     /tmp/cc2IngwB.s:92177  .debug_str:000000000000a2d7 .LASF957
     /tmp/cc2IngwB.s:96849  .debug_str:000000000001ca0f .LASF958
     /tmp/cc2IngwB.s:108309  .debug_str:000000000004b924 .LASF959
     /tmp/cc2IngwB.s:98329  .debug_str:0000000000022ef1 .LASF960
     /tmp/cc2IngwB.s:97047  .debug_str:000000000001d6d3 .LASF961
     /tmp/cc2IngwB.s:98127  .debug_str:000000000002222a .LASF962
     /tmp/cc2IngwB.s:102269  .debug_str:0000000000032a50 .LASF963
     /tmp/cc2IngwB.s:92695  .debug_str:000000000000c6e0 .LASF964
     /tmp/cc2IngwB.s:92451  .debug_str:000000000000b63a .LASF965
     /tmp/cc2IngwB.s:102325  .debug_str:0000000000032e15 .LASF966
     /tmp/cc2IngwB.s:89825  .debug_str:000000000000037e .LASF967
     /tmp/cc2IngwB.s:102087  .debug_str:0000000000031e8c .LASF968
     /tmp/cc2IngwB.s:108185  .debug_str:000000000004afd7 .LASF969
     /tmp/cc2IngwB.s:98211  .debug_str:00000000000227cb .LASF970
     /tmp/cc2IngwB.s:107977  .debug_str:000000000004a2c1 .LASF971
     /tmp/cc2IngwB.s:98003  .debug_str:0000000000021930 .LASF972
     /tmp/cc2IngwB.s:92529  .debug_str:000000000000bb66 .LASF973
     /tmp/cc2IngwB.s:102417  .debug_str:000000000003347a .LASF974
     /tmp/cc2IngwB.s:92323  .debug_str:000000000000aca8 .LASF975
     /tmp/cc2IngwB.s:102189  .debug_str:0000000000032474 .LASF976
     /tmp/cc2IngwB.s:91929  .debug_str:000000000000920a .LASF977
     /tmp/cc2IngwB.s:99863  .debug_str:0000000000028fde .LASF978
     /tmp/cc2IngwB.s:108067  .debug_str:000000000004a8ac .LASF979
     /tmp/cc2IngwB.s:98091  .debug_str:0000000000021f85 .LASF980
     /tmp/cc2IngwB.s:107861  .debug_str:0000000000049b6d .LASF981
     /tmp/cc2IngwB.s:97873  .debug_str:00000000000210ac .LASF982
     /tmp/cc2IngwB.s:92419  .debug_str:000000000000b3ed .LASF983
     /tmp/cc2IngwB.s:102291  .debug_str:0000000000032be8 .LASF984
     /tmp/cc2IngwB.s:92195  .debug_str:000000000000a445 .LASF985
     /tmp/cc2IngwB.s:102053  .debug_str:0000000000031bed .LASF986
     /tmp/cc2IngwB.s:98893  .debug_str:00000000000253cc .LASF987
     /tmp/cc2IngwB.s:92783  .debug_str:000000000000cd4c .LASF988
     /tmp/cc2IngwB.s:106629  .debug_str:0000000000044b4b .LASF989
     /tmp/cc2IngwB.s:106479  .debug_str:00000000000441cf .LASF990
     /tmp/cc2IngwB.s:99839  .debug_str:0000000000028e77 .LASF991
     /tmp/cc2IngwB.s:102803  .debug_str:0000000000034d99 .LASF992
     /tmp/cc2IngwB.s:102513  .debug_str:0000000000033abf .LASF993
     /tmp/cc2IngwB.s:102223  .debug_str:0000000000032698 .LASF994
     /tmp/cc2IngwB.s:95177  .debug_str:0000000000015e41 .LASF995
     /tmp/cc2IngwB.s:109423  .debug_str:000000000005059e .LASF996
     /tmp/cc2IngwB.s:102861  .debug_str:000000000003529f .LASF997
     /tmp/cc2IngwB.s:107059  .debug_str:00000000000466fa .LASF998
     /tmp/cc2IngwB.s:106743  .debug_str:00000000000452ba .LASF999
     /tmp/cc2IngwB.s:106473  .debug_str:0000000000044153 .LASF1000
     /tmp/cc2IngwB.s:90171  .debug_str:0000000000001ba4 .LASF1001
     /tmp/cc2IngwB.s:105901  .debug_str:0000000000041733 .LASF1002
     /tmp/cc2IngwB.s:99451  .debug_str:0000000000027496 .LASF1003
     /tmp/cc2IngwB.s:109069  .debug_str:000000000004ee48 .LASF1004
     /tmp/cc2IngwB.s:97573  .debug_str:000000000001fbc2 .LASF1005
     /tmp/cc2IngwB.s:97265  .debug_str:000000000001e61c .LASF1006
     /tmp/cc2IngwB.s:95307  .debug_str:00000000000165dc .LASF1007
     /tmp/cc2IngwB.s:108875  .debug_str:000000000004dfcc .LASF1008
     /tmp/cc2IngwB.s:102489  .debug_str:0000000000033909 .LASF1009
     /tmp/cc2IngwB.s:108913  .debug_str:000000000004e296 .LASF1010
     /tmp/cc2IngwB.s:101767  .debug_str:0000000000030986 .LASF1011
     /tmp/cc2IngwB.s:101491  .debug_str:000000000002f7e1 .LASF1012
     /tmp/cc2IngwB.s:90309  .debug_str:0000000000002558 .LASF1013
     /tmp/cc2IngwB.s:101737  .debug_str:00000000000307d0 .LASF1014
     /tmp/cc2IngwB.s:104589  .debug_str:000000000003bf34 .LASF1015
     /tmp/cc2IngwB.s:92053  .debug_str:0000000000009a56 .LASF1016
     /tmp/cc2IngwB.s:94129  .debug_str:0000000000011a66 .LASF1017
     /tmp/cc2IngwB.s:108867  .debug_str:000000000004df13 .LASF1018
     /tmp/cc2IngwB.s:103527  .debug_str:0000000000037f4e .LASF1019
     /tmp/cc2IngwB.s:90749  .debug_str:00000000000042db .LASF1020
     /tmp/cc2IngwB.s:90019  .debug_str:0000000000001059 .LASF1021
     /tmp/cc2IngwB.s:101271  .debug_str:000000000002e92b .LASF1022
     /tmp/cc2IngwB.s:99217  .debug_str:00000000000265e1 .LASF1023
     /tmp/cc2IngwB.s:108889  .debug_str:000000000004e0c5 .LASF1024
     /tmp/cc2IngwB.s:108657  .debug_str:000000000004d0e5 .LASF1025
     /tmp/cc2IngwB.s:109429  .debug_str:0000000000050613 .LASF1026
     /tmp/cc2IngwB.s:95185  .debug_str:0000000000015efd .LASF1027
     /tmp/cc2IngwB.s:100811  .debug_str:000000000002cc57 .LASF1028
     /tmp/cc2IngwB.s:106195  .debug_str:0000000000042ee7 .LASF1029
     /tmp/cc2IngwB.s:93959  .debug_str:000000000001104e .LASF1030
     /tmp/cc2IngwB.s:90689  .debug_str:0000000000003e5b .LASF1031
     /tmp/cc2IngwB.s:105027  .debug_str:000000000003dc73 .LASF1032
     /tmp/cc2IngwB.s:101849  .debug_str:0000000000030f55 .LASF1033
     /tmp/cc2IngwB.s:107281  .debug_str:00000000000474c8 .LASF1034
     /tmp/cc2IngwB.s:101817  .debug_str:0000000000030d56 .LASF1035
     /tmp/cc2IngwB.s:107511  .debug_str:0000000000048462 .LASF1036
     /tmp/cc2IngwB.s:97505  .debug_str:000000000001f6c3 .LASF1037
     /tmp/cc2IngwB.s:107157  .debug_str:0000000000046d41 .LASF1038
     /tmp/cc2IngwB.s:97273  .debug_str:000000000001e6af .LASF1039
     /tmp/cc2IngwB.s:103513  .debug_str:0000000000037e4b .LASF1040
     /tmp/cc2IngwB.s:93283  .debug_str:000000000000ea6a .LASF1041
     /tmp/cc2IngwB.s:103285  .debug_str:0000000000036f8b .LASF1042
     /tmp/cc2IngwB.s:90203  .debug_str:0000000000001e56 .LASF1043
     /tmp/cc2IngwB.s:102935  .debug_str:0000000000035729 .LASF1044
     /tmp/cc2IngwB.s:105837  .debug_str:0000000000041162 .LASF1045
     /tmp/cc2IngwB.s:107389  .debug_str:0000000000047be7 .LASF1046
     /tmp/cc2IngwB.s:96979  .debug_str:000000000001d2d5 .LASF1047
     /tmp/cc2IngwB.s:107039  .debug_str:0000000000046593 .LASF1048
     /tmp/cc2IngwB.s:97163  .debug_str:000000000001df1b .LASF1049
     /tmp/cc2IngwB.s:103377  .debug_str:0000000000037542 .LASF1050
     /tmp/cc2IngwB.s:93137  .debug_str:000000000000e268 .LASF1051
     /tmp/cc2IngwB.s:103167  .debug_str:00000000000367de .LASF1052
     /tmp/cc2IngwB.s:90439  .debug_str:0000000000002dcf .LASF1053
     /tmp/cc2IngwB.s:102809  .debug_str:0000000000034e23 .LASF1054
     /tmp/cc2IngwB.s:92533  .debug_str:000000000000bbd5 .LASF1055
     /tmp/cc2IngwB.s:107279  .debug_str:0000000000047486 .LASF1056
     /tmp/cc2IngwB.s:97237  .debug_str:000000000001e461 .LASF1057
     /tmp/cc2IngwB.s:100261  .debug_str:000000000002aa74 .LASF1058
     /tmp/cc2IngwB.s:91505  .debug_str:00000000000075ca .LASF1059
     /tmp/cc2IngwB.s:101899  .debug_str:00000000000312aa .LASF1060
     /tmp/cc2IngwB.s:96975  .debug_str:000000000001d2b4 .LASF1061
     /tmp/cc2IngwB.s:98049  .debug_str:0000000000021c3f .LASF1062
     /tmp/cc2IngwB.s:103177  .debug_str:00000000000368e6 .LASF1063
     /tmp/cc2IngwB.s:91971  .debug_str:00000000000094fe .LASF1064
     /tmp/cc2IngwB.s:95371  .debug_str:00000000000169e2 .LASF1065
     /tmp/cc2IngwB.s:109299  .debug_str:000000000004fd0c .LASF1066
     /tmp/cc2IngwB.s:98151  .debug_str:0000000000022371 .LASF1067
     /tmp/cc2IngwB.s:96193  .debug_str:000000000001a0d7 .LASF1068
     /tmp/cc2IngwB.s:108677  .debug_str:000000000004d275 .LASF1069
     /tmp/cc2IngwB.s:101543  .debug_str:000000000002fc43 .LASF1070
     /tmp/cc2IngwB.s:100871  .debug_str:000000000002cff4 .LASF1071
     /tmp/cc2IngwB.s:98753  .debug_str:0000000000024bd6 .LASF1072
     /tmp/cc2IngwB.s:90817  .debug_str:0000000000004755 .LASF1073
     /tmp/cc2IngwB.s:101391  .debug_str:000000000002f196 .LASF1074
     /tmp/cc2IngwB.s:100663  .debug_str:000000000002c343 .LASF1075
     /tmp/cc2IngwB.s:106395  .debug_str:0000000000043bf6 .LASF1076
     /tmp/cc2IngwB.s:94149  .debug_str:0000000000011bb2 .LASF1077
     /tmp/cc2IngwB.s:105211  .debug_str:000000000003ea2b .LASF1078
     /tmp/cc2IngwB.s:96257  .debug_str:000000000001a525 .LASF1079
     /tmp/cc2IngwB.s:107083  .debug_str:0000000000046887 .LASF1080
     /tmp/cc2IngwB.s:98165  .debug_str:000000000002241d .LASF1081
     /tmp/cc2IngwB.s:94469  .debug_str:0000000000013171 .LASF1082
     /tmp/cc2IngwB.s:109019  .debug_str:000000000004eb1b .LASF1083
     /tmp/cc2IngwB.s:96507  .debug_str:000000000001b526 .LASF1084
     /tmp/cc2IngwB.s:107295  .debug_str:0000000000047602 .LASF1085
     /tmp/cc2IngwB.s:98385  .debug_str:00000000000232de .LASF1086
     /tmp/cc2IngwB.s:109133  .debug_str:000000000004f2c2 .LASF1087
     /tmp/cc2IngwB.s:100355  .debug_str:000000000002afb7 .LASF1088
     /tmp/cc2IngwB.s:91431  .debug_str:0000000000007116 .LASF1089
     /tmp/cc2IngwB.s:102381  .debug_str:0000000000033258 .LASF1090
     /tmp/cc2IngwB.s:93233  .debug_str:000000000000e85b .LASF1091
     /tmp/cc2IngwB.s:109431  .debug_str:0000000000050653 .LASF1092
     /tmp/cc2IngwB.s:106825  .debug_str:000000000004582f .LASF1093
     /tmp/cc2IngwB.s:91483  .debug_str:00000000000074a2 .LASF1094
     /tmp/cc2IngwB.s:102441  .debug_str:00000000000335f4 .LASF1095
     /tmp/cc2IngwB.s:93495  .debug_str:000000000000f53a .LASF1096
     /tmp/cc2IngwB.s:104477  .debug_str:000000000003b784 .LASF1097
     /tmp/cc2IngwB.s:105023  .debug_str:000000000003dc41 .LASF1098
     /tmp/cc2IngwB.s:106265  .debug_str:00000000000433dd .LASF1099
     /tmp/cc2IngwB.s:97359  .debug_str:000000000001ecca .LASF1100
     /tmp/cc2IngwB.s:108263  .debug_str:000000000004b5bd .LASF1101
     /tmp/cc2IngwB.s:92507  .debug_str:000000000000ba19 .LASF1102
     /tmp/cc2IngwB.s:95689  .debug_str:000000000001808c .LASF1103
     /tmp/cc2IngwB.s:106537  .debug_str:00000000000445a1 .LASF1104
     /tmp/cc2IngwB.s:107487  .debug_str:0000000000048299 .LASF1105
     /tmp/cc2IngwB.s:93625  .debug_str:000000000000fe49 .LASF1106
     /tmp/cc2IngwB.s:105971  .debug_str:0000000000041d08 .LASF1107
     /tmp/cc2IngwB.s:98565  .debug_str:0000000000023f22 .LASF1108
     /tmp/cc2IngwB.s:91029  .debug_str:0000000000005574 .LASF1109
     /tmp/cc2IngwB.s:103467  .debug_str:0000000000037b4a .LASF1110
     /tmp/cc2IngwB.s:102577  .debug_str:0000000000033f64 .LASF1111
     /tmp/cc2IngwB.s:95605  .debug_str:0000000000017a74 .LASF1112
     /tmp/cc2IngwB.s:94779  .debug_str:0000000000014592 .LASF1113
     /tmp/cc2IngwB.s:107109  .debug_str:0000000000046a7d .LASF1114
     /tmp/cc2IngwB.s:99505  .debug_str:000000000002775c .LASF1115
     /tmp/cc2IngwB.s:94867  .debug_str:0000000000014b5c .LASF1116
     /tmp/cc2IngwB.s:93709  .debug_str:0000000000010318 .LASF1117
     /tmp/cc2IngwB.s:102961  .debug_str:000000000003597b .LASF1118
     /tmp/cc2IngwB.s:108421  .debug_str:000000000004c134 .LASF1119
     /tmp/cc2IngwB.s:95615  .debug_str:0000000000017b14 .LASF1120
     /tmp/cc2IngwB.s:95919  .debug_str:0000000000018e0d .LASF1121
     /tmp/cc2IngwB.s:109041  .debug_str:000000000004ec57 .LASF1122
     /tmp/cc2IngwB.s:100179  .debug_str:000000000002a4c0 .LASF1123
     /tmp/cc2IngwB.s:91017  .debug_str:00000000000054a2 .LASF1124
     /tmp/cc2IngwB.s:102105  .debug_str:0000000000031f93 .LASF1125
     /tmp/cc2IngwB.s:93127  .debug_str:000000000000e1c4 .LASF1126
     /tmp/cc2IngwB.s:104137  .debug_str:000000000003a163 .LASF1127
     /tmp/cc2IngwB.s:95091  .debug_str:00000000000158a8 .LASF1128
     /tmp/cc2IngwB.s:105881  .debug_str:00000000000415c1 .LASF1129
     /tmp/cc2IngwB.s:97013  .debug_str:000000000001d4a2 .LASF1130
     /tmp/cc2IngwB.s:99781  .debug_str:0000000000028a02 .LASF1131
     /tmp/cc2IngwB.s:90713  .debug_str:0000000000004036 .LASF1132
     /tmp/cc2IngwB.s:101681  .debug_str:00000000000304e0 .LASF1133
     /tmp/cc2IngwB.s:92517  .debug_str:000000000000badc .LASF1134
     /tmp/cc2IngwB.s:108663  .debug_str:000000000004d164 .LASF1135
     /tmp/cc2IngwB.s:98367  .debug_str:00000000000231a8 .LASF1136
     /tmp/cc2IngwB.s:105495  .debug_str:000000000003fbc8 .LASF1137
     /tmp/cc2IngwB.s:96591  .debug_str:000000000001b9cb .LASF1138
     /tmp/cc2IngwB.s:92691  .debug_str:000000000000c695 .LASF1139
     /tmp/cc2IngwB.s:98447  .debug_str:00000000000236ca .LASF1140
     /tmp/cc2IngwB.s:94769  .debug_str:0000000000014519 .LASF1141
     /tmp/cc2IngwB.s:105553  .debug_str:000000000003ff47 .LASF1142
     /tmp/cc2IngwB.s:96851  .debug_str:000000000001ca51 .LASF1143
     /tmp/cc2IngwB.s:107589  .debug_str:00000000000489e2 .LASF1144
     /tmp/cc2IngwB.s:98719  .debug_str:000000000002496c .LASF1145
     /tmp/cc2IngwB.s:95431  .debug_str:0000000000016e98 .LASF1146
     /tmp/cc2IngwB.s:100673  .debug_str:000000000002c40d .LASF1147
     /tmp/cc2IngwB.s:91705  .debug_str:000000000000829f .LASF1148
     /tmp/cc2IngwB.s:90547  .debug_str:00000000000034ec .LASF1149
     /tmp/cc2IngwB.s:93563  .debug_str:000000000000f93c .LASF1150
     /tmp/cc2IngwB.s:89977  .debug_str:0000000000000d64 .LASF1151
     /tmp/cc2IngwB.s:100909  .debug_str:000000000002d2c3 .LASF1152
     /tmp/cc2IngwB.s:94777  .debug_str:0000000000014567 .LASF1153
     /tmp/cc2IngwB.s:90515  .debug_str:000000000000331a .LASF1154
     /tmp/cc2IngwB.s:102741  .debug_str:0000000000034a15 .LASF1155
     /tmp/cc2IngwB.s:96249  .debug_str:000000000001a480 .LASF1156
     /tmp/cc2IngwB.s:102631  .debug_str:0000000000034332 .LASF1157
     /tmp/cc2IngwB.s:98929  .debug_str:0000000000025606 .LASF1158
     /tmp/cc2IngwB.s:104299  .debug_str:000000000003ab2b .LASF1159
     /tmp/cc2IngwB.s:98379  .debug_str:0000000000023260 .LASF1160
     /tmp/cc2IngwB.s:105349  .debug_str:000000000003f338 .LASF1161
     /tmp/cc2IngwB.s:97825  .debug_str:0000000000020de3 .LASF1162
     /tmp/cc2IngwB.s:104995  .debug_str:000000000003da65 .LASF1163
     /tmp/cc2IngwB.s:94097  .debug_str:000000000001181b .LASF1164
     /tmp/cc2IngwB.s:108017  .debug_str:000000000004a5ec .LASF1165
     /tmp/cc2IngwB.s:106731  .debug_str:00000000000451d2 .LASF1166
     /tmp/cc2IngwB.s:96333  .debug_str:000000000001a9e9 .LASF1167
     /tmp/cc2IngwB.s:96089  .debug_str:0000000000019995 .LASF1168
     /tmp/cc2IngwB.s:95661  .debug_str:0000000000017e66 .LASF1169
     /tmp/cc2IngwB.s:95435  .debug_str:0000000000016ebe .LASF1170
     /tmp/cc2IngwB.s:95029  .debug_str:0000000000015472 .LASF1171
     /tmp/cc2IngwB.s:94787  .debug_str:00000000000145f0 .LASF1172
     /tmp/cc2IngwB.s:94379  .debug_str:0000000000012ae5 .LASF1173
     /tmp/cc2IngwB.s:94121  .debug_str:0000000000011970 .LASF1174
     /tmp/cc2IngwB.s:93665  .debug_str:000000000001005b .LASF1175
     /tmp/cc2IngwB.s:93935  .debug_str:0000000000010e48 .LASF1176
     /tmp/cc2IngwB.s:92075  .debug_str:0000000000009c11 .LASF1177
     /tmp/cc2IngwB.s:90351  .debug_str:000000000000284a .LASF1178
     /tmp/cc2IngwB.s:108301  .debug_str:000000000004b82c .LASF1179
     /tmp/cc2IngwB.s:92491  .debug_str:000000000000b8d5 .LASF1180
     /tmp/cc2IngwB.s:97513  .debug_str:000000000001f73f .LASF1181
     /tmp/cc2IngwB.s:102609  .debug_str:00000000000341bd .LASF1182
     /tmp/cc2IngwB.s:107539  .debug_str:0000000000048621 .LASF1183
     /tmp/cc2IngwB.s:92557  .debug_str:000000000000bdb8 .LASF1184
     /tmp/cc2IngwB.s:97765  .debug_str:0000000000020984 .LASF1185
     /tmp/cc2IngwB.s:92537  .debug_str:000000000000bc3e .LASF1186
     /tmp/cc2IngwB.s:103665  .debug_str:000000000003875a .LASF1187
     /tmp/cc2IngwB.s:96939  .debug_str:000000000001cfee .LASF1188
     /tmp/cc2IngwB.s:104929  .debug_str:000000000003d60c .LASF1189
     /tmp/cc2IngwB.s:97785  .debug_str:0000000000020b82 .LASF1190
     /tmp/cc2IngwB.s:108727  .debug_str:000000000004d5d9 .LASF1191
     /tmp/cc2IngwB.s:99891  .debug_str:00000000000291c1 .LASF1192
     /tmp/cc2IngwB.s:91059  .debug_str:0000000000005726 .LASF1193
     /tmp/cc2IngwB.s:102035  .debug_str:0000000000031a86 .LASF1194
     /tmp/cc2IngwB.s:93109  .debug_str:000000000000e07e .LASF1195
     /tmp/cc2IngwB.s:97559  .debug_str:000000000001fae2 .LASF1196
     /tmp/cc2IngwB.s:108503  .debug_str:000000000004c661 .LASF1197
     /tmp/cc2IngwB.s:101323  .debug_str:000000000002ed1a .LASF1198
     /tmp/cc2IngwB.s:98913  .debug_str:0000000000025507 .LASF1199
     /tmp/cc2IngwB.s:104741  .debug_str:000000000003ca0a .LASF1200
     /tmp/cc2IngwB.s:102475  .debug_str:000000000003380f .LASF1201
     /tmp/cc2IngwB.s:100375  .debug_str:000000000002b0c6 .LASF1202
     /tmp/cc2IngwB.s:98063  .debug_str:0000000000021d5e .LASF1203
     /tmp/cc2IngwB.s:94397  .debug_str:0000000000012c37 .LASF1204
     /tmp/cc2IngwB.s:100393  .debug_str:000000000002b1e6 .LASF1205
     /tmp/cc2IngwB.s:93661  .debug_str:000000000000ffee .LASF1206
     /tmp/cc2IngwB.s:93395  .debug_str:000000000000ef5f .LASF1207
     /tmp/cc2IngwB.s:95147  .debug_str:0000000000015c30 .LASF1208
     /tmp/cc2IngwB.s:95417  .debug_str:0000000000016d38 .LASF1209
     /tmp/cc2IngwB.s:91849  .debug_str:0000000000008ccf .LASF1210
     /tmp/cc2IngwB.s:100691  .debug_str:000000000002c51b .LASF1211
     /tmp/cc2IngwB.s:97633  .debug_str:000000000001ff88 .LASF1212
     /tmp/cc2IngwB.s:97123  .debug_str:000000000001dc04 .LASF1213
     /tmp/cc2IngwB.s:105895  .debug_str:00000000000416ac .LASF1214
     /tmp/cc2IngwB.s:105451  .debug_str:000000000003f91b .LASF1215
     /tmp/cc2IngwB.s:90523  .debug_str:00000000000033b0 .LASF1216
     /tmp/cc2IngwB.s:100987  .debug_str:000000000002d6f5 .LASF1217
     /tmp/cc2IngwB.s:109455  .debug_str:00000000000507cf .LASF1218
     /tmp/cc2IngwB.s:109217  .debug_str:000000000004f857 .LASF1219
     /tmp/cc2IngwB.s:99945  .debug_str:00000000000295f7 .LASF1220
     /tmp/cc2IngwB.s:97457  .debug_str:000000000001f282 .LASF1221
     /tmp/cc2IngwB.s:96199  .debug_str:000000000001a123 .LASF1222
     /tmp/cc2IngwB.s:102267  .debug_str:0000000000032a1e .LASF1223
     /tmp/cc2IngwB.s:99797  .debug_str:0000000000028b37 .LASF1224
     /tmp/cc2IngwB.s:104793  .debug_str:000000000003cda1 .LASF1225
     /tmp/cc2IngwB.s:103277  .debug_str:0000000000036f1c .LASF1226
     /tmp/cc2IngwB.s:100805  .debug_str:000000000002cbd2 .LASF1227
     /tmp/cc2IngwB.s:105017  .debug_str:000000000003dbee .LASF1228
     /tmp/cc2IngwB.s:102515  .debug_str:0000000000033b06 .LASF1229
     /tmp/cc2IngwB.s:93029  .debug_str:000000000000dce4 .LASF1230
     /tmp/cc2IngwB.s:106591  .debug_str:0000000000044901 .LASF1231
     /tmp/cc2IngwB.s:99771  .debug_str:000000000002893e .LASF1232
     /tmp/cc2IngwB.s:90015  .debug_str:0000000000000ff7 .LASF1233
     /tmp/cc2IngwB.s:99183  .debug_str:000000000002630e .LASF1234
     /tmp/cc2IngwB.s:103439  .debug_str:00000000000379b0 .LASF1235
     /tmp/cc2IngwB.s:106191  .debug_str:0000000000042e93 .LASF1236
     /tmp/cc2IngwB.s:91395  .debug_str:0000000000006ddd .LASF1237
     /tmp/cc2IngwB.s:93403  .debug_str:000000000000eff3 .LASF1238
     /tmp/cc2IngwB.s:98657  .debug_str:0000000000024522 .LASF1239
     /tmp/cc2IngwB.s:99631  .debug_str:00000000000280a3 .LASF1240
     /tmp/cc2IngwB.s:106125  .debug_str:00000000000429a5 .LASF1241
     /tmp/cc2IngwB.s:100039  .debug_str:0000000000029b2b .LASF1242
     /tmp/cc2IngwB.s:98843  .debug_str:000000000002510b .LASF1243
     /tmp/cc2IngwB.s:97721  .debug_str:0000000000020676 .LASF1244
     /tmp/cc2IngwB.s:90563  .debug_str:0000000000003591 .LASF1245
     /tmp/cc2IngwB.s:104713  .debug_str:000000000003c7d6 .LASF1246
     /tmp/cc2IngwB.s:96183  .debug_str:000000000001a04f .LASF1247
     /tmp/cc2IngwB.s:106359  .debug_str:0000000000043960 .LASF1248
     /tmp/cc2IngwB.s:108491  .debug_str:000000000004c5c2 .LASF1249
     /tmp/cc2IngwB.s:98333  .debug_str:0000000000022f5b .LASF1250
     /tmp/cc2IngwB.s:98257  .debug_str:0000000000022a04 .LASF1251
     /tmp/cc2IngwB.s:103691  .debug_str:00000000000388ef .LASF1252
     /tmp/cc2IngwB.s:101275  .debug_str:000000000002e98d .LASF1253
     /tmp/cc2IngwB.s:107863  .debug_str:0000000000049baf .LASF1254
     /tmp/cc2IngwB.s:94659  .debug_str:0000000000013e3f .LASF1255
     /tmp/cc2IngwB.s:101497  .debug_str:000000000002f86f .LASF1256
     /tmp/cc2IngwB.s:99195  .debug_str:000000000002641e .LASF1257
     /tmp/cc2IngwB.s:97747  .debug_str:0000000000020841 .LASF1258
     /tmp/cc2IngwB.s:96575  .debug_str:000000000001b8e1 .LASF1259
     /tmp/cc2IngwB.s:90921  .debug_str:0000000000004e8f .LASF1260
     /tmp/cc2IngwB.s:93527  .debug_str:000000000000f7f7 .LASF1261
     /tmp/cc2IngwB.s:104365  .debug_str:000000000003afb4 .LASF1262
     /tmp/cc2IngwB.s:109309  .debug_str:000000000004fdb4 .LASF1263
     /tmp/cc2IngwB.s:96259  .debug_str:000000000001a53e .LASF1264
     /tmp/cc2IngwB.s:104165  .debug_str:000000000003a285 .LASF1265
     /tmp/cc2IngwB.s:97347  .debug_str:000000000001ebbf .LASF1266
     /tmp/cc2IngwB.s:90087  .debug_str:00000000000014f5 .LASF1267
     /tmp/cc2IngwB.s:104119  .debug_str:0000000000039fd1 .LASF1268
     /tmp/cc2IngwB.s:90341  .debug_str:0000000000002760 .LASF1269
     /tmp/cc2IngwB.s:100399  .debug_str:000000000002b276 .LASF1270
     /tmp/cc2IngwB.s:102361  .debug_str:00000000000330c2 .LASF1271
     /tmp/cc2IngwB.s:109433  .debug_str:000000000005066c .LASF1272
     /tmp/cc2IngwB.s:96951  .debug_str:000000000001d0eb .LASF1273
     /tmp/cc2IngwB.s:104173  .debug_str:000000000003a332 .LASF1274
     /tmp/cc2IngwB.s:95801  .debug_str:000000000001878a .LASF1275
     /tmp/cc2IngwB.s:98697  .debug_str:00000000000247c3 .LASF1276
     /tmp/cc2IngwB.s:105135  .debug_str:000000000003e488 .LASF1277
     /tmp/cc2IngwB.s:89991  .debug_str:0000000000000e5f .LASF1278
     /tmp/cc2IngwB.s:100613  .debug_str:000000000002bfe2 .LASF1279
     /tmp/cc2IngwB.s:105339  .debug_str:000000000003f259 .LASF1280
     /tmp/cc2IngwB.s:99623  .debug_str:0000000000027fce .LASF1281
     /tmp/cc2IngwB.s:107181  .debug_str:0000000000046ead .LASF1282
     /tmp/cc2IngwB.s:105235  .debug_str:000000000003ebaa .LASF1283
     /tmp/cc2IngwB.s:106183  .debug_str:0000000000042dc4 .LASF1284
     /tmp/cc2IngwB.s:91281  .debug_str:00000000000065e0 .LASF1285
     /tmp/cc2IngwB.s:94329  .debug_str:00000000000127de .LASF1286
     /tmp/cc2IngwB.s:97193  .debug_str:000000000001e13f .LASF1287
     /tmp/cc2IngwB.s:100059  .debug_str:0000000000029cd4 .LASF1288
     /tmp/cc2IngwB.s:103077  .debug_str:00000000000361ca .LASF1289
     /tmp/cc2IngwB.s:105803  .debug_str:0000000000040ef0 .LASF1290
     /tmp/cc2IngwB.s:97399  .debug_str:000000000001ef27 .LASF1291
     /tmp/cc2IngwB.s:99301  .debug_str:0000000000026aa0 .LASF1292
     /tmp/cc2IngwB.s:92241  .debug_str:000000000000a746 .LASF1293
     /tmp/cc2IngwB.s:105119  .debug_str:000000000003e36f .LASF1294
     /tmp/cc2IngwB.s:107501  .debug_str:00000000000483ae .LASF1295
     /tmp/cc2IngwB.s:91127  .debug_str:0000000000005bf9 .LASF1296
     /tmp/cc2IngwB.s:93963  .debug_str:00000000000110af .LASF1297
     /tmp/cc2IngwB.s:96907  .debug_str:000000000001ce38 .LASF1298
     /tmp/cc2IngwB.s:99899  .debug_str:0000000000029290 .LASF1299
     /tmp/cc2IngwB.s:102775  .debug_str:0000000000034bc2 .LASF1300
     /tmp/cc2IngwB.s:93177  .debug_str:000000000000e4a4 .LASF1301
     /tmp/cc2IngwB.s:96109  .debug_str:0000000000019ae8 .LASF1302
     /tmp/cc2IngwB.s:98963  .debug_str:0000000000025817 .LASF1303
     /tmp/cc2IngwB.s:93839  .debug_str:00000000000109b8 .LASF1304
     /tmp/cc2IngwB.s:104841  .debug_str:000000000003d061 .LASF1305
     /tmp/cc2IngwB.s:107787  .debug_str:0000000000049668 .LASF1306
     /tmp/cc2IngwB.s:101045  .debug_str:000000000002da6a .LASF1307
     /tmp/cc2IngwB.s:93819  .debug_str:000000000001083a .LASF1308
     /tmp/cc2IngwB.s:96755  .debug_str:000000000001c429 .LASF1309
     /tmp/cc2IngwB.s:99589  .debug_str:0000000000027d71 .LASF1310
     /tmp/cc2IngwB.s:90123  .debug_str:00000000000017af .LASF1311
     /tmp/cc2IngwB.s:92877  .debug_str:000000000000d37b .LASF1312
     /tmp/cc2IngwB.s:95959  .debug_str:000000000001900f .LASF1313
     /tmp/cc2IngwB.s:98823  .debug_str:0000000000024ff4 .LASF1314
     /tmp/cc2IngwB.s:101739  .debug_str:0000000000030815 .LASF1315
     /tmp/cc2IngwB.s:104701  .debug_str:000000000003c6f2 .LASF1316
     /tmp/cc2IngwB.s:107469  .debug_str:000000000004814f .LASF1317
     /tmp/cc2IngwB.s:90669  .debug_str:0000000000003cf7 .LASF1318
     /tmp/cc2IngwB.s:93497  .debug_str:000000000000f553 .LASF1319
     /tmp/cc2IngwB.s:96405  .debug_str:000000000001af0a .LASF1320
     /tmp/cc2IngwB.s:106761  .debug_str:000000000004541d .LASF1321
     /tmp/cc2IngwB.s:97481  .debug_str:000000000001f47e .LASF1322
     /tmp/cc2IngwB.s:98361  .debug_str:000000000002311c .LASF1323
     /tmp/cc2IngwB.s:90427  .debug_str:0000000000002d16 .LASF1324
     /tmp/cc2IngwB.s:98527  .debug_str:0000000000023ca2 .LASF1325
     /tmp/cc2IngwB.s:108419  .debug_str:000000000004c0ff .LASF1326
     /tmp/cc2IngwB.s:104453  .debug_str:000000000003b5ad .LASF1327
     /tmp/cc2IngwB.s:107337  .debug_str:000000000004790f .LASF1328
     /tmp/cc2IngwB.s:90391  .debug_str:0000000000002ad3 .LASF1329
     /tmp/cc2IngwB.s:93141  .debug_str:000000000000e2b1 .LASF1330
     /tmp/cc2IngwB.s:103697  .debug_str:0000000000038965 .LASF1331
     /tmp/cc2IngwB.s:94991  .debug_str:000000000001523d .LASF1332
     /tmp/cc2IngwB.s:103101  .debug_str:00000000000363d0 .LASF1333
     /tmp/cc2IngwB.s:92439  .debug_str:000000000000b507 .LASF1334
     /tmp/cc2IngwB.s:97617  .debug_str:000000000001fe84 .LASF1335
     /tmp/cc2IngwB.s:101469  .debug_str:000000000002f634 .LASF1336
     /tmp/cc2IngwB.s:100895  .debug_str:000000000002d18a .LASF1337
     /tmp/cc2IngwB.s:100301  .debug_str:000000000002ac41 .LASF1338
     /tmp/cc2IngwB.s:99515  .debug_str:00000000000277ff .LASF1339
     /tmp/cc2IngwB.s:108397  .debug_str:000000000004bf6a .LASF1340
     /tmp/cc2IngwB.s:94479  .debug_str:00000000000131ec .LASF1341
     /tmp/cc2IngwB.s:107229  .debug_str:00000000000471ab .LASF1342
     /tmp/cc2IngwB.s:92873  .debug_str:000000000000d33e .LASF1343
     /tmp/cc2IngwB.s:100387  .debug_str:000000000002b179 .LASF1344
     /tmp/cc2IngwB.s:93933  .debug_str:0000000000010e19 .LASF1345
     /tmp/cc2IngwB.s:105991  .debug_str:0000000000041e52 .LASF1346
     /tmp/cc2IngwB.s:92781  .debug_str:000000000000cd1d .LASF1347
     /tmp/cc2IngwB.s:104439  .debug_str:000000000003b4e9 .LASF1348
     /tmp/cc2IngwB.s:100881  .debug_str:000000000002d0c6 .LASF1349
     /tmp/cc2IngwB.s:104489  .debug_str:000000000003b833 .LASF1350
     /tmp/cc2IngwB.s:108455  .debug_str:000000000004c375 .LASF1351
     /tmp/cc2IngwB.s:106275  .debug_str:000000000004344e .LASF1352
     /tmp/cc2IngwB.s:94517  .debug_str:00000000000134f8 .LASF1353
     /tmp/cc2IngwB.s:103575  .debug_str:0000000000038165 .LASF1354
     /tmp/cc2IngwB.s:92463  .debug_str:000000000000b6e4 .LASF1355
     /tmp/cc2IngwB.s:101653  .debug_str:00000000000302a7 .LASF1356
     /tmp/cc2IngwB.s:90711  .debug_str:0000000000003fed .LASF1357
     /tmp/cc2IngwB.s:99629  .debug_str:000000000002805a .LASF1358
     /tmp/cc2IngwB.s:108529  .debug_str:000000000004c863 .LASF1359
     /tmp/cc2IngwB.s:97673  .debug_str:00000000000202f1 .LASF1360
     /tmp/cc2IngwB.s:106609  .debug_str:0000000000044a11 .LASF1361
     /tmp/cc2IngwB.s:95811  .debug_str:0000000000018839 .LASF1362
     /tmp/cc2IngwB.s:90259  .debug_str:0000000000002223 .LASF1363
     /tmp/cc2IngwB.s:97059  .debug_str:000000000001d7a1 .LASF1364
     /tmp/cc2IngwB.s:109451  .debug_str:0000000000050767 .LASF1365
     /tmp/cc2IngwB.s:90623  .debug_str:00000000000039bf .LASF1366
     /tmp/cc2IngwB.s:98605  .debug_str:000000000002418f .LASF1367
     /tmp/cc2IngwB.s:94747  .debug_str:000000000001435f .LASF1368
     /tmp/cc2IngwB.s:92083  .debug_str:0000000000009ccf .LASF1369
     /tmp/cc2IngwB.s:97015  .debug_str:000000000001d4bd .LASF1370
     /tmp/cc2IngwB.s:105539  .debug_str:000000000003fe14 .LASF1371
     /tmp/cc2IngwB.s:92397  .debug_str:000000000000b1ca .LASF1372
     /tmp/cc2IngwB.s:95473  .debug_str:0000000000017136 .LASF1373
     /tmp/cc2IngwB.s:102265  .debug_str:00000000000329d2 .LASF1374
     /tmp/cc2IngwB.s:108647  .debug_str:000000000004cfe5 .LASF1375
     /tmp/cc2IngwB.s:95597  .debug_str:00000000000179a8 .LASF1376
     /tmp/cc2IngwB.s:102245  .debug_str:000000000003281b .LASF1377
     /tmp/cc2IngwB.s:108857  .debug_str:000000000004de52 .LASF1378
     /tmp/cc2IngwB.s:95965  .debug_str:0000000000019087 .LASF1379
     /tmp/cc2IngwB.s:102793  .debug_str:0000000000034ccb .LASF1380
     /tmp/cc2IngwB.s:103197  .debug_str:0000000000036a2c .LASF1381
     /tmp/cc2IngwB.s:96367  .debug_str:000000000001abc6 .LASF1382
     /tmp/cc2IngwB.s:96321  .debug_str:000000000001a93c .LASF1383
     /tmp/cc2IngwB.s:90893  .debug_str:0000000000004ced .LASF1384
     /tmp/cc2IngwB.s:92357  .debug_str:000000000000af4d .LASF1385
     /tmp/cc2IngwB.s:92619  .debug_str:000000000000c24d .LASF1386
     /tmp/cc2IngwB.s:91271  .debug_str:000000000000652e .LASF1387
     /tmp/cc2IngwB.s:106175  .debug_str:0000000000042d29 .LASF1388
     /tmp/cc2IngwB.s:95591  .debug_str:0000000000017926 .LASF1389
     /tmp/cc2IngwB.s:97215  .debug_str:000000000001e2b1 .LASF1390
     /tmp/cc2IngwB.s:104183  .debug_str:000000000003a3d7 .LASF1391
     /tmp/cc2IngwB.s:100669  .debug_str:000000000002c3bf .LASF1392
     /tmp/cc2IngwB.s:97087  .debug_str:000000000001d96a .LASF1393
     /tmp/cc2IngwB.s:106885  .debug_str:0000000000045b8a .LASF1394
     /tmp/cc2IngwB.s:106875  .debug_str:0000000000045ae1 .LASF1395
     /tmp/cc2IngwB.s:97475  .debug_str:000000000001f3e5 .LASF1396
     /tmp/cc2IngwB.s:106815  .debug_str:0000000000045773 .LASF1397
     /tmp/cc2IngwB.s:99231  .debug_str:00000000000266a9 .LASF1398
     /tmp/cc2IngwB.s:102633  .debug_str:000000000003436b .LASF1399
     /tmp/cc2IngwB.s:93671  .debug_str:00000000000100d5 .LASF1400
     /tmp/cc2IngwB.s:103931  .debug_str:000000000003959a .LASF1401
     /tmp/cc2IngwB.s:107457  .debug_str:00000000000480ac .LASF1402
     /tmp/cc2IngwB.s:100307  .debug_str:000000000002acd2 .LASF1403
     /tmp/cc2IngwB.s:105969  .debug_str:0000000000041ce1 .LASF1404
     /tmp/cc2IngwB.s:99789  .debug_str:0000000000028a8e .LASF1405
     /tmp/cc2IngwB.s:91913  .debug_str:00000000000090e9 .LASF1406
     /tmp/cc2IngwB.s:104123  .debug_str:000000000003a025 .LASF1407
     /tmp/cc2IngwB.s:89813  .debug_str:00000000000002d0 .LASF1408
     /tmp/cc2IngwB.s:98435  .debug_str:00000000000235a9 .LASF1409
     /tmp/cc2IngwB.s:94815  .debug_str:00000000000147cd .LASF1410
     /tmp/cc2IngwB.s:95279  .debug_str:0000000000016432 .LASF1411
     /tmp/cc2IngwB.s:107899  .debug_str:0000000000049e0a .LASF1412
     /tmp/cc2IngwB.s:99435  .debug_str:00000000000273a1 .LASF1413
     /tmp/cc2IngwB.s:97945  .debug_str:0000000000021545 .LASF1414
     /tmp/cc2IngwB.s:94437  .debug_str:0000000000012ef9 .LASF1415
     /tmp/cc2IngwB.s:91479  .debug_str:000000000000746d .LASF1416
     /tmp/cc2IngwB.s:99465  .debug_str:0000000000027565 .LASF1417
     /tmp/cc2IngwB.s:102051  .debug_str:0000000000031bc4 .LASF1418
     /tmp/cc2IngwB.s:95041  .debug_str:0000000000015557 .LASF1419
     /tmp/cc2IngwB.s:95335  .debug_str:00000000000167d5 .LASF1420
     /tmp/cc2IngwB.s:96653  .debug_str:000000000001bd1b .LASF1421
     /tmp/cc2IngwB.s:100079  .debug_str:0000000000029e22 .LASF1422
     /tmp/cc2IngwB.s:96113  .debug_str:0000000000019b2e .LASF1423
     /tmp/cc2IngwB.s:90253  .debug_str:00000000000021ba .LASF1424
     /tmp/cc2IngwB.s:102409  .debug_str:00000000000333ee .LASF1425
     /tmp/cc2IngwB.s:105175  .debug_str:000000000003e7c5 .LASF1426
     /tmp/cc2IngwB.s:96873  .debug_str:000000000001cbe7 .LASF1427
     /tmp/cc2IngwB.s:108163  .debug_str:000000000004ae3f .LASF1428
     /tmp/cc2IngwB.s:90287  .debug_str:0000000000002438 .LASF1429
     /tmp/cc2IngwB.s:99277  .debug_str:000000000002691a .LASF1430
     /tmp/cc2IngwB.s:105817  .debug_str:0000000000040ff7 .LASF1431
     /tmp/cc2IngwB.s:102353  .debug_str:000000000003300a .LASF1432
     /tmp/cc2IngwB.s:98685  .debug_str:000000000002472c .LASF1433
     /tmp/cc2IngwB.s:95097  .debug_str:00000000000158fc .LASF1434
     /tmp/cc2IngwB.s:107369  .debug_str:0000000000047acc .LASF1435
     /tmp/cc2IngwB.s:93041  .debug_str:000000000000dd67 .LASF1436
     /tmp/cc2IngwB.s:90895  .debug_str:0000000000004d3b .LASF1437
     /tmp/cc2IngwB.s:93867  .debug_str:0000000000010b04 .LASF1438
     /tmp/cc2IngwB.s:106227  .debug_str:0000000000043121 .LASF1439
     /tmp/cc2IngwB.s:108895  .debug_str:000000000004e126 .LASF1440
     /tmp/cc2IngwB.s:95671  .debug_str:0000000000017f40 .LASF1441
     /tmp/cc2IngwB.s:102333  .debug_str:0000000000032ebb .LASF1442
     /tmp/cc2IngwB.s:108767  .debug_str:000000000004d90c .LASF1443
     /tmp/cc2IngwB.s:95697  .debug_str:0000000000018107 .LASF1444
     /tmp/cc2IngwB.s:94331  .debug_str:0000000000012813 .LASF1445
     /tmp/cc2IngwB.s:100993  .debug_str:000000000002d766 .LASF1446
     /tmp/cc2IngwB.s:107407  .debug_str:0000000000047d67 .LASF1447
     /tmp/cc2IngwB.s:94193  .debug_str:0000000000011eb1 .LASF1448
     /tmp/cc2IngwB.s:100861  .debug_str:000000000002cf22 .LASF1449
     /tmp/cc2IngwB.s:106583  .debug_str:00000000000448af .LASF1450
     /tmp/cc2IngwB.s:91455  .debug_str:00000000000072bf .LASF1451
     /tmp/cc2IngwB.s:106247  .debug_str:0000000000043299 .LASF1452
     /tmp/cc2IngwB.s:101659  .debug_str:0000000000030341 .LASF1453
     /tmp/cc2IngwB.s:97693  .debug_str:0000000000020490 .LASF1454
     /tmp/cc2IngwB.s:93755  .debug_str:000000000001051a .LASF1455
     /tmp/cc2IngwB.s:92893  .debug_str:000000000000d470 .LASF1456
     /tmp/cc2IngwB.s:105711  .debug_str:000000000004092f .LASF1457
     /tmp/cc2IngwB.s:97515  .debug_str:000000000001f796 .LASF1458
     /tmp/cc2IngwB.s:108775  .debug_str:000000000004d985 .LASF1459
     /tmp/cc2IngwB.s:97965  .debug_str:0000000000021698 .LASF1460
     /tmp/cc2IngwB.s:92001  .debug_str:00000000000096af .LASF1461
     /tmp/cc2IngwB.s:103677  .debug_str:0000000000038857 .LASF1462
     /tmp/cc2IngwB.s:95173  .debug_str:0000000000015dd7 .LASF1463
     /tmp/cc2IngwB.s:106671  .debug_str:0000000000044e55 .LASF1464
     /tmp/cc2IngwB.s:98303  .debug_str:0000000000022d56 .LASF1465
     /tmp/cc2IngwB.s:89957  .debug_str:0000000000000c09 .LASF1466
     /tmp/cc2IngwB.s:92225  .debug_str:000000000000a5ec .LASF1467
     /tmp/cc2IngwB.s:102247  .debug_str:0000000000032869 .LASF1468
     /tmp/cc2IngwB.s:91951  .debug_str:0000000000009351 .LASF1469
     /tmp/cc2IngwB.s:104243  .debug_str:000000000003a6fc .LASF1470
     /tmp/cc2IngwB.s:91707  .debug_str:00000000000082bb .LASF1471
     /tmp/cc2IngwB.s:101545  .debug_str:000000000002fc53 .LASF1472
     /tmp/cc2IngwB.s:91463  .debug_str:000000000000734e .LASF1473
     /tmp/cc2IngwB.s:101295  .debug_str:000000000002eacc .LASF1474
     /tmp/cc2IngwB.s:91203  .debug_str:00000000000060cb .LASF1475
     /tmp/cc2IngwB.s:101031  .debug_str:000000000002d97b .LASF1476
     /tmp/cc2IngwB.s:92723  .debug_str:000000000000c8c8 .LASF1477
     /tmp/cc2IngwB.s:97309  .debug_str:000000000001e95b .LASF1478
     /tmp/cc2IngwB.s:92289  .debug_str:000000000000aab4 .LASF1479
     /tmp/cc2IngwB.s:102321  .debug_str:0000000000032dc4 .LASF1480
     /tmp/cc2IngwB.s:105225  .debug_str:000000000003eb03 .LASF1481
     /tmp/cc2IngwB.s:102033  .debug_str:0000000000031a5c .LASF1482
     /tmp/cc2IngwB.s:91787  .debug_str:0000000000008878 .LASF1483
     /tmp/cc2IngwB.s:101781  .debug_str:0000000000030a82 .LASF1484
     /tmp/cc2IngwB.s:91529  .debug_str:000000000000773f .LASF1485
     /tmp/cc2IngwB.s:92891  .debug_str:000000000000d446 .LASF1486
     /tmp/cc2IngwB.s:105693  .debug_str:00000000000407ef .LASF1487
     /tmp/cc2IngwB.s:102927  .debug_str:00000000000356bd .LASF1488
     /tmp/cc2IngwB.s:92809  .debug_str:000000000000cf12 .LASF1489
     /tmp/cc2IngwB.s:102667  .debug_str:0000000000034576 .LASF1490
     /tmp/cc2IngwB.s:97331  .debug_str:000000000001eaa3 .LASF1491
     /tmp/cc2IngwB.s:102399  .debug_str:0000000000033354 .LASF1492
     /tmp/cc2IngwB.s:92275  .debug_str:000000000000a9e0 .LASF1493
     /tmp/cc2IngwB.s:102115  .debug_str:0000000000032023 .LASF1494
     /tmp/cc2IngwB.s:92005  .debug_str:00000000000096ed .LASF1495
     /tmp/cc2IngwB.s:101845  .debug_str:0000000000030f11 .LASF1496
     /tmp/cc2IngwB.s:93441  .debug_str:000000000000f294 .LASF1497
     /tmp/cc2IngwB.s:103407  .debug_str:000000000003776d .LASF1498
     /tmp/cc2IngwB.s:93135  .debug_str:000000000000e23e .LASF1499
     /tmp/cc2IngwB.s:99499  .debug_str:00000000000276ec .LASF1500
     /tmp/cc2IngwB.s:92881  .debug_str:000000000000d3be .LASF1501
     /tmp/cc2IngwB.s:102911  .debug_str:0000000000035595 .LASF1502
     /tmp/cc2IngwB.s:92605  .debug_str:000000000000c16f .LASF1503
     /tmp/cc2IngwB.s:102469  .debug_str:00000000000337b4 .LASF1504
     /tmp/cc2IngwB.s:92353  .debug_str:000000000000af02 .LASF1505
     /tmp/cc2IngwB.s:95577  .debug_str:0000000000017818 .LASF1506
     /tmp/cc2IngwB.s:93987  .debug_str:0000000000011199 .LASF1507
     /tmp/cc2IngwB.s:103769  .debug_str:0000000000038d4f .LASF1508
     /tmp/cc2IngwB.s:93699  .debug_str:0000000000010267 .LASF1509
     /tmp/cc2IngwB.s:103489  .debug_str:0000000000037c39 .LASF1510
     /tmp/cc2IngwB.s:93147  .debug_str:000000000000e314 .LASF1511
     /tmp/cc2IngwB.s:103205  .debug_str:0000000000036aaa .LASF1512
     /tmp/cc2IngwB.s:92947  .debug_str:000000000000d7a4 .LASF1513
     /tmp/cc2IngwB.s:102987  .debug_str:0000000000035b3d .LASF1514
     /tmp/cc2IngwB.s:92683  .debug_str:000000000000c611 .LASF1515
     /tmp/cc2IngwB.s:102727  .debug_str:0000000000034914 .LASF1516
     /tmp/cc2IngwB.s:94373  .debug_str:0000000000012a75 .LASF1517
     /tmp/cc2IngwB.s:104305  .debug_str:000000000003ab87 .LASF1518
     /tmp/cc2IngwB.s:94073  .debug_str:0000000000011733 .LASF1519
     /tmp/cc2IngwB.s:103843  .debug_str:0000000000039146 .LASF1520
     /tmp/cc2IngwB.s:94017  .debug_str:000000000001138a .LASF1521
     /tmp/cc2IngwB.s:94893  .debug_str:0000000000014ce1 .LASF1522
     /tmp/cc2IngwB.s:89777  .debug_str:0000000000000021 .LASF1523
     /tmp/cc2IngwB.s:104387  .debug_str:000000000003b10e .LASF1524
     /tmp/cc2IngwB.s:98053  .debug_str:0000000000021c71 .LASF1525
     /tmp/cc2IngwB.s:106519  .debug_str:000000000004445a .LASF1526
     /tmp/cc2IngwB.s:90159  .debug_str:0000000000001ac5 .LASF1527
     /tmp/cc2IngwB.s:90887  .debug_str:0000000000004c4b .LASF1528
     /tmp/cc2IngwB.s:90891  .debug_str:0000000000004cbc .LASF1529
     /tmp/cc2IngwB.s:91699  .debug_str:0000000000008225 .LASF1530
     /tmp/cc2IngwB.s:94649  .debug_str:0000000000013d6e .LASF1531
     /tmp/cc2IngwB.s:104325  .debug_str:000000000003acb6 .LASF1532
     /tmp/cc2IngwB.s:103011  .debug_str:0000000000035d02 .LASF1533
     /tmp/cc2IngwB.s:105545  .debug_str:000000000003fe8d .LASF1534
     /tmp/cc2IngwB.s:108177  .debug_str:000000000004af5c .LASF1535
     /tmp/cc2IngwB.s:91333  .debug_str:0000000000006935 .LASF1536
     /tmp/cc2IngwB.s:90305  .debug_str:0000000000002520 .LASF1537
     /tmp/cc2IngwB.s:90663  .debug_str:0000000000003c97 .LASF1538
     /tmp/cc2IngwB.s:106381  .debug_str:0000000000043acf .LASF1539
     /tmp/cc2IngwB.s:107029  .debug_str:000000000004651f .LASF1540
     /tmp/cc2IngwB.s:105737  .debug_str:0000000000040ae0 .LASF1541
     /tmp/cc2IngwB.s:105923  .debug_str:00000000000418bd .LASF1542
     /tmp/cc2IngwB.s:96135  .debug_str:0000000000019cd6 .LASF1543
     /tmp/cc2IngwB.s:107713  .debug_str:00000000000491e9 .LASF1544
     /tmp/cc2IngwB.s:109183  .debug_str:000000000004f5d0 .LASF1545
     /tmp/cc2IngwB.s:100425  .debug_str:000000000002b4b7 .LASF1546
     /tmp/cc2IngwB.s:93769  .debug_str:00000000000105ca .LASF1547
     /tmp/cc2IngwB.s:102739  .debug_str:00000000000349ff .LASF1548
     /tmp/cc2IngwB.s:92129  .debug_str:0000000000009ff4 .LASF1549
     /tmp/cc2IngwB.s:89787  .debug_str:00000000000000da .LASF1550
     /tmp/cc2IngwB.s:98345  .debug_str:0000000000023007 .LASF1551
     /tmp/cc2IngwB.s:98601  .debug_str:0000000000024164 .LASF1552
     /tmp/cc2IngwB.s:104751  .debug_str:000000000003cae6 .LASF1553
     /tmp/cc2IngwB.s:106997  .debug_str:000000000004635e .LASF1554
     /tmp/cc2IngwB.s:108519  .debug_str:000000000004c7ce .LASF1555
     /tmp/cc2IngwB.s:97739  .debug_str:00000000000207ea .LASF1556
     /tmp/cc2IngwB.s:101587  .debug_str:000000000002fef9 .LASF1557
     /tmp/cc2IngwB.s:94027  .debug_str:0000000000011468 .LASF1559
     /tmp/cc2IngwB.s:107855  .debug_str:0000000000049b1a .LASF1560
     /tmp/cc2IngwB.s:95311  .debug_str:0000000000016632 .LASF1561
     /tmp/cc2IngwB.s:100017  .debug_str:0000000000029a00 .LASF1562
     /tmp/cc2IngwB.s:95157  .debug_str:0000000000015cdb .LASF1563
     /tmp/cc2IngwB.s:95095  .debug_str:00000000000158ee .LASF1564
     /tmp/cc2IngwB.s:101551  .debug_str:000000000002fcd0 .LASF1565
     /tmp/cc2IngwB.s:89839  .debug_str:000000000000046e .LASF1566
     /tmp/cc2IngwB.s:95397  .debug_str:0000000000016c08 .LASF1567
     /tmp/cc2IngwB.s:97495  .debug_str:000000000001f60c .LASF1568
     /tmp/cc2IngwB.s:98679  .debug_str:00000000000246bc .LASF1569
     /tmp/cc2IngwB.s:106207  .debug_str:0000000000042fd5 .LASF1570
     /tmp/cc2IngwB.s:93485  .debug_str:000000000000f48f .LASF1571
     /tmp/cc2IngwB.s:100249  .debug_str:000000000002a988 .LASF1572
     /tmp/cc2IngwB.s:91359  .debug_str:0000000000006b61 .LASF1573
     /tmp/cc2IngwB.s:92265  .debug_str:000000000000a90d .LASF1574
     /tmp/cc2IngwB.s:100623  .debug_str:000000000002c07f .LASF1575
     /tmp/cc2IngwB.s:92259  .debug_str:000000000000a8b4 .LASF1576
     /tmp/cc2IngwB.s:97363  .debug_str:000000000001ecf3 .LASF1577
     /tmp/cc2IngwB.s:102599  .debug_str:00000000000340ee .LASF1578
     /tmp/cc2IngwB.s:98491  .debug_str:0000000000023a52 .LASF1579
     /tmp/cc2IngwB.s:90493  .debug_str:00000000000031af .LASF1580
     /tmp/cc2IngwB.s:100111  .debug_str:000000000002a017 .LASF1581
     /tmp/cc2IngwB.s:90905  .debug_str:0000000000004dd1 .LASF1582
     /tmp/cc2IngwB.s:93115  .debug_str:000000000000e124 .LASF1583
     /tmp/cc2IngwB.s:109435  .debug_str:000000000005069f .LASF1584
     /tmp/cc2IngwB.s:99877  .debug_str:00000000000290ce .LASF1585
     /tmp/cc2IngwB.s:104285  .debug_str:000000000003aa35 .LASF1586
     /tmp/cc2IngwB.s:100245  .debug_str:000000000002a93d .LASF1587
     /tmp/cc2IngwB.s:107515  .debug_str:00000000000484dc .LASF1588
     /tmp/cc2IngwB.s:106529  .debug_str:0000000000044504 .LASF1589
     /tmp/cc2IngwB.s:93513  .debug_str:000000000000f6df .LASF1590
     /tmp/cc2IngwB.s:108045  .debug_str:000000000004a75f .LASF1591
     /tmp/cc2IngwB.s:90853  .debug_str:0000000000004a4f .LASF1592
     /tmp/cc2IngwB.s:96143  .debug_str:0000000000019d51 .LASF1593
     /tmp/cc2IngwB.s:100223  .debug_str:000000000002a7b8 .LASF1594
     /tmp/cc2IngwB.s:91765  .debug_str:00000000000086bf .LASF1595
     /tmp/cc2IngwB.s:94023  .debug_str:000000000001140f .LASF1596
     /tmp/cc2IngwB.s:102383  .debug_str:0000000000033271 .LASF1597
     /tmp/cc2IngwB.s:93225  .debug_str:000000000000e7cc .LASF1598
     /tmp/cc2IngwB.s:107921  .debug_str:0000000000049f55 .LASF1599
     /tmp/cc2IngwB.s:96209  .debug_str:000000000001a1d8 .LASF1600
     /tmp/cc2IngwB.s:109231  .debug_str:000000000004f997 .LASF1601
     /tmp/cc2IngwB.s:93815  .debug_str:00000000000107e7 .LASF1602
     /tmp/cc2IngwB.s:102779  .debug_str:0000000000034c0f .LASF1603
     /tmp/cc2IngwB.s:109071  .debug_str:000000000004ee8f .LASF1604
     /tmp/cc2IngwB.s:101679  .debug_str:00000000000304c1 .LASF1605
     /tmp/cc2IngwB.s:99579  .debug_str:0000000000027ccf .LASF1606
     /tmp/cc2IngwB.s:102549  .debug_str:0000000000033dd2 .LASF1607
     /tmp/cc2IngwB.s:96411  .debug_str:000000000001af7e .LASF1608
     /tmp/cc2IngwB.s:103537  .debug_str:000000000003801b .LASF1609
     /tmp/cc2IngwB.s:106137  .debug_str:0000000000042a92 .LASF1610
     /tmp/cc2IngwB.s:104895  .debug_str:000000000003d43e .LASF1611
     /tmp/cc2IngwB.s:96785  .debug_str:000000000001c5e7 .LASF1612
     /tmp/cc2IngwB.s:100981  .debug_str:000000000002d698 .LASF1613
     /tmp/cc2IngwB.s:108623  .debug_str:000000000004ce8a .LASF1614
     /tmp/cc2IngwB.s:106721  .debug_str:000000000004514c .LASF1615
     /tmp/cc2IngwB.s:92815  .debug_str:000000000000cf85 .LASF1616
     /tmp/cc2IngwB.s:92509  .debug_str:000000000000ba32 .LASF1617
     /tmp/cc2IngwB.s:90191  .debug_str:0000000000001d5b .LASF1618
     /tmp/cc2IngwB.s:102253  .debug_str:00000000000328be .LASF1619
     /tmp/cc2IngwB.s:95145  .debug_str:0000000000015c05 .LASF1620
     /tmp/cc2IngwB.s:100195  .debug_str:000000000002a5aa .LASF1621
     /tmp/cc2IngwB.s:102479  .debug_str:0000000000033860 .LASF1622
     /tmp/cc2IngwB.s:97503  .debug_str:000000000001f690 .LASF1623
     /tmp/cc2IngwB.s:96029  .debug_str:00000000000194f9 .LASF1624
     /tmp/cc2IngwB.s:103173  .debug_str:00000000000368ab .LASF1625
     /tmp/cc2IngwB.s:92033  .debug_str:00000000000098a7 .LASF1626
     /tmp/cc2IngwB.s:101865  .debug_str:000000000003107f .LASF1627
     /tmp/cc2IngwB.s:106145  .debug_str:0000000000042b1c .LASF1628
     /tmp/cc2IngwB.s:97201  .debug_str:000000000001e1d8 .LASF1629
     /tmp/cc2IngwB.s:109189  .debug_str:000000000004f60f .LASF1630
     /tmp/cc2IngwB.s:106141  .debug_str:0000000000042aee .LASF1631
     /tmp/cc2IngwB.s:109211  .debug_str:000000000004f7ee .LASF1632
     /tmp/cc2IngwB.s:93017  .debug_str:000000000000dc22 .LASF1633
     /tmp/cc2IngwB.s:108673  .debug_str:000000000004d218 .LASF1634
     /tmp/cc2IngwB.s:97427  .debug_str:000000000001f083 .LASF1635
     /tmp/cc2IngwB.s:108011  .debug_str:000000000004a5a0 .LASF1636
     /tmp/cc2IngwB.s:91013  .debug_str:000000000000545c .LASF1637
     /tmp/cc2IngwB.s:95623  .debug_str:0000000000017b91 .LASF1638
     /tmp/cc2IngwB.s:106441  .debug_str:0000000000043ef8 .LASF1639
     /tmp/cc2IngwB.s:95995  .debug_str:00000000000192b6 .LASF1640
     /tmp/cc2IngwB.s:98813  .debug_str:0000000000024e8e .LASF1641
     /tmp/cc2IngwB.s:98229  .debug_str:000000000002290d .LASF1642
     /tmp/cc2IngwB.s:109407  .debug_str:00000000000504aa .LASF1643
     /tmp/cc2IngwB.s:102239  .debug_str:00000000000327a6 .LASF1644
     /tmp/cc2IngwB.s:94603  .debug_str:0000000000013a9d .LASF1645
     /tmp/cc2IngwB.s:99137  .debug_str:00000000000261a1 .LASF1646
     /tmp/cc2IngwB.s:102817  .debug_str:0000000000034eae .LASF1647
     /tmp/cc2IngwB.s:90635  .debug_str:0000000000003ac6 .LASF1648
     /tmp/cc2IngwB.s:93443  .debug_str:000000000000f2be .LASF1649
     /tmp/cc2IngwB.s:109329  .debug_str:000000000004fec2 .LASF1650
     /tmp/cc2IngwB.s:108365  .debug_str:000000000004bd45 .LASF1651
     /tmp/cc2IngwB.s:100493  .debug_str:000000000002b826 .LASF1652
     /tmp/cc2IngwB.s:99241  .debug_str:0000000000026730 .LASF1653
     /tmp/cc2IngwB.s:92769  .debug_str:000000000000cc12 .LASF1654
     /tmp/cc2IngwB.s:98331  .debug_str:0000000000022f33 .LASF1655
     /tmp/cc2IngwB.s:102597  .debug_str:00000000000340b8 .LASF1656
     /tmp/cc2IngwB.s:107809  .debug_str:00000000000497e0 .LASF1657
     /tmp/cc2IngwB.s:109465  .debug_str:0000000000050881 .LASF1658
     /tmp/cc2IngwB.s:104979  .debug_str:000000000003d952 .LASF1659
     /tmp/cc2IngwB.s:100645  .debug_str:000000000002c1ac .LASF1660
     /tmp/cc2IngwB.s:95727  .debug_str:0000000000018290 .LASF1661
     /tmp/cc2IngwB.s:91677  .debug_str:00000000000080c4 .LASF1662
     /tmp/cc2IngwB.s:106283  .debug_str:00000000000434cf .LASF1663
     /tmp/cc2IngwB.s:102659  .debug_str:00000000000344e5 .LASF1664
     /tmp/cc2IngwB.s:97147  .debug_str:000000000001ddd4 .LASF1665
     /tmp/cc2IngwB.s:93529  .debug_str:000000000000f82d .LASF1666
     /tmp/cc2IngwB.s:107637  .debug_str:0000000000048ca9 .LASF1667
     /tmp/cc2IngwB.s:107847  .debug_str:0000000000049ab0 .LASF1668
     /tmp/cc2IngwB.s:96267  .debug_str:000000000001a5af .LASF1669
     /tmp/cc2IngwB.s:98915  .debug_str:0000000000025542 .LASF1670
     /tmp/cc2IngwB.s:106821  .debug_str:00000000000457e4 .LASF1671
     /tmp/cc2IngwB.s:89943  .debug_str:0000000000000b51 .LASF1672
     /tmp/cc2IngwB.s:97671  .debug_str:00000000000202ce .LASF1673
     /tmp/cc2IngwB.s:100873  .debug_str:000000000002d00b .LASF1674
     /tmp/cc2IngwB.s:94729  .debug_str:0000000000014278 .LASF1675
     /tmp/cc2IngwB.s:91731  .debug_str:0000000000008485 .LASF1676
     /tmp/cc2IngwB.s:103417  .debug_str:0000000000037825 .LASF1677
     /tmp/cc2IngwB.s:106111  .debug_str:00000000000428e6 .LASF1678
     /tmp/cc2IngwB.s:94879  .debug_str:0000000000014c0d .LASF1679
     /tmp/cc2IngwB.s:104591  .debug_str:000000000003bf75 .LASF1680
     /tmp/cc2IngwB.s:105421  .debug_str:000000000003f700 .LASF1681
     /tmp/cc2IngwB.s:91235  .debug_str:00000000000062d0 .LASF1682
     /tmp/cc2IngwB.s:99267  .debug_str:000000000002688a .LASF1683
     /tmp/cc2IngwB.s:102173  .debug_str:0000000000032363 .LASF1684
     /tmp/cc2IngwB.s:90003  .debug_str:0000000000000f35 .LASF1685
     /tmp/cc2IngwB.s:103319  .debug_str:00000000000371f6 .LASF1686
     /tmp/cc2IngwB.s:95243  .debug_str:0000000000016221 .LASF1687
     /tmp/cc2IngwB.s:94315  .debug_str:0000000000012705 .LASF1688
     /tmp/cc2IngwB.s:105791  .debug_str:0000000000040e0f .LASF1689
     /tmp/cc2IngwB.s:91181  .debug_str:0000000000005f4e .LASF1690
     /tmp/cc2IngwB.s:97447  .debug_str:000000000001f211 .LASF1691
     /tmp/cc2IngwB.s:108573  .debug_str:000000000004cb2e .LASF1692
     /tmp/cc2IngwB.s:107067  .debug_str:00000000000467aa .LASF1693
     /tmp/cc2IngwB.s:96621  .debug_str:000000000001bb7f .LASF1694
     /tmp/cc2IngwB.s:104419  .debug_str:000000000003b352 .LASF1695
     /tmp/cc2IngwB.s:108557  .debug_str:000000000004ca17 .LASF1696
     /tmp/cc2IngwB.s:95077  .debug_str:00000000000157bc .LASF1697
     /tmp/cc2IngwB.s:92753  .debug_str:000000000000cabc .LASF1698
     /tmp/cc2IngwB.s:98457  .debug_str:000000000002376f .LASF1699
     /tmp/cc2IngwB.s:90443  .debug_str:0000000000002e33 .LASF1700
     /tmp/cc2IngwB.s:103847  .debug_str:0000000000039197 .LASF1701
     /tmp/cc2IngwB.s:104245  .debug_str:000000000003a726 .LASF1702
     /tmp/cc2IngwB.s:96639  .debug_str:000000000001bc3e .LASF1703
     /tmp/cc2IngwB.s:103493  .debug_str:0000000000037c83 .LASF1704
     /tmp/cc2IngwB.s:105769  .debug_str:0000000000040c85 .LASF1705
     /tmp/cc2IngwB.s:100075  .debug_str:0000000000029de0 .LASF1706
     /tmp/cc2IngwB.s:101437  .debug_str:000000000002f43f .LASF1707
     /tmp/cc2IngwB.s:98721  .debug_str:0000000000024988 .LASF1708
     /tmp/cc2IngwB.s:99083  .debug_str:0000000000025e15 .LASF1709
     /tmp/cc2IngwB.s:93593  .debug_str:000000000000fb5c .LASF1710
     /tmp/cc2IngwB.s:90083  .debug_str:00000000000014cd .LASF1711
     /tmp/cc2IngwB.s:105685  .debug_str:0000000000040782 .LASF1712
     /tmp/cc2IngwB.s:92885  .debug_str:000000000000d402 .LASF1713
     /tmp/cc2IngwB.s:96153  .debug_str:0000000000019dfc .LASF1714
     /tmp/cc2IngwB.s:101317  .debug_str:000000000002ec94 .LASF1715
     /tmp/cc2IngwB.s:101387  .debug_str:000000000002f156 .LASF1716
     /tmp/cc2IngwB.s:103457  .debug_str:0000000000037ad1 .LASF1717
     /tmp/cc2IngwB.s:98343  .debug_str:0000000000022fdc .LASF1718
     /tmp/cc2IngwB.s:104107  .debug_str:0000000000039f16 .LASF1719
     /tmp/cc2IngwB.s:100825  .debug_str:000000000002cd1c .LASF1720
     /tmp/cc2IngwB.s:95051  .debug_str:0000000000015637 .LASF1721
     /tmp/cc2IngwB.s:99695  .debug_str:000000000002845b .LASF1722
     /tmp/cc2IngwB.s:106021  .debug_str:0000000000042072 .LASF1723
     /tmp/cc2IngwB.s:90407  .debug_str:0000000000002bb3 .LASF1724
     /tmp/cc2IngwB.s:97135  .debug_str:000000000001dd18 .LASF1725
     /tmp/cc2IngwB.s:101113  .debug_str:000000000002dec1 .LASF1726
     /tmp/cc2IngwB.s:109349  .debug_str:000000000005007a .LASF1727
     /tmp/cc2IngwB.s:105417  .debug_str:000000000003f6bd .LASF1728
     /tmp/cc2IngwB.s:100511  .debug_str:000000000002ba22 .LASF1729
     /tmp/cc2IngwB.s:102037  .debug_str:0000000000031adf .LASF1730
     /tmp/cc2IngwB.s:107033  .debug_str:000000000004655d .LASF1731
     /tmp/cc2IngwB.s:89997  .debug_str:0000000000000ebe .LASF1732
     /tmp/cc2IngwB.s:98607  .debug_str:00000000000241db .LASF1733
     /tmp/cc2IngwB.s:100679  .debug_str:000000000002c46e .LASF1734
     /tmp/cc2IngwB.s:106351  .debug_str:00000000000438ff .LASF1735
     /tmp/cc2IngwB.s:105785  .debug_str:0000000000040d94 .LASF1736
     /tmp/cc2IngwB.s:102587  .debug_str:0000000000034019 .LASF1737
     /tmp/cc2IngwB.s:106007  .debug_str:0000000000041f95 .LASF1738
     /tmp/cc2IngwB.s:95109  .debug_str:000000000001599e .LASF1739
     /tmp/cc2IngwB.s:107733  .debug_str:00000000000492f2 .LASF1740
     /tmp/cc2IngwB.s:104221  .debug_str:000000000003a5ec .LASF1741
     /tmp/cc2IngwB.s:95587  .debug_str:00000000000178b6 .LASF1742
     /tmp/cc2IngwB.s:103009  .debug_str:0000000000035ce2 .LASF1743
     /tmp/cc2IngwB.s:106827  .debug_str:0000000000045848 .LASF1744
     /tmp/cc2IngwB.s:95777  .debug_str:00000000000185b4 .LASF1745
     /tmp/cc2IngwB.s:91339  .debug_str:00000000000069bd .LASF1746
     /tmp/cc2IngwB.s:90907  .debug_str:0000000000004df9 .LASF1747
     /tmp/cc2IngwB.s:95581  .debug_str:0000000000017858 .LASF1748
     /tmp/cc2IngwB.s:105843  .debug_str:00000000000411f8 .LASF1749
     /tmp/cc2IngwB.s:108739  .debug_str:000000000004d6e4 .LASF1750
     /tmp/cc2IngwB.s:101125  .debug_str:000000000002e016 .LASF1751
     /tmp/cc2IngwB.s:98653  .debug_str:00000000000244bd .LASF1752
     /tmp/cc2IngwB.s:97961  .debug_str:0000000000021666 .LASF1753
     /tmp/cc2IngwB.s:100851  .debug_str:000000000002ce78 .LASF1754
     /tmp/cc2IngwB.s:97303  .debug_str:000000000001e906 .LASF1755
     /tmp/cc2IngwB.s:96663  .debug_str:000000000001bde6 .LASF1756
     /tmp/cc2IngwB.s:92321  .debug_str:000000000000ac87 .LASF1757
     /tmp/cc2IngwB.s:106443  .debug_str:0000000000043f14 .LASF1758
     /tmp/cc2IngwB.s:107317  .debug_str:000000000004777a .LASF1759
     /tmp/cc2IngwB.s:96949  .debug_str:000000000001d0c2 .LASF1760
     /tmp/cc2IngwB.s:93133  .debug_str:000000000000e21d .LASF1761
     /tmp/cc2IngwB.s:106541  .debug_str:00000000000445db .LASF1762
     /tmp/cc2IngwB.s:92649  .debug_str:000000000000c42a .LASF1763
     /tmp/cc2IngwB.s:105697  .debug_str:0000000000040828 .LASF1764
     /tmp/cc2IngwB.s:98509  .debug_str:0000000000023b6c .LASF1765
     /tmp/cc2IngwB.s:100919  .debug_str:000000000002d345 .LASF1766
     /tmp/cc2IngwB.s:107215  .debug_str:00000000000470a2 .LASF1767
     /tmp/cc2IngwB.s:91775  .debug_str:000000000000879a .LASF1768
     /tmp/cc2IngwB.s:99339  .debug_str:0000000000026d9a .LASF1769
     /tmp/cc2IngwB.s:104153  .debug_str:000000000003a227 .LASF1770
     /tmp/cc2IngwB.s:105493  .debug_str:000000000003fba2 .LASF1771
     /tmp/cc2IngwB.s:95105  .debug_str:000000000001596b .LASF1772
     /tmp/cc2IngwB.s:96571  .debug_str:000000000001b8a3 .LASF1773
     /tmp/cc2IngwB.s:107171  .debug_str:0000000000046df4 .LASF1774
     /tmp/cc2IngwB.s:106399  .debug_str:0000000000043c49 .LASF1775
     /tmp/cc2IngwB.s:108057  .debug_str:000000000004a80b .LASF1776
     /tmp/cc2IngwB.s:92249  .debug_str:000000000000a807 .LASF1777
     /tmp/cc2IngwB.s:102349  .debug_str:0000000000032fcf .LASF1778
     /tmp/cc2IngwB.s:98093  .debug_str:0000000000021fc7 .LASF1779
     /tmp/cc2IngwB.s:107963  .debug_str:000000000004a1c8 .LASF1780
     /tmp/cc2IngwB.s:108541  .debug_str:000000000004c90e .LASF1781
     /tmp/cc2IngwB.s:107415  .debug_str:0000000000047e35 .LASF1782
     /tmp/cc2IngwB.s:99239  .debug_str:0000000000026707 .LASF1783
     /tmp/cc2IngwB.s:98499  .debug_str:0000000000023ac2 .LASF1784
     /tmp/cc2IngwB.s:92191  .debug_str:000000000000a3fb .LASF1785
     /tmp/cc2IngwB.s:109255  .debug_str:000000000004faf9 .LASF1786
     /tmp/cc2IngwB.s:100655  .debug_str:000000000002c2ad .LASF1787
     /tmp/cc2IngwB.s:94613  .debug_str:0000000000013b4b .LASF1788
     /tmp/cc2IngwB.s:101853  .debug_str:0000000000030fbf .LASF1789
     /tmp/cc2IngwB.s:105413  .debug_str:000000000003f695 .LASF1790
     /tmp/cc2IngwB.s:90597  .debug_str:0000000000003815 .LASF1791
     /tmp/cc2IngwB.s:99605  .debug_str:0000000000027e7a .LASF1792
     /tmp/cc2IngwB.s:102193  .debug_str:00000000000324c4 .LASF1793
     /tmp/cc2IngwB.s:101831  .debug_str:0000000000030e59 .LASF1794
     /tmp/cc2IngwB.s:92803  .debug_str:000000000000ceb8 .LASF1795
     /tmp/cc2IngwB.s:91535  .debug_str:00000000000077ce .LASF1796
     /tmp/cc2IngwB.s:98349  .debug_str:0000000000023029 .LASF1797
     /tmp/cc2IngwB.s:102491  .debug_str:000000000003394c .LASF1798
     /tmp/cc2IngwB.s:108847  .debug_str:000000000004ddc2 .LASF1799
     /tmp/cc2IngwB.s:92953  .debug_str:000000000000d7fa .LASF1800
     /tmp/cc2IngwB.s:100339  .debug_str:000000000002aeaa .LASF1801
     /tmp/cc2IngwB.s:100831  .debug_str:000000000002cd65 .LASF1802
     /tmp/cc2IngwB.s:89891  .debug_str:00000000000007ef .LASF1803
     /tmp/cc2IngwB.s:107903  .debug_str:0000000000049e6f .LASF1804
     /tmp/cc2IngwB.s:108911  .debug_str:000000000004e270 .LASF1805
     /tmp/cc2IngwB.s:94561  .debug_str:000000000001384b .LASF1806
     /tmp/cc2IngwB.s:97155  .debug_str:000000000001de5f .LASF1807
     /tmp/cc2IngwB.s:101565  .debug_str:000000000002fd66 .LASF1808
     /tmp/cc2IngwB.s:97471  .debug_str:000000000001f37d .LASF1809
     /tmp/cc2IngwB.s:96641  .debug_str:000000000001bc60 .LASF1810
     /tmp/cc2IngwB.s:107087  .debug_str:00000000000468d7 .LASF1811
     /tmp/cc2IngwB.s:91663  .debug_str:0000000000007fd4 .LASF1812
     /tmp/cc2IngwB.s:108877  .debug_str:000000000004e00f .LASF1813
     /tmp/cc2IngwB.s:107979  .debug_str:000000000004a303 .LASF1814
     /tmp/cc2IngwB.s:97661  .debug_str:00000000000201c7 .LASF1815
     /tmp/cc2IngwB.s:100157  .debug_str:000000000002a32a .LASF1816
     /tmp/cc2IngwB.s:102443  .debug_str:000000000003360d .LASF1817
     /tmp/cc2IngwB.s:100265  .debug_str:000000000002aab0 .LASF1818
     /tmp/cc2IngwB.s:92127  .debug_str:0000000000009fcd .LASF1819
     /tmp/cc2IngwB.s:105919  .debug_str:000000000004187a .LASF1820
     /tmp/cc2IngwB.s:108407  .debug_str:000000000004c050 .LASF1821
     /tmp/cc2IngwB.s:101193  .debug_str:000000000002e441 .LASF1822
     /tmp/cc2IngwB.s:92231  .debug_str:000000000000a64f .LASF1823
     /tmp/cc2IngwB.s:104989  .debug_str:000000000003d9f0 .LASF1824
     /tmp/cc2IngwB.s:105261  .debug_str:000000000003ed45 .LASF1825
     /tmp/cc2IngwB.s:104131  .debug_str:000000000003a0b6 .LASF1826
     /tmp/cc2IngwB.s:92997  .debug_str:000000000000daf1 .LASF1827
     /tmp/cc2IngwB.s:100625  .debug_str:000000000002c0aa .LASF1828
     /tmp/cc2IngwB.s:102605  .debug_str:000000000003416b .LASF1829
     /tmp/cc2IngwB.s:89841  .debug_str:0000000000000490 .LASF1830
     /tmp/cc2IngwB.s:92405  .debug_str:000000000000b28c .LASF1831
     /tmp/cc2IngwB.s:96229  .debug_str:000000000001a2f4 .LASF1832
     /tmp/cc2IngwB.s:92257  .debug_str:000000000000a895 .LASF1833
     /tmp/cc2IngwB.s:99413  .debug_str:000000000002726f .LASF1834
     /tmp/cc2IngwB.s:105719  .debug_str:00000000000409cd .LASF1835
     /tmp/cc2IngwB.s:96007  .debug_str:0000000000019369 .LASF1836
     /tmp/cc2IngwB.s:109227  .debug_str:000000000004f93e .LASF1837
     /tmp/cc2IngwB.s:96637  .debug_str:000000000001bc14 .LASF1838
     /tmp/cc2IngwB.s:103207  .debug_str:0000000000036ad4 .LASF1839
     /tmp/cc2IngwB.s:107897  .debug_str:0000000000049de9 .LASF1840
     /tmp/cc2IngwB.s:105547  .debug_str:000000000003fec4 .LASF1841
     /tmp/cc2IngwB.s:101677  .debug_str:00000000000304a0 .LASF1842
     /tmp/cc2IngwB.s:106733  .debug_str:0000000000045228 .LASF1843
     /tmp/cc2IngwB.s:106173  .debug_str:0000000000042d13 .LASF1844
     /tmp/cc2IngwB.s:99373  .debug_str:0000000000026f8a .LASF1845
     /tmp/cc2IngwB.s:91689  .debug_str:0000000000008196 .LASF1846
     /tmp/cc2IngwB.s:100403  .debug_str:000000000002b2f4 .LASF1847
     /tmp/cc2IngwB.s:99959  .debug_str:00000000000296fe .LASF1848
     /tmp/cc2IngwB.s:94731  .debug_str:000000000001429b .LASF1849
     /tmp/cc2IngwB.s:102003  .debug_str:00000000000318e1 .LASF1850
     /tmp/cc2IngwB.s:95555  .debug_str:0000000000017658 .LASF1851
     /tmp/cc2IngwB.s:100635  .debug_str:000000000002c121 .LASF1852
     /tmp/cc2IngwB.s:91993  .debug_str:000000000000964e .LASF1853
     /tmp/cc2IngwB.s:107311  .debug_str:000000000004771b .LASF1854
     /tmp/cc2IngwB.s:101663  .debug_str:000000000003037f .LASF1855
     /tmp/cc2IngwB.s:91025  .debug_str:0000000000005511 .LASF1856
     /tmp/cc2IngwB.s:97723  .debug_str:00000000000206a6 .LASF1857
     /tmp/cc2IngwB.s:90717  .debug_str:000000000000407f .LASF1858
     /tmp/cc2IngwB.s:95465  .debug_str:000000000001709b .LASF1859
     /tmp/cc2IngwB.s:91931  .debug_str:000000000000924c .LASF1860
     /tmp/cc2IngwB.s:101707  .debug_str:000000000003063a .LASF1861
     /tmp/cc2IngwB.s:103013  .debug_str:0000000000035d39 .LASF1862
     /tmp/cc2IngwB.s:99417  .debug_str:00000000000272ab .LASF1863
     /tmp/cc2IngwB.s:99595  .debug_str:0000000000027dc4 .LASF1864
     /tmp/cc2IngwB.s:94393  .debug_str:0000000000012bee .LASF1865
     /tmp/cc2IngwB.s:103791  .debug_str:0000000000038eee .LASF1866
     /tmp/cc2IngwB.s:93419  .debug_str:000000000000f0d7 .LASF1867
     /tmp/cc2IngwB.s:90609  .debug_str:00000000000038e9 .LASF1868
     /tmp/cc2IngwB.s:109101  .debug_str:000000000004f0f8 .LASF1869
     /tmp/cc2IngwB.s:101109  .debug_str:000000000002de79 .LASF1870
     /tmp/cc2IngwB.s:103753  .debug_str:0000000000038c56 .LASF1871
     /tmp/cc2IngwB.s:108835  .debug_str:000000000004dcf3 .LASF1872
     /tmp/cc2IngwB.s:97905  .debug_str:000000000002129c .LASF1873
     /tmp/cc2IngwB.s:98033  .debug_str:0000000000021b5f .LASF1874
     /tmp/cc2IngwB.s:103613  .debug_str:000000000003843f .LASF1875
     /tmp/cc2IngwB.s:101207  .debug_str:000000000002e54c .LASF1876
     /tmp/cc2IngwB.s:103253  .debug_str:0000000000036d7e .LASF1877
     /tmp/cc2IngwB.s:102929  .debug_str:00000000000356e7 .LASF1878
     /tmp/cc2IngwB.s:92571  .debug_str:000000000000bf22 .LASF1879
     /tmp/cc2IngwB.s:94273  .debug_str:000000000001246e .LASF1880
     /tmp/cc2IngwB.s:107323  .debug_str:00000000000477e5 .LASF1881
     /tmp/cc2IngwB.s:92979  .debug_str:000000000000d9b6 .LASF1882
     /tmp/cc2IngwB.s:105299  .debug_str:000000000003efda .LASF1883
     /tmp/cc2IngwB.s:90399  .debug_str:0000000000002b52 .LASF1884
     /tmp/cc2IngwB.s:102185  .debug_str:0000000000032411 .LASF1885
     /tmp/cc2IngwB.s:104355  .debug_str:000000000003af05 .LASF1886
     /tmp/cc2IngwB.s:105863  .debug_str:0000000000041357 .LASF1887
     /tmp/cc2IngwB.s:96087  .debug_str:000000000001997c .LASF1888
     /tmp/cc2IngwB.s:101335  .debug_str:000000000002edd5 .LASF1889
     /tmp/cc2IngwB.s:101943  .debug_str:0000000000031511 .LASF1890
     /tmp/cc2IngwB.s:94909  .debug_str:0000000000014de6 .LASF1891
     /tmp/cc2IngwB.s:101843  .debug_str:0000000000030ee8 .LASF1892
     /tmp/cc2IngwB.s:92969  .debug_str:000000000000d8d7 .LASF1893
     /tmp/cc2IngwB.s:98677  .debug_str:000000000002469c .LASF1894
     /tmp/cc2IngwB.s:101819  .debug_str:0000000000030d96 .LASF1895
     /tmp/cc2IngwB.s:108551  .debug_str:000000000004c9d0 .LASF1896
     /tmp/cc2IngwB.s:90269  .debug_str:0000000000002316 .LASF1897
     /tmp/cc2IngwB.s:96871  .debug_str:000000000001cbc3 .LASF1898
     /tmp/cc2IngwB.s:93113  .debug_str:000000000000e0f8 .LASF1899
     /tmp/cc2IngwB.s:104329  .debug_str:000000000003ad09 .LASF1900
     /tmp/cc2IngwB.s:101851  .debug_str:0000000000030f95 .LASF1901
     /tmp/cc2IngwB.s:96777  .debug_str:000000000001c54f .LASF1902
     /tmp/cc2IngwB.s:100263  .debug_str:000000000002aa8a .LASF1903
     /tmp/cc2IngwB.s:107097  .debug_str:00000000000469c6 .LASF1904
     /tmp/cc2IngwB.s:91979  .debug_str:0000000000009569 .LASF1905
     /tmp/cc2IngwB.s:105155  .debug_str:000000000003e653 .LASF1906
     /tmp/cc2IngwB.s:98555  .debug_str:0000000000023e61 .LASF1907
     /tmp/cc2IngwB.s:101981  .debug_str:0000000000031772 .LASF1908
     /tmp/cc2IngwB.s:92169  .debug_str:000000000000a257 .LASF1909
     /tmp/cc2IngwB.s:95735  .debug_str:000000000001832b .LASF1910
     /tmp/cc2IngwB.s:92733  .debug_str:000000000000c9b2 .LASF1911
     /tmp/cc2IngwB.s:101181  .debug_str:000000000002e398 .LASF1912
     /tmp/cc2IngwB.s:97703  .debug_str:0000000000020582 .LASF1913
     /tmp/cc2IngwB.s:97253  .debug_str:000000000001e55f .LASF1914
     /tmp/cc2IngwB.s:93773  .debug_str:00000000000105f2 .LASF1915
     /tmp/cc2IngwB.s:99391  .debug_str:00000000000270eb .LASF1916
     /tmp/cc2IngwB.s:94047  .debug_str:00000000000115ac .LASF1917
     /tmp/cc2IngwB.s:106193  .debug_str:0000000000042ec1 .LASF1918
     /tmp/cc2IngwB.s:107417  .debug_str:0000000000047e56 .LASF1919
     /tmp/cc2IngwB.s:91245  .debug_str:0000000000006375 .LASF1920
     /tmp/cc2IngwB.s:93569  .debug_str:000000000000f980 .LASF1921
     /tmp/cc2IngwB.s:101903  .debug_str:00000000000312e3 .LASF1922
     /tmp/cc2IngwB.s:105621  .debug_str:00000000000403da .LASF1923
     /tmp/cc2IngwB.s:98829  .debug_str:000000000002503f .LASF1924
     /tmp/cc2IngwB.s:105519  .debug_str:000000000003fd2a .LASF1925
     /tmp/cc2IngwB.s:91197  .debug_str:0000000000006080 .LASF1926
     /tmp/cc2IngwB.s:96675  .debug_str:000000000001bed9 .LASF1927
     /tmp/cc2IngwB.s:108351  .debug_str:000000000004bc3c .LASF1928
     /tmp/cc2IngwB.s:100571  .debug_str:000000000002bdcf .LASF1929
     /tmp/cc2IngwB.s:96701  .debug_str:000000000001c099 .LASF1930
     /tmp/cc2IngwB.s:98567  .debug_str:0000000000023f38 .LASF1931
     /tmp/cc2IngwB.s:90991  .debug_str:00000000000052f8 .LASF1932
     /tmp/cc2IngwB.s:97951  .debug_str:00000000000215a9 .LASF1933
     /tmp/cc2IngwB.s:94171  .debug_str:0000000000011d40 .LASF1934
     /tmp/cc2IngwB.s:90195  .debug_str:0000000000001da4 .LASF1935
     /tmp/cc2IngwB.s:96611  .debug_str:000000000001bb04 .LASF1936
     /tmp/cc2IngwB.s:106459  .debug_str:0000000000044072 .LASF1937
     /tmp/cc2IngwB.s:99785  .debug_str:0000000000028a3d .LASF1938
     /tmp/cc2IngwB.s:97403  .debug_str:000000000001ef76 .LASF1939
     /tmp/cc2IngwB.s:102529  .debug_str:0000000000033c32 .LASF1940
     /tmp/cc2IngwB.s:90321  .debug_str:0000000000002677 .LASF1941
     /tmp/cc2IngwB.s:104517  .debug_str:000000000003b9e7 .LASF1942
     /tmp/cc2IngwB.s:105747  .debug_str:0000000000040b85 .LASF1943
     /tmp/cc2IngwB.s:107399  .debug_str:0000000000047cdc .LASF1944
     /tmp/cc2IngwB.s:91703  .debug_str:0000000000008276 .LASF1945
     /tmp/cc2IngwB.s:96053  .debug_str:0000000000019694 .LASF1946
     /tmp/cc2IngwB.s:95459  .debug_str:000000000001705a .LASF1947
     /tmp/cc2IngwB.s:107575  .debug_str:0000000000048927 .LASF1948
     /tmp/cc2IngwB.s:102379  .debug_str:000000000003322a .LASF1949
     /tmp/cc2IngwB.s:108069  .debug_str:000000000004a8ee .LASF1950
     /tmp/cc2IngwB.s:98205  .debug_str:000000000002275c .LASF1951
     /tmp/cc2IngwB.s:102661  .debug_str:0000000000034502 .LASF1952
     /tmp/cc2IngwB.s:91563  .debug_str:00000000000079cf .LASF1953
     /tmp/cc2IngwB.s:107983  .debug_str:000000000004a33e .LASF1954
     /tmp/cc2IngwB.s:95977  .debug_str:000000000001917d .LASF1955
     /tmp/cc2IngwB.s:103669  .debug_str:00000000000387db .LASF1956
     /tmp/cc2IngwB.s:107133  .debug_str:0000000000046c0c .LASF1957
     /tmp/cc2IngwB.s:97645  .debug_str:0000000000020078 .LASF1958
     /tmp/cc2IngwB.s:99859  .debug_str:0000000000028fa7 .LASF1959
     /tmp/cc2IngwB.s:95695  .debug_str:00000000000180de .LASF1960
     /tmp/cc2IngwB.s:90799  .debug_str:0000000000004603 .LASF1961
     /tmp/cc2IngwB.s:98947  .debug_str:000000000002572a .LASF1962
     /tmp/cc2IngwB.s:93779  .debug_str:00000000000106a3 .LASF1963
     /tmp/cc2IngwB.s:105447  .debug_str:000000000003f8c4 .LASF1964
     /tmp/cc2IngwB.s:91873  .debug_str:0000000000008e09 .LASF1965
     /tmp/cc2IngwB.s:108199  .debug_str:000000000004b0f1 .LASF1966
     /tmp/cc2IngwB.s:102851  .debug_str:0000000000035207 .LASF1967
     /tmp/cc2IngwB.s:108571  .debug_str:000000000004cb05 .LASF1968
     /tmp/cc2IngwB.s:98409  .debug_str:000000000002341f .LASF1969
     /tmp/cc2IngwB.s:96427  .debug_str:000000000001b07c .LASF1970
     /tmp/cc2IngwB.s:109057  .debug_str:000000000004ed5f .LASF1971
     /tmp/cc2IngwB.s:93457  .debug_str:000000000000f3c6 .LASF1972
     /tmp/cc2IngwB.s:105455  .debug_str:000000000003f967 .LASF1973
     /tmp/cc2IngwB.s:106219  .debug_str:000000000004307e .LASF1974
     /tmp/cc2IngwB.s:107583  .debug_str:0000000000048989 .LASF1975
     /tmp/cc2IngwB.s:99109  .debug_str:0000000000025ff0 .LASF1976
     /tmp/cc2IngwB.s:100639  .debug_str:000000000002c159 .LASF1977
     /tmp/cc2IngwB.s:107209  .debug_str:0000000000047034 .LASF1978
     /tmp/cc2IngwB.s:89783  .debug_str:0000000000000096 .LASF1979
     /tmp/cc2IngwB.s:98317  .debug_str:0000000000022e3b .LASF1980
     /tmp/cc2IngwB.s:100455  .debug_str:000000000002b63f .LASF1981
     /tmp/cc2IngwB.s:94905  .debug_str:0000000000014daa .LASF1982
     /tmp/cc2IngwB.s:91089  .debug_str:00000000000059a8 .LASF1983
     /tmp/cc2IngwB.s:105069  .debug_str:000000000003df8a .LASF1984
     /tmp/cc2IngwB.s:99501  .debug_str:0000000000027716 .LASF1985
     /tmp/cc2IngwB.s:92503  .debug_str:000000000000b9db .LASF1986
     /tmp/cc2IngwB.s:100549  .debug_str:000000000002bc72 .LASF1987
     /tmp/cc2IngwB.s:101325  .debug_str:000000000002ed55 .LASF1988
     /tmp/cc2IngwB.s:91193  .debug_str:0000000000006010 .LASF1989
     /tmp/cc2IngwB.s:95659  .debug_str:0000000000017e40 .LASF1990
     /tmp/cc2IngwB.s:92409  .debug_str:000000000000b2ea .LASF1991
     /tmp/cc2IngwB.s:106403  .debug_str:0000000000043c8f .LASF1992
     /tmp/cc2IngwB.s:104503  .debug_str:000000000003b8f7 .LASF1993
     /tmp/cc2IngwB.s:98563  .debug_str:0000000000023efc .LASF1994
     /tmp/cc2IngwB.s:97217  .debug_str:000000000001e2e1 .LASF1995
     /tmp/cc2IngwB.s:108685  .debug_str:000000000004d2dc .LASF1996
     /tmp/cc2IngwB.s:108853  .debug_str:000000000004de08 .LASF1997
     /tmp/cc2IngwB.s:98715  .debug_str:000000000002491b .LASF1998
     /tmp/cc2IngwB.s:94143  .debug_str:0000000000011b55 .LASF1999
     /tmp/cc2IngwB.s:103785  .debug_str:0000000000038e72 .LASF2000
     /tmp/cc2IngwB.s:97679  .debug_str:0000000000020384 .LASF2001
     /tmp/cc2IngwB.s:104675  .debug_str:000000000003c503 .LASF2002
     /tmp/cc2IngwB.s:97115  .debug_str:000000000001db87 .LASF2003
     /tmp/cc2IngwB.s:94167  .debug_str:0000000000011ce9 .LASF2004
     /tmp/cc2IngwB.s:91283  .debug_str:0000000000006615 .LASF2005
     /tmp/cc2IngwB.s:101973  .debug_str:0000000000031706 .LASF2006
     /tmp/cc2IngwB.s:95045  .debug_str:00000000000155c9 .LASF2007
     /tmp/cc2IngwB.s:108639  .debug_str:000000000004cf6a .LASF2008
     /tmp/cc2IngwB.s:97169  .debug_str:000000000001dfbb .LASF2009
     /tmp/cc2IngwB.s:93967  .debug_str:00000000000110f4 .LASF2010
     /tmp/cc2IngwB.s:106893  .debug_str:0000000000045c25 .LASF2011
     /tmp/cc2IngwB.s:100945  .debug_str:000000000002d4ad .LASF2012
     /tmp/cc2IngwB.s:101919  .debug_str:00000000000313d6 .LASF2013
     /tmp/cc2IngwB.s:90657  .debug_str:0000000000003c49 .LASF2014
     /tmp/cc2IngwB.s:90429  .debug_str:0000000000002d4b .LASF2015
     /tmp/cc2IngwB.s:92359  .debug_str:000000000000af7d .LASF2016
     /tmp/cc2IngwB.s:105345  .debug_str:000000000003f2df .LASF2017
     /tmp/cc2IngwB.s:102183  .debug_str:00000000000323ee .LASF2018
     /tmp/cc2IngwB.s:92501  .debug_str:000000000000b9c0 .LASF2019
     /tmp/cc2IngwB.s:105561  .debug_str:000000000003ffe3 .LASF2020
     /tmp/cc2IngwB.s:89953  .debug_str:0000000000000be5 .LASF2021
     /tmp/cc2IngwB.s:93303  .debug_str:000000000000eb3f .LASF2022
     /tmp/cc2IngwB.s:90277  .debug_str:0000000000002385 .LASF2023
     /tmp/cc2IngwB.s:97383  .debug_str:000000000001ede3 .LASF2024
     /tmp/cc2IngwB.s:105209  .debug_str:000000000003ea10 .LASF2025
     /tmp/cc2IngwB.s:107013  .debug_str:0000000000046413 .LASF2026
     /tmp/cc2IngwB.s:104423  .debug_str:000000000003b3a3 .LASF2027
     /tmp/cc2IngwB.s:108279  .debug_str:000000000004b6b2 .LASF2028
     /tmp/cc2IngwB.s:99483  .debug_str:000000000002763c .LASF2029
     /tmp/cc2IngwB.s:97129  .debug_str:000000000001dc7b .LASF2030
     /tmp/cc2IngwB.s:91021  .debug_str:00000000000054e7 .LASF2031
     /tmp/cc2IngwB.s:102699  .debug_str:000000000003474d .LASF2032
     /tmp/cc2IngwB.s:105985  .debug_str:0000000000041ded .LASF2033
     /tmp/cc2IngwB.s:95747  .debug_str:00000000000183ff .LASF2034
     /tmp/cc2IngwB.s:108537  .debug_str:000000000004c8e9 .LASF2035
     /tmp/cc2IngwB.s:94695  .debug_str:00000000000140b3 .LASF2036
     /tmp/cc2IngwB.s:103783  .debug_str:0000000000038e57 .LASF2037
     /tmp/cc2IngwB.s:109341  .debug_str:000000000004ffe1 .LASF2038
     /tmp/cc2IngwB.s:106819  .debug_str:00000000000457c9 .LASF2039
     /tmp/cc2IngwB.s:108753  .debug_str:000000000004d7f3 .LASF2040
     /tmp/cc2IngwB.s:97949  .debug_str:0000000000021581 .LASF2041
     /tmp/cc2IngwB.s:89975  .debug_str:0000000000000d44 .LASF2042
     /tmp/cc2IngwB.s:107497  .debug_str:000000000004836b .LASF2043
     /tmp/cc2IngwB.s:97117  .debug_str:000000000001dbb0 .LASF2044
     /tmp/cc2IngwB.s:108023  .debug_str:000000000004a655 .LASF2045
     /tmp/cc2IngwB.s:92097  .debug_str:0000000000009e0b .LASF2046
     /tmp/cc2IngwB.s:98007  .debug_str:000000000002197b .LASF2047
     /tmp/cc2IngwB.s:99253  .debug_str:00000000000267ef .LASF2048
     /tmp/cc2IngwB.s:99387  .debug_str:0000000000027086 .LASF2049
     /tmp/cc2IngwB.s:94351  .debug_str:0000000000012918 .LASF2050
     /tmp/cc2IngwB.s:108975  .debug_str:000000000004e811 .LASF2051
     /tmp/cc2IngwB.s:103563  .debug_str:0000000000038101 .LASF2052
     /tmp/cc2IngwB.s:93069  .debug_str:000000000000de4f .LASF2053
     /tmp/cc2IngwB.s:91957  .debug_str:0000000000009392 .LASF2054
     /tmp/cc2IngwB.s:103083  .debug_str:0000000000036257 .LASF2055
     /tmp/cc2IngwB.s:106179  .debug_str:0000000000042d6b .LASF2056
     /tmp/cc2IngwB.s:104161  .debug_str:000000000003a257 .LASF2057
     /tmp/cc2IngwB.s:101447  .debug_str:000000000002f4cf .LASF2058
     /tmp/cc2IngwB.s:94099  .debug_str:0000000000011850 .LASF2059
     /tmp/cc2IngwB.s:97767  .debug_str:00000000000209db .LASF2060
     /tmp/cc2IngwB.s:101809  .debug_str:0000000000030cb6 .LASF2061
     /tmp/cc2IngwB.s:97925  .debug_str:00000000000213e4 .LASF2062
     /tmp/cc2IngwB.s:91533  .debug_str:00000000000077a5 .LASF2063
     /tmp/cc2IngwB.s:95583  .debug_str:0000000000017882 .LASF2064
     /tmp/cc2IngwB.s:102805  .debug_str:0000000000034de0 .LASF2065
     /tmp/cc2IngwB.s:90533  .debug_str:000000000000345f .LASF2066
     /tmp/cc2IngwB.s:105197  .debug_str:000000000003e92b .LASF2067
     /tmp/cc2IngwB.s:91003  .debug_str:00000000000053b1 .LASF2068
     /tmp/cc2IngwB.s:91321  .debug_str:000000000000685f .LASF2069
     /tmp/cc2IngwB.s:103367  .debug_str:00000000000374aa .LASF2070
     /tmp/cc2IngwB.s:100443  .debug_str:000000000002b5bc .LASF2071
     /tmp/cc2IngwB.s:106199  .debug_str:0000000000042f4c .LASF2072
     /tmp/cc2IngwB.s:106939  .debug_str:0000000000045f3a .LASF2073
     /tmp/cc2IngwB.s:104891  .debug_str:000000000003d3e3 .LASF2074
     /tmp/cc2IngwB.s:95337  .debug_str:0000000000016800 .LASF2075
     /tmp/cc2IngwB.s:98575  .debug_str:0000000000023f99 .LASF2076
     /tmp/cc2IngwB.s:91161  .debug_str:0000000000005e65 .LASF2077
     /tmp/cc2IngwB.s:108629  .debug_str:000000000004cee4 .LASF2078
     /tmp/cc2IngwB.s:97031  .debug_str:000000000001d5e5 .LASF2079
     /tmp/cc2IngwB.s:101847  .debug_str:0000000000030f3b .LASF2080
     /tmp/cc2IngwB.s:108731  .debug_str:000000000004d65c .LASF2081
     /tmp/cc2IngwB.s:107751  .debug_str:000000000004940b .LASF2082
     /tmp/cc2IngwB.s:101183  .debug_str:000000000002e3c0 .LASF2083
     /tmp/cc2IngwB.s:104427  .debug_str:000000000003b3f3 .LASF2084
     /tmp/cc2IngwB.s:100907  .debug_str:000000000002d29b .LASF2085
     /tmp/cc2IngwB.s:104737  .debug_str:000000000003c9d8 .LASF2086
     /tmp/cc2IngwB.s:106471  .debug_str:0000000000044134 .LASF2087
     /tmp/cc2IngwB.s:109271  .debug_str:000000000004fb72 .LASF2088
     /tmp/cc2IngwB.s:92341  .debug_str:000000000000adc6 .LASF2089
     /tmp/cc2IngwB.s:103875  .debug_str:0000000000039362 .LASF2090
     /tmp/cc2IngwB.s:98675  .debug_str:0000000000024673 .LASF2091
     /tmp/cc2IngwB.s:103415  .debug_str:0000000000037804 .LASF2092
     /tmp/cc2IngwB.s:108269  .debug_str:000000000004b5fe .LASF2093
     /tmp/cc2IngwB.s:92013  .debug_str:0000000000009792 .LASF2094
     /tmp/cc2IngwB.s:102913  .debug_str:00000000000355bf .LASF2095
     /tmp/cc2IngwB.s:106845  .debug_str:0000000000045961 .LASF2096
     /tmp/cc2IngwB.s:92597  .debug_str:000000000000c0bc .LASF2097
     /tmp/cc2IngwB.s:94263  .debug_str:00000000000123a2 .LASF2098
     /tmp/cc2IngwB.s:94089  .debug_str:00000000000117a5 .LASF2099
     /tmp/cc2IngwB.s:108973  .debug_str:000000000004e7ef .LASF2100
     /tmp/cc2IngwB.s:103833  .debug_str:00000000000390a2 .LASF2101
     /tmp/cc2IngwB.s:91883  .debug_str:0000000000008ea3 .LASF2102
     /tmp/cc2IngwB.s:107707  .debug_str:000000000004918f .LASF2103
     /tmp/cc2IngwB.s:106871  .debug_str:0000000000045aa8 .LASF2104
     /tmp/cc2IngwB.s:97647  .debug_str:00000000000200a1 .LASF2105
     /tmp/cc2IngwB.s:105275  .debug_str:000000000003ee0c .LASF2106
     /tmp/cc2IngwB.s:105063  .debug_str:000000000003df38 .LASF2107
     /tmp/cc2IngwB.s:100527  .debug_str:000000000002baf8 .LASF2108
     /tmp/cc2IngwB.s:94917  .debug_str:0000000000014e4e .LASF2109
     /tmp/cc2IngwB.s:92647  .debug_str:000000000000c408 .LASF2110
     /tmp/cc2IngwB.s:96501  .debug_str:000000000001b4e2 .LASF2111
     /tmp/cc2IngwB.s:107473  .debug_str:0000000000048191 .LASF2112
     /tmp/cc2IngwB.s:106129  .debug_str:0000000000042a0a .LASF2113
     /tmp/cc2IngwB.s:90441  .debug_str:0000000000002e11 .LASF2114
     /tmp/cc2IngwB.s:90291  .debug_str:0000000000002477 .LASF2115
     /tmp/cc2IngwB.s:105351  .debug_str:000000000003f36b .LASF2116
     /tmp/cc2IngwB.s:100033  .debug_str:0000000000029ab6 .LASF2117
     /tmp/cc2IngwB.s:102879  .debug_str:0000000000035383 .LASF2118
     /tmp/cc2IngwB.s:105921  .debug_str:0000000000041899 .LASF2119
     /tmp/cc2IngwB.s:95915  .debug_str:0000000000018dca .LASF2120
     /tmp/cc2IngwB.s:104755  .debug_str:000000000003cb09 .LASF2121
     /tmp/cc2IngwB.s:100067  .debug_str:0000000000029d65 .LASF2122
     /tmp/cc2IngwB.s:99641  .debug_str:000000000002811f .LASF2123
     /tmp/cc2IngwB.s:104949  .debug_str:000000000003d76d .LASF2124
     /tmp/cc2IngwB.s:98489  .debug_str:0000000000023a23 .LASF2125
     /tmp/cc2IngwB.s:101341  .debug_str:000000000002ee31 .LASF2126
     /tmp/cc2IngwB.s:105231  .debug_str:000000000003eb59 .LASF2127
     /tmp/cc2IngwB.s:95905  .debug_str:0000000000018d05 .LASF2128
     /tmp/cc2IngwB.s:102821  .debug_str:0000000000034ef2 .LASF2129
     /tmp/cc2IngwB.s:106521  .debug_str:0000000000044489 .LASF2130
     /tmp/cc2IngwB.s:104807  .debug_str:000000000003cecb .LASF2131
     /tmp/cc2IngwB.s:96211  .debug_str:000000000001a21c .LASF2132
     /tmp/cc2IngwB.s:102547  .debug_str:0000000000033daa .LASF2133
     /tmp/cc2IngwB.s:90125  .debug_str:00000000000017e4 .LASF2134
     /tmp/cc2IngwB.s:91675  .debug_str:000000000000809b .LASF2135
     /tmp/cc2IngwB.s:92149  .debug_str:000000000000a0d0 .LASF2136
     /tmp/cc2IngwB.s:99627  .debug_str:0000000000028030 .LASF2137
     /tmp/cc2IngwB.s:108149  .debug_str:000000000004ad4d .LASF2138
     /tmp/cc2IngwB.s:97817  .debug_str:0000000000020d55 .LASF2139
     /tmp/cc2IngwB.s:94371  .debug_str:0000000000012a43 .LASF2140
     /tmp/cc2IngwB.s:89947  .debug_str:0000000000000b80 .LASF2141
     /tmp/cc2IngwB.s:103511  .debug_str:0000000000037e18 .LASF2142
     /tmp/cc2IngwB.s:108347  .debug_str:000000000004bbf4 .LASF2143
     /tmp/cc2IngwB.s:98301  .debug_str:0000000000022d20 .LASF2144
     /tmp/cc2IngwB.s:104061  .debug_str:0000000000039d3d .LASF2145
     /tmp/cc2IngwB.s:108967  .debug_str:000000000004e75f .LASF2146
     /tmp/cc2IngwB.s:101771  .debug_str:00000000000309e4 .LASF2147
     /tmp/cc2IngwB.s:102835  .debug_str:000000000003504d .LASF2148
     /tmp/cc2IngwB.s:99611  .debug_str:0000000000027ee5 .LASF2149
     /tmp/cc2IngwB.s:96657  .debug_str:000000000001bd50 .LASF2150
     /tmp/cc2IngwB.s:108765  .debug_str:000000000004d8dc .LASF2151
     /tmp/cc2IngwB.s:106233  .debug_str:00000000000431ab .LASF2152
     /tmp/cc2IngwB.s:100939  .debug_str:000000000002d434 .LASF2153
     /tmp/cc2IngwB.s:99197  .debug_str:0000000000026454 .LASF2154
     /tmp/cc2IngwB.s:96809  .debug_str:000000000001c765 .LASF2155
     /tmp/cc2IngwB.s:104731  .debug_str:000000000003c962 .LASF2156
     /tmp/cc2IngwB.s:92759  .debug_str:000000000000cb2d .LASF2157
     /tmp/cc2IngwB.s:91889  .debug_str:0000000000008f11 .LASF2158
     /tmp/cc2IngwB.s:103037  .debug_str:0000000000035f19 .LASF2159
     /tmp/cc2IngwB.s:108769  .debug_str:000000000004d937 .LASF2160
     /tmp/cc2IngwB.s:106237  .debug_str:0000000000043227 .LASF2161
     /tmp/cc2IngwB.s:109345  .debug_str:0000000000050042 .LASF2162
     /tmp/cc2IngwB.s:98671  .debug_str:0000000000024621 .LASF2163
     /tmp/cc2IngwB.s:106039  .debug_str:0000000000042150 .LASF2164
     /tmp/cc2IngwB.s:96719  .debug_str:000000000001c186 .LASF2165
     /tmp/cc2IngwB.s:93461  .debug_str:000000000000f406 .LASF2166
     /tmp/cc2IngwB.s:100251  .debug_str:000000000002a9ac .LASF2167
     /tmp/cc2IngwB.s:90313  .debug_str:00000000000025ae .LASF2168
     /tmp/cc2IngwB.s:91205  .debug_str:00000000000060f5 .LASF2169
     /tmp/cc2IngwB.s:91019  .debug_str:00000000000054bd .LASF2170
     /tmp/cc2IngwB.s:102195  .debug_str:00000000000324ea .LASF2171
     /tmp/cc2IngwB.s:99285  .debug_str:00000000000269b2 .LASF2172
     /tmp/cc2IngwB.s:109039  .debug_str:000000000004ec23 .LASF2173
     /tmp/cc2IngwB.s:101999  .debug_str:00000000000318b1 .LASF2174
     /tmp/cc2IngwB.s:93883  .debug_str:0000000000010c0a .LASF2175
     /tmp/cc2IngwB.s:89859  .debug_str:0000000000000601 .LASF2176
     /tmp/cc2IngwB.s:97497  .debug_str:000000000001f622 .LASF2177
     /tmp/cc2IngwB.s:96221  .debug_str:000000000001a27f .LASF2178
     /tmp/cc2IngwB.s:109215  .debug_str:000000000004f832 .LASF2179
     /tmp/cc2IngwB.s:100529  .debug_str:000000000002bb19 .LASF2180
     /tmp/cc2IngwB.s:89793  .debug_str:000000000000013d .LASF2181
     /tmp/cc2IngwB.s:98413  .debug_str:000000000002346d .LASF2182
     /tmp/cc2IngwB.s:108711  .debug_str:000000000004d49d .LASF2183
     /tmp/cc2IngwB.s:97341  .debug_str:000000000001eb20 .LASF2184
     /tmp/cc2IngwB.s:102703  .debug_str:0000000000034787 .LASF2185
     /tmp/cc2IngwB.s:108195  .debug_str:000000000004b080 .LASF2186
     /tmp/cc2IngwB.s:100821  .debug_str:000000000002cccd .LASF2187
     /tmp/cc2IngwB.s:96017  .debug_str:0000000000019453 .LASF2188
     /tmp/cc2IngwB.s:96737  .debug_str:000000000001c2f2 .LASF2189
     /tmp/cc2IngwB.s:104715  .debug_str:000000000003c806 .LASF2190
     /tmp/cc2IngwB.s:91569  .debug_str:0000000000007a26 .LASF2191
     /tmp/cc2IngwB.s:102385  .debug_str:0000000000033293 .LASF2192
     /tmp/cc2IngwB.s:106297  .debug_str:000000000004355c .LASF2193
     /tmp/cc2IngwB.s:92589  .debug_str:000000000000c06b .LASF2194
     /tmp/cc2IngwB.s:91129  .debug_str:0000000000005c2e .LASF2195
     /tmp/cc2IngwB.s:105607  .debug_str:00000000000402e4 .LASF2196
     /tmp/cc2IngwB.s:104757  .debug_str:000000000003cb2d .LASF2197
     /tmp/cc2IngwB.s:101635  .debug_str:00000000000301c3 .LASF2198
     /tmp/cc2IngwB.s:91625  .debug_str:0000000000007db6 .LASF2199
     /tmp/cc2IngwB.s:103239  .debug_str:0000000000036c8a .LASF2200
     /tmp/cc2IngwB.s:107071  .debug_str:00000000000467d7 .LASF2201
     /tmp/cc2IngwB.s:90575  .debug_str:0000000000003647 .LASF2202
     /tmp/cc2IngwB.s:104963  .debug_str:000000000003d85e .LASF2203
     /tmp/cc2IngwB.s:104235  .debug_str:000000000003a682 .LASF2204
     /tmp/cc2IngwB.s:102897  .debug_str:000000000003549e .LASF2205
     /tmp/cc2IngwB.s:97957  .debug_str:000000000002161d .LASF2206
     /tmp/cc2IngwB.s:103431  .debug_str:0000000000037941 .LASF2207
     /tmp/cc2IngwB.s:95319  .debug_str:000000000001668d .LASF2208
     /tmp/cc2IngwB.s:95391  .debug_str:0000000000016bb6 .LASF2209
     /tmp/cc2IngwB.s:106535  .debug_str:000000000004456b .LASF2210
     /tmp/cc2IngwB.s:91461  .debug_str:0000000000007320 .LASF2211
     /tmp/cc2IngwB.s:94509  .debug_str:000000000001343f .LASF2212
     /tmp/cc2IngwB.s:90837  .debug_str:00000000000048b0 .LASF2213
     /tmp/cc2IngwB.s:101099  .debug_str:000000000002ddd1 .LASF2214
     /tmp/cc2IngwB.s:104691  .debug_str:000000000003c649 .LASF2215
     /tmp/cc2IngwB.s:106905  .debug_str:0000000000045c9e .LASF2216
     /tmp/cc2IngwB.s:103235  .debug_str:0000000000036c62 .LASF2217
     /tmp/cc2IngwB.s:91817  .debug_str:0000000000008aa2 .LASF2218
     /tmp/cc2IngwB.s:99341  .debug_str:0000000000026dc0 .LASF2219
     /tmp/cc2IngwB.s:94233  .debug_str:000000000001215a .LASF2220
     /tmp/cc2IngwB.s:91915  .debug_str:0000000000009116 .LASF2221
     /tmp/cc2IngwB.s:105641  .debug_str:00000000000404f0 .LASF2222
     /tmp/cc2IngwB.s:97019  .debug_str:000000000001d519 .LASF2223
     /tmp/cc2IngwB.s:97317  .debug_str:000000000001e9b6 .LASF2224
     /tmp/cc2IngwB.s:94505  .debug_str:00000000000133e9 .LASF2225
     /tmp/cc2IngwB.s:97923  .debug_str:00000000000213c0 .LASF2226
     /tmp/cc2IngwB.s:89809  .debug_str:000000000000027d .LASF2227
     /tmp/cc2IngwB.s:106515  .debug_str:0000000000044422 .LASF2228
     /tmp/cc2IngwB.s:105929  .debug_str:0000000000041922 .LASF2229
     /tmp/cc2IngwB.s:96387  .debug_str:000000000001ad8f .LASF2230
     /tmp/cc2IngwB.s:97537  .debug_str:000000000001f927 .LASF2231
     /tmp/cc2IngwB.s:98577  .debug_str:0000000000023fc1 .LASF2232
     /tmp/cc2IngwB.s:98589  .debug_str:000000000002408f .LASF2233
     /tmp/cc2IngwB.s:99675  .debug_str:0000000000028318 .LASF2234
     /tmp/cc2IngwB.s:101521  .debug_str:000000000002fa78 .LASF2235
     /tmp/cc2IngwB.s:92657  .debug_str:000000000000c485 .LASF2236
     /tmp/cc2IngwB.s:100037  .debug_str:0000000000029b0c .LASF2237
     /tmp/cc2IngwB.s:94985  .debug_str:00000000000151cd .LASF2238
     /tmp/cc2IngwB.s:101157  .debug_str:000000000002e1f6 .LASF2239
     /tmp/cc2IngwB.s:98743  .debug_str:0000000000024b33 .LASF2240
     /tmp/cc2IngwB.s:108817  .debug_str:000000000004dbdf .LASF2241
     /tmp/cc2IngwB.s:101011  .debug_str:000000000002d874 .LASF2242
     /tmp/cc2IngwB.s:107825  .debug_str:0000000000049901 .LASF2243
     /tmp/cc2IngwB.s:105269  .debug_str:000000000003eda8 .LASF2244
     /tmp/cc2IngwB.s:95441  .debug_str:0000000000016f70 .LASF2245
     /tmp/cc2IngwB.s:92251  .debug_str:000000000000a82e .LASF2246
     /tmp/cc2IngwB.s:91357  .debug_str:0000000000006b3e .LASF2247
     /tmp/cc2IngwB.s:98645  .debug_str:0000000000024414 .LASF2248
     /tmp/cc2IngwB.s:107257  .debug_str:0000000000047324 .LASF2249
     /tmp/cc2IngwB.s:105117  .debug_str:000000000003e344 .LASF2250
     /tmp/cc2IngwB.s:103247  .debug_str:0000000000036cf3 .LASF2251
     /tmp/cc2IngwB.s:91627  .debug_str:0000000000007de2 .LASF2252
     /tmp/cc2IngwB.s:99983  .debug_str:0000000000029870 .LASF2253
     /tmp/cc2IngwB.s:98065  .debug_str:0000000000021d99 .LASF2254
     /tmp/cc2IngwB.s:105525  .debug_str:000000000003fd7f .LASF2255
     /tmp/cc2IngwB.s:96283  .debug_str:000000000001a664 .LASF2256
     /tmp/cc2IngwB.s:99247  .debug_str:0000000000026790 .LASF2257
     /tmp/cc2IngwB.s:94763  .debug_str:0000000000014497 .LASF2258
     /tmp/cc2IngwB.s:108449  .debug_str:000000000004c2c8 .LASF2259
     /tmp/cc2IngwB.s:93953  .debug_str:0000000000010fde .LASF2260
     /tmp/cc2IngwB.s:108227  .debug_str:000000000004b32f .LASF2261
     /tmp/cc2IngwB.s:92563  .debug_str:000000000000be7e .LASF2262
     /tmp/cc2IngwB.s:99999  .debug_str:0000000000029968 .LASF2263
     /tmp/cc2IngwB.s:91103  .debug_str:0000000000005a9a .LASF2264
     /tmp/cc2IngwB.s:90039  .debug_str:00000000000011e2 .LASF2265
     /tmp/cc2IngwB.s:92955  .debug_str:000000000000d818 .LASF2266
     /tmp/cc2IngwB.s:96295  .debug_str:000000000001a72a .LASF2267
     /tmp/cc2IngwB.s:108915  .debug_str:000000000004e2dd .LASF2268
     /tmp/cc2IngwB.s:94453  .debug_str:000000000001303c .LASF2269
     /tmp/cc2IngwB.s:104767  .debug_str:000000000003cc0e .LASF2270
     /tmp/cc2IngwB.s:109015  .debug_str:000000000004eada .LASF2271
     /tmp/cc2IngwB.s:101087  .debug_str:000000000002dd17 .LASF2272
     /tmp/cc2IngwB.s:95627  .debug_str:0000000000017bf7 .LASF2273
     /tmp/cc2IngwB.s:96973  .debug_str:000000000001d291 .LASF2274
     /tmp/cc2IngwB.s:102005  .debug_str:000000000003190c .LASF2275
     /tmp/cc2IngwB.s:106931  .debug_str:0000000000045e31 .LASF2276
     /tmp/cc2IngwB.s:109499  .debug_str:0000000000050ab9 .LASF2277
     /tmp/cc2IngwB.s:100681  .debug_str:000000000002c496 .LASF2278
     /tmp/cc2IngwB.s:107463  .debug_str:0000000000048105 .LASF2279
     /tmp/cc2IngwB.s:94227  .debug_str:00000000000120f7 .LASF2280
     /tmp/cc2IngwB.s:106711  .debug_str:00000000000450ce .LASF2281
     /tmp/cc2IngwB.s:107643  .debug_str:0000000000048d17 .LASF2282
     /tmp/cc2IngwB.s:107761  .debug_str:000000000004949e .LASF2283
     /tmp/cc2IngwB.s:101423  .debug_str:000000000002f3af .LASF2284
     /tmp/cc2IngwB.s:103961  .debug_str:00000000000397a9 .LASF2285
     /tmp/cc2IngwB.s:93339  .debug_str:000000000000edaa .LASF2286
     /tmp/cc2IngwB.s:92973  .debug_str:000000000000d933 .LASF2287
     /tmp/cc2IngwB.s:103393  .debug_str:0000000000037675 .LASF2288
     /tmp/cc2IngwB.s:98417  .debug_str:00000000000234a9 .LASF2289
     /tmp/cc2IngwB.s:91487  .debug_str:00000000000074db .LASF2290
     /tmp/cc2IngwB.s:103219  .debug_str:0000000000036ba1 .LASF2291
     /tmp/cc2IngwB.s:95693  .debug_str:00000000000180b6 .LASF2292
     /tmp/cc2IngwB.s:106035  .debug_str:00000000000420fc .LASF2293
     /tmp/cc2IngwB.s:99955  .debug_str:00000000000296c8 .LASF2294
     /tmp/cc2IngwB.s:92299  .debug_str:000000000000ab41 .LASF2295
     /tmp/cc2IngwB.s:92219  .debug_str:000000000000a547 .LASF2296
     /tmp/cc2IngwB.s:109387  .debug_str:0000000000050343 .LASF2297
     /tmp/cc2IngwB.s:104879  .debug_str:000000000003d2ed .LASF2298
     /tmp/cc2IngwB.s:101465  .debug_str:000000000002f5f4 .LASF2299
     /tmp/cc2IngwB.s:95609  .debug_str:0000000000017aa9 .LASF2300
     /tmp/cc2IngwB.s:91729  .debug_str:0000000000008464 .LASF2301
     /tmp/cc2IngwB.s:106391  .debug_str:0000000000043bad .LASF2302
     /tmp/cc2IngwB.s:91311  .debug_str:00000000000067bb .LASF2303
     /tmp/cc2IngwB.s:90069  .debug_str:00000000000013ca .LASF2304
     /tmp/cc2IngwB.s:105549  .debug_str:000000000003feed .LASF2305
     /tmp/cc2IngwB.s:93355  .debug_str:000000000000ee31 .LASF2306
     /tmp/cc2IngwB.s:102135  .debug_str:0000000000032149 .LASF2307
     /tmp/cc2IngwB.s:107099  .debug_str:00000000000469e3 .LASF2308
     /tmp/cc2IngwB.s:101071  .debug_str:000000000002dbf8 .LASF2309
     /tmp/cc2IngwB.s:97597  .debug_str:000000000001fd74 .LASF2310
     /tmp/cc2IngwB.s:95221  .debug_str:0000000000016117 .LASF2311
     /tmp/cc2IngwB.s:109135  .debug_str:000000000004f2db .LASF2312
     /tmp/cc2IngwB.s:94319  .debug_str:000000000001272e .LASF2313
     /tmp/cc2IngwB.s:95159  .debug_str:0000000000015cef .LASF2314
     /tmp/cc2IngwB.s:107253  .debug_str:00000000000472f9 .LASF2315
     /tmp/cc2IngwB.s:99287  .debug_str:00000000000269de .LASF2316
     /tmp/cc2IngwB.s:98351  .debug_str:000000000002304f .LASF2317
     /tmp/cc2IngwB.s:90573  .debug_str:000000000000361c .LASF2318
     /tmp/cc2IngwB.s:109089  .debug_str:000000000004eff6 .LASF2319
     /tmp/cc2IngwB.s:101281  .debug_str:000000000002e9fb .LASF2320
     /tmp/cc2IngwB.s:100423  .debug_str:000000000002b494 .LASF2321
     /tmp/cc2IngwB.s:101115  .debug_str:000000000002deec .LASF2322
     /tmp/cc2IngwB.s:109419  .debug_str:0000000000050567 .LASF2323
     /tmp/cc2IngwB.s:105047  .debug_str:000000000003ddee .LASF2324
     /tmp/cc2IngwB.s:108501  .debug_str:000000000004c643 .LASF2325
     /tmp/cc2IngwB.s:102889  .debug_str:0000000000035427 .LASF2326
     /tmp/cc2IngwB.s:109121  .debug_str:000000000004f21a .LASF2327
     /tmp/cc2IngwB.s:99523  .debug_str:00000000000278b5 .LASF2328
     /tmp/cc2IngwB.s:108213  .debug_str:000000000004b276 .LASF2329
     /tmp/cc2IngwB.s:96739  .debug_str:000000000001c318 .LASF2330
     /tmp/cc2IngwB.s:92435  .debug_str:000000000000b4bd .LASF2331
     /tmp/cc2IngwB.s:89775  .debug_str:0000000000000000 .LASF2332
     /tmp/cc2IngwB.s:94551  .debug_str:0000000000013789 .LASF2333
     /tmp/cc2IngwB.s:100697  .debug_str:000000000002c5c5 .LASF2334
     /tmp/cc2IngwB.s:105125  .debug_str:000000000003e3bd .LASF2335
     /tmp/cc2IngwB.s:107621  .debug_str:0000000000048bff .LASF2336
     /tmp/cc2IngwB.s:94959  .debug_str:0000000000015062 .LASF2337
     /tmp/cc2IngwB.s:95785  .debug_str:000000000001866c .LASF2338
     /tmp/cc2IngwB.s:104749  .debug_str:000000000003cabb .LASF2339
     /tmp/cc2IngwB.s:93609  .debug_str:000000000000fcaf .LASF2340
     /tmp/cc2IngwB.s:94003  .debug_str:000000000001128e .LASF2341
     /tmp/cc2IngwB.s:96481  .debug_str:000000000001b356 .LASF2342
     /tmp/cc2IngwB.s:101975  .debug_str:0000000000031729 .LASF2343
     /tmp/cc2IngwB.s:98107  .debug_str:000000000002212b .LASF2344
     /tmp/cc2IngwB.s:94507  .debug_str:0000000000013415 .LASF2345
     /tmp/cc2IngwB.s:108841  .debug_str:000000000004dd54 .LASF2346
     /tmp/cc2IngwB.s:91067  .debug_str:0000000000005820 .LASF2347
     /tmp/cc2IngwB.s:93413  .debug_str:000000000000f08c .LASF2348
     /tmp/cc2IngwB.s:104469  .debug_str:000000000003b6e2 .LASF2349
     /tmp/cc2IngwB.s:91065  .debug_str:00000000000057fe .LASF2350
     /tmp/cc2IngwB.s:92369  .debug_str:000000000000affe .LASF2351
     /tmp/cc2IngwB.s:104991  .debug_str:000000000003da11 .LASF2352
     /tmp/cc2IngwB.s:99919  .debug_str:00000000000293f3 .LASF2353
     /tmp/cc2IngwB.s:93327  .debug_str:000000000000ecfb .LASF2354
     /tmp/cc2IngwB.s:105819  .debug_str:000000000004101c .LASF2355
     /tmp/cc2IngwB.s:109065  .debug_str:000000000004edef .LASF2356
     /tmp/cc2IngwB.s:90451  .debug_str:0000000000002ed3 .LASF2357
     /tmp/cc2IngwB.s:99939  .debug_str:0000000000029570 .LASF2358
     /tmp/cc2IngwB.s:90167  .debug_str:0000000000001b6d .LASF2359
     /tmp/cc2IngwB.s:101077  .debug_str:000000000002dc65 .LASF2360
     /tmp/cc2IngwB.s:106983  .debug_str:0000000000046246 .LASF2361
     /tmp/cc2IngwB.s:106887  .debug_str:0000000000045ba9 .LASF2362
     /tmp/cc2IngwB.s:98079  .debug_str:0000000000021ebf .LASF2363
     /tmp/cc2IngwB.s:107799  .debug_str:0000000000049747 .LASF2364
     /tmp/cc2IngwB.s:98775  .debug_str:0000000000024cfa .LASF2365
     /tmp/cc2IngwB.s:94847  .debug_str:00000000000149df .LASF2366
     /tmp/cc2IngwB.s:96797  .debug_str:000000000001c6e9 .LASF2367
     /tmp/cc2IngwB.s:107885  .debug_str:0000000000049ce7 .LASF2368
     /tmp/cc2IngwB.s:91035  .debug_str:00000000000055e3 .LASF2369
     /tmp/cc2IngwB.s:93581  .debug_str:000000000000fa7e .LASF2370
     /tmp/cc2IngwB.s:93273  .debug_str:000000000000ea10 .LASF2371
     /tmp/cc2IngwB.s:92091  .debug_str:0000000000009d80 .LASF2372
     /tmp/cc2IngwB.s:104529  .debug_str:000000000003bafb .LASF2373
     /tmp/cc2IngwB.s:90881  .debug_str:0000000000004bd5 .LASF2374
     /tmp/cc2IngwB.s:95639  .debug_str:0000000000017cf4 .LASF2375
     /tmp/cc2IngwB.s:102143  .debug_str:00000000000321b3 .LASF2376
     /tmp/cc2IngwB.s:106475  .debug_str:000000000004419a .LASF2377
     /tmp/cc2IngwB.s:99193  .debug_str:00000000000263f5 .LASF2378
     /tmp/cc2IngwB.s:97553  .debug_str:000000000001fa7e .LASF2379
     /tmp/cc2IngwB.s:103471  .debug_str:0000000000037b6c .LASF2380
     /tmp/cc2IngwB.s:100413  .debug_str:000000000002b3d0 .LASF2381
     /tmp/cc2IngwB.s:99903  .debug_str:00000000000292cf .LASF2382
     /tmp/cc2IngwB.s:108951  .debug_str:000000000004e62c .LASF2383
     /tmp/cc2IngwB.s:104233  .debug_str:000000000003a660 .LASF2384
     /tmp/cc2IngwB.s:108257  .debug_str:000000000004b567 .LASF2385
     /tmp/cc2IngwB.s:92457  .debug_str:000000000000b6a3 .LASF2386
     /tmp/cc2IngwB.s:104263  .debug_str:000000000003a8bb .LASF2387
     /tmp/cc2IngwB.s:101237  .debug_str:000000000002e736 .LASF2388
     /tmp/cc2IngwB.s:102717  .debug_str:000000000003488b .LASF2389
     /tmp/cc2IngwB.s:99831  .debug_str:0000000000028db9 .LASF2390
     /tmp/cc2IngwB.s:107753  .debug_str:0000000000049432 .LASF2391
     /tmp/cc2IngwB.s:105959  .debug_str:0000000000041c04 .LASF2392
     /tmp/cc2IngwB.s:102583  .debug_str:0000000000033fe1 .LASF2393
     /tmp/cc2IngwB.s:98805  .debug_str:0000000000024de1 .LASF2394
     /tmp/cc2IngwB.s:90775  .debug_str:0000000000004504 .LASF2395
     /tmp/cc2IngwB.s:94833  .debug_str:000000000001491d .LASF2396
     /tmp/cc2IngwB.s:99181  .debug_str:00000000000262ed .LASF2397
     /tmp/cc2IngwB.s:93237  .debug_str:000000000000e889 .LASF2398
     /tmp/cc2IngwB.s:106955  .debug_str:0000000000046056 .LASF2399
     /tmp/cc2IngwB.s:102519  .debug_str:0000000000033b80 .LASF2400
     /tmp/cc2IngwB.s:100525  .debug_str:000000000002bad4 .LASF2401
     /tmp/cc2IngwB.s:101453  .debug_str:000000000002f513 .LASF2402
     /tmp/cc2IngwB.s:90969  .debug_str:00000000000051ac .LASF2403
     /tmp/cc2IngwB.s:101671  .debug_str:000000000003041f .LASF2404
     /tmp/cc2IngwB.s:90747  .debug_str:00000000000042b7 .LASF2405
     /tmp/cc2IngwB.s:106415  .debug_str:0000000000043d7e .LASF2406
     /tmp/cc2IngwB.s:102651  .debug_str:000000000003444c .LASF2407
     /tmp/cc2IngwB.s:97981  .debug_str:0000000000021794 .LASF2408
     /tmp/cc2IngwB.s:96207  .debug_str:000000000001a1b4 .LASF2409
     /tmp/cc2IngwB.s:96407  .debug_str:000000000001af3f .LASF2410
     /tmp/cc2IngwB.s:100359  .debug_str:000000000002afe0 .LASF2411
     /tmp/cc2IngwB.s:102607  .debug_str:0000000000034193 .LASF2412
     /tmp/cc2IngwB.s:92437  .debug_str:000000000000b4e5 .LASF2413
     /tmp/cc2IngwB.s:105187  .debug_str:000000000003e84e .LASF2414
     /tmp/cc2IngwB.s:107663  .debug_str:0000000000048e8a .LASF2415
     /tmp/cc2IngwB.s:93101  .debug_str:000000000000e008 .LASF2416
     /tmp/cc2IngwB.s:102165  .debug_str:00000000000322e0 .LASF2417
     /tmp/cc2IngwB.s:104121  .debug_str:000000000003a00b .LASF2418
     /tmp/cc2IngwB.s:92999  .debug_str:000000000000db17 .LASF2419
     /tmp/cc2IngwB.s:95069  .debug_str:0000000000015757 .LASF2420
     /tmp/cc2IngwB.s:104013  .debug_str:0000000000039a05 .LASF2421
     /tmp/cc2IngwB.s:107951  .debug_str:000000000004a0fe .LASF2422
     /tmp/cc2IngwB.s:95509  .debug_str:0000000000017350 .LASF2423
     /tmp/cc2IngwB.s:98617  .debug_str:0000000000024268 .LASF2424
     /tmp/cc2IngwB.s:99767  .debug_str:00000000000288da .LASF2425
     /tmp/cc2IngwB.s:102287  .debug_str:0000000000032ba9 .LASF2426
     /tmp/cc2IngwB.s:89827  .debug_str:00000000000003c0 .LASF2427
     /tmp/cc2IngwB.s:99871  .debug_str:0000000000029073 .LASF2428
     /tmp/cc2IngwB.s:94933  .debug_str:0000000000014ee4 .LASF2429
     /tmp/cc2IngwB.s:98533  .debug_str:0000000000023d27 .LASF2430
     /tmp/cc2IngwB.s:106615  .debug_str:0000000000044aa6 .LASF2431
     /tmp/cc2IngwB.s:104471  .debug_str:000000000003b70c .LASF2432
     /tmp/cc2IngwB.s:91445  .debug_str:000000000000720d .LASF2433
     /tmp/cc2IngwB.s:107339  .debug_str:0000000000047944 .LASF2434
     /tmp/cc2IngwB.s:89923  .debug_str:0000000000000a12 .LASF2435
     /tmp/cc2IngwB.s:98429  .debug_str:0000000000023560 .LASF2436
     /tmp/cc2IngwB.s:100183  .debug_str:000000000002a4e4 .LASF2437
     /tmp/cc2IngwB.s:93047  .debug_str:000000000000ddb8 .LASF2438
     /tmp/cc2IngwB.s:91115  .debug_str:0000000000005b77 .LASF2439
     /tmp/cc2IngwB.s:104605  .debug_str:000000000003c037 .LASF2440
     /tmp/cc2IngwB.s:109203  .debug_str:000000000004f73f .LASF2441
     /tmp/cc2IngwB.s:96553  .debug_str:000000000001b777 .LASF2442
     /tmp/cc2IngwB.s:91939  .debug_str:00000000000092bd .LASF2443
     /tmp/cc2IngwB.s:106411  .debug_str:0000000000043d53 .LASF2444
     /tmp/cc2IngwB.s:104969  .debug_str:000000000003d8ac .LASF2445
     /tmp/cc2IngwB.s:107895  .debug_str:0000000000049dce .LASF2446
     /tmp/cc2IngwB.s:93687  .debug_str:00000000000101c4 .LASF2447
     /tmp/cc2IngwB.s:104643  .debug_str:000000000003c2e4 .LASF2448
     /tmp/cc2IngwB.s:104619  .debug_str:000000000003c11b .LASF2449
     /tmp/cc2IngwB.s:95793  .debug_str:000000000001870b .LASF2450
     /tmp/cc2IngwB.s:95575  .debug_str:00000000000177f5 .LASF2451
     /tmp/cc2IngwB.s:106623  .debug_str:0000000000044b0f .LASF2452
     /tmp/cc2IngwB.s:106961  .debug_str:00000000000460c7 .LASF2453
     /tmp/cc2IngwB.s:97107  .debug_str:000000000001dae6 .LASF2454
     /tmp/cc2IngwB.s:100063  .debug_str:0000000000029d2a .LASF2455
     /tmp/cc2IngwB.s:98643  .debug_str:00000000000243f8 .LASF2456
     /tmp/cc2IngwB.s:90103  .debug_str:00000000000015fa .LASF2457
     /tmp/cc2IngwB.s:103133  .debug_str:00000000000365fd .LASF2458
     /tmp/cc2IngwB.s:103251  .debug_str:0000000000036d5a .LASF2459
     /tmp/cc2IngwB.s:98289  .debug_str:0000000000022c5a .LASF2460
     /tmp/cc2IngwB.s:103681  .debug_str:000000000003888e .LASF2461
     /tmp/cc2IngwB.s:90413  .debug_str:0000000000002c18 .LASF2462
     /tmp/cc2IngwB.s:96667  .debug_str:000000000001be3e .LASF2463
     /tmp/cc2IngwB.s:100783  .debug_str:000000000002ca80 .LASF2464
     /tmp/cc2IngwB.s:107425  .debug_str:0000000000047edd .LASF2465
     /tmp/cc2IngwB.s:92085  .debug_str:0000000000009d1b .LASF2466
     /tmp/cc2IngwB.s:90455  .debug_str:0000000000002f18 .LASF2467
     /tmp/cc2IngwB.s:99179  .debug_str:00000000000262ca .LASF2468
     /tmp/cc2IngwB.s:109283  .debug_str:000000000004fc54 .LASF2469
     /tmp/cc2IngwB.s:109357  .debug_str:000000000005011b .LASF2470
     /tmp/cc2IngwB.s:103273  .debug_str:0000000000036edd .LASF2471
     /tmp/cc2IngwB.s:107819  .debug_str:0000000000049887 .LASF2472
     /tmp/cc2IngwB.s:107479  .debug_str:00000000000481f2 .LASF2473
     /tmp/cc2IngwB.s:106019  .debug_str:000000000004204e .LASF2474
     /tmp/cc2IngwB.s:104561  .debug_str:000000000003bd9f .LASF2475
     /tmp/cc2IngwB.s:96161  .debug_str:0000000000019e88 .LASF2476
     /tmp/cc2IngwB.s:102197  .debug_str:000000000003251c .LASF2477
     /tmp/cc2IngwB.s:106617  .debug_str:0000000000044ac9 .LASF2478
     /tmp/cc2IngwB.s:101725  .debug_str:0000000000030751 .LASF2479
     /tmp/cc2IngwB.s:99343  .debug_str:0000000000026dea .LASF2480
     /tmp/cc2IngwB.s:108345  .debug_str:000000000004bbd1 .LASF2481
     /tmp/cc2IngwB.s:99411  .debug_str:0000000000027254 .LASF2482
     /tmp/cc2IngwB.s:99457  .debug_str:0000000000027517 .LASF2483
     /tmp/cc2IngwB.s:96317  .debug_str:000000000001a910 .LASF2484
     /tmp/cc2IngwB.s:90433  .debug_str:0000000000002d6f .LASF2485
     /tmp/cc2IngwB.s:92295  .debug_str:000000000000ab06 .LASF2486
     /tmp/cc2IngwB.s:101985  .debug_str:00000000000317b5 .LASF2487
     /tmp/cc2IngwB.s:109363  .debug_str:0000000000050197 .LASF2488
     /tmp/cc2IngwB.s:108033  .debug_str:000000000004a6d8 .LASF2489
     /tmp/cc2IngwB.s:95099  .debug_str:0000000000015921 .LASF2490
     /tmp/cc2IngwB.s:102289  .debug_str:0000000000032bc4 .LASF2491
     /tmp/cc2IngwB.s:96841  .debug_str:000000000001c98e .LASF2492
     /tmp/cc2IngwB.s:95487  .debug_str:0000000000017213 .LASF2493
     /tmp/cc2IngwB.s:94641  .debug_str:0000000000013d04 .LASF2494
     /tmp/cc2IngwB.s:106941  .debug_str:0000000000045f62 .LASF2495
     /tmp/cc2IngwB.s:108231  .debug_str:000000000004b362 .LASF2496
     /tmp/cc2IngwB.s:94485  .debug_str:0000000000013273 .LASF2497
     /tmp/cc2IngwB.s:97937  .debug_str:00000000000214b5 .LASF2498
     /tmp/cc2IngwB.s:106075  .debug_str:00000000000423a2 .LASF2499
     /tmp/cc2IngwB.s:100221  .debug_str:000000000002a794 .LASF2500
     /tmp/cc2IngwB.s:109355  .debug_str:00000000000500fa .LASF2501
     /tmp/cc2IngwB.s:99953  .debug_str:000000000002969f .LASF2502
     /tmp/cc2IngwB.s:107421  .debug_str:0000000000047e94 .LASF2503
     /tmp/cc2IngwB.s:93713  .debug_str:0000000000010346 .LASF2504
     /tmp/cc2IngwB.s:95259  .debug_str:00000000000162f9 .LASF2505
     /tmp/cc2IngwB.s:103635  .debug_str:0000000000038666 .LASF2506
     /tmp/cc2IngwB.s:109449  .debug_str:000000000005074b .LASF2507
     /tmp/cc2IngwB.s:90163  .debug_str:0000000000001b35 .LASF2508
     /tmp/cc2IngwB.s:102377  .debug_str:000000000003320b .LASF2509
     /tmp/cc2IngwB.s:102901  .debug_str:00000000000354f0 .LASF2510
     /tmp/cc2IngwB.s:108655  .debug_str:000000000004d0c6 .LASF2511
     /tmp/cc2IngwB.s:99105  .debug_str:0000000000025f92 .LASF2512
     /tmp/cc2IngwB.s:99783  .debug_str:0000000000028a1e .LASF2513
     /tmp/cc2IngwB.s:104261  .debug_str:000000000003a894 .LASF2514
     /tmp/cc2IngwB.s:106791  .debug_str:0000000000045611 .LASF2515
     /tmp/cc2IngwB.s:107893  .debug_str:0000000000049da5 .LASF2516
     /tmp/cc2IngwB.s:94755  .debug_str:0000000000014420 .LASF2517
     /tmp/cc2IngwB.s:106099  .debug_str:00000000000427a7 .LASF2518
     /tmp/cc2IngwB.s:93271  .debug_str:000000000000e9df .LASF2519
     /tmp/cc2IngwB.s:92119  .debug_str:0000000000009f66 .LASF2520
     /tmp/cc2IngwB.s:92811  .debug_str:000000000000cf3c .LASF2521
     /tmp/cc2IngwB.s:108157  .debug_str:000000000004ade8 .LASF2522
     /tmp/cc2IngwB.s:97917  .debug_str:0000000000021366 .LASF2523
     /tmp/cc2IngwB.s:105569  .debug_str:0000000000040078 .LASF2524
     /tmp/cc2IngwB.s:108809  .debug_str:000000000004db7b .LASF2525
     /tmp/cc2IngwB.s:96397  .debug_str:000000000001ae55 .LASF2526
     /tmp/cc2IngwB.s:99917  .debug_str:00000000000293b8 .LASF2527
     /tmp/cc2IngwB.s:103413  .debug_str:00000000000377c1 .LASF2528
     /tmp/cc2IngwB.s:109005  .debug_str:000000000004ea3c .LASF2529
     /tmp/cc2IngwB.s:98023  .debug_str:0000000000021ac7 .LASF2530
     /tmp/cc2IngwB.s:103857  .debug_str:000000000003922f .LASF2531
     /tmp/cc2IngwB.s:108467  .debug_str:000000000004c42b .LASF2532
     /tmp/cc2IngwB.s:94987  .debug_str:00000000000151f4 .LASF2533
     /tmp/cc2IngwB.s:99333  .debug_str:0000000000026d04 .LASF2534
     /tmp/cc2IngwB.s:105789  .debug_str:0000000000040dd7 .LASF2535
     /tmp/cc2IngwB.s:90075  .debug_str:000000000000143e .LASF2536
     /tmp/cc2IngwB.s:104773  .debug_str:000000000003cc46 .LASF2537
     /tmp/cc2IngwB.s:98443  .debug_str:0000000000023646 .LASF2538
     /tmp/cc2IngwB.s:91433  .debug_str:000000000000712f .LASF2539
     /tmp/cc2IngwB.s:106073  .debug_str:0000000000042361 .LASF2540
     /tmp/cc2IngwB.s:92851  .debug_str:000000000000d174 .LASF2541
     /tmp/cc2IngwB.s:99745  .debug_str:000000000002874c .LASF2542
     /tmp/cc2IngwB.s:101501  .debug_str:000000000002f8e7 .LASF2543
     /tmp/cc2IngwB.s:95245  .debug_str:0000000000016243 .LASF2544
     /tmp/cc2IngwB.s:107889  .debug_str:0000000000049d35 .LASF2545
     /tmp/cc2IngwB.s:108925  .debug_str:000000000004e3b3 .LASF2546
     /tmp/cc2IngwB.s:98815  .debug_str:0000000000024ebe .LASF2547
     /tmp/cc2IngwB.s:91401  .debug_str:0000000000006e87 .LASF2548
     /tmp/cc2IngwB.s:105107  .debug_str:000000000003e28e .LASF2549
     /tmp/cc2IngwB.s:107545  .debug_str:00000000000486d6 .LASF2550
     /tmp/cc2IngwB.s:108155  .debug_str:000000000004ada9 .LASF2551
     /tmp/cc2IngwB.s:95909  .debug_str:0000000000018d4b .LASF2552
     /tmp/cc2IngwB.s:104527  .debug_str:000000000003babf .LASF2553
     /tmp/cc2IngwB.s:90119  .debug_str:0000000000001745 .LASF2554
     /tmp/cc2IngwB.s:99425  .debug_str:000000000002732b .LASF2555
     /tmp/cc2IngwB.s:99821  .debug_str:0000000000028d02 .LASF2556
     /tmp/cc2IngwB.s:94523  .debug_str:000000000001359e .LASF2557
     /tmp/cc2IngwB.s:109401  .debug_str:0000000000050424 .LASF2558
     /tmp/cc2IngwB.s:96373  .debug_str:000000000001ac5a .LASF2559
     /tmp/cc2IngwB.s:99779  .debug_str:00000000000289c1 .LASF2560
     /tmp/cc2IngwB.s:100995  .debug_str:000000000002d791 .LASF2561
     /tmp/cc2IngwB.s:98545  .debug_str:0000000000023db1 .LASF2562
     /tmp/cc2IngwB.s:106217  .debug_str:0000000000043045 .LASF2563
     /tmp/cc2IngwB.s:103935  .debug_str:00000000000395fb .LASF2564
     /tmp/cc2IngwB.s:101321  .debug_str:000000000002ece1 .LASF2565
     /tmp/cc2IngwB.s:93915  .debug_str:0000000000010d3f .LASF2566
     /tmp/cc2IngwB.s:98201  .debug_str:0000000000022693 .LASF2567
     /tmp/cc2IngwB.s:94679  .debug_str:0000000000013f6b .LASF2568
     /tmp/cc2IngwB.s:99397  .debug_str:000000000002714c .LASF2569
     /tmp/cc2IngwB.s:92221  .debug_str:000000000000a566 .LASF2570
     /tmp/cc2IngwB.s:105783  .debug_str:0000000000040d57 .LASF2571
     /tmp/cc2IngwB.s:94503  .debug_str:00000000000133a4 .LASF2572
     /tmp/cc2IngwB.s:91417  .debug_str:0000000000007012 .LASF2573
     /tmp/cc2IngwB.s:109353  .debug_str:00000000000500bb .LASF2574
     /tmp/cc2IngwB.s:98985  .debug_str:00000000000258ce .LASF2575
     /tmp/cc2IngwB.s:109045  .debug_str:000000000004ec87 .LASF2576
     /tmp/cc2IngwB.s:93301  .debug_str:000000000000eb05 .LASF2577
     /tmp/cc2IngwB.s:90861  .debug_str:0000000000004a92 .LASF2578
     /tmp/cc2IngwB.s:92035  .debug_str:00000000000098d2 .LASF2579
     /tmp/cc2IngwB.s:104981  .debug_str:000000000003d977 .LASF2580
     /tmp/cc2IngwB.s:94259  .debug_str:0000000000012329 .LASF2581
     /tmp/cc2IngwB.s:92417  .debug_str:000000000000b3a5 .LASF2582
     /tmp/cc2IngwB.s:107297  .debug_str:000000000004761b .LASF2583
     /tmp/cc2IngwB.s:94057  .debug_str:0000000000011666 .LASF2584
     /tmp/cc2IngwB.s:91623  .debug_str:0000000000007d73 .LASF2585
     /tmp/cc2IngwB.s:105093  .debug_str:000000000003e0f7 .LASF2586
     /tmp/cc2IngwB.s:102335  .debug_str:0000000000032ee6 .LASF2587
     /tmp/cc2IngwB.s:96107  .debug_str:0000000000019aad .LASF2588
     /tmp/cc2IngwB.s:101969  .debug_str:00000000000316a6 .LASF2589
     /tmp/cc2IngwB.s:102167  .debug_str:0000000000032302 .LASF2590
     /tmp/cc2IngwB.s:108681  .debug_str:000000000004d294 .LASF2591
     /tmp/cc2IngwB.s:109193  .debug_str:000000000004f664 .LASF2592
     /tmp/cc2IngwB.s:92187  .debug_str:000000000000a3b0 .LASF2593
     /tmp/cc2IngwB.s:96315  .debug_str:000000000001a8d8 .LASF2594
     /tmp/cc2IngwB.s:90265  .debug_str:0000000000002292 .LASF2595
     /tmp/cc2IngwB.s:91423  .debug_str:0000000000007082 .LASF2596
     /tmp/cc2IngwB.s:100967  .debug_str:000000000002d5e9 .LASF2597
     /tmp/cc2IngwB.s:90365  .debug_str:0000000000002918 .LASF2598
     /tmp/cc2IngwB.s:109145  .debug_str:000000000004f39b .LASF2599
     /tmp/cc2IngwB.s:104413  .debug_str:000000000003b2cf .LASF2600
     /tmp/cc2IngwB.s:90803  .debug_str:000000000000463d .LASF2601
     /tmp/cc2IngwB.s:107227  .debug_str:000000000004716f .LASF2602
     /tmp/cc2IngwB.s:90247  .debug_str:0000000000002120 .LASF2603
     /tmp/cc2IngwB.s:107541  .debug_str:0000000000048678 .LASF2604
     /tmp/cc2IngwB.s:97591  .debug_str:000000000001fd0e .LASF2605
     /tmp/cc2IngwB.s:99887  .debug_str:000000000002917f .LASF2606
     /tmp/cc2IngwB.s:97699  .debug_str:00000000000204fd .LASF2607
     /tmp/cc2IngwB.s:105091  .debug_str:000000000003e0be .LASF2608
     /tmp/cc2IngwB.s:104797  .debug_str:000000000003ce02 .LASF2609
     /tmp/cc2IngwB.s:106613  .debug_str:0000000000044a66 .LASF2610
     /tmp/cc2IngwB.s:92395  .debug_str:000000000000b182 .LASF2611
     /tmp/cc2IngwB.s:99615  .debug_str:0000000000027f2a .LASF2612
     /tmp/cc2IngwB.s:105945  .debug_str:0000000000041ab9 .LASF2613
     /tmp/cc2IngwB.s:89989  .debug_str:0000000000000e23 .LASF2614
     /tmp/cc2IngwB.s:100579  .debug_str:000000000002be54 .LASF2615
     /tmp/cc2IngwB.s:104785  .debug_str:000000000003ccff .LASF2616
     /tmp/cc2IngwB.s:102423  .debug_str:00000000000334de .LASF2617
     /tmp/cc2IngwB.s:99931  .debug_str:00000000000294d5 .LASF2618
     /tmp/cc2IngwB.s:100253  .debug_str:000000000002a9de .LASF2619
     /tmp/cc2IngwB.s:102735  .debug_str:000000000003498f .LASF2620
     /tmp/cc2IngwB.s:105987  .debug_str:0000000000041e08 .LASF2621
     /tmp/cc2IngwB.s:97833  .debug_str:0000000000020e8d .LASF2622
     /tmp/cc2IngwB.s:102359  .debug_str:0000000000033081 .LASF2623
     /tmp/cc2IngwB.s:92629  .debug_str:000000000000c2d5 .LASF2624
     /tmp/cc2IngwB.s:90953  .debug_str:00000000000050ab .LASF2625
     /tmp/cc2IngwB.s:97731  .debug_str:0000000000020735 .LASF2626
     /tmp/cc2IngwB.s:101867  .debug_str:00000000000310b2 .LASF2627
     /tmp/cc2IngwB.s:94029  .debug_str:0000000000011476 .LASF2628
     /tmp/cc2IngwB.s:101693  .debug_str:0000000000030566 .LASF2629
     /tmp/cc2IngwB.s:95631  .debug_str:0000000000017c5b .LASF2630
     /tmp/cc2IngwB.s:103605  .debug_str:0000000000038394 .LASF2631
     /tmp/cc2IngwB.s:109099  .debug_str:000000000004f0bb .LASF2632
     /tmp/cc2IngwB.s:97353  .debug_str:000000000001ec37 .LASF2633
     /tmp/cc2IngwB.s:101619  .debug_str:00000000000300bd .LASF2634
     /tmp/cc2IngwB.s:104349  .debug_str:000000000003ae61 .LASF2635
     /tmp/cc2IngwB.s:100305  .debug_str:000000000002ac9b .LASF2636
     /tmp/cc2IngwB.s:91383  .debug_str:0000000000006cd4 .LASF2637
     /tmp/cc2IngwB.s:92445  .debug_str:000000000000b5a9 .LASF2638
     /tmp/cc2IngwB.s:98955  .debug_str:0000000000025784 .LASF2639
     /tmp/cc2IngwB.s:106053  .debug_str:0000000000042267 .LASF2640
     /tmp/cc2IngwB.s:103773  .debug_str:0000000000038d89 .LASF2641
     /tmp/cc2IngwB.s:104893  .debug_str:000000000003d3fe .LASF2642
     /tmp/cc2IngwB.s:108949  .debug_str:000000000004e5e4 .LASF2643
     /tmp/cc2IngwB.s:106427  .debug_str:0000000000043e07 .LASF2644
     /tmp/cc2IngwB.s:98579  .debug_str:0000000000023fe7 .LASF2645
     /tmp/cc2IngwB.s:97405  .debug_str:000000000001ef9e .LASF2646
     /tmp/cc2IngwB.s:106447  .debug_str:0000000000043f78 .LASF2647
     /tmp/cc2IngwB.s:99127  .debug_str:00000000000260d8 .LASF2648
     /tmp/cc2IngwB.s:92271  .debug_str:000000000000a977 .LASF2649
     /tmp/cc2IngwB.s:98727  .debug_str:0000000000024a0c .LASF2650
     /tmp/cc2IngwB.s:103939  .debug_str:0000000000039655 .LASF2651
     /tmp/cc2IngwB.s:102091  .debug_str:0000000000031ed4 .LASF2652
     /tmp/cc2IngwB.s:94877  .debug_str:0000000000014bd5 .LASF2653
     /tmp/cc2IngwB.s:90823  .debug_str:00000000000047bb .LASF2654
     /tmp/cc2IngwB.s:98109  .debug_str:000000000002214d .LASF2655
     /tmp/cc2IngwB.s:99551  .debug_str:0000000000027a6e .LASF2656
     /tmp/cc2IngwB.s:96971  .debug_str:000000000001d259 .LASF2657
     /tmp/cc2IngwB.s:91607  .debug_str:0000000000007c18 .LASF2658
     /tmp/cc2IngwB.s:97263  .debug_str:000000000001e5e4 .LASF2659
     /tmp/cc2IngwB.s:96747  .debug_str:000000000001c37c .LASF2660
     /tmp/cc2IngwB.s:104095  .debug_str:0000000000039e74 .LASF2661
     /tmp/cc2IngwB.s:94599  .debug_str:0000000000013a3e .LASF2662
     /tmp/cc2IngwB.s:103713  .debug_str:0000000000038aa9 .LASF2663
     /tmp/cc2IngwB.s:100729  .debug_str:000000000002c787 .LASF2664
     /tmp/cc2IngwB.s:93909  .debug_str:0000000000010cee .LASF2665
     /tmp/cc2IngwB.s:96169  .debug_str:0000000000019f43 .LASF2666
     /tmp/cc2IngwB.s:100397  .debug_str:000000000002b240 .LASF2667
     /tmp/cc2IngwB.s:106107  .debug_str:000000000004284e .LASF2668
     /tmp/cc2IngwB.s:91665  .debug_str:0000000000007ff4 .LASF2669
     /tmp/cc2IngwB.s:101097  .debug_str:000000000002dd90 .LASF2670
     /tmp/cc2IngwB.s:105831  .debug_str:00000000000410ea .LASF2671
     /tmp/cc2IngwB.s:107361  .debug_str:0000000000047a18 .LASF2672
     /tmp/cc2IngwB.s:94429  .debug_str:0000000000012e59 .LASF2673
     /tmp/cc2IngwB.s:105401  .debug_str:000000000003f576 .LASF2674
     /tmp/cc2IngwB.s:95343  .debug_str:000000000001686b .LASF2675
     /tmp/cc2IngwB.s:100693  .debug_str:000000000002c561 .LASF2676
     /tmp/cc2IngwB.s:90285  .debug_str:00000000000023fc .LASF2677
     /tmp/cc2IngwB.s:98035  .debug_str:0000000000021b83 .LASF2678
     /tmp/cc2IngwB.s:105219  .debug_str:000000000003ea8d .LASF2679
     /tmp/cc2IngwB.s:90693  .debug_str:0000000000003ea9 .LASF2680
     /tmp/cc2IngwB.s:108883  .debug_str:000000000004e067 .LASF2681
     /tmp/cc2IngwB.s:93071  .debug_str:000000000000de78 .LASF2682
     /tmp/cc2IngwB.s:104689  .debug_str:000000000003c610 .LASF2683
     /tmp/cc2IngwB.s:105133  .debug_str:000000000003e447 .LASF2684
     /tmp/cc2IngwB.s:99213  .debug_str:0000000000026588 .LASF2685
     /tmp/cc2IngwB.s:95875  .debug_str:0000000000018c10 .LASF2686
     /tmp/cc2IngwB.s:94123  .debug_str:00000000000119c6 .LASF2687
     /tmp/cc2IngwB.s:90105  .debug_str:000000000000161e .LASF2688
     /tmp/cc2IngwB.s:101375  .debug_str:000000000002f03f .LASF2689
     /tmp/cc2IngwB.s:105325  .debug_str:000000000003f193 .LASF2690
     /tmp/cc2IngwB.s:99599  .debug_str:0000000000027df8 .LASF2691
     /tmp/cc2IngwB.s:95175  .debug_str:0000000000015dff .LASF2692
     /tmp/cc2IngwB.s:95545  .debug_str:0000000000017588 .LASF2693
     /tmp/cc2IngwB.s:97093  .debug_str:000000000001d9c6 .LASF2694
     /tmp/cc2IngwB.s:92057  .debug_str:0000000000009ad3 .LASF2695
     /tmp/cc2IngwB.s:109273  .debug_str:000000000004fb9a .LASF2696
     /tmp/cc2IngwB.s:90375  .debug_str:00000000000029d1 .LASF2697
     /tmp/cc2IngwB.s:93439  .debug_str:000000000000f255 .LASF2698
     /tmp/cc2IngwB.s:101145  .debug_str:000000000002e10d .LASF2699
     /tmp/cc2IngwB.s:90377  .debug_str:0000000000002a08 .LASF2700
     /tmp/cc2IngwB.s:90025  .debug_str:00000000000010cc .LASF2701
     /tmp/cc2IngwB.s:102527  .debug_str:0000000000033be9 .LASF2702
     /tmp/cc2IngwB.s:101795  .debug_str:0000000000030b79 .LASF2703
     /tmp/cc2IngwB.s:94161  .debug_str:0000000000011c65 .LASF2704
     /tmp/cc2IngwB.s:105559  .debug_str:000000000003ffbc .LASF2705
     /tmp/cc2IngwB.s:104975  .debug_str:000000000003d8f4 .LASF2706
     /tmp/cc2IngwB.s:102211  .debug_str:00000000000325cd .LASF2707
     /tmp/cc2IngwB.s:95617  .debug_str:0000000000017b29 .LASF2708
     /tmp/cc2IngwB.s:91639  .debug_str:0000000000007e88 .LASF2709
     /tmp/cc2IngwB.s:108469  .debug_str:000000000004c46b .LASF2710
     /tmp/cc2IngwB.s:104509  .debug_str:000000000003b95d .LASF2711
     /tmp/cc2IngwB.s:109243  .debug_str:000000000004fa17 .LASF2712
     /tmp/cc2IngwB.s:90503  .debug_str:0000000000003234 .LASF2713
     /tmp/cc2IngwB.s:100409  .debug_str:000000000002b363 .LASF2714
     /tmp/cc2IngwB.s:90109  .debug_str:0000000000001673 .LASF2715
     /tmp/cc2IngwB.s:90771  .debug_str:00000000000044ac .LASF2716
     /tmp/cc2IngwB.s:91805  .debug_str:0000000000008965 .LASF2717
     /tmp/cc2IngwB.s:102255  .debug_str:00000000000328eb .LASF2718
     /tmp/cc2IngwB.s:102533  .debug_str:0000000000033c6d .LASF2719
     /tmp/cc2IngwB.s:101203  .debug_str:000000000002e4f4 .LASF2720
     /tmp/cc2IngwB.s:95927  .debug_str:0000000000018e50 .LASF2721
     /tmp/cc2IngwB.s:90475  .debug_str:00000000000030ca .LASF2722
     /tmp/cc2IngwB.s:94849  .debug_str:0000000000014a06 .LASF2723
     /tmp/cc2IngwB.s:108963  .debug_str:000000000004e703 .LASF2724
     /tmp/cc2IngwB.s:108173  .debug_str:000000000004aed3 .LASF2725
     /tmp/cc2IngwB.s:108283  .debug_str:000000000004b6e6 .LASF2726
     /tmp/cc2IngwB.s:94693  .debug_str:0000000000014075 .LASF2727
     /tmp/cc2IngwB.s:105937  .debug_str:0000000000041a12 .LASF2728
     /tmp/cc2IngwB.s:94801  .debug_str:000000000001470e .LASF2729
     /tmp/cc2IngwB.s:98081  .debug_str:0000000000021edf .LASF2730
     /tmp/cc2IngwB.s:91751  .debug_str:00000000000085d5 .LASF2731
     /tmp/cc2IngwB.s:104543  .debug_str:000000000003bc6f .LASF2732
     /tmp/cc2IngwB.s:108247  .debug_str:000000000004b4a8 .LASF2733
     /tmp/cc2IngwB.s:93749  .debug_str:0000000000010473 .LASF2734
     /tmp/cc2IngwB.s:90371  .debug_str:0000000000002971 .LASF2735
     /tmp/cc2IngwB.s:92487  .debug_str:000000000000b888 .LASF2736
     /tmp/cc2IngwB.s:99205  .debug_str:00000000000264fc .LASF2737
     /tmp/cc2IngwB.s:109301  .debug_str:000000000004fd21 .LASF2738
     /tmp/cc2IngwB.s:92849  .debug_str:000000000000d130 .LASF2739
     /tmp/cc2IngwB.s:106953  .debug_str:000000000004601a .LASF2740
     /tmp/cc2IngwB.s:92573  .debug_str:000000000000bf43 .LASF2741
     /tmp/cc2IngwB.s:109221  .debug_str:000000000004f897 .LASF2742
     /tmp/cc2IngwB.s:101173  .debug_str:000000000002e2f5 .LASF2743
     /tmp/cc2IngwB.s:90509  .debug_str:000000000000328d .LASF2744
     /tmp/cc2IngwB.s:89805  .debug_str:0000000000000232 .LASF2745
     /tmp/cc2IngwB.s:105429  .debug_str:000000000003f77d .LASF2746
     /tmp/cc2IngwB.s:99511  .debug_str:0000000000027791 .LASF2747
     /tmp/cc2IngwB.s:100503  .debug_str:000000000002b968 .LASF2748
     /tmp/cc2IngwB.s:109093  .debug_str:000000000004f044 .LASF2749
     /tmp/cc2IngwB.s:106765  .debug_str:000000000004545c .LASF2750
     /tmp/cc2IngwB.s:109059  .debug_str:000000000004ed7f .LASF2751
     /tmp/cc2IngwB.s:99697  .debug_str:0000000000028486 .LASF2752
     /tmp/cc2IngwB.s:107639  .debug_str:0000000000048cce .LASF2753
     /tmp/cc2IngwB.s:100915  .debug_str:000000000002d2fd .LASF2754
     /tmp/cc2IngwB.s:107843  .debug_str:0000000000049a58 .LASF2755
     /tmp/cc2IngwB.s:91985  .debug_str:00000000000095d9 .LASF2756
     /tmp/cc2IngwB.s:93923  .debug_str:0000000000010da2 .LASF2757
     /tmp/cc2IngwB.s:107223  .debug_str:0000000000047124 .LASF2758
     /tmp/cc2IngwB.s:95601  .debug_str:0000000000017a0a .LASF2759
     /tmp/cc2IngwB.s:109469  .debug_str:00000000000508d8 .LASF2760
     /tmp/cc2IngwB.s:101721  .debug_str:00000000000306df .LASF2761
     /tmp/cc2IngwB.s:92441  .debug_str:000000000000b53c .LASF2762
     /tmp/cc2IngwB.s:92867  .debug_str:000000000000d28c .LASF2763
     /tmp/cc2IngwB.s:106433  .debug_str:0000000000043e6b .LASF2764
     /tmp/cc2IngwB.s:97493  .debug_str:000000000001f5c4 .LASF2765
     /tmp/cc2IngwB.s:104747  .debug_str:000000000003ca94 .LASF2766
     /tmp/cc2IngwB.s:102707  .debug_str:00000000000347ea .LASF2767
     /tmp/cc2IngwB.s:94829  .debug_str:0000000000014892 .LASF2768
     /tmp/cc2IngwB.s:93587  .debug_str:000000000000fadc .LASF2769
     /tmp/cc2IngwB.s:99759  .debug_str:000000000002884d .LASF2770
     /tmp/cc2IngwB.s:104671  .debug_str:000000000003c4ba .LASF2771
     /tmp/cc2IngwB.s:90469  .debug_str:000000000000302d .LASF2772
     /tmp/cc2IngwB.s:94937  .debug_str:0000000000014f15 .LASF2773
     /tmp/cc2IngwB.s:99897  .debug_str:0000000000029250 .LASF2774
     /tmp/cc2IngwB.s:92473  .debug_str:000000000000b7b1 .LASF2775
     /tmp/cc2IngwB.s:91833  .debug_str:0000000000008b88 .LASF2776
     /tmp/cc2IngwB.s:96837  .debug_str:000000000001c944 .LASF2777
     /tmp/cc2IngwB.s:101811  .debug_str:0000000000030cdf .LASF2778
     /tmp/cc2IngwB.s:107571  .debug_str:00000000000488d2 .LASF2779
     /tmp/cc2IngwB.s:105943  .debug_str:0000000000041a79 .LASF2780
     /tmp/cc2IngwB.s:107175  .debug_str:0000000000046e4e .LASF2781
     /tmp/cc2IngwB.s:94527  .debug_str:0000000000013605 .LASF2782
     /tmp/cc2IngwB.s:95957  .debug_str:0000000000018fd6 .LASF2783
     /tmp/cc2IngwB.s:105015  .debug_str:000000000003dbad .LASF2784
     /tmp/cc2IngwB.s:94553  .debug_str:00000000000137b2 .LASF2785
     /tmp/cc2IngwB.s:103249  .debug_str:0000000000036d16 .LASF2786
     /tmp/cc2IngwB.s:106105  .debug_str:0000000000042818 .LASF2787
     /tmp/cc2IngwB.s:103215  .debug_str:0000000000036b57 .LASF2788
     /tmp/cc2IngwB.s:92755  .debug_str:000000000000cad8 .LASF2789
     /tmp/cc2IngwB.s:103323  .debug_str:000000000003722a .LASF2790
     /tmp/cc2IngwB.s:98511  .debug_str:0000000000023b8c .LASF2791
     /tmp/cc2IngwB.s:96037  .debug_str:0000000000019554 .LASF2792
     /tmp/cc2IngwB.s:102855  .debug_str:0000000000035237 .LASF2793
     /tmp/cc2IngwB.s:106655  .debug_str:0000000000044d0f .LASF2794
     /tmp/cc2IngwB.s:92863  .debug_str:000000000000d233 .LASF2795
     /tmp/cc2IngwB.s:97639  .debug_str:000000000001fff1 .LASF2796
     /tmp/cc2IngwB.s:103025  .debug_str:0000000000035e6d .LASF2797
     /tmp/cc2IngwB.s:92049  .debug_str:00000000000099c6 .LASF2798
     /tmp/cc2IngwB.s:100665  .debug_str:000000000002c35c .LASF2799
     /tmp/cc2IngwB.s:101875  .debug_str:000000000003111d .LASF2800
     /tmp/cc2IngwB.s:96137  .debug_str:0000000000019cf2 .LASF2801
     /tmp/cc2IngwB.s:91617  .debug_str:0000000000007d19 .LASF2802
     /tmp/cc2IngwB.s:100057  .debug_str:0000000000029c9b .LASF2803
     /tmp/cc2IngwB.s:103763  .debug_str:0000000000038cf1 .LASF2804
     /tmp/cc2IngwB.s:100155  .debug_str:000000000002a2f1 .LASF2805
     /tmp/cc2IngwB.s:99271  .debug_str:00000000000268ba .LASF2806
     /tmp/cc2IngwB.s:105357  .debug_str:000000000003f3b2 .LASF2807
     /tmp/cc2IngwB.s:103265  .debug_str:0000000000036e0d .LASF2808
     /tmp/cc2IngwB.s:103075  .debug_str:0000000000036191 .LASF2809
     /tmp/cc2IngwB.s:92977  .debug_str:000000000000d975 .LASF2810
     /tmp/cc2IngwB.s:105053  .debug_str:000000000003de5f .LASF2811
     /tmp/cc2IngwB.s:105251  .debug_str:000000000003ec99 .LASF2812
     /tmp/cc2IngwB.s:97195  .debug_str:000000000001e174 .LASF2813
     /tmp/cc2IngwB.s:97927  .debug_str:0000000000021405 .LASF2814
     /tmp/cc2IngwB.s:99521  .debug_str:0000000000027878 .LASF2815
     /tmp/cc2IngwB.s:108453  .debug_str:000000000004c330 .LASF2816
     /tmp/cc2IngwB.s:102791  .debug_str:0000000000034c94 .LASF2817
     /tmp/cc2IngwB.s:108403  .debug_str:000000000004bfed .LASF2818
     /tmp/cc2IngwB.s:97849  .debug_str:0000000000020f7f .LASF2819
     /tmp/cc2IngwB.s:93675  .debug_str:000000000001010a .LASF2820
     /tmp/cc2IngwB.s:94435  .debug_str:0000000000012ebf .LASF2821
     /tmp/cc2IngwB.s:101123  .debug_str:000000000002dfd4 .LASF2822
     /tmp/cc2IngwB.s:97395  .debug_str:000000000001eec0 .LASF2823
     /tmp/cc2IngwB.s:105105  .debug_str:000000000003e245 .LASF2824
     /tmp/cc2IngwB.s:97473  .debug_str:000000000001f3a5 .LASF2825
     /tmp/cc2IngwB.s:95829  .debug_str:000000000001894b .LASF2826
     /tmp/cc2IngwB.s:105603  .debug_str:00000000000402a4 .LASF2827
     /tmp/cc2IngwB.s:109343  .debug_str:0000000000050004 .LASF2828
     /tmp/cc2IngwB.s:98365  .debug_str:0000000000023162 .LASF2829
     /tmp/cc2IngwB.s:100505  .debug_str:000000000002b9a1 .LASF2830
     /tmp/cc2IngwB.s:97003  .debug_str:000000000001d3f6 .LASF2831
     /tmp/cc2IngwB.s:91409  .debug_str:0000000000006f5d .LASF2832
     /tmp/cc2IngwB.s:102837  .debug_str:0000000000035083 .LASF2833
     /tmp/cc2IngwB.s:108921  .debug_str:000000000004e369 .LASF2834
     /tmp/cc2IngwB.s:101991  .debug_str:0000000000031818 .LASF2835
     /tmp/cc2IngwB.s:100047  .debug_str:0000000000029bdd .LASF2836
     /tmp/cc2IngwB.s:93629  .debug_str:000000000000fe73 .LASF2837
     /tmp/cc2IngwB.s:96903  .debug_str:000000000001cded .LASF2838
     /tmp/cc2IngwB.s:103317  .debug_str:00000000000371b3 .LASF2839
     /tmp/cc2IngwB.s:108675  .debug_str:000000000004d23a .LASF2840
     /tmp/cc2IngwB.s:94021  .debug_str:00000000000113cc .LASF2841
     /tmp/cc2IngwB.s:101823  .debug_str:0000000000030dda .LASF2842
     /tmp/cc2IngwB.s:102463  .debug_str:000000000003374f .LASF2843
     /tmp/cc2IngwB.s:98883  .debug_str:0000000000025335 .LASF2844
     /tmp/cc2IngwB.s:90459  .debug_str:0000000000002f56 .LASF2845
     /tmp/cc2IngwB.s:105897  .debug_str:00000000000416e0 .LASF2846
     /tmp/cc2IngwB.s:108941  .debug_str:000000000004e512 .LASF2847
     /tmp/cc2IngwB.s:90099  .debug_str:00000000000015af .LASF2848
     /tmp/cc2IngwB.s:99769  .debug_str:00000000000288fd .LASF2849
     /tmp/cc2IngwB.s:96467  .debug_str:000000000001b286 .LASF2850
     /tmp/cc2IngwB.s:95017  .debug_str:00000000000153ad .LASF2851
     /tmp/cc2IngwB.s:101119  .debug_str:000000000002df53 .LASF2852
     /tmp/cc2IngwB.s:104313  .debug_str:000000000003abfc .LASF2853
     /tmp/cc2IngwB.s:103453  .debug_str:0000000000037a75 .LASF2854
     /tmp/cc2IngwB.s:102369  .debug_str:0000000000033162 .LASF2855
     /tmp/cc2IngwB.s:92495  .debug_str:000000000000b972 .LASF2856
     /tmp/cc2IngwB.s:91611  .debug_str:0000000000007c99 .LASF2857
     /tmp/cc2IngwB.s:97689  .debug_str:0000000000020448 .LASF2858
     /tmp/cc2IngwB.s:99619  .debug_str:0000000000027f81 .LASF2859
     /tmp/cc2IngwB.s:92661  .debug_str:000000000000c4b7 .LASF2860
     /tmp/cc2IngwB.s:100049  .debug_str:0000000000029c18 .LASF2861
     /tmp/cc2IngwB.s:107667  .debug_str:0000000000048ed8 .LASF2862
     /tmp/cc2IngwB.s:94443  .debug_str:0000000000012f5a .LASF2863
     /tmp/cc2IngwB.s:98581  .debug_str:0000000000024022 .LASF2864
     /tmp/cc2IngwB.s:105717  .debug_str:0000000000040989 .LASF2865
     /tmp/cc2IngwB.s:93453  .debug_str:000000000000f36b .LASF2866
     /tmp/cc2IngwB.s:101075  .debug_str:000000000002dc21 .LASF2867
     /tmp/cc2IngwB.s:108383  .debug_str:000000000004be99 .LASF2868
     /tmp/cc2IngwB.s:91545  .debug_str:00000000000078ba .LASF2869
     /tmp/cc2IngwB.s:105405  .debug_str:000000000003f5e2 .LASF2870
     /tmp/cc2IngwB.s:108873  .debug_str:000000000004df88 .LASF2871
     /tmp/cc2IngwB.s:89973  .debug_str:0000000000000d08 .LASF2872
     /tmp/cc2IngwB.s:101349  .debug_str:000000000002eec0 .LASF2873
     /tmp/cc2IngwB.s:90589  .debug_str:000000000000377b .LASF2874
     /tmp/cc2IngwB.s:93523  .debug_str:000000000000f799 .LASF2875
     /tmp/cc2IngwB.s:104033  .debug_str:0000000000039b71 .LASF2876
     /tmp/cc2IngwB.s:105829  .debug_str:00000000000410a2 .LASF2877
     /tmp/cc2IngwB.s:97459  .debug_str:000000000001f2b6 .LASF2878
     /tmp/cc2IngwB.s:92011  .debug_str:0000000000009750 .LASF2879
     /tmp/cc2IngwB.s:92681  .debug_str:000000000000c5d7 .LASF2880
     /tmp/cc2IngwB.s:99129  .debug_str:000000000002611b .LASF2881
     /tmp/cc2IngwB.s:92577  .debug_str:000000000000bf9c .LASF2882
     /tmp/cc2IngwB.s:108745  .debug_str:000000000004d74c .LASF2883
     /tmp/cc2IngwB.s:105501  .debug_str:000000000003fc16 .LASF2884
     /tmp/cc2IngwB.s:107991  .debug_str:000000000004a3c3 .LASF2885
     /tmp/cc2IngwB.s:103429  .debug_str:00000000000378fe .LASF2886
     /tmp/cc2IngwB.s:89857  .debug_str:00000000000005b6 .LASF2887
     /tmp/cc2IngwB.s:95633  .debug_str:0000000000017c95 .LASF2888
     /tmp/cc2IngwB.s:101419  .debug_str:000000000002f35c .LASF2889
     /tmp/cc2IngwB.s:107393  .debug_str:0000000000047c47 .LASF2890
     /tmp/cc2IngwB.s:104721  .debug_str:000000000003c868 .LASF2891
     /tmp/cc2IngwB.s:105883  .debug_str:00000000000415dc .LASF2892
     /tmp/cc2IngwB.s:103117  .debug_str:00000000000364f9 .LASF2893
     /tmp/cc2IngwB.s:92493  .debug_str:000000000000b92c .LASF2894
     /tmp/cc2IngwB.s:93621  .debug_str:000000000000fdf7 .LASF2895
     /tmp/cc2IngwB.s:95799  .debug_str:0000000000018747 .LASF2896
     /tmp/cc2IngwB.s:99531  .debug_str:000000000002795f .LASF2897
     /tmp/cc2IngwB.s:90207  .debug_str:0000000000001ebe .LASF2898
     /tmp/cc2IngwB.s:108413  .debug_str:000000000004c0a3 .LASF2899
     /tmp/cc2IngwB.s:100903  .debug_str:000000000002d24e .LASF2900
     /tmp/cc2IngwB.s:95535  .debug_str:0000000000017513 .LASF2901
     /tmp/cc2IngwB.s:91525  .debug_str:00000000000076ca .LASF2902
     /tmp/cc2IngwB.s:94463  .debug_str:0000000000013106 .LASF2903
     /tmp/cc2IngwB.s:99963  .debug_str:0000000000029731 .LASF2904
     /tmp/cc2IngwB.s:99379  .debug_str:0000000000026fca .LASF2905
     /tmp/cc2IngwB.s:107235  .debug_str:0000000000047223 .LASF2906
     /tmp/cc2IngwB.s:97425  .debug_str:000000000001f044 .LASF2907
     /tmp/cc2IngwB.s:93753  .debug_str:00000000000104d3 .LASF2908
     /tmp/cc2IngwB.s:102715  .debug_str:0000000000034852 .LASF2909
     /tmp/cc2IngwB.s:106253  .debug_str:0000000000043301 .LASF2910
     /tmp/cc2IngwB.s:104637  .debug_str:000000000003c23f .LASF2911
     /tmp/cc2IngwB.s:91467  .debug_str:000000000000739a .LASF2912
     /tmp/cc2IngwB.s:106665  .debug_str:0000000000044db7 .LASF2913
     /tmp/cc2IngwB.s:101477  .debug_str:000000000002f706 .LASF2914
     /tmp/cc2IngwB.s:101217  .debug_str:000000000002e5d9 .LASF2915
     /tmp/cc2IngwB.s:103069  .debug_str:00000000000360ed .LASF2916
     /tmp/cc2IngwB.s:91967  .debug_str:0000000000009479 .LASF2917
     /tmp/cc2IngwB.s:108481  .debug_str:000000000004c521 .LASF2918
     /tmp/cc2IngwB.s:98315  .debug_str:0000000000022dfc .LASF2919
     /tmp/cc2IngwB.s:95805  .debug_str:00000000000187cc .LASF2920
     /tmp/cc2IngwB.s:107129  .debug_str:0000000000046bb5 .LASF2921
     /tmp/cc2IngwB.s:98357  .debug_str:00000000000230be .LASF2922
     /tmp/cc2IngwB.s:92725  .debug_str:000000000000c8f2 .LASF2923
     /tmp/cc2IngwB.s:90445  .debug_str:0000000000002e4f .LASF2924
     /tmp/cc2IngwB.s:92329  .debug_str:000000000000ad2d .LASF2925
     /tmp/cc2IngwB.s:94135  .debug_str:0000000000011ac6 .LASF2926
     /tmp/cc2IngwB.s:99403  .debug_str:00000000000271b9 .LASF2927
     /tmp/cc2IngwB.s:98711  .debug_str:00000000000248bc .LASF2928
     /tmp/cc2IngwB.s:94339  .debug_str:0000000000012874 .LASF2929
     /tmp/cc2IngwB.s:102375  .debug_str:00000000000331c7 .LASF2930
     /tmp/cc2IngwB.s:99603  .debug_str:0000000000027e3e .LASF2931
     /tmp/cc2IngwB.s:98445  .debug_str:0000000000023686 .LASF2932
     /tmp/cc2IngwB.s:95641  .debug_str:0000000000017d15 .LASF2933
     /tmp/cc2IngwB.s:98281  .debug_str:0000000000022ba3 .LASF2934
     /tmp/cc2IngwB.s:101027  .debug_str:000000000002d92b .LASF2935
     /tmp/cc2IngwB.s:92603  .debug_str:000000000000c12a .LASF2936
     /tmp/cc2IngwB.s:96693  .debug_str:000000000001c014 .LASF2937
     /tmp/cc2IngwB.s:94709  .debug_str:0000000000014144 .LASF2938
     /tmp/cc2IngwB.s:95817  .debug_str:00000000000188a3 .LASF2939
     /tmp/cc2IngwB.s:96795  .debug_str:000000000001c6a7 .LASF2940
     /tmp/cc2IngwB.s:91155  .debug_str:0000000000005dd1 .LASF2941
     /tmp/cc2IngwB.s:101741  .debug_str:000000000003084a .LASF2942
     /tmp/cc2IngwB.s:94621  .debug_str:0000000000013bcb .LASF2943
     /tmp/cc2IngwB.s:107703  .debug_str:000000000004913b .LASF2944
     /tmp/cc2IngwB.s:103661  .debug_str:00000000000386f0 .LASF2945
     /tmp/cc2IngwB.s:94219  .debug_str:0000000000012070 .LASF2946
     /tmp/cc2IngwB.s:95737  .debug_str:0000000000018343 .LASF2947
     /tmp/cc2IngwB.s:90143  .debug_str:00000000000019e4 .LASF2948
     /tmp/cc2IngwB.s:92015  .debug_str:00000000000097b4 .LASF2949
     /tmp/cc2IngwB.s:97365  .debug_str:000000000001ed22 .LASF2950
     /tmp/cc2IngwB.s:105247  .debug_str:000000000003ec51 .LASF2951
     /tmp/cc2IngwB.s:97801  .debug_str:0000000000020cac .LASF2952
     /tmp/cc2IngwB.s:98355  .debug_str:000000000002308d .LASF2953
     /tmp/cc2IngwB.s:105083  .debug_str:000000000003e05e .LASF2954
     /tmp/cc2IngwB.s:102179  .debug_str:00000000000323b6 .LASF2955
     /tmp/cc2IngwB.s:107143  .debug_str:0000000000046cc2 .LASF2956
     /tmp/cc2IngwB.s:107817  .debug_str:000000000004984c .LASF2957
     /tmp/cc2IngwB.s:91039  .debug_str:000000000000561c .LASF2958
     /tmp/cc2IngwB.s:99441  .debug_str:00000000000273f8 .LASF2959
     /tmp/cc2IngwB.s:104539  .debug_str:000000000003bc16 .LASF2960
     /tmp/cc2IngwB.s:92761  .debug_str:000000000000cb5d .LASF2961
     /tmp/cc2IngwB.s:92345  .debug_str:000000000000ade9 .LASF2962
     /tmp/cc2IngwB.s:104649  .debug_str:000000000003c31c .LASF2963
     /tmp/cc2IngwB.s:105185  .debug_str:000000000003e80e .LASF2964
     /tmp/cc2IngwB.s:90739  .debug_str:0000000000004227 .LASF2965
     /tmp/cc2IngwB.s:103851  .debug_str:00000000000391d9 .LASF2966
     /tmp/cc2IngwB.s:97719  .debug_str:000000000002063e .LASF2967
     /tmp/cc2IngwB.s:94559  .debug_str:000000000001380b .LASF2968
     /tmp/cc2IngwB.s:97713  .debug_str:00000000000205dd .LASF2969
     /tmp/cc2IngwB.s:105137  .debug_str:000000000003e4bb .LASF2970
     /tmp/cc2IngwB.s:96603  .debug_str:000000000001ba8e .LASF2971
     /tmp/cc2IngwB.s:98723  .debug_str:00000000000249b0 .LASF2972
     /tmp/cc2IngwB.s:101177  .debug_str:000000000002e344 .LASF2973
     /tmp/cc2IngwB.s:105189  .debug_str:000000000003e878 .LASF2974
     /tmp/cc2IngwB.s:91255  .debug_str:000000000000642c .LASF2975
     /tmp/cc2IngwB.s:98425  .debug_str:000000000002350a .LASF2976
     /tmp/cc2IngwB.s:103051  .debug_str:0000000000035ff0 .LASF2977
     /tmp/cc2IngwB.s:108201  .debug_str:000000000004b11a .LASF2978
     /tmp/cc2IngwB.s:91371  .debug_str:0000000000006be9 .LASF2979
     /tmp/cc2IngwB.s:92317  .debug_str:000000000000ac27 .LASF2980
     /tmp/cc2IngwB.s:108517  .debug_str:000000000004c795 .LASF2981
     /tmp/cc2IngwB.s:99351  .debug_str:0000000000026e61 .LASF2982
     /tmp/cc2IngwB.s:94863  .debug_str:0000000000014af8 .LASF2983
     /tmp/cc2IngwB.s:96489  .debug_str:000000000001b3e0 .LASF2984
     /tmp/cc2IngwB.s:106987  .debug_str:0000000000046292 .LASF2985
     /tmp/cc2IngwB.s:101527  .debug_str:000000000002fadd .LASF2986
     /tmp/cc2IngwB.s:102865  .debug_str:00000000000352e9 .LASF2987
     /tmp/cc2IngwB.s:108547  .debug_str:000000000004c980 .LASF2988
     /tmp/cc2IngwB.s:97989  .debug_str:0000000000021804 .LASF2989
     /tmp/cc2IngwB.s:104553  .debug_str:000000000003bd1a .LASF2990
     /tmp/cc2IngwB.s:102187  .debug_str:0000000000032438 .LASF2991
     /tmp/cc2IngwB.s:104945  .debug_str:000000000003d717 .LASF2992
     /tmp/cc2IngwB.s:106115  .debug_str:000000000004291a .LASF2993
     /tmp/cc2IngwB.s:101863  .debug_str:000000000003103e .LASF2994
     /tmp/cc2IngwB.s:95375  .debug_str:0000000000016a3b .LASF2995
     /tmp/cc2IngwB.s:97165  .debug_str:000000000001df5d .LASF2996
     /tmp/cc2IngwB.s:100343  .debug_str:000000000002aefd .LASF2997
     /tmp/cc2IngwB.s:106491  .debug_str:00000000000442ab .LASF2998
     /tmp/cc2IngwB.s:97939  .debug_str:00000000000214da .LASF2999
     /tmp/cc2IngwB.s:96363  .debug_str:000000000001ab4d .LASF3000
     /tmp/cc2IngwB.s:96579  .debug_str:000000000001b95d .LASF3001
     /tmp/cc2IngwB.s:96163  .debug_str:0000000000019eac .LASF3002
     /tmp/cc2IngwB.s:103015  .debug_str:0000000000035d4d .LASF3003
     /tmp/cc2IngwB.s:94413  .debug_str:0000000000012d5c .LASF3004
     /tmp/cc2IngwB.s:100273  .debug_str:000000000002ab0b .LASF3005
     /tmp/cc2IngwB.s:101801  .debug_str:0000000000030be7 .LASF3006
     /tmp/cc2IngwB.s:91429  .debug_str:00000000000070df .LASF3007
     /tmp/cc2IngwB.s:96593  .debug_str:000000000001b9e7 .LASF3008
     /tmp/cc2IngwB.s:106451  .debug_str:0000000000043fe2 .LASF3009
     /tmp/cc2IngwB.s:94481  .debug_str:0000000000013223 .LASF3010
     /tmp/cc2IngwB.s:90851  .debug_str:0000000000004a15 .LASF3011
     /tmp/cc2IngwB.s:109037  .debug_str:000000000004ebe1 .LASF3012
     /tmp/cc2IngwB.s:94031  .debug_str:00000000000114af .LASF3013
     /tmp/cc2IngwB.s:91287  .debug_str:0000000000006654 .LASF3014
     /tmp/cc2IngwB.s:104915  .debug_str:000000000003d511 .LASF3015
     /tmp/cc2IngwB.s:103109  .debug_str:0000000000036466 .LASF3016
     /tmp/cc2IngwB.s:106225  .debug_str:00000000000430fa .LASF3017
     /tmp/cc2IngwB.s:98599  .debug_str:0000000000024129 .LASF3018
     /tmp/cc2IngwB.s:97025  .debug_str:000000000001d562 .LASF3019
     /tmp/cc2IngwB.s:95551  .debug_str:00000000000175e7 .LASF3020
     /tmp/cc2IngwB.s:107489  .debug_str:00000000000482b2 .LASF3021
     /tmp/cc2IngwB.s:106367  .debug_str:0000000000043a00 .LASF3022
     /tmp/cc2IngwB.s:103267  .debug_str:0000000000036e4e .LASF3023
     /tmp/cc2IngwB.s:90229  .debug_str:0000000000002010 .LASF3024
     /tmp/cc2IngwB.s:104535  .debug_str:000000000003bb95 .LASF3025
     /tmp/cc2IngwB.s:103049  .debug_str:0000000000035fb8 .LASF3026
     /tmp/cc2IngwB.s:94765  .debug_str:00000000000144c4 .LASF3027
     /tmp/cc2IngwB.s:92181  .debug_str:000000000000a345 .LASF3028
     /tmp/cc2IngwB.s:105309  .debug_str:000000000003f069 .LASF3029
     /tmp/cc2IngwB.s:103151  .debug_str:00000000000366e7 .LASF3030
     /tmp/cc2IngwB.s:90727  .debug_str:0000000000004136 .LASF3031
     /tmp/cc2IngwB.s:102085  .debug_str:0000000000031e54 .LASF3032
     /tmp/cc2IngwB.s:104531  .debug_str:000000000003bb1c .LASF3033
     /tmp/cc2IngwB.s:95167  .debug_str:0000000000015d5d .LASF3034
     /tmp/cc2IngwB.s:108919  .debug_str:000000000004e328 .LASF3035
     /tmp/cc2IngwB.s:96683  .debug_str:000000000001bf9d .LASF3036
     /tmp/cc2IngwB.s:108693  .debug_str:000000000004d33b .LASF3037
     /tmp/cc2IngwB.s:109111  .debug_str:000000000004f185 .LASF3038
     /tmp/cc2IngwB.s:100879  .debug_str:000000000002d088 .LASF3039
     /tmp/cc2IngwB.s:93791  .debug_str:000000000001072c .LASF3040
     /tmp/cc2IngwB.s:103615  .debug_str:000000000003845f .LASF3041
     /tmp/cc2IngwB.s:95047  .debug_str:00000000000155f4 .LASF3042
     /tmp/cc2IngwB.s:103017  .debug_str:0000000000035d87 .LASF3043
     /tmp/cc2IngwB.s:105441  .debug_str:000000000003f83d .LASF3044
     /tmp/cc2IngwB.s:105099  .debug_str:000000000003e18f .LASF3045
     /tmp/cc2IngwB.s:106531  .debug_str:000000000004451f .LASF3046
     /tmp/cc2IngwB.s:96735  .debug_str:000000000001c2ab .LASF3047
     /tmp/cc2IngwB.s:91131  .debug_str:0000000000005c56 .LASF3048
     /tmp/cc2IngwB.s:107263  .debug_str:000000000004737f .LASF3049
     /tmp/cc2IngwB.s:103313  .debug_str:000000000003714f .LASF3050
     /tmp/cc2IngwB.s:90041  .debug_str:00000000000011fd .LASF3051
     /tmp/cc2IngwB.s:98291  .debug_str:0000000000022c76 .LASF3052
     /tmp/cc2IngwB.s:102881  .debug_str:00000000000353a5 .LASF3053
     /tmp/cc2IngwB.s:92511  .debug_str:000000000000ba62 .LASF3054
     /tmp/cc2IngwB.s:90697  .debug_str:0000000000003f0a .LASF3055
     /tmp/cc2IngwB.s:107331  .debug_str:00000000000478a5 .LASF3056
     /tmp/cc2IngwB.s:106385  .debug_str:0000000000043b17 .LASF3057
     /tmp/cc2IngwB.s:102581  .debug_str:0000000000033fa8 .LASF3058
     /tmp/cc2IngwB.s:90257  .debug_str:00000000000021e2 .LASF3059
     /tmp/cc2IngwB.s:97681  .debug_str:00000000000203a1 .LASF3060
     /tmp/cc2IngwB.s:100175  .debug_str:000000000002a447 .LASF3061
     /tmp/cc2IngwB.s:93657  .debug_str:000000000000ff9d .LASF3062
     /tmp/cc2IngwB.s:99969  .debug_str:000000000002979d .LASF3063
     /tmp/cc2IngwB.s:91579  .debug_str:0000000000007aab .LASF3064
     /tmp/cc2IngwB.s:105617  .debug_str:0000000000040366 .LASF3065
     /tmp/cc2IngwB.s:103761  .debug_str:0000000000038cb4 .LASF3066
     /tmp/cc2IngwB.s:105999  .debug_str:0000000000041ee5 .LASF3067
     /tmp/cc2IngwB.s:104727  .debug_str:000000000003c916 .LASF3068
     /tmp/cc2IngwB.s:91399  .debug_str:0000000000006e48 .LASF3069
     /tmp/cc2IngwB.s:100129  .debug_str:000000000002a12f .LASF3070
     /tmp/cc2IngwB.s:96875  .debug_str:000000000001cc0a .LASF3071
     /tmp/cc2IngwB.s:107329  .debug_str:000000000004786b .LASF3072
     /tmp/cc2IngwB.s:101171  .debug_str:000000000002e2b3 .LASF3073
     /tmp/cc2IngwB.s:103707  .debug_str:0000000000038a45 .LASF3074
     /tmp/cc2IngwB.s:107647  .debug_str:0000000000048d4a .LASF3075
     /tmp/cc2IngwB.s:103523  .debug_str:0000000000037ef7 .LASF3076
     /tmp/cc2IngwB.s:90251  .debug_str:0000000000002172 .LASF3077
     /tmp/cc2IngwB.s:107191  .debug_str:0000000000046f56 .LASF3078
     /tmp/cc2IngwB.s:100877  .debug_str:000000000002d04d .LASF3079
     /tmp/cc2IngwB.s:97755  .debug_str:00000000000208f1 .LASF3080
     /tmp/cc2IngwB.s:91733  .debug_str:00000000000084a0 .LASF3081
     /tmp/cc2IngwB.s:106311  .debug_str:00000000000435ec .LASF3082
     /tmp/cc2IngwB.s:101673  .debug_str:000000000003044b .LASF3083
     /tmp/cc2IngwB.s:97387  .debug_str:000000000001ee32 .LASF3084
     /tmp/cc2IngwB.s:104545  .debug_str:000000000003bcaf .LASF3085
     /tmp/cc2IngwB.s:94795  .debug_str:0000000000014685 .LASF3086
     /tmp/cc2IngwB.s:95999  .debug_str:00000000000192f9 .LASF3087
     /tmp/cc2IngwB.s:91815  .debug_str:0000000000008a62 .LASF3088
     /tmp/cc2IngwB.s:107973  .debug_str:000000000004a27f .LASF3089
     /tmp/cc2IngwB.s:96145  .debug_str:0000000000019d76 .LASF3090
     /tmp/cc2IngwB.s:108479  .debug_str:000000000004c4e9 .LASF3091
     /tmp/cc2IngwB.s:106707  .debug_str:0000000000045065 .LASF3092
     /tmp/cc2IngwB.s:107429  .debug_str:0000000000047f21 .LASF3093
     /tmp/cc2IngwB.s:95247  .debug_str:0000000000016281 .LASF3094
     /tmp/cc2IngwB.s:93941  .debug_str:0000000000010ecd .LASF3095
     /tmp/cc2IngwB.s:92817  .debug_str:000000000000cfad .LASF3096
     /tmp/cc2IngwB.s:102061  .debug_str:0000000000031cbd .LASF3097
     /tmp/cc2IngwB.s:89905  .debug_str:00000000000008d5 .LASF3098
     /tmp/cc2IngwB.s:99671  .debug_str:00000000000282da .LASF3099
     /tmp/cc2IngwB.s:109223  .debug_str:000000000004f8d0 .LASF3100
     /tmp/cc2IngwB.s:101937  .debug_str:00000000000314bb .LASF3101
     /tmp/cc2IngwB.s:99189  .debug_str:000000000002637b .LASF3102
     /tmp/cc2IngwB.s:101605  .debug_str:000000000002fff5 .LASF3103
     /tmp/cc2IngwB.s:106635  .debug_str:0000000000044bd1 .LASF3104
     /tmp/cc2IngwB.s:96461  .debug_str:000000000001b1e5 .LASF3105
     /tmp/cc2IngwB.s:98197  .debug_str:000000000002262a .LASF3106
     /tmp/cc2IngwB.s:107439  .debug_str:0000000000047f94 .LASF3107
     /tmp/cc2IngwB.s:101539  .debug_str:000000000002fbe2 .LASF3108
     /tmp/cc2IngwB.s:109333  .debug_str:000000000004ff33 .LASF3109
     /tmp/cc2IngwB.s:109477  .debug_str:0000000000050959 .LASF3110
     /tmp/cc2IngwB.s:99191  .debug_str:00000000000263b9 .LASF3111
     /tmp/cc2IngwB.s:95065  .debug_str:00000000000156fa .LASF3112
     /tmp/cc2IngwB.s:96825  .debug_str:000000000001c899 .LASF3113
     /tmp/cc2IngwB.s:109195  .debug_str:000000000004f69c .LASF3114
     /tmp/cc2IngwB.s:106077  .debug_str:00000000000423be .LASF3115
     /tmp/cc2IngwB.s:94499  .debug_str:000000000001333f .LASF3116
     /tmp/cc2IngwB.s:93969  .debug_str:0000000000011109 .LASF3117
     /tmp/cc2IngwB.s:104255  .debug_str:000000000003a7d6 .LASF3118
     /tmp/cc2IngwB.s:108721  .debug_str:000000000004d54f .LASF3119
     /tmp/cc2IngwB.s:102601  .debug_str:0000000000034106 .LASF3120
     /tmp/cc2IngwB.s:103977  .debug_str:00000000000398ad .LASF3121
     /tmp/cc2IngwB.s:103749  .debug_str:0000000000038be6 .LASF3122
     /tmp/cc2IngwB.s:90279  .debug_str:00000000000023a0 .LASF3123
     /tmp/cc2IngwB.s:107301  .debug_str:0000000000047670 .LASF3124
     /tmp/cc2IngwB.s:100199  .debug_str:000000000002a601 .LASF3125
     /tmp/cc2IngwB.s:97295  .debug_str:000000000001e847 .LASF3126
     /tmp/cc2IngwB.s:105861  .debug_str:000000000004131a .LASF3127
     /tmp/cc2IngwB.s:95731  .debug_str:00000000000182d1 .LASF3128
     /tmp/cc2IngwB.s:89981  .debug_str:0000000000000d99 .LASF3129
     /tmp/cc2IngwB.s:106047  .debug_str:0000000000042203 .LASF3130
     /tmp/cc2IngwB.s:93615  .debug_str:000000000000fd46 .LASF3131
     /tmp/cc2IngwB.s:91145  .debug_str:0000000000005d1d .LASF3132
     /tmp/cc2IngwB.s:94065  .debug_str:00000000000116e4 .LASF3133
     /tmp/cc2IngwB.s:92415  .debug_str:000000000000b363 .LASF3134
     /tmp/cc2IngwB.s:107925  .debug_str:0000000000049f85 .LASF3135
     /tmp/cc2IngwB.s:104143  .debug_str:000000000003a1af .LASF3136
     /tmp/cc2IngwB.s:91061  .debug_str:000000000000577f .LASF3137
     /tmp/cc2IngwB.s:92971  .debug_str:000000000000d8eb .LASF3138
     /tmp/cc2IngwB.s:104603  .debug_str:000000000003c010 .LASF3139
     /tmp/cc2IngwB.s:102693  .debug_str:00000000000346de .LASF3140
     /tmp/cc2IngwB.s:108451  .debug_str:000000000004c2ed .LASF3141
     /tmp/cc2IngwB.s:107805  .debug_str:0000000000049785 .LASF3142
     /tmp/cc2IngwB.s:98957  .debug_str:00000000000257c6 .LASF3143
     /tmp/cc2IngwB.s:98855  .debug_str:000000000002522c .LASF3144
     /tmp/cc2IngwB.s:90061  .debug_str:0000000000001333 .LASF3145
     /tmp/cc2IngwB.s:101239  .debug_str:000000000002e75f .LASF3146
     /tmp/cc2IngwB.s:108859  .debug_str:000000000004dea0 .LASF3147
     /tmp/cc2IngwB.s:92055  .debug_str:0000000000009a9b .LASF3148
     /tmp/cc2IngwB.s:105653  .debug_str:0000000000040583 .LASF3149
     /tmp/cc2IngwB.s:100495  .debug_str:000000000002b84b .LASF3150
     /tmp/cc2IngwB.s:99807  .debug_str:0000000000028be5 .LASF3151
     /tmp/cc2IngwB.s:94169  .debug_str:0000000000011d08 .LASF3152
     /tmp/cc2IngwB.s:108341  .debug_str:000000000004bb78 .LASF3153
     /tmp/cc2IngwB.s:104705  .debug_str:000000000003c74a .LASF3154
     /tmp/cc2IngwB.s:105995  .debug_str:0000000000041e9d .LASF3155
     /tmp/cc2IngwB.s:93217  .debug_str:000000000000e6f1 .LASF3156
     /tmp/cc2IngwB.s:96703  .debug_str:000000000001c0b4 .LASF3157
     /tmp/cc2IngwB.s:107319  .debug_str:000000000004779b .LASF3158
     /tmp/cc2IngwB.s:89881  .debug_str:000000000000073c .LASF3159
     /tmp/cc2IngwB.s:103087  .debug_str:000000000003628a .LASF3160
     /tmp/cc2IngwB.s:98011  .debug_str:00000000000219b4 .LASF3161
     /tmp/cc2IngwB.s:100043  .debug_str:0000000000029b7b .LASF3162
     /tmp/cc2IngwB.s:98285  .debug_str:0000000000022bfb .LASF3163
     /tmp/cc2IngwB.s:95975  .debug_str:0000000000019144 .LASF3164
     /tmp/cc2IngwB.s:90583  .debug_str:00000000000036e6 .LASF3165
     /tmp/cc2IngwB.s:105443  .debug_str:000000000003f87d .LASF3166
     /tmp/cc2IngwB.s:98881  .debug_str:00000000000252ed .LASF3167
     /tmp/cc2IngwB.s:96243  .debug_str:000000000001a401 .LASF3168
     /tmp/cc2IngwB.s:106169  .debug_str:0000000000042cb5 .LASF3169
     /tmp/cc2IngwB.s:99073  .debug_str:0000000000025d5d .LASF3170
     /tmp/cc2IngwB.s:97953  .debug_str:00000000000215d1 .LASF3171
     /tmp/cc2IngwB.s:109463  .debug_str:0000000000050845 .LASF3172
     /tmp/cc2IngwB.s:90033  .debug_str:0000000000001166 .LASF3173
     /tmp/cc2IngwB.s:107125  .debug_str:0000000000046b41 .LASF3174
     /tmp/cc2IngwB.s:99835  .debug_str:0000000000028e22 .LASF3175
     /tmp/cc2IngwB.s:105149  .debug_str:000000000003e5ca .LASF3176
     /tmp/cc2IngwB.s:99791  .debug_str:0000000000028abb .LASF3177
     /tmp/cc2IngwB.s:105257  .debug_str:000000000003ecf1 .LASF3178
     /tmp/cc2IngwB.s:107875  .debug_str:0000000000049c6a .LASF3179
     /tmp/cc2IngwB.s:95407  .debug_str:0000000000016c9f .LASF3180
     /tmp/cc2IngwB.s:97841  .debug_str:0000000000020eec .LASF3181
     /tmp/cc2IngwB.s:109291  .debug_str:000000000004fcb2 .LASF3182
     /tmp/cc2IngwB.s:107411  .debug_str:0000000000047db1 .LASF3183
     /tmp/cc2IngwB.s:101949  .debug_str:000000000003155e .LASF3184
     /tmp/cc2IngwB.s:101953  .debug_str:00000000000315b1 .LASF3185
     /tmp/cc2IngwB.s:98641  .debug_str:00000000000243be .LASF3186
     /tmp/cc2IngwB.s:106003  .debug_str:0000000000041f42 .LASF3187
     /tmp/cc2IngwB.s:91343  .debug_str:00000000000069f3 .LASF3188
     /tmp/cc2IngwB.s:95043  .debug_str:0000000000015584 .LASF3189
     /tmp/cc2IngwB.s:91841  .debug_str:0000000000008c07 .LASF3190
     /tmp/cc2IngwB.s:101039  .debug_str:000000000002d9d9 .LASF3191
     /tmp/cc2IngwB.s:107085  .debug_str:00000000000468a0 .LASF3192
     /tmp/cc2IngwB.s:105801  .debug_str:0000000000040eb1 .LASF3193
     /tmp/cc2IngwB.s:89899  .debug_str:0000000000000848 .LASF3194
     /tmp/cc2IngwB.s:102263  .debug_str:0000000000032990 .LASF3195
     /tmp/cc2IngwB.s:91845  .debug_str:0000000000008c50 .LASF3196
     /tmp/cc2IngwB.s:100735  .debug_str:000000000002c7eb .LASF3197
     /tmp/cc2IngwB.s:101785  .debug_str:0000000000030ad8 .LASF3198
     /tmp/cc2IngwB.s:105431  .debug_str:000000000003f7b6 .LASF3199
     /tmp/cc2IngwB.s:103717  .debug_str:0000000000038afb .LASF3200
     /tmp/cc2IngwB.s:90511  .debug_str:00000000000032c6 .LASF3201
     /tmp/cc2IngwB.s:100867  .debug_str:000000000002cf88 .LASF3202
     /tmp/cc2IngwB.s:104169  .debug_str:000000000003a2dd .LASF3203
     /tmp/cc2IngwB.s:96677  .debug_str:000000000001bf0a .LASF3204
     /tmp/cc2IngwB.s:95115  .debug_str:00000000000159dd .LASF3205
     /tmp/cc2IngwB.s:103389  .debug_str:0000000000037626 .LASF3206
     /tmp/cc2IngwB.s:106569  .debug_str:00000000000447e8 .LASF3207
     /tmp/cc2IngwB.s:105323  .debug_str:000000000003f153 .LASF3208
     /tmp/cc2IngwB.s:97649  .debug_str:00000000000200cb .LASF3209
     /tmp/cc2IngwB.s:106957  .debug_str:0000000000046077 .LASF3210
     /tmp/cc2IngwB.s:108361  .debug_str:000000000004bce6 .LASF3211
     /tmp/cc2IngwB.s:97795  .debug_str:0000000000020c49 .LASF3212
     /tmp/cc2IngwB.s:90339  .debug_str:0000000000002728 .LASF3213
     /tmp/cc2IngwB.s:108243  .debug_str:000000000004b437 .LASF3214
     /tmp/cc2IngwB.s:91225  .debug_str:0000000000006226 .LASF3215
     /tmp/cc2IngwB.s:96901  .debug_str:000000000001cdad .LASF3216
     /tmp/cc2IngwB.s:106691  .debug_str:0000000000044fb1 .LASF3217
     /tmp/cc2IngwB.s:100329  .debug_str:000000000002adc3 .LASF3218
     /tmp/cc2IngwB.s:94639  .debug_str:0000000000013cc8 .LASF3219
     /tmp/cc2IngwB.s:100401  .debug_str:000000000002b2b0 .LASF3220
     /tmp/cc2IngwB.s:107483  .debug_str:0000000000048243 .LASF3221
     /tmp/cc2IngwB.s:106405  .debug_str:0000000000043cb5 .LASF3222
     /tmp/cc2IngwB.s:94251  .debug_str:00000000000122b8 .LASF3223
     /tmp/cc2IngwB.s:106681  .debug_str:0000000000044f12 .LASF3224
     /tmp/cc2IngwB.s:94261  .debug_str:0000000000012369 .LASF3225
     /tmp/cc2IngwB.s:94367  .debug_str:00000000000129e4 .LASF3226
     /tmp/cc2IngwB.s:98101  .debug_str:000000000002209f .LASF3227
     /tmp/cc2IngwB.s:106259  .debug_str:0000000000043373 .LASF3228
     /tmp/cc2IngwB.s:91063  .debug_str:00000000000057bf .LASF3229
     /tmp/cc2IngwB.s:91113  .debug_str:0000000000005b30 .LASF3230
     /tmp/cc2IngwB.s:104491  .debug_str:000000000003b860 .LASF3231
     /tmp/cc2IngwB.s:92763  .debug_str:000000000000cb98 .LASF3232
     /tmp/cc2IngwB.s:100141  .debug_str:000000000002a208 .LASF3233
     /tmp/cc2IngwB.s:104845  .debug_str:000000000003d0a7 .LASF3234
     /tmp/cc2IngwB.s:97753  .debug_str:00000000000208b5 .LASF3235
     /tmp/cc2IngwB.s:90347  .debug_str:00000000000027c3 .LASF3236
     /tmp/cc2IngwB.s:90081  .debug_str:0000000000001494 .LASF3237
     /tmp/cc2IngwB.s:102073  .debug_str:0000000000031da3 .LASF3238
     /tmp/cc2IngwB.s:106561  .debug_str:000000000004472b .LASF3239
     /tmp/cc2IngwB.s:91807  .debug_str:00000000000089a5 .LASF3240
     /tmp/cc2IngwB.s:107199  .debug_str:0000000000046fa8 .LASF3241
     /tmp/cc2IngwB.s:101633  .debug_str:0000000000030182 .LASF3242
     /tmp/cc2IngwB.s:96883  .debug_str:000000000001ccd5 .LASF3243
     /tmp/cc2IngwB.s:91377  .debug_str:0000000000006c4a .LASF3244
     /tmp/cc2IngwB.s:105161  .debug_str:000000000003e6e4 .LASF3245
     /tmp/cc2IngwB.s:91159  .debug_str:0000000000005e24 .LASF3246
     /tmp/cc2IngwB.s:93775  .debug_str:0000000000010623 .LASF3247
     /tmp/cc2IngwB.s:98559  .debug_str:0000000000023e9f .LASF3248
     /tmp/cc2IngwB.s:94005  .debug_str:00000000000112b7 .LASF3249
     /tmp/cc2IngwB.s:101121  .debug_str:000000000002df8f .LASF3250
     /tmp/cc2IngwB.s:105297  .debug_str:000000000003efa3 .LASF3251
     /tmp/cc2IngwB.s:95771  .debug_str:0000000000018550 .LASF3252
     /tmp/cc2IngwB.s:104111  .debug_str:0000000000039f4b .LASF3253
     /tmp/cc2IngwB.s:102331  .debug_str:0000000000032e7c .LASF3254
     /tmp/cc2IngwB.s:98439  .debug_str:00000000000235fd .LASF3255
     /tmp/cc2IngwB.s:90175  .debug_str:0000000000001c09 .LASF3256
     /tmp/cc2IngwB.s:93873  .debug_str:0000000000010b66 .LASF3257
     /tmp/cc2IngwB.s:97781  .debug_str:0000000000020af8 .LASF3258
     /tmp/cc2IngwB.s:92587  .debug_str:000000000000c02b .LASF3259
     /tmp/cc2IngwB.s:106361  .debug_str:0000000000043992 .LASF3260
     /tmp/cc2IngwB.s:91749  .debug_str:00000000000085ac .LASF3261
     /tmp/cc2IngwB.s:92731  .debug_str:000000000000c974 .LASF3262
     /tmp/cc2IngwB.s:96733  .debug_str:000000000001c265 .LASF3263
     /tmp/cc2IngwB.s:92155  .debug_str:000000000000a14a .LASF3264
     /tmp/cc2IngwB.s:105293  .debug_str:000000000003ef45 .LASF3265
     /tmp/cc2IngwB.s:94857  .debug_str:0000000000014a6f .LASF3266
     /tmp/cc2IngwB.s:94155  .debug_str:0000000000011c05 .LASF3267
     /tmp/cc2IngwB.s:99651  .debug_str:0000000000028185 .LASF3268
     /tmp/cc2IngwB.s:91725  .debug_str:00000000000083de .LASF3269
     /tmp/cc2IngwB.s:90601  .debug_str:000000000000385c .LASF3270
     /tmp/cc2IngwB.s:102969  .debug_str:00000000000359ec .LASF3271
     /tmp/cc2IngwB.s:101547  .debug_str:000000000002fc7d .LASF3272
     /tmp/cc2IngwB.s:89799  .debug_str:00000000000001c5 .LASF3273
     /tmp/cc2IngwB.s:109417  .debug_str:000000000005052c .LASF3274
     /tmp/cc2IngwB.s:105045  .debug_str:000000000003ddab .LASF3275
     /tmp/cc2IngwB.s:91385  .debug_str:0000000000006d13 .LASF3276
     /tmp/cc2IngwB.s:106229  .debug_str:0000000000043153 .LASF3277
     /tmp/cc2IngwB.s:91925  .debug_str:00000000000091ad .LASF3278
     /tmp/cc2IngwB.s:108927  .debug_str:000000000004e3f1 .LASF3279
     /tmp/cc2IngwB.s:92375  .debug_str:000000000000b07f .LASF3280
     /tmp/cc2IngwB.s:105013  .debug_str:000000000003db66 .LASF3281
     /tmp/cc2IngwB.s:99909  .debug_str:0000000000029328 .LASF3282
     /tmp/cc2IngwB.s:94513  .debug_str:0000000000013487 .LASF3283
     /tmp/cc2IngwB.s:106181  .debug_str:0000000000042d8b .LASF3284
     /tmp/cc2IngwB.s:104537  .debug_str:000000000003bbd5 .LASF3285
     /tmp/cc2IngwB.s:99389  .debug_str:00000000000270af .LASF3286
     /tmp/cc2IngwB.s:102999  .debug_str:0000000000035be5 .LASF3287
     /tmp/cc2IngwB.s:107183  .debug_str:0000000000046ee2 .LASF3288
     /tmp/cc2IngwB.s:95749  .debug_str:0000000000018422 .LASF3289
     /tmp/cc2IngwB.s:91407  .debug_str:0000000000006f1b .LASF3290
     /tmp/cc2IngwB.s:107729  .debug_str:000000000004929a .LASF3291
     /tmp/cc2IngwB.s:104803  .debug_str:000000000003ce70 .LASF3292
     /tmp/cc2IngwB.s:95589  .debug_str:00000000000178df .LASF3293
     /tmp/cc2IngwB.s:97319  .debug_str:000000000001e9da .LASF3294
     /tmp/cc2IngwB.s:92237  .debug_str:000000000000a6b8 .LASF3295
     /tmp/cc2IngwB.s:94859  .debug_str:0000000000014aad .LASF3296
     /tmp/cc2IngwB.s:95121  .debug_str:0000000000015a6c .LASF3297
     /tmp/cc2IngwB.s:92869  .debug_str:000000000000d2d5 .LASF3298
     /tmp/cc2IngwB.s:105879  .debug_str:000000000004157d .LASF3299
     /tmp/cc2IngwB.s:107403  .debug_str:0000000000047d16 .LASF3300
     /tmp/cc2IngwB.s:100515  .debug_str:000000000002ba4c .LASF3301
     /tmp/cc2IngwB.s:108337  .debug_str:000000000004bb2a .LASF3302
     /tmp/cc2IngwB.s:90267  .debug_str:00000000000022d2 .LASF3303
     /tmp/cc2IngwB.s:94197  .debug_str:0000000000011f04 .LASF3304
     /tmp/cc2IngwB.s:102273  .debug_str:0000000000032aad .LASF3305
     /tmp/cc2IngwB.s:108073  .debug_str:000000000004a93e .LASF3306
     /tmp/cc2IngwB.s:102541  .debug_str:0000000000033d3c .LASF3307
     /tmp/cc2IngwB.s:105933  .debug_str:000000000004198e .LASF3308
     /tmp/cc2IngwB.s:102557  .debug_str:0000000000033e41 .LASF3309
     /tmp/cc2IngwB.s:90889  .debug_str:0000000000004c7c .LASF3310
     /tmp/cc2IngwB.s:93951  .debug_str:0000000000010f96 .LASF3311
     /tmp/cc2IngwB.s:105877  .debug_str:0000000000041543 .LASF3312
     /tmp/cc2IngwB.s:96297  .debug_str:000000000001a755 .LASF3313
     /tmp/cc2IngwB.s:101107  .debug_str:000000000002de3f .LASF3314
     /tmp/cc2IngwB.s:101315  .debug_str:000000000002ec52 .LASF3315
     /tmp/cc2IngwB.s:104337  .debug_str:000000000003ad9e .LASF3316
     /tmp/cc2IngwB.s:104257  .debug_str:000000000003a817 .LASF3317
     /tmp/cc2IngwB.s:92301  .debug_str:000000000000ab71 .LASF3318
     /tmp/cc2IngwB.s:98099  .debug_str:0000000000022053 .LASF3319
     /tmp/cc2IngwB.s:103539  .debug_str:000000000003803e .LASF3320
     /tmp/cc2IngwB.s:101519  .debug_str:000000000002fa2d .LASF3321
     /tmp/cc2IngwB.s:95133  .debug_str:0000000000015b60 .LASF3322
     /tmp/cc2IngwB.s:108761  .debug_str:000000000004d871 .LASF3323
     /tmp/cc2IngwB.s:105557  .debug_str:000000000003ff76 .LASF3324
     /tmp/cc2IngwB.s:108059  .debug_str:000000000004a82a .LASF3325
     /tmp/cc2IngwB.s:96385  .debug_str:000000000001ad49 .LASF3326
     /tmp/cc2IngwB.s:97479  .debug_str:000000000001f440 .LASF3327
     /tmp/cc2IngwB.s:106945  .debug_str:0000000000045f90 .LASF3328
     /tmp/cc2IngwB.s:93015  .debug_str:000000000000dbe7 .LASF3329
     /tmp/cc2IngwB.s:104759  .debug_str:000000000003cb56 .LASF3330
     /tmp/cc2IngwB.s:104039  .debug_str:0000000000039bd2 .LASF3331
     /tmp/cc2IngwB.s:95495  .debug_str:0000000000017292 .LASF3332
     /tmp/cc2IngwB.s:94977  .debug_str:000000000001515a .LASF3333
     /tmp/cc2IngwB.s:102437  .debug_str:00000000000335a3 .LASF3334
     /tmp/cc2IngwB.s:105777  .debug_str:0000000000040cf7 .LASF3335
     /tmp/cc2IngwB.s:96913  .debug_str:000000000001ce85 .LASF3336
     /tmp/cc2IngwB.s:104761  .debug_str:000000000003cb99 .LASF3337
     /tmp/cc2IngwB.s:105159  .debug_str:000000000003e6a1 .LASF3338
     /tmp/cc2IngwB.s:96121  .debug_str:0000000000019be2 .LASF3339
     /tmp/cc2IngwB.s:105913  .debug_str:0000000000041809 .LASF3340
     /tmp/cc2IngwB.s:107607  .debug_str:0000000000048ae2 .LASF3341
     /tmp/cc2IngwB.s:101503  .debug_str:000000000002f91d .LASF3342
     /tmp/cc2IngwB.s:95127  .debug_str:0000000000015af6 .LASF3343
     /tmp/cc2IngwB.s:91609  .debug_str:0000000000007c58 .LASF3344
     /tmp/cc2IngwB.s:101569  .debug_str:000000000002fda6 .LASF3345
     /tmp/cc2IngwB.s:92717  .debug_str:000000000000c83b .LASF3346
     /tmp/cc2IngwB.s:105191  .debug_str:000000000003e8b9 .LASF3347
     /tmp/cc2IngwB.s:99941  .debug_str:0000000000029598 .LASF3348
     /tmp/cc2IngwB.s:108665  .debug_str:000000000004d180 .LASF3349
     /tmp/cc2IngwB.s:103701  .debug_str:00000000000389ab .LASF3350
     /tmp/cc2IngwB.s:106409  .debug_str:0000000000043d11 .LASF3351
     /tmp/cc2IngwB.s:98705  .debug_str:000000000002481f .LASF3352
     /tmp/cc2IngwB.s:91769  .debug_str:000000000000871b .LASF3353
     /tmp/cc2IngwB.s:103825  .debug_str:0000000000038fef .LASF3354
     /tmp/cc2IngwB.s:100483  .debug_str:000000000002b776 .LASF3355
     /tmp/cc2IngwB.s:101591  .debug_str:000000000002ff28 .LASF3356
     /tmp/cc2IngwB.s:109191  .debug_str:000000000004f625 .LASF3357
     /tmp/cc2IngwB.s:91335  .debug_str:0000000000006960 .LASF3358
     /tmp/cc2IngwB.s:102845  .debug_str:0000000000035163 .LASF3359
     /tmp/cc2IngwB.s:107619  .debug_str:0000000000048bbb .LASF3360
     /tmp/cc2IngwB.s:97775  .debug_str:0000000000020a5b .LASF3361
     /tmp/cc2IngwB.s:97445  .debug_str:000000000001f1cd .LASF3362
     /tmp/cc2IngwB.s:106965  .debug_str:0000000000046111 .LASF3363
     /tmp/cc2IngwB.s:91891  .debug_str:0000000000008f49 .LASF3364
     /tmp/cc2IngwB.s:104007  .debug_str:000000000003998a .LASF3365
     /tmp/cc2IngwB.s:97151  .debug_str:000000000001de15 .LASF3366
     /tmp/cc2IngwB.s:98159  .debug_str:00000000000223ca .LASF3367
     /tmp/cc2IngwB.s:104873  .debug_str:000000000003d262 .LASF3368
     /tmp/cc2IngwB.s:95303  .debug_str:0000000000016590 .LASF3369
     /tmp/cc2IngwB.s:108981  .debug_str:000000000004e87c .LASF3370
     /tmp/cc2IngwB.s:100583  .debug_str:000000000002beab .LASF3371
     /tmp/cc2IngwB.s:93619  .debug_str:000000000000fdaf .LASF3372
     /tmp/cc2IngwB.s:101439  .debug_str:000000000002f45f .LASF3373
     /tmp/cc2IngwB.s:98845  .debug_str:000000000002513e .LASF3374
     /tmp/cc2IngwB.s:91347  .debug_str:0000000000006a54 .LASF3375
     /tmp/cc2IngwB.s:96305  .debug_str:000000000001a815 .LASF3376
     /tmp/cc2IngwB.s:96379  .debug_str:000000000001acdf .LASF3377
     /tmp/cc2IngwB.s:96679  .debug_str:000000000001bf4d .LASF3378
     /tmp/cc2IngwB.s:101311  .debug_str:000000000002ebf1 .LASF3379
     /tmp/cc2IngwB.s:92051  .debug_str:0000000000009a0a .LASF3380
     /tmp/cc2IngwB.s:104617  .debug_str:000000000003c0d8 .LASF3381
     /tmp/cc2IngwB.s:91387  .debug_str:0000000000006d4e .LASF3382
     /tmp/cc2IngwB.s:97183  .debug_str:000000000001e0af .LASF3383
     /tmp/cc2IngwB.s:101655  .debug_str:00000000000302f0 .LASF3384
     /tmp/cc2IngwB.s:95189  .debug_str:0000000000015f58 .LASF3385
     /tmp/cc2IngwB.s:92485  .debug_str:000000000000b84a .LASF3386
     /tmp/cc2IngwB.s:105743  .debug_str:0000000000040b38 .LASF3387
     /tmp/cc2IngwB.s:91847  .debug_str:0000000000008c91 .LASF3388
     /tmp/cc2IngwB.s:96577  .debug_str:000000000001b917 .LASF3389
     /tmp/cc2IngwB.s:106445  .debug_str:0000000000043f3d .LASF3390
     /tmp/cc2IngwB.s:102503  .debug_str:0000000000033a00 .LASF3391
     /tmp/cc2IngwB.s:97531  .debug_str:000000000001f8a8 .LASF3392
     /tmp/cc2IngwB.s:107413  .debug_str:0000000000047df2 .LASF3393
     /tmp/cc2IngwB.s:99385  .debug_str:000000000002704b .LASF3394
     /tmp/cc2IngwB.s:103837  .debug_str:00000000000390d9 .LASF3395
     /tmp/cc2IngwB.s:99557  .debug_str:0000000000027ada .LASF3396
     /tmp/cc2IngwB.s:94549  .debug_str:0000000000013746 .LASF3397
     /tmp/cc2IngwB.s:98459  .debug_str:0000000000023793 .LASF3398
     /tmp/cc2IngwB.s:102957  .debug_str:000000000003591b .LASF3399
     /tmp/cc2IngwB.s:90467  .debug_str:0000000000002ff1 .LASF3400
     /tmp/cc2IngwB.s:95931  .debug_str:0000000000018ea5 .LASF3401
     /tmp/cc2IngwB.s:89919  .debug_str:00000000000009c3 .LASF3402
     /tmp/cc2IngwB.s:97701  .debug_str:000000000002053b .LASF3403
     /tmp/cc2IngwB.s:105153  .debug_str:000000000003e61a .LASF3404
     /tmp/cc2IngwB.s:91195  .debug_str:000000000000603f .LASF3405
     /tmp/cc2IngwB.s:96781  .debug_str:000000000001c588 .LASF3406
     /tmp/cc2IngwB.s:97057  .debug_str:000000000001d760 .LASF3407
     /tmp/cc2IngwB.s:91041  .debug_str:000000000000565f .LASF3408
     /tmp/cc2IngwB.s:95981  .debug_str:00000000000191c8 .LASF3409
     /tmp/cc2IngwB.s:102059  .debug_str:0000000000031c7a .LASF3410
     /tmp/cc2IngwB.s:105319  .debug_str:000000000003f0fa .LASF3411
     /tmp/cc2IngwB.s:96769  .debug_str:000000000001c4c7 .LASF3412
     /tmp/cc2IngwB.s:101471  .debug_str:000000000002f67f .LASF3413
     /tmp/cc2IngwB.s:95787  .debug_str:000000000001868f .LASF3414
     /tmp/cc2IngwB.s:107829  .debug_str:0000000000049932 .LASF3415
     /tmp/cc2IngwB.s:108611  .debug_str:000000000004cd76 .LASF3416
     /tmp/cc2IngwB.s:99563  .debug_str:0000000000027b56 .LASF3417
     /tmp/cc2IngwB.s:99949  .debug_str:0000000000029655 .LASF3418
     /tmp/cc2IngwB.s:92239  .debug_str:000000000000a6ff .LASF3419
     /tmp/cc2IngwB.s:108377  .debug_str:000000000004bdee .LASF3420
     /tmp/cc2IngwB.s:94459  .debug_str:0000000000013093 .LASF3421
     /tmp/cc2IngwB.s:103625  .debug_str:000000000003858f .LASF3422
     /tmp/cc2IngwB.s:102281  .debug_str:0000000000032b45 .LASF3423
     /tmp/cc2IngwB.s:98549  .debug_str:0000000000023e00 .LASF3424
     /tmp/cc2IngwB.s:104295  .debug_str:000000000003aaac .LASF3425
     /tmp/cc2IngwB.s:93599  .debug_str:000000000000fbd3 .LASF3426
     /tmp/cc2IngwB.s:94045  .debug_str:0000000000011568 .LASF3427
     /tmp/cc2IngwB.s:91475  .debug_str:0000000000007416 .LASF3428
     /tmp/cc2IngwB.s:93825  .debug_str:00000000000108aa .LASF3429
     /tmp/cc2IngwB.s:104653  .debug_str:000000000003c375 .LASF3430
     /tmp/cc2IngwB.s:101383  .debug_str:000000000002f0fd .LASF3431
     /tmp/cc2IngwB.s:90227  .debug_str:0000000000001fd0 .LASF3432
     /tmp/cc2IngwB.s:96009  .debug_str:0000000000019393 .LASF3433
     /tmp/cc2IngwB.s:94419  .debug_str:0000000000012dc4 .LASF3434
     /tmp/cc2IngwB.s:101499  .debug_str:000000000002f8a5 .LASF3435
     /tmp/cc2IngwB.s:91767  .debug_str:00000000000086e1 .LASF3436
     /tmp/cc2IngwB.s:106487  .debug_str:000000000004425d .LASF3437
     /tmp/cc2IngwB.s:105475  .debug_str:000000000003faa4 .LASF3438
     /tmp/cc2IngwB.s:107699  .debug_str:00000000000490e6 .LASF3439
     /tmp/cc2IngwB.s:102517  .debug_str:0000000000033b3c .LASF3440
     /tmp/cc2IngwB.s:98021  .debug_str:0000000000021a7b .LASF3441
     /tmp/cc2IngwB.s:97911  .debug_str:00000000000212d6 .LASF3442
     /tmp/cc2IngwB.s:105565  .debug_str:000000000004001d .LASF3443
     /tmp/cc2IngwB.s:91097  .debug_str:0000000000005a3c .LASF3444
     /tmp/cc2IngwB.s:105967  .debug_str:0000000000041ca3 .LASF3445
     /tmp/cc2IngwB.s:107455  .debug_str:0000000000048066 .LASF3446
     /tmp/cc2IngwB.s:97085  .debug_str:000000000001d92c .LASF3447
     /tmp/cc2IngwB.s:95365  .debug_str:000000000001696c .LASF3448
     /tmp/cc2IngwB.s:107823  .debug_str:00000000000498c3 .LASF3449
     /tmp/cc2IngwB.s:105909  .debug_str:00000000000417a4 .LASF3450
     /tmp/cc2IngwB.s:100219  .debug_str:000000000002a759 .LASF3451
     /tmp/cc2IngwB.s:104093  .debug_str:0000000000039e31 .LASF3452
     /tmp/cc2IngwB.s:91137  .debug_str:0000000000005cb4 .LASF3453
     /tmp/cc2IngwB.s:90677  .debug_str:0000000000003d69 .LASF3454
     /tmp/cc2IngwB.s:100207  .debug_str:000000000002a686 .LASF3455
     /tmp/cc2IngwB.s:101407  .debug_str:000000000002f274 .LASF3456
     /tmp/cc2IngwB.s:92933  .debug_str:000000000000d6c1 .LASF3457
     /tmp/cc2IngwB.s:91983  .debug_str:0000000000009596 .LASF3458
     /tmp/cc2IngwB.s:91881  .debug_str:0000000000008e68 .LASF3459
     /tmp/cc2IngwB.s:106559  .debug_str:00000000000446e8 .LASF3460
     /tmp/cc2IngwB.s:102653  .debug_str:0000000000034470 .LASF3461
     /tmp/cc2IngwB.s:100133  .debug_str:000000000002a17e .LASF3462
     /tmp/cc2IngwB.s:96643  .debug_str:000000000001bc80 .LASF3463
     /tmp/cc2IngwB.s:93829  .debug_str:00000000000108f6 .LASF3464
     /tmp/cc2IngwB.s:105407  .debug_str:000000000003f61e .LASF3465
     /tmp/cc2IngwB.s:97783  .debug_str:0000000000020b41 .LASF3466
     /tmp/cc2IngwB.s:91907  .debug_str:0000000000009084 .LASF3467
     /tmp/cc2IngwB.s:96881  .debug_str:000000000001cc94 .LASF3468
     /tmp/cc2IngwB.s:97007  .debug_str:000000000001d446 .LASF3469
     /tmp/cc2IngwB.s:103509  .debug_str:0000000000037dd4 .LASF3470
     /tmp/cc2IngwB.s:95267  .debug_str:0000000000016346 .LASF3471
     /tmp/cc2IngwB.s:106045  .debug_str:00000000000421b8 .LASF3472
     /tmp/cc2IngwB.s:107091  .debug_str:0000000000046909 .LASF3473
     /tmp/cc2IngwB.s:104723  .debug_str:000000000003c8a6 .LASF3474
     /tmp/cc2IngwB.s:108055  .debug_str:000000000004a7cc .LASF3475
     /tmp/cc2IngwB.s:104375  .debug_str:000000000003b08e .LASF3476
     /tmp/cc2IngwB.s:105101  .debug_str:000000000003e1d7 .LASF3477
     /tmp/cc2IngwB.s:94127  .debug_str:0000000000011a1f .LASF3478
     /tmp/cc2IngwB.s:98259  .debug_str:0000000000022a4a .LASF3479
     /tmp/cc2IngwB.s:103873  .debug_str:000000000003931b .LASF3480
     /tmp/cc2IngwB.s:94327  .debug_str:00000000000127a2 .LASF3481
     /tmp/cc2IngwB.s:91899  .debug_str:0000000000008fd8 .LASF3482
     /tmp/cc2IngwB.s:109207  .debug_str:000000000004f76e .LASF3483
     /tmp/cc2IngwB.s:104015  .debug_str:0000000000039a27 .LASF3484
     /tmp/cc2IngwB.s:104475  .debug_str:000000000003b748 .LASF3485
     /tmp/cc2IngwB.s:96077  .debug_str:00000000000198ac .LASF3486
     /tmp/cc2IngwB.s:105703  .debug_str:0000000000040886 .LASF3487
     /tmp/cc2IngwB.s:91011  .debug_str:0000000000005418 .LASF3488
     /tmp/cc2IngwB.s:104627  .debug_str:000000000003c1a8 .LASF3489
     /tmp/cc2IngwB.s:90807  .debug_str:000000000000468d .LASF3490
     /tmp/cc2IngwB.s:107173  .debug_str:0000000000046e11 .LASF3491
     /tmp/cc2IngwB.s:99323  .debug_str:0000000000026c27 .LASF3492
     /tmp/cc2IngwB.s:99833  .debug_str:0000000000028de2 .LASF3493
     /tmp/cc2IngwB.s:105145  .debug_str:000000000003e55a .LASF3494
     /tmp/cc2IngwB.s:92735  .debug_str:000000000000c9d2 .LASF3495
     /tmp/cc2IngwB.s:92795  .debug_str:000000000000ce21 .LASF3496
     /tmp/cc2IngwB.s:107947  .debug_str:000000000004a09a .LASF3497
     /tmp/cc2IngwB.s:108999  .debug_str:000000000004e9c7 .LASF3498
     /tmp/cc2IngwB.s:95469  .debug_str:00000000000170e1 .LASF3499
     /tmp/cc2IngwB.s:94685  .debug_str:0000000000013fc8 .LASF3500
     /tmp/cc2IngwB.s:95327  .debug_str:0000000000016742 .LASF3501
     /tmp/cc2IngwB.s:103633  .debug_str:000000000003861a .LASF3502
     /tmp/cc2IngwB.s:107095  .debug_str:0000000000046983 .LASF3503
     /tmp/cc2IngwB.s:105679  .debug_str:0000000000040708 .LASF3504
     /tmp/cc2IngwB.s:108791  .debug_str:000000000004da68 .LASF3505
     /tmp/cc2IngwB.s:96497  .debug_str:000000000001b463 .LASF3506
     /tmp/cc2IngwB.s:104371  .debug_str:000000000003b024 .LASF3507
     /tmp/cc2IngwB.s:101417  .debug_str:000000000002f31e .LASF3508
     /tmp/cc2IngwB.s:104957  .debug_str:000000000003d7d4 .LASF3509
     /tmp/cc2IngwB.s:92247  .debug_str:000000000000a7c9 .LASF3510
     /tmp/cc2IngwB.s:95533  .debug_str:00000000000174cd .LASF3511
     /tmp/cc2IngwB.s:106135  .debug_str:0000000000042a57 .LASF3512
     /tmp/cc2IngwB.s:97525  .debug_str:000000000001f844 .LASF3513
     /tmp/cc2IngwB.s:104577  .debug_str:000000000003be76 .LASF3514
     /tmp/cc2IngwB.s:107999  .debug_str:000000000004a45b .LASF3515
     /tmp/cc2IngwB.s:95531  .debug_str:0000000000017492 .LASF3516
     /tmp/cc2IngwB.s:98831  .debug_str:0000000000025067 .LASF3517
     /tmp/cc2IngwB.s:106337  .debug_str:00000000000437e5 .LASF3518
     /tmp/cc2IngwB.s:91451  .debug_str:000000000000725b .LASF3519
     /tmp/cc2IngwB.s:106881  .debug_str:0000000000045b1f .LASF3520
     /tmp/cc2IngwB.s:97999  .debug_str:00000000000218d1 .LASF3521
     /tmp/cc2IngwB.s:97103  .debug_str:000000000001da94 .LASF3522
     /tmp/cc2IngwB.s:97101  .debug_str:000000000001da50 .LASF3523
     /tmp/cc2IngwB.s:89847  .debug_str:0000000000000503 .LASF3524
     /tmp/cc2IngwB.s:102937  .debug_str:000000000003576b .LASF3525
     /tmp/cc2IngwB.s:100621  .debug_str:000000000002c046 .LASF3526
     /tmp/cc2IngwB.s:101043  .debug_str:000000000002da29 .LASF3527
     /tmp/cc2IngwB.s:107049  .debug_str:000000000004663d .LASF3528
     /tmp/cc2IngwB.s:104573  .debug_str:000000000003be23 .LASF3529
     /tmp/cc2IngwB.s:102705  .debug_str:00000000000347ae .LASF3530
     /tmp/cc2IngwB.s:90949  .debug_str:000000000000504a .LASF3531
     /tmp/cc2IngwB.s:108971  .debug_str:000000000004e7ac .LASF3532
     /tmp/cc2IngwB.s:94297  .debug_str:0000000000012620 .LASF3533
     /tmp/cc2IngwB.s:102067  .debug_str:0000000000031d40 .LASF3534
     /tmp/cc2IngwB.s:107957  .debug_str:000000000004a169 .LASF3535
     /tmp/cc2IngwB.s:108373  .debug_str:000000000004bd9f .LASF3536
     /tmp/cc2IngwB.s:95385  .debug_str:0000000000016b04 .LASF3537
     /tmp/cc2IngwB.s:101231  .debug_str:000000000002e6c9 .LASF3538
     /tmp/cc2IngwB.s:107325  .debug_str:0000000000047806 .LASF3539
     /tmp/cc2IngwB.s:103079  .debug_str:00000000000361ff .LASF3540
     /tmp/cc2IngwB.s:99565  .debug_str:0000000000027b9d .LASF3541
     /tmp/cc2IngwB.s:100235  .debug_str:000000000002a88e .LASF3542
     /tmp/cc2IngwB.s:98647  .debug_str:000000000002443f .LASF3543
     /tmp/cc2IngwB.s:90923  .debug_str:0000000000004ec5 .LASF3544
     /tmp/cc2IngwB.s:108235  .debug_str:000000000004b39d .LASF3545
     /tmp/cc2IngwB.s:104615  .debug_str:000000000003c09c .LASF3546
     /tmp/cc2IngwB.s:97523  .debug_str:000000000001f800 .LASF3547
     /tmp/cc2IngwB.s:105171  .debug_str:000000000003e767 .LASF3548
     /tmp/cc2IngwB.s:107795  .debug_str:00000000000496ea .LASF3549
     /tmp/cc2IngwB.s:91531  .debug_str:0000000000007769 .LASF3550
     /tmp/cc2IngwB.s:107775  .debug_str:0000000000049582 .LASF3551
     /tmp/cc2IngwB.s:103301  .debug_str:0000000000037081 .LASF3552
     /tmp/cc2IngwB.s:95557  .debug_str:000000000001768b .LASF3553
     /tmp/cc2IngwB.s:109307  .debug_str:000000000004fd74 .LASF3554
     /tmp/cc2IngwB.s:100105  .debug_str:0000000000029f95 .LASF3555
     /tmp/cc2IngwB.s:91211  .debug_str:000000000000613d .LASF3556
     /tmp/cc2IngwB.s:106667  .debug_str:0000000000044df3 .LASF3557
     /tmp/cc2IngwB.s:106397  .debug_str:0000000000043c0f .LASF3558
     /tmp/cc2IngwB.s:91901  .debug_str:000000000000901c .LASF3559
     /tmp/cc2IngwB.s:94665  .debug_str:0000000000013e96 .LASF3560
     /tmp/cc2IngwB.s:93573  .debug_str:000000000000f9e7 .LASF3561
     /tmp/cc2IngwB.s:92223  .debug_str:000000000000a5a8 .LASF3562
     /tmp/cc2IngwB.s:109331  .debug_str:000000000004fee7 .LASF3563
     /tmp/cc2IngwB.s:96117  .debug_str:0000000000019b66 .LASF3564
     /tmp/cc2IngwB.s:93507  .debug_str:000000000000f5c9 .LASF3565
     /tmp/cc2IngwB.s:90241  .debug_str:00000000000020d2 .LASF3566
     /tmp/cc2IngwB.s:100163  .debug_str:000000000002a37c .LASF3567
     /tmp/cc2IngwB.s:108651  .debug_str:000000000004d06b .LASF3568
     /tmp/cc2IngwB.s:102843  .debug_str:0000000000035125 .LASF3569
     /tmp/cc2IngwB.s:95087  .debug_str:0000000000015852 .LASF3570
     /tmp/cc2IngwB.s:102017  .debug_str:000000000003199f .LASF3571
     /tmp/cc2IngwB.s:106161  .debug_str:0000000000042bff .LASF3572
     /tmp/cc2IngwB.s:108843  .debug_str:000000000004dd76 .LASF3573
     /tmp/cc2IngwB.s:92559  .debug_str:000000000000be0f .LASF3574
     /tmp/cc2IngwB.s:101583  .debug_str:000000000002fe9b .LASF3575
     /tmp/cc2IngwB.s:106339  .debug_str:0000000000043820 .LASF3576
     /tmp/cc2IngwB.s:104393  .debug_str:000000000003b1a7 .LASF3577
     /tmp/cc2IngwB.s:97179  .debug_str:000000000001e050 .LASF3578
     /tmp/cc2IngwB.s:99077  .debug_str:0000000000025db6 .LASF3579
     /tmp/cc2IngwB.s:91727  .debug_str:0000000000008421 .LASF3580
     /tmp/cc2IngwB.s:94245  .debug_str:0000000000012244 .LASF3581
     /tmp/cc2IngwB.s:96237  .debug_str:000000000001a382 .LASF3582
     /tmp/cc2IngwB.s:103121  .debug_str:000000000003654d .LASF3583
     /tmp/cc2IngwB.s:96165  .debug_str:0000000000019eed .LASF3584
     /tmp/cc2IngwB.s:90989  .debug_str:00000000000052b9 .LASF3585
     /tmp/cc2IngwB.s:89845  .debug_str:00000000000004bc .LASF3586
     /tmp/cc2IngwB.s:105875  .debug_str:000000000004150a .LASF3587
     /tmp/cc2IngwB.s:91397  .debug_str:0000000000006e07 .LASF3588
     /tmp/cc2IngwB.s:90415  .debug_str:0000000000002c2f .LASF3589
     /tmp/cc2IngwB.s:96499  .debug_str:000000000001b4a1 .LASF3590
     /tmp/cc2IngwB.s:94185  .debug_str:0000000000011e13 .LASF3591
     /tmp/cc2IngwB.s:95373  .debug_str:00000000000169f7 .LASF3592
     /tmp/cc2IngwB.s:97485  .debug_str:000000000001f4cf .LASF3593
     /tmp/cc2IngwB.s:90579  .debug_str:000000000000368e .LASF3594
     /tmp/cc2IngwB.s:89795  .debug_str:000000000000016a .LASF3595
     /tmp/cc2IngwB.s:98187  .debug_str:000000000002254c .LASF3596
     /tmp/cc2IngwB.s:90133  .debug_str:000000000000190c .LASF3597
     /tmp/cc2IngwB.s:98777  .debug_str:0000000000024d19 .LASF3598
     /tmp/cc2IngwB.s:104639  .debug_str:000000000003c278 .LASF3599
     /tmp/cc2IngwB.s:89927  .debug_str:0000000000000a6c .LASF3600
     /tmp/cc2IngwB.s:90161  .debug_str:0000000000001af6 .LASF3601
     /tmp/cc2IngwB.s:102983  .debug_str:0000000000035ae6 .LASF3602
     /tmp/cc2IngwB.s:91521  .debug_str:0000000000007688 .LASF3603
     /tmp/cc2IngwB.s:91355  .debug_str:0000000000006afa .LASF3604
     /tmp/cc2IngwB.s:106505  .debug_str:000000000004437f .LASF3605
     /tmp/cc2IngwB.s:97327  .debug_str:000000000001ea46 .LASF3606
     /tmp/cc2IngwB.s:103949  .debug_str:00000000000396ed .LASF3607
     /tmp/cc2IngwB.s:99699  .debug_str:00000000000284c0 .LASF3608
     /tmp/cc2IngwB.s:102905  .debug_str:0000000000035538 .LASF3609
     /tmp/cc2IngwB.s:109275  .debug_str:000000000004fbd9 .LASF3610
     /tmp/cc2IngwB.s:91779  .debug_str:00000000000087d3 .LASF3611
     /tmp/cc2IngwB.s:109249  .debug_str:000000000004fa81 .LASF3612
     /tmp/cc2IngwB.s:108379  .debug_str:000000000004be2a .LASF3613
     /tmp/cc2IngwB.s:97223  .debug_str:000000000001e333 .LASF3614
     /tmp/cc2IngwB.s:91793  .debug_str:00000000000088d8 .LASF3615
     /tmp/cc2IngwB.s:101537  .debug_str:000000000002fb9a .LASF3616
     /tmp/cc2IngwB.s:94355  .debug_str:0000000000012945 .LASF3617
     /tmp/cc2IngwB.s:104905  .debug_str:000000000003d492 .LASF3618
     /tmp/cc2IngwB.s:109467  .debug_str:000000000005089e .LASF3619
     /tmp/cc2IngwB.s:90139  .debug_str:000000000000197f .LASF3620
     /tmp/cc2IngwB.s:108959  .debug_str:000000000004e69f .LASF3621
     /tmp/cc2IngwB.s:93307  .debug_str:000000000000eba5 .LASF3622
     /tmp/cc2IngwB.s:103623  .debug_str:000000000003854b .LASF3623
     /tmp/cc2IngwB.s:108937  .debug_str:000000000004e4bb .LASF3624
     /tmp/cc2IngwB.s:93305  .debug_str:000000000000eb62 .LASF3625
     /tmp/cc2IngwB.s:104265  .debug_str:000000000003a8dc .LASF3626
     /tmp/cc2IngwB.s:103183  .debug_str:000000000003691b .LASF3627
     /tmp/cc2IngwB.s:105055  .debug_str:000000000003de98 .LASF3628
     /tmp/cc2IngwB.s:97297  .debug_str:000000000001e889 .LASF3629
     /tmp/cc2IngwB.s:95387  .debug_str:0000000000016b4b .LASF3630
     /tmp/cc2IngwB.s:93777  .debug_str:000000000001065d .LASF3631
     /tmp/cc2IngwB.s:106389  .debug_str:0000000000043b6f .LASF3632
     /tmp/cc2IngwB.s:90845  .debug_str:0000000000004974 .LASF3633
     /tmp/cc2IngwB.s:97287  .debug_str:000000000001e787 .LASF3634
     /tmp/cc2IngwB.s:93221  .debug_str:000000000000e762 .LASF3635
     /tmp/cc2IngwB.s:106775  .debug_str:000000000004553a .LASF3636
     /tmp/cc2IngwB.s:103965  .debug_str:00000000000397e7 .LASF3637
     /tmp/cc2IngwB.s:100239  .debug_str:000000000002a8dc .LASF3638
     /tmp/cc2IngwB.s:94657  .debug_str:0000000000013dfc .LASF3639
     /tmp/cc2IngwB.s:108781  .debug_str:000000000004d9e3 .LASF3640
     /tmp/cc2IngwB.s:91969  .debug_str:00000000000094bb .LASF3641
     /tmp/cc2IngwB.s:98655  .debug_str:00000000000244e7 .LASF3642
     /tmp/cc2IngwB.s:107063  .debug_str:0000000000046759 .LASF3643
     /tmp/cc2IngwB.s:92447  .debug_str:000000000000b5e3 .LASF3644
     /tmp/cc2IngwB.s:103497  .debug_str:0000000000037d08 .LASF3645
     /tmp/cc2IngwB.s:93211  .debug_str:000000000000e692 .LASF3646
     /tmp/cc2IngwB.s:105845  .debug_str:000000000004121a .LASF3647
     /tmp/cc2IngwB.s:104319  .debug_str:000000000003ac5e .LASF3648
     /tmp/cc2IngwB.s:91823  .debug_str:0000000000008adc .LASF3649
     /tmp/cc2IngwB.s:90733  .debug_str:000000000000419a .LASF3650
     /tmp/cc2IngwB.s:105961  .debug_str:0000000000041c2d .LASF3651
     /tmp/cc2IngwB.s:99921  .debug_str:000000000002941a .LASF3652
     /tmp/cc2IngwB.s:95273  .debug_str:00000000000163d5 .LASF3653
     /tmp/cc2IngwB.s:94957  .debug_str:000000000001501f .LASF3654
     /tmp/cc2IngwB.s:97777  .debug_str:0000000000020a97 .LASF3655
     /tmp/cc2IngwB.s:102825  .debug_str:0000000000034f47 .LASF3656
     /tmp/cc2IngwB.s:104917  .debug_str:000000000003d551 .LASF3657
     /tmp/cc2IngwB.s:91631  .debug_str:0000000000007e19 .LASF3658
     /tmp/cc2IngwB.s:96309  .debug_str:000000000001a874 .LASF3659
     /tmp/cc2IngwB.s:109075  .debug_str:000000000004eee4 .LASF3660
     /tmp/cc2IngwB.s:105935  .debug_str:00000000000419cb .LASF3661
     /tmp/cc2IngwB.s:94101  .debug_str:0000000000011878 .LASF3662
     /tmp/cc2IngwB.s:95989  .debug_str:0000000000019265 .LASF3663
     /tmp/cc2IngwB.s:97477  .debug_str:000000000001f404 .LASF3664
     /tmp/cc2IngwB.s:97159  .debug_str:000000000001deb4 .LASF3665
     /tmp/cc2IngwB.s:99749  .debug_str:0000000000028799 .LASF3666
     /tmp/cc2IngwB.s:106747  .debug_str:0000000000045328 .LASF3667
     /tmp/cc2IngwB.s:107293  .debug_str:00000000000475c6 .LASF3668
     /tmp/cc2IngwB.s:96671  .debug_str:000000000001be77 .LASF3669
     /tmp/cc2IngwB.s:102535  .debug_str:0000000000033cad .LASF3670
     /tmp/cc2IngwB.s:106463  .debug_str:00000000000440c1 .LASF3671
     /tmp/cc2IngwB.s:108587  .debug_str:000000000004cbf2 .LASF3672
     /tmp/cc2IngwB.s:106235  .debug_str:00000000000431e3 .LASF3673
     /tmp/cc2IngwB.s:97491  .debug_str:000000000001f587 .LASF3674
     /tmp/cc2IngwB.s:96299  .debug_str:000000000001a797 .LASF3675
     /tmp/cc2IngwB.s:108273  .debug_str:000000000004b647 .LASF3676
     /tmp/cc2IngwB.s:94831  .debug_str:00000000000148d5 .LASF3677
     /tmp/cc2IngwB.s:102665  .debug_str:000000000003453c .LASF3678
     /tmp/cc2IngwB.s:107561  .debug_str:0000000000048826 .LASF3679
     /tmp/cc2IngwB.s:107891  .debug_str:0000000000049d6b .LASF3680
     /tmp/cc2IngwB.s:106889  .debug_str:0000000000045bd1 .LASF3681
     /tmp/cc2IngwB.s:92553  .debug_str:000000000000bd3a .LASF3682
     /tmp/cc2IngwB.s:95675  .debug_str:0000000000017f78 .LASF3683
     /tmp/cc2IngwB.s:90725  .debug_str:00000000000040f2 .LASF3684
     /tmp/cc2IngwB.s:99529  .debug_str:0000000000027913 .LASF3685
     /tmp/cc2IngwB.s:109365  .debug_str:00000000000501b3 .LASF3686
     /tmp/cc2IngwB.s:104389  .debug_str:000000000003b145 .LASF3687
     /tmp/cc2IngwB.s:95209  .debug_str:0000000000016061 .LASF3688
     /tmp/cc2IngwB.s:99971  .debug_str:00000000000297de .LASF3689
     /tmp/cc2IngwB.s:98503  .debug_str:0000000000023b0a .LASF3690
     /tmp/cc2IngwB.s:91107  .debug_str:0000000000005ad1 .LASF3691
     /tmp/cc2IngwB.s:93763  .debug_str:000000000001058e .LASF3692
     /tmp/cc2IngwB.s:99009  .debug_str:0000000000025a13 .LASF3693
     /tmp/cc2IngwB.s:99869  .debug_str:0000000000029058 .LASF3694
     /tmp/cc2IngwB.s:97043  .debug_str:000000000001d67c .LASF3695
     /tmp/cc2IngwB.s:97345  .debug_str:000000000001eb93 .LASF3696
     /tmp/cc2IngwB.s:89849  .debug_str:0000000000000542 .LASF3697
     /tmp/cc2IngwB.s:107445  .debug_str:0000000000048000 .LASF3698
     /tmp/cc2IngwB.s:92673  .debug_str:000000000000c57a .LASF3699
     /tmp/cc2IngwB.s:104495  .debug_str:000000000003b8b9 .LASF3700
     /tmp/cc2IngwB.s:98227  .debug_str:00000000000228ef .LASF3701
     /tmp/cc2IngwB.s:91219  .debug_str:00000000000061bb .LASF3702
     /tmp/cc2IngwB.s:107551  .debug_str:0000000000048758 .LASF3703
     /tmp/cc2IngwB.s:94369  .debug_str:0000000000012a25 .LASF3704
     /tmp/cc2IngwB.s:106793  .debug_str:0000000000045631 .LASF3705
     /tmp/cc2IngwB.s:95393  .debug_str:0000000000016be4 .LASF3706
     /tmp/cc2IngwB.s:99395  .debug_str:000000000002712e .LASF3707
     /tmp/cc2IngwB.s:92981  .debug_str:000000000000d9d7 .LASF3708
     /tmp/cc2IngwB.s:99541  .debug_str:0000000000027a06 .LASF3709
     /tmp/cc2IngwB.s:90045  .debug_str:0000000000001251 .LASF3710
     /tmp/cc2IngwB.s:103337  .debug_str:0000000000037323 .LASF3711
     /tmp/cc2IngwB.s:93021  .debug_str:000000000000dc75 .LASF3712
     /tmp/cc2IngwB.s:102939  .debug_str:00000000000357b2 .LASF3713
     /tmp/cc2IngwB.s:94383  .debug_str:0000000000012b47 .LASF3714
     /tmp/cc2IngwB.s:94873  .debug_str:0000000000014b99 .LASF3715
     /tmp/cc2IngwB.s:102495  .debug_str:0000000000033980 .LASF3716
     /tmp/cc2IngwB.s:102481  .debug_str:000000000003388b .LASF3717
     /tmp/cc2IngwB.s:103307  .debug_str:00000000000370f3 .LASF3718
     /tmp/cc2IngwB.s:91465  .debug_str:0000000000007378 .LASF3719
     /tmp/cc2IngwB.s:91831  .debug_str:0000000000008b5c .LASF3720
     /tmp/cc2IngwB.s:91753  .debug_str:0000000000008616 .LASF3721
     /tmp/cc2IngwB.s:94591  .debug_str:00000000000139eb .LASF3722
     /tmp/cc2IngwB.s:106481  .debug_str:0000000000044212 .LASF3723
     /tmp/cc2IngwB.s:102973  .debug_str:0000000000035a49 .LASF3724
     /tmp/cc2IngwB.s:109197  .debug_str:000000000004f6e0 .LASF3725
     /tmp/cc2IngwB.s:97589  .debug_str:000000000001fceb .LASF3726
     /tmp/cc2IngwB.s:96731  .debug_str:000000000001c240 .LASF3727
     /tmp/cc2IngwB.s:97211  .debug_str:000000000001e27e .LASF3728
     /tmp/cc2IngwB.s:102459  .debug_str:0000000000033711 .LASF3729
     /tmp/cc2IngwB.s:98369  .debug_str:00000000000231c4 .LASF3730
     /tmp/cc2IngwB.s:94295  .debug_str:00000000000125fd .LASF3731
     /tmp/cc2IngwB.s:92153  .debug_str:000000000000a127 .LASF3732
     /tmp/cc2IngwB.s:99735  .debug_str:00000000000286a8 .LASF3733
     /tmp/cc2IngwB.s:90091  .debug_str:0000000000001543 .LASF3734
     /tmp/cc2IngwB.s:90137  .debug_str:000000000000195e .LASF3735
     /tmp/cc2IngwB.s:102903  .debug_str:0000000000035517 .LASF3736
     /tmp/cc2IngwB.s:107327  .debug_str:000000000004784d .LASF3737
     /tmp/cc2IngwB.s:101059  .debug_str:000000000002db28 .LASF3738
     /tmp/cc2IngwB.s:94671  .debug_str:0000000000013ef9 .LASF3739
     /tmp/cc2IngwB.s:94181  .debug_str:0000000000011ddf .LASF3740
     /tmp/cc2IngwB.s:93447  .debug_str:000000000000f2fc .LASF3741
     /tmp/cc2IngwB.s:102683  .debug_str:0000000000034644 .LASF3742
     /tmp/cc2IngwB.s:101955  .debug_str:00000000000315f2 .LASF3743
     /tmp/cc2IngwB.s:91345  .debug_str:0000000000006a30 .LASF3744
     /tmp/cc2IngwB.s:101339  .debug_str:000000000002ee0f .LASF3745
     /tmp/cc2IngwB.s:102691  .debug_str:00000000000346bc .LASF3746
     /tmp/cc2IngwB.s:96223  .debug_str:000000000001a2a9 .LASF3747
     /tmp/cc2IngwB.s:98059  .debug_str:0000000000021cfa .LASF3748
     /tmp/cc2IngwB.s:102603  .debug_str:0000000000034147 .LASF3750
     /tmp/cc2IngwB.s:106243  .debug_str:000000000004326a .LASF3751
     /tmp/cc2IngwB.s:105647  .debug_str:0000000000040543 .LASF3752
     /tmp/cc2IngwB.s:101683  .debug_str:00000000000304fc .LASF3753
     /tmp/cc2IngwB.s:101301  .debug_str:000000000002eb48 .LASF3754
     /tmp/cc2IngwB.s:101561  .debug_str:000000000002fd1f .LASF3755
     /tmp/cc2IngwB.s:99293  .debug_str:0000000000026a2c .LASF3756
     /tmp/cc2IngwB.s:105173  .debug_str:000000000003e7a3 .LASF3757
     /tmp/cc2IngwB.s:90863  .debug_str:0000000000004ad4 .LASF3758
     /tmp/cc2IngwB.s:108381  .debug_str:000000000004be67 .LASF3759
     /tmp/cc2IngwB.s:98923  .debug_str:00000000000255ac .LASF3760
     /tmp/cc2IngwB.s:96549  .debug_str:000000000001b726 .LASF3761
     /tmp/cc2IngwB.s:98669  .debug_str:00000000000245fa .LASF3762
     /tmp/cc2IngwB.s:109091  .debug_str:000000000004f019 .LASF3763
     /tmp/cc2IngwB.s:107653  .debug_str:0000000000048dd6 .LASF3764
     /tmp/cc2IngwB.s:101923  .debug_str:0000000000031428 .LASF3765
     /tmp/cc2IngwB.s:104703  .debug_str:000000000003c727 .LASF3766
     /tmp/cc2IngwB.s:108583  .debug_str:000000000004cbba .LASF3767
     /tmp/cc2IngwB.s:94361  .debug_str:0000000000012991 .LASF3768
     /tmp/cc2IngwB.s:104473  .debug_str:000000000003b723 .LASF3769
     /tmp/cc2IngwB.s:99311  .debug_str:0000000000026b3a .LASF3770
     /tmp/cc2IngwB.s:100145  .debug_str:000000000002a256 .LASF3771
     /tmp/cc2IngwB.s:90499  .debug_str:0000000000003216 .LASF3772
     /tmp/cc2IngwB.s:97191  .debug_str:000000000001e129 .LASF3773
     /tmp/cc2IngwB.s:102249  .debug_str:0000000000032893 .LASF3774
     /tmp/cc2IngwB.s:94689  .debug_str:0000000000014034 .LASF3775
     /tmp/cc2IngwB.s:90925  .debug_str:0000000000004f01 .LASF3776
     /tmp/cc2IngwB.s:101947  .debug_str:0000000000031547 .LASF3777
     /tmp/cc2IngwB.s:95367  .debug_str:00000000000169b2 .LASF3778
     /tmp/cc2IngwB.s:94013  .debug_str:0000000000011332 .LASF3779
     /tmp/cc2IngwB.s:102701  .debug_str:0000000000034770 .LASF3780
     /tmp/cc2IngwB.s:91167  .debug_str:0000000000005ebe .LASF3781
     /tmp/cc2IngwB.s:107265  .debug_str:00000000000473c3 .LASF3782
     /tmp/cc2IngwB.s:108037  .debug_str:000000000004a718 .LASF3783
     /tmp/cc2IngwB.s:94627  .debug_str:0000000000013c43 .LASF3784
     /tmp/cc2IngwB.s:105061  .debug_str:000000000003df23 .LASF3785
     /tmp/cc2IngwB.s:100131  .debug_str:000000000002a166 .LASF3786
     /tmp/cc2IngwB.s:100303  .debug_str:000000000002ac8c .LASF3787
     /tmp/cc2IngwB.s:108957  .debug_str:000000000004e692 .LASF3788
     /tmp/cc2IngwB.s:104441  .debug_str:000000000003b516 .LASF3789
     /tmp/cc2IngwB.s:93783  .debug_str:00000000000106d0 .LASF3790
     /tmp/cc2IngwB.s:108947  .debug_str:000000000004e5bb .LASF3791
     /tmp/cc2IngwB.s:105931  .debug_str:0000000000041950 .LASF3792
     /tmp/cc2IngwB.s:90177  .debug_str:0000000000001c4b .LASF3793
     /tmp/cc2IngwB.s:97549  .debug_str:000000000001fa19 .LASF3794
     /tmp/cc2IngwB.s:96233  .debug_str:000000000001a33f .LASF3795
     /tmp/cc2IngwB.s:94935  .debug_str:0000000000014f07 .LASF3796
     /tmp/cc2IngwB.s:90673  .debug_str:0000000000003d36 .LASF3797
     /tmp/cc2IngwB.s:107565  .debug_str:0000000000048877 .LASF3798
     /tmp/cc2IngwB.s:101381  .debug_str:000000000002f0da .LASF3799
     /tmp/cc2IngwB.s:101901  .debug_str:00000000000312c6 .LASF3800
     /tmp/cc2IngwB.s:107997  .debug_str:000000000004a43a .LASF3801
     /tmp/cc2IngwB.s:108987  .debug_str:000000000004e90c .LASF3802
     /tmp/cc2IngwB.s:100507  .debug_str:000000000002b9df .LASF3803
     /tmp/cc2IngwB.s:98179  .debug_str:00000000000224ba .LASF3804
     /tmp/cc2IngwB.s:97113  .debug_str:000000000001db27 .LASF3805
     /tmp/cc2IngwB.s:108193  .debug_str:000000000004b071 .LASF3806
     /tmp/cc2IngwB.s:109281  .debug_str:000000000004fc49 .LASF3807
     /tmp/cc2IngwB.s:100817  .debug_str:000000000002ccb2 .LASF3808
     /tmp/cc2IngwB.s:101699  .debug_str:00000000000305df .LASF3809
     /tmp/cc2IngwB.s:103779  .debug_str:0000000000038e29 .LASF3810
     /tmp/cc2IngwB.s:90865  .debug_str:0000000000004b09 .LASF3811
     /tmp/cc2IngwB.s:104045  .debug_str:0000000000039c49 .LASF3812
     /tmp/cc2IngwB.s:105827  .debug_str:0000000000041085 .LASF3813
     /tmp/cc2IngwB.s:108633  .debug_str:000000000004cf23 .LASF3814
     /tmp/cc2IngwB.s:101779  .debug_str:0000000000030a6b .LASF3815
     /tmp/cc2IngwB.s:108993  .debug_str:000000000004e96c .LASF3816
     /tmp/cc2IngwB.s:106899  .debug_str:0000000000045c6c .LASF3817
     /tmp/cc2IngwB.s:106147  .debug_str:0000000000042b3b .LASF3818
     /tmp/cc2IngwB.s:102069  .debug_str:0000000000031d82 .LASF3819
     /tmp/cc2IngwB.s:93199  .debug_str:000000000000e609 .LASF3820
     /tmp/cc2IngwB.s:104309  .debug_str:000000000003abdb .LASF3821
     /tmp/cc2IngwB.s:100395  .debug_str:000000000002b228 .LASF3822
     /tmp/cc2IngwB.s:100361  .debug_str:000000000002b002 .LASF3823
     /tmp/cc2IngwB.s:102045  .debug_str:0000000000031b7d .LASF3824
     /tmp/cc2IngwB.s:91661  .debug_str:0000000000007fbd .LASF3825
     /tmp/cc2IngwB.s:97611  .debug_str:000000000001fe3c .LASF3826
     /tmp/cc2IngwB.s:90911  .debug_str:0000000000004e45 .LASF3827
     /tmp/cc2IngwB.s:104279  .debug_str:000000000003a9a8 .LASF3828
     /tmp/cc2IngwB.s:109073  .debug_str:000000000004eecd .LASF3829
     /tmp/cc2IngwB.s:103957  .debug_str:0000000000039789 .LASF3830
     /tmp/cc2IngwB.s:101967  .debug_str:000000000003168f .LASF3831
     /tmp/cc2IngwB.s:96005  .debug_str:0000000000019353 .LASF3832
     /tmp/cc2IngwB.s:98181  .debug_str:0000000000022502 .LASF3833
     /tmp/cc2IngwB.s:103409  .debug_str:0000000000037797 .LASF3834
     /tmp/cc2IngwB.s:104209  .debug_str:000000000003a549 .LASF3835
     /tmp/cc2IngwB.s:90699  .debug_str:0000000000003f4b .LASF3836
     /tmp/cc2IngwB.s:106457  .debug_str:0000000000044050 .LASF3837
     /tmp/cc2IngwB.s:100101  .debug_str:0000000000029f51 .LASF3838
     /tmp/cc2IngwB.s:99937  .debug_str:0000000000029550 .LASF3839
     /tmp/cc2IngwB.s:107595  .debug_str:0000000000048a4b .LASF3840
     /tmp/cc2IngwB.s:109159  .debug_str:000000000004f4bd .LASF3841
     /tmp/cc2IngwB.s:92633  .debug_str:000000000000c342 .LASF3842
     /tmp/cc2IngwB.s:108039  .debug_str:000000000004a72a .LASF3843
     /tmp/cc2IngwB.s:100705  .debug_str:000000000002c664 .LASF3844
     /tmp/cc2IngwB.s:108861  .debug_str:000000000004dee0 .LASF3845
     /tmp/cc2IngwB.s:101815  .debug_str:0000000000030d40 .LASF3846
     /tmp/cc2IngwB.s:109411  .debug_str:00000000000504e0 .LASF3847
     /tmp/cc2IngwB.s:96821  .debug_str:000000000001c872 .LASF3848
     /tmp/cc2IngwB.s:93591  .debug_str:000000000000fb44 .LASF3849
     /tmp/cc2IngwB.s:93075  .debug_str:000000000000dee4 .LASF3850
     /tmp/cc2IngwB.s:95027  .debug_str:000000000001545a .LASF3851
     /tmp/cc2IngwB.s:94825  .debug_str:0000000000014873 .LASF3852
     /tmp/cc2IngwB.s:97977  .debug_str:0000000000021745 .LASF3853
     /tmp/cc2IngwB.s:98255  .debug_str:00000000000229ef .LASF3854
     /tmp/cc2IngwB.s:89855  .debug_str:00000000000005a1 .LASF3855
     /tmp/cc2IngwB.s:94253  .debug_str:00000000000122ee .LASF3856
     /tmp/cc2IngwB.s:107185  .debug_str:0000000000046f25 .LASF3857
     /tmp/cc2IngwB.s:106643  .debug_str:0000000000044c65 .LASF3858
     /tmp/cc2IngwB.s:107405  .debug_str:0000000000047d52 .LASF3859
     /tmp/cc2IngwB.s:104935  .debug_str:000000000003d6a6 .LASF3860
     /tmp/cc2IngwB.s:103261  .debug_str:0000000000036dd1 .LASF3861
     /tmp/cc2IngwB.s:108043  .debug_str:000000000004a74e .LASF3862
     /tmp/cc2IngwB.s:103423  .debug_str:000000000003788f .LASF3863
     /tmp/cc2IngwB.s:106123  .debug_str:0000000000042995 .LASF3864
     /tmp/cc2IngwB.s:92009  .debug_str:000000000000973e .LASF3865
     /tmp/cc2IngwB.s:90687  .debug_str:0000000000003e49 .LASF3866
     /tmp/cc2IngwB.s:107757  .debug_str:000000000004947b .LASF3867
     /tmp/cc2IngwB.s:95579  .debug_str:0000000000017842 .LASF3868
     /tmp/cc2IngwB.s:106693  .debug_str:0000000000044fea .LASF3869
     /tmp/cc2IngwB.s:104239  .debug_str:000000000003a6cf .LASF3870
     /tmp/cc2IngwB.s:95561  .debug_str:00000000000176ed .LASF3871
     /tmp/cc2IngwB.s:104017  .debug_str:0000000000039a6b .LASF3872
     /tmp/cc2IngwB.s:96551  .debug_str:000000000001b749 .LASF3873
     /tmp/cc2IngwB.s:92207  .debug_str:000000000000a4c3 .LASF3874
     /tmp/cc2IngwB.s:93023  .debug_str:000000000000dc94 .LASF3875
     /tmp/cc2IngwB.s:106497  .debug_str:000000000004431c .LASF3876
     /tmp/cc2IngwB.s:105237  .debug_str:000000000003ebdf .LASF3877
     /tmp/cc2IngwB.s:91157  .debug_str:0000000000005e0b .LASF3878
     /tmp/cc2IngwB.s:102057  .debug_str:0000000000031c67 .LASF3879
     /tmp/cc2IngwB.s:109205  .debug_str:000000000004f75b .LASF3880
     /tmp/cc2IngwB.s:99647  .debug_str:0000000000028169 .LASF3881
     /tmp/cc2IngwB.s:101657  .debug_str:000000000003032e .LASF3882
     /tmp/cc2IngwB.s:101405  .debug_str:000000000002f25b .LASF3883
     /tmp/cc2IngwB.s:99047  .debug_str:0000000000025ccc .LASF3884
     /tmp/cc2IngwB.s:103119  .debug_str:0000000000036537 .LASF3885
     /tmp/cc2IngwB.s:106133  .debug_str:0000000000042a42 .LASF3886
     /tmp/cc2IngwB.s:94137  .debug_str:0000000000011b0a .LASF3887
     /tmp/cc2IngwB.s:94945  .debug_str:0000000000014f8e .LASF3888
     /tmp/cc2IngwB.s:93669  .debug_str:00000000000100b8 .LASF3889
     /tmp/cc2IngwB.s:92897  .debug_str:000000000000d4d2 .LASF3890
     /tmp/cc2IngwB.s:107609  .debug_str:0000000000048b21 .LASF3891
     /tmp/cc2IngwB.s:93173  .debug_str:000000000000e46a .LASF3892
     /tmp/cc2IngwB.s:94761  .debug_str:0000000000014480 .LASF3893
     /tmp/cc2IngwB.s:104391  .debug_str:000000000003b190 .LASF3894
     /tmp/cc2IngwB.s:98469  .debug_str:000000000002381a .LASF3895
     /tmp/cc2IngwB.s:106453  .debug_str:0000000000044019 .LASF3896
     /tmp/cc2IngwB.s:102397  .debug_str:000000000003333a .LASF3897
     /tmp/cc2IngwB.s:98713  .debug_str:0000000000024900 .LASF3898
     /tmp/cc2IngwB.s:101629  .debug_str:000000000003014e .LASF3899
     /tmp/cc2IngwB.s:94875  .debug_str:0000000000014bb9 .LASF3900
     /tmp/cc2IngwB.s:98465  .debug_str:00000000000237f1 .LASF3901
     /tmp/cc2IngwB.s:107359  .debug_str:00000000000479fb .LASF3902
     /tmp/cc2IngwB.s:101313  .debug_str:000000000002ec35 .LASF3903
     /tmp/cc2IngwB.s:93175  .debug_str:000000000000e487 .LASF3904
     /tmp/cc2IngwB.s:102305  .debug_str:0000000000032ce9 .LASF3905
     /tmp/cc2IngwB.s:95613  .debug_str:0000000000017af9 .LASF3906
     /tmp/cc2IngwB.s:101573  .debug_str:000000000002fdf4 .LASF3907
     /tmp/cc2IngwB.s:94349  .debug_str:0000000000012906 .LASF3908
     /tmp/cc2IngwB.s:93869  .debug_str:0000000000010b3a .LASF3909
     /tmp/cc2IngwB.s:91499  .debug_str:00000000000075a7 .LASF3910
     /tmp/cc2IngwB.s:101731  .debug_str:0000000000030786 .LASF3911
     /tmp/cc2IngwB.s:100589  .debug_str:000000000002bf0e .LASF3912
     /tmp/cc2IngwB.s:109163  .debug_str:000000000004f4e8 .LASF3913
     /tmp/cc2IngwB.s:108645  .debug_str:000000000004cfcd .LASF3914
     /tmp/cc2IngwB.s:107131  .debug_str:0000000000046bf4 .LASF3915
     /tmp/cc2IngwB.s:102047  .debug_str:0000000000031b94 .LASF3916
     /tmp/cc2IngwB.s:97197  .debug_str:000000000001e1ae .LASF3917
     /tmp/cc2IngwB.s:93605  .debug_str:000000000000fc57 .LASF3918
     /tmp/cc2IngwB.s:104815  .debug_str:000000000003cf43 .LASF3919
     /tmp/cc2IngwB.s:97579  .debug_str:000000000001fc39 .LASF3920
     /tmp/cc2IngwB.s:98619  .debug_str:0000000000024283 .LASF3921
     /tmp/cc2IngwB.s:97049  .debug_str:000000000001d715 .LASF3922
     /tmp/cc2IngwB.s:98703  .debug_str:000000000002480d .LASF3923
     /tmp/cc2IngwB.s:99537  .debug_str:00000000000279d2 .LASF3924
     /tmp/cc2IngwB.s:104811  .debug_str:000000000003cf18 .LASF3925
     /tmp/cc2IngwB.s:102299  .debug_str:0000000000032c64 .LASF3926
     /tmp/cc2IngwB.s:107851  .debug_str:0000000000049afd .LASF3927
     /tmp/cc2IngwB.s:104547  .debug_str:000000000003bce7 .LASF3928
     /tmp/cc2IngwB.s:98755  .debug_str:0000000000024beb .LASF3929
     /tmp/cc2IngwB.s:94951  .debug_str:0000000000014fd7 .LASF3930
     /tmp/cc2IngwB.s:92765  .debug_str:000000000000cbdc .LASF3931
     /tmp/cc2IngwB.s:102485  .debug_str:00000000000338d9 .LASF3932
     /tmp/cc2IngwB.s:101945  .debug_str:000000000003153a .LASF3933
     /tmp/cc2IngwB.s:101559  .debug_str:000000000002fd10 .LASF3934
     /tmp/cc2IngwB.s:100117  .debug_str:000000000002a073 .LASF3935
     /tmp/cc2IngwB.s:99727  .debug_str:0000000000028651 .LASF3936
     /tmp/cc2IngwB.s:94415  .debug_str:0000000000012d9e .LASF3937
     /tmp/cc2IngwB.s:94557  .debug_str:00000000000137fd .LASF3938
     /tmp/cc2IngwB.s:104215  .debug_str:000000000003a58a .LASF3939
     /tmp/cc2IngwB.s:92483  .debug_str:000000000000b83c .LASF3940
     /tmp/cc2IngwB.s:98919  .debug_str:0000000000025581 .LASF3941
     /tmp/cc2IngwB.s:99443  .debug_str:0000000000027433 .LASF3942
     /tmp/cc2IngwB.s:106533  .debug_str:000000000004455e .LASF3943
     /tmp/cc2IngwB.s:107201  .debug_str:0000000000046fe1 .LASF3944
     /tmp/cc2IngwB.s:94931  .debug_str:0000000000014ed8 .LASF3945
     /tmp/cc2IngwB.s:102773  .debug_str:0000000000034ba8 .LASF3946
     /tmp/cc2IngwB.s:106067  .debug_str:0000000000042321 .LASF3947
     /tmp/cc2IngwB.s:95839  .debug_str:00000000000189fe .LASF3948
     /tmp/cc2IngwB.s:96475  .debug_str:000000000001b31a .LASF3949
     /tmp/cc2IngwB.s:95831  .debug_str:0000000000018993 .LASF3950
     /tmp/cc2IngwB.s:98767  .debug_str:0000000000024c8f .LASF3951
     /tmp/cc2IngwB.s:97339  .debug_str:000000000001eb14 .LASF3952
     /tmp/cc2IngwB.s:103293  .debug_str:000000000003701e .LASF3953
     /tmp/cc2IngwB.s:89961  .debug_str:0000000000000c54 .LASF3954
     /tmp/cc2IngwB.s:107719  .debug_str:0000000000049230 .LASF3955
     /tmp/cc2IngwB.s:101409  .debug_str:000000000002f2b7 .LASF3956
     /tmp/cc2IngwB.s:93823  .debug_str:000000000001089e .LASF3957
     /tmp/cc2IngwB.s:91265  .debug_str:00000000000064e1 .LASF3958
     /tmp/cc2IngwB.s:106713  .debug_str:00000000000450fb .LASF3959
     /tmp/cc2IngwB.s:96111  .debug_str:0000000000019b1d .LASF3960
     /tmp/cc2IngwB.s:91069  .debug_str:000000000000584a .LASF3961
     /tmp/cc2IngwB.s:107821  .debug_str:00000000000498ab .LASF3962
     /tmp/cc2IngwB.s:95357  .debug_str:0000000000016903 .LASF3963
     /tmp/cc2IngwB.s:108509  .debug_str:000000000004c71e .LASF3964
     /tmp/cc2IngwB.s:98539  .debug_str:0000000000023d70 .LASF3965
     /tmp/cc2IngwB.s:107763  .debug_str:00000000000494cb .LASF3966
     /tmp/cc2IngwB.s:106631  .debug_str:0000000000044b85 .LASF3967
     /tmp/cc2IngwB.s:98371  .debug_str:00000000000231e9 .LASF3968
     /tmp/cc2IngwB.s:102869  .debug_str:0000000000035331 .LASF3969
     /tmp/cc2IngwB.s:93189  .debug_str:000000000000e543 .LASF3970
     /tmp/cc2IngwB.s:100653  .debug_str:000000000002c241 .LASF3971
     /tmp/cc2IngwB.s:93435  .debug_str:000000000000f1d3 .LASF3972
     /tmp/cc2IngwB.s:105947  .debug_str:0000000000041b00 .LASF3973
     /tmp/cc2IngwB.s:102833  .debug_str:0000000000034fca .LASF3974
     /tmp/cc2IngwB.s:100499  .debug_str:000000000002b8b3 .LASF3975
     /tmp/cc2IngwB.s:108093  .debug_str:000000000004aa7c .LASF3976
     /tmp/cc2IngwB.s:92545  .debug_str:000000000000bce2 .LASF3977
     /tmp/cc2IngwB.s:101427  .debug_str:000000000002f3e2 .LASF3978
     /tmp/cc2IngwB.s:107447  .debug_str:000000000004801e .LASF3979
     /tmp/cc2IngwB.s:102763  .debug_str:0000000000034b27 .LASF3980
     /tmp/cc2IngwB.s:95953  .debug_str:0000000000018f93 .LASF3981
     /tmp/cc2IngwB.s:89995  .debug_str:0000000000000ead .LASF3982
     /tmp/cc2IngwB.s:107695  .debug_str:00000000000490bd .LASF3983
     /tmp/cc2IngwB.s:108261  .debug_str:000000000004b5ac .LASF3984
     /tmp/cc2IngwB.s:93929  .debug_str:0000000000010df7 .LASF3985
     /tmp/cc2IngwB.s:103105  .debug_str:000000000003641d .LASF3986
     /tmp/cc2IngwB.s:102199  .debug_str:0000000000032538 .LASF3987
     /tmp/cc2IngwB.s:104227  .debug_str:000000000003a630 .LASF3988
     /tmp/cc2IngwB.s:94279  .debug_str:00000000000124c9 .LASF3989
     /tmp/cc2IngwB.s:93931  .debug_str:0000000000010e07 .LASF3990
     /tmp/cc2IngwB.s:91861  .debug_str:0000000000008d87 .LASF3991
     /tmp/cc2IngwB.s:96823  .debug_str:000000000001c889 .LASF3992
     /tmp/cc2IngwB.s:98363  .debug_str:0000000000023151 .LASF3993
     /tmp/cc2IngwB.s:96613  .debug_str:000000000001bb33 .LASF3994
     /tmp/cc2IngwB.s:98433  .debug_str:000000000002359b .LASF3995
     /tmp/cc2IngwB.s:103329  .debug_str:00000000000372a0 .LASF3996
     /tmp/cc2IngwB.s:92689  .debug_str:000000000000c687 .LASF3997
     /tmp/cc2IngwB.s:109233  .debug_str:000000000004f9b8 .LASF3998
     /tmp/cc2IngwB.s:101963  .debug_str:000000000003165f .LASF3999
     /tmp/cc2IngwB.s:99117  .debug_str:0000000000026058 .LASF4000
     /tmp/cc2IngwB.s:105965  .debug_str:0000000000041c92 .LASF4001
     /tmp/cc2IngwB.s:104921  .debug_str:000000000003d5c1 .LASF4002
     /tmp/cc2IngwB.s:99415  .debug_str:0000000000027296 .LASF4003
     /tmp/cc2IngwB.s:97563  .debug_str:000000000001fb4e .LASF4004
     /tmp/cc2IngwB.s:95205  .debug_str:000000000001603e .LASF4005
     /tmp/cc2IngwB.s:108585  .debug_str:000000000004cbdf .LASF4006
     /tmp/cc2IngwB.s:102813  .debug_str:0000000000034e8c .LASF4007
     /tmp/cc2IngwB.s:102099  .debug_str:0000000000031f5f .LASF4008
     /tmp/cc2IngwB.s:95345  .debug_str:00000000000168a7 .LASF4009
     /tmp/cc2IngwB.s:91469  .debug_str:00000000000073db .LASF4010
     /tmp/cc2IngwB.s:96843  .debug_str:000000000001c9aa .LASF4011
     /tmp/cc2IngwB.s:98543  .debug_str:0000000000023d9b .LASF4012
     /tmp/cc2IngwB.s:91595  .debug_str:0000000000007bb0 .LASF4013
     /tmp/cc2IngwB.s:95549  .debug_str:00000000000175d6 .LASF4014
     /tmp/cc2IngwB.s:105245  .debug_str:000000000003ec41 .LASF4015
     /tmp/cc2IngwB.s:97599  .debug_str:000000000001fda0 .LASF4016
     /tmp/cc2IngwB.s:98397  .debug_str:000000000002338a .LASF4017
     /tmp/cc2IngwB.s:96895  .debug_str:000000000001cd72 .LASF4018
     /tmp/cc2IngwB.s:101661  .debug_str:000000000003036b .LASF4019
     /tmp/cc2IngwB.s:100521  .debug_str:000000000002bab5 .LASF4020
     /tmp/cc2IngwB.s:104709  .debug_str:000000000003c796 .LASF4021
     /tmp/cc2IngwB.s:107467  .debug_str:000000000004813e .LASF4022
     /tmp/cc2IngwB.s:99265  .debug_str:0000000000026876 .LASF4023
     /tmp/cc2IngwB.s:100975  .debug_str:000000000002d664 .LASF4024
     /tmp/cc2IngwB.s:106979  .debug_str:00000000000461ff .LASF4025
     /tmp/cc2IngwB.s:99235  .debug_str:00000000000266d9 .LASF4026
     /tmp/cc2IngwB.s:108771  .debug_str:000000000004d964 .LASF4027
     /tmp/cc2IngwB.s:92797  .debug_str:000000000000ce63 .LASF4028
     /tmp/cc2IngwB.s:98461  .debug_str:00000000000237ce .LASF4029
     /tmp/cc2IngwB.s:97011  .debug_str:000000000001d491 .LASF4030
     /tmp/cc2IngwB.s:104899  .debug_str:000000000003d467 .LASF4031
     /tmp/cc2IngwB.s:109043  .debug_str:000000000004ec72 .LASF4032
     /tmp/cc2IngwB.s:97519  .debug_str:000000000001f7d3 .LASF4033
     /tmp/cc2IngwB.s:107179  .debug_str:0000000000046e9d .LASF4034
     /tmp/cc2IngwB.s:104583  .debug_str:000000000003bef5 .LASF4035
     /tmp/cc2IngwB.s:106155  .debug_str:0000000000042bbd .LASF4036
     /tmp/cc2IngwB.s:109123  .debug_str:000000000004f243 .LASF4037
     /tmp/cc2IngwB.s:109237  .debug_str:000000000004f9e5 .LASF4038
     /tmp/cc2IngwB.s:92847  .debug_str:000000000000d11e .LASF4039
     /tmp/cc2IngwB.s:106835  .debug_str:00000000000458d4 .LASF4040
     /tmp/cc2IngwB.s:105821  .debug_str:000000000004103c .LASF4041
     /tmp/cc2IngwB.s:90239  .debug_str:00000000000020bf .LASF4042
     /tmp/cc2IngwB.s:91269  .debug_str:0000000000006518 .LASF4043
     /tmp/cc2IngwB.s:92381  .debug_str:000000000000b0f4 .LASF4044
     /tmp/cc2IngwB.s:102551  .debug_str:0000000000033df4 .LASF4045
     /tmp/cc2IngwB.s:99741  .debug_str:0000000000028727 .LASF4046
     /tmp/cc2IngwB.s:100739  .debug_str:000000000002c850 .LASF4047
     /tmp/cc2IngwB.s:107749  .debug_str:00000000000493f5 .LASF4048
     /tmp/cc2IngwB.s:106847  .debug_str:0000000000045983 .LASF4049
     /tmp/cc2IngwB.s:97507  .debug_str:000000000001f705 .LASF4050
     /tmp/cc2IngwB.s:96921  .debug_str:000000000001cf08 .LASF4051
     /tmp/cc2IngwB.s:100519  .debug_str:000000000002baa3 .LASF4052
     /tmp/cc2IngwB.s:107905  .debug_str:0000000000049e8d .LASF4053
     /tmp/cc2IngwB.s:90307  .debug_str:0000000000002542 .LASF4054
     /tmp/cc2IngwB.s:102893  .debug_str:0000000000035459 .LASF4055
     /tmp/cc2IngwB.s:107347  .debug_str:0000000000047996 .LASF4056
     /tmp/cc2IngwB.s:97009  .debug_str:000000000001d482 .LASF4057
     /tmp/cc2IngwB.s:106637  .debug_str:0000000000044c12 .LASF4058
     /tmp/cc2IngwB.s:92931  .debug_str:000000000000d6b2 .LASF4059
     /tmp/cc2IngwB.s:102569  .debug_str:0000000000033eeb .LASF4060
     /tmp/cc2IngwB.s:97241  .debug_str:000000000001e4c4 .LASF4061
     /tmp/cc2IngwB.s:97313  .debug_str:000000000001e99f .LASF4062
     /tmp/cc2IngwB.s:98253  .debug_str:00000000000229e0 .LASF4063
     /tmp/cc2IngwB.s:103335  .debug_str:0000000000037312 .LASF4064
     /tmp/cc2IngwB.s:95935  .debug_str:0000000000018efb .LASF4065
     /tmp/cc2IngwB.s:103963  .debug_str:00000000000397d6 .LASF4066
     /tmp/cc2IngwB.s:98009  .debug_str:00000000000219a4 .LASF4067
     /tmp/cc2IngwB.s:100841  .debug_str:000000000002cdfa .LASF4068
     /tmp/cc2IngwB.s:90189  .debug_str:0000000000001d4b .LASF4069
     /tmp/cc2IngwB.s:102009  .debug_str:000000000003194d .LASF4070
     /tmp/cc2IngwB.s:102853  .debug_str:0000000000035228 .LASF4071
     /tmp/cc2IngwB.s:102619  .debug_str:0000000000034250 .LASF4072
     /tmp/cc2IngwB.s:108485  .debug_str:000000000004c575 .LASF4073
     /tmp/cc2IngwB.s:94009  .debug_str:0000000000011301 .LASF4074
     /tmp/cc2IngwB.s:92827  .debug_str:000000000000d041 .LASF4075
     /tmp/cc2IngwB.s:92455  .debug_str:000000000000b693 .LASF4076
     /tmp/cc2IngwB.s:99307  .debug_str:0000000000026b0f .LASF4077
     /tmp/cc2IngwB.s:96583  .debug_str:000000000001b99c .LASF4078
     /tmp/cc2IngwB.s:95035  .debug_str:0000000000015503 .LASF4079
     /tmp/cc2IngwB.s:94307  .debug_str:00000000000126b2 .LASF4080
     /tmp/cc2IngwB.s:90165  .debug_str:0000000000001b59 .LASF4081
     /tmp/cc2IngwB.s:91329  .debug_str:00000000000068c6 .LASF4082
     /tmp/cc2IngwB.s:101333  .debug_str:000000000002edc1 .LASF4083
     /tmp/cc2IngwB.s:90651  .debug_str:0000000000003be5 .LASF4084
     /tmp/cc2IngwB.s:107433  .debug_str:0000000000047f61 .LASF4085
     /tmp/cc2IngwB.s:90477  .debug_str:0000000000003103 .LASF4086
     /tmp/cc2IngwB.s:98175  .debug_str:0000000000022477 .LASF4087
     /tmp/cc2IngwB.s:108717  .debug_str:000000000004d511 .LASF4088
     /tmp/cc2IngwB.s:99861  .debug_str:0000000000028fc8 .LASF4089
     /tmp/cc2IngwB.s:99689  .debug_str:00000000000283f2 .LASF4090
     /tmp/cc2IngwB.s:104799  .debug_str:000000000003ce43 .LASF4091
     /tmp/cc2IngwB.s:97973  .debug_str:000000000002171f .LASF4092
     /tmp/cc2IngwB.s:91917  .debug_str:0000000000009140 .LASF4093
     /tmp/cc2IngwB.s:96329  .debug_str:000000000001a9c3 .LASF4094
     /tmp/cc2IngwB.s:98925  .debug_str:00000000000255c6 .LASF4095
     /tmp/cc2IngwB.s:97051  .debug_str:000000000001d727 .LASF4096
     /tmp/cc2IngwB.s:94465  .debug_str:0000000000013141 .LASF4097
     /tmp/cc2IngwB.s:98905  .debug_str:00000000000254c2 .LASF4098
     /tmp/cc2IngwB.s:100109  .debug_str:000000000002a002 .LASF4099
     /tmp/cc2IngwB.s:108757  .debug_str:000000000004d83b .LASF4100
     /tmp/cc2IngwB.s:94907  .debug_str:0000000000014dd1 .LASF4101
     /tmp/cc2IngwB.s:97063  .debug_str:000000000001d808 .LASF4102
     /tmp/cc2IngwB.s:101581  .debug_str:000000000002fe85 .LASF4103
     /tmp/cc2IngwB.s:100965  .debug_str:000000000002d5d4 .LASF4104
     /tmp/cc2IngwB.s:104361  .debug_str:000000000003af60 .LASF4105
     /tmp/cc2IngwB.s:93009  .debug_str:000000000000dba0 .LASF4106
     /tmp/cc2IngwB.s:101645  .debug_str:0000000000030276 .LASF4107
     /tmp/cc2IngwB.s:96947  .debug_str:000000000001d0ac .LASF4108
     /tmp/cc2IngwB.s:99845  .debug_str:0000000000028eda .LASF4109
     /tmp/cc2IngwB.s:101255  .debug_str:000000000002e871 .LASF4110
     /tmp/cc2IngwB.s:105509  .debug_str:000000000003fcb2 .LASF4111
     /tmp/cc2IngwB.s:106269  .debug_str:000000000004340e .LASF4112
     /tmp/cc2IngwB.s:105665  .debug_str:000000000004064d .LASF4113
     /tmp/cc2IngwB.s:100537  .debug_str:000000000002bbb5 .LASF4114
     /tmp/cc2IngwB.s:104403  .debug_str:000000000003b230 .LASF4115
     /tmp/cc2IngwB.s:91183  .debug_str:0000000000005f69 .LASF4116
     /tmp/cc2IngwB.s:98771  .debug_str:0000000000024cb3 .LASF4117
     /tmp/cc2IngwB.s:108367  .debug_str:000000000004bd72 .LASF4118
     /tmp/cc2IngwB.s:106157  .debug_str:0000000000042bce .LASF4119
     /tmp/cc2IngwB.s:95317  .debug_str:0000000000016672 .LASF4120
     /tmp/cc2IngwB.s:89917  .debug_str:00000000000009a9 .LASF4121
     /tmp/cc2IngwB.s:92449  .debug_str:000000000000b61f .LASF4122
     /tmp/cc2IngwB.s:98279  .debug_str:0000000000022b89 .LASF4123
     /tmp/cc2IngwB.s:107205  .debug_str:0000000000046ff9 .LASF4124
     /tmp/cc2IngwB.s:102807  .debug_str:0000000000034e09 .LASF4125
     /tmp/cc2IngwB.s:91813  .debug_str:0000000000008a4c .LASF4126
     /tmp/cc2IngwB.s:109503  .debug_str:0000000000050aff .LASF4127
     /tmp/cc2IngwB.s:96001  .debug_str:0000000000019331 .LASF4128
     /tmp/cc2IngwB.s:98071  .debug_str:0000000000021e3d .LASF4129
     /tmp/cc2IngwB.s:97867  .debug_str:0000000000021069 .LASF4130
     /tmp/cc2IngwB.s:103579  .debug_str:00000000000381f0 .LASF4131
     /tmp/cc2IngwB.s:102149  .debug_str:00000000000321f7 .LASF4132
     /tmp/cc2IngwB.s:105037  .debug_str:000000000003dd40 .LASF4133
     /tmp/cc2IngwB.s:99185  .debug_str:0000000000026342 .LASF4134
     /tmp/cc2IngwB.s:97357  .debug_str:000000000001ecb2 .LASF4135
     /tmp/cc2IngwB.s:101541  .debug_str:000000000002fc29 .LASF4136
     /tmp/cc2IngwB.s:101475  .debug_str:000000000002f6ed .LASF4137
     /tmp/cc2IngwB.s:107537  .debug_str:0000000000048607 .LASF4138
     /tmp/cc2IngwB.s:90383  .debug_str:0000000000002a6e .LASF4139
     /tmp/cc2IngwB.s:99091  .debug_str:0000000000025e74 .LASF4140
     /tmp/cc2IngwB.s:105627  .debug_str:0000000000040426 .LASF4141
     /tmp/cc2IngwB.s:101869  .debug_str:00000000000310f3 .LASF4142
     /tmp/cc2IngwB.s:101445  .debug_str:000000000002f4b5 .LASF4143
     /tmp/cc2IngwB.s:91263  .debug_str:00000000000064c6 .LASF4144
     /tmp/cc2IngwB.s:108855  .debug_str:000000000004de38 .LASF4145
     /tmp/cc2IngwB.s:98885  .debug_str:0000000000025371 .LASF4146
     /tmp/cc2IngwB.s:92623  .debug_str:000000000000c28d .LASF4147
     /tmp/cc2IngwB.s:92287  .debug_str:000000000000aa9e .LASF4148
     /tmp/cc2IngwB.s:96139  .debug_str:0000000000019d2e .LASF4149
     /tmp/cc2IngwB.s:102007  .debug_str:0000000000031937 .LASF4150
     /tmp/cc2IngwB.s:94535  .debug_str:0000000000013688 .LASF4151
     /tmp/cc2IngwB.s:91723  .debug_str:00000000000083cd .LASF4152
     /tmp/cc2IngwB.s:94477  .debug_str:00000000000131d6 .LASF4153
     /tmp/cc2IngwB.s:109003  .debug_str:000000000004ea26 .LASF4154
     /tmp/cc2IngwB.s:101165  .debug_str:000000000002e27a .LASF4155
     /tmp/cc2IngwB.s:106507  .debug_str:00000000000443bb .LASF4156
     /tmp/cc2IngwB.s:104207  .debug_str:000000000003a534 .LASF4157
     /tmp/cc2IngwB.s:96091  .debug_str:00000000000199eb .LASF4158
     /tmp/cc2IngwB.s:102327  .debug_str:0000000000032e57 .LASF4159
     /tmp/cc2IngwB.s:91567  .debug_str:0000000000007a10 .LASF4160
     /tmp/cc2IngwB.s:106523  .debug_str:00000000000444ba .LASF4161
     /tmp/cc2IngwB.s:91309  .debug_str:00000000000067a5 .LASF4162
     /tmp/cc2IngwB.s:95539  .debug_str:000000000001755a .LASF4163
     /tmp/cc2IngwB.s:96213  .debug_str:000000000001a24b .LASF4164
     /tmp/cc2IngwB.s:101061  .debug_str:000000000002db4d .LASF4165
     /tmp/cc2IngwB.s:95763  .debug_str:00000000000184c9 .LASF4166
     /tmp/cc2IngwB.s:99701  .debug_str:0000000000028504 .LASF4167
     /tmp/cc2IngwB.s:91741  .debug_str:0000000000008535 .LASF4168
     /tmp/cc2IngwB.s:93317  .debug_str:000000000000ec7c .LASF4169
     /tmp/cc2IngwB.s:95911  .debug_str:0000000000018d92 .LASF4170
     /tmp/cc2IngwB.s:101015  .debug_str:000000000002d8cf .LASF4171
     /tmp/cc2IngwB.s:99259  .debug_str:0000000000026841 .LASF4172
     /tmp/cc2IngwB.s:93937  .debug_str:0000000000010ea1 .LASF4173
     /tmp/cc2IngwB.s:91293  .debug_str:00000000000066f7 .LASF4174
     /tmp/cc2IngwB.s:108465  .debug_str:000000000004c419 .LASF4175
     /tmp/cc2IngwB.s:93833  .debug_str:0000000000010962 .LASF4176
     /tmp/cc2IngwB.s:107687  .debug_str:000000000004901f .LASF4177
     /tmp/cc2IngwB.s:100367  .debug_str:000000000002b051 .LASF4178
     /tmp/cc2IngwB.s:96607  .debug_str:000000000001badd .LASF4179
     /tmp/cc2IngwB.s:94947  .debug_str:0000000000014fb0 .LASF4180
     /tmp/cc2IngwB.s:102655  .debug_str:00000000000344ac .LASF4181
     /tmp/cc2IngwB.s:91649  .debug_str:0000000000007f21 .LASF4182
     /tmp/cc2IngwB.s:107177  .debug_str:0000000000046e86 .LASF4183
     /tmp/cc2IngwB.s:100433  .debug_str:000000000002b546 .LASF4184
     /tmp/cc2IngwB.s:91199  .debug_str:00000000000060a9 .LASF4185
     /tmp/cc2IngwB.s:95231  .debug_str:00000000000161c0 .LASF4186
     /tmp/cc2IngwB.s:104777  .debug_str:000000000003cc8c .LASF4187
     /tmp/cc2IngwB.s:108275  .debug_str:000000000004b687 .LASF4188
     /tmp/cc2IngwB.s:104555  .debug_str:000000000003bd5e .LASF4189
     /tmp/cc2IngwB.s:100083  .debug_str:0000000000029e58 .LASF4190
     /tmp/cc2IngwB.s:101787  .debug_str:0000000000030b18 .LASF4191
     /tmp/cc2IngwB.s:105687  .debug_str:00000000000407aa .LASF4192
     /tmp/cc2IngwB.s:109113  .debug_str:000000000004f1bb .LASF4193
     /tmp/cc2IngwB.s:93183  .debug_str:000000000000e512 .LASF4194
     /tmp/cc2IngwB.s:95031  .debug_str:00000000000154c8 .LASF4195
     /tmp/cc2IngwB.s:100973  .debug_str:000000000002d64c .LASF4196
     /tmp/cc2IngwB.s:98621  .debug_str:0000000000024295 .LASF4197
     /tmp/cc2IngwB.s:99007  .debug_str:00000000000259fb .LASF4198
     /tmp/cc2IngwB.s:98661  .debug_str:0000000000024572 .LASF4199
     /tmp/cc2IngwB.s:99753  .debug_str:00000000000287ed .LASF4200
     /tmp/cc2IngwB.s:104665  .debug_str:000000000003c46d .LASF4201
     /tmp/cc2IngwB.s:92413  .debug_str:000000000000b34c .LASF4202
     /tmp/cc2IngwB.s:91989  .debug_str:000000000000962a .LASF4203
     /tmp/cc2IngwB.s:103045  .debug_str:0000000000035f90 .LASF4204
     /tmp/cc2IngwB.s:109497  .debug_str:0000000000050aa2 .LASF4205
     /tmp/cc2IngwB.s:97773  .debug_str:0000000000020a43 .LASF4206
     /tmp/cc2IngwB.s:104405  .debug_str:000000000003b249 .LASF4207
     /tmp/cc2IngwB.s:99705  .debug_str:0000000000028531 .LASF4208
     /tmp/cc2IngwB.s:91799  .debug_str:0000000000008931 .LASF4209
     /tmp/cc2IngwB.s:106949  .debug_str:0000000000045fed .LASF4210
     /tmp/cc2IngwB.s:94943  .debug_str:0000000000014f76 .LASF4211
     /tmp/cc2IngwB.s:108237  .debug_str:000000000004b3e1 .LASF4212
     /tmp/cc2IngwB.s:107793  .debug_str:00000000000496d1 .LASF4213
     /tmp/cc2IngwB.s:98039  .debug_str:0000000000021bd2 .LASF4214
     /tmp/cc2IngwB.s:90513  .debug_str:0000000000003301 .LASF4215
     /tmp/cc2IngwB.s:103153  .debug_str:000000000003671f .LASF4216
     /tmp/cc2IngwB.s:89867  .debug_str:0000000000000678 .LASF4217
     /tmp/cc2IngwB.s:109369  .debug_str:000000000005020c .LASF4218
     /tmp/cc2IngwB.s:90223  .debug_str:0000000000001fa0 .LASF4219
     /tmp/cc2IngwB.s:101269  .debug_str:000000000002e911 .LASF4220
     /tmp/cc2IngwB.s:109461  .debug_str:000000000005082c .LASF4221
     /tmp/cc2IngwB.s:108563  .debug_str:000000000004ca67 .LASF4222
     /tmp/cc2IngwB.s:92387  .debug_str:000000000000b12c .LASF4223
     /tmp/cc2IngwB.s:107453  .debug_str:000000000004804d .LASF4224
     /tmp/cc2IngwB.s:97145  .debug_str:000000000001ddbc .LASF4225
     /tmp/cc2IngwB.s:108863  .debug_str:000000000004def6 .LASF4226
     /tmp/cc2IngwB.s:100365  .debug_str:000000000002b03a .LASF4227
     /tmp/cc2IngwB.s:99613  .debug_str:0000000000027f13 .LASF4228
     /tmp/cc2IngwB.s:92315  .debug_str:000000000000ac10 .LASF4229
     /tmp/cc2IngwB.s:90355  .debug_str:00000000000028b1 .LASF4230
     /tmp/cc2IngwB.s:106947  .debug_str:0000000000045fd6 .LASF4231
     /tmp/cc2IngwB.s:97557  .debug_str:000000000001faca .LASF4232
     /tmp/cc2IngwB.s:95863  .debug_str:0000000000018b8e .LASF4233
     /tmp/cc2IngwB.s:99039  .debug_str:0000000000025c63 .LASF4234
     /tmp/cc2IngwB.s:97469  .debug_str:000000000001f365 .LASF4235
     /tmp/cc2IngwB.s:90855  .debug_str:0000000000004a64 .LASF4236
     /tmp/cc2IngwB.s:90645  .debug_str:0000000000003b7f .LASF4237
     /tmp/cc2IngwB.s:95971  .debug_str:0000000000019100 .LASF4238
     /tmp/cc2IngwB.s:92905  .debug_str:000000000000d563 .LASF4239
     /tmp/cc2IngwB.s:100327  .debug_str:000000000002adab .LASF4240
     /tmp/cc2IngwB.s:96993  .debug_str:000000000001d396 .LASF4241
     /tmp/cc2IngwB.s:106159  .debug_str:0000000000042be7 .LASF4242
     /tmp/cc2IngwB.s:100637  .debug_str:000000000002c142 .LASF4243
     /tmp/cc2IngwB.s:91009  .debug_str:00000000000053fe .LASF4244
     /tmp/cc2IngwB.s:104087  .debug_str:0000000000039dce .LASF4245
     /tmp/cc2IngwB.s:104953  .debug_str:000000000003d7af .LASF4246
     /tmp/cc2IngwB.s:93517  .debug_str:000000000000f72c .LASF4247
     /tmp/cc2IngwB.s:97885  .debug_str:0000000000021184 .LASF4248
     /tmp/cc2IngwB.s:90593  .debug_str:00000000000037e2 .LASF4249
     /tmp/cc2IngwB.s:104251  .debug_str:000000000003a7a3 .LASF4250
     /tmp/cc2IngwB.s:104585  .debug_str:000000000003bf08 .LASF4251
     /tmp/cc2IngwB.s:105479  .debug_str:000000000003fafa .LASF4252
     /tmp/cc2IngwB.s:102695  .debug_str:0000000000034719 .LASF4253
     /tmp/cc2IngwB.s:107335  .debug_str:00000000000478f8 .LASF4254
     /tmp/cc2IngwB.s:100755  .debug_str:000000000002c906 .LASF4255
     /tmp/cc2IngwB.s:97569  .debug_str:000000000001fb9d .LASF4256
     /tmp/cc2IngwB.s:94257  .debug_str:0000000000012313 .LASF4257
     /tmp/cc2IngwB.s:103243  .debug_str:0000000000036cd5 .LASF4258
     /tmp/cc2IngwB.s:96869  .debug_str:000000000001cbad .LASF4259
     /tmp/cc2IngwB.s:92063  .debug_str:0000000000009b2e .LASF4260
     /tmp/cc2IngwB.s:104037  .debug_str:0000000000039bbc .LASF4261
     /tmp/cc2IngwB.s:101389  .debug_str:000000000002f17f .LASF4262
     /tmp/cc2IngwB.s:92857  .debug_str:000000000000d1f3 .LASF4263
     /tmp/cc2IngwB.s:105217  .debug_str:000000000003ea76 .LASF4264
     /tmp/cc2IngwB.s:99933  .debug_str:0000000000029511 .LASF4265
     /tmp/cc2IngwB.s:98595  .debug_str:00000000000240f7 .LASF4266
     /tmp/cc2IngwB.s:109367  .debug_str:00000000000501f6 .LASF4267
     /tmp/cc2IngwB.s:99331  .debug_str:0000000000026ced .LASF4268
     /tmp/cc2IngwB.s:92313  .debug_str:000000000000abfa .LASF4269
     /tmp/cc2IngwB.s:103295  .debug_str:000000000003702a .LASF4270
     /tmp/cc2IngwB.s:108979  .debug_str:000000000004e866 .LASF4271
     /tmp/cc2IngwB.s:104185  .debug_str:000000000003a40e .LASF4272
     /tmp/cc2IngwB.s:94411  .debug_str:0000000000012d43 .LASF4273
     /tmp/cc2IngwB.s:105419  .debug_str:000000000003f6e5 .LASF4274
     /tmp/cc2IngwB.s:90073  .debug_str:0000000000001424 .LASF4275
     /tmp/cc2IngwB.s:103007  .debug_str:0000000000035cc8 .LASF4276
     /tmp/cc2IngwB.s:91297  .debug_str:0000000000006717 .LASF4277
     /tmp/cc2IngwB.s:94757  .debug_str:0000000000014451 .LASF4278
     /tmp/cc2IngwB.s:93429  .debug_str:000000000000f195 .LASF4279
     /tmp/cc2IngwB.s:96241  .debug_str:000000000001a3e8 .LASF4280
     /tmp/cc2IngwB.s:91959  .debug_str:00000000000093b3 .LASF4281
     /tmp/cc2IngwB.s:94441  .debug_str:0000000000012f40 .LASF4282
     /tmp/cc2IngwB.s:109055  .debug_str:000000000004ed46 .LASF4283
     /tmp/cc2IngwB.s:97311  .debug_str:000000000001e985 .LASF4284
     /tmp/cc2IngwB.s:106249  .debug_str:00000000000432c9 .LASF4285
     /tmp/cc2IngwB.s:98835  .debug_str:00000000000250c3 .LASF4286
     /tmp/cc2IngwB.s:97941  .debug_str:0000000000021513 .LASF4287
     /tmp/cc2IngwB.s:106897  .debug_str:0000000000045c52 .LASF4288
     /tmp/cc2IngwB.s:104801  .debug_str:000000000003ce57 .LASF4289
     /tmp/cc2IngwB.s:90559  .debug_str:0000000000003568 .LASF4290
     /tmp/cc2IngwB.s:99471  .debug_str:00000000000275d5 .LASF4291
     /tmp/cc2IngwB.s:108599  .debug_str:000000000004cc9e .LASF4292
     /tmp/cc2IngwB.s:104971  .debug_str:000000000003d8c3 .LASF4293
     /tmp/cc2IngwB.s:94309  .debug_str:00000000000126c7 .LASF4294
     /tmp/cc2IngwB.s:106801  .debug_str:00000000000456bb .LASF4295
     /tmp/cc2IngwB.s:97643  .debug_str:000000000002005e .LASF4296
     /tmp/cc2IngwB.s:108901  .debug_str:000000000004e1c5 .LASF4297
     /tmp/cc2IngwB.s:103711  .debug_str:0000000000038a8e .LASF4298
     /tmp/cc2IngwB.s:106277  .debug_str:000000000004347b .LASF4299
     /tmp/cc2IngwB.s:94117  .debug_str:000000000001194f .LASF4300
     /tmp/cc2IngwB.s:100389  .debug_str:000000000002b1ac .LASF4301
     /tmp/cc2IngwB.s:108165  .debug_str:000000000004ae66 .LASF4302
     /tmp/cc2IngwB.s:101215  .debug_str:000000000002e5bf .LASF4303
     /tmp/cc2IngwB.s:93417  .debug_str:000000000000f0be .LASF4304
     /tmp/cc2IngwB.s:91867  .debug_str:0000000000008dc8 .LASF4305
     /tmp/cc2IngwB.s:93879  .debug_str:0000000000010bde .LASF4306
     /tmp/cc2IngwB.s:107233  .debug_str:000000000004720a .LASF4307
     /tmp/cc2IngwB.s:94091  .debug_str:00000000000117cf .LASF4308
     /tmp/cc2IngwB.s:90225  .debug_str:0000000000001fb7 .LASF4309
     /tmp/cc2IngwB.s:93747  .debug_str:0000000000010458 .LASF4310
     /tmp/cc2IngwB.s:109457  .debug_str:0000000000050807 .LASF4311
     /tmp/cc2IngwB.s:102733  .debug_str:0000000000034975 .LASF4312
     /tmp/cc2IngwB.s:109061  .debug_str:000000000004edc0 .LASF4313
     /tmp/cc2IngwB.s:90051  .debug_str:00000000000012a3 .LASF4314
     /tmp/cc2IngwB.s:106435  .debug_str:0000000000043eab .LASF4315
     /tmp/cc2IngwB.s:107697  .debug_str:00000000000490cd .LASF4316
     /tmp/cc2IngwB.s:95665  .debug_str:0000000000017ee9 .LASF4317
     /tmp/cc2IngwB.s:98271  .debug_str:0000000000022b16 .LASF4318
     /tmp/cc2IngwB.s:90435  .debug_str:0000000000002d92 .LASF4319
     /tmp/cc2IngwB.s:95655  .debug_str:0000000000017e15 .LASF4320
     /tmp/cc2IngwB.s:104941  .debug_str:000000000003d6f1 .LASF4321
     /tmp/cc2IngwB.s:104907  .debug_str:000000000003d4d4 .LASF4322
     /tmp/cc2IngwB.s:95699  .debug_str:0000000000018132 .LASF4323
     /tmp/cc2IngwB.s:104241  .debug_str:000000000003a6e1 .LASF4324
     /tmp/cc2IngwB.s:93871  .debug_str:0000000000010b4c .LASF4325
     /tmp/cc2IngwB.s:101191  .debug_str:000000000002e428 .LASF4326
     /tmp/cc2IngwB.s:102169  .debug_str:000000000003233a .LASF4327
     /tmp/cc2IngwB.s:109481  .debug_str:00000000000509cc .LASF4328
     /tmp/cc2IngwB.s:105065  .debug_str:000000000003df61 .LASF4329
     /tmp/cc2IngwB.s:90063  .debug_str:0000000000001376 .LASF4330
     /tmp/cc2IngwB.s:94093  .debug_str:00000000000117e9 .LASF4331
     /tmp/cc2IngwB.s:101289  .debug_str:000000000002ea94 .LASF4332
     /tmp/cc2IngwB.s:97061  .debug_str:000000000001d7ef .LASF4333
     /tmp/cc2IngwB.s:99721  .debug_str:0000000000028601 .LASF4334
     /tmp/cc2IngwB.s:100041  .debug_str:0000000000029b61 .LASF4335
     /tmp/cc2IngwB.s:100445  .debug_str:000000000002b5d7 .LASF4336
     /tmp/cc2IngwB.s:103103  .debug_str:0000000000036405 .LASF4337
     /tmp/cc2IngwB.s:109051  .debug_str:000000000004ed2c .LASF4338
     /tmp/cc2IngwB.s:100267  .debug_str:000000000002aacf .LASF4339
     /tmp/cc2IngwB.s:108159  .debug_str:000000000004ae0f .LASF4340
     /tmp/cc2IngwB.s:92077  .debug_str:0000000000009c6a .LASF4341
     /tmp/cc2IngwB.s:100019  .debug_str:0000000000029a0e .LASF4342
     /tmp/cc2IngwB.s:102815  .debug_str:0000000000034e9e .LASF4343
     /tmp/cc2IngwB.s:104987  .debug_str:000000000003d9df .LASF4344
     /tmp/cc2IngwB.s:98147  .debug_str:0000000000022346 .LASF4345
     /tmp/cc2IngwB.s:93081  .debug_str:000000000000df28 .LASF4346
     /tmp/cc2IngwB.s:107661  .debug_str:0000000000048e7a .LASF4347
     /tmp/cc2IngwB.s:98169  .debug_str:000000000002243e .LASF4348
     /tmp/cc2IngwB.s:108265  .debug_str:000000000004b5d6 .LASF4349
     /tmp/cc2IngwB.s:102979  .debug_str:0000000000035abd .LASF4350
     /tmp/cc2IngwB.s:109127  .debug_str:000000000004f275 .LASF4351
     /tmp/cc2IngwB.s:106369  .debug_str:0000000000043a3b .LASF4352
     /tmp/cc2IngwB.s:105239  .debug_str:000000000003ebf7 .LASF4353
     /tmp/cc2IngwB.s:90289  .debug_str:0000000000002463 .LASF4354
     /tmp/cc2IngwB.s:107195  .debug_str:0000000000046f87 .LASF4355
     /tmp/cc2IngwB.s:97081  .debug_str:000000000001d8f8 .LASF4356
     /tmp/cc2IngwB.s:95683  .debug_str:000000000001800c .LASF4357
     /tmp/cc2IngwB.s:91389  .debug_str:0000000000006d99 .LASF4358
     /tmp/cc2IngwB.s:103035  .debug_str:0000000000035f02 .LASF4359
     /tmp/cc2IngwB.s:107283  .debug_str:0000000000047508 .LASF4360
     /tmp/cc2IngwB.s:104739  .debug_str:000000000003c9f3 .LASF4361
     /tmp/cc2IngwB.s:99517  .debug_str:000000000002784a .LASF4362
     /tmp/cc2IngwB.s:104191  .debug_str:000000000003a471 .LASF4363
     /tmp/cc2IngwB.s:101667  .debug_str:00000000000303f4 .LASF4364
     /tmp/cc2IngwB.s:103379  .debug_str:0000000000037584 .LASF4365
     /tmp/cc2IngwB.s:107777  .debug_str:00000000000495c6 .LASF4366
     /tmp/cc2IngwB.s:98171  .debug_str:000000000002244f .LASF4367
     /tmp/cc2IngwB.s:107517  .debug_str:0000000000048501 .LASF4368
     /tmp/cc2IngwB.s:89817  .debug_str:0000000000000320 .LASF4369
     /tmp/cc2IngwB.s:92527  .debug_str:000000000000bb4d .LASF4370
     /tmp/cc2IngwB.s:105301  .debug_str:000000000003f003 .LASF4371
     /tmp/cc2IngwB.s:98225  .debug_str:00000000000228d6 .LASF4372
     /tmp/cc2IngwB.s:108189  .debug_str:000000000004b047 .LASF4373
     /tmp/cc2IngwB.s:94923  .debug_str:0000000000014e8b .LASF4374
     /tmp/cc2IngwB.s:99355  .debug_str:0000000000026eb3 .LASF4375
     /tmp/cc2IngwB.s:104167  .debug_str:000000000003a2c5 .LASF4376
     /tmp/cc2IngwB.s:90525  .debug_str:00000000000033e2 .LASF4377
     /tmp/cc2IngwB.s:105399  .debug_str:000000000003f564 .LASF4378
     /tmp/cc2IngwB.s:94341  .debug_str:00000000000128b0 .LASF4379
     /tmp/cc2IngwB.s:95835  .debug_str:00000000000189cd .LASF4380
     /tmp/cc2IngwB.s:103621  .debug_str:0000000000038538 .LASF4381
     /tmp/cc2IngwB.s:92843  .debug_str:000000000000d0f9 .LASF4382
     /tmp/cc2IngwB.s:100843  .debug_str:000000000002ce0b .LASF4383
     /tmp/cc2IngwB.s:101063  .debug_str:000000000002db62 .LASF4384
     /tmp/cc2IngwB.s:106599  .debug_str:000000000004496e .LASF4385
     /tmp/cc2IngwB.s:99723  .debug_str:000000000002861c .LASF4386
     /tmp/cc2IngwB.s:95415  .debug_str:0000000000016d27 .LASF4387
     /tmp/cc2IngwB.s:90543  .debug_str:00000000000034bf .LASF4388
     /tmp/cc2IngwB.s:99545  .debug_str:0000000000027a30 .LASF4389
     /tmp/cc2IngwB.s:92185  .debug_str:000000000000a39c .LASF4390
     /tmp/cc2IngwB.s:101555  .debug_str:000000000002fcf1 .LASF4391
     /tmp/cc2IngwB.s:105331  .debug_str:000000000003f1f2 .LASF4392
     /tmp/cc2IngwB.s:94311  .debug_str:00000000000126e1 .LASF4393
     /tmp/cc2IngwB.s:94851  .debug_str:0000000000014a47 .LASF4394
     /tmp/cc2IngwB.s:103525  .debug_str:0000000000037f37 .LASF4395
     /tmp/cc2IngwB.s:99211  .debug_str:0000000000026575 .LASF4396
     /tmp/cc2IngwB.s:108747  .debug_str:000000000004d791 .LASF4397
     /tmp/cc2IngwB.s:100143  .debug_str:000000000002a244 .LASF4398
     /tmp/cc2IngwB.s:108471  .debug_str:000000000004c4a6 .LASF4399
     /tmp/cc2IngwB.s:99895  .debug_str:000000000002923d .LASF4400
     /tmp/cc2IngwB.s:94401  .debug_str:0000000000012ca7 .LASF4401
     /tmp/cc2IngwB.s:107145  .debug_str:0000000000046ce9 .LASF4402
     /tmp/cc2IngwB.s:104575  .debug_str:000000000003be64 .LASF4403
     /tmp/cc2IngwB.s:108013  .debug_str:000000000004a5bc .LASF4404
     /tmp/cc2IngwB.s:103181  .debug_str:000000000003690a .LASF4405
     /tmp/cc2IngwB.s:104211  .debug_str:000000000003a569 .LASF4406
     /tmp/cc2IngwB.s:92627  .debug_str:000000000000c2c3 .LASF4407
     /tmp/cc2IngwB.s:105741  .debug_str:0000000000040b27 .LASF4408
     /tmp/cc2IngwB.s:103355  .debug_str:000000000003741f .LASF4409
     /tmp/cc2IngwB.s:97453  .debug_str:000000000001f253 .LASF4410
     /tmp/cc2IngwB.s:108777  .debug_str:000000000004d9ad .LASF4411
     /tmp/cc2IngwB.s:103309  .debug_str:0000000000037112 .LASF4412
     /tmp/cc2IngwB.s:95241  .debug_str:0000000000016210 .LASF4413
     /tmp/cc2IngwB.s:93565  .debug_str:000000000000f958 .LASF4414
     /tmp/cc2IngwB.s:101003  .debug_str:000000000002d7fa .LASF4415
     /tmp/cc2IngwB.s:107913  .debug_str:0000000000049ef3 .LASF4416
     /tmp/cc2IngwB.s:93499  .debug_str:000000000000f588 .LASF4417
     /tmp/cc2IngwB.s:100211  .debug_str:000000000002a6cd .LASF4418
     /tmp/cc2IngwB.s:105051  .debug_str:000000000003de4c .LASF4419
     /tmp/cc2IngwB.s:90107  .debug_str:000000000000165f .LASF4420
     /tmp/cc2IngwB.s:90707  .debug_str:0000000000003fb3 .LASF4421
     /tmp/cc2IngwB.s:90987  .debug_str:00000000000052a6 .LASF4422
     /tmp/cc2IngwB.s:101435  .debug_str:000000000002f42d .LASF4423
     /tmp/cc2IngwB.s:92687  .debug_str:000000000000c674 .LASF4424
     /tmp/cc2IngwB.s:105893  .debug_str:000000000004169a .LASF4425
     /tmp/cc2IngwB.s:96945  .debug_str:000000000001d09a .LASF4426
     /tmp/cc2IngwB.s:102025  .debug_str:0000000000031a0a .LASF4427
     /tmp/cc2IngwB.s:108687  .debug_str:000000000004d304 .LASF4428
     /tmp/cc2IngwB.s:104947  .debug_str:000000000003d75b .LASF4429
     /tmp/cc2IngwB.s:94151  .debug_str:0000000000011bcb .LASF4430
     /tmp/cc2IngwB.s:106869  .debug_str:0000000000045a95 .LASF4431
     /tmp/cc2IngwB.s:105005  .debug_str:000000000003daec .LASF4432
     /tmp/cc2IngwB.s:108109  .debug_str:000000000004ab57 .LASF4433
     /tmp/cc2IngwB.s:98263  .debug_str:0000000000022ab9 .LASF4434
     /tmp/cc2IngwB.s:101441  .debug_str:000000000002f499 .LASF4435
     /tmp/cc2IngwB.s:93759  .debug_str:000000000001055a .LASF4436
     /tmp/cc2IngwB.s:97601  .debug_str:000000000001fdb2 .LASF4437
     /tmp/cc2IngwB.s:92841  .debug_str:000000000000d0e5 .LASF4438
     /tmp/cc2IngwB.s:92709  .debug_str:000000000000c7ce .LASF4439
     /tmp/cc2IngwB.s:93359  .debug_str:000000000000ee6e .LASF4440
     /tmp/cc2IngwB.s:103027  .debug_str:0000000000035ea9 .LASF4441
     /tmp/cc2IngwB.s:95085  .debug_str:000000000001583d .LASF4442
     /tmp/cc2IngwB.s:91519  .debug_str:0000000000007674 .LASF4443
     /tmp/cc2IngwB.s:108095  .debug_str:000000000004aa94 .LASF4444
     /tmp/cc2IngwB.s:99089  .debug_str:0000000000025e61 .LASF4445
     /tmp/cc2IngwB.s:102447  .debug_str:000000000003363e .LASF4446
     /tmp/cc2IngwB.s:92021  .debug_str:000000000000980f .LASF4447
     /tmp/cc2IngwB.s:101759  .debug_str:0000000000030925 .LASF4448
     /tmp/cc2IngwB.s:101293  .debug_str:000000000002eabb .LASF4449
     /tmp/cc2IngwB.s:95411  .debug_str:0000000000016cec .LASF4450
     /tmp/cc2IngwB.s:108151  .debug_str:000000000004ad7f .LASF4451
     /tmp/cc2IngwB.s:106043  .debug_str:00000000000421a3 .LASF4452
     /tmp/cc2IngwB.s:100461  .debug_str:000000000002b6a8 .LASF4453
     /tmp/cc2IngwB.s:109161  .debug_str:000000000004f4d4 .LASF4454
     /tmp/cc2IngwB.s:107717  .debug_str:000000000004921d .LASF4455
     /tmp/cc2IngwB.s:99503  .debug_str:0000000000027747 .LASF4456
     /tmp/cc2IngwB.s:98889  .debug_str:00000000000253a2 .LASF4457
     /tmp/cc2IngwB.s:103281  .debug_str:0000000000036f67 .LASF4458
     /tmp/cc2IngwB.s:97351  .debug_str:000000000001ec23 .LASF4459
     /tmp/cc2IngwB.s:96773  .debug_str:000000000001c51b .LASF4460
     /tmp/cc2IngwB.s:102749  .debug_str:0000000000034a9c .LASF4461
     /tmp/cc2IngwB.s:101337  .debug_str:000000000002edf2 .LASF4462
     /tmp/cc2IngwB.s:101775  .debug_str:0000000000030a27 .LASF4463
     /tmp/cc2IngwB.s:102777  .debug_str:0000000000034bf7 .LASF4464
     /tmp/cc2IngwB.s:105249  .debug_str:000000000003ec82 .LASF4465
     /tmp/cc2IngwB.s:92625  .debug_str:000000000000c2a7 .LASF4466
     /tmp/cc2IngwB.s:96375  .debug_str:000000000001ac93 .LASF4467
     /tmp/cc2IngwB.s:90449  .debug_str:0000000000002eb3 .LASF4468
     /tmp/cc2IngwB.s:91935  .debug_str:000000000000928f .LASF4469
     /tmp/cc2IngwB.s:90023  .debug_str:00000000000010b9 .LASF4470
     /tmp/cc2IngwB.s:95705  .debug_str:000000000001816c .LASF4471
     /tmp/cc2IngwB.s:108343  .debug_str:000000000004bbb8 .LASF4472
     /tmp/cc2IngwB.s:101927  .debug_str:0000000000031457 .LASF4473
     /tmp/cc2IngwB.s:93261  .debug_str:000000000000e938 .LASF4474
     /tmp/cc2IngwB.s:97149  .debug_str:000000000001ddf9 .LASF4475
     /tmp/cc2IngwB.s:99445  .debug_str:0000000000027440 .LASF4476
     /tmp/cc2IngwB.s:97877  .debug_str:0000000000021125 .LASF4477
     /tmp/cc2IngwB.s:99309  .debug_str:0000000000026b1e .LASF4478
     /tmp/cc2IngwB.s:92669  .debug_str:000000000000c54f .LASF4479
     /tmp/cc2IngwB.s:96469  .debug_str:000000000001b2bf .LASF4480
     /tmp/cc2IngwB.s:105911  .debug_str:00000000000417ea .LASF4481
     /tmp/cc2IngwB.s:97119  .debug_str:000000000001dbd1 .LASF4482
     /tmp/cc2IngwB.s:96649  .debug_str:000000000001bcf9 .LASF4483
     /tmp/cc2IngwB.s:100543  .debug_str:000000000002bc1b .LASF4484
     /tmp/cc2IngwB.s:93903  .debug_str:0000000000010c85 .LASF4485
     /tmp/cc2IngwB.s:104685  .debug_str:000000000003c5aa .LASF4486
     /tmp/cc2IngwB.s:95713  .debug_str:00000000000181c2 .LASF4487
     /tmp/cc2IngwB.s:92099  .debug_str:0000000000009e2c .LASF4488
     /tmp/cc2IngwB.s:101769  .debug_str:00000000000309cd .LASF4489
     /tmp/cc2IngwB.s:107603  .debug_str:0000000000048ab6 .LASF4490
     /tmp/cc2IngwB.s:92567  .debug_str:000000000000bec5 .LASF4491
     /tmp/cc2IngwB.s:98029  .debug_str:0000000000021b23 .LASF4492
     /tmp/cc2IngwB.s:97299  .debug_str:000000000001e8cf .LASF4493
     /tmp/cc2IngwB.s:95131  .debug_str:0000000000015b4d .LASF4494
     /tmp/cc2IngwB.s:107441  .debug_str:0000000000047fd3 .LASF4495
     /tmp/cc2IngwB.s:94475  .debug_str:00000000000131bd .LASF4496
     /tmp/cc2IngwB.s:97301  .debug_str:000000000001e8ee .LASF4497
     /tmp/cc2IngwB.s:93125  .debug_str:000000000000e1a7 .LASF4498
     /tmp/cc2IngwB.s:99237  .debug_str:00000000000266eb .LASF4499
     /tmp/cc2IngwB.s:104719  .debug_str:000000000003c850 .LASF4500
     /tmp/cc2IngwB.s:102585  .debug_str:0000000000034002 .LASF4501
     /tmp/cc2IngwB.s:106915  .debug_str:0000000000045d48 .LASF4502
     /tmp/cc2IngwB.s:109201  .debug_str:000000000004f724 .LASF4503
     /tmp/cc2IngwB.s:101965  .debug_str:000000000003166f .LASF4504
     /tmp/cc2IngwB.s:100949  .debug_str:000000000002d4e8 .LASF4505
     /tmp/cc2IngwB.s:90541  .debug_str:00000000000034b0 .LASF4506
     /tmp/cc2IngwB.s:103695  .debug_str:0000000000038959 .LASF4507
     /tmp/cc2IngwB.s:98139  .debug_str:00000000000222fa .LASF4508
     /tmp/cc2IngwB.s:102329  .debug_str:0000000000032e6c .LASF4509
     /tmp/cc2IngwB.s:94431  .debug_str:0000000000012e98 .LASF4510
     /tmp/cc2IngwB.s:100237  .debug_str:000000000002a8ca .LASF4511
     /tmp/cc2IngwB.s:92003  .debug_str:00000000000096d7 .LASF4512
     /tmp/cc2IngwB.s:100761  .debug_str:000000000002c955 .LASF4513
     /tmp/cc2IngwB.s:109359  .debug_str:000000000005013e .LASF4514
     /tmp/cc2IngwB.s:90647  .debug_str:0000000000003b98 .LASF4515
     /tmp/cc2IngwB.s:95849  .debug_str:0000000000018aa3 .LASF4516
     /tmp/cc2IngwB.s:101167  .debug_str:000000000002e291 .LASF4517
     /tmp/cc2IngwB.s:104817  .debug_str:000000000003cf62 .LASF4518
     /tmp/cc2IngwB.s:103041  .debug_str:0000000000035f4f .LASF4519
     /tmp/cc2IngwB.s:95511  .debug_str:0000000000017372 .LASF4520
     /tmp/cc2IngwB.s:97137  .debug_str:000000000001dd3b .LASF4521
     /tmp/cc2IngwB.s:97041  .debug_str:000000000001d665 .LASF4522
     /tmp/cc2IngwB.s:91171  .debug_str:0000000000005ee0 .LASF4523
     /tmp/cc2IngwB.s:90843  .debug_str:000000000000495d .LASF4524
     /tmp/cc2IngwB.s:105151  .debug_str:000000000003e603 .LASF4525
     /tmp/cc2IngwB.s:108327  .debug_str:000000000004ba82 .LASF4526
     /tmp/cc2IngwB.s:101353  .debug_str:000000000002ef18 .LASF4527
     /tmp/cc2IngwB.s:106055  .debug_str:00000000000422a8 .LASF4528
     /tmp/cc2IngwB.s:97715  .debug_str:0000000000020615 .LASF4529
     /tmp/cc2IngwB.s:106387  .debug_str:0000000000043b58 .LASF4530
     /tmp/cc2IngwB.s:95717  .debug_str:0000000000018210 .LASF4531
     /tmp/cc2IngwB.s:92505  .debug_str:000000000000ba02 .LASF4532
     /tmp/cc2IngwB.s:109421  .debug_str:0000000000050587 .LASF4533
     /tmp/cc2IngwB.s:90637  .debug_str:0000000000003aeb .LASF4534
     /tmp/cc2IngwB.s:90723  .debug_str:00000000000040db .LASF4535
     /tmp/cc2IngwB.s:103255  .debug_str:0000000000036d92 .LASF4536
     /tmp/cc2IngwB.s:97879  .debug_str:000000000002113c .LASF4537
     /tmp/cc2IngwB.s:97235  .debug_str:000000000001e44a .LASF4538
     /tmp/cc2IngwB.s:108521  .debug_str:000000000004c7ee .LASF4539
     /tmp/cc2IngwB.s:95917  .debug_str:0000000000018df6 .LASF4540
     /tmp/cc2IngwB.s:109035  .debug_str:000000000004ebcf .LASF4541
     /tmp/cc2IngwB.s:102389  .debug_str:00000000000332ef .LASF4542
     /tmp/cc2IngwB.s:93415  .debug_str:000000000000f0ae .LASF4543
     /tmp/cc2IngwB.s:94775  .debug_str:0000000000014552 .LASF4544
     /tmp/cc2IngwB.s:101535  .debug_str:000000000002fb87 .LASF4545
     /tmp/cc2IngwB.s:105467  .debug_str:000000000003f9f8 .LASF4546
     /tmp/cc2IngwB.s:90471  .debug_str:0000000000003070 .LASF4547
     /tmp/cc2IngwB.s:91057  .debug_str:0000000000005713 .LASF4548
     /tmp/cc2IngwB.s:102075  .debug_str:0000000000031de4 .LASF4549
     /tmp/cc2IngwB.s:94699  .debug_str:00000000000140fa .LASF4550
     /tmp/cc2IngwB.s:90097  .debug_str:000000000000159d .LASF4551
     /tmp/cc2IngwB.s:91791  .debug_str:00000000000088c9 .LASF4552
     /tmp/cc2IngwB.s:106213  .debug_str:0000000000043016 .LASF4553
     /tmp/cc2IngwB.s:91425  .debug_str:00000000000070ba .LASF4554
     /tmp/cc2IngwB.s:97571  .debug_str:000000000001fbb4 .LASF4555
     /tmp/cc2IngwB.s:90093  .debug_str:0000000000001566 .LASF4556
     /tmp/cc2IngwB.s:97803  .debug_str:0000000000020cd5 .LASF4557
     /tmp/cc2IngwB.s:92019  .debug_str:00000000000097fc .LASF4558
     /tmp/cc2IngwB.s:102419  .debug_str:00000000000334bc .LASF4559
     /tmp/cc2IngwB.s:104129  .debug_str:000000000003a0a5 .LASF4560
     /tmp/cc2IngwB.s:107147  .debug_str:0000000000046cfc .LASF4561
     /tmp/cc2IngwB.s:108431  .debug_str:000000000004c1c9 .LASF4562
     /tmp/cc2IngwB.s:93353  .debug_str:000000000000ee1f .LASF4563
     /tmp/cc2IngwB.s:90605  .debug_str:00000000000038c5 .LASF4564
     /tmp/cc2IngwB.s:91641  .debug_str:0000000000007ecb .LASF4565
     /tmp/cc2IngwB.s:97079  .debug_str:000000000001d8e6 .LASF4566
     /tmp/cc2IngwB.s:100149  .debug_str:000000000002a29c .LASF4567
     /tmp/cc2IngwB.s:96409  .debug_str:000000000001af6b .LASF4568
     /tmp/cc2IngwB.s:97835  .debug_str:0000000000020ec6 .LASF4569
     /tmp/cc2IngwB.s:106513  .debug_str:000000000004440f .LASF4570
     /tmp/cc2IngwB.s:98405  .debug_str:00000000000233fd .LASF4571
     /tmp/cc2IngwB.s:104287  .debug_str:000000000003aa4e .LASF4572
     /tmp/cc2IngwB.s:93037  .debug_str:000000000000dd4b .LASF4573
     /tmp/cc2IngwB.s:107857  .debug_str:0000000000049b2d .LASF4574
     /tmp/cc2IngwB.s:93537  .debug_str:000000000000f8ad .LASF4575
     /tmp/cc2IngwB.s:102093  .debug_str:0000000000031f14 .LASF4576
     /tmp/cc2IngwB.s:105019  .debug_str:000000000003dc22 .LASF4577
     /tmp/cc2IngwB.s:93907  .debug_str:0000000000010cda .LASF4578
     /tmp/cc2IngwB.s:102771  .debug_str:0000000000034b94 .LASF4579
     /tmp/cc2IngwB.s:107313  .debug_str:0000000000047746 .LASF4580
     /tmp/cc2IngwB.s:100473  .debug_str:000000000002b711 .LASF4581
     /tmp/cc2IngwB.s:109083  .debug_str:000000000004ef99 .LASF4582
     /tmp/cc2IngwB.s:94531  .debug_str:0000000000013661 .LASF4583
     /tmp/cc2IngwB.s:89835  .debug_str:000000000000044c .LASF4584
     /tmp/cc2IngwB.s:98603  .debug_str:000000000002417e .LASF4585
     /tmp/cc2IngwB.s:92489  .debug_str:000000000000b8c4 .LASF4586
     /tmp/cc2IngwB.s:107563  .debug_str:0000000000048868 .LASF4587
     /tmp/cc2IngwB.s:104775  .debug_str:000000000003cc7e .LASF4588
     /tmp/cc2IngwB.s:104595  .debug_str:000000000003bf9c .LASF4589
     /tmp/cc2IngwB.s:93817  .debug_str:0000000000010829 .LASF4590
     /tmp/cc2IngwB.s:95813  .debug_str:0000000000018882 .LASF4591
     /tmp/cc2IngwB.s:93653  .debug_str:000000000000ff7f .LASF4592
     /tmp/cc2IngwB.s:100065  .debug_str:0000000000029d4e .LASF4593
     /tmp/cc2IngwB.s:105761  .debug_str:0000000000040c25 .LASF4594
     /tmp/cc2IngwB.s:97743  .debug_str:0000000000020814 .LASF4595
     /tmp/cc2IngwB.s:99975  .debug_str:0000000000029815 .LASF4596
     /tmp/cc2IngwB.s:95369  .debug_str:00000000000169cb .LASF4597
     /tmp/cc2IngwB.s:104205  .debug_str:000000000003a51d .LASF4598
     /tmp/cc2IngwB.s:106757  .debug_str:00000000000453f1 .LASF4599
     /tmp/cc2IngwB.s:103927  .debug_str:000000000003955e .LASF4600
     /tmp/cc2IngwB.s:97325  .debug_str:000000000001ea2e .LASF4601
     /tmp/cc2IngwB.s:106001  .debug_str:0000000000041f2a .LASF4602
     /tmp/cc2IngwB.s:94975  .debug_str:0000000000015142 .LASF4603
     /tmp/cc2IngwB.s:101575  .debug_str:000000000002fe0f .LASF4604
     /tmp/cc2IngwB.s:92585  .debug_str:000000000000c013 .LASF4605
     /tmp/cc2IngwB.s:109289  .debug_str:000000000004fc9a .LASF4606
     /tmp/cc2IngwB.s:103159  .debug_str:0000000000036776 .LASF4607
     /tmp/cc2IngwB.s:103375  .debug_str:000000000003752a .LASF4608
     /tmp/cc2IngwB.s:90653  .debug_str:0000000000003bfa .LASF4609
     /tmp/cc2IngwB.s:107955  .debug_str:000000000004a151 .LASF4610
     /tmp/cc2IngwB.s:90519  .debug_str:0000000000003380 .LASF4611
     /tmp/cc2IngwB.s:97173  .debug_str:000000000001dfff .LASF4612
     /tmp/cc2IngwB.s:93405  .debug_str:000000000000f01d .LASF4613
     /tmp/cc2IngwB.s:90535  .debug_str:0000000000003480 .LASF4614
     /tmp/cc2IngwB.s:95493  .debug_str:000000000001727a .LASF4615
     /tmp/cc2IngwB.s:96833  .debug_str:000000000001c91a .LASF4616
     /tmp/cc2IngwB.s:101401  .debug_str:000000000002f218 .LASF4617
     /tmp/cc2IngwB.s:90219  .debug_str:0000000000001f5f .LASF4618
     /tmp/cc2IngwB.s:101705  .debug_str:0000000000030622 .LASF4619
     /tmp/cc2IngwB.s:90545  .debug_str:00000000000034d4 .LASF4620
     /tmp/cc2IngwB.s:96323  .debug_str:000000000001a98a .LASF4621
     /tmp/cc2IngwB.s:105077  .debug_str:000000000003e013 .LASF4622
     /tmp/cc2IngwB.s:93785  .debug_str:00000000000106e0 .LASF4623
     /tmp/cc2IngwB.s:105853  .debug_str:00000000000412ad .LASF4624
     /tmp/cc2IngwB.s:94141  .debug_str:0000000000011b40 .LASF4625
     /tmp/cc2IngwB.s:102015  .debug_str:000000000003198a .LASF4626
     /tmp/cc2IngwB.s:108025  .debug_str:000000000004a67e .LASF4627
     /tmp/cc2IngwB.s:108473  .debug_str:000000000004c4b7 .LASF4628
     /tmp/cc2IngwB.s:95225  .debug_str:0000000000016164 .LASF4629
     /tmp/cc2IngwB.s:104051  .debug_str:0000000000039c79 .LASF4630
     /tmp/cc2IngwB.s:108437  .debug_str:000000000004c232 .LASF4631
     /tmp/cc2IngwB.s:101743  .debug_str:000000000003088c .LASF4632
     /tmp/cc2IngwB.s:94839  .debug_str:0000000000014998 .LASF4633
     /tmp/cc2IngwB.s:99399  .debug_str:0000000000027186 .LASF4634
     /tmp/cc2IngwB.s:108061  .debug_str:000000000004a868 .LASF4635
     /tmp/cc2IngwB.s:97105  .debug_str:000000000001dad0 .LASF4636
     /tmp/cc2IngwB.s:105577  .debug_str:0000000000040129 .LASF4637
     /tmp/cc2IngwB.s:95943  .debug_str:0000000000018f3e .LASF4638
     /tmp/cc2IngwB.s:106101  .debug_str:00000000000427d0 .LASF4639
     /tmp/cc2IngwB.s:95059  .debug_str:0000000000015699 .LASF4640
     /tmp/cc2IngwB.s:103879  .debug_str:00000000000393ab .LASF4641
     /tmp/cc2IngwB.s:92643  .debug_str:000000000000c3a7 .LASF4642
     /tmp/cc2IngwB.s:101189  .debug_str:000000000002e412 .LASF4643
     /tmp/cc2IngwB.s:90465  .debug_str:0000000000002fdb .LASF4644
     /tmp/cc2IngwB.s:99081  .debug_str:0000000000025dff .LASF4645
     /tmp/cc2IngwB.s:107767  .debug_str:0000000000049514 .LASF4646
     /tmp/cc2IngwB.s:96793  .debug_str:000000000001c691 .LASF4647
     /tmp/cc2IngwB.s:108225  .debug_str:000000000004b319 .LASF4648
     /tmp/cc2IngwB.s:91495  .debug_str:000000000000757b .LASF4649
     /tmp/cc2IngwB.s:107163  .debug_str:0000000000046d9f .LASF4650
     /tmp/cc2IngwB.s:108689  .debug_str:000000000004d317 .LASF4651
     /tmp/cc2IngwB.s:97727  .debug_str:00000000000206e9 .LASF4652
     /tmp/cc2IngwB.s:96829  .debug_str:000000000001c8fc .LASF4653
     /tmp/cc2IngwB.s:96225  .debug_str:000000000001a2cd .LASF4654
     /tmp/cc2IngwB.s:108239  .debug_str:000000000004b3fb .LASF4655
     /tmp/cc2IngwB.s:97607  .debug_str:000000000001fe08 .LASF4656
     /tmp/cc2IngwB.s:100863  .debug_str:000000000002cf4d .LASF4657
     /tmp/cc2IngwB.s:91759  .debug_str:0000000000008651 .LASF4658
     /tmp/cc2IngwB.s:102767  .debug_str:0000000000034b5e .LASF4659
     /tmp/cc2IngwB.s:93693  .debug_str:0000000000010212 .LASF4660
     /tmp/cc2IngwB.s:101957  .debug_str:0000000000031614 .LASF4661
     /tmp/cc2IngwB.s:94365  .debug_str:00000000000129cd .LASF4662
     /tmp/cc2IngwB.s:94979  .debug_str:0000000000015195 .LASF4663
     /tmp/cc2IngwB.s:105033  .debug_str:000000000003dcf3 .LASF4664
     /tmp/cc2IngwB.s:104821  .debug_str:000000000003cf9b .LASF4665
     /tmp/cc2IngwB.s:106751  .debug_str:000000000004537a .LASF4666
     /tmp/cc2IngwB.s:107061  .debug_str:0000000000046741 .LASF4667
     /tmp/cc2IngwB.s:92431  .debug_str:000000000000b497 .LASF4668
     /tmp/cc2IngwB.s:99801  .debug_str:0000000000028bad .LASF4669
     /tmp/cc2IngwB.s:103363  .debug_str:000000000003745e .LASF4670
     /tmp/cc2IngwB.s:99751  .debug_str:00000000000287d5 .LASF4671
     /tmp/cc2IngwB.s:105423  .debug_str:000000000003f722 .LASF4672
     /tmp/cc2IngwB.s:103501  .debug_str:0000000000037d80 .LASF4673
     /tmp/cc2IngwB.s:98769  .debug_str:0000000000024c9b .LASF4674
     /tmp/cc2IngwB.s:91681  .debug_str:0000000000008120 .LASF4675
     /tmp/cc2IngwB.s:100633  .debug_str:000000000002c109 .LASF4676
     /tmp/cc2IngwB.s:93715  .debug_str:000000000001036d .LASF4677
     /tmp/cc2IngwB.s:102543  .debug_str:0000000000033d80 .LASF4678
     /tmp/cc2IngwB.s:93451  .debug_str:000000000000f353 .LASF4679
     /tmp/cc2IngwB.s:93459  .debug_str:000000000000f3ee .LASF4680
     /tmp/cc2IngwB.s:95485  .debug_str:00000000000171fb .LASF4681
     /tmp/cc2IngwB.s:106329  .debug_str:0000000000043766 .LASF4682
     /tmp/cc2IngwB.s:97275  .debug_str:000000000001e6f1 .LASF4683
     /tmp/cc2IngwB.s:92475  .debug_str:000000000000b7e9 .LASF4684
     /tmp/cc2IngwB.s:103589  .debug_str:00000000000382c3 .LASF4685
     /tmp/cc2IngwB.s:104613  .debug_str:000000000003c08a .LASF4686
     /tmp/cc2IngwB.s:103897  .debug_str:000000000003947a .LASF4687
     /tmp/cc2IngwB.s:89893  .debug_str:0000000000000816 .LASF4688
     /tmp/cc2IngwB.s:90659  .debug_str:0000000000003c6b .LASF4689
     /tmp/cc2IngwB.s:95703  .debug_str:0000000000018154 .LASF4690
     /tmp/cc2IngwB.s:106581  .debug_str:0000000000044897 .LASF4691
     /tmp/cc2IngwB.s:105673  .debug_str:00000000000406b6 .LASF4692
     /tmp/cc2IngwB.s:104199  .debug_str:000000000003a4dc .LASF4693
     /tmp/cc2IngwB.s:99617  .debug_str:0000000000027f69 .LASF4694
     /tmp/cc2IngwB.s:96479  .debug_str:000000000001b33d .LASF4695
     /tmp/cc2IngwB.s:106363  .debug_str:00000000000439da .LASF4696
     /tmp/cc2IngwB.s:98431  .debug_str:0000000000023582 .LASF4697
     /tmp/cc2IngwB.s:102465  .debug_str:0000000000033792 .LASF4698
     /tmp/cc2IngwB.s:103895  .debug_str:0000000000039461 .LASF4699
     /tmp/cc2IngwB.s:107123  .debug_str:0000000000046b28 .LASF4700
     /tmp/cc2IngwB.s:102153  .debug_str:0000000000032238 .LASF4701
     /tmp/cc2IngwB.s:93031  .debug_str:000000000000dd20 .LASF4702
     /tmp/cc2IngwB.s:104083  .debug_str:0000000000039da7 .LASF4703
     /tmp/cc2IngwB.s:95067  .debug_str:000000000001573e .LASF4704
     /tmp/cc2IngwB.s:105025  .debug_str:000000000003dc5a .LASF4705
     /tmp/cc2IngwB.s:101199  .debug_str:000000000002e4a0 .LASF4706
     /tmp/cc2IngwB.s:92045  .debug_str:000000000000997f .LASF4707
     /tmp/cc2IngwB.s:103081  .debug_str:000000000003623e .LASF4708
     /tmp/cc2IngwB.s:94043  .debug_str:000000000001154f .LASF4709
     /tmp/cc2IngwB.s:99593  .debug_str:0000000000027dab .LASF4710
     /tmp/cc2IngwB.s:95859  .debug_str:0000000000018b42 .LASF4711
     /tmp/cc2IngwB.s:99765  .debug_str:00000000000288c1 .LASF4712
     /tmp/cc2IngwB.s:105439  .debug_str:000000000003f824 .LASF4713
     /tmp/cc2IngwB.s:108603  .debug_str:000000000004ccda .LASF4714
     /tmp/cc2IngwB.s:91773  .debug_str:0000000000008781 .LASF4715
     /tmp/cc2IngwB.s:96129  .debug_str:0000000000019c6f .LASF4716
     /tmp/cc2IngwB.s:104301  .debug_str:000000000003ab5e .LASF4717
     /tmp/cc2IngwB.s:91687  .debug_str:000000000000817f .LASF4718
     /tmp/cc2IngwB.s:106167  .debug_str:0000000000042c97 .LASF4719
     /tmp/cc2IngwB.s:92575  .debug_str:000000000000bf87 .LASF4720
     /tmp/cc2IngwB.s:97109  .debug_str:000000000001db02 .LASF4721
     /tmp/cc2IngwB.s:94587  .debug_str:00000000000139ce .LASF4722
     /tmp/cc2IngwB.s:100853  .debug_str:000000000002cea1 .LASF4723
     /tmp/cc2IngwB.s:105563  .debug_str:0000000000040006 .LASF4724
     /tmp/cc2IngwB.s:103597  .debug_str:000000000003832e .LASF4725
     /tmp/cc2IngwB.s:105889  .debug_str:000000000004165c .LASF4726
     /tmp/cc2IngwB.s:107113  .debug_str:0000000000046aa1 .LASF4727
     /tmp/cc2IngwB.s:107833  .debug_str:00000000000499a1 .LASF4728
     /tmp/cc2IngwB.s:95979  .debug_str:00000000000191ad .LASF4729
     /tmp/cc2IngwB.s:100751  .debug_str:000000000002c8d4 .LASF4730
     /tmp/cc2IngwB.s:100125  .debug_str:000000000002a0f0 .LASF4731
     /tmp/cc2IngwB.s:103003  .debug_str:0000000000035c42 .LASF4732
     /tmp/cc2IngwB.s:94285  .debug_str:0000000000012530 .LASF4733
     /tmp/cc2IngwB.s:108719  .debug_str:000000000004d527 .LASF4734
     /tmp/cc2IngwB.s:100901  .debug_str:000000000002d227 .LASF4735
     /tmp/cc2IngwB.s:90639  .debug_str:0000000000003b02 .LASF4736
     /tmp/cc2IngwB.s:105233  .debug_str:000000000003eb87 .LASF4737
     /tmp/cc2IngwB.s:107015  .debug_str:0000000000046436 .LASF4738
     /tmp/cc2IngwB.s:91583  .debug_str:0000000000007af1 .LASF4739
     /tmp/cc2IngwB.s:101085  .debug_str:000000000002dcf4 .LASF4740
     /tmp/cc2IngwB.s:106633  .debug_str:0000000000044ba1 .LASF4741
     /tmp/cc2IngwB.s:100501  .debug_str:000000000002b938 .LASF4742
     /tmp/cc2IngwB.s:94623  .debug_str:0000000000013c08 .LASF4743
     /tmp/cc2IngwB.s:90005  .debug_str:0000000000000f57 .LASF4744
     /tmp/cc2IngwB.s:100453  .debug_str:000000000002b631 .LASF4745
     /tmp/cc2IngwB.s:100341  .debug_str:000000000002aed0 .LASF4746
     /tmp/cc2IngwB.s:99199  .debug_str:000000000002648c .LASF4747
     /tmp/cc2IngwB.s:105707  .debug_str:00000000000408e3 .LASF4748
     /tmp/cc2IngwB.s:97555  .debug_str:000000000001fa9f .LASF4749
     /tmp/cc2IngwB.s:102175  .debug_str:000000000003237d .LASF4750
     /tmp/cc2IngwB.s:95841  .debug_str:0000000000018a14 .LASF4751
     /tmp/cc2IngwB.s:93205  .debug_str:000000000000e64a .LASF4752
     /tmp/cc2IngwB.s:93073  .debug_str:000000000000deb9 .LASF4753
     /tmp/cc2IngwB.s:94323  .debug_str:0000000000012768 .LASF4754
     /tmp/cc2IngwB.s:92159  .debug_str:000000000000a1ab .LASF4755
     /tmp/cc2IngwB.s:96181  .debug_str:000000000001a028 .LASF4756
     /tmp/cc2IngwB.s:99575  .debug_str:0000000000027c8f .LASF4757
     /tmp/cc2IngwB.s:104103  .debug_str:0000000000039ecc .LASF4758
     /tmp/cc2IngwB.s:102315  .debug_str:0000000000032d4c .LASF4759
     /tmp/cc2IngwB.s:101297  .debug_str:000000000002eaf6 .LASF4760
     /tmp/cc2IngwB.s:105341  .debug_str:000000000003f28c .LASF4761
     /tmp/cc2IngwB.s:100459  .debug_str:000000000002b67b .LASF4762
     /tmp/cc2IngwB.s:108187  .debug_str:000000000004b019 .LASF4763
     /tmp/cc2IngwB.s:90411  .debug_str:0000000000002bf3 .LASF4764
     /tmp/cc2IngwB.s:103877  .debug_str:0000000000039383 .LASF4765
     /tmp/cc2IngwB.s:108715  .debug_str:000000000004d4ea .LASF4766
     /tmp/cc2IngwB.s:103111  .debug_str:00000000000364ae .LASF4767
     /tmp/cc2IngwB.s:103297  .debug_str:0000000000037041 .LASF4768
     /tmp/cc2IngwB.s:106679  .debug_str:0000000000044ee5 .LASF4769
     /tmp/cc2IngwB.s:96543  .debug_str:000000000001b6bd .LASF4770
     /tmp/cc2IngwB.s:90613  .debug_str:000000000000390f .LASF4771
     /tmp/cc2IngwB.s:93331  .debug_str:000000000000ed24 .LASF4772
     /tmp/cc2IngwB.s:92073  .debug_str:0000000000009be3 .LASF4773
     /tmp/cc2IngwB.s:99011  .debug_str:0000000000025a39 .LASF4774
     /tmp/cc2IngwB.s:106327  .debug_str:0000000000043740 .LASF4775
     /tmp/cc2IngwB.s:93191  .debug_str:000000000000e5a0 .LASF4776
     /tmp/cc2IngwB.s:94799  .debug_str:00000000000146e5 .LASF4777
     /tmp/cc2IngwB.s:93515  .debug_str:000000000000f6fe .LASF4778
     /tmp/cc2IngwB.s:100685  .debug_str:000000000002c4c9 .LASF4779
     /tmp/cc2IngwB.s:107803  .debug_str:0000000000049778 .LASF4780
     /tmp/cc2IngwB.s:102523  .debug_str:0000000000033bb9 .LASF4781
     /tmp/cc2IngwB.s:108617  .debug_str:000000000004cde8 .LASF4782
     /tmp/cc2IngwB.s:103969  .debug_str:0000000000039833 .LASF4783
     /tmp/cc2IngwB.s:96377  .debug_str:000000000001acae .LASF4784
     /tmp/cc2IngwB.s:101459  .debug_str:000000000002f563 .LASF4785
     /tmp/cc2IngwB.s:95593  .debug_str:0000000000017956 .LASF4786
     /tmp/cc2IngwB.s:106883  .debug_str:0000000000045b5a .LASF4787
     /tmp/cc2IngwB.s:94817  .debug_str:00000000000147f4 .LASF4788
     /tmp/cc2IngwB.s:94753  .debug_str:00000000000143ee .LASF4789
     /tmp/cc2IngwB.s:106103  .debug_str:00000000000427e6 .LASF4790
     /tmp/cc2IngwB.s:107849  .debug_str:0000000000049acb .LASF4791
     /tmp/cc2IngwB.s:96065  .debug_str:00000000000197bd .LASF4792
     /tmp/cc2IngwB.s:100385  .debug_str:000000000002b147 .LASF4793
     /tmp/cc2IngwB.s:105619  .debug_str:00000000000403a8 .LASF4794
     /tmp/cc2IngwB.s:98381  .debug_str:0000000000023295 .LASF4795
     /tmp/cc2IngwB.s:95429  .debug_str:0000000000016e66 .LASF4796
     /tmp/cc2IngwB.s:104733  .debug_str:000000000003c99a .LASF4797
     /tmp/cc2IngwB.s:100745  .debug_str:000000000002c886 .LASF4798
     /tmp/cc2IngwB.s:95497  .debug_str:00000000000172d5 .LASF4799
     /tmp/cc2IngwB.s:99107  .debug_str:0000000000025fb9 .LASF4800
     /tmp/cc2IngwB.s:99031  .debug_str:0000000000025bd7 .LASF4801
     /tmp/cc2IngwB.s:90947  .debug_str:0000000000005012 .LASF4802
     /tmp/cc2IngwB.s:93571  .debug_str:000000000000f9af .LASF4803
     /tmp/cc2IngwB.s:107093  .debug_str:000000000004694b .LASF4804
     /tmp/cc2IngwB.s:90617  .debug_str:000000000000394b .LASF4805
     /tmp/cc2IngwB.s:91403  .debug_str:0000000000006ec8 .LASF4806
     /tmp/cc2IngwB.s:107841  .debug_str:0000000000049a20 .LASF4807
     /tmp/cc2IngwB.s:101641  .debug_str:000000000003022b .LASF4808
     /tmp/cc2IngwB.s:95201  .debug_str:0000000000015ffb .LASF4809
     /tmp/cc2IngwB.s:97979  .debug_str:000000000002175c .LASF4810
     /tmp/cc2IngwB.s:97227  .debug_str:000000000001e3a5 .LASF4811
     /tmp/cc2IngwB.s:106555  .debug_str:0000000000044683 .LASF4812
     /tmp/cc2IngwB.s:96119  .debug_str:0000000000019ba9 .LASF4813
     /tmp/cc2IngwB.s:105473  .debug_str:000000000003fa6b .LASF4814
     /tmp/cc2IngwB.s:95071  .debug_str:0000000000015771 .LASF4815
     /tmp/cc2IngwB.s:104533  .debug_str:000000000003bb5c .LASF4816
     /tmp/cc2IngwB.s:92579  .debug_str:000000000000bfd9 .LASF4817
     /tmp/cc2IngwB.s:91109  .debug_str:0000000000005aec .LASF4818
     /tmp/cc2IngwB.s:92267  .debug_str:000000000000a930 .LASF4819
     /tmp/cc2IngwB.s:107101  .debug_str:0000000000046a0c .LASF4820
     /tmp/cc2IngwB.s:92895  .debug_str:000000000000d49a .LASF4821
     /tmp/cc2IngwB.s:91279  .debug_str:00000000000065a8 .LASF4822
     /tmp/cc2IngwB.s:100177  .debug_str:000000000002a488 .LASF4823
     /tmp/cc2IngwB.s:100405  .debug_str:000000000002b30f .LASF4824
     /tmp/cc2IngwB.s:105551  .debug_str:000000000003ff0f .LASF4825
     /tmp/cc2IngwB.s:101013  .debug_str:000000000002d897 .LASF4826
     /tmp/cc2IngwB.s:96365  .debug_str:000000000001ab8e .LASF4827
     /tmp/cc2IngwB.s:108141  .debug_str:000000000004acc0 .LASF4828
     /tmp/cc2IngwB.s:101921  .debug_str:00000000000313f0 .LASF4829
     /tmp/cc2IngwB.s:108319  .debug_str:000000000004ba06 .LASF4830
     /tmp/cc2IngwB.s:102121  .debug_str:000000000003205e .LASF4831
     /tmp/cc2IngwB.s:95687  .debug_str:0000000000018053 .LASF4832
     /tmp/cc2IngwB.s:109137  .debug_str:000000000004f305 .LASF4833
     /tmp/cc2IngwB.s:102919  .debug_str:0000000000035619 .LASF4834
     /tmp/cc2IngwB.s:96515  .debug_str:000000000001b578 .LASF4835
     /tmp/cc2IngwB.s:101755  .debug_str:00000000000308ff .LASF4836
     /tmp/cc2IngwB.s:98989  .debug_str:0000000000025918 .LASF4837
     /tmp/cc2IngwB.s:94199  .debug_str:0000000000011f40 .LASF4838
     /tmp/cc2IngwB.s:100185  .debug_str:000000000002a4ff .LASF4839
     /tmp/cc2IngwB.s:95183  .debug_str:0000000000015ec5 .LASF4840
     /tmp/cc2IngwB.s:99691  .debug_str:0000000000028406 .LASF4841
     /tmp/cc2IngwB.s:101897  .debug_str:0000000000031272 .LASF4842
     /tmp/cc2IngwB.s:93335  .debug_str:000000000000ed48 .LASF4843
     /tmp/cc2IngwB.s:93607  .debug_str:000000000000fc77 .LASF4844
     /tmp/cc2IngwB.s:103107  .debug_str:000000000003642e .LASF4845
     /tmp/cc2IngwB.s:107513  .debug_str:00000000000484a4 .LASF4846
     /tmp/cc2IngwB.s:102055  .debug_str:0000000000031c2f .LASF4847
     /tmp/cc2IngwB.s:94883  .debug_str:0000000000014c58 .LASF4848
     /tmp/cc2IngwB.s:100651  .debug_str:000000000002c208 .LASF4849
     /tmp/cc2IngwB.s:94203  .debug_str:0000000000011f7e .LASF4850
     /tmp/cc2IngwB.s:96451  .debug_str:000000000001b166 .LASF4851
     /tmp/cc2IngwB.s:90461  .debug_str:0000000000002f9a .LASF4852
     /tmp/cc2IngwB.s:94995  .debug_str:000000000001527d .LASF4853
     /tmp/cc2IngwB.s:108401  .debug_str:000000000004bfb4 .LASF4854
     /tmp/cc2IngwB.s:103201  .debug_str:0000000000036a82 .LASF4855
     /tmp/cc2IngwB.s:105981  .debug_str:0000000000041da1 .LASF4856
     /tmp/cc2IngwB.s:98765  .debug_str:0000000000024c58 .LASF4857
     /tmp/cc2IngwB.s:93219  .debug_str:000000000000e72a .LASF4858
     /tmp/cc2IngwB.s:99013  .debug_str:0000000000025a69 .LASF4859
     /tmp/cc2IngwB.s:101733  .debug_str:000000000003078e .LASF4860
     /tmp/cc2IngwB.s:91189  .debug_str:0000000000005fb7 .LASF4861
     /tmp/cc2IngwB.s:99823  .debug_str:0000000000028d46 .LASF4862
     /tmp/cc2IngwB.s:90147  .debug_str:0000000000001a38 .LASF4863
     /tmp/cc2IngwB.s:92067  .debug_str:0000000000009b65 .LASF4864
     /tmp/cc2IngwB.s:100677  .debug_str:000000000002c436 .LASF4865
     /tmp/cc2IngwB.s:94237  .debug_str:000000000001219c .LASF4866
     /tmp/cc2IngwB.s:107671  .debug_str:0000000000048f42 .LASF4867
     /tmp/cc2IngwB.s:92609  .debug_str:000000000000c1b2 .LASF4868
     /tmp/cc2IngwB.s:108661  .debug_str:000000000004d12b .LASF4869
     /tmp/cc2IngwB.s:99881  .debug_str:0000000000029115 .LASF4870
     /tmp/cc2IngwB.s:93423  .debug_str:000000000000f12f .LASF4871
     /tmp/cc2IngwB.s:95529  .debug_str:0000000000017459 .LASF4872
     /tmp/cc2IngwB.s:109151  .debug_str:000000000004f42c .LASF4873
     /tmp/cc2IngwB.s:101481  .debug_str:000000000002f76c .LASF4874
     /tmp/cc2IngwB.s:103611  .debug_str:0000000000038408 .LASF4875
     /tmp/cc2IngwB.s:99663  .debug_str:0000000000028243 .LASF4876
     /tmp/cc2IngwB.s:91291  .debug_str:00000000000066bf .LASF4877
     /tmp/cc2IngwB.s:108515  .debug_str:000000000004c75d .LASF4878
     /tmp/cc2IngwB.s:104931  .debug_str:000000000003d663 .LASF4879
     /tmp/cc2IngwB.s:99345  .debug_str:0000000000026e05 .LASF4880
     /tmp/cc2IngwB.s:97815  .debug_str:0000000000020d1d .LASF4881
     /tmp/cc2IngwB.s:107773  .debug_str:000000000004954a .LASF4882
     /tmp/cc2IngwB.s:100165  .debug_str:000000000002a3ba .LASF4883
     /tmp/cc2IngwB.s:103399  .debug_str:00000000000376b9 .LASF4884
     /tmp/cc2IngwB.s:103933  .debug_str:00000000000395c3 .LASF4885
     /tmp/cc2IngwB.s:101009  .debug_str:000000000002d83c .LASF4886
     /tmp/cc2IngwB.s:97863  .debug_str:000000000002101b .LASF4887
     /tmp/cc2IngwB.s:98373  .debug_str:00000000000231fa .LASF4888
     /tmp/cc2IngwB.s:106203  .debug_str:0000000000042f93 .LASF4889
     /tmp/cc2IngwB.s:106755  .debug_str:00000000000453b8 .LASF4890
     /tmp/cc2IngwB.s:92161  .debug_str:000000000000a1d6 .LASF4891
     /tmp/cc2IngwB.s:92685  .debug_str:000000000000c63b .LASF4892
     /tmp/cc2IngwB.s:98981  .debug_str:00000000000258b2 .LASF4893
     /tmp/cc2IngwB.s:100169  .debug_str:000000000002a3fb .LASF4894
     /tmp/cc2IngwB.s:93717  .debug_str:0000000000010385 .LASF4895
     /tmp/cc2IngwB.s:107211  .debug_str:000000000004705b .LASF4896
     /tmp/cc2IngwB.s:103445  .debug_str:00000000000379f5 .LASF4897
     /tmp/cc2IngwB.s:104657  .debug_str:000000000003c3da .LASF4898
     /tmp/cc2IngwB.s:94177  .debug_str:0000000000011d98 .LASF4899
     /tmp/cc2IngwB.s:101915  .debug_str:0000000000031375 .LASF4900
     /tmp/cc2IngwB.s:93019  .debug_str:000000000000dc3e .LASF4901
     /tmp/cc2IngwB.s:108943  .debug_str:000000000004e559 .LASF4902
     /tmp/cc2IngwB.s:102737  .debug_str:00000000000349c8 .LASF4903
     /tmp/cc2IngwB.s:103953  .debug_str:0000000000039745 .LASF4904
     /tmp/cc2IngwB.s:97583  .debug_str:000000000001fc81 .LASF4905
     /tmp/cc2IngwB.s:107815  .debug_str:0000000000049814 .LASF4906
     /tmp/cc2IngwB.s:104681  .debug_str:000000000003c55e .LASF4907
     /tmp/cc2IngwB.s:108303  .debug_str:000000000004b885 .LASF4908
     /tmp/cc2IngwB.s:107901  .debug_str:0000000000049e37 .LASF4909
     /tmp/cc2IngwB.s:92707  .debug_str:000000000000c7be .LASF4910
     /tmp/cc2IngwB.s:103269  .debug_str:0000000000036e91 .LASF4911
     /tmp/cc2IngwB.s:106737  .debug_str:000000000004525d .LASF4912
     /tmp/cc2IngwB.s:107379  .debug_str:0000000000047b30 .LASF4913
     /tmp/cc2IngwB.s:91673  .debug_str:0000000000008064 .LASF4914
     /tmp/cc2IngwB.s:107509  .debug_str:000000000004842b .LASF4915
     /tmp/cc2IngwB.s:90649  .debug_str:0000000000003bae .LASF4916
     /tmp/cc2IngwB.s:100119  .debug_str:000000000002a080 .LASF4917
     /tmp/cc2IngwB.s:109385  .debug_str:000000000005030c .LASF4918
     /tmp/cc2IngwB.s:95983  .debug_str:000000000001920c .LASF4919
     /tmp/cc2IngwB.s:108307  .debug_str:000000000004b8ed .LASF4920
     /tmp/cc2IngwB.s:96011  .debug_str:00000000000193db .LASF4921
     /tmp/cc2IngwB.s:90873  .debug_str:0000000000004b5d .LASF4922
     /tmp/cc2IngwB.s:103189  .debug_str:000000000003697e .LASF4923
     /tmp/cc2IngwB.s:96867  .debug_str:000000000001cb75 .LASF4924
     /tmp/cc2IngwB.s:108459  .debug_str:000000000004c3b8 .LASF4925
     /tmp/cc2IngwB.s:104021  .debug_str:0000000000039ac3 .LASF4926
     /tmp/cc2IngwB.s:96151  .debug_str:0000000000019dec .LASF4927
     /tmp/cc2IngwB.s:100429  .debug_str:000000000002b4df .LASF4928
     /tmp/cc2IngwB.s:109047  .debug_str:000000000004ecc6 .LASF4929
     /tmp/cc2IngwB.s:98667  .debug_str:00000000000245c3 .LASF4930
     /tmp/cc2IngwB.s:107989  .debug_str:000000000004a38c .LASF4931
     /tmp/cc2IngwB.s:97663  .debug_str:00000000000201ee .LASF4932
     /tmp/cc2IngwB.s:99985  .debug_str:0000000000029893 .LASF4933
     /tmp/cc2IngwB.s:107665  .debug_str:0000000000048ea1 .LASF4934
     /tmp/cc2IngwB.s:90655  .debug_str:0000000000003c12 .LASF4935
     /tmp/cc2IngwB.s:104765  .debug_str:000000000003cbfc .LASF4936
     /tmp/cc2IngwB.s:98103  .debug_str:00000000000220df .LASF4937
     /tmp/cc2IngwB.s:97291  .debug_str:000000000001e7d2 .LASF4938
     /tmp/cc2IngwB.s:97045  .debug_str:000000000001d69a .LASF4939
     /tmp/cc2IngwB.s:94403  .debug_str:0000000000012cb9 .LASF4940
     /tmp/cc2IngwB.s:92621  .debug_str:000000000000c27d .LASF4941
     /tmp/cc2IngwB.s:102219  .debug_str:0000000000032640 .LASF4942
     /tmp/cc2IngwB.s:108101  .debug_str:000000000004aac6 .LASF4943
     /tmp/cc2IngwB.s:101887  .debug_str:00000000000311e0 .LASF4944
     /tmp/cc2IngwB.s:90627  .debug_str:0000000000003a3a .LASF4945
     /tmp/cc2IngwB.s:109085  .debug_str:000000000004efad .LASF4946
     /tmp/cc2IngwB.s:97581  .debug_str:000000000001fc4a .LASF4947
     /tmp/cc2IngwB.s:96463  .debug_str:000000000001b225 .LASF4948
     /tmp/cc2IngwB.s:90113  .debug_str:00000000000016be .LASF4949
     /tmp/cc2IngwB.s:109241  .debug_str:000000000004fa07 .LASF4950
     /tmp/cc2IngwB.s:99327  .debug_str:0000000000026c8e .LASF4951
     /tmp/cc2IngwB.s:96175  .debug_str:0000000000019fb1 .LASF4952
     /tmp/cc2IngwB.s:95019  .debug_str:00000000000153ee .LASF4953
     /tmp/cc2IngwB.s:108423  .debug_str:000000000004c14a .LASF4954
     /tmp/cc2IngwB.s:102225  .debug_str:00000000000326df .LASF4955
     /tmp/cc2IngwB.s:99229  .debug_str:0000000000026672 .LASF4956
     /tmp/cc2IngwB.s:109229  .debug_str:000000000004f960 .LASF4957
     /tmp/cc2IngwB.s:105471  .debug_str:000000000003fa34 .LASF4958
     /tmp/cc2IngwB.s:97971  .debug_str:0000000000021710 .LASF4959
     /tmp/cc2IngwB.s:104339  .debug_str:000000000003addb .LASF4960
     /tmp/cc2IngwB.s:109399  .debug_str:00000000000503ee .LASF4961
     /tmp/cc2IngwB.s:99033  .debug_str:0000000000025c0f .LASF4962
     /tmp/cc2IngwB.s:105049  .debug_str:000000000003de16 .LASF4963
     /tmp/cc2IngwB.s:108783  .debug_str:000000000004da1e .LASF4964
     /tmp/cc2IngwB.s:95553  .debug_str:0000000000017622 .LASF4965
     /tmp/cc2IngwB.s:102801  .debug_str:0000000000034d63 .LASF4966
     /tmp/cc2IngwB.s:96045  .debug_str:00000000000195d8 .LASF4967
     /tmp/cc2IngwB.s:105725  .debug_str:0000000000040a21 .LASF4968
     /tmp/cc2IngwB.s:107103  .debug_str:0000000000046a44 .LASF4969
     /tmp/cc2IngwB.s:109177  .debug_str:000000000004f570 .LASF4970
     /tmp/cc2IngwB.s:96401  .debug_str:000000000001aec3 .LASF4971
     /tmp/cc2IngwB.s:95179  .debug_str:0000000000015e82 .LASF4972
     /tmp/cc2IngwB.s:90181  .debug_str:0000000000001ca1 .LASF4973
     /tmp/cc2IngwB.s:92095  .debug_str:0000000000009dd5 .LASF4974
     /tmp/cc2IngwB.s:97355  .debug_str:000000000001ec7c .LASF4975
     /tmp/cc2IngwB.s:104407  .debug_str:000000000003b260 .LASF4976
     /tmp/cc2IngwB.s:104661  .debug_str:000000000003c41c .LASF4977
     /tmp/cc2IngwB.s:108845  .debug_str:000000000004ddb1 .LASF4978
     /tmp/cc2IngwB.s:104259  .debug_str:000000000003a85c .LASF4979
     /tmp/cc2IngwB.s:109405  .debug_str:0000000000050472 .LASF4980
     /tmp/cc2IngwB.s:108831  .debug_str:000000000004dcb1 .LASF4981
     /tmp/cc2IngwB.s:100763  .debug_str:000000000002c96b .LASF4982
     /tmp/cc2IngwB.s:98183  .debug_str:0000000000022519 .LASF4983
     /tmp/cc2IngwB.s:90879  .debug_str:0000000000004baf .LASF4984
     /tmp/cc2IngwB.s:106785  .debug_str:00000000000455d2 .LASF4985
     /tmp/cc2IngwB.s:105315  .debug_str:000000000003f0c4 .LASF4986
     /tmp/cc2IngwB.s:102657  .debug_str:00000000000344bf .LASF4987
     /tmp/cc2IngwB.s:94743  .debug_str:000000000001432a .LASF4988
     /tmp/cc2IngwB.s:107477  .debug_str:00000000000481c3 .LASF4989
     /tmp/cc2IngwB.s:92613  .debug_str:000000000000c1fa .LASF4990
     /tmp/cc2IngwB.s:100749  .debug_str:000000000002c89e .LASF4991
     /tmp/cc2IngwB.s:91697  .debug_str:00000000000081ef .LASF4992
     /tmp/cc2IngwB.s:93319  .debug_str:000000000000ec90 .LASF4993
     /tmp/cc2IngwB.s:99025  .debug_str:0000000000025b7a .LASF4994
     /tmp/cc2IngwB.s:100417  .debug_str:000000000002b412 .LASF4995
     /tmp/cc2IngwB.s:94835  .debug_str:0000000000014946 .LASF4996
     /tmp/cc2IngwB.s:105277  .debug_str:000000000003ee2d .LASF4997
     /tmp/cc2IngwB.s:101371  .debug_str:000000000002efe6 .LASF4998
     /tmp/cc2IngwB.s:105201  .debug_str:000000000003e962 .LASF4999
     /tmp/cc2IngwB.s:104425  .debug_str:000000000003b3bd .LASF5000
     /tmp/cc2IngwB.s:103477  .debug_str:0000000000037bd1 .LASF5001
     /tmp/cc2IngwB.s:98213  .debug_str:000000000002280d .LASF5002
     /tmp/cc2IngwB.s:107971  .debug_str:000000000004a247 .LASF5003
     /tmp/cc2IngwB.s:96569  .debug_str:000000000001b86b .LASF5004
     /tmp/cc2IngwB.s:109493  .debug_str:0000000000050a5c .LASF5005
     /tmp/cc2IngwB.s:102841  .debug_str:00000000000350ed .LASF5006
     /tmp/cc2IngwB.s:95779  .debug_str:00000000000185d5 .LASF5007
     /tmp/cc2IngwB.s:98245  .debug_str:0000000000022968 .LASF5008
     /tmp/cc2IngwB.s:92471  .debug_str:000000000000b779 .LASF5009
     /tmp/cc2IngwB.s:106527  .debug_str:00000000000444da .LASF5010
     /tmp/cc2IngwB.s:103747  .debug_str:0000000000038bbc .LASF5011
     /tmp/cc2IngwB.s:107139  .debug_str:0000000000046c7d .LASF5012
     /tmp/cc2IngwB.s:91071  .debug_str:000000000000588e .LASF5013
     /tmp/cc2IngwB.s:103861  .debug_str:0000000000039276 .LASF5014
     /tmp/cc2IngwB.s:103155  .debug_str:0000000000036737 .LASF5015
     /tmp/cc2IngwB.s:97845  .debug_str:0000000000020f41 .LASF5016
     /tmp/cc2IngwB.s:102109  .debug_str:0000000000031fbf .LASF5017
     /tmp/cc2IngwB.s:100561  .debug_str:000000000002bd3b .LASF5018
     /tmp/cc2IngwB.s:97659  .debug_str:00000000000201a2 .LASF5019
     /tmp/cc2IngwB.s:100053  .debug_str:0000000000029c65 .LASF5020
     /tmp/cc2IngwB.s:94287  .debug_str:0000000000012561 .LASF5021
     /tmp/cc2IngwB.s:106963  .debug_str:00000000000460ea .LASF5022
     /tmp/cc2IngwB.s:93831  .debug_str:000000000001093d .LASF5023
     /tmp/cc2IngwB.s:96743  .debug_str:000000000001c34a .LASF5024
     /tmp/cc2IngwB.s:106185  .debug_str:0000000000042df9 .LASF5025
     /tmp/cc2IngwB.s:104055  .debug_str:0000000000039ca4 .LASF5026
     /tmp/cc2IngwB.s:109253  .debug_str:000000000004fad2 .LASF5027
     /tmp/cc2IngwB.s:101855  .debug_str:0000000000030fe5 .LASF5028
     /tmp/cc2IngwB.s:107127  .debug_str:0000000000046b7d .LASF5029
     /tmp/cc2IngwB.s:105207  .debug_str:000000000003e9d6 .LASF5030
     /tmp/cc2IngwB.s:95715  .debug_str:00000000000181de .LASF5031
     /tmp/cc2IngwB.s:103311  .debug_str:0000000000037124 .LASF5032
     /tmp/cc2IngwB.s:100541  .debug_str:000000000002bbda .LASF5033
     /tmp/cc2IngwB.s:101533  .debug_str:000000000002fb74 .LASF5034
     /tmp/cc2IngwB.s:101577  .debug_str:000000000002fe27 .LASF5035
     /tmp/cc2IngwB.s:102799  .debug_str:0000000000034d3c .LASF5036
     /tmp/cc2IngwB.s:105111  .debug_str:000000000003e2ef .LASF5037
     /tmp/cc2IngwB.s:108021  .debug_str:000000000004a62a .LASF5038
     /tmp/cc2IngwB.s:95301  .debug_str:0000000000016568 .LASF5039
     /tmp/cc2IngwB.s:96695  .debug_str:000000000001c054 .LASF5040
     /tmp/cc2IngwB.s:94461  .debug_str:00000000000130d7 .LASF5041
     /tmp/cc2IngwB.s:93421  .debug_str:000000000000f0fd .LASF5042
     /tmp/cc2IngwB.s:90071  .debug_str:00000000000013f4 .LASF5043
     /tmp/cc2IngwB.s:97651  .debug_str:0000000000020103 .LASF5044
     /tmp/cc2IngwB.s:108009  .debug_str:000000000004a572 .LASF5045
     /tmp/cc2IngwB.s:107669  .debug_str:0000000000048f17 .LASF5046
     /tmp/cc2IngwB.s:105385  .debug_str:000000000003f4cc .LASF5047
     /tmp/cc2IngwB.s:96075  .debug_str:0000000000019881 .LASF5048
     /tmp/cc2IngwB.s:98851  .debug_str:00000000000251cd .LASF5049
     /tmp/cc2IngwB.s:108079  .debug_str:000000000004a9b9 .LASF5050
     /tmp/cc2IngwB.s:95323  .debug_str:00000000000166e8 .LASF5051
     /tmp/cc2IngwB.s:95853  .debug_str:0000000000018ada .LASF5052
     /tmp/cc2IngwB.s:92925  .debug_str:000000000000d66c .LASF5053
     /tmp/cc2IngwB.s:100431  .debug_str:000000000002b516 .LASF5054
     /tmp/cc2IngwB.s:104871  .debug_str:000000000003d232 .LASF5055
     /tmp/cc2IngwB.s:100857  .debug_str:000000000002ced1 .LASF5056
     /tmp/cc2IngwB.s:109081  .debug_str:000000000004ef6b .LASF5057
     /tmp/cc2IngwB.s:99303  .debug_str:0000000000026ad5 .LASF5058
     /tmp/cc2IngwB.s:106575  .debug_str:000000000004483a .LASF5059
     /tmp/cc2IngwB.s:106165  .debug_str:0000000000042c67 .LASF5060
     /tmp/cc2IngwB.s:91783  .debug_str:0000000000008832 .LASF5061
     /tmp/cc2IngwB.s:104847  .debug_str:000000000003d0eb .LASF5062
     /tmp/cc2IngwB.s:94579  .debug_str:0000000000013955 .LASF5063
     /tmp/cc2IngwB.s:92173  .debug_str:000000000000a299 .LASF5064
     /tmp/cc2IngwB.s:95363  .debug_str:0000000000016941 .LASF5065
     /tmp/cc2IngwB.s:94269  .debug_str:0000000000012414 .LASF5066
     /tmp/cc2IngwB.s:99679  .debug_str:000000000002835e .LASF5067
     /tmp/cc2IngwB.s:92165  .debug_str:000000000000a219 .LASF5068
     /tmp/cc2IngwB.s:96647  .debug_str:000000000001bccc .LASF5069
     /tmp/cc2IngwB.s:108763  .debug_str:000000000004d8af .LASF5070
     /tmp/cc2IngwB.s:93685  .debug_str:0000000000010197 .LASF5071
     /tmp/cc2IngwB.s:98305  .debug_str:0000000000022d7e .LASF5072
     /tmp/cc2IngwB.s:101403  .debug_str:000000000002f230 .LASF5073
     /tmp/cc2IngwB.s:100807  .debug_str:000000000002cc06 .LASF5074
     /tmp/cc2IngwB.s:98309  .debug_str:0000000000022db8 .LASF5075
     /tmp/cc2IngwB.s:96965  .debug_str:000000000001d1db .LASF5076
     /tmp/cc2IngwB.s:92027  .debug_str:000000000000984e .LASF5077
     /tmp/cc2IngwB.s:98637  .debug_str:000000000002438e .LASF5078
     /tmp/cc2IngwB.s:90017  .debug_str:000000000000102d .LASF5079
     /tmp/cc2IngwB.s:98083  .debug_str:0000000000021f18 .LASF5080
     /tmp/cc2IngwB.s:94703  .debug_str:0000000000014114 .LASF5081
     /tmp/cc2IngwB.s:97431  .debug_str:000000000001f0db .LASF5082
     /tmp/cc2IngwB.s:103275  .debug_str:0000000000036ef9 .LASF5083
     /tmp/cc2IngwB.s:97533  .debug_str:000000000001f8e3 .LASF5084
     /tmp/cc2IngwB.s:99851  .debug_str:0000000000028f15 .LASF5085
     /tmp/cc2IngwB.s:105915  .debug_str:000000000004184d .LASF5086
     /tmp/cc2IngwB.s:104977  .debug_str:000000000003d92f .LASF5087
     /tmp/cc2IngwB.s:98455  .debug_str:000000000002374c .LASF5088
     /tmp/cc2IngwB.s:90769  .debug_str:0000000000004489 .LASF5089
     /tmp/cc2IngwB.s:107045  .debug_str:0000000000046609 .LASF5090
     /tmp/cc2IngwB.s:98625  .debug_str:00000000000242d9 .LASF5091
     /tmp/cc2IngwB.s:93003  .debug_str:000000000000db4f .LASF5092
     /tmp/cc2IngwB.s:106027  .debug_str:00000000000420bd .LASF5093
     /tmp/cc2IngwB.s:105283  .debug_str:000000000003ee96 .LASF5094
     /tmp/cc2IngwB.s:98525  .debug_str:0000000000023c7f .LASF5095
     /tmp/cc2IngwB.s:89875  .debug_str:00000000000006fd .LASF5096
     /tmp/cc2IngwB.s:94913  .debug_str:0000000000014e24 .LASF5097
     /tmp/cc2IngwB.s:101079  .debug_str:000000000002dc8c .LASF5098
     /tmp/cc2IngwB.s:95861  .debug_str:0000000000018b5b .LASF5099
     /tmp/cc2IngwB.s:90625  .debug_str:0000000000003a0d .LASF5100
     /tmp/cc2IngwB.s:106807  .debug_str:0000000000045703 .LASF5101
     /tmp/cc2IngwB.s:104297  .debug_str:000000000003aaf0 .LASF5102
     /tmp/cc2IngwB.s:97489  .debug_str:000000000001f54b .LASF5103
     /tmp/cc2IngwB.s:104823  .debug_str:000000000003cfb3 .LASF5104
     /tmp/cc2IngwB.s:105031  .debug_str:000000000003dcc4 .LASF5105
     /tmp/cc2IngwB.s:94619  .debug_str:0000000000013b9d .LASF5106
     /tmp/cc2IngwB.s:104699  .debug_str:000000000003c6c4 .LASF5107
     /tmp/cc2IngwB.s:91685  .debug_str:0000000000008151 .LASF5108
     /tmp/cc2IngwB.s:91001  .debug_str:0000000000005383 .LASF5109
     /tmp/cc2IngwB.s:100893  .debug_str:000000000002d15c .LASF5110
     /tmp/cc2IngwB.s:92273  .debug_str:000000000000a9b2 .LASF5111
     /tmp/cc2IngwB.s:96069  .debug_str:0000000000019820 .LASF5112
     /tmp/cc2IngwB.s:105765  .debug_str:0000000000040c4c .LASF5113
     /tmp/cc2IngwB.s:90053  .debug_str:00000000000012be .LASF5114
     /tmp/cc2IngwB.s:101611  .debug_str:000000000003004f .LASF5115
     /tmp/cc2IngwB.s:93943  .debug_str:0000000000010f06 .LASF5116
     /tmp/cc2IngwB.s:92779  .debug_str:000000000000ccf5 .LASF5117
     /tmp/cc2IngwB.s:103029  .debug_str:0000000000035ebc .LASF5118
     /tmp/cc2IngwB.s:104655  .debug_str:000000000003c3b2 .LASF5119
     /tmp/cc2IngwB.s:92017  .debug_str:00000000000097d4 .LASF5120
     /tmp/cc2IngwB.s:99279  .debug_str:0000000000026942 .LASF5121
     /tmp/cc2IngwB.s:99449  .debug_str:000000000002745e .LASF5122
     /tmp/cc2IngwB.s:101163  .debug_str:000000000002e253 .LASF5123
     /tmp/cc2IngwB.s:95223  .debug_str:0000000000016139 .LASF5124
     /tmp/cc2IngwB.s:99283  .debug_str:000000000002697e .LASF5125
     /tmp/cc2IngwB.s:91585  .debug_str:0000000000007b14 .LASF5126
     /tmp/cc2IngwB.s:109225  .debug_str:000000000004f90e .LASF5127
     /tmp/cc2IngwB.s:109153  .debug_str:000000000004f465 .LASF5128
     /tmp/cc2IngwB.s:103787  .debug_str:0000000000038ea1 .LASF5129
     /tmp/cc2IngwB.s:97283  .debug_str:000000000001e741 .LASF5130
     /tmp/cc2IngwB.s:106093  .debug_str:0000000000042748 .LASF5131
     /tmp/cc2IngwB.s:98249  .debug_str:00000000000229a9 .LASF5132
     /tmp/cc2IngwB.s:92819  .debug_str:000000000000cfee .LASF5133
     /tmp/cc2IngwB.s:90569  .debug_str:00000000000035df .LASF5134
     /tmp/cc2IngwB.s:105097  .debug_str:000000000003e15c .LASF5135
     /tmp/cc2IngwB.s:94567  .debug_str:00000000000138ab .LASF5136
     /tmp/cc2IngwB.s:99571  .debug_str:0000000000027c36 .LASF5137
     /tmp/cc2IngwB.s:104431  .debug_str:000000000003b432 .LASF5138
     /tmp/cc2IngwB.s:91657  .debug_str:0000000000007f7f .LASF5139
     /tmp/cc2IngwB.s:95845  .debug_str:0000000000018a68 .LASF5140
     /tmp/cc2IngwB.s:93617  .debug_str:000000000000fd7d .LASF5141
     /tmp/cc2IngwB.s:100869  .debug_str:000000000002cfcb .LASF5142
     /tmp/cc2IngwB.s:95745  .debug_str:00000000000183d5 .LASF5143
     /tmp/cc2IngwB.s:99907  .debug_str:00000000000292fe .LASF5144
     /tmp/cc2IngwB.s:108139  .debug_str:000000000004ac8a .LASF5145
     /tmp/cc2IngwB.s:108071  .debug_str:000000000004a915 .LASF5146
     /tmp/cc2IngwB.s:96519  .debug_str:000000000001b5ba .LASF5147
     /tmp/cc2IngwB.s:104993  .debug_str:000000000003da30 .LASF5148
     /tmp/cc2IngwB.s:99423  .debug_str:00000000000272fb .LASF5149
     /tmp/cc2IngwB.s:108335  .debug_str:000000000004baf8 .LASF5150
     /tmp/cc2IngwB.s:94061  .debug_str:00000000000116ac .LASF5151
     /tmp/cc2IngwB.s:98751  .debug_str:0000000000024bb0 .LASF5152
     /tmp/cc2IngwB.s:103705  .debug_str:0000000000038a13 .LASF5153
     /tmp/cc2IngwB.s:96079  .debug_str:00000000000198f0 .LASF5154
     /tmp/cc2IngwB.s:94543  .debug_str:00000000000136e2 .LASF5155
     /tmp/cc2IngwB.s:99049  .debug_str:0000000000025ce3 .LASF5156
     /tmp/cc2IngwB.s:90067  .debug_str:00000000000013a4 .LASF5157
     /tmp/cc2IngwB.s:106153  .debug_str:0000000000042b97 .LASF5158
     /tmp/cc2IngwB.s:104919  .debug_str:000000000003d59b .LASF5159
     /tmp/cc2IngwB.s:96133  .debug_str:0000000000019ca9 .LASF5160
     /tmp/cc2IngwB.s:96931  .debug_str:000000000001cf6f .LASF5161
     /tmp/cc2IngwB.s:90743  .debug_str:000000000000426d .LASF5162
     /tmp/cc2IngwB.s:103427  .debug_str:00000000000378d9 .LASF5163
     /tmp/cc2IngwB.s:92665  .debug_str:000000000000c510 .LASF5164
     /tmp/cc2IngwB.s:97821  .debug_str:0000000000020da7 .LASF5165
     /tmp/cc2IngwB.s:93821  .debug_str:000000000001086f .LASF5166
     /tmp/cc2IngwB.s:106653  .debug_str:0000000000044cdb .LASF5167
     /tmp/cc2IngwB.s:94277  .debug_str:0000000000012495 .LASF5168
     /tmp/cc2IngwB.s:102965  .debug_str:00000000000359ae .LASF5169
     /tmp/cc2IngwB.s:96557  .debug_str:000000000001b7b0 .LASF5170
     /tmp/cc2IngwB.s:98717  .debug_str:0000000000024938 .LASF5171
     /tmp/cc2IngwB.s:105855  .debug_str:00000000000412c2 .LASF5172
     /tmp/cc2IngwB.s:89969  .debug_str:0000000000000cc7 .LASF5173
     /tmp/cc2IngwB.s:96255  .debug_str:000000000001a4f1 .LASF5174
     /tmp/cc2IngwB.s:98299  .debug_str:0000000000022cec .LASF5175
     /tmp/cc2IngwB.s:95379  .debug_str:0000000000016a82 .LASF5176
     /tmp/cc2IngwB.s:103499  .debug_str:0000000000037d4c .LASF5177
     /tmp/cc2IngwB.s:108315  .debug_str:000000000004b9ba .LASF5178
     /tmp/cc2IngwB.s:103365  .debug_str:0000000000037476 .LASF5179
     /tmp/cc2IngwB.s:96967  .debug_str:000000000001d203 .LASF5180
     /tmp/cc2IngwB.s:97231  .debug_str:000000000001e405 .LASF5181
     /tmp/cc2IngwB.s:99405  .debug_str:00000000000271f5 .LASF5182
     /tmp/cc2IngwB.s:105289  .debug_str:000000000003eefd .LASF5183
     /tmp/cc2IngwB.s:98019  .debug_str:0000000000021a47 .LASF5184
     /tmp/cc2IngwB.s:104247  .debug_str:000000000003a740 .LASF5185
     /tmp/cc2IngwB.s:102647  .debug_str:0000000000034409 .LASF5186
     /tmp/cc2IngwB.s:103673  .debug_str:0000000000038813 .LASF5187
     /tmp/cc2IngwB.s:107481  .debug_str:000000000004820e .LASF5188
     /tmp/cc2IngwB.s:97333  .debug_str:000000000001eacd .LASF5189
     /tmp/cc2IngwB.s:105129  .debug_str:000000000003e408 .LASF5190
     /tmp/cc2IngwB.s:98979  .debug_str:000000000002587d .LASF5191
     /tmp/cc2IngwB.s:92995  .debug_str:000000000000dabc .LASF5192
     /tmp/cc2IngwB.s:93835  .debug_str:0000000000010976 .LASF5193
     /tmp/cc2IngwB.s:99123  .debug_str:0000000000026095 .LASF5194
     /tmp/cc2IngwB.s:90417  .debug_str:0000000000002c68 .LASF5195
     /tmp/cc2IngwB.s:101241  .debug_str:000000000002e797 .LASF5196
     /tmp/cc2IngwB.s:98481  .debug_str:00000000000238b4 .LASF5197
     /tmp/cc2IngwB.s:100533  .debug_str:000000000002bb6d .LASF5198
     /tmp/cc2IngwB.s:90587  .debug_str:0000000000003741 .LASF5199
     /tmp/cc2IngwB.s:92233  .debug_str:000000000000a676 .LASF5200
     /tmp/cc2IngwB.s:104369  .debug_str:000000000003affb .LASF5201
     /tmp/cc2IngwB.s:91447  .debug_str:0000000000007227 .LASF5202
     /tmp/cc2IngwB.s:92373  .debug_str:000000000000b057 .LASF5203
     /tmp/cc2IngwB.s:102553  .debug_str:0000000000033e0a .LASF5204
     /tmp/cc2IngwB.s:108545  .debug_str:000000000004c949 .LASF5205
     /tmp/cc2IngwB.s:109475  .debug_str:000000000005092a .LASF5206
     /tmp/cc2IngwB.s:106509  .debug_str:00000000000443cf .LASF5207
     /tmp/cc2IngwB.s:92093  .debug_str:0000000000009da7 .LASF5208
     /tmp/cc2IngwB.s:102725  .debug_str:00000000000348e2 .LASF5209
     /tmp/cc2IngwB.s:104421  .debug_str:000000000003b376 .LASF5210
     /tmp/cc2IngwB.s:108147  .debug_str:000000000004ad20 .LASF5211
     /tmp/cc2IngwB.s:93877  .debug_str:0000000000010bb1 .LASF5212
     /tmp/cc2IngwB.s:90719  .debug_str:00000000000040ab .LASF5213
     /tmp/cc2IngwB.s:104249  .debug_str:000000000003a774 .LASF5214
     /tmp/cc2IngwB.s:105483  .debug_str:000000000003fb1b .LASF5215
     /tmp/cc2IngwB.s:102205  .debug_str:0000000000032571 .LASF5216
     /tmp/cc2IngwB.s:101585  .debug_str:000000000002fed6 .LASF5217
     /tmp/cc2IngwB.s:93131  .debug_str:000000000000e1f6 .LASF5218
     /tmp/cc2IngwB.s:97547  .debug_str:000000000001f9ed .LASF5219
     /tmp/cc2IngwB.s:99967  .debug_str:0000000000029779 .LASF5220
     /tmp/cc2IngwB.s:103303  .debug_str:00000000000370be .LASF5221
     /tmp/cc2IngwB.s:107043  .debug_str:00000000000465e5 .LASF5222
     /tmp/cc2IngwB.s:103595  .debug_str:000000000003830b .LASF5223
     /tmp/cc2IngwB.s:107725  .debug_str:0000000000049269 .LASF5224
     /tmp/cc2IngwB.s:95867  .debug_str:0000000000018bb9 .LASF5225
     /tmp/cc2IngwB.s:108233  .debug_str:000000000004b379 .LASF5226
     /tmp/cc2IngwB.s:90173  .debug_str:0000000000001be5 .LASF5227
     /tmp/cc2IngwB.s:94781  .debug_str:00000000000145a8 .LASF5228
     /tmp/cc2IngwB.s:106341  .debug_str:0000000000043863 .LASF5229
     /tmp/cc2IngwB.s:90959  .debug_str:0000000000005136 .LASF5230
     /tmp/cc2IngwB.s:106455  .debug_str:000000000004402d .LASF5231
     /tmp/cc2IngwB.s:103929  .debug_str:0000000000039576 .LASF5232
     /tmp/cc2IngwB.s:102487  .debug_str:00000000000338e6 .LASF5233
     /tmp/cc2IngwB.s:108523  .debug_str:000000000004c805 .LASF5234
     /tmp/cc2IngwB.s:98629  .debug_str:000000000002431c .LASF5235
     /tmp/cc2IngwB.s:95663  .debug_str:0000000000017ebc .LASF5236
     /tmp/cc2IngwB.s:107739  .debug_str:0000000000049361 .LASF5237
     /tmp/cc2IngwB.s:97437  .debug_str:000000000001f163 .LASF5238
     /tmp/cc2IngwB.s:91947  .debug_str:0000000000009311 .LASF5239
     /tmp/cc2IngwB.s:98193  .debug_str:00000000000225d4 .LASF5240
     /tmp/cc2IngwB.s:100547  .debug_str:000000000002bc40 .LASF5241
     /tmp/cc2IngwB.s:98395  .debug_str:000000000002335c .LASF5242
     /tmp/cc2IngwB.s:90985  .debug_str:0000000000005282 .LASF5243
     /tmp/cc2IngwB.s:90757  .debug_str:0000000000004395 .LASF5244
     /tmp/cc2IngwB.s:102483  .debug_str:00000000000338b6 .LASF5245
     /tmp/cc2IngwB.s:96953  .debug_str:000000000001d11e .LASF5246
     /tmp/cc2IngwB.s:109339  .debug_str:000000000004ffbd .LASF5247
     /tmp/cc2IngwB.s:91613  .debug_str:0000000000007ce3 .LASF5248
     /tmp/cc2IngwB.s:107543  .debug_str:00000000000486ae .LASF5249
     /tmp/cc2IngwB.s:103161  .debug_str:000000000003678e .LASF5250
     /tmp/cc2IngwB.s:98177  .debug_str:000000000002248e .LASF5251
     /tmp/cc2IngwB.s:105057  .debug_str:000000000003ded6 .LASF5252
     /tmp/cc2IngwB.s:107137  .debug_str:0000000000046c50 .LASF5253
     /tmp/cc2IngwB.s:97139  .debug_str:000000000001dd52 .LASF5254
     /tmp/cc2IngwB.s:107785  .debug_str:0000000000049639 .LASF5255
     /tmp/cc2IngwB.s:109479  .debug_str:000000000005099d .LASF5256
     /tmp/cc2IngwB.s:90129  .debug_str:0000000000001835 .LASF5257
     /tmp/cc2IngwB.s:108741  .debug_str:000000000004d70e .LASF5258
     /tmp/cc2IngwB.s:96485  .debug_str:000000000001b397 .LASF5259
     /tmp/cc2IngwB.s:107599  .debug_str:0000000000048a71 .LASF5260
     /tmp/cc2IngwB.s:100899  .debug_str:000000000002d1f8 .LASF5261
     /tmp/cc2IngwB.s:93091  .debug_str:000000000000df74 .LASF5262
     /tmp/cc2IngwB.s:95677  .debug_str:0000000000017fbd .LASF5263
     /tmp/cc2IngwB.s:98075  .debug_str:0000000000021e62 .LASF5264
     /tmp/cc2IngwB.s:104581  .debug_str:000000000003bec6 .LASF5265
     /tmp/cc2IngwB.s:95685  .debug_str:0000000000018024 .LASF5266
     /tmp/cc2IngwB.s:97205  .debug_str:000000000001e21f .LASF5267
     /tmp/cc2IngwB.s:103343  .debug_str:0000000000037382 .LASF5268
     /tmp/cc2IngwB.s:95285  .debug_str:00000000000164ae .LASF5269
     /tmp/cc2IngwB.s:101053  .debug_str:000000000002dad2 .LASF5270
     /tmp/cc2IngwB.s:101413  .debug_str:000000000002f2dc .LASF5271
     /tmp/cc2IngwB.s:101879  .debug_str:0000000000031169 .LASF5272
     /tmp/cc2IngwB.s:100497  .debug_str:000000000002b883 .LASF5273
     /tmp/cc2IngwB.s:105403  .debug_str:000000000003f5bd .LASF5274
     /tmp/cc2IngwB.s:91007  .debug_str:00000000000053d8 .LASF5275
     /tmp/cc2IngwB.s:93997  .debug_str:0000000000011214 .LASF5276
     /tmp/cc2IngwB.s:93107  .debug_str:000000000000e056 .LASF5277
     /tmp/cc2IngwB.s:94501  .debug_str:0000000000013380 .LASF5278
     /tmp/cc2IngwB.s:91857  .debug_str:0000000000008d56 .LASF5279
     /tmp/cc2IngwB.s:106221  .debug_str:00000000000430a6 .LASF5280
     /tmp/cc2IngwB.s:90193  .debug_str:0000000000001d80 .LASF5281
     /tmp/cc2IngwB.s:94195  .debug_str:0000000000011edc .LASF5282
     /tmp/cc2IngwB.s:100197  .debug_str:000000000002a5dd .LASF5283
     /tmp/cc2IngwB.s:98207  .debug_str:000000000002278b .LASF5284
     /tmp/cc2IngwB.s:99245  .debug_str:000000000002676b .LASF5285
     /tmp/cc2IngwB.s:102407  .debug_str:00000000000333c7 .LASF5286
     /tmp/cc2IngwB.s:92339  .debug_str:000000000000ad9f .LASF5287
     /tmp/cc2IngwB.s:94823  .debug_str:000000000001484b .LASF5288
     /tmp/cc2IngwB.s:105963  .debug_str:0000000000041c6e .LASF5289
     /tmp/cc2IngwB.s:102729  .debug_str:000000000003493e .LASF5290
     /tmp/cc2IngwB.s:101511  .debug_str:000000000002f9c6 .LASF5291
     /tmp/cc2IngwB.s:91267  .debug_str:00000000000064ed .LASF5292
     /tmp/cc2IngwB.s:93269  .debug_str:000000000000e9b0 .LASF5293
     /tmp/cc2IngwB.s:108293  .debug_str:000000000004b79e .LASF5294
     /tmp/cc2IngwB.s:97501  .debug_str:000000000001f660 .LASF5295
     /tmp/cc2IngwB.s:99733  .debug_str:000000000002867e .LASF5296
     /tmp/cc2IngwB.s:103331  .debug_str:00000000000372af .LASF5297
     /tmp/cc2IngwB.s:99295  .debug_str:0000000000026a4b .LASF5298
     /tmp/cc2IngwB.s:92729  .debug_str:000000000000c93d .LASF5299
     /tmp/cc2IngwB.s:102499  .debug_str:00000000000339bb .LASF5300
     /tmp/cc2IngwB.s:102279  .debug_str:0000000000032b1c .LASF5301
     /tmp/cc2IngwB.s:96751  .debug_str:000000000001c3e6 .LASF5302
     /tmp/cc2IngwB.s:98495  .debug_str:0000000000023a8f .LASF5303
     /tmp/cc2IngwB.s:108311  .debug_str:000000000004b966 .LASF5304
     /tmp/cc2IngwB.s:105279  .debug_str:000000000003ee5c .LASF5305
     /tmp/cc2IngwB.s:99681  .debug_str:000000000002838e .LASF5306
     /tmp/cc2IngwB.s:108991  .debug_str:000000000004e947 .LASF5307
     /tmp/cc2IngwB.s:108643  .debug_str:000000000004cf9f .LASF5308
     /tmp/cc2IngwB.s:91153  .debug_str:0000000000005d9d .LASF5309
     /tmp/cc2IngwB.s:95213  .debug_str:000000000001608d .LASF5310
     /tmp/cc2IngwB.s:100551  .debug_str:000000000002bca1 .LASF5311
     /tmp/cc2IngwB.s:90977  .debug_str:000000000000520c .LASF5312
     /tmp/cc2IngwB.s:98061  .debug_str:0000000000021d3a .LASF5313
     /tmp/cc2IngwB.s:96081  .debug_str:0000000000019921 .LASF5314
     /tmp/cc2IngwB.s:94265  .debug_str:00000000000123c4 .LASF5315
     /tmp/cc2IngwB.s:98683  .debug_str:0000000000024709 .LASF5316
     /tmp/cc2IngwB.s:101111  .debug_str:000000000002de9e .LASF5317
     /tmp/cc2IngwB.s:108305  .debug_str:000000000004b8bd .LASF5318
     /tmp/cc2IngwB.s:106223  .debug_str:00000000000430cc .LASF5319
     /tmp/cc2IngwB.s:92325  .debug_str:000000000000acea .LASF5320
     /tmp/cc2IngwB.s:100095  .debug_str:0000000000029ef5 .LASF5321
     /tmp/cc2IngwB.s:108129  .debug_str:000000000004ac22 .LASF5322
     /tmp/cc2IngwB.s:98261  .debug_str:0000000000022a89 .LASF5323
     /tmp/cc2IngwB.s:95383  .debug_str:0000000000016ad1 .LASF5324
     /tmp/cc2IngwB.s:94405  .debug_str:0000000000012cf2 .LASF5325
     /tmp/cc2IngwB.s:104139  .debug_str:000000000003a17e .LASF5326
     /tmp/cc2IngwB.s:106911  .debug_str:0000000000045d02 .LASF5327
     /tmp/cc2IngwB.s:106461  .debug_str:000000000004409a .LASF5328
     /tmp/cc2IngwB.s:104621  .debug_str:000000000003c13e .LASF5329
     /tmp/cc2IngwB.s:107291  .debug_str:0000000000047595 .LASF5330
     /tmp/cc2IngwB.s:102885  .debug_str:00000000000353f0 .LASF5331
     /tmp/cc2IngwB.s:94687  .debug_str:000000000001400d .LASF5332
     /tmp/cc2IngwB.s:92089  .debug_str:0000000000009d59 .LASF5333
     /tmp/cc2IngwB.s:107289  .debug_str:000000000004756e .LASF5334
     /tmp/cc2IngwB.s:105735  .debug_str:0000000000040aaf .LASF5335
     /tmp/cc2IngwB.s:102261  .debug_str:0000000000032964 .LASF5336
     /tmp/cc2IngwB.s:92143  .debug_str:000000000000a071 .LASF5337
     /tmp/cc2IngwB.s:101601  .debug_str:000000000002ffb9 .LASF5338
     /tmp/cc2IngwB.s:105203  .debug_str:000000000003e998 .LASF5339
     /tmp/cc2IngwB.s:108113  .debug_str:000000000004ab7f .LASF5340
     /tmp/cc2IngwB.s:104057  .debug_str:0000000000039ccb .LASF5341
     /tmp/cc2IngwB.s:94049  .debug_str:00000000000115de .LASF5342
     /tmp/cc2IngwB.s:98741  .debug_str:0000000000024b05 .LASF5343
     /tmp/cc2IngwB.s:96599  .debug_str:000000000001ba4d .LASF5344
     /tmp/cc2IngwB.s:98411  .debug_str:000000000002343f .LASF5345
     /tmp/cc2IngwB.s:91763  .debug_str:0000000000008691 .LASF5346
     /tmp/cc2IngwB.s:92775  .debug_str:000000000000cc6b .LASF5347
     /tmp/cc2IngwB.s:92631  .debug_str:000000000000c30e .LASF5348
     /tmp/cc2IngwB.s:107593  .debug_str:0000000000048a19 .LASF5349
     /tmp/cc2IngwB.s:99017  .debug_str:0000000000025ac3 .LASF5350
     /tmp/cc2IngwB.s:98069  .debug_str:0000000000021e0c .LASF5351
     /tmp/cc2IngwB.s:94243  .debug_str:000000000001220a .LASF5352
     /tmp/cc2IngwB.s:104363  .debug_str:000000000003af75 .LASF5353
     /tmp/cc2IngwB.s:101201  .debug_str:000000000002e4b9 .LASF5354
     /tmp/cc2IngwB.s:104483  .debug_str:000000000003b7d1 .LASF5355
     /tmp/cc2IngwB.s:108985  .debug_str:000000000004e8da .LASF5356
     /tmp/cc2IngwB.s:101917  .debug_str:00000000000313ac .LASF5357
     /tmp/cc2IngwB.s:92469  .debug_str:000000000000b749 .LASF5358
     /tmp/cc2IngwB.s:99249  .debug_str:00000000000267b5 .LASF5359
     /tmp/cc2IngwB.s:106767  .debug_str:0000000000045495 .LASF5360
     /tmp/cc2IngwB.s:108331  .debug_str:000000000004babf .LASF5361
     /tmp/cc2IngwB.s:97677  .debug_str:0000000000020353 .LASF5362
     /tmp/cc2IngwB.s:106127  .debug_str:00000000000429d7 .LASF5363
     /tmp/cc2IngwB.s:95781  .debug_str:000000000001860d .LASF5364
     /tmp/cc2IngwB.s:103535  .debug_str:0000000000037fe8 .LASF5365
     /tmp/cc2IngwB.s:92555  .debug_str:000000000000bd77 .LASF5366
     /tmp/cc2IngwB.s:91421  .debug_str:000000000000705c .LASF5367
     /tmp/cc2IngwB.s:98095  .debug_str:0000000000021ff0 .LASF5368
     /tmp/cc2IngwB.s:91709  .debug_str:00000000000082e5 .LASF5369
     /tmp/cc2IngwB.s:94389  .debug_str:0000000000012ba3 .LASF5370
     /tmp/cc2IngwB.s:104027  .debug_str:0000000000039b1a .LASF5371
     /tmp/cc2IngwB.s:108649  .debug_str:000000000004d031 .LASF5372
     /tmp/cc2IngwB.s:104693  .debug_str:000000000003c66c .LASF5373
     /tmp/cc2IngwB.s:100153  .debug_str:000000000002a2b8 .LASF5374
     /tmp/cc2IngwB.s:101987  .debug_str:00000000000317d8 .LASF5375
     /tmp/cc2IngwB.s:92071  .debug_str:0000000000009ba7 .LASF5376
     /tmp/cc2IngwB.s:94425  .debug_str:0000000000012e1f .LASF5377
     /tmp/cc2IngwB.s:100661  .debug_str:000000000002c311 .LASF5378
     /tmp/cc2IngwB.s:106603  .debug_str:00000000000449a7 .LASF5379
     /tmp/cc2IngwB.s:93095  .debug_str:000000000000dfab .LASF5380
     /tmp/cc2IngwB.s:99383  .debug_str:0000000000027019 .LASF5381
     /tmp/cc2IngwB.s:101081  .debug_str:000000000002dc98 .LASF5382
     /tmp/cc2IngwB.s:104417  .debug_str:000000000003b320 .LASF5383
     /tmp/cc2IngwB.s:93449  .debug_str:000000000000f321 .LASF5384
     /tmp/cc2IngwB.s:91721  .debug_str:00000000000083a2 .LASF5385
     /tmp/cc2IngwB.s:94493  .debug_str:00000000000132f4 .LASF5386
     /tmp/cc2IngwB.s:96787  .debug_str:000000000001c608 .LASF5387
     /tmp/cc2IngwB.s:97695  .debug_str:00000000000204c2 .LASF5388
     /tmp/cc2IngwB.s:90619  .debug_str:0000000000003983 .LASF5389
     /tmp/cc2IngwB.s:102789  .debug_str:0000000000034c5e .LASF5390
     /tmp/cc2IngwB.s:107659  .debug_str:0000000000048e4a .LASF5391
     /tmp/cc2IngwB.s:109027  .debug_str:000000000004eb76 .LASF5392
     /tmp/cc2IngwB.s:108577  .debug_str:000000000004cb5e .LASF5393
     /tmp/cc2IngwB.s:90735  .debug_str:00000000000041d3 .LASF5394
     /tmp/cc2IngwB.s:91319  .debug_str:000000000000682d .LASF5395
     /tmp/cc2IngwB.s:104959  .debug_str:000000000003d81a .LASF5396
     /tmp/cc2IngwB.s:102301  .debug_str:0000000000032c6f .LASF5397
     /tmp/cc2IngwB.s:100225  .debug_str:000000000002a802 .LASF5398
     /tmp/cc2IngwB.s:98903  .debug_str:000000000002548e .LASF5399
     /tmp/cc2IngwB.s:90553  .debug_str:000000000000351f .LASF5400
     /tmp/cc2IngwB.s:94515  .debug_str:00000000000134c8 .LASF5401
     /tmp/cc2IngwB.s:100983  .debug_str:000000000002d6c1 .LASF5402
     /tmp/cc2IngwB.s:94733  .debug_str:00000000000142af .LASF5403
     /tmp/cc2IngwB.s:95425  .debug_str:0000000000016dfb .LASF5404
     /tmp/cc2IngwB.s:95341  .debug_str:0000000000016841 .LASF5405
     /tmp/cc2IngwB.s:107743  .debug_str:000000000004939f .LASF5406
     /tmp/cc2IngwB.s:100891  .debug_str:000000000002d133 .LASF5407
     /tmp/cc2IngwB.s:99669  .debug_str:00000000000282ab .LASF5408
     /tmp/cc2IngwB.s:94651  .debug_str:0000000000013da3 .LASF5409
     /tmp/cc2IngwB.s:102895  .debug_str:000000000003546e .LASF5410
     /tmp/cc2IngwB.s:104019  .debug_str:0000000000039a93 .LASF5411
     /tmp/cc2IngwB.s:98849  .debug_str:000000000002519d .LASF5412
     /tmp/cc2IngwB.s:101723  .debug_str:0000000000030721 .LASF5413
     /tmp/cc2IngwB.s:91313  .debug_str:00000000000067dd .LASF5414
     /tmp/cc2IngwB.s:102759  .debug_str:0000000000034aec .LASF5415
     /tmp/cc2IngwB.s:91031  .debug_str:000000000000558a .LASF5416
     /tmp/cc2IngwB.s:97249  .debug_str:000000000001e522 .LASF5417
     /tmp/cc2IngwB.s:107613  .debug_str:0000000000048b5a .LASF5418
     /tmp/cc2IngwB.s:105035  .debug_str:000000000003dd0b .LASF5419
     /tmp/cc2IngwB.s:96845  .debug_str:000000000001c9bf .LASF5420
     /tmp/cc2IngwB.s:95401  .debug_str:0000000000016c26 .LASF5421
     /tmp/cc2IngwB.s:103425  .debug_str:00000000000378a0 .LASF5422
     /tmp/cc2IngwB.s:107553  .debug_str:0000000000048773 .LASF5423
     /tmp/cc2IngwB.s:92515  .debug_str:000000000000baac .LASF5424
     /tmp/cc2IngwB.s:101695  .debug_str:00000000000305a7 .LASF5425
     /tmp/cc2IngwB.s:89985  .debug_str:0000000000000ddd .LASF5426
     /tmp/cc2IngwB.s:108567  .debug_str:000000000004cab2 .LASF5427
     /tmp/cc2IngwB.s:93949  .debug_str:0000000000010f65 .LASF5428
     /tmp/cc2IngwB.s:92599  .debug_str:000000000000c0e6 .LASF5429
     /tmp/cc2IngwB.s:99535  .debug_str:00000000000279a3 .LASF5430
     /tmp/cc2IngwB.s:95625  .debug_str:0000000000017bc1 .LASF5431
     /tmp/cc2IngwB.s:90885  .debug_str:0000000000004c15 .LASF5432
     /tmp/cc2IngwB.s:90869  .debug_str:0000000000004b20 .LASF5433
     /tmp/cc2IngwB.s:96957  .debug_str:000000000001d151 .LASF5434
     /tmp/cc2IngwB.s:102579  .debug_str:0000000000033f78 .LASF5435
     /tmp/cc2IngwB.s:107053  .debug_str:000000000004669c .LASF5436
     /tmp/cc2IngwB.s:97487  .debug_str:000000000001f512 .LASF5437
     /tmp/cc2IngwB.s:95061  .debug_str:00000000000156af .LASF5438
     /tmp/cc2IngwB.s:100069  .debug_str:0000000000029d91 .LASF5439
     /tmp/cc2IngwB.s:95629  .debug_str:0000000000017c22 .LASF5440
     /tmp/cc2IngwB.s:104331  .debug_str:000000000003ad2b .LASF5441
     /tmp/cc2IngwB.s:108169  .debug_str:000000000004ae91 .LASF5442
     /tmp/cc2IngwB.s:106641  .debug_str:0000000000044c2e .LASF5443
     /tmp/cc2IngwB.s:109149  .debug_str:000000000004f3f5 .LASF5444
     /tmp/cc2IngwB.s:96855  .debug_str:000000000001ca83 .LASF5445
     /tmp/cc2IngwB.s:103019  .debug_str:0000000000035dc8 .LASF5446
     /tmp/cc2IngwB.s:107839  .debug_str:00000000000499e7 .LASF5447
     /tmp/cc2IngwB.s:108707  .debug_str:000000000004d442 .LASF5448
     /tmp/cc2IngwB.s:97657  .debug_str:000000000002016d .LASF5449
     /tmp/cc2IngwB.s:103799  .debug_str:0000000000038f4d .LASF5450
     /tmp/cc2IngwB.s:98623  .debug_str:00000000000242ac .LASF5451
     /tmp/cc2IngwB.s:97157  .debug_str:000000000001de86 .LASF5452
     /tmp/cc2IngwB.s:108359  .debug_str:000000000004bcbe .LASF5453
     /tmp/cc2IngwB.s:109049  .debug_str:000000000004ecfd .LASF5454
     /tmp/cc2IngwB.s:108997  .debug_str:000000000004e999 .LASF5455
     /tmp/cc2IngwB.s:99979  .debug_str:0000000000029838 .LASF5456
     /tmp/cc2IngwB.s:99755  .debug_str:0000000000028806 .LASF5457
     /tmp/cc2IngwB.s:100217  .debug_str:000000000002a728 .LASF5458
     /tmp/cc2IngwB.s:108931  .debug_str:000000000004e452 .LASF5459
     /tmp/cc2IngwB.s:96989  .debug_str:000000000001d35d .LASF5460
     /tmp/cc2IngwB.s:97935  .debug_str:0000000000021489 .LASF5461
     /tmp/cc2IngwB.s:98811  .debug_str:0000000000024e59 .LASF5462
     /tmp/cc2IngwB.s:102925  .debug_str:000000000003568b .LASF5463
     /tmp/cc2IngwB.s:100563  .debug_str:000000000002bd62 .LASF5464
     /tmp/cc2IngwB.s:96051  .debug_str:0000000000019663 .LASF5465
     /tmp/cc2IngwB.s:101279  .debug_str:000000000002e9cb .LASF5466
     /tmp/cc2IngwB.s:98399  .debug_str:000000000002339b .LASF5467
     /tmp/cc2IngwB.s:105567  .debug_str:0000000000040068 .LASF5468
     /tmp/cc2IngwB.s:105073  .debug_str:000000000003dfd3 .LASF5469
     /tmp/cc2IngwB.s:93955  .debug_str:000000000001100b .LASF5470
     /tmp/cc2IngwB.s:92549  .debug_str:000000000000bd04 .LASF5471
     /tmp/cc2IngwB.s:104763  .debug_str:000000000003cbd4 .LASF5472
     /tmp/cc2IngwB.s:94749  .debug_str:00000000000143ab .LASF5473
     /tmp/cc2IngwB.s:101841  .debug_str:0000000000030ec3 .LASF5474
     /tmp/cc2IngwB.s:100347  .debug_str:000000000002af47 .LASF5475
     /tmp/cc2IngwB.s:105127  .debug_str:000000000003e3e6 .LASF5476
     /tmp/cc2IngwB.s:103411  .debug_str:00000000000377af .LASF5477
     /tmp/cc2IngwB.s:103581  .debug_str:0000000000038209 .LASF5478
     /tmp/cc2IngwB.s:100703  .debug_str:000000000002c634 .LASF5479
     /tmp/cc2IngwB.s:106675  .debug_str:0000000000044ea7 .LASF5480
     /tmp/cc2IngwB.s:107363  .debug_str:0000000000047a60 .LASF5481
     /tmp/cc2IngwB.s:102421  .debug_str:00000000000334cb .LASF5482
     /tmp/cc2IngwB.s:93521  .debug_str:000000000000f770 .LASF5483
     /tmp/cc2IngwB.s:106041  .debug_str:0000000000042178 .LASF5484
     /tmp/cc2IngwB.s:108697  .debug_str:000000000004d38e .LASF5485
     /tmp/cc2IngwB.s:99335  .debug_str:0000000000026d44 .LASF5486
     /tmp/cc2IngwB.s:96013  .debug_str:0000000000019413 .LASF5487
     /tmp/cc2IngwB.s:104113  .debug_str:0000000000039f82 .LASF5488
     /tmp/cc2IngwB.s:108749  .debug_str:000000000004d7a3 .LASF5489
     /tmp/cc2IngwB.s:101083  .debug_str:000000000002dcca .LASF5490
     /tmp/cc2IngwB.s:93381  .debug_str:000000000000eec5 .LASF5491
     /tmp/cc2IngwB.s:99811  .debug_str:0000000000028c41 .LASF5492
     /tmp/cc2IngwB.s:109095  .debug_str:000000000004f085 .LASF5493
     /tmp/cc2IngwB.s:91597  .debug_str:0000000000007bc5 .LASF5494
     /tmp/cc2IngwB.s:102155  .debug_str:0000000000032251 .LASF5495
     /tmp/cc2IngwB.s:90683  .debug_str:0000000000003df6 .LASF5496
     /tmp/cc2IngwB.s:101327  .debug_str:000000000002ed7c .LASF5497
     /tmp/cc2IngwB.s:106357  .debug_str:0000000000043933 .LASF5498
     /tmp/cc2IngwB.s:106557  .debug_str:00000000000446bc .LASF5499
     /tmp/cc2IngwB.s:105795  .debug_str:0000000000040e5a .LASF5500
     /tmp/cc2IngwB.s:92047  .debug_str:0000000000009998 .LASF5501
     /tmp/cc2IngwB.s:90183  .debug_str:0000000000001cd7 .LASF5502
     /tmp/cc2IngwB.s:96749  .debug_str:000000000001c3bc .LASF5503
     /tmp/cc2IngwB.s:108977  .debug_str:000000000004e83a .LASF5504
     /tmp/cc2IngwB.s:103627  .debug_str:00000000000385cb .LASF5505
     /tmp/cc2IngwB.s:99513  .debug_str:00000000000277d2 .LASF5506
     /tmp/cc2IngwB.s:104641  .debug_str:000000000003c2b7 .LASF5507
     /tmp/cc2IngwB.s:90715  .debug_str:0000000000004052 .LASF5508
     /tmp/cc2IngwB.s:106117  .debug_str:0000000000042953 .LASF5509
     /tmp/cc2IngwB.s:97969  .debug_str:00000000000216e5 .LASF5510
     /tmp/cc2IngwB.s:97669  .debug_str:00000000000202a5 .LASF5511
     /tmp/cc2IngwB.s:105571  .debug_str:00000000000400bb .LASF5512
     /tmp/cc2IngwB.s:102317  .debug_str:0000000000032d7a .LASF5513
     /tmp/cc2IngwB.s:107217  .debug_str:00000000000470bc .LASF5514
     /tmp/cc2IngwB.s:92991  .debug_str:000000000000da7b .LASF5515
     /tmp/cc2IngwB.s:103899  .debug_str:000000000003948e .LASF5516
     /tmp/cc2IngwB.s:103071  .debug_str:0000000000036138 .LASF5517
     /tmp/cc2IngwB.s:96415  .debug_str:000000000001afcc .LASF5518
     /tmp/cc2IngwB.s:93663  .debug_str:0000000000010030 .LASF5519
     /tmp/cc2IngwB.s:94525  .debug_str:00000000000135da .LASF5520
     /tmp/cc2IngwB.s:103587  .debug_str:0000000000038298 .LASF5521
     /tmp/cc2IngwB.s:92945  .debug_str:000000000000d779 .LASF5522
     /tmp/cc2IngwB.s:93771  .debug_str:00000000000105df .LASF5523
     /tmp/cc2IngwB.s:98089  .debug_str:0000000000021f5d .LASF5524
     /tmp/cc2IngwB.s:95827  .debug_str:0000000000018921 .LASF5525
     /tmp/cc2IngwB.s:96097  .debug_str:0000000000019a23 .LASF5526
     /tmp/cc2IngwB.s:103097  .debug_str:000000000003638c .LASF5527
     /tmp/cc2IngwB.s:106867  .debug_str:0000000000045a69 .LASF5528
     /tmp/cc2IngwB.s:107859  .debug_str:0000000000049b40 .LASF5529
     /tmp/cc2IngwB.s:107557  .debug_str:00000000000487d8 .LASF5530
     /tmp/cc2IngwB.s:100015  .debug_str:00000000000299d3 .LASF5531
     /tmp/cc2IngwB.s:99337  .debug_str:0000000000026d70 .LASF5532
     /tmp/cc2IngwB.s:108111  .debug_str:000000000004ab6a .LASF5533
     /tmp/cc2IngwB.s:102823  .debug_str:0000000000034f1b .LASF5534
     /tmp/cc2IngwB.s:108291  .debug_str:000000000004b76f .LASF5535
     /tmp/cc2IngwB.s:100373  .debug_str:000000000002b09d .LASF5536
     /tmp/cc2IngwB.s:98217  .debug_str:0000000000022862 .LASF5537
     /tmp/cc2IngwB.s:106985  .debug_str:0000000000046266 .LASF5538
     /tmp/cc2IngwB.s:98265  .debug_str:0000000000022aca .LASF5539
     /tmp/cc2IngwB.s:102571  .debug_str:0000000000033efb .LASF5540
     /tmp/cc2IngwB.s:99097  .debug_str:0000000000025ed1 .LASF5541
     /tmp/cc2IngwB.s:92899  .debug_str:000000000000d4f0 .LASF5542
     /tmp/cc2IngwB.s:109245  .debug_str:000000000004fa4f .LASF5544
     /tmp/cc2IngwB.s:92785  .debug_str:000000000000cd86 .LASF5545
     /tmp/cc2IngwB.s:97829  .debug_str:0000000000020e2a .LASF5546
     /tmp/cc2IngwB.s:92913  .debug_str:000000000000d5b7 .LASF5547
     /tmp/cc2IngwB.s:100469  .debug_str:000000000002b6ed .LASF5548
     /tmp/cc2IngwB.s:100963  .debug_str:000000000002d5b1 .LASF5549
     /tmp/cc2IngwB.s:94961  .debug_str:000000000001508a .LASF5550
     /tmp/cc2IngwB.s:93697  .debug_str:0000000000010245 .LASF5551
     /tmp/cc2IngwB.s:93947  .debug_str:0000000000010f48 .LASF5552
     /tmp/cc2IngwB.s:105425  .debug_str:000000000003f73a .LASF5553
     /tmp/cc2IngwB.s:101385  .debug_str:000000000002f142 .LASF5554
     /tmp/cc2IngwB.s:96095  .debug_str:0000000000019a0a .LASF5555
     /tmp/cc2IngwB.s:105397  .debug_str:000000000003f547 .LASF5556
     /tmp/cc2IngwB.s:97073  .debug_str:000000000001d88b .LASF5557
     /tmp/cc2IngwB.s:103125  .debug_str:00000000000365a5 .LASF5558
     /tmp/cc2IngwB.s:99879  .debug_str:00000000000290f8 .LASF5559
     /tmp/cc2IngwB.s:108211  .debug_str:000000000004b25a .LASF5560
     /tmp/cc2IngwB.s:95603  .debug_str:0000000000017a49 .LASF5561
     /tmp/cc2IngwB.s:107495  .debug_str:0000000000048335 .LASF5562
     /tmp/cc2IngwB.s:92697  .debug_str:000000000000c722 .LASF5563
     /tmp/cc2IngwB.s:89833  .debug_str:0000000000000413 .LASF5564
     /tmp/cc2IngwB.s:96943  .debug_str:000000000001d065 .LASF5565
     /tmp/cc2IngwB.s:108823  .debug_str:000000000004dc4c .LASF5566
     /tmp/cc2IngwB.s:104743  .debug_str:000000000003ca45 .LASF5567
     /tmp/cc2IngwB.s:106009  .debug_str:0000000000041fbd .LASF5568
     /tmp/cc2IngwB.s:96941  .debug_str:000000000001d045 .LASF5569
     /tmp/cc2IngwB.s:103841  .debug_str:0000000000039128 .LASF5570
     /tmp/cc2IngwB.s:97819  .debug_str:0000000000020d7f .LASF5571
     /tmp/cc2IngwB.s:103619  .debug_str:0000000000038512 .LASF5572
     /tmp/cc2IngwB.s:104571  .debug_str:000000000003be01 .LASF5573
     /tmp/cc2IngwB.s:93751  .debug_str:00000000000104b2 .LASF5574
     /tmp/cc2IngwB.s:92123  .debug_str:0000000000009fa1 .LASF5575
     /tmp/cc2IngwB.s:104041  .debug_str:0000000000039c0d .LASF5576
     /tmp/cc2IngwB.s:105337  .debug_str:000000000003f241 .LASF5577
     /tmp/cc2IngwB.s:102455  .debug_str:00000000000336e0 .LASF5578
     /tmp/cc2IngwB.s:100741  .debug_str:000000000002c865 .LASF5579
     /tmp/cc2IngwB.s:106349  .debug_str:00000000000438e8 .LASF5580
     /tmp/cc2IngwB.s:105353  .debug_str:000000000003f38d .LASF5581
     /tmp/cc2IngwB.s:99809  .debug_str:0000000000028c25 .LASF5582
     /tmp/cc2IngwB.s:94903  .debug_str:0000000000014d8d .LASF5583
     /tmp/cc2IngwB.s:94571  .debug_str:0000000000013900 .LASF5584
     /tmp/cc2IngwB.s:90909  .debug_str:0000000000004e1b .LASF5585
     /tmp/cc2IngwB.s:100991  .debug_str:000000000002d753 .LASF5586
     /tmp/cc2IngwB.s:102573  .debug_str:0000000000033f1f .LASF5587
     /tmp/cc2IngwB.s:93117  .debug_str:000000000000e140 .LASF5588
     /tmp/cc2IngwB.s:98453  .debug_str:000000000002371a .LASF5589
     /tmp/cc2IngwB.s:100787  .debug_str:000000000002cabc .LASF5590
     /tmp/cc2IngwB.s:105953  .debug_str:0000000000041ba1 .LASF5591
     /tmp/cc2IngwB.s:92031  .debug_str:000000000000988b .LASF5592
     /tmp/cc2IngwB.s:95445  .debug_str:0000000000016fa3 .LASF5593
     /tmp/cc2IngwB.s:97931  .debug_str:000000000002145d .LASF5594
     /tmp/cc2IngwB.s:91871  .debug_str:0000000000008dec .LASF5595
     /tmp/cc2IngwB.s:108713  .debug_str:000000000004d4c9 .LASF5596
     /tmp/cc2IngwB.s:104193  .debug_str:000000000003a489 .LASF5597
     /tmp/cc2IngwB.s:96383  .debug_str:000000000001ad27 .LASF5598
     /tmp/cc2IngwB.s:103403  .debug_str:0000000000037727 .LASF5599
     /tmp/cc2IngwB.s:91945  .debug_str:00000000000092f7 .LASF5600
     /tmp/cc2IngwB.s:89785  .debug_str:00000000000000c5 .LASF5601
     /tmp/cc2IngwB.s:102477  .debug_str:000000000003384a .LASF5602
     /tmp/cc2IngwB.s:94343  .debug_str:00000000000128c1 .LASF5603
     /tmp/cc2IngwB.s:97729  .debug_str:00000000000206fa .LASF5604
     /tmp/cc2IngwB.s:99799  .debug_str:0000000000028b6f .LASF5605
     /tmp/cc2IngwB.s:107657  .debug_str:0000000000048e0c .LASF5606
     /tmp/cc2IngwB.s:108507  .debug_str:000000000004c6e2 .LASF5607
     /tmp/cc2IngwB.s:101117  .debug_str:000000000002df17 .LASF5608
     /tmp/cc2IngwB.s:91381  .debug_str:0000000000006c97 .LASF5609
     /tmp/cc2IngwB.s:102743  .debug_str:0000000000034a56 .LASF5610
     /tmp/cc2IngwB.s:93595  .debug_str:000000000000fb84 .LASF5611
     /tmp/cc2IngwB.s:108313  .debug_str:000000000004b98f .LASF5612
     /tmp/cc2IngwB.s:91963  .debug_str:00000000000093e5 .LASF5613
     /tmp/cc2IngwB.s:90473  .debug_str:0000000000003081 .LASF5614
     /tmp/cc2IngwB.s:89915  .debug_str:0000000000000994 .LASF5615
     /tmp/cc2IngwB.s:101213  .debug_str:000000000002e591 .LASF5616
     /tmp/cc2IngwB.s:92101  .debug_str:0000000000009e44 .LASF5617
     /tmp/cc2IngwB.s:98323  .debug_str:0000000000022e96 .LASF5618
     /tmp/cc2IngwB.s:92327  .debug_str:000000000000ad18 .LASF5619
     /tmp/cc2IngwB.s:101019  .debug_str:000000000002d8f1 .LASF5620
     /tmp/cc2IngwB.s:105543  .debug_str:000000000003fe7b .LASF5621
     /tmp/cc2IngwB.s:91503  .debug_str:00000000000075b9 .LASF5622
     /tmp/cc2IngwB.s:96853  .debug_str:000000000001ca6d .LASF5623
     /tmp/cc2IngwB.s:92693  .debug_str:000000000000c6b1 .LASF5624
     /tmp/cc2IngwB.s:100649  .debug_str:000000000002c1d8 .LASF5625
     /tmp/cc2IngwB.s:106449  .debug_str:0000000000043fb3 .LASF5626
     /tmp/cc2IngwB.s:96361  .debug_str:000000000001ab1c .LASF5627
     /tmp/cc2IngwB.s:108245  .debug_str:000000000004b477 .LASF5628
     /tmp/cc2IngwB.s:99915  .debug_str:0000000000029389 .LASF5629
     /tmp/cc2IngwB.s:93227  .debug_str:000000000000e810 .LASF5630
     /tmp/cc2IngwB.s:102539  .debug_str:0000000000033d0d .LASF5631
     /tmp/cc2IngwB.s:102621  .debug_str:0000000000034260 .LASF5632
     /tmp/cc2IngwB.s:100757  .debug_str:000000000002c91c .LASF5633
     /tmp/cc2IngwB.s:98939  .debug_str:0000000000025688 .LASF5634
     /tmp/cc2IngwB.s:100989  .debug_str:000000000002d727 .LASF5635
     /tmp/cc2IngwB.s:108487  .debug_str:000000000004c584 .LASF5636
     /tmp/cc2IngwB.s:99875  .debug_str:00000000000290a2 .LASF5637
     /tmp/cc2IngwB.s:105469  .debug_str:000000000003fa07 .LASF5638
     /tmp/cc2IngwB.s:104937  .debug_str:000000000003d6b8 .LASF5639
     /tmp/cc2IngwB.s:89779  .debug_str:0000000000000058 .LASF5640
     /tmp/cc2IngwB.s:97749  .debug_str:0000000000020877 .LASF5641
     /tmp/cc2IngwB.s:100045  .debug_str:0000000000029bb1 .LASF5642
     /tmp/cc2IngwB.s:98477  .debug_str:000000000002387e .LASF5643
     /tmp/cc2IngwB.s:91277  .debug_str:000000000000657c .LASF5644
     /tmp/cc2IngwB.s:106279  .debug_str:0000000000043495 .LASF5645
     /tmp/cc2IngwB.s:90315  .debug_str:00000000000025d8 .LASF5646
     /tmp/cc2IngwB.s:98077  .debug_str:0000000000021e91 .LASF5647
     /tmp/cc2IngwB.s:89907  .debug_str:0000000000000919 .LASF5648
     /tmp/cc2IngwB.s:94399  .debug_str:0000000000012c79 .LASF5649
     /tmp/cc2IngwB.s:92281  .debug_str:000000000000aa49 .LASF5650
     /tmp/cc2IngwB.s:106837  .debug_str:00000000000458e7 .LASF5651
     /tmp/cc2IngwB.s:108249  .debug_str:000000000004b4f0 .LASF5652
     /tmp/cc2IngwB.s:96565  .debug_str:000000000001b837 .LASF5653
     /tmp/cc2IngwB.s:103021  .debug_str:0000000000035e01 .LASF5654
     /tmp/cc2IngwB.s:97683  .debug_str:00000000000203da .LASF5655
     /tmp/cc2IngwB.s:98451  .debug_str:00000000000236ee .LASF5656
     /tmp/cc2IngwB.s:105449  .debug_str:000000000003f8ef .LASF5657
     /tmp/cc2IngwB.s:91223  .debug_str:00000000000061f9 .LASF5658
     /tmp/cc2IngwB.s:98507  .debug_str:0000000000023b3f .LASF5659
     /tmp/cc2IngwB.s:105661  .debug_str:00000000000405fc .LASF5660
     /tmp/cc2IngwB.s:92871  .debug_str:000000000000d311 .LASF5661
     /tmp/cc2IngwB.s:95299  .debug_str:000000000001653c .LASF5662
     /tmp/cc2IngwB.s:94191  .debug_str:0000000000011e85 .LASF5663
     /tmp/cc2IngwB.s:99609  .debug_str:0000000000027eb9 .LASF5664
     /tmp/cc2IngwB.s:94249  .debug_str:000000000001228c .LASF5665
     /tmp/cc2IngwB.s:95653  .debug_str:0000000000017de7 .LASF5666
     /tmp/cc2IngwB.s:100247  .debug_str:000000000002a95a .LASF5667
     /tmp/cc2IngwB.s:90603  .debug_str:0000000000003897 .LASF5668
     /tmp/cc2IngwB.s:104335  .debug_str:000000000003ad70 .LASF5669
     /tmp/cc2IngwB.s:93597  .debug_str:000000000000fba5 .LASF5670
     /tmp/cc2IngwB.s:92429  .debug_str:000000000000b469 .LASF5671
     /tmp/cc2IngwB.s:98773  .debug_str:0000000000024ccc .LASF5672
     /tmp/cc2IngwB.s:92109  .debug_str:0000000000009ec6 .LASF5673
     /tmp/cc2IngwB.s:94887  .debug_str:0000000000014c9e .LASF5674
     /tmp/cc2IngwB.s:108929  .debug_str:000000000004e435 .LASF5675
     /tmp/cc2IngwB.s:105695  .debug_str:0000000000040819 .LASF5676
     /tmp/cc2IngwB.s:92701  .debug_str:000000000000c77d .LASF5677
     /tmp/cc2IngwB.s:92279  .debug_str:000000000000aa3a .LASF5678
     /tmp/cc2IngwB.s:98191  .debug_str:00000000000225b3 .LASF5679
     /tmp/cc2IngwB.s:92023  .debug_str:0000000000009823 .LASF5680
     /tmp/cc2IngwB.s:92193  .debug_str:000000000000a424 .LASF5681
     /tmp/cc2IngwB.s:98615  .debug_str:0000000000024247 .LASF5682
     /tmp/cc2IngwB.s:90035  .debug_str:00000000000011aa .LASF5683
     /tmp/cc2IngwB.s:94103  .debug_str:00000000000118b7 .LASF5684
     /tmp/cc2IngwB.s:97239  .debug_str:000000000001e4a3 .LASF5685
     /tmp/cc2IngwB.s:103383  .debug_str:00000000000375c3 .LASF5686
     /tmp/cc2IngwB.s:96027  .debug_str:00000000000194d8 .LASF5687
     /tmp/cc2IngwB.s:97433  .debug_str:000000000001f0fe .LASF5688
     /tmp/cc2IngwB.s:96899  .debug_str:000000000001cd8c .LASF5689
     /tmp/cc2IngwB.s:105305  .debug_str:000000000003f028 .LASF5690
     /tmp/cc2IngwB.s:90599  .debug_str:000000000000383b .LASF5691
     /tmp/cc2IngwB.s:91191  .debug_str:0000000000005fef .LASF5692
     /tmp/cc2IngwB.s:108391  .debug_str:000000000004bf1b .LASF5693
     /tmp/cc2IngwB.s:91893  .debug_str:0000000000008f8d .LASF5694
     /tmp/cc2IngwB.s:102867  .debug_str:0000000000035325 .LASF5695
     /tmp/cc2IngwB.s:94597  .debug_str:0000000000013a19 .LASF5696
     /tmp/cc2IngwB.s:102629  .debug_str:00000000000342de .LASF5697
     /tmp/cc2IngwB.s:100535  .debug_str:000000000002bba2 .LASF5699
     /tmp/cc2IngwB.s:94843  .debug_str:00000000000149c2 .LASF5700
     /tmp/cc2IngwB.s:103397  .debug_str:00000000000376b0 .LASF5701
     /tmp/cc2IngwB.s:92229  .debug_str:000000000000a62e .LASF5702
     /tmp/cc2IngwB.s:96697  .debug_str:000000000001c082 .LASF5703
     /tmp/cc2IngwB.s:96561  .debug_str:000000000001b805 .LASF5704
     /tmp/cc2IngwB.s:101463  .debug_str:000000000002f5bb .LASF5705
     /tmp/cc2IngwB.s:97975  .debug_str:0000000000021734 .LASF5706
     /tmp/cc2IngwB.s:105891  .debug_str:0000000000041677 .LASF5707
     /tmp/cc2IngwB.s:90141  .debug_str:00000000000019c1 .LASF5708
     /tmp/cc2IngwB.s:99665  .debug_str:000000000002827a .LASF5709
     /tmp/cc2IngwB.s:105591  .debug_str:00000000000401f1 .LASF5710
     /tmp/cc2IngwB.s:105771  .debug_str:0000000000040caa .LASF5711
     /tmp/cc2IngwB.s:104449  .debug_str:000000000003b56e .LASF5712
     /tmp/cc2IngwB.s:105009  .debug_str:000000000003db26 .LASF5713
     /tmp/cc2IngwB.s:101287  .debug_str:000000000002ea70 .LASF5714
     /tmp/cc2IngwB.s:100849  .debug_str:000000000002ce55 .LASF5715
     /tmp/cc2IngwB.s:92837  .debug_str:000000000000d0b3 .LASF5716
     /tmp/cc2IngwB.s:106723  .debug_str:0000000000045176 .LASF5717
     /tmp/cc2IngwB.s:97483  .debug_str:000000000001f4b3 .LASF5718
     /tmp/cc2IngwB.s:103865  .debug_str:00000000000392a9 .LASF5719
     /tmp/cc2IngwB.s:90343  .debug_str:000000000000279a .LASF5720
     /tmp/cc2IngwB.s:96761  .debug_str:000000000001c47b .LASF5721
     /tmp/cc2IngwB.s:103123  .debug_str:0000000000036589 .LASF5722
     /tmp/cc2IngwB.s:95559  .debug_str:00000000000176d0 .LASF5723
     /tmp/cc2IngwB.s:103063  .debug_str:000000000003608a .LASF5724
     /tmp/cc2IngwB.s:105285  .debug_str:000000000003eeb9 .LASF5725
     /tmp/cc2IngwB.s:93399  .debug_str:000000000000efaa .LASF5726
     /tmp/cc2IngwB.s:108035  .debug_str:000000000004a6fc .LASF5727
     /tmp/cc2IngwB.s:92171  .debug_str:000000000000a279 .LASF5728
     /tmp/cc2IngwB.s:107779  .debug_str:00000000000495de .LASF5729
     /tmp/cc2IngwB.s:105477  .debug_str:000000000003fae1 .LASF5730
     /tmp/cc2IngwB.s:92607  .debug_str:000000000000c199 .LASF5731
     /tmp/cc2IngwB.s:95513  .debug_str:0000000000017389 .LASF5732
     /tmp/cc2IngwB.s:99043  .debug_str:0000000000025c8e .LASF5733
     /tmp/cc2IngwB.s:106577  .debug_str:000000000004486a .LASF5734
     /tmp/cc2IngwB.s:93483  .debug_str:000000000000f476 .LASF5735
     /tmp/cc2IngwB.s:97443  .debug_str:000000000001f1b4 .LASF5736
     /tmp/cc2IngwB.s:101827  .debug_str:0000000000030e1f .LASF5737
     /tmp/cc2IngwB.s:99925  .debug_str:0000000000029480 .LASF5738
     /tmp/cc2IngwB.s:99201  .debug_str:00000000000264b7 .LASF5739
     /tmp/cc2IngwB.s:97089  .debug_str:000000000001d9a1 .LASF5740
     /tmp/cc2IngwB.s:94735  .debug_str:00000000000142d9 .LASF5741
     /tmp/cc2IngwB.s:91037  .debug_str:0000000000005603 .LASF5742
     /tmp/cc2IngwB.s:100785  .debug_str:000000000002caa3 .LASF5743
     /tmp/cc2IngwB.s:108007  .debug_str:000000000004a559 .LASF5744
     /tmp/cc2IngwB.s:102473  .debug_str:00000000000337f6 .LASF5745
     /tmp/cc2IngwB.s:102311  .debug_str:0000000000032d2d .LASF5746
     /tmp/cc2IngwB.s:95123  .debug_str:0000000000015ab3 .LASF5747
     /tmp/cc2IngwB.s:94785  .debug_str:00000000000145d7 .LASF5748
     /tmp/cc2IngwB.s:95149  .debug_str:0000000000015c5a .LASF5749
     /tmp/cc2IngwB.s:108133  .debug_str:000000000004ac5f .LASF5750
     /tmp/cc2IngwB.s:108251  .debug_str:000000000004b51e .LASF5751
     /tmp/cc2IngwB.s:106439  .debug_str:0000000000043edf .LASF5752
     /tmp/cc2IngwB.s:91257  .debug_str:0000000000006468 .LASF5753
     /tmp/cc2IngwB.s:99635  .debug_str:00000000000280e2 .LASF5754
     /tmp/cc2IngwB.s:99707  .debug_str:0000000000028549 .LASF5755
     /tmp/cc2IngwB.s:97855  .debug_str:0000000000020fd6 .LASF5756
     /tmp/cc2IngwB.s:106241  .debug_str:0000000000043251 .LASF5757
     /tmp/cc2IngwB.s:104237  .debug_str:000000000003a6b6 .LASF5758
     /tmp/cc2IngwB.s:93525  .debug_str:000000000000f7de .LASF5759
     /tmp/cc2IngwB.s:99773  .debug_str:0000000000028976 .LASF5760
     /tmp/cc2IngwB.s:108191  .debug_str:000000000004b05f .LASF5761
     /tmp/cc2IngwB.s:97737  .debug_str:00000000000207d4 .LASF5762
     /tmp/cc2IngwB.s:104399  .debug_str:000000000003b1ee .LASF5763
     /tmp/cc2IngwB.s:107573  .debug_str:000000000004890a .LASF5764
     /tmp/cc2IngwB.s:104525  .debug_str:000000000003baa2 .LASF5765
     /tmp/cc2IngwB.s:98739  .debug_str:0000000000024ae8 .LASF5766
     /tmp/cc2IngwB.s:109483  .debug_str:00000000000509e6 .LASF5767
     /tmp/cc2IngwB.s:95381  .debug_str:0000000000016ab6 .LASF5768
     /tmp/cc2IngwB.s:108705  .debug_str:000000000004d428 .LASF5769
     /tmp/cc2IngwB.s:94241  .debug_str:00000000000121ed .LASF5770
     /tmp/cc2IngwB.s:100971  .debug_str:000000000002d62f .LASF5771
     /tmp/cc2IngwB.s:89829  .debug_str:00000000000003e3 .LASF5772
     /tmp/cc2IngwB.s:107461  .debug_str:00000000000480ea .LASF5773
     /tmp/cc2IngwB.s:91777  .debug_str:00000000000087b8 .LASF5774
     /tmp/cc2IngwB.s:104291  .debug_str:000000000003aa7e .LASF5775
     /tmp/cc2IngwB.s:99693  .debug_str:000000000002843e .LASF5776
     /tmp/cc2IngwB.s:96917  .debug_str:000000000001ced9 .LASF5777
     /tmp/cc2IngwB.s:101631  .debug_str:000000000003016a .LASF5778
     /tmp/cc2IngwB.s:99111  .debug_str:000000000002601a .LASF5779
     /tmp/cc2IngwB.s:97177  .debug_str:000000000001e038 .LASF5780
     /tmp/cc2IngwB.s:102101  .debug_str:0000000000031f71 .LASF5781
     /tmp/cc2IngwB.s:109213  .debug_str:000000000004f81a .LASF5782
     /tmp/cc2IngwB.s:104225  .debug_str:000000000003a618 .LASF5783
     /tmp/cc2IngwB.s:96099  .debug_str:0000000000019a4d .LASF5784
     /tmp/cc2IngwB.s:99805  .debug_str:0000000000028bcd .LASF5785
     /tmp/cc2IngwB.s:98209  .debug_str:00000000000227b3 .LASF5786
     /tmp/cc2IngwB.s:102751  .debug_str:0000000000034ab4 .LASF5787
     /tmp/cc2IngwB.s:102049  .debug_str:0000000000031bab .LASF5788
     /tmp/cc2IngwB.s:100801  .debug_str:000000000002cb91 .LASF5789
     /tmp/cc2IngwB.s:107967  .debug_str:000000000004a20a .LASF5790
     /tmp/cc2IngwB.s:105243  .debug_str:000000000003ec28 .LASF5791
     /tmp/cc2IngwB.s:94221  .debug_str:00000000000120bc .LASF5792
     /tmp/cc2IngwB.s:107075  .debug_str:0000000000046827 .LASF5793
     /tmp/cc2IngwB.s:89797  .debug_str:00000000000001ac .LASF5794
     /tmp/cc2IngwB.s:107443  .debug_str:0000000000047fe7 .LASF5795
     /tmp/cc2IngwB.s:95119  .debug_str:0000000000015a53 .LASF5796
     /tmp/cc2IngwB.s:103113  .debug_str:00000000000364d6 .LASF5797
     /tmp/cc2IngwB.s:94363  .debug_str:00000000000129b4 .LASF5798
     /tmp/cc2IngwB.s:107797  .debug_str:000000000004972e .LASF5799
     /tmp/cc2IngwB.s:89931  .debug_str:0000000000000ad2 .LASF5800
     /tmp/cc2IngwB.s:107569  .debug_str:00000000000488b9 .LASF5801
     /tmp/cc2IngwB.s:103937  .debug_str:000000000003963c .LASF5802
     /tmp/cc2IngwB.s:94321  .debug_str:000000000001274f .LASF5803
     /tmp/cc2IngwB.s:98129  .debug_str:000000000002226c .LASF5804
     /tmp/cc2IngwB.s:98833  .debug_str:00000000000250aa .LASF5805
     /tmp/cc2IngwB.s:96753  .debug_str:000000000001c410 .LASF5806
     /tmp/cc2IngwB.s:94409  .debug_str:0000000000012d2a .LASF5807
     /tmp/cc2IngwB.s:105649  .debug_str:000000000004055f .LASF5808
     /tmp/cc2IngwB.s:103435  .debug_str:0000000000037989 .LASF5809
     /tmp/cc2IngwB.s:108939  .debug_str:000000000004e507 .LASF5810
     /tmp/cc2IngwB.s:90031  .debug_str:0000000000001146 .LASF5811
     /tmp/cc2IngwB.s:99019  .debug_str:0000000000025af2 .LASF5812
     /tmp/cc2IngwB.s:107807  .debug_str:00000000000497c0 .LASF5813
     /tmp/cc2IngwB.s:96055  .debug_str:00000000000196c5 .LASF5814
     /tmp/cc2IngwB.s:95075  .debug_str:00000000000157b1 .LASF5815
     /tmp/cc2IngwB.s:94225  .debug_str:00000000000120e2 .LASF5816
     /tmp/cc2IngwB.s:108497  .debug_str:000000000004c626 .LASF5817
     /tmp/cc2IngwB.s:94053  .debug_str:000000000001161f .LASF5818
     /tmp/cc2IngwB.s:101101  .debug_str:000000000002de07 .LASF5819
     /tmp/cc2IngwB.s:94797  .debug_str:00000000000146c5 .LASF5820
     /tmp/cc2IngwB.s:94125  .debug_str:00000000000119ff .LASF5821
     /tmp/cc2IngwB.s:99321  .debug_str:0000000000026c07 .LASF5822
     /tmp/cc2IngwB.s:93583  .debug_str:000000000000faa6 .LASF5823
     /tmp/cc2IngwB.s:100349  .debug_str:000000000002af70 .LASF5824
     /tmp/cc2IngwB.s:93265  .debug_str:000000000000e969 .LASF5825
     /tmp/cc2IngwB.s:97615  .debug_str:000000000001fe66 .LASF5826
     /tmp/cc2IngwB.s:91351  .debug_str:0000000000006a9e .LASF5827
     /tmp/cc2IngwB.s:90667  .debug_str:0000000000003cd9 .LASF5828
     /tmp/cc2IngwB.s:103795  .debug_str:0000000000038f1c .LASF5829
     /tmp/cc2IngwB.s:104445  .debug_str:000000000003b530 .LASF5830
     /tmp/cc2IngwB.s:99677  .debug_str:0000000000028340 .LASF5831
     /tmp/cc2IngwB.s:106343  .debug_str:0000000000043887 .LASF5832
     /tmp/cc2IngwB.s:109125  .debug_str:000000000004f257 .LASF5833
     /tmp/cc2IngwB.s:108015  .debug_str:000000000004a5ce .LASF5834
     /tmp/cc2IngwB.s:105807  .debug_str:0000000000040f38 .LASF5835
     /tmp/cc2IngwB.s:90021  .debug_str:000000000000109a .LASF5836
     /tmp/cc2IngwB.s:104105  .debug_str:0000000000039ef7 .LASF5837
     /tmp/cc2IngwB.s:98921  .debug_str:000000000002558d .LASF5838
     /tmp/cc2IngwB.s:106809  .debug_str:000000000004572f .LASF5839
     /tmp/cc2IngwB.s:106973  .debug_str:00000000000461b9 .LASF5840
     /tmp/cc2IngwB.s:89873  .debug_str:00000000000006dd .LASF5841
     /tmp/cc2IngwB.s:102963  .debug_str:000000000003598e .LASF5842
     /tmp/cc2IngwB.s:101971  .debug_str:00000000000316e9 .LASF5843
     /tmp/cc2IngwB.s:104557  .debug_str:000000000003bd75 .LASF5844
     /tmp/cc2IngwB.s:89863  .debug_str:0000000000000639 .LASF5845
     /tmp/cc2IngwB.s:108161  .debug_str:000000000004ae20 .LASF5846
     /tmp/cc2IngwB.s:102449  .debug_str:0000000000033653 .LASF5847
     /tmp/cc2IngwB.s:104635  .debug_str:000000000003c222 .LASF5848
     /tmp/cc2IngwB.s:105885  .debug_str:0000000000041622 .LASF5849
     /tmp/cc2IngwB.s:101711  .debug_str:0000000000030671 .LASF5850
     /tmp/cc2IngwB.s:107931  .debug_str:0000000000049ff7 .LASF5851
     /tmp/cc2IngwB.s:109001  .debug_str:000000000004ea09 .LASF5852
     /tmp/cc2IngwB.s:100023  .debug_str:0000000000029a31 .LASF5853
     /tmp/cc2IngwB.s:94663  .debug_str:0000000000013e7e .LASF5855
     /tmp/cc2IngwB.s:104951  .debug_str:000000000003d79c .LASF5856
     /tmp/cc2IngwB.s:105951  .debug_str:0000000000041b83 .LASF5857
     /tmp/cc2IngwB.s:100775  .debug_str:000000000002ca14 .LASF5858
     /tmp/cc2IngwB.s:106585  .debug_str:00000000000448d7 .LASF5859
     /tmp/cc2IngwB.s:103157  .debug_str:0000000000036760 .LASF5860
     /tmp/cc2IngwB.s:101617  .debug_str:00000000000300a6 .LASF5861
     /tmp/cc2IngwB.s:98729  .debug_str:0000000000024a4f .LASF5862
     /tmp/cc2IngwB.s:90197  .debug_str:0000000000001dcb .LASF5863
     /tmp/cc2IngwB.s:93995  .debug_str:00000000000111fb .LASF5864
     /tmp/cc2IngwB.s:97797  .debug_str:0000000000020c89 .LASF5865
     /tmp/cc2IngwB.s:99973  .debug_str:00000000000297fc .LASF5866
     /tmp/cc2IngwB.s:106773  .debug_str:0000000000045521 .LASF5867
     /tmp/cc2IngwB.s:101909  .debug_str:0000000000031342 .LASF5868
     /tmp/cc2IngwB.s:107001  .debug_str:0000000000046385 .LASF5869
     /tmp/cc2IngwB.s:105499  .debug_str:000000000003fbfd .LASF5870
     /tmp/cc2IngwB.s:108807  .debug_str:000000000004db62 .LASF5871
     /tmp/cc2IngwB.s:108725  .debug_str:000000000004d5bd .LASF5872
     /tmp/cc2IngwB.s:105157  .debug_str:000000000003e678 .LASF5873
     /tmp/cc2IngwB.s:97037  .debug_str:000000000001d629 .LASF5874
     /tmp/cc2IngwB.s:90319  .debug_str:000000000000265d .LASF5875
     /tmp/cc2IngwB.s:91973  .debug_str:0000000000009513 .LASF5877
     /tmp/cc2IngwB.s:102027  .debug_str:0000000000031a1b .LASF5878
     /tmp/cc2IngwB.s:96371  .debug_str:000000000001ac25 .LASF5879
     /tmp/cc2IngwB.s:99739  .debug_str:00000000000286fb .LASF5880
     /tmp/cc2IngwB.s:104597  .debug_str:000000000003bfaf .LASF5881
     /tmp/cc2IngwB.s:101881  .debug_str:0000000000031199 .LASF5882
     /tmp/cc2IngwB.s:96997  .debug_str:000000000001d3be .LASF5883
     /tmp/cc2IngwB.s:90629  .debug_str:0000000000003a71 .LASF5884
     /tmp/cc2IngwB.s:94889  .debug_str:0000000000014cb2 .LASF5885
     /tmp/cc2IngwB.s:97993  .debug_str:000000000002185f .LASF5886
     /tmp/cc2IngwB.s:105531  .debug_str:000000000003fdcb .LASF5887
     /tmp/cc2IngwB.s:106677  .debug_str:0000000000044ed4 .LASF5888
     /tmp/cc2IngwB.s:94841  .debug_str:00000000000149ae .LASF5889
     /tmp/cc2IngwB.s:107945  .debug_str:000000000004a078 .LASF5890
     /tmp/cc2IngwB.s:109361  .debug_str:0000000000050154 .LASF5891
     /tmp/cc2IngwB.s:102411  .debug_str:000000000003340d .LASF5892
     /tmp/cc2IngwB.s:100213  .debug_str:000000000002a6e1 .LASF5893
     /tmp/cc2IngwB.s:107953  .debug_str:000000000004a118 .LASF5894
     /tmp/cc2IngwB.s:93313  .debug_str:000000000000ec43 .LASF5895
     /tmp/cc2IngwB.s:106595  .debug_str:0000000000044956 .LASF5896
     /tmp/cc2IngwB.s:90385  .debug_str:0000000000002a87 .LASF5897
     /tmp/cc2IngwB.s:92347  .debug_str:000000000000ae2c .LASF5898
     /tmp/cc2IngwB.s:109317  .debug_str:000000000004fe3e .LASF5899
     /tmp/cc2IngwB.s:108907  .debug_str:000000000004e20b .LASF5900
     /tmp/cc2IngwB.s:103881  .debug_str:00000000000393c1 .LASF5902
     /tmp/cc2IngwB.s:98427  .debug_str:000000000002354e .LASF5903
     /tmp/cc2IngwB.s:103459  .debug_str:0000000000037af4 .LASF5904
     /tmp/cc2IngwB.s:96301  .debug_str:000000000001a7dc .LASF5905
     /tmp/cc2IngwB.s:91477  .debug_str:0000000000007452 .LASF5906
     /tmp/cc2IngwB.s:98377  .debug_str:000000000002324b .LASF5907
     /tmp/cc2IngwB.s:103419  .debug_str:0000000000037848 .LASF5908
     /tmp/cc2IngwB.s:107559  .debug_str:0000000000048805 .LASF5909
     /tmp/cc2IngwB.s:94439  .debug_str:0000000000012f22 .LASF5910
     /tmp/cc2IngwB.s:103849  .debug_str:00000000000391bb .LASF5911
     /tmp/cc2IngwB.s:98297  .debug_str:0000000000022cca .LASF5912
     /tmp/cc2IngwB.s:94629  .debug_str:0000000000013c57 .LASF5913
     /tmp/cc2IngwB.s:91055  .debug_str:00000000000056ef .LASF5914
     /tmp/cc2IngwB.s:108081  .debug_str:000000000004a9ea .LASF5915
     /tmp/cc2IngwB.s:91231  .debug_str:000000000000629c .LASF5916
     /tmp/cc2IngwB.s:90755  .debug_str:0000000000004383 .LASF5917
     /tmp/cc2IngwB.s:94783  .debug_str:00000000000145cb .LASF5918
     /tmp/cc2IngwB.s:93489  .debug_str:000000000000f4b6 .LASF5919
     /tmp/cc2IngwB.s:106545  .debug_str:0000000000044615 .LASF5920
     /tmp/cc2IngwB.s:92829  .debug_str:000000000000d050 .LASF5922
     /tmp/cc2IngwB.s:92411  .debug_str:000000000000b318 .LASF5923
     /tmp/cc2IngwB.s:105751  .debug_str:0000000000040bd0 .LASF5924
     /tmp/cc2IngwB.s:91489  .debug_str:0000000000007503 .LASF5925
     /tmp/cc2IngwB.s:104117  .debug_str:0000000000039fbd .LASF5926
     /tmp/cc2IngwB.s:105841  .debug_str:00000000000411be .LASF5927
     /tmp/cc2IngwB.s:96331  .debug_str:000000000001a9d7 .LASF5928
     /tmp/cc2IngwB.s:107285  .debug_str:0000000000047520 .LASF5929
     /tmp/cc2IngwB.s:99005  .debug_str:00000000000259e7 .LASF5930
     /tmp/cc2IngwB.s:90847  .debug_str:00000000000049ba .LASF5931
     /tmp/cc2IngwB.s:95217  .debug_str:00000000000160e5 .LASF5932
     /tmp/cc2IngwB.s:105815  .debug_str:0000000000040fcb .LASF5933
     /tmp/cc2IngwB.s:97929  .debug_str:0000000000021447 .LASF5934
     /tmp/cc2IngwB.s:94395  .debug_str:0000000000012c02 .LASF5935
     /tmp/cc2IngwB.s:90983  .debug_str:000000000000526e .LASF5936
     /tmp/cc2IngwB.s:94289  .debug_str:0000000000012586 .LASF5937
     /tmp/cc2IngwB.s:102425  .debug_str:0000000000033522 .LASF5938
     /tmp/cc2IngwB.s:94281  .debug_str:00000000000124da .LASF5939
     /tmp/cc2IngwB.s:94899  .debug_str:0000000000014d51 .LASF5940
     /tmp/cc2IngwB.s:95955  .debug_str:0000000000018fa3 .LASF5941
     /tmp/cc2IngwB.s:105599  .debug_str:0000000000040268 .LASF5942
     /tmp/cc2IngwB.s:106971  .debug_str:00000000000461a6 .LASF5943
     /tmp/cc2IngwB.s:92245  .debug_str:000000000000a79c .LASF5944
     /tmp/cc2IngwB.s:93589  .debug_str:000000000000fb17 .LASF5945
     /tmp/cc2IngwB.s:99637  .debug_str:00000000000280fb .LASF5946
     /tmp/cc2IngwB.s:98155  .debug_str:000000000002239c .LASF5947
     /tmp/cc2IngwB.s:106619  .debug_str:0000000000044aed .LASF5948
     /tmp/cc2IngwB.s:106741  .debug_str:000000000004529e .LASF5949
     /tmp/cc2IngwB.s:101233  .debug_str:000000000002e708 .LASF5950
     /tmp/cc2IngwB.s:108063  .debug_str:000000000004a87e .LASF5951
     /tmp/cc2IngwB.s:92699  .debug_str:000000000000c75d .LASF5952
     /tmp/cc2IngwB.s:93579  .debug_str:000000000000fa5d .LASF5953
     /tmp/cc2IngwB.s:97903  .debug_str:0000000000021276 .LASF5954
     /tmp/cc2IngwB.s:102719  .debug_str:00000000000348ac .LASF5955
     /tmp/cc2IngwB.s:100441  .debug_str:000000000002b5a1 .LASF5956
     /tmp/cc2IngwB.s:93719  .debug_str:00000000000103bc .LASF5957
     /tmp/cc2IngwB.s:90897  .debug_str:0000000000004d6f .LASF5958
     /tmp/cc2IngwB.s:105259  .debug_str:000000000003ed2a .LASF5959
     /tmp/cc2IngwB.s:93703  .debug_str:00000000000102a2 .LASF5960
     /tmp/cc2IngwB.s:91405  .debug_str:0000000000006f00 .LASF5961
     /tmp/cc2IngwB.s:101701  .debug_str:00000000000305e8 .LASF5962
     /tmp/cc2IngwB.s:96159  .debug_str:0000000000019e70 .LASF5963
     /tmp/cc2IngwB.s:92963  .debug_str:000000000000d89e .LASF5964
     /tmp/cc2IngwB.s:90367  .debug_str:0000000000002950 .LASF5965
     /tmp/cc2IngwB.s:95263  .debug_str:0000000000016320 .LASF5966
     /tmp/cc2IngwB.s:106121  .debug_str:000000000004297c .LASF5967
     /tmp/cc2IngwB.s:107649  .debug_str:0000000000048d93 .LASF5968
     /tmp/cc2IngwB.s:101411  .debug_str:000000000002f2c3 .LASF5969
     /tmp/cc2IngwB.s:90217  .debug_str:0000000000001f46 .LASF5970
     /tmp/cc2IngwB.s:99393  .debug_str:0000000000027115 .LASF5971
     /tmp/cc2IngwB.s:101979  .debug_str:0000000000031759 .LASF5972
     /tmp/cc2IngwB.s:92653  .debug_str:000000000000c456 .LASF5973
     /tmp/cc2IngwB.s:99569  .debug_str:0000000000027c0e .LASF5974
     /tmp/cc2IngwB.s:100709  .debug_str:000000000002c691 .LASF5975
     /tmp/cc2IngwB.s:105541  .debug_str:000000000003fe60 .LASF5976
     /tmp/cc2IngwB.s:97255  .debug_str:000000000001e588 .LASF5977
     /tmp/cc2IngwB.s:102595  .debug_str:00000000000340a0 .LASF5978
     /tmp/cc2IngwB.s:98475  .debug_str:0000000000023862 .LASF5979
     /tmp/cc2IngwB.s:92147  .debug_str:000000000000a0b3 .LASF5980
     /tmp/cc2IngwB.s:107615  .debug_str:0000000000048b88 .LASF5981
     /tmp/cc2IngwB.s:93659  .debug_str:000000000000ffd6 .LASF5982
     /tmp/cc2IngwB.s:105993  .debug_str:0000000000041e7f .LASF5983
     /tmp/cc2IngwB.s:96879  .debug_str:000000000001cc57 .LASF5984
     /tmp/cc2IngwB.s:101245  .debug_str:000000000002e7dc .LASF5985
     /tmp/cc2IngwB.s:106967  .debug_str:000000000004614d .LASF5986
     /tmp/cc2IngwB.s:108049  .debug_str:000000000004a797 .LASF5987
     /tmp/cc2IngwB.s:97455  .debug_str:000000000001f266 .LASF5988
     /tmp/cc2IngwB.s:95491  .debug_str:0000000000017249 .LASF5989
     /tmp/cc2IngwB.s:107333  .debug_str:00000000000478de .LASF5990
     /tmp/cc2IngwB.s:105411  .debug_str:000000000003f672 .LASF5991
     /tmp/cc2IngwB.s:96085  .debug_str:0000000000019950 .LASF5992
     /tmp/cc2IngwB.s:92921  .debug_str:000000000000d640 .LASF5993
     /tmp/cc2IngwB.s:98593  .debug_str:00000000000240c8 .LASF5994
     /tmp/cc2IngwB.s:92297  .debug_str:000000000000ab21 .LASF5995
     /tmp/cc2IngwB.s:100847  .debug_str:000000000002ce3f .LASF5996
     /tmp/cc2IngwB.s:92037  .debug_str:0000000000009913 .LASF5997
     /tmp/cc2IngwB.s:95153  .debug_str:0000000000015c93 .LASF5998
     /tmp/cc2IngwB.s:94643  .debug_str:0000000000013d20 .LASF5999
     /tmp/cc2IngwB.s:91261  .debug_str:00000000000064a7 .LASF6000
     /tmp/cc2IngwB.s:101429  .debug_str:000000000002f400 .LASF6001
     /tmp/cc2IngwB.s:106823  .debug_str:0000000000045807 .LASF6002
     /tmp/cc2IngwB.s:92349  .debug_str:000000000000ae97 .LASF6003
     /tmp/cc2IngwB.s:91289  .debug_str:000000000000669d .LASF6004
     /tmp/cc2IngwB.s:92645  .debug_str:000000000000c3bd .LASF6005
     /tmp/cc2IngwB.s:92985  .debug_str:000000000000da14 .LASF6006
     /tmp/cc2IngwB.s:105141  .debug_str:000000000003e521 .LASF6007
     /tmp/cc2IngwB.s:90751  .debug_str:0000000000004320 .LASF6008
     /tmp/cc2IngwB.s:104281  .debug_str:000000000003a9c0 .LASF6009
     /tmp/cc2IngwB.s:106975  .debug_str:00000000000461d6 .LASF6010
     /tmp/cc2IngwB.s:99995  .debug_str:0000000000029930 .LASF6011
     /tmp/cc2IngwB.s:104351  .debug_str:000000000003aea0 .LASF6012
     /tmp/cc2IngwB.s:98945  .debug_str:00000000000256ee .LASF6013
     /tmp/cc2IngwB.s:94131  .debug_str:0000000000011aa7 .LASF6014
     /tmp/cc2IngwB.s:100337  .debug_str:000000000002ae98 .LASF6015
     /tmp/cc2IngwB.s:106315  .debug_str:0000000000043692 .LASF6016
     /tmp/cc2IngwB.s:92541  .debug_str:000000000000bcb3 .LASF6017
     /tmp/cc2IngwB.s:91853  .debug_str:0000000000008d1a .LASF6018
     /tmp/cc2IngwB.s:99987  .debug_str:00000000000298ca .LASF6019
     /tmp/cc2IngwB.s:100667  .debug_str:000000000002c398 .LASF6020
     /tmp/cc2IngwB.s:93567  .debug_str:000000000000f96b .LASF6021
     /tmp/cc2IngwB.s:105825  .debug_str:0000000000041071 .LASF6022
     /tmp/cc2IngwB.s:101229  .debug_str:000000000002e6b5 .LASF6023
                           .group:0000000000000000 wm4.0.2cde0bba310258ac5fb120644dc52a54
                           .group:0000000000000000 wm4._newlib_version.h.4.9ba035841e762c3308916a0ce96032e7
                           .group:0000000000000000 wm4.newlib.h.24.c310527e65dab9224e8fef4278ad2129
                           .group:0000000000000000 wm4.ieeefp.h.195.a810689bf65b84f4ad2c33b483468c94
                           .group:0000000000000000 wm4.features.h.22.fad1cec3bc7ff06488171438dbdcfd02
                           .group:0000000000000000 wm4.config.h.83.0359905d884ebfe41c79e1d7c780ef62
                           .group:0000000000000000 wm4._ansi.h.31.de524f58584151836e90d8620a16f8e8
                           .group:0000000000000000 wm4.stdio.h.31.7c0e28c411445f3f9c5b11accf882760
                           .group:0000000000000000 wm4._default_types.h.6.74c1620e62c751216328238764a7f2e5
                           .group:0000000000000000 wm4.stddef.h.187.2ff233552538c6ff9b8575ca8ea52cb3
                           .group:0000000000000000 wm4.cdefs.h.49.6260d97adb8d27534cbdc0f868b8ea87
                           .group:0000000000000000 wm4.stddef.h.39.ec95e8feac892e292b69dc7ae75b0d64
                           .group:0000000000000000 wm4.stdarg.h.34.3a23a216c0c293b3d2ea2e89281481e6
                           .group:0000000000000000 wm4._types.h.20.dd0d04dca3800a0d2a6129b87f3adbb2
                           .group:0000000000000000 wm4.stddef.h.161.5349cb105733e8777bfb0cf53c4e3f34
                           .group:0000000000000000 wm4._types.h.127.c5cfac939eadb83d223592dbacad7524
                           .group:0000000000000000 wm4.reent.h.17.487f8c1f76499d088b190f62530a0034
                           .group:0000000000000000 wm4.lock.h.2.c0958401bd0ce484d507ee19aacab817
                           .group:0000000000000000 wm4.reent.h.77.1187f1075ff88452c642b29ed9a9030d
                           .group:0000000000000000 wm4.types.h.40.8b6acba56cefbb11746718204edc8f5e
                           .group:0000000000000000 wm4._stdint.h.10.c24fa3af3bc1706662bb5593a907e841
                           .group:0000000000000000 wm4._endian.h.18.1bf9649e8e5bbc91042012680270b9ed
                           .group:0000000000000000 wm4.endian.h.9.49f3a4695c1b61e8a0808de3c4a106cb
                           .group:0000000000000000 wm4._timeval.h.30.0e8bfd94e85db17dda3286ee81496fe6
                           .group:0000000000000000 wm4.timespec.h.41.d855182eb0e690443ab8651bcedca6e1
                           .group:0000000000000000 wm4.select.h.19.97ca6fd0c752a0f3b6719fd314d361e6
                           .group:0000000000000000 wm4.types.h.51.5571ec98f267d17d3c670b7a3ba33afa
                           .group:0000000000000000 wm4.sched.h.22.c60982713a5c428609783c78f9c78d95
                           .group:0000000000000000 wm4._pthreadtypes.h.36.fcee9961c35163dde6267ef772ad1972
                           .group:0000000000000000 wm4.stdio.h.2.4aa87247282eca6c8f36f9de33d8df1a
                           .group:0000000000000000 wm4.stdio.h.81.60a2ded7dae310b81f9d6907fe5e3dbf
                           .group:0000000000000000 wm4.string.h.8.c4b8571ce60dff2817f43fec8b86aecd
                           .group:0000000000000000 wm4.stddef.h.161.19e15733342b50ead2919490b095303e
                           .group:0000000000000000 wm4.stdbool.h.29.07dce69c3b78884144b7f7bd19483461
                           .group:0000000000000000 wm4._intsup.h.10.b28b45fc63caeb010c3f7ee592257700
                           .group:0000000000000000 wm4.stdint.h.23.d53047a68f4a85177f80b422d52785ed
                           .group:0000000000000000 wm4.mss_assert.h.10.09559128d1f6dbd833ab24347e71c76c
                           .group:0000000000000000 wm4.mss_legacy_defines.h.20.594d5f03b0f5314e3b2e801d98173479
                           .group:0000000000000000 wm4.mss_ddr_defs.h.18.58f9a87b5146acaefd5d9382d54140ba
                           .group:0000000000000000 wm4.mss_sysreg.h.19.614456a035a0cca3fd9d4348b0740228
                           .group:0000000000000000 wm4.mss_ddr_sgmii_regs.h.5543.4c565db9c25f7d4b45bd9b264c475c73
                           .group:0000000000000000 wm4.mss_io_config.h.18.b70207dea5a59bac7da73ad6eee375d0
                           .group:0000000000000000 wm4.mss_pll.h.192.d6d9146a5a36ce9e7f6a5ae2e7816970
                           .group:0000000000000000 wm4.mss_scb_nwc_regs.h.19.92192026ece1a0bf26c7a7af9a56e40a
                           .group:0000000000000000 wm4.mss_sw_config.h.37.2f79a8233593e640cb9660b9e2020907
                           .group:0000000000000000 wm4.atomic.h.33.7c17fdf64e267483cec1d3aead0473f4
                           .group:0000000000000000 wm4.bits.h.32.2ced66ae3bdb7651edf1ccfb67de7b38
                           .group:0000000000000000 wm4.encoding.h.34.68f898bac6356b153788044b6c29d177
                           .group:0000000000000000 wm4.fpga_design_config.h.28.572b3893a09debe9cb72c1441369aee0
                           .group:0000000000000000 wm4.hw_memory.h.28.20599cf485f90ffaa97f313798a86238
                           .group:0000000000000000 wm4.hw_apb_split.h.28.a2537f445f7a8784a4f064a3a60be381
                           .group:0000000000000000 wm4.hw_cache.h.28.aa59d0803f1283c480a862ba52ff4d4f
                           .group:0000000000000000 wm4.hw_pmp_hart0.h.28.354eeff78ff2eb91d2783e01dbe4e5a4
                           .group:0000000000000000 wm4.hw_pmp_hart1.h.28.0ab9e64d9d5e4b3cdd2ef9fae2ec18f2
                           .group:0000000000000000 wm4.hw_pmp_hart2.h.28.361fe83e7fd64067a0988f3e9bcd6e5d
                           .group:0000000000000000 wm4.hw_pmp_hart3.h.28.8c3eca8078d58a4979d23ae7fc3ceb35
                           .group:0000000000000000 wm4.hw_pmp_hart4.h.28.f8bf6b50f09effab3f4dfc16a44d5d0e
                           .group:0000000000000000 wm4.hw_mpu_fic0.h.28.3a719367ee0b56c20c7541cca5239296
                           .group:0000000000000000 wm4.hw_mpu_fic1.h.28.35d3b72b131707dc62529924d8a0d281
                           .group:0000000000000000 wm4.hw_mpu_fic2.h.28.88b1cd488fc04fd09199876067a670cb
                           .group:0000000000000000 wm4.hw_mpu_crypto.h.28.45628d14bd81b7ae15853711bd55f118
                           .group:0000000000000000 wm4.hw_mpu_gem0.h.28.e88b73a77e588162ac08b038acfe3e30
                           .group:0000000000000000 wm4.hw_mpu_gem1.h.28.dadc3a640dcfb61a8f24791560fa3605
                           .group:0000000000000000 wm4.hw_mpu_usb.h.28.0b0c25c65da87670d72dffa8e9b51ad6
                           .group:0000000000000000 wm4.hw_mpu_mmc.h.28.a5df85f7a87dfaafd939c0c9743b44a9
                           .group:0000000000000000 wm4.hw_mpu_scb.h.28.2b778d620a29a13b1a33733b3fefaf3e
                           .group:0000000000000000 wm4.hw_mpu_trace.h.28.dbb150e27983d45d78ea646dfe7486fe
                           .group:0000000000000000 wm4.hw_mssio_mux.h.28.b18396e0f5e6c83835b3b8e1dfadc1b4
                           .group:0000000000000000 wm4.hw_hsio_mux.h.28.924a66a0f83f27c24767fbfdaffeb21f
                           .group:0000000000000000 wm4.hw_sgmii_tip.h.28.c2c656c87ab558ebf9f510f55b530997
                           .group:0000000000000000 wm4.hw_ddr_options.h.28.583107ebf3250a7e99a4e34ca34040f9
                           .group:0000000000000000 wm4.hw_ddr_io_bank.h.28.09e373f4be71534c2b0bf629a50788a8
                           .group:0000000000000000 wm4.hw_ddr_mode.h.28.3ecff7868bb6c2027433e8aaf3a6e9d0
                           .group:0000000000000000 wm4.hw_ddr_off_mode.h.28.c8f0d4bcf68d083d8ff0335e558930e9
                           .group:0000000000000000 wm4.hw_ddr_segs.h.28.93c530a254cc8a9c015d0bae044125b2
                           .group:0000000000000000 wm4.hw_ddrc.h.28.d858943fbdd3e7761d52c974b21ea425
                           .group:0000000000000000 wm4.hw_mss_clks.h.28.53b1f012440894624f35e610477ed6d8
                           .group:0000000000000000 wm4.hw_clk_sysreg.h.28.adf2eb2b08eeb2ee56f6129328388395
                           .group:0000000000000000 wm4.hw_clk_mss_pll.h.28.f255323a7f4276a824501e07bd0f464a
                           .group:0000000000000000 wm4.hw_clk_sgmii_pll.h.28.b1aefe04f9cda949aee4586f0025e039
                           .group:0000000000000000 wm4.hw_clk_ddr_pll.h.28.8f0ed359dbfb59ae6f0aa1f29002d60d
                           .group:0000000000000000 wm4.hw_clk_mss_cfm.h.28.365f11189fcbf1e2f08db25b2ea1557a
                           .group:0000000000000000 wm4.hw_clk_sgmii_cfm.h.28.f59fda78ad3b4981ccbc9fbc0d90ca0a
                           .group:0000000000000000 wm4.hw_gen_peripherals.h.28.67a363af3ea61147ac365f904e7b6183
                           .group:0000000000000000 wm4.mss_ddr.h.335.a7fe38050b0f6ce3ee0df6f9cb324a9e
                           .group:0000000000000000 wm4.mss_clint.h.28.3d2c636f4c8175d64797a2e961db02ff
                           .group:0000000000000000 wm4.mss_h2f.h.21.7086260854010c63b41a469cd9f7486d
                           .group:0000000000000000 wm4.mss_hart_ints.h.20.df914e6570bee6a0a5e5635d9329f21b
                           .group:0000000000000000 wm4.mss_mpu.h.20.dd1fa2a8702d0e819fbbb263dc6428d1
                           .group:0000000000000000 wm4.mss_pmp.h.19.8f83d750289fe5e95625891444a65774
                           .group:0000000000000000 wm4.mss_plic.h.38.63bddd8b7aeec5445a0ab9c829719734
                           .group:0000000000000000 wm4.mss_seg.h.38.d7fedb2c993ff2eb58c3c1c5f57af66f
                           .group:0000000000000000 wm4.mss_util.h.31.57922375d48cf596b0783b975bb89aba
                           .group:0000000000000000 wm4.mss_mtrap.h.32.75bfcc4d9a15120a34cb2ee456cde55a
                           .group:0000000000000000 wm4.mss_l2_cache.h.430.934410ee5d62996f3b8869a34907e316
                           .group:0000000000000000 wm4.mss_axiswitch.h.110.fc13072c0144cbd8e516d1d4f8c599b2
                           .group:0000000000000000 wm4.mss_peripherals.h.19.9837bc1f8d1c62dfd266b4590a8830b2
                           .group:0000000000000000 wm4.mss_cfm.h.20.474baf099ef6f60b14912c934c5e47c6
                           .group:0000000000000000 wm4.mss_sgmii.h.18.7850ab5b5e05dabb42db8143f362bae8
                           .group:0000000000000000 wm4.system_startup.h.17.372727b49fdab2e286123d13f6b6542a
                           .group:0000000000000000 wm4.mss_ddr_debug.h.40.79a83a45aea2f09f97e5663e254e5e65

NO UNDEFINED SYMBOLS
