   1              		.file	"mss_axiswitch.c"
   2              		.option nopic
   3              		.attribute arch, "rv64i2p0_m2p0_a2p0_f2p0_d2p0_c2p0"
   4              		.attribute unaligned_access, 0
   5              		.attribute stack_align, 16
   6              		.text
   7              	.Ltext0:
   8              		.cfi_sections	.debug_frame
   9              		.section	.text.MSS_AXISW_get_hwcfg,"ax",@progbits
  10              		.align	1
  11              		.globl	MSS_AXISW_get_hwcfg
  13              	MSS_AXISW_get_hwcfg:
  14              	.LFB19:
  15              		.file 1 "../src/platform/mpfs_hal/common/mss_axiswitch.c"
   1:../src/platform/mpfs_hal/common/mss_axiswitch.c **** /*******************************************************************************
   2:../src/platform/mpfs_hal/common/mss_axiswitch.c ****  * Copyright 2019-2022 Microchip FPGA Embedded Systems Solutions.
   3:../src/platform/mpfs_hal/common/mss_axiswitch.c ****  *
   4:../src/platform/mpfs_hal/common/mss_axiswitch.c ****  * SPDX-License-Identifier: MIT
   5:../src/platform/mpfs_hal/common/mss_axiswitch.c ****  *
   6:../src/platform/mpfs_hal/common/mss_axiswitch.c ****  * MPFS HAL Embedded Software
   7:../src/platform/mpfs_hal/common/mss_axiswitch.c ****  *
   8:../src/platform/mpfs_hal/common/mss_axiswitch.c ****  */
   9:../src/platform/mpfs_hal/common/mss_axiswitch.c **** /*******************************************************************************
  10:../src/platform/mpfs_hal/common/mss_axiswitch.c ****  * @file mss_axiswitch.c
  11:../src/platform/mpfs_hal/common/mss_axiswitch.c ****  * @author Microchip-FPGA Embedded Systems Solutions
  12:../src/platform/mpfs_hal/common/mss_axiswitch.c ****  * @brief PolarFire SoC MSS AXI switch configuration
  13:../src/platform/mpfs_hal/common/mss_axiswitch.c ****  *
  14:../src/platform/mpfs_hal/common/mss_axiswitch.c ****  */
  15:../src/platform/mpfs_hal/common/mss_axiswitch.c **** 
  16:../src/platform/mpfs_hal/common/mss_axiswitch.c **** #include <stddef.h>
  17:../src/platform/mpfs_hal/common/mss_axiswitch.c **** #include <stdint.h>
  18:../src/platform/mpfs_hal/common/mss_axiswitch.c **** #include "mpfs_hal/mss_hal.h"
  19:../src/platform/mpfs_hal/common/mss_axiswitch.c **** 
  20:../src/platform/mpfs_hal/common/mss_axiswitch.c **** #ifdef __cplusplus
  21:../src/platform/mpfs_hal/common/mss_axiswitch.c **** extern "C" {
  22:../src/platform/mpfs_hal/common/mss_axiswitch.c **** #endif
  23:../src/platform/mpfs_hal/common/mss_axiswitch.c **** 
  24:../src/platform/mpfs_hal/common/mss_axiswitch.c **** /*Returns the value of AXI_HW_CFG_REG register*/
  25:../src/platform/mpfs_hal/common/mss_axiswitch.c **** uint32_t MSS_AXISW_get_hwcfg(void)
  26:../src/platform/mpfs_hal/common/mss_axiswitch.c **** {
  16              		.loc 1 26 1
  17              		.cfi_startproc
  18 0000 4111     		addi	sp,sp,-16
  19              		.cfi_def_cfa_offset 16
  20 0002 22E4     		sd	s0,8(sp)
  21              		.cfi_offset 8, -8
  22 0004 0008     		addi	s0,sp,16
  23              		.cfi_def_cfa 8, 0
  27:../src/platform/mpfs_hal/common/mss_axiswitch.c ****     return (AXISW->HWCFG);
  24              		.loc 1 27 18
  25 0006 B7470020 		li	a5,536887296
  26 000a DC43     		lw	a5,4(a5)
  27 000c 8127     		sext.w	a5,a5
  28:../src/platform/mpfs_hal/common/mss_axiswitch.c **** }
  28              		.loc 1 28 1
  29 000e 3E85     		mv	a0,a5
  30 0010 2264     		ld	s0,8(sp)
  31              		.cfi_restore 8
  32              		.cfi_def_cfa 2, 16
  33 0012 4101     		addi	sp,sp,16
  34              		.cfi_def_cfa_offset 0
  35 0014 8280     		jr	ra
  36              		.cfi_endproc
  37              	.LFE19:
  39              		.section	.text.MSS_AXISW_get_vid,"ax",@progbits
  40              		.align	1
  41              		.globl	MSS_AXISW_get_vid
  43              	MSS_AXISW_get_vid:
  44              	.LFB20:
  29:../src/platform/mpfs_hal/common/mss_axiswitch.c **** 
  30:../src/platform/mpfs_hal/common/mss_axiswitch.c **** /*Returns the value of AXI_VERSION_ID_REG register*/
  31:../src/platform/mpfs_hal/common/mss_axiswitch.c **** uint32_t MSS_AXISW_get_vid(void)
  32:../src/platform/mpfs_hal/common/mss_axiswitch.c **** {
  45              		.loc 1 32 1
  46              		.cfi_startproc
  47 0000 4111     		addi	sp,sp,-16
  48              		.cfi_def_cfa_offset 16
  49 0002 22E4     		sd	s0,8(sp)
  50              		.cfi_offset 8, -8
  51 0004 0008     		addi	s0,sp,16
  52              		.cfi_def_cfa 8, 0
  33:../src/platform/mpfs_hal/common/mss_axiswitch.c ****     return (AXISW->VID);
  53              		.loc 1 33 18
  54 0006 B7470020 		li	a5,536887296
  55 000a 9C43     		lw	a5,0(a5)
  56 000c 8127     		sext.w	a5,a5
  34:../src/platform/mpfs_hal/common/mss_axiswitch.c **** }
  57              		.loc 1 34 1
  58 000e 3E85     		mv	a0,a5
  59 0010 2264     		ld	s0,8(sp)
  60              		.cfi_restore 8
  61              		.cfi_def_cfa 2, 16
  62 0012 4101     		addi	sp,sp,16
  63              		.cfi_def_cfa_offset 0
  64 0014 8280     		jr	ra
  65              		.cfi_endproc
  66              	.LFE20:
  68              		.section	.text.MSS_AXISW_write_qos_val,"ax",@progbits
  69              		.align	1
  70              		.globl	MSS_AXISW_write_qos_val
  72              	MSS_AXISW_write_qos_val:
  73              	.LFB21:
  35:../src/platform/mpfs_hal/common/mss_axiswitch.c **** 
  36:../src/platform/mpfs_hal/common/mss_axiswitch.c **** /*Performs write operation on the AXI SWITCH APB interface,
  37:../src/platform/mpfs_hal/common/mss_axiswitch.c ****  * Parameters:
  38:../src/platform/mpfs_hal/common/mss_axiswitch.c ****  * master_port_num = AXI Master Port number. See Enum mss_axisw_mport_t above.
  39:../src/platform/mpfs_hal/common/mss_axiswitch.c **** 
  40:../src/platform/mpfs_hal/common/mss_axiswitch.c **** 
  41:../src/platform/mpfs_hal/common/mss_axiswitch.c ****  Note: QoS values are programmable through registers only for AXI3 configurations.
  42:../src/platform/mpfs_hal/common/mss_axiswitch.c ****  We have AXI4 so the QoS value programming should not be attempted.
  43:../src/platform/mpfs_hal/common/mss_axiswitch.c ****  IF you try to write/read QoS value you will get return value =1 (AXI_ERR_BIT)
  44:../src/platform/mpfs_hal/common/mss_axiswitch.c **** 
  45:../src/platform/mpfs_hal/common/mss_axiswitch.c ****  Burstiness peak rate and transaction rate can be configured using other APIs.
  46:../src/platform/mpfs_hal/common/mss_axiswitch.c **** 
  47:../src/platform/mpfs_hal/common/mss_axiswitch.c ****   data: QoS value to be programmed
  48:../src/platform/mpfs_hal/common/mss_axiswitch.c ****  return value: As received form AXI_ERR_BIT in CMD register.
  49:../src/platform/mpfs_hal/common/mss_axiswitch.c **** 
  50:../src/platform/mpfs_hal/common/mss_axiswitch.c ****  * */
  51:../src/platform/mpfs_hal/common/mss_axiswitch.c **** uint32_t MSS_AXISW_write_qos_val(mss_axisw_mport_t master_port_num,
  52:../src/platform/mpfs_hal/common/mss_axiswitch.c ****                                                uint32_t data)
  53:../src/platform/mpfs_hal/common/mss_axiswitch.c **** {
  74              		.loc 1 53 1
  75              		.cfi_startproc
  76 0000 0111     		addi	sp,sp,-32
  77              		.cfi_def_cfa_offset 32
  78 0002 22EC     		sd	s0,24(sp)
  79              		.cfi_offset 8, -8
  80 0004 0010     		addi	s0,sp,32
  81              		.cfi_def_cfa 8, 0
  82 0006 AA87     		mv	a5,a0
  83 0008 2E87     		mv	a4,a1
  84 000a 2326F4FE 		sw	a5,-20(s0)
  85 000e BA87     		mv	a5,a4
  86 0010 2324F4FE 		sw	a5,-24(s0)
  54:../src/platform/mpfs_hal/common/mss_axiswitch.c ****     while(AXISW->CMD & AXISW_CMD_EN_MASK);  /*make sure previous command completed*/
  87              		.loc 1 54 10
  88 0014 0100     		nop
  89              	.L6:
  90              		.loc 1 54 16 discriminator 1
  91 0016 B7470020 		li	a5,536887296
  92 001a 9C47     		lw	a5,8(a5)
  93 001c 8127     		sext.w	a5,a5
  94              		.loc 1 54 11 discriminator 1
  95 001e 8127     		sext.w	a5,a5
  96              		.loc 1 54 10 discriminator 1
  97 0020 E3CB07FE 		blt	a5,zero,.L6
  55:../src/platform/mpfs_hal/common/mss_axiswitch.c **** 
  56:../src/platform/mpfs_hal/common/mss_axiswitch.c ****     AXISW->DATA = data & AXISW_DATA_QOSVAL_MASK;  /*only valid values of bits[3:0]*/
  98              		.loc 1 56 10
  99 0024 B7470020 		li	a5,536887296
 100              		.loc 1 56 24
 101 0028 032784FE 		lw	a4,-24(s0)
 102 002c 3D8B     		andi	a4,a4,15
 103 002e 0127     		sext.w	a4,a4
 104              		.loc 1 56 17
 105 0030 D8C7     		sw	a4,12(a5)
  57:../src/platform/mpfs_hal/common/mss_axiswitch.c **** 
  58:../src/platform/mpfs_hal/common/mss_axiswitch.c ****     AXISW->CMD = (AXISW_CMD_RW_MASK |
  59:../src/platform/mpfs_hal/common/mss_axiswitch.c ****                  (master_port_num << AXISW_CMD_RWCHAN) |
 106              		.loc 1 59 35
 107 0032 8327C4FE 		lw	a5,-20(s0)
 108 0036 9B977700 		slliw	a5,a5,7
 109 003a 1B870700 		sext.w	a4,a5
  58:../src/platform/mpfs_hal/common/mss_axiswitch.c ****                  (master_port_num << AXISW_CMD_RWCHAN) |
 110              		.loc 1 58 10
 111 003e B7470020 		li	a5,536887296
  60:../src/platform/mpfs_hal/common/mss_axiswitch.c ****                  MSS_AXISW_QOS_VAL |
 112              		.loc 1 60 36
 113 0042 BA86     		mv	a3,a4
 114 0044 370700C0 		li	a4,-1073741824
 115 0048 0907     		addi	a4,a4,2
 116 004a 558F     		or	a4,a3,a4
 117 004c 0127     		sext.w	a4,a4
  58:../src/platform/mpfs_hal/common/mss_axiswitch.c ****                  (master_port_num << AXISW_CMD_RWCHAN) |
 118              		.loc 1 58 16
 119 004e 98C7     		sw	a4,8(a5)
  61:../src/platform/mpfs_hal/common/mss_axiswitch.c ****                  AXISW_CMD_EN_MASK);
  62:../src/platform/mpfs_hal/common/mss_axiswitch.c **** 
  63:../src/platform/mpfs_hal/common/mss_axiswitch.c ****     while(AXISW->CMD & AXISW_CMD_EN_MASK);    /*Wait for command to complete*/
 120              		.loc 1 63 10
 121 0050 0100     		nop
 122              	.L7:
 123              		.loc 1 63 16 discriminator 1
 124 0052 B7470020 		li	a5,536887296
 125 0056 9C47     		lw	a5,8(a5)
 126 0058 8127     		sext.w	a5,a5
 127              		.loc 1 63 11 discriminator 1
 128 005a 8127     		sext.w	a5,a5
 129              		.loc 1 63 10 discriminator 1
 130 005c E3CB07FE 		blt	a5,zero,.L7
  64:../src/platform/mpfs_hal/common/mss_axiswitch.c **** 
  65:../src/platform/mpfs_hal/common/mss_axiswitch.c ****     return ((AXISW->CMD & AXISW_CMD_ERR_MASK) >> AXISW_CMD_ERR);   /*return error bit value*/
 131              		.loc 1 65 19
 132 0060 B7470020 		li	a5,536887296
 133 0064 9C47     		lw	a5,8(a5)
 134 0066 8127     		sext.w	a5,a5
 135              		.loc 1 65 47
 136 0068 9BD7C701 		srliw	a5,a5,28
 137 006c 8127     		sext.w	a5,a5
 138 006e 858B     		andi	a5,a5,1
 139 0070 8127     		sext.w	a5,a5
  66:../src/platform/mpfs_hal/common/mss_axiswitch.c **** }
 140              		.loc 1 66 1
 141 0072 3E85     		mv	a0,a5
 142 0074 6264     		ld	s0,24(sp)
 143              		.cfi_restore 8
 144              		.cfi_def_cfa 2, 32
 145 0076 0561     		addi	sp,sp,32
 146              		.cfi_def_cfa_offset 0
 147 0078 8280     		jr	ra
 148              		.cfi_endproc
 149              	.LFE21:
 151              		.section	.text.MSS_AXISW_read_qos_val,"ax",@progbits
 152              		.align	1
 153              		.globl	MSS_AXISW_read_qos_val
 155              	MSS_AXISW_read_qos_val:
 156              	.LFB22:
  67:../src/platform/mpfs_hal/common/mss_axiswitch.c **** 
  68:../src/platform/mpfs_hal/common/mss_axiswitch.c **** /*Performs read operation on the AXI SWITCH APB interface,
  69:../src/platform/mpfs_hal/common/mss_axiswitch.c ****  * Parameters:
  70:../src/platform/mpfs_hal/common/mss_axiswitch.c ****  * master_port_num = AXI Master Port number. See Enum mss_axisw_mport_t above.
  71:../src/platform/mpfs_hal/common/mss_axiswitch.c ****  *
  72:../src/platform/mpfs_hal/common/mss_axiswitch.c ****  * Note: QoS values are programmable through registers only for AXI3 configurations.
  73:../src/platform/mpfs_hal/common/mss_axiswitch.c ****  We have AXI4 so the QoS value programming should not be attempted.
  74:../src/platform/mpfs_hal/common/mss_axiswitch.c ****  IF you try to write/read QoS value you will get return value =1 (AXI_ERR_BIT)
  75:../src/platform/mpfs_hal/common/mss_axiswitch.c ****  *
  76:../src/platform/mpfs_hal/common/mss_axiswitch.c ****  * returns the data returned by AXI SWITCH read operation for QoS command
  77:../src/platform/mpfs_hal/common/mss_axiswitch.c ****  *
  78:../src/platform/mpfs_hal/common/mss_axiswitch.c ****  * return value: As received form AXI_ERR_BIT in CMD register.
  79:../src/platform/mpfs_hal/common/mss_axiswitch.c ****  */
  80:../src/platform/mpfs_hal/common/mss_axiswitch.c **** uint32_t MSS_AXISW_read_qos_val(mss_axisw_mport_t master_port_num,
  81:../src/platform/mpfs_hal/common/mss_axiswitch.c ****                                               uint32_t* rd_data)
  82:../src/platform/mpfs_hal/common/mss_axiswitch.c **** {
 157              		.loc 1 82 1
 158              		.cfi_startproc
 159 0000 0111     		addi	sp,sp,-32
 160              		.cfi_def_cfa_offset 32
 161 0002 22EC     		sd	s0,24(sp)
 162              		.cfi_offset 8, -8
 163 0004 0010     		addi	s0,sp,32
 164              		.cfi_def_cfa 8, 0
 165 0006 AA87     		mv	a5,a0
 166 0008 2330B4FE 		sd	a1,-32(s0)
 167 000c 2326F4FE 		sw	a5,-20(s0)
  83:../src/platform/mpfs_hal/common/mss_axiswitch.c **** 
  84:../src/platform/mpfs_hal/common/mss_axiswitch.c ****     while(AXISW->CMD & AXISW_CMD_EN_MASK);
 168              		.loc 1 84 10
 169 0010 0100     		nop
 170              	.L10:
 171              		.loc 1 84 16 discriminator 1
 172 0012 B7470020 		li	a5,536887296
 173 0016 9C47     		lw	a5,8(a5)
 174 0018 8127     		sext.w	a5,a5
 175              		.loc 1 84 11 discriminator 1
 176 001a 8127     		sext.w	a5,a5
 177              		.loc 1 84 10 discriminator 1
 178 001c E3CB07FE 		blt	a5,zero,.L10
  85:../src/platform/mpfs_hal/common/mss_axiswitch.c **** 
  86:../src/platform/mpfs_hal/common/mss_axiswitch.c ****     AXISW->CMD &= ~(AXISW_CMD_RW_MASK);  /*Clear read/write bit*/
 179              		.loc 1 86 16
 180 0020 B7470020 		li	a5,536887296
 181 0024 9C47     		lw	a5,8(a5)
 182 0026 1B870700 		sext.w	a4,a5
 183 002a B7470020 		li	a5,536887296
 184 002e BA86     		mv	a3,a4
 185 0030 370700C0 		li	a4,-1073741824
 186 0034 7D17     		addi	a4,a4,-1
 187 0036 758F     		and	a4,a3,a4
 188 0038 0127     		sext.w	a4,a4
 189 003a 98C7     		sw	a4,8(a5)
  87:../src/platform/mpfs_hal/common/mss_axiswitch.c **** 
  88:../src/platform/mpfs_hal/common/mss_axiswitch.c ****     AXISW->CMD = ((master_port_num << AXISW_CMD_RWCHAN) | (MSS_AXISW_QOS_VAL) | AXISW_CMD_EN_MASK);
 190              		.loc 1 88 36
 191 003c 8327C4FE 		lw	a5,-20(s0)
 192 0040 9B977700 		slliw	a5,a5,7
 193 0044 1B870700 		sext.w	a4,a5
 194              		.loc 1 88 10
 195 0048 B7470020 		li	a5,536887296
 196              		.loc 1 88 79
 197 004c BA86     		mv	a3,a4
 198 004e 37070080 		li	a4,-2147483648
 199 0052 0907     		addi	a4,a4,2
 200 0054 558F     		or	a4,a3,a4
 201 0056 0127     		sext.w	a4,a4
 202              		.loc 1 88 16
 203 0058 98C7     		sw	a4,8(a5)
  89:../src/platform/mpfs_hal/common/mss_axiswitch.c **** 
  90:../src/platform/mpfs_hal/common/mss_axiswitch.c ****     while(AXISW->CMD & AXISW_CMD_EN_MASK);
 204              		.loc 1 90 10
 205 005a 0100     		nop
 206              	.L11:
 207              		.loc 1 90 16 discriminator 1
 208 005c B7470020 		li	a5,536887296
 209 0060 9C47     		lw	a5,8(a5)
 210 0062 8127     		sext.w	a5,a5
 211              		.loc 1 90 11 discriminator 1
 212 0064 8127     		sext.w	a5,a5
 213              		.loc 1 90 10 discriminator 1
 214 0066 E3CB07FE 		blt	a5,zero,.L11
  91:../src/platform/mpfs_hal/common/mss_axiswitch.c **** 
  92:../src/platform/mpfs_hal/common/mss_axiswitch.c ****     *rd_data = AXISW->DATA & AXISW_DATA_QOSVAL_MASK;
 215              		.loc 1 92 21
 216 006a B7470020 		li	a5,536887296
 217 006e DC47     		lw	a5,12(a5)
 218 0070 8127     		sext.w	a5,a5
 219              		.loc 1 92 28
 220 0072 BD8B     		andi	a5,a5,15
 221 0074 1B870700 		sext.w	a4,a5
 222              		.loc 1 92 14
 223 0078 833704FE 		ld	a5,-32(s0)
 224 007c 98C3     		sw	a4,0(a5)
  93:../src/platform/mpfs_hal/common/mss_axiswitch.c **** 
  94:../src/platform/mpfs_hal/common/mss_axiswitch.c ****     return ((AXISW->CMD & AXISW_CMD_ERR_MASK) >> AXISW_CMD_ERR);   /*return error bit value*/
 225              		.loc 1 94 19
 226 007e B7470020 		li	a5,536887296
 227 0082 9C47     		lw	a5,8(a5)
 228 0084 8127     		sext.w	a5,a5
 229              		.loc 1 94 47
 230 0086 9BD7C701 		srliw	a5,a5,28
 231 008a 8127     		sext.w	a5,a5
 232 008c 858B     		andi	a5,a5,1
 233 008e 8127     		sext.w	a5,a5
  95:../src/platform/mpfs_hal/common/mss_axiswitch.c **** }
 234              		.loc 1 95 1
 235 0090 3E85     		mv	a0,a5
 236 0092 6264     		ld	s0,24(sp)
 237              		.cfi_restore 8
 238              		.cfi_def_cfa 2, 32
 239 0094 0561     		addi	sp,sp,32
 240              		.cfi_def_cfa_offset 0
 241 0096 8280     		jr	ra
 242              		.cfi_endproc
 243              	.LFE22:
 245              		.section	.text.MSS_AXISW_write_rate,"ax",@progbits
 246              		.align	1
 247              		.globl	MSS_AXISW_write_rate
 249              	MSS_AXISW_write_rate:
 250              	.LFB23:
  96:../src/platform/mpfs_hal/common/mss_axiswitch.c **** 
  97:../src/platform/mpfs_hal/common/mss_axiswitch.c **** /* Programs the peak rate and transaction rate value for the given master port
  98:../src/platform/mpfs_hal/common/mss_axiswitch.c ****  read/write address channel
  99:../src/platform/mpfs_hal/common/mss_axiswitch.c **** 
 100:../src/platform/mpfs_hal/common/mss_axiswitch.c ****  NOTE: Peak rate and transaction rate are programmed simultaneously in one command.
 101:../src/platform/mpfs_hal/common/mss_axiswitch.c ****  So we must make sure that both desired valid values must be provided.
 102:../src/platform/mpfs_hal/common/mss_axiswitch.c **** 
 103:../src/platform/mpfs_hal/common/mss_axiswitch.c **** * return value: As received form AXI_ERR_BIT in CMD register.
 104:../src/platform/mpfs_hal/common/mss_axiswitch.c **** 
 105:../src/platform/mpfs_hal/common/mss_axiswitch.c **** */
 106:../src/platform/mpfs_hal/common/mss_axiswitch.c **** uint32_t MSS_AXISW_write_rate(mss_axisw_mport_t master_port_num,
 107:../src/platform/mpfs_hal/common/mss_axiswitch.c ****                                             mss_axisw_rate_t peak_rate,
 108:../src/platform/mpfs_hal/common/mss_axiswitch.c ****                                             mss_axisw_rate_t xct_rate)
 109:../src/platform/mpfs_hal/common/mss_axiswitch.c **** {
 251              		.loc 1 109 1
 252              		.cfi_startproc
 253 0000 0111     		addi	sp,sp,-32
 254              		.cfi_def_cfa_offset 32
 255 0002 22EC     		sd	s0,24(sp)
 256              		.cfi_offset 8, -8
 257 0004 0010     		addi	s0,sp,32
 258              		.cfi_def_cfa 8, 0
 259 0006 AA87     		mv	a5,a0
 260 0008 AE86     		mv	a3,a1
 261 000a 3287     		mv	a4,a2
 262 000c 2326F4FE 		sw	a5,-20(s0)
 263 0010 B687     		mv	a5,a3
 264 0012 2324F4FE 		sw	a5,-24(s0)
 265 0016 BA87     		mv	a5,a4
 266 0018 2322F4FE 		sw	a5,-28(s0)
 110:../src/platform/mpfs_hal/common/mss_axiswitch.c ****     while(AXISW->CMD & AXISW_CMD_EN_MASK);  /*make sure previous command completed*/
 267              		.loc 1 110 10
 268 001c 0100     		nop
 269              	.L14:
 270              		.loc 1 110 16 discriminator 1
 271 001e B7470020 		li	a5,536887296
 272 0022 9C47     		lw	a5,8(a5)
 273 0024 8127     		sext.w	a5,a5
 274              		.loc 1 110 11 discriminator 1
 275 0026 8127     		sext.w	a5,a5
 276              		.loc 1 110 10 discriminator 1
 277 0028 E3CB07FE 		blt	a5,zero,.L14
 111:../src/platform/mpfs_hal/common/mss_axiswitch.c ****     AXISW->DATA = ((peak_rate) << AXISW_DATA_PEAKRT) | ((xct_rate) << AXISW_DATA_XCTRT) ;
 278              		.loc 1 111 32
 279 002c 832784FE 		lw	a5,-24(s0)
 280 0030 9B974701 		slliw	a5,a5,20
 281 0034 9B860700 		sext.w	a3,a5
 282              		.loc 1 111 68
 283 0038 832744FE 		lw	a5,-28(s0)
 284 003c 9B974700 		slliw	a5,a5,4
 285 0040 1B870700 		sext.w	a4,a5
 286              		.loc 1 111 10
 287 0044 B7470020 		li	a5,536887296
 288              		.loc 1 111 54
 289 0048 558F     		or	a4,a3,a4
 290 004a 0127     		sext.w	a4,a4
 291              		.loc 1 111 17
 292 004c D8C7     		sw	a4,12(a5)
 112:../src/platform/mpfs_hal/common/mss_axiswitch.c **** 
 113:../src/platform/mpfs_hal/common/mss_axiswitch.c ****     AXISW->CMD = (AXISW_CMD_RW_MASK |
 114:../src/platform/mpfs_hal/common/mss_axiswitch.c ****                  (master_port_num << AXISW_CMD_RWCHAN) |
 293              		.loc 1 114 35
 294 004e 8327C4FE 		lw	a5,-20(s0)
 295 0052 9B977700 		slliw	a5,a5,7
 296 0056 1B870700 		sext.w	a4,a5
 113:../src/platform/mpfs_hal/common/mss_axiswitch.c ****                  (master_port_num << AXISW_CMD_RWCHAN) |
 297              		.loc 1 113 10
 298 005a B7470020 		li	a5,536887296
 115:../src/platform/mpfs_hal/common/mss_axiswitch.c ****                  (MSS_AXISW_PEAKRT_XCTRT) |
 299              		.loc 1 115 43
 300 005e BA86     		mv	a3,a4
 301 0060 370700C0 		li	a4,-1073741824
 302 0064 0507     		addi	a4,a4,1
 303 0066 558F     		or	a4,a3,a4
 304 0068 0127     		sext.w	a4,a4
 113:../src/platform/mpfs_hal/common/mss_axiswitch.c ****                  (master_port_num << AXISW_CMD_RWCHAN) |
 305              		.loc 1 113 16
 306 006a 98C7     		sw	a4,8(a5)
 116:../src/platform/mpfs_hal/common/mss_axiswitch.c ****                  AXISW_CMD_EN_MASK);
 117:../src/platform/mpfs_hal/common/mss_axiswitch.c **** 
 118:../src/platform/mpfs_hal/common/mss_axiswitch.c ****     while(AXISW->CMD & AXISW_CMD_EN_MASK);    /*Wait for command to complete*/
 307              		.loc 1 118 10
 308 006c 0100     		nop
 309              	.L15:
 310              		.loc 1 118 16 discriminator 1
 311 006e B7470020 		li	a5,536887296
 312 0072 9C47     		lw	a5,8(a5)
 313 0074 8127     		sext.w	a5,a5
 314              		.loc 1 118 11 discriminator 1
 315 0076 8127     		sext.w	a5,a5
 316              		.loc 1 118 10 discriminator 1
 317 0078 E3CB07FE 		blt	a5,zero,.L15
 119:../src/platform/mpfs_hal/common/mss_axiswitch.c **** 
 120:../src/platform/mpfs_hal/common/mss_axiswitch.c ****     return ((AXISW->CMD & AXISW_CMD_ERR_MASK) >> AXISW_CMD_ERR);   /*return error bit value*/
 318              		.loc 1 120 19
 319 007c B7470020 		li	a5,536887296
 320 0080 9C47     		lw	a5,8(a5)
 321 0082 8127     		sext.w	a5,a5
 322              		.loc 1 120 47
 323 0084 9BD7C701 		srliw	a5,a5,28
 324 0088 8127     		sext.w	a5,a5
 325 008a 858B     		andi	a5,a5,1
 326 008c 8127     		sext.w	a5,a5
 121:../src/platform/mpfs_hal/common/mss_axiswitch.c **** }
 327              		.loc 1 121 1
 328 008e 3E85     		mv	a0,a5
 329 0090 6264     		ld	s0,24(sp)
 330              		.cfi_restore 8
 331              		.cfi_def_cfa 2, 32
 332 0092 0561     		addi	sp,sp,32
 333              		.cfi_def_cfa_offset 0
 334 0094 8280     		jr	ra
 335              		.cfi_endproc
 336              	.LFE23:
 338              		.section	.text.MSS_AXISW_read_rate,"ax",@progbits
 339              		.align	1
 340              		.globl	MSS_AXISW_read_rate
 342              	MSS_AXISW_read_rate:
 343              	.LFB24:
 122:../src/platform/mpfs_hal/common/mss_axiswitch.c **** 
 123:../src/platform/mpfs_hal/common/mss_axiswitch.c **** /* Reads the peak rate and transaction rate value for the given master port
 124:../src/platform/mpfs_hal/common/mss_axiswitch.c **** read/write address channel
 125:../src/platform/mpfs_hal/common/mss_axiswitch.c **** peak_rate: returns the value of peak rate
 126:../src/platform/mpfs_hal/common/mss_axiswitch.c **** xct_rate: returns the value of transaction rate
 127:../src/platform/mpfs_hal/common/mss_axiswitch.c **** return value: As received form AXI_ERR_BIT in CMD register.
 128:../src/platform/mpfs_hal/common/mss_axiswitch.c **** 
 129:../src/platform/mpfs_hal/common/mss_axiswitch.c **** */
 130:../src/platform/mpfs_hal/common/mss_axiswitch.c **** uint32_t MSS_AXISW_read_rate(mss_axisw_mport_t master_port_num,
 131:../src/platform/mpfs_hal/common/mss_axiswitch.c ****                                           mss_axisw_rate_t* peak_rate,
 132:../src/platform/mpfs_hal/common/mss_axiswitch.c ****                                           mss_axisw_rate_t* xct_rate)
 133:../src/platform/mpfs_hal/common/mss_axiswitch.c **** {
 344              		.loc 1 133 1
 345              		.cfi_startproc
 346 0000 3971     		addi	sp,sp,-64
 347              		.cfi_def_cfa_offset 64
 348 0002 22FC     		sd	s0,56(sp)
 349              		.cfi_offset 8, -8
 350 0004 8000     		addi	s0,sp,64
 351              		.cfi_def_cfa 8, 0
 352 0006 AA87     		mv	a5,a0
 353 0008 2338B4FC 		sd	a1,-48(s0)
 354 000c 2334C4FC 		sd	a2,-56(s0)
 355 0010 232EF4FC 		sw	a5,-36(s0)
 134:../src/platform/mpfs_hal/common/mss_axiswitch.c ****     uint32_t temp = 0u;
 356              		.loc 1 134 14
 357 0014 232604FE 		sw	zero,-20(s0)
 135:../src/platform/mpfs_hal/common/mss_axiswitch.c ****     while(AXISW->CMD & AXISW_CMD_EN_MASK);
 358              		.loc 1 135 10
 359 0018 0100     		nop
 360              	.L18:
 361              		.loc 1 135 16 discriminator 1
 362 001a B7470020 		li	a5,536887296
 363 001e 9C47     		lw	a5,8(a5)
 364 0020 8127     		sext.w	a5,a5
 365              		.loc 1 135 11 discriminator 1
 366 0022 8127     		sext.w	a5,a5
 367              		.loc 1 135 10 discriminator 1
 368 0024 E3CB07FE 		blt	a5,zero,.L18
 136:../src/platform/mpfs_hal/common/mss_axiswitch.c **** 
 137:../src/platform/mpfs_hal/common/mss_axiswitch.c ****     AXISW->CMD &= ~(AXISW_CMD_RW_MASK);  /*Clear read/write and command EN bit*/
 369              		.loc 1 137 16
 370 0028 B7470020 		li	a5,536887296
 371 002c 9C47     		lw	a5,8(a5)
 372 002e 1B870700 		sext.w	a4,a5
 373 0032 B7470020 		li	a5,536887296
 374 0036 BA86     		mv	a3,a4
 375 0038 370700C0 		li	a4,-1073741824
 376 003c 7D17     		addi	a4,a4,-1
 377 003e 758F     		and	a4,a3,a4
 378 0040 0127     		sext.w	a4,a4
 379 0042 98C7     		sw	a4,8(a5)
 138:../src/platform/mpfs_hal/common/mss_axiswitch.c **** 
 139:../src/platform/mpfs_hal/common/mss_axiswitch.c ****     AXISW->CMD = ((master_port_num << AXISW_CMD_RWCHAN) |
 380              		.loc 1 139 36
 381 0044 8327C4FD 		lw	a5,-36(s0)
 382 0048 9B977700 		slliw	a5,a5,7
 383 004c 1B870700 		sext.w	a4,a5
 384              		.loc 1 139 10
 385 0050 B7470020 		li	a5,536887296
 140:../src/platform/mpfs_hal/common/mss_axiswitch.c ****                  (MSS_AXISW_PEAKRT_XCTRT) |
 386              		.loc 1 140 43
 387 0054 BA86     		mv	a3,a4
 388 0056 37070080 		li	a4,-2147483648
 389 005a 0507     		addi	a4,a4,1
 390 005c 558F     		or	a4,a3,a4
 391 005e 0127     		sext.w	a4,a4
 139:../src/platform/mpfs_hal/common/mss_axiswitch.c ****                  (MSS_AXISW_PEAKRT_XCTRT) |
 392              		.loc 1 139 16
 393 0060 98C7     		sw	a4,8(a5)
 141:../src/platform/mpfs_hal/common/mss_axiswitch.c ****                  AXISW_CMD_EN_MASK);
 142:../src/platform/mpfs_hal/common/mss_axiswitch.c **** 
 143:../src/platform/mpfs_hal/common/mss_axiswitch.c ****     while(AXISW->CMD & AXISW_CMD_EN_MASK);
 394              		.loc 1 143 10
 395 0062 0100     		nop
 396              	.L19:
 397              		.loc 1 143 16 discriminator 1
 398 0064 B7470020 		li	a5,536887296
 399 0068 9C47     		lw	a5,8(a5)
 400 006a 8127     		sext.w	a5,a5
 401              		.loc 1 143 11 discriminator 1
 402 006c 8127     		sext.w	a5,a5
 403              		.loc 1 143 10 discriminator 1
 404 006e E3CB07FE 		blt	a5,zero,.L19
 144:../src/platform/mpfs_hal/common/mss_axiswitch.c **** 
 145:../src/platform/mpfs_hal/common/mss_axiswitch.c ****     temp = AXISW->DATA;
 405              		.loc 1 145 17
 406 0072 B7470020 		li	a5,536887296
 407              		.loc 1 145 10
 408 0076 DC47     		lw	a5,12(a5)
 409 0078 2326F4FE 		sw	a5,-20(s0)
 146:../src/platform/mpfs_hal/common/mss_axiswitch.c **** 
 147:../src/platform/mpfs_hal/common/mss_axiswitch.c ****     *peak_rate = (temp & AXISW_DATA_PEAKRT_MASK) >> AXISW_DATA_PEAKRT;
 410              		.loc 1 147 50
 411 007c 8327C4FE 		lw	a5,-20(s0)
 412 0080 9BD74701 		srliw	a5,a5,20
 413 0084 1B870700 		sext.w	a4,a5
 414              		.loc 1 147 16
 415 0088 833704FD 		ld	a5,-48(s0)
 416 008c 98C3     		sw	a4,0(a5)
 148:../src/platform/mpfs_hal/common/mss_axiswitch.c ****     *xct_rate = (temp & AXISW_DATA_XCTRT_MASK) >> AXISW_DATA_XCTRT;
 417              		.loc 1 148 48
 418 008e 8327C4FE 		lw	a5,-20(s0)
 419 0092 9BD74700 		srliw	a5,a5,4
 420 0096 8127     		sext.w	a5,a5
 421 0098 3E87     		mv	a4,a5
 422 009a 8567     		li	a5,4096
 423 009c FD17     		addi	a5,a5,-1
 424 009e F98F     		and	a5,a4,a5
 425 00a0 1B870700 		sext.w	a4,a5
 426              		.loc 1 148 15
 427 00a4 833784FC 		ld	a5,-56(s0)
 428 00a8 98C3     		sw	a4,0(a5)
 149:../src/platform/mpfs_hal/common/mss_axiswitch.c **** 
 150:../src/platform/mpfs_hal/common/mss_axiswitch.c ****     return ((AXISW->CMD & AXISW_CMD_ERR_MASK) >> AXISW_CMD_ERR);   /*return error bit value*/
 429              		.loc 1 150 19
 430 00aa B7470020 		li	a5,536887296
 431 00ae 9C47     		lw	a5,8(a5)
 432 00b0 8127     		sext.w	a5,a5
 433              		.loc 1 150 47
 434 00b2 9BD7C701 		srliw	a5,a5,28
 435 00b6 8127     		sext.w	a5,a5
 436 00b8 858B     		andi	a5,a5,1
 437 00ba 8127     		sext.w	a5,a5
 151:../src/platform/mpfs_hal/common/mss_axiswitch.c **** }
 438              		.loc 1 151 1
 439 00bc 3E85     		mv	a0,a5
 440 00be 6274     		ld	s0,56(sp)
 441              		.cfi_restore 8
 442              		.cfi_def_cfa 2, 64
 443 00c0 2161     		addi	sp,sp,64
 444              		.cfi_def_cfa_offset 0
 445 00c2 8280     		jr	ra
 446              		.cfi_endproc
 447              	.LFE24:
 449              		.section	.text.MSS_AXISW_write_burstiness,"ax",@progbits
 450              		.align	1
 451              		.globl	MSS_AXISW_write_burstiness
 453              	MSS_AXISW_write_burstiness:
 454              	.LFB25:
 152:../src/platform/mpfs_hal/common/mss_axiswitch.c **** 
 153:../src/platform/mpfs_hal/common/mss_axiswitch.c **** /* Programs the burstiness value for the given master port read/write address channel
 154:../src/platform/mpfs_hal/common/mss_axiswitch.c **** 
 155:../src/platform/mpfs_hal/common/mss_axiswitch.c **** burstiness_val: burstiness value to be programmed
 156:../src/platform/mpfs_hal/common/mss_axiswitch.c **** NOTE: Burstiness value formula as mentioned in AXISW document is Burstiness = DataReg[23:16] + 1
 157:../src/platform/mpfs_hal/common/mss_axiswitch.c **** 
 158:../src/platform/mpfs_hal/common/mss_axiswitch.c **** regulator_en: QoS regulator Enable 1= enable, 0 = disable
 159:../src/platform/mpfs_hal/common/mss_axiswitch.c **** 
 160:../src/platform/mpfs_hal/common/mss_axiswitch.c **** * return value: As received form AXI_ERR_BIT in CMD register.
 161:../src/platform/mpfs_hal/common/mss_axiswitch.c **** */
 162:../src/platform/mpfs_hal/common/mss_axiswitch.c **** int32_t MSS_AXISW_write_burstiness(mss_axisw_mport_t master_port_num,
 163:../src/platform/mpfs_hal/common/mss_axiswitch.c ****                                                   uint32_t burstiness_val,
 164:../src/platform/mpfs_hal/common/mss_axiswitch.c ****                                                   uint32_t regulator_en)
 165:../src/platform/mpfs_hal/common/mss_axiswitch.c **** {
 455              		.loc 1 165 1
 456              		.cfi_startproc
 457 0000 0111     		addi	sp,sp,-32
 458              		.cfi_def_cfa_offset 32
 459 0002 22EC     		sd	s0,24(sp)
 460              		.cfi_offset 8, -8
 461 0004 0010     		addi	s0,sp,32
 462              		.cfi_def_cfa 8, 0
 463 0006 AA87     		mv	a5,a0
 464 0008 AE86     		mv	a3,a1
 465 000a 3287     		mv	a4,a2
 466 000c 2326F4FE 		sw	a5,-20(s0)
 467 0010 B687     		mv	a5,a3
 468 0012 2324F4FE 		sw	a5,-24(s0)
 469 0016 BA87     		mv	a5,a4
 470 0018 2322F4FE 		sw	a5,-28(s0)
 166:../src/platform/mpfs_hal/common/mss_axiswitch.c **** 
 167:../src/platform/mpfs_hal/common/mss_axiswitch.c ****     while(AXISW->CMD & AXISW_CMD_EN_MASK);  /*make sure previous command completed*/
 471              		.loc 1 167 10
 472 001c 0100     		nop
 473              	.L22:
 474              		.loc 1 167 16 discriminator 1
 475 001e B7470020 		li	a5,536887296
 476 0022 9C47     		lw	a5,8(a5)
 477 0024 8127     		sext.w	a5,a5
 478              		.loc 1 167 11 discriminator 1
 479 0026 8127     		sext.w	a5,a5
 480              		.loc 1 167 10 discriminator 1
 481 0028 E3CB07FE 		blt	a5,zero,.L22
 168:../src/platform/mpfs_hal/common/mss_axiswitch.c **** 
 169:../src/platform/mpfs_hal/common/mss_axiswitch.c ****     /*Write burstiness value and enable burstiness regulator.
 170:../src/platform/mpfs_hal/common/mss_axiswitch.c ****      * Burstiness_val=0 is not valid.
 171:../src/platform/mpfs_hal/common/mss_axiswitch.c ****     Burstiness value formula as mentioned in AXISW document is Burstiness = DataReg[23:16] + 1*/
 172:../src/platform/mpfs_hal/common/mss_axiswitch.c **** 
 173:../src/platform/mpfs_hal/common/mss_axiswitch.c ****     if(burstiness_val == 0)
 482              		.loc 1 173 7
 483 002c 832784FE 		lw	a5,-24(s0)
 484 0030 8127     		sext.w	a5,a5
 485 0032 99E3     		bne	a5,zero,.L23
 174:../src/platform/mpfs_hal/common/mss_axiswitch.c ****     {
 175:../src/platform/mpfs_hal/common/mss_axiswitch.c ****     	return -1;
 486              		.loc 1 175 13
 487 0034 FD57     		li	a5,-1
 488 0036 9DA0     		j	.L24
 489              	.L23:
 176:../src/platform/mpfs_hal/common/mss_axiswitch.c ****     }
 177:../src/platform/mpfs_hal/common/mss_axiswitch.c ****     else
 178:../src/platform/mpfs_hal/common/mss_axiswitch.c ****     {
 179:../src/platform/mpfs_hal/common/mss_axiswitch.c ****         AXISW->DATA = ((burstiness_val - 1u) << AXISW_DATA_BURSTI) | (regulator_en & 0x01);
 490              		.loc 1 179 40
 491 0038 832784FE 		lw	a5,-24(s0)
 492 003c FD37     		addiw	a5,a5,-1
 493 003e 8127     		sext.w	a5,a5
 494              		.loc 1 179 46
 495 0040 9B970701 		slliw	a5,a5,16
 496 0044 9B860700 		sext.w	a3,a5
 497              		.loc 1 179 84
 498 0048 832744FE 		lw	a5,-28(s0)
 499 004c 858B     		andi	a5,a5,1
 500 004e 1B870700 		sext.w	a4,a5
 501              		.loc 1 179 14
 502 0052 B7470020 		li	a5,536887296
 503              		.loc 1 179 68
 504 0056 558F     		or	a4,a3,a4
 505 0058 0127     		sext.w	a4,a4
 506              		.loc 1 179 21
 507 005a D8C7     		sw	a4,12(a5)
 180:../src/platform/mpfs_hal/common/mss_axiswitch.c ****     }
 181:../src/platform/mpfs_hal/common/mss_axiswitch.c **** 
 182:../src/platform/mpfs_hal/common/mss_axiswitch.c ****     AXISW->CMD = (AXISW_CMD_RW_MASK |
 183:../src/platform/mpfs_hal/common/mss_axiswitch.c ****                  (master_port_num << AXISW_CMD_RWCHAN) |
 508              		.loc 1 183 35
 509 005c 8327C4FE 		lw	a5,-20(s0)
 510 0060 9B977700 		slliw	a5,a5,7
 511 0064 1B870700 		sext.w	a4,a5
 182:../src/platform/mpfs_hal/common/mss_axiswitch.c ****                  (master_port_num << AXISW_CMD_RWCHAN) |
 512              		.loc 1 182 10
 513 0068 B7470020 		li	a5,536887296
 184:../src/platform/mpfs_hal/common/mss_axiswitch.c ****                  (MSS_AXISW_BURSTINESS_EN) |
 514              		.loc 1 184 44
 515 006c BA86     		mv	a3,a4
 516 006e 370700C0 		li	a4,-1073741824
 517 0072 558F     		or	a4,a3,a4
 518 0074 0127     		sext.w	a4,a4
 182:../src/platform/mpfs_hal/common/mss_axiswitch.c ****                  (master_port_num << AXISW_CMD_RWCHAN) |
 519              		.loc 1 182 16
 520 0076 98C7     		sw	a4,8(a5)
 185:../src/platform/mpfs_hal/common/mss_axiswitch.c ****                  AXISW_CMD_EN_MASK);
 186:../src/platform/mpfs_hal/common/mss_axiswitch.c **** 
 187:../src/platform/mpfs_hal/common/mss_axiswitch.c ****     while(AXISW->CMD & AXISW_CMD_EN_MASK);      /*Wait for command to complete*/
 521              		.loc 1 187 10
 522 0078 0100     		nop
 523              	.L25:
 524              		.loc 1 187 16 discriminator 1
 525 007a B7470020 		li	a5,536887296
 526 007e 9C47     		lw	a5,8(a5)
 527 0080 8127     		sext.w	a5,a5
 528              		.loc 1 187 11 discriminator 1
 529 0082 8127     		sext.w	a5,a5
 530              		.loc 1 187 10 discriminator 1
 531 0084 E3CB07FE 		blt	a5,zero,.L25
 188:../src/platform/mpfs_hal/common/mss_axiswitch.c **** 
 189:../src/platform/mpfs_hal/common/mss_axiswitch.c ****     return ((AXISW->CMD & AXISW_CMD_ERR_MASK) >> AXISW_CMD_ERR);   /*return error bit value*/
 532              		.loc 1 189 19
 533 0088 B7470020 		li	a5,536887296
 534 008c 9C47     		lw	a5,8(a5)
 535 008e 8127     		sext.w	a5,a5
 536              		.loc 1 189 47
 537 0090 9BD7C701 		srliw	a5,a5,28
 538 0094 8127     		sext.w	a5,a5
 539 0096 8127     		sext.w	a5,a5
 540 0098 858B     		andi	a5,a5,1
 541 009a 8127     		sext.w	a5,a5
 542              	.L24:
 190:../src/platform/mpfs_hal/common/mss_axiswitch.c **** }
 543              		.loc 1 190 1
 544 009c 3E85     		mv	a0,a5
 545 009e 6264     		ld	s0,24(sp)
 546              		.cfi_restore 8
 547              		.cfi_def_cfa 2, 32
 548 00a0 0561     		addi	sp,sp,32
 549              		.cfi_def_cfa_offset 0
 550 00a2 8280     		jr	ra
 551              		.cfi_endproc
 552              	.LFE25:
 554              		.section	.text.MSS_AXISW_read_burstiness,"ax",@progbits
 555              		.align	1
 556              		.globl	MSS_AXISW_read_burstiness
 558              	MSS_AXISW_read_burstiness:
 559              	.LFB26:
 191:../src/platform/mpfs_hal/common/mss_axiswitch.c **** 
 192:../src/platform/mpfs_hal/common/mss_axiswitch.c **** /* Reads the burstiness value for the given master port read/write address channel
 193:../src/platform/mpfs_hal/common/mss_axiswitch.c **** 
 194:../src/platform/mpfs_hal/common/mss_axiswitch.c **** burstiness_val: Return parameter bit 23:16 shows the burstiness value.
 195:../src/platform/mpfs_hal/common/mss_axiswitch.c **** NOTE: Burstiness value formula as mentioned in AXISW document is Burstiness = DataReg[23:16] + 1
 196:../src/platform/mpfs_hal/common/mss_axiswitch.c **** 
 197:../src/platform/mpfs_hal/common/mss_axiswitch.c **** * return value: As received form AXI_ERR_BIT in CMD register.
 198:../src/platform/mpfs_hal/common/mss_axiswitch.c **** */
 199:../src/platform/mpfs_hal/common/mss_axiswitch.c **** uint32_t MSS_AXISW_read_burstiness(mss_axisw_mport_t master_port_num,
 200:../src/platform/mpfs_hal/common/mss_axiswitch.c ****                                                 uint32_t* burstiness_val)
 201:../src/platform/mpfs_hal/common/mss_axiswitch.c **** {
 560              		.loc 1 201 1
 561              		.cfi_startproc
 562 0000 0111     		addi	sp,sp,-32
 563              		.cfi_def_cfa_offset 32
 564 0002 22EC     		sd	s0,24(sp)
 565              		.cfi_offset 8, -8
 566 0004 0010     		addi	s0,sp,32
 567              		.cfi_def_cfa 8, 0
 568 0006 AA87     		mv	a5,a0
 569 0008 2330B4FE 		sd	a1,-32(s0)
 570 000c 2326F4FE 		sw	a5,-20(s0)
 202:../src/platform/mpfs_hal/common/mss_axiswitch.c ****     while(AXISW->CMD & AXISW_CMD_EN_MASK);
 571              		.loc 1 202 10
 572 0010 0100     		nop
 573              	.L27:
 574              		.loc 1 202 16 discriminator 1
 575 0012 B7470020 		li	a5,536887296
 576 0016 9C47     		lw	a5,8(a5)
 577 0018 8127     		sext.w	a5,a5
 578              		.loc 1 202 11 discriminator 1
 579 001a 8127     		sext.w	a5,a5
 580              		.loc 1 202 10 discriminator 1
 581 001c E3CB07FE 		blt	a5,zero,.L27
 203:../src/platform/mpfs_hal/common/mss_axiswitch.c **** 
 204:../src/platform/mpfs_hal/common/mss_axiswitch.c ****     AXISW->CMD &= ~(AXISW_CMD_RW_MASK);  /*Clear read/write and command EN bit*/
 582              		.loc 1 204 16
 583 0020 B7470020 		li	a5,536887296
 584 0024 9C47     		lw	a5,8(a5)
 585 0026 1B870700 		sext.w	a4,a5
 586 002a B7470020 		li	a5,536887296
 587 002e BA86     		mv	a3,a4
 588 0030 370700C0 		li	a4,-1073741824
 589 0034 7D17     		addi	a4,a4,-1
 590 0036 758F     		and	a4,a3,a4
 591 0038 0127     		sext.w	a4,a4
 592 003a 98C7     		sw	a4,8(a5)
 205:../src/platform/mpfs_hal/common/mss_axiswitch.c **** 
 206:../src/platform/mpfs_hal/common/mss_axiswitch.c ****     AXISW->CMD = ((master_port_num << AXISW_CMD_RWCHAN) |
 593              		.loc 1 206 57
 594 003c 8327C4FE 		lw	a5,-20(s0)
 595 0040 9B977700 		slliw	a5,a5,7
 596 0044 1B870700 		sext.w	a4,a5
 597              		.loc 1 206 10
 598 0048 B7470020 		li	a5,536887296
 207:../src/platform/mpfs_hal/common/mss_axiswitch.c ****                  (MSS_AXISW_BURSTINESS_EN) |
 599              		.loc 1 207 44
 600 004c BA86     		mv	a3,a4
 601 004e 37070080 		li	a4,-2147483648
 602 0052 558F     		or	a4,a3,a4
 603 0054 0127     		sext.w	a4,a4
 206:../src/platform/mpfs_hal/common/mss_axiswitch.c ****                  (MSS_AXISW_BURSTINESS_EN) |
 604              		.loc 1 206 16
 605 0056 98C7     		sw	a4,8(a5)
 208:../src/platform/mpfs_hal/common/mss_axiswitch.c ****                  AXISW_CMD_EN_MASK);
 209:../src/platform/mpfs_hal/common/mss_axiswitch.c **** 
 210:../src/platform/mpfs_hal/common/mss_axiswitch.c ****     while(AXISW->CMD & AXISW_CMD_EN_MASK);
 606              		.loc 1 210 10
 607 0058 0100     		nop
 608              	.L28:
 609              		.loc 1 210 16 discriminator 1
 610 005a B7470020 		li	a5,536887296
 611 005e 9C47     		lw	a5,8(a5)
 612 0060 8127     		sext.w	a5,a5
 613              		.loc 1 210 11 discriminator 1
 614 0062 8127     		sext.w	a5,a5
 615              		.loc 1 210 10 discriminator 1
 616 0064 E3CB07FE 		blt	a5,zero,.L28
 211:../src/platform/mpfs_hal/common/mss_axiswitch.c **** 
 212:../src/platform/mpfs_hal/common/mss_axiswitch.c ****     *burstiness_val = ((AXISW->DATA & AXISW_DATA_BURSTI_MASK) >> AXISW_DATA_BURSTI) + 1u;
 617              		.loc 1 212 30
 618 0068 B7470020 		li	a5,536887296
 619 006c DC47     		lw	a5,12(a5)
 620 006e 8127     		sext.w	a5,a5
 621              		.loc 1 212 63
 622 0070 9BD70701 		srliw	a5,a5,16
 623 0074 8127     		sext.w	a5,a5
 624 0076 93F7F70F 		andi	a5,a5,255
 625 007a 8127     		sext.w	a5,a5
 626              		.loc 1 212 85
 627 007c 8527     		addiw	a5,a5,1
 628 007e 1B870700 		sext.w	a4,a5
 629              		.loc 1 212 21
 630 0082 833704FE 		ld	a5,-32(s0)
 631 0086 98C3     		sw	a4,0(a5)
 213:../src/platform/mpfs_hal/common/mss_axiswitch.c **** 
 214:../src/platform/mpfs_hal/common/mss_axiswitch.c ****     return ((AXISW->CMD & AXISW_CMD_ERR_MASK) >> AXISW_CMD_ERR);   /*return error bit value*/
 632              		.loc 1 214 19
 633 0088 B7470020 		li	a5,536887296
 634 008c 9C47     		lw	a5,8(a5)
 635 008e 8127     		sext.w	a5,a5
 636              		.loc 1 214 47
 637 0090 9BD7C701 		srliw	a5,a5,28
 638 0094 8127     		sext.w	a5,a5
 639 0096 858B     		andi	a5,a5,1
 640 0098 8127     		sext.w	a5,a5
 215:../src/platform/mpfs_hal/common/mss_axiswitch.c **** }
 641              		.loc 1 215 1
 642 009a 3E85     		mv	a0,a5
 643 009c 6264     		ld	s0,24(sp)
 644              		.cfi_restore 8
 645              		.cfi_def_cfa 2, 32
 646 009e 0561     		addi	sp,sp,32
 647              		.cfi_def_cfa_offset 0
 648 00a0 8280     		jr	ra
 649              		.cfi_endproc
 650              	.LFE26:
 652              		.section	.text.MSS_AXISW_write_slave_ready,"ax",@progbits
 653              		.align	1
 654              		.globl	MSS_AXISW_write_slave_ready
 656              	MSS_AXISW_write_slave_ready:
 657              	.LFB27:
 216:../src/platform/mpfs_hal/common/mss_axiswitch.c **** 
 217:../src/platform/mpfs_hal/common/mss_axiswitch.c **** uint32_t MSS_AXISW_write_slave_ready(mss_axisw_mport_t master_port_num,
 218:../src/platform/mpfs_hal/common/mss_axiswitch.c ****                                                    uint8_t slave_ready_en)
 219:../src/platform/mpfs_hal/common/mss_axiswitch.c **** {
 658              		.loc 1 219 1
 659              		.cfi_startproc
 660 0000 0111     		addi	sp,sp,-32
 661              		.cfi_def_cfa_offset 32
 662 0002 22EC     		sd	s0,24(sp)
 663              		.cfi_offset 8, -8
 664 0004 0010     		addi	s0,sp,32
 665              		.cfi_def_cfa 8, 0
 666 0006 AA87     		mv	a5,a0
 667 0008 2E87     		mv	a4,a1
 668 000a 2326F4FE 		sw	a5,-20(s0)
 669 000e BA87     		mv	a5,a4
 670 0010 A305F4FE 		sb	a5,-21(s0)
 220:../src/platform/mpfs_hal/common/mss_axiswitch.c ****     while(AXISW->CMD & AXISW_CMD_EN_MASK);  /*make sure previous command completed*/
 671              		.loc 1 220 10
 672 0014 0100     		nop
 673              	.L31:
 674              		.loc 1 220 16 discriminator 1
 675 0016 B7470020 		li	a5,536887296
 676 001a 9C47     		lw	a5,8(a5)
 677 001c 8127     		sext.w	a5,a5
 678              		.loc 1 220 11 discriminator 1
 679 001e 8127     		sext.w	a5,a5
 680              		.loc 1 220 10 discriminator 1
 681 0020 E3CB07FE 		blt	a5,zero,.L31
 221:../src/platform/mpfs_hal/common/mss_axiswitch.c **** 
 222:../src/platform/mpfs_hal/common/mss_axiswitch.c ****     AXISW->DATA = slave_ready_en & 0x01;  /*only valid value of bit0*/
 682              		.loc 1 222 34
 683 0024 8347B4FE 		lbu	a5,-21(s0)
 684 0028 1B870700 		sext.w	a4,a5
 685              		.loc 1 222 10
 686 002c B7470020 		li	a5,536887296
 687              		.loc 1 222 34
 688 0030 058B     		andi	a4,a4,1
 689 0032 0127     		sext.w	a4,a4
 690              		.loc 1 222 17
 691 0034 D8C7     		sw	a4,12(a5)
 223:../src/platform/mpfs_hal/common/mss_axiswitch.c **** 
 224:../src/platform/mpfs_hal/common/mss_axiswitch.c ****     AXISW->CMD = (AXISW_CMD_RW_MASK |
 225:../src/platform/mpfs_hal/common/mss_axiswitch.c ****                  (master_port_num << AXISW_CMD_RWCHAN) |
 692              		.loc 1 225 35
 693 0036 8327C4FE 		lw	a5,-20(s0)
 694 003a 9B977700 		slliw	a5,a5,7
 695 003e 1B870700 		sext.w	a4,a5
 224:../src/platform/mpfs_hal/common/mss_axiswitch.c ****                  (master_port_num << AXISW_CMD_RWCHAN) |
 696              		.loc 1 224 10
 697 0042 B7470020 		li	a5,536887296
 226:../src/platform/mpfs_hal/common/mss_axiswitch.c ****                  MSS_AXISW_SLV_RDY |
 698              		.loc 1 226 36
 699 0046 BA86     		mv	a3,a4
 700 0048 370700C0 		li	a4,-1073741824
 701 004c 0D07     		addi	a4,a4,3
 702 004e 558F     		or	a4,a3,a4
 703 0050 0127     		sext.w	a4,a4
 224:../src/platform/mpfs_hal/common/mss_axiswitch.c ****                  (master_port_num << AXISW_CMD_RWCHAN) |
 704              		.loc 1 224 16
 705 0052 98C7     		sw	a4,8(a5)
 227:../src/platform/mpfs_hal/common/mss_axiswitch.c ****                  AXISW_CMD_EN_MASK);
 228:../src/platform/mpfs_hal/common/mss_axiswitch.c **** 
 229:../src/platform/mpfs_hal/common/mss_axiswitch.c ****     while(AXISW->CMD & AXISW_CMD_EN_MASK);    /*Wait for command to complete*/
 706              		.loc 1 229 10
 707 0054 0100     		nop
 708              	.L32:
 709              		.loc 1 229 16 discriminator 1
 710 0056 B7470020 		li	a5,536887296
 711 005a 9C47     		lw	a5,8(a5)
 712 005c 8127     		sext.w	a5,a5
 713              		.loc 1 229 11 discriminator 1
 714 005e 8127     		sext.w	a5,a5
 715              		.loc 1 229 10 discriminator 1
 716 0060 E3CB07FE 		blt	a5,zero,.L32
 230:../src/platform/mpfs_hal/common/mss_axiswitch.c **** 
 231:../src/platform/mpfs_hal/common/mss_axiswitch.c ****     return ((AXISW->CMD & AXISW_CMD_ERR_MASK) >> AXISW_CMD_ERR);   /*return error bit value*/
 717              		.loc 1 231 19
 718 0064 B7470020 		li	a5,536887296
 719 0068 9C47     		lw	a5,8(a5)
 720 006a 8127     		sext.w	a5,a5
 721              		.loc 1 231 47
 722 006c 9BD7C701 		srliw	a5,a5,28
 723 0070 8127     		sext.w	a5,a5
 724 0072 858B     		andi	a5,a5,1
 725 0074 8127     		sext.w	a5,a5
 232:../src/platform/mpfs_hal/common/mss_axiswitch.c **** }
 726              		.loc 1 232 1
 727 0076 3E85     		mv	a0,a5
 728 0078 6264     		ld	s0,24(sp)
 729              		.cfi_restore 8
 730              		.cfi_def_cfa 2, 32
 731 007a 0561     		addi	sp,sp,32
 732              		.cfi_def_cfa_offset 0
 733 007c 8280     		jr	ra
 734              		.cfi_endproc
 735              	.LFE27:
 737              		.section	.text.MSS_AXISW_read_slave_ready,"ax",@progbits
 738              		.align	1
 739              		.globl	MSS_AXISW_read_slave_ready
 741              	MSS_AXISW_read_slave_ready:
 742              	.LFB28:
 233:../src/platform/mpfs_hal/common/mss_axiswitch.c **** 
 234:../src/platform/mpfs_hal/common/mss_axiswitch.c **** /*Performs read operation on the AXI SWITCH APB interface,
 235:../src/platform/mpfs_hal/common/mss_axiswitch.c ****  * Parameters:
 236:../src/platform/mpfs_hal/common/mss_axiswitch.c ****  * master_port_num = AXI Master Port number. See Enum mss_axisw_mport_t above.
 237:../src/platform/mpfs_hal/common/mss_axiswitch.c ****  *
 238:../src/platform/mpfs_hal/common/mss_axiswitch.c ****  *
 239:../src/platform/mpfs_hal/common/mss_axiswitch.c ****  * slave_ready_en: returns the data returned by AXI SWITCH read operation for slave ready command
 240:../src/platform/mpfs_hal/common/mss_axiswitch.c ****  * return value: As received form AXI_ERR_BIT in CMD register.
 241:../src/platform/mpfs_hal/common/mss_axiswitch.c ****  *
 242:../src/platform/mpfs_hal/common/mss_axiswitch.c ****  */
 243:../src/platform/mpfs_hal/common/mss_axiswitch.c **** uint32_t MSS_AXISW_read_slave_ready(mss_axisw_mport_t master_port_num,
 244:../src/platform/mpfs_hal/common/mss_axiswitch.c ****                                                   uint8_t* slave_ready_en)
 245:../src/platform/mpfs_hal/common/mss_axiswitch.c **** {
 743              		.loc 1 245 1
 744              		.cfi_startproc
 745 0000 0111     		addi	sp,sp,-32
 746              		.cfi_def_cfa_offset 32
 747 0002 22EC     		sd	s0,24(sp)
 748              		.cfi_offset 8, -8
 749 0004 0010     		addi	s0,sp,32
 750              		.cfi_def_cfa 8, 0
 751 0006 AA87     		mv	a5,a0
 752 0008 2330B4FE 		sd	a1,-32(s0)
 753 000c 2326F4FE 		sw	a5,-20(s0)
 246:../src/platform/mpfs_hal/common/mss_axiswitch.c **** 
 247:../src/platform/mpfs_hal/common/mss_axiswitch.c ****     while(AXISW->CMD & AXISW_CMD_EN_MASK);
 754              		.loc 1 247 10
 755 0010 0100     		nop
 756              	.L35:
 757              		.loc 1 247 16 discriminator 1
 758 0012 B7470020 		li	a5,536887296
 759 0016 9C47     		lw	a5,8(a5)
 760 0018 8127     		sext.w	a5,a5
 761              		.loc 1 247 11 discriminator 1
 762 001a 8127     		sext.w	a5,a5
 763              		.loc 1 247 10 discriminator 1
 764 001c E3CB07FE 		blt	a5,zero,.L35
 248:../src/platform/mpfs_hal/common/mss_axiswitch.c **** 
 249:../src/platform/mpfs_hal/common/mss_axiswitch.c ****     AXISW->CMD &= ~(AXISW_CMD_RW_MASK);  /*Clear read/write bit*/
 765              		.loc 1 249 16
 766 0020 B7470020 		li	a5,536887296
 767 0024 9C47     		lw	a5,8(a5)
 768 0026 1B870700 		sext.w	a4,a5
 769 002a B7470020 		li	a5,536887296
 770 002e BA86     		mv	a3,a4
 771 0030 370700C0 		li	a4,-1073741824
 772 0034 7D17     		addi	a4,a4,-1
 773 0036 758F     		and	a4,a3,a4
 774 0038 0127     		sext.w	a4,a4
 775 003a 98C7     		sw	a4,8(a5)
 250:../src/platform/mpfs_hal/common/mss_axiswitch.c **** 
 251:../src/platform/mpfs_hal/common/mss_axiswitch.c ****     AXISW->CMD = ((master_port_num << AXISW_CMD_RWCHAN) |
 776              		.loc 1 251 36
 777 003c 8327C4FE 		lw	a5,-20(s0)
 778 0040 9B977700 		slliw	a5,a5,7
 779 0044 1B870700 		sext.w	a4,a5
 780              		.loc 1 251 10
 781 0048 B7470020 		li	a5,536887296
 252:../src/platform/mpfs_hal/common/mss_axiswitch.c ****                  (MSS_AXISW_SLV_RDY) |
 782              		.loc 1 252 38
 783 004c BA86     		mv	a3,a4
 784 004e 37070080 		li	a4,-2147483648
 785 0052 0D07     		addi	a4,a4,3
 786 0054 558F     		or	a4,a3,a4
 787 0056 0127     		sext.w	a4,a4
 251:../src/platform/mpfs_hal/common/mss_axiswitch.c ****                  (MSS_AXISW_SLV_RDY) |
 788              		.loc 1 251 16
 789 0058 98C7     		sw	a4,8(a5)
 253:../src/platform/mpfs_hal/common/mss_axiswitch.c ****                  AXISW_CMD_EN_MASK);
 254:../src/platform/mpfs_hal/common/mss_axiswitch.c **** 
 255:../src/platform/mpfs_hal/common/mss_axiswitch.c ****     while(AXISW->CMD & AXISW_CMD_EN_MASK);
 790              		.loc 1 255 10
 791 005a 0100     		nop
 792              	.L36:
 793              		.loc 1 255 16 discriminator 1
 794 005c B7470020 		li	a5,536887296
 795 0060 9C47     		lw	a5,8(a5)
 796 0062 8127     		sext.w	a5,a5
 797              		.loc 1 255 11 discriminator 1
 798 0064 8127     		sext.w	a5,a5
 799              		.loc 1 255 10 discriminator 1
 800 0066 E3CB07FE 		blt	a5,zero,.L36
 256:../src/platform/mpfs_hal/common/mss_axiswitch.c **** 
 257:../src/platform/mpfs_hal/common/mss_axiswitch.c ****     *slave_ready_en = AXISW->DATA & 0x01;
 801              		.loc 1 257 28
 802 006a B7470020 		li	a5,536887296
 803 006e DC47     		lw	a5,12(a5)
 804 0070 8127     		sext.w	a5,a5
 805              		.loc 1 257 35
 806 0072 93F7F70F 		andi	a5,a5,0xff
 807 0076 858B     		andi	a5,a5,1
 808 0078 13F7F70F 		andi	a4,a5,0xff
 809              		.loc 1 257 21
 810 007c 833704FE 		ld	a5,-32(s0)
 811 0080 2380E700 		sb	a4,0(a5)
 258:../src/platform/mpfs_hal/common/mss_axiswitch.c **** 
 259:../src/platform/mpfs_hal/common/mss_axiswitch.c ****     return ((AXISW->CMD & AXISW_CMD_ERR_MASK) >> AXISW_CMD_ERR);   /*return error bit value*/
 812              		.loc 1 259 19
 813 0084 B7470020 		li	a5,536887296
 814 0088 9C47     		lw	a5,8(a5)
 815 008a 8127     		sext.w	a5,a5
 816              		.loc 1 259 47
 817 008c 9BD7C701 		srliw	a5,a5,28
 818 0090 8127     		sext.w	a5,a5
 819 0092 858B     		andi	a5,a5,1
 820 0094 8127     		sext.w	a5,a5
 260:../src/platform/mpfs_hal/common/mss_axiswitch.c **** }
 821              		.loc 1 260 1
 822 0096 3E85     		mv	a0,a5
 823 0098 6264     		ld	s0,24(sp)
 824              		.cfi_restore 8
 825              		.cfi_def_cfa 2, 32
 826 009a 0561     		addi	sp,sp,32
 827              		.cfi_def_cfa_offset 0
 828 009c 8280     		jr	ra
 829              		.cfi_endproc
 830              	.LFE28:
 832              		.text
 833              	.Letext0:
 834              		.file 2 "/home/vinay/Desktop/soft_console/SoftConsole-v2022.2-RISC-V-747/riscv-unknown-elf-gcc/ris
 835              		.file 3 "/home/vinay/Desktop/soft_console/SoftConsole-v2022.2-RISC-V-747/riscv-unknown-elf-gcc/ris
 836              		.file 4 "/home/vinay/Desktop/softconsole_watershed/Water-shed/src/platform/mpfs_hal/common/nwc/mss
 837              		.file 5 "/home/vinay/Desktop/softconsole_watershed/Water-shed/src/platform/mpfs_hal/common/nwc/mss
 838              		.file 6 "/home/vinay/Desktop/softconsole_watershed/Water-shed/src/platform/mpfs_hal/common/nwc/mss
 839              		.file 7 "/home/vinay/Desktop/softconsole_watershed/Water-shed/src/platform/mpfs_hal/common/mss_mpu
 840              		.file 8 "/home/vinay/Desktop/softconsole_watershed/Water-shed/src/platform/mpfs_hal/common/mss_pli
 841              		.file 9 "/home/vinay/Desktop/softconsole_watershed/Water-shed/src/platform/mpfs_hal/common/mss_axi
 842              		.file 10 "/home/vinay/Desktop/softconsole_watershed/Water-shed/src/platform/mpfs_hal/startup_gcc/s
DEFINED SYMBOLS
                            *ABS*:0000000000000000 mss_axiswitch.c
     /tmp/ccYIdjbY.s:13     .text.MSS_AXISW_get_hwcfg:0000000000000000 MSS_AXISW_get_hwcfg
     /tmp/ccYIdjbY.s:17     .text.MSS_AXISW_get_hwcfg:0000000000000000 .L0 
     /tmp/ccYIdjbY.s:18     .text.MSS_AXISW_get_hwcfg:0000000000000000 .L0 
     /tmp/ccYIdjbY.s:19     .text.MSS_AXISW_get_hwcfg:0000000000000002 .L0 
     /tmp/ccYIdjbY.s:21     .text.MSS_AXISW_get_hwcfg:0000000000000004 .L0 
     /tmp/ccYIdjbY.s:23     .text.MSS_AXISW_get_hwcfg:0000000000000006 .L0 
     /tmp/ccYIdjbY.s:25     .text.MSS_AXISW_get_hwcfg:0000000000000006 .L0 
     /tmp/ccYIdjbY.s:29     .text.MSS_AXISW_get_hwcfg:000000000000000e .L0 
     /tmp/ccYIdjbY.s:31     .text.MSS_AXISW_get_hwcfg:0000000000000012 .L0 
     /tmp/ccYIdjbY.s:32     .text.MSS_AXISW_get_hwcfg:0000000000000012 .L0 
     /tmp/ccYIdjbY.s:34     .text.MSS_AXISW_get_hwcfg:0000000000000014 .L0 
     /tmp/ccYIdjbY.s:36     .text.MSS_AXISW_get_hwcfg:0000000000000016 .L0 
     /tmp/ccYIdjbY.s:43     .text.MSS_AXISW_get_vid:0000000000000000 MSS_AXISW_get_vid
     /tmp/ccYIdjbY.s:46     .text.MSS_AXISW_get_vid:0000000000000000 .L0 
     /tmp/ccYIdjbY.s:47     .text.MSS_AXISW_get_vid:0000000000000000 .L0 
     /tmp/ccYIdjbY.s:48     .text.MSS_AXISW_get_vid:0000000000000002 .L0 
     /tmp/ccYIdjbY.s:50     .text.MSS_AXISW_get_vid:0000000000000004 .L0 
     /tmp/ccYIdjbY.s:52     .text.MSS_AXISW_get_vid:0000000000000006 .L0 
     /tmp/ccYIdjbY.s:54     .text.MSS_AXISW_get_vid:0000000000000006 .L0 
     /tmp/ccYIdjbY.s:58     .text.MSS_AXISW_get_vid:000000000000000e .L0 
     /tmp/ccYIdjbY.s:60     .text.MSS_AXISW_get_vid:0000000000000012 .L0 
     /tmp/ccYIdjbY.s:61     .text.MSS_AXISW_get_vid:0000000000000012 .L0 
     /tmp/ccYIdjbY.s:63     .text.MSS_AXISW_get_vid:0000000000000014 .L0 
     /tmp/ccYIdjbY.s:65     .text.MSS_AXISW_get_vid:0000000000000016 .L0 
     /tmp/ccYIdjbY.s:72     .text.MSS_AXISW_write_qos_val:0000000000000000 MSS_AXISW_write_qos_val
     /tmp/ccYIdjbY.s:75     .text.MSS_AXISW_write_qos_val:0000000000000000 .L0 
     /tmp/ccYIdjbY.s:76     .text.MSS_AXISW_write_qos_val:0000000000000000 .L0 
     /tmp/ccYIdjbY.s:77     .text.MSS_AXISW_write_qos_val:0000000000000002 .L0 
     /tmp/ccYIdjbY.s:79     .text.MSS_AXISW_write_qos_val:0000000000000004 .L0 
     /tmp/ccYIdjbY.s:81     .text.MSS_AXISW_write_qos_val:0000000000000006 .L0 
     /tmp/ccYIdjbY.s:88     .text.MSS_AXISW_write_qos_val:0000000000000014 .L0 
     /tmp/ccYIdjbY.s:91     .text.MSS_AXISW_write_qos_val:0000000000000016 .L0 
     /tmp/ccYIdjbY.s:95     .text.MSS_AXISW_write_qos_val:000000000000001e .L0 
     /tmp/ccYIdjbY.s:97     .text.MSS_AXISW_write_qos_val:0000000000000020 .L0 
     /tmp/ccYIdjbY.s:99     .text.MSS_AXISW_write_qos_val:0000000000000024 .L0 
     /tmp/ccYIdjbY.s:101    .text.MSS_AXISW_write_qos_val:0000000000000028 .L0 
     /tmp/ccYIdjbY.s:105    .text.MSS_AXISW_write_qos_val:0000000000000030 .L0 
     /tmp/ccYIdjbY.s:107    .text.MSS_AXISW_write_qos_val:0000000000000032 .L0 
     /tmp/ccYIdjbY.s:111    .text.MSS_AXISW_write_qos_val:000000000000003e .L0 
     /tmp/ccYIdjbY.s:113    .text.MSS_AXISW_write_qos_val:0000000000000042 .L0 
     /tmp/ccYIdjbY.s:119    .text.MSS_AXISW_write_qos_val:000000000000004e .L0 
     /tmp/ccYIdjbY.s:121    .text.MSS_AXISW_write_qos_val:0000000000000050 .L0 
     /tmp/ccYIdjbY.s:124    .text.MSS_AXISW_write_qos_val:0000000000000052 .L0 
     /tmp/ccYIdjbY.s:128    .text.MSS_AXISW_write_qos_val:000000000000005a .L0 
     /tmp/ccYIdjbY.s:130    .text.MSS_AXISW_write_qos_val:000000000000005c .L0 
     /tmp/ccYIdjbY.s:132    .text.MSS_AXISW_write_qos_val:0000000000000060 .L0 
     /tmp/ccYIdjbY.s:136    .text.MSS_AXISW_write_qos_val:0000000000000068 .L0 
     /tmp/ccYIdjbY.s:141    .text.MSS_AXISW_write_qos_val:0000000000000072 .L0 
     /tmp/ccYIdjbY.s:143    .text.MSS_AXISW_write_qos_val:0000000000000076 .L0 
     /tmp/ccYIdjbY.s:144    .text.MSS_AXISW_write_qos_val:0000000000000076 .L0 
     /tmp/ccYIdjbY.s:146    .text.MSS_AXISW_write_qos_val:0000000000000078 .L0 
     /tmp/ccYIdjbY.s:148    .text.MSS_AXISW_write_qos_val:000000000000007a .L0 
     /tmp/ccYIdjbY.s:155    .text.MSS_AXISW_read_qos_val:0000000000000000 MSS_AXISW_read_qos_val
     /tmp/ccYIdjbY.s:158    .text.MSS_AXISW_read_qos_val:0000000000000000 .L0 
     /tmp/ccYIdjbY.s:159    .text.MSS_AXISW_read_qos_val:0000000000000000 .L0 
     /tmp/ccYIdjbY.s:160    .text.MSS_AXISW_read_qos_val:0000000000000002 .L0 
     /tmp/ccYIdjbY.s:162    .text.MSS_AXISW_read_qos_val:0000000000000004 .L0 
     /tmp/ccYIdjbY.s:164    .text.MSS_AXISW_read_qos_val:0000000000000006 .L0 
     /tmp/ccYIdjbY.s:169    .text.MSS_AXISW_read_qos_val:0000000000000010 .L0 
     /tmp/ccYIdjbY.s:172    .text.MSS_AXISW_read_qos_val:0000000000000012 .L0 
     /tmp/ccYIdjbY.s:176    .text.MSS_AXISW_read_qos_val:000000000000001a .L0 
     /tmp/ccYIdjbY.s:178    .text.MSS_AXISW_read_qos_val:000000000000001c .L0 
     /tmp/ccYIdjbY.s:180    .text.MSS_AXISW_read_qos_val:0000000000000020 .L0 
     /tmp/ccYIdjbY.s:191    .text.MSS_AXISW_read_qos_val:000000000000003c .L0 
     /tmp/ccYIdjbY.s:195    .text.MSS_AXISW_read_qos_val:0000000000000048 .L0 
     /tmp/ccYIdjbY.s:197    .text.MSS_AXISW_read_qos_val:000000000000004c .L0 
     /tmp/ccYIdjbY.s:203    .text.MSS_AXISW_read_qos_val:0000000000000058 .L0 
     /tmp/ccYIdjbY.s:205    .text.MSS_AXISW_read_qos_val:000000000000005a .L0 
     /tmp/ccYIdjbY.s:208    .text.MSS_AXISW_read_qos_val:000000000000005c .L0 
     /tmp/ccYIdjbY.s:212    .text.MSS_AXISW_read_qos_val:0000000000000064 .L0 
     /tmp/ccYIdjbY.s:214    .text.MSS_AXISW_read_qos_val:0000000000000066 .L0 
     /tmp/ccYIdjbY.s:216    .text.MSS_AXISW_read_qos_val:000000000000006a .L0 
     /tmp/ccYIdjbY.s:220    .text.MSS_AXISW_read_qos_val:0000000000000072 .L0 
     /tmp/ccYIdjbY.s:223    .text.MSS_AXISW_read_qos_val:0000000000000078 .L0 
     /tmp/ccYIdjbY.s:226    .text.MSS_AXISW_read_qos_val:000000000000007e .L0 
     /tmp/ccYIdjbY.s:230    .text.MSS_AXISW_read_qos_val:0000000000000086 .L0 
     /tmp/ccYIdjbY.s:235    .text.MSS_AXISW_read_qos_val:0000000000000090 .L0 
     /tmp/ccYIdjbY.s:237    .text.MSS_AXISW_read_qos_val:0000000000000094 .L0 
     /tmp/ccYIdjbY.s:238    .text.MSS_AXISW_read_qos_val:0000000000000094 .L0 
     /tmp/ccYIdjbY.s:240    .text.MSS_AXISW_read_qos_val:0000000000000096 .L0 
     /tmp/ccYIdjbY.s:242    .text.MSS_AXISW_read_qos_val:0000000000000098 .L0 
     /tmp/ccYIdjbY.s:249    .text.MSS_AXISW_write_rate:0000000000000000 MSS_AXISW_write_rate
     /tmp/ccYIdjbY.s:252    .text.MSS_AXISW_write_rate:0000000000000000 .L0 
     /tmp/ccYIdjbY.s:253    .text.MSS_AXISW_write_rate:0000000000000000 .L0 
     /tmp/ccYIdjbY.s:254    .text.MSS_AXISW_write_rate:0000000000000002 .L0 
     /tmp/ccYIdjbY.s:256    .text.MSS_AXISW_write_rate:0000000000000004 .L0 
     /tmp/ccYIdjbY.s:258    .text.MSS_AXISW_write_rate:0000000000000006 .L0 
     /tmp/ccYIdjbY.s:268    .text.MSS_AXISW_write_rate:000000000000001c .L0 
     /tmp/ccYIdjbY.s:271    .text.MSS_AXISW_write_rate:000000000000001e .L0 
     /tmp/ccYIdjbY.s:275    .text.MSS_AXISW_write_rate:0000000000000026 .L0 
     /tmp/ccYIdjbY.s:277    .text.MSS_AXISW_write_rate:0000000000000028 .L0 
     /tmp/ccYIdjbY.s:279    .text.MSS_AXISW_write_rate:000000000000002c .L0 
     /tmp/ccYIdjbY.s:283    .text.MSS_AXISW_write_rate:0000000000000038 .L0 
     /tmp/ccYIdjbY.s:287    .text.MSS_AXISW_write_rate:0000000000000044 .L0 
     /tmp/ccYIdjbY.s:289    .text.MSS_AXISW_write_rate:0000000000000048 .L0 
     /tmp/ccYIdjbY.s:292    .text.MSS_AXISW_write_rate:000000000000004c .L0 
     /tmp/ccYIdjbY.s:294    .text.MSS_AXISW_write_rate:000000000000004e .L0 
     /tmp/ccYIdjbY.s:298    .text.MSS_AXISW_write_rate:000000000000005a .L0 
     /tmp/ccYIdjbY.s:300    .text.MSS_AXISW_write_rate:000000000000005e .L0 
     /tmp/ccYIdjbY.s:306    .text.MSS_AXISW_write_rate:000000000000006a .L0 
     /tmp/ccYIdjbY.s:308    .text.MSS_AXISW_write_rate:000000000000006c .L0 
     /tmp/ccYIdjbY.s:311    .text.MSS_AXISW_write_rate:000000000000006e .L0 
     /tmp/ccYIdjbY.s:315    .text.MSS_AXISW_write_rate:0000000000000076 .L0 
     /tmp/ccYIdjbY.s:317    .text.MSS_AXISW_write_rate:0000000000000078 .L0 
     /tmp/ccYIdjbY.s:319    .text.MSS_AXISW_write_rate:000000000000007c .L0 
     /tmp/ccYIdjbY.s:323    .text.MSS_AXISW_write_rate:0000000000000084 .L0 
     /tmp/ccYIdjbY.s:328    .text.MSS_AXISW_write_rate:000000000000008e .L0 
     /tmp/ccYIdjbY.s:330    .text.MSS_AXISW_write_rate:0000000000000092 .L0 
     /tmp/ccYIdjbY.s:331    .text.MSS_AXISW_write_rate:0000000000000092 .L0 
     /tmp/ccYIdjbY.s:333    .text.MSS_AXISW_write_rate:0000000000000094 .L0 
     /tmp/ccYIdjbY.s:335    .text.MSS_AXISW_write_rate:0000000000000096 .L0 
     /tmp/ccYIdjbY.s:342    .text.MSS_AXISW_read_rate:0000000000000000 MSS_AXISW_read_rate
     /tmp/ccYIdjbY.s:345    .text.MSS_AXISW_read_rate:0000000000000000 .L0 
     /tmp/ccYIdjbY.s:346    .text.MSS_AXISW_read_rate:0000000000000000 .L0 
     /tmp/ccYIdjbY.s:347    .text.MSS_AXISW_read_rate:0000000000000002 .L0 
     /tmp/ccYIdjbY.s:349    .text.MSS_AXISW_read_rate:0000000000000004 .L0 
     /tmp/ccYIdjbY.s:351    .text.MSS_AXISW_read_rate:0000000000000006 .L0 
     /tmp/ccYIdjbY.s:357    .text.MSS_AXISW_read_rate:0000000000000014 .L0 
     /tmp/ccYIdjbY.s:359    .text.MSS_AXISW_read_rate:0000000000000018 .L0 
     /tmp/ccYIdjbY.s:362    .text.MSS_AXISW_read_rate:000000000000001a .L0 
     /tmp/ccYIdjbY.s:366    .text.MSS_AXISW_read_rate:0000000000000022 .L0 
     /tmp/ccYIdjbY.s:368    .text.MSS_AXISW_read_rate:0000000000000024 .L0 
     /tmp/ccYIdjbY.s:370    .text.MSS_AXISW_read_rate:0000000000000028 .L0 
     /tmp/ccYIdjbY.s:381    .text.MSS_AXISW_read_rate:0000000000000044 .L0 
     /tmp/ccYIdjbY.s:385    .text.MSS_AXISW_read_rate:0000000000000050 .L0 
     /tmp/ccYIdjbY.s:387    .text.MSS_AXISW_read_rate:0000000000000054 .L0 
     /tmp/ccYIdjbY.s:393    .text.MSS_AXISW_read_rate:0000000000000060 .L0 
     /tmp/ccYIdjbY.s:395    .text.MSS_AXISW_read_rate:0000000000000062 .L0 
     /tmp/ccYIdjbY.s:398    .text.MSS_AXISW_read_rate:0000000000000064 .L0 
     /tmp/ccYIdjbY.s:402    .text.MSS_AXISW_read_rate:000000000000006c .L0 
     /tmp/ccYIdjbY.s:404    .text.MSS_AXISW_read_rate:000000000000006e .L0 
     /tmp/ccYIdjbY.s:406    .text.MSS_AXISW_read_rate:0000000000000072 .L0 
     /tmp/ccYIdjbY.s:408    .text.MSS_AXISW_read_rate:0000000000000076 .L0 
     /tmp/ccYIdjbY.s:411    .text.MSS_AXISW_read_rate:000000000000007c .L0 
     /tmp/ccYIdjbY.s:415    .text.MSS_AXISW_read_rate:0000000000000088 .L0 
     /tmp/ccYIdjbY.s:418    .text.MSS_AXISW_read_rate:000000000000008e .L0 
     /tmp/ccYIdjbY.s:427    .text.MSS_AXISW_read_rate:00000000000000a4 .L0 
     /tmp/ccYIdjbY.s:430    .text.MSS_AXISW_read_rate:00000000000000aa .L0 
     /tmp/ccYIdjbY.s:434    .text.MSS_AXISW_read_rate:00000000000000b2 .L0 
     /tmp/ccYIdjbY.s:439    .text.MSS_AXISW_read_rate:00000000000000bc .L0 
     /tmp/ccYIdjbY.s:441    .text.MSS_AXISW_read_rate:00000000000000c0 .L0 
     /tmp/ccYIdjbY.s:442    .text.MSS_AXISW_read_rate:00000000000000c0 .L0 
     /tmp/ccYIdjbY.s:444    .text.MSS_AXISW_read_rate:00000000000000c2 .L0 
     /tmp/ccYIdjbY.s:446    .text.MSS_AXISW_read_rate:00000000000000c4 .L0 
     /tmp/ccYIdjbY.s:453    .text.MSS_AXISW_write_burstiness:0000000000000000 MSS_AXISW_write_burstiness
     /tmp/ccYIdjbY.s:456    .text.MSS_AXISW_write_burstiness:0000000000000000 .L0 
     /tmp/ccYIdjbY.s:457    .text.MSS_AXISW_write_burstiness:0000000000000000 .L0 
     /tmp/ccYIdjbY.s:458    .text.MSS_AXISW_write_burstiness:0000000000000002 .L0 
     /tmp/ccYIdjbY.s:460    .text.MSS_AXISW_write_burstiness:0000000000000004 .L0 
     /tmp/ccYIdjbY.s:462    .text.MSS_AXISW_write_burstiness:0000000000000006 .L0 
     /tmp/ccYIdjbY.s:472    .text.MSS_AXISW_write_burstiness:000000000000001c .L0 
     /tmp/ccYIdjbY.s:475    .text.MSS_AXISW_write_burstiness:000000000000001e .L0 
     /tmp/ccYIdjbY.s:479    .text.MSS_AXISW_write_burstiness:0000000000000026 .L0 
     /tmp/ccYIdjbY.s:481    .text.MSS_AXISW_write_burstiness:0000000000000028 .L0 
     /tmp/ccYIdjbY.s:483    .text.MSS_AXISW_write_burstiness:000000000000002c .L0 
     /tmp/ccYIdjbY.s:487    .text.MSS_AXISW_write_burstiness:0000000000000034 .L0 
     /tmp/ccYIdjbY.s:491    .text.MSS_AXISW_write_burstiness:0000000000000038 .L0 
     /tmp/ccYIdjbY.s:495    .text.MSS_AXISW_write_burstiness:0000000000000040 .L0 
     /tmp/ccYIdjbY.s:498    .text.MSS_AXISW_write_burstiness:0000000000000048 .L0 
     /tmp/ccYIdjbY.s:502    .text.MSS_AXISW_write_burstiness:0000000000000052 .L0 
     /tmp/ccYIdjbY.s:504    .text.MSS_AXISW_write_burstiness:0000000000000056 .L0 
     /tmp/ccYIdjbY.s:507    .text.MSS_AXISW_write_burstiness:000000000000005a .L0 
     /tmp/ccYIdjbY.s:509    .text.MSS_AXISW_write_burstiness:000000000000005c .L0 
     /tmp/ccYIdjbY.s:513    .text.MSS_AXISW_write_burstiness:0000000000000068 .L0 
     /tmp/ccYIdjbY.s:515    .text.MSS_AXISW_write_burstiness:000000000000006c .L0 
     /tmp/ccYIdjbY.s:520    .text.MSS_AXISW_write_burstiness:0000000000000076 .L0 
     /tmp/ccYIdjbY.s:522    .text.MSS_AXISW_write_burstiness:0000000000000078 .L0 
     /tmp/ccYIdjbY.s:525    .text.MSS_AXISW_write_burstiness:000000000000007a .L0 
     /tmp/ccYIdjbY.s:529    .text.MSS_AXISW_write_burstiness:0000000000000082 .L0 
     /tmp/ccYIdjbY.s:531    .text.MSS_AXISW_write_burstiness:0000000000000084 .L0 
     /tmp/ccYIdjbY.s:533    .text.MSS_AXISW_write_burstiness:0000000000000088 .L0 
     /tmp/ccYIdjbY.s:537    .text.MSS_AXISW_write_burstiness:0000000000000090 .L0 
     /tmp/ccYIdjbY.s:544    .text.MSS_AXISW_write_burstiness:000000000000009c .L0 
     /tmp/ccYIdjbY.s:546    .text.MSS_AXISW_write_burstiness:00000000000000a0 .L0 
     /tmp/ccYIdjbY.s:547    .text.MSS_AXISW_write_burstiness:00000000000000a0 .L0 
     /tmp/ccYIdjbY.s:549    .text.MSS_AXISW_write_burstiness:00000000000000a2 .L0 
     /tmp/ccYIdjbY.s:551    .text.MSS_AXISW_write_burstiness:00000000000000a4 .L0 
     /tmp/ccYIdjbY.s:558    .text.MSS_AXISW_read_burstiness:0000000000000000 MSS_AXISW_read_burstiness
     /tmp/ccYIdjbY.s:561    .text.MSS_AXISW_read_burstiness:0000000000000000 .L0 
     /tmp/ccYIdjbY.s:562    .text.MSS_AXISW_read_burstiness:0000000000000000 .L0 
     /tmp/ccYIdjbY.s:563    .text.MSS_AXISW_read_burstiness:0000000000000002 .L0 
     /tmp/ccYIdjbY.s:565    .text.MSS_AXISW_read_burstiness:0000000000000004 .L0 
     /tmp/ccYIdjbY.s:567    .text.MSS_AXISW_read_burstiness:0000000000000006 .L0 
     /tmp/ccYIdjbY.s:572    .text.MSS_AXISW_read_burstiness:0000000000000010 .L0 
     /tmp/ccYIdjbY.s:575    .text.MSS_AXISW_read_burstiness:0000000000000012 .L0 
     /tmp/ccYIdjbY.s:579    .text.MSS_AXISW_read_burstiness:000000000000001a .L0 
     /tmp/ccYIdjbY.s:581    .text.MSS_AXISW_read_burstiness:000000000000001c .L0 
     /tmp/ccYIdjbY.s:583    .text.MSS_AXISW_read_burstiness:0000000000000020 .L0 
     /tmp/ccYIdjbY.s:594    .text.MSS_AXISW_read_burstiness:000000000000003c .L0 
     /tmp/ccYIdjbY.s:598    .text.MSS_AXISW_read_burstiness:0000000000000048 .L0 
     /tmp/ccYIdjbY.s:600    .text.MSS_AXISW_read_burstiness:000000000000004c .L0 
     /tmp/ccYIdjbY.s:605    .text.MSS_AXISW_read_burstiness:0000000000000056 .L0 
     /tmp/ccYIdjbY.s:607    .text.MSS_AXISW_read_burstiness:0000000000000058 .L0 
     /tmp/ccYIdjbY.s:610    .text.MSS_AXISW_read_burstiness:000000000000005a .L0 
     /tmp/ccYIdjbY.s:614    .text.MSS_AXISW_read_burstiness:0000000000000062 .L0 
     /tmp/ccYIdjbY.s:616    .text.MSS_AXISW_read_burstiness:0000000000000064 .L0 
     /tmp/ccYIdjbY.s:618    .text.MSS_AXISW_read_burstiness:0000000000000068 .L0 
     /tmp/ccYIdjbY.s:622    .text.MSS_AXISW_read_burstiness:0000000000000070 .L0 
     /tmp/ccYIdjbY.s:627    .text.MSS_AXISW_read_burstiness:000000000000007c .L0 
     /tmp/ccYIdjbY.s:630    .text.MSS_AXISW_read_burstiness:0000000000000082 .L0 
     /tmp/ccYIdjbY.s:633    .text.MSS_AXISW_read_burstiness:0000000000000088 .L0 
     /tmp/ccYIdjbY.s:637    .text.MSS_AXISW_read_burstiness:0000000000000090 .L0 
     /tmp/ccYIdjbY.s:642    .text.MSS_AXISW_read_burstiness:000000000000009a .L0 
     /tmp/ccYIdjbY.s:644    .text.MSS_AXISW_read_burstiness:000000000000009e .L0 
     /tmp/ccYIdjbY.s:645    .text.MSS_AXISW_read_burstiness:000000000000009e .L0 
     /tmp/ccYIdjbY.s:647    .text.MSS_AXISW_read_burstiness:00000000000000a0 .L0 
     /tmp/ccYIdjbY.s:649    .text.MSS_AXISW_read_burstiness:00000000000000a2 .L0 
     /tmp/ccYIdjbY.s:656    .text.MSS_AXISW_write_slave_ready:0000000000000000 MSS_AXISW_write_slave_ready
     /tmp/ccYIdjbY.s:659    .text.MSS_AXISW_write_slave_ready:0000000000000000 .L0 
     /tmp/ccYIdjbY.s:660    .text.MSS_AXISW_write_slave_ready:0000000000000000 .L0 
     /tmp/ccYIdjbY.s:661    .text.MSS_AXISW_write_slave_ready:0000000000000002 .L0 
     /tmp/ccYIdjbY.s:663    .text.MSS_AXISW_write_slave_ready:0000000000000004 .L0 
     /tmp/ccYIdjbY.s:665    .text.MSS_AXISW_write_slave_ready:0000000000000006 .L0 
     /tmp/ccYIdjbY.s:672    .text.MSS_AXISW_write_slave_ready:0000000000000014 .L0 
     /tmp/ccYIdjbY.s:675    .text.MSS_AXISW_write_slave_ready:0000000000000016 .L0 
     /tmp/ccYIdjbY.s:679    .text.MSS_AXISW_write_slave_ready:000000000000001e .L0 
     /tmp/ccYIdjbY.s:681    .text.MSS_AXISW_write_slave_ready:0000000000000020 .L0 
     /tmp/ccYIdjbY.s:683    .text.MSS_AXISW_write_slave_ready:0000000000000024 .L0 
     /tmp/ccYIdjbY.s:686    .text.MSS_AXISW_write_slave_ready:000000000000002c .L0 
     /tmp/ccYIdjbY.s:688    .text.MSS_AXISW_write_slave_ready:0000000000000030 .L0 
     /tmp/ccYIdjbY.s:691    .text.MSS_AXISW_write_slave_ready:0000000000000034 .L0 
     /tmp/ccYIdjbY.s:693    .text.MSS_AXISW_write_slave_ready:0000000000000036 .L0 
     /tmp/ccYIdjbY.s:697    .text.MSS_AXISW_write_slave_ready:0000000000000042 .L0 
     /tmp/ccYIdjbY.s:699    .text.MSS_AXISW_write_slave_ready:0000000000000046 .L0 
     /tmp/ccYIdjbY.s:705    .text.MSS_AXISW_write_slave_ready:0000000000000052 .L0 
     /tmp/ccYIdjbY.s:707    .text.MSS_AXISW_write_slave_ready:0000000000000054 .L0 
     /tmp/ccYIdjbY.s:710    .text.MSS_AXISW_write_slave_ready:0000000000000056 .L0 
     /tmp/ccYIdjbY.s:714    .text.MSS_AXISW_write_slave_ready:000000000000005e .L0 
     /tmp/ccYIdjbY.s:716    .text.MSS_AXISW_write_slave_ready:0000000000000060 .L0 
     /tmp/ccYIdjbY.s:718    .text.MSS_AXISW_write_slave_ready:0000000000000064 .L0 
     /tmp/ccYIdjbY.s:722    .text.MSS_AXISW_write_slave_ready:000000000000006c .L0 
     /tmp/ccYIdjbY.s:727    .text.MSS_AXISW_write_slave_ready:0000000000000076 .L0 
     /tmp/ccYIdjbY.s:729    .text.MSS_AXISW_write_slave_ready:000000000000007a .L0 
     /tmp/ccYIdjbY.s:730    .text.MSS_AXISW_write_slave_ready:000000000000007a .L0 
     /tmp/ccYIdjbY.s:732    .text.MSS_AXISW_write_slave_ready:000000000000007c .L0 
     /tmp/ccYIdjbY.s:734    .text.MSS_AXISW_write_slave_ready:000000000000007e .L0 
     /tmp/ccYIdjbY.s:741    .text.MSS_AXISW_read_slave_ready:0000000000000000 MSS_AXISW_read_slave_ready
     /tmp/ccYIdjbY.s:744    .text.MSS_AXISW_read_slave_ready:0000000000000000 .L0 
     /tmp/ccYIdjbY.s:745    .text.MSS_AXISW_read_slave_ready:0000000000000000 .L0 
     /tmp/ccYIdjbY.s:746    .text.MSS_AXISW_read_slave_ready:0000000000000002 .L0 
     /tmp/ccYIdjbY.s:748    .text.MSS_AXISW_read_slave_ready:0000000000000004 .L0 
     /tmp/ccYIdjbY.s:750    .text.MSS_AXISW_read_slave_ready:0000000000000006 .L0 
     /tmp/ccYIdjbY.s:755    .text.MSS_AXISW_read_slave_ready:0000000000000010 .L0 
     /tmp/ccYIdjbY.s:758    .text.MSS_AXISW_read_slave_ready:0000000000000012 .L0 
     /tmp/ccYIdjbY.s:762    .text.MSS_AXISW_read_slave_ready:000000000000001a .L0 
     /tmp/ccYIdjbY.s:764    .text.MSS_AXISW_read_slave_ready:000000000000001c .L0 
     /tmp/ccYIdjbY.s:766    .text.MSS_AXISW_read_slave_ready:0000000000000020 .L0 
     /tmp/ccYIdjbY.s:777    .text.MSS_AXISW_read_slave_ready:000000000000003c .L0 
     /tmp/ccYIdjbY.s:781    .text.MSS_AXISW_read_slave_ready:0000000000000048 .L0 
     /tmp/ccYIdjbY.s:783    .text.MSS_AXISW_read_slave_ready:000000000000004c .L0 
     /tmp/ccYIdjbY.s:789    .text.MSS_AXISW_read_slave_ready:0000000000000058 .L0 
     /tmp/ccYIdjbY.s:791    .text.MSS_AXISW_read_slave_ready:000000000000005a .L0 
     /tmp/ccYIdjbY.s:794    .text.MSS_AXISW_read_slave_ready:000000000000005c .L0 
     /tmp/ccYIdjbY.s:798    .text.MSS_AXISW_read_slave_ready:0000000000000064 .L0 
     /tmp/ccYIdjbY.s:800    .text.MSS_AXISW_read_slave_ready:0000000000000066 .L0 
     /tmp/ccYIdjbY.s:802    .text.MSS_AXISW_read_slave_ready:000000000000006a .L0 
     /tmp/ccYIdjbY.s:806    .text.MSS_AXISW_read_slave_ready:0000000000000072 .L0 
     /tmp/ccYIdjbY.s:810    .text.MSS_AXISW_read_slave_ready:000000000000007c .L0 
     /tmp/ccYIdjbY.s:813    .text.MSS_AXISW_read_slave_ready:0000000000000084 .L0 
     /tmp/ccYIdjbY.s:817    .text.MSS_AXISW_read_slave_ready:000000000000008c .L0 
     /tmp/ccYIdjbY.s:822    .text.MSS_AXISW_read_slave_ready:0000000000000096 .L0 
     /tmp/ccYIdjbY.s:824    .text.MSS_AXISW_read_slave_ready:000000000000009a .L0 
     /tmp/ccYIdjbY.s:825    .text.MSS_AXISW_read_slave_ready:000000000000009a .L0 
     /tmp/ccYIdjbY.s:827    .text.MSS_AXISW_read_slave_ready:000000000000009c .L0 
     /tmp/ccYIdjbY.s:829    .text.MSS_AXISW_read_slave_ready:000000000000009e .L0 
     /tmp/ccYIdjbY.s:39     .text.MSS_AXISW_get_hwcfg:0000000000000016 .L0 
     /tmp/ccYIdjbY.s:68     .text.MSS_AXISW_get_vid:0000000000000016 .L0 
     /tmp/ccYIdjbY.s:151    .text.MSS_AXISW_write_qos_val:000000000000007a .L0 
     /tmp/ccYIdjbY.s:245    .text.MSS_AXISW_read_qos_val:0000000000000098 .L0 
     /tmp/ccYIdjbY.s:338    .text.MSS_AXISW_write_rate:0000000000000096 .L0 
     /tmp/ccYIdjbY.s:449    .text.MSS_AXISW_read_rate:00000000000000c4 .L0 
     /tmp/ccYIdjbY.s:554    .text.MSS_AXISW_write_burstiness:00000000000000a4 .L0 
     /tmp/ccYIdjbY.s:652    .text.MSS_AXISW_read_burstiness:00000000000000a2 .L0 
     /tmp/ccYIdjbY.s:737    .text.MSS_AXISW_write_slave_ready:000000000000007e .L0 
     /tmp/ccYIdjbY.s:832    .text.MSS_AXISW_read_slave_ready:000000000000009e .L0 
                     .debug_frame:0000000000000000 .L0 
     /tmp/ccYIdjbY.s:89     .text.MSS_AXISW_write_qos_val:0000000000000016 .L6
     /tmp/ccYIdjbY.s:122    .text.MSS_AXISW_write_qos_val:0000000000000052 .L7
     /tmp/ccYIdjbY.s:170    .text.MSS_AXISW_read_qos_val:0000000000000012 .L10
     /tmp/ccYIdjbY.s:206    .text.MSS_AXISW_read_qos_val:000000000000005c .L11
     /tmp/ccYIdjbY.s:269    .text.MSS_AXISW_write_rate:000000000000001e .L14
     /tmp/ccYIdjbY.s:309    .text.MSS_AXISW_write_rate:000000000000006e .L15
     /tmp/ccYIdjbY.s:360    .text.MSS_AXISW_read_rate:000000000000001a .L18
     /tmp/ccYIdjbY.s:396    .text.MSS_AXISW_read_rate:0000000000000064 .L19
     /tmp/ccYIdjbY.s:473    .text.MSS_AXISW_write_burstiness:000000000000001e .L22
     /tmp/ccYIdjbY.s:489    .text.MSS_AXISW_write_burstiness:0000000000000038 .L23
     /tmp/ccYIdjbY.s:542    .text.MSS_AXISW_write_burstiness:000000000000009c .L24
     /tmp/ccYIdjbY.s:523    .text.MSS_AXISW_write_burstiness:000000000000007a .L25
     /tmp/ccYIdjbY.s:573    .text.MSS_AXISW_read_burstiness:0000000000000012 .L27
     /tmp/ccYIdjbY.s:608    .text.MSS_AXISW_read_burstiness:000000000000005a .L28
     /tmp/ccYIdjbY.s:673    .text.MSS_AXISW_write_slave_ready:0000000000000016 .L31
     /tmp/ccYIdjbY.s:708    .text.MSS_AXISW_write_slave_ready:0000000000000056 .L32
     /tmp/ccYIdjbY.s:756    .text.MSS_AXISW_read_slave_ready:0000000000000012 .L35
     /tmp/ccYIdjbY.s:792    .text.MSS_AXISW_read_slave_ready:000000000000005c .L36
     /tmp/ccYIdjbY.s:67399  .debug_abbrev:0000000000000000 .Ldebug_abbrev0
     /tmp/ccYIdjbY.s:94324  .debug_str:0000000000022ee3 .LASF9174
     /tmp/ccYIdjbY.s:91674  .debug_str:0000000000017a08 .LASF9175
     /tmp/ccYIdjbY.s:104168  .debug_str:000000000004b6f3 .LASF9176
     /tmp/ccYIdjbY.s:68051  .debug_ranges:0000000000000000 .Ldebug_ranges0
     /tmp/ccYIdjbY.s:85942  .debug_line:0000000000000000 .Ldebug_line0
     /tmp/ccYIdjbY.s:68075  .debug_macro:0000000000000000 .Ldebug_macro0
     /tmp/ccYIdjbY.s:102712  .debug_str:00000000000450ba .LASF5628
     /tmp/ccYIdjbY.s:91752  .debug_str:0000000000017ee9 .LASF5629
     /tmp/ccYIdjbY.s:104122  .debug_str:000000000004b33b .LASF5630
     /tmp/ccYIdjbY.s:98428  .debug_str:0000000000033bdf .LASF5631
     /tmp/ccYIdjbY.s:102294  .debug_str:00000000000434f7 .LASF5632
     /tmp/ccYIdjbY.s:87030  .debug_str:0000000000004bb4 .LASF5636
     /tmp/ccYIdjbY.s:90518  .debug_str:0000000000012f02 .LASF5633
     /tmp/ccYIdjbY.s:100584  .debug_str:000000000003c3e3 .LASF5634
     /tmp/ccYIdjbY.s:96818  .debug_str:000000000002ce7c .LASF5635
     /tmp/ccYIdjbY.s:95822  .debug_str:0000000000028cf4 .LASF5637
     /tmp/ccYIdjbY.s:94064  .debug_str:0000000000021e6b .LASF5638
     /tmp/ccYIdjbY.s:86682  .debug_str:0000000000003391 .LASF5639
     /tmp/ccYIdjbY.s:89922  .debug_str:00000000000107b4 .LASF5640
     /tmp/ccYIdjbY.s:100254  .debug_str:000000000003ae72 .LASF5641
     /tmp/ccYIdjbY.s:102048  .debug_str:00000000000424fc .LASF5642
     /tmp/ccYIdjbY.s:91684  .debug_str:0000000000017ad8 .LASF5643
     /tmp/ccYIdjbY.s:102964  .debug_str:00000000000461ce .LASF5644
     /tmp/ccYIdjbY.s:90348  .debug_str:00000000000123a0 .LASF5645
     /tmp/ccYIdjbY.s:89716  .debug_str:000000000000fa22 .LASF5646
     /tmp/ccYIdjbY.s:95908  .debug_str:000000000002921f .LASF5647
     /tmp/ccYIdjbY.s:93246  .debug_str:000000000001e689 .LASF5648
     /tmp/ccYIdjbY.s:93808  .debug_str:0000000000020ceb .LASF5649
     /tmp/ccYIdjbY.s:87952  .debug_str:00000000000089ba .LASF5650
     /tmp/ccYIdjbY.s:86782  .debug_str:0000000000003a35 .LASF5651
     /tmp/ccYIdjbY.s:97370  .debug_str:000000000002f3c0 .LASF5652
     /tmp/ccYIdjbY.s:96168  .debug_str:000000000002a395 .LASF5653
     /tmp/ccYIdjbY.s:86816  .debug_str:0000000000003c4a .LASF5654
     /tmp/ccYIdjbY.s:103616  .debug_str:0000000000048f67 .LASF5655
     /tmp/ccYIdjbY.s:100426  .debug_str:000000000003b9f1 .LASF5656
     /tmp/ccYIdjbY.s:96830  .debug_str:000000000002cf48 .LASF5657
     /tmp/ccYIdjbY.s:86050  .debug_str:0000000000000786 .LASF5658
     /tmp/ccYIdjbY.s:97568  .debug_str:00000000000301a8 .LASF5659
     /tmp/ccYIdjbY.s:101960  .debug_str:0000000000041f78 .LASF5660
     /tmp/ccYIdjbY.s:91644  .debug_str:00000000000178b8 .LASF5661
     /tmp/ccYIdjbY.s:97618  .debug_str:0000000000030515 .LASF5662
     /tmp/ccYIdjbY.s:97560  .debug_str:000000000003013b .LASF5663
     /tmp/ccYIdjbY.s:93614  .debug_str:000000000002005c .LASF5664
     /tmp/ccYIdjbY.s:101262  .debug_str:000000000003f1bb .LASF5665
     /tmp/ccYIdjbY.s:98030  .debug_str:0000000000032069 .LASF5666
     /tmp/ccYIdjbY.s:98240  .debug_str:0000000000032f3b .LASF5667
     /tmp/ccYIdjbY.s:97584  .debug_str:00000000000302b8 .LASF5668
     /tmp/ccYIdjbY.s:103466  .debug_str:0000000000048486 .LASF5669
     /tmp/ccYIdjbY.s:99626  .debug_str:000000000003832d .LASF5670
     /tmp/ccYIdjbY.s:91136  .debug_str:0000000000015619 .LASF5671
     /tmp/ccYIdjbY.s:93590  .debug_str:000000000001fef7 .LASF5672
     /tmp/ccYIdjbY.s:86962  .debug_str:000000000000468a .LASF5673
     /tmp/ccYIdjbY.s:96554  .debug_str:000000000002bc2b .LASF5674
     /tmp/ccYIdjbY.s:98280  .debug_str:0000000000033188 .LASF5675
     /tmp/ccYIdjbY.s:96190  .debug_str:000000000002a58b .LASF5676
     /tmp/ccYIdjbY.s:96844  .debug_str:000000000002d0aa .LASF5677
     /tmp/ccYIdjbY.s:97510  .debug_str:000000000002fcf2 .LASF5678
     /tmp/ccYIdjbY.s:96576  .debug_str:000000000002bdb8 .LASF5679
     /tmp/ccYIdjbY.s:102438  .debug_str:0000000000043e56 .LASF5680
     /tmp/ccYIdjbY.s:87734  .debug_str:0000000000007a99 .LASF5681
     /tmp/ccYIdjbY.s:90068  .debug_str:00000000000110c7 .LASF5682
     /tmp/ccYIdjbY.s:92526  .debug_str:000000000001b589 .LASF5683
     /tmp/ccYIdjbY.s:86092  .debug_str:0000000000000a1b .LASF5684
     /tmp/ccYIdjbY.s:99678  .debug_str:000000000003874c .LASF5685
     /tmp/ccYIdjbY.s:100966  .debug_str:000000000003dca0 .LASF5686
     /tmp/ccYIdjbY.s:102700  .debug_str:0000000000044fdc .LASF5687
     /tmp/ccYIdjbY.s:95564  .debug_str:0000000000027caa .LASF5688
     /tmp/ccYIdjbY.s:97602  .debug_str:0000000000030427 .LASF5689
     /tmp/ccYIdjbY.s:86188  .debug_str:00000000000010b4 .LASF5690
     /tmp/ccYIdjbY.s:88256  .debug_str:0000000000009e6a .LASF5691
     /tmp/ccYIdjbY.s:90940  .debug_str:000000000001494b .LASF5692
     /tmp/ccYIdjbY.s:86280  .debug_str:0000000000001677 .LASF5693
     /tmp/ccYIdjbY.s:98964  .debug_str:0000000000035d4a .LASF5694
     /tmp/ccYIdjbY.s:96864  .debug_str:000000000002d22a .LASF5695
     /tmp/ccYIdjbY.s:90418  .debug_str:000000000001292d .LASF5696
     /tmp/ccYIdjbY.s:102986  .debug_str:000000000004633b .LASF5697
     /tmp/ccYIdjbY.s:86210  .debug_str:000000000000120c .LASF5698
     /tmp/ccYIdjbY.s:93952  .debug_str:0000000000021687 .LASF5699
     /tmp/ccYIdjbY.s:91494  .debug_str:0000000000016ea7 .LASF5700
     /tmp/ccYIdjbY.s:90678  .debug_str:0000000000013908 .LASF5701
     /tmp/ccYIdjbY.s:92708  .debug_str:000000000001c0e8 .LASF5702
     /tmp/ccYIdjbY.s:96578  .debug_str:000000000002bddf .LASF5703
     /tmp/ccYIdjbY.s:103824  .debug_str:0000000000049f44 .LASF5704
     /tmp/ccYIdjbY.s:101768  .debug_str:000000000004138d .LASF5705
     /tmp/ccYIdjbY.s:90026  .debug_str:0000000000010dc4 .LASF5706
     /tmp/ccYIdjbY.s:100696  .debug_str:000000000003cad8 .LASF5707
     /tmp/ccYIdjbY.s:91318  .debug_str:00000000000161f9 .LASF5708
     /tmp/ccYIdjbY.s:87054  .debug_str:0000000000004d07 .LASF5709
     /tmp/ccYIdjbY.s:86126  .debug_str:0000000000000c05 .LASF5710
     /tmp/ccYIdjbY.s:92338  .debug_str:000000000001a7a1 .LASF5711
     /tmp/ccYIdjbY.s:102464  .debug_str:0000000000044019 .LASF5712
     /tmp/ccYIdjbY.s:103920  .debug_str:000000000004a622 .LASF5713
     /tmp/ccYIdjbY.s:99008  .debug_str:0000000000035f38 .LASF5714
     /tmp/ccYIdjbY.s:88892  .debug_str:000000000000caa3 .LASF5715
     /tmp/ccYIdjbY.s:89066  .debug_str:000000000000d56f .LASF5716
     /tmp/ccYIdjbY.s:103722  .debug_str:00000000000496a7 .LASF5717
     /tmp/ccYIdjbY.s:101484  .debug_str:00000000000400dc .LASF5718
     /tmp/ccYIdjbY.s:103156  .debug_str:0000000000046e2b .LASF5719
     /tmp/ccYIdjbY.s:86662  .debug_str:000000000000325d .LASF5720
     /tmp/ccYIdjbY.s:104116  .debug_str:000000000004b2f7 .LASF5721
     /tmp/ccYIdjbY.s:91240  .debug_str:0000000000015d5b .LASF5722
     /tmp/ccYIdjbY.s:99928  .debug_str:00000000000398a8 .LASF5723
     /tmp/ccYIdjbY.s:87924  .debug_str:00000000000087b9 .LASF5724
     /tmp/ccYIdjbY.s:87182  .debug_str:00000000000055ed .LASF5725
     /tmp/ccYIdjbY.s:87034  .debug_str:0000000000004bcc .LASF5726
     /tmp/ccYIdjbY.s:98794  .debug_str:00000000000352fe .LASF5727
     /tmp/ccYIdjbY.s:99220  .debug_str:0000000000036a5f .LASF5728
     /tmp/ccYIdjbY.s:86928  .debug_str:0000000000004428 .LASF5729
     /tmp/ccYIdjbY.s:95274  .debug_str:000000000002699f .LASF5730
     /tmp/ccYIdjbY.s:103288  .debug_str:000000000004784e .LASF5731
     /tmp/ccYIdjbY.s:95810  .debug_str:0000000000028c3d .LASF5732
     /tmp/ccYIdjbY.s:91094  .debug_str:000000000001536e .LASF5733
     /tmp/ccYIdjbY.s:89362  .debug_str:000000000000e63b .LASF5734
     /tmp/ccYIdjbY.s:87216  .debug_str:00000000000058ab .LASF5735
     /tmp/ccYIdjbY.s:101004  .debug_str:000000000003dfdc .LASF5736
     /tmp/ccYIdjbY.s:99932  .debug_str:0000000000039909 .LASF5737
     /tmp/ccYIdjbY.s:89810  .debug_str:000000000000ff93 .LASF5738
     /tmp/ccYIdjbY.s:89118  .debug_str:000000000000d8d6 .LASF5739
     /tmp/ccYIdjbY.s:93534  .debug_str:000000000001fad9 .LASF5740
     /tmp/ccYIdjbY.s:86442  .debug_str:0000000000002227 .LASF5741
     /tmp/ccYIdjbY.s:87260  .debug_str:0000000000005bb2 .LASF5742
     /tmp/ccYIdjbY.s:91608  .debug_str:0000000000017633 .LASF5743
     /tmp/ccYIdjbY.s:97710  .debug_str:0000000000030b6e .LASF5744
     /tmp/ccYIdjbY.s:91184  .debug_str:00000000000158fd .LASF5745
     /tmp/ccYIdjbY.s:95680  .debug_str:0000000000028482 .LASF5746
     /tmp/ccYIdjbY.s:89832  .debug_str:000000000001013b .LASF5747
     /tmp/ccYIdjbY.s:100014  .debug_str:0000000000039e65 .LASF5748
     /tmp/ccYIdjbY.s:103742  .debug_str:000000000004989f .LASF5749
     /tmp/ccYIdjbY.s:100912  .debug_str:000000000003d919 .LASF5750
     /tmp/ccYIdjbY.s:98016  .debug_str:0000000000031fa9 .LASF5751
     /tmp/ccYIdjbY.s:94408  .debug_str:0000000000023495 .LASF5752
     /tmp/ccYIdjbY.s:98018  .debug_str:0000000000031fb5 .LASF5753
     /tmp/ccYIdjbY.s:99362  .debug_str:00000000000371db .LASF5754
     /tmp/ccYIdjbY.s:95936  .debug_str:00000000000294c3 .LASF5755
     /tmp/ccYIdjbY.s:93028  .debug_str:000000000001d718 .LASF5756
     /tmp/ccYIdjbY.s:93132  .debug_str:000000000001deca .LASF5757
     /tmp/ccYIdjbY.s:97272  .debug_str:000000000002ed9b .LASF5758
     /tmp/ccYIdjbY.s:88048  .debug_str:000000000000900f .LASF5759
     /tmp/ccYIdjbY.s:92934  .debug_str:000000000001d118 .LASF5760
     /tmp/ccYIdjbY.s:88224  .debug_str:0000000000009c95 .LASF5761
     /tmp/ccYIdjbY.s:92798  .debug_str:000000000001c780 .LASF5762
     /tmp/ccYIdjbY.s:88020  .debug_str:0000000000008e98 .LASF5763
     /tmp/ccYIdjbY.s:95812  .debug_str:0000000000028c59 .LASF5764
     /tmp/ccYIdjbY.s:92652  .debug_str:000000000001bd5b .LASF5765
     /tmp/ccYIdjbY.s:102658  .debug_str:0000000000044d21 .LASF5766
     /tmp/ccYIdjbY.s:87454  .debug_str:00000000000068b7 .LASF5767
     /tmp/ccYIdjbY.s:98554  .debug_str:00000000000343c2 .LASF5768
     /tmp/ccYIdjbY.s:103350  .debug_str:0000000000047c77 .LASF5769
     /tmp/ccYIdjbY.s:103642  .debug_str:00000000000490d5 .LASF5770
     /tmp/ccYIdjbY.s:86906  .debug_str:000000000000432c .LASF5771
     /tmp/ccYIdjbY.s:103656  .debug_str:00000000000491c7 .LASF5772
     /tmp/ccYIdjbY.s:88632  .debug_str:000000000000b983 .LASF5773
     /tmp/ccYIdjbY.s:94040  .debug_str:0000000000021ccb .LASF5774
     /tmp/ccYIdjbY.s:89108  .debug_str:000000000000d869 .LASF5775
     /tmp/ccYIdjbY.s:94156  .debug_str:0000000000022429 .LASF5776
     /tmp/ccYIdjbY.s:96400  .debug_str:000000000002b20a .LASF5777
     /tmp/ccYIdjbY.s:103958  .debug_str:000000000004a8d4 .LASF5778
     /tmp/ccYIdjbY.s:94096  .debug_str:0000000000022081 .LASF5779
     /tmp/ccYIdjbY.s:96434  .debug_str:000000000002b41b .LASF5780
     /tmp/ccYIdjbY.s:91780  .debug_str:0000000000018113 .LASF5781
     /tmp/ccYIdjbY.s:91782  .debug_str:0000000000018122 .LASF5782
     /tmp/ccYIdjbY.s:91962  .debug_str:0000000000018da8 .LASF5783
     /tmp/ccYIdjbY.s:91110  .debug_str:0000000000015438 .LASF5784
     /tmp/ccYIdjbY.s:97902  .debug_str:00000000000318ba .LASF5785
     /tmp/ccYIdjbY.s:93002  .debug_str:000000000001d5de .LASF5786
     /tmp/ccYIdjbY.s:89434  .debug_str:000000000000ea1f .LASF5787
     /tmp/ccYIdjbY.s:89436  .debug_str:000000000000ea2e .LASF5788
     /tmp/ccYIdjbY.s:91442  .debug_str:0000000000016b47 .LASF5789
     /tmp/ccYIdjbY.s:94480  .debug_str:0000000000023843 .LASF5790
     /tmp/ccYIdjbY.s:101210  .debug_str:000000000003ee37 .LASF5791
     /tmp/ccYIdjbY.s:100672  .debug_str:000000000003c984 .LASF5792
     /tmp/ccYIdjbY.s:93004  .debug_str:000000000001d5e8 .LASF5793
     /tmp/ccYIdjbY.s:87856  .debug_str:000000000000832c .LASF5794
     /tmp/ccYIdjbY.s:94588  .debug_str:0000000000023da6 .LASF5795
     /tmp/ccYIdjbY.s:102618  .debug_str:0000000000044a5f .LASF5796
     /tmp/ccYIdjbY.s:92240  .debug_str:000000000001a143 .LASF5797
     /tmp/ccYIdjbY.s:94268  .debug_str:0000000000022c1d .LASF5798
     /tmp/ccYIdjbY.s:99278  .debug_str:0000000000036d62 .LASF5799
     /tmp/ccYIdjbY.s:96696  .debug_str:000000000002c622 .LASF5800
     /tmp/ccYIdjbY.s:102344  .debug_str:00000000000437bf .LASF5801
     /tmp/ccYIdjbY.s:86864  .debug_str:0000000000003ff5 .LASF5802
     /tmp/ccYIdjbY.s:89744  .debug_str:000000000000fc4d .LASF5803
     /tmp/ccYIdjbY.s:99432  .debug_str:000000000003761e .LASF5804
     /tmp/ccYIdjbY.s:102194  .debug_str:0000000000042e10 .LASF5805
     /tmp/ccYIdjbY.s:94178  .debug_str:00000000000225b9 .LASF5806
     /tmp/ccYIdjbY.s:100812  .debug_str:000000000003d1e5 .LASF5807
     /tmp/ccYIdjbY.s:101714  .debug_str:0000000000040f7d .LASF5808
     /tmp/ccYIdjbY.s:92620  .debug_str:000000000001bb6e .LASF5809
     /tmp/ccYIdjbY.s:103996  .debug_str:000000000004aad7 .LASF5810
     /tmp/ccYIdjbY.s:93630  .debug_str:00000000000201be .LASF5811
     /tmp/ccYIdjbY.s:89098  .debug_str:000000000000d7d2 .LASF5812
     /tmp/ccYIdjbY.s:88380  .debug_str:000000000000a740 .LASF5813
     /tmp/ccYIdjbY.s:87366  .debug_str:0000000000006262 .LASF5814
     /tmp/ccYIdjbY.s:101496  .debug_str:00000000000401bf .LASF5815
     /tmp/ccYIdjbY.s:88882  .debug_str:000000000000ca26 .LASF5816
     /tmp/ccYIdjbY.s:101720  .debug_str:000000000004100a .LASF5817
     /tmp/ccYIdjbY.s:97696  .debug_str:0000000000030a8a .LASF5818
     /tmp/ccYIdjbY.s:101426  .debug_str:000000000003fc2f .LASF5819
     /tmp/ccYIdjbY.s:102982  .debug_str:00000000000462f9 .LASF5820
     /tmp/ccYIdjbY.s:96278  .debug_str:000000000002ab45 .LASF5821
     /tmp/ccYIdjbY.s:102326  .debug_str:000000000004368e .LASF5822
     /tmp/ccYIdjbY.s:103632  .debug_str:000000000004903b .LASF5823
     /tmp/ccYIdjbY.s:98666  .debug_str:0000000000034b18 .LASF5824
     /tmp/ccYIdjbY.s:95602  .debug_str:0000000000027f37 .LASF5825
     /tmp/ccYIdjbY.s:95614  .debug_str:0000000000027fff .LASF5826
     /tmp/ccYIdjbY.s:88950  .debug_str:000000000000ce9b .LASF5827
     /tmp/ccYIdjbY.s:101904  .debug_str:0000000000041c15 .LASF5828
     /tmp/ccYIdjbY.s:101684  .debug_str:0000000000040ddb .LASF5829
     /tmp/ccYIdjbY.s:101906  .debug_str:0000000000041c1f .LASF5830
     /tmp/ccYIdjbY.s:90548  .debug_str:0000000000013107 .LASF5831
     /tmp/ccYIdjbY.s:101912  .debug_str:0000000000041c71 .LASF5832
     /tmp/ccYIdjbY.s:101148  .debug_str:000000000003e9b7 .LASF5833
     /tmp/ccYIdjbY.s:100196  .debug_str:000000000003aa08 .LASF5834
     /tmp/ccYIdjbY.s:88710  .debug_str:000000000000be5b .LASF5835
     /tmp/ccYIdjbY.s:97236  .debug_str:000000000002eb7f .LASF5836
     /tmp/ccYIdjbY.s:101914  .debug_str:0000000000041c7b .LASF5837
     /tmp/ccYIdjbY.s:89112  .debug_str:000000000000d8b8 .LASF5838
     /tmp/ccYIdjbY.s:93694  .debug_str:000000000002060b .LASF5839
     /tmp/ccYIdjbY.s:88706  .debug_str:000000000000bdf1 .LASF5840
     /tmp/ccYIdjbY.s:104080  .debug_str:000000000004b0c1 .LASF5841
     /tmp/ccYIdjbY.s:90436  .debug_str:0000000000012a40 .LASF5842
     /tmp/ccYIdjbY.s:89114  .debug_str:000000000000d8c2 .LASF5843
     /tmp/ccYIdjbY.s:86570  .debug_str:0000000000002b87 .LASF5844
     /tmp/ccYIdjbY.s:89116  .debug_str:000000000000d8cc .LASF5845
     /tmp/ccYIdjbY.s:91024  .debug_str:0000000000014fab .LASF5846
     /tmp/ccYIdjbY.s:98566  .debug_str:0000000000034486 .LASF5847
     /tmp/ccYIdjbY.s:89192  .debug_str:000000000000dde5 .LASF5848
     /tmp/ccYIdjbY.s:93214  .debug_str:000000000001e41e .LASF5849
     /tmp/ccYIdjbY.s:89194  .debug_str:000000000000ddef .LASF5850
     /tmp/ccYIdjbY.s:86080  .debug_str:0000000000000981 .LASF5851
     /tmp/ccYIdjbY.s:89448  .debug_str:000000000000eb0a .LASF5852
     /tmp/ccYIdjbY.s:99196  .debug_str:0000000000036917 .LASF5853
     /tmp/ccYIdjbY.s:88210  .debug_str:0000000000009bd6 .LASF5854
     /tmp/ccYIdjbY.s:102056  .debug_str:000000000004257d .LASF5855
     /tmp/ccYIdjbY.s:100714  .debug_str:000000000003cc08 .LASF5856
     /tmp/ccYIdjbY.s:89198  .debug_str:000000000000de12 .LASF5857
     /tmp/ccYIdjbY.s:88788  .debug_str:000000000000c3c0 .LASF5858
     /tmp/ccYIdjbY.s:96322  .debug_str:000000000002ada0 .LASF5859
     /tmp/ccYIdjbY.s:89200  .debug_str:000000000000de1c .LASF5860
     /tmp/ccYIdjbY.s:87992  .debug_str:0000000000008ca7 .LASF5861
     /tmp/ccYIdjbY.s:100726  .debug_str:000000000003cc9e .LASF5862
     /tmp/ccYIdjbY.s:104044  .debug_str:000000000004ae83 .LASF5863
     /tmp/ccYIdjbY.s:103186  .debug_str:0000000000047109 .LASF5864
     /tmp/ccYIdjbY.s:101286  .debug_str:000000000003f309 .LASF5865
     /tmp/ccYIdjbY.s:87786  .debug_str:0000000000007e4e .LASF5866
     /tmp/ccYIdjbY.s:89202  .debug_str:000000000000de26 .LASF5867
     /tmp/ccYIdjbY.s:103082  .debug_str:0000000000046999 .LASF5868
     /tmp/ccYIdjbY.s:89204  .debug_str:000000000000de30 .LASF5869
     /tmp/ccYIdjbY.s:97686  .debug_str:00000000000309de .LASF5870
     /tmp/ccYIdjbY.s:86806  .debug_str:0000000000003bbd .LASF5871
     /tmp/ccYIdjbY.s:89206  .debug_str:000000000000de3a .LASF5872
     /tmp/ccYIdjbY.s:95340  .debug_str:0000000000026e1c .LASF5873
     /tmp/ccYIdjbY.s:91944  .debug_str:0000000000018c1e .LASF5874
     /tmp/ccYIdjbY.s:87460  .debug_str:0000000000006923 .LASF5875
     /tmp/ccYIdjbY.s:91012  .debug_str:0000000000014f16 .LASF5876
     /tmp/ccYIdjbY.s:101630  .debug_str:0000000000040a56 .LASF5877
     /tmp/ccYIdjbY.s:89208  .debug_str:000000000000de44 .LASF5878
     /tmp/ccYIdjbY.s:95578  .debug_str:0000000000027db5 .LASF5879
     /tmp/ccYIdjbY.s:90874  .debug_str:000000000001455f .LASF5880
     /tmp/ccYIdjbY.s:102024  .debug_str:000000000004234f .LASF5881
     /tmp/ccYIdjbY.s:102180  .debug_str:0000000000042d3a .LASF5882
     /tmp/ccYIdjbY.s:92206  .debug_str:0000000000019f3f .LASF5883
     /tmp/ccYIdjbY.s:96636  .debug_str:000000000002c1d4 .LASF5884
     /tmp/ccYIdjbY.s:86150  .debug_str:0000000000000dc8 .LASF5885
     /tmp/ccYIdjbY.s:95152  .debug_str:00000000000261cf .LASF5886
     /tmp/ccYIdjbY.s:101040  .debug_str:000000000003e27f .LASF5887
     /tmp/ccYIdjbY.s:95276  .debug_str:00000000000269e2 .LASF5888
     /tmp/ccYIdjbY.s:89380  .debug_str:000000000000e7a2 .LASF5889
     /tmp/ccYIdjbY.s:102014  .debug_str:000000000004228d .LASF5890
     /tmp/ccYIdjbY.s:102274  .debug_str:000000000004336e .LASF5891
     /tmp/ccYIdjbY.s:89268  .debug_str:000000000000e1a5 .LASF5892
     /tmp/ccYIdjbY.s:88434  .debug_str:000000000000ab44 .LASF5893
     /tmp/ccYIdjbY.s:87808  .debug_str:0000000000007fd4 .LASF5894
     /tmp/ccYIdjbY.s:90346  .debug_str:0000000000012399 .LASF5895
     /tmp/ccYIdjbY.s:90228  .debug_str:0000000000011bd3 .LASF5896
     /tmp/ccYIdjbY.s:101724  .debug_str:000000000004104d .LASF5897
     /tmp/ccYIdjbY.s:100398  .debug_str:000000000003b7e7 .LASF5898
     /tmp/ccYIdjbY.s:95372  .debug_str:0000000000027079 .LASF5899
     /tmp/ccYIdjbY.s:88488  .debug_str:000000000000af1e .LASF5900
     /tmp/ccYIdjbY.s:101072  .debug_str:000000000003e4bd .LASF5901
     /tmp/ccYIdjbY.s:93278  .debug_str:000000000001e936 .LASF5902
     /tmp/ccYIdjbY.s:89018  .debug_str:000000000000d2e2 .LASF5903
     /tmp/ccYIdjbY.s:103852  .debug_str:000000000004a0ef .LASF5904
     /tmp/ccYIdjbY.s:90434  .debug_str:0000000000012a16 .LASF5905
     /tmp/ccYIdjbY.s:89526  .debug_str:000000000000f024 .LASF5906
     /tmp/ccYIdjbY.s:100526  .debug_str:000000000003c015 .LASF5907
     /tmp/ccYIdjbY.s:96070  .debug_str:0000000000029d7d .LASF5908
     /tmp/ccYIdjbY.s:92636  .debug_str:000000000001bc57 .LASF5909
     /tmp/ccYIdjbY.s:96204  .debug_str:000000000002a64d .LASF5910
     /tmp/ccYIdjbY.s:95154  .debug_str:00000000000261e9 .LASF5911
     /tmp/ccYIdjbY.s:97228  .debug_str:000000000002eb0d .LASF5912
     /tmp/ccYIdjbY.s:86042  .debug_str:000000000000071d .LASF5913
     /tmp/ccYIdjbY.s:86698  .debug_str:0000000000003437 .LASF5914
     /tmp/ccYIdjbY.s:103124  .debug_str:0000000000046c50 .LASF5915
     /tmp/ccYIdjbY.s:89156  .debug_str:000000000000db68 .LASF5916
     /tmp/ccYIdjbY.s:89022  .debug_str:000000000000d316 .LASF5917
     /tmp/ccYIdjbY.s:89024  .debug_str:000000000000d320 .LASF5918
     /tmp/ccYIdjbY.s:92292  .debug_str:000000000001a45f .LASF5919
     /tmp/ccYIdjbY.s:101826  .debug_str:000000000004171a .LASF5920
     /tmp/ccYIdjbY.s:96018  .debug_str:00000000000299df .LASF5921
     /tmp/ccYIdjbY.s:97624  .debug_str:00000000000305c7 .LASF5922
     /tmp/ccYIdjbY.s:95098  .debug_str:0000000000025e4a .LASF5923
     /tmp/ccYIdjbY.s:88220  .debug_str:0000000000009c79 .LASF5924
     /tmp/ccYIdjbY.s:102008  .debug_str:0000000000042236 .LASF5925
     /tmp/ccYIdjbY.s:92546  .debug_str:000000000001b6f1 .LASF5926
     /tmp/ccYIdjbY.s:89136  .debug_str:000000000000da47 .LASF5927
     /tmp/ccYIdjbY.s:99040  .debug_str:0000000000036175 .LASF5928
     /tmp/ccYIdjbY.s:95766  .debug_str:0000000000028975 .LASF5929
     /tmp/ccYIdjbY.s:88610  .debug_str:000000000000b823 .LASF5930
     /tmp/ccYIdjbY.s:89346  .debug_str:000000000000e516 .LASF5931
     /tmp/ccYIdjbY.s:99208  .debug_str:00000000000369be .LASF5932
     /tmp/ccYIdjbY.s:97440  .debug_str:000000000002f826 .LASF5933
     /tmp/ccYIdjbY.s:93640  .debug_str:0000000000020284 .LASF5934
     /tmp/ccYIdjbY.s:92946  .debug_str:000000000001d208 .LASF5935
     /tmp/ccYIdjbY.s:87876  .debug_str:000000000000847b .LASF5936
     /tmp/ccYIdjbY.s:99846  .debug_str:0000000000039292 .LASF5937
     /tmp/ccYIdjbY.s:92556  .debug_str:000000000001b766 .LASF5938
     /tmp/ccYIdjbY.s:88204  .debug_str:0000000000009b53 .LASF5939
     /tmp/ccYIdjbY.s:101674  .debug_str:0000000000040d61 .LASF5940
     /tmp/ccYIdjbY.s:103088  .debug_str:00000000000469bd .LASF5941
     /tmp/ccYIdjbY.s:99246  .debug_str:0000000000036b26 .LASF5942
     /tmp/ccYIdjbY.s:93046  .debug_str:000000000001d846 .LASF5943
     /tmp/ccYIdjbY.s:87330  .debug_str:0000000000006039 .LASF5944
     /tmp/ccYIdjbY.s:98258  .debug_str:0000000000033038 .LASF5945
     /tmp/ccYIdjbY.s:96324  .debug_str:000000000002adab .LASF5946
     /tmp/ccYIdjbY.s:93264  .debug_str:000000000001e825 .LASF5947
     /tmp/ccYIdjbY.s:85958  .debug_str:0000000000000119 .LASF5948
     /tmp/ccYIdjbY.s:90862  .debug_str:0000000000014442 .LASF5949
     /tmp/ccYIdjbY.s:94080  .debug_str:0000000000021f83 .LASF5950
     /tmp/ccYIdjbY.s:87794  .debug_str:0000000000007ec8 .LASF5951
     /tmp/ccYIdjbY.s:102212  .debug_str:0000000000042eca .LASF5952
     /tmp/ccYIdjbY.s:87136  .debug_str:0000000000005268 .LASF5953
     /tmp/ccYIdjbY.s:101264  .debug_str:000000000003f1e2 .LASF5954
     /tmp/ccYIdjbY.s:94946  .debug_str:0000000000025404 .LASF5955
     /tmp/ccYIdjbY.s:100416  .debug_str:000000000003b948 .LASF5956
     /tmp/ccYIdjbY.s:93168  .debug_str:000000000001e177 .LASF5957
     /tmp/ccYIdjbY.s:88410  .debug_str:000000000000a924 .LASF5958
     /tmp/ccYIdjbY.s:97452  .debug_str:000000000002f8f9 .LASF5959
     /tmp/ccYIdjbY.s:91172  .debug_str:0000000000015835 .LASF5960
     /tmp/ccYIdjbY.s:103988  .debug_str:000000000004aa78 .LASF5961
     /tmp/ccYIdjbY.s:98930  .debug_str:0000000000035af9 .LASF5962
     /tmp/ccYIdjbY.s:94858  .debug_str:0000000000024e10 .LASF5963
     /tmp/ccYIdjbY.s:95962  .debug_str:0000000000029687 .LASF5964
     /tmp/ccYIdjbY.s:98536  .debug_str:00000000000342f3 .LASF5965
     /tmp/ccYIdjbY.s:98706  .debug_str:0000000000034dbb .LASF5966
     /tmp/ccYIdjbY.s:95986  .debug_str:0000000000029827 .LASF5967
     /tmp/ccYIdjbY.s:98552  .debug_str:00000000000343b3 .LASF5968
     /tmp/ccYIdjbY.s:87224  .debug_str:0000000000005904 .LASF5969
     /tmp/ccYIdjbY.s:95304  .debug_str:0000000000026bde .LASF5970
     /tmp/ccYIdjbY.s:93120  .debug_str:000000000001ddf8 .LASF5971
     /tmp/ccYIdjbY.s:89276  .debug_str:000000000000e206 .LASF5972
     /tmp/ccYIdjbY.s:88638  .debug_str:000000000000b9c1 .LASF5973
     /tmp/ccYIdjbY.s:88670  .debug_str:000000000000bbc4 .LASF5974
     /tmp/ccYIdjbY.s:95982  .debug_str:00000000000297e0 .LASF5975
     /tmp/ccYIdjbY.s:93920  .debug_str:00000000000214b8 .LASF5976
     /tmp/ccYIdjbY.s:97616  .debug_str:0000000000030501 .LASF5977
     /tmp/ccYIdjbY.s:91806  .debug_str:000000000001827a .LASF5978
     /tmp/ccYIdjbY.s:103580  .debug_str:0000000000048cd2 .LASF5979
     /tmp/ccYIdjbY.s:102004  .debug_str:00000000000421e6 .LASF5980
     /tmp/ccYIdjbY.s:95542  .debug_str:0000000000027b1e .LASF5981
     /tmp/ccYIdjbY.s:91814  .debug_str:000000000001834e .LASF5982
     /tmp/ccYIdjbY.s:96970  .debug_str:000000000002d8d5 .LASF5983
     /tmp/ccYIdjbY.s:88390  .debug_str:000000000000a7f5 .LASF5984
     /tmp/ccYIdjbY.s:96386  .debug_str:000000000002b153 .LASF5985
     /tmp/ccYIdjbY.s:90724  .debug_str:0000000000013bfc .LASF5986
     /tmp/ccYIdjbY.s:90780  .debug_str:0000000000013eb2 .LASF5987
     /tmp/ccYIdjbY.s:100172  .debug_str:000000000003a886 .LASF5988
     /tmp/ccYIdjbY.s:95814  .debug_str:0000000000028c69 .LASF5989
     /tmp/ccYIdjbY.s:95628  .debug_str:00000000000280f8 .LASF5990
     /tmp/ccYIdjbY.s:87846  .debug_str:000000000000826c .LASF5991
     /tmp/ccYIdjbY.s:94446  .debug_str:00000000000236d6 .LASF5992
     /tmp/ccYIdjbY.s:88960  .debug_str:000000000000cf3f .LASF5993
     /tmp/ccYIdjbY.s:93774  .debug_str:0000000000020b3c .LASF5994
     /tmp/ccYIdjbY.s:93156  .debug_str:000000000001e087 .LASF5995
     /tmp/ccYIdjbY.s:99344  .debug_str:00000000000370ca .LASF5996
     /tmp/ccYIdjbY.s:99342  .debug_str:00000000000370ba .LASF5997
     /tmp/ccYIdjbY.s:97652  .debug_str:00000000000307aa .LASF5998
     /tmp/ccYIdjbY.s:88518  .debug_str:000000000000b143 .LASF5999
     /tmp/ccYIdjbY.s:102154  .debug_str:0000000000042bab .LASF6000
     /tmp/ccYIdjbY.s:88302  .debug_str:000000000000a22f .LASF6001
     /tmp/ccYIdjbY.s:93606  .debug_str:000000000001ffe6 .LASF6002
     /tmp/ccYIdjbY.s:91762  .debug_str:0000000000017fbd .LASF6003
     /tmp/ccYIdjbY.s:93776  .debug_str:0000000000020b45 .LASF6004
     /tmp/ccYIdjbY.s:98588  .debug_str:0000000000034617 .LASF6005
     /tmp/ccYIdjbY.s:102350  .debug_str:000000000004383e .LASF6006
     /tmp/ccYIdjbY.s:96848  .debug_str:000000000002d0f1 .LASF6007
     /tmp/ccYIdjbY.s:100604  .debug_str:000000000003c512 .LASF6008
     /tmp/ccYIdjbY.s:95072  .debug_str:0000000000025c4c .LASF6009
     /tmp/ccYIdjbY.s:104056  .debug_str:000000000004af52 .LASF6010
     /tmp/ccYIdjbY.s:93778  .debug_str:0000000000020b4e .LASF6011
     /tmp/ccYIdjbY.s:99956  .debug_str:0000000000039aa8 .LASF6012
     /tmp/ccYIdjbY.s:100606  .debug_str:000000000003c520 .LASF6013
     /tmp/ccYIdjbY.s:98196  .debug_str:0000000000032bfe .LASF6014
     /tmp/ccYIdjbY.s:102764  .debug_str:0000000000045482 .LASF6015
     /tmp/ccYIdjbY.s:99766  .debug_str:0000000000038c96 .LASF6016
     /tmp/ccYIdjbY.s:95222  .debug_str:00000000000265f1 .LASF6017
     /tmp/ccYIdjbY.s:95210  .debug_str:000000000002652c .LASF6018
     /tmp/ccYIdjbY.s:102482  .debug_str:000000000004418d .LASF6019
     /tmp/ccYIdjbY.s:94392  .debug_str:0000000000023381 .LASF6020
     /tmp/ccYIdjbY.s:89026  .debug_str:000000000000d32a .LASF6021
     /tmp/ccYIdjbY.s:93780  .debug_str:0000000000020b57 .LASF6022
     /tmp/ccYIdjbY.s:94062  .debug_str:0000000000021e48 .LASF6023
     /tmp/ccYIdjbY.s:94092  .debug_str:0000000000022054 .LASF6024
     /tmp/ccYIdjbY.s:88702  .debug_str:000000000000bdc0 .LASF6025
     /tmp/ccYIdjbY.s:88490  .debug_str:000000000000af29 .LASF6026
     /tmp/ccYIdjbY.s:97060  .debug_str:000000000002df68 .LASF6027
     /tmp/ccYIdjbY.s:86522  .debug_str:000000000000283c .LASF6028
     /tmp/ccYIdjbY.s:87432  .debug_str:0000000000006758 .LASF6029
     /tmp/ccYIdjbY.s:86774  .debug_str:00000000000039c6 .LASF6030
     /tmp/ccYIdjbY.s:89672  .debug_str:000000000000f7fa .LASF6031
     /tmp/ccYIdjbY.s:87318  .debug_str:0000000000005f60 .LASF6032
     /tmp/ccYIdjbY.s:95852  .debug_str:0000000000028f76 .LASF6033
     /tmp/ccYIdjbY.s:100350  .debug_str:000000000003b4d2 .LASF6034
     /tmp/ccYIdjbY.s:89028  .debug_str:000000000000d334 .LASF6035
     /tmp/ccYIdjbY.s:93782  .debug_str:0000000000020b60 .LASF6036
     /tmp/ccYIdjbY.s:88180  .debug_str:000000000000998b .LASF6037
     /tmp/ccYIdjbY.s:101316  .debug_str:000000000003f463 .LASF6038
     /tmp/ccYIdjbY.s:101292  .debug_str:000000000003f31d .LASF6039
     /tmp/ccYIdjbY.s:103018  .debug_str:000000000004653b .LASF6040
     /tmp/ccYIdjbY.s:103002  .debug_str:000000000004644c .LASF6041
     /tmp/ccYIdjbY.s:89030  .debug_str:000000000000d33e .LASF6042
     /tmp/ccYIdjbY.s:93784  .debug_str:0000000000020b69 .LASF6043
     /tmp/ccYIdjbY.s:100796  .debug_str:000000000003d139 .LASF6044
     /tmp/ccYIdjbY.s:87608  .debug_str:0000000000007335 .LASF6045
     /tmp/ccYIdjbY.s:104296  .debug_str:000000000004bf53 .LASF6046
     /tmp/ccYIdjbY.s:89032  .debug_str:000000000000d348 .LASF6047
     /tmp/ccYIdjbY.s:93786  .debug_str:0000000000020b72 .LASF6048
     /tmp/ccYIdjbY.s:91778  .debug_str:00000000000180f0 .LASF6049
     /tmp/ccYIdjbY.s:87046  .debug_str:0000000000004cb5 .LASF6050
     /tmp/ccYIdjbY.s:94396  .debug_str:00000000000233d1 .LASF6051
     /tmp/ccYIdjbY.s:94692  .debug_str:0000000000024322 .LASF6052
     /tmp/ccYIdjbY.s:101748  .debug_str:000000000004120b .LASF6053
     /tmp/ccYIdjbY.s:88352  .debug_str:000000000000a545 .LASF6054
     /tmp/ccYIdjbY.s:91900  .debug_str:0000000000018938 .LASF6055
     /tmp/ccYIdjbY.s:90544  .debug_str:00000000000130ac .LASF6056
     /tmp/ccYIdjbY.s:86692  .debug_str:00000000000033ed .LASF6057
     /tmp/ccYIdjbY.s:97394  .debug_str:000000000002f566 .LASF6058
     /tmp/ccYIdjbY.s:100136  .debug_str:000000000003a614 .LASF6059
     /tmp/ccYIdjbY.s:87488  .debug_str:0000000000006b7d .LASF6060
     /tmp/ccYIdjbY.s:86932  .debug_str:0000000000004482 .LASF6061
     /tmp/ccYIdjbY.s:98076  .debug_str:000000000003244f .LASF6062
     /tmp/ccYIdjbY.s:103340  .debug_str:0000000000047be8 .LASF6063
     /tmp/ccYIdjbY.s:93380  .debug_str:000000000001f150 .LASF6064
     /tmp/ccYIdjbY.s:95332  .debug_str:0000000000026d9a .LASF6065
     /tmp/ccYIdjbY.s:92542  .debug_str:000000000001b6a4 .LASF6066
     /tmp/ccYIdjbY.s:95356  .debug_str:0000000000026f52 .LASF6067
     /tmp/ccYIdjbY.s:89990  .debug_str:0000000000010b5b .LASF6068
     /tmp/ccYIdjbY.s:95608  .debug_str:0000000000027fb3 .LASF6069
     /tmp/ccYIdjbY.s:93886  .debug_str:000000000002126b .LASF6070
     /tmp/ccYIdjbY.s:86070  .debug_str:00000000000008d9 .LASF6071
     /tmp/ccYIdjbY.s:99382  .debug_str:00000000000372d3 .LASF6072
     /tmp/ccYIdjbY.s:92806  .debug_str:000000000001c800 .LASF6073
     /tmp/ccYIdjbY.s:101144  .debug_str:000000000003e989 .LASF6074
     /tmp/ccYIdjbY.s:103240  .debug_str:00000000000474c4 .LASF6075
     /tmp/ccYIdjbY.s:87646  .debug_str:0000000000007581 .LASF6076
     /tmp/ccYIdjbY.s:99530  .debug_str:0000000000037d02 .LASF6077
     /tmp/ccYIdjbY.s:94954  .debug_str:0000000000025486 .LASF6078
     /tmp/ccYIdjbY.s:101822  .debug_str:00000000000416f8 .LASF6079
     /tmp/ccYIdjbY.s:95570  .debug_str:0000000000027cfe .LASF6080
     /tmp/ccYIdjbY.s:101420  .debug_str:000000000003fbfb .LASF6081
     /tmp/ccYIdjbY.s:100284  .debug_str:000000000003b042 .LASF6082
     /tmp/ccYIdjbY.s:92362  .debug_str:000000000001a9bf .LASF6083
     /tmp/ccYIdjbY.s:94956  .debug_str:000000000002548f .LASF6084
     /tmp/ccYIdjbY.s:102608  .debug_str:00000000000449d1 .LASF6085
     /tmp/ccYIdjbY.s:92028  .debug_str:00000000000191fa .LASF6086
     /tmp/ccYIdjbY.s:98446  .debug_str:0000000000033ce8 .LASF6087
     /tmp/ccYIdjbY.s:93946  .debug_str:0000000000021647 .LASF6088
     /tmp/ccYIdjbY.s:98922  .debug_str:0000000000035a58 .LASF6089
     /tmp/ccYIdjbY.s:92986  .debug_str:000000000001d4ae .LASF6090
     /tmp/ccYIdjbY.s:97512  .debug_str:000000000002fd32 .LASF6091
     /tmp/ccYIdjbY.s:94958  .debug_str:0000000000025498 .LASF6092
     /tmp/ccYIdjbY.s:93416  .debug_str:000000000001f356 .LASF6093
     /tmp/ccYIdjbY.s:89128  .debug_str:000000000000d9b2 .LASF6094
     /tmp/ccYIdjbY.s:103368  .debug_str:0000000000047dc1 .LASF6095
     /tmp/ccYIdjbY.s:96764  .debug_str:000000000002caea .LASF6096
     /tmp/ccYIdjbY.s:94960  .debug_str:00000000000254a1 .LASF6097
     /tmp/ccYIdjbY.s:86636  .debug_str:000000000000307a .LASF6098
     /tmp/ccYIdjbY.s:88536  .debug_str:000000000000b293 .LASF6099
     /tmp/ccYIdjbY.s:95622  .debug_str:000000000002809c .LASF6100
     /tmp/ccYIdjbY.s:91940  .debug_str:0000000000018bfb .LASF6101
     /tmp/ccYIdjbY.s:99426  .debug_str:00000000000375be .LASF6102
     /tmp/ccYIdjbY.s:99698  .debug_str:000000000003888a .LASF6103
     /tmp/ccYIdjbY.s:90684  .debug_str:0000000000013949 .LASF6104
     /tmp/ccYIdjbY.s:93090  .debug_str:000000000001dbd9 .LASF6105
     /tmp/ccYIdjbY.s:95668  .debug_str:00000000000283c9 .LASF6106
     /tmp/ccYIdjbY.s:94964  .debug_str:00000000000254c4 .LASF6107
     /tmp/ccYIdjbY.s:87548  .debug_str:0000000000006f89 .LASF6108
     /tmp/ccYIdjbY.s:103946  .debug_str:000000000004a7e6 .LASF6109
     /tmp/ccYIdjbY.s:96588  .debug_str:000000000002becd .LASF6110
     /tmp/ccYIdjbY.s:97196  .debug_str:000000000002e8fa .LASF6111
     /tmp/ccYIdjbY.s:98540  .debug_str:0000000000034331 .LASF6112
     /tmp/ccYIdjbY.s:93494  .debug_str:000000000001f806 .LASF6113
     /tmp/ccYIdjbY.s:91336  .debug_str:0000000000016398 .LASF6114
     /tmp/ccYIdjbY.s:91142  .debug_str:0000000000015696 .LASF6115
     /tmp/ccYIdjbY.s:101254  .debug_str:000000000003f13a .LASF6116
     /tmp/ccYIdjbY.s:86272  .debug_str:00000000000015c9 .LASF6117
     /tmp/ccYIdjbY.s:98564  .debug_str:0000000000034452 .LASF6118
     /tmp/ccYIdjbY.s:100468  .debug_str:000000000003bc07 .LASF6119
     /tmp/ccYIdjbY.s:101204  .debug_str:000000000003ee00 .LASF6120
     /tmp/ccYIdjbY.s:93464  .debug_str:000000000001f611 .LASF6121
     /tmp/ccYIdjbY.s:103254  .debug_str:00000000000475f9 .LASF6122
     /tmp/ccYIdjbY.s:95120  .debug_str:0000000000025f9c .LASF6123
     /tmp/ccYIdjbY.s:88836  .debug_str:000000000000c6ac .LASF6124
     /tmp/ccYIdjbY.s:96390  .debug_str:000000000002b170 .LASF6125
     /tmp/ccYIdjbY.s:88392  .debug_str:000000000000a822 .LASF6126
     /tmp/ccYIdjbY.s:102606  .debug_str:00000000000449ae .LASF6127
     /tmp/ccYIdjbY.s:88930  .debug_str:000000000000cd43 .LASF6128
     /tmp/ccYIdjbY.s:97772  .debug_str:0000000000030f9e .LASF6129
     /tmp/ccYIdjbY.s:98138  .debug_str:00000000000327ba .LASF6130
     /tmp/ccYIdjbY.s:94862  .debug_str:0000000000024e53 .LASF6131
     /tmp/ccYIdjbY.s:94530  .debug_str:0000000000023b37 .LASF6132
     /tmp/ccYIdjbY.s:96394  .debug_str:000000000002b1b4 .LASF6133
     /tmp/ccYIdjbY.s:86170  .debug_str:0000000000000f41 .LASF6134
     /tmp/ccYIdjbY.s:88002  .debug_str:0000000000008d7d .LASF6135
     /tmp/ccYIdjbY.s:100890  .debug_str:000000000003d79e .LASF6136
     /tmp/ccYIdjbY.s:100078  .debug_str:000000000003a2a1 .LASF6137
     /tmp/ccYIdjbY.s:100434  .debug_str:000000000003ba8e .LASF6138
     /tmp/ccYIdjbY.s:101992  .debug_str:0000000000042121 .LASF6139
     /tmp/ccYIdjbY.s:101024  .debug_str:000000000003e194 .LASF6140
     /tmp/ccYIdjbY.s:103198  .debug_str:00000000000471b9 .LASF6141
     /tmp/ccYIdjbY.s:97334  .debug_str:000000000002f13d .LASF6142
     /tmp/ccYIdjbY.s:99806  .debug_str:0000000000038fcb .LASF6143
     /tmp/ccYIdjbY.s:87622  .debug_str:000000000000741b .LASF6144
     /tmp/ccYIdjbY.s:92764  .debug_str:000000000001c514 .LASF6145
     /tmp/ccYIdjbY.s:88008  .debug_str:0000000000008dc5 .LASF6146
     /tmp/ccYIdjbY.s:91848  .debug_str:00000000000185b8 .LASF6147
     /tmp/ccYIdjbY.s:86122  .debug_str:0000000000000bd6 .LASF6148
     /tmp/ccYIdjbY.s:101100  .debug_str:000000000003e63d .LASF6149
     /tmp/ccYIdjbY.s:93270  .debug_str:000000000001e8a6 .LASF6150
     /tmp/ccYIdjbY.s:101966  .debug_str:0000000000041fe2 .LASF6151
     /tmp/ccYIdjbY.s:104046  .debug_str:000000000004ae94 .LASF6152
     /tmp/ccYIdjbY.s:90174  .debug_str:000000000001189f .LASF6153
     /tmp/ccYIdjbY.s:97478  .debug_str:000000000002faa6 .LASF6154
     /tmp/ccYIdjbY.s:88770  .debug_str:000000000000c27c .LASF6155
     /tmp/ccYIdjbY.s:98896  .debug_str:00000000000359bf .LASF6156
     /tmp/ccYIdjbY.s:92742  .debug_str:000000000001c344 .LASF6157
     /tmp/ccYIdjbY.s:96152  .debug_str:000000000002a283 .LASF6158
     /tmp/ccYIdjbY.s:101636  .debug_str:0000000000040ab0 .LASF6159
     /tmp/ccYIdjbY.s:88138  .debug_str:0000000000009739 .LASF6160
     /tmp/ccYIdjbY.s:96154  .debug_str:000000000002a293 .LASF6161
     /tmp/ccYIdjbY.s:86048  .debug_str:000000000000077d .LASF6162
     /tmp/ccYIdjbY.s:92818  .debug_str:000000000001c8c1 .LASF6163
     /tmp/ccYIdjbY.s:92560  .debug_str:000000000001b7a5 .LASF6164
     /tmp/ccYIdjbY.s:89772  .debug_str:000000000000fde6 .LASF6165
     /tmp/ccYIdjbY.s:102520  .debug_str:00000000000443f0 .LASF6166
     /tmp/ccYIdjbY.s:97356  .debug_str:000000000002f2ee .LASF6167
     /tmp/ccYIdjbY.s:92624  .debug_str:000000000001bb8a .LASF6168
     /tmp/ccYIdjbY.s:98066  .debug_str:000000000003233a .LASF6169
     /tmp/ccYIdjbY.s:92482  .debug_str:000000000001b203 .LASF6170
     /tmp/ccYIdjbY.s:92070  .debug_str:0000000000019518 .LASF6171
     /tmp/ccYIdjbY.s:95172  .debug_str:000000000002631e .LASF6172
     /tmp/ccYIdjbY.s:98972  .debug_str:0000000000035db0 .LASF6173
     /tmp/ccYIdjbY.s:94714  .debug_str:00000000000244a4 .LASF6174
     /tmp/ccYIdjbY.s:88296  .debug_str:000000000000a1bf .LASF6175
     /tmp/ccYIdjbY.s:97856  .debug_str:00000000000315ce .LASF6176
     /tmp/ccYIdjbY.s:91584  .debug_str:00000000000174cc .LASF6177
     /tmp/ccYIdjbY.s:103892  .debug_str:000000000004a3f7 .LASF6178
     /tmp/ccYIdjbY.s:97858  .debug_str:00000000000315da .LASF6179
     /tmp/ccYIdjbY.s:100448  .debug_str:000000000003bb7e .LASF6180
     /tmp/ccYIdjbY.s:98154  .debug_str:00000000000328d1 .LASF6181
     /tmp/ccYIdjbY.s:97860  .debug_str:00000000000315e6 .LASF6182
     /tmp/ccYIdjbY.s:100450  .debug_str:000000000003bb84 .LASF6183
     /tmp/ccYIdjbY.s:92302  .debug_str:000000000001a4fb .LASF6184
     /tmp/ccYIdjbY.s:96002  .debug_str:0000000000029928 .LASF6185
     /tmp/ccYIdjbY.s:101034  .debug_str:000000000003e24c .LASF6186
     /tmp/ccYIdjbY.s:100206  .debug_str:000000000003aac2 .LASF6187
     /tmp/ccYIdjbY.s:96004  .debug_str:0000000000029932 .LASF6188
     /tmp/ccYIdjbY.s:100454  .debug_str:000000000003bb96 .LASF6189
     /tmp/ccYIdjbY.s:87756  .debug_str:0000000000007c0f .LASF6190
     /tmp/ccYIdjbY.s:102682  .debug_str:0000000000044e7f .LASF6191
     /tmp/ccYIdjbY.s:100456  .debug_str:000000000003bb9c .LASF6192
     /tmp/ccYIdjbY.s:93208  .debug_str:000000000001e3a6 .LASF6193
     /tmp/ccYIdjbY.s:96008  .debug_str:0000000000029951 .LASF6194
     /tmp/ccYIdjbY.s:100458  .debug_str:000000000003bba2 .LASF6195
     /tmp/ccYIdjbY.s:93860  .debug_str:000000000002107f .LASF6196
     /tmp/ccYIdjbY.s:103678  .debug_str:000000000004930c .LASF6197
     /tmp/ccYIdjbY.s:100460  .debug_str:000000000003bba8 .LASF6198
     /tmp/ccYIdjbY.s:100004  .debug_str:0000000000039d8c .LASF6199
     /tmp/ccYIdjbY.s:100732  .debug_str:000000000003ccf1 .LASF6200
     /tmp/ccYIdjbY.s:100462  .debug_str:000000000003bbae .LASF6201
     /tmp/ccYIdjbY.s:92696  .debug_str:000000000001c008 .LASF6202
     /tmp/ccYIdjbY.s:86500  .debug_str:000000000000267f .LASF6203
     /tmp/ccYIdjbY.s:91650  .debug_str:0000000000017952 .LASF6204
     /tmp/ccYIdjbY.s:90044  .debug_str:0000000000010f1b .LASF6205
     /tmp/ccYIdjbY.s:86502  .debug_str:000000000000268a .LASF6206
     /tmp/ccYIdjbY.s:91652  .debug_str:0000000000017959 .LASF6207
     /tmp/ccYIdjbY.s:102604  .debug_str:000000000004498d .LASF6208
     /tmp/ccYIdjbY.s:100266  .debug_str:000000000003af34 .LASF6209
     /tmp/ccYIdjbY.s:89762  .debug_str:000000000000fd2c .LASF6210
     /tmp/ccYIdjbY.s:101640  .debug_str:0000000000040ac8 .LASF6211
     /tmp/ccYIdjbY.s:100268  .debug_str:000000000003af3d .LASF6212
     /tmp/ccYIdjbY.s:91656  .debug_str:0000000000017967 .LASF6213
     /tmp/ccYIdjbY.s:90994  .debug_str:0000000000014d1a .LASF6214
     /tmp/ccYIdjbY.s:100270  .debug_str:000000000003af46 .LASF6215
     /tmp/ccYIdjbY.s:91658  .debug_str:000000000001796e .LASF6216
     /tmp/ccYIdjbY.s:103482  .debug_str:0000000000048592 .LASF6217
     /tmp/ccYIdjbY.s:100272  .debug_str:000000000003af4f .LASF6218
     /tmp/ccYIdjbY.s:90744  .debug_str:0000000000013d1a .LASF6219
     /tmp/ccYIdjbY.s:97754  .debug_str:0000000000030e98 .LASF6220
     /tmp/ccYIdjbY.s:100088  .debug_str:000000000003a362 .LASF6221
     /tmp/ccYIdjbY.s:90748  .debug_str:0000000000013d4a .LASF6222
     /tmp/ccYIdjbY.s:91908  .debug_str:00000000000189ac .LASF6223
     /tmp/ccYIdjbY.s:100842  .debug_str:000000000003d422 .LASF6224
     /tmp/ccYIdjbY.s:98672  .debug_str:0000000000034b82 .LASF6225
     /tmp/ccYIdjbY.s:88088  .debug_str:0000000000009338 .LASF6226
     /tmp/ccYIdjbY.s:91572  .debug_str:00000000000173df .LASF6227
     /tmp/ccYIdjbY.s:98674  .debug_str:0000000000034b88 .LASF6228
     /tmp/ccYIdjbY.s:100700  .debug_str:000000000003cb27 .LASF6229
     /tmp/ccYIdjbY.s:89286  .debug_str:000000000000e2e7 .LASF6230
     /tmp/ccYIdjbY.s:98676  .debug_str:0000000000034b8e .LASF6231
     /tmp/ccYIdjbY.s:94914  .debug_str:00000000000251f5 .LASF6232
     /tmp/ccYIdjbY.s:97834  .debug_str:00000000000313f9 .LASF6233
     /tmp/ccYIdjbY.s:98732  .debug_str:0000000000034f9c .LASF6234
     /tmp/ccYIdjbY.s:98640  .debug_str:00000000000349b7 .LASF6235
     /tmp/ccYIdjbY.s:86400  .debug_str:0000000000001eeb .LASF6236
     /tmp/ccYIdjbY.s:98734  .debug_str:0000000000034fa2 .LASF6237
     /tmp/ccYIdjbY.s:100716  .debug_str:000000000003cc11 .LASF6238
     /tmp/ccYIdjbY.s:101084  .debug_str:000000000003e569 .LASF6239
     /tmp/ccYIdjbY.s:98736  .debug_str:0000000000034fa8 .LASF6240
     /tmp/ccYIdjbY.s:94932  .debug_str:0000000000025347 .LASF6241
     /tmp/ccYIdjbY.s:93462  .debug_str:000000000001f603 .LASF6242
     /tmp/ccYIdjbY.s:98738  .debug_str:0000000000034fae .LASF6243
     /tmp/ccYIdjbY.s:89010  .debug_str:000000000000d27b .LASF6244
     /tmp/ccYIdjbY.s:93466  .debug_str:000000000001f634 .LASF6245
     /tmp/ccYIdjbY.s:98740  .debug_str:0000000000034fb4 .LASF6246
     /tmp/ccYIdjbY.s:101658  .debug_str:0000000000040c1c .LASF6247
     /tmp/ccYIdjbY.s:96534  .debug_str:000000000002bb01 .LASF6248
     /tmp/ccYIdjbY.s:98742  .debug_str:0000000000034fba .LASF6249
     /tmp/ccYIdjbY.s:95928  .debug_str:0000000000029435 .LASF6250
     /tmp/ccYIdjbY.s:103658  .debug_str:00000000000491d0 .LASF6251
     /tmp/ccYIdjbY.s:98744  .debug_str:0000000000034fc0 .LASF6252
     /tmp/ccYIdjbY.s:90020  .debug_str:0000000000010d6e .LASF6253
     /tmp/ccYIdjbY.s:97388  .debug_str:000000000002f52e .LASF6254
     /tmp/ccYIdjbY.s:98746  .debug_str:0000000000034fc6 .LASF6255
     /tmp/ccYIdjbY.s:103782  .debug_str:0000000000049c0f .LASF6256
     /tmp/ccYIdjbY.s:97800  .debug_str:00000000000311a6 .LASF6257
     /tmp/ccYIdjbY.s:95886  .debug_str:0000000000029114 .LASF6258
     /tmp/ccYIdjbY.s:96842  .debug_str:000000000002d08a .LASF6259
     /tmp/ccYIdjbY.s:91344  .debug_str:00000000000163da .LASF6260
     /tmp/ccYIdjbY.s:98750  .debug_str:0000000000034fed .LASF6261
     /tmp/ccYIdjbY.s:90972  .debug_str:0000000000014bc5 .LASF6262
     /tmp/ccYIdjbY.s:97768  .debug_str:0000000000030f67 .LASF6263
     /tmp/ccYIdjbY.s:98828  .debug_str:00000000000355b9 .LASF6264
     /tmp/ccYIdjbY.s:102600  .debug_str:0000000000044964 .LASF6265
     /tmp/ccYIdjbY.s:98556  .debug_str:00000000000343d1 .LASF6266
     /tmp/ccYIdjbY.s:98830  .debug_str:00000000000355bf .LASF6267
     /tmp/ccYIdjbY.s:96858  .debug_str:000000000002d1af .LASF6268
     /tmp/ccYIdjbY.s:86784  .debug_str:0000000000003a71 .LASF6269
     /tmp/ccYIdjbY.s:98832  .debug_str:00000000000355c5 .LASF6270
     /tmp/ccYIdjbY.s:90992  .debug_str:0000000000014cfa .LASF6271
     /tmp/ccYIdjbY.s:89814  .debug_str:000000000000fff1 .LASF6272
     /tmp/ccYIdjbY.s:98834  .debug_str:00000000000355cb .LASF6273
     /tmp/ccYIdjbY.s:103478  .debug_str:000000000004855c .LASF6274
     /tmp/ccYIdjbY.s:89816  .debug_str:000000000000fffb .LASF6275
     /tmp/ccYIdjbY.s:98836  .debug_str:00000000000355d1 .LASF6276
     /tmp/ccYIdjbY.s:86802  .debug_str:0000000000003b68 .LASF6277
     /tmp/ccYIdjbY.s:95266  .debug_str:0000000000026936 .LASF6278
     /tmp/ccYIdjbY.s:96036  .debug_str:0000000000029b08 .LASF6279
     /tmp/ccYIdjbY.s:88978  .debug_str:000000000000d04e .LASF6280
     /tmp/ccYIdjbY.s:103844  .debug_str:000000000004a069 .LASF6281
     /tmp/ccYIdjbY.s:98840  .debug_str:00000000000355e6 .LASF6282
     /tmp/ccYIdjbY.s:86056  .debug_str:00000000000007de .LASF6283
     /tmp/ccYIdjbY.s:103848  .debug_str:000000000004a0a2 .LASF6284
     /tmp/ccYIdjbY.s:98842  .debug_str:00000000000355ec .LASF6285
     /tmp/ccYIdjbY.s:98654  .debug_str:0000000000034a87 .LASF6286
     /tmp/ccYIdjbY.s:89608  .debug_str:000000000000f504 .LASF6287
     /tmp/ccYIdjbY.s:98844  .debug_str:00000000000355f2 .LASF6288
     /tmp/ccYIdjbY.s:92786  .debug_str:000000000001c69a .LASF6289
     /tmp/ccYIdjbY.s:104228  .debug_str:000000000004bb03 .LASF6290
     /tmp/ccYIdjbY.s:98846  .debug_str:00000000000355f8 .LASF6291
     /tmp/ccYIdjbY.s:86954  .debug_str:00000000000045dc .LASF6292
     /tmp/ccYIdjbY.s:97778  .debug_str:0000000000031006 .LASF6293
     /tmp/ccYIdjbY.s:98900  .debug_str:0000000000035a02 .LASF6294
     /tmp/ccYIdjbY.s:98680  .debug_str:0000000000034bbe .LASF6295
     /tmp/ccYIdjbY.s:95012  .debug_str:00000000000257f1 .LASF6296
     /tmp/ccYIdjbY.s:98902  .debug_str:0000000000035a08 .LASF6297
     /tmp/ccYIdjbY.s:92808  .debug_str:000000000001c810 .LASF6298
     /tmp/ccYIdjbY.s:86828  .debug_str:0000000000003d2c .LASF6299
     /tmp/ccYIdjbY.s:98904  .debug_str:0000000000035a0e .LASF6300
     /tmp/ccYIdjbY.s:86972  .debug_str:000000000000477c .LASF6301
     /tmp/ccYIdjbY.s:91018  .debug_str:0000000000014f5b .LASF6302
     /tmp/ccYIdjbY.s:98906  .debug_str:0000000000035a14 .LASF6303
     /tmp/ccYIdjbY.s:99660  .debug_str:00000000000385a9 .LASF6304
     /tmp/ccYIdjbY.s:91020  .debug_str:0000000000014f67 .LASF6305
     /tmp/ccYIdjbY.s:98908  .debug_str:0000000000035a1a .LASF6306
     /tmp/ccYIdjbY.s:93762  .debug_str:0000000000020a51 .LASF6307
     /tmp/ccYIdjbY.s:91234  .debug_str:0000000000015ce3 .LASF6308
     /tmp/ccYIdjbY.s:98910  .debug_str:0000000000035a20 .LASF6309
     /tmp/ccYIdjbY.s:87862  .debug_str:0000000000008385 .LASF6310
     /tmp/ccYIdjbY.s:86646  .debug_str:0000000000003107 .LASF6311
     /tmp/ccYIdjbY.s:98912  .debug_str:0000000000035a26 .LASF6312
     /tmp/ccYIdjbY.s:100470  .debug_str:000000000003bc12 .LASF6313
     /tmp/ccYIdjbY.s:86650  .debug_str:0000000000003153 .LASF6314
     /tmp/ccYIdjbY.s:98914  .debug_str:0000000000035a2c .LASF6315
     /tmp/ccYIdjbY.s:94672  .debug_str:000000000002418a .LASF6316
     /tmp/ccYIdjbY.s:94782  .debug_str:00000000000248c2 .LASF6317
     /tmp/ccYIdjbY.s:98916  .debug_str:0000000000035a32 .LASF6318
     /tmp/ccYIdjbY.s:88774  .debug_str:000000000000c2bb .LASF6319
     /tmp/ccYIdjbY.s:94288  .debug_str:0000000000022d5b .LASF6320
     /tmp/ccYIdjbY.s:98918  .debug_str:0000000000035a38 .LASF6321
     /tmp/ccYIdjbY.s:101394  .debug_str:000000000003fa0b .LASF6322
     /tmp/ccYIdjbY.s:86090  .debug_str:0000000000000a10 .LASF6323
     /tmp/ccYIdjbY.s:98978  .debug_str:0000000000035e13 .LASF6324
     /tmp/ccYIdjbY.s:94698  .debug_str:00000000000243a7 .LASF6325
     /tmp/ccYIdjbY.s:93908  .debug_str:00000000000213f4 .LASF6326
     /tmp/ccYIdjbY.s:96318  .debug_str:000000000002ad6e .LASF6327
     /tmp/ccYIdjbY.s:88796  .debug_str:000000000000c447 .LASF6328
     /tmp/ccYIdjbY.s:99632  .debug_str:00000000000383b8 .LASF6329
     /tmp/ccYIdjbY.s:98982  .debug_str:0000000000035e24 .LASF6330
     /tmp/ccYIdjbY.s:101418  .debug_str:000000000003fbdb .LASF6331
     /tmp/ccYIdjbY.s:92936  .debug_str:000000000001d120 .LASF6332
     /tmp/ccYIdjbY.s:98984  .debug_str:0000000000035e2a .LASF6333
     /tmp/ccYIdjbY.s:95666  .debug_str:00000000000283a9 .LASF6334
     /tmp/ccYIdjbY.s:91102  .debug_str:0000000000015404 .LASF6335
     /tmp/ccYIdjbY.s:98986  .debug_str:0000000000035e30 .LASF6336
     /tmp/ccYIdjbY.s:89746  .debug_str:000000000000fc5a .LASF6337
     /tmp/ccYIdjbY.s:91106  .debug_str:0000000000015421 .LASF6338
     /tmp/ccYIdjbY.s:98988  .debug_str:0000000000035e36 .LASF6339
     /tmp/ccYIdjbY.s:102336  .debug_str:0000000000043724 .LASF6340
     /tmp/ccYIdjbY.s:100472  .debug_str:000000000003bc32 .LASF6341
     /tmp/ccYIdjbY.s:98990  .debug_str:0000000000035e3c .LASF6342
     /tmp/ccYIdjbY.s:96618  .debug_str:000000000002c093 .LASF6343
     /tmp/ccYIdjbY.s:86134  .debug_str:0000000000000ca0 .LASF6344
     /tmp/ccYIdjbY.s:98992  .debug_str:0000000000035e42 .LASF6345
     /tmp/ccYIdjbY.s:90720  .debug_str:0000000000013ba5 .LASF6346
     /tmp/ccYIdjbY.s:86726  .debug_str:00000000000035e4 .LASF6347
     /tmp/ccYIdjbY.s:98994  .debug_str:0000000000035e48 .LASF6348
     /tmp/ccYIdjbY.s:103218  .debug_str:0000000000047330 .LASF6349
     /tmp/ccYIdjbY.s:97688  .debug_str:00000000000309e7 .LASF6350
     /tmp/ccYIdjbY.s:96336  .debug_str:000000000002ae90 .LASF6351
     /tmp/ccYIdjbY.s:97500  .debug_str:000000000002fc0e .LASF6352
     /tmp/ccYIdjbY.s:96024  .debug_str:0000000000029a42 .LASF6353
     /tmp/ccYIdjbY.s:99074  .debug_str:0000000000036362 .LASF6354
     /tmp/ccYIdjbY.s:90906  .debug_str:0000000000014727 .LASF6355
     /tmp/ccYIdjbY.s:96026  .debug_str:0000000000029a50 .LASF6356
     /tmp/ccYIdjbY.s:99076  .debug_str:0000000000036368 .LASF6357
     /tmp/ccYIdjbY.s:103402  .debug_str:0000000000048026 .LASF6358
     /tmp/ccYIdjbY.s:89924  .debug_str:00000000000107bc .LASF6359
     /tmp/ccYIdjbY.s:99078  .debug_str:000000000003636e .LASF6360
     /tmp/ccYIdjbY.s:97680  .debug_str:0000000000030990 .LASF6361
     /tmp/ccYIdjbY.s:91592  .debug_str:0000000000017526 .LASF6362
     /tmp/ccYIdjbY.s:99080  .debug_str:0000000000036374 .LASF6363
     /tmp/ccYIdjbY.s:91816  .debug_str:000000000001835e .LASF6364
     /tmp/ccYIdjbY.s:91596  .debug_str:000000000001756e .LASF6365
     /tmp/ccYIdjbY.s:99082  .debug_str:000000000003637a .LASF6366
     /tmp/ccYIdjbY.s:85968  .debug_str:00000000000001e8 .LASF6367
     /tmp/ccYIdjbY.s:91170  .debug_str:0000000000015821 .LASF6368
     /tmp/ccYIdjbY.s:99084  .debug_str:0000000000036380 .LASF6369
     /tmp/ccYIdjbY.s:101074  .debug_str:000000000003e4c2 .LASF6370
     /tmp/ccYIdjbY.s:89594  .debug_str:000000000000f45a .LASF6371
     /tmp/ccYIdjbY.s:99086  .debug_str:0000000000036386 .LASF6372
     /tmp/ccYIdjbY.s:92732  .debug_str:000000000001c28b .LASF6373
     /tmp/ccYIdjbY.s:104152  .debug_str:000000000004b5d4 .LASF6374
     /tmp/ccYIdjbY.s:99088  .debug_str:000000000003638c .LASF6375
     /tmp/ccYIdjbY.s:86878  .debug_str:00000000000040fc .LASF6376
     /tmp/ccYIdjbY.s:102260  .debug_str:000000000004328e .LASF6377
     /tmp/ccYIdjbY.s:99090  .debug_str:0000000000036392 .LASF6378
     /tmp/ccYIdjbY.s:99580  .debug_str:000000000003807c .LASF6379
     /tmp/ccYIdjbY.s:93832  .debug_str:0000000000020eb6 .LASF6380
     /tmp/ccYIdjbY.s:99092  .debug_str:0000000000036398 .LASF6381
     /tmp/ccYIdjbY.s:93676  .debug_str:0000000000020501 .LASF6382
     /tmp/ccYIdjbY.s:93840  .debug_str:0000000000020f21 .LASF6383
     /tmp/ccYIdjbY.s:99146  .debug_str:00000000000366fc .LASF6384
     /tmp/ccYIdjbY.s:86900  .debug_str:00000000000042cf .LASF6385
     /tmp/ccYIdjbY.s:95860  .debug_str:0000000000028fc1 .LASF6386
     /tmp/ccYIdjbY.s:99148  .debug_str:0000000000036702 .LASF6387
     /tmp/ccYIdjbY.s:99596  .debug_str:000000000003812f .LASF6388
     /tmp/ccYIdjbY.s:100064  .debug_str:000000000003a1fc .LASF6389
     /tmp/ccYIdjbY.s:99150  .debug_str:0000000000036708 .LASF6390
     /tmp/ccYIdjbY.s:93690  .debug_str:00000000000205db .LASF6391
     /tmp/ccYIdjbY.s:100068  .debug_str:000000000003a222 .LASF6392
     /tmp/ccYIdjbY.s:99152  .debug_str:000000000003670e .LASF6393
     /tmp/ccYIdjbY.s:87792  .debug_str:0000000000007ea8 .LASF6394
     /tmp/ccYIdjbY.s:98112  .debug_str:000000000003262b .LASF6395
     /tmp/ccYIdjbY.s:99154  .debug_str:0000000000036714 .LASF6396
     /tmp/ccYIdjbY.s:100388  .debug_str:000000000003b746 .LASF6397
     /tmp/ccYIdjbY.s:92210  .debug_str:0000000000019f65 .LASF6398
     /tmp/ccYIdjbY.s:99156  .debug_str:000000000003671a .LASF6399
     /tmp/ccYIdjbY.s:94582  .debug_str:0000000000023d3e .LASF6400
     /tmp/ccYIdjbY.s:92214  .debug_str:0000000000019f92 .LASF6401
     /tmp/ccYIdjbY.s:99158  .debug_str:0000000000036720 .LASF6402
     /tmp/ccYIdjbY.s:88694  .debug_str:000000000000bd6c .LASF6403
     /tmp/ccYIdjbY.s:92196  .debug_str:0000000000019e9d .LASF6404
     /tmp/ccYIdjbY.s:99160  .debug_str:0000000000036726 .LASF6405
     /tmp/ccYIdjbY.s:101302  .debug_str:000000000003f3ac .LASF6406
     /tmp/ccYIdjbY.s:86480  .debug_str:00000000000024cf .LASF6407
     /tmp/ccYIdjbY.s:99162  .debug_str:000000000003672c .LASF6408
     /tmp/ccYIdjbY.s:95566  .debug_str:0000000000027cc3 .LASF6409
     /tmp/ccYIdjbY.s:102316  .debug_str:0000000000043629 .LASF6410
     /tmp/ccYIdjbY.s:99164  .debug_str:0000000000036732 .LASF6411
     /tmp/ccYIdjbY.s:97310  .debug_str:000000000002efc7 .LASF6412
     /tmp/ccYIdjbY.s:100710  .debug_str:000000000003cbbd .LASF6413
     /tmp/ccYIdjbY.s:99224  .debug_str:0000000000036ad1 .LASF6414
     /tmp/ccYIdjbY.s:101336  .debug_str:000000000003f593 .LASF6415
     /tmp/ccYIdjbY.s:104102  .debug_str:000000000004b1ef .LASF6416
     /tmp/ccYIdjbY.s:99226  .debug_str:0000000000036ad7 .LASF6417
     /tmp/ccYIdjbY.s:95586  .debug_str:0000000000027e36 .LASF6418
     /tmp/ccYIdjbY.s:100518  .debug_str:000000000003bf6f .LASF6419
     /tmp/ccYIdjbY.s:99228  .debug_str:0000000000036add .LASF6420
     /tmp/ccYIdjbY.s:89668  .debug_str:000000000000f7bc .LASF6421
     /tmp/ccYIdjbY.s:87246  .debug_str:0000000000005a6e .LASF6422
     /tmp/ccYIdjbY.s:99230  .debug_str:0000000000036ae3 .LASF6423
     /tmp/ccYIdjbY.s:102268  .debug_str:00000000000432f1 .LASF6424
     /tmp/ccYIdjbY.s:95744  .debug_str:000000000002886a .LASF6425
     /tmp/ccYIdjbY.s:99232  .debug_str:0000000000036ae9 .LASF6426
     /tmp/ccYIdjbY.s:96546  .debug_str:000000000002bbbd .LASF6427
     /tmp/ccYIdjbY.s:99118  .debug_str:000000000003655c .LASF6428
     /tmp/ccYIdjbY.s:99234  .debug_str:0000000000036aef .LASF6429
     /tmp/ccYIdjbY.s:90644  .debug_str:0000000000013702 .LASF6430
     /tmp/ccYIdjbY.s:94938  .debug_str:00000000000253a8 .LASF6431
     /tmp/ccYIdjbY.s:99236  .debug_str:0000000000036af5 .LASF6432
     /tmp/ccYIdjbY.s:103140  .debug_str:0000000000046d1e .LASF6433
     /tmp/ccYIdjbY.s:91338  .debug_str:00000000000163ad .LASF6434
     /tmp/ccYIdjbY.s:99238  .debug_str:0000000000036afb .LASF6435
     /tmp/ccYIdjbY.s:97422  .debug_str:000000000002f738 .LASF6436
     /tmp/ccYIdjbY.s:91342  .debug_str:00000000000163ce .LASF6437
     /tmp/ccYIdjbY.s:99240  .debug_str:0000000000036b01 .LASF6438
     /tmp/ccYIdjbY.s:91568  .debug_str:00000000000173a4 .LASF6439
     /tmp/ccYIdjbY.s:94988  .debug_str:00000000000255ea .LASF6440
     /tmp/ccYIdjbY.s:99242  .debug_str:0000000000036b07 .LASF6441
     /tmp/ccYIdjbY.s:104088  .debug_str:000000000004b113 .LASF6442
     /tmp/ccYIdjbY.s:95286  .debug_str:0000000000026a97 .LASF6443
     /tmp/ccYIdjbY.s:99308  .debug_str:0000000000036f56 .LASF6444
     /tmp/ccYIdjbY.s:98392  .debug_str:000000000003393e .LASF6445
     /tmp/ccYIdjbY.s:98170  .debug_str:0000000000032a3a .LASF6446
     /tmp/ccYIdjbY.s:99310  .debug_str:0000000000036f5c .LASF6447
     /tmp/ccYIdjbY.s:91586  .debug_str:00000000000174d2 .LASF6448
     /tmp/ccYIdjbY.s:97498  .debug_str:000000000002fc00 .LASF6449
     /tmp/ccYIdjbY.s:96916  .debug_str:000000000002d59e .LASF6450
     /tmp/ccYIdjbY.s:91994  .debug_str:0000000000018f98 .LASF6451
     /tmp/ccYIdjbY.s:100624  .debug_str:000000000003c681 .LASF6452
     /tmp/ccYIdjbY.s:99314  .debug_str:0000000000036f7f .LASF6453
     /tmp/ccYIdjbY.s:98344  .debug_str:0000000000033666 .LASF6454
     /tmp/ccYIdjbY.s:86716  .debug_str:000000000000354b .LASF6455
     /tmp/ccYIdjbY.s:96922  .debug_str:000000000002d5f7 .LASF6456
     /tmp/ccYIdjbY.s:92504  .debug_str:000000000001b353 .LASF6457
     /tmp/ccYIdjbY.s:92140  .debug_str:0000000000019ac0 .LASF6458
     /tmp/ccYIdjbY.s:99318  .debug_str:0000000000036fa3 .LASF6459
     /tmp/ccYIdjbY.s:86676  .debug_str:0000000000003345 .LASF6460
     /tmp/ccYIdjbY.s:90460  .debug_str:0000000000012b3f .LASF6461
     /tmp/ccYIdjbY.s:99320  .debug_str:0000000000036fa9 .LASF6462
     /tmp/ccYIdjbY.s:97626  .debug_str:00000000000305da .LASF6463
     /tmp/ccYIdjbY.s:100154  .debug_str:000000000003a73f .LASF6464
     /tmp/ccYIdjbY.s:99322  .debug_str:0000000000036faf .LASF6465
     /tmp/ccYIdjbY.s:93444  .debug_str:000000000001f4e4 .LASF6466
     /tmp/ccYIdjbY.s:86634  .debug_str:000000000000306f .LASF6467
     /tmp/ccYIdjbY.s:99324  .debug_str:0000000000036fb5 .LASF6468
     /tmp/ccYIdjbY.s:87552  .debug_str:0000000000006fac .LASF6469
     /tmp/ccYIdjbY.s:94238  .debug_str:0000000000022a5c .LASF6470
     /tmp/ccYIdjbY.s:99326  .debug_str:0000000000036fbb .LASF6471
     /tmp/ccYIdjbY.s:100176  .debug_str:000000000003a8bf .LASF6472
     /tmp/ccYIdjbY.s:99028  .debug_str:00000000000360d0 .LASF6473
     /tmp/ccYIdjbY.s:89230  .debug_str:000000000000dfb7 .LASF6474
     /tmp/ccYIdjbY.s:87524  .debug_str:0000000000006dd1 .LASF6475
     /tmp/ccYIdjbY.s:99032  .debug_str:0000000000036117 .LASF6476
     /tmp/ccYIdjbY.s:90438  .debug_str:0000000000012a4b .LASF6477
     /tmp/ccYIdjbY.s:100152  .debug_str:000000000003a71e .LASF6478
     /tmp/ccYIdjbY.s:92002  .debug_str:0000000000019045 .LASF6479
     /tmp/ccYIdjbY.s:90442  .debug_str:0000000000012a71 .LASF6480
     /tmp/ccYIdjbY.s:92252  .debug_str:000000000001a214 .LASF6481
     /tmp/ccYIdjbY.s:94616  .debug_str:0000000000023fa0 .LASF6482
     /tmp/ccYIdjbY.s:90446  .debug_str:0000000000012a80 .LASF6483
     /tmp/ccYIdjbY.s:88414  .debug_str:000000000000a979 .LASF6484
     /tmp/ccYIdjbY.s:94618  .debug_str:0000000000023faf .LASF6485
     /tmp/ccYIdjbY.s:89238  .debug_str:000000000000e030 .LASF6486
     /tmp/ccYIdjbY.s:101006  .debug_str:000000000003e01d .LASF6487
     /tmp/ccYIdjbY.s:93692  .debug_str:00000000000205fb .LASF6488
     /tmp/ccYIdjbY.s:89240  .debug_str:000000000000e037 .LASF6489
     /tmp/ccYIdjbY.s:95252  .debug_str:00000000000267f2 .LASF6490
     /tmp/ccYIdjbY.s:91630  .debug_str:00000000000177c8 .LASF6491
     /tmp/ccYIdjbY.s:89242  .debug_str:000000000000e03e .LASF6492
     /tmp/ccYIdjbY.s:89336  .debug_str:000000000000e46d .LASF6493
     /tmp/ccYIdjbY.s:88544  .debug_str:000000000000b34b .LASF6494
     /tmp/ccYIdjbY.s:89244  .debug_str:000000000000e045 .LASF6495
     /tmp/ccYIdjbY.s:101978  .debug_str:0000000000042063 .LASF6496
     /tmp/ccYIdjbY.s:94836  .debug_str:0000000000024ce3 .LASF6497
     /tmp/ccYIdjbY.s:89246  .debug_str:000000000000e04c .LASF6498
     /tmp/ccYIdjbY.s:96216  .debug_str:000000000002a6f2 .LASF6499
     /tmp/ccYIdjbY.s:94838  .debug_str:0000000000024cf4 .LASF6500
     /tmp/ccYIdjbY.s:89248  .debug_str:000000000000e053 .LASF6501
     /tmp/ccYIdjbY.s:90328  .debug_str:0000000000012278 .LASF6502
     /tmp/ccYIdjbY.s:101376  .debug_str:000000000003f8ae .LASF6503
     /tmp/ccYIdjbY.s:89302  .debug_str:000000000000e371 .LASF6504
     /tmp/ccYIdjbY.s:101998  .debug_str:000000000004219d .LASF6505
     /tmp/ccYIdjbY.s:90478  .debug_str:0000000000012c98 .LASF6506
     /tmp/ccYIdjbY.s:89304  .debug_str:000000000000e378 .LASF6507
     /tmp/ccYIdjbY.s:96234  .debug_str:000000000002a804 .LASF6508
     /tmp/ccYIdjbY.s:90480  .debug_str:0000000000012ca9 .LASF6509
     /tmp/ccYIdjbY.s:89306  .debug_str:000000000000e37f .LASF6510
     /tmp/ccYIdjbY.s:90344  .debug_str:0000000000012378 .LASF6511
     /tmp/ccYIdjbY.s:87610  .debug_str:0000000000007345 .LASF6512
     /tmp/ccYIdjbY.s:90600  .debug_str:000000000001342f .LASF6513
     /tmp/ccYIdjbY.s:102860  .debug_str:0000000000045af6 .LASF6514
     /tmp/ccYIdjbY.s:97316  .debug_str:000000000002f006 .LASF6515
     /tmp/ccYIdjbY.s:89310  .debug_str:000000000000e3aa .LASF6516
     /tmp/ccYIdjbY.s:97136  .debug_str:000000000002e4e1 .LASF6517
     /tmp/ccYIdjbY.s:97322  .debug_str:000000000002f04f .LASF6518
     /tmp/ccYIdjbY.s:89312  .debug_str:000000000000e3b1 .LASF6519
     /tmp/ccYIdjbY.s:91274  .debug_str:0000000000015f93 .LASF6520
     /tmp/ccYIdjbY.s:88158  .debug_str:000000000000983e .LASF6521
     /tmp/ccYIdjbY.s:89314  .debug_str:000000000000e3b8 .LASF6522
     /tmp/ccYIdjbY.s:86894  .debug_str:0000000000004279 .LASF6523
     /tmp/ccYIdjbY.s:86028  .debug_str:0000000000000648 .LASF6524
     /tmp/ccYIdjbY.s:89316  .debug_str:000000000000e3bf .LASF6525
     /tmp/ccYIdjbY.s:98056  .debug_str:000000000003227c .LASF6526
     /tmp/ccYIdjbY.s:87708  .debug_str:000000000000791e .LASF6527
     /tmp/ccYIdjbY.s:89318  .debug_str:000000000000e3c6 .LASF6528
     /tmp/ccYIdjbY.s:92192  .debug_str:0000000000019e71 .LASF6529
     /tmp/ccYIdjbY.s:97368  .debug_str:000000000002f3af .LASF6530
     /tmp/ccYIdjbY.s:89320  .debug_str:000000000000e3cd .LASF6531
     /tmp/ccYIdjbY.s:86334  .debug_str:0000000000001a7c .LASF6532
     /tmp/ccYIdjbY.s:93328  .debug_str:000000000001ec95 .LASF6533
     /tmp/ccYIdjbY.s:89398  .debug_str:000000000000e8e5 .LASF6534
     /tmp/ccYIdjbY.s:103306  .debug_str:0000000000047978 .LASF6535
     /tmp/ccYIdjbY.s:97462  .debug_str:000000000002f986 .LASF6536
     /tmp/ccYIdjbY.s:89400  .debug_str:000000000000e8ec .LASF6537
     /tmp/ccYIdjbY.s:92212  .debug_str:0000000000019f71 .LASF6538
     /tmp/ccYIdjbY.s:90750  .debug_str:0000000000013d51 .LASF6539
     /tmp/ccYIdjbY.s:89402  .debug_str:000000000000e8f3 .LASF6540
     /tmp/ccYIdjbY.s:86354  .debug_str:0000000000001bcd .LASF6541
     /tmp/ccYIdjbY.s:93050  .debug_str:000000000001d89d .LASF6542
     /tmp/ccYIdjbY.s:89404  .debug_str:000000000000e8fa .LASF6543
     /tmp/ccYIdjbY.s:102920  .debug_str:0000000000045efa .LASF6544
     /tmp/ccYIdjbY.s:93052  .debug_str:000000000001d8ac .LASF6545
     /tmp/ccYIdjbY.s:89406  .debug_str:000000000000e901 .LASF6546
     /tmp/ccYIdjbY.s:93114  .debug_str:000000000001dd98 .LASF6547
     /tmp/ccYIdjbY.s:86892  .debug_str:000000000000426c .LASF6548
     /tmp/ccYIdjbY.s:89408  .debug_str:000000000000e908 .LASF6549
     /tmp/ccYIdjbY.s:87278  .debug_str:0000000000005ca9 .LASF6550
     /tmp/ccYIdjbY.s:86360  .debug_str:0000000000001c57 .LASF6551
     /tmp/ccYIdjbY.s:92054  .debug_str:000000000001940a .LASF6552
     /tmp/ccYIdjbY.s:99918  .debug_str:00000000000397ee .LASF6553
     /tmp/ccYIdjbY.s:86364  .debug_str:0000000000001c93 .LASF6554
     /tmp/ccYIdjbY.s:89412  .debug_str:000000000000e937 .LASF6555
     /tmp/ccYIdjbY.s:86286  .debug_str:0000000000001702 .LASF6556
     /tmp/ccYIdjbY.s:104188  .debug_str:000000000004b837 .LASF6557
     /tmp/ccYIdjbY.s:89414  .debug_str:000000000000e93e .LASF6558
     /tmp/ccYIdjbY.s:104082  .debug_str:000000000004b0cc .LASF6559
     /tmp/ccYIdjbY.s:100394  .debug_str:000000000003b7b6 .LASF6560
     /tmp/ccYIdjbY.s:89416  .debug_str:000000000000e945 .LASF6561
     /tmp/ccYIdjbY.s:100754  .debug_str:000000000003ce6a .LASF6562
     /tmp/ccYIdjbY.s:92722  .debug_str:000000000001c1c6 .LASF6563
     /tmp/ccYIdjbY.s:90898  .debug_str:00000000000146da .LASF6564
     /tmp/ccYIdjbY.s:100580  .debug_str:000000000003c3a9 .LASF6565
     /tmp/ccYIdjbY.s:92882  .debug_str:000000000001cd82 .LASF6566
     /tmp/ccYIdjbY.s:89470  .debug_str:000000000000eca3 .LASF6567
     /tmp/ccYIdjbY.s:88098  .debug_str:0000000000009404 .LASF6568
     /tmp/ccYIdjbY.s:101082  .debug_str:000000000003e55b .LASF6569
     /tmp/ccYIdjbY.s:89472  .debug_str:000000000000ecaa .LASF6570
     /tmp/ccYIdjbY.s:100776  .debug_str:000000000003cfe0 .LASF6571
     /tmp/ccYIdjbY.s:90496  .debug_str:0000000000012d7c .LASF6572
     /tmp/ccYIdjbY.s:89474  .debug_str:000000000000ecb1 .LASF6573
     /tmp/ccYIdjbY.s:95018  .debug_str:0000000000025843 .LASF6574
     /tmp/ccYIdjbY.s:98152  .debug_str:00000000000328c8 .LASF6575
     /tmp/ccYIdjbY.s:89476  .debug_str:000000000000ecb8 .LASF6576
     /tmp/ccYIdjbY.s:89074  .debug_str:000000000000d624 .LASF6577
     /tmp/ccYIdjbY.s:87470  .debug_str:0000000000006a0a .LASF6578
     /tmp/ccYIdjbY.s:89478  .debug_str:000000000000ecbf .LASF6579
     /tmp/ccYIdjbY.s:101712  .debug_str:0000000000040f5c .LASF6580
     /tmp/ccYIdjbY.s:90880  .debug_str:00000000000145a7 .LASF6581
     /tmp/ccYIdjbY.s:90922  .debug_str:0000000000014859 .LASF6582
     /tmp/ccYIdjbY.s:95984  .debug_str:0000000000029806 .LASF6583
     /tmp/ccYIdjbY.s:98670  .debug_str:0000000000034b76 .LASF6584
     /tmp/ccYIdjbY.s:89482  .debug_str:000000000000ecf4 .LASF6585
     /tmp/ccYIdjbY.s:87412  .debug_str:00000000000065af .LASF6586
     /tmp/ccYIdjbY.s:99036  .debug_str:000000000003614f .LASF6587
     /tmp/ccYIdjbY.s:89484  .debug_str:000000000000ecfb .LASF6588
     /tmp/ccYIdjbY.s:102638  .debug_str:0000000000044bb6 .LASF6589
     /tmp/ccYIdjbY.s:96974  .debug_str:000000000002d8fe .LASF6590
     /tmp/ccYIdjbY.s:90928  .debug_str:00000000000148ac .LASF6591
     /tmp/ccYIdjbY.s:99508  .debug_str:0000000000037b63 .LASF6592
     /tmp/ccYIdjbY.s:93484  .debug_str:000000000001f72f .LASF6593
     /tmp/ccYIdjbY.s:89548  .debug_str:000000000000f1db .LASF6594
     /tmp/ccYIdjbY.s:97912  .debug_str:0000000000031972 .LASF6595
     /tmp/ccYIdjbY.s:94216  .debug_str:000000000002287e .LASF6596
     /tmp/ccYIdjbY.s:89550  .debug_str:000000000000f1e2 .LASF6597
     /tmp/ccYIdjbY.s:102654  .debug_str:0000000000044cd2 .LASF6598
     /tmp/ccYIdjbY.s:87244  .debug_str:0000000000005a63 .LASF6599
     /tmp/ccYIdjbY.s:89552  .debug_str:000000000000f1e9 .LASF6600
     /tmp/ccYIdjbY.s:96924  .debug_str:000000000002d5fd .LASF6601
     /tmp/ccYIdjbY.s:91116  .debug_str:00000000000154b0 .LASF6602
     /tmp/ccYIdjbY.s:89554  .debug_str:000000000000f1f0 .LASF6603
     /tmp/ccYIdjbY.s:91040  .debug_str:0000000000015074 .LASF6604
     /tmp/ccYIdjbY.s:91096  .debug_str:00000000000153b0 .LASF6605
     /tmp/ccYIdjbY.s:89556  .debug_str:000000000000f1f7 .LASF6606
     /tmp/ccYIdjbY.s:103542  .debug_str:00000000000489ad .LASF6607
     /tmp/ccYIdjbY.s:90104  .debug_str:000000000001136c .LASF6608
     /tmp/ccYIdjbY.s:89558  .debug_str:000000000000f1fe .LASF6609
     /tmp/ccYIdjbY.s:91080  .debug_str:000000000001525d .LASF6610
     /tmp/ccYIdjbY.s:92600  .debug_str:000000000001ba65 .LASF6611
     /tmp/ccYIdjbY.s:91066  .debug_str:00000000000151eb .LASF6612
     /tmp/ccYIdjbY.s:97120  .debug_str:000000000002e37e .LASF6613
     /tmp/ccYIdjbY.s:96292  .debug_str:000000000002ac04 .LASF6614
     /tmp/ccYIdjbY.s:91068  .debug_str:00000000000151f2 .LASF6615
     /tmp/ccYIdjbY.s:86114  .debug_str:0000000000000b5b .LASF6616
     /tmp/ccYIdjbY.s:97986  .debug_str:0000000000031e20 .LASF6617
     /tmp/ccYIdjbY.s:91070  .debug_str:00000000000151f9 .LASF6618
     /tmp/ccYIdjbY.s:98708  .debug_str:0000000000034dc9 .LASF6619
     /tmp/ccYIdjbY.s:87236  .debug_str:00000000000059cc .LASF6620
     /tmp/ccYIdjbY.s:91072  .debug_str:0000000000015200 .LASF6621
     /tmp/ccYIdjbY.s:92846  .debug_str:000000000001cad7 .LASF6622
     /tmp/ccYIdjbY.s:101018  .debug_str:000000000003e11e .LASF6623
     /tmp/ccYIdjbY.s:89636  .debug_str:000000000000f6c8 .LASF6624
     /tmp/ccYIdjbY.s:86128  .debug_str:0000000000000c25 .LASF6625
     /tmp/ccYIdjbY.s:91874  .debug_str:0000000000018774 .LASF6626
     /tmp/ccYIdjbY.s:89638  .debug_str:000000000000f6cf .LASF6627
     /tmp/ccYIdjbY.s:101080  .debug_str:000000000003e53a .LASF6628
     /tmp/ccYIdjbY.s:102306  .debug_str:0000000000043569 .LASF6629
     /tmp/ccYIdjbY.s:89640  .debug_str:000000000000f6d6 .LASF6630
     /tmp/ccYIdjbY.s:92868  .debug_str:000000000001cc86 .LASF6631
     /tmp/ccYIdjbY.s:88288  .debug_str:000000000000a11c .LASF6632
     /tmp/ccYIdjbY.s:89642  .debug_str:000000000000f6dd .LASF6633
     /tmp/ccYIdjbY.s:102346  .debug_str:00000000000437ed .LASF6634
     /tmp/ccYIdjbY.s:96566  .debug_str:000000000002bd0b .LASF6635
     /tmp/ccYIdjbY.s:89644  .debug_str:000000000000f6e4 .LASF6636
     /tmp/ccYIdjbY.s:99708  .debug_str:00000000000388d4 .LASF6637
     /tmp/ccYIdjbY.s:90038  .debug_str:0000000000010eb9 .LASF6638
     /tmp/ccYIdjbY.s:89646  .debug_str:000000000000f6eb .LASF6639
     /tmp/ccYIdjbY.s:93828  .debug_str:0000000000020e5b .LASF6640
     /tmp/ccYIdjbY.s:103150  .debug_str:0000000000046de1 .LASF6641
     /tmp/ccYIdjbY.s:89648  .debug_str:000000000000f6f2 .LASF6642
     /tmp/ccYIdjbY.s:87908  .debug_str:000000000000865b .LASF6643
     /tmp/ccYIdjbY.s:92060  .debug_str:0000000000019474 .LASF6644
     /tmp/ccYIdjbY.s:89650  .debug_str:000000000000f6f9 .LASF6645
     /tmp/ccYIdjbY.s:100538  .debug_str:000000000003c0df .LASF6646
     /tmp/ccYIdjbY.s:103930  .debug_str:000000000004a6ec .LASF6647
     /tmp/ccYIdjbY.s:89652  .debug_str:000000000000f700 .LASF6648
     /tmp/ccYIdjbY.s:94748  .debug_str:000000000002467e .LASF6649
     /tmp/ccYIdjbY.s:86382  .debug_str:0000000000001da6 .LASF6650
     /tmp/ccYIdjbY.s:89654  .debug_str:000000000000f707 .LASF6651
     /tmp/ccYIdjbY.s:88832  .debug_str:000000000000c675 .LASF6652
     /tmp/ccYIdjbY.s:87648  .debug_str:0000000000007591 .LASF6653
     /tmp/ccYIdjbY.s:89696  .debug_str:000000000000f98b .LASF6654
     /tmp/ccYIdjbY.s:100706  .debug_str:000000000003cb83 .LASF6655
     /tmp/ccYIdjbY.s:96200  .debug_str:000000000002a618 .LASF6656
     /tmp/ccYIdjbY.s:89698  .debug_str:000000000000f992 .LASF6657
     /tmp/ccYIdjbY.s:94920  .debug_str:000000000002524b .LASF6658
     /tmp/ccYIdjbY.s:99688  .debug_str:00000000000387e8 .LASF6659
     /tmp/ccYIdjbY.s:89700  .debug_str:000000000000f999 .LASF6660
     /tmp/ccYIdjbY.s:88994  .debug_str:000000000000d15b .LASF6661
     /tmp/ccYIdjbY.s:100656  .debug_str:000000000003c884 .LASF6662
     /tmp/ccYIdjbY.s:92916  .debug_str:000000000001d000 .LASF6663
     /tmp/ccYIdjbY.s:101642  .debug_str:0000000000040ae9 .LASF6664
     /tmp/ccYIdjbY.s:100430  .debug_str:000000000003ba62 .LASF6665
     /tmp/ccYIdjbY.s:89704  .debug_str:000000000000f9c1 .LASF6666
     /tmp/ccYIdjbY.s:95910  .debug_str:0000000000029238 .LASF6667
     /tmp/ccYIdjbY.s:91210  .debug_str:0000000000015af6 .LASF6668
     /tmp/ccYIdjbY.s:89706  .debug_str:000000000000f9c8 .LASF6669
     /tmp/ccYIdjbY.s:86164  .debug_str:0000000000000ece .LASF6670
     /tmp/ccYIdjbY.s:99592  .debug_str:0000000000038106 .LASF6671
     /tmp/ccYIdjbY.s:89708  .debug_str:000000000000f9cf .LASF6672
     /tmp/ccYIdjbY.s:92184  .debug_str:0000000000019dc2 .LASF6673
     /tmp/ccYIdjbY.s:97632  .debug_str:000000000003067f .LASF6674
     /tmp/ccYIdjbY.s:89710  .debug_str:000000000000f9d6 .LASF6675
     /tmp/ccYIdjbY.s:96828  .debug_str:000000000002cf27 .LASF6676
     /tmp/ccYIdjbY.s:96820  .debug_str:000000000002ce8f .LASF6677
     /tmp/ccYIdjbY.s:89712  .debug_str:000000000000f9dd .LASF6678
     /tmp/ccYIdjbY.s:104130  .debug_str:000000000004b3ef .LASF6679
     /tmp/ccYIdjbY.s:92608  .debug_str:000000000001bae6 .LASF6680
     /tmp/ccYIdjbY.s:91382  .debug_str:00000000000166ec .LASF6681
     /tmp/ccYIdjbY.s:103446  .debug_str:000000000004830e .LASF6682
     /tmp/ccYIdjbY.s:86302  .debug_str:0000000000001844 .LASF6683
     /tmp/ccYIdjbY.s:91492  .debug_str:0000000000016ea0 .LASF6684
     /tmp/ccYIdjbY.s:96850  .debug_str:000000000002d0fb .LASF6685
     /tmp/ccYIdjbY.s:88160  .debug_str:000000000000984a .LASF6686
     /tmp/ccYIdjbY.s:91496  .debug_str:0000000000016edb .LASF6687
     /tmp/ccYIdjbY.s:90982  .debug_str:0000000000014c6a .LASF6688
     /tmp/ccYIdjbY.s:88164  .debug_str:000000000000986c .LASF6689
     /tmp/ccYIdjbY.s:89784  .debug_str:000000000000fe8c .LASF6690
     /tmp/ccYIdjbY.s:103472  .debug_str:00000000000484e6 .LASF6691
     /tmp/ccYIdjbY.s:99190  .debug_str:00000000000368e3 .LASF6692
     /tmp/ccYIdjbY.s:89786  .debug_str:000000000000fe93 .LASF6693
     /tmp/ccYIdjbY.s:89782  .debug_str:000000000000fe6b .LASF6694
     /tmp/ccYIdjbY.s:99168  .debug_str:000000000003675b .LASF6695
     /tmp/ccYIdjbY.s:89788  .debug_str:000000000000fe9a .LASF6696
     /tmp/ccYIdjbY.s:91882  .debug_str:00000000000187de .LASF6697
     /tmp/ccYIdjbY.s:99172  .debug_str:00000000000367a5 .LASF6698
     /tmp/ccYIdjbY.s:89790  .debug_str:000000000000fea1 .LASF6699
     /tmp/ccYIdjbY.s:86038  .debug_str:00000000000006d9 .LASF6700
     /tmp/ccYIdjbY.s:99478  .debug_str:000000000003793a .LASF6701
     /tmp/ccYIdjbY.s:89792  .debug_str:000000000000fea8 .LASF6702
     /tmp/ccYIdjbY.s:98638  .debug_str:0000000000034996 .LASF6703
     /tmp/ccYIdjbY.s:94760  .debug_str:000000000002472e .LASF6704
     /tmp/ccYIdjbY.s:89794  .debug_str:000000000000feaf .LASF6705
     /tmp/ccYIdjbY.s:92776  .debug_str:000000000001c5f2 .LASF6706
     /tmp/ccYIdjbY.s:94764  .debug_str:000000000002477d .LASF6707
     /tmp/ccYIdjbY.s:89796  .debug_str:000000000000feb6 .LASF6708
     /tmp/ccYIdjbY.s:86940  .debug_str:0000000000004507 .LASF6709
     /tmp/ccYIdjbY.s:100418  .debug_str:000000000003b972 .LASF6710
     /tmp/ccYIdjbY.s:91516  .debug_str:0000000000016ff4 .LASF6711
     /tmp/ccYIdjbY.s:88938  .debug_str:000000000000cdaa .LASF6712
     /tmp/ccYIdjbY.s:92416  .debug_str:000000000001adad .LASF6713
     /tmp/ccYIdjbY.s:93406  .debug_str:000000000001f2e0 .LASF6714
     /tmp/ccYIdjbY.s:92788  .debug_str:000000000001c6ba .LASF6715
     /tmp/ccYIdjbY.s:92420  .debug_str:000000000001add8 .LASF6716
     /tmp/ccYIdjbY.s:89864  .debug_str:00000000000103ee .LASF6717
     /tmp/ccYIdjbY.s:86956  .debug_str:00000000000045fc .LASF6718
     /tmp/ccYIdjbY.s:99642  .debug_str:0000000000038457 .LASF6719
     /tmp/ccYIdjbY.s:89866  .debug_str:00000000000103f5 .LASF6720
     /tmp/ccYIdjbY.s:99646  .debug_str:0000000000038492 .LASF6721
     /tmp/ccYIdjbY.s:87966  .debug_str:0000000000008ad5 .LASF6722
     /tmp/ccYIdjbY.s:91654  .debug_str:0000000000017960 .LASF6723
     /tmp/ccYIdjbY.s:93744  .debug_str:00000000000208c6 .LASF6724
     /tmp/ccYIdjbY.s:87970  .debug_str:0000000000008b00 .LASF6725
     /tmp/ccYIdjbY.s:89870  .debug_str:000000000001043f .LASF6726
     /tmp/ccYIdjbY.s:87848  .debug_str:0000000000008280 .LASF6727
     /tmp/ccYIdjbY.s:91056  .debug_str:0000000000015150 .LASF6728
     /tmp/ccYIdjbY.s:89872  .debug_str:0000000000010446 .LASF6729
     /tmp/ccYIdjbY.s:100446  .debug_str:000000000003bb5d .LASF6730
     /tmp/ccYIdjbY.s:93288  .debug_str:000000000001e9f5 .LASF6731
     /tmp/ccYIdjbY.s:89874  .debug_str:000000000001044d .LASF6732
     /tmp/ccYIdjbY.s:94658  .debug_str:00000000000240c8 .LASF6733
     /tmp/ccYIdjbY.s:93290  .debug_str:000000000001ea03 .LASF6734
     /tmp/ccYIdjbY.s:89876  .debug_str:0000000000010454 .LASF6735
     /tmp/ccYIdjbY.s:88754  .debug_str:000000000000c154 .LASF6736
     /tmp/ccYIdjbY.s:96732  .debug_str:000000000002c8e9 .LASF6737
     /tmp/ccYIdjbY.s:91670  .debug_str:00000000000179da .LASF6738
     /tmp/ccYIdjbY.s:101380  .debug_str:000000000003f8e9 .LASF6739
     /tmp/ccYIdjbY.s:88850  .debug_str:000000000000c7f1 .LASF6740
     /tmp/ccYIdjbY.s:89880  .debug_str:0000000000010485 .LASF6741
     /tmp/ccYIdjbY.s:95632  .debug_str:0000000000028128 .LASF6742
     /tmp/ccYIdjbY.s:88854  .debug_str:000000000000c834 .LASF6743
     /tmp/ccYIdjbY.s:89952  .debug_str:00000000000109a1 .LASF6744
     /tmp/ccYIdjbY.s:88784  .debug_str:000000000000c379 .LASF6745
     /tmp/ccYIdjbY.s:92124  .debug_str:0000000000019990 .LASF6746
     /tmp/ccYIdjbY.s:89954  .debug_str:00000000000109a8 .LASF6747
     /tmp/ccYIdjbY.s:101402  .debug_str:000000000003fab4 .LASF6748
     /tmp/ccYIdjbY.s:102642  .debug_str:0000000000044bea .LASF6749
     /tmp/ccYIdjbY.s:89956  .debug_str:00000000000109af .LASF6750
     /tmp/ccYIdjbY.s:95652  .debug_str:000000000002825e .LASF6751
     /tmp/ccYIdjbY.s:88378  .debug_str:000000000000a731 .LASF6752
     /tmp/ccYIdjbY.s:93642  .debug_str:0000000000020294 .LASF6753
     /tmp/ccYIdjbY.s:102694  .debug_str:0000000000044f57 .LASF6754
     /tmp/ccYIdjbY.s:91262  .debug_str:0000000000015e9c .LASF6755
     /tmp/ccYIdjbY.s:89960  .debug_str:00000000000109e0 .LASF6756
     /tmp/ccYIdjbY.s:102328  .debug_str:0000000000043695 .LASF6757
     /tmp/ccYIdjbY.s:102458  .debug_str:0000000000043fce .LASF6758
     /tmp/ccYIdjbY.s:89962  .debug_str:00000000000109e7 .LASF6759
     /tmp/ccYIdjbY.s:96604  .debug_str:000000000002bfe9 .LASF6760
     /tmp/ccYIdjbY.s:102462  .debug_str:000000000004400a .LASF6761
     /tmp/ccYIdjbY.s:89964  .debug_str:00000000000109ee .LASF6762
     /tmp/ccYIdjbY.s:90700  .debug_str:0000000000013a5c .LASF6763
     /tmp/ccYIdjbY.s:100802  .debug_str:000000000003d179 .LASF6764
     /tmp/ccYIdjbY.s:89966  .debug_str:00000000000109f5 .LASF6765
     /tmp/ccYIdjbY.s:89898  .debug_str:00000000000105a9 .LASF6766
     /tmp/ccYIdjbY.s:95792  .debug_str:0000000000028b41 .LASF6767
     /tmp/ccYIdjbY.s:89968  .debug_str:00000000000109fc .LASF6768
     /tmp/ccYIdjbY.s:97482  .debug_str:000000000002faf5 .LASF6769
     /tmp/ccYIdjbY.s:99062  .debug_str:00000000000362c9 .LASF6770
     /tmp/ccYIdjbY.s:89970  .debug_str:0000000000010a03 .LASF6771
     /tmp/ccYIdjbY.s:91624  .debug_str:000000000001773d .LASF6772
     /tmp/ccYIdjbY.s:98858  .debug_str:0000000000035716 .LASF6773
     /tmp/ccYIdjbY.s:94290  .debug_str:0000000000022d68 .LASF6774
     /tmp/ccYIdjbY.s:99072  .debug_str:0000000000036341 .LASF6775
     /tmp/ccYIdjbY.s:98862  .debug_str:000000000003574d .LASF6776
     /tmp/ccYIdjbY.s:94292  .debug_str:0000000000022d6f .LASF6777
     /tmp/ccYIdjbY.s:93188  .debug_str:000000000001e269 .LASF6778
     /tmp/ccYIdjbY.s:99106  .debug_str:0000000000036493 .LASF6779
     /tmp/ccYIdjbY.s:94294  .debug_str:0000000000022d76 .LASF6780
     /tmp/ccYIdjbY.s:87344  .debug_str:0000000000006101 .LASF6781
     /tmp/ccYIdjbY.s:94432  .debug_str:0000000000023609 .LASF6782
     /tmp/ccYIdjbY.s:94296  .debug_str:0000000000022d7d .LASF6783
     /tmp/ccYIdjbY.s:99988  .debug_str:0000000000039cbe .LASF6784
     /tmp/ccYIdjbY.s:94436  .debug_str:0000000000023628 .LASF6785
     /tmp/ccYIdjbY.s:94298  .debug_str:0000000000022d84 .LASF6786
     /tmp/ccYIdjbY.s:94094  .debug_str:0000000000022060 .LASF6787
     /tmp/ccYIdjbY.s:91158  .debug_str:00000000000157be .LASF6788
     /tmp/ccYIdjbY.s:94300  .debug_str:0000000000022d8b .LASF6789
     /tmp/ccYIdjbY.s:104146  .debug_str:000000000004b531 .LASF6790
     /tmp/ccYIdjbY.s:92926  .debug_str:000000000001d08f .LASF6791
     /tmp/ccYIdjbY.s:94302  .debug_str:0000000000022d92 .LASF6792
     /tmp/ccYIdjbY.s:103572  .debug_str:0000000000048c37 .LASF6793
     /tmp/ccYIdjbY.s:99070  .debug_str:0000000000036331 .LASF6794
     /tmp/ccYIdjbY.s:94304  .debug_str:0000000000022d99 .LASF6795
     /tmp/ccYIdjbY.s:95060  .debug_str:0000000000025b85 .LASF6796
     /tmp/ccYIdjbY.s:102560  .debug_str:00000000000446b5 .LASF6797
     /tmp/ccYIdjbY.s:94306  .debug_str:0000000000022da0 .LASF6798
     /tmp/ccYIdjbY.s:89124  .debug_str:000000000000d95d .LASF6799
     /tmp/ccYIdjbY.s:100104  .debug_str:000000000003a429 .LASF6800
     /tmp/ccYIdjbY.s:94308  .debug_str:0000000000022da7 .LASF6801
     /tmp/ccYIdjbY.s:101766  .debug_str:000000000004136c .LASF6802
     /tmp/ccYIdjbY.s:87746  .debug_str:0000000000007b74 .LASF6803
     /tmp/ccYIdjbY.s:94362  .debug_str:000000000002323a .LASF6804
     /tmp/ccYIdjbY.s:95082  .debug_str:0000000000025ce5 .LASF6805
     /tmp/ccYIdjbY.s:87748  .debug_str:0000000000007b83 .LASF6806
     /tmp/ccYIdjbY.s:94364  .debug_str:0000000000023241 .LASF6807
     /tmp/ccYIdjbY.s:89150  .debug_str:000000000000db1d .LASF6808
     /tmp/ccYIdjbY.s:87978  .debug_str:0000000000008b6b .LASF6809
     /tmp/ccYIdjbY.s:94366  .debug_str:0000000000023248 .LASF6810
     /tmp/ccYIdjbY.s:101788  .debug_str:00000000000414ba .LASF6811
     /tmp/ccYIdjbY.s:101842  .debug_str:0000000000041832 .LASF6812
     /tmp/ccYIdjbY.s:94368  .debug_str:000000000002324f .LASF6813
     /tmp/ccYIdjbY.s:96060  .debug_str:0000000000029cb8 .LASF6814
     /tmp/ccYIdjbY.s:101846  .debug_str:000000000004184b .LASF6815
     /tmp/ccYIdjbY.s:100636  .debug_str:000000000003c76b .LASF6816
     /tmp/ccYIdjbY.s:90166  .debug_str:00000000000117ed .LASF6817
     /tmp/ccYIdjbY.s:91818  .debug_str:000000000001837e .LASF6818
     /tmp/ccYIdjbY.s:94372  .debug_str:0000000000023295 .LASF6819
     /tmp/ccYIdjbY.s:102692  .debug_str:0000000000044f36 .LASF6820
     /tmp/ccYIdjbY.s:88222  .debug_str:0000000000009c8a .LASF6821
     /tmp/ccYIdjbY.s:94374  .debug_str:000000000002329c .LASF6822
     /tmp/ccYIdjbY.s:96966  .debug_str:000000000002d87c .LASF6823
     /tmp/ccYIdjbY.s:88226  .debug_str:0000000000009c9e .LASF6824
     /tmp/ccYIdjbY.s:94376  .debug_str:00000000000232a3 .LASF6825
     /tmp/ccYIdjbY.s:91084  .debug_str:00000000000152c1 .LASF6826
     /tmp/ccYIdjbY.s:100412  .debug_str:000000000003b923 .LASF6827
     /tmp/ccYIdjbY.s:94378  .debug_str:00000000000232aa .LASF6828
     /tmp/ccYIdjbY.s:103594  .debug_str:0000000000048dbd .LASF6829
     /tmp/ccYIdjbY.s:98692  .debug_str:0000000000034cb1 .LASF6830
     /tmp/ccYIdjbY.s:94380  .debug_str:00000000000232b1 .LASF6831
     /tmp/ccYIdjbY.s:97866  .debug_str:0000000000031633 .LASF6832
     /tmp/ccYIdjbY.s:94358  .debug_str:000000000002321f .LASF6833
     /tmp/ccYIdjbY.s:94454  .debug_str:000000000002377e .LASF6834
     /tmp/ccYIdjbY.s:88264  .debug_str:0000000000009f46 .LASF6835
     /tmp/ccYIdjbY.s:102322  .debug_str:0000000000043678 .LASF6836
     /tmp/ccYIdjbY.s:94456  .debug_str:0000000000023785 .LASF6837
     /tmp/ccYIdjbY.s:94286  .debug_str:0000000000022d3a .LASF6838
     /tmp/ccYIdjbY.s:102324  .debug_str:0000000000043683 .LASF6839
     /tmp/ccYIdjbY.s:100792  .debug_str:000000000003d10a .LASF6840
     /tmp/ccYIdjbY.s:97890  .debug_str:00000000000317cf .LASF6841
     /tmp/ccYIdjbY.s:102626  .debug_str:0000000000044ac7 .LASF6842
     /tmp/ccYIdjbY.s:94460  .debug_str:00000000000237c1 .LASF6843
     /tmp/ccYIdjbY.s:92030  .debug_str:000000000001921e .LASF6844
     /tmp/ccYIdjbY.s:87238  .debug_str:00000000000059db .LASF6845
     /tmp/ccYIdjbY.s:94462  .debug_str:00000000000237c8 .LASF6846
     /tmp/ccYIdjbY.s:86174  .debug_str:0000000000000f7f .LASF6847
     /tmp/ccYIdjbY.s:96702  .debug_str:000000000002c695 .LASF6848
     /tmp/ccYIdjbY.s:94464  .debug_str:00000000000237cf .LASF6849
     /tmp/ccYIdjbY.s:98790  .debug_str:000000000003529b .LASF6850
     /tmp/ccYIdjbY.s:87804  .debug_str:0000000000007fab .LASF6851
     /tmp/ccYIdjbY.s:94466  .debug_str:00000000000237d6 .LASF6852
     /tmp/ccYIdjbY.s:92906  .debug_str:000000000001cf78 .LASF6853
     /tmp/ccYIdjbY.s:97790  .debug_str:00000000000310f8 .LASF6854
     /tmp/ccYIdjbY.s:94468  .debug_str:00000000000237dd .LASF6855
     /tmp/ccYIdjbY.s:87078  .debug_str:0000000000004ece .LASF6856
     /tmp/ccYIdjbY.s:96596  .debug_str:000000000002bf79 .LASF6857
     /tmp/ccYIdjbY.s:94470  .debug_str:00000000000237e4 .LASF6858
     /tmp/ccYIdjbY.s:99742  .debug_str:0000000000038b02 .LASF6859
     /tmp/ccYIdjbY.s:96640  .debug_str:000000000002c215 .LASF6860
     /tmp/ccYIdjbY.s:94472  .debug_str:00000000000237eb .LASF6861
     /tmp/ccYIdjbY.s:93866  .debug_str:00000000000210e0 .LASF6862
     /tmp/ccYIdjbY.s:91250  .debug_str:0000000000015e0e .LASF6863
     /tmp/ccYIdjbY.s:94542  .debug_str:0000000000023bcd .LASF6864
     /tmp/ccYIdjbY.s:99430  .debug_str:00000000000375fd .LASF6865
     /tmp/ccYIdjbY.s:91258  .debug_str:0000000000015e79 .LASF6866
     /tmp/ccYIdjbY.s:94544  .debug_str:0000000000023bd4 .LASF6867
     /tmp/ccYIdjbY.s:99764  .debug_str:0000000000038c75 .LASF6868
     /tmp/ccYIdjbY.s:87872  .debug_str:000000000000843b .LASF6869
     /tmp/ccYIdjbY.s:94546  .debug_str:0000000000023bdb .LASF6870
     /tmp/ccYIdjbY.s:93876  .debug_str:00000000000211bc .LASF6871
     /tmp/ccYIdjbY.s:98728  .debug_str:0000000000034f74 .LASF6872
     /tmp/ccYIdjbY.s:94548  .debug_str:0000000000023be2 .LASF6873
     /tmp/ccYIdjbY.s:87962  .debug_str:0000000000008a95 .LASF6874
     /tmp/ccYIdjbY.s:103188  .debug_str:0000000000047134 .LASF6875
     /tmp/ccYIdjbY.s:94550  .debug_str:0000000000023be9 .LASF6876
     /tmp/ccYIdjbY.s:91194  .debug_str:00000000000159c0 .LASF6877
     /tmp/ccYIdjbY.s:96254  .debug_str:000000000002a993 .LASF6878
     /tmp/ccYIdjbY.s:94552  .debug_str:0000000000023bf0 .LASF6879
     /tmp/ccYIdjbY.s:94800  .debug_str:00000000000249c6 .LASF6880
     /tmp/ccYIdjbY.s:96256  .debug_str:000000000002a99f .LASF6881
     /tmp/ccYIdjbY.s:94554  .debug_str:0000000000023bf7 .LASF6882
     /tmp/ccYIdjbY.s:88890  .debug_str:000000000000ca82 .LASF6883
     /tmp/ccYIdjbY.s:96258  .debug_str:000000000002a9ab .LASF6884
     /tmp/ccYIdjbY.s:94556  .debug_str:0000000000023bfe .LASF6885
     /tmp/ccYIdjbY.s:101532  .debug_str:00000000000403f4 .LASF6886
     /tmp/ccYIdjbY.s:91298  .debug_str:0000000000016115 .LASF6887
     /tmp/ccYIdjbY.s:94558  .debug_str:0000000000023c05 .LASF6888
     /tmp/ccYIdjbY.s:95798  .debug_str:0000000000028b8a .LASF6889
     /tmp/ccYIdjbY.s:87564  .debug_str:0000000000007044 .LASF6890
     /tmp/ccYIdjbY.s:94560  .debug_str:0000000000023c0c .LASF6891
     /tmp/ccYIdjbY.s:89852  .debug_str:00000000000102f5 .LASF6892
     /tmp/ccYIdjbY.s:91302  .debug_str:0000000000016130 .LASF6893
     /tmp/ccYIdjbY.s:94630  .debug_str:000000000002403e .LASF6894
     /tmp/ccYIdjbY.s:101560  .debug_str:00000000000405f6 .LASF6895
     /tmp/ccYIdjbY.s:94976  .debug_str:000000000002555e .LASF6896
     /tmp/ccYIdjbY.s:94632  .debug_str:0000000000024045 .LASF6897
     /tmp/ccYIdjbY.s:95818  .debug_str:0000000000028c91 .LASF6898
     /tmp/ccYIdjbY.s:98100  .debug_str:00000000000325ac .LASF6899
     /tmp/ccYIdjbY.s:94634  .debug_str:000000000002404c .LASF6900
     /tmp/ccYIdjbY.s:89884  .debug_str:000000000001049c .LASF6901
     /tmp/ccYIdjbY.s:89046  .debug_str:000000000000d449 .LASF6902
     /tmp/ccYIdjbY.s:94636  .debug_str:0000000000024053 .LASF6903
     /tmp/ccYIdjbY.s:102456  .debug_str:0000000000043fad .LASF6904
     /tmp/ccYIdjbY.s:95358  .debug_str:0000000000026f5c .LASF6905
     /tmp/ccYIdjbY.s:94638  .debug_str:000000000002405a .LASF6906
     /tmp/ccYIdjbY.s:88368  .debug_str:000000000000a683 .LASF6907
     /tmp/ccYIdjbY.s:89050  .debug_str:000000000000d478 .LASF6908
     /tmp/ccYIdjbY.s:94640  .debug_str:0000000000024061 .LASF6909
     /tmp/ccYIdjbY.s:98084  .debug_str:00000000000324e8 .LASF6910
     /tmp/ccYIdjbY.s:104064  .debug_str:000000000004afbb .LASF6911
     /tmp/ccYIdjbY.s:94642  .debug_str:0000000000024068 .LASF6912
     /tmp/ccYIdjbY.s:103352  .debug_str:0000000000047c82 .LASF6913
     /tmp/ccYIdjbY.s:104066  .debug_str:000000000004afc5 .LASF6914
     /tmp/ccYIdjbY.s:94644  .debug_str:000000000002406f .LASF6915
     /tmp/ccYIdjbY.s:87956  .debug_str:0000000000008a10 .LASF6916
     /tmp/ccYIdjbY.s:99526  .debug_str:0000000000037cb1 .LASF6917
     /tmp/ccYIdjbY.s:94646  .debug_str:0000000000024076 .LASF6918
     /tmp/ccYIdjbY.s:91758  .debug_str:0000000000017f64 .LASF6919
     /tmp/ccYIdjbY.s:104070  .debug_str:000000000004afff .LASF6920
     /tmp/ccYIdjbY.s:94648  .debug_str:000000000002407d .LASF6921
     /tmp/ccYIdjbY.s:104280  .debug_str:000000000004be5f .LASF6922
     /tmp/ccYIdjbY.s:90270  .debug_str:0000000000011ec2 .LASF6923
     /tmp/ccYIdjbY.s:94722  .debug_str:0000000000024524 .LASF6924
     /tmp/ccYIdjbY.s:98488  .debug_str:0000000000033fca .LASF6925
     /tmp/ccYIdjbY.s:97878  .debug_str:0000000000031748 .LASF6926
     /tmp/ccYIdjbY.s:89290  .debug_str:000000000000e328 .LASF6927
     /tmp/ccYIdjbY.s:97020  .debug_str:000000000002dc88 .LASF6928
     /tmp/ccYIdjbY.s:97880  .debug_str:0000000000031754 .LASF6929
     /tmp/ccYIdjbY.s:89294  .debug_str:000000000000e344 .LASF6930
     /tmp/ccYIdjbY.s:91150  .debug_str:0000000000015725 .LASF6931
     /tmp/ccYIdjbY.s:97882  .debug_str:0000000000031760 .LASF6932
     /tmp/ccYIdjbY.s:90612  .debug_str:00000000000134eb .LASF6933
     /tmp/ccYIdjbY.s:103668  .debug_str:000000000004924f .LASF6934
     /tmp/ccYIdjbY.s:100678  .debug_str:000000000003c9cb .LASF6935
     /tmp/ccYIdjbY.s:91316  .debug_str:00000000000161ef .LASF6936
     /tmp/ccYIdjbY.s:94044  .debug_str:0000000000021cf8 .LASF6937
     /tmp/ccYIdjbY.s:99908  .debug_str:000000000003976f .LASF6938
     /tmp/ccYIdjbY.s:99390  .debug_str:0000000000037317 .LASF6939
     /tmp/ccYIdjbY.s:97140  .debug_str:000000000002e520 .LASF6940
     /tmp/ccYIdjbY.s:89272  .debug_str:000000000000e1e9 .LASF6941
     /tmp/ccYIdjbY.s:101558  .debug_str:00000000000405d0 .LASF6942
     /tmp/ccYIdjbY.s:100804  .debug_str:000000000003d18b .LASF6943
     /tmp/ccYIdjbY.s:89232  .debug_str:000000000000dfbe .LASF6944
     /tmp/ccYIdjbY.s:92994  .debug_str:000000000001d53a .LASF6945
     /tmp/ccYIdjbY.s:100694  .debug_str:000000000003caca .LASF6946
     /tmp/ccYIdjbY.s:87664  .debug_str:000000000000764f .LASF6947
     /tmp/ccYIdjbY.s:90230  .debug_str:0000000000011bda .LASF6948
     /tmp/ccYIdjbY.s:100800  .debug_str:000000000003d16d .LASF6949
     /tmp/ccYIdjbY.s:98204  .debug_str:0000000000032c84 .LASF6950
     /tmp/ccYIdjbY.s:99704  .debug_str:00000000000388b6 .LASF6951
     /tmp/ccYIdjbY.s:101786  .debug_str:00000000000414ac .LASF6952
     /tmp/ccYIdjbY.s:94900  .debug_str:000000000002511e .LASF6953
     /tmp/ccYIdjbY.s:92582  .debug_str:000000000001b91d .LASF6954
     /tmp/ccYIdjbY.s:95868  .debug_str:0000000000029034 .LASF6955
     /tmp/ccYIdjbY.s:97574  .debug_str:0000000000030210 .LASF6956
     /tmp/ccYIdjbY.s:99614  .debug_str:000000000003827a .LASF6957
     /tmp/ccYIdjbY.s:89218  .debug_str:000000000000deb0 .LASF6958
     /tmp/ccYIdjbY.s:102570  .debug_str:0000000000044751 .LASF6959
     /tmp/ccYIdjbY.s:101936  .debug_str:0000000000041de8 .LASF6960
     /tmp/ccYIdjbY.s:93352  .debug_str:000000000001ee9b .LASF6961
     /tmp/ccYIdjbY.s:91964  .debug_str:0000000000018db6 .LASF6962
     /tmp/ccYIdjbY.s:86988  .debug_str:0000000000004883 .LASF6963
     /tmp/ccYIdjbY.s:88790  .debug_str:000000000000c3cb .LASF6964
     /tmp/ccYIdjbY.s:93530  .debug_str:000000000001faa0 .LASF6965
     /tmp/ccYIdjbY.s:101462  .debug_str:000000000003ff0d .LASF6966
     /tmp/ccYIdjbY.s:86820  .debug_str:0000000000003c9d .LASF6967
     /tmp/ccYIdjbY.s:100978  .debug_str:000000000003ddce .LASF6968
     /tmp/ccYIdjbY.s:92194  .debug_str:0000000000019e92 .LASF6969
     /tmp/ccYIdjbY.s:100568  .debug_str:000000000003c2cc .LASF6970
     /tmp/ccYIdjbY.s:86490  .debug_str:0000000000002592 .LASF6971
     /tmp/ccYIdjbY.s:100204  .debug_str:000000000003aab5 .LASF6972
     /tmp/ccYIdjbY.s:89906  .debug_str:0000000000010657 .LASF6973
     /tmp/ccYIdjbY.s:98102  .debug_str:00000000000325b4 .LASF6974
     /tmp/ccYIdjbY.s:102602  .debug_str:0000000000044984 .LASF6975
     /tmp/ccYIdjbY.s:99166  .debug_str:0000000000036738 .LASF6976
     /tmp/ccYIdjbY.s:87102  .debug_str:000000000000504c .LASF6977
     /tmp/ccYIdjbY.s:95112  .debug_str:0000000000025f59 .LASF6978
     /tmp/ccYIdjbY.s:85980  .debug_str:0000000000000292 .LASF6979
     /tmp/ccYIdjbY.s:95870  .debug_str:000000000002905c .LASF6980
     /tmp/ccYIdjbY.s:95592  .debug_str:0000000000027e74 .LASF6981
     /tmp/ccYIdjbY.s:90168  .debug_str:000000000001180e .LASF6982
     /tmp/ccYIdjbY.s:95178  .debug_str:0000000000026361 .LASF6983
     /tmp/ccYIdjbY.s:87266  .debug_str:0000000000005c40 .LASF6984
     /tmp/ccYIdjbY.s:101196  .debug_str:000000000003ed5b .LASF6985
     /tmp/ccYIdjbY.s:101156  .debug_str:000000000003ea24 .LASF6986
     /tmp/ccYIdjbY.s:88526  .debug_str:000000000000b1b9 .LASF6987
     /tmp/ccYIdjbY.s:102846  .debug_str:0000000000045a2b .LASF6988
     /tmp/ccYIdjbY.s:103484  .debug_str:00000000000485b3 .LASF6989
     /tmp/ccYIdjbY.s:101090  .debug_str:000000000003e5a2 .LASF6990
     /tmp/ccYIdjbY.s:87194  .debug_str:00000000000056ea .LASF6991
     /tmp/ccYIdjbY.s:90926  .debug_str:0000000000014885 .LASF6992
     /tmp/ccYIdjbY.s:87904  .debug_str:000000000000863e .LASF6993
     /tmp/ccYIdjbY.s:97224  .debug_str:000000000002eaf1 .LASF6994
     /tmp/ccYIdjbY.s:98124  .debug_str:00000000000326d7 .LASF6995
     /tmp/ccYIdjbY.s:96088  .debug_str:0000000000029e91 .LASF6996
     /tmp/ccYIdjbY.s:96046  .debug_str:0000000000029b81 .LASF6997
     /tmp/ccYIdjbY.s:93868  .debug_str:0000000000021101 .LASF6998
     /tmp/ccYIdjbY.s:101988  .debug_str:00000000000420f0 .LASF6999
     /tmp/ccYIdjbY.s:99260  .debug_str:0000000000036c2d .LASF7000
     /tmp/ccYIdjbY.s:93856  .debug_str:0000000000021037 .LASF7001
     /tmp/ccYIdjbY.s:91704  .debug_str:0000000000017be0 .LASF7002
     /tmp/ccYIdjbY.s:99870  .debug_str:00000000000394b3 .LASF7003
     /tmp/ccYIdjbY.s:89332  .debug_str:000000000000e436 .LASF7004
     /tmp/ccYIdjbY.s:97562  .debug_str:0000000000030153 .LASF7005
     /tmp/ccYIdjbY.s:99262  .debug_str:0000000000036c34 .LASF7006
     /tmp/ccYIdjbY.s:87934  .debug_str:0000000000008874 .LASF7007
     /tmp/ccYIdjbY.s:100032  .debug_str:0000000000039feb .LASF7008
     /tmp/ccYIdjbY.s:97470  .debug_str:000000000002fa21 .LASF7009
     /tmp/ccYIdjbY.s:98510  .debug_str:0000000000034134 .LASF7010
     /tmp/ccYIdjbY.s:96616  .debug_str:000000000002c07f .LASF7011
     /tmp/ccYIdjbY.s:102114  .debug_str:0000000000042964 .LASF7012
     /tmp/ccYIdjbY.s:97088  .debug_str:000000000002e0fd .LASF7013
     /tmp/ccYIdjbY.s:103024  .debug_str:00000000000465a4 .LASF7014
     /tmp/ccYIdjbY.s:102116  .debug_str:0000000000042972 .LASF7015
     /tmp/ccYIdjbY.s:91220  .debug_str:0000000000015b91 .LASF7016
     /tmp/ccYIdjbY.s:95004  .debug_str:000000000002573e .LASF7017
     /tmp/ccYIdjbY.s:102118  .debug_str:0000000000042980 .LASF7018
     /tmp/ccYIdjbY.s:103736  .debug_str:00000000000497fb .LASF7019
     /tmp/ccYIdjbY.s:94084  .debug_str:0000000000021fd6 .LASF7020
     /tmp/ccYIdjbY.s:99812  .debug_str:000000000003903b .LASF7021
     /tmp/ccYIdjbY.s:98002  .debug_str:0000000000031ea4 .LASF7022
     /tmp/ccYIdjbY.s:88112  .debug_str:0000000000009565 .LASF7023
     /tmp/ccYIdjbY.s:102122  .debug_str:00000000000429d0 .LASF7024
     /tmp/ccYIdjbY.s:92142  .debug_str:0000000000019ace .LASF7025
     /tmp/ccYIdjbY.s:95598  .debug_str:0000000000027eef .LASF7026
     /tmp/ccYIdjbY.s:102124  .debug_str:00000000000429de .LASF7027
     /tmp/ccYIdjbY.s:99552  .debug_str:0000000000037e6d .LASF7028
     /tmp/ccYIdjbY.s:101296  .debug_str:000000000003f36c .LASF7029
     /tmp/ccYIdjbY.s:96784  .debug_str:000000000002cbdf .LASF7030
     /tmp/ccYIdjbY.s:96786  .debug_str:000000000002cbf1 .LASF7031
     /tmp/ccYIdjbY.s:96790  .debug_str:000000000002cc2f .LASF7032
     /tmp/ccYIdjbY.s:99750  .debug_str:0000000000038b7f .LASF7033
     /tmp/ccYIdjbY.s:102372  .debug_str:00000000000439bd .LASF7034
     /tmp/ccYIdjbY.s:101304  .debug_str:000000000003f3cc .LASF7035
     /tmp/ccYIdjbY.s:101306  .debug_str:000000000003f3de .LASF7036
     /tmp/ccYIdjbY.s:101308  .debug_str:000000000003f3f0 .LASF7037
     /tmp/ccYIdjbY.s:101310  .debug_str:000000000003f402 .LASF7038
     /tmp/ccYIdjbY.s:99752  .debug_str:0000000000038b8e .LASF7039
     /tmp/ccYIdjbY.s:96648  .debug_str:000000000002c298 .LASF7040
     /tmp/ccYIdjbY.s:98756  .debug_str:0000000000035021 .LASF7041
     /tmp/ccYIdjbY.s:102510  .debug_str:000000000004437f .LASF7042
     /tmp/ccYIdjbY.s:94814  .debug_str:0000000000024b05 .LASF7043
     /tmp/ccYIdjbY.s:98500  .debug_str:000000000003408b .LASF7044
     /tmp/ccYIdjbY.s:99786  .debug_str:0000000000038e3b .LASF7045
     /tmp/ccYIdjbY.s:102078  .debug_str:0000000000042700 .LASF7046
     /tmp/ccYIdjbY.s:100660  .debug_str:000000000003c8c3 .LASF7047
     /tmp/ccYIdjbY.s:104110  .debug_str:000000000004b28e .LASF7048
     /tmp/ccYIdjbY.s:91144  .debug_str:00000000000156ac .LASF7049
     /tmp/ccYIdjbY.s:102086  .debug_str:0000000000042787 .LASF7050
     /tmp/ccYIdjbY.s:86260  .debug_str:0000000000001531 .LASF7051
     /tmp/ccYIdjbY.s:103054  .debug_str:000000000004679d .LASF7052
     /tmp/ccYIdjbY.s:100256  .debug_str:000000000003ae7a .LASF7053
     /tmp/ccYIdjbY.s:86002  .debug_str:0000000000000439 .LASF7054
     /tmp/ccYIdjbY.s:95414  .debug_str:00000000000273c9 .LASF7055
     /tmp/ccYIdjbY.s:87540  .debug_str:0000000000006ef8 .LASF7056
     /tmp/ccYIdjbY.s:87394  .debug_str:0000000000006476 .LASF7057
     /tmp/ccYIdjbY.s:96296  .debug_str:000000000002ac22 .LASF7058
     /tmp/ccYIdjbY.s:96298  .debug_str:000000000002ac3a .LASF7059
     /tmp/ccYIdjbY.s:96300  .debug_str:000000000002ac52 .LASF7060
     /tmp/ccYIdjbY.s:96302  .debug_str:000000000002ac6a .LASF7061
     /tmp/ccYIdjbY.s:101646  .debug_str:0000000000040b3e .LASF7062
     /tmp/ccYIdjbY.s:104002  .debug_str:000000000004ab36 .LASF7063
     /tmp/ccYIdjbY.s:96304  .debug_str:000000000002ac82 .LASF7064
     /tmp/ccYIdjbY.s:89560  .debug_str:000000000000f205 .LASF7065
     /tmp/ccYIdjbY.s:89562  .debug_str:000000000000f223 .LASF7066
     /tmp/ccYIdjbY.s:89564  .debug_str:000000000000f241 .LASF7067
     /tmp/ccYIdjbY.s:89566  .debug_str:000000000000f25f .LASF7068
     /tmp/ccYIdjbY.s:89568  .debug_str:000000000000f27d .LASF7069
     /tmp/ccYIdjbY.s:93198  .debug_str:000000000001e322 .LASF7070
     /tmp/ccYIdjbY.s:89260  .debug_str:000000000000e149 .LASF7071
     /tmp/ccYIdjbY.s:93202  .debug_str:000000000001e34f .LASF7072
     /tmp/ccYIdjbY.s:93204  .debug_str:000000000001e36c .LASF7073
     /tmp/ccYIdjbY.s:93206  .debug_str:000000000001e389 .LASF7074
     /tmp/ccYIdjbY.s:104170  .debug_str:000000000004b732 .LASF7075
     /tmp/ccYIdjbY.s:104172  .debug_str:000000000004b74c .LASF7076
     /tmp/ccYIdjbY.s:104174  .debug_str:000000000004b766 .LASF7077
     /tmp/ccYIdjbY.s:104176  .debug_str:000000000004b780 .LASF7078
     /tmp/ccYIdjbY.s:104178  .debug_str:000000000004b79a .LASF7079
     /tmp/ccYIdjbY.s:98920  .debug_str:0000000000035a3e .LASF7080
     /tmp/ccYIdjbY.s:101038  .debug_str:000000000003e268 .LASF7081
     /tmp/ccYIdjbY.s:101648  .debug_str:0000000000040b56 .LASF7082
     /tmp/ccYIdjbY.s:100698  .debug_str:000000000003caf5 .LASF7083
     /tmp/ccYIdjbY.s:98300  .debug_str:0000000000033392 .LASF7084
     /tmp/ccYIdjbY.s:87614  .debug_str:0000000000007384 .LASF7085
     /tmp/ccYIdjbY.s:87616  .debug_str:00000000000073a1 .LASF7086
     /tmp/ccYIdjbY.s:98310  .debug_str:0000000000033423 .LASF7087
     /tmp/ccYIdjbY.s:86544  .debug_str:0000000000002963 .LASF7088
     /tmp/ccYIdjbY.s:96176  .debug_str:000000000002a453 .LASF7089
     /tmp/ccYIdjbY.s:87620  .debug_str:00000000000073fe .LASF7090
     /tmp/ccYIdjbY.s:96508  .debug_str:000000000002b953 .LASF7091
     /tmp/ccYIdjbY.s:96510  .debug_str:000000000002b976 .LASF7092
     /tmp/ccYIdjbY.s:96512  .debug_str:000000000002b999 .LASF7093
     /tmp/ccYIdjbY.s:96514  .debug_str:000000000002b9bc .LASF7094
     /tmp/ccYIdjbY.s:96516  .debug_str:000000000002b9df .LASF7095
     /tmp/ccYIdjbY.s:93468  .debug_str:000000000001f642 .LASF7096
     /tmp/ccYIdjbY.s:93470  .debug_str:000000000001f664 .LASF7097
     /tmp/ccYIdjbY.s:94508  .debug_str:00000000000239df .LASF7098
     /tmp/ccYIdjbY.s:93474  .debug_str:000000000001f697 .LASF7099
     /tmp/ccYIdjbY.s:93476  .debug_str:000000000001f6b9 .LASF7100
     /tmp/ccYIdjbY.s:96106  .debug_str:0000000000029fd4 .LASF7101
     /tmp/ccYIdjbY.s:96108  .debug_str:0000000000029ff3 .LASF7102
     /tmp/ccYIdjbY.s:96110  .debug_str:000000000002a012 .LASF7103
     /tmp/ccYIdjbY.s:99144  .debug_str:00000000000366dd .LASF7104
     /tmp/ccYIdjbY.s:96114  .debug_str:000000000002a03f .LASF7105
     /tmp/ccYIdjbY.s:96222  .debug_str:000000000002a739 .LASF7106
     /tmp/ccYIdjbY.s:101188  .debug_str:000000000003ecab .LASF7107
     /tmp/ccYIdjbY.s:86546  .debug_str:0000000000002980 .LASF7108
     /tmp/ccYIdjbY.s:93450  .debug_str:000000000001f553 .LASF7109
     /tmp/ccYIdjbY.s:97914  .debug_str:0000000000031993 .LASF7110
     /tmp/ccYIdjbY.s:97916  .debug_str:00000000000319ab .LASF7111
     /tmp/ccYIdjbY.s:97918  .debug_str:00000000000319c3 .LASF7112
     /tmp/ccYIdjbY.s:97920  .debug_str:00000000000319db .LASF7113
     /tmp/ccYIdjbY.s:92684  .debug_str:000000000001bf6f .LASF7114
     /tmp/ccYIdjbY.s:92242  .debug_str:000000000001a152 .LASF7115
     /tmp/ccYIdjbY.s:97922  .debug_str:00000000000319f3 .LASF7116
     /tmp/ccYIdjbY.s:91246  .debug_str:0000000000015dd2 .LASF7117
     /tmp/ccYIdjbY.s:91248  .debug_str:0000000000015df0 .LASF7118
     /tmp/ccYIdjbY.s:101272  .debug_str:000000000003f23a .LASF7119
     /tmp/ccYIdjbY.s:91252  .debug_str:0000000000015e19 .LASF7120
     /tmp/ccYIdjbY.s:91254  .debug_str:0000000000015e37 .LASF7121
     /tmp/ccYIdjbY.s:94840  .debug_str:0000000000024d05 .LASF7122
     /tmp/ccYIdjbY.s:94842  .debug_str:0000000000024d22 .LASF7123
     /tmp/ccYIdjbY.s:94844  .debug_str:0000000000024d3f .LASF7124
     /tmp/ccYIdjbY.s:94846  .debug_str:0000000000024d5c .LASF7125
     /tmp/ccYIdjbY.s:94848  .debug_str:0000000000024d79 .LASF7126
     /tmp/ccYIdjbY.s:87444  .debug_str:0000000000006835 .LASF7127
     /tmp/ccYIdjbY.s:87446  .debug_str:000000000000684f .LASF7128
     /tmp/ccYIdjbY.s:87448  .debug_str:0000000000006869 .LASF7129
     /tmp/ccYIdjbY.s:87450  .debug_str:0000000000006883 .LASF7130
     /tmp/ccYIdjbY.s:87452  .debug_str:000000000000689d .LASF7131
     /tmp/ccYIdjbY.s:90676  .debug_str:00000000000138ee .LASF7132
     /tmp/ccYIdjbY.s:98130  .debug_str:0000000000032745 .LASF7133
     /tmp/ccYIdjbY.s:92688  .debug_str:000000000001bfa3 .LASF7134
     /tmp/ccYIdjbY.s:86386  .debug_str:0000000000001ddd .LASF7135
     /tmp/ccYIdjbY.s:89992  .debug_str:0000000000010b65 .LASF7136
     /tmp/ccYIdjbY.s:89994  .debug_str:0000000000010b7c .LASF7137
     /tmp/ccYIdjbY.s:89996  .debug_str:0000000000010b93 .LASF7138
     /tmp/ccYIdjbY.s:103786  .debug_str:0000000000049c65 .LASF7139
     /tmp/ccYIdjbY.s:90754  .debug_str:0000000000013d6e .LASF7140
     /tmp/ccYIdjbY.s:94402  .debug_str:000000000002341b .LASF7141
     /tmp/ccYIdjbY.s:90000  .debug_str:0000000000010bbb .LASF7142
     /tmp/ccYIdjbY.s:100646  .debug_str:000000000003c7f3 .LASF7143
     /tmp/ccYIdjbY.s:100648  .debug_str:000000000003c810 .LASF7144
     /tmp/ccYIdjbY.s:100650  .debug_str:000000000003c82d .LASF7145
     /tmp/ccYIdjbY.s:100652  .debug_str:000000000003c84a .LASF7146
     /tmp/ccYIdjbY.s:100654  .debug_str:000000000003c867 .LASF7147
     /tmp/ccYIdjbY.s:90792  .debug_str:0000000000013fc1 .LASF7148
     /tmp/ccYIdjbY.s:90794  .debug_str:0000000000013fdd .LASF7149
     /tmp/ccYIdjbY.s:86484  .debug_str:0000000000002520 .LASF7150
     /tmp/ccYIdjbY.s:90798  .debug_str:0000000000014029 .LASF7151
     /tmp/ccYIdjbY.s:90800  .debug_str:0000000000014045 .LASF7152
     /tmp/ccYIdjbY.s:96496  .debug_str:000000000002b89c .LASF7153
     /tmp/ccYIdjbY.s:96498  .debug_str:000000000002b8b5 .LASF7154
     /tmp/ccYIdjbY.s:96500  .debug_str:000000000002b8ce .LASF7155
     /tmp/ccYIdjbY.s:96502  .debug_str:000000000002b8e7 .LASF7156
     /tmp/ccYIdjbY.s:96504  .debug_str:000000000002b900 .LASF7157
     /tmp/ccYIdjbY.s:97714  .debug_str:0000000000030bac .LASF7158
     /tmp/ccYIdjbY.s:99600  .debug_str:0000000000038178 .LASF7159
     /tmp/ccYIdjbY.s:90756  .debug_str:0000000000013d85 .LASF7160
     /tmp/ccYIdjbY.s:91822  .debug_str:00000000000183bd .LASF7161
     /tmp/ccYIdjbY.s:90828  .debug_str:00000000000141f8 .LASF7162
     /tmp/ccYIdjbY.s:90830  .debug_str:000000000001421b .LASF7163
     /tmp/ccYIdjbY.s:90832  .debug_str:000000000001423e .LASF7164
     /tmp/ccYIdjbY.s:90834  .debug_str:0000000000014261 .LASF7165
     /tmp/ccYIdjbY.s:90836  .debug_str:0000000000014284 .LASF7166
     /tmp/ccYIdjbY.s:104040  .debug_str:000000000004ae56 .LASF7167
     /tmp/ccYIdjbY.s:101334  .debug_str:000000000003f55d .LASF7168
     /tmp/ccYIdjbY.s:102778  .debug_str:000000000004556f .LASF7169
     /tmp/ccYIdjbY.s:101320  .debug_str:000000000003f483 .LASF7170
     /tmp/ccYIdjbY.s:101322  .debug_str:000000000003f4a7 .LASF7171
     /tmp/ccYIdjbY.s:101990  .debug_str:00000000000420fd .LASF7172
     /tmp/ccYIdjbY.s:101326  .debug_str:000000000003f4d7 .LASF7173
     /tmp/ccYIdjbY.s:101328  .debug_str:000000000003f4fb .LASF7174
     /tmp/ccYIdjbY.s:96940  .debug_str:000000000002d705 .LASF7175
     /tmp/ccYIdjbY.s:103956  .debug_str:000000000004a8a6 .LASF7176
     /tmp/ccYIdjbY.s:93360  .debug_str:000000000001ef90 .LASF7177
     /tmp/ccYIdjbY.s:88918  .debug_str:000000000000cc61 .LASF7178
     /tmp/ccYIdjbY.s:96398  .debug_str:000000000002b1f1 .LASF7179
     /tmp/ccYIdjbY.s:103424  .debug_str:00000000000481b3 .LASF7180
     /tmp/ccYIdjbY.s:96758  .debug_str:000000000002caa9 .LASF7181
     /tmp/ccYIdjbY.s:93370  .debug_str:000000000001f09f .LASF7182
     /tmp/ccYIdjbY.s:87584  .debug_str:000000000000715e .LASF7183
     /tmp/ccYIdjbY.s:99026  .debug_str:00000000000360c9 .LASF7184
     /tmp/ccYIdjbY.s:89488  .debug_str:000000000000ed19 .LASF7185
     /tmp/ccYIdjbY.s:88346  .debug_str:000000000000a510 .LASF7186
     /tmp/ccYIdjbY.s:92658  .debug_str:000000000001bd82 .LASF7187
     /tmp/ccYIdjbY.s:88186  .debug_str:0000000000009a12 .LASF7188
     /tmp/ccYIdjbY.s:87678  .debug_str:00000000000077a0 .LASF7189
     /tmp/ccYIdjbY.s:95612  .debug_str:0000000000027ff3 .LASF7190
     /tmp/ccYIdjbY.s:102140  .debug_str:0000000000042b05 .LASF7191
     /tmp/ccYIdjbY.s:96162  .debug_str:000000000002a329 .LASF7192
     /tmp/ccYIdjbY.s:93368  .debug_str:000000000001f089 .LASF7193
     /tmp/ccYIdjbY.s:91238  .debug_str:0000000000015d43 .LASF7194
     /tmp/ccYIdjbY.s:104246  .debug_str:000000000004bc07 .LASF7195
     /tmp/ccYIdjbY.s:89126  .debug_str:000000000000d97e .LASF7196
     /tmp/ccYIdjbY.s:103626  .debug_str:0000000000048fde .LASF7197
     /tmp/ccYIdjbY.s:103628  .debug_str:0000000000048ffd .LASF7198
     /tmp/ccYIdjbY.s:103630  .debug_str:000000000004901c .LASF7199
     /tmp/ccYIdjbY.s:100778  .debug_str:000000000003d001 .LASF7200
     /tmp/ccYIdjbY.s:99112  .debug_str:00000000000364ec .LASF7201
     /tmp/ccYIdjbY.s:91548  .debug_str:00000000000171dd .LASF7202
     /tmp/ccYIdjbY.s:103634  .debug_str:0000000000049049 .LASF7203
     /tmp/ccYIdjbY.s:99114  .debug_str:0000000000036508 .LASF7204
     /tmp/ccYIdjbY.s:98770  .debug_str:0000000000035147 .LASF7205
     /tmp/ccYIdjbY.s:94966  .debug_str:00000000000254cd .LASF7206
     /tmp/ccYIdjbY.s:94968  .debug_str:00000000000254ea .LASF7207
     /tmp/ccYIdjbY.s:94970  .debug_str:0000000000025507 .LASF7208
     /tmp/ccYIdjbY.s:94972  .debug_str:0000000000025524 .LASF7209
     /tmp/ccYIdjbY.s:94974  .debug_str:0000000000025541 .LASF7210
     /tmp/ccYIdjbY.s:86756  .debug_str:000000000000382e .LASF7211
     /tmp/ccYIdjbY.s:103538  .debug_str:000000000004895e .LASF7212
     /tmp/ccYIdjbY.s:98362  .debug_str:0000000000033780 .LASF7213
     /tmp/ccYIdjbY.s:96424  .debug_str:000000000002b3a8 .LASF7214
     /tmp/ccYIdjbY.s:98104  .debug_str:00000000000325c1 .LASF7215
     /tmp/ccYIdjbY.s:86020  .debug_str:00000000000005b1 .LASF7216
     /tmp/ccYIdjbY.s:99652  .debug_str:000000000003850d .LASF7217
     /tmp/ccYIdjbY.s:98208  .debug_str:0000000000032cbe .LASF7218
     /tmp/ccYIdjbY.s:98210  .debug_str:0000000000032cda .LASF7219
     /tmp/ccYIdjbY.s:98212  .debug_str:0000000000032cf6 .LASF7220
     /tmp/ccYIdjbY.s:98214  .debug_str:0000000000032d12 .LASF7221
     /tmp/ccYIdjbY.s:104234  .debug_str:000000000004bb5b .LASF7222
     /tmp/ccYIdjbY.s:95530  .debug_str:0000000000027a5e .LASF7223
     /tmp/ccYIdjbY.s:98216  .debug_str:0000000000032d2e .LASF7224
     /tmp/ccYIdjbY.s:96086  .debug_str:0000000000029e7a .LASF7225
     /tmp/ccYIdjbY.s:102678  .debug_str:0000000000044e33 .LASF7226
     /tmp/ccYIdjbY.s:87894  .debug_str:00000000000085c4 .LASF7227
     /tmp/ccYIdjbY.s:99802  .debug_str:0000000000038f98 .LASF7228
     /tmp/ccYIdjbY.s:103394  .debug_str:0000000000047f8d .LASF7229
     /tmp/ccYIdjbY.s:95536  .debug_str:0000000000027abe .LASF7230
     /tmp/ccYIdjbY.s:100668  .debug_str:000000000003c93d .LASF7231
     /tmp/ccYIdjbY.s:100588  .debug_str:000000000003c3fe .LASF7232
     /tmp/ccYIdjbY.s:93318  .debug_str:000000000001ec01 .LASF7233
     /tmp/ccYIdjbY.s:95278  .debug_str:00000000000269f3 .LASF7234
     /tmp/ccYIdjbY.s:90914  .debug_str:00000000000147c8 .LASF7235
     /tmp/ccYIdjbY.s:95706  .debug_str:000000000002864a .LASF7236
     /tmp/ccYIdjbY.s:104200  .debug_str:000000000004b90e .LASF7237
     /tmp/ccYIdjbY.s:91430  .debug_str:0000000000016a83 .LASF7238
     /tmp/ccYIdjbY.s:97758  .debug_str:0000000000030ecb .LASF7239
     /tmp/ccYIdjbY.s:102044  .debug_str:00000000000424be .LASF7240
     /tmp/ccYIdjbY.s:87232  .debug_str:0000000000005983 .LASF7241
     /tmp/ccYIdjbY.s:104298  .debug_str:000000000004bf64 .LASF7242
     /tmp/ccYIdjbY.s:88552  .debug_str:000000000000b3ae .LASF7243
     /tmp/ccYIdjbY.s:98944  .debug_str:0000000000035c04 .LASF7244
     /tmp/ccYIdjbY.s:97600  .debug_str:00000000000303fe .LASF7245
     /tmp/ccYIdjbY.s:94830  .debug_str:0000000000024c6d .LASF7246
     /tmp/ccYIdjbY.s:87578  .debug_str:0000000000007101 .LASF7247
     /tmp/ccYIdjbY.s:90522  .debug_str:0000000000012f34 .LASF7248
     /tmp/ccYIdjbY.s:87650  .debug_str:000000000000759f .LASF7249
     /tmp/ccYIdjbY.s:91800  .debug_str:000000000001822a .LASF7250
     /tmp/ccYIdjbY.s:103520  .debug_str:0000000000048829 .LASF7251
     /tmp/ccYIdjbY.s:99732  .debug_str:0000000000038a7c .LASF7252
     /tmp/ccYIdjbY.s:94732  .debug_str:00000000000245af .LASF7253
     /tmp/ccYIdjbY.s:90340  .debug_str:0000000000012350 .LASF7254
     /tmp/ccYIdjbY.s:91372  .debug_str:0000000000016634 .LASF7255
     /tmp/ccYIdjbY.s:94112  .debug_str:0000000000022177 .LASF7256
     /tmp/ccYIdjbY.s:89946  .debug_str:000000000001094a .LASF7257
     /tmp/ccYIdjbY.s:101566  .debug_str:0000000000040678 .LASF7258
     /tmp/ccYIdjbY.s:97206  .debug_str:000000000002e9a0 .LASF7259
     /tmp/ccYIdjbY.s:93036  .debug_str:000000000001d79e .LASF7260
     /tmp/ccYIdjbY.s:86268  .debug_str:0000000000001587 .LASF7261
     /tmp/ccYIdjbY.s:99740  .debug_str:0000000000038af7 .LASF7262
     /tmp/ccYIdjbY.s:92880  .debug_str:000000000001cd77 .LASF7263
     /tmp/ccYIdjbY.s:88696  .debug_str:000000000000bd8c .LASF7264
     /tmp/ccYIdjbY.s:97604  .debug_str:0000000000030463 .LASF7265
     /tmp/ccYIdjbY.s:98544  .debug_str:0000000000034360 .LASF7266
     /tmp/ccYIdjbY.s:93862  .debug_str:000000000002109f .LASF7267
     /tmp/ccYIdjbY.s:96342  .debug_str:000000000002aebf .LASF7268
     /tmp/ccYIdjbY.s:91028  .debug_str:0000000000014fcd .LASF7269
     /tmp/ccYIdjbY.s:95326  .debug_str:0000000000026d30 .LASF7270
     /tmp/ccYIdjbY.s:88148  .debug_str:00000000000097c9 .LASF7271
     /tmp/ccYIdjbY.s:89546  .debug_str:000000000000f1c4 .LASF7272
     /tmp/ccYIdjbY.s:93550  .debug_str:000000000001fbe0 .LASF7273
     /tmp/ccYIdjbY.s:89542  .debug_str:000000000000f172 .LASF7274
     /tmp/ccYIdjbY.s:93548  .debug_str:000000000001fbc7 .LASF7275
     /tmp/ccYIdjbY.s:92104  .debug_str:00000000000197b2 .LASF7276
     /tmp/ccYIdjbY.s:93146  .debug_str:000000000001dfe9 .LASF7277
     /tmp/ccYIdjbY.s:102952  .debug_str:00000000000460ca .LASF7278
     /tmp/ccYIdjbY.s:91892  .debug_str:0000000000018899 .LASF7279
     /tmp/ccYIdjbY.s:90528  .debug_str:0000000000012f82 .LASF7280
     /tmp/ccYIdjbY.s:88992  .debug_str:000000000000d145 .LASF7281
     /tmp/ccYIdjbY.s:90316  .debug_str:00000000000121ac .LASF7282
     /tmp/ccYIdjbY.s:92578  .debug_str:000000000001b8de .LASF7283
     /tmp/ccYIdjbY.s:100764  .debug_str:000000000003cf0b .LASF7284
     /tmp/ccYIdjbY.s:100770  .debug_str:000000000003cf7d .LASF7285
     /tmp/ccYIdjbY.s:96458  .debug_str:000000000002b5bc .LASF7286
     /tmp/ccYIdjbY.s:89104  .debug_str:000000000000d81c .LASF7287
     /tmp/ccYIdjbY.s:91186  .debug_str:0000000000015930 .LASF7288
     /tmp/ccYIdjbY.s:97494  .debug_str:000000000002fbbb .LASF7289
     /tmp/ccYIdjbY.s:103074  .debug_str:0000000000046930 .LASF7290
     /tmp/ccYIdjbY.s:93106  .debug_str:000000000001dd26 .LASF7291
     /tmp/ccYIdjbY.s:94524  .debug_str:0000000000023b00 .LASF7292
     /tmp/ccYIdjbY.s:102158  .debug_str:0000000000042bd2 .LASF7293
     /tmp/ccYIdjbY.s:87314  .debug_str:0000000000005f23 .LASF7294
     /tmp/ccYIdjbY.s:102788  .debug_str:0000000000045636 .LASF7295
     /tmp/ccYIdjbY.s:90714  .debug_str:0000000000013b74 .LASF7296
     /tmp/ccYIdjbY.s:86944  .debug_str:0000000000004541 .LASF7297
     /tmp/ccYIdjbY.s:88972  .debug_str:000000000000d00a .LASF7298
     /tmp/ccYIdjbY.s:94566  .debug_str:0000000000023c6c .LASF7299
     /tmp/ccYIdjbY.s:99864  .debug_str:0000000000039435 .LASF7300
     /tmp/ccYIdjbY.s:97720  .debug_str:0000000000030c21 .LASF7301
     /tmp/ccYIdjbY.s:96266  .debug_str:000000000002aa45 .LASF7302
     /tmp/ccYIdjbY.s:99374  .debug_str:0000000000037263 .LASF7303
     /tmp/ccYIdjbY.s:87144  .debug_str:0000000000005332 .LASF7304
     /tmp/ccYIdjbY.s:101638  .debug_str:0000000000040ab9 .LASF7305
     /tmp/ccYIdjbY.s:95406  .debug_str:0000000000027332 .LASF7306
     /tmp/ccYIdjbY.s:91276  .debug_str:0000000000015fb4 .LASF7307
     /tmp/ccYIdjbY.s:89598  .debug_str:000000000000f478 .LASF7308
     /tmp/ccYIdjbY.s:101756  .debug_str:00000000000412b0 .LASF7309
     /tmp/ccYIdjbY.s:95136  .debug_str:00000000000260a2 .LASF7310
     /tmp/ccYIdjbY.s:98870  .debug_str:00000000000357be .LASF7311
     /tmp/ccYIdjbY.s:103164  .debug_str:0000000000046ef2 .LASF7312
     /tmp/ccYIdjbY.s:99186  .debug_str:000000000003689a .LASF7313
     /tmp/ccYIdjbY.s:96014  .debug_str:00000000000299b5 .LASF7314
     /tmp/ccYIdjbY.s:87106  .debug_str:000000000000507a .LASF7315
     /tmp/ccYIdjbY.s:101106  .debug_str:000000000003e6a6 .LASF7316
     /tmp/ccYIdjbY.s:101908  .debug_str:0000000000041c29 .LASF7317
     /tmp/ccYIdjbY.s:103976  .debug_str:000000000004a9dc .LASF7318
     /tmp/ccYIdjbY.s:93108  .debug_str:000000000001dd34 .LASF7319
     /tmp/ccYIdjbY.s:94604  .debug_str:0000000000023ea7 .LASF7320
     /tmp/ccYIdjbY.s:86294  .debug_str:00000000000017ab .LASF7321
     /tmp/ccYIdjbY.s:97952  .debug_str:0000000000031bdc .LASF7322
     /tmp/ccYIdjbY.s:87150  .debug_str:0000000000005381 .LASF7323
     /tmp/ccYIdjbY.s:86536  .debug_str:00000000000028fc .LASF7324
     /tmp/ccYIdjbY.s:94770  .debug_str:00000000000247e1 .LASF7325
     /tmp/ccYIdjbY.s:87870  .debug_str:0000000000008422 .LASF7326
     /tmp/ccYIdjbY.s:91612  .debug_str:000000000001766c .LASF7327
     /tmp/ccYIdjbY.s:91678  .debug_str:0000000000017a6e .LASF7328
     /tmp/ccYIdjbY.s:94284  .debug_str:0000000000022d2d .LASF7329
     /tmp/ccYIdjbY.s:95478  .debug_str:00000000000276df .LASF7330
     /tmp/ccYIdjbY.s:86712  .debug_str:000000000000350f .LASF7331
     /tmp/ccYIdjbY.s:92134  .debug_str:0000000000019a70 .LASF7332
     /tmp/ccYIdjbY.s:100566  .debug_str:000000000003c2a7 .LASF7333
     /tmp/ccYIdjbY.s:90392  .debug_str:000000000001273d .LASF7334
     /tmp/ccYIdjbY.s:101860  .debug_str:0000000000041941 .LASF7335
     /tmp/ccYIdjbY.s:90388  .debug_str:0000000000012713 .LASF7336
     /tmp/ccYIdjbY.s:101604  .debug_str:000000000004088a .LASF7337
     /tmp/ccYIdjbY.s:97258  .debug_str:000000000002ecd0 .LASF7338
     /tmp/ccYIdjbY.s:92604  .debug_str:000000000001bab2 .LASF7339
     /tmp/ccYIdjbY.s:97750  .debug_str:0000000000030e3a .LASF7340
     /tmp/ccYIdjbY.s:100488  .debug_str:000000000003bd6c .LASF7341
     /tmp/ccYIdjbY.s:99134  .debug_str:0000000000036643 .LASF7342
     /tmp/ccYIdjbY.s:93568  .debug_str:000000000001fd72 .LASF7343
     /tmp/ccYIdjbY.s:95642  .debug_str:00000000000281ff .LASF7344
     /tmp/ccYIdjbY.s:102564  .debug_str:00000000000446dc .LASF7345
     /tmp/ccYIdjbY.s:98946  .debug_str:0000000000035c13 .LASF7346
     /tmp/ccYIdjbY.s:102574  .debug_str:000000000004477d .LASF7347
     /tmp/ccYIdjbY.s:90838  .debug_str:00000000000142a7 .LASF7348
     /tmp/ccYIdjbY.s:86104  .debug_str:0000000000000ac8 .LASF7349
     /tmp/ccYIdjbY.s:102368  .debug_str:0000000000043992 .LASF7350
     /tmp/ccYIdjbY.s:103444  .debug_str:00000000000482fe .LASF7351
     /tmp/ccYIdjbY.s:100410  .debug_str:000000000003b916 .LASF7352
     /tmp/ccYIdjbY.s:100884  .debug_str:000000000003d71b .LASF7353
     /tmp/ccYIdjbY.s:104108  .debug_str:000000000004b274 .LASF7354
     /tmp/ccYIdjbY.s:96062  .debug_str:0000000000029cd9 .LASF7355
     /tmp/ccYIdjbY.s:102998  .debug_str:00000000000463f2 .LASF7356
     /tmp/ccYIdjbY.s:90482  .debug_str:0000000000012cba .LASF7357
     /tmp/ccYIdjbY.s:87888  .debug_str:0000000000008577 .LASF7358
     /tmp/ccYIdjbY.s:104240  .debug_str:000000000004bb90 .LASF7359
     /tmp/ccYIdjbY.s:86992  .debug_str:00000000000048be .LASF7360
     /tmp/ccYIdjbY.s:101572  .debug_str:00000000000406cc .LASF7361
     /tmp/ccYIdjbY.s:91320  .debug_str:0000000000016244 .LASF7362
     /tmp/ccYIdjbY.s:93420  .debug_str:000000000001f3a3 .LASF7363
     /tmp/ccYIdjbY.s:89062  .debug_str:000000000000d51b .LASF7364
     /tmp/ccYIdjbY.s:88804  .debug_str:000000000000c4fc .LASF7365
     /tmp/ccYIdjbY.s:94918  .debug_str:0000000000025242 .LASF7366
     /tmp/ccYIdjbY.s:96730  .debug_str:000000000002c8c6 .LASF7367
     /tmp/ccYIdjbY.s:91088  .debug_str:000000000001530d .LASF7368
     /tmp/ccYIdjbY.s:93732  .debug_str:00000000000207c4 .LASF7369
     /tmp/ccYIdjbY.s:96050  .debug_str:0000000000029bab .LASF7370
     /tmp/ccYIdjbY.s:88444  .debug_str:000000000000abbd .LASF7371
     /tmp/ccYIdjbY.s:94740  .debug_str:0000000000024620 .LASF7372
     /tmp/ccYIdjbY.s:94710  .debug_str:000000000002447a .LASF7373
     /tmp/ccYIdjbY.s:94716  .debug_str:00000000000244ba .LASF7374
     /tmp/ccYIdjbY.s:87516  .debug_str:0000000000006d54 .LASF7375
     /tmp/ccYIdjbY.s:96492  .debug_str:000000000002b872 .LASF7376
     /tmp/ccYIdjbY.s:96478  .debug_str:000000000002b725 .LASF7377
     /tmp/ccYIdjbY.s:100686  .debug_str:000000000003ca79 .LASF7378
     /tmp/ccYIdjbY.s:87020  .debug_str:0000000000004b1a .LASF7379
     /tmp/ccYIdjbY.s:103300  .debug_str:0000000000047941 .LASF7380
     /tmp/ccYIdjbY.s:97030  .debug_str:000000000002dd16 .LASF7381
     /tmp/ccYIdjbY.s:102938  .debug_str:0000000000045fd0 .LASF7382
     /tmp/ccYIdjbY.s:99584  .debug_str:00000000000380c9 .LASF7383
     /tmp/ccYIdjbY.s:94912  .debug_str:00000000000251d0 .LASF7384
     /tmp/ccYIdjbY.s:90666  .debug_str:000000000001382a .LASF7385
     /tmp/ccYIdjbY.s:87218  .debug_str:00000000000058c7 .LASF7386
     /tmp/ccYIdjbY.s:101384  .debug_str:000000000003f92d .LASF7387
     /tmp/ccYIdjbY.s:95716  .debug_str:0000000000028726 .LASF7388
     /tmp/ccYIdjbY.s:95718  .debug_str:0000000000028734 .LASF7389
     /tmp/ccYIdjbY.s:95720  .debug_str:0000000000028742 .LASF7390
     /tmp/ccYIdjbY.s:95722  .debug_str:0000000000028750 .LASF7391
     /tmp/ccYIdjbY.s:95724  .debug_str:000000000002875e .LASF7392
     /tmp/ccYIdjbY.s:95726  .debug_str:000000000002876c .LASF7393
     /tmp/ccYIdjbY.s:95728  .debug_str:000000000002877a .LASF7394
     /tmp/ccYIdjbY.s:95730  .debug_str:0000000000028788 .LASF7395
     /tmp/ccYIdjbY.s:95732  .debug_str:0000000000028796 .LASF7396
     /tmp/ccYIdjbY.s:95734  .debug_str:00000000000287a4 .LASF7397
     /tmp/ccYIdjbY.s:103214  .debug_str:00000000000472ec .LASF7398
     /tmp/ccYIdjbY.s:88462  .debug_str:000000000000ad62 .LASF7399
     /tmp/ccYIdjbY.s:98442  .debug_str:0000000000033cb7 .LASF7400
     /tmp/ccYIdjbY.s:94314  .debug_str:0000000000022e0a .LASF7401
     /tmp/ccYIdjbY.s:87072  .debug_str:0000000000004e9e .LASF7402
     /tmp/ccYIdjbY.s:101536  .debug_str:000000000004043e .LASF7403
     /tmp/ccYIdjbY.s:93740  .debug_str:0000000000020859 .LASF7404
     /tmp/ccYIdjbY.s:91164  .debug_str:00000000000157ec .LASF7405
     /tmp/ccYIdjbY.s:101548  .debug_str:00000000000404df .LASF7406
     /tmp/ccYIdjbY.s:86952  .debug_str:00000000000045b8 .LASF7407
     /tmp/ccYIdjbY.s:86032  .debug_str:0000000000000676 .LASF7408
     /tmp/ccYIdjbY.s:92988  .debug_str:000000000001d4b5 .LASF7409
     /tmp/ccYIdjbY.s:89748  .debug_str:000000000000fc7a .LASF7410
     /tmp/ccYIdjbY.s:103932  .debug_str:000000000004a6fc .LASF7411
     /tmp/ccYIdjbY.s:88582  .debug_str:000000000000b62b .LASF7412
     /tmp/ccYIdjbY.s:95770  .debug_str:00000000000289d5 .LASF7413
     /tmp/ccYIdjbY.s:98548  .debug_str:000000000003438d .LASF7414
     /tmp/ccYIdjbY.s:101984  .debug_str:00000000000420ca .LASF7415
     /tmp/ccYIdjbY.s:102432  .debug_str:0000000000043dd1 .LASF7416
     /tmp/ccYIdjbY.s:92232  .debug_str:000000000001a0a5 .LASF7417
     /tmp/ccYIdjbY.s:101986  .debug_str:00000000000420dd .LASF7418
     /tmp/ccYIdjbY.s:96716  .debug_str:000000000002c7c7 .LASF7419
     /tmp/ccYIdjbY.s:91710  .debug_str:0000000000017c0e .LASF7420
     /tmp/ccYIdjbY.s:87052  .debug_str:0000000000004cf5 .LASF7421
     /tmp/ccYIdjbY.s:102184  .debug_str:0000000000042d67 .LASF7422
     /tmp/ccYIdjbY.s:91712  .debug_str:0000000000017c20 .LASF7423
     /tmp/ccYIdjbY.s:98480  .debug_str:0000000000033f46 .LASF7424
     /tmp/ccYIdjbY.s:96460  .debug_str:000000000002b5c5 .LASF7425
     /tmp/ccYIdjbY.s:91714  .debug_str:0000000000017c32 .LASF7426
     /tmp/ccYIdjbY.s:87056  .debug_str:0000000000004d33 .LASF7427
     /tmp/ccYIdjbY.s:90558  .debug_str:0000000000013193 .LASF7428
     /tmp/ccYIdjbY.s:93934  .debug_str:0000000000021590 .LASF7429
     /tmp/ccYIdjbY.s:98486  .debug_str:0000000000033fb8 .LASF7430
     /tmp/ccYIdjbY.s:103052  .debug_str:0000000000046777 .LASF7431
     /tmp/ccYIdjbY.s:90206  .debug_str:0000000000011aa3 .LASF7432
     /tmp/ccYIdjbY.s:103346  .debug_str:0000000000047c2d .LASF7433
     /tmp/ccYIdjbY.s:88274  .debug_str:000000000000a024 .LASF7434
     /tmp/ccYIdjbY.s:90208  .debug_str:0000000000011ab5 .LASF7435
     /tmp/ccYIdjbY.s:103922  .debug_str:000000000004a642 .LASF7436
     /tmp/ccYIdjbY.s:100880  .debug_str:000000000003d6b3 .LASF7437
     /tmp/ccYIdjbY.s:90210  .debug_str:0000000000011ac7 .LASF7438
     /tmp/ccYIdjbY.s:103356  .debug_str:0000000000047cb8 .LASF7439
     /tmp/ccYIdjbY.s:95126  .debug_str:0000000000025ff1 .LASF7440
     /tmp/ccYIdjbY.s:91104  .debug_str:0000000000015411 .LASF7441
     /tmp/ccYIdjbY.s:86088  .debug_str:0000000000000a00 .LASF7442
     /tmp/ccYIdjbY.s:96522  .debug_str:000000000002ba3b .LASF7443
     /tmp/ccYIdjbY.s:99044  .debug_str:00000000000361a8 .LASF7444
     /tmp/ccYIdjbY.s:92022  .debug_str:00000000000191a6 .LASF7445
     /tmp/ccYIdjbY.s:97336  .debug_str:000000000002f160 .LASF7446
     /tmp/ccYIdjbY.s:91304  .debug_str:000000000001613a .LASF7447
     /tmp/ccYIdjbY.s:101764  .debug_str:0000000000041356 .LASF7448
     /tmp/ccYIdjbY.s:86562  .debug_str:0000000000002b01 .LASF7449
     /tmp/ccYIdjbY.s:96214  .debug_str:000000000002a6df .LASF7450
     /tmp/ccYIdjbY.s:87940  .debug_str:00000000000088e7 .LASF7451
     /tmp/ccYIdjbY.s:90514  .debug_str:0000000000012ec4 .LASF7452
     /tmp/ccYIdjbY.s:91322  .debug_str:0000000000016258 .LASF7453
     /tmp/ccYIdjbY.s:97458  .debug_str:000000000002f951 .LASF7454
     /tmp/ccYIdjbY.s:94704  .debug_str:0000000000024413 .LASF7455
     /tmp/ccYIdjbY.s:101312  .debug_str:000000000003f414 .LASF7456
     /tmp/ccYIdjbY.s:86250  .debug_str:00000000000014a3 .LASF7457
     /tmp/ccYIdjbY.s:103954  .debug_str:000000000004a886 .LASF7458
     /tmp/ccYIdjbY.s:101324  .debug_str:000000000003f4cb .LASF7459
     /tmp/ccYIdjbY.s:93560  .debug_str:000000000001fcc5 .LASF7460
     /tmp/ccYIdjbY.s:94148  .debug_str:00000000000223a3 .LASF7461
     /tmp/ccYIdjbY.s:94708  .debug_str:000000000002446e .LASF7462
     /tmp/ccYIdjbY.s:86856  .debug_str:0000000000003f4e .LASF7463
     /tmp/ccYIdjbY.s:96900  .debug_str:000000000002d478 .LASF7464
     /tmp/ccYIdjbY.s:101872  .debug_str:0000000000041a41 .LASF7465
     /tmp/ccYIdjbY.s:103320  .debug_str:0000000000047a84 .LASF7466
     /tmp/ccYIdjbY.s:87884  .debug_str:0000000000008531 .LASF7467
     /tmp/ccYIdjbY.s:88396  .debug_str:000000000000a842 .LASF7468
     /tmp/ccYIdjbY.s:91048  .debug_str:00000000000150fb .LASF7469
     /tmp/ccYIdjbY.s:98704  .debug_str:0000000000034d8b .LASF7470
     /tmp/ccYIdjbY.s:95428  .debug_str:000000000002748a .LASF7471
     /tmp/ccYIdjbY.s:87832  .debug_str:000000000000819e .LASF7472
     /tmp/ccYIdjbY.s:93092  .debug_str:000000000001dbe2 .LASF7473
     /tmp/ccYIdjbY.s:90758  .debug_str:0000000000013d9c .LASF7474
     /tmp/ccYIdjbY.s:91580  .debug_str:0000000000017476 .LASF7475
     /tmp/ccYIdjbY.s:102334  .debug_str:0000000000043701 .LASF7476
     /tmp/ccYIdjbY.s:86432  .debug_str:000000000000216a .LASF7477
     /tmp/ccYIdjbY.s:104016  .debug_str:000000000004ac78 .LASF7478
     /tmp/ccYIdjbY.s:98874  .debug_str:000000000003580a .LASF7479
     /tmp/ccYIdjbY.s:97926  .debug_str:0000000000031a2c .LASF7480
     /tmp/ccYIdjbY.s:86218  .debug_str:0000000000001288 .LASF7481
     /tmp/ccYIdjbY.s:93816  .debug_str:0000000000020d53 .LASF7482
     /tmp/ccYIdjbY.s:99338  .debug_str:0000000000037068 .LASF7483
     /tmp/ccYIdjbY.s:98796  .debug_str:000000000003531c .LASF7484
     /tmp/ccYIdjbY.s:102776  .debug_str:0000000000045547 .LASF7485
     /tmp/ccYIdjbY.s:102532  .debug_str:00000000000444f1 .LASF7486
     /tmp/ccYIdjbY.s:96964  .debug_str:000000000002d866 .LASF7487
     /tmp/ccYIdjbY.s:92136  .debug_str:0000000000019a7b .LASF7488
     /tmp/ccYIdjbY.s:103094  .debug_str:0000000000046a24 .LASF7489
     /tmp/ccYIdjbY.s:93896  .debug_str:000000000002131e .LASF7490
     /tmp/ccYIdjbY.s:102822  .debug_str:00000000000458b3 .LASF7491
     /tmp/ccYIdjbY.s:99686  .debug_str:00000000000387d0 .LASF7492
     /tmp/ccYIdjbY.s:96882  .debug_str:000000000002d3aa .LASF7493
     /tmp/ccYIdjbY.s:100122  .debug_str:000000000003a518 .LASF7494
     /tmp/ccYIdjbY.s:86550  .debug_str:00000000000029c8 .LASF7495
     /tmp/ccYIdjbY.s:94264  .debug_str:0000000000022bf2 .LASF7496
     /tmp/ccYIdjbY.s:95128  .debug_str:0000000000026017 .LASF7497
     /tmp/ccYIdjbY.s:90330  .debug_str:0000000000012299 .LASF7498
     /tmp/ccYIdjbY.s:100230  .debug_str:000000000003ac7a .LASF7499
     /tmp/ccYIdjbY.s:96178  .debug_str:000000000002a48a .LASF7500
     /tmp/ccYIdjbY.s:97226  .debug_str:000000000002eafd .LASF7501
     /tmp/ccYIdjbY.s:91508  .debug_str:0000000000016f91 .LASF7502
     /tmp/ccYIdjbY.s:102794  .debug_str:0000000000045676 .LASF7503
     /tmp/ccYIdjbY.s:95048  .debug_str:0000000000025aac .LASF7504
     /tmp/ccYIdjbY.s:89808  .debug_str:000000000000ff83 .LASF7505
     /tmp/ccYIdjbY.s:86994  .debug_str:00000000000048cf .LASF7506
     /tmp/ccYIdjbY.s:101174  .debug_str:000000000003eb8f .LASF7507
     /tmp/ccYIdjbY.s:87000  .debug_str:0000000000004942 .LASF7508
     /tmp/ccYIdjbY.s:91086  .debug_str:00000000000152e2 .LASF7509
     /tmp/ccYIdjbY.s:88876  .debug_str:000000000000c9cd .LASF7510
     /tmp/ccYIdjbY.s:94536  .debug_str:0000000000023b8c .LASF7511
     /tmp/ccYIdjbY.s:99510  .debug_str:0000000000037b84 .LASF7512
     /tmp/ccYIdjbY.s:93306  .debug_str:000000000001eb25 .LASF7513
     /tmp/ccYIdjbY.s:95016  .debug_str:0000000000025829 .LASF7514
     /tmp/ccYIdjbY.s:94154  .debug_str:00000000000223fb .LASF7515
     /tmp/ccYIdjbY.s:91032  .debug_str:0000000000014ffa .LASF7516
     /tmp/ccYIdjbY.s:93616  .debug_str:000000000002009d .LASF7517
     /tmp/ccYIdjbY.s:96612  .debug_str:000000000002c04a .LASF7518
     /tmp/ccYIdjbY.s:86198  .debug_str:0000000000001136 .LASF7519
     /tmp/ccYIdjbY.s:89082  .debug_str:000000000000d6b1 .LASF7520
     /tmp/ccYIdjbY.s:101962  .debug_str:0000000000041f9f .LASF7521
     /tmp/ccYIdjbY.s:92500  .debug_str:000000000001b30e .LASF7522
     /tmp/ccYIdjbY.s:100022  .debug_str:0000000000039f18 .LASF7523
     /tmp/ccYIdjbY.s:90304  .debug_str:00000000000120e7 .LASF7524
     /tmp/ccYIdjbY.s:97744  .debug_str:0000000000030dd7 .LASF7525
     /tmp/ccYIdjbY.s:87560  .debug_str:0000000000007026 .LASF7526
     /tmp/ccYIdjbY.s:91854  .debug_str:0000000000018603 .LASF7527
     /tmp/ccYIdjbY.s:96076  .debug_str:0000000000029dba .LASF7528
     /tmp/ccYIdjbY.s:98438  .debug_str:0000000000033c76 .LASF7529
     /tmp/ccYIdjbY.s:95506  .debug_str:00000000000278f4 .LASF7530
     /tmp/ccYIdjbY.s:101704  .debug_str:0000000000040f04 .LASF7531
     /tmp/ccYIdjbY.s:90070  .debug_str:00000000000110ef .LASF7532
     /tmp/ccYIdjbY.s:96814  .debug_str:000000000002ce49 .LASF7533
     /tmp/ccYIdjbY.s:91052  .debug_str:000000000001512f .LASF7534
     /tmp/ccYIdjbY.s:101544  .debug_str:00000000000404c7 .LASF7535
     /tmp/ccYIdjbY.s:101166  .debug_str:000000000003ead8 .LASF7536
     /tmp/ccYIdjbY.s:95786  .debug_str:0000000000028aff .LASF7537
     /tmp/ccYIdjbY.s:103278  .debug_str:0000000000047781 .LASF7538
     /tmp/ccYIdjbY.s:90782  .debug_str:0000000000013ec1 .LASF7539
     /tmp/ccYIdjbY.s:91466  .debug_str:0000000000016d2d .LASF7540
     /tmp/ccYIdjbY.s:100038  .debug_str:000000000003a018 .LASF7541
     /tmp/ccYIdjbY.s:100508  .debug_str:000000000003be98 .LASF7542
     /tmp/ccYIdjbY.s:89658  .debug_str:000000000000f72f .LASF7543
     /tmp/ccYIdjbY.s:98352  .debug_str:00000000000336db .LASF7544
     /tmp/ccYIdjbY.s:92830  .debug_str:000000000001c9c8 .LASF7545
     /tmp/ccYIdjbY.s:96656  .debug_str:000000000002c31f .LASF7546
     /tmp/ccYIdjbY.s:93254  .debug_str:000000000001e759 .LASF7547
     /tmp/ccYIdjbY.s:101848  .debug_str:000000000004185a .LASF7548
     /tmp/ccYIdjbY.s:102178  .debug_str:0000000000042d26 .LASF7549
     /tmp/ccYIdjbY.s:86190  .debug_str:00000000000010d9 .LASF7550
     /tmp/ccYIdjbY.s:103308  .debug_str:0000000000047999 .LASF7551
     /tmp/ccYIdjbY.s:104276  .debug_str:000000000004be40 .LASF7552
     /tmp/ccYIdjbY.s:94250  .debug_str:0000000000022b12 .LASF7553
     /tmp/ccYIdjbY.s:89282  .debug_str:000000000000e295 .LASF7554
     /tmp/ccYIdjbY.s:101588  .debug_str:000000000004078c .LASF7555
     /tmp/ccYIdjbY.s:89190  .debug_str:000000000000dddb .LASF7556
     /tmp/ccYIdjbY.s:85986  .debug_str:00000000000002e1 .LASF7557
     /tmp/ccYIdjbY.s:101580  .debug_str:0000000000040739 .LASF7558
     /tmp/ccYIdjbY.s:91794  .debug_str:00000000000181b6 .LASF7559
     /tmp/ccYIdjbY.s:89972  .debug_str:0000000000010a0a .LASF7560
     /tmp/ccYIdjbY.s:91398  .debug_str:0000000000016833 .LASF7561
     /tmp/ccYIdjbY.s:93702  .debug_str:000000000002065a .LASF7562
     /tmp/ccYIdjbY.s:91738  .debug_str:0000000000017dd4 .LASF7563
     /tmp/ccYIdjbY.s:92820  .debug_str:000000000001c8e4 .LASF7564
     /tmp/ccYIdjbY.s:91120  .debug_str:0000000000015500 .LASF7565
     /tmp/ccYIdjbY.s:96290  .debug_str:000000000002abdb .LASF7566
     /tmp/ccYIdjbY.s:95026  .debug_str:00000000000258a8 .LASF7567
     /tmp/ccYIdjbY.s:97312  .debug_str:000000000002efe7 .LASF7568
     /tmp/ccYIdjbY.s:101430  .debug_str:000000000003fc5f .LASF7569
     /tmp/ccYIdjbY.s:95942  .debug_str:00000000000294fd .LASF7570
     /tmp/ccYIdjbY.s:101920  .debug_str:0000000000041cb7 .LASF7571
     /tmp/ccYIdjbY.s:94934  .debug_str:0000000000025367 .LASF7572
     /tmp/ccYIdjbY.s:95932  .debug_str:0000000000029475 .LASF7573
     /tmp/ccYIdjbY.s:101916  .debug_str:0000000000041c85 .LASF7574
     /tmp/ccYIdjbY.s:98954  .debug_str:0000000000035c89 .LASF7575
     /tmp/ccYIdjbY.s:101692  .debug_str:0000000000040e30 .LASF7576
     /tmp/ccYIdjbY.s:89298  .debug_str:000000000000e356 .LASF7577
     /tmp/ccYIdjbY.s:92736  .debug_str:000000000001c2dd .LASF7578
     /tmp/ccYIdjbY.s:101682  .debug_str:0000000000040dd1 .LASF7579
     /tmp/ccYIdjbY.s:89296  .debug_str:000000000000e34c .LASF7580
     /tmp/ccYIdjbY.s:90450  .debug_str:0000000000012ac8 .LASF7581
     /tmp/ccYIdjbY.s:85984  .debug_str:00000000000002d0 .LASF7582
     /tmp/ccYIdjbY.s:85948  .debug_str:000000000000006c .LASF7583
     /tmp/ccYIdjbY.s:87778  .debug_str:0000000000007da4 .LASF7584
     /tmp/ccYIdjbY.s:89014  .debug_str:000000000000d2be .LASF7585
     /tmp/ccYIdjbY.s:88980  .debug_str:000000000000d06e .LASF7586
     /tmp/ccYIdjbY.s:104182  .debug_str:000000000004b7c7 .LASF7587
     /tmp/ccYIdjbY.s:92364  .debug_str:000000000001a9cf .LASF7588
     /tmp/ccYIdjbY.s:87032  .debug_str:0000000000004bbe .LASF7589
     /tmp/ccYIdjbY.s:91404  .debug_str:0000000000016887 .LASF7590
     /tmp/ccYIdjbY.s:99122  .debug_str:000000000003657f .LASF7591
     /tmp/ccYIdjbY.s:99890  .debug_str:0000000000039635 .LASF7592
     /tmp/ccYIdjbY.s:99638  .debug_str:000000000003841f .LASF7593
     /tmp/ccYIdjbY.s:89182  .debug_str:000000000000dd7b .LASF7594
     /tmp/ccYIdjbY.s:89002  .debug_str:000000000000d1f5 .LASF7595
     /tmp/ccYIdjbY.s:93736  .debug_str:000000000002081b .LASF7596
     /tmp/ccYIdjbY.s:99130  .debug_str:0000000000036609 .LASF7597
     /tmp/ccYIdjbY.s:99898  .debug_str:00000000000396ce .LASF7598
     /tmp/ccYIdjbY.s:100442  .debug_str:000000000003bb2f .LASF7599
     /tmp/ccYIdjbY.s:89068  .debug_str:000000000000d590 .LASF7600
     /tmp/ccYIdjbY.s:88600  .debug_str:000000000000b74f .LASF7601
     /tmp/ccYIdjbY.s:86254  .debug_str:00000000000014bf .LASF7602
     /tmp/ccYIdjbY.s:98718  .debug_str:0000000000034eab .LASF7603
     /tmp/ccYIdjbY.s:86528  .debug_str:000000000000288a .LASF7604
     /tmp/ccYIdjbY.s:94902  .debug_str:0000000000025124 .LASF7605
     /tmp/ccYIdjbY.s:98720  .debug_str:0000000000034ec3 .LASF7606
     /tmp/ccYIdjbY.s:93510  .debug_str:000000000001f92d .LASF7607
     /tmp/ccYIdjbY.s:100856  .debug_str:000000000003d4fa .LASF7608
     /tmp/ccYIdjbY.s:103702  .debug_str:0000000000049515 .LASF7609
     /tmp/ccYIdjbY.s:91598  .debug_str:000000000001757c .LASF7610
     /tmp/ccYIdjbY.s:97094  .debug_str:000000000002e166 .LASF7611
     /tmp/ccYIdjbY.s:103704  .debug_str:000000000004952d .LASF7612
     /tmp/ccYIdjbY.s:91600  .debug_str:0000000000017594 .LASF7613
     /tmp/ccYIdjbY.s:91224  .debug_str:0000000000015bfe .LASF7614
     /tmp/ccYIdjbY.s:91414  .debug_str:0000000000016929 .LASF7615
     /tmp/ccYIdjbY.s:96704  .debug_str:000000000002c6a9 .LASF7616
     /tmp/ccYIdjbY.s:89920  .debug_str:0000000000010788 .LASF7617
     /tmp/ccYIdjbY.s:90396  .debug_str:000000000001276a .LASF7618
     /tmp/ccYIdjbY.s:96706  .debug_str:000000000002c6c1 .LASF7619
     /tmp/ccYIdjbY.s:102488  .debug_str:00000000000441f7 .LASF7620
     /tmp/ccYIdjbY.s:95472  .debug_str:0000000000027687 .LASF7621
     /tmp/ccYIdjbY.s:101650  .debug_str:0000000000040b6e .LASF7622
     /tmp/ccYIdjbY.s:101378  .debug_str:000000000003f8bd .LASF7623
     /tmp/ccYIdjbY.s:95474  .debug_str:000000000002769f .LASF7624
     /tmp/ccYIdjbY.s:101652  .debug_str:0000000000040b86 .LASF7625
     /tmp/ccYIdjbY.s:88342  .debug_str:000000000000a4a8 .LASF7626
     /tmp/ccYIdjbY.s:93174  .debug_str:000000000001e1e9 .LASF7627
     /tmp/ccYIdjbY.s:97076  .debug_str:000000000002e02b .LASF7628
     /tmp/ccYIdjbY.s:94426  .debug_str:0000000000023589 .LASF7629
     /tmp/ccYIdjbY.s:100440  .debug_str:000000000003bb17 .LASF7630
     /tmp/ccYIdjbY.s:88248  .debug_str:0000000000009de1 .LASF7631
     /tmp/ccYIdjbY.s:88562  .debug_str:000000000000b4ce .LASF7632
     /tmp/ccYIdjbY.s:87088  .debug_str:0000000000004f5d .LASF7633
     /tmp/ccYIdjbY.s:93372  .debug_str:000000000001f0c7 .LASF7634
     /tmp/ccYIdjbY.s:87342  .debug_str:00000000000060d5 .LASF7635
     /tmp/ccYIdjbY.s:87090  .debug_str:0000000000004f75 .LASF7636
     /tmp/ccYIdjbY.s:93374  .debug_str:000000000001f0df .LASF7637
     /tmp/ccYIdjbY.s:99986  .debug_str:0000000000039c92 .LASF7638
     /tmp/ccYIdjbY.s:92160  .debug_str:0000000000019c12 .LASF7639
     /tmp/ccYIdjbY.s:98404  .debug_str:0000000000033a15 .LASF7640
     /tmp/ccYIdjbY.s:95546  .debug_str:0000000000027b45 .LASF7641
     /tmp/ccYIdjbY.s:92162  .debug_str:0000000000019c2a .LASF7642
     /tmp/ccYIdjbY.s:98406  .debug_str:0000000000033a2d .LASF7643
     /tmp/ccYIdjbY.s:92982  .debug_str:000000000001d43f .LASF7644
     /tmp/ccYIdjbY.s:97230  .debug_str:000000000002eb19 .LASF7645
     /tmp/ccYIdjbY.s:103380  .debug_str:0000000000047e9c .LASF7646
     /tmp/ccYIdjbY.s:91898  .debug_str:000000000001890c .LASF7647
     /tmp/ccYIdjbY.s:97232  .debug_str:000000000002eb31 .LASF7648
     /tmp/ccYIdjbY.s:103382  .debug_str:0000000000047eb4 .LASF7649
     /tmp/ccYIdjbY.s:86054  .debug_str:00000000000007b2 .LASF7650
     /tmp/ccYIdjbY.s:102226  .debug_str:0000000000042fc3 .LASF7651
     /tmp/ccYIdjbY.s:90088  .debug_str:0000000000011238 .LASF7652
     /tmp/ccYIdjbY.s:103112  .debug_str:0000000000046b3a .LASF7653
     /tmp/ccYIdjbY.s:102228  .debug_str:0000000000042fdb .LASF7654
     /tmp/ccYIdjbY.s:90090  .debug_str:0000000000011250 .LASF7655
     /tmp/ccYIdjbY.s:97400  .debug_str:000000000002f59c .LASF7656
     /tmp/ccYIdjbY.s:88812  .debug_str:000000000000c56a .LASF7657
     /tmp/ccYIdjbY.s:95150  .debug_str:00000000000261b7 .LASF7658
     /tmp/ccYIdjbY.s:96320  .debug_str:000000000002ad74 .LASF7659
     /tmp/ccYIdjbY.s:88814  .debug_str:000000000000c582 .LASF7660
     /tmp/ccYIdjbY.s:92266  .debug_str:000000000001a2f9 .LASF7661
     /tmp/ccYIdjbY.s:90422  .debug_str:0000000000012968 .LASF7662
     /tmp/ccYIdjbY.s:103826  .debug_str:0000000000049f66 .LASF7663
     /tmp/ccYIdjbY.s:90250  .debug_str:0000000000011d61 .LASF7664
     /tmp/ccYIdjbY.s:92502  .debug_str:000000000001b326 .LASF7665
     /tmp/ccYIdjbY.s:103828  .debug_str:0000000000049f7f .LASF7666
     /tmp/ccYIdjbY.s:90252  .debug_str:0000000000011d7a .LASF7667
     /tmp/ccYIdjbY.s:86674  .debug_str:0000000000003318 .LASF7668
     /tmp/ccYIdjbY.s:90524  .debug_str:0000000000012f50 .LASF7669
     /tmp/ccYIdjbY.s:99630  .debug_str:000000000003839f .LASF7670
     /tmp/ccYIdjbY.s:103918  .debug_str:000000000004a5f5 .LASF7671
     /tmp/ccYIdjbY.s:90526  .debug_str:0000000000012f69 .LASF7672
     /tmp/ccYIdjbY.s:95306  .debug_str:0000000000026be7 .LASF7673
     /tmp/ccYIdjbY.s:88662  .debug_str:000000000000bb39 .LASF7674
     /tmp/ccYIdjbY.s:93684  .debug_str:000000000002059c .LASF7675
     /tmp/ccYIdjbY.s:100302  .debug_str:000000000003b1a9 .LASF7676
     /tmp/ccYIdjbY.s:97072  .debug_str:000000000002dfd4 .LASF7677
     /tmp/ccYIdjbY.s:93686  .debug_str:00000000000205b5 .LASF7678
     /tmp/ccYIdjbY.s:100304  .debug_str:000000000003b1c2 .LASF7679
     /tmp/ccYIdjbY.s:91200  .debug_str:0000000000015a66 .LASF7680
     /tmp/ccYIdjbY.s:103716  .debug_str:0000000000049639 .LASF7681
     /tmp/ccYIdjbY.s:86936  .debug_str:00000000000044d5 .LASF7682
     /tmp/ccYIdjbY.s:89890  .debug_str:0000000000010506 .LASF7683
     /tmp/ccYIdjbY.s:100574  .debug_str:000000000003c333 .LASF7684
     /tmp/ccYIdjbY.s:86938  .debug_str:00000000000044ee .LASF7685
     /tmp/ccYIdjbY.s:102460  .debug_str:0000000000043fdd .LASF7686
     /tmp/ccYIdjbY.s:87220  .debug_str:00000000000058d2 .LASF7687
     /tmp/ccYIdjbY.s:92024  .debug_str:00000000000191b7 .LASF7688
     /tmp/ccYIdjbY.s:101348  .debug_str:000000000003f684 .LASF7689
     /tmp/ccYIdjbY.s:87222  .debug_str:00000000000058eb .LASF7690
     /tmp/ccYIdjbY.s:100096  .debug_str:000000000003a3b5 .LASF7691
     /tmp/ccYIdjbY.s:95600  .debug_str:0000000000027f0a .LASF7692
     /tmp/ccYIdjbY.s:92308  .debug_str:000000000001a559 .LASF7693
     /tmp/ccYIdjbY.s:97102  .debug_str:000000000002e201 .LASF7694
     /tmp/ccYIdjbY.s:94398  .debug_str:00000000000233e3 .LASF7695
     /tmp/ccYIdjbY.s:87100  .debug_str:0000000000005033 .LASF7696
     /tmp/ccYIdjbY.s:97104  .debug_str:000000000002e21a .LASF7697
     /tmp/ccYIdjbY.s:88532  .debug_str:000000000000b224 .LASF7698
     /tmp/ccYIdjbY.s:98484  .debug_str:0000000000033f9a .LASF7699
     /tmp/ccYIdjbY.s:91326  .debug_str:0000000000016285 .LASF7700
     /tmp/ccYIdjbY.s:97114  .debug_str:000000000002e301 .LASF7701
     /tmp/ccYIdjbY.s:97992  .debug_str:0000000000031e61 .LASF7702
     /tmp/ccYIdjbY.s:88016  .debug_str:0000000000008e62 .LASF7703
     /tmp/ccYIdjbY.s:97446  .debug_str:000000000002f89e .LASF7704
     /tmp/ccYIdjbY.s:97994  .debug_str:0000000000031e6e .LASF7705
     /tmp/ccYIdjbY.s:90126  .debug_str:00000000000114fd .LASF7706
     /tmp/ccYIdjbY.s:91588  .debug_str:00000000000174f2 .LASF7707
     /tmp/ccYIdjbY.s:97996  .debug_str:0000000000031e7b .LASF7708
     /tmp/ccYIdjbY.s:88022  .debug_str:0000000000008ea6 .LASF7709
     /tmp/ccYIdjbY.s:98348  .debug_str:00000000000336a2 .LASF7710
     /tmp/ccYIdjbY.s:96634  .debug_str:000000000002c1c8 .LASF7711
     /tmp/ccYIdjbY.s:87514  .debug_str:0000000000006d48 .LASF7712
     /tmp/ccYIdjbY.s:92606  .debug_str:000000000001bac6 .LASF7713
     /tmp/ccYIdjbY.s:100452  .debug_str:000000000003bb8a .LASF7714
     /tmp/ccYIdjbY.s:92370  .debug_str:000000000001aa1b .LASF7715
     /tmp/ccYIdjbY.s:103388  .debug_str:0000000000047f29 .LASF7716
     /tmp/ccYIdjbY.s:90046  .debug_str:0000000000010f3c .LASF7717
     /tmp/ccYIdjbY.s:99770  .debug_str:0000000000038ce8 .LASF7718
     /tmp/ccYIdjbY.s:90416  .debug_str:00000000000128fe .LASF7719
     /tmp/ccYIdjbY.s:98306  .debug_str:00000000000333e9 .LASF7720
     /tmp/ccYIdjbY.s:92550  .debug_str:000000000001b71e .LASF7721
     /tmp/ccYIdjbY.s:86078  .debug_str:000000000000095a .LASF7722
     /tmp/ccYIdjbY.s:93482  .debug_str:000000000001f71d .LASF7723
     /tmp/ccYIdjbY.s:97488  .debug_str:000000000002fb70 .LASF7724
     /tmp/ccYIdjbY.s:102018  .debug_str:00000000000422d7 .LASF7725
     /tmp/ccYIdjbY.s:91438  .debug_str:0000000000016afe .LASF7726
     /tmp/ccYIdjbY.s:95466  .debug_str:000000000002764c .LASF7727
     /tmp/ccYIdjbY.s:100128  .debug_str:000000000003a563 .LASF7728
     /tmp/ccYIdjbY.s:101486  .debug_str:00000000000400f6 .LASF7729
     /tmp/ccYIdjbY.s:98200  .debug_str:0000000000032c27 .LASF7730
     /tmp/ccYIdjbY.s:98534  .debug_str:00000000000342c9 .LASF7731
     /tmp/ccYIdjbY.s:86372  .debug_str:0000000000001ced .LASF7732
     /tmp/ccYIdjbY.s:99654  .debug_str:0000000000038534 .LASF7733
     /tmp/ccYIdjbY.s:92750  .debug_str:000000000001c3d5 .LASF7734
     /tmp/ccYIdjbY.s:101032  .debug_str:000000000003e23b .LASF7735
     /tmp/ccYIdjbY.s:103980  .debug_str:000000000004a9f9 .LASF7736
     /tmp/ccYIdjbY.s:101104  .debug_str:000000000003e681 .LASF7737
     /tmp/ccYIdjbY.s:90648  .debug_str:0000000000013735 .LASF7738
     /tmp/ccYIdjbY.s:96408  .debug_str:000000000002b273 .LASF7739
     /tmp/ccYIdjbY.s:96326  .debug_str:000000000002adbc .LASF7740
     /tmp/ccYIdjbY.s:100562  .debug_str:000000000003c295 .LASF7741
     /tmp/ccYIdjbY.s:96628  .debug_str:000000000002c165 .LASF7742
     /tmp/ccYIdjbY.s:98142  .debug_str:0000000000032816 .LASF7743
     /tmp/ccYIdjbY.s:86722  .debug_str:00000000000035bb .LASF7744
     /tmp/ccYIdjbY.s:96426  .debug_str:000000000002b3bc .LASF7745
     /tmp/ccYIdjbY.s:96246  .debug_str:000000000002a8cf .LASF7746
     /tmp/ccYIdjbY.s:92922  .debug_str:000000000001d06a .LASF7747
     /tmp/ccYIdjbY.s:95900  .debug_str:000000000002919c .LASF7748
     /tmp/ccYIdjbY.s:86106  .debug_str:0000000000000ad9 .LASF7749
     /tmp/ccYIdjbY.s:94746  .debug_str:000000000002466e .LASF7750
     /tmp/ccYIdjbY.s:97964  .debug_str:0000000000031c72 .LASF7751
     /tmp/ccYIdjbY.s:95182  .debug_str:0000000000026388 .LASF7752
     /tmp/ccYIdjbY.s:92218  .debug_str:0000000000019fd7 .LASF7753
     /tmp/ccYIdjbY.s:104278  .debug_str:000000000004be56 .LASF7754
     /tmp/ccYIdjbY.s:93350  .debug_str:000000000001ee7e .LASF7755
     /tmp/ccYIdjbY.s:88348  .debug_str:000000000000a527 .LASF7756
     /tmp/ccYIdjbY.s:98090  .debug_str:0000000000032534 .LASF7757
     /tmp/ccYIdjbY.s:104282  .debug_str:000000000004be80 .LASF7758
     /tmp/ccYIdjbY.s:87906  .debug_str:0000000000008650 .LASF7759
     /tmp/ccYIdjbY.s:95590  .debug_str:0000000000027e69 .LASF7760
     /tmp/ccYIdjbY.s:93758  .debug_str:0000000000020a07 .LASF7761
     /tmp/ccYIdjbY.s:102916  .debug_str:0000000000045ed6 .LASF7762
     /tmp/ccYIdjbY.s:89432  .debug_str:000000000000ea0f .LASF7763
     /tmp/ccYIdjbY.s:97414  .debug_str:000000000002f6b0 .LASF7764
     /tmp/ccYIdjbY.s:93210  .debug_str:000000000001e3c6 .LASF7765
     /tmp/ccYIdjbY.s:87702  .debug_str:00000000000078cf .LASF7766
     /tmp/ccYIdjbY.s:91978  .debug_str:0000000000018e4f .LASF7767
     /tmp/ccYIdjbY.s:90566  .debug_str:000000000001320c .LASF7768
     /tmp/ccYIdjbY.s:103236  .debug_str:000000000004747d .LASF7769
     /tmp/ccYIdjbY.s:99562  .debug_str:0000000000037f18 .LASF7770
     /tmp/ccYIdjbY.s:104236  .debug_str:000000000004bb71 .LASF7771
     /tmp/ccYIdjbY.s:89056  .debug_str:000000000000d4ca .LASF7772
     /tmp/ccYIdjbY.s:86904  .debug_str:0000000000004310 .LASF7773
     /tmp/ccYIdjbY.s:86980  .debug_str:00000000000047fc .LASF7774
     /tmp/ccYIdjbY.s:90290  .debug_str:0000000000012018 .LASF7775
     /tmp/ccYIdjbY.s:102872  .debug_str:0000000000045bd8 .LASF7776
     /tmp/ccYIdjbY.s:89584  .debug_str:000000000000f3cd .LASF7777
     /tmp/ccYIdjbY.s:99328  .debug_str:0000000000036fc1 .LASF7778
     /tmp/ccYIdjbY.s:91552  .debug_str:0000000000017252 .LASF7779
     /tmp/ccYIdjbY.s:89572  .debug_str:000000000000f2b2 .LASF7780
     /tmp/ccYIdjbY.s:99304  .debug_str:0000000000036f06 .LASF7781
     /tmp/ccYIdjbY.s:93698  .debug_str:000000000002062a .LASF7782
     /tmp/ccYIdjbY.s:98888  .debug_str:0000000000035914 .LASF7783
     /tmp/ccYIdjbY.s:102112  .debug_str:000000000004295c .LASF7784
     /tmp/ccYIdjbY.s:90570  .debug_str:0000000000013230 .LASF7785
     /tmp/ccYIdjbY.s:86102  .debug_str:0000000000000ac0 .LASF7786
     /tmp/ccYIdjbY.s:103978  .debug_str:000000000004a9f1 .LASF7787
     /tmp/ccYIdjbY.s:99350  .debug_str:000000000003712b .LASF7788
     /tmp/ccYIdjbY.s:93428  .debug_str:000000000001f42c .LASF7789
     /tmp/ccYIdjbY.s:90444  .debug_str:0000000000012a78 .LASF7790
     /tmp/ccYIdjbY.s:97066  .debug_str:000000000002df92 .LASF7791
     /tmp/ccYIdjbY.s:90004  .debug_str:0000000000010bec .LASF7792
     /tmp/ccYIdjbY.s:99706  .debug_str:00000000000388cd .LASF7793
     /tmp/ccYIdjbY.s:96952  .debug_str:000000000002d792 .LASF7794
     /tmp/ccYIdjbY.s:93980  .debug_str:0000000000021883 .LASF7795
     /tmp/ccYIdjbY.s:97290  .debug_str:000000000002eed4 .LASF7796
     /tmp/ccYIdjbY.s:87284  .debug_str:0000000000005d0a .LASF7797
     /tmp/ccYIdjbY.s:102442  .debug_str:0000000000043e7f .LASF7798
     /tmp/ccYIdjbY.s:88580  .debug_str:000000000000b622 .LASF7799
     /tmp/ccYIdjbY.s:98180  .debug_str:0000000000032b03 .LASF7800
     /tmp/ccYIdjbY.s:90084  .debug_str:00000000000111f8 .LASF7801
     /tmp/ccYIdjbY.s:98936  .debug_str:0000000000035b5f .LASF7802
     /tmp/ccYIdjbY.s:86156  .debug_str:0000000000000e4d .LASF7803
     /tmp/ccYIdjbY.s:99004  .debug_str:0000000000035f01 .LASF7804
     /tmp/ccYIdjbY.s:102208  .debug_str:0000000000042e9f .LASF7805
     /tmp/ccYIdjbY.s:102540  .debug_str:0000000000044573 .LASF7806
     /tmp/ccYIdjbY.s:88432  .debug_str:000000000000ab3d .LASF7807
     /tmp/ccYIdjbY.s:98166  .debug_str:00000000000329f1 .LASF7808
     /tmp/ccYIdjbY.s:93600  .debug_str:000000000001ffa0 .LASF7809
     /tmp/ccYIdjbY.s:92886  .debug_str:000000000001cdc6 .LASF7810
     /tmp/ccYIdjbY.s:101970  .debug_str:000000000004201a .LASF7811
     /tmp/ccYIdjbY.s:86130  .debug_str:0000000000000c46 .LASF7812
     /tmp/ccYIdjbY.s:94662  .debug_str:0000000000024102 .LASF7813
     /tmp/ccYIdjbY.s:99624  .debug_str:000000000003831a .LASF7814
     /tmp/ccYIdjbY.s:103752  .debug_str:000000000004997d .LASF7815
     /tmp/ccYIdjbY.s:99192  .debug_str:00000000000368f3 .LASF7816
     /tmp/ccYIdjbY.s:92422  .debug_str:000000000001ade7 .LASF7817
     /tmp/ccYIdjbY.s:92990  .debug_str:000000000001d4d4 .LASF7818
     /tmp/ccYIdjbY.s:99748  .debug_str:0000000000038b6d .LASF7819
     /tmp/ccYIdjbY.s:100878  .debug_str:000000000003d6a1 .LASF7820
     /tmp/ccYIdjbY.s:94326  .debug_str:0000000000022faa .LASF7821
     /tmp/ccYIdjbY.s:88652  .debug_str:000000000000ba98 .LASF7822
     /tmp/ccYIdjbY.s:92062  .debug_str:0000000000019486 .LASF7823
     /tmp/ccYIdjbY.s:95044  .debug_str:0000000000025a5a .LASF7824
     /tmp/ccYIdjbY.s:93266  .debug_str:000000000001e850 .LASF7825
     /tmp/ccYIdjbY.s:95906  .debug_str:0000000000029208 .LASF7826
     /tmp/ccYIdjbY.s:90764  .debug_str:0000000000013dc5 .LASF7827
     /tmp/ccYIdjbY.s:103498  .debug_str:0000000000048694 .LASF7828
     /tmp/ccYIdjbY.s:91740  .debug_str:0000000000017dfe .LASF7829
     /tmp/ccYIdjbY.s:100838  .debug_str:000000000003d3cb .LASF7830
     /tmp/ccYIdjbY.s:93030  .debug_str:000000000001d721 .LASF7831
     /tmp/ccYIdjbY.s:101048  .debug_str:000000000003e331 .LASF7832
     /tmp/ccYIdjbY.s:89162  .debug_str:000000000000dbbe .LASF7833
     /tmp/ccYIdjbY.s:89180  .debug_str:000000000000dd69 .LASF7834
     /tmp/ccYIdjbY.s:101796  .debug_str:0000000000041539 .LASF7835
     /tmp/ccYIdjbY.s:87636  .debug_str:00000000000074c8 .LASF7836
     /tmp/ccYIdjbY.s:98614  .debug_str:0000000000034800 .LASF7837
     /tmp/ccYIdjbY.s:101862  .debug_str:0000000000041958 .LASF7838
     /tmp/ccYIdjbY.s:98458  .debug_str:0000000000033d8d .LASF7839
     /tmp/ccYIdjbY.s:88358  .debug_str:000000000000a596 .LASF7840
     /tmp/ccYIdjbY.s:98098  .debug_str:00000000000325a5 .LASF7841
     /tmp/ccYIdjbY.s:94496  .debug_str:000000000002390a .LASF7842
     /tmp/ccYIdjbY.s:88506  .debug_str:000000000000b088 .LASF7843
     /tmp/ccYIdjbY.s:98248  .debug_str:0000000000032fcd .LASF7844
     /tmp/ccYIdjbY.s:92436  .debug_str:000000000001aea4 .LASF7845
     /tmp/ccYIdjbY.s:91486  .debug_str:0000000000016e6b .LASF7846
     /tmp/ccYIdjbY.s:91306  .debug_str:0000000000016150 .LASF7847
     /tmp/ccYIdjbY.s:94884  .debug_str:0000000000024ffe .LASF7848
     /tmp/ccYIdjbY.s:87152  .debug_str:0000000000005394 .LASF7849
     /tmp/ccYIdjbY.s:87696  .debug_str:000000000000788f .LASF7850
     /tmp/ccYIdjbY.s:94160  .debug_str:0000000000022449 .LASF7851
     /tmp/ccYIdjbY.s:98342  .debug_str:0000000000033656 .LASF7852
     /tmp/ccYIdjbY.s:86204  .debug_str:00000000000011ac .LASF7853
     /tmp/ccYIdjbY.s:94798  .debug_str:00000000000249a2 .LASF7854
     /tmp/ccYIdjbY.s:99380  .debug_str:00000000000372c7 .LASF7855
     /tmp/ccYIdjbY.s:86978  .debug_str:00000000000047f0 .LASF7856
     /tmp/ccYIdjbY.s:99976  .debug_str:0000000000039bbb .LASF7857
     /tmp/ccYIdjbY.s:97416  .debug_str:000000000002f6d4 .LASF7858
     /tmp/ccYIdjbY.s:94784  .debug_str:00000000000248ce .LASF7859
     /tmp/ccYIdjbY.s:91924  .debug_str:0000000000018ab6 .LASF7860
     /tmp/ccYIdjbY.s:92622  .debug_str:000000000001bb7a .LASF7861
     /tmp/ccYIdjbY.s:98950  .debug_str:0000000000035c4b .LASF7862
     /tmp/ccYIdjbY.s:101896  .debug_str:0000000000041b7f .LASF7863
     /tmp/ccYIdjbY.s:101710  .debug_str:0000000000040f4c .LASF7864
     /tmp/ccYIdjbY.s:104142  .debug_str:000000000004b501 .LASF7865
     /tmp/ccYIdjbY.s:94416  .debug_str:000000000002350c .LASF7866
     /tmp/ccYIdjbY.s:91300  .debug_str:000000000001611f .LASF7867
     /tmp/ccYIdjbY.s:93472  .debug_str:000000000001f686 .LASF7868
     /tmp/ccYIdjbY.s:98772  .debug_str:000000000003517d .LASF7869
     /tmp/ccYIdjbY.s:95746  .debug_str:0000000000028876 .LASF7870
     /tmp/ccYIdjbY.s:102190  .debug_str:0000000000042dea .LASF7871
     /tmp/ccYIdjbY.s:96796  .debug_str:000000000002cc9e .LASF7872
     /tmp/ccYIdjbY.s:95748  .debug_str:0000000000028889 .LASF7873
     /tmp/ccYIdjbY.s:102192  .debug_str:0000000000042dfd .LASF7874
     /tmp/ccYIdjbY.s:92468  .debug_str:000000000001b13d .LASF7875
     /tmp/ccYIdjbY.s:95750  .debug_str:000000000002889c .LASF7876
     /tmp/ccYIdjbY.s:95116  .debug_str:0000000000025f76 .LASF7877
     /tmp/ccYIdjbY.s:103410  .debug_str:00000000000480aa .LASF7878
     /tmp/ccYIdjbY.s:95180  .debug_str:0000000000026375 .LASF7879
     /tmp/ccYIdjbY.s:102196  .debug_str:0000000000042e1d .LASF7880
     /tmp/ccYIdjbY.s:97692  .debug_str:0000000000030a20 .LASF7881
     /tmp/ccYIdjbY.s:95754  .debug_str:00000000000288d0 .LASF7882
     /tmp/ccYIdjbY.s:102198  .debug_str:0000000000042e30 .LASF7883
     /tmp/ccYIdjbY.s:91826  .debug_str:00000000000183fa .LASF7884
     /tmp/ccYIdjbY.s:95756  .debug_str:00000000000288e3 .LASF7885
     /tmp/ccYIdjbY.s:102200  .debug_str:0000000000042e43 .LASF7886
     /tmp/ccYIdjbY.s:85974  .debug_str:000000000000022b .LASF7887
     /tmp/ccYIdjbY.s:95758  .debug_str:00000000000288f6 .LASF7888
     /tmp/ccYIdjbY.s:102202  .debug_str:0000000000042e56 .LASF7889
     /tmp/ccYIdjbY.s:98574  .debug_str:0000000000034503 .LASF7890
     /tmp/ccYIdjbY.s:95760  .debug_str:0000000000028909 .LASF7891
     /tmp/ccYIdjbY.s:102204  .debug_str:0000000000042e69 .LASF7892
     /tmp/ccYIdjbY.s:92738  .debug_str:000000000001c2fb .LASF7893
     /tmp/ccYIdjbY.s:95990  .debug_str:0000000000029877 .LASF7894
     /tmp/ccYIdjbY.s:92964  .debug_str:000000000001d384 .LASF7895
     /tmp/ccYIdjbY.s:98578  .debug_str:000000000003454b .LASF7896
     /tmp/ccYIdjbY.s:101876  .debug_str:0000000000041a6d .LASF7897
     /tmp/ccYIdjbY.s:92966  .debug_str:000000000001d397 .LASF7898
     /tmp/ccYIdjbY.s:96624  .debug_str:000000000002c108 .LASF7899
     /tmp/ccYIdjbY.s:86444  .debug_str:0000000000002240 .LASF7900
     /tmp/ccYIdjbY.s:92968  .debug_str:000000000001d3aa .LASF7901
     /tmp/ccYIdjbY.s:90730  .debug_str:0000000000013c4a .LASF7902
     /tmp/ccYIdjbY.s:86446  .debug_str:0000000000002253 .LASF7903
     /tmp/ccYIdjbY.s:92970  .debug_str:000000000001d3bd .LASF7904
     /tmp/ccYIdjbY.s:103228  .debug_str:00000000000473ed .LASF7905
     /tmp/ccYIdjbY.s:101884  .debug_str:0000000000041ab9 .LASF7906
     /tmp/ccYIdjbY.s:92972  .debug_str:000000000001d3d0 .LASF7907
     /tmp/ccYIdjbY.s:92490  .debug_str:000000000001b26b .LASF7908
     /tmp/ccYIdjbY.s:86450  .debug_str:00000000000022a6 .LASF7909
     /tmp/ccYIdjbY.s:92974  .debug_str:000000000001d3e3 .LASF7910
     /tmp/ccYIdjbY.s:91930  .debug_str:0000000000018b2c .LASF7911
     /tmp/ccYIdjbY.s:86452  .debug_str:00000000000022b9 .LASF7912
     /tmp/ccYIdjbY.s:92976  .debug_str:000000000001d3f6 .LASF7913
     /tmp/ccYIdjbY.s:104166  .debug_str:000000000004b6cc .LASF7914
     /tmp/ccYIdjbY.s:86454  .debug_str:00000000000022cc .LASF7915
     /tmp/ccYIdjbY.s:92978  .debug_str:000000000001d409 .LASF7916
     /tmp/ccYIdjbY.s:98398  .debug_str:0000000000033998 .LASF7917
     /tmp/ccYIdjbY.s:103146  .debug_str:0000000000046d8d .LASF7918
     /tmp/ccYIdjbY.s:95664  .debug_str:0000000000028396 .LASF7919
     /tmp/ccYIdjbY.s:103258  .debug_str:0000000000047622 .LASF7920
     /tmp/ccYIdjbY.s:93854  .debug_str:0000000000021024 .LASF7921
     /tmp/ccYIdjbY.s:86226  .debug_str:0000000000001313 .LASF7922
     /tmp/ccYIdjbY.s:90574  .debug_str:0000000000013261 .LASF7923
     /tmp/ccYIdjbY.s:92712  .debug_str:000000000001c122 .LASF7924
     /tmp/ccYIdjbY.s:97606  .debug_str:0000000000030474 .LASF7925
     /tmp/ccYIdjbY.s:96556  .debug_str:000000000002bc43 .LASF7926
     /tmp/ccYIdjbY.s:94344  .debug_str:00000000000230c1 .LASF7927
     /tmp/ccYIdjbY.s:99470  .debug_str:00000000000378d0 .LASF7928
     /tmp/ccYIdjbY.s:103590  .debug_str:0000000000048d80 .LASF7929
     /tmp/ccYIdjbY.s:94652  .debug_str:000000000002409a .LASF7930
     /tmp/ccYIdjbY.s:91716  .debug_str:0000000000017c44 .LASF7931
     /tmp/ccYIdjbY.s:87764  .debug_str:0000000000007c9e .LASF7932
     /tmp/ccYIdjbY.s:98132  .debug_str:000000000003275c .LASF7933
     /tmp/ccYIdjbY.s:104100  .debug_str:000000000004b1e5 .LASF7934
     /tmp/ccYIdjbY.s:88132  .debug_str:00000000000096e2 .LASF7935
     /tmp/ccYIdjbY.s:98664  .debug_str:0000000000034b04 .LASF7936
     /tmp/ccYIdjbY.s:97546  .debug_str:0000000000030024 .LASF7937
     /tmp/ccYIdjbY.s:87248  .debug_str:0000000000005a7c .LASF7938
     /tmp/ccYIdjbY.s:100544  .debug_str:000000000003c147 .LASF7939
     /tmp/ccYIdjbY.s:96890  .debug_str:000000000002d3f6 .LASF7940
     /tmp/ccYIdjbY.s:90116  .debug_str:0000000000011413 .LASF7941
     /tmp/ccYIdjbY.s:98388  .debug_str:0000000000033921 .LASF7942
     /tmp/ccYIdjbY.s:101618  .debug_str:0000000000040977 .LASF7943
     /tmp/ccYIdjbY.s:92782  .debug_str:000000000001c66e .LASF7944
     /tmp/ccYIdjbY.s:103442  .debug_str:00000000000482f7 .LASF7945
     /tmp/ccYIdjbY.s:99772  .debug_str:0000000000038d03 .LASF7946
     /tmp/ccYIdjbY.s:87058  .debug_str:0000000000004d45 .LASF7947
     /tmp/ccYIdjbY.s:101844  .debug_str:0000000000041841 .LASF7948
     /tmp/ccYIdjbY.s:87076  .debug_str:0000000000004ec4 .LASF7949
     /tmp/ccYIdjbY.s:101408  .debug_str:000000000003fb39 .LASF7950
     /tmp/ccYIdjbY.s:98754  .debug_str:0000000000035019 .LASF7951
     /tmp/ccYIdjbY.s:102002  .debug_str:00000000000421de .LASF7952
     /tmp/ccYIdjbY.s:96130  .debug_str:000000000002a147 .LASF7953
     /tmp/ccYIdjbY.s:90246  .debug_str:0000000000011d2b .LASF7954
     /tmp/ccYIdjbY.s:102404  .debug_str:0000000000043bcf .LASF7955
     /tmp/ccYIdjbY.s:94010  .debug_str:0000000000021a78 .LASF7956
     /tmp/ccYIdjbY.s:89730  .debug_str:000000000000fb4e .LASF7957
     /tmp/ccYIdjbY.s:88548  .debug_str:000000000000b378 .LASF7958
     /tmp/ccYIdjbY.s:102878  .debug_str:0000000000045c26 .LASF7959
     /tmp/ccYIdjbY.s:103608  .debug_str:0000000000048ee6 .LASF7960
     /tmp/ccYIdjbY.s:88218  .debug_str:0000000000009c6d .LASF7961
     /tmp/ccYIdjbY.s:88954  .debug_str:000000000000cece .LASF7962
     /tmp/ccYIdjbY.s:93584  .debug_str:000000000001febb .LASF7963
     /tmp/ccYIdjbY.s:90076  .debug_str:0000000000011154 .LASF7964
     /tmp/ccYIdjbY.s:101208  .debug_str:000000000003ee1a .LASF7965
     /tmp/ccYIdjbY.s:89102  .debug_str:000000000000d811 .LASF7966
     /tmp/ccYIdjbY.s:102552  .debug_str:0000000000044651 .LASF7967
     /tmp/ccYIdjbY.s:86096  .debug_str:0000000000000a71 .LASF7968
     /tmp/ccYIdjbY.s:88308  .debug_str:000000000000a27c .LASF7969
     /tmp/ccYIdjbY.s:102500  .debug_str:00000000000442e0 .LASF7970
     /tmp/ccYIdjbY.s:100496  .debug_str:000000000003bdda .LASF7971
     /tmp/ccYIdjbY.s:95076  .debug_str:0000000000025c94 .LASF7972
     /tmp/ccYIdjbY.s:87036  .debug_str:0000000000004bf6 .LASF7973
     /tmp/ccYIdjbY.s:102424  .debug_str:0000000000043d16 .LASF7974
     /tmp/ccYIdjbY.s:92082  .debug_str:00000000000195ab .LASF7975
     /tmp/ccYIdjbY.s:95364  .debug_str:0000000000026fcb .LASF7976
     /tmp/ccYIdjbY.s:93080  .debug_str:000000000001db06 .LASF7977
     /tmp/ccYIdjbY.s:86076  .debug_str:000000000000094a .LASF7978
     /tmp/ccYIdjbY.s:86810  .debug_str:0000000000003bea .LASF7979
     /tmp/ccYIdjbY.s:95842  .debug_str:0000000000028ea8 .LASF7980
     /tmp/ccYIdjbY.s:102610  .debug_str:00000000000449db .LASF7981
     /tmp/ccYIdjbY.s:94434  .debug_str:0000000000023618 .LASF7982
     /tmp/ccYIdjbY.s:86576  .debug_str:0000000000002bc7 .LASF7983
     /tmp/ccYIdjbY.s:90182  .debug_str:00000000000118e0 .LASF7984
     /tmp/ccYIdjbY.s:96678  .debug_str:000000000002c4f0 .LASF7985
     /tmp/ccYIdjbY.s:92012  .debug_str:00000000000190e7 .LASF7986
     /tmp/ccYIdjbY.s:91014  .debug_str:0000000000014f22 .LASF7987
     /tmp/ccYIdjbY.s:99726  .debug_str:0000000000038a3b .LASF7988
     /tmp/ccYIdjbY.s:103272  .debug_str:000000000004773c .LASF7989
     /tmp/ccYIdjbY.s:94656  .debug_str:00000000000240b8 .LASF7990
     /tmp/ccYIdjbY.s:88862  .debug_str:000000000000c8cb .LASF7991
     /tmp/ccYIdjbY.s:97784  .debug_str:000000000003108d .LASF7992
     /tmp/ccYIdjbY.s:95884  .debug_str:0000000000029100 .LASF7993
     /tmp/ccYIdjbY.s:96280  .debug_str:000000000002ab4f .LASF7994
     /tmp/ccYIdjbY.s:100236  .debug_str:000000000003acd9 .LASF7995
     /tmp/ccYIdjbY.s:98660  .debug_str:0000000000034acd .LASF7996
     /tmp/ccYIdjbY.s:94448  .debug_str:00000000000236eb .LASF7997
     /tmp/ccYIdjbY.s:95006  .debug_str:0000000000025759 .LASF7998
     /tmp/ccYIdjbY.s:97184  .debug_str:000000000002e844 .LASF7999
     /tmp/ccYIdjbY.s:88190  .debug_str:0000000000009a4c .LASF8000
     /tmp/ccYIdjbY.s:99138  .debug_str:000000000003666a .LASF8001
     /tmp/ccYIdjbY.s:90582  .debug_str:00000000000132d8 .LASF8002
     /tmp/ccYIdjbY.s:90878  .debug_str:000000000001458c .LASF8003
     /tmp/ccYIdjbY.s:92586  .debug_str:000000000001b947 .LASF8004
     /tmp/ccYIdjbY.s:92138  .debug_str:0000000000019aa5 .LASF8005
     /tmp/ccYIdjbY.s:92432  .debug_str:000000000001ae6b .LASF8006
     /tmp/ccYIdjbY.s:87612  .debug_str:0000000000007355 .LASF8007
     /tmp/ccYIdjbY.s:89590  .debug_str:000000000000f40d .LASF8008
     /tmp/ccYIdjbY.s:102440  .debug_str:0000000000043e71 .LASF8009
     /tmp/ccYIdjbY.s:90096  .debug_str:00000000000112cb .LASF8010
     /tmp/ccYIdjbY.s:91160  .debug_str:00000000000157cf .LASF8011
     /tmp/ccYIdjbY.s:93446  .debug_str:000000000001f504 .LASF8012
     /tmp/ccYIdjbY.s:90560  .debug_str:00000000000131b9 .LASF8013
     /tmp/ccYIdjbY.s:87834  .debug_str:00000000000081a9 .LASF8014
     /tmp/ccYIdjbY.s:95898  .debug_str:000000000002918e .LASF8015
     /tmp/ccYIdjbY.s:97526  .debug_str:000000000002fe3f .LASF8016
     /tmp/ccYIdjbY.s:104286  .debug_str:000000000004bed3 .LASF8017
     /tmp/ccYIdjbY.s:86710  .debug_str:0000000000003501 .LASF8018
     /tmp/ccYIdjbY.s:95338  .debug_str:0000000000026dfa .LASF8019
     /tmp/ccYIdjbY.s:103714  .debug_str:000000000004962c .LASF8020
     /tmp/ccYIdjbY.s:87456  .debug_str:00000000000068d5 .LASF8021
     /tmp/ccYIdjbY.s:95242  .debug_str:000000000002675a .LASF8022
     /tmp/ccYIdjbY.s:88664  .debug_str:000000000000bb66 .LASF8023
     /tmp/ccYIdjbY.s:98058  .debug_str:000000000003229d .LASF8024
     /tmp/ccYIdjbY.s:96520  .debug_str:000000000002ba17 .LASF8025
     /tmp/ccYIdjbY.s:93176  .debug_str:000000000001e201 .LASF8026
     /tmp/ccYIdjbY.s:102414  .debug_str:0000000000043c50 .LASF8027
     /tmp/ccYIdjbY.s:96252  .debug_str:000000000002a96f .LASF8028
     /tmp/ccYIdjbY.s:103404  .debug_str:0000000000048046 .LASF8029
     /tmp/ccYIdjbY.s:97212  .debug_str:000000000002ea12 .LASF8030
     /tmp/ccYIdjbY.s:91566  .debug_str:0000000000017387 .LASF8031
     /tmp/ccYIdjbY.s:89778  .debug_str:000000000000fe37 .LASF8032
     /tmp/ccYIdjbY.s:93292  .debug_str:000000000001ea11 .LASF8033
     /tmp/ccYIdjbY.s:99860  .debug_str:00000000000393d8 .LASF8034
     /tmp/ccYIdjbY.s:92772  .debug_str:000000000001c5c2 .LASF8035
     /tmp/ccYIdjbY.s:88656  .debug_str:000000000000bac8 .LASF8036
     /tmp/ccYIdjbY.s:87574  .debug_str:00000000000070b9 .LASF8037
     /tmp/ccYIdjbY.s:101244  .debug_str:000000000003f0a2 .LASF8038
     /tmp/ccYIdjbY.s:94628  .debug_str:0000000000024028 .LASF8039
     /tmp/ccYIdjbY.s:86838  .debug_str:0000000000003df6 .LASF8040
     /tmp/ccYIdjbY.s:91974  .debug_str:0000000000018e12 .LASF8041
     /tmp/ccYIdjbY.s:103812  .debug_str:0000000000049e53 .LASF8042
     /tmp/ccYIdjbY.s:86734  .debug_str:00000000000036a9 .LASF8043
     /tmp/ccYIdjbY.s:95998  .debug_str:0000000000029905 .LASF8044
     /tmp/ccYIdjbY.s:89368  .debug_str:000000000000e682 .LASF8045
     /tmp/ccYIdjbY.s:97386  .debug_str:000000000002f504 .LASF8046
     /tmp/ccYIdjbY.s:98634  .debug_str:0000000000034957 .LASF8047
     /tmp/ccYIdjbY.s:101882  .debug_str:0000000000041ab1 .LASF8048
     /tmp/ccYIdjbY.s:91514  .debug_str:0000000000016fd8 .LASF8049
     /tmp/ccYIdjbY.s:98642  .debug_str:00000000000349d7 .LASF8050
     /tmp/ccYIdjbY.s:101890  .debug_str:0000000000041b28 .LASF8051
     /tmp/ccYIdjbY.s:102070  .debug_str:00000000000426a8 .LASF8052
     /tmp/ccYIdjbY.s:100752  .debug_str:000000000003ce58 .LASF8053
     /tmp/ccYIdjbY.s:97286  .debug_str:000000000002ee7f .LASF8054
     /tmp/ccYIdjbY.s:95522  .debug_str:00000000000279e7 .LASF8055
     /tmp/ccYIdjbY.s:103276  .debug_str:000000000004777a .LASF8056
     /tmp/ccYIdjbY.s:99702  .debug_str:00000000000388af .LASF8057
     /tmp/ccYIdjbY.s:95064  .debug_str:0000000000025bb9 .LASF8058
     /tmp/ccYIdjbY.s:97172  .debug_str:000000000002e758 .LASF8059
     /tmp/ccYIdjbY.s:97570  .debug_str:00000000000301e5 .LASF8060
     /tmp/ccYIdjbY.s:96538  .debug_str:000000000002bb48 .LASF8061
     /tmp/ccYIdjbY.s:103316  .debug_str:0000000000047a59 .LASF8062
     /tmp/ccYIdjbY.s:102840  .debug_str:00000000000459c8 .LASF8063
     /tmp/ccYIdjbY.s:101686  .debug_str:0000000000040de1 .LASF8064
     /tmp/ccYIdjbY.s:103754  .debug_str:00000000000499a4 .LASF8065
     /tmp/ccYIdjbY.s:99272  .debug_str:0000000000036ce7 .LASF8066
     /tmp/ccYIdjbY.s:98786  .debug_str:000000000003524b .LASF8067
     /tmp/ccYIdjbY.s:89948  .debug_str:0000000000010955 .LASF8068
     /tmp/ccYIdjbY.s:94600  .debug_str:0000000000023e85 .LASF8069
     /tmp/ccYIdjbY.s:86566  .debug_str:0000000000002b46 .LASF8070
     /tmp/ccYIdjbY.s:89196  .debug_str:000000000000ddf9 .LASF8071
     /tmp/ccYIdjbY.s:91928  .debug_str:0000000000018b13 .LASF8072
     /tmp/ccYIdjbY.s:94056  .debug_str:0000000000021ddd .LASF8073
     /tmp/ccYIdjbY.s:100190  .debug_str:000000000003a984 .LASF8074
     /tmp/ccYIdjbY.s:94986  .debug_str:00000000000255da .LASF8075
     /tmp/ccYIdjbY.s:98336  .debug_str:00000000000335fc .LASF8076
     /tmp/ccYIdjbY.s:103432  .debug_str:0000000000048242 .LASF8077
     /tmp/ccYIdjbY.s:98246  .debug_str:0000000000032fb6 .LASF8078
     /tmp/ccYIdjbY.s:90918  .debug_str:0000000000014820 .LASF8079
     /tmp/ccYIdjbY.s:94276  .debug_str:0000000000022c88 .LASF8080
     /tmp/ccYIdjbY.s:95300  .debug_str:0000000000026bb4 .LASF8081
     /tmp/ccYIdjbY.s:95376  .debug_str:00000000000270bc .LASF8082
     /tmp/ccYIdjbY.s:89292  .debug_str:000000000000e330 .LASF8083
     /tmp/ccYIdjbY.s:95678  .debug_str:000000000002846e .LASF8084
     /tmp/ccYIdjbY.s:103894  .debug_str:000000000004a417 .LASF8085
     /tmp/ccYIdjbY.s:90904  .debug_str:0000000000014710 .LASF8086
     /tmp/ccYIdjbY.s:90860  .debug_str:000000000001442b .LASF8087
     /tmp/ccYIdjbY.s:93968  .debug_str:0000000000021777 .LASF8088
     /tmp/ccYIdjbY.s:87898  .debug_str:00000000000085f4 .LASF8089
     /tmp/ccYIdjbY.s:92048  .debug_str:00000000000193d0 .LASF8090
     /tmp/ccYIdjbY.s:92554  .debug_str:000000000001b746 .LASF8091
     /tmp/ccYIdjbY.s:103968  .debug_str:000000000004a986 .LASF8092
     /tmp/ccYIdjbY.s:88200  .debug_str:0000000000009b00 .LASF8093
     /tmp/ccYIdjbY.s:101816  .debug_str:0000000000041692 .LASF8094
     /tmp/ccYIdjbY.s:91774  .debug_str:00000000000180b5 .LASF8095
     /tmp/ccYIdjbY.s:101778  .debug_str:0000000000041448 .LASF8096
     /tmp/ccYIdjbY.s:102742  .debug_str:0000000000045302 .LASF8097
     /tmp/ccYIdjbY.s:97032  .debug_str:000000000002dd39 .LASF8098
     /tmp/ccYIdjbY.s:90530  .debug_str:0000000000012f90 .LASF8099
     /tmp/ccYIdjbY.s:88332  .debug_str:000000000000a3e0 .LASF8100
     /tmp/ccYIdjbY.s:90454  .debug_str:0000000000012b00 .LASF8101
     /tmp/ccYIdjbY.s:101260  .debug_str:000000000003f1a4 .LASF8102
     /tmp/ccYIdjbY.s:96690  .debug_str:000000000002c5a6 .LASF8103
     /tmp/ccYIdjbY.s:93456  .debug_str:000000000001f5b8 .LASF8104
     /tmp/ccYIdjbY.s:97760  .debug_str:0000000000030eda .LASF8105
     /tmp/ccYIdjbY.s:103428  .debug_str:00000000000481ee .LASF8106
     /tmp/ccYIdjbY.s:98414  .debug_str:0000000000033ac4 .LASF8107
     /tmp/ccYIdjbY.s:103474  .debug_str:0000000000048507 .LASF8108
     /tmp/ccYIdjbY.s:103764  .debug_str:0000000000049a8b .LASF8109
     /tmp/ccYIdjbY.s:88864  .debug_str:000000000000c8db .LASF8110
     /tmp/ccYIdjbY.s:96754  .debug_str:000000000002ca6f .LASF8111
     /tmp/ccYIdjbY.s:100422  .debug_str:000000000003b9ad .LASF8112
     /tmp/ccYIdjbY.s:98880  .debug_str:0000000000035877 .LASF8113
     /tmp/ccYIdjbY.s:87324  .debug_str:0000000000005fd7 .LASF8114
     /tmp/ccYIdjbY.s:103366  .debug_str:0000000000047d9c .LASF8115
     /tmp/ccYIdjbY.s:87932  .debug_str:0000000000008869 .LASF8116
     /tmp/ccYIdjbY.s:102144  .debug_str:0000000000042b34 .LASF8117
     /tmp/ccYIdjbY.s:93926  .debug_str:00000000000214fe .LASF8118
     /tmp/ccYIdjbY.s:96676  .debug_str:000000000002c4e5 .LASF8119
     /tmp/ccYIdjbY.s:92358  .debug_str:000000000001a978 .LASF8120
     /tmp/ccYIdjbY.s:101690  .debug_str:0000000000040e11 .LASF8121
     /tmp/ccYIdjbY.s:103504  .debug_str:0000000000048703 .LASF8122
     /tmp/ccYIdjbY.s:99384  .debug_str:00000000000372e2 .LASF8123
     /tmp/ccYIdjbY.s:97528  .debug_str:000000000002fe61 .LASF8124
     /tmp/ccYIdjbY.s:101676  .debug_str:0000000000040d71 .LASF8125
     /tmp/ccYIdjbY.s:96164  .debug_str:000000000002a35d .LASF8126
     /tmp/ccYIdjbY.s:91618  .debug_str:00000000000176ca .LASF8127
     /tmp/ccYIdjbY.s:90132  .debug_str:000000000001156c .LASF8128
     /tmp/ccYIdjbY.s:94322  .debug_str:0000000000022ed3 .LASF8129
     /tmp/ccYIdjbY.s:88912  .debug_str:000000000000cbe7 .LASF8130
     /tmp/ccYIdjbY.s:95780  .debug_str:0000000000028aa7 .LASF8131
     /tmp/ccYIdjbY.s:91482  .debug_str:0000000000016e41 .LASF8132
     /tmp/ccYIdjbY.s:88924  .debug_str:000000000000ccd2 .LASF8133
     /tmp/ccYIdjbY.s:100212  .debug_str:000000000003ab42 .LASF8134
     /tmp/ccYIdjbY.s:92478  .debug_str:000000000001b1b9 .LASF8135
     /tmp/ccYIdjbY.s:102962  .debug_str:00000000000461a8 .LASF8136
     /tmp/ccYIdjbY.s:100444  .debug_str:000000000003bb4c .LASF8137
     /tmp/ccYIdjbY.s:92612  .debug_str:000000000001bb19 .LASF8138
     /tmp/ccYIdjbY.s:103418  .debug_str:000000000004814a .LASF8139
     /tmp/ccYIdjbY.s:87950  .debug_str:00000000000089a1 .LASF8140
     /tmp/ccYIdjbY.s:93814  .debug_str:0000000000020d3a .LASF8141
     /tmp/ccYIdjbY.s:99288  .debug_str:0000000000036e08 .LASF8142
     /tmp/ccYIdjbY.s:100982  .debug_str:000000000003de59 .LASF8143
     /tmp/ccYIdjbY.s:89758  .debug_str:000000000000fd0e .LASF8144
     /tmp/ccYIdjbY.s:98938  .debug_str:0000000000035b66 .LASF8145
     /tmp/ccYIdjbY.s:86706  .debug_str:00000000000034c3 .LASF8146
     /tmp/ccYIdjbY.s:96112  .debug_str:000000000002a031 .LASF8147
     /tmp/ccYIdjbY.s:103548  .debug_str:0000000000048a21 .LASF8148
     /tmp/ccYIdjbY.s:100358  .debug_str:000000000003b520 .LASF8149
     /tmp/ccYIdjbY.s:98656  .debug_str:0000000000034aa7 .LASF8150
     /tmp/ccYIdjbY.s:103152  .debug_str:0000000000046df3 .LASF8151
     /tmp/ccYIdjbY.s:89998  .debug_str:0000000000010baa .LASF8152
     /tmp/ccYIdjbY.s:87840  .debug_str:00000000000081da .LASF8153
     /tmp/ccYIdjbY.s:100820  .debug_str:000000000003d23f .LASF8154
     /tmp/ccYIdjbY.s:88942  .debug_str:000000000000cdfb .LASF8155
     /tmp/ccYIdjbY.s:103902  .debug_str:000000000004a4b8 .LASF8156
     /tmp/ccYIdjbY.s:91090  .debug_str:000000000001531b .LASF8157
     /tmp/ccYIdjbY.s:88052  .debug_str:0000000000009045 .LASF8158
     /tmp/ccYIdjbY.s:95240  .debug_str:0000000000026749 .LASF8159
     /tmp/ccYIdjbY.s:87948  .debug_str:000000000000897c .LASF8160
     /tmp/ccYIdjbY.s:91790  .debug_str:0000000000018190 .LASF8161
     /tmp/ccYIdjbY.s:88436  .debug_str:000000000000ab53 .LASF8162
     /tmp/ccYIdjbY.s:90962  .debug_str:0000000000014b07 .LASF8163
     /tmp/ccYIdjbY.s:91510  .debug_str:0000000000016fa1 .LASF8164
     /tmp/ccYIdjbY.s:88438  .debug_str:000000000000ab65 .LASF8165
     /tmp/ccYIdjbY.s:103456  .debug_str:00000000000483c5 .LASF8166
     /tmp/ccYIdjbY.s:88908  .debug_str:000000000000cbc3 .LASF8167
     /tmp/ccYIdjbY.s:91140  .debug_str:0000000000015685 .LASF8168
     /tmp/ccYIdjbY.s:88704  .debug_str:000000000000bdcc .LASF8169
     /tmp/ccYIdjbY.s:92870  .debug_str:000000000001cca7 .LASF8170
     /tmp/ccYIdjbY.s:99916  .debug_str:00000000000397d6 .LASF8171
     /tmp/ccYIdjbY.s:98162  .debug_str:000000000003299c .LASF8172
     /tmp/ccYIdjbY.s:100108  .debug_str:000000000003a44b .LASF8173
     /tmp/ccYIdjbY.s:91472  .debug_str:0000000000016db7 .LASF8174
     /tmp/ccYIdjbY.s:99054  .debug_str:0000000000036269 .LASF8175
     /tmp/ccYIdjbY.s:96388  .debug_str:000000000002b15d .LASF8176
     /tmp/ccYIdjbY.s:93708  .debug_str:000000000002069e .LASF8177
     /tmp/ccYIdjbY.s:101154  .debug_str:000000000003e9fd .LASF8178
     /tmp/ccYIdjbY.s:87074  .debug_str:0000000000004eaf .LASF8179
     /tmp/ccYIdjbY.s:98420  .debug_str:0000000000033b1b .LASF8180
     /tmp/ccYIdjbY.s:102724  .debug_str:000000000004518a .LASF8181
     /tmp/ccYIdjbY.s:93126  .debug_str:000000000001de48 .LASF8182
     /tmp/ccYIdjbY.s:96802  .debug_str:000000000002cd15 .LASF8183
     /tmp/ccYIdjbY.s:87588  .debug_str:00000000000071a7 .LASF8184
     /tmp/ccYIdjbY.s:95348  .debug_str:0000000000026ea7 .LASF8185
     /tmp/ccYIdjbY.s:103450  .debug_str:0000000000048348 .LASF8186
     /tmp/ccYIdjbY.s:101800  .debug_str:000000000004156a .LASF8187
     /tmp/ccYIdjbY.s:94430  .debug_str:00000000000235ea .LASF8188
     /tmp/ccYIdjbY.s:102596  .debug_str:000000000004490d .LASF8189
     /tmp/ccYIdjbY.s:88878  .debug_str:000000000000c9da .LASF8190
     /tmp/ccYIdjbY.s:92290  .debug_str:000000000001a448 .LASF8191
     /tmp/ccYIdjbY.s:91282  .debug_str:0000000000015ff5 .LASF8192
     /tmp/ccYIdjbY.s:98596  .debug_str:0000000000034686 .LASF8193
     /tmp/ccYIdjbY.s:98522  .debug_str:0000000000034222 .LASF8194
     /tmp/ccYIdjbY.s:101350  .debug_str:000000000003f6b1 .LASF8195
     /tmp/ccYIdjbY.s:90148  .debug_str:00000000000116ad .LASF8196
     /tmp/ccYIdjbY.s:86560  .debug_str:0000000000002af3 .LASF8197
     /tmp/ccYIdjbY.s:93340  .debug_str:000000000001eda8 .LASF8198
     /tmp/ccYIdjbY.s:92592  .debug_str:000000000001b9d2 .LASF8199
     /tmp/ccYIdjbY.s:96862  .debug_str:000000000002d216 .LASF8200
     /tmp/ccYIdjbY.s:100676  .debug_str:000000000003c9b7 .LASF8201
     /tmp/ccYIdjbY.s:103586  .debug_str:0000000000048d38 .LASF8202
     /tmp/ccYIdjbY.s:99466  .debug_str:0000000000037883 .LASF8203
     /tmp/ccYIdjbY.s:99252  .debug_str:0000000000036b86 .LASF8204
     /tmp/ccYIdjbY.s:100844  .debug_str:000000000003d42e .LASF8205
     /tmp/ccYIdjbY.s:103092  .debug_str:0000000000046a12 .LASF8206
     /tmp/ccYIdjbY.s:92398  .debug_str:000000000001ac4f .LASF8207
     /tmp/ccYIdjbY.s:99356  .debug_str:000000000003717b .LASF8208
     /tmp/ccYIdjbY.s:87082  .debug_str:0000000000004efb .LASF8209
     /tmp/ccYIdjbY.s:100374  .debug_str:000000000003b63b .LASF8210
     /tmp/ccYIdjbY.s:94590  .debug_str:0000000000023dcf .LASF8211
     /tmp/ccYIdjbY.s:92248  .debug_str:000000000001a1cb .LASF8212
     /tmp/ccYIdjbY.s:90494  .debug_str:0000000000012d67 .LASF8213
     /tmp/ccYIdjbY.s:91370  .debug_str:000000000001660b .LASF8214
     /tmp/ccYIdjbY.s:97544  .debug_str:000000000003000d .LASF8215
     /tmp/ccYIdjbY.s:96072  .debug_str:0000000000029d87 .LASF8216
     /tmp/ccYIdjbY.s:95166  .debug_str:0000000000026294 .LASF8217
     /tmp/ccYIdjbY.s:91918  .debug_str:0000000000018a8e .LASF8218
     /tmp/ccYIdjbY.s:93182  .debug_str:000000000001e236 .LASF8219
     /tmp/ccYIdjbY.s:99736  .debug_str:0000000000038a9c .LASF8220
     /tmp/ccYIdjbY.s:87186  .debug_str:0000000000005644 .LASF8221
     /tmp/ccYIdjbY.s:89060  .debug_str:000000000000d504 .LASF8222
     /tmp/ccYIdjbY.s:99612  .debug_str:000000000003824f .LASF8223
     /tmp/ccYIdjbY.s:88956  .debug_str:000000000000ceee .LASF8224
     /tmp/ccYIdjbY.s:88402  .debug_str:000000000000a87c .LASF8225
     /tmp/ccYIdjbY.s:95846  .debug_str:0000000000028f04 .LASF8226
     /tmp/ccYIdjbY.s:102856  .debug_str:0000000000045ad5 .LASF8227
     /tmp/ccYIdjbY.s:88066  .debug_str:0000000000009168 .LASF8228
     /tmp/ccYIdjbY.s:102644  .debug_str:0000000000044bf9 .LASF8229
     /tmp/ccYIdjbY.s:102876  .debug_str:0000000000045c1c .LASF8230
     /tmp/ccYIdjbY.s:88092  .debug_str:0000000000009390 .LASF8231
     /tmp/ccYIdjbY.s:102340  .debug_str:0000000000043786 .LASF8232
     /tmp/ccYIdjbY.s:86814  .debug_str:0000000000003c3d .LASF8233
     /tmp/ccYIdjbY.s:89740  .debug_str:000000000000fc0b .LASF8234
     /tmp/ccYIdjbY.s:99204  .debug_str:000000000003698e .LASF8235
     /tmp/ccYIdjbY.s:88818  .debug_str:000000000000c5b7 .LASF8236
     /tmp/ccYIdjbY.s:100598  .debug_str:000000000003c4d4 .LASF8237
     /tmp/ccYIdjbY.s:101776  .debug_str:000000000004141f .LASF8238
     /tmp/ccYIdjbY.s:96260  .debug_str:000000000002a9b7 .LASF8239
     /tmp/ccYIdjbY.s:101492  .debug_str:0000000000040169 .LASF8240
     /tmp/ccYIdjbY.s:86162  .debug_str:0000000000000ea0 .LASF8241
     /tmp/ccYIdjbY.s:91124  .debug_str:0000000000015522 .LASF8242
     /tmp/ccYIdjbY.s:88404  .debug_str:000000000000a8a1 .LASF8243
     /tmp/ccYIdjbY.s:91728  .debug_str:0000000000017d0f .LASF8244
     /tmp/ccYIdjbY.s:96824  .debug_str:000000000002cec4 .LASF8245
     /tmp/ccYIdjbY.s:87084  .debug_str:0000000000004f0f .LASF8246
     /tmp/ccYIdjbY.s:88376  .debug_str:000000000000a701 .LASF8247
     /tmp/ccYIdjbY.s:98730  .debug_str:0000000000034f7f .LASF8248
     /tmp/ccYIdjbY.s:86588  .debug_str:0000000000002cca .LASF8249
     /tmp/ccYIdjbY.s:91506  .debug_str:0000000000016f60 .LASF8250
     /tmp/ccYIdjbY.s:98478  .debug_str:0000000000033f33 .LASF8251
     /tmp/ccYIdjbY.s:97064  .debug_str:000000000002df7f .LASF8252
     /tmp/ccYIdjbY.s:87710  .debug_str:000000000000792c .LASF8253
     /tmp/ccYIdjbY.s:103832  .debug_str:0000000000049fa8 .LASF8254
     /tmp/ccYIdjbY.s:95184  .debug_str:00000000000263ac .LASF8255
     /tmp/ccYIdjbY.s:88174  .debug_str:0000000000009904 .LASF8256
     /tmp/ccYIdjbY.s:97580  .debug_str:000000000003026e .LASF8257
     /tmp/ccYIdjbY.s:103512  .debug_str:000000000004879b .LASF8258
     /tmp/ccYIdjbY.s:96600  .debug_str:000000000002bfa7 .LASF8259
     /tmp/ccYIdjbY.s:93714  .debug_str:00000000000206f5 .LASF8260
     /tmp/ccYIdjbY.s:103690  .debug_str:0000000000049403 .LASF8261
     /tmp/ccYIdjbY.s:86290  .debug_str:0000000000001752 .LASF8262
     /tmp/ccYIdjbY.s:87112  .debug_str:00000000000050d7 .LASF8263
     /tmp/ccYIdjbY.s:103510  .debug_str:000000000004878e .LASF8264
     /tmp/ccYIdjbY.s:99790  .debug_str:0000000000038e83 .LASF8265
     /tmp/ccYIdjbY.s:98254  .debug_str:0000000000033010 .LASF8266
     /tmp/ccYIdjbY.s:98378  .debug_str:000000000003387a .LASF8267
     /tmp/ccYIdjbY.s:93488  .debug_str:000000000001f77e .LASF8268
     /tmp/ccYIdjbY.s:100318  .debug_str:000000000003b2d5 .LASF8269
     /tmp/ccYIdjbY.s:91432  .debug_str:0000000000016a96 .LASF8270
     /tmp/ccYIdjbY.s:89390  .debug_str:000000000000e85c .LASF8271
     /tmp/ccYIdjbY.s:96934  .debug_str:000000000002d6b7 .LASF8272
     /tmp/ccYIdjbY.s:87714  .debug_str:000000000000796a .LASF8273
     /tmp/ccYIdjbY.s:88208  .debug_str:0000000000009bb7 .LASF8274
     /tmp/ccYIdjbY.s:90056  .debug_str:0000000000010ff6 .LASF8275
     /tmp/ccYIdjbY.s:103040  .debug_str:000000000004669e .LASF8276
     /tmp/ccYIdjbY.s:92376  .debug_str:000000000001aa83 .LASF8277
     /tmp/ccYIdjbY.s:94940  .debug_str:00000000000253b2 .LASF8278
     /tmp/ccYIdjbY.s:91750  .debug_str:0000000000017ed9 .LASF8279
     /tmp/ccYIdjbY.s:95258  .debug_str:0000000000026884 .LASF8280
     /tmp/ccYIdjbY.s:93972  .debug_str:00000000000217dc .LASF8281
     /tmp/ccYIdjbY.s:101010  .debug_str:000000000003e07c .LASF8282
     /tmp/ccYIdjbY.s:104112  .debug_str:000000000004b2a3 .LASF8283
     /tmp/ccYIdjbY.s:101608  .debug_str:00000000000408c5 .LASF8284
     /tmp/ccYIdjbY.s:92204  .debug_str:0000000000019f32 .LASF8285
     /tmp/ccYIdjbY.s:97492  .debug_str:000000000002fb9a .LASF8286
     /tmp/ccYIdjbY.s:89148  .debug_str:000000000000db10 .LASF8287
     /tmp/ccYIdjbY.s:104072  .debug_str:000000000004b009 .LASF8288
     /tmp/ccYIdjbY.s:96652  .debug_str:000000000002c2e9 .LASF8289
     /tmp/ccYIdjbY.s:100342  .debug_str:000000000003b449 .LASF8290
     /tmp/ccYIdjbY.s:103400  .debug_str:000000000004801a .LASF8291
     /tmp/ccYIdjbY.s:89348  .debug_str:000000000000e53f .LASF8292
     /tmp/ccYIdjbY.s:89750  .debug_str:000000000000fcad .LASF8293
     /tmp/ccYIdjbY.s:99830  .debug_str:0000000000039194 .LASF8294
     /tmp/ccYIdjbY.s:99636  .debug_str:00000000000383fb .LASF8295
     /tmp/ccYIdjbY.s:89752  .debug_str:000000000000fcbd .LASF8296
     /tmp/ccYIdjbY.s:99832  .debug_str:00000000000391a4 .LASF8297
     /tmp/ccYIdjbY.s:87122  .debug_str:000000000000515d .LASF8298
     /tmp/ccYIdjbY.s:91244  .debug_str:0000000000015dc2 .LASF8299
     /tmp/ccYIdjbY.s:92730  .debug_str:000000000001c27b .LASF8300
     /tmp/ccYIdjbY.s:87556  .debug_str:0000000000006fec .LASF8301
     /tmp/ccYIdjbY.s:99966  .debug_str:0000000000039b66 .LASF8302
     /tmp/ccYIdjbY.s:95186  .debug_str:00000000000263be .LASF8303
     /tmp/ccYIdjbY.s:100184  .debug_str:000000000003a934 .LASF8304
     /tmp/ccYIdjbY.s:99968  .debug_str:0000000000039b76 .LASF8305
     /tmp/ccYIdjbY.s:91536  .debug_str:0000000000017142 .LASF8306
     /tmp/ccYIdjbY.s:94312  .debug_str:0000000000022de6 .LASF8307
     /tmp/ccYIdjbY.s:99970  .debug_str:0000000000039b86 .LASF8308
     /tmp/ccYIdjbY.s:91538  .debug_str:0000000000017152 .LASF8309
     /tmp/ccYIdjbY.s:96808  .debug_str:000000000002cdc8 .LASF8310
     /tmp/ccYIdjbY.s:99972  .debug_str:0000000000039b96 .LASF8311
     /tmp/ccYIdjbY.s:91540  .debug_str:0000000000017162 .LASF8312
     /tmp/ccYIdjbY.s:101060  .debug_str:000000000003e3a7 .LASF8313
     /tmp/ccYIdjbY.s:93576  .debug_str:000000000001fdf2 .LASF8314
     /tmp/ccYIdjbY.s:96654  .debug_str:000000000002c30a .LASF8315
     /tmp/ccYIdjbY.s:90634  .debug_str:0000000000013612 .LASF8316
     /tmp/ccYIdjbY.s:90936  .debug_str:0000000000014900 .LASF8317
     /tmp/ccYIdjbY.s:99964  .debug_str:0000000000039b56 .LASF8318
     /tmp/ccYIdjbY.s:90694  .debug_str:0000000000013a1c .LASF8319
     /tmp/ccYIdjbY.s:86908  .debug_str:0000000000004341 .LASF8320
     /tmp/ccYIdjbY.s:88724  .debug_str:000000000000bf7e .LASF8321
     /tmp/ccYIdjbY.s:103566  .debug_str:0000000000048bc7 .LASF8322
     /tmp/ccYIdjbY.s:86910  .debug_str:0000000000004357 .LASF8323
     /tmp/ccYIdjbY.s:88726  .debug_str:000000000000bf94 .LASF8324
     /tmp/ccYIdjbY.s:96822  .debug_str:000000000002ce9a .LASF8325
     /tmp/ccYIdjbY.s:86912  .debug_str:000000000000436d .LASF8326
     /tmp/ccYIdjbY.s:88728  .debug_str:000000000000bfaa .LASF8327
     /tmp/ccYIdjbY.s:90948  .debug_str:00000000000149ff .LASF8328
     /tmp/ccYIdjbY.s:86914  .debug_str:0000000000004383 .LASF8329
     /tmp/ccYIdjbY.s:88730  .debug_str:000000000000bfc0 .LASF8330
     /tmp/ccYIdjbY.s:103440  .debug_str:00000000000482cd .LASF8331
     /tmp/ccYIdjbY.s:86916  .debug_str:0000000000004399 .LASF8332
     /tmp/ccYIdjbY.s:88732  .debug_str:000000000000bfd6 .LASF8333
     /tmp/ccYIdjbY.s:97886  .debug_str:0000000000031771 .LASF8334
     /tmp/ccYIdjbY.s:86918  .debug_str:00000000000043af .LASF8335
     /tmp/ccYIdjbY.s:88734  .debug_str:000000000000bfec .LASF8336
     /tmp/ccYIdjbY.s:92026  .debug_str:00000000000191d0 .LASF8337
     /tmp/ccYIdjbY.s:86920  .debug_str:00000000000043c5 .LASF8338
     /tmp/ccYIdjbY.s:88736  .debug_str:000000000000c002 .LASF8339
     /tmp/ccYIdjbY.s:86172  .debug_str:0000000000000f55 .LASF8340
     /tmp/ccYIdjbY.s:86922  .debug_str:00000000000043db .LASF8341
     /tmp/ccYIdjbY.s:88738  .debug_str:000000000000c018 .LASF8342
     /tmp/ccYIdjbY.s:98788  .debug_str:0000000000035271 .LASF8343
     /tmp/ccYIdjbY.s:93078  .debug_str:000000000001daf7 .LASF8344
     /tmp/ccYIdjbY.s:96564  .debug_str:000000000002bcfc .LASF8345
     /tmp/ccYIdjbY.s:100054  .debug_str:000000000003a11b .LASF8346
     /tmp/ccYIdjbY.s:90608  .debug_str:00000000000134ba .LASF8347
     /tmp/ccYIdjbY.s:99214  .debug_str:00000000000369f5 .LASF8348
     /tmp/ccYIdjbY.s:94194  .debug_str:00000000000226e3 .LASF8349
     /tmp/ccYIdjbY.s:92072  .debug_str:0000000000019529 .LASF8350
     /tmp/ccYIdjbY.s:87822  .debug_str:0000000000008108 .LASF8351
     /tmp/ccYIdjbY.s:94490  .debug_str:00000000000238bb .LASF8352
     /tmp/ccYIdjbY.s:93402  .debug_str:000000000001f294 .LASF8353
     /tmp/ccYIdjbY.s:97984  .debug_str:0000000000031e09 .LASF8354
     /tmp/ccYIdjbY.s:103090  .debug_str:00000000000469e7 .LASF8355
     /tmp/ccYIdjbY.s:100542  .debug_str:000000000003c137 .LASF8356
     /tmp/ccYIdjbY.s:95114  .debug_str:0000000000025f66 .LASF8357
     /tmp/ccYIdjbY.s:99438  .debug_str:0000000000037694 .LASF8358
     /tmp/ccYIdjbY.s:101594  .debug_str:00000000000407cf .LASF8359
     /tmp/ccYIdjbY.s:101436  .debug_str:000000000003fce2 .LASF8360
     /tmp/ccYIdjbY.s:92040  .debug_str:00000000000192fc .LASF8361
     /tmp/ccYIdjbY.s:94134  .debug_str:00000000000222ed .LASF8362
     /tmp/ccYIdjbY.s:89938  .debug_str:00000000000108b4 .LASF8363
     /tmp/ccYIdjbY.s:98592  .debug_str:0000000000034643 .LASF8364
     /tmp/ccYIdjbY.s:94206  .debug_str:00000000000227cc .LASF8365
     /tmp/ccYIdjbY.s:90064  .debug_str:0000000000011078 .LASF8366
     /tmp/ccYIdjbY.s:96096  .debug_str:0000000000029f2c .LASF8367
     /tmp/ccYIdjbY.s:90768  .debug_str:0000000000013e28 .LASF8368
     /tmp/ccYIdjbY.s:90180  .debug_str:00000000000118d6 .LASF8369
     /tmp/ccYIdjbY.s:88540  .debug_str:000000000000b311 .LASF8370
     /tmp/ccYIdjbY.s:101258  .debug_str:000000000003f199 .LASF8371
     /tmp/ccYIdjbY.s:101516  .debug_str:00000000000402e4 .LASF8372
     /tmp/ccYIdjbY.s:95802  .debug_str:0000000000028bbf .LASF8373
     /tmp/ccYIdjbY.s:100020  .debug_str:0000000000039f02 .LASF8374
     /tmp/ccYIdjbY.s:104120  .debug_str:000000000004b325 .LASF8375
     /tmp/ccYIdjbY.s:99462  .debug_str:0000000000037841 .LASF8376
     /tmp/ccYIdjbY.s:101270  .debug_str:000000000003f22b .LASF8377
     /tmp/ccYIdjbY.s:95298  .debug_str:0000000000026ba5 .LASF8378
     /tmp/ccYIdjbY.s:95196  .debug_str:000000000002644f .LASF8379
     /tmp/ccYIdjbY.s:89656  .debug_str:000000000000f70e .LASF8380
     /tmp/ccYIdjbY.s:103574  .debug_str:0000000000048c58 .LASF8381
     /tmp/ccYIdjbY.s:103560  .debug_str:0000000000048b1d .LASF8382
     /tmp/ccYIdjbY.s:100166  .debug_str:000000000003a823 .LASF8383
     /tmp/ccYIdjbY.s:95752  .debug_str:00000000000288af .LASF8384
     /tmp/ccYIdjbY.s:95838  .debug_str:0000000000028e55 .LASF8385
     /tmp/ccYIdjbY.s:97928  .debug_str:0000000000031a3a .LASF8386
     /tmp/ccYIdjbY.s:103984  .debug_str:000000000004aa2a .LASF8387
     /tmp/ccYIdjbY.s:95482  .debug_str:0000000000027719 .LASF8388
     /tmp/ccYIdjbY.s:89610  .debug_str:000000000000f516 .LASF8389
     /tmp/ccYIdjbY.s:100084  .debug_str:000000000003a31d .LASF8390
     /tmp/ccYIdjbY.s:104230  .debug_str:000000000004bb13 .LASF8391
     /tmp/ccYIdjbY.s:100664  .debug_str:000000000003c8fd .LASF8392
     /tmp/ccYIdjbY.s:87712  .debug_str:0000000000007953 .LASF8393
     /tmp/ccYIdjbY.s:95714  .debug_str:00000000000286fb .LASF8394
     /tmp/ccYIdjbY.s:99990  .debug_str:0000000000039cdf .LASF8395
     /tmp/ccYIdjbY.s:86624  .debug_str:0000000000002ff2 .LASF8396
     /tmp/ccYIdjbY.s:86872  .debug_str:0000000000004079 .LASF8397
     /tmp/ccYIdjbY.s:99992  .debug_str:0000000000039cf8 .LASF8398
     /tmp/ccYIdjbY.s:86626  .debug_str:000000000000300b .LASF8399
     /tmp/ccYIdjbY.s:92826  .debug_str:000000000001c962 .LASF8400
     /tmp/ccYIdjbY.s:99994  .debug_str:0000000000039d11 .LASF8401
     /tmp/ccYIdjbY.s:86628  .debug_str:0000000000003024 .LASF8402
     /tmp/ccYIdjbY.s:93670  .debug_str:00000000000204b9 .LASF8403
     /tmp/ccYIdjbY.s:99996  .debug_str:0000000000039d2a .LASF8404
     /tmp/ccYIdjbY.s:86630  .debug_str:000000000000303d .LASF8405
     /tmp/ccYIdjbY.s:87770  .debug_str:0000000000007cf8 .LASF8406
     /tmp/ccYIdjbY.s:99998  .debug_str:0000000000039d43 .LASF8407
     /tmp/ccYIdjbY.s:86632  .debug_str:0000000000003056 .LASF8408
     /tmp/ccYIdjbY.s:100370  .debug_str:000000000003b5da .LASF8409
     /tmp/ccYIdjbY.s:101928  .debug_str:0000000000041d37 .LASF8410
     /tmp/ccYIdjbY.s:101422  .debug_str:000000000003fc0a .LASF8411
     /tmp/ccYIdjbY.s:96184  .debug_str:000000000002a505 .LASF8412
     /tmp/ccYIdjbY.s:91692  .debug_str:0000000000017b67 .LASF8413
     /tmp/ccYIdjbY.s:94108  .debug_str:000000000002213c .LASF8414
     /tmp/ccYIdjbY.s:94132  .debug_str:00000000000222cc .LASF8415
     /tmp/ccYIdjbY.s:96126  .debug_str:000000000002a0f0 .LASF8416
     /tmp/ccYIdjbY.s:90484  .debug_str:0000000000012cd7 .LASF8417
     /tmp/ccYIdjbY.s:94186  .debug_str:0000000000022654 .LASF8418
     /tmp/ccYIdjbY.s:89016  .debug_str:000000000000d2cf .LASF8419
     /tmp/ccYIdjbY.s:97374  .debug_str:000000000002f412 .LASF8420
     /tmp/ccYIdjbY.s:97506  .debug_str:000000000002fc9b .LASF8421
     /tmp/ccYIdjbY.s:92516  .debug_str:000000000001b499 .LASF8422
     /tmp/ccYIdjbY.s:102032  .debug_str:00000000000423fd .LASF8423
     /tmp/ccYIdjbY.s:97832  .debug_str:00000000000313d7 .LASF8424
     /tmp/ccYIdjbY.s:96920  .debug_str:000000000002d5eb .LASF8425
     /tmp/ccYIdjbY.s:90660  .debug_str:00000000000137e8 .LASF8426
     /tmp/ccYIdjbY.s:94242  .debug_str:0000000000022a81 .LASF8427
     /tmp/ccYIdjbY.s:91802  .debug_str:0000000000018237 .LASF8428
     /tmp/ccYIdjbY.s:91166  .debug_str:00000000000157fc .LASF8429
     /tmp/ccYIdjbY.s:100202  .debug_str:000000000003aa94 .LASF8430
     /tmp/ccYIdjbY.s:91702  .debug_str:0000000000017bcc .LASF8431
     /tmp/ccYIdjbY.s:91216  .debug_str:0000000000015b6a .LASF8432
     /tmp/ccYIdjbY.s:99610  .debug_str:0000000000038227 .LASF8433
     /tmp/ccYIdjbY.s:86866  .debug_str:0000000000004005 .LASF8434
     /tmp/ccYIdjbY.s:86542  .debug_str:000000000000294f .LASF8435
     /tmp/ccYIdjbY.s:93578  .debug_str:000000000001fe07 .LASF8436
     /tmp/ccYIdjbY.s:86924  .debug_str:00000000000043f1 .LASF8437
     /tmp/ccYIdjbY.s:97008  .debug_str:000000000002dbe6 .LASF8438
     /tmp/ccYIdjbY.s:103720  .debug_str:000000000004967d .LASF8439
     /tmp/ccYIdjbY.s:87750  .debug_str:0000000000007b92 .LASF8440
     /tmp/ccYIdjbY.s:96344  .debug_str:000000000002aecc .LASF8441
     /tmp/ccYIdjbY.s:103166  .debug_str:0000000000046f03 .LASF8442
     /tmp/ccYIdjbY.s:98028  .debug_str:0000000000032061 .LASF8443
     /tmp/ccYIdjbY.s:102790  .debug_str:0000000000045644 .LASF8444
     /tmp/ccYIdjbY.s:96016  .debug_str:00000000000299c3 .LASF8445
     /tmp/ccYIdjbY.s:87632  .debug_str:00000000000074a2 .LASF8446
     /tmp/ccYIdjbY.s:102838  .debug_str:00000000000459b5 .LASF8447
     /tmp/ccYIdjbY.s:92858  .debug_str:000000000001cbc1 .LASF8448
     /tmp/ccYIdjbY.s:87634  .debug_str:00000000000074b5 .LASF8449
     /tmp/ccYIdjbY.s:93000  .debug_str:000000000001d5cb .LASF8450
     /tmp/ccYIdjbY.s:102214  .debug_str:0000000000042edb .LASF8451
     /tmp/ccYIdjbY.s:98266  .debug_str:00000000000330e7 .LASF8452
     /tmp/ccYIdjbY.s:87176  .debug_str:00000000000055b1 .LASF8453
     /tmp/ccYIdjbY.s:101200  .debug_str:000000000003ed9f .LASF8454
     /tmp/ccYIdjbY.s:98268  .debug_str:00000000000330fb .LASF8455
     /tmp/ccYIdjbY.s:87178  .debug_str:00000000000055c5 .LASF8456
     /tmp/ccYIdjbY.s:95476  .debug_str:00000000000276b7 .LASF8457
     /tmp/ccYIdjbY.s:98270  .debug_str:000000000003310f .LASF8458
     /tmp/ccYIdjbY.s:87180  .debug_str:00000000000055d9 .LASF8459
     /tmp/ccYIdjbY.s:89692  .debug_str:000000000000f92d .LASF8460
     /tmp/ccYIdjbY.s:98272  .debug_str:0000000000033123 .LASF8461
     /tmp/ccYIdjbY.s:93674  .debug_str:00000000000204ed .LASF8462
     /tmp/ccYIdjbY.s:89250  .debug_str:000000000000e05a .LASF8463
     /tmp/ccYIdjbY.s:98274  .debug_str:0000000000033137 .LASF8464
     /tmp/ccYIdjbY.s:87184  .debug_str:0000000000005630 .LASF8465
     /tmp/ccYIdjbY.s:96438  .debug_str:000000000002b478 .LASF8466
     /tmp/ccYIdjbY.s:91288  .debug_str:0000000000016040 .LASF8467
     /tmp/ccYIdjbY.s:94104  .debug_str:0000000000022118 .LASF8468
     /tmp/ccYIdjbY.s:86538  .debug_str:000000000000290a .LASF8469
     /tmp/ccYIdjbY.s:87724  .debug_str:00000000000079f8 .LASF8470
     /tmp/ccYIdjbY.s:94106  .debug_str:000000000002212a .LASF8471
     /tmp/ccYIdjbY.s:94620  .debug_str:0000000000023fbe .LASF8472
     /tmp/ccYIdjbY.s:87726  .debug_str:0000000000007a0a .LASF8473
     /tmp/ccYIdjbY.s:88672  .debug_str:000000000000bbd0 .LASF8474
     /tmp/ccYIdjbY.s:103970  .debug_str:000000000004a997 .LASF8475
     /tmp/ccYIdjbY.s:86310  .debug_str:00000000000018a9 .LASF8476
     /tmp/ccYIdjbY.s:87270  .debug_str:0000000000005c62 .LASF8477
     /tmp/ccYIdjbY.s:102634  .debug_str:0000000000044b55 .LASF8478
     /tmp/ccYIdjbY.s:86312  .debug_str:00000000000018bb .LASF8479
     /tmp/ccYIdjbY.s:87272  .debug_str:0000000000005c74 .LASF8480
     /tmp/ccYIdjbY.s:96896  .debug_str:000000000002d432 .LASF8481
     /tmp/ccYIdjbY.s:101670  .debug_str:0000000000040d25 .LASF8482
     /tmp/ccYIdjbY.s:87274  .debug_str:0000000000005c86 .LASF8483
     /tmp/ccYIdjbY.s:91016  .debug_str:0000000000014f35 .LASF8484
     /tmp/ccYIdjbY.s:102784  .debug_str:0000000000045610 .LASF8485
     /tmp/ccYIdjbY.s:96886  .debug_str:000000000002d3d1 .LASF8486
     /tmp/ccYIdjbY.s:93458  .debug_str:000000000001f5c3 .LASF8487
     /tmp/ccYIdjbY.s:101508  .debug_str:000000000004025d .LASF8488
     /tmp/ccYIdjbY.s:102990  .debug_str:0000000000046399 .LASF8489
     /tmp/ccYIdjbY.s:97006  .debug_str:000000000002dbc0 .LASF8490
     /tmp/ccYIdjbY.s:86414  .debug_str:0000000000002002 .LASF8491
     /tmp/ccYIdjbY.s:98050  .debug_str:00000000000321fa .LASF8492
     /tmp/ccYIdjbY.s:98434  .debug_str:0000000000033c30 .LASF8493
     /tmp/ccYIdjbY.s:90280  .debug_str:0000000000011f4b .LASF8494
     /tmp/ccYIdjbY.s:103250  .debug_str:00000000000475bb .LASF8495
     /tmp/ccYIdjbY.s:95038  .debug_str:000000000002599f .LASF8496
     /tmp/ccYIdjbY.s:92654  .debug_str:000000000001bd6a .LASF8497
     /tmp/ccYIdjbY.s:102554  .debug_str:000000000004465c .LASF8498
     /tmp/ccYIdjbY.s:91394  .debug_str:00000000000167c6 .LASF8499
     /tmp/ccYIdjbY.s:95670  .debug_str:00000000000283d3 .LASF8500
     /tmp/ccYIdjbY.s:101502  .debug_str:0000000000040212 .LASF8501
     /tmp/ccYIdjbY.s:99946  .debug_str:0000000000039a22 .LASF8502
     /tmp/ccYIdjbY.s:90572  .debug_str:000000000001324c .LASF8503
     /tmp/ccYIdjbY.s:94696  .debug_str:0000000000024392 .LASF8504
     /tmp/ccYIdjbY.s:94952  .debug_str:000000000002545d .LASF8505
     /tmp/ccYIdjbY.s:94564  .debug_str:0000000000023c4f .LASF8506
     /tmp/ccYIdjbY.s:88472  .debug_str:000000000000add6 .LASF8507
     /tmp/ccYIdjbY.s:102172  .debug_str:0000000000042cb3 .LASF8508
     /tmp/ccYIdjbY.s:93124  .debug_str:000000000001de2b .LASF8509
     /tmp/ccYIdjbY.s:87064  .debug_str:0000000000004ddc .LASF8510
     /tmp/ccYIdjbY.s:103884  .debug_str:000000000004a332 .LASF8511
     /tmp/ccYIdjbY.s:86832  .debug_str:0000000000003d7e .LASF8512
     /tmp/ccYIdjbY.s:94664  .debug_str:0000000000024115 .LASF8513
     /tmp/ccYIdjbY.s:98286  .debug_str:000000000003323c .LASF8514
     /tmp/ccYIdjbY.s:94598  .debug_str:0000000000023e71 .LASF8515
     /tmp/ccYIdjbY.s:101472  .debug_str:000000000003ffcb .LASF8516
     /tmp/ccYIdjbY.s:95580  .debug_str:0000000000027dc0 .LASF8517
     /tmp/ccYIdjbY.s:100938  .debug_str:000000000003daed .LASF8518
     /tmp/ccYIdjbY.s:86948  .debug_str:000000000000458e .LASF8519
     /tmp/ccYIdjbY.s:95710  .debug_str:000000000002869b .LASF8520
     /tmp/ccYIdjbY.s:102918  .debug_str:0000000000045ee6 .LASF8521
     /tmp/ccYIdjbY.s:101812  .debug_str:0000000000041648 .LASF8522
     /tmp/ccYIdjbY.s:103570  .debug_str:0000000000048c0f .LASF8523
     /tmp/ccYIdjbY.s:87338  .debug_str:000000000000609c .LASF8524
     /tmp/ccYIdjbY.s:98174  .debug_str:0000000000032a83 .LASF8525
     /tmp/ccYIdjbY.s:94802  .debug_str:00000000000249e7 .LASF8526
     /tmp/ccYIdjbY.s:89186  .debug_str:000000000000dd9d .LASF8527
     /tmp/ccYIdjbY.s:95024  .debug_str:0000000000025893 .LASF8528
     /tmp/ccYIdjbY.s:101696  .debug_str:0000000000040e7a .LASF8529
     /tmp/ccYIdjbY.s:92564  .debug_str:000000000001b7dd .LASF8530
     /tmp/ccYIdjbY.s:97558  .debug_str:0000000000030126 .LASF8531
     /tmp/ccYIdjbY.s:95384  .debug_str:0000000000027173 .LASF8532
     /tmp/ccYIdjbY.s:88324  .debug_str:000000000000a365 .LASF8533
     /tmp/ccYIdjbY.s:101782  .debug_str:0000000000041483 .LASF8534
     /tmp/ccYIdjbY.s:103220  .debug_str:0000000000047350 .LASF8535
     /tmp/ccYIdjbY.s:89210  .debug_str:000000000000de4e .LASF8536
     /tmp/ccYIdjbY.s:93424  .debug_str:000000000001f3e2 .LASF8537
     /tmp/ccYIdjbY.s:96840  .debug_str:000000000002d063 .LASF8538
     /tmp/ccYIdjbY.s:90840  .debug_str:00000000000142b4 .LASF8539
     /tmp/ccYIdjbY.s:102130  .debug_str:0000000000042a19 .LASF8540
     /tmp/ccYIdjbY.s:102250  .debug_str:00000000000431c5 .LASF8541
     /tmp/ccYIdjbY.s:88634  .debug_str:000000000000b98f .LASF8542
     /tmp/ccYIdjbY.s:91260  .debug_str:0000000000015e84 .LASF8543
     /tmp/ccYIdjbY.s:103842  .debug_str:000000000004a03d .LASF8544
     /tmp/ccYIdjbY.s:101706  .debug_str:0000000000040f12 .LASF8545
     /tmp/ccYIdjbY.s:97962  .debug_str:0000000000031c63 .LASF8546
     /tmp/ccYIdjbY.s:101392  .debug_str:000000000003f9e8 .LASF8547
     /tmp/ccYIdjbY.s:92178  .debug_str:0000000000019d7e .LASF8548
     /tmp/ccYIdjbY.s:99820  .debug_str:00000000000390ca .LASF8549
     /tmp/ccYIdjbY.s:93490  .debug_str:000000000001f7a3 .LASF8550
     /tmp/ccYIdjbY.s:88566  .debug_str:000000000000b527 .LASF8551
     /tmp/ccYIdjbY.s:103806  .debug_str:0000000000049dfd .LASF8552
     /tmp/ccYIdjbY.s:99808  .debug_str:0000000000038fd2 .LASF8553
     /tmp/ccYIdjbY.s:103318  .debug_str:0000000000047a6d .LASF8554
     /tmp/ccYIdjbY.s:89486  .debug_str:000000000000ed02 .LASF8555
     /tmp/ccYIdjbY.s:97504  .debug_str:000000000002fc70 .LASF8556
     /tmp/ccYIdjbY.s:86564  .debug_str:0000000000002b2b .LASF8557
     /tmp/ccYIdjbY.s:98580  .debug_str:0000000000034572 .LASF8558
     /tmp/ccYIdjbY.s:95862  .debug_str:0000000000028fcf .LASF8559
     /tmp/ccYIdjbY.s:98824  .debug_str:000000000003559d .LASF8560
     /tmp/ccYIdjbY.s:96614  .debug_str:000000000002c06f .LASF8561
     /tmp/ccYIdjbY.s:99110  .debug_str:00000000000364c8 .LASF8562
     /tmp/ccYIdjbY.s:91416  .debug_str:0000000000016941 .LASF8563
     /tmp/ccYIdjbY.s:86396  .debug_str:0000000000001e92 .LASF8564
     /tmp/ccYIdjbY.s:90710  .debug_str:0000000000013b13 .LASF8565
     /tmp/ccYIdjbY.s:89214  .debug_str:000000000000de7e .LASF8566
     /tmp/ccYIdjbY.s:98934  .debug_str:0000000000035b4b .LASF8567
     /tmp/ccYIdjbY.s:101592  .debug_str:00000000000407a7 .LASF8568
     /tmp/ccYIdjbY.s:91784  .debug_str:0000000000018131 .LASF8569
     /tmp/ccYIdjbY.s:96294  .debug_str:000000000002ac0f .LASF8570
     /tmp/ccYIdjbY.s:87816  .debug_str:0000000000008087 .LASF8571
     /tmp/ccYIdjbY.s:95310  .debug_str:0000000000026c23 .LASF8572
     /tmp/ccYIdjbY.s:94168  .debug_str:000000000002250e .LASF8573
     /tmp/ccYIdjbY.s:103662  .debug_str:00000000000491ed .LASF8574
     /tmp/ccYIdjbY.s:95312  .debug_str:0000000000026c40 .LASF8575
     /tmp/ccYIdjbY.s:94170  .debug_str:000000000002252b .LASF8576
     /tmp/ccYIdjbY.s:86112  .debug_str:0000000000000b2a .LASF8577
     /tmp/ccYIdjbY.s:100310  .debug_str:000000000003b22e .LASF8578
     /tmp/ccYIdjbY.s:99312  .debug_str:0000000000036f62 .LASF8579
     /tmp/ccYIdjbY.s:101888  .debug_str:0000000000041af7 .LASF8580
     /tmp/ccYIdjbY.s:100312  .debug_str:000000000003b24b .LASF8581
     /tmp/ccYIdjbY.s:87310  .debug_str:0000000000005ef0 .LASF8582
     /tmp/ccYIdjbY.s:90960  .debug_str:0000000000014ad6 .LASF8583
     /tmp/ccYIdjbY.s:102298  .debug_str:0000000000043510 .LASF8584
     /tmp/ccYIdjbY.s:90324  .debug_str:0000000000012244 .LASF8585
     /tmp/ccYIdjbY.s:100730  .debug_str:000000000003ccc2 .LASF8586
     /tmp/ccYIdjbY.s:102300  .debug_str:000000000004352b .LASF8587
     /tmp/ccYIdjbY.s:99010  .debug_str:0000000000035f81 .LASF8588
     /tmp/ccYIdjbY.s:94948  .debug_str:0000000000025414 .LASF8589
     /tmp/ccYIdjbY.s:88884  .debug_str:000000000000ca2b .LASF8590
     /tmp/ccYIdjbY.s:95392  .debug_str:0000000000027228 .LASF8591
     /tmp/ccYIdjbY.s:93682  .debug_str:000000000002056d .LASF8592
     /tmp/ccYIdjbY.s:88886  .debug_str:000000000000ca46 .LASF8593
     /tmp/ccYIdjbY.s:90662  .debug_str:00000000000137f4 .LASF8594
     /tmp/ccYIdjbY.s:87784  .debug_str:0000000000007e1f .LASF8595
     /tmp/ccYIdjbY.s:94438  .debug_str:0000000000023637 .LASF8596
     /tmp/ccYIdjbY.s:93234  .debug_str:000000000001e579 .LASF8597
     /tmp/ccYIdjbY.s:86068  .debug_str:00000000000008a8 .LASF8598
     /tmp/ccYIdjbY.s:94440  .debug_str:0000000000023654 .LASF8599
     /tmp/ccYIdjbY.s:93236  .debug_str:000000000001e596 .LASF8600
     /tmp/ccYIdjbY.s:95768  .debug_str:00000000000289a4 .LASF8601
     /tmp/ccYIdjbY.s:99604  .debug_str:00000000000381c3 .LASF8602
     /tmp/ccYIdjbY.s:98302  .debug_str:00000000000333af .LASF8603
     /tmp/ccYIdjbY.s:97418  .debug_str:000000000002f6e6 .LASF8604
     /tmp/ccYIdjbY.s:99606  .debug_str:00000000000381e0 .LASF8605
     /tmp/ccYIdjbY.s:98304  .debug_str:00000000000333cc .LASF8606
     /tmp/ccYIdjbY.s:91560  .debug_str:00000000000172f4 .LASF8607
     /tmp/ccYIdjbY.s:104216  .debug_str:000000000004ba23 .LASF8608
     /tmp/ccYIdjbY.s:88280  .debug_str:000000000000a090 .LASF8609
     /tmp/ccYIdjbY.s:91878  .debug_str:0000000000018798 .LASF8610
     /tmp/ccYIdjbY.s:104218  .debug_str:000000000004ba3c .LASF8611
     /tmp/ccYIdjbY.s:88282  .debug_str:000000000000a0a9 .LASF8612
     /tmp/ccYIdjbY.s:86036  .debug_str:00000000000006ac .LASF8613
     /tmp/ccYIdjbY.s:87864  .debug_str:00000000000083a5 .LASF8614
     /tmp/ccYIdjbY.s:99980  .debug_str:0000000000039c10 .LASF8615
     /tmp/ccYIdjbY.s:89502  .debug_str:000000000000ee07 .LASF8616
     /tmp/ccYIdjbY.s:88806  .debug_str:000000000000c50a .LASF8617
     /tmp/ccYIdjbY.s:92428  .debug_str:000000000001ae40 .LASF8618
     /tmp/ccYIdjbY.s:103194  .debug_str:0000000000047163 .LASF8619
     /tmp/ccYIdjbY.s:88004  .debug_str:0000000000008d94 .LASF8620
     /tmp/ccYIdjbY.s:89606  .debug_str:000000000000f4f8 .LASF8621
     /tmp/ccYIdjbY.s:86426  .debug_str:00000000000020f6 .LASF8622
     /tmp/ccYIdjbY.s:102980  .debug_str:00000000000462e6 .LASF8623
     /tmp/ccYIdjbY.s:89466  .debug_str:000000000000ec76 .LASF8624
     /tmp/ccYIdjbY.s:101780  .debug_str:000000000004145c .LASF8625
     /tmp/ccYIdjbY.s:93298  .debug_str:000000000001ea72 .LASF8626
     /tmp/ccYIdjbY.s:97034  .debug_str:000000000002dd47 .LASF8627
     /tmp/ccYIdjbY.s:90908  .debug_str:0000000000014747 .LASF8628
     /tmp/ccYIdjbY.s:88162  .debug_str:0000000000009855 .LASF8629
     /tmp/ccYIdjbY.s:94574  .debug_str:0000000000023cd6 .LASF8630
     /tmp/ccYIdjbY.s:89372  .debug_str:000000000000e6ef .LASF8631
     /tmp/ccYIdjbY.s:96938  .debug_str:000000000002d6f4 .LASF8632
     /tmp/ccYIdjbY.s:92616  .debug_str:000000000001bb41 .LASF8633
     /tmp/ccYIdjbY.s:95896  .debug_str:0000000000029169 .LASF8634
     /tmp/ccYIdjbY.s:94050  .debug_str:0000000000021d6f .LASF8635
     /tmp/ccYIdjbY.s:101126  .debug_str:000000000003e822 .LASF8636
     /tmp/ccYIdjbY.s:102972  .debug_str:0000000000046278 .LASF8637
     /tmp/ccYIdjbY.s:97876  .debug_str:0000000000031732 .LASF8638
     /tmp/ccYIdjbY.s:96174  .debug_str:000000000002a43d .LASF8639
     /tmp/ccYIdjbY.s:89534  .debug_str:000000000000f08e .LASF8640
     /tmp/ccYIdjbY.s:96022  .debug_str:0000000000029a2d .LASF8641
     /tmp/ccYIdjbY.s:101976  .debug_str:000000000004204e .LASF8642
     /tmp/ccYIdjbY.s:93314  .debug_str:000000000001ebbd .LASF8643
     /tmp/ccYIdjbY.s:96574  .debug_str:000000000002bda4 .LASF8644
     /tmp/ccYIdjbY.s:92848  .debug_str:000000000001caf8 .LASF8645
     /tmp/ccYIdjbY.s:99108  .debug_str:00000000000364a0 .LASF8646
     /tmp/ccYIdjbY.s:94478  .debug_str:0000000000023837 .LASF8647
     /tmp/ccYIdjbY.s:100736  .debug_str:000000000003cd47 .LASF8648
     /tmp/ccYIdjbY.s:103462  .debug_str:000000000004843d .LASF8649
     /tmp/ccYIdjbY.s:96382  .debug_str:000000000002b12d .LASF8650
     /tmp/ccYIdjbY.s:92008  .debug_str:0000000000019096 .LASF8651
     /tmp/ccYIdjbY.s:101898  .debug_str:0000000000041ba3 .LASF8652
     /tmp/ccYIdjbY.s:103636  .debug_str:0000000000049068 .LASF8653
     /tmp/ccYIdjbY.s:90594  .debug_str:00000000000133c9 .LASF8654
     /tmp/ccYIdjbY.s:88926  .debug_str:000000000000ccf7 .LASF8655
     /tmp/ccYIdjbY.s:102834  .debug_str:0000000000045982 .LASF8656
     /tmp/ccYIdjbY.s:87312  .debug_str:0000000000005f0d .LASF8657
     /tmp/ccYIdjbY.s:92168  .debug_str:0000000000019cb9 .LASF8658
     /tmp/ccYIdjbY.s:94998  .debug_str:00000000000256cb .LASF8659
     /tmp/ccYIdjbY.s:89912  .debug_str:00000000000106eb .LASF8660
     /tmp/ccYIdjbY.s:100906  .debug_str:000000000003d8e1 .LASF8661
     /tmp/ccYIdjbY.s:93440  .debug_str:000000000001f4b9 .LASF8662
     /tmp/ccYIdjbY.s:87766  .debug_str:0000000000007cbb .LASF8663
     /tmp/ccYIdjbY.s:87850  .debug_str:00000000000082a1 .LASF8664
     /tmp/ccYIdjbY.s:102332  .debug_str:00000000000436ed .LASF8665
     /tmp/ccYIdjbY.s:95036  .debug_str:000000000002598b .LASF8666
     /tmp/ccYIdjbY.s:87768  .debug_str:0000000000007cd0 .LASF8667
     /tmp/ccYIdjbY.s:102168  .debug_str:0000000000042c6f .LASF8668
     /tmp/ccYIdjbY.s:103136  .debug_str:0000000000046cdd .LASF8669
     /tmp/ccYIdjbY.s:88354  .debug_str:000000000000a54e .LASF8670
     /tmp/ccYIdjbY.s:90178  .debug_str:00000000000118b9 .LASF8671
     /tmp/ccYIdjbY.s:87694  .debug_str:0000000000007872 .LASF8672
     /tmp/ccYIdjbY.s:99496  .debug_str:0000000000037a8f .LASF8673
     /tmp/ccYIdjbY.s:91660  .debug_str:0000000000017975 .LASF8674
     /tmp/ccYIdjbY.s:91662  .debug_str:0000000000017984 .LASF8675
     /tmp/ccYIdjbY.s:91664  .debug_str:0000000000017993 .LASF8676
     /tmp/ccYIdjbY.s:93610  .debug_str:0000000000020008 .LASF8677
     /tmp/ccYIdjbY.s:92044  .debug_str:000000000001936c .LASF8678
     /tmp/ccYIdjbY.s:91876  .debug_str:000000000001877f .LASF8679
     /tmp/ccYIdjbY.s:93564  .debug_str:000000000001fd14 .LASF8680
     /tmp/ccYIdjbY.s:100988  .debug_str:000000000003debb .LASF8681
     /tmp/ccYIdjbY.s:90296  .debug_str:000000000001206e .LASF8682
     /tmp/ccYIdjbY.s:99042  .debug_str:000000000003618a .LASF8683
     /tmp/ccYIdjbY.s:89228  .debug_str:000000000000df9f .LASF8684
     /tmp/ccYIdjbY.s:90144  .debug_str:000000000001165b .LASF8685
     /tmp/ccYIdjbY.s:93554  .debug_str:000000000001fc35 .LASF8686
     /tmp/ccYIdjbY.s:87148  .debug_str:0000000000005369 .LASF8687
     /tmp/ccYIdjbY.s:87510  .debug_str:0000000000006d23 .LASF8688
     /tmp/ccYIdjbY.s:90770  .debug_str:0000000000013e32 .LASF8689
     /tmp/ccYIdjbY.s:90426  .debug_str:00000000000129ba .LASF8690
     /tmp/ccYIdjbY.s:100946  .debug_str:000000000003db56 .LASF8691
     /tmp/ccYIdjbY.s:100942  .debug_str:000000000003db44 .LASF8692
     /tmp/ccYIdjbY.s:100944  .debug_str:000000000003db4d .LASF8693
     /tmp/ccYIdjbY.s:101238  .debug_str:000000000003f067 .LASF8694
     /tmp/ccYIdjbY.s:100818  .debug_str:000000000003d23a .LASF8695
     /tmp/ccYIdjbY.s:91524  .debug_str:000000000001706b .LASF8696
     /tmp/ccYIdjbY.s:97010  .debug_str:000000000002dbfc .LASF8697
     /tmp/ccYIdjbY.s:90554  .debug_str:000000000001313d .LASF8698
     /tmp/ccYIdjbY.s:94400  .debug_str:0000000000023410 .LASF8699
     /tmp/ccYIdjbY.s:98800  .debug_str:0000000000035367 .LASF8700
     /tmp/ccYIdjbY.s:100214  .debug_str:000000000003ab54 .LASF8701
     /tmp/ccYIdjbY.s:91668  .debug_str:00000000000179cb .LASF8702
     /tmp/ccYIdjbY.s:95808  .debug_str:0000000000028c32 .LASF8703
     /tmp/ccYIdjbY.s:87230  .debug_str:000000000000596f .LASF8704
     /tmp/ccYIdjbY.s:97050  .debug_str:000000000002de8c .LASF8705
     /tmp/ccYIdjbY.s:95648  .debug_str:000000000002823e .LASF8706
     /tmp/ccYIdjbY.s:94540  .debug_str:0000000000023bbf .LASF8707
     /tmp/ccYIdjbY.s:93880  .debug_str:0000000000021219 .LASF8708
     /tmp/ccYIdjbY.s:87640  .debug_str:0000000000007528 .LASF8709
     /tmp/ccYIdjbY.s:101546  .debug_str:00000000000404d5 .LASF8710
     /tmp/ccYIdjbY.s:96466  .debug_str:000000000002b641 .LASF8711
     /tmp/ccYIdjbY.s:95518  .debug_str:00000000000279c1 .LASF8712
     /tmp/ccYIdjbY.s:93596  .debug_str:000000000001ff7b .LASF8713
     /tmp/ccYIdjbY.s:91278  .debug_str:0000000000015fc2 .LASF8714
     /tmp/ccYIdjbY.s:100826  .debug_str:000000000003d2e3 .LASF8715
     /tmp/ccYIdjbY.s:100956  .debug_str:000000000003dc2b .LASF8716
     /tmp/ccYIdjbY.s:86306  .debug_str:0000000000001885 .LASF8717
     /tmp/ccYIdjbY.s:92532  .debug_str:000000000001b5f5 .LASF8718
     /tmp/ccYIdjbY.s:98108  .debug_str:00000000000325f7 .LASF8719
     /tmp/ccYIdjbY.s:89980  .debug_str:0000000000010a86 .LASF8720
     /tmp/ccYIdjbY.s:93998  .debug_str:00000000000219e5 .LASF8721
     /tmp/ccYIdjbY.s:88322  .debug_str:000000000000a35f .LASF8722
     /tmp/ccYIdjbY.s:94130  .debug_str:00000000000222b5 .LASF8723
     /tmp/ccYIdjbY.s:95500  .debug_str:0000000000027875 .LASF8724
     /tmp/ccYIdjbY.s:90492  .debug_str:0000000000012d60 .LASF8725
     /tmp/ccYIdjbY.s:92424  .debug_str:000000000001adf8 .LASF8726
     /tmp/ccYIdjbY.s:102726  .debug_str:00000000000451b3 .LASF8727
     /tmp/ccYIdjbY.s:87306  .debug_str:0000000000005eae .LASF8728
     /tmp/ccYIdjbY.s:96350  .debug_str:000000000002af34 .LASF8729
     /tmp/ccYIdjbY.s:95692  .debug_str:000000000002858d .LASF8730
     /tmp/ccYIdjbY.s:89364  .debug_str:000000000000e663 .LASF8731
     /tmp/ccYIdjbY.s:88614  .debug_str:000000000000b868 .LASF8732
     /tmp/ccYIdjbY.s:89490  .debug_str:000000000000ed25 .LASF8733
     /tmp/ccYIdjbY.s:88398  .debug_str:000000000000a85e .LASF8734
     /tmp/ccYIdjbY.s:103084  .debug_str:00000000000469a1 .LASF8735
     /tmp/ccYIdjbY.s:94752  .debug_str:00000000000246b2 .LASF8736
     /tmp/ccYIdjbY.s:101414  .debug_str:000000000003fbbd .LASF8737
     /tmp/ccYIdjbY.s:87300  .debug_str:0000000000005e47 .LASF8738
     /tmp/ccYIdjbY.s:89174  .debug_str:000000000000dcce .LASF8739
     /tmp/ccYIdjbY.s:100036  .debug_str:000000000003a00e .LASF8740
     /tmp/ccYIdjbY.s:90034  .debug_str:0000000000010e4d .LASF8741
     /tmp/ccYIdjbY.s:95416  .debug_str:00000000000273dd .LASF8742
     /tmp/ccYIdjbY.s:87512  .debug_str:0000000000006d3e .LASF8743
     /tmp/ccYIdjbY.s:91408  .debug_str:00000000000168d3 .LASF8744
     /tmp/ccYIdjbY.s:88476  .debug_str:000000000000ae3c .LASF8745
     /tmp/ccYIdjbY.s:97410  .debug_str:000000000002f65d .LASF8746
     /tmp/ccYIdjbY.s:85972  .debug_str:0000000000000221 .LASF8747
     /tmp/ccYIdjbY.s:100786  .debug_str:000000000003d08d .LASF8748
     /tmp/ccYIdjbY.s:91966  .debug_str:0000000000018dbc .LASF8749
     /tmp/ccYIdjbY.s:96034  .debug_str:0000000000029ae2 .LASF8750
     /tmp/ccYIdjbY.s:100188  .debug_str:000000000003a979 .LASF8751
     /tmp/ccYIdjbY.s:99472  .debug_str:00000000000378e4 .LASF8752
     /tmp/ccYIdjbY.s:87336  .debug_str:0000000000006090 .LASF8753
     /tmp/ccYIdjbY.s:97406  .debug_str:000000000002f619 .LASF8754
     /tmp/ccYIdjbY.s:95344  .debug_str:0000000000026e42 .LASF8755
     /tmp/ccYIdjbY.s:86896  .debug_str:000000000000429a .LASF8756
     /tmp/ccYIdjbY.s:102996  .debug_str:00000000000463e5 .LASF8757
     /tmp/ccYIdjbY.s:94910  .debug_str:00000000000251c2 .LASF8758
     /tmp/ccYIdjbY.s:92280  .debug_str:000000000001a3f4 .LASF8759
     /tmp/ccYIdjbY.s:94610  .debug_str:0000000000023f09 .LASF8760
     /tmp/ccYIdjbY.s:93898  .debug_str:0000000000021335 .LASF8761
     /tmp/ccYIdjbY.s:103332  .debug_str:0000000000047b4a .LASF8762
     /tmp/ccYIdjbY.s:92256  .debug_str:000000000001a251 .LASF8763
     /tmp/ccYIdjbY.s:95124  .debug_str:0000000000025fe0 .LASF8764
     /tmp/ccYIdjbY.s:100120  .debug_str:000000000003a507 .LASF8765
     /tmp/ccYIdjbY.s:86062  .debug_str:000000000000084a .LASF8766
     /tmp/ccYIdjbY.s:86680  .debug_str:0000000000003386 .LASF8767
     /tmp/ccYIdjbY.s:95950  .debug_str:00000000000295a4 .LASF8768
     /tmp/ccYIdjbY.s:92260  .debug_str:000000000001a295 .LASF8769
     /tmp/ccYIdjbY.s:98826  .debug_str:00000000000355ad .LASF8770
     /tmp/ccYIdjbY.s:95426  .debug_str:000000000002747e .LASF8771
     /tmp/ccYIdjbY.s:98020  .debug_str:0000000000031fc1 .LASF8772
     /tmp/ccYIdjbY.s:86004  .debug_str:000000000000044a .LASF8773
     /tmp/ccYIdjbY.s:94256  .debug_str:0000000000022b68 .LASF8774
     /tmp/ccYIdjbY.s:91872  .debug_str:000000000001876e .LASF8775
     /tmp/ccYIdjbY.s:86246  .debug_str:0000000000001459 .LASF8776
     /tmp/ccYIdjbY.s:93718  .debug_str:0000000000020714 .LASF8777
     /tmp/ccYIdjbY.s:89164  .debug_str:000000000000dbe8 .LASF8778
     /tmp/ccYIdjbY.s:97402  .debug_str:000000000002f5c8 .LASF8779
     /tmp/ccYIdjbY.s:102376  .debug_str:0000000000043a1e .LASF8780
     /tmp/ccYIdjbY.s:93672  .debug_str:00000000000204e6 .LASF8781
     /tmp/ccYIdjbY.s:99184  .debug_str:000000000003688e .LASF8782
     /tmp/ccYIdjbY.s:93414  .debug_str:000000000001f34f .LASF8783
     /tmp/ccYIdjbY.s:93668  .debug_str:00000000000204b2 .LASF8784
     /tmp/ccYIdjbY.s:101600  .debug_str:000000000004083e .LASF8785
     /tmp/ccYIdjbY.s:95534  .debug_str:0000000000027a96 .LASF8786
     /tmp/ccYIdjbY.s:88374  .debug_str:000000000000a6f7 .LASF8787
     /tmp/ccYIdjbY.s:87700  .debug_str:00000000000078a9 .LASF8788
     /tmp/ccYIdjbY.s:95858  .debug_str:0000000000028fba .LASF8789
     /tmp/ccYIdjbY.s:102222  .debug_str:0000000000042f7a .LASF8790
     /tmp/ccYIdjbY.s:101056  .debug_str:000000000003e369 .LASF8791
     /tmp/ccYIdjbY.s:93226  .debug_str:000000000001e4e2 .LASF8792
     /tmp/ccYIdjbY.s:94042  .debug_str:0000000000021cf1 .LASF8793
     /tmp/ccYIdjbY.s:101368  .debug_str:000000000003f83c .LASF8794
     /tmp/ccYIdjbY.s:97164  .debug_str:000000000002e6a0 .LASF8795
     /tmp/ccYIdjbY.s:97598  .debug_str:00000000000303f3 .LASF8796
     /tmp/ccYIdjbY.s:87364  .debug_str:0000000000006253 .LASF8797
     /tmp/ccYIdjbY.s:103666  .debug_str:0000000000049249 .LASF8798
     /tmp/ccYIdjbY.s:102304  .debug_str:0000000000043562 .LASF8799
     /tmp/ccYIdjbY.s:96692  .debug_str:000000000002c5d1 .LASF8800
     /tmp/ccYIdjbY.s:87044  .debug_str:0000000000004c8c .LASF8801
     /tmp/ccYIdjbY.s:92704  .debug_str:000000000001c0b6 .LASF8802
     /tmp/ccYIdjbY.s:101542  .debug_str:00000000000404be .LASF8803
     /tmp/ccYIdjbY.s:100352  .debug_str:000000000003b4e4 .LASF8804
     /tmp/ccYIdjbY.s:93384  .debug_str:000000000001f16f .LASF8805
     /tmp/ccYIdjbY.s:93386  .debug_str:000000000001f179 .LASF8806
     /tmp/ccYIdjbY.s:102868  .debug_str:0000000000045b8c .LASF8807
     /tmp/ccYIdjbY.s:93390  .debug_str:000000000001f1bc .LASF8808
     /tmp/ccYIdjbY.s:98188  .debug_str:0000000000032b87 .LASF8809
     /tmp/ccYIdjbY.s:97026  .debug_str:000000000002dcec .LASF8810
     /tmp/ccYIdjbY.s:102164  .debug_str:0000000000042c45 .LASF8811
     /tmp/ccYIdjbY.s:95646  .debug_str:0000000000028233 .LASF8812
     /tmp/ccYIdjbY.s:91988  .debug_str:0000000000018f20 .LASF8813
     /tmp/ccYIdjbY.s:87690  .debug_str:000000000000785c .LASF8814
     /tmp/ccYIdjbY.s:86616  .debug_str:0000000000002f67 .LASF8815
     /tmp/ccYIdjbY.s:91776  .debug_str:00000000000180c9 .LASF8816
     /tmp/ccYIdjbY.s:88232  .debug_str:0000000000009ce6 .LASF8817
     /tmp/ccYIdjbY.s:90092  .debug_str:0000000000011268 .LASF8818
     /tmp/ccYIdjbY.s:88234  .debug_str:0000000000009cf1 .LASF8819
     /tmp/ccYIdjbY.s:96150  .debug_str:000000000002a25c .LASF8820
     /tmp/ccYIdjbY.s:88236  .debug_str:0000000000009cfc .LASF8821
     /tmp/ccYIdjbY.s:92690  .debug_str:000000000001bfbb .LASF8822
     /tmp/ccYIdjbY.s:88238  .debug_str:0000000000009d07 .LASF8823
     /tmp/ccYIdjbY.s:86844  .debug_str:0000000000003e45 .LASF8824
     /tmp/ccYIdjbY.s:98326  .debug_str:0000000000033565 .LASF8825
     /tmp/ccYIdjbY.s:87190  .debug_str:0000000000005695 .LASF8826
     /tmp/ccYIdjbY.s:95446  .debug_str:000000000002758e .LASF8827
     /tmp/ccYIdjbY.s:101738  .debug_str:000000000004114b .LASF8828
     /tmp/ccYIdjbY.s:95448  .debug_str:0000000000027598 .LASF8829
     /tmp/ccYIdjbY.s:102490  .debug_str:0000000000044223 .LASF8830
     /tmp/ccYIdjbY.s:98330  .debug_str:0000000000033598 .LASF8831
     /tmp/ccYIdjbY.s:90112  .debug_str:00000000000113cb .LASF8832
     /tmp/ccYIdjbY.s:95452  .debug_str:00000000000275d8 .LASF8833
     /tmp/ccYIdjbY.s:102652  .debug_str:0000000000044cac .LASF8834
     /tmp/ccYIdjbY.s:95454  .debug_str:00000000000275e2 .LASF8835
     /tmp/ccYIdjbY.s:98866  .debug_str:0000000000035780 .LASF8836
     /tmp/ccYIdjbY.s:95456  .debug_str:00000000000275ec .LASF8837
     /tmp/ccYIdjbY.s:91036  .debug_str:000000000001503d .LASF8838
     /tmp/ccYIdjbY.s:95458  .debug_str:00000000000275f6 .LASF8839
     /tmp/ccYIdjbY.s:103540  .debug_str:0000000000048987 .LASF8840
     /tmp/ccYIdjbY.s:94484  .debug_str:000000000002388d .LASF8841
     /tmp/ccYIdjbY.s:89140  .debug_str:000000000000da73 .LASF8842
     /tmp/ccYIdjbY.s:91798  .debug_str:0000000000018201 .LASF8843
     /tmp/ccYIdjbY.s:95972  .debug_str:000000000002973c .LASF8844
     /tmp/ccYIdjbY.s:90040  .debug_str:0000000000010ecd .LASF8845
     /tmp/ccYIdjbY.s:90856  .debug_str:00000000000143f5 .LASF8846
     /tmp/ccYIdjbY.s:102036  .debug_str:000000000004242e .LASF8847
     /tmp/ccYIdjbY.s:89756  .debug_str:000000000000fce8 .LASF8848
     /tmp/ccYIdjbY.s:100964  .debug_str:000000000003dc99 .LASF8849
     /tmp/ccYIdjbY.s:103050  .debug_str:000000000004676b .LASF8850
     /tmp/ccYIdjbY.s:100282  .debug_str:000000000003b01a .LASF8851
     /tmp/ccYIdjbY.s:90698  .debug_str:0000000000013a54 .LASF8852
     /tmp/ccYIdjbY.s:86340  .debug_str:0000000000001af7 .LASF8853
     /tmp/ccYIdjbY.s:96404  .debug_str:000000000002b229 .LASF8854
     /tmp/ccYIdjbY.s:103162  .debug_str:0000000000046ecb .LASF8855
     /tmp/ccYIdjbY.s:99608  .debug_str:00000000000381fd .LASF8856
     /tmp/ccYIdjbY.s:97442  .debug_str:000000000002f851 .LASF8857
     /tmp/ccYIdjbY.s:101672  .debug_str:0000000000040d37 .LASF8858
     /tmp/ccYIdjbY.s:100408  .debug_str:000000000003b904 .LASF8859
     /tmp/ccYIdjbY.s:97304  .debug_str:000000000002ef83 .LASF8860
     /tmp/ccYIdjbY.s:90192  .debug_str:000000000001196c .LASF8861
     /tmp/ccYIdjbY.s:90400  .debug_str:00000000000127b3 .LASF8862
     /tmp/ccYIdjbY.s:92334  .debug_str:000000000001a75f .LASF8863
     /tmp/ccYIdjbY.s:93434  .debug_str:000000000001f460 .LASF8864
     /tmp/ccYIdjbY.s:94856  .debug_str:0000000000024dff .LASF8865
     /tmp/ccYIdjbY.s:87838  .debug_str:00000000000081ce .LASF8866
     /tmp/ccYIdjbY.s:96610  .debug_str:000000000002c039 .LASF8867
     /tmp/ccYIdjbY.s:91952  .debug_str:0000000000018cce .LASF8868
     /tmp/ccYIdjbY.s:91206  .debug_str:0000000000015adc .LASF8869
     /tmp/ccYIdjbY.s:102074  .debug_str:00000000000426da .LASF8870
     /tmp/ccYIdjbY.s:91922  .debug_str:0000000000018aac .LASF8871
     /tmp/ccYIdjbY.s:95396  .debug_str:000000000002727b .LASF8872
     /tmp/ccYIdjbY.s:104242  .debug_str:000000000004bbac .LASF8873
     /tmp/ccYIdjbY.s:92498  .debug_str:000000000001b2fd .LASF8874
     /tmp/ccYIdjbY.s:98838  .debug_str:00000000000355d7 .LASF8875
     /tmp/ccYIdjbY.s:97314  .debug_str:000000000002effc .LASF8876
     /tmp/ccYIdjbY.s:94026  .debug_str:0000000000021bcd .LASF8877
     /tmp/ccYIdjbY.s:95106  .debug_str:0000000000025f18 .LASF8878
     /tmp/ccYIdjbY.s:93838  .debug_str:0000000000020f1b .LASF8879
     /tmp/ccYIdjbY.s:86194  .debug_str:000000000000110d .LASF8880
     /tmp/ccYIdjbY.s:86338  .debug_str:0000000000001ad3 .LASF8881
     /tmp/ccYIdjbY.s:88896  .debug_str:000000000000caf6 .LASF8882
     /tmp/ccYIdjbY.s:88648  .debug_str:000000000000ba76 .LASF8883
     /tmp/ccYIdjbY.s:96602  .debug_str:000000000002bfdb .LASF8884
     /tmp/ccYIdjbY.s:92562  .debug_str:000000000001b7b3 .LASF8885
     /tmp/ccYIdjbY.s:96364  .debug_str:000000000002b019 .LASF8886
     /tmp/ccYIdjbY.s:96366  .debug_str:000000000002b01e .LASF8887
     /tmp/ccYIdjbY.s:87660  .debug_str:0000000000007645 .LASF8888
     /tmp/ccYIdjbY.s:87662  .debug_str:000000000000764a .LASF8889
     /tmp/ccYIdjbY.s:103334  .debug_str:0000000000047b5f .LASF8890
     /tmp/ccYIdjbY.s:100048  .debug_str:000000000003a0b0 .LASF8891
     /tmp/ccYIdjbY.s:101288  .debug_str:000000000003f311 .LASF8892
     /tmp/ccYIdjbY.s:101290  .debug_str:000000000003f317 .LASF8893
     /tmp/ccYIdjbY.s:94908  .debug_str:00000000000251bc .LASF8894
     /tmp/ccYIdjbY.s:101298  .debug_str:000000000003f37e .LASF8895
     /tmp/ccYIdjbY.s:102534  .debug_str:0000000000044507 .LASF8896
     /tmp/ccYIdjbY.s:91906  .debug_str:0000000000018980 .LASF8897
     /tmp/ccYIdjbY.s:101734  .debug_str:0000000000041125 .LASF8898
     /tmp/ccYIdjbY.s:86772  .debug_str:000000000000399c .LASF8899
     /tmp/ccYIdjbY.s:93602  .debug_str:000000000001ffbb .LASF8900
     /tmp/ccYIdjbY.s:96122  .debug_str:000000000002a096 .LASF8901
     /tmp/ccYIdjbY.s:101230  .debug_str:000000000003efb5 .LASF8902
     /tmp/ccYIdjbY.s:103830  .debug_str:0000000000049f98 .LASF8903
     /tmp/ccYIdjbY.s:95272  .debug_str:0000000000026996 .LASF8904
     /tmp/ccYIdjbY.s:86594  .debug_str:0000000000002d27 .LASF8905
     /tmp/ccYIdjbY.s:97294  .debug_str:000000000002eefc .LASF8906
     /tmp/ccYIdjbY.s:94210  .debug_str:0000000000022812 .LASF8907
     /tmp/ccYIdjbY.s:96418  .debug_str:000000000002b324 .LASF8908
     /tmp/ccYIdjbY.s:96006  .debug_str:000000000002993c .LASF8909
     /tmp/ccYIdjbY.s:92078  .debug_str:000000000001957e .LASF8910
     /tmp/ccYIdjbY.s:87630  .debug_str:0000000000007490 .LASF8911
     /tmp/ccYIdjbY.s:96926  .debug_str:000000000002d61e .LASF8912
     /tmp/ccYIdjbY.s:87104  .debug_str:0000000000005062 .LASF8913
     /tmp/ccYIdjbY.s:94138  .debug_str:0000000000022322 .LASF8914
     /tmp/ccYIdjbY.s:103840  .debug_str:000000000004a031 .LASF8915
     /tmp/ccYIdjbY.s:93122  .debug_str:000000000001de1b .LASF8916
     /tmp/ccYIdjbY.s:104094  .debug_str:000000000004b18a .LASF8917
     /tmp/ccYIdjbY.s:87972  .debug_str:0000000000008b0f .LASF8918
     /tmp/ccYIdjbY.s:86530  .debug_str:00000000000028a2 .LASF8919
     /tmp/ccYIdjbY.s:101338  .debug_str:000000000003f5b3 .LASF8920
     /tmp/ccYIdjbY.s:100658  .debug_str:000000000003c896 .LASF8921
     /tmp/ccYIdjbY.s:95062  .debug_str:0000000000025ba6 .LASF8922
     /tmp/ccYIdjbY.s:99476  .debug_str:0000000000037927 .LASF8923
     /tmp/ccYIdjbY.s:102518  .debug_str:00000000000443dd .LASF8924
     /tmp/ccYIdjbY.s:91574  .debug_str:00000000000173ef .LASF8925
     /tmp/ccYIdjbY.s:96954  .debug_str:000000000002d7ad .LASF8926
     /tmp/ccYIdjbY.s:100200  .debug_str:000000000003aa65 .LASF8927
     /tmp/ccYIdjbY.s:97682  .debug_str:00000000000309b0 .LASF8928
     /tmp/ccYIdjbY.s:96284  .debug_str:000000000002aba0 .LASF8929
     /tmp/ccYIdjbY.s:91384  .debug_str:00000000000166f3 .LASF8930
     /tmp/ccYIdjbY.s:90726  .debug_str:0000000000013c06 .LASF8931
     /tmp/ccYIdjbY.s:93142  .debug_str:000000000001dfc4 .LASF8932
     /tmp/ccYIdjbY.s:93048  .debug_str:000000000001d86e .LASF8933
     /tmp/ccYIdjbY.s:99494  .debug_str:0000000000037a87 .LASF8934
     /tmp/ccYIdjbY.s:100910  .debug_str:000000000003d911 .LASF8935
     /tmp/ccYIdjbY.s:92274  .debug_str:000000000001a3c6 .LASF8936
     /tmp/ccYIdjbY.s:92284  .debug_str:000000000001a40d .LASF8937
     /tmp/ccYIdjbY.s:96196  .debug_str:000000000002a605 .LASF8938
     /tmp/ccYIdjbY.s:98694  .debug_str:0000000000034cc0 .LASF8939
     /tmp/ccYIdjbY.s:96288  .debug_str:000000000002abd3 .LASF8940
     /tmp/ccYIdjbY.s:90218  .debug_str:0000000000011b3c .LASF8941
     /tmp/ccYIdjbY.s:92862  .debug_str:000000000001cbfe .LASF8942
     /tmp/ccYIdjbY.s:92460  .debug_str:000000000001b0d1 .LASF8943
     /tmp/ccYIdjbY.s:104196  .debug_str:000000000004b8e2 .LASF8944
     /tmp/ccYIdjbY.s:86118  .debug_str:0000000000000b95 .LASF8945
     /tmp/ccYIdjbY.s:86238  .debug_str:0000000000001400 .LASF8946
     /tmp/ccYIdjbY.s:92116  .debug_str:00000000000198a7 .LASF8947
     /tmp/ccYIdjbY.s:87402  .debug_str:0000000000006507 .LASF8948
     /tmp/ccYIdjbY.s:94624  .debug_str:0000000000024009 .LASF8949
     /tmp/ccYIdjbY.s:100908  .debug_str:000000000003d90a .LASF8950
     /tmp/ccYIdjbY.s:92282  .debug_str:000000000001a403 .LASF8951
     /tmp/ccYIdjbY.s:95872  .debug_str:000000000002906b .LASF8952
     /tmp/ccYIdjbY.s:91856  .debug_str:000000000001862d .LASF8953
     /tmp/ccYIdjbY.s:86240  .debug_str:000000000000140b .LASF8954
     /tmp/ccYIdjbY.s:86274  .debug_str:00000000000015e3 .LASF8955
     /tmp/ccYIdjbY.s:98816  .debug_str:00000000000354d6 .LASF8956
     /tmp/ccYIdjbY.s:93006  .debug_str:000000000001d5f2 .LASF8957
     /tmp/ccYIdjbY.s:93008  .debug_str:000000000001d5fc .LASF8958
     /tmp/ccYIdjbY.s:93010  .debug_str:000000000001d606 .LASF8959
     /tmp/ccYIdjbY.s:93012  .debug_str:000000000001d610 .LASF8960
     /tmp/ccYIdjbY.s:93014  .debug_str:000000000001d61a .LASF8961
     /tmp/ccYIdjbY.s:97954  .debug_str:0000000000031bea .LASF8962
     /tmp/ccYIdjbY.s:93016  .debug_str:000000000001d624 .LASF8963
     /tmp/ccYIdjbY.s:89324  .debug_str:000000000000e3ff .LASF8964
     /tmp/ccYIdjbY.s:89326  .debug_str:000000000000e40a .LASF8965
     /tmp/ccYIdjbY.s:103730  .debug_str:00000000000497a7 .LASF8966
     /tmp/ccYIdjbY.s:101052  .debug_str:000000000003e353 .LASF8967
     /tmp/ccYIdjbY.s:87528  .debug_str:0000000000006e22 .LASF8968
     /tmp/ccYIdjbY.s:93950  .debug_str:000000000002167e .LASF8969
     /tmp/ccYIdjbY.s:87688  .debug_str:0000000000007850 .LASF8970
     /tmp/ccYIdjbY.s:101054  .debug_str:000000000003e35e .LASF8971
     /tmp/ccYIdjbY.s:100156  .debug_str:000000000003a749 .LASF8972
     /tmp/ccYIdjbY.s:86406  .debug_str:0000000000001f60 .LASF8973
     /tmp/ccYIdjbY.s:91706  .debug_str:0000000000017bed .LASF8974
     /tmp/ccYIdjbY.s:94262  .debug_str:0000000000022bcb .LASF8975
     /tmp/ccYIdjbY.s:100340  .debug_str:000000000003b43e .LASF8976
     /tmp/ccYIdjbY.s:100002  .debug_str:0000000000039d81 .LASF8977
     /tmp/ccYIdjbY.s:86388  .debug_str:0000000000001e0f .LASF8978
     /tmp/ccYIdjbY.s:90354  .debug_str:000000000001241d .LASF8979
     /tmp/ccYIdjbY.s:93220  .debug_str:000000000001e479 .LASF8980
     /tmp/ccYIdjbY.s:94330  .debug_str:0000000000022ffa .LASF8981
     /tmp/ccYIdjbY.s:89942  .debug_str:00000000000108e8 .LASF8982
     /tmp/ccYIdjbY.s:94332  .debug_str:0000000000023005 .LASF8983
     /tmp/ccYIdjbY.s:101730  .debug_str:00000000000410ba .LASF8984
     /tmp/ccYIdjbY.s:90822  .debug_str:00000000000141d7 .LASF8985
     /tmp/ccYIdjbY.s:103778  .debug_str:0000000000049bac .LASF8986
     /tmp/ccYIdjbY.s:90824  .debug_str:00000000000141e2 .LASF8987
     /tmp/ccYIdjbY.s:98042  .debug_str:0000000000032184 .LASF8988
     /tmp/ccYIdjbY.s:90826  .debug_str:00000000000141ed .LASF8989
     /tmp/ccYIdjbY.s:92176  .debug_str:0000000000019d57 .LASF8990
     /tmp/ccYIdjbY.s:93678  .debug_str:0000000000020521 .LASF8991
     /tmp/ccYIdjbY.s:98956  .debug_str:0000000000035ca7 .LASF8992
     /tmp/ccYIdjbY.s:90630  .debug_str:00000000000135fc .LASF8993
     /tmp/ccYIdjbY.s:87916  .debug_str:00000000000086f5 .LASF8994
     /tmp/ccYIdjbY.s:90632  .debug_str:0000000000013607 .LASF8995
     /tmp/ccYIdjbY.s:100546  .debug_str:000000000003c153 .LASF8996
     /tmp/ccYIdjbY.s:90956  .debug_str:0000000000014abc .LASF8997
     /tmp/ccYIdjbY.s:101840  .debug_str:000000000004180b .LASF8998
     /tmp/ccYIdjbY.s:98980  .debug_str:0000000000035e19 .LASF8999
     /tmp/ccYIdjbY.s:96094  .debug_str:0000000000029f05 .LASF9000
     /tmp/ccYIdjbY.s:101284  .debug_str:000000000003f2fe .LASF9001
     /tmp/ccYIdjbY.s:101612  .debug_str:00000000000408ed .LASF9002
     /tmp/ccYIdjbY.s:97162  .debug_str:000000000002e696 .LASF9003
     /tmp/ccYIdjbY.s:86222  .debug_str:00000000000012aa .LASF9004
     /tmp/ccYIdjbY.s:92228  .debug_str:000000000001a08f .LASF9005
     /tmp/ccYIdjbY.s:104206  .debug_str:000000000004b947 .LASF9006
     /tmp/ccYIdjbY.s:92230  .debug_str:000000000001a09a .LASF9007
     /tmp/ccYIdjbY.s:97704  .debug_str:0000000000030aed .LASF9008
     /tmp/ccYIdjbY.s:88590  .debug_str:000000000000b6d3 .LASF9009
     /tmp/ccYIdjbY.s:87826  .debug_str:000000000000814b .LASF9010
     /tmp/ccYIdjbY.s:88592  .debug_str:000000000000b6de .LASF9011
     /tmp/ccYIdjbY.s:94030  .debug_str:0000000000021bf7 .LASF9012
     /tmp/ccYIdjbY.s:88594  .debug_str:000000000000b6e9 .LASF9013
     /tmp/ccYIdjbY.s:88134  .debug_str:0000000000009700 .LASF9014
     /tmp/ccYIdjbY.s:100564  .debug_str:000000000003c29d .LASF9015
     /tmp/ccYIdjbY.s:91950  .debug_str:0000000000018ca8 .LASF9016
     /tmp/ccYIdjbY.s:95434  .debug_str:00000000000274f5 .LASF9017
     /tmp/ccYIdjbY.s:95436  .debug_str:0000000000027509 .LASF9018
     /tmp/ccYIdjbY.s:95438  .debug_str:000000000002751d .LASF9019
     /tmp/ccYIdjbY.s:94486  .debug_str:0000000000023899 .LASF9020
     /tmp/ccYIdjbY.s:94488  .debug_str:00000000000238aa .LASF9021
     /tmp/ccYIdjbY.s:86422  .debug_str:00000000000020c3 .LASF9022
     /tmp/ccYIdjbY.s:94492  .debug_str:00000000000238e8 .LASF9023
     /tmp/ccYIdjbY.s:94494  .debug_str:00000000000238f9 .LASF9024
     /tmp/ccYIdjbY.s:87658  .debug_str:0000000000007633 .LASF9025
     /tmp/ccYIdjbY.s:94572  .debug_str:0000000000023cc1 .LASF9026
     /tmp/ccYIdjbY.s:90934  .debug_str:00000000000148f1 .LASF9027
     /tmp/ccYIdjbY.s:90958  .debug_str:0000000000014ac7 .LASF9028
     /tmp/ccYIdjbY.s:103648  .debug_str:000000000004914c .LASF9029
     /tmp/ccYIdjbY.s:89454  .debug_str:000000000000eba3 .LASF9030
     /tmp/ccYIdjbY.s:97804  .debug_str:00000000000311fa .LASF9031
     /tmp/ccYIdjbY.s:102884  .debug_str:0000000000045cc5 .LASF9032
     /tmp/ccYIdjbY.s:101662  .debug_str:0000000000040c64 .LASF9033
     /tmp/ccYIdjbY.s:90152  .debug_str:00000000000116ef .LASF9034
     /tmp/ccYIdjbY.s:92646  .debug_str:000000000001bcf3 .LASF9035
     /tmp/ccYIdjbY.s:96308  .debug_str:000000000002acca .LASF9036
     /tmp/ccYIdjbY.s:98778  .debug_str:00000000000351e5 .LASF9037
     /tmp/ccYIdjbY.s:101582  .debug_str:0000000000040743 .LASF9038
     /tmp/ccYIdjbY.s:87080  .debug_str:0000000000004eef .LASF9039
     /tmp/ccYIdjbY.s:93792  .debug_str:0000000000020be1 .LASF9040
     /tmp/ccYIdjbY.s:92414  .debug_str:000000000001ada4 .LASF9041
     /tmp/ccYIdjbY.s:96118  .debug_str:000000000002a080 .LASF9042
     /tmp/ccYIdjbY.s:94790  .debug_str:0000000000024945 .LASF9043
     /tmp/ccYIdjbY.s:96776  .debug_str:000000000002cb7e .LASF9044
     /tmp/ccYIdjbY.s:88316  .debug_str:000000000000a306 .LASF9045
     /tmp/ccYIdjbY.s:94008  .debug_str:0000000000021a6e .LASF9046
     /tmp/ccYIdjbY.s:97178  .debug_str:000000000002e7e0 .LASF9047
     /tmp/ccYIdjbY.s:93324  .debug_str:000000000001ec74 .LASF9048
     /tmp/ccYIdjbY.s:99532  .debug_str:0000000000037d0f .LASF9049
     /tmp/ccYIdjbY.s:99534  .debug_str:0000000000037d1a .LASF9050
     /tmp/ccYIdjbY.s:99536  .debug_str:0000000000037d25 .LASF9051
     /tmp/ccYIdjbY.s:99538  .debug_str:0000000000037d30 .LASF9052
     /tmp/ccYIdjbY.s:86694  .debug_str:00000000000033f8 .LASF9053
     /tmp/ccYIdjbY.s:93184  .debug_str:000000000001e248 .LASF9054
     /tmp/ccYIdjbY.s:98382  .debug_str:00000000000338cd .LASF9055
     /tmp/ccYIdjbY.s:89822  .debug_str:0000000000010054 .LASF9056
     /tmp/ccYIdjbY.s:103870  .debug_str:000000000004a258 .LASF9057
     /tmp/ccYIdjbY.s:101944  .debug_str:0000000000041e7e .LASF9058
     /tmp/ccYIdjbY.s:88140  .debug_str:000000000000975c .LASF9059
     /tmp/ccYIdjbY.s:101476  .debug_str:0000000000040022 .LASF9060
     /tmp/ccYIdjbY.s:103270  .debug_str:000000000004772c .LASF9061
     /tmp/ccYIdjbY.s:100494  .debug_str:000000000003bdc8 .LASF9062
     /tmp/ccYIdjbY.s:89848  .debug_str:00000000000102a5 .LASF9063
     /tmp/ccYIdjbY.s:92340  .debug_str:000000000001a7eb .LASF9064
     /tmp/ccYIdjbY.s:96904  .debug_str:000000000002d4d1 .LASF9065
     /tmp/ccYIdjbY.s:85996  .debug_str:00000000000003dc .LASF9066
     /tmp/ccYIdjbY.s:95516  .debug_str:00000000000279b5 .LASF9067
     /tmp/ccYIdjbY.s:100142  .debug_str:000000000003a678 .LASF9068
     /tmp/ccYIdjbY.s:91830  .debug_str:000000000001844c .LASF9069
     /tmp/ccYIdjbY.s:98316  .debug_str:000000000003348d .LASF9070
     /tmp/ccYIdjbY.s:85978  .debug_str:000000000000027b .LASF9071
     /tmp/ccYIdjbY.s:104238  .debug_str:000000000004bb79 .LASF9072
     /tmp/ccYIdjbY.s:93834  .debug_str:0000000000020ec8 .LASF9073
     /tmp/ccYIdjbY.s:91902  .debug_str:0000000000018942 .LASF9074
     /tmp/ccYIdjbY.s:97614  .debug_str:00000000000304e8 .LASF9075
     /tmp/ccYIdjbY.s:94738  .debug_str:0000000000024607 .LASF9076
     /tmp/ccYIdjbY.s:90342  .debug_str:0000000000012361 .LASF9077
     /tmp/ccYIdjbY.s:86826  .debug_str:0000000000003d15 .LASF9078
     /tmp/ccYIdjbY.s:102858  .debug_str:0000000000045adf .LASF9079
     /tmp/ccYIdjbY.s:99522  .debug_str:0000000000037c54 .LASF9080
     /tmp/ccYIdjbY.s:100922  .debug_str:000000000003d9da .LASF9081
     /tmp/ccYIdjbY.s:86094  .debug_str:0000000000000a5b .LASF9082
     /tmp/ccYIdjbY.s:89330  .debug_str:000000000000e420 .LASF9083
     /tmp/ccYIdjbY.s:104262  .debug_str:000000000004bd2a .LASF9084
     /tmp/ccYIdjbY.s:93068  .debug_str:000000000001da09 .LASF9085
     /tmp/ccYIdjbY.s:89386  .debug_str:000000000000e80a .LASF9086
     /tmp/ccYIdjbY.s:96778  .debug_str:000000000002cb8a .LASF9087
     /tmp/ccYIdjbY.s:94058  .debug_str:0000000000021e0a .LASF9088
     /tmp/ccYIdjbY.s:102680  .debug_str:0000000000044e64 .LASF9089
     /tmp/ccYIdjbY.s:88172  .debug_str:00000000000098e9 .LASF9090
     /tmp/ccYIdjbY.s:89754  .debug_str:000000000000fccd .LASF9091
     /tmp/ccYIdjbY.s:86140  .debug_str:0000000000000d09 .LASF9092
     /tmp/ccYIdjbY.s:102342  .debug_str:00000000000437a4 .LASF9093
     /tmp/ccYIdjbY.s:102104  .debug_str:00000000000428f4 .LASF9094
     /tmp/ccYIdjbY.s:94576  .debug_str:0000000000023ced .LASF9095
     /tmp/ccYIdjbY.s:91126  .debug_str:0000000000015540 .LASF9096
     /tmp/ccYIdjbY.s:86314  .debug_str:00000000000018cd .LASF9097
     /tmp/ccYIdjbY.s:102660  .debug_str:0000000000044d31 .LASF9098
     /tmp/ccYIdjbY.s:97838  .debug_str:0000000000031438 .LASF9099
     /tmp/ccYIdjbY.s:90310  .debug_str:000000000001215a .LASF9100
     /tmp/ccYIdjbY.s:91026  .debug_str:0000000000014fb6 .LASF9101
     /tmp/ccYIdjbY.s:90988  .debug_str:0000000000014caf .LASF9102
     /tmp/ccYIdjbY.s:97238  .debug_str:000000000002eb8c .LASF9103
     /tmp/ccYIdjbY.s:102100  .debug_str:00000000000428ae .LASF9104
     /tmp/ccYIdjbY.s:88758  .debug_str:000000000000c18b .LASF9105
     /tmp/ccYIdjbY.s:100094  .debug_str:000000000003a39c .LASF9106
     /tmp/ccYIdjbY.s:86146  .debug_str:0000000000000d80 .LASF9107
     /tmp/ccYIdjbY.s:89684  .debug_str:000000000000f8e1 .LASF9108
     /tmp/ccYIdjbY.s:102830  .debug_str:000000000004594f .LASF9109
     /tmp/ccYIdjbY.s:87118  .debug_str:0000000000005124 .LASF9110
     /tmp/ccYIdjbY.s:86888  .debug_str:00000000000041f8 .LASF9111
     /tmp/ccYIdjbY.s:86760  .debug_str:0000000000003875 .LASF9112
     /tmp/ccYIdjbY.s:97940  .debug_str:0000000000031aed .LASF9113
     /tmp/ccYIdjbY.s:97934  .debug_str:0000000000031a84 .LASF9114
     /tmp/ccYIdjbY.s:97932  .debug_str:0000000000031a6e .LASF9115
     /tmp/ccYIdjbY.s:86970  .debug_str:0000000000004762 .LASF9116
     /tmp/ccYIdjbY.s:104118  .debug_str:000000000004b314 .LASF9117
     /tmp/ccYIdjbY.s:97354  .debug_str:000000000002f2e8 .LASF9118
     /tmp/ccYIdjbY.s:87692  .debug_str:0000000000007864 .LASF9119
     /tmp/ccYIdjbY.s:90284  .debug_str:0000000000011f9e .LASF9120
     /tmp/ccYIdjbY.s:103460  .debug_str:000000000004842a .LASF9121
     /tmp/ccYIdjbY.s:90352  .debug_str:000000000001240d .LASF9122
     /tmp/ccYIdjbY.s:93432  .debug_str:000000000001f44d .LASF9123
     /tmp/ccYIdjbY.s:90430  .debug_str:00000000000129d9 .LASF9124
     /tmp/ccYIdjbY.s:93514  .debug_str:000000000001f96e .LASF9125
     /tmp/ccYIdjbY.s:90502  .debug_str:0000000000012deb .LASF9126
     /tmp/ccYIdjbY.s:93586  .debug_str:000000000001fec4 .LASF9127
     /tmp/ccYIdjbY.s:90584  .debug_str:00000000000132f3 .LASF9128
     /tmp/ccYIdjbY.s:93658  .debug_str:0000000000020419 .LASF9129
     /tmp/ccYIdjbY.s:102076  .debug_str:00000000000426e8 .LASF9130
     /tmp/ccYIdjbY.s:100534  .debug_str:000000000003c0a9 .LASF9131
     /tmp/ccYIdjbY.s:90690  .debug_str:00000000000139d0 .LASF9132
     /tmp/ccYIdjbY.s:87386  .debug_str:00000000000063ea .LASF9133
     /tmp/ccYIdjbY.s:99498  .debug_str:0000000000037aac .LASF9134
     /tmp/ccYIdjbY.s:103006  .debug_str:000000000004646a .LASF9135
     /tmp/ccYIdjbY.s:103044  .debug_str:00000000000466e5 .LASF9136
     /tmp/ccYIdjbY.s:87680  .debug_str:00000000000077aa .LASF9137
     /tmp/ccYIdjbY.s:88064  .debug_str:000000000000915e .LASF9138
     /tmp/ccYIdjbY.s:87572  .debug_str:00000000000070ac .LASF9139
     /tmp/ccYIdjbY.s:103620  .debug_str:0000000000048f94 .LASF9140
     /tmp/ccYIdjbY.s:90224  .debug_str:0000000000011b8d .LASF9141
     /tmp/ccYIdjbY.s:98456  .debug_str:0000000000033d81 .LASF9142
     /tmp/ccYIdjbY.s:103190  .debug_str:000000000004713f .LASF9143
     /tmp/ccYIdjbY.s:102174  .debug_str:0000000000042ce4 .LASF9144
     /tmp/ccYIdjbY.s:88364  .debug_str:000000000000a64b .LASF9145
     /tmp/ccYIdjbY.s:99016  .debug_str:0000000000036009 .LASF9146
     /tmp/ccYIdjbY.s:91162  .debug_str:00000000000157dc .LASF9147
     /tmp/ccYIdjbY.s:92812  .debug_str:000000000001c855 .LASF9148
     /tmp/ccYIdjbY.s:92380  .debug_str:000000000001aae7 .LASF9149
     /tmp/ccYIdjbY.s:90410  .debug_str:000000000001288e .LASF9150
     /tmp/ccYIdjbY.s:102400  .debug_str:0000000000043b8f .LASF9151
     /tmp/ccYIdjbY.s:98760  .debug_str:000000000003505e .LASF9152
     /tmp/ccYIdjbY.s:94068  .debug_str:0000000000021e8e .LASF9153
     /tmp/ccYIdjbY.s:94778  .debug_str:000000000002487a .LASF9154
     /tmp/ccYIdjbY.s:103618  .debug_str:0000000000048f81 .LASF9155
     /tmp/ccYIdjbY.s:90814  .debug_str:0000000000014138 .LASF9156
     /tmp/ccYIdjbY.s:102756  .debug_str:0000000000045426 .LASF9159
     /tmp/ccYIdjbY.s:742    .text.MSS_AXISW_read_slave_ready:0000000000000000 .LFB28
     /tmp/ccYIdjbY.s:830    .text.MSS_AXISW_read_slave_ready:000000000000009e .LFE28
     /tmp/ccYIdjbY.s:96416  .debug_str:000000000002b314 .LASF9157
     /tmp/ccYIdjbY.s:98604  .debug_str:0000000000034705 .LASF9158
     /tmp/ccYIdjbY.s:94580  .debug_str:0000000000023d22 .LASF9160
     /tmp/ccYIdjbY.s:657    .text.MSS_AXISW_write_slave_ready:0000000000000000 .LFB27
     /tmp/ccYIdjbY.s:735    .text.MSS_AXISW_write_slave_ready:000000000000007e .LFE27
     /tmp/ccYIdjbY.s:99838  .debug_str:0000000000039217 .LASF9161
     /tmp/ccYIdjbY.s:559    .text.MSS_AXISW_read_burstiness:0000000000000000 .LFB26
     /tmp/ccYIdjbY.s:650    .text.MSS_AXISW_read_burstiness:00000000000000a2 .LFE26
     /tmp/ccYIdjbY.s:96402  .debug_str:000000000002b21a .LASF9162
     /tmp/ccYIdjbY.s:93710  .debug_str:00000000000206b1 .LASF9163
     /tmp/ccYIdjbY.s:454    .text.MSS_AXISW_write_burstiness:0000000000000000 .LFB25
     /tmp/ccYIdjbY.s:552    .text.MSS_AXISW_write_burstiness:00000000000000a4 .LFE25
     /tmp/ccYIdjbY.s:101134  .debug_str:000000000003e8b6 .LASF9164
     /tmp/ccYIdjbY.s:99728  .debug_str:0000000000038a4e .LASF9165
     /tmp/ccYIdjbY.s:343    .text.MSS_AXISW_read_rate:0000000000000000 .LFB24
     /tmp/ccYIdjbY.s:447    .text.MSS_AXISW_read_rate:00000000000000c4 .LFE24
     /tmp/ccYIdjbY.s:101220  .debug_str:000000000003eee1 .LASF9166
     /tmp/ccYIdjbY.s:94680  .debug_str:0000000000024238 .LASF9167
     /tmp/ccYIdjbY.s:100232  .debug_str:000000000003ac8c .LASF9177
     /tmp/ccYIdjbY.s:94866  .debug_str:0000000000024e98 .LASF9168
     /tmp/ccYIdjbY.s:250    .text.MSS_AXISW_write_rate:0000000000000000 .LFB23
     /tmp/ccYIdjbY.s:336    .text.MSS_AXISW_write_rate:0000000000000096 .LFE23
     /tmp/ccYIdjbY.s:103912  .debug_str:000000000004a584 .LASF9169
     /tmp/ccYIdjbY.s:156    .text.MSS_AXISW_read_qos_val:0000000000000000 .LFB22
     /tmp/ccYIdjbY.s:243    .text.MSS_AXISW_read_qos_val:0000000000000098 .LFE22
     /tmp/ccYIdjbY.s:90358  .debug_str:0000000000012468 .LASF9170
     /tmp/ccYIdjbY.s:100070  .debug_str:000000000003a22e .LASF9171
     /tmp/ccYIdjbY.s:73     .text.MSS_AXISW_write_qos_val:0000000000000000 .LFB21
     /tmp/ccYIdjbY.s:149    .text.MSS_AXISW_write_qos_val:000000000000007a .LFE21
     /tmp/ccYIdjbY.s:86052  .debug_str:00000000000007a0 .LASF9172
     /tmp/ccYIdjbY.s:44     .text.MSS_AXISW_get_vid:0000000000000000 .LFB20
     /tmp/ccYIdjbY.s:66     .text.MSS_AXISW_get_vid:0000000000000016 .LFE20
     /tmp/ccYIdjbY.s:102262  .debug_str:000000000004329e .LASF9173
     /tmp/ccYIdjbY.s:14     .text.MSS_AXISW_get_hwcfg:0000000000000000 .LFB19
     /tmp/ccYIdjbY.s:37     .text.MSS_AXISW_get_hwcfg:0000000000000016 .LFE19
     /tmp/ccYIdjbY.s:844    .debug_info:0000000000000000 .Ldebug_info0
     /tmp/ccYIdjbY.s:68700  .debug_macro:0000000000000000 .Ldebug_macro2
     /tmp/ccYIdjbY.s:69677  .debug_macro:0000000000000000 .Ldebug_macro3
     /tmp/ccYIdjbY.s:92158  .debug_str:0000000000019c07 .LASF377
     /tmp/ccYIdjbY.s:100780  .debug_str:000000000003d020 .LASF378
     /tmp/ccYIdjbY.s:98520  .debug_str:0000000000034211 .LASF379
     /tmp/ccYIdjbY.s:69841  .debug_macro:0000000000000000 .Ldebug_macro4
     /tmp/ccYIdjbY.s:69861  .debug_macro:0000000000000000 .Ldebug_macro5
     /tmp/ccYIdjbY.s:69926  .debug_macro:0000000000000000 .Ldebug_macro6
     /tmp/ccYIdjbY.s:69967  .debug_macro:0000000000000000 .Ldebug_macro7
     /tmp/ccYIdjbY.s:70089  .debug_macro:0000000000000000 .Ldebug_macro8
     /tmp/ccYIdjbY.s:70145  .debug_macro:0000000000000000 .Ldebug_macro9
     /tmp/ccYIdjbY.s:91792  .debug_str:00000000000181a2 .LASF533
     /tmp/ccYIdjbY.s:95400  .debug_str:00000000000272e0 .LASF534
     /tmp/ccYIdjbY.s:70357  .debug_macro:0000000000000000 .Ldebug_macro10
     /tmp/ccYIdjbY.s:70377  .debug_macro:0000000000000000 .Ldebug_macro11
     /tmp/ccYIdjbY.s:70388  .debug_macro:0000000000000000 .Ldebug_macro12
     /tmp/ccYIdjbY.s:72187  .debug_macro:0000000000000000 .Ldebug_macro13
     /tmp/ccYIdjbY.s:92834  .debug_str:000000000001ca23 .LASF1162
     /tmp/ccYIdjbY.s:72258  .debug_macro:0000000000000000 .Ldebug_macro14
     /tmp/ccYIdjbY.s:100692  .debug_str:000000000003caaf .LASF3353
     /tmp/ccYIdjbY.s:78833  .debug_macro:0000000000000000 .Ldebug_macro15
     /tmp/ccYIdjbY.s:78850  .debug_macro:0000000000000000 .Ldebug_macro16
     /tmp/ccYIdjbY.s:78873  .debug_macro:0000000000000000 .Ldebug_macro17
     /tmp/ccYIdjbY.s:78890  .debug_macro:0000000000000000 .Ldebug_macro18
     /tmp/ccYIdjbY.s:78919  .debug_macro:0000000000000000 .Ldebug_macro19
     /tmp/ccYIdjbY.s:78978  .debug_macro:0000000000000000 .Ldebug_macro20
     /tmp/ccYIdjbY.s:79001  .debug_macro:0000000000000000 .Ldebug_macro21
     /tmp/ccYIdjbY.s:79060  .debug_macro:0000000000000000 .Ldebug_macro22
     /tmp/ccYIdjbY.s:81819  .debug_macro:0000000000000000 .Ldebug_macro23
     /tmp/ccYIdjbY.s:81863  .debug_macro:0000000000000000 .Ldebug_macro24
     /tmp/ccYIdjbY.s:81949  .debug_macro:0000000000000000 .Ldebug_macro25
     /tmp/ccYIdjbY.s:81978  .debug_macro:0000000000000000 .Ldebug_macro26
     /tmp/ccYIdjbY.s:82037  .debug_macro:0000000000000000 .Ldebug_macro27
     /tmp/ccYIdjbY.s:82099  .debug_macro:0000000000000000 .Ldebug_macro28
     /tmp/ccYIdjbY.s:82161  .debug_macro:0000000000000000 .Ldebug_macro29
     /tmp/ccYIdjbY.s:82223  .debug_macro:0000000000000000 .Ldebug_macro30
     /tmp/ccYIdjbY.s:82285  .debug_macro:0000000000000000 .Ldebug_macro31
     /tmp/ccYIdjbY.s:82347  .debug_macro:0000000000000000 .Ldebug_macro32
     /tmp/ccYIdjbY.s:82403  .debug_macro:0000000000000000 .Ldebug_macro33
     /tmp/ccYIdjbY.s:82459  .debug_macro:0000000000000000 .Ldebug_macro34
     /tmp/ccYIdjbY.s:82491  .debug_macro:0000000000000000 .Ldebug_macro35
     /tmp/ccYIdjbY.s:82511  .debug_macro:0000000000000000 .Ldebug_macro36
     /tmp/ccYIdjbY.s:82543  .debug_macro:0000000000000000 .Ldebug_macro37
     /tmp/ccYIdjbY.s:82575  .debug_macro:0000000000000000 .Ldebug_macro38
     /tmp/ccYIdjbY.s:82595  .debug_macro:0000000000000000 .Ldebug_macro39
     /tmp/ccYIdjbY.s:82615  .debug_macro:0000000000000000 .Ldebug_macro40
     /tmp/ccYIdjbY.s:82647  .debug_macro:0000000000000000 .Ldebug_macro41
     /tmp/ccYIdjbY.s:82661  .debug_macro:0000000000000000 .Ldebug_macro42
     /tmp/ccYIdjbY.s:82762  .debug_macro:0000000000000000 .Ldebug_macro43
     /tmp/ccYIdjbY.s:82779  .debug_macro:0000000000000000 .Ldebug_macro44
     /tmp/ccYIdjbY.s:82817  .debug_macro:0000000000000000 .Ldebug_macro45
     /tmp/ccYIdjbY.s:82840  .debug_macro:0000000000000000 .Ldebug_macro46
     /tmp/ccYIdjbY.s:82968  .debug_macro:0000000000000000 .Ldebug_macro47
     /tmp/ccYIdjbY.s:82982  .debug_macro:0000000000000000 .Ldebug_macro48
     /tmp/ccYIdjbY.s:82996  .debug_macro:0000000000000000 .Ldebug_macro49
     /tmp/ccYIdjbY.s:83052  .debug_macro:0000000000000000 .Ldebug_macro50
     /tmp/ccYIdjbY.s:84167  .debug_macro:0000000000000000 .Ldebug_macro51
     /tmp/ccYIdjbY.s:84199  .debug_macro:0000000000000000 .Ldebug_macro52
     /tmp/ccYIdjbY.s:84219  .debug_macro:0000000000000000 .Ldebug_macro53
     /tmp/ccYIdjbY.s:84263  .debug_macro:0000000000000000 .Ldebug_macro54
     /tmp/ccYIdjbY.s:84310  .debug_macro:0000000000000000 .Ldebug_macro55
     /tmp/ccYIdjbY.s:84357  .debug_macro:0000000000000000 .Ldebug_macro56
     /tmp/ccYIdjbY.s:84392  .debug_macro:0000000000000000 .Ldebug_macro57
     /tmp/ccYIdjbY.s:84415  .debug_macro:0000000000000000 .Ldebug_macro58
     /tmp/ccYIdjbY.s:86044  .debug_str:0000000000000729 .LASF5147
     /tmp/ccYIdjbY.s:84432  .debug_macro:0000000000000000 .Ldebug_macro59
     /tmp/ccYIdjbY.s:102738  .debug_str:00000000000452ae .LASF5302
     /tmp/ccYIdjbY.s:84899  .debug_macro:0000000000000000 .Ldebug_macro60
     /tmp/ccYIdjbY.s:84916  .debug_macro:0000000000000000 .Ldebug_macro61
     /tmp/ccYIdjbY.s:84930  .debug_macro:0000000000000000 .Ldebug_macro62
     /tmp/ccYIdjbY.s:85247  .debug_macro:0000000000000000 .Ldebug_macro63
     /tmp/ccYIdjbY.s:85267  .debug_macro:0000000000000000 .Ldebug_macro64
     /tmp/ccYIdjbY.s:96530  .debug_str:000000000002bab3 .LASF5458
     /tmp/ccYIdjbY.s:85389  .debug_macro:0000000000000000 .Ldebug_macro65
     /tmp/ccYIdjbY.s:85451  .debug_macro:0000000000000000 .Ldebug_macro66
     /tmp/ccYIdjbY.s:95244  .debug_str:000000000002677b .LASF5480
     /tmp/ccYIdjbY.s:85462  .debug_macro:0000000000000000 .Ldebug_macro67
     /tmp/ccYIdjbY.s:85491  .debug_macro:0000000000000000 .Ldebug_macro68
     /tmp/ccYIdjbY.s:99586  .debug_str:00000000000380d4 .LASF5505
     /tmp/ccYIdjbY.s:85544  .debug_macro:0000000000000000 .Ldebug_macro69
     /tmp/ccYIdjbY.s:103488  .debug_str:00000000000485e7 .LASF5525
     /tmp/ccYIdjbY.s:85606  .debug_macro:0000000000000000 .Ldebug_macro70
     /tmp/ccYIdjbY.s:85674  .debug_macro:0000000000000000 .Ldebug_macro71
     /tmp/ccYIdjbY.s:85697  .debug_macro:0000000000000000 .Ldebug_macro72
     /tmp/ccYIdjbY.s:85777  .debug_macro:0000000000000000 .Ldebug_macro73
     /tmp/ccYIdjbY.s:85908  .debug_macro:0000000000000000 .Ldebug_macro74
     /tmp/ccYIdjbY.s:85928  .debug_macro:0000000000000000 .Ldebug_macro75
     /tmp/ccYIdjbY.s:90564  .debug_str:0000000000013201 .LASF0
     /tmp/ccYIdjbY.s:97044  .debug_str:000000000002de33 .LASF1
     /tmp/ccYIdjbY.s:94342  .debug_str:00000000000230af .LASF2
     /tmp/ccYIdjbY.s:94410  .debug_str:00000000000234a4 .LASF3
     /tmp/ccYIdjbY.s:89152  .debug_str:000000000000db3e .LASF4
     /tmp/ccYIdjbY.s:89328  .debug_str:000000000000e415 .LASF5
     /tmp/ccYIdjbY.s:99518  .debug_str:0000000000037c1a .LASF6
     /tmp/ccYIdjbY.s:88128  .debug_str:000000000000968d .LASF7
     /tmp/ccYIdjbY.s:86520  .debug_str:0000000000002828 .LASF8
     /tmp/ccYIdjbY.s:86212  .debug_str:000000000000122d .LASF9
     /tmp/ccYIdjbY.s:99058  .debug_str:00000000000362ac .LASF10
     /tmp/ccYIdjbY.s:102558  .debug_str:00000000000446a2 .LASF11
     /tmp/ccYIdjbY.s:96750  .debug_str:000000000002ca1e .LASF12
     /tmp/ccYIdjbY.s:92640  .debug_str:000000000001bc93 .LASF13
     /tmp/ccYIdjbY.s:88910  .debug_str:000000000000cbd4 .LASF14
     /tmp/ccYIdjbY.s:88156  .debug_str:0000000000009827 .LASF15
     /tmp/ccYIdjbY.s:101688  .debug_str:0000000000040e09 .LASF16
     /tmp/ccYIdjbY.s:100124  .debug_str:000000000003a544 .LASF17
     /tmp/ccYIdjbY.s:91642  .debug_str:00000000000178a7 .LASF18
     /tmp/ccYIdjbY.s:102514  .debug_str:00000000000443a9 .LASF19
     /tmp/ccYIdjbY.s:102256  .debug_str:000000000004325d .LASF20
     /tmp/ccYIdjbY.s:93706  .debug_str:000000000002068b .LASF21
     /tmp/ccYIdjbY.s:87502  .debug_str:0000000000006c87 .LASF22
     /tmp/ccYIdjbY.s:89266  .debug_str:000000000000e191 .LASF23
     /tmp/ccYIdjbY.s:101092  .debug_str:000000000003e5b2 .LASF24
     /tmp/ccYIdjbY.s:99448  .debug_str:0000000000037727 .LASF25
     /tmp/ccYIdjbY.s:88824  .debug_str:000000000000c5f6 .LASF26
     /tmp/ccYIdjbY.s:87896  .debug_str:00000000000085db .LASF27
     /tmp/ccYIdjbY.s:100976  .debug_str:000000000003ddb1 .LASF28
     /tmp/ccYIdjbY.s:99334  .debug_str:000000000003701b .LASF29
     /tmp/ccYIdjbY.s:91364  .debug_str:000000000001658d .LASF30
     /tmp/ccYIdjbY.s:98462  .debug_str:0000000000033dbe .LASF31
     /tmp/ccYIdjbY.s:92310  .debug_str:000000000001a572 .LASF32
     /tmp/ccYIdjbY.s:96210  .debug_str:000000000002a6ab .LASF33
     /tmp/ccYIdjbY.s:95904  .debug_str:00000000000291e8 .LASF34
     /tmp/ccYIdjbY.s:88660  .debug_str:000000000000bb1f .LASF35
     /tmp/ccYIdjbY.s:90778  .debug_str:0000000000013e9f .LASF36
     /tmp/ccYIdjbY.s:95132  .debug_str:0000000000026050 .LASF37
     /tmp/ccYIdjbY.s:104184  .debug_str:000000000004b7ec .LASF38
     /tmp/ccYIdjbY.s:94202  .debug_str:0000000000022780 .LASF39
     /tmp/ccYIdjbY.s:95322  .debug_str:0000000000026cf2 .LASF40
     /tmp/ccYIdjbY.s:90740  .debug_str:0000000000013cda .LASF41
     /tmp/ccYIdjbY.s:87376  .debug_str:000000000000631c .LASF42
     /tmp/ccYIdjbY.s:99926  .debug_str:000000000003988e .LASF43
     /tmp/ccYIdjbY.s:86672  .debug_str:00000000000032ff .LASF44
     /tmp/ccYIdjbY.s:100850  .debug_str:000000000003d4bf .LASF45
     /tmp/ccYIdjbY.s:87346  .debug_str:0000000000006122 .LASF46
     /tmp/ccYIdjbY.s:99444  .debug_str:00000000000376f0 .LASF47
     /tmp/ccYIdjbY.s:96490  .debug_str:000000000002b84f .LASF48
     /tmp/ccYIdjbY.s:92878  .debug_str:000000000001cd5a .LASF49
     /tmp/ccYIdjbY.s:88666  .debug_str:000000000000bb76 .LASF50
     /tmp/ccYIdjbY.s:87554  .debug_str:0000000000006fcc .LASF51
     /tmp/ccYIdjbY.s:91732  .debug_str:0000000000017d8f .LASF52
     /tmp/ccYIdjbY.s:98220  .debug_str:0000000000032d8e .LASF53
     /tmp/ccYIdjbY.s:86366  .debug_str:0000000000001c9e .LASF54
     /tmp/ccYIdjbY.s:88782  .debug_str:000000000000c356 .LASF55
     /tmp/ccYIdjbY.s:102254  .debug_str:0000000000043234 .LASF56
     /tmp/ccYIdjbY.s:100744  .debug_str:000000000003cddd .LASF57
     /tmp/ccYIdjbY.s:103360  .debug_str:0000000000047d23 .LASF58
     /tmp/ccYIdjbY.s:101900  .debug_str:0000000000041bc7 .LASF59
     /tmp/ccYIdjbY.s:96456  .debug_str:000000000002b5a4 .LASF60
     /tmp/ccYIdjbY.s:101964  .debug_str:0000000000041fca .LASF61
     /tmp/ccYIdjbY.s:95442  .debug_str:000000000002754c .LASF62
     /tmp/ccYIdjbY.s:100644  .debug_str:000000000003c7d2 .LASF63
     /tmp/ccYIdjbY.s:94810  .debug_str:0000000000024aac .LASF64
     /tmp/ccYIdjbY.s:96116  .debug_str:000000000002a05e .LASF65
     /tmp/ccYIdjbY.s:97434  .debug_str:000000000002f7d1 .LASF66
     /tmp/ccYIdjbY.s:92928  .debug_str:000000000001d0a0 .LASF67
     /tmp/ccYIdjbY.s:102022  .debug_str:000000000004232c .LASF68
     /tmp/ccYIdjbY.s:99816  .debug_str:000000000003906a .LASF69
     /tmp/ccYIdjbY.s:104186  .debug_str:000000000004b805 .LASF70
     /tmp/ccYIdjbY.s:91280  .debug_str:0000000000015fde .LASF71
     /tmp/ccYIdjbY.s:86470  .debug_str:00000000000023f8 .LASF72
     /tmp/ccYIdjbY.s:102466  .debug_str:0000000000044045 .LASF73
     /tmp/ccYIdjbY.s:94712  .debug_str:000000000002448d .LASF74
     /tmp/ccYIdjbY.s:91324  .debug_str:0000000000016264 .LASF75
     /tmp/ccYIdjbY.s:94046  .debug_str:0000000000021d03 .LASF76
     /tmp/ccYIdjbY.s:87938  .debug_str:00000000000088ce .LASF77
     /tmp/ccYIdjbY.s:97648  .debug_str:000000000003077e .LASF78
     /tmp/ccYIdjbY.s:95804  .debug_str:0000000000028bde .LASF79
     /tmp/ccYIdjbY.s:97192  .debug_str:000000000002e8c1 .LASF80
     /tmp/ccYIdjbY.s:90538  .debug_str:0000000000013027 .LASF81
     /tmp/ccYIdjbY.s:88106  .debug_str:00000000000094d4 .LASF82
     /tmp/ccYIdjbY.s:88136  .debug_str:0000000000009727 .LASF83
     /tmp/ccYIdjbY.s:89760  .debug_str:000000000000fd1a .LASF84
     /tmp/ccYIdjbY.s:96158  .debug_str:000000000002a2ea .LASF85
     /tmp/ccYIdjbY.s:97806  .debug_str:0000000000031212 .LASF86
     /tmp/ccYIdjbY.s:94388  .debug_str:0000000000023356 .LASF87
     /tmp/ccYIdjbY.s:102820  .debug_str:00000000000458a0 .LASF88
     /tmp/ccYIdjbY.s:87440  .debug_str:0000000000006808 .LASF89
     /tmp/ccYIdjbY.s:95058  .debug_str:0000000000025b70 .LASF90
     /tmp/ccYIdjbY.s:91980  .debug_str:0000000000018e73 .LASF91
     /tmp/ccYIdjbY.s:94060  .debug_str:0000000000021e25 .LASF92
     /tmp/ccYIdjbY.s:102842  .debug_str:00000000000459dc .LASF93
     /tmp/ccYIdjbY.s:103252  .debug_str:00000000000475d4 .LASF94
     /tmp/ccYIdjbY.s:97484  .debug_str:000000000002fb16 .LASF95
     /tmp/ccYIdjbY.s:93666  .debug_str:000000000002049e .LASF96
     /tmp/ccYIdjbY.s:89158  .debug_str:000000000000db73 .LASF97
     /tmp/ccYIdjbY.s:97644  .debug_str:0000000000030743 .LASF98
     /tmp/ccYIdjbY.s:99566  .debug_str:0000000000037f7a .LASF99
     /tmp/ccYIdjbY.s:98998  .debug_str:0000000000035e69 .LASF100
     /tmp/ccYIdjbY.s:86642  .debug_str:00000000000030e0 .LASF101
     /tmp/ccYIdjbY.s:96314  .debug_str:000000000002ad36 .LASF102
     /tmp/ccYIdjbY.s:88830  .debug_str:000000000000c653 .LASF103
     /tmp/ccYIdjbY.s:96194  .debug_str:000000000002a5f2 .LASF104
     /tmp/ccYIdjbY.s:94266  .debug_str:0000000000022c07 .LASF105
     /tmp/ccYIdjbY.s:96010  .debug_str:000000000002995b .LASF106
     /tmp/ccYIdjbY.s:87016  .debug_str:0000000000004aaf .LASF107
     /tmp/ccYIdjbY.s:98652  .debug_str:0000000000034a6f .LASF108
     /tmp/ccYIdjbY.s:97144  .debug_str:000000000002e553 .LASF109
     /tmp/ccYIdjbY.s:99440  .debug_str:00000000000376b8 .LASF110
     /tmp/ccYIdjbY.s:88974  .debug_str:000000000000d01d .LASF111
     /tmp/ccYIdjbY.s:99392  .debug_str:0000000000037326 .LASF112
     /tmp/ccYIdjbY.s:86116  .debug_str:0000000000000b7c .LASF113
     /tmp/ccYIdjbY.s:101250  .debug_str:000000000003f101 .LASF114
     /tmp/ccYIdjbY.s:102630  .debug_str:0000000000044b1c .LASF115
     /tmp/ccYIdjbY.s:94606  .debug_str:0000000000023ebb .LASF116
     /tmp/ccYIdjbY.s:90308  .debug_str:0000000000012132 .LASF117
     /tmp/ccYIdjbY.s:90846  .debug_str:0000000000014346 .LASF118
     /tmp/ccYIdjbY.s:98646  .debug_str:0000000000034a22 .LASF119
     /tmp/ccYIdjbY.s:96494  .debug_str:000000000002b883 .LASF120
     /tmp/ccYIdjbY.s:89690  .debug_str:000000000000f91e .LASF121
     /tmp/ccYIdjbY.s:91074  .debug_str:0000000000015207 .LASF122
     /tmp/ccYIdjbY.s:89882  .debug_str:000000000001048c .LASF123
     /tmp/ccYIdjbY.s:91936  .debug_str:0000000000018b99 .LASF124
     /tmp/ccYIdjbY.s:99136  .debug_str:0000000000036655 .LASF125
     /tmp/ccYIdjbY.s:100640  .debug_str:000000000003c792 .LASF126
     /tmp/ccYIdjbY.s:100294  .debug_str:000000000003b10c .LASF127
     /tmp/ccYIdjbY.s:99560  .debug_str:0000000000037efb .LASF128
     /tmp/ccYIdjbY.s:95634  .debug_str:0000000000028149 .LASF129
     /tmp/ccYIdjbY.s:100180  .debug_str:000000000003a901 .LASF130
     /tmp/ccYIdjbY.s:90054  .debug_str:0000000000010fde .LASF131
     /tmp/ccYIdjbY.s:93818  .debug_str:0000000000020d75 .LASF132
     /tmp/ccYIdjbY.s:95704  .debug_str:0000000000028632 .LASF133
     /tmp/ccYIdjbY.s:90402  .debug_str:00000000000127bf .LASF134
     /tmp/ccYIdjbY.s:102392  .debug_str:0000000000043aed .LASF135
     /tmp/ccYIdjbY.s:100474  .debug_str:000000000003bc3d .LASF136
     /tmp/ccYIdjbY.s:100638  .debug_str:000000000003c772 .LASF137
     /tmp/ccYIdjbY.s:92802  .debug_str:000000000001c7b1 .LASF138
     /tmp/ccYIdjbY.s:98716  .debug_str:0000000000034e82 .LASF139
     /tmp/ccYIdjbY.s:90976  .debug_str:0000000000014c0a .LASF140
     /tmp/ccYIdjbY.s:103386  .debug_str:0000000000047f15 .LASF141
     /tmp/ccYIdjbY.s:95550  .debug_str:0000000000027bb9 .LASF142
     /tmp/ccYIdjbY.s:94526  .debug_str:0000000000023b0e .LASF143
     /tmp/ccYIdjbY.s:90110  .debug_str:00000000000113b3 .LASF144
     /tmp/ccYIdjbY.s:88756  .debug_str:000000000000c175 .LASF145
     /tmp/ccYIdjbY.s:89702  .debug_str:000000000000f9a0 .LASF146
     /tmp/ccYIdjbY.s:90458  .debug_str:0000000000012b29 .LASF147
     /tmp/ccYIdjbY.s:93200  .debug_str:000000000001e33f .LASF148
     /tmp/ccYIdjbY.s:97190  .debug_str:000000000002e8ad .LASF149
     /tmp/ccYIdjbY.s:100688  .debug_str:000000000003ca88 .LASF150
     /tmp/ccYIdjbY.s:92016  .debug_str:000000000001913b .LASF151
     /tmp/ccYIdjbY.s:94660  .debug_str:00000000000240e9 .LASF152
     /tmp/ccYIdjbY.s:88082  .debug_str:00000000000092fd .LASF153
     /tmp/ccYIdjbY.s:101086  .debug_str:000000000003e575 .LASF154
     /tmp/ccYIdjbY.s:90428  .debug_str:00000000000129c3 .LASF155
     /tmp/ccYIdjbY.s:102444  .debug_str:0000000000043e88 .LASF156
     /tmp/ccYIdjbY.s:96328  .debug_str:000000000002ade1 .LASF157
     /tmp/ccYIdjbY.s:87188  .debug_str:000000000000565b .LASF158
     /tmp/ccYIdjbY.s:87436  .debug_str:0000000000006786 .LASF159
     /tmp/ccYIdjbY.s:103654  .debug_str:00000000000491b2 .LASF160
     /tmp/ccYIdjbY.s:100892  .debug_str:000000000003d7cf .LASF161
     /tmp/ccYIdjbY.s:103182  .debug_str:00000000000470b8 .LASF162
     /tmp/ccYIdjbY.s:90176  .debug_str:00000000000118a8 .LASF163
     /tmp/ccYIdjbY.s:90984  .debug_str:0000000000014c8b .LASF164
     /tmp/ccYIdjbY.s:102936  .debug_str:0000000000045fc1 .LASF165
     /tmp/ccYIdjbY.s:97490  .debug_str:000000000002fb82 .LASF166
     /tmp/ccYIdjbY.s:90256  .debug_str:0000000000011dc4 .LASF167
     /tmp/ccYIdjbY.s:86460  .debug_str:0000000000002336 .LASF168
     /tmp/ccYIdjbY.s:96544  .debug_str:000000000002bba6 .LASF169
     /tmp/ccYIdjbY.s:99648  .debug_str:00000000000384b3 .LASF170
     /tmp/ccYIdjbY.s:98168  .debug_str:00000000000329f8 .LASF171
     /tmp/ccYIdjbY.s:96986  .debug_str:000000000002da01 .LASF172
     /tmp/ccYIdjbY.s:88412  .debug_str:000000000000a934 .LASF173
     /tmp/ccYIdjbY.s:99824  .debug_str:00000000000390fb .LASF174
     /tmp/ccYIdjbY.s:97430  .debug_str:000000000002f7a2 .LASF175
     /tmp/ccYIdjbY.s:90466  .debug_str:0000000000012bb3 .LASF176
     /tmp/ccYIdjbY.s:90394  .debug_str:0000000000012752 .LASF177
     /tmp/ccYIdjbY.s:98968  .debug_str:0000000000035d82 .LASF178
     /tmp/ccYIdjbY.s:96448  .debug_str:000000000002b51e .LASF179
     /tmp/ccYIdjbY.s:98194  .debug_str:0000000000032bee .LASF180
     /tmp/ccYIdjbY.s:90504  .debug_str:0000000000012dfb .LASF181
     /tmp/ccYIdjbY.s:103304  .debug_str:000000000004795c .LASF182
     /tmp/ccYIdjbY.s:88154  .debug_str:0000000000009810 .LASF183
     /tmp/ccYIdjbY.s:102562  .debug_str:00000000000446c3 .LASF184
     /tmp/ccYIdjbY.s:93954  .debug_str:000000000002169c .LASF185
     /tmp/ccYIdjbY.s:91270  .debug_str:0000000000015f2f .LASF186
     /tmp/ccYIdjbY.s:94804  .debug_str:0000000000024a0d .LASF187
     /tmp/ccYIdjbY.s:87068  .debug_str:0000000000004e3f .LASF188
     /tmp/ccYIdjbY.s:86946  .debug_str:0000000000004552 .LASF189
     /tmp/ccYIdjbY.s:90376  .debug_str:0000000000012605 .LASF190
     /tmp/ccYIdjbY.s:103880  .debug_str:000000000004a2f4 .LASF191
     /tmp/ccYIdjbY.s:100378  .debug_str:000000000003b695 .LASF192
     /tmp/ccYIdjbY.s:93102  .debug_str:000000000001dcca .LASF193
     /tmp/ccYIdjbY.s:86950  .debug_str:00000000000045a2 .LASF194
     /tmp/ccYIdjbY.s:100718  .debug_str:000000000003cc31 .LASF195
     /tmp/ccYIdjbY.s:102128  .debug_str:0000000000042a00 .LASF196
     /tmp/ccYIdjbY.s:94118  .debug_str:00000000000221c8 .LASF197
     /tmp/ccYIdjbY.s:86010  .debug_str:000000000000048e .LASF198
     /tmp/ccYIdjbY.s:86666  .debug_str:000000000000329e .LASF199
     /tmp/ccYIdjbY.s:101268  .debug_str:000000000003f213 .LASF200
     /tmp/ccYIdjbY.s:96714  .debug_str:000000000002c78c .LASF201
     /tmp/ccYIdjbY.s:102780  .debug_str:0000000000045594 .LASF202
     /tmp/ccYIdjbY.s:99340  .debug_str:000000000003707c .LASF203
     /tmp/ccYIdjbY.s:87130  .debug_str:00000000000051e2 .LASF204
     /tmp/ccYIdjbY.s:102748  .debug_str:0000000000045359 .LASF205
     /tmp/ccYIdjbY.s:94254  .debug_str:0000000000022b4f .LASF206
     /tmp/ccYIdjbY.s:101252  .debug_str:000000000003f120 .LASF207
     /tmp/ccYIdjbY.s:92908  .debug_str:000000000001cf99 .LASF208
     /tmp/ccYIdjbY.s:95970  .debug_str:0000000000029726 .LASF209
     /tmp/ccYIdjbY.s:95160  .debug_str:000000000002623b .LASF210
     /tmp/ccYIdjbY.s:89086  .debug_str:000000000000d6ed .LASF211
     /tmp/ccYIdjbY.s:103994  .debug_str:000000000004aabb .LASF212
     /tmp/ccYIdjbY.s:101374  .debug_str:000000000003f897 .LASF213
     /tmp/ccYIdjbY.s:91444  .debug_str:0000000000016b55 .LASF214
     /tmp/ccYIdjbY.s:94518  .debug_str:0000000000023a79 .LASF215
     /tmp/ccYIdjbY.s:92894  .debug_str:000000000001ce5c .LASF216
     /tmp/ccYIdjbY.s:91228  .debug_str:0000000000015c59 .LASF217
     /tmp/ccYIdjbY.s:98074  .debug_str:0000000000032410 .LASF218
     /tmp/ccYIdjbY.s:87262  .debug_str:0000000000005be6 .LASF219
     /tmp/ccYIdjbY.s:93916  .debug_str:0000000000021488 .LASF220
     /tmp/ccYIdjbY.s:103800  .debug_str:0000000000049d91 .LASF221
     /tmp/ccYIdjbY.s:100328  .debug_str:000000000003b372 .LASF222
     /tmp/ccYIdjbY.s:90646  .debug_str:0000000000013722 .LASF223
     /tmp/ccYIdjbY.s:101824  .debug_str:0000000000041702 .LASF224
     /tmp/ccYIdjbY.s:103530  .debug_str:00000000000488c2 .LASF225
     /tmp/ccYIdjbY.s:91992  .debug_str:0000000000018f7c .LASF226
     /tmp/ccYIdjbY.s:100252  .debug_str:000000000003ae54 .LASF227
     /tmp/ccYIdjbY.s:92080  .debug_str:0000000000019592 .LASF228
     /tmp/ccYIdjbY.s:98996  .debug_str:0000000000035e4e .LASF229
     /tmp/ccYIdjbY.s:88144  .debug_str:000000000000978d .LASF230
     /tmp/ccYIdjbY.s:88418  .debug_str:000000000000a9b9 .LASF231
     /tmp/ccYIdjbY.s:92112  .debug_str:000000000001984b .LASF232
     /tmp/ccYIdjbY.s:89902  .debug_str:00000000000105e1 .LASF233
     /tmp/ccYIdjbY.s:87198  .debug_str:0000000000005712 .LASF234
     /tmp/ccYIdjbY.s:99950  .debug_str:0000000000039a5b .LASF235
     /tmp/ccYIdjbY.s:97248  .debug_str:000000000002ec24 .LASF236
     /tmp/ccYIdjbY.s:89600  .debug_str:000000000000f48d .LASF237
     /tmp/ccYIdjbY.s:89264  .debug_str:000000000000e17a .LASF238
     /tmp/ccYIdjbY.s:103204  .debug_str:0000000000047230 .LASF239
     /tmp/ccYIdjbY.s:91544  .debug_str:000000000001718e .LASF240
     /tmp/ccYIdjbY.s:92768  .debug_str:000000000001c579 .LASF241
     /tmp/ccYIdjbY.s:87404  .debug_str:000000000000650f .LASF242
     /tmp/ccYIdjbY.s:90452  .debug_str:0000000000012ae6 .LASF243
     /tmp/ccYIdjbY.s:101974  .debug_str:0000000000042034 .LASF244
     /tmp/ccYIdjbY.s:98354  .debug_str:00000000000336ee .LASF245
     /tmp/ccYIdjbY.s:91526  .debug_str:0000000000017073 .LASF246
     /tmp/ccYIdjbY.s:101042  .debug_str:000000000003e290 .LASF247
     /tmp/ccYIdjbY.s:94048  .debug_str:0000000000021d2a .LASF248
     /tmp/ccYIdjbY.s:98350  .debug_str:00000000000336c3 .LASF249
     /tmp/ccYIdjbY.s:92844  .debug_str:000000000001cabd .LASF250
     /tmp/ccYIdjbY.s:102832  .debug_str:0000000000045967 .LASF251
     /tmp/ccYIdjbY.s:92296  .debug_str:000000000001a49c .LASF252
     /tmp/ccYIdjbY.s:98868  .debug_str:00000000000357a6 .LASF253
     /tmp/ccYIdjbY.s:86750  .debug_str:00000000000037dc .LASF254
     /tmp/ccYIdjbY.s:99852  .debug_str:000000000003931c .LASF255
     /tmp/ccYIdjbY.s:87472  .debug_str:0000000000006a18 .LASF256
     /tmp/ccYIdjbY.s:87738  .debug_str:0000000000007af1 .LASF257
     /tmp/ccYIdjbY.s:103128  .debug_str:0000000000046c88 .LASF258
     /tmp/ccYIdjbY.s:101120  .debug_str:000000000003e7bc .LASF259
     /tmp/ccYIdjbY.s:89464  .debug_str:000000000000ec37 .LASF260
     /tmp/ccYIdjbY.s:92940  .debug_str:000000000001d163 .LASF261
     /tmp/ccYIdjbY.s:102224  .debug_str:0000000000042f82 .LASF262
     /tmp/ccYIdjbY.s:100024  .debug_str:0000000000039f30 .LASF263
     /tmp/ccYIdjbY.s:96144  .debug_str:000000000002a218 .LASF264
     /tmp/ccYIdjbY.s:88636  .debug_str:000000000000b9a7 .LASF265
     /tmp/ccYIdjbY.s:93892  .debug_str:00000000000212bc .LASF266
     /tmp/ccYIdjbY.s:96608  .debug_str:000000000002c024 .LASF267
     /tmp/ccYIdjbY.s:93216  .debug_str:000000000001e427 .LASF268
     /tmp/ccYIdjbY.s:98924  .debug_str:0000000000035a79 .LASF269
     /tmp/ccYIdjbY.s:97520  .debug_str:000000000002fdc4 .LASF270
     /tmp/ccYIdjbY.s:89440  .debug_str:000000000000ea88 .LASF271
     /tmp/ccYIdjbY.s:103294  .debug_str:00000000000478d0 .LASF272
     /tmp/ccYIdjbY.s:90562  .debug_str:00000000000131da .LASF273
     /tmp/ccYIdjbY.s:92860  .debug_str:000000000001cbe8 .LASF274
     /tmp/ccYIdjbY.s:99364  .debug_str:00000000000371eb .LASF275
     /tmp/ccYIdjbY.s:95054  .debug_str:0000000000025b1c .LASF276
     /tmp/ccYIdjbY.s:86100  .debug_str:0000000000000aa9 .LASF277
     /tmp/ccYIdjbY.s:98690  .debug_str:0000000000034c8b .LASF278
     /tmp/ccYIdjbY.s:97610  .debug_str:00000000000304a9 .LASF279
     /tmp/ccYIdjbY.s:103414  .debug_str:00000000000480eb .LASF280
     /tmp/ccYIdjbY.s:95888  .debug_str:000000000002911a .LASF281
     /tmp/ccYIdjbY.s:100832  .debug_str:000000000003d356 .LASF282
     /tmp/ccYIdjbY.s:86324  .debug_str:0000000000001988 .LASF283
     /tmp/ccYIdjbY.s:104292  .debug_str:000000000004bf25 .LASF284
     /tmp/ccYIdjbY.s:97628  .debug_str:00000000000305fa .LASF285
     /tmp/ccYIdjbY.s:97424  .debug_str:000000000002f758 .LASF286
     /tmp/ccYIdjbY.s:91222  .debug_str:0000000000015bb9 .LASF287
     /tmp/ccYIdjbY.s:103990  .debug_str:000000000004aa8d .LASF288
     /tmp/ccYIdjbY.s:102746  .debug_str:0000000000045342 .LASF289
     /tmp/ccYIdjbY.s:91462  .debug_str:0000000000016ceb .LASF290
     /tmp/ccYIdjbY.s:88084  .debug_str:0000000000009311 .LASF291
     /tmp/ccYIdjbY.s:100000  .debug_str:0000000000039d5c .LASF292
     /tmp/ccYIdjbY.s:101702  .debug_str:0000000000040edf .LASF293
     /tmp/ccYIdjbY.s:98780  .debug_str:00000000000351f7 .LASF294
     /tmp/ccYIdjbY.s:87652  .debug_str:00000000000075d5 .LASF295
     /tmp/ccYIdjbY.s:95540  .debug_str:0000000000027afc .LASF296
     /tmp/ccYIdjbY.s:93274  .debug_str:000000000001e8e1 .LASF297
     /tmp/ccYIdjbY.s:100758  .debug_str:000000000003cea3 .LASF298
     /tmp/ccYIdjbY.s:88486  .debug_str:000000000000aeff .LASF299
     /tmp/ccYIdjbY.s:100926  .debug_str:000000000003da0d .LASF300
     /tmp/ccYIdjbY.s:90952  .debug_str:0000000000014a62 .LASF301
     /tmp/ccYIdjbY.s:100868  .debug_str:000000000003d5ee .LASF302
     /tmp/ccYIdjbY.s:102480  .debug_str:0000000000044169 .LASF303
     /tmp/ccYIdjbY.s:94890  .debug_str:000000000002508b .LASF304
     /tmp/ccYIdjbY.s:99480  .debug_str:0000000000037946 .LASF305
     /tmp/ccYIdjbY.s:97668  .debug_str:00000000000308b9 .LASF306
     /tmp/ccYIdjbY.s:94076  .debug_str:0000000000021f41 .LASF307
     /tmp/ccYIdjbY.s:102774  .debug_str:0000000000045532 .LASF308
     /tmp/ccYIdjbY.s:102786  .debug_str:0000000000045622 .LASF309
     /tmp/ccYIdjbY.s:97100  .debug_str:000000000002e1ea .LASF310
     /tmp/ccYIdjbY.s:87674  .debug_str:0000000000007752 .LASF311
     /tmp/ccYIdjbY.s:86108  .debug_str:0000000000000afa .LASF312
     /tmp/ccYIdjbY.s:99358  .debug_str:00000000000371a1 .LASF313
     /tmp/ccYIdjbY.s:97812  .debug_str:000000000003129f .LASF314
     /tmp/ccYIdjbY.s:98630  .debug_str:000000000003491b .LASF315
     /tmp/ccYIdjbY.s:86176  .debug_str:0000000000000fa0 .LASF316
     /tmp/ccYIdjbY.s:92784  .debug_str:000000000001c68a .LASF317
     /tmp/ccYIdjbY.s:93922  .debug_str:00000000000214d4 .LASF318
     /tmp/ccYIdjbY.s:93284  .debug_str:000000000001e9c3 .LASF319
     /tmp/ccYIdjbY.s:103010  .debug_str:00000000000464a4 .LASF320
     /tmp/ccYIdjbY.s:100602  .debug_str:000000000003c4f7 .LASF321
     /tmp/ccYIdjbY.s:97256  .debug_str:000000000002ecb8 .LASF322
     /tmp/ccYIdjbY.s:91108  .debug_str:000000000001542e .LASF323
     /tmp/ccYIdjbY.s:104252  .debug_str:000000000004bc73 .LASF324
     /tmp/ccYIdjbY.s:91824  .debug_str:00000000000183ee .LASF325
     /tmp/ccYIdjbY.s:94850  .debug_str:0000000000024d96 .LASF326
     /tmp/ccYIdjbY.s:100046  .debug_str:000000000003a0a4 .LASF327
     /tmp/ccYIdjbY.s:87926  .debug_str:00000000000087d6 .LASF328
     /tmp/ccYIdjbY.s:102928  .debug_str:0000000000045f61 .LASF329
     /tmp/ccYIdjbY.s:102410  .debug_str:0000000000043c21 .LASF330
     /tmp/ccYIdjbY.s:93154  .debug_str:000000000001e07a .LASF331
     /tmp/ccYIdjbY.s:91726  .debug_str:0000000000017cfe .LASF332
     /tmp/ccYIdjbY.s:90848  .debug_str:000000000001435a .LASF333
     /tmp/ccYIdjbY.s:102380  .debug_str:0000000000043a3b .LASF334
     /tmp/ccYIdjbY.s:96230  .debug_str:000000000002a7bf .LASF335
     /tmp/ccYIdjbY.s:101424  .debug_str:000000000003fc1e .LASF336
     /tmp/ccYIdjbY.s:100118  .debug_str:000000000003a4fb .LASF337
     /tmp/ccYIdjbY.s:100514  .debug_str:000000000003bf3a .LASF338
     /tmp/ccYIdjbY.s:94152  .debug_str:00000000000223f2 .LASF339
     /tmp/ccYIdjbY.s:103286  .debug_str:000000000004783f .LASF340
     /tmp/ccYIdjbY.s:100854  .debug_str:000000000003d4f0 .LASF341
     /tmp/ccYIdjbY.s:97362  .debug_str:000000000002f357 .LASF342
     /tmp/ccYIdjbY.s:100222  .debug_str:000000000003abdb .LASF343
     /tmp/ccYIdjbY.s:88900  .debug_str:000000000000cb2c .LASF344
     /tmp/ccYIdjbY.s:102826  .debug_str:0000000000045900 .LASF345
     /tmp/ccYIdjbY.s:100806  .debug_str:000000000003d190 .LASF346
     /tmp/ccYIdjbY.s:87604  .debug_str:00000000000072e0 .LASF347
     /tmp/ccYIdjbY.s:86534  .debug_str:00000000000028e6 .LASF348
     /tmp/ccYIdjbY.s:90368  .debug_str:0000000000012539 .LASF349
     /tmp/ccYIdjbY.s:93332  .debug_str:000000000001ecd1 .LASF350
     /tmp/ccYIdjbY.s:97062  .debug_str:000000000002df72 .LASF351
     /tmp/ccYIdjbY.s:87858  .debug_str:000000000000833b .LASF352
     /tmp/ccYIdjbY.s:92642  .debug_str:000000000001bca6 .LASF353
     /tmp/ccYIdjbY.s:87892  .debug_str:00000000000085b6 .LASF354
     /tmp/ccYIdjbY.s:97998  .debug_str:0000000000031e88 .LASF355
     /tmp/ccYIdjbY.s:96000  .debug_str:000000000002991b .LASF356
     /tmp/ccYIdjbY.s:91474  .debug_str:0000000000016dcd .LASF357
     /tmp/ccYIdjbY.s:96944  .debug_str:000000000002d730 .LASF358
     /tmp/ccYIdjbY.s:104266  .debug_str:000000000004bd7a .LASF359
     /tmp/ccYIdjbY.s:102908  .debug_str:0000000000045e62 .LASF360
     /tmp/ccYIdjbY.s:98702  .debug_str:0000000000034d80 .LASF361
     /tmp/ccYIdjbY.s:93810  .debug_str:0000000000020d11 .LASF362
     /tmp/ccYIdjbY.s:87722  .debug_str:00000000000079e5 .LASF363
     /tmp/ccYIdjbY.s:86840  .debug_str:0000000000003e20 .LASF364
     /tmp/ccYIdjbY.s:87048  .debug_str:0000000000004ccf .LASF365
     /tmp/ccYIdjbY.s:103302  .debug_str:000000000004794a .LASF366
     /tmp/ccYIdjbY.s:95294  .debug_str:0000000000026b51 .LASF367
     /tmp/ccYIdjbY.s:101280  .debug_str:000000000003f2cb .LASF368
     /tmp/ccYIdjbY.s:89838  .debug_str:00000000000101bd .LASF369
     /tmp/ccYIdjbY.s:100704  .debug_str:000000000003cb75 .LASF370
     /tmp/ccYIdjbY.s:99662  .debug_str:00000000000385c9 .LASF371
     /tmp/ccYIdjbY.s:96442  .debug_str:000000000002b4c4 .LASF372
     /tmp/ccYIdjbY.s:94942  .debug_str:00000000000253c2 .LASF373
     /tmp/ccYIdjbY.s:89596  .debug_str:000000000000f46c .LASF374
     /tmp/ccYIdjbY.s:92446  .debug_str:000000000001af74 .LASF375
     /tmp/ccYIdjbY.s:98356  .debug_str:000000000003372c .LASF376
     /tmp/ccYIdjbY.s:91934  .debug_str:0000000000018b83 .LASF380
     /tmp/ccYIdjbY.s:98496  .debug_str:0000000000034036 .LASF381
     /tmp/ccYIdjbY.s:95878  .debug_str:00000000000290b2 .LASF382
     /tmp/ccYIdjbY.s:90652  .debug_str:0000000000013764 .LASF383
     /tmp/ccYIdjbY.s:99142  .debug_str:00000000000366c5 .LASF384
     /tmp/ccYIdjbY.s:96436  .debug_str:000000000002b424 .LASF385
     /tmp/ccYIdjbY.s:87326  .debug_str:0000000000005fe8 .LASF386
     /tmp/ccYIdjbY.s:100392  .debug_str:000000000003b7a6 .LASF387
     /tmp/ccYIdjbY.s:86064  .debug_str:000000000000085c .LASF388
     /tmp/ccYIdjbY.s:90808  .debug_str:00000000000140cb .LASF389
     /tmp/ccYIdjbY.s:92890  .debug_str:000000000001ce13 .LASF390
     /tmp/ccYIdjbY.s:92366  .debug_str:000000000001a9dd .LASF391
     /tmp/ccYIdjbY.s:90882  .debug_str:00000000000145b3 .LASF392
     /tmp/ccYIdjbY.s:95788  .debug_str:0000000000028b19 .LASF393
     /tmp/ccYIdjbY.s:100586  .debug_str:000000000003c3ed .LASF394
     /tmp/ccYIdjbY.s:100990  .debug_str:000000000003ded3 .LASF395
     /tmp/ccYIdjbY.s:99210  .debug_str:00000000000369cf .LASF396
     /tmp/ccYIdjbY.s:90986  .debug_str:0000000000014c9f .LASF397
     /tmp/ccYIdjbY.s:91866  .debug_str:00000000000186dd .LASF398
     /tmp/ccYIdjbY.s:94650  .debug_str:0000000000024084 .LASF399
     /tmp/ccYIdjbY.s:96766  .debug_str:000000000002caf1 .LASF400
     /tmp/ccYIdjbY.s:89052  .debug_str:000000000000d484 .LASF401
     /tmp/ccYIdjbY.s:92386  .debug_str:000000000001ab46 .LASF402
     /tmp/ccYIdjbY.s:92084  .debug_str:00000000000195b3 .LASF403
     /tmp/ccYIdjbY.s:88968  .debug_str:000000000000cfd1 .LASF404
     /tmp/ccYIdjbY.s:91518  .debug_str:0000000000016ffb .LASF405
     /tmp/ccYIdjbY.s:101744  .debug_str:00000000000411c2 .LASF406
     /tmp/ccYIdjbY.s:89820  .debug_str:0000000000010044 .LASF407
     /tmp/ccYIdjbY.s:86798  .debug_str:0000000000003b32 .LASF408
     /tmp/ccYIdjbY.s:90614  .debug_str:00000000000134f3 .LASF409
     /tmp/ccYIdjbY.s:102046  .debug_str:00000000000424e7 .LASF410
     /tmp/ccYIdjbY.s:91696  .debug_str:0000000000017b92 .LASF411
     /tmp/ccYIdjbY.s:89622  .debug_str:000000000000f5ee .LASF412
     /tmp/ccYIdjbY.s:96932  .debug_str:000000000002d69c .LASF413
     /tmp/ccYIdjbY.s:100090  .debug_str:000000000003a369 .LASF414
     /tmp/ccYIdjbY.s:97540  .debug_str:000000000002ffae .LASF415
     /tmp/ccYIdjbY.s:97428  .debug_str:000000000002f79c .LASF416
     /tmp/ccYIdjbY.s:101836  .debug_str:00000000000417c9 .LASF417
     /tmp/ccYIdjbY.s:86308  .debug_str:000000000000188d .LASF418
     /tmp/ccYIdjbY.s:98542  .debug_str:0000000000034359 .LASF419
     /tmp/ccYIdjbY.s:96208  .debug_str:000000000002a6a2 .LASF420
     /tmp/ccYIdjbY.s:90732  .debug_str:0000000000013c71 .LASF421
     /tmp/ccYIdjbY.s:95496  .debug_str:000000000002784a .LASF422
     /tmp/ccYIdjbY.s:104024  .debug_str:000000000004ad19 .LASF423
     /tmp/ccYIdjbY.s:97142  .debug_str:000000000002e549 .LASF424
     /tmp/ccYIdjbY.s:97884  .debug_str:000000000003176c .LASF425
     /tmp/ccYIdjbY.s:86412  .debug_str:0000000000001ff8 .LASF426
     /tmp/ccYIdjbY.s:88714  .debug_str:000000000000be8e .LASF427
     /tmp/ccYIdjbY.s:97016  .debug_str:000000000002dc77 .LASF428
     /tmp/ccYIdjbY.s:95214  .debug_str:0000000000026585 .LASF429
     /tmp/ccYIdjbY.s:96946  .debug_str:000000000002d73b .LASF430
     /tmp/ccYIdjbY.s:99174  .debug_str:00000000000367b3 .LASF431
     /tmp/ccYIdjbY.s:98086  .debug_str:0000000000032509 .LASF432
     /tmp/ccYIdjbY.s:102080  .debug_str:000000000004272a .LASF433
     /tmp/ccYIdjbY.s:98376  .debug_str:0000000000033869 .LASF434
     /tmp/ccYIdjbY.s:92474  .debug_str:000000000001b195 .LASF435
     /tmp/ccYIdjbY.s:95468  .debug_str:000000000002765e .LASF436
     /tmp/ccYIdjbY.s:97650  .debug_str:00000000000307a1 .LASF437
     /tmp/ccYIdjbY.s:91734  .debug_str:0000000000017dae .LASF438
     /tmp/ccYIdjbY.s:103078  .debug_str:0000000000046974 .LASF439
     /tmp/ccYIdjbY.s:89142  .debug_str:000000000000da80 .LASF440
     /tmp/ccYIdjbY.s:99060  .debug_str:00000000000362bf .LASF441
     /tmp/ccYIdjbY.s:87424  .debug_str:00000000000066b0 .LASF442
     /tmp/ccYIdjbY.s:89926  .debug_str:00000000000107c8 .LASF443
     /tmp/ccYIdjbY.s:92540  .debug_str:000000000001b696 .LASF444
     /tmp/ccYIdjbY.s:99298  .debug_str:0000000000036eb6 .LASF445
     /tmp/ccYIdjbY.s:104204  .debug_str:000000000004b939 .LASF446
     /tmp/ccYIdjbY.s:95130  .debug_str:0000000000026040 .LASF447
     /tmp/ccYIdjbY.s:93546  .debug_str:000000000001fbb5 .LASF448
     /tmp/ccYIdjbY.s:99588  .debug_str:00000000000380e4 .LASF449
     /tmp/ccYIdjbY.s:91054  .debug_str:000000000001513d .LASF450
     /tmp/ccYIdjbY.s:102584  .debug_str:000000000004482d .LASF451
     /tmp/ccYIdjbY.s:93192  .debug_str:000000000001e2a0 .LASF452
     /tmp/ccYIdjbY.s:100354  .debug_str:000000000003b4f1 .LASF453
     /tmp/ccYIdjbY.s:95694  .debug_str:00000000000285b4 .LASF454
     /tmp/ccYIdjbY.s:86220  .debug_str:0000000000001296 .LASF455
     /tmp/ccYIdjbY.s:93436  .debug_str:000000000001f46c .LASF456
     /tmp/ccYIdjbY.s:101794  .debug_str:0000000000041526 .LASF457
     /tmp/ccYIdjbY.s:94240  .debug_str:0000000000022a6d .LASF458
     /tmp/ccYIdjbY.s:101464  .debug_str:000000000003ff19 .LASF459
     /tmp/ccYIdjbY.s:103004  .debug_str:0000000000046456 .LASF460
     /tmp/ccYIdjbY.s:97070  .debug_str:000000000002dfbf .LASF461
     /tmp/ccYIdjbY.s:95978  .debug_str:000000000002979a .LASF462
     /tmp/ccYIdjbY.s:98470  .debug_str:0000000000033ea0 .LASF463
     /tmp/ccYIdjbY.s:102468  .debug_str:0000000000044059 .LASF464
     /tmp/ccYIdjbY.s:99258  .debug_str:0000000000036c13 .LASF465
     /tmp/ccYIdjbY.s:90098  .debug_str:00000000000112ed .LASF466
     /tmp/ccYIdjbY.s:98192  .debug_str:0000000000032bd4 .LASF467
     /tmp/ccYIdjbY.s:87286  .debug_str:0000000000005d26 .LASF468
     /tmp/ccYIdjbY.s:100674  .debug_str:000000000003c99e .LASF469
     /tmp/ccYIdjbY.s:93604  .debug_str:000000000001ffcd .LASF470
     /tmp/ccYIdjbY.s:85970  .debug_str:0000000000000208 .LASF471
     /tmp/ccYIdjbY.s:93166  .debug_str:000000000001e156 .LASF472
     /tmp/ccYIdjbY.s:93936  .debug_str:00000000000215a2 .LASF473
     /tmp/ccYIdjbY.s:101596  .debug_str:00000000000407e9 .LASF474
     /tmp/ccYIdjbY.s:102886  .debug_str:0000000000045cd3 .LASF475
     /tmp/ccYIdjbY.s:95200  .debug_str:000000000002647f .LASF476
     /tmp/ccYIdjbY.s:93344  .debug_str:000000000001edec .LASF477
     /tmp/ccYIdjbY.s:97194  .debug_str:000000000002e8d1 .LASF478
     /tmp/ccYIdjbY.s:96240  .debug_str:000000000002a867 .LASF479
     /tmp/ccYIdjbY.s:92440  .debug_str:000000000001aef8 .LASF480
     /tmp/ccYIdjbY.s:103772  .debug_str:0000000000049b43 .LASF481
     /tmp/ccYIdjbY.s:89468  .debug_str:000000000000ec89 .LASF482
     /tmp/ccYIdjbY.s:102318  .debug_str:0000000000043636 .LASF483
     /tmp/ccYIdjbY.s:95556  .debug_str:0000000000027c13 .LASF484
     /tmp/ccYIdjbY.s:87350  .debug_str:0000000000006176 .LASF485
     /tmp/ccYIdjbY.s:102314  .debug_str:0000000000043601 .LASF486
     /tmp/ccYIdjbY.s:90306  .debug_str:0000000000012113 .LASF487
     /tmp/ccYIdjbY.s:93924  .debug_str:00000000000214e4 .LASF488
     /tmp/ccYIdjbY.s:102512  .debug_str:000000000004438d .LASF489
     /tmp/ccYIdjbY.s:86498  .debug_str:0000000000002654 .LASF490
     /tmp/ccYIdjbY.s:97306  .debug_str:000000000002ef8c .LASF491
     /tmp/ccYIdjbY.s:104190  .debug_str:000000000004b840 .LASF492
     /tmp/ccYIdjbY.s:100760  .debug_str:000000000003cec4 .LASF493
     /tmp/ccYIdjbY.s:87050  .debug_str:0000000000004cdb .LASF494
     /tmp/ccYIdjbY.s:87576  .debug_str:00000000000070e5 .LASF495
     /tmp/ccYIdjbY.s:102706  .debug_str:000000000004505e .LASF496
     /tmp/ccYIdjbY.s:98848  .debug_str:00000000000355fe .LASF497
     /tmp/ccYIdjbY.s:102082  .debug_str:0000000000042732 .LASF498
     /tmp/ccYIdjbY.s:86160  .debug_str:0000000000000e79 .LASF499
     /tmp/ccYIdjbY.s:90158  .debug_str:0000000000011742 .LASF500
     /tmp/ccYIdjbY.s:102864  .debug_str:0000000000045b30 .LASF501
     /tmp/ccYIdjbY.s:86276  .debug_str:000000000000160a .LASF502
     /tmp/ccYIdjbY.s:94014  .debug_str:0000000000021abb .LASF503
     /tmp/ccYIdjbY.s:86356  .debug_str:0000000000001bee .LASF504
     /tmp/ccYIdjbY.s:87518  .debug_str:0000000000006d65 .LASF505
     /tmp/ccYIdjbY.s:96582  .debug_str:000000000002be56 .LASF506
     /tmp/ccYIdjbY.s:96362  .debug_str:000000000002aff3 .LASF507
     /tmp/ccYIdjbY.s:97660  .debug_str:0000000000030819 .LASF508
     /tmp/ccYIdjbY.s:103266  .debug_str:00000000000476e1 .LASF509
     /tmp/ccYIdjbY.s:97868  .debug_str:0000000000031654 .LASF510
     /tmp/ccYIdjbY.s:99942  .debug_str:00000000000399df .LASF511
     /tmp/ccYIdjbY.s:102220  .debug_str:0000000000042f5d .LASF512
     /tmp/ccYIdjbY.s:90650  .debug_str:0000000000013746 .LASF513
     /tmp/ccYIdjbY.s:92278  .debug_str:000000000001a3dc .LASF514
     /tmp/ccYIdjbY.s:96728  .debug_str:000000000002c89a .LASF515
     /tmp/ccYIdjbY.s:101832  .debug_str:000000000004177b .LASF516
     /tmp/ccYIdjbY.s:98334  .debug_str:00000000000335de .LASF517
     /tmp/ccYIdjbY.s:102358  .debug_str:00000000000438a0 .LASF518
     /tmp/ccYIdjbY.s:96414  .debug_str:000000000002b2fa .LASF519
     /tmp/ccYIdjbY.s:95226  .debug_str:0000000000026649 .LASF520
     /tmp/ccYIdjbY.s:93664  .debug_str:0000000000020486 .LASF521
     /tmp/ccYIdjbY.s:98360  .debug_str:0000000000033768 .LASF522
     /tmp/ccYIdjbY.s:103836  .debug_str:000000000004a002 .LASF523
     /tmp/ccYIdjbY.s:103676  .debug_str:00000000000492f4 .LASF524
     /tmp/ccYIdjbY.s:100724  .debug_str:000000000003cc86 .LASF525
     /tmp/ccYIdjbY.s:98626  .debug_str:00000000000348e8 .LASF526
     /tmp/ccYIdjbY.s:91100  .debug_str:00000000000153ec .LASF527
     /tmp/ccYIdjbY.s:98516  .debug_str:00000000000341b9 .LASF528
     /tmp/ccYIdjbY.s:102974  .debug_str:00000000000462a2 .LASF529
     /tmp/ccYIdjbY.s:102258  .debug_str:0000000000043274 .LASF530
     /tmp/ccYIdjbY.s:94016  .debug_str:0000000000021adf .LASF531
     /tmp/ccYIdjbY.s:90568  .debug_str:0000000000013214 .LASF532
     /tmp/ccYIdjbY.s:89120  .debug_str:000000000000d918 .LASF535
     /tmp/ccYIdjbY.s:91838  .debug_str:00000000000184fc .LASF536
     /tmp/ccYIdjbY.s:95892  .debug_str:000000000002914e .LASF537
     /tmp/ccYIdjbY.s:95532  .debug_str:0000000000027a8e .LASF538
     /tmp/ccYIdjbY.s:103982  .debug_str:000000000004aa0a .LASF539
     /tmp/ccYIdjbY.s:87494  .debug_str:0000000000006c04 .LASF540
     /tmp/ccYIdjbY.s:103292  .debug_str:0000000000047884 .LASF541
     /tmp/ccYIdjbY.s:92648  .debug_str:000000000001bd1d .LASF542
     /tmp/ccYIdjbY.s:93024  .debug_str:000000000001d6a2 .LASF543
     /tmp/ccYIdjbY.s:99378  .debug_str:000000000003727f .LASF544
     /tmp/ccYIdjbY.s:94218  .debug_str:000000000002288b .LASF545
     /tmp/ccYIdjbY.s:98424  .debug_str:0000000000033b5d .LASF546
     /tmp/ccYIdjbY.s:103068  .debug_str:0000000000046887 .LASF547
     /tmp/ccYIdjbY.s:89620  .debug_str:000000000000f5ac .LASF548
     /tmp/ccYIdjbY.s:94236  .debug_str:0000000000022a1a .LASF549
     /tmp/ccYIdjbY.s:98764  .debug_str:00000000000350b8 .LASF550
     /tmp/ccYIdjbY.s:103296  .debug_str:00000000000478e9 .LASF551
     /tmp/ccYIdjbY.s:89524  .debug_str:000000000000efe2 .LASF552
     /tmp/ccYIdjbY.s:92506  .debug_str:000000000001b373 .LASF553
     /tmp/ccYIdjbY.s:89802  .debug_str:000000000000fefc .LASF554
     /tmp/ccYIdjbY.s:101902  .debug_str:0000000000041bde .LASF555
     /tmp/ccYIdjbY.s:93244  .debug_str:000000000001e644 .LASF556
     /tmp/ccYIdjbY.s:99254  .debug_str:0000000000036b8f .LASF557
     /tmp/ccYIdjbY.s:86960  .debug_str:000000000000464b .LASF558
     /tmp/ccYIdjbY.s:88570  .debug_str:000000000000b55c .LASF559
     /tmp/ccYIdjbY.s:97706  .debug_str:0000000000030b14 .LASF560
     /tmp/ccYIdjbY.s:88202  .debug_str:0000000000009b11 .LASF561
     /tmp/ccYIdjbY.s:97502  .debug_str:000000000002fc2e .LASF562
     /tmp/ccYIdjbY.s:103174  .debug_str:0000000000046fee .LASF563
     /tmp/ccYIdjbY.s:93870  .debug_str:000000000002110e .LASF564
     /tmp/ccYIdjbY.s:92666  .debug_str:000000000001be21 .LASF565
     /tmp/ccYIdjbY.s:93680  .debug_str:000000000002052b .LASF566
     /tmp/ccYIdjbY.s:97538  .debug_str:000000000002ff6c .LASF567
     /tmp/ccYIdjbY.s:88688  .debug_str:000000000000bcdf .LASF568
     /tmp/ccYIdjbY.s:88460  .debug_str:000000000000ad20 .LASF569
     /tmp/ccYIdjbY.s:97586  .debug_str:00000000000302df .LASF570
     /tmp/ccYIdjbY.s:85990  .debug_str:0000000000000338 .LASF571
     /tmp/ccYIdjbY.s:97378  .debug_str:000000000002f45d .LASF572
     /tmp/ccYIdjbY.s:103056  .debug_str:00000000000467af .LASF573
     /tmp/ccYIdjbY.s:93754  .debug_str:000000000002098f .LASF574
     /tmp/ccYIdjbY.s:102870  .debug_str:0000000000045b96 .LASF575
     /tmp/ccYIdjbY.s:93566  .debug_str:000000000001fd30 .LASF576
     /tmp/ccYIdjbY.s:88530  .debug_str:000000000000b1e2 .LASF577
     /tmp/ccYIdjbY.s:97672  .debug_str:0000000000030916 .LASF578
     /tmp/ccYIdjbY.s:88336  .debug_str:000000000000a423 .LASF579
     /tmp/ccYIdjbY.s:97468  .debug_str:000000000002f9df .LASF580
     /tmp/ccYIdjbY.s:87958  .debug_str:0000000000008a31 .LASF581
     /tmp/ccYIdjbY.s:95318  .debug_str:0000000000026c94 .LASF582
     /tmp/ccYIdjbY.s:102954  .debug_str:00000000000460da .LASF583
     /tmp/ccYIdjbY.s:93646  .debug_str:00000000000202c3 .LASF584
     /tmp/ccYIdjbY.s:102770  .debug_str:00000000000454ba .LASF585
     /tmp/ccYIdjbY.s:93448  .debug_str:000000000001f511 .LASF586
     /tmp/ccYIdjbY.s:88430  .debug_str:000000000000aafb .LASF587
     /tmp/ccYIdjbY.s:97556  .debug_str:00000000000300e4 .LASF588
     /tmp/ccYIdjbY.s:88216  .debug_str:0000000000009c2b .LASF589
     /tmp/ccYIdjbY.s:97344  .debug_str:000000000002f1dc .LASF590
     /tmp/ccYIdjbY.s:94394  .debug_str:0000000000023397 .LASF591
     /tmp/ccYIdjbY.s:88764  .debug_str:000000000000c1eb .LASF592
     /tmp/ccYIdjbY.s:101620  .debug_str:000000000004097f .LASF593
     /tmp/ccYIdjbY.s:101474  .debug_str:000000000003ffdf .LASF594
     /tmp/ccYIdjbY.s:95296  .debug_str:0000000000026b62 .LASF595
     /tmp/ccYIdjbY.s:98036  .debug_str:00000000000320e1 .LASF596
     /tmp/ccYIdjbY.s:89226  .debug_str:000000000000df58 .LASF597
     /tmp/ccYIdjbY.s:103508  .debug_str:0000000000048747 .LASF598
     /tmp/ccYIdjbY.s:91000  .debug_str:0000000000014da5 .LASF599
     /tmp/ccYIdjbY.s:104214  .debug_str:000000000004b9e0 .LASF600
     /tmp/ccYIdjbY.s:93162  .debug_str:000000000001e0db .LASF601
     /tmp/ccYIdjbY.s:102026  .debug_str:000000000004235b .LASF602
     /tmp/ccYIdjbY.s:101728  .debug_str:0000000000041073 .LASF603
     /tmp/ccYIdjbY.s:101468  .debug_str:000000000003ff63 .LASF604
     /tmp/ccYIdjbY.s:86326  .debug_str:00000000000019a0 .LASF605
     /tmp/ccYIdjbY.s:100940  .debug_str:000000000003db01 .LASF606
     /tmp/ccYIdjbY.s:94930  .debug_str:0000000000025304 .LASF607
     /tmp/ccYIdjbY.s:98608  .debug_str:0000000000034757 .LASF608
     /tmp/ccYIdjbY.s:93152  .debug_str:000000000001e033 .LASF609
     /tmp/ccYIdjbY.s:92866  .debug_str:000000000001cc3f .LASF610
     /tmp/ccYIdjbY.s:91118  .debug_str:00000000000154bf .LASF611
     /tmp/ccYIdjbY.s:103708  .debug_str:000000000004957e .LASF612
     /tmp/ccYIdjbY.s:97740  .debug_str:0000000000030d76 .LASF613
     /tmp/ccYIdjbY.s:93338  .debug_str:000000000001ed61 .LASF614
     /tmp/ccYIdjbY.s:97078  .debug_str:000000000002e043 .LASF615
     /tmp/ccYIdjbY.s:96826  .debug_str:000000000002cee0 .LASF616
     /tmp/ccYIdjbY.s:86458  .debug_str:00000000000022f5 .LASF617
     /tmp/ccYIdjbY.s:97052  .debug_str:000000000002de96 .LASF618
     /tmp/ccYIdjbY.s:99658  .debug_str:0000000000038568 .LASF619
     /tmp/ccYIdjbY.s:88078  .debug_str:0000000000009280 .LASF620
     /tmp/ccYIdjbY.s:90014  .debug_str:0000000000010ce9 .LASF621
     /tmp/ccYIdjbY.s:103692  .debug_str:0000000000049409 .LASF622
     /tmp/ccYIdjbY.s:98714  .debug_str:0000000000034e41 .LASF623
     /tmp/ccYIdjbY.s:86880  .debug_str:000000000000411c .LASF624
     /tmp/ccYIdjbY.s:86182  .debug_str:0000000000001013 .LASF625
     /tmp/ccYIdjbY.s:96622  .debug_str:000000000002c0cd .LASF626
     /tmp/ccYIdjbY.s:94706  .debug_str:0000000000024433 .LASF627
     /tmp/ccYIdjbY.s:103712  .debug_str:00000000000495f1 .LASF628
     /tmp/ccYIdjbY.s:103502  .debug_str:00000000000486c8 .LASF629
     /tmp/ccYIdjbY.s:104220  .debug_str:000000000004ba55 .LASF630
     /tmp/ccYIdjbY.s:91008  .debug_str:0000000000014e90 .LASF631
     /tmp/ccYIdjbY.s:96192  .debug_str:000000000002a5b2 .LASF632
     /tmp/ccYIdjbY.s:101194  .debug_str:000000000003ed1b .LASF633
     /tmp/ccYIdjbY.s:100140  .debug_str:000000000003a638 .LASF634
     /tmp/ccYIdjbY.s:86824  .debug_str:0000000000003cd5 .LASF635
     /tmp/ccYIdjbY.s:89824  .debug_str:0000000000010061 .LASF636
     /tmp/ccYIdjbY.s:97154  .debug_str:000000000002e5f3 .LASF637
     /tmp/ccYIdjbY.s:102232  .debug_str:0000000000043035 .LASF638
     /tmp/ccYIdjbY.s:97124  .debug_str:000000000002e3b5 .LASF639
     /tmp/ccYIdjbY.s:102448  .debug_str:0000000000043ef6 .LASF640
     /tmp/ccYIdjbY.s:93086  .debug_str:000000000001db85 .LASF641
     /tmp/ccYIdjbY.s:102120  .debug_str:000000000004298e .LASF642
     /tmp/ccYIdjbY.s:92872  .debug_str:000000000001ccbf .LASF643
     /tmp/ccYIdjbY.s:98700  .debug_str:0000000000034d3e .LASF644
     /tmp/ccYIdjbY.s:89234  .debug_str:000000000000dfca .LASF645
     /tmp/ccYIdjbY.s:98482  .debug_str:0000000000033f58 .LASF646
     /tmp/ccYIdjbY.s:89006  .debug_str:000000000000d211 .LASF647
     /tmp/ccYIdjbY.s:98156  .debug_str:00000000000328f1 .LASF648
     /tmp/ccYIdjbY.s:100882  .debug_str:000000000003d6d9 .LASF649
     /tmp/ccYIdjbY.s:102338  .debug_str:0000000000043744 .LASF650
     /tmp/ccYIdjbY.s:92602  .debug_str:000000000001ba70 .LASF651
     /tmp/ccYIdjbY.s:102006  .debug_str:00000000000421f4 .LASF652
     /tmp/ccYIdjbY.s:92766  .debug_str:000000000001c537 .LASF653
     /tmp/ccYIdjbY.s:98570  .debug_str:00000000000344a9 .LASF654
     /tmp/ccYIdjbY.s:89096  .debug_str:000000000000d790 .LASF655
     /tmp/ccYIdjbY.s:98380  .debug_str:000000000003388b .LASF656
     /tmp/ccYIdjbY.s:86578  .debug_str:0000000000002beb .LASF657
     /tmp/ccYIdjbY.s:98040  .debug_str:0000000000032142 .LASF658
     /tmp/ccYIdjbY.s:88534  .debug_str:000000000000b251 .LASF659
     /tmp/ccYIdjbY.s:102230  .debug_str:0000000000042ff3 .LASF660
     /tmp/ccYIdjbY.s:92838  .debug_str:000000000001ca4b .LASF661
     /tmp/ccYIdjbY.s:95696  .debug_str:00000000000285c7 .LASF662
     /tmp/ccYIdjbY.s:87568  .debug_str:000000000000705f .LASF663
     /tmp/ccYIdjbY.s:97200  .debug_str:000000000002e940 .LASF664
     /tmp/ccYIdjbY.s:92598  .debug_str:000000000001ba4f .LASF665
     /tmp/ccYIdjbY.s:93608  .debug_str:000000000001fff3 .LASF666
     /tmp/ccYIdjbY.s:98390  .debug_str:0000000000033929 .LASF667
     /tmp/ccYIdjbY.s:87998  .debug_str:0000000000008d35 .LASF668
     /tmp/ccYIdjbY.s:91182  .debug_str:00000000000158e8 .LASF669
     /tmp/ccYIdjbY.s:104096  .debug_str:000000000004b194 .LASF670
     /tmp/ccYIdjbY.s:93700  .debug_str:0000000000020645 .LASF671
     /tmp/ccYIdjbY.s:91942  .debug_str:0000000000018c08 .LASF672
     /tmp/ccYIdjbY.s:103518  .debug_str:0000000000048816 .LASF673
     /tmp/ccYIdjbY.s:96876  .debug_str:000000000002d335 .LASF674
     /tmp/ccYIdjbY.s:96950  .debug_str:000000000002d77b .LASF675
     /tmp/ccYIdjbY.s:94260  .debug_str:0000000000022bb6 .LASF676
     /tmp/ccYIdjbY.s:86942  .debug_str:0000000000004528 .LASF677
     /tmp/ccYIdjbY.s:96726  .debug_str:000000000002c881 .LASF678
     /tmp/ccYIdjbY.s:98546  .debug_str:0000000000034374 .LASF679
     /tmp/ccYIdjbY.s:98384  .debug_str:00000000000338d5 .LASF680
     /tmp/ccYIdjbY.s:90030  .debug_str:0000000000010e20 .LASF681
     /tmp/ccYIdjbY.s:100300  .debug_str:000000000003b190 .LASF682
     /tmp/ccYIdjbY.s:91998  .debug_str:0000000000018fec .LASF683
     /tmp/ccYIdjbY.s:102050  .debug_str:0000000000042505 .LASF684
     /tmp/ccYIdjbY.s:93716  .debug_str:00000000000206fb .LASF685
     /tmp/ccYIdjbY.s:90326  .debug_str:000000000001225f .LASF686
     /tmp/ccYIdjbY.s:103838  .debug_str:000000000004a018 .LASF687
     /tmp/ccYIdjbY.s:92208  .debug_str:0000000000019f4c .LASF688
     /tmp/ccYIdjbY.s:102246  .debug_str:0000000000043185 .LASF689
     /tmp/ccYIdjbY.s:93918  .debug_str:000000000002149f .LASF690
     /tmp/ccYIdjbY.s:103948  .debug_str:000000000004a80a .LASF691
     /tmp/ccYIdjbY.s:95790  .debug_str:0000000000028b28 .LASF692
     /tmp/ccYIdjbY.s:87506  .debug_str:0000000000006cd1 .LASF693
     /tmp/ccYIdjbY.s:97638  .debug_str:00000000000306d9 .LASF694
     /tmp/ccYIdjbY.s:89184  .debug_str:000000000000dd84 .LASF695
     /tmp/ccYIdjbY.s:104222  .debug_str:000000000004ba95 .LASF696
     /tmp/ccYIdjbY.s:101808  .debug_str:0000000000041607 .LASF697
     /tmp/ccYIdjbY.s:87550  .debug_str:0000000000006f93 .LASF698
     /tmp/ccYIdjbY.s:97698  .debug_str:0000000000030a98 .LASF699
     /tmp/ccYIdjbY.s:89426  .debug_str:000000000000e9ae .LASF700
     /tmp/ccYIdjbY.s:99622  .debug_str:0000000000038301 .LASF701
     /tmp/ccYIdjbY.s:100138  .debug_str:000000000003a61f .LASF702
     /tmp/ccYIdjbY.s:92288  .debug_str:000000000001a42f .LASF703
     /tmp/ccYIdjbY.s:92956  .debug_str:000000000001d2d9 .LASF704
     /tmp/ccYIdjbY.s:103132  .debug_str:0000000000046cb4 .LASF705
     /tmp/ccYIdjbY.s:88512  .debug_str:000000000000b0c1 .LASF706
     /tmp/ccYIdjbY.s:91480  .debug_str:0000000000016e28 .LASF707
     /tmp/ccYIdjbY.s:101528  .debug_str:00000000000403b6 .LASF708
     /tmp/ccYIdjbY.s:102426  .debug_str:0000000000043d36 .LASF709
     /tmp/ccYIdjbY.s:104180  .debug_str:000000000004b7b4 .LASF710
     /tmp/ccYIdjbY.s:101002  .debug_str:000000000003dfc6 .LASF711
     /tmp/ccYIdjbY.s:94088  .debug_str:0000000000022017 .LASF712
     /tmp/ccYIdjbY.s:87132  .debug_str:0000000000005224 .LASF713
     /tmp/ccYIdjbY.s:98658  .debug_str:0000000000034ab9 .LASF714
     /tmp/ccYIdjbY.s:97822  .debug_str:0000000000031332 .LASF715
     /tmp/ccYIdjbY.s:91402  .debug_str:0000000000016874 .LASF716
     /tmp/ccYIdjbY.s:90620  .debug_str:0000000000013548 .LASF717
     /tmp/ccYIdjbY.s:102072  .debug_str:00000000000426c4 .LASF718
     /tmp/ccYIdjbY.s:94984  .debug_str:00000000000255c4 .LASF719
     /tmp/ccYIdjbY.s:90696  .debug_str:0000000000013a40 .LASF720
     /tmp/ccYIdjbY.s:89624  .debug_str:000000000000f608 .LASF721
     /tmp/ccYIdjbY.s:98182  .debug_str:0000000000032b20 .LASF722
     /tmp/ccYIdjbY.s:103280  .debug_str:000000000004779b .LASF723
     /tmp/ccYIdjbY.s:91412  .debug_str:0000000000016914 .LASF724
     /tmp/ccYIdjbY.s:91690  .debug_str:0000000000017b4c .LASF725
     /tmp/ccYIdjbY.s:103860  .debug_str:000000000004a187 .LASF726
     /tmp/ccYIdjbY.s:95620  .debug_str:0000000000028081 .LASF727
     /tmp/ccYIdjbY.s:87196  .debug_str:00000000000056f7 .LASF728
     /tmp/ccYIdjbY.s:97396  .debug_str:000000000002f570 .LASF729
     /tmp/ccYIdjbY.s:89090  .debug_str:000000000000d724 .LASF730
     /tmp/ccYIdjbY.s:99300  .debug_str:0000000000036ec1 .LASF731
     /tmp/ccYIdjbY.s:93316  .debug_str:000000000001ebe6 .LASF732
     /tmp/ccYIdjbY.s:100920  .debug_str:000000000003d9bf .LASF733
     /tmp/ccYIdjbY.s:92632  .debug_str:000000000001bbf0 .LASF734
     /tmp/ccYIdjbY.s:95246  .debug_str:0000000000026787 .LASF735
     /tmp/ccYIdjbY.s:86848  .debug_str:0000000000003eb5 .LASF736
     /tmp/ccYIdjbY.s:97002  .debug_str:000000000002db89 .LASF737
     /tmp/ccYIdjbY.s:88522  .debug_str:000000000000b184 .LASF738
     /tmp/ccYIdjbY.s:101098  .debug_str:000000000003e621 .LASF739
     /tmp/ccYIdjbY.s:90552  .debug_str:0000000000013121 .LASF740
     /tmp/ccYIdjbY.s:100572  .debug_str:000000000003c317 .LASF741
     /tmp/ccYIdjbY.s:92286  .debug_str:000000000001a413 .LASF742
     /tmp/ccYIdjbY.s:102302  .debug_str:0000000000043546 .LASF743
     /tmp/ccYIdjbY.s:93978  .debug_str:0000000000021867 .LASF744
     /tmp/ccYIdjbY.s:90610  .debug_str:00000000000134cf .LASF745
     /tmp/ccYIdjbY.s:100622  .debug_str:000000000003c665 .LASF746
     /tmp/ccYIdjbY.s:92492  .debug_str:000000000001b292 .LASF747
     /tmp/ccYIdjbY.s:88318  .debug_str:000000000000a312 .LASF748
     /tmp/ccYIdjbY.s:94228  .debug_str:0000000000022981 .LASF749
     /tmp/ccYIdjbY.s:91232  .debug_str:0000000000015cc7 .LASF750
     /tmp/ccYIdjbY.s:96074  .debug_str:0000000000029d9e .LASF751
     /tmp/ccYIdjbY.s:87760  .debug_str:0000000000007c58 .LASF752
     /tmp/ccYIdjbY.s:97930  .debug_str:0000000000031a52 .LASF753
     /tmp/ccYIdjbY.s:89492  .debug_str:000000000000ed2c .LASF754
     /tmp/ccYIdjbY.s:90868  .debug_str:00000000000144df .LASF755
     /tmp/ccYIdjbY.s:96276  .debug_str:000000000002ab29 .LASF756
     /tmp/ccYIdjbY.s:90618  .debug_str:000000000001351d .LASF757
     /tmp/ccYIdjbY.s:86660  .debug_str:0000000000003220 .LASF758
     /tmp/ccYIdjbY.s:97980  .debug_str:0000000000031daa .LASF759
     /tmp/ccYIdjbY.s:91990  .debug_str:0000000000018f47 .LASF760
     /tmp/ccYIdjbY.s:97872  .debug_str:00000000000316ce .LASF761
     /tmp/ccYIdjbY.s:94428  .debug_str:00000000000235b5 .LASF762
     /tmp/ccYIdjbY.s:99454  .debug_str:00000000000377ba .LASF763
     /tmp/ccYIdjbY.s:93912  .debug_str:0000000000021421 .LASF764
     /tmp/ccYIdjbY.s:100428  .debug_str:000000000003ba2f .LASF765
     /tmp/ccYIdjbY.s:93404  .debug_str:000000000001f2ab .LASF766
     /tmp/ccYIdjbY.s:100116  .debug_str:000000000003a4c8 .LASF767
     /tmp/ccYIdjbY.s:89982  .debug_str:0000000000010a9e .LASF768
     /tmp/ccYIdjbY.s:102906  .debug_str:0000000000045e2f .LASF769
     /tmp/ccYIdjbY.s:101716  .debug_str:0000000000040f8b .LASF770
     /tmp/ccYIdjbY.s:92068  .debug_str:00000000000194c2 .LASF771
     /tmp/ccYIdjbY.s:91844  .debug_str:000000000001854c .LASF772
     /tmp/ccYIdjbY.s:91454  .debug_str:0000000000016c18 .LASF773
     /tmp/ccYIdjbY.s:91236  .debug_str:0000000000015ced .LASF774
     /tmp/ccYIdjbY.s:90852  .debug_str:0000000000014386 .LASF775
     /tmp/ccYIdjbY.s:90628  .debug_str:00000000000135a6 .LASF776
     /tmp/ccYIdjbY.s:90244  .debug_str:0000000000011cd5 .LASF777
     /tmp/ccYIdjbY.s:90006  .debug_str:0000000000010bf3 .LASF778
     /tmp/ccYIdjbY.s:89582  .debug_str:000000000000f377 .LASF779
     /tmp/ccYIdjbY.s:89830  .debug_str:00000000000100e2 .LASF780
     /tmp/ccYIdjbY.s:88100  .debug_str:0000000000009425 .LASF781
     /tmp/ccYIdjbY.s:86494  .debug_str:00000000000025e3 .LASF782
     /tmp/ccYIdjbY.s:103168  .debug_str:0000000000046f2d .LASF783
     /tmp/ccYIdjbY.s:88498  .debug_str:000000000000af90 .LASF784
     /tmp/ccYIdjbY.s:93094  .debug_str:000000000001dc01 .LASF785
     /tmp/ccYIdjbY.s:97852  .debug_str:000000000003154f .LASF786
     /tmp/ccYIdjbY.s:102472  .debug_str:000000000004408c .LASF787
     /tmp/ccYIdjbY.s:88558  .debug_str:000000000000b434 .LASF788
     /tmp/ccYIdjbY.s:93346  .debug_str:000000000001ee06 .LASF789
     /tmp/ccYIdjbY.s:88538  .debug_str:000000000000b2ba .LASF790
     /tmp/ccYIdjbY.s:98850  .debug_str:0000000000035624 .LASF791
     /tmp/ccYIdjbY.s:103284  .debug_str:00000000000477e8 .LASF792
     /tmp/ccYIdjbY.s:100056  .debug_str:000000000003a13e .LASF793
     /tmp/ccYIdjbY.s:93366  .debug_str:000000000001f030 .LASF794
     /tmp/ccYIdjbY.s:103564  .debug_str:0000000000048b6e .LASF795
     /tmp/ccYIdjbY.s:95346  .debug_str:0000000000026e4e .LASF796
     /tmp/ccYIdjbY.s:87160  .debug_str:00000000000053ee .LASF797
     /tmp/ccYIdjbY.s:97326  .debug_str:000000000002f0a0 .LASF798
     /tmp/ccYIdjbY.s:89072  .debug_str:000000000000d5cb .LASF799
     /tmp/ccYIdjbY.s:93140  .debug_str:000000000001df6b .LASF800
     /tmp/ccYIdjbY.s:103358  .debug_str:0000000000047cca .LASF801
     /tmp/ccYIdjbY.s:96672  .debug_str:000000000002c483 .LASF802
     /tmp/ccYIdjbY.s:94412  .debug_str:00000000000234b6 .LASF803
     /tmp/ccYIdjbY.s:99876  .debug_str:00000000000394f2 .LASF804
     /tmp/ccYIdjbY.s:97726  .debug_str:0000000000030c7c .LASF805
     /tmp/ccYIdjbY.s:95806  .debug_str:0000000000028bf7 .LASF806
     /tmp/ccYIdjbY.s:93622  .debug_str:0000000000020112 .LASF807
     /tmp/ccYIdjbY.s:97280  .debug_str:000000000002edec .LASF808
     /tmp/ccYIdjbY.s:95820  .debug_str:0000000000028cb2 .LASF809
     /tmp/ccYIdjbY.s:89578  .debug_str:000000000000f30a .LASF810
     /tmp/ccYIdjbY.s:89334  .debug_str:000000000000e443 .LASF811
     /tmp/ccYIdjbY.s:90968  .debug_str:0000000000014b82 .LASF812
     /tmp/ccYIdjbY.s:101994  .debug_str:0000000000042144 .LASF813
     /tmp/ccYIdjbY.s:87882  .debug_str:000000000000850c .LASF814
     /tmp/ccYIdjbY.s:96090  .debug_str:0000000000029e9e .LASF815
     /tmp/ccYIdjbY.s:93212  .debug_str:000000000001e3d6 .LASF816
     /tmp/ccYIdjbY.s:92734  .debug_str:000000000001c2ab .LASF817
     /tmp/ccYIdjbY.s:100934  .debug_str:000000000003da7a .LASF818
     /tmp/ccYIdjbY.s:100532  .debug_str:000000000003c073 .LASF819
     /tmp/ccYIdjbY.s:86668  .debug_str:00000000000032b6 .LASF820
     /tmp/ccYIdjbY.s:96352  .debug_str:000000000002af3f .LASF821
     /tmp/ccYIdjbY.s:104248  .debug_str:000000000004bc21 .LASF822
     /tmp/ccYIdjbY.s:104022  .debug_str:000000000004ace1 .LASF823
     /tmp/ccYIdjbY.s:95394  .debug_str:0000000000027243 .LASF824
     /tmp/ccYIdjbY.s:93042  .debug_str:000000000001d7d8 .LASF825
     /tmp/ccYIdjbY.s:91948  .debug_str:0000000000018c74 .LASF826
     /tmp/ccYIdjbY.s:97536  .debug_str:000000000002ff3a .LASF827
     /tmp/ccYIdjbY.s:95260  .debug_str:00000000000268a8 .LASF828
     /tmp/ccYIdjbY.s:99930  .debug_str:00000000000398d1 .LASF829
     /tmp/ccYIdjbY.s:86120  .debug_str:0000000000000b9e .LASF830
     /tmp/ccYIdjbY.s:96186  .debug_str:000000000002a52d .LASF831
     /tmp/ccYIdjbY.s:101754  .debug_str:000000000004127c .LASF832
     /tmp/ccYIdjbY.s:97762  .debug_str:0000000000030ee5 .LASF833
     /tmp/ccYIdjbY.s:88996  .debug_str:000000000000d17c .LASF834
     /tmp/ccYIdjbY.s:101584  .debug_str:000000000004074a .LASF835
     /tmp/ccYIdjbY.s:95236  .debug_str:00000000000266f8 .LASF836
     /tmp/ccYIdjbY.s:86178  .debug_str:0000000000000fb1 .LASF837
     /tmp/ccYIdjbY.s:94668  .debug_str:000000000002413d .LASF838
     /tmp/ccYIdjbY.s:98632  .debug_str:0000000000034929 .LASF839
     /tmp/ccYIdjbY.s:101190  .debug_str:000000000003ecc7 .LASF840
     /tmp/ccYIdjbY.s:87474  .debug_str:0000000000006a36 .LASF841
     /tmp/ccYIdjbY.s:89342  .debug_str:000000000000e4d4 .LASF842
     /tmp/ccYIdjbY.s:94174  .debug_str:0000000000022572 .LASF843
     /tmp/ccYIdjbY.s:95104  .debug_str:0000000000025eea .LASF844
     /tmp/ccYIdjbY.s:101130  .debug_str:000000000003e851 .LASF845
     /tmp/ccYIdjbY.s:95486  .debug_str:0000000000027764 .LASF846
     /tmp/ccYIdjbY.s:94346  .debug_str:00000000000230d5 .LASF847
     /tmp/ccYIdjbY.s:93302  .debug_str:000000000001eabc .LASF848
     /tmp/ccYIdjbY.s:86708  .debug_str:00000000000034d1 .LASF849
     /tmp/ccYIdjbY.s:99848  .debug_str:00000000000392be .LASF850
     /tmp/ccYIdjbY.s:91932  .debug_str:0000000000018b53 .LASF851
     /tmp/ccYIdjbY.s:101362  .debug_str:000000000003f7a9 .LASF852
     /tmp/ccYIdjbY.s:103348  .debug_str:0000000000047c3f .LASF853
     /tmp/ccYIdjbY.s:93874  .debug_str:0000000000021178 .LASF854
     /tmp/ccYIdjbY.s:93798  .debug_str:0000000000020c0e .LASF855
     /tmp/ccYIdjbY.s:98872  .debug_str:00000000000357cc .LASF856
     /tmp/ccYIdjbY.s:96626  .debug_str:000000000002c12f .LASF857
     /tmp/ccYIdjbY.s:102772  .debug_str:00000000000454fc .LASF858
     /tmp/ccYIdjbY.s:90508  .debug_str:0000000000012e58 .LASF859
     /tmp/ccYIdjbY.s:96832  .debug_str:000000000002cf6e .LASF860
     /tmp/ccYIdjbY.s:94684  .debug_str:0000000000024270 .LASF861
     /tmp/ccYIdjbY.s:93098  .debug_str:000000000001dc80 .LASF862
     /tmp/ccYIdjbY.s:92268  .debug_str:000000000001a311 .LASF863
     /tmp/ccYIdjbY.s:87038  .debug_str:0000000000004c02 .LASF864
     /tmp/ccYIdjbY.s:93342  .debug_str:000000000001edb6 .LASF865
     /tmp/ccYIdjbY.s:96740  .debug_str:000000000002c951 .LASF866
     /tmp/ccYIdjbY.s:104106  .debug_str:000000000004b23c .LASF867
     /tmp/ccYIdjbY.s:92000  .debug_str:0000000000019005 .LASF868
     /tmp/ccYIdjbY.s:87618  .debug_str:00000000000073be .LASF869
     /tmp/ccYIdjbY.s:92944  .debug_str:000000000001d1ce .LASF870
     /tmp/ccYIdjbY.s:86248  .debug_str:0000000000001461 .LASF871
     /tmp/ccYIdjbY.s:99282  .debug_str:0000000000036d87 .LASF872
     /tmp/ccYIdjbY.s:86486  .debug_str:000000000000253c .LASF873
     /tmp/ccYIdjbY.s:95828  .debug_str:0000000000028d4c .LASF874
     /tmp/ccYIdjbY.s:97622  .debug_str:0000000000030594 .LASF875
     /tmp/ccYIdjbY.s:104224  .debug_str:000000000004baae .LASF876
     /tmp/ccYIdjbY.s:92574  .debug_str:000000000001b886 .LASF877
     /tmp/ccYIdjbY.s:99336  .debug_str:0000000000037035 .LASF878
     /tmp/ccYIdjbY.s:91578  .debug_str:0000000000017443 .LASF879
     /tmp/ccYIdjbY.s:94208  .debug_str:00000000000227df .LASF880
     /tmp/ccYIdjbY.s:100224  .debug_str:000000000003abe5 .LASF881
     /tmp/ccYIdjbY.s:86154  .debug_str:0000000000000e1a .LASF882
     /tmp/ccYIdjbY.s:96020  .debug_str:00000000000299fa .LASF883
     /tmp/ccYIdjbY.s:102612  .debug_str:00000000000449eb .LASF884
     /tmp/ccYIdjbY.s:95096  .debug_str:0000000000025e15 .LASF885
     /tmp/ccYIdjbY.s:102136  .debug_str:0000000000042a8d .LASF886
     /tmp/ccYIdjbY.s:100322  .debug_str:000000000003b30e .LASF887
     /tmp/ccYIdjbY.s:103076  .debug_str:000000000004693f .LASF888
     /tmp/ccYIdjbY.s:86516  .debug_str:00000000000027b1 .LASF889
     /tmp/ccYIdjbY.s:90202  .debug_str:0000000000011a43 .LASF890
     /tmp/ccYIdjbY.s:92792  .debug_str:000000000001c6f1 .LASF891
     /tmp/ccYIdjbY.s:95504  .debug_str:00000000000278bf .LASF892
     /tmp/ccYIdjbY.s:98290  .debug_str:00000000000332a6 .LASF893
     /tmp/ccYIdjbY.s:100848  .debug_str:000000000003d48a .LASF894
     /tmp/ccYIdjbY.s:92152  .debug_str:0000000000019b87 .LASF895
     /tmp/ccYIdjbY.s:94786  .debug_str:00000000000248e0 .LASF896
     /tmp/ccYIdjbY.s:88262  .debug_str:0000000000009f11 .LASF897
     /tmp/ccYIdjbY.s:100210  .debug_str:000000000003ab0d .LASF898
     /tmp/ccYIdjbY.s:102816  .debug_str:0000000000045857 .LASF899
     /tmp/ccYIdjbY.s:87226  .debug_str:0000000000005912 .LASF900
     /tmp/ccYIdjbY.s:89854  .debug_str:0000000000010316 .LASF901
     /tmp/ccYIdjbY.s:92538  .debug_str:000000000001b661 .LASF902
     /tmp/ccYIdjbY.s:95354  .debug_str:0000000000026f1d .LASF903
     /tmp/ccYIdjbY.s:98012  .debug_str:0000000000031f55 .LASF904
     /tmp/ccYIdjbY.s:89134  .debug_str:000000000000da12 .LASF905
     /tmp/ccYIdjbY.s:91860  .debug_str:0000000000018674 .LASF906
     /tmp/ccYIdjbY.s:94458  .debug_str:000000000002378c .LASF907
     /tmp/ccYIdjbY.s:89742  .debug_str:000000000000fc18 .LASF908
     /tmp/ccYIdjbY.s:99978  .debug_str:0000000000039bdb .LASF909
     /tmp/ccYIdjbY.s:102698  .debug_str:0000000000044fa7 .LASF910
     /tmp/ccYIdjbY.s:96412  .debug_str:000000000002b2c5 .LASF911
     /tmp/ccYIdjbY.s:89722  .debug_str:000000000000fa9a .LASF912
     /tmp/ccYIdjbY.s:92412  .debug_str:000000000001ad6f .LASF913
     /tmp/ccYIdjbY.s:95066  .debug_str:0000000000025bd4 .LASF914
     /tmp/ccYIdjbY.s:86282  .debug_str:000000000000169d .LASF915
     /tmp/ccYIdjbY.s:88852  .debug_str:000000000000c7ff .LASF916
     /tmp/ccYIdjbY.s:91724  .debug_str:0000000000017cc9 .LASF917
     /tmp/ccYIdjbY.s:103430  .debug_str:000000000004820d .LASF918
     /tmp/ccYIdjbY.s:97054  .debug_str:000000000002dedb .LASF919
     /tmp/ccYIdjbY.s:99836  .debug_str:00000000000391e2 .LASF920
     /tmp/ccYIdjbY.s:102408  .debug_str:0000000000043bec .LASF921
     /tmp/ccYIdjbY.s:86804  .debug_str:0000000000003b88 .LASF922
     /tmp/ccYIdjbY.s:89428  .debug_str:000000000000e9c7 .LASF923
     /tmp/ccYIdjbY.s:92126  .debug_str:00000000000199a1 .LASF924
     /tmp/ccYIdjbY.s:101746  .debug_str:00000000000411d6 .LASF925
     /tmp/ccYIdjbY.s:93066  .debug_str:000000000001d9d4 .LASF926
     /tmp/ccYIdjbY.s:88720  .debug_str:000000000000bf0f .LASF927
     /tmp/ccYIdjbY.s:88920  .debug_str:000000000000cc7a .LASF928
     /tmp/ccYIdjbY.s:94054  .debug_str:0000000000021da8 .LASF929
     /tmp/ccYIdjbY.s:96948  .debug_str:000000000002d746 .LASF930
     /tmp/ccYIdjbY.s:99602  .debug_str:000000000003818e .LASF931
     /tmp/ccYIdjbY.s:102290  .debug_str:00000000000434a0 .LASF932
     /tmp/ccYIdjbY.s:86532  .debug_str:00000000000028b1 .LASF933
     /tmp/ccYIdjbY.s:89100  .debug_str:000000000000d7dc .LASF934
     /tmp/ccYIdjbY.s:98878  .debug_str:0000000000035842 .LASF935
     /tmp/ccYIdjbY.s:101460  .debug_str:000000000003fed8 .LASF936
     /tmp/ccYIdjbY.s:98312  .debug_str:0000000000033440 .LASF937
     /tmp/ccYIdjbY.s:88448  .debug_str:000000000000abed .LASF938
     /tmp/ccYIdjbY.s:93196  .debug_str:000000000001e2d2 .LASF939
     /tmp/ccYIdjbY.s:96804  .debug_str:000000000002cd33 .LASF940
     /tmp/ccYIdjbY.s:96264  .debug_str:000000000002a9fa .LASF941
     /tmp/ccYIdjbY.s:95736  .debug_str:00000000000287b2 .LASF942
     /tmp/ccYIdjbY.s:94994  .debug_str:0000000000025667 .LASF943
     /tmp/ccYIdjbY.s:103260  .debug_str:0000000000047649 .LASF944
     /tmp/ccYIdjbY.s:90336  .debug_str:00000000000122da .LASF945
     /tmp/ccYIdjbY.s:98172  .debug_str:0000000000032a4a .LASF946
     /tmp/ccYIdjbY.s:88848  .debug_str:000000000000c7c2 .LASF947
     /tmp/ccYIdjbY.s:96140  .debug_str:000000000002a1cb .LASF948
     /tmp/ccYIdjbY.s:89828  .debug_str:00000000000100b3 .LASF949
     /tmp/ccYIdjbY.s:101020  .debug_str:000000000003e127 .LASF950
     /tmp/ccYIdjbY.s:88762  .debug_str:000000000000c1bc .LASF951
     /tmp/ccYIdjbY.s:97820  .debug_str:0000000000031305 .LASF952
     /tmp/ccYIdjbY.s:99006  .debug_str:0000000000035f09 .LASF953
     /tmp/ccYIdjbY.s:99634  .debug_str:00000000000383ce .LASF954
     /tmp/ccYIdjbY.s:103314  .debug_str:0000000000047a2a .LASF955
     /tmp/ccYIdjbY.s:101274  .debug_str:000000000003f258 .LASF956
     /tmp/ccYIdjbY.s:90374  .debug_str:00000000000125bc .LASF957
     /tmp/ccYIdjbY.s:98762  .debug_str:000000000003506f .LASF958
     /tmp/ccYIdjbY.s:88474  .debug_str:000000000000adf3 .LASF959
     /tmp/ccYIdjbY.s:96976  .debug_str:000000000002d90a .LASF960
     /tmp/ccYIdjbY.s:86846  .debug_str:0000000000003e6c .LASF961
     /tmp/ccYIdjbY.s:95102  .debug_str:0000000000025ea1 .LASF962
     /tmp/ccYIdjbY.s:103384  .debug_str:0000000000047ecc .LASF963
     /tmp/ccYIdjbY.s:93252  .debug_str:000000000001e710 .LASF964
     /tmp/ccYIdjbY.s:102716  .debug_str:00000000000450d0 .LASF965
     /tmp/ccYIdjbY.s:86704  .debug_str:000000000000347a .LASF966
     /tmp/ccYIdjbY.s:86410  .debug_str:0000000000001faa .LASF967
     /tmp/ccYIdjbY.s:92676  .debug_str:000000000001bee2 .LASF968
     /tmp/ccYIdjbY.s:104244  .debug_str:000000000004bbb9 .LASF969
     /tmp/ccYIdjbY.s:86764  .debug_str:00000000000038d1 .LASF970
     /tmp/ccYIdjbY.s:94126  .debug_str:0000000000022249 .LASF971
     /tmp/ccYIdjbY.s:90590  .debug_str:0000000000013353 .LASF972
     /tmp/ccYIdjbY.s:88108  .debug_str:00000000000094f6 .LASF973
     /tmp/ccYIdjbY.s:92634  .debug_str:000000000001bc0b .LASF974
     /tmp/ccYIdjbY.s:100608  .debug_str:000000000003c532 .LASF975
     /tmp/ccYIdjbY.s:88408  .debug_str:000000000000a8d8 .LASF976
     /tmp/ccYIdjbY.s:91272  .debug_str:0000000000015f47 .LASF977
     /tmp/ccYIdjbY.s:97534  .debug_str:000000000002feee .LASF978
     /tmp/ccYIdjbY.s:103494  .debug_str:0000000000048638 .LASF979
     /tmp/ccYIdjbY.s:91396  .debug_str:00000000000167e7 .LASF980
     /tmp/ccYIdjbY.s:97514  .debug_str:000000000002fd37 .LASF981
     /tmp/ccYIdjbY.s:103684  .debug_str:000000000004935e .LASF982
     /tmp/ccYIdjbY.s:91730  .debug_str:0000000000017d41 .LASF983
     /tmp/ccYIdjbY.s:98026  .debug_str:0000000000032013 .LASF984
     /tmp/ccYIdjbY.s:98408  .debug_str:0000000000033a45 .LASF985
     /tmp/ccYIdjbY.s:92092  .debug_str:000000000001966d .LASF986
     /tmp/ccYIdjbY.s:92056  .debug_str:0000000000019411 .LASF987
     /tmp/ccYIdjbY.s:87010  .debug_str:0000000000004a12 .LASF988
     /tmp/ccYIdjbY.s:88370  .debug_str:000000000000a6a4 .LASF989
     /tmp/ccYIdjbY.s:88616  .debug_str:000000000000b86e .LASF990
     /tmp/ccYIdjbY.s:87362  .debug_str:0000000000006223 .LASF991
     /tmp/ccYIdjbY.s:101178  .debug_str:000000000003ebbc .LASF992
     /tmp/ccYIdjbY.s:91390  .debug_str:0000000000016776 .LASF993
     /tmp/ccYIdjbY.s:92814  .debug_str:000000000001c863 .LASF994
     /tmp/ccYIdjbY.s:99346  .debug_str:00000000000370da .LASF995
     /tmp/ccYIdjbY.s:96068  .debug_str:0000000000029d46 .LASF996
     /tmp/ccYIdjbY.s:92700  .debug_str:000000000001c066 .LASF997
     /tmp/ccYIdjbY.s:101866  .debug_str:000000000004199b .LASF998
     /tmp/ccYIdjbY.s:92224  .debug_str:000000000001a02d .LASF999
     /tmp/ccYIdjbY.s:93060  .debug_str:000000000001d93b .LASF1000
     /tmp/ccYIdjbY.s:101798  .debug_str:000000000004154b .LASF1001
     /tmp/ccYIdjbY.s:94720  .debug_str:00000000000244fb .LASF1002
     /tmp/ccYIdjbY.s:97874  .debug_str:0000000000031707 .LASF1003
     /tmp/ccYIdjbY.s:89588  .debug_str:000000000000f3e6 .LASF1004
     /tmp/ccYIdjbY.s:100516  .debug_str:000000000003bf46 .LASF1005
     /tmp/ccYIdjbY.s:102398  .debug_str:0000000000043b64 .LASF1006
     /tmp/ccYIdjbY.s:95742  .debug_str:0000000000028843 .LASF1007
     /tmp/ccYIdjbY.s:101000  .debug_str:000000000003df9f .LASF1008
     /tmp/ccYIdjbY.s:95254  .debug_str:0000000000026813 .LASF1009
     /tmp/ccYIdjbY.s:87942  .debug_str:00000000000088fa .LASF1010
     /tmp/ccYIdjbY.s:99286  .debug_str:0000000000036ddb .LASF1011
     /tmp/ccYIdjbY.s:85976  .debug_str:0000000000000252 .LASF1012
     /tmp/ccYIdjbY.s:93966  .debug_str:000000000002174e .LASF1013
     /tmp/ccYIdjbY.s:87172  .debug_str:0000000000005556 .LASF1014
     /tmp/ccYIdjbY.s:91092  .debug_str:0000000000015341 .LASF1015
     /tmp/ccYIdjbY.s:102806  .debug_str:000000000004577c .LASF1016
     /tmp/ccYIdjbY.s:94916  .debug_str:0000000000025215 .LASF1017
     /tmp/ccYIdjbY.s:93512  .debug_str:000000000001f945 .LASF1018
     /tmp/ccYIdjbY.s:90298  .debug_str:0000000000012086 .LASF1019
     /tmp/ccYIdjbY.s:87546  .debug_str:0000000000006f5e .LASF1020
     /tmp/ccYIdjbY.s:94944  .debug_str:00000000000253d3 .LASF1021
     /tmp/ccYIdjbY.s:97342  .debug_str:000000000002f1b3 .LASF1022
     /tmp/ccYIdjbY.s:90864  .debug_str:000000000001446d .LASF1023
     /tmp/ccYIdjbY.s:91146  .debug_str:00000000000156db .LASF1024
     /tmp/ccYIdjbY.s:92332  .debug_str:000000000001a736 .LASF1025
     /tmp/ccYIdjbY.s:95524  .debug_str:0000000000027a0d .LASF1026
     /tmp/ccYIdjbY.s:91864  .debug_str:00000000000186ba .LASF1027
     /tmp/ccYIdjbY.s:86404  .debug_str:0000000000001f41 .LASF1028
     /tmp/ccYIdjbY.s:97664  .debug_str:0000000000030869 .LASF1029
     /tmp/ccYIdjbY.s:100264  .debug_str:000000000003af0f .LASF1030
     /tmp/ccYIdjbY.s:102182  .debug_str:0000000000042d44 .LASF1031
     /tmp/ccYIdjbY.s:103036  .debug_str:000000000004665c .LASF1032
     /tmp/ccYIdjbY.s:86436  .debug_str:00000000000021be .LASF1033
     /tmp/ccYIdjbY.s:94766  .debug_str:000000000002478b .LASF1034
     /tmp/ccYIdjbY.s:100862  .debug_str:000000000003d593 .LASF1035
     /tmp/ccYIdjbY.s:97612  .debug_str:00000000000304c3 .LASF1036
     /tmp/ccYIdjbY.s:94200  .debug_str:000000000002275b .LASF1037
     /tmp/ccYIdjbY.s:90924  .debug_str:0000000000014860 .LASF1038
     /tmp/ccYIdjbY.s:102320  .debug_str:0000000000043652 .LASF1039
     /tmp/ccYIdjbY.s:89008  .debug_str:000000000000d253 .LASF1040
     /tmp/ccYIdjbY.s:87012  .debug_str:0000000000004a60 .LASF1041
     /tmp/ccYIdjbY.s:89766  .debug_str:000000000000fd5d .LASF1042
     /tmp/ccYIdjbY.s:101226  .debug_str:000000000003ef40 .LASF1043
     /tmp/ccYIdjbY.s:103718  .debug_str:0000000000049652 .LASF1044
     /tmp/ccYIdjbY.s:91464  .debug_str:0000000000016d02 .LASF1045
     /tmp/ccYIdjbY.s:97594  .debug_str:0000000000030385 .LASF1046
     /tmp/ccYIdjbY.s:103602  .debug_str:0000000000048e79 .LASF1047
     /tmp/ccYIdjbY.s:91368  .debug_str:00000000000165e0 .LASF1048
     /tmp/ccYIdjbY.s:90204  .debug_str:0000000000011a78 .LASF1049
     /tmp/ccYIdjbY.s:96358  .debug_str:000000000002afb0 .LASF1050
     /tmp/ccYIdjbY.s:102356  .debug_str:0000000000043875 .LASF1051
     /tmp/ccYIdjbY.s:90074  .debug_str:0000000000011129 .LASF1052
     /tmp/ccYIdjbY.s:96236  .debug_str:000000000002a825 .LASF1053
     /tmp/ccYIdjbY.s:101576  .debug_str:00000000000406f8 .LASF1054
     /tmp/ccYIdjbY.s:87526  .debug_str:0000000000006df2 .LASF1055
     /tmp/ccYIdjbY.s:101246  .debug_str:000000000003f0b8 .LASF1056
     /tmp/ccYIdjbY.s:96982  .debug_str:000000000002d9a4 .LASF1057
     /tmp/ccYIdjbY.s:93272  .debug_str:000000000001e8af .LASF1058
     /tmp/ccYIdjbY.s:89664  .debug_str:000000000000f77e .LASF1059
     /tmp/ccYIdjbY.s:88868  .debug_str:000000000000c91a .LASF1060
     /tmp/ccYIdjbY.s:100762  .debug_str:000000000003cee3 .LASF1061
     /tmp/ccYIdjbY.s:93096  .debug_str:000000000001dc58 .LASF1062
     /tmp/ccYIdjbY.s:103610  .debug_str:0000000000048ef2 .LASF1063
     /tmp/ccYIdjbY.s:93532  .debug_str:000000000001fab1 .LASF1064
     /tmp/ccYIdjbY.s:88026  .debug_str:0000000000008ecb .LASF1065
     /tmp/ccYIdjbY.s:98860  .debug_str:0000000000035725 .LASF1066
     /tmp/ccYIdjbY.s:90996  .debug_str:0000000000014d3b .LASF1067
     /tmp/ccYIdjbY.s:101660  .debug_str:0000000000040c3c .LASF1068
     /tmp/ccYIdjbY.s:93848  .debug_str:0000000000020fbf .LASF1069
     /tmp/ccYIdjbY.s:97854  .debug_str:00000000000315a6 .LASF1070
     /tmp/ccYIdjbY.s:88246  .debug_str:0000000000009db7 .LASF1071
     /tmp/ccYIdjbY.s:97516  .debug_str:000000000002fd85 .LASF1072
     /tmp/ccYIdjbY.s:87980  .debug_str:0000000000008b78 .LASF1073
     /tmp/ccYIdjbY.s:97112  .debug_str:000000000002e2d7 .LASF1074
     /tmp/ccYIdjbY.s:87762  .debug_str:0000000000007c74 .LASF1075
     /tmp/ccYIdjbY.s:96878  .debug_str:000000000002d345 .LASF1076
     /tmp/ccYIdjbY.s:87534  .debug_str:0000000000006e9a .LASF1077
     /tmp/ccYIdjbY.s:99684  .debug_str:00000000000387a6 .LASF1078
     /tmp/ccYIdjbY.s:87302  .debug_str:0000000000005e52 .LASF1079
     /tmp/ccYIdjbY.s:96396  .debug_str:000000000002b1c7 .LASF1080
     /tmp/ccYIdjbY.s:88712  .debug_str:000000000000be64 .LASF1081
     /tmp/ccYIdjbY.s:92910  .debug_str:000000000001cfac .LASF1082
     /tmp/ccYIdjbY.s:88306  .debug_str:000000000000a252 .LASF1083
     /tmp/ccYIdjbY.s:97582  .debug_str:000000000003028e .LASF1084
     /tmp/ccYIdjbY.s:100314  .debug_str:000000000003b268 .LASF1085
     /tmp/ccYIdjbY.s:90964  .debug_str:0000000000014b2d .LASF1086
     /tmp/ccYIdjbY.s:87824  .debug_str:0000000000008121 .LASF1087
     /tmp/ccYIdjbY.s:97092  .debug_str:000000000002e13c .LASF1088
     /tmp/ccYIdjbY.s:87590  .debug_str:00000000000071d9 .LASF1089
     /tmp/ccYIdjbY.s:88866  .debug_str:000000000000c8f0 .LASF1090
     /tmp/ccYIdjbY.s:89020  .debug_str:000000000000d2ec .LASF1091
     /tmp/ccYIdjbY.s:98148  .debug_str:0000000000032885 .LASF1092
     /tmp/ccYIdjbY.s:88792  .debug_str:000000000000c3f4 .LASF1093
     /tmp/ccYIdjbY.s:97906  .debug_str:0000000000031907 .LASF1094
     /tmp/ccYIdjbY.s:92930  .debug_str:000000000001d0b9 .LASF1095
     /tmp/ccYIdjbY.s:97656  .debug_str:00000000000307d5 .LASF1096
     /tmp/ccYIdjbY.s:88294  .debug_str:000000000000a195 .LASF1097
     /tmp/ccYIdjbY.s:97404  .debug_str:000000000002f5ef .LASF1098
     /tmp/ccYIdjbY.s:88030  .debug_str:0000000000008f09 .LASF1099
     /tmp/ccYIdjbY.s:97150  .debug_str:000000000002e5af .LASF1100
     /tmp/ccYIdjbY.s:89376  .debug_str:000000000000e74b .LASF1101
     /tmp/ccYIdjbY.s:98598  .debug_str:00000000000346b1 .LASF1102
     /tmp/ccYIdjbY.s:89094  .debug_str:000000000000d766 .LASF1103
     /tmp/ccYIdjbY.s:98358  .debug_str:000000000003373e .LASF1104
     /tmp/ccYIdjbY.s:88856  .debug_str:000000000000c842 .LASF1105
     /tmp/ccYIdjbY.s:98134  .debug_str:0000000000032766 .LASF1106
     /tmp/ccYIdjbY.s:88604  .debug_str:000000000000b7a7 .LASF1107
     /tmp/ccYIdjbY.s:97722  .debug_str:0000000000030c2a .LASF1108
     /tmp/ccYIdjbY.s:88366  .debug_str:000000000000a659 .LASF1109
     /tmp/ccYIdjbY.s:91376  .debug_str:0000000000016682 .LASF1110
     /tmp/ccYIdjbY.s:89878  .debug_str:000000000001045b .LASF1111
     /tmp/ccYIdjbY.s:98948  .debug_str:0000000000035c21 .LASF1112
     /tmp/ccYIdjbY.s:89616  .debug_str:000000000000f568 .LASF1113
     /tmp/ccYIdjbY.s:98678  .debug_str:0000000000034b94 .LASF1114
     /tmp/ccYIdjbY.s:89106  .debug_str:000000000000d83f .LASF1115
     /tmp/ccYIdjbY.s:98416  .debug_str:0000000000033adb .LASF1116
     /tmp/ccYIdjbY.s:94328  .debug_str:0000000000022fd0 .LASF1117
     /tmp/ccYIdjbY.s:98206  .debug_str:0000000000032c94 .LASF1118
     /tmp/ccYIdjbY.s:88676  .debug_str:000000000000bc1c .LASF1119
     /tmp/ccYIdjbY.s:97968  .debug_str:0000000000031cb4 .LASF1120
     /tmp/ccYIdjbY.s:90242  .debug_str:0000000000011cab .LASF1121
     /tmp/ccYIdjbY.s:99460  .debug_str:0000000000037817 .LASF1122
     /tmp/ccYIdjbY.s:89958  .debug_str:00000000000109b6 .LASF1123
     /tmp/ccYIdjbY.s:99018  .debug_str:0000000000036015 .LASF1124
     /tmp/ccYIdjbY.s:89904  .debug_str:0000000000010622 .LASF1125
     /tmp/ccYIdjbY.s:90722  .debug_str:0000000000013bc5 .LASF1126
     /tmp/ccYIdjbY.s:88068  .debug_str:0000000000009172 .LASF1127
     /tmp/ccYIdjbY.s:99540  .debug_str:0000000000037d3b .LASF1128
     /tmp/ccYIdjbY.s:93612  .debug_str:0000000000020025 .LASF1129
     /tmp/ccYIdjbY.s:101510  .debug_str:000000000004026f .LASF1130
     /tmp/ccYIdjbY.s:86640  .debug_str:00000000000030af .LASF1131
     /tmp/ccYIdjbY.s:87004  .debug_str:000000000000498f .LASF1132
     /tmp/ccYIdjbY.s:87416  .debug_str:00000000000065e4 .LASF1133
     /tmp/ccYIdjbY.s:87754  .debug_str:0000000000007bde .LASF1134
     /tmp/ccYIdjbY.s:90498  .debug_str:0000000000012d87 .LASF1135
     /tmp/ccYIdjbY.s:90816  .debug_str:0000000000014149 .LASF1136
     /tmp/ccYIdjbY.s:98230  .debug_str:0000000000032e3c .LASF1137
     /tmp/ccYIdjbY.s:100614  .debug_str:000000000003c5ab .LASF1138
     /tmp/ccYIdjbY.s:103048  .debug_str:0000000000046734 .LASF1139
     /tmp/ccYIdjbY.s:87418  .debug_str:0000000000006615 .LASF1140
     /tmp/ccYIdjbY.s:103234  .debug_str:000000000004745b .LASF1141
     /tmp/ccYIdjbY.s:86800  .debug_str:0000000000003b46 .LASF1142
     /tmp/ccYIdjbY.s:101382  .debug_str:000000000003f90a .LASF1143
     /tmp/ccYIdjbY.s:101996  .debug_str:0000000000042180 .LASF1144
     /tmp/ccYIdjbY.s:100784  .debug_str:000000000003d06c .LASF1145
     /tmp/ccYIdjbY.s:100962  .debug_str:000000000003dc78 .LASF1146
     /tmp/ccYIdjbY.s:91886  .debug_str:000000000001882c .LASF1147
     /tmp/ccYIdjbY.s:91532  .debug_str:00000000000170fe .LASF1148
     /tmp/ccYIdjbY.s:103992  .debug_str:000000000004aaa2 .LASF1149
     /tmp/ccYIdjbY.s:95850  .debug_str:0000000000028f60 .LASF1150
     /tmp/ccYIdjbY.s:89674  .debug_str:000000000000f80b .LASF1151
     /tmp/ccYIdjbY.s:97978  .debug_str:0000000000031d94 .LASF1152
     /tmp/ccYIdjbY.s:88152  .debug_str:00000000000097fa .LASF1153
     /tmp/ccYIdjbY.s:85954  .debug_str:00000000000000c1 .LASF1154
     /tmp/ccYIdjbY.s:93884  .debug_str:0000000000021251 .LASF1155
     /tmp/ccYIdjbY.s:94122  .debug_str:000000000002221e .LASF1156
     /tmp/ccYIdjbY.s:99886  .debug_str:00000000000395d0 .LASF1157
     /tmp/ccYIdjbY.s:101968  .debug_str:0000000000042005 .LASF1158
     /tmp/ccYIdjbY.s:103374  .debug_str:0000000000047e37 .LASF1159
     /tmp/ccYIdjbY.s:93322  .debug_str:000000000001ec54 .LASF1160
     /tmp/ccYIdjbY.s:96914  .debug_str:000000000002d575 .LASF1161
     /tmp/ccYIdjbY.s:89914  .debug_str:0000000000010700 .LASF1163
     /tmp/ccYIdjbY.s:102766  .debug_str:0000000000045494 .LASF1164
     /tmp/ccYIdjbY.s:91122  .debug_str:0000000000015515 .LASF1165
     /tmp/ccYIdjbY.s:95462  .debug_str:000000000002762d .LASF1166
     /tmp/ccYIdjbY.s:90978  .debug_str:0000000000014c2d .LASF1167
     /tmp/ccYIdjbY.s:90920  .debug_str:000000000001484b .LASF1168
     /tmp/ccYIdjbY.s:96884  .debug_str:000000000002d3c2 .LASF1169
     /tmp/ccYIdjbY.s:86006  .debug_str:0000000000000456 .LASF1170
     /tmp/ccYIdjbY.s:91208  .debug_str:0000000000015ae5 .LASF1171
     /tmp/ccYIdjbY.s:93112  .debug_str:000000000001dd82 .LASF1172
     /tmp/ccYIdjbY.s:94192  .debug_str:00000000000226bf .LASF1173
     /tmp/ccYIdjbY.s:101206  .debug_str:000000000003ee09 .LASF1174
     /tmp/ccYIdjbY.s:89418  .debug_str:000000000000e94c .LASF1175
     /tmp/ccYIdjbY.s:95686  .debug_str:00000000000284f3 .LASF1176
     /tmp/ccYIdjbY.s:87442  .debug_str:000000000000681a .LASF1177
     /tmp/ccYIdjbY.s:88284  .debug_str:000000000000a0c2 .LASF1178
     /tmp/ccYIdjbY.s:96030  .debug_str:0000000000029a97 .LASF1179
     /tmp/ccYIdjbY.s:88278  .debug_str:000000000000a069 .LASF1180
     /tmp/ccYIdjbY.s:92960  .debug_str:000000000001d32c .LASF1181
     /tmp/ccYIdjbY.s:97842  .debug_str:0000000000031480 .LASF1182
     /tmp/ccYIdjbY.s:102386  .debug_str:0000000000043a9e .LASF1183
     /tmp/ccYIdjbY.s:86638  .debug_str:0000000000003087 .LASF1184
     /tmp/ccYIdjbY.s:95554  .debug_str:0000000000027bf3 .LASF1185
     /tmp/ccYIdjbY.s:87022  .debug_str:0000000000004b2a .LASF1186
     /tmp/ccYIdjbY.s:89078  .debug_str:000000000000d671 .LASF1187
     /tmp/ccYIdjbY.s:104226  .debug_str:000000000004bae1 .LASF1188
     /tmp/ccYIdjbY.s:95330  .debug_str:0000000000026d70 .LASF1189
     /tmp/ccYIdjbY.s:103938  .debug_str:000000000004a759 .LASF1190
     /tmp/ccYIdjbY.s:95682  .debug_str:00000000000284a8 .LASF1191
     /tmp/ccYIdjbY.s:102452  .debug_str:0000000000043f70 .LASF1192
     /tmp/ccYIdjbY.s:101520  .debug_str:0000000000040319 .LASF1193
     /tmp/ccYIdjbY.s:89442  .debug_str:000000000000eaa4 .LASF1194
     /tmp/ccYIdjbY.s:102932  .debug_str:0000000000045f7e .LASF1195
     /tmp/ccYIdjbY.s:92348  .debug_str:000000000001a866 .LASF1196
     /tmp/ccYIdjbY.s:91894  .debug_str:00000000000188a7 .LASF1197
     /tmp/ccYIdjbY.s:95660  .debug_str:000000000002830f .LASF1198
     /tmp/ccYIdjbY.s:87812  .debug_str:000000000000802b .LASF1199
     /tmp/ccYIdjbY.s:89910  .debug_str:00000000000106a7 .LASF1200
     /tmp/ccYIdjbY.s:97640  .debug_str:00000000000306f2 .LASF1201
     /tmp/ccYIdjbY.s:89176  .debug_str:000000000000dcf5 .LASF1202
     /tmp/ccYIdjbY.s:102824  .debug_str:00000000000458de .LASF1203
     /tmp/ccYIdjbY.s:91956  .debug_str:0000000000018d1f .LASF1204
     /tmp/ccYIdjbY.s:104036  .debug_str:000000000004ae24 .LASF1205
     /tmp/ccYIdjbY.s:89718  .debug_str:000000000000fa47 .LASF1206
     /tmp/ccYIdjbY.s:98014  .debug_str:0000000000031f8a .LASF1207
     /tmp/ccYIdjbY.s:103886  .debug_str:000000000004a363 .LASF1208
     /tmp/ccYIdjbY.s:97000  .debug_str:000000000002db6a .LASF1209
     /tmp/ccYIdjbY.s:95056  .debug_str:0000000000025b32 .LASF1210
     /tmp/ccYIdjbY.s:97794  .debug_str:0000000000031132 .LASF1211
     /tmp/ccYIdjbY.s:92130  .debug_str:0000000000019a02 .LASF1212
     /tmp/ccYIdjbY.s:98724  .debug_str:0000000000034f0e .LASF1213
     /tmp/ccYIdjbY.s:101142  .debug_str:000000000003e93d .LASF1214
     /tmp/ccYIdjbY.s:100030  .debug_str:0000000000039fd1 .LASF1215
     /tmp/ccYIdjbY.s:92442  .debug_str:000000000001af1e .LASF1216
     /tmp/ccYIdjbY.s:96346  .debug_str:000000000002aee2 .LASF1217
     /tmp/ccYIdjbY.s:103470  .debug_str:00000000000484c4 .LASF1218
     /tmp/ccYIdjbY.s:89764  .debug_str:000000000000fd33 .LASF1219
     /tmp/ccYIdjbY.s:88798  .debug_str:000000000000c467 .LASF1220
     /tmp/ccYIdjbY.s:88514  .debug_str:000000000000b0da .LASF1221
     /tmp/ccYIdjbY.s:86344  .debug_str:0000000000001b2b .LASF1222
     /tmp/ccYIdjbY.s:97522  .debug_str:000000000002fdda .LASF1223
     /tmp/ccYIdjbY.s:90966  .debug_str:0000000000014b57 .LASF1224
     /tmp/ccYIdjbY.s:89288  .debug_str:000000000000e2f5 .LASF1225
     /tmp/ccYIdjbY.s:97730  .debug_str:0000000000030ccd .LASF1226
     /tmp/ccYIdjbY.s:93084  .debug_str:000000000001db52 .LASF1227
     /tmp/ccYIdjbY.s:91788  .debug_str:0000000000018165 .LASF1228
     /tmp/ccYIdjbY.s:98386  .debug_str:00000000000338ee .LASF1229
     /tmp/ccYIdjbY.s:88056  .debug_str:0000000000009081 .LASF1230
     /tmp/ccYIdjbY.s:97166  .debug_str:000000000002e6c9 .LASF1231
     /tmp/ccYIdjbY.s:101150  .debug_str:000000000003e9c7 .LASF1232
     /tmp/ccYIdjbY.s:92800  .debug_str:000000000001c78a .LASF1233
     /tmp/ccYIdjbY.s:103998  .debug_str:000000000004aae1 .LASF1234
     /tmp/ccYIdjbY.s:101146  .debug_str:000000000003e999 .LASF1235
     /tmp/ccYIdjbY.s:104018  .debug_str:000000000004ac90 .LASF1236
     /tmp/ccYIdjbY.s:88984  .debug_str:000000000000d0ba .LASF1237
     /tmp/ccYIdjbY.s:103514  .debug_str:00000000000487bb .LASF1238
     /tmp/ccYIdjbY.s:93018  .debug_str:000000000001d62e .LASF1239
     /tmp/ccYIdjbY.s:102900  .debug_str:0000000000045de3 .LASF1240
     /tmp/ccYIdjbY.s:87120  .debug_str:000000000000513b .LASF1241
     /tmp/ccYIdjbY.s:91418  .debug_str:0000000000016956 .LASF1242
     /tmp/ccYIdjbY.s:101440  .debug_str:000000000003fd15 .LASF1243
     /tmp/ccYIdjbY.s:91756  .debug_str:0000000000017f42 .LASF1244
     /tmp/ccYIdjbY.s:94318  .debug_str:0000000000022e6a .LASF1245
     /tmp/ccYIdjbY.s:93772  .debug_str:0000000000020b20 .LASF1246
     /tmp/ccYIdjbY.s:104198  .debug_str:000000000004b8ec .LASF1247
     /tmp/ccYIdjbY.s:97508  .debug_str:000000000002fcc2 .LASF1248
     /tmp/ccYIdjbY.s:88142  .debug_str:0000000000009772 .LASF1249
     /tmp/ccYIdjbY.s:94622  .debug_str:0000000000023fe4 .LASF1250
     /tmp/ccYIdjbY.s:98048  .debug_str:00000000000321cd .LASF1251
     /tmp/ccYIdjbY.s:86142  .debug_str:0000000000000d24 .LASF1252
     /tmp/ccYIdjbY.s:89378  .debug_str:000000000000e775 .LASF1253
     /tmp/ccYIdjbY.s:89044  .debug_str:000000000000d424 .LASF1254
     /tmp/ccYIdjbY.s:103230  .debug_str:0000000000047414 .LASF1255
     /tmp/ccYIdjbY.s:95912  .debug_str:0000000000029259 .LASF1256
     /tmp/ccYIdjbY.s:94730  .debug_str:0000000000024582 .LASF1257
     /tmp/ccYIdjbY.s:88752  .debug_str:000000000000c132 .LASF1258
     /tmp/ccYIdjbY.s:93872  .debug_str:0000000000021150 .LASF1259
     /tmp/ccYIdjbY.s:97840  .debug_str:000000000003144a .LASF1260
     /tmp/ccYIdjbY.s:102722  .debug_str:0000000000045174 .LASF1261
     /tmp/ccYIdjbY.s:104258  .debug_str:000000000004bcd3 .LASF1262
     /tmp/ccYIdjbY.s:100102  .debug_str:000000000003a404 .LASF1263
     /tmp/ccYIdjbY.s:96048  .debug_str:0000000000029b8e .LASF1264
     /tmp/ccYIdjbY.s:91512  .debug_str:0000000000016fb3 .LASF1265
     /tmp/ccYIdjbY.s:87732  .debug_str:0000000000007a7c .LASF1266
     /tmp/ccYIdjbY.s:101282  .debug_str:000000000003f2d9 .LASF1267
     /tmp/ccYIdjbY.s:97898  .debug_str:0000000000031876 .LASF1268
     /tmp/ccYIdjbY.s:92754  .debug_str:000000000001c412 .LASF1269
     /tmp/ccYIdjbY.s:89460  .debug_str:000000000000ebfc .LASF1270
     /tmp/ccYIdjbY.s:102566  .debug_str:00000000000446ea .LASF1271
     /tmp/ccYIdjbY.s:102758  .debug_str:0000000000045441 .LASF1272
     /tmp/ccYIdjbY.s:92006  .debug_str:0000000000019073 .LASF1273
     /tmp/ccYIdjbY.s:94414  .debug_str:00000000000234f1 .LASF1274
     /tmp/ccYIdjbY.s:101804  .debug_str:00000000000415bc .LASF1275
     /tmp/ccYIdjbY.s:86110  .debug_str:0000000000000b0f .LASF1276
     /tmp/ccYIdjbY.s:93250  .debug_str:000000000001e6ed .LASF1277
     /tmp/ccYIdjbY.s:96244  .debug_str:000000000002a8b4 .LASF1278
     /tmp/ccYIdjbY.s:90576  .debug_str:0000000000013288 .LASF1279
     /tmp/ccYIdjbY.s:87780  .debug_str:0000000000007dc9 .LASF1280
     /tmp/ccYIdjbY.s:98610  .debug_str:000000000003479e .LASF1281
     /tmp/ccYIdjbY.s:101118  .debug_str:000000000003e7a2 .LASF1282
     /tmp/ccYIdjbY.s:90708  .debug_str:0000000000013af1 .LASF1283
     /tmp/ccYIdjbY.s:99730  .debug_str:0000000000038a62 .LASF1284
     /tmp/ccYIdjbY.s:100502  .debug_str:000000000003be3c .LASF1285
     /tmp/ccYIdjbY.s:87332  .debug_str:0000000000006049 .LASF1286
     /tmp/ccYIdjbY.s:94758  .debug_str:000000000002470c .LASF1287
     /tmp/ccYIdjbY.s:97454  .debug_str:000000000002f90a .LASF1288
     /tmp/ccYIdjbY.s:86166  .debug_str:0000000000000eef .LASF1289
     /tmp/ccYIdjbY.s:98514  .debug_str:000000000003419f .LASF1290
     /tmp/ccYIdjbY.s:91060  .debug_str:0000000000015171 .LASF1291
     /tmp/ccYIdjbY.s:90190  .debug_str:0000000000011952 .LASF1292
     /tmp/ccYIdjbY.s:100836  .debug_str:000000000003d3a9 .LASF1293
     /tmp/ccYIdjbY.s:100916  .debug_str:000000000003d960 .LASF1294
     /tmp/ccYIdjbY.s:93034  .debug_str:000000000001d77b .LASF1295
     /tmp/ccYIdjbY.s:103422  .debug_str:0000000000048198 .LASF1296
     /tmp/ccYIdjbY.s:102034  .debug_str:000000000004240b .LASF1297
     /tmp/ccYIdjbY.s:92312  .debug_str:000000000001a59f .LASF1298
     /tmp/ccYIdjbY.s:99570  .debug_str:0000000000037fb5 .LASF1299
     /tmp/ccYIdjbY.s:103406  .debug_str:000000000004804f .LASF1300
     /tmp/ccYIdjbY.s:90902  .debug_str:00000000000146ec .LASF1301
     /tmp/ccYIdjbY.s:97130  .debug_str:000000000002e474 .LASF1302
     /tmp/ccYIdjbY.s:93988  .debug_str:000000000002190c .LASF1303
     /tmp/ccYIdjbY.s:86584  .debug_str:0000000000002c67 .LASF1304
     /tmp/ccYIdjbY.s:92822  .debug_str:000000000001c8f9 .LASF1305
     /tmp/ccYIdjbY.s:99406  .debug_str:000000000003740e .LASF1306
     /tmp/ccYIdjbY.s:92324  .debug_str:000000000001a6a1 .LASF1307
     /tmp/ccYIdjbY.s:98682  .debug_str:0000000000034bde .LASF1308
     /tmp/ccYIdjbY.s:100814  .debug_str:000000000003d1f2 .LASF1309
     /tmp/ccYIdjbY.s:95520  .debug_str:00000000000279cb .LASF1310
     /tmp/ccYIdjbY.s:96770  .debug_str:000000000002cb14 .LASF1311
     /tmp/ccYIdjbY.s:94230  .debug_str:000000000002299d .LASF1312
     /tmp/ccYIdjbY.s:88466  .debug_str:000000000000ad89 .LASF1313
     /tmp/ccYIdjbY.s:92744  .debug_str:000000000001c367 .LASF1314
     /tmp/ccYIdjbY.s:86242  .debug_str:0000000000001416 .LASF1315
     /tmp/ccYIdjbY.s:100738  .debug_str:000000000003cd53 .LASF1316
     /tmp/ccYIdjbY.s:88860  .debug_str:000000000000c8ac .LASF1317
     /tmp/ccYIdjbY.s:91904  .debug_str:0000000000018959 .LASF1318
     /tmp/ccYIdjbY.s:96666  .debug_str:000000000002c407 .LASF1319
     /tmp/ccYIdjbY.s:101564  .debug_str:000000000004064f .LASF1320
     /tmp/ccYIdjbY.s:89048  .debug_str:000000000000d455 .LASF1321
     /tmp/ccYIdjbY.s:93882  .debug_str:0000000000021226 .LASF1322
     /tmp/ccYIdjbY.s:99270  .debug_str:0000000000036cc4 .LASF1323
     /tmp/ccYIdjbY.s:96206  .debug_str:000000000002a677 .LASF1324
     /tmp/ccYIdjbY.s:90876  .debug_str:0000000000014569 .LASF1325
     /tmp/ccYIdjbY.s:95164  .debug_str:0000000000026269 .LASF1326
     /tmp/ccYIdjbY.s:94074  .debug_str:0000000000021f1e .LASF1327
     /tmp/ccYIdjbY.s:86548  .debug_str:000000000000299d .LASF1328
     /tmp/ccYIdjbY.s:86244  .debug_str:0000000000001436 .LASF1329
     /tmp/ccYIdjbY.s:96474  .debug_str:000000000002b6cf .LASF1330
     /tmp/ccYIdjbY.s:104144  .debug_str:000000000004b511 .LASF1331
     /tmp/ccYIdjbY.s:100498  .debug_str:000000000003bdf9 .LASF1332
     /tmp/ccYIdjbY.s:95930  .debug_str:0000000000029455 .LASF1333
     /tmp/ccYIdjbY.s:87210  .debug_str:0000000000005821 .LASF1334
     /tmp/ccYIdjbY.s:102000  .debug_str:00000000000421be .LASF1335
     /tmp/ccYIdjbY.s:93138  .debug_str:000000000001df43 .LASF1336
     /tmp/ccYIdjbY.s:94128  .debug_str:0000000000022295 .LASF1337
     /tmp/ccYIdjbY.s:96080  .debug_str:0000000000029dff .LASF1338
     /tmp/ccYIdjbY.s:101354  .debug_str:000000000003f6de .LASF1339
     /tmp/ccYIdjbY.s:100830  .debug_str:000000000003d32e .LASF1340
     /tmp/ccYIdjbY.s:97830  .debug_str:00000000000313b7 .LASF1341
     /tmp/ccYIdjbY.s:92314  .debug_str:000000000001a5bb .LASF1342
     /tmp/ccYIdjbY.s:90932  .debug_str:00000000000148d1 .LASF1343
     /tmp/ccYIdjbY.s:102650  .debug_str:0000000000044c84 .LASF1344
     /tmp/ccYIdjbY.s:104092  .debug_str:000000000004b169 .LASF1345
     /tmp/ccYIdjbY.s:91386  .debug_str:0000000000016706 .LASF1346
     /tmp/ccYIdjbY.s:98228  .debug_str:0000000000032e1c .LASF1347
     /tmp/ccYIdjbY.s:101810  .debug_str:0000000000041620 .LASF1348
     /tmp/ccYIdjbY.s:91554  .debug_str:000000000001726d .LASF1349
     /tmp/ccYIdjbY.s:87422  .debug_str:0000000000006687 .LASF1350
     /tmp/ccYIdjbY.s:87024  .debug_str:0000000000004b52 .LASF1351
     /tmp/ccYIdjbY.s:91380  .debug_str:00000000000166c2 .LASF1352
     /tmp/ccYIdjbY.s:100886  .debug_str:000000000003d735 .LASF1353
     /tmp/ccYIdjbY.s:103576  .debug_str:0000000000048c79 .LASF1354
     /tmp/ccYIdjbY.s:96486  .debug_str:000000000002b7ec .LASF1355
     /tmp/ccYIdjbY.s:94172  .debug_str:0000000000022548 .LASF1356
     /tmp/ccYIdjbY.s:93528  .debug_str:000000000001fa7f .LASF1357
     /tmp/ccYIdjbY.s:96226  .debug_str:000000000002a77b .LASF1358
     /tmp/ccYIdjbY.s:92904  .debug_str:000000000001cf57 .LASF1359
     /tmp/ccYIdjbY.s:92342  .debug_str:000000000001a801 .LASF1360
     /tmp/ccYIdjbY.s:88334  .debug_str:000000000000a402 .LASF1361
     /tmp/ccYIdjbY.s:101442  .debug_str:000000000003fd31 .LASF1362
     /tmp/ccYIdjbY.s:102270  .debug_str:0000000000043311 .LASF1363
     /tmp/ccYIdjbY.s:92572  .debug_str:000000000001b85d .LASF1364
     /tmp/ccYIdjbY.s:92004  .debug_str:0000000000019052 .LASF1365
     /tmp/ccYIdjbY.s:101534  .debug_str:0000000000040415 .LASF1366
     /tmp/ccYIdjbY.s:88646  .debug_str:000000000000ba53 .LASF1367
     /tmp/ccYIdjbY.s:100750  .debug_str:000000000003ce2d .LASF1368
     /tmp/ccYIdjbY.s:102948  .debug_str:000000000004608c .LASF1369
     /tmp/ccYIdjbY.s:96286  .debug_str:000000000002abab .LASF1370
     /tmp/ccYIdjbY.s:102166  .debug_str:0000000000042c55 .LASF1371
     /tmp/ccYIdjbY.s:87818  .debug_str:00000000000080ae .LASF1372
     /tmp/ccYIdjbY.s:94822  .debug_str:0000000000024bb0 .LASF1373
     /tmp/ccYIdjbY.s:99316  .debug_str:0000000000036f85 .LASF1374
     /tmp/ccYIdjbY.s:100570  .debug_str:000000000003c2f1 .LASF1375
     /tmp/ccYIdjbY.s:90930  .debug_str:00000000000148b3 .LASF1376
     /tmp/ccYIdjbY.s:92264  .debug_str:000000000001a2d3 .LASF1377
     /tmp/ccYIdjbY.s:102132  .debug_str:0000000000042a33 .LASF1378
     /tmp/ccYIdjbY.s:101400  .debug_str:000000000003fa8f .LASF1379
     /tmp/ccYIdjbY.s:102942  .debug_str:0000000000046019 .LASF1380
     /tmp/ccYIdjbY.s:88270  .debug_str:0000000000009fd2 .LASF1381
     /tmp/ccYIdjbY.s:97608  .debug_str:0000000000030488 .LASF1382
     /tmp/ccYIdjbY.s:93648  .debug_str:0000000000020305 .LASF1383
     /tmp/ccYIdjbY.s:92344  .debug_str:000000000001a82a .LASF1384
     /tmp/ccYIdjbY.s:103392  .debug_str:0000000000047f64 .LASF1385
     /tmp/ccYIdjbY.s:102364  .debug_str:0000000000043943 .LASF1386
     /tmp/ccYIdjbY.s:94728  .debug_str:0000000000024559 .LASF1387
     /tmp/ccYIdjbY.s:94028  .debug_str:0000000000021bd6 .LASF1388
     /tmp/ccYIdjbY.s:88212  .debug_str:0000000000009be1 .LASF1389
     /tmp/ccYIdjbY.s:104060  .debug_str:000000000004af86 .LASF1390
     /tmp/ccYIdjbY.s:96058  .debug_str:0000000000029c8f .LASF1391
     /tmp/ccYIdjbY.s:90462  .debug_str:0000000000012b4a .LASF1392
     /tmp/ccYIdjbY.s:97158  .debug_str:000000000002e65d .LASF1393
     /tmp/ccYIdjbY.s:100492  .debug_str:000000000003bdaa .LASF1394
     /tmp/ccYIdjbY.s:86740  .debug_str:000000000000371a .LASF1395
     /tmp/ccYIdjbY.s:95080  .debug_str:0000000000025cc7 .LASF1396
     /tmp/ccYIdjbY.s:97474  .debug_str:000000000002fa4e .LASF1397
     /tmp/ccYIdjbY.s:97138  .debug_str:000000000002e502 .LASF1398
     /tmp/ccYIdjbY.s:88786  .debug_str:000000000000c39a .LASF1399
     /tmp/ccYIdjbY.s:87598  .debug_str:0000000000007283 .LASF1400
     /tmp/ccYIdjbY.s:93888  .debug_str:0000000000021273 .LASF1401
     /tmp/ccYIdjbY.s:97742  .debug_str:0000000000030db9 .LASF1402
     /tmp/ccYIdjbY.s:103674  .debug_str:00000000000492ce .LASF1403
     /tmp/ccYIdjbY.s:92222  .debug_str:000000000001a00f .LASF1404
     /tmp/ccYIdjbY.s:95774  .debug_str:0000000000028a1b .LASF1405
     /tmp/ccYIdjbY.s:96212  .debug_str:000000000002a6c0 .LASF1406
     /tmp/ccYIdjbY.s:86058  .debug_str:00000000000007fe .LASF1407
     /tmp/ccYIdjbY.s:102810  .debug_str:00000000000457e1 .LASF1408
     /tmp/ccYIdjbY.s:103732  .debug_str:00000000000497b2 .LASF1409
     /tmp/ccYIdjbY.s:90414  .debug_str:00000000000128df .LASF1410
     /tmp/ccYIdjbY.s:92758  .debug_str:000000000001c47b .LASF1411
     /tmp/ccYIdjbY.s:96898  .debug_str:000000000002d458 .LASF1412
     /tmp/ccYIdjbY.s:93056  .debug_str:000000000001d8d3 .LASF1413
     /tmp/ccYIdjbY.s:92326  .debug_str:000000000001a6c3 .LASF1414
     /tmp/ccYIdjbY.s:102054  .debug_str:0000000000042555 .LASF1415
     /tmp/ccYIdjbY.s:87718  .debug_str:000000000000798c .LASF1416
     /tmp/ccYIdjbY.s:103700  .debug_str:00000000000494ed .LASF1417
     /tmp/ccYIdjbY.s:98584  .debug_str:00000000000345d0 .LASF1418
     /tmp/ccYIdjbY.s:101480  .debug_str:0000000000040074 .LASF1419
     /tmp/ccYIdjbY.s:97472  .debug_str:000000000002fa2f .LASF1420
     /tmp/ccYIdjbY.s:97700  .debug_str:0000000000030ab1 .LASF1421
     /tmp/ccYIdjbY.s:95700  .debug_str:0000000000028603 .LASF1422
     /tmp/ccYIdjbY.s:88150  .debug_str:00000000000097d3 .LASF1423
     /tmp/ccYIdjbY.s:100958  .debug_str:000000000003dc35 .LASF1424
     /tmp/ccYIdjbY.s:103268  .debug_str:0000000000047705 .LASF1425
     /tmp/ccYIdjbY.s:96552  .debug_str:000000000002bc0c .LASF1426
     /tmp/ccYIdjbY.s:88252  .debug_str:0000000000009e1a .LASF1427
     /tmp/ccYIdjbY.s:100110  .debug_str:000000000003a461 .LASF1428
     /tmp/ccYIdjbY.s:100348  .debug_str:000000000003b4a9 .LASF1429
     /tmp/ccYIdjbY.s:99294  .debug_str:0000000000036e7f .LASF1430
     /tmp/ccYIdjbY.s:88964  .debug_str:000000000000cf89 .LASF1431
     /tmp/ccYIdjbY.s:96032  .debug_str:0000000000029ac2 .LASF1432
     /tmp/ccYIdjbY.s:97848  .debug_str:00000000000314fd .LASF1433
     /tmp/ccYIdjbY.s:86008  .debug_str:0000000000000478 .LASF1434
     /tmp/ccYIdjbY.s:88416  .debug_str:000000000000a99a .LASF1435
     /tmp/ccYIdjbY.s:91976  .debug_str:0000000000018e28 .LASF1436
     /tmp/ccYIdjbY.s:88276  .debug_str:000000000000a04a .LASF1437
     /tmp/ccYIdjbY.s:94894  .debug_str:00000000000250c4 .LASF1438
     /tmp/ccYIdjbY.s:100768  .debug_str:000000000003cf5b .LASF1439
     /tmp/ccYIdjbY.s:91766  .debug_str:0000000000017fdf .LASF1440
     /tmp/ccYIdjbY.s:104032  .debug_str:000000000004adcb .LASF1441
     /tmp/ccYIdjbY.s:92322  .debug_str:000000000001a677 .LASF1442
     /tmp/ccYIdjbY.s:98418  .debug_str:0000000000033b05 .LASF1443
     /tmp/ccYIdjbY.s:102804  .debug_str:000000000004575b .LASF1444
     /tmp/ccYIdjbY.s:100616  .debug_str:000000000003c5e2 .LASF1445
     /tmp/ccYIdjbY.s:96998  .debug_str:000000000002db49 .LASF1446
     /tmp/ccYIdjbY.s:101718  .debug_str:0000000000040fe1 .LASF1447
     /tmp/ccYIdjbY.s:101176  .debug_str:000000000003eba6 .LASF1448
     /tmp/ccYIdjbY.s:94854  .debug_str:0000000000024de2 .LASF1449
     /tmp/ccYIdjbY.s:87744  .debug_str:0000000000007b4f .LASF1450
     /tmp/ccYIdjbY.s:95832  .debug_str:0000000000028dca .LASF1451
     /tmp/ccYIdjbY.s:95408  .debug_str:0000000000027340 .LASF1452
     /tmp/ccYIdjbY.s:90578  .debug_str:00000000000132ab .LASF1453
     /tmp/ccYIdjbY.s:97296  .debug_str:000000000002ef09 .LASF1454
     /tmp/ccYIdjbY.s:91356  .debug_str:00000000000164cf .LASF1455
     /tmp/ccYIdjbY.s:96040  .debug_str:0000000000029b26 .LASF1456
     /tmp/ccYIdjbY.s:88018  .debug_str:0000000000008e6f .LASF1457
     /tmp/ccYIdjbY.s:102264  .debug_str:00000000000432b2 .LASF1458
     /tmp/ccYIdjbY.s:96984  .debug_str:000000000002d9ce .LASF1459
     /tmp/ccYIdjbY.s:87128  .debug_str:00000000000051c1 .LASF1460
     /tmp/ccYIdjbY.s:88840  .debug_str:000000000000c6e7 .LASF1461
     /tmp/ccYIdjbY.s:86852  .debug_str:0000000000003efe .LASF1462
     /tmp/ccYIdjbY.s:91264  .debug_str:0000000000015ea9 .LASF1463
     /tmp/ccYIdjbY.s:87960  .debug_str:0000000000008a73 .LASF1464
     /tmp/ccYIdjbY.s:97024  .debug_str:000000000002dcc2 .LASF1465
     /tmp/ccYIdjbY.s:98232  .debug_str:0000000000032e73 .LASF1466
     /tmp/ccYIdjbY.s:94898  .debug_str:0000000000025100 .LASF1467
     /tmp/ccYIdjbY.s:95070  .debug_str:0000000000025c26 .LASF1468
     /tmp/ccYIdjbY.s:90258  .debug_str:0000000000011dde .LASF1469
     /tmp/ccYIdjbY.s:98966  .debug_str:0000000000035d64 .LASF1470
     /tmp/ccYIdjbY.s:89356  .debug_str:000000000000e5aa .LASF1471
     /tmp/ccYIdjbY.s:86752  .debug_str:00000000000037ee .LASF1472
     /tmp/ccYIdjbY.s:103916  .debug_str:000000000004a5d8 .LASF1473
     /tmp/ccYIdjbY.s:96470  .debug_str:000000000002b687 .LASF1474
     /tmp/ccYIdjbY.s:98932  .debug_str:0000000000035b28 .LASF1475
     /tmp/ccYIdjbY.s:103664  .debug_str:000000000004921e .LASF1476
     /tmp/ccYIdjbY.s:93480  .debug_str:000000000001f701 .LASF1477
     /tmp/ccYIdjbY.s:93592  .debug_str:000000000001ff13 .LASF1478
     /tmp/ccYIdjbY.s:94002  .debug_str:0000000000021a06 .LASF1479
     /tmp/ccYIdjbY.s:88776  .debug_str:000000000000c2db .LASF1480
     /tmp/ccYIdjbY.s:98452  .debug_str:0000000000033d56 .LASF1481
     /tmp/ccYIdjbY.s:98150  .debug_str:00000000000328af .LASF1482
     /tmp/ccYIdjbY.s:88572  .debug_str:000000000000b59e .LASF1483
     /tmp/ccYIdjbY.s:90150  .debug_str:00000000000116d7 .LASF1484
     /tmp/ccYIdjbY.s:95630  .debug_str:0000000000028107 .LASF1485
     /tmp/ccYIdjbY.s:88946  .debug_str:000000000000ce4e .LASF1486
     /tmp/ccYIdjbY.s:100382  .debug_str:000000000003b6e4 .LASF1487
     /tmp/ccYIdjbY.s:86540  .debug_str:0000000000002930 .LASF1488
     /tmp/ccYIdjbY.s:97466  .debug_str:000000000002f9b8 .LASF1489
     /tmp/ccYIdjbY.s:99506  .debug_str:0000000000037b4a .LASF1490
     /tmp/ccYIdjbY.s:100904  .debug_str:000000000003d8c0 .LASF1491
     /tmp/ccYIdjbY.s:91842  .debug_str:0000000000018533 .LASF1492
     /tmp/ccYIdjbY.s:96682  .debug_str:000000000002c513 .LASF1493
     /tmp/ccYIdjbY.s:97240  .debug_str:000000000002eb9e .LASF1494
     /tmp/ccYIdjbY.s:90738  .debug_str:0000000000013cb9 .LASF1495
     /tmp/ccYIdjbY.s:97148  .debug_str:000000000002e586 .LASF1496
     /tmp/ccYIdjbY.s:88936  .debug_str:000000000000cd96 .LASF1497
     /tmp/ccYIdjbY.s:94190  .debug_str:000000000002269f .LASF1498
     /tmp/ccYIdjbY.s:97908  .debug_str:0000000000031931 .LASF1499
     /tmp/ccYIdjbY.s:90510  .debug_str:0000000000012e8e .LASF1500
     /tmp/ccYIdjbY.s:86420  .debug_str:000000000000209d .LASF1501
     /tmp/ccYIdjbY.s:92510  .debug_str:000000000001b3ee .LASF1502
     /tmp/ccYIdjbY.s:89076  .debug_str:000000000000d645 .LASF1503
     /tmp/ccYIdjbY.s:99482  .debug_str:0000000000037962 .LASF1504
     /tmp/ccYIdjbY.s:97156  .debug_str:000000000002e633 .LASF1505
     /tmp/ccYIdjbY.s:92434  .debug_str:000000000001ae86 .LASF1506
     /tmp/ccYIdjbY.s:95698  .debug_str:00000000000285dd .LASF1507
     /tmp/ccYIdjbY.s:102064  .debug_str:0000000000042644 .LASF1508
     /tmp/ccYIdjbY.s:88006  .debug_str:0000000000008da0 .LASF1509
     /tmp/ccYIdjbY.s:100244  .debug_str:000000000003ad8a .LASF1510
     /tmp/ccYIdjbY.s:94078  .debug_str:0000000000021f56 .LASF1511
     /tmp/ccYIdjbY.s:97276  .debug_str:000000000002edbc .LASF1512
     /tmp/ccYIdjbY.s:88192  .debug_str:0000000000009a5a .LASF1513
     /tmp/ccYIdjbY.s:91520  .debug_str:0000000000017010 .LASF1514
     /tmp/ccYIdjbY.s:93160  .debug_str:000000000001e0bb .LASF1515
     /tmp/ccYIdjbY.s:96540  .debug_str:000000000002bb63 .LASF1516
     /tmp/ccYIdjbY.s:89462  .debug_str:000000000000ec19 .LASF1517
     /tmp/ccYIdjbY.s:92854  .debug_str:000000000001cb82 .LASF1518
     /tmp/ccYIdjbY.s:89678  .debug_str:000000000000f833 .LASF1519
     /tmp/ccYIdjbY.s:94874  .debug_str:0000000000024f4d .LASF1520
     /tmp/ccYIdjbY.s:89934  .debug_str:0000000000010855 .LASF1521
     /tmp/ccYIdjbY.s:101192  .debug_str:000000000003ecf5 .LASF1522
     /tmp/ccYIdjbY.s:102366  .debug_str:0000000000043964 .LASF1523
     /tmp/ccYIdjbY.s:87340  .debug_str:00000000000060ae .LASF1524
     /tmp/ccYIdjbY.s:89496  .debug_str:000000000000ed5b .LASF1525
     /tmp/ccYIdjbY.s:97204  .debug_str:000000000002e979 .LASF1526
     /tmp/ccYIdjbY.s:100684  .debug_str:000000000003ca4a .LASF1527
     /tmp/ccYIdjbY.s:94334  .debug_str:0000000000023010 .LASF1528
     /tmp/ccYIdjbY.s:100592  .debug_str:000000000003c462 .LASF1529
     /tmp/ccYIdjbY.s:87296  .debug_str:0000000000005e07 .LASF1530
     /tmp/ccYIdjbY.s:92352  .debug_str:000000000001a8bf .LASF1531
     /tmp/ccYIdjbY.s:103216  .debug_str:0000000000047306 .LASF1532
     /tmp/ccYIdjbY.s:95980  .debug_str:00000000000297ae .LASF1533
     /tmp/ccYIdjbY.s:92372  .debug_str:000000000001aa27 .LASF1534
     /tmp/ccYIdjbY.s:94090  .debug_str:000000000002202d .LASF1535
     /tmp/ccYIdjbY.s:87098  .debug_str:0000000000005004 .LASF1536
     /tmp/ccYIdjbY.s:93518  .debug_str:000000000001f9a9 .LASF1537
     /tmp/ccYIdjbY.s:90052  .debug_str:0000000000010fae .LASF1538
     /tmp/ccYIdjbY.s:86348  .debug_str:0000000000001b74 .LASF1539
     /tmp/ccYIdjbY.s:92304  .debug_str:000000000001a51b .LASF1540
     /tmp/ccYIdjbY.s:101456  .debug_str:000000000003fe6c .LASF1541
     /tmp/ccYIdjbY.s:95250  .debug_str:00000000000267c2 .LASF1542
     /tmp/ccYIdjbY.s:92996  .debug_str:000000000001d560 .LASF1543
     /tmp/ccYIdjbY.s:86620  .debug_str:0000000000002fab .LASF1544
     /tmp/ccYIdjbY.s:97690  .debug_str:00000000000309f7 .LASF1545
     /tmp/ccYIdjbY.s:92014  .debug_str:000000000001910a .LASF1546
     /tmp/ccYIdjbY.s:100794  .debug_str:000000000003d111 .LASF1547
     /tmp/ccYIdjbY.s:102348  .debug_str:000000000004380e .LASF1548
     /tmp/ccYIdjbY.s:87758  .debug_str:0000000000007c2f .LASF1549
     /tmp/ccYIdjbY.s:91810  .debug_str:00000000000182d9 .LASF1550
     /tmp/ccYIdjbY.s:99696  .debug_str:000000000003886e .LASF1551
     /tmp/ccYIdjbY.s:102508  .debug_str:0000000000044359 .LASF1552
     /tmp/ccYIdjbY.s:97636  .debug_str:00000000000306ab .LASF1553
     /tmp/ccYIdjbY.s:102956  .debug_str:000000000004611c .LASF1554
     /tmp/ccYIdjbY.s:93748  .debug_str:0000000000020920 .LASF1555
     /tmp/ccYIdjbY.s:97900  .debug_str:0000000000031893 .LASF1556
     /tmp/ccYIdjbY.s:87624  .debug_str:0000000000007424 .LASF1557
     /tmp/ccYIdjbY.s:102874  .debug_str:0000000000045bf4 .LASF1558
     /tmp/ccYIdjbY.s:91742  .debug_str:0000000000017e13 .LASF1559
     /tmp/ccYIdjbY.s:98854  .debug_str:00000000000356c4 .LASF1560
     /tmp/ccYIdjbY.s:98528  .debug_str:0000000000034271 .LASF1561
     /tmp/ccYIdjbY.s:93224  .debug_str:000000000001e4b9 .LASF1562
     /tmp/ccYIdjbY.s:95314  .debug_str:0000000000026c5d .LASF1563
     /tmp/ccYIdjbY.s:102988  .debug_str:0000000000046370 .LASF1564
     /tmp/ccYIdjbY.s:86926  .debug_str:0000000000004407 .LASF1565
     /tmp/ccYIdjbY.s:94444  .debug_str:00000000000236ad .LASF1566
     /tmp/ccYIdjbY.s:86884  .debug_str:00000000000041b2 .LASF1567
     /tmp/ccYIdjbY.s:100528  .debug_str:000000000003c01c .LASF1568
     /tmp/ccYIdjbY.s:87902  .debug_str:000000000000861d .LASF1569
     /tmp/ccYIdjbY.s:103070  .debug_str:00000000000468c9 .LASF1570
     /tmp/ccYIdjbY.s:98078  .debug_str:0000000000032478 .LASF1571
     /tmp/ccYIdjbY.s:103420  .debug_str:000000000004816f .LASF1572
     /tmp/ccYIdjbY.s:93940  .debug_str:00000000000215d1 .LASF1573
     /tmp/ccYIdjbY.s:92144  .debug_str:0000000000019af6 .LASF1574
     /tmp/ccYIdjbY.s:103874  .debug_str:000000000004a27a .LASF1575
     /tmp/ccYIdjbY.s:89392  .debug_str:000000000000e87b .LASF1576
     /tmp/ccYIdjbY.s:100536  .debug_str:000000000003c0bf .LASF1577
     /tmp/ccYIdjbY.s:101218  .debug_str:000000000003eeb9 .LASF1578
     /tmp/ccYIdjbY.s:102516  .debug_str:00000000000443bb .LASF1579
     /tmp/ccYIdjbY.s:94594  .debug_str:0000000000023e2e .LASF1580
     /tmp/ccYIdjbY.s:96044  .debug_str:0000000000029b5e .LASF1581
     /tmp/ccYIdjbY.s:102160  .debug_str:0000000000042be7 .LASF1582
     /tmp/ccYIdjbY.s:85950  .debug_str:000000000000007d .LASF1583
     /tmp/ccYIdjbY.s:93858  .debug_str:0000000000021058 .LASF1584
     /tmp/ccYIdjbY.s:95876  .debug_str:0000000000029083 .LASF1585
     /tmp/ccYIdjbY.s:90734  .debug_str:0000000000013c76 .LASF1586
     /tmp/ccYIdjbY.s:87192  .debug_str:00000000000056bb .LASF1587
     /tmp/ccYIdjbY.s:100174  .debug_str:000000000003a896 .LASF1588
     /tmp/ccYIdjbY.s:94980  .debug_str:000000000002557e .LASF1589
     /tmp/ccYIdjbY.s:86514  .debug_str:000000000000278a .LASF1590
     /tmp/ccYIdjbY.s:95966  .debug_str:00000000000296c5 .LASF1591
     /tmp/ccYIdjbY.s:96674  .debug_str:000000000002c4be .LASF1592
     /tmp/ccYIdjbY.s:87292  .debug_str:0000000000005d97 .LASF1593
     /tmp/ccYIdjbY.s:91452  .debug_str:0000000000016bf2 .LASF1594
     /tmp/ccYIdjbY.s:88420  .debug_str:000000000000a9f8 .LASF1595
     /tmp/ccYIdjbY.s:101404  .debug_str:000000000003fad5 .LASF1596
     /tmp/ccYIdjbY.s:99644  .debug_str:0000000000038464 .LASF1597
     /tmp/ccYIdjbY.s:94086  .debug_str:0000000000021ff1 .LASF1598
     /tmp/ccYIdjbY.s:92816  .debug_str:000000000001c893 .LASF1599
     /tmp/ccYIdjbY.s:103524  .debug_str:0000000000048875 .LASF1600
     /tmp/ccYIdjbY.s:103680  .debug_str:0000000000049314 .LASF1601
     /tmp/ccYIdjbY.s:94224  .debug_str:0000000000022930 .LASF1602
     /tmp/ccYIdjbY.s:90024  .debug_str:0000000000010da3 .LASF1603
     /tmp/ccYIdjbY.s:98960  .debug_str:0000000000035ce8 .LASF1604
     /tmp/ccYIdjbY.s:93258  .debug_str:000000000001e7a3 .LASF1605
     /tmp/ccYIdjbY.s:99814  .debug_str:0000000000039049 .LASF1606
     /tmp/ccYIdjbY.s:92726  .debug_str:000000000001c231 .LASF1607
     /tmp/ccYIdjbY.s:90048  .debug_str:0000000000010f57 .LASF1608
     /tmp/ccYIdjbY.s:87374  .debug_str:00000000000062f5 .LASF1609
     /tmp/ccYIdjbY.s:97268  .debug_str:000000000002ed50 .LASF1610
     /tmp/ccYIdjbY.s:90870  .debug_str:00000000000144fb .LASF1611
     /tmp/ccYIdjbY.s:103486  .debug_str:00000000000485c3 .LASF1612
     /tmp/ccYIdjbY.s:92770  .debug_str:000000000001c596 .LASF1613
     /tmp/ccYIdjbY.s:89858  .debug_str:000000000001035e .LASF1614
     /tmp/ccYIdjbY.s:101874  .debug_str:0000000000041a53 .LASF1615
     /tmp/ccYIdjbY.s:96312  .debug_str:000000000002ad14 .LASF1616
     /tmp/ccYIdjbY.s:97218  .debug_str:000000000002ea7c .LASF1617
     /tmp/ccYIdjbY.s:86796  .debug_str:0000000000003b10 .LASF1618
     /tmp/ccYIdjbY.s:86568  .debug_str:0000000000002b6c .LASF1619
     /tmp/ccYIdjbY.s:88372  .debug_str:000000000000a6d4 .LASF1620
     /tmp/ccYIdjbY.s:100424  .debug_str:000000000003b9d6 .LASF1621
     /tmp/ccYIdjbY.s:97464  .debug_str:000000000002f995 .LASF1622
     /tmp/ccYIdjbY.s:88508  .debug_str:000000000000b08f .LASF1623
     /tmp/ccYIdjbY.s:98758  .debug_str:000000000003503b .LASF1624
     /tmp/ccYIdjbY.s:102276  .debug_str:000000000004337c .LASF1625
     /tmp/ccYIdjbY.s:89252  .debug_str:000000000000e082 .LASF1626
     /tmp/ccYIdjbY.s:86428  .debug_str:0000000000002116 .LASF1627
     /tmp/ccYIdjbY.s:92980  .debug_str:000000000001d41c .LASF1628
     /tmp/ccYIdjbY.s:102760  .debug_str:000000000004545c .LASF1629
     /tmp/ccYIdjbY.s:101980  .debug_str:0000000000042084 .LASF1630
     /tmp/ccYIdjbY.s:99574  .debug_str:0000000000038006 .LASF1631
     /tmp/ccYIdjbY.s:102150  .debug_str:0000000000042b7e .LASF1632
     /tmp/ccYIdjbY.s:94962  .debug_str:00000000000254aa .LASF1633
     /tmp/ccYIdjbY.s:92740  .debug_str:000000000001c322 .LASF1634
     /tmp/ccYIdjbY.s:87154  .debug_str:000000000000539c .LASF1635
     /tmp/ccYIdjbY.s:100900  .debug_str:000000000003d860 .LASF1636
     /tmp/ccYIdjbY.s:101014  .debug_str:000000000003e0c2 .LASF1637
     /tmp/ccYIdjbY.s:91530  .debug_str:00000000000170db .LASF1638
     /tmp/ccYIdjbY.s:103390  .debug_str:0000000000047f49 .LASF1639
     /tmp/ccYIdjbY.s:90542  .debug_str:0000000000013089 .LASF1640
     /tmp/ccYIdjbY.s:98958  .debug_str:0000000000035ccd .LASF1641
     /tmp/ccYIdjbY.s:104136  .debug_str:000000000004b478 .LASF1642
     /tmp/ccYIdjbY.s:101802  .debug_str:00000000000415a1 .LASF1643
     /tmp/ccYIdjbY.s:103588  .debug_str:0000000000048d60 .LASF1644
     /tmp/ccYIdjbY.s:93516  .debug_str:000000000001f981 .LASF1645
     /tmp/ccYIdjbY.s:86138  .debug_str:0000000000000ce9 .LASF1646
     /tmp/ccYIdjbY.s:102436  .debug_str:0000000000043e2e .LASF1647
     /tmp/ccYIdjbY.s:92728  .debug_str:000000000001c25a .LASF1648
     /tmp/ccYIdjbY.s:102912  .debug_str:0000000000045e98 .LASF1649
     /tmp/ccYIdjbY.s:88122  .debug_str:0000000000009627 .LASF1650
     /tmp/ccYIdjbY.s:93570  .debug_str:000000000001fd7b .LASF1651
     /tmp/ccYIdjbY.s:94742  .debug_str:0000000000024631 .LASF1652
     /tmp/ccYIdjbY.s:94870  .debug_str:0000000000024ee8 .LASF1653
     /tmp/ccYIdjbY.s:90222  .debug_str:0000000000011b6c .LASF1654
     /tmp/ccYIdjbY.s:103792  .debug_str:0000000000049ce1 .LASF1655
     /tmp/ccYIdjbY.s:98748  .debug_str:0000000000034fcc .LASF1656
     /tmp/ccYIdjbY.s:89034  .debug_str:000000000000d352 .LASF1657
     /tmp/ccYIdjbY.s:87984  .debug_str:0000000000008bb2 .LASF1658
     /tmp/ccYIdjbY.s:98296  .debug_str:0000000000033333 .LASF1659
     /tmp/ccYIdjbY.s:101180  .debug_str:000000000003ebec .LASF1660
     /tmp/ccYIdjbY.s:95558  .debug_str:0000000000027c3e .LASF1661
     /tmp/ccYIdjbY.s:96782  .debug_str:000000000002cbbf .LASF1662
     /tmp/ccYIdjbY.s:89984  .debug_str:0000000000010ad3 .LASF1663
     /tmp/ccYIdjbY.s:93348  .debug_str:000000000001ee5d .LASF1664
     /tmp/ccYIdjbY.s:97116  .debug_str:000000000002e333 .LASF1665
     /tmp/ccYIdjbY.s:93498  .debug_str:000000000001f840 .LASF1666
     /tmp/ccYIdjbY.s:87596  .debug_str:000000000000725a .LASF1667
     /tmp/ccYIdjbY.s:93944  .debug_str:0000000000021626 .LASF1668
     /tmp/ccYIdjbY.s:91348  .debug_str:0000000000016424 .LASF1669
     /tmp/ccYIdjbY.s:86678  .debug_str:0000000000003365 .LASF1670
     /tmp/ccYIdjbY.s:100286  .debug_str:000000000003b050 .LASF1671
     /tmp/ccYIdjbY.s:87110  .debug_str:00000000000050bd .LASF1672
     /tmp/ccYIdjbY.s:87408  .debug_str:0000000000006559 .LASF1673
     /tmp/ccYIdjbY.s:98562  .debug_str:000000000003442b .LASF1674
     /tmp/ccYIdjbY.s:95866  .debug_str:0000000000029019 .LASF1675
     /tmp/ccYIdjbY.s:101198  .debug_str:000000000003ed80 .LASF1676
     /tmp/ccYIdjbY.s:101918  .debug_str:0000000000041c8f .LASF1677
     /tmp/ccYIdjbY.s:100026  .debug_str:0000000000039f76 .LASF1678
     /tmp/ccYIdjbY.s:91148  .debug_str:0000000000015706 .LASF1679
     /tmp/ccYIdjbY.s:94098  .debug_str:000000000002208e .LASF1680
     /tmp/ccYIdjbY.s:87258  .debug_str:0000000000005b97 .LASF1681
     /tmp/ccYIdjbY.s:89522  .debug_str:000000000000efc3 .LASF1682
     /tmp/ccYIdjbY.s:92650  .debug_str:000000000001bd33 .LASF1683
     /tmp/ccYIdjbY.s:97152  .debug_str:000000000002e5d9 .LASF1684
     /tmp/ccYIdjbY.s:103568  .debug_str:0000000000048bf1 .LASF1685
     /tmp/ccYIdjbY.s:102666  .debug_str:0000000000044d75 .LASF1686
     /tmp/ccYIdjbY.s:96542  .debug_str:000000000002bb8b .LASF1687
     /tmp/ccYIdjbY.s:102672  .debug_str:0000000000044dcf .LASF1688
     /tmp/ccYIdjbY.s:96274  .debug_str:000000000002ab01 .LASF1689
     /tmp/ccYIdjbY.s:99872  .debug_str:00000000000394c0 .LASF1690
     /tmp/ccYIdjbY.s:92470  .debug_str:000000000001b164 .LASF1691
     /tmp/ccYIdjbY.s:104074  .debug_str:000000000004b016 .LASF1692
     /tmp/ccYIdjbY.s:88356  .debug_str:000000000000a57a .LASF1693
     /tmp/ccYIdjbY.s:100772  .debug_str:000000000003cf89 .LASF1694
     /tmp/ccYIdjbY.s:94188  .debug_str:0000000000022676 .LASF1695
     /tmp/ccYIdjbY.s:98144  .debug_str:0000000000032832 .LASF1696
     /tmp/ccYIdjbY.s:103138  .debug_str:0000000000046cf5 .LASF1697
     /tmp/ccYIdjbY.s:88036  .debug_str:0000000000008f5d .LASF1698
     /tmp/ccYIdjbY.s:98136  .debug_str:0000000000032790 .LASF1699
     /tmp/ccYIdjbY.s:101828  .debug_str:0000000000041744 .LASF1700
     /tmp/ccYIdjbY.s:88596  .debug_str:000000000000b6f4 .LASF1701
     /tmp/ccYIdjbY.s:90140  .debug_str:000000000001160b .LASF1702
     /tmp/ccYIdjbY.s:89974  .debug_str:0000000000010a28 .LASF1703
     /tmp/ccYIdjbY.s:103790  .debug_str:0000000000049cbf .LASF1704
     /tmp/ccYIdjbY.s:99012  .debug_str:0000000000035f9c .LASF1705
     /tmp/ccYIdjbY.s:87912  .debug_str:00000000000086b7 .LASF1706
     /tmp/ccYIdjbY.s:102632  .debug_str:0000000000044b2b .LASF1707
     /tmp/ccYIdjbY.s:101854  .debug_str:00000000000418c6 .LASF1708
     /tmp/ccYIdjbY.s:93228  .debug_str:000000000001e4e7 .LASF1709
     /tmp/ccYIdjbY.s:100360  .debug_str:000000000003b532 .LASF1710
     /tmp/ccYIdjbY.s:100168  .debug_str:000000000003a844 .LASF1711
     /tmp/ccYIdjbY.s:99442  .debug_str:00000000000376cf .LASF1712
     /tmp/ccYIdjbY.s:90746  .debug_str:0000000000013d21 .LASF1713
     /tmp/ccYIdjbY.s:88644  .debug_str:000000000000ba31 .LASF1714
     /tmp/ccYIdjbY.s:92202  .debug_str:0000000000019f08 .LASF1715
     /tmp/ccYIdjbY.s:102412  .debug_str:0000000000043c2e .LASF1716
     /tmp/ccYIdjbY.s:101136  .debug_str:000000000003e8c3 .LASF1717
     /tmp/ccYIdjbY.s:86580  .debug_str:0000000000002c2d .LASF1718
     /tmp/ccYIdjbY.s:86440  .debug_str:00000000000021fd .LASF1719
     /tmp/ccYIdjbY.s:86074  .debug_str:0000000000000928 .LASF1720
     /tmp/ccYIdjbY.s:95480  .debug_str:00000000000276ef .LASF1721
     /tmp/ccYIdjbY.s:98106  .debug_str:00000000000325d5 .LASF1722
     /tmp/ccYIdjbY.s:100960  .debug_str:000000000003dc54 .LASF1723
     /tmp/ccYIdjbY.s:91686  .debug_str:0000000000017afd .LASF1724
     /tmp/ccYIdjbY.s:99892  .debug_str:000000000003963e .LASF1725
     /tmp/ccYIdjbY.s:95512  .debug_str:0000000000027950 .LASF1726
     /tmp/ccYIdjbY.s:101834  .debug_str:00000000000417a2 .LASF1727
     /tmp/ccYIdjbY.s:100074  .debug_str:000000000003a258 .LASF1728
     /tmp/ccYIdjbY.s:94018  .debug_str:0000000000021af9 .LASF1729
     /tmp/ccYIdjbY.s:96688  .debug_str:000000000002c56f .LASF1730
     /tmp/ccYIdjbY.s:100320  .debug_str:000000000003b2e0 .LASF1731
     /tmp/ccYIdjbY.s:91676  .debug_str:0000000000017a38 .LASF1732
     /tmp/ccYIdjbY.s:98052  .debug_str:0000000000032211 .LASF1733
     /tmp/ccYIdjbY.s:101512  .debug_str:000000000004029e .LASF1734
     /tmp/ccYIdjbY.s:99944  .debug_str:00000000000399fb .LASF1735
     /tmp/ccYIdjbY.s:91958  .debug_str:0000000000018d63 .LASF1736
     /tmp/ccYIdjbY.s:97792  .debug_str:000000000003110a .LASF1737
     /tmp/ccYIdjbY.s:86284  .debug_str:00000000000016d2 .LASF1738
     /tmp/ccYIdjbY.s:87730  .debug_str:0000000000007a53 .LASF1739
     /tmp/ccYIdjbY.s:94570  .debug_str:0000000000023c90 .LASF1740
     /tmp/ccYIdjbY.s:95100  .debug_str:0000000000025e77 .LASF1741
     /tmp/ccYIdjbY.s:103022  .debug_str:0000000000046572 .LASF1742
     /tmp/ccYIdjbY.s:93396  .debug_str:000000000001f21d .LASF1743
     /tmp/ccYIdjbY.s:90240  .debug_str:0000000000011c79 .LASF1744
     /tmp/ccYIdjbY.s:99486  .debug_str:00000000000379bb .LASF1745
     /tmp/ccYIdjbY.s:98698  .debug_str:0000000000034d0b .LASF1746
     /tmp/ccYIdjbY.s:103212  .debug_str:00000000000472be .LASF1747
     /tmp/ccYIdjbY.s:93846  .debug_str:0000000000020f89 .LASF1748
     /tmp/ccYIdjbY.s:99222  .debug_str:0000000000036aa3 .LASF1749
     /tmp/ccYIdjbY.s:103784  .debug_str:0000000000049c2f .LASF1750
     /tmp/ccYIdjbY.s:97082  .debug_str:000000000002e0a1 .LASF1751
     /tmp/ccYIdjbY.s:98062  .debug_str:00000000000322be .LASF1752
     /tmp/ccYIdjbY.s:95086  .debug_str:0000000000025d32 .LASF1753
     /tmp/ccYIdjbY.s:92336  .debug_str:000000000001a76b .LASF1754
     /tmp/ccYIdjbY.s:103600  .debug_str:0000000000048e49 .LASF1755
     /tmp/ccYIdjbY.s:101232  .debug_str:000000000003efca .LASF1756
     /tmp/ccYIdjbY.s:96306  .debug_str:000000000002ac9a .LASF1757
     /tmp/ccYIdjbY.s:94686  .debug_str:00000000000242a6 .LASF1758
     /tmp/ccYIdjbY.s:92452  .debug_str:000000000001b004 .LASF1759
     /tmp/ccYIdjbY.s:99866  .debug_str:000000000003944a .LASF1760
     /tmp/ccYIdjbY.s:88744  .debug_str:000000000000c08d .LASF1761
     /tmp/ccYIdjbY.s:87918  .debug_str:000000000000871c .LASF1762
     /tmp/ccYIdjbY.s:98252  .debug_str:0000000000032feb .LASF1763
     /tmp/ccYIdjbY.s:103604  .debug_str:0000000000048ea4 .LASF1764
     /tmp/ccYIdjbY.s:101236  .debug_str:000000000003f046 .LASF1765
     /tmp/ccYIdjbY.s:104140  .debug_str:000000000004b4d9 .LASF1766
     /tmp/ccYIdjbY.s:94184  .debug_str:0000000000022624 .LASF1767
     /tmp/ccYIdjbY.s:101062  .debug_str:000000000003e3cb .LASF1768
     /tmp/ccYIdjbY.s:92382  .debug_str:000000000001aafa .LASF1769
     /tmp/ccYIdjbY.s:89396  .debug_str:000000000000e8bb .LASF1770
     /tmp/ccYIdjbY.s:95688  .debug_str:0000000000028517 .LASF1771
     /tmp/ccYIdjbY.s:86462  .debug_str:000000000000234b .LASF1772
     /tmp/ccYIdjbY.s:87304  .debug_str:0000000000005e7c .LASF1773
     /tmp/ccYIdjbY.s:87124  .debug_str:0000000000005181 .LASF1774
     /tmp/ccYIdjbY.s:97476  .debug_str:000000000002fa74 .LASF1775
     /tmp/ccYIdjbY.s:94774  .debug_str:0000000000024823 .LASF1776
     /tmp/ccYIdjbY.s:103858  .debug_str:000000000004a153 .LASF1777
     /tmp/ccYIdjbY.s:97292  .debug_str:000000000002eedc .LASF1778
     /tmp/ccYIdjbY.s:89780  .debug_str:000000000000fe49 .LASF1779
     /tmp/ccYIdjbY.s:86026  .debug_str:000000000000061e .LASF1780
     /tmp/ccYIdjbY.s:89928  .debug_str:00000000000107d6 .LASF1781
     /tmp/ccYIdjbY.s:91968  .debug_str:0000000000018dc6 .LASF1782
     /tmp/ccYIdjbY.s:104020  .debug_str:000000000004acbc .LASF1783
     /tmp/ccYIdjbY.s:95948  .debug_str:0000000000029577 .LASF1784
     /tmp/ccYIdjbY.s:85960  .debug_str:000000000000012a .LASF1785
     /tmp/ccYIdjbY.s:93942  .debug_str:00000000000215f1 .LASF1786
     /tmp/ccYIdjbY.s:103550  .debug_str:0000000000048a43 .LASF1787
     /tmp/ccYIdjbY.s:92938  .debug_str:000000000001d12f .LASF1788
     /tmp/ccYIdjbY.s:97944  .debug_str:0000000000031b1a .LASF1789
     /tmp/ccYIdjbY.s:103066  .debug_str:0000000000046858 .LASF1790
     /tmp/ccYIdjbY.s:96202  .debug_str:000000000002a628 .LASF1791
     /tmp/ccYIdjbY.s:87704  .debug_str:00000000000078df .LASF1792
     /tmp/ccYIdjbY.s:92394  .debug_str:000000000001ac09 .LASF1793
     /tmp/ccYIdjbY.s:99850  .debug_str:00000000000392ee .LASF1794
     /tmp/ccYIdjbY.s:87628  .debug_str:0000000000007469 .LASF1795
     /tmp/ccYIdjbY.s:97642  .debug_str:0000000000030714 .LASF1796
     /tmp/ccYIdjbY.s:101300  .debug_str:000000000003f384 .LASF1797
     /tmp/ccYIdjbY.s:88588  .debug_str:000000000000b6a3 .LASF1798
     /tmp/ccYIdjbY.s:87228  .debug_str:0000000000005947 .LASF1799
     /tmp/ccYIdjbY.s:100670  .debug_str:000000000003c954 .LASF1800
     /tmp/ccYIdjbY.s:99894  .debug_str:0000000000039662 .LASF1801
     /tmp/ccYIdjbY.s:96962  .debug_str:000000000002d835 .LASF1802
     /tmp/ccYIdjbY.s:87684  .debug_str:00000000000077f9 .LASF1803
     /tmp/ccYIdjbY.s:98440  .debug_str:0000000000033c83 .LASF1804
     /tmp/ccYIdjbY.s:102038  .debug_str:0000000000042438 .LASF1805
     /tmp/ccYIdjbY.s:86720  .debug_str:0000000000003587 .LASF1806
     /tmp/ccYIdjbY.s:100086  .debug_str:000000000003a336 .LASF1807
     /tmp/ccYIdjbY.s:99396  .debug_str:0000000000037357 .LASF1808
     /tmp/ccYIdjbY.s:98122  .debug_str:00000000000326ab .LASF1809
     /tmp/ccYIdjbY.s:93524  .debug_str:000000000001fa38 .LASF1810
     /tmp/ccYIdjbY.s:98624  .debug_str:00000000000348ba .LASF1811
     /tmp/ccYIdjbY.s:91130  .debug_str:0000000000015576 .LASF1812
     /tmp/ccYIdjbY.s:91202  .debug_str:0000000000015a93 .LASF1813
     /tmp/ccYIdjbY.s:101526  .debug_str:0000000000040380 .LASF1814
     /tmp/ccYIdjbY.s:87532  .debug_str:0000000000006e6c .LASF1815
     /tmp/ccYIdjbY.s:90366  .debug_str:0000000000012503 .LASF1816
     /tmp/ccYIdjbY.s:86958  .debug_str:000000000000461d .LASF1817
     /tmp/ccYIdjbY.s:96462  .debug_str:000000000002b5eb .LASF1818
     /tmp/ccYIdjbY.s:92074  .debug_str:0000000000019542 .LASF1819
     /tmp/ccYIdjbY.s:101886  .debug_str:0000000000041acc .LASF1820
     /tmp/ccYIdjbY.s:98436  .debug_str:0000000000033c5b .LASF1821
     /tmp/ccYIdjbY.s:87854  .debug_str:000000000000830a .LASF1822
     /tmp/ccYIdjbY.s:99920  .debug_str:000000000003980f .LASF1823
     /tmp/ccYIdjbY.s:90114  .debug_str:00000000000113f1 .LASF1824
     /tmp/ccYIdjbY.s:101396  .debug_str:000000000003fa2b .LASF1825
     /tmp/ccYIdjbY.s:95996  .debug_str:00000000000298e1 .LASF1826
     /tmp/ccYIdjbY.s:92638  .debug_str:000000000001bc67 .LASF1827
     /tmp/ccYIdjbY.s:92918  .debug_str:000000000001d007 .LASF1828
     /tmp/ccYIdjbY.s:102528  .debug_str:0000000000044496 .LASF1829
     /tmp/ccYIdjbY.s:93496  .debug_str:000000000001f81c .LASF1830
     /tmp/ccYIdjbY.s:88668  .debug_str:000000000000bb98 .LASF1831
     /tmp/ccYIdjbY.s:101506  .debug_str:0000000000040237 .LASF1832
     /tmp/ccYIdjbY.s:89480  .debug_str:000000000000ecc6 .LASF1833
     /tmp/ccYIdjbY.s:92110  .debug_str:0000000000019825 .LASF1834
     /tmp/ccYIdjbY.s:93118  .debug_str:000000000001ddca .LASF1835
     /tmp/ccYIdjbY.s:94100  .debug_str:00000000000220b6 .LASF1836
     /tmp/ccYIdjbY.s:94110  .debug_str:0000000000022149 .LASF1837
     /tmp/ccYIdjbY.s:95142  .debug_str:0000000000026115 .LASF1838
     /tmp/ccYIdjbY.s:96854  .debug_str:000000000002d167 .LASF1839
     /tmp/ccYIdjbY.s:88654  .debug_str:000000000000baae .LASF1840
     /tmp/ccYIdjbY.s:95484  .debug_str:0000000000027745 .LASF1841
     /tmp/ccYIdjbY.s:90810  .debug_str:00000000000140d9 .LASF1842
     /tmp/ccYIdjbY.s:96518  .debug_str:000000000002ba02 .LASF1843
     /tmp/ccYIdjbY.s:94248  .debug_str:0000000000022aec .LASF1844
     /tmp/ccYIdjbY.s:103646  .debug_str:000000000004911e .LASF1845
     /tmp/ccYIdjbY.s:96376  .debug_str:000000000002b0c0 .LASF1846
     /tmp/ccYIdjbY.s:102736  .debug_str:0000000000045283 .LASF1847
     /tmp/ccYIdjbY.s:100356  .debug_str:000000000003b505 .LASF1848
     /tmp/ccYIdjbY.s:91242  .debug_str:0000000000015d9f .LASF1849
     /tmp/ccYIdjbY.s:88272  .debug_str:0000000000009ff9 .LASF1850
     /tmp/ccYIdjbY.s:93286  .debug_str:000000000001e9d2 .LASF1851
     /tmp/ccYIdjbY.s:94164  .debug_str:000000000002249f .LASF1852
     /tmp/ccYIdjbY.s:102210  .debug_str:0000000000042ea7 .LASF1853
     /tmp/ccYIdjbY.s:100208  .debug_str:000000000003aae2 .LASF1854
     /tmp/ccYIdjbY.s:98448  .debug_str:0000000000033cef .LASF1855
     /tmp/ccYIdjbY.s:87686  .debug_str:0000000000007825 .LASF1856
     /tmp/ccYIdjbY.s:97684  .debug_str:00000000000309bb .LASF1857
     /tmp/ccYIdjbY.s:93624  .debug_str:000000000002014d .LASF1858
     /tmp/ccYIdjbY.s:100596  .debug_str:000000000003c4af .LASF1859
     /tmp/ccYIdjbY.s:92020  .debug_str:0000000000019179 .LASF1860
     /tmp/ccYIdjbY.s:94736  .debug_str:00000000000245e2 .LASF1861
     /tmp/ccYIdjbY.s:90604  .debug_str:000000000001344d .LASF1862
     /tmp/ccYIdjbY.s:88750  .debug_str:000000000000c10d .LASF1863
     /tmp/ccYIdjbY.s:89844  .debug_str:0000000000010249 .LASF1864
     /tmp/ccYIdjbY.s:103098  .debug_str:0000000000046a51 .LASF1865
     /tmp/ccYIdjbY.s:88564  .debug_str:000000000000b4fa .LASF1866
     /tmp/ccYIdjbY.s:95444  .debug_str:0000000000027569 .LASF1867
     /tmp/ccYIdjbY.s:87204  .debug_str:00000000000057a2 .LASF1868
     /tmp/ccYIdjbY.s:86200  .debug_str:000000000000114d .LASF1869
     /tmp/ccYIdjbY.s:88922  .debug_str:000000000000ccaf .LASF1870
     /tmp/ccYIdjbY.s:92032  .debug_str:000000000001923f .LASF1871
     /tmp/ccYIdjbY.s:103734  .debug_str:00000000000497d8 .LASF1872
     /tmp/ccYIdjbY.s:90312  .debug_str:0000000000012172 .LASF1873
     /tmp/ccYIdjbY.s:100044  .debug_str:000000000003a081 .LASF1874
     /tmp/ccYIdjbY.s:88916  .debug_str:000000000000cc36 .LASF1875
     /tmp/ccYIdjbY.s:96454  .debug_str:000000000002b581 .LASF1876
     /tmp/ccYIdjbY.s:91422  .debug_str:00000000000169bc .LASF1877
     /tmp/ccYIdjbY.s:92596  .debug_str:000000000001ba2c .LASF1878
     /tmp/ccYIdjbY.s:97298  .debug_str:000000000002ef34 .LASF1879
     /tmp/ccYIdjbY.s:101910  .debug_str:0000000000041c4c .LASF1880
     /tmp/ccYIdjbY.s:104290  .debug_str:000000000004bef8 .LASF1881
     /tmp/ccYIdjbY.s:96082  .debug_str:0000000000029e27 .LASF1882
     /tmp/ccYIdjbY.s:102402  .debug_str:0000000000043ba2 .LASF1883
     /tmp/ccYIdjbY.s:90108  .debug_str:000000000001138e .LASF1884
     /tmp/ccYIdjbY.s:101698  .debug_str:0000000000040ea3 .LASF1885
     /tmp/ccYIdjbY.s:102572  .debug_str:0000000000044758 .LASF1886
     /tmp/ccYIdjbY.s:102674  .debug_str:0000000000044dee .LASF1887
     /tmp/ccYIdjbY.s:96756  .debug_str:000000000002ca84 .LASF1888
     /tmp/ccYIdjbY.s:99124  .debug_str:0000000000036588 .LASF1889
     /tmp/ccYIdjbY.s:89284  .debug_str:000000000000e2bf .LASF1890
     /tmp/ccYIdjbY.s:88940  .debug_str:000000000000cdcb .LASF1891
     /tmp/ccYIdjbY.s:98586  .debug_str:00000000000345ef .LASF1892
     /tmp/ccYIdjbY.s:93948  .debug_str:000000000002164e .LASF1893
     /tmp/ccYIdjbY.s:89340  .debug_str:000000000000e4ac .LASF1894
     /tmp/ccYIdjbY.s:99098  .debug_str:00000000000363da .LASF1895
     /tmp/ccYIdjbY.s:98648  .debug_str:0000000000034a3b .LASF1896
     /tmp/ccYIdjbY.s:104068  .debug_str:000000000004afcf .LASF1897
     /tmp/ccYIdjbY.s:89410  .debug_str:000000000000e90f .LASF1898
     /tmp/ccYIdjbY.s:90796  .debug_str:0000000000013ff9 .LASF1899
     /tmp/ccYIdjbY.s:88240  .debug_str:0000000000009d12 .LASF1900
     /tmp/ccYIdjbY.s:86510  .debug_str:0000000000002721 .LASF1901
     /tmp/ccYIdjbY.s:100016  .debug_str:0000000000039e99 .LASF1902
     /tmp/ccYIdjbY.s:96668  .debug_str:000000000002c428 .LASF1903
     /tmp/ccYIdjbY.s:91406  .debug_str:00000000000168a9 .LASF1904
     /tmp/ccYIdjbY.s:87202  .debug_str:0000000000005781 .LASF1905
     /tmp/ccYIdjbY.s:99360  .debug_str:00000000000371b2 .LASF1906
     /tmp/ccYIdjbY.s:87398  .debug_str:00000000000064b5 .LASF1907
     /tmp/ccYIdjbY.s:86230  .debug_str:000000000000134c .LASF1908
     /tmp/ccYIdjbY.s:100618  .debug_str:000000000003c60b .LASF1909
     /tmp/ccYIdjbY.s:96136  .debug_str:000000000002a190 .LASF1910
     /tmp/ccYIdjbY.s:97420  .debug_str:000000000002f717 .LASF1911
     /tmp/ccYIdjbY.s:94204  .debug_str:00000000000227a3 .LASF1912
     /tmp/ccYIdjbY.s:96440  .debug_str:000000000002b4a0 .LASF1913
     /tmp/ccYIdjbY.s:101856  .debug_str:00000000000418e8 .LASF1914
     /tmp/ccYIdjbY.s:91042  .debug_str:0000000000015095 .LASF1915
     /tmp/ccYIdjbY.s:103950  .debug_str:000000000004a823 .LASF1916
     /tmp/ccYIdjbY.s:90194  .debug_str:000000000001197b .LASF1917
     /tmp/ccYIdjbY.s:90980  .debug_str:0000000000014c41 .LASF1918
     /tmp/ccYIdjbY.s:102206  .debug_str:0000000000042e7c .LASF1919
     /tmp/ccYIdjbY.s:94776  .debug_str:000000000002484f .LASF1920
     /tmp/ccYIdjbY.s:93890  .debug_str:0000000000021299 .LASF1921
     /tmp/ccYIdjbY.s:86718  .debug_str:000000000000355c .LASF1922
     /tmp/ccYIdjbY.s:103904  .debug_str:000000000004a4ca .LASF1923
     /tmp/ccYIdjbY.s:96632  .debug_str:000000000002c19d .LASF1924
     /tmp/ccYIdjbY.s:95848  .debug_str:0000000000028f3d .LASF1925
     /tmp/ccYIdjbY.s:96476  .debug_str:000000000002b6fa .LASF1926
     /tmp/ccYIdjbY.s:104210  .debug_str:000000000004b9a9 .LASF1927
     /tmp/ccYIdjbY.s:90028  .debug_str:0000000000010df8 .LASF1928
     /tmp/ccYIdjbY.s:104124  .debug_str:000000000004b349 .LASF1929
     /tmp/ccYIdjbY.s:98114  .debug_str:0000000000032635 .LASF1930
     /tmp/ccYIdjbY.s:103934  .debug_str:000000000004a71c .LASF1931
     /tmp/ccYIdjbY.s:95002  .debug_str:000000000002571d .LASF1932
     /tmp/ccYIdjbY.s:95430  .debug_str:0000000000027495 .LASF1933
     /tmp/ccYIdjbY.s:92396  .debug_str:000000000001ac2f .LASF1934
     /tmp/ccYIdjbY.s:89420  .debug_str:000000000000e962 .LASF1935
     /tmp/ccYIdjbY.s:85944  .debug_str:0000000000000000 .LASF1936
     /tmp/ccYIdjbY.s:90406  .debug_str:0000000000012829 .LASF1937
     /tmp/ccYIdjbY.s:96092  .debug_str:0000000000029ee4 .LASF1938
     /tmp/ccYIdjbY.s:100216  .debug_str:000000000003ab5b .LASF1939
     /tmp/ccYIdjbY.s:102550  .debug_str:0000000000044631 .LASF1940
     /tmp/ccYIdjbY.s:90786  .debug_str:0000000000013f32 .LASF1941
     /tmp/ccYIdjbY.s:91562  .debug_str:0000000000017325 .LASF1942
     /tmp/ccYIdjbY.s:99884  .debug_str:00000000000395a5 .LASF1943
     /tmp/ccYIdjbY.s:89532  .debug_str:000000000000f06d .LASF1944
     /tmp/ccYIdjbY.s:89892  .debug_str:0000000000010533 .LASF1945
     /tmp/ccYIdjbY.s:95404  .debug_str:0000000000027312 .LASF1946
     /tmp/ccYIdjbY.s:97270  .debug_str:000000000002ed73 .LASF1947
     /tmp/ccYIdjbY.s:93660  .debug_str:000000000002042c .LASF1948
     /tmp/ccYIdjbY.s:90364  .debug_str:00000000000124d9 .LASF1949
     /tmp/ccYIdjbY.s:103670  .debug_str:0000000000049271 .LASF1950
     /tmp/ccYIdjbY.s:87168  .debug_str:00000000000054e8 .LASF1951
     /tmp/ccYIdjbY.s:89350  .debug_str:000000000000e55f .LASF1952
     /tmp/ccYIdjbY.s:97074  .debug_str:000000000002e001 .LASF1953
     /tmp/ccYIdjbY.s:87166  .debug_str:00000000000054c6 .LASF1954
     /tmp/ccYIdjbY.s:88382  .debug_str:000000000000a74e .LASF1955
     /tmp/ccYIdjbY.s:97108  .debug_str:000000000002e273 .LASF1956
     /tmp/ccYIdjbY.s:89798  .debug_str:000000000000febd .LASF1957
     /tmp/ccYIdjbY.s:102580  .debug_str:00000000000447ed .LASF1958
     /tmp/ccYIdjbY.s:100864  .debug_str:000000000003d5b8 .LASF1959
     /tmp/ccYIdjbY.s:103882  .debug_str:000000000004a30a .LASF1960
     /tmp/ccYIdjbY.s:86592  .debug_str:0000000000002d07 .LASF1961
     /tmp/ccYIdjbY.s:95388  .debug_str:00000000000271bc .LASF1962
     /tmp/ccYIdjbY.s:86322  .debug_str:0000000000001969 .LASF1963
     /tmp/ccYIdjbY.s:96444  .debug_str:000000000002b4c9 .LASF1964
     /tmp/ccYIdjbY.s:101954  .debug_str:0000000000041eed .LASF1965
     /tmp/ccYIdjbY.s:90220  .debug_str:0000000000011b44 .LASF1966
     /tmp/ccYIdjbY.s:93634  .debug_str:00000000000201fd .LASF1967
     /tmp/ccYIdjbY.s:100058  .debug_str:000000000003a195 .LASF1968
     /tmp/ccYIdjbY.s:94280  .debug_str:0000000000022cc7 .LASF1969
     /tmp/ccYIdjbY.s:91672  .debug_str:00000000000179e1 .LASF1970
     /tmp/ccYIdjbY.s:86424  .debug_str:00000000000020d4 .LASF1971
     /tmp/ccYIdjbY.s:102792  .debug_str:000000000004564c .LASF1972
     /tmp/ccYIdjbY.s:87138  .debug_str:0000000000005293 .LASF1973
     /tmp/ccYIdjbY.s:89506  .debug_str:000000000000ee4d .LASF1974
     /tmp/ccYIdjbY.s:89224  .debug_str:000000000000df39 .LASF1975
     /tmp/ccYIdjbY.s:94252  .debug_str:0000000000022b28 .LASF1976
     /tmp/ccYIdjbY.s:99668  .debug_str:0000000000038631 .LASF1977
     /tmp/ccYIdjbY.s:86998  .debug_str:0000000000004919 .LASF1978
     /tmp/ccYIdjbY.s:91434  .debug_str:0000000000016aa1 .LASF1979
     /tmp/ccYIdjbY.s:97426  .debug_str:000000000002f773 .LASF1980
     /tmp/ccYIdjbY.s:101470  .debug_str:000000000003ffaa .LASF1981
     /tmp/ccYIdjbY.s:88740  .debug_str:000000000000c02e .LASF1982
     /tmp/ccYIdjbY.s:93134  .debug_str:000000000001def7 .LASF1983
     /tmp/ccYIdjbY.s:98662  .debug_str:0000000000034adb .LASF1984
     /tmp/ccYIdjbY.s:95840  .debug_str:0000000000028e8a .LASF1985
     /tmp/ccYIdjbY.s:87280  .debug_str:0000000000005cca .LASF1986
     /tmp/ccYIdjbY.s:103770  .debug_str:0000000000049b27 .LASF1987
     /tmp/ccYIdjbY.s:99394  .debug_str:0000000000037335 .LASF1988
     /tmp/ccYIdjbY.s:103126  .debug_str:0000000000046c5e .LASF1989
     /tmp/ccYIdjbY.s:88468  .debug_str:000000000000ada9 .LASF1990
     /tmp/ccYIdjbY.s:99422  .debug_str:000000000003758a .LASF1991
     /tmp/ccYIdjbY.s:96590  .debug_str:000000000002bee3 .LASF1992
     /tmp/ccYIdjbY.s:97958  .debug_str:0000000000031c2b .LASF1993
     /tmp/ccYIdjbY.s:95288  .debug_str:0000000000026aa4 .LASF1994
     /tmp/ccYIdjbY.s:102668  .debug_str:0000000000044d9c .LASF1995
     /tmp/ccYIdjbY.s:100992  .debug_str:000000000003dee6 .LASF1996
     /tmp/ccYIdjbY.s:97826  .debug_str:000000000003137f .LASF1997
     /tmp/ccYIdjbY.s:91666  .debug_str:00000000000179a2 .LASF1998
     /tmp/ccYIdjbY.s:86902  .debug_str:00000000000042ef .LASF1999
     /tmp/ccYIdjbY.s:90672  .debug_str:000000000001388d .LASF2000
     /tmp/ccYIdjbY.s:99516  .debug_str:0000000000037bf9 .LASF2001
     /tmp/ccYIdjbY.s:89188  .debug_str:000000000000ddb2 .LASF2002
     /tmp/ccYIdjbY.s:101932  .debug_str:0000000000041d87 .LASF2003
     /tmp/ccYIdjbY.s:90384  .debug_str:00000000000126d8 .LASF2004
     /tmp/ccYIdjbY.s:97186  .debug_str:000000000002e852 .LASF2005
     /tmp/ccYIdjbY.s:96788  .debug_str:000000000002cc03 .LASF2006
     /tmp/ccYIdjbY.s:91256  .debug_str:0000000000015e55 .LASF2007
     /tmp/ccYIdjbY.s:96992  .debug_str:000000000002daa2 .LASF2008
     /tmp/ccYIdjbY.s:103698  .debug_str:00000000000494c9 .LASF2009
     /tmp/ccYIdjbY.s:94196  .debug_str:000000000002270c .LASF2010
     /tmp/ccYIdjbY.s:97892  .debug_str:00000000000317f0 .LASF2011
     /tmp/ccYIdjbY.s:93544  .debug_str:000000000001fb89 .LASF2012
     /tmp/ccYIdjbY.s:91954  .debug_str:0000000000018cfb .LASF2013
     /tmp/ccYIdjbY.s:92128  .debug_str:00000000000199d6 .LASF2014
     /tmp/ccYIdjbY.s:95794  .debug_str:0000000000028b51 .LASF2015
     /tmp/ccYIdjbY.s:97850  .debug_str:0000000000031525 .LASF2016
     /tmp/ccYIdjbY.s:88446  .debug_str:000000000000abcb .LASF2017
     /tmp/ccYIdjbY.s:100276  .debug_str:000000000003af73 .LASF2018
     /tmp/ccYIdjbY.s:102590  .debug_str:0000000000044880 .LASF2019
     /tmp/ccYIdjbY.s:90060  .debug_str:000000000001103d .LASF2020
     /tmp/ccYIdjbY.s:97448  .debug_str:000000000002f8bf .LASF2021
     /tmp/ccYIdjbY.s:99284  .debug_str:0000000000036dc1 .LASF2022
     /tmp/ccYIdjbY.s:88966  .debug_str:000000000000cfaf .LASF2023
     /tmp/ccYIdjbY.s:90894  .debug_str:0000000000014687 .LASF2024
     /tmp/ccYIdjbY.s:99176  .debug_str:00000000000367c0 .LASF2025
     /tmp/ccYIdjbY.s:102848  .debug_str:0000000000045a55 .LASF2026
     /tmp/ccYIdjbY.s:91308  .debug_str:0000000000016159 .LASF2027
     /tmp/ccYIdjbY.s:88014  .debug_str:0000000000008e47 .LASF2028
     /tmp/ccYIdjbY.s:95232  .debug_str:0000000000026694 .LASF2029
     /tmp/ccYIdjbY.s:97552  .debug_str:00000000000300a5 .LASF2030
     /tmp/ccYIdjbY.s:85992  .debug_str:000000000000037a .LASF2031
     /tmp/ccYIdjbY.s:97330  .debug_str:000000000002f109 .LASF2032
     /tmp/ccYIdjbY.s:95410  .debug_str:0000000000027363 .LASF2033
     /tmp/ccYIdjbY.s:93764  .debug_str:0000000000020a71 .LASF2034
     /tmp/ccYIdjbY.s:86702  .debug_str:0000000000003457 .LASF2035
     /tmp/ccYIdjbY.s:99616  .debug_str:0000000000038289 .LASF2036
     /tmp/ccYIdjbY.s:87520  .debug_str:0000000000006d8e .LASF2037
     /tmp/ccYIdjbY.s:102292  .debug_str:00000000000434d5 .LASF2038
     /tmp/ccYIdjbY.s:97658  .debug_str:00000000000307ff .LASF2039
     /tmp/ccYIdjbY.s:93960  .debug_str:0000000000021705 .LASF2040
     /tmp/ccYIdjbY.s:95624  .debug_str:00000000000280a5 .LASF2041
     /tmp/ccYIdjbY.s:89012  .debug_str:000000000000d29b .LASF2042
     /tmp/ccYIdjbY.s:87214  .debug_str:0000000000005890 .LASF2043
     /tmp/ccYIdjbY.s:99746  .debug_str:0000000000038b4a .LASF2044
     /tmp/ccYIdjbY.s:92584  .debug_str:000000000001b92b .LASF2045
     /tmp/ccYIdjbY.s:92246  .debug_str:000000000001a1a7 .LASF2046
     /tmp/ccYIdjbY.s:87968  .debug_str:0000000000008ae4 .LASF2047
     /tmp/ccYIdjbY.s:101412  .debug_str:000000000003fb99 .LASF2048
     /tmp/ccYIdjbY.s:95994  .debug_str:00000000000298ca .LASF2049
     /tmp/ccYIdjbY.s:89626  .debug_str:000000000000f61c .LASF2050
     /tmp/ccYIdjbY.s:89604  .debug_str:000000000000f4d5 .LASF2051
     /tmp/ccYIdjbY.s:99782  .debug_str:0000000000038ddc .LASF2052
     /tmp/ccYIdjbY.s:99760  .debug_str:0000000000038c1f .LASF2053
     /tmp/ccYIdjbY.s:91570  .debug_str:00000000000173c4 .LASF2054
     /tmp/ccYIdjbY.s:91374  .debug_str:000000000001665f .LASF2055
     /tmp/ccYIdjbY.s:101614  .debug_str:0000000000040914 .LASF2056
     /tmp/ccYIdjbY.s:101938  .debug_str:0000000000041df8 .LASF2057
     /tmp/ccYIdjbY.s:92718  .debug_str:000000000001c190 .LASF2058
     /tmp/ccYIdjbY.s:95508  .debug_str:0000000000027915 .LASF2059
     /tmp/ccYIdjbY.s:88116  .debug_str:00000000000095a7 .LASF2060
     /tmp/ccYIdjbY.s:86262  .debug_str:0000000000001543 .LASF2061
     /tmp/ccYIdjbY.s:98346  .debug_str:0000000000033686 .LASF2062
     /tmp/ccYIdjbY.s:89000  .debug_str:000000000000d1d1 .LASF2063
     /tmp/ccYIdjbY.s:94744  .debug_str:0000000000024652 .LASF2064
     /tmp/ccYIdjbY.s:98864  .debug_str:000000000003575c .LASF2065
     /tmp/ccYIdjbY.s:92188  .debug_str:0000000000019e12 .LASF2066
     /tmp/ccYIdjbY.s:92346  .debug_str:000000000001a84b .LASF2067
     /tmp/ccYIdjbY.s:96166  .debug_str:000000000002a372 .LASF2068
     /tmp/ccYIdjbY.s:102370  .debug_str:00000000000439a2 .LASF2069
     /tmp/ccYIdjbY.s:88110  .debug_str:0000000000009542 .LASF2070
     /tmp/ccYIdjbY.s:94036  .debug_str:0000000000021c77 .LASF2071
     /tmp/ccYIdjbY.s:98278  .debug_str:0000000000033165 .LASF2072
     /tmp/ccYIdjbY.s:104086  .debug_str:000000000004b0f8 .LASF2073
     /tmp/ccYIdjbY.s:99656  .debug_str:0000000000038545 .LASF2074
     /tmp/ccYIdjbY.s:98472  .debug_str:0000000000033eb5 .LASF2075
     /tmp/ccYIdjbY.s:89308  .debug_str:000000000000e386 .LASF2076
     /tmp/ccYIdjbY.s:102418  .debug_str:0000000000043c8f .LASF2077
     /tmp/ccYIdjbY.s:101044  .debug_str:000000000003e2d1 .LASF2078
     /tmp/ccYIdjbY.s:99700  .debug_str:0000000000038893 .LASF2079
     /tmp/ccYIdjbY.s:91912  .debug_str:00000000000189e5 .LASF2080
     /tmp/ccYIdjbY.s:103080  .debug_str:000000000004697d .LASF2081
     /tmp/ccYIdjbY.s:101606  .debug_str:00000000000408a1 .LASF2082
     /tmp/ccYIdjbY.s:97040  .debug_str:000000000002ddd7 .LASF2083
     /tmp/ccYIdjbY.s:94826  .debug_str:0000000000024c1a .LASF2084
     /tmp/ccYIdjbY.s:103210  .debug_str:000000000004729b .LASF2085
     /tmp/ccYIdjbY.s:86478  .debug_str:00000000000024b4 .LASF2086
     /tmp/ccYIdjbY.s:94936  .debug_str:0000000000025385 .LASF2087
     /tmp/ccYIdjbY.s:92052  .debug_str:00000000000193ef .LASF2088
     /tmp/ccYIdjbY.s:86572  .debug_str:0000000000002b90 .LASF2089
     /tmp/ccYIdjbY.s:88310  .debug_str:000000000000a287 .LASF2090
     /tmp/ccYIdjbY.s:97282  .debug_str:000000000002ee2e .LASF2091
     /tmp/ccYIdjbY.s:104158  .debug_str:000000000004b63f .LASF2092
     /tmp/ccYIdjbY.s:88230  .debug_str:0000000000009cc2 .LASF2093
     /tmp/ccYIdjbY.s:95320  .debug_str:0000000000026cd6 .LASF2094
     /tmp/ccYIdjbY.s:97554  .debug_str:00000000000300c0 .LASF2095
     /tmp/ccYIdjbY.s:95030  .debug_str:00000000000258f4 .LASF2096
     /tmp/ccYIdjbY.s:89236  .debug_str:000000000000e00c .LASF2097
     /tmp/ccYIdjbY.s:90488  .debug_str:0000000000012d21 .LASF2098
     /tmp/ccYIdjbY.s:98088  .debug_str:0000000000032510 .LASF2099
     /tmp/ccYIdjbY.s:103102  .debug_str:0000000000046a91 .LASF2100
     /tmp/ccYIdjbY.s:92114  .debug_str:000000000001988a .LASF2101
     /tmp/ccYIdjbY.s:92710  .debug_str:000000000001c0fd .LASF2102
     /tmp/ccYIdjbY.s:101094  .debug_str:000000000003e5cc .LASF2103
     /tmp/ccYIdjbY.s:95658  .debug_str:00000000000282eb .LASF2104
     /tmp/ccYIdjbY.s:96066  .debug_str:0000000000029d25 .LASF2105
     /tmp/ccYIdjbY.s:86318  .debug_str:000000000000192c .LASF2106
     /tmp/ccYIdjbY.s:93392  .debug_str:000000000001f1c6 .LASF2107
     /tmp/ccYIdjbY.s:89628  .debug_str:000000000000f637 .LASF2108
     /tmp/ccYIdjbY.s:91076  .debug_str:0000000000015223 .LASF2109
     /tmp/ccYIdjbY.s:98822  .debug_str:0000000000035574 .LASF2110
     /tmp/ccYIdjbY.s:91286  .debug_str:0000000000016024 .LASF2111
     /tmp/ccYIdjbY.s:97950  .debug_str:0000000000031bb8 .LASF2112
     /tmp/ccYIdjbY.s:97634  .debug_str:000000000003068c .LASF2113
     /tmp/ccYIdjbY.s:98126  .debug_str:00000000000326fd .LASF2114
     /tmp/ccYIdjbY.s:103500  .debug_str:00000000000486a9 .LASF2115
     /tmp/ccYIdjbY.s:89458  .debug_str:000000000000ebd5 .LASF2116
     /tmp/ccYIdjbY.s:95248  .debug_str:00000000000267a3 .LASF2117
     /tmp/ccYIdjbY.s:99420  .debug_str:0000000000037563 .LASF2118
     /tmp/ccYIdjbY.s:87372  .debug_str:00000000000062d5 .LASF2119
     /tmp/ccYIdjbY.s:102800  .debug_str:000000000004570a .LASF2120
     /tmp/ccYIdjbY.s:91534  .debug_str:0000000000017111 .LASF2121
     /tmp/ccYIdjbY.s:100466  .debug_str:000000000003bbde .LASF2122
     /tmp/ccYIdjbY.s:89222  .debug_str:000000000000df08 .LASF2123
     /tmp/ccYIdjbY.s:100364  .debug_str:000000000003b57f .LASF2124
     /tmp/ccYIdjbY.s:88794  .debug_str:000000000000c41e .LASF2125
     /tmp/ccYIdjbY.s:103030  .debug_str:0000000000046605 .LASF2126
     /tmp/ccYIdjbY.s:93492  .debug_str:000000000001f7cb .LASF2127
     /tmp/ccYIdjbY.s:100634  .debug_str:000000000003c728 .LASF2128
     /tmp/ccYIdjbY.s:103640  .debug_str:000000000004909a .LASF2129
     /tmp/ccYIdjbY.s:92118  .debug_str:00000000000198ce .LASF2130
     /tmp/ccYIdjbY.s:95368  .debug_str:0000000000027002 .LASF2131
     /tmp/ccYIdjbY.s:98606  .debug_str:0000000000034714 .LASF2132
     /tmp/ccYIdjbY.s:103822  .debug_str:0000000000049f0c .LASF2133
     /tmp/ccYIdjbY.s:93582  .debug_str:000000000001fe7b .LASF2134
     /tmp/ccYIdjbY.s:99030  .debug_str:00000000000360df .LASF2135
     /tmp/ccYIdjbY.s:103324  .debug_str:0000000000047aa8 .LASF2136
     /tmp/ccYIdjbY.s:90812  .debug_str:0000000000014100 .LASF2137
     /tmp/ccYIdjbY.s:94818  .debug_str:0000000000024b44 .LASF2138
     /tmp/ccYIdjbY.s:100834  .debug_str:000000000003d371 .LASF2139
     /tmp/ccYIdjbY.s:86236  .debug_str:00000000000013c0 .LASF2140
     /tmp/ccYIdjbY.s:99910  .debug_str:000000000003977b .LASF2141
     /tmp/ccYIdjbY.s:94354  .debug_str:00000000000231a4 .LASF2142
     /tmp/ccYIdjbY.s:87508  .debug_str:0000000000006cea .LASF2143
     /tmp/ccYIdjbY.s:102040  .debug_str:0000000000042464 .LASF2144
     /tmp/ccYIdjbY.s:88828  .debug_str:000000000000c617 .LASF2145
     /tmp/ccYIdjbY.s:95212  .debug_str:0000000000026541 .LASF2146
     /tmp/ccYIdjbY.s:96836  .debug_str:000000000002cfe6 .LASF2147
     /tmp/ccYIdjbY.s:103476  .debug_str:000000000004851e .LASF2148
     /tmp/ccYIdjbY.s:102796  .debug_str:000000000004569a .LASF2149
     /tmp/ccYIdjbY.s:103744  .debug_str:00000000000498ae .LASF2150
     /tmp/ccYIdjbY.s:94320  .debug_str:0000000000022e9a .LASF2151
     /tmp/ccYIdjbY.s:96488  .debug_str:000000000002b80e .LASF2152
     /tmp/ccYIdjbY.s:92378  .debug_str:000000000001aaa7 .LASF2153
     /tmp/ccYIdjbY.s:100742  .debug_str:000000000003cd95 .LASF2154
     /tmp/ccYIdjbY.s:103028  .debug_str:00000000000465c6 .LASF2155
     /tmp/ccYIdjbY.s:91680  .debug_str:0000000000017a7e .LASF2156
     /tmp/ccYIdjbY.s:99666  .debug_str:00000000000385f5 .LASF2157
     /tmp/ccYIdjbY.s:86278  .debug_str:0000000000001633 .LASF2158
     /tmp/ccYIdjbY.s:94906  .debug_str:0000000000025180 .LASF2159
     /tmp/ccYIdjbY.s:95282  .debug_str:0000000000026a1b .LASF2160
     /tmp/ccYIdjbY.s:90378  .debug_str:0000000000012646 .LASF2161
     /tmp/ccYIdjbY.s:104194  .debug_str:000000000004b89e .LASF2162
     /tmp/ccYIdjbY.s:92096  .debug_str:00000000000196f0 .LASF2163
     /tmp/ccYIdjbY.s:103454  .debug_str:0000000000048384 .LASF2164
     /tmp/ccYIdjbY.s:87392  .debug_str:000000000000643d .LASF2165
     /tmp/ccYIdjbY.s:94070  .debug_str:0000000000021ea1 .LASF2166
     /tmp/ccYIdjbY.s:101216  .debug_str:000000000003ee80 .LASF2167
     /tmp/ccYIdjbY.s:103000  .debug_str:000000000004640b .LASF2168
     /tmp/ccYIdjbY.s:96670  .debug_str:000000000002c44a .LASF2169
     /tmp/ccYIdjbY.s:89812  .debug_str:000000000000ffb0 .LASF2170
     /tmp/ccYIdjbY.s:93746  .debug_str:00000000000208e7 .LASF2171
     /tmp/ccYIdjbY.s:92010  .debug_str:00000000000190a6 .LASF2172
     /tmp/ccYIdjbY.s:94880  .debug_str:0000000000024fae .LASF2173
     /tmp/ccYIdjbY.s:88242  .debug_str:0000000000009d31 .LASF2174
     /tmp/ccYIdjbY.s:100828  .debug_str:000000000003d2f1 .LASF2175
     /tmp/ccYIdjbY.s:90362  .debug_str:0000000000012494 .LASF2176
     /tmp/ccYIdjbY.s:87492  .debug_str:0000000000006bcd .LASF2177
     /tmp/ccYIdjbY.s:104148  .debug_str:000000000004b552 .LASF2178
     /tmp/ccYIdjbY.s:101598  .debug_str:0000000000040807 .LASF2179
     /tmp/ccYIdjbY.s:103862  .debug_str:000000000004a1a2 .LASF2180
     /tmp/ccYIdjbY.s:98898  .debug_str:00000000000359c8 .LASF2181
     /tmp/ccYIdjbY.s:86982  .debug_str:0000000000004804 .LASF2182
     /tmp/ccYIdjbY.s:97670  .debug_str:00000000000308d5 .LASF2183
     /tmp/ccYIdjbY.s:98852  .debug_str:000000000003567b .LASF2184
     /tmp/ccYIdjbY.s:90136  .debug_str:0000000000011592 .LASF2185
     /tmp/ccYIdjbY.s:88428  .debug_str:000000000000aab3 .LASF2186
     /tmp/ccYIdjbY.s:102248  .debug_str:000000000004319e .LASF2187
     /tmp/ccYIdjbY.s:89944  .debug_str:000000000001090f .LASF2188
     /tmp/ccYIdjbY.s:87682  .debug_str:00000000000077b6 .LASF2189
     /tmp/ccYIdjbY.s:100194  .debug_str:000000000003a9cd .LASF2190
     /tmp/ccYIdjbY.s:97596  .debug_str:00000000000303b0 .LASF2191
     /tmp/ccYIdjbY.s:91858  .debug_str:0000000000018639 .LASF2192
     /tmp/ccYIdjbY.s:88902  .debug_str:000000000000cb36 .LASF2193
     /tmp/ccYIdjbY.s:93974  .debug_str:00000000000217eb .LASF2194
     /tmp/ccYIdjbY.s:103522  .debug_str:0000000000048835 .LASF2195
     /tmp/ccYIdjbY.s:89514  .debug_str:000000000000eefb .LASF2196
     /tmp/ccYIdjbY.s:95032  .debug_str:0000000000025910 .LASF2197
     /tmp/ccYIdjbY.s:95946  .debug_str:000000000002953f .LASF2198
     /tmp/ccYIdjbY.s:86416  .debug_str:0000000000002019 .LASF2199
     /tmp/ccYIdjbY.s:87498  .debug_str:0000000000006c3d .LASF2200
     /tmp/ccYIdjbY.s:96334  .debug_str:000000000002ae50 .LASF2201
     /tmp/ccYIdjbY.s:86506  .debug_str:00000000000026ce .LASF2202
     /tmp/ccYIdjbY.s:103960  .debug_str:000000000004a8e3 .LASF2203
     /tmp/ccYIdjbY.s:93388  .debug_str:000000000001f183 .LASF2204
     /tmp/ccYIdjbY.s:86930  .debug_str:0000000000004441 .LASF2205
     /tmp/ccYIdjbY.s:93878  .debug_str:00000000000211dd .LASF2206
     /tmp/ccYIdjbY.s:86398  .debug_str:0000000000001ea7 .LASF2207
     /tmp/ccYIdjbY.s:102474  .debug_str:00000000000440e3 .LASF2208
     /tmp/ccYIdjbY.s:93172  .debug_str:000000000001e1ab .LASF2209
     /tmp/ccYIdjbY.s:90188  .debug_str:000000000001191c .LASF2210
     /tmp/ccYIdjbY.s:93280  .debug_str:000000000001e93e .LASF2211
     /tmp/ccYIdjbY.s:100192  .debug_str:000000000003a994 .LASF2212
     /tmp/ccYIdjbY.s:99934  .debug_str:0000000000039932 .LASF2213
     /tmp/ccYIdjbY.s:101602  .debug_str:000000000004084a .LASF2214
     /tmp/ccYIdjbY.s:101616  .debug_str:000000000004092f .LASF2215
     /tmp/ccYIdjbY.s:95090  .debug_str:0000000000025d77 .LASF2216
     /tmp/ccYIdjbY.s:96156  .debug_str:000000000002a2a3 .LASF2217
     /tmp/ccYIdjbY.s:86152  .debug_str:0000000000000dde .LASF2218
     /tmp/ccYIdjbY.s:95988  .debug_str:0000000000029833 .LASF2219
     /tmp/ccYIdjbY.s:99922  .debug_str:0000000000039839 .LASF2220
     /tmp/ccYIdjbY.s:86482  .debug_str:00000000000024dc .LASF2221
     /tmp/ccYIdjbY.s:95380  .debug_str:0000000000027121 .LASF2222
     /tmp/ccYIdjbY.s:95690  .debug_str:0000000000028549 .LASF2223
     /tmp/ccYIdjbY.s:97974  .debug_str:0000000000031d24 .LASF2224
     /tmp/ccYIdjbY.s:101016  .debug_str:000000000003e0dd .LASF2225
     /tmp/ccYIdjbY.s:93410  .debug_str:000000000001f303 .LASF2226
     /tmp/ccYIdjbY.s:97620  .debug_str:0000000000030553 .LASF2227
     /tmp/ccYIdjbY.s:88626  .debug_str:000000000000b8fe .LASF2228
     /tmp/ccYIdjbY.s:88062  .debug_str:000000000000911d .LASF2229
     /tmp/ccYIdjbY.s:102556  .debug_str:0000000000044669 .LASF2230
     /tmp/ccYIdjbY.s:97168  .debug_str:000000000002e6fc .LASF2231
     /tmp/ccYIdjbY.s:89916  .debug_str:000000000001070e .LASF2232
     /tmp/ccYIdjbY.s:97012  .debug_str:000000000002dc06 .LASF2233
     /tmp/ccYIdjbY.s:91426  .debug_str:0000000000016a20 .LASF2234
     /tmp/ccYIdjbY.s:98792  .debug_str:00000000000352bc .LASF2235
     /tmp/ccYIdjbY.s:103914  .debug_str:000000000004a59b .LASF2236
     /tmp/ccYIdjbY.s:92950  .debug_str:000000000001d246 .LASF2237
     /tmp/ccYIdjbY.s:93770  .debug_str:0000000000020ae9 .LASF2238
     /tmp/ccYIdjbY.s:99502  .debug_str:0000000000037acf .LASF2239
     /tmp/ccYIdjbY.s:95740  .debug_str:000000000002880c .LASF2240
     /tmp/ccYIdjbY.s:103944  .debug_str:000000000004a7a7 .LASF2241
     /tmp/ccYIdjbY.s:88454  .debug_str:000000000000ac8f .LASF2242
     /tmp/ccYIdjbY.s:94450  .debug_str:00000000000236f9 .LASF2243
     /tmp/ccYIdjbY.s:101076  .debug_str:000000000003e4e2 .LASF2244
     /tmp/ccYIdjbY.s:97208  .debug_str:000000000002e9b0 .LASF2245
     /tmp/ccYIdjbY.s:100028  .debug_str:0000000000039f91 .LASF2246
     /tmp/ccYIdjbY.s:103768  .debug_str:0000000000049adf .LASF2247
     /tmp/ccYIdjbY.s:101428  .debug_str:000000000003fc38 .LASF2248
     /tmp/ccYIdjbY.s:86468  .debug_str:00000000000023bd .LASF2249
     /tmp/ccYIdjbY.s:92998  .debug_str:000000000001d588 .LASF2250
     /tmp/ccYIdjbY.s:101446  .debug_str:000000000003fd95 .LASF2251
     /tmp/ccYIdjbY.s:102814  .debug_str:0000000000045814 .LASF2252
     /tmp/ccYIdjbY.s:88290  .debug_str:000000000000a12c .LASF2253
     /tmp/ccYIdjbY.s:94232  .debug_str:00000000000229c5 .LASF2254
     /tmp/ccYIdjbY.s:99104  .debug_str:000000000003645b .LASF2255
     /tmp/ccYIdjbY.s:97382  .debug_str:000000000002f4b1 .LASF2256
     /tmp/ccYIdjbY.s:90706  .debug_str:0000000000013ab9 .LASF2257
     /tmp/ccYIdjbY.s:86448  .debug_str:0000000000002266 .LASF2258
     /tmp/ccYIdjbY.s:93662  .debug_str:000000000002044e .LASF2259
     /tmp/ccYIdjbY.s:96370  .debug_str:000000000002b035 .LASF2260
     /tmp/ccYIdjbY.s:92594  .debug_str:000000000001b9f4 .LASF2261
     /tmp/ccYIdjbY.s:87666  .debug_str:000000000000765b .LASF2262
     /tmp/ccYIdjbY.s:92864  .debug_str:000000000001cc07 .LASF2263
     /tmp/ccYIdjbY.s:92404  .debug_str:000000000001acc2 .LASF2264
     /tmp/ccYIdjbY.s:85988  .debug_str:00000000000002ff .LASF2265
     /tmp/ccYIdjbY.s:90448  .debug_str:0000000000012a87 .LASF2266
     /tmp/ccYIdjbY.s:98890  .debug_str:000000000003591c .LASF2267
     /tmp/ccYIdjbY.s:96124  .debug_str:000000000002a0ac .LASF2268
     /tmp/ccYIdjbY.s:89806  .debug_str:000000000000ff4d .LASF2269
     /tmp/ccYIdjbY.s:101008  .debug_str:000000000003e03e .LASF2270
     /tmp/ccYIdjbY.s:95826  .debug_str:0000000000028d16 .LASF2271
     /tmp/ccYIdjbY.s:101116  .debug_str:000000000003e764 .LASF2272
     /tmp/ccYIdjbY.s:87720  .debug_str:00000000000079ac .LASF2273
     /tmp/ccYIdjbY.s:103148  .debug_str:0000000000046da0 .LASF2274
     /tmp/ccYIdjbY.s:100876  .debug_str:000000000003d661 .LASF2275
     /tmp/ccYIdjbY.s:102310  .debug_str:0000000000043591 .LASF2276
     /tmp/ccYIdjbY.s:90292  .debug_str:0000000000012020 .LASF2277
     /tmp/ccYIdjbY.s:100480  .debug_str:000000000003bc8b .LASF2278
     /tmp/ccYIdjbY.s:91154  .debug_str:0000000000015771 .LASF2279
     /tmp/ccYIdjbY.s:100824  .debug_str:000000000003d29f .LASF2280
     /tmp/ccYIdjbY.s:86434  .debug_str:0000000000002182 .LASF2281
     /tmp/ccYIdjbY.s:93594  .debug_str:000000000001ff37 .LASF2282
     /tmp/ccYIdjbY.s:100308  .debug_str:000000000003b1f2 .LASF2283
     /tmp/ccYIdjbY.s:86830  .debug_str:0000000000003d3a .LASF2284
     /tmp/ccYIdjbY.s:103706  .debug_str:0000000000049545 .LASF2285
     /tmp/ccYIdjbY.s:91938  .debug_str:0000000000018bba .LASF2286
     /tmp/ccYIdjbY.s:99290  .debug_str:0000000000036e35 .LASF2287
     /tmp/ccYIdjbY.s:100858  .debug_str:000000000003d526 .LASF2288
     /tmp/ccYIdjbY.s:94702  .debug_str:00000000000243da .LASF2289
     /tmp/ccYIdjbY.s:91648  .debug_str:0000000000017911 .LASF2290
     /tmp/ccYIdjbY.s:90008  .debug_str:0000000000010c49 .LASF2291
     /tmp/ccYIdjbY.s:100590  .debug_str:000000000003c421 .LASF2292
     /tmp/ccYIdjbY.s:96712  .debug_str:000000000002c753 .LASF2293
     /tmp/ccYIdjbY.s:100406  .debug_str:000000000003b8c3 .LASF2294
     /tmp/ccYIdjbY.s:95074  .debug_str:0000000000025c5a .LASF2295
     /tmp/ccYIdjbY.s:90998  .debug_str:0000000000014d63 .LASF2296
     /tmp/ccYIdjbY.s:91346  .debug_str:00000000000163e7 .LASF2297
     /tmp/ccYIdjbY.s:97042  .debug_str:000000000002ddee .LASF2298
     /tmp/ccYIdjbY.s:94020  .debug_str:0000000000021b28 .LASF2299
     /tmp/ccYIdjbY.s:104076  .debug_str:000000000004b03e .LASF2300
     /tmp/ccYIdjbY.s:89682  .debug_str:000000000000f8aa .LASF2301
     /tmp/ccYIdjbY.s:99264  .debug_str:0000000000036c3b .LASF2302
     /tmp/ccYIdjbY.s:96506  .debug_str:000000000002b919 .LASF2303
     /tmp/ccYIdjbY.s:86518  .debug_str:00000000000027e6 .LASF2304
     /tmp/ccYIdjbY.s:86186  .debug_str:0000000000001073 .LASF2305
     /tmp/ccYIdjbY.s:92120  .debug_str:0000000000019911 .LASF2306
     /tmp/ccYIdjbY.s:97106  .debug_str:000000000002e233 .LASF2307
     /tmp/ccYIdjbY.s:90042  .debug_str:0000000000010ed3 .LASF2308
     /tmp/ccYIdjbY.s:100628  .debug_str:000000000003c6da .LASF2309
     /tmp/ccYIdjbY.s:101356  .debug_str:000000000003f6fe .LASF2310
     /tmp/ccYIdjbY.s:97486  .debug_str:000000000002fb2d .LASF2311
     /tmp/ccYIdjbY.s:92236  .debug_str:000000000001a0e0 .LASF2312
     /tmp/ccYIdjbY.s:89868  .debug_str:00000000000103fc .LASF2313
     /tmp/ccYIdjbY.s:103326  .debug_str:0000000000047ae8 .LASF2314
     /tmp/ccYIdjbY.s:99650  .debug_str:00000000000384ca .LASF2315
     /tmp/ccYIdjbY.s:104050  .debug_str:000000000004aeb5 .LASF2316
     /tmp/ccYIdjbY.s:86648  .debug_str:0000000000003113 .LASF2317
     /tmp/ccYIdjbY.s:95836  .debug_str:0000000000028e1d .LASF2318
     /tmp/ccYIdjbY.s:96562  .debug_str:000000000002bcbc .LASF2319
     /tmp/ccYIdjbY.s:87410  .debug_str:0000000000006577 .LASF2320
     /tmp/ccYIdjbY.s:87842  .debug_str:00000000000081eb .LASF2321
     /tmp/ccYIdjbY.s:97524  .debug_str:000000000002fe07 .LASF2322
     /tmp/ccYIdjbY.s:97780  .debug_str:0000000000031011 .LASF2323
     /tmp/ccYIdjbY.s:96560  .debug_str:000000000002bc84 .LASF2324
     /tmp/ccYIdjbY.s:87042  .debug_str:0000000000004c4c .LASF2325
     /tmp/ccYIdjbY.s:86618  .debug_str:0000000000002f72 .LASF2326
     /tmp/ccYIdjbY.s:101490  .debug_str:0000000000040128 .LASF2327
     /tmp/ccYIdjbY.s:103780  .debug_str:0000000000049bd3 .LASF2328
     /tmp/ccYIdjbY.s:103046  .debug_str:00000000000466f0 .LASF2329
     /tmp/ccYIdjbY.s:95450  .debug_str:00000000000275a2 .LASF2330
     /tmp/ccYIdjbY.s:90540  .debug_str:000000000001304b .LASF2331
     /tmp/ccYIdjbY.s:101466  .debug_str:000000000003ff2d .LASF2332
     /tmp/ccYIdjbY.s:90642  .debug_str:00000000000136c4 .LASF2333
     /tmp/ccYIdjbY.s:93636  .debug_str:000000000002021d .LASF2334
     /tmp/ccYIdjbY.s:87798  .debug_str:0000000000007f1c .LASF2335
     /tmp/ccYIdjbY.s:87944  .debug_str:0000000000008927 .LASF2336
     /tmp/ccYIdjbY.s:103118  .debug_str:0000000000046bc1 .LASF2337
     /tmp/ccYIdjbY.s:103696  .debug_str:000000000004948a .LASF2338
     /tmp/ccYIdjbY.s:86512  .debug_str:0000000000002743 .LASF2339
     /tmp/ccYIdjbY.s:96180  .debug_str:000000000002a4b0 .LASF2340
     /tmp/ccYIdjbY.s:94694  .debug_str:000000000002434e .LASF2341
     /tmp/ccYIdjbY.s:104098  .debug_str:000000000004b1a9 .LASF2342
     /tmp/ccYIdjbY.s:87490  .debug_str:0000000000006b89 .LASF2343
     /tmp/ccYIdjbY.s:101930  .debug_str:0000000000041d4b .LASF2344
     /tmp/ccYIdjbY.s:96580  .debug_str:000000000002be12 .LASF2345
     /tmp/ccYIdjbY.s:91366  .debug_str:00000000000165a7 .LASF2346
     /tmp/ccYIdjbY.s:95636  .debug_str:0000000000028160 .LASF2347
     /tmp/ccYIdjbY.s:86654  .debug_str:0000000000003193 .LASF2348
     /tmp/ccYIdjbY.s:92876  .debug_str:000000000001cd19 .LASF2349
     /tmp/ccYIdjbY.s:100510  .debug_str:000000000003beb9 .LASF2350
     /tmp/ccYIdjbY.s:94990  .debug_str:00000000000255f9 .LASF2351
     /tmp/ccYIdjbY.s:95922  .debug_str:000000000002939b .LASF2352
     /tmp/ccYIdjbY.s:103908  .debug_str:000000000004a518 .LASF2353
     /tmp/ccYIdjbY.s:101750  .debug_str:0000000000041215 .LASF2354
     /tmp/ccYIdjbY.s:103876  .debug_str:000000000004a29a .LASF2355
     /tmp/ccYIdjbY.s:103262  .debug_str:000000000004766e .LASF2356
     /tmp/ccYIdjbY.s:102568  .debug_str:000000000004470f .LASF2357
     /tmp/ccYIdjbY.s:96282  .debug_str:000000000002ab63 .LASF2358
     /tmp/ccYIdjbY.s:102754  .debug_str:00000000000453e1 .LASF2359
     /tmp/ccYIdjbY.s:88012  .debug_str:0000000000008e10 .LASF2360
     /tmp/ccYIdjbY.s:89818  .debug_str:0000000000010005 .LASF2361
     /tmp/ccYIdjbY.s:102176  .debug_str:0000000000042cef .LASF2362
     /tmp/ccYIdjbY.s:94370  .debug_str:0000000000023256 .LASF2363
     /tmp/ccYIdjbY.s:104264  .debug_str:000000000004bd40 .LASF2364
     /tmp/ccYIdjbY.s:97038  .debug_str:000000000002dd95 .LASF2365
     /tmp/ccYIdjbY.s:88450  .debug_str:000000000000ac22 .LASF2366
     /tmp/ccYIdjbY.s:88842  .debug_str:000000000000c710 .LASF2367
     /tmp/ccYIdjbY.s:101432  .debug_str:000000000003fc88 .LASF2368
     /tmp/ccYIdjbY.s:90916  .debug_str:00000000000147d8 .LASF2369
     /tmp/ccYIdjbY.s:99882  .debug_str:000000000003957e .LASF2370
     /tmp/ccYIdjbY.s:97948  .debug_str:0000000000031b7d .LASF2371
     /tmp/ccYIdjbY.s:103726  .debug_str:000000000004970a .LASF2372
     /tmp/ccYIdjbY.s:89510  .debug_str:000000000000ee93 .LASF2373
     /tmp/ccYIdjbY.s:95224  .debug_str:0000000000026606 .LASF2374
     /tmp/ccYIdjbY.s:99810  .debug_str:0000000000039000 .LASF2375
     /tmp/ccYIdjbY.s:86610  .debug_str:0000000000002eca .LASF2376
     /tmp/ccYIdjbY.s:90766  .debug_str:0000000000013df0 .LASF2377
     /tmp/ccYIdjbY.s:95352  .debug_str:0000000000026edd .LASF2378
     /tmp/ccYIdjbY.s:88482  .debug_str:000000000000aeaf .LASF2379
     /tmp/ccYIdjbY.s:87868  .debug_str:00000000000083e2 .LASF2380
     /tmp/ccYIdjbY.s:92480  .debug_str:000000000001b1cb .LASF2381
     /tmp/ccYIdjbY.s:97808  .debug_str:0000000000031224 .LASF2382
     /tmp/ccYIdjbY.s:102504  .debug_str:0000000000044304 .LASF2383
     /tmp/ccYIdjbY.s:89110  .debug_str:000000000000d878 .LASF2384
     /tmp/ccYIdjbY.s:97132  .debug_str:000000000002e490 .LASF2385
     /tmp/ccYIdjbY.s:96996  .debug_str:000000000002db09 .LASF2386
     /tmp/ccYIdjbY.s:91722  .debug_str:0000000000017c90 .LASF2387
     /tmp/ccYIdjbY.s:89516  .debug_str:000000000000ef33 .LASF2388
     /tmp/ccYIdjbY.s:90408  .debug_str:0000000000012852 .LASF2389
     /tmp/ccYIdjbY.s:98450  .debug_str:0000000000033d12 .LASF2390
     /tmp/ccYIdjbY.s:101114  .debug_str:000000000003e72e .LASF2391
     /tmp/ccYIdjbY.s:98426  .debug_str:0000000000033ba1 .LASF2392
     /tmp/ccYIdjbY.s:88742  .debug_str:000000000000c057 .LASF2393
     /tmp/ccYIdjbY.s:98518  .debug_str:00000000000341d3 .LASF2394
     /tmp/ccYIdjbY.s:94038  .debug_str:0000000000021c92 .LASF2395
     /tmp/ccYIdjbY.s:91796  .debug_str:00000000000181c0 .LASF2396
     /tmp/ccYIdjbY.s:98082  .debug_str:00000000000324a8 .LASF2397
     /tmp/ccYIdjbY.s:103834  .debug_str:0000000000049fba .LASF2398
     /tmp/ccYIdjbY.s:99000  .debug_str:0000000000035e7b .LASF2399
     /tmp/ccYIdjbY.s:86316  .debug_str:00000000000018e5 .LASF2400
     /tmp/ccYIdjbY.s:101046  .debug_str:000000000003e2f5 .LASF2401
     /tmp/ccYIdjbY.s:88074  .debug_str:00000000000091f0 .LASF2402
     /tmp/ccYIdjbY.s:96644  .debug_str:000000000002c233 .LASF2403
     /tmp/ccYIdjbY.s:97176  .debug_str:000000000002e79c .LASF2404
     /tmp/ccYIdjbY.s:91888  .debug_str:0000000000018848 .LASF2405
     /tmp/ccYIdjbY.s:87676  .debug_str:000000000000775c .LASF2406
     /tmp/ccYIdjbY.s:95502  .debug_str:0000000000027886 .LASF2407
     /tmp/ccYIdjbY.s:98942  .debug_str:0000000000035bc3 .LASF2408
     /tmp/ccYIdjbY.s:95596  .debug_str:0000000000027eb6 .LASF2409
     /tmp/ccYIdjbY.s:94762  .debug_str:000000000002473c .LASF2410
     /tmp/ccYIdjbY.s:100436  .debug_str:000000000003ba97 .LASF2411
     /tmp/ccYIdjbY.s:98464  .debug_str:0000000000033de5 .LASF2412
     /tmp/ccYIdjbY.s:98288  .debug_str:000000000003326d .LASF2413
     /tmp/ccYIdjbY.s:88944  .debug_str:000000000000ce0d .LASF2414
     /tmp/ccYIdjbY.s:89122  .debug_str:000000000000d924 .LASF2415
     /tmp/ccYIdjbY.s:100338  .debug_str:000000000003b3fd .LASF2416
     /tmp/ccYIdjbY.s:92794  .debug_str:000000000001c726 .LASF2417
     /tmp/ccYIdjbY.s:93500  .debug_str:000000000001f861 .LASF2418
     /tmp/ccYIdjbY.s:95000  .debug_str:00000000000256e0 .LASF2419
     /tmp/ccYIdjbY.s:86762  .debug_str:000000000000388c .LASF2420
     /tmp/ccYIdjbY.s:100540  .debug_str:000000000003c100 .LASF2421
     /tmp/ccYIdjbY.s:103408  .debug_str:000000000004806b .LASF2422
     /tmp/ccYIdjbY.s:93426  .debug_str:000000000001f3f5 .LASF2423
     /tmp/ccYIdjbY.s:89592  .debug_str:000000000000f41b .LASF2424
     /tmp/ccYIdjbY.s:93830  .debug_str:0000000000020e7c .LASF2425
     /tmp/ccYIdjbY.s:97776  .debug_str:0000000000030fc4 .LASF2426
     /tmp/ccYIdjbY.s:92992  .debug_str:000000000001d4f9 .LASF2427
     /tmp/ccYIdjbY.s:103924  .debug_str:000000000004a654 .LASF2428
     /tmp/ccYIdjbY.s:93058  .debug_str:000000000001d8fb .LASF2429
     /tmp/ccYIdjbY.s:91604  .debug_str:00000000000175d6 .LASF2430
     /tmp/ccYIdjbY.s:100666  .debug_str:000000000003c914 .LASF2431
     /tmp/ccYIdjbY.s:104138  .debug_str:000000000004b49b .LASF2432
     /tmp/ccYIdjbY.s:93902  .debug_str:0000000000021350 .LASF2433
     /tmp/ccYIdjbY.s:95924  .debug_str:00000000000293d4 .LASF2434
     /tmp/ccYIdjbY.s:88104  .debug_str:000000000000948e .LASF2435
     /tmp/ccYIdjbY.s:87484  .debug_str:0000000000006b18 .LASF2436
     /tmp/ccYIdjbY.s:98064  .debug_str:00000000000322f4 .LASF2437
     /tmp/ccYIdjbY.s:103740  .debug_str:0000000000049864 .LASF2438
     /tmp/ccYIdjbY.s:97288  .debug_str:000000000002ee91 .LASF2439
     /tmp/ccYIdjbY.s:95492  .debug_str:00000000000277fc .LASF2440
     /tmp/ccYIdjbY.s:89042  .debug_str:000000000000d3e1 .LASF2441
     /tmp/ccYIdjbY.s:87240  .debug_str:00000000000059e9 .LASF2442
     /tmp/ccYIdjbY.s:98512  .debug_str:000000000003415c .LASF2443
     /tmp/ccYIdjbY.s:97372  .debug_str:000000000002f3d7 .LASF2444
     /tmp/ccYIdjbY.s:89908  .debug_str:0000000000010664 .LASF2445
     /tmp/ccYIdjbY.s:97128  .debug_str:000000000002e439 .LASF2446
     /tmp/ccYIdjbY.s:97716  .debug_str:0000000000030bc5 .LASF2447
     /tmp/ccYIdjbY.s:94384  .debug_str:0000000000023300 .LASF2448
     /tmp/ccYIdjbY.s:86600  .debug_str:0000000000002dbd .LASF2449
     /tmp/ccYIdjbY.s:100936  .debug_str:000000000003daae .LASF2450
     /tmp/ccYIdjbY.s:103760  .debug_str:0000000000049a0d .LASF2451
     /tmp/ccYIdjbY.s:86258  .debug_str:00000000000014f8 .LASF2452
     /tmp/ccYIdjbY.s:95234  .debug_str:00000000000266b7 .LASF2453
     /tmp/ccYIdjbY.s:92170  .debug_str:0000000000019ce3 .LASF2454
     /tmp/ccYIdjbY.s:90842  .debug_str:00000000000142ce .LASF2455
     /tmp/ccYIdjbY.s:96482  .debug_str:000000000002b76b .LASF2456
     /tmp/ccYIdjbY.s:99468  .debug_str:000000000003788c .LASF2457
     /tmp/ccYIdjbY.s:98644  .debug_str:00000000000349df .LASF2458
     /tmp/ccYIdjbY.s:97630  .debug_str:0000000000030634 .LASF2459
     /tmp/ccYIdjbY.s:88502  .debug_str:000000000000b02d .LASF2460
     /tmp/ccYIdjbY.s:87670  .debug_str:00000000000076dc .LASF2461
     /tmp/ccYIdjbY.s:93268  .debug_str:000000000001e867 .LASF2462
     /tmp/ccYIdjbY.s:95094  .debug_str:0000000000025dce .LASF2463
     /tmp/ccYIdjbY.s:88658  .debug_str:000000000000bae0 .LASF2464
     /tmp/ccYIdjbY.s:104008  .debug_str:000000000004abc7 .LASF2465
     /tmp/ccYIdjbY.s:102594  .debug_str:00000000000448ce .LASF2466
     /tmp/ccYIdjbY.s:94612  .debug_str:0000000000023f17 .LASF2467
     /tmp/ccYIdjbY.s:94102  .debug_str:00000000000220dc .LASF2468
     /tmp/ccYIdjbY.s:100766  .debug_str:000000000003cf17 .LASF2469
     /tmp/ccYIdjbY.s:89388  .debug_str:000000000000e820 .LASF2470
     /tmp/ccYIdjbY.s:97126  .debug_str:000000000002e3f5 .LASF2471
     /tmp/ccYIdjbY.s:103248  .debug_str:000000000004757f .LASF2472
     /tmp/ccYIdjbY.s:87606  .debug_str:00000000000072f1 .LASF2473
     /tmp/ccYIdjbY.s:100484  .debug_str:000000000003bcf7 .LASF2474
     /tmp/ccYIdjbY.s:96710  .debug_str:000000000002c70f .LASF2475
     /tmp/ccYIdjbY.s:86136  .debug_str:0000000000000cad .LASF2476
     /tmp/ccYIdjbY.s:96694  .debug_str:000000000002c5de .LASF2477
     /tmp/ccYIdjbY.s:86732  .debug_str:000000000000366c .LASF2478
     /tmp/ccYIdjbY.s:89452  .debug_str:000000000000eb5e .LASF2479
     /tmp/ccYIdjbY.s:91450  .debug_str:0000000000016bb2 .LASF2480
     /tmp/ccYIdjbY.s:92512  .debug_str:000000000001b412 .LASF2481
     /tmp/ccYIdjbY.s:93044  .debug_str:000000000001d80c .LASF2482
     /tmp/ccYIdjbY.s:89862  .debug_str:00000000000103ac .LASF2483
     /tmp/ccYIdjbY.s:88674  .debug_str:000000000000bbe2 .LASF2484
     /tmp/ccYIdjbY.s:94614  .debug_str:0000000000023f5e .LASF2485
     /tmp/ccYIdjbY.s:88576  .debug_str:000000000000b5d4 .LASF2486
     /tmp/ccYIdjbY.s:103582  .debug_str:0000000000048ce1 .LASF2487
     /tmp/ccYIdjbY.s:100578  .debug_str:000000000003c365 .LASF2488
     /tmp/ccYIdjbY.s:102882  .debug_str:0000000000045c79 .LASF2489
     /tmp/ccYIdjbY.s:98622  .debug_str:0000000000034877 .LASF2490
     /tmp/ccYIdjbY.s:86024  .debug_str:00000000000005d3 .LASF2491
     /tmp/ccYIdjbY.s:91428  .debug_str:0000000000016a5a .LASF2492
     /tmp/ccYIdjbY.s:89714  .debug_str:000000000000f9e4 .LASF2493
     /tmp/ccYIdjbY.s:87066  .debug_str:0000000000004df9 .LASF2494
     /tmp/ccYIdjbY.s:99856  .debug_str:0000000000039350 .LASF2495
     /tmp/ccYIdjbY.s:96990  .debug_str:000000000002da5c .LASF2496
     /tmp/ccYIdjbY.s:91646  .debug_str:00000000000178d3 .LASF2497
     /tmp/ccYIdjbY.s:88500  .debug_str:000000000000afe7 .LASF2498
     /tmp/ccYIdjbY.s:89540  .debug_str:000000000000f137 .LASF2499
     /tmp/ccYIdjbY.s:91576  .debug_str:0000000000017400 .LASF2500
     /tmp/ccYIdjbY.s:89544  .debug_str:000000000000f189 .LASF2501
     /tmp/ccYIdjbY.s:86358  .debug_str:0000000000001c14 .LASF2502
     /tmp/ccYIdjbY.s:99718  .debug_str:00000000000389a5 .LASF2503
     /tmp/ccYIdjbY.s:96272  .debug_str:000000000002aabe .LASF2504
     /tmp/ccYIdjbY.s:91334  .debug_str:000000000001635d .LASF2505
     /tmp/ccYIdjbY.s:87586  .debug_str:0000000000007164 .LASF2506
     /tmp/ccYIdjbY.s:90320  .debug_str:00000000000121f4 .LASF2507
     /tmp/ccYIdjbY.s:95412  .debug_str:0000000000027386 .LASF2508
     /tmp/ccYIdjbY.s:94860  .debug_str:0000000000024e17 .LASF2509
     /tmp/ccYIdjbY.s:102188  .debug_str:0000000000042da6 .LASF2510
     /tmp/ccYIdjbY.s:96012  .debug_str:0000000000029976 .LASF2511
     /tmp/ccYIdjbY.s:100438  .debug_str:000000000003bad0 .LASF2512
     /tmp/ccYIdjbY.s:102522  .debug_str:0000000000044414 .LASF2513
     /tmp/ccYIdjbY.s:101184  .debug_str:000000000003ec45 .LASF2514
     /tmp/ccYIdjbY.s:99778  .debug_str:0000000000038d64 .LASF2515
     /tmp/ccYIdjbY.s:101294  .debug_str:000000000003f32b .LASF2516
     /tmp/ccYIdjbY.s:101654  .debug_str:0000000000040b9e .LASF2517
     /tmp/ccYIdjbY.s:96812  .debug_str:000000000002ce05 .LASF2518
     /tmp/ccYIdjbY.s:96572  .debug_str:000000000002bd61 .LASF2519
     /tmp/ccYIdjbY.s:98282  .debug_str:00000000000331c9 .LASF2520
     /tmp/ccYIdjbY.s:87994  .debug_str:0000000000008cb0 .LASF2521
     /tmp/ccYIdjbY.s:103338  .debug_str:0000000000047b9e .LASF2522
     /tmp/ccYIdjbY.s:88130  .debug_str:00000000000096a3 .LASF2523
     /tmp/ccYIdjbY.s:91582  .debug_str:0000000000017485 .LASF2524
     /tmp/ccYIdjbY.s:102094  .debug_str:000000000004283a .LASF2525
     /tmp/ccYIdjbY.s:93894  .debug_str:00000000000212d7 .LASF2526
     /tmp/ccYIdjbY.s:97444  .debug_str:000000000002f85f .LASF2527
     /tmp/ccYIdjbY.s:86586  .debug_str:0000000000002c83 .LASF2528
     /tmp/ccYIdjbY.s:88344  .debug_str:000000000000a4d4 .LASF2529
     /tmp/ccYIdjbY.s:103644  .debug_str:00000000000490da .LASF2530
     /tmp/ccYIdjbY.s:94886  .debug_str:000000000002501b .LASF2531
     /tmp/ccYIdjbY.s:94220  .debug_str:00000000000228d1 .LASF2532
     /tmp/ccYIdjbY.s:90212  .debug_str:0000000000011ad9 .LASF2533
     /tmp/ccYIdjbY.s:91314  .debug_str:00000000000161ab .LASF2534
     /tmp/ccYIdjbY.s:104026  .debug_str:000000000004ad21 .LASF2535
     /tmp/ccYIdjbY.s:93976  .debug_str:0000000000021823 .LASF2536
     /tmp/ccYIdjbY.s:91436  .debug_str:0000000000016ac2 .LASF2537
     /tmp/ccYIdjbY.s:93822  .debug_str:0000000000020dad .LASF2538
     /tmp/ccYIdjbY.s:96392  .debug_str:000000000002b177 .LASF2539
     /tmp/ccYIdjbY.s:88602  .debug_str:000000000000b762 .LASF2540
     /tmp/ccYIdjbY.s:100298  .debug_str:000000000003b150 .LASF2541
     /tmp/ccYIdjbY.s:90556  .debug_str:000000000001314b .LASF2542
     /tmp/ccYIdjbY.s:91594  .debug_str:0000000000017534 .LASF2543
     /tmp/ccYIdjbY.s:92450  .debug_str:000000000001afc2 .LASF2544
     /tmp/ccYIdjbY.s:87252  .debug_str:0000000000005ad8 .LASF2545
     /tmp/ccYIdjbY.s:97056  .debug_str:000000000002df10 .LASF2546
     /tmp/ccYIdjbY.s:97174  .debug_str:000000000002e75f .LASF2547
     /tmp/ccYIdjbY.s:102628  .debug_str:0000000000044ad7 .LASF2548
     /tmp/ccYIdjbY.s:98006  .debug_str:0000000000031ee3 .LASF2549
     /tmp/ccYIdjbY.s:90100  .debug_str:0000000000011307 .LASF2550
     /tmp/ccYIdjbY.s:91522  .debug_str:0000000000017028 .LASF2551
     /tmp/ccYIdjbY.s:85946  .debug_str:0000000000000021 .LASF2552
     /tmp/ccYIdjbY.s:88038  .debug_str:0000000000008f7f .LASF2553
     /tmp/ccYIdjbY.s:92962  .debug_str:000000000001d35b .LASF2554
     /tmp/ccYIdjbY.s:100334  .debug_str:000000000003b3b5 .LASF2555
     /tmp/ccYIdjbY.s:90656  .debug_str:000000000001378f .LASF2556
     /tmp/ccYIdjbY.s:87988  .debug_str:0000000000008beb .LASF2557
     /tmp/ccYIdjbY.s:100186  .debug_str:000000000003a958 .LASF2558
     /tmp/ccYIdjbY.s:97460  .debug_str:000000000002f95d .LASF2559
     /tmp/ccYIdjbY.s:102106  .debug_str:000000000004290f .LASF2560
     /tmp/ccYIdjbY.s:102730  .debug_str:00000000000451f2 .LASF2561
     /tmp/ccYIdjbY.s:87140  .debug_str:00000000000052b3 .LASF2562
     /tmp/ccYIdjbY.s:94922  .debug_str:000000000002526c .LASF2563
     /tmp/ccYIdjbY.s:97324  .debug_str:000000000002f05d .LASF2564
     /tmp/ccYIdjbY.s:86474  .debug_str:0000000000002441 .LASF2565
     /tmp/ccYIdjbY.s:88360  .debug_str:000000000000a59d .LASF2566
     /tmp/ccYIdjbY.s:99788  .debug_str:0000000000038e4b .LASF2567
     /tmp/ccYIdjbY.s:89064  .debug_str:000000000000d52f .LASF2568
     /tmp/ccYIdjbY.s:86874  .debug_str:00000000000040a6 .LASF2569
     /tmp/ccYIdjbY.s:99024  .debug_str:0000000000036089 .LASF2570
     /tmp/ccYIdjbY.s:93300  .debug_str:000000000001ea84 .LASF2571
     /tmp/ccYIdjbY.s:90412  .debug_str:000000000001289f .LASF2572
     /tmp/ccYIdjbY.s:93294  .debug_str:000000000001ea23 .LASF2573
     /tmp/ccYIdjbY.s:100226  .debug_str:000000000003ac18 .LASF2574
     /tmp/ccYIdjbY.s:92298  .debug_str:000000000001a4b0 .LASF2575
     /tmp/ccYIdjbY.s:95378  .debug_str:00000000000270e1 .LASF2576
     /tmp/ccYIdjbY.s:96536  .debug_str:000000000002bb0f .LASF2577
     /tmp/ccYIdjbY.s:100278  .debug_str:000000000003af9d .LASF2578
     /tmp/ccYIdjbY.s:87348  .debug_str:000000000000613a .LASF2579
     /tmp/ccYIdjbY.s:93956  .debug_str:00000000000216af .LASF2580
     /tmp/ccYIdjbY.s:98264  .debug_str:00000000000330b1 .LASF2581
     /tmp/ccYIdjbY.s:103072  .debug_str:00000000000468f2 .LASF2582
     /tmp/ccYIdjbY.s:104090  .debug_str:000000000004b133 .LASF2583
     /tmp/ccYIdjbY.s:88330  .debug_str:000000000000a3a2 .LASF2584
     /tmp/ccYIdjbY.s:103372  .debug_str:0000000000047dfe .LASF2585
     /tmp/ccYIdjbY.s:94834  .debug_str:0000000000024ca2 .LASF2586
     /tmp/ccYIdjbY.s:90692  .debug_str:00000000000139dc .LASF2587
     /tmp/ccYIdjbY.s:92190  .debug_str:0000000000019e29 .LASF2588
     /tmp/ccYIdjbY.s:101958  .debug_str:0000000000041f39 .LASF2589
     /tmp/ccYIdjbY.s:96860  .debug_str:000000000002d1cf .LASF2590
     /tmp/ccYIdjbY.s:98092  .debug_str:000000000003253b .LASF2591
     /tmp/ccYIdjbY.s:103398  .debug_str:0000000000047fd6 .LASF2592
     /tmp/ccYIdjbY.s:93552  .debug_str:000000000001fbf9 .LASF2593
     /tmp/ccYIdjbY.s:94022  .debug_str:0000000000021b5f .LASF2594
     /tmp/ccYIdjbY.s:91004  .debug_str:0000000000014e1c .LASF2595
     /tmp/ccYIdjbY.s:89278  .debug_str:000000000000e219 .LASF2596
     /tmp/ccYIdjbY.s:101122  .debug_str:000000000003e7d6 .LASF2597
     /tmp/ccYIdjbY.s:101762  .debug_str:0000000000041315 .LASF2598
     /tmp/ccYIdjbY.s:93304  .debug_str:000000000001eaec .LASF2599
     /tmp/ccYIdjbY.s:92528  .debug_str:000000000001b5a5 .LASF2600
     /tmp/ccYIdjbY.s:95778  .debug_str:0000000000028a6e .LASF2601
     /tmp/ccYIdjbY.s:101482  .debug_str:000000000004009b .LASF2602
     /tmp/ccYIdjbY.s:93506  .debug_str:000000000001f8da .LASF2603
     /tmp/ccYIdjbY.s:92088  .debug_str:00000000000195f4 .LASF2604
     /tmp/ccYIdjbY.s:92272  .debug_str:000000000001a38d .LASF2605
     /tmp/ccYIdjbY.s:91914  .debug_str:0000000000018a09 .LASF2606
     /tmp/ccYIdjbY.s:98234  .debug_str:0000000000032e87 .LASF2607
     /tmp/ccYIdjbY.s:90276  .debug_str:0000000000011efc .LASF2608
     /tmp/ccYIdjbY.s:95708  .debug_str:000000000002865e .LASF2609
     /tmp/ccYIdjbY.s:97110  .debug_str:000000000002e292 .LASF2610
     /tmp/ccYIdjbY.s:87504  .debug_str:0000000000006c9a .LASF2611
     /tmp/ccYIdjbY.s:85994  .debug_str:000000000000039d .LASF2612
     /tmp/ccYIdjbY.s:101450  .debug_str:000000000003fdff .LASF2613
     /tmp/ccYIdjbY.s:90338  .debug_str:0000000000012311 .LASF2614
     /tmp/ccYIdjbY.s:86974  .debug_str:000000000000479c .LASF2615
     /tmp/ccYIdjbY.s:103856  .debug_str:000000000004a111 .LASF2616
     /tmp/ccYIdjbY.s:89918  .debug_str:0000000000010747 .LASF2617
     /tmp/ccYIdjbY.s:87378  .debug_str:0000000000006334 .LASF2618
     /tmp/ccYIdjbY.s:100050  .debug_str:000000000003a0b5 .LASF2619
     /tmp/ccYIdjbY.s:98320  .debug_str:00000000000334dc .LASF2620
     /tmp/ccYIdjbY.s:101224  .debug_str:000000000003ef19 .LASF2621
     /tmp/ccYIdjbY.s:94120  .debug_str:00000000000221e3 .LASF2622
     /tmp/ccYIdjbY.s:92644  .debug_str:000000000001bcb0 .LASF2623
     /tmp/ccYIdjbY.s:91352  .debug_str:000000000001645e .LASF2624
     /tmp/ccYIdjbY.s:102428  .debug_str:0000000000043d4f .LASF2625
     /tmp/ccYIdjbY.s:101370  .debug_str:000000000003f849 .LASF2626
     /tmp/ccYIdjbY.s:98466  .debug_str:0000000000033e26 .LASF2627
     /tmp/ccYIdjbY.s:86380  .debug_str:0000000000001d6e .LASF2628
     /tmp/ccYIdjbY.s:99674  .debug_str:00000000000386cb .LASF2629
     /tmp/ccYIdjbY.s:98262  .debug_str:0000000000033079 .LASF2630
     /tmp/ccYIdjbY.s:90606  .debug_str:000000000001347a .LASF2631
     /tmp/ccYIdjbY.s:88206  .debug_str:0000000000009b7f .LASF2632
     /tmp/ccYIdjbY.s:100390  .debug_str:000000000003b766 .LASF2633
     /tmp/ccYIdjbY.s:98364  .debug_str:0000000000033793 .LASF2634
     /tmp/ccYIdjbY.s:86862  .debug_str:0000000000003fb5 .LASF2635
     /tmp/ccYIdjbY.s:97376  .debug_str:000000000002f425 .LASF2636
     /tmp/ccYIdjbY.s:99670  .debug_str:0000000000038652 .LASF2637
     /tmp/ccYIdjbY.s:90990  .debug_str:0000000000014cc1 .LASF2638
     /tmp/ccYIdjbY.s:103738  .debug_str:0000000000049823 .LASF2639
     /tmp/ccYIdjbY.s:92360  .debug_str:000000000001a983 .LASF2640
     /tmp/ccYIdjbY.s:103532  .debug_str:00000000000488d4 .LASF2641
     /tmp/ccYIdjbY.s:103926  .debug_str:000000000004a69d .LASF2642
     /tmp/ccYIdjbY.s:96250  .debug_str:000000000002a931 .LASF2643
     /tmp/ccYIdjbY.s:89694  .debug_str:000000000000f955 .LASF2644
     /tmp/ccYIdjbY.s:98802  .debug_str:0000000000035376 .LASF2645
     /tmp/ccYIdjbY.s:90872  .debug_str:0000000000014526 .LASF2646
     /tmp/ccYIdjbY.s:98236  .debug_str:0000000000032ec1 .LASF2647
     /tmp/ccYIdjbY.s:100522  .debug_str:000000000003bf95 .LASF2648
     /tmp/ccYIdjbY.s:92852  .debug_str:000000000001cb3a .LASF2649
     /tmp/ccYIdjbY.s:101522  .debug_str:0000000000040334 .LASF2650
     /tmp/ccYIdjbY.s:92392  .debug_str:000000000001abc2 .LASF2651
     /tmp/ccYIdjbY.s:102970  .debug_str:000000000004623c .LASF2652
     /tmp/ccYIdjbY.s:102216  .debug_str:0000000000042f02 .LASF2653
     /tmp/ccYIdjbY.s:98508  .debug_str:00000000000340f8 .LASF2654
     /tmp/ccYIdjbY.s:86202  .debug_str:0000000000001168 .LASF2655
     /tmp/ccYIdjbY.s:93836  .debug_str:0000000000020edf .LASF2656
     /tmp/ccYIdjbY.s:99548  .debug_str:0000000000037e0f .LASF2657
     /tmp/ccYIdjbY.s:88516  .debug_str:000000000000b10a .LASF2658
     /tmp/ccYIdjbY.s:86834  .debug_str:0000000000003d9b .LASF2659
     /tmp/ccYIdjbY.s:102284  .debug_str:0000000000043436 .LASF2660
     /tmp/ccYIdjbY.s:101386  .debug_str:000000000003f952 .LASF2661
     /tmp/ccYIdjbY.s:97824  .debug_str:0000000000031346 .LASF2662
     /tmp/ccYIdjbY.s:86408  .debug_str:0000000000001f69 .LASF2663
     /tmp/ccYIdjbY.s:93260  .debug_str:000000000001e7c0 .LASF2664
     /tmp/ccYIdjbY.s:95616  .debug_str:0000000000028008 .LASF2665
     /tmp/ccYIdjbY.s:89574  .debug_str:000000000000f2b9 .LASF2666
     /tmp/ccYIdjbY.s:95420  .debug_str:0000000000027406 .LASF2667
     /tmp/ccYIdjbY.s:87638  .debug_str:00000000000074ee .LASF2668
     /tmp/ccYIdjbY.s:100680  .debug_str:000000000003c9d6 .LASF2669
     /tmp/ccYIdjbY.s:98940  .debug_str:0000000000035b86 .LASF2670
     /tmp/ccYIdjbY.s:101026  .debug_str:000000000003e19c .LASF2671
     /tmp/ccYIdjbY.s:99862  .debug_str:00000000000393fe .LASF2672
     /tmp/ccYIdjbY.s:87476  .debug_str:0000000000006a60 .LASF2673
     /tmp/ccYIdjbY.s:95572  .debug_str:0000000000027d22 .LASF2674
     /tmp/ccYIdjbY.s:92514  .debug_str:000000000001b45a .LASF2675
     /tmp/ccYIdjbY.s:102282  .debug_str:00000000000433fc .LASF2676
     /tmp/ccYIdjbY.s:96532  .debug_str:000000000002babf .LASF2677
     /tmp/ccYIdjbY.s:98886  .debug_str:00000000000358d3 .LASF2678
     /tmp/ccYIdjbY.s:102576  .debug_str:000000000004478b .LASF2679
     /tmp/ccYIdjbY.s:98710  .debug_str:0000000000034dea .LASF2680
     /tmp/ccYIdjbY.s:86402  .debug_str:0000000000001ef9 .LASF2681
     /tmp/ccYIdjbY.s:102146  .debug_str:0000000000042b3f .LASF2682
     /tmp/ccYIdjbY.s:96248  .debug_str:000000000002a8f6 .LASF2683
     /tmp/ccYIdjbY.s:93336  .debug_str:000000000001ed1e .LASF2684
     /tmp/ccYIdjbY.s:87782  .debug_str:0000000000007de4 .LASF2685
     /tmp/ccYIdjbY.s:101314  .debug_str:000000000003f420 .LASF2686
     /tmp/ccYIdjbY.s:96994  .debug_str:000000000002dace .LASF2687
     /tmp/ccYIdjbY.s:92984  .debug_str:000000000001d46b .LASF2688
     /tmp/ccYIdjbY.s:91460  .debug_str:0000000000016cb3 .LASF2689
     /tmp/ccYIdjbY.s:90636  .debug_str:000000000001363b .LASF2690
     /tmp/ccYIdjbY.s:91760  .debug_str:0000000000017f85 .LASF2691
     /tmp/ccYIdjbY.s:87852  .debug_str:00000000000082ca .LASF2692
     /tmp/ccYIdjbY.s:102866  .debug_str:0000000000045b54 .LASF2693
     /tmp/ccYIdjbY.s:91896  .debug_str:00000000000188cc .LASF2694
     /tmp/ccYIdjbY.s:103336  .debug_str:0000000000047b66 .LASF2695
     /tmp/ccYIdjbY.s:101694  .debug_str:0000000000040e3a .LASF2696
     /tmp/ccYIdjbY.s:102374  .debug_str:00000000000439e6 .LASF2697
     /tmp/ccYIdjbY.s:91064  .debug_str:00000000000151ab .LASF2698
     /tmp/ccYIdjbY.s:89834  .debug_str:0000000000010155 .LASF2699
     /tmp/ccYIdjbY.s:88800  .debug_str:000000000000c48f .LASF2700
     /tmp/ccYIdjbY.s:97352  .debug_str:000000000002f2ac .LASF2701
     /tmp/ccYIdjbY.s:94824  .debug_str:0000000000024bd6 .LASF2702
     /tmp/ccYIdjbY.s:95140  .debug_str:00000000000260df .LASF2703
     /tmp/ccYIdjbY.s:104028  .debug_str:000000000004ad5d .LASF2704
     /tmp/ccYIdjbY.s:97234  .debug_str:000000000002eb49 .LASF2705
     /tmp/ccYIdjbY.s:94674  .debug_str:00000000000241aa .LASF2706
     /tmp/ccYIdjbY.s:96930  .debug_str:000000000002d663 .LASF2707
     /tmp/ccYIdjbY.s:101626  .debug_str:0000000000040a05 .LASF2708
     /tmp/ccYIdjbY.s:92164  .debug_str:0000000000019c42 .LASF2709
     /tmp/ccYIdjbY.s:93742  .debug_str:000000000002087e .LASF2710
     /tmp/ccYIdjbY.s:102382  .debug_str:0000000000043a4b .LASF2711
     /tmp/ccYIdjbY.s:96872  .debug_str:000000000002d2d4 .LASF2712
     /tmp/ccYIdjbY.s:104128  .debug_str:000000000004b3b3 .LASF2713
     /tmp/ccYIdjbY.s:104270  .debug_str:000000000004bdb3 .LASF2714
     /tmp/ccYIdjbY.s:94676  .debug_str:00000000000241e8 .LASF2715
     /tmp/ccYIdjbY.s:90890  .debug_str:000000000001462a .LASF2716
     /tmp/ccYIdjbY.s:92466  .debug_str:000000000001b101 .LASF2717
     /tmp/ccYIdjbY.s:104004  .debug_str:000000000004ab68 .LASF2718
     /tmp/ccYIdjbY.s:101096  .debug_str:000000000003e5e8 .LASF2719
     /tmp/ccYIdjbY.s:90356  .debug_str:0000000000012427 .LASF2720
     /tmp/ccYIdjbY.s:89860  .debug_str:0000000000010373 .LASF2721
     /tmp/ccYIdjbY.s:99414  .debug_str:00000000000374a5 .LASF2722
     /tmp/ccYIdjbY.s:103558  .debug_str:0000000000048ae4 .LASF2723
     /tmp/ccYIdjbY.s:97844  .debug_str:0000000000031498 .LASF2724
     /tmp/ccYIdjbY.s:99140  .debug_str:000000000003668c .LASF2725
     /tmp/ccYIdjbY.s:98928  .debug_str:0000000000035ab8 .LASF2726
     /tmp/ccYIdjbY.s:86430  .debug_str:0000000000002131 .LASF2727
     /tmp/ccYIdjbY.s:102252  .debug_str:00000000000431f3 .LASF2728
     /tmp/ccYIdjbY.s:95640  .debug_str:00000000000281c5 .LASF2729
     /tmp/ccYIdjbY.s:92896  .debug_str:000000000001ce98 .LASF2730
     /tmp/ccYIdjbY.s:100902  .debug_str:000000000003d883 .LASF2731
     /tmp/ccYIdjbY.s:96422  .debug_str:000000000002b363 .LASF2732
     /tmp/ccYIdjbY.s:86144  .debug_str:0000000000000d49 .LASF2733
     /tmp/ccYIdjbY.s:101070  .debug_str:000000000003e47e .LASF2734
     /tmp/ccYIdjbY.s:89536  .debug_str:000000000000f0b8 .LASF2735
     /tmp/ccYIdjbY.s:87242  .debug_str:0000000000005a24 .LASF2736
     /tmp/ccYIdjbY.s:89950  .debug_str:0000000000010967 .LASF2737
     /tmp/ccYIdjbY.s:88426  .debug_str:000000000000aa71 .LASF2738
     /tmp/ccYIdjbY.s:102828  .debug_str:000000000004590e .LASF2739
     /tmp/ccYIdjbY.s:99306  .debug_str:0000000000036f0d .LASF2740
     /tmp/ccYIdjbY.s:87162  .debug_str:0000000000005447 .LASF2741
     /tmp/ccYIdjbY.s:96700  .debug_str:000000000002c64d .LASF2742
     /tmp/ccYIdjbY.s:99744  .debug_str:0000000000038b23 .LASF2743
     /tmp/ccYIdjbY.s:97936  .debug_str:0000000000031a9a .LASF2744
     /tmp/ccYIdjbY.s:103312  .debug_str:00000000000479e7 .LASF2745
     /tmp/ccYIdjbY.s:102718  .debug_str:0000000000045119 .LASF2746
     /tmp/ccYIdjbY.s:94452  .debug_str:000000000002373b .LASF2747
     /tmp/ccYIdjbY.s:94356  .debug_str:00000000000231e4 .LASF2748
     /tmp/ccYIdjbY.s:86224  .debug_str:00000000000012d0 .LASF2749
     /tmp/ccYIdjbY.s:96592  .debug_str:000000000002bf0c .LASF2750
     /tmp/ccYIdjbY.s:103686  .debug_str:00000000000493ac .LASF2751
     /tmp/ccYIdjbY.s:88080  .debug_str:00000000000092c5 .LASF2752
     /tmp/ccYIdjbY.s:100712  .debug_str:000000000003cbc8 .LASF2753
     /tmp/ccYIdjbY.s:95914  .debug_str:000000000002927e .LASF2754
     /tmp/ccYIdjbY.s:95270  .debug_str:0000000000026956 .LASF2755
     /tmp/ccYIdjbY.s:90050  .debug_str:0000000000010f76 .LASF2756
     /tmp/ccYIdjbY.s:103206  .debug_str:0000000000047242 .LASF2757
     /tmp/ccYIdjbY.s:99840  .debug_str:0000000000039231 .LASF2758
     /tmp/ccYIdjbY.s:101022  .debug_str:000000000003e154 .LASF2759
     /tmp/ccYIdjbY.s:89168  .debug_str:000000000000dc1a .LASF2760
     /tmp/ccYIdjbY.s:92374  .debug_str:000000000001aa42 .LASF2761
     /tmp/ccYIdjbY.s:102272  .debug_str:0000000000043332 .LASF2762
     /tmp/ccYIdjbY.s:86046  .debug_str:0000000000000739 .LASF2763
     /tmp/ccYIdjbY.s:98298  .debug_str:000000000003335c .LASF2764
     /tmp/ccYIdjbY.s:93574  .debug_str:000000000001fdb4 .LASF2765
     /tmp/ccYIdjbY.s:95488  .debug_str:000000000002779a .LASF2766
     /tmp/ccYIdjbY.s:93826  .debug_str:0000000000020e1d .LASF2767
     /tmp/ccYIdjbY.s:99250  .debug_str:0000000000036b4d .LASF2768
     /tmp/ccYIdjbY.s:86728  .debug_str:00000000000035f1 .LASF2769
     /tmp/ccYIdjbY.s:100524  .debug_str:000000000003bfd5 .LASF2770
     /tmp/ccYIdjbY.s:94382  .debug_str:00000000000232b8 .LASF2771
     /tmp/ccYIdjbY.s:91986  .debug_str:0000000000018ee1 .LASF2772
     /tmp/ccYIdjbY.s:101172  .debug_str:000000000003eb48 .LASF2773
     /tmp/ccYIdjbY.s:94562  .debug_str:0000000000023c13 .LASF2774
     /tmp/ccYIdjbY.s:93520  .debug_str:000000000001f9d1 .LASF2775
     /tmp/ccYIdjbY.s:104256  .debug_str:000000000004bc97 .LASF2776
     /tmp/ccYIdjbY.s:86016  .debug_str:000000000000052a .LASF2777
     /tmp/ccYIdjbY.s:102090  .debug_str:00000000000427c6 .LASF2778
     /tmp/ccYIdjbY.s:95292  .debug_str:0000000000026b0d .LASF2779
     /tmp/ccYIdjbY.s:100238  .debug_str:000000000003ad01 .LASF2780
     /tmp/ccYIdjbY.s:100402  .debug_str:000000000003b842 .LASF2781
     /tmp/ccYIdjbY.s:100344  .debug_str:000000000003b455 .LASF2782
     /tmp/ccYIdjbY.s:102782  .debug_str:00000000000455cf .LASF2783
     /tmp/ccYIdjbY.s:91214  .debug_str:0000000000015b31 .LASF2784
     /tmp/ccYIdjbY.s:93418  .debug_str:000000000001f362 .LASF2785
     /tmp/ccYIdjbY.s:86504  .debug_str:0000000000002695 .LASF2786
     /tmp/ccYIdjbY.s:102360  .debug_str:00000000000438bf .LASF2787
     /tmp/ccYIdjbY.s:97246  .debug_str:000000000002ebeb .LASF2788
     /tmp/ccYIdjbY.s:97250  .debug_str:000000000002ec3e .LASF2789
     /tmp/ccYIdjbY.s:94162  .debug_str:0000000000022465 .LASF2790
     /tmp/ccYIdjbY.s:101030  .debug_str:000000000003e1f9 .LASF2791
     /tmp/ccYIdjbY.s:87426  .debug_str:00000000000066bd .LASF2792
     /tmp/ccYIdjbY.s:90866  .debug_str:000000000001449a .LASF2793
     /tmp/ccYIdjbY.s:87874  .debug_str:0000000000008444 .LASF2794
     /tmp/ccYIdjbY.s:96406  .debug_str:000000000002b234 .LASF2795
     /tmp/ccYIdjbY.s:102052  .debug_str:000000000004251e .LASF2796
     /tmp/ccYIdjbY.s:100846  .debug_str:000000000003d44b .LASF2797
     /tmp/ccYIdjbY.s:86066  .debug_str:000000000000086e .LASF2798
     /tmp/ccYIdjbY.s:97532  .debug_str:000000000002feac .LASF2799
     /tmp/ccYIdjbY.s:87878  .debug_str:000000000000848d .LASF2800
     /tmp/ccYIdjbY.s:96128  .debug_str:000000000002a0fe .LASF2801
     /tmp/ccYIdjbY.s:97096  .debug_str:000000000002e192 .LASF2802
     /tmp/ccYIdjbY.s:100512  .debug_str:000000000003bef2 .LASF2803
     /tmp/ccYIdjbY.s:98894  .debug_str:0000000000035998 .LASF2804
     /tmp/ccYIdjbY.s:86656  .debug_str:00000000000031cc .LASF2805
     /tmp/ccYIdjbY.s:100316  .debug_str:000000000003b292 .LASF2806
     /tmp/ccYIdjbY.s:99332  .debug_str:0000000000036fe0 .LASF2807
     /tmp/ccYIdjbY.s:92354  .debug_str:000000000001a8f0 .LASF2808
     /tmp/ccYIdjbY.s:90938  .debug_str:0000000000014910 .LASF2809
     /tmp/ccYIdjbY.s:98582  .debug_str:000000000003458d .LASF2810
     /tmp/ccYIdjbY.s:101562  .debug_str:0000000000040617 .LASF2811
     /tmp/ccYIdjbY.s:100404  .debug_str:000000000003b883 .LASF2812
     /tmp/ccYIdjbY.s:93230  .debug_str:000000000001e511 .LASF2813
     /tmp/ccYIdjbY.s:101934  .debug_str:0000000000041da8 .LASF2814
     /tmp/ccYIdjbY.s:103226  .debug_str:00000000000473b5 .LASF2815
     /tmp/ccYIdjbY.s:93376  .debug_str:000000000001f0f7 .LASF2816
     /tmp/ccYIdjbY.s:91470  .debug_str:0000000000016d7f .LASF2817
     /tmp/ccYIdjbY.s:103114  .debug_str:0000000000046b66 .LASF2818
     /tmp/ccYIdjbY.s:87322  .debug_str:0000000000005f9f .LASF2819
     /tmp/ccYIdjbY.s:92536  .debug_str:000000000001b621 .LASF2820
     /tmp/ccYIdjbY.s:101678  .debug_str:0000000000040d86 .LASF2821
     /tmp/ccYIdjbY.s:95764  .debug_str:0000000000028934 .LASF2822
     /tmp/ccYIdjbY.s:90486  .debug_str:0000000000012ce5 .LASF2823
     /tmp/ccYIdjbY.s:95830  .debug_str:0000000000028d86 .LASF2824
     /tmp/ccYIdjbY.s:102422  .debug_str:0000000000043ce0 .LASF2825
     /tmp/ccYIdjbY.s:101406  .debug_str:000000000003fafb .LASF2826
     /tmp/ccYIdjbY.s:90130  .debug_str:0000000000011536 .LASF2827
     /tmp/ccYIdjbY.s:101668  .debug_str:0000000000040ce7 .LASF2828
     /tmp/ccYIdjbY.s:90138  .debug_str:00000000000115d2 .LASF2829
     /tmp/ccYIdjbY.s:90238  .debug_str:0000000000011c38 .LASF2830
     /tmp/ccYIdjbY.s:93654  .debug_str:00000000000203a0 .LASF2831
     /tmp/ccYIdjbY.s:101256  .debug_str:000000000003f151 .LASF2832
     /tmp/ccYIdjbY.s:87164  .debug_str:0000000000005487 .LASF2833
     /tmp/ccYIdjbY.s:87212  .debug_str:0000000000005849 .LASF2834
     /tmp/ccYIdjbY.s:97798  .debug_str:000000000003116a .LASF2835
     /tmp/ccYIdjbY.s:88746  .debug_str:000000000000c0bd .LASF2836
     /tmp/ccYIdjbY.s:95582  .debug_str:0000000000027de8 .LASF2837
     /tmp/ccYIdjbY.s:99982  .debug_str:0000000000039c21 .LASF2838
     /tmp/ccYIdjbY.s:93334  .debug_str:000000000001ece2 .LASF2839
     /tmp/ccYIdjbY.s:86492  .debug_str:000000000000259f .LASF2840
     /tmp/ccYIdjbY.s:87788  .debug_str:0000000000007e5a .LASF2841
     /tmp/ccYIdjbY.s:97364  .debug_str:000000000002f360 .LASF2842
     /tmp/ccYIdjbY.s:101556  .debug_str:0000000000040597 .LASF2843
     /tmp/ccYIdjbY.s:87844  .debug_str:000000000000822b .LASF2844
     /tmp/ccYIdjbY.s:99680  .debug_str:0000000000038762 .LASF2845
     /tmp/ccYIdjbY.s:96960  .debug_str:000000000002d7f4 .LASF2846
     /tmp/ccYIdjbY.s:92522  .debug_str:000000000001b525 .LASF2847
     /tmp/ccYIdjbY.s:87458  .debug_str:00000000000068e2 .LASF2848
     /tmp/ccYIdjbY.s:100250  .debug_str:000000000003ae1b .LASF2849
     /tmp/ccYIdjbY.s:87256  .debug_str:0000000000005b56 .LASF2850
     /tmp/ccYIdjbY.s:92958  .debug_str:000000000001d2f2 .LASF2851
     /tmp/ccYIdjbY.s:94082  .debug_str:0000000000021f94 .LASF2852
     /tmp/ccYIdjbY.s:89894  .debug_str:000000000001055c .LASF2853
     /tmp/ccYIdjbY.s:96484  .debug_str:000000000002b7a7 .LASF2854
     /tmp/ccYIdjbY.s:100380  .debug_str:000000000003b6ad .LASF2855
     /tmp/ccYIdjbY.s:91550  .debug_str:0000000000017213 .LASF2856
     /tmp/ccYIdjbY.s:96172  .debug_str:000000000002a406 .LASF2857
     /tmp/ccYIdjbY.s:97592  .debug_str:0000000000030346 .LASF2858
     /tmp/ccYIdjbY.s:93970  .debug_str:00000000000217a2 .LASF2859
     /tmp/ccYIdjbY.s:86330  .debug_str:0000000000001a05 .LASF2860
     /tmp/ccYIdjbY.s:89770  .debug_str:000000000000fda5 .LASF2861
     /tmp/ccYIdjbY.s:93362  .debug_str:000000000001efa6 .LASF2862
     /tmp/ccYIdjbY.s:88586  .debug_str:000000000000b663 .LASF2863
     /tmp/ccYIdjbY.s:101364  .debug_str:000000000003f7db .LASF2864
     /tmp/ccYIdjbY.s:87796  .debug_str:0000000000007ef3 .LASF2865
     /tmp/ccYIdjbY.s:88718  .debug_str:000000000000bed1 .LASF2866
     /tmp/ccYIdjbY.s:92390  .debug_str:000000000001ab7c .LASF2867
     /tmp/ccYIdjbY.s:88178  .debug_str:000000000000994d .LASF2868
     /tmp/ccYIdjbY.s:100376  .debug_str:000000000003b64f .LASF2869
     /tmp/ccYIdjbY.s:90686  .debug_str:0000000000013953 .LASF2870
     /tmp/ccYIdjbY.s:90036  .debug_str:0000000000010e73 .LASF2871
     /tmp/ccYIdjbY.s:95122  .debug_str:0000000000025fa5 .LASF2872
     /tmp/ccYIdjbY.s:87776  .debug_str:0000000000007d61 .LASF2873
     /tmp/ccYIdjbY.s:86744  .debug_str:0000000000003761 .LASF2874
     /tmp/ccYIdjbY.s:98190  .debug_str:0000000000032b91 .LASF2875
     /tmp/ccYIdjbY.s:96880  .debug_str:000000000002d36f .LASF2876
     /tmp/ccYIdjbY.s:103850  .debug_str:000000000004a0ac .LASF2877
     /tmp/ccYIdjbY.s:104208  .debug_str:000000000004b96e .LASF2878
     /tmp/ccYIdjbY.s:92226  .debug_str:000000000001a04c .LASF2879
     /tmp/ccYIdjbY.s:87464  .debug_str:000000000000696c .LASF2880
     /tmp/ccYIdjbY.s:101228  .debug_str:000000000003ef72 .LASF2881
     /tmp/ccYIdjbY.s:87954  .debug_str:00000000000089d4 .LASF2882
     /tmp/ccYIdjbY.s:103746  .debug_str:00000000000498ec .LASF2883
     /tmp/ccYIdjbY.s:88388  .debug_str:000000000000a7b6 .LASF2884
     /tmp/ccYIdjbY.s:100132  .debug_str:000000000003a5b9 .LASF2885
     /tmp/ccYIdjbY.s:95362  .debug_str:0000000000026f92 .LASF2886
     /tmp/ccYIdjbY.s:90370  .debug_str:000000000001254b .LASF2887
     /tmp/ccYIdjbY.s:101182  .debug_str:000000000003ec0c .LASF2888
     /tmp/ccYIdjbY.s:99676  .debug_str:000000000003870b .LASF2889
     /tmp/ccYIdjbY.s:94872  .debug_str:0000000000024f11 .LASF2890
     /tmp/ccYIdjbY.s:98218  .debug_str:0000000000032d4a .LASF2891
     /tmp/ccYIdjbY.s:102138  .debug_str:0000000000042ac2 .LASF2892
     /tmp/ccYIdjbY.s:99888  .debug_str:00000000000395ea .LASF2893
     /tmp/ccYIdjbY.s:87482  .debug_str:0000000000006ad6 .LASF2894
     /tmp/ccYIdjbY.s:102648  .debug_str:0000000000044c3a .LASF2895
     /tmp/ccYIdjbY.s:99940  .debug_str:00000000000399a0 .LASF2896
     /tmp/ccYIdjbY.s:91388  .debug_str:000000000001672f .LASF2897
     /tmp/ccYIdjbY.s:92920  .debug_str:000000000001d02b .LASF2898
     /tmp/ccYIdjbY.s:88258  .debug_str:0000000000009e83 .LASF2899
     /tmp/ccYIdjbY.s:90688  .debug_str:0000000000013991 .LASF2900
     /tmp/ccYIdjbY.s:90944  .debug_str:000000000001499f .LASF2901
     /tmp/ccYIdjbY.s:88844  .debug_str:000000000000c759 .LASF2902
     /tmp/ccYIdjbY.s:100918  .debug_str:000000000003d97b .LASF2903
     /tmp/ccYIdjbY.s:103694  .debug_str:000000000004944e .LASF2904
     /tmp/ccYIdjbY.s:95934  .debug_str:000000000002947f .LASF2905
     /tmp/ccYIdjbY.s:103202  .debug_str:00000000000471f4 .LASF2906
     /tmp/ccYIdjbY.s:86418  .debug_str:0000000000002059 .LASF2907
     /tmp/ccYIdjbY.s:90080  .debug_str:0000000000011185 .LASF2908
     /tmp/ccYIdjbY.s:97542  .debug_str:000000000002ffc9 .LASF2909
     /tmp/ccYIdjbY.s:102960  .debug_str:000000000004616c .LASF2910
     /tmp/ccYIdjbY.s:95256  .debug_str:0000000000026840 .LASF2911
     /tmp/ccYIdjbY.s:100970  .debug_str:000000000003dd1b .LASF2912
     /tmp/ccYIdjbY.s:97802  .debug_str:00000000000311b5 .LASF2913
     /tmp/ccYIdjbY.s:87006  .debug_str:00000000000049c0 .LASF2914
     /tmp/ccYIdjbY.s:89842  .debug_str:0000000000010201 .LASF2915
     /tmp/ccYIdjbY.s:93218  .debug_str:000000000001e43f .LASF2916
     /tmp/ccYIdjbY.s:92034  .debug_str:000000000001926a .LASF2917
     /tmp/ccYIdjbY.s:96468  .debug_str:000000000002b64d .LASF2918
     /tmp/ccYIdjbY.s:96664  .debug_str:000000000002c3c5 .LASF2919
     /tmp/ccYIdjbY.s:99490  .debug_str:0000000000037a14 .LASF2920
     /tmp/ccYIdjbY.s:99416  .debug_str:00000000000374e6 .LASF2921
     /tmp/ccYIdjbY.s:88314  .debug_str:000000000000a2c2 .LASF2922
     /tmp/ccYIdjbY.s:93652  .debug_str:0000000000020354 .LASF2923
     /tmp/ccYIdjbY.s:98726  .debug_str:0000000000034f31 .LASF2924
     /tmp/ccYIdjbY.s:96852  .debug_str:000000000002d11c .LASF2925
     /tmp/ccYIdjbY.s:100006  .debug_str:0000000000039dac .LASF2926
     /tmp/ccYIdjbY.s:103596  .debug_str:0000000000048dde .LASF2927
     /tmp/ccYIdjbY.s:100626  .debug_str:000000000003c694 .LASF2928
     /tmp/ccYIdjbY.s:102944  .debug_str:0000000000046038 .LASF2929
     /tmp/ccYIdjbY.s:92108  .debug_str:00000000000197df .LASF2930
     /tmp/ccYIdjbY.s:93064  .debug_str:000000000001d996 .LASF2931
     /tmp/ccYIdjbY.s:101922  .debug_str:0000000000041cc1 .LASF2932
     /tmp/ccYIdjbY.s:88982  .debug_str:000000000000d07f .LASF2933
     /tmp/ccYIdjbY.s:99896  .debug_str:000000000003968b .LASF2934
     /tmp/ccYIdjbY.s:99200  .debug_str:0000000000036938 .LASF2935
     /tmp/ccYIdjbY.s:91294  .debug_str:000000000001609b .LASF2936
     /tmp/ccYIdjbY.s:90804  .debug_str:0000000000014079 .LASF2937
     /tmp/ccYIdjbY.s:97694  .debug_str:0000000000030a47 .LASF2938
     /tmp/ccYIdjbY.s:100822  .debug_str:000000000003d264 .LASF2939
     /tmp/ccYIdjbY.s:92544  .debug_str:000000000001b6ae .LASF2940
     /tmp/ccYIdjbY.s:99900  .debug_str:00000000000396d7 .LASF2941
     /tmp/ccYIdjbY.s:100248  .debug_str:000000000003add8 .LASF2942
     /tmp/ccYIdjbY.s:92454  .debug_str:000000000001b034 .LASF2943
     /tmp/ccYIdjbY.s:100952  .debug_str:000000000003dbc4 .LASF2944
     /tmp/ccYIdjbY.s:102536  .debug_str:0000000000044517 .LASF2945
     /tmp/ccYIdjbY.s:96838  .debug_str:000000000002d01c .LASF2946
     /tmp/ccYIdjbY.s:90950  .debug_str:0000000000014a29 .LASF2947
     /tmp/ccYIdjbY.s:87668  .debug_str:000000000000769b .LASF2948
     /tmp/ccYIdjbY.s:96902  .debug_str:000000000002d498 .LASF2949
     /tmp/ccYIdjbY.s:88708  .debug_str:000000000000be1a .LASF2950
     /tmp/ccYIdjbY.s:100280  .debug_str:000000000003afde .LASF2951
     /tmp/ccYIdjbY.s:95390  .debug_str:00000000000271e4 .LASF2952
     /tmp/ccYIdjbY.s:101358  .debug_str:000000000003f739 .LASF2953
     /tmp/ccYIdjbY.s:90464  .debug_str:0000000000012b68 .LASF2954
     /tmp/ccYIdjbY.s:101410  .debug_str:000000000003fb57 .LASF2955
     /tmp/ccYIdjbY.s:94214  .debug_str:0000000000022834 .LASF2956
     /tmp/ccYIdjbY.s:102430  .debug_str:0000000000043d92 .LASF2957
     /tmp/ccYIdjbY.s:99002  .debug_str:0000000000035eba .LASF2958
     /tmp/ccYIdjbY.s:95902  .debug_str:00000000000291a9 .LASF2959
     /tmp/ccYIdjbY.s:96918  .debug_str:000000000002d5a4 .LASF2960
     /tmp/ccYIdjbY.s:104000  .debug_str:000000000004aaf7 .LASF2961
     /tmp/ccYIdjbY.s:87420  .debug_str:0000000000006640 .LASF2962
     /tmp/ccYIdjbY.s:98072  .debug_str:00000000000323d4 .LASF2963
     /tmp/ccYIdjbY.s:102548  .debug_str:00000000000445ed .LASF2964
     /tmp/ccYIdjbY.s:93356  .debug_str:000000000001ef09 .LASF2965
     /tmp/ccYIdjbY.s:93032  .debug_str:000000000001d737 .LASF2966
     /tmp/ccYIdjbY.s:101942  .debug_str:0000000000041e42 .LASF2967
     /tmp/ccYIdjbY.s:87920  .debug_str:0000000000008754 .LASF2968
     /tmp/ccYIdjbY.s:99170  .debug_str:0000000000036769 .LASF2969
     /tmp/ccYIdjbY.s:92756  .debug_str:000000000001c437 .LASF2970
     /tmp/ccYIdjbY.s:89850  .debug_str:00000000000102b9 .LASF2971
     /tmp/ccYIdjbY.s:100012  .debug_str:0000000000039e21 .LASF2972
     /tmp/ccYIdjbY.s:91114  .debug_str:0000000000015473 .LASF2973
     /tmp/ccYIdjbY.s:103798  .debug_str:0000000000049d4c .LASF2974
     /tmp/ccYIdjbY.s:95992  .debug_str:000000000002988a .LASF2975
     /tmp/ccYIdjbY.s:89538  .debug_str:000000000000f0ef .LASF2976
     /tmp/ccYIdjbY.s:96772  .debug_str:000000000002cb34 .LASF2977
     /tmp/ccYIdjbY.s:94348  .debug_str:0000000000023108 .LASF2978
     /tmp/ccYIdjbY.s:87430  .debug_str:000000000000671e .LASF2979
     /tmp/ccYIdjbY.s:92042  .debug_str:000000000001932a .LASF2980
     /tmp/ccYIdjbY.s:92102  .debug_str:0000000000019775 .LASF2981
     /tmp/ccYIdjbY.s:92356  .debug_str:000000000001a933 .LASF2982
     /tmp/ccYIdjbY.s:96660  .debug_str:000000000002c364 .LASF2983
     /tmp/ccYIdjbY.s:88076  .debug_str:0000000000009234 .LASF2984
     /tmp/ccYIdjbY.s:99758  .debug_str:0000000000038bdc .LASF2985
     /tmp/ccYIdjbY.s:87466  .debug_str:00000000000069a7 .LASF2986
     /tmp/ccYIdjbY.s:93712  .debug_str:00000000000206cc .LASF2987
     /tmp/ccYIdjbY.s:96978  .debug_str:000000000002d953 .LASF2988
     /tmp/ccYIdjbY.s:91010  .debug_str:0000000000014ed0 .LASF2989
     /tmp/ccYIdjbY.s:88494  .debug_str:000000000000af41 .LASF2990
     /tmp/ccYIdjbY.s:100790  .debug_str:000000000003d0c4 .LASF2991
     /tmp/ccYIdjbY.s:87880  .debug_str:00000000000084ce .LASF2992
     /tmp/ccYIdjbY.s:92270  .debug_str:000000000001a347 .LASF2993
     /tmp/ccYIdjbY.s:101444  .debug_str:000000000003fd5a .LASF2994
     /tmp/ccYIdjbY.s:97752  .debug_str:0000000000030e55 .LASF2995
     /tmp/ccYIdjbY.s:93110  .debug_str:000000000001dd47 .LASF2996
     /tmp/ccYIdjbY.s:102362  .debug_str:0000000000043900 .LASF2997
     /tmp/ccYIdjbY.s:94868  .debug_str:0000000000024ead .LASF2998
     /tmp/ccYIdjbY.s:99014  .debug_str:0000000000035fc6 .LASF2999
     /tmp/ccYIdjbY.s:95034  .debug_str:0000000000025950 .LASF3000
     /tmp/ccYIdjbY.s:90404  .debug_str:00000000000127e6 .LASF3001
     /tmp/ccYIdjbY.s:93990  .debug_str:0000000000021930 .LASF3002
     /tmp/ccYIdjbY.s:98176  .debug_str:0000000000032a95 .LASF3003
     /tmp/ccYIdjbY.s:86608  .debug_str:0000000000002e8e .LASF3004
     /tmp/ccYIdjbY.s:98224  .debug_str:0000000000032dbe .LASF3005
     /tmp/ccYIdjbY.s:86086  .debug_str:00000000000009c1 .LASF3006
     /tmp/ccYIdjbY.s:93282  .debug_str:000000000001e97c .LASF3007
     /tmp/ccYIdjbY.s:100242  .debug_str:000000000003ad51 .LASF3008
     /tmp/ccYIdjbY.s:87294  .debug_str:0000000000005dc6 .LASF3009
     /tmp/ccYIdjbY.s:92438  .debug_str:000000000001aebf .LASF3010
     /tmp/ccYIdjbY.s:92674  .debug_str:000000000001bea1 .LASF3011
     /tmp/ccYIdjbY.s:87142  .debug_str:00000000000052f6 .LASF3012
     /tmp/ccYIdjbY.s:91746  .debug_str:0000000000017e5e .LASF3013
     /tmp/ccYIdjbY.s:97350  .debug_str:000000000002f269 .LASF3014
     /tmp/ccYIdjbY.s:100400  .debug_str:000000000003b7f7 .LASF3015
     /tmp/ccYIdjbY.s:92426  .debug_str:000000000001adfe .LASF3016
     /tmp/ccYIdjbY.s:96806  .debug_str:000000000002cd7e .LASF3017
     /tmp/ccYIdjbY.s:91564  .debug_str:0000000000017348 .LASF3018
     /tmp/ccYIdjbY.s:102740  .debug_str:00000000000452bb .LASF3019
     /tmp/ccYIdjbY.s:103458  .debug_str:00000000000483eb .LASF3020
     /tmp/ccYIdjbY.s:95040  .debug_str:00000000000259cc .LASF3021
     /tmp/ccYIdjbY.s:95398  .debug_str:00000000000272a1 .LASF3022
     /tmp/ccYIdjbY.s:88260  .debug_str:0000000000009eca .LASF3023
     /tmp/ccYIdjbY.s:103242  .debug_str:00000000000474d4 .LASF3024
     /tmp/ccYIdjbY.s:104132  .debug_str:000000000004b410 .LASF3025
     /tmp/ccYIdjbY.s:98812  .debug_str:000000000003546d .LASF3026
     /tmp/ccYIdjbY.s:97550  .debug_str:0000000000030061 .LASF3027
     /tmp/ccYIdjbY.s:94072  .debug_str:0000000000021ee2 .LASF3028
     /tmp/ccYIdjbY.s:99450  .debug_str:000000000003773b .LASF3029
     /tmp/ccYIdjbY.s:98804  .debug_str:00000000000353b4 .LASF3030
     /tmp/ccYIdjbY.s:89932  .debug_str:0000000000010811 .LASF3031
     /tmp/ccYIdjbY.s:87542  .debug_str:0000000000006f07 .LASF3032
     /tmp/ccYIdjbY.s:89728  .debug_str:000000000000fb0a .LASF3033
     /tmp/ccYIdjbY.s:99792  .debug_str:0000000000038ea4 .LASF3034
     /tmp/ccYIdjbY.s:96720  .debug_str:000000000002c811 .LASF3035
     /tmp/ccYIdjbY.s:86378  .debug_str:0000000000001d2e .LASF3036
     /tmp/ccYIdjbY.s:91768  .debug_str:0000000000018009 .LASF3037
     /tmp/ccYIdjbY.s:90282  .debug_str:0000000000011f64 .LASF3038
     /tmp/ccYIdjbY.s:96834  .debug_str:000000000002cfa4 .LASF3039
     /tmp/ccYIdjbY.s:87814  .debug_str:000000000000804d .LASF3040
     /tmp/ccYIdjbY.s:101478  .debug_str:0000000000040032 .LASF3041
     /tmp/ccYIdjbY.s:100556  .debug_str:000000000003c226 .LASF3042
     /tmp/ccYIdjbY.s:101868  .debug_str:00000000000419ba .LASF3043
     /tmp/ccYIdjbY.s:97764  .debug_str:0000000000030f1b .LASF3044
     /tmp/ccYIdjbY.s:93580  .debug_str:000000000001fe2f .LASF3045
     /tmp/ccYIdjbY.s:93486  .debug_str:000000000001f73b .LASF3046
     /tmp/ccYIdjbY.s:88058  .debug_str:00000000000090ac .LASF3047
     /tmp/ccYIdjbY.s:87200  .debug_str:0000000000005758 .LASF3048
     /tmp/ccYIdjbY.s:100998  .debug_str:000000000003df61 .LASF3049
     /tmp/ccYIdjbY.s:102396  .debug_str:0000000000043b1e .LASF3050
     /tmp/ccYIdjbY.s:92698  .debug_str:000000000001c028 .LASF3051
     /tmp/ccYIdjbY.s:91176  .debug_str:0000000000015872 .LASF3052
     /tmp/ccYIdjbY.s:102734  .debug_str:0000000000045245 .LASF3053
     /tmp/ccYIdjbY.s:100948  .debug_str:000000000003db5f .LASF3054
     /tmp/ccYIdjbY.s:95656  .debug_str:00000000000282b0 .LASF3055
     /tmp/ccYIdjbY.s:99256  .debug_str:0000000000036bd0 .LASF3056
     /tmp/ccYIdjbY.s:87234  .debug_str:0000000000005991 .LASF3057
     /tmp/ccYIdjbY.s:86812  .debug_str:0000000000003bfa .LASF3058
     /tmp/ccYIdjbY.s:92316  .debug_str:000000000001a5e3 .LASF3059
     /tmp/ccYIdjbY.s:96742  .debug_str:000000000002c987 .LASF3060
     /tmp/ccYIdjbY.s:88906  .debug_str:000000000000cb88 .LASF3061
     /tmp/ccYIdjbY.s:88010  .debug_str:0000000000008dcd .LASF3062
     /tmp/ccYIdjbY.s:87910  .debug_str:000000000000867c .LASF3063
     /tmp/ccYIdjbY.s:101554  .debug_str:0000000000040554 .LASF3064
     /tmp/ccYIdjbY.s:97894  .debug_str:0000000000031814 .LASF3065
     /tmp/ccYIdjbY.s:95576  .debug_str:0000000000027d71 .LASF3066
     /tmp/ccYIdjbY.s:92328  .debug_str:000000000001a6e3 .LASF3067
     /tmp/ccYIdjbY.s:89732  .debug_str:000000000000fb56 .LASF3068
     /tmp/ccYIdjbY.s:100486  .debug_str:000000000003bd33 .LASF3069
     /tmp/ccYIdjbY.s:93364  .debug_str:000000000001efef .LASF3070
     /tmp/ccYIdjbY.s:87936  .debug_str:0000000000008895 .LASF3071
     /tmp/ccYIdjbY.s:92520  .debug_str:000000000001b4e4 .LASF3072
     /tmp/ccYIdjbY.s:92626  .debug_str:000000000001bb94 .LASF3073
     /tmp/ccYIdjbY.s:98696  .debug_str:0000000000034cc7 .LASF3074
     /tmp/ccYIdjbY.s:91082  .debug_str:000000000001527e .LASF3075
     /tmp/ccYIdjbY.s:101068  .debug_str:000000000003e433 .LASF3076
     /tmp/ccYIdjbY.s:102058  .debug_str:0000000000042587 .LASF3077
     /tmp/ccYIdjbY.s:99858  .debug_str:000000000003938e .LASF3078
     /tmp/ccYIdjbY.s:102940  .debug_str:0000000000045fda .LASF3079
     /tmp/ccYIdjbY.s:99528  .debug_str:0000000000037cbb .LASF3080
     /tmp/ccYIdjbY.s:98476  .debug_str:0000000000033ef4 .LASF3081
     /tmp/ccYIdjbY.s:90012  .debug_str:0000000000010ca2 .LASF3082
     /tmp/ccYIdjbY.s:93800  .debug_str:0000000000020c54 .LASF3083
     /tmp/ccYIdjbY.s:99046  .debug_str:00000000000361b9 .LASF3084
     /tmp/ccYIdjbY.s:90200  .debug_str:0000000000011a07 .LASF3085
     /tmp/ccYIdjbY.s:87928  .debug_str:00000000000087e3 .LASF3086
     /tmp/ccYIdjbY.s:104014  .debug_str:000000000004ac3c .LASF3087
     /tmp/ccYIdjbY.s:99178  .debug_str:00000000000367e2 .LASF3088
     /tmp/ccYIdjbY.s:99620  .debug_str:00000000000382c5 .LASF3089
     /tmp/ccYIdjbY.s:91832  .debug_str:0000000000018463 .LASF3090
     /tmp/ccYIdjbY.s:94852  .debug_str:0000000000024da6 .LASF3091
     /tmp/ccYIdjbY.s:87254  .debug_str:0000000000005b12 .LASF3092
     /tmp/ccYIdjbY.s:99768  .debug_str:0000000000038cac .LASF3093
     /tmp/ccYIdjbY.s:86934  .debug_str:0000000000004491 .LASF3094
     /tmp/ccYIdjbY.s:102134  .debug_str:0000000000042a50 .LASF3095
     /tmp/ccYIdjbY.s:94808  .debug_str:0000000000024a67 .LASF3096
     /tmp/ccYIdjbY.s:95290  .debug_str:0000000000026acd .LASF3097
     /tmp/ccYIdjbY.s:100234  .debug_str:000000000003ac91 .LASF3098
     /tmp/ccYIdjbY.s:88722  .debug_str:000000000000bf44 .LASF3099
     /tmp/ccYIdjbY.s:88778  .debug_str:000000000000c303 .LASF3100
     /tmp/ccYIdjbY.s:102844  .debug_str:00000000000459f1 .LASF3101
     /tmp/ccYIdjbY.s:103816  .debug_str:0000000000049e97 .LASF3102
     /tmp/ccYIdjbY.s:91268  .debug_str:0000000000015ef2 .LASF3103
     /tmp/ccYIdjbY.s:90532  .debug_str:0000000000012f9e .LASF3104
     /tmp/ccYIdjbY.s:91138  .debug_str:0000000000015641 .LASF3105
     /tmp/ccYIdjbY.s:98820  .debug_str:0000000000035528 .LASF3106
     /tmp/ccYIdjbY.s:102062  .debug_str:0000000000042601 .LASF3107
     /tmp/ccYIdjbY.s:100734  .debug_str:000000000003ccfc .LASF3108
     /tmp/ccYIdjbY.s:103622  .debug_str:0000000000048fa2 .LASF3109
     /tmp/ccYIdjbY.s:86604  .debug_str:0000000000002e3a .LASF3110
     /tmp/ccYIdjbY.s:99524  .debug_str:0000000000037c6b .LASF3111
     /tmp/ccYIdjbY.s:96752  .debug_str:000000000002ca31 .LASF3112
     /tmp/ccYIdjbY.s:100080  .debug_str:000000000003a2ac .LASF3113
     /tmp/ccYIdjbY.s:88268  .debug_str:0000000000009f94 .LASF3114
     /tmp/ccYIdjbY.s:91332  .debug_str:0000000000016317 .LASF3115
     /tmp/ccYIdjbY.s:101140  .debug_str:000000000003e902 .LASF3116
     /tmp/ccYIdjbY.s:93104  .debug_str:000000000001dce3 .LASF3117
     /tmp/ccYIdjbY.s:99716  .debug_str:000000000003896a .LASF3118
     /tmp/ccYIdjbY.s:102890  .debug_str:0000000000045d11 .LASF3119
     /tmp/ccYIdjbY.s:91330  .debug_str:00000000000162dc .LASF3120
     /tmp/ccYIdjbY.s:94336  .debug_str:0000000000023038 .LASF3121
     /tmp/ccYIdjbY.s:101340  .debug_str:000000000003f5c4 .LASF3122
     /tmp/ccYIdjbY.s:104150  .debug_str:000000000004b591 .LASF3123
     /tmp/ccYIdjbY.s:101864  .debug_str:0000000000041960 .LASF3124
     /tmp/ccYIdjbY.s:93562  .debug_str:000000000001fcd1 .LASF3125
     /tmp/ccYIdjbY.s:92402  .debug_str:000000000001ac86 .LASF3126
     /tmp/ccYIdjbY.s:92714  .debug_str:000000000001c136 .LASF3127
     /tmp/ccYIdjbY.s:86014  .debug_str:00000000000004eb .LASF3128
     /tmp/ccYIdjbY.s:98158  .debug_str:0000000000032933 .LASF3129
     /tmp/ccYIdjbY.s:96028  .debug_str:0000000000029a5e .LASF3130
     /tmp/ccYIdjbY.s:96410  .debug_str:000000000002b284 .LASF3131
     /tmp/ccYIdjbY.s:102016  .debug_str:000000000004229e .LASF3132
     /tmp/ccYIdjbY.s:99712  .debug_str:0000000000038917 .LASF3133
     /tmp/ccYIdjbY.s:97946  .debug_str:0000000000031b41 .LASF3134
     /tmp/ccYIdjbY.s:87062  .debug_str:0000000000004d98 .LASF3135
     /tmp/ccYIdjbY.s:103788  .debug_str:0000000000049c7c .LASF3136
     /tmp/ccYIdjbY.s:90172  .debug_str:0000000000011854 .LASF3137
     /tmp/ccYIdjbY.s:97358  .debug_str:000000000002f2fd .LASF3138
     /tmp/ccYIdjbY.s:91638  .debug_str:0000000000017839 .LASF3139
     /tmp/ccYIdjbY.s:103238  .debug_str:0000000000047485 .LASF3140
     /tmp/ccYIdjbY.s:91196  .debug_str:00000000000159e1 .LASF3141
     /tmp/ccYIdjbY.s:96586  .debug_str:000000000002be8e .LASF3142
     /tmp/ccYIdjbY.s:102278  .debug_str:0000000000043397 .LASF3143
     /tmp/ccYIdjbY.s:98292  .debug_str:00000000000332db .LASF3144
     /tmp/ccYIdjbY.s:95042  .debug_str:0000000000025a13 .LASF3145
     /tmp/ccYIdjbY.s:95672  .debug_str:00000000000283e5 .LASF3146
     /tmp/ccYIdjbY.s:94166  .debug_str:00000000000224ca .LASF3147
     /tmp/ccYIdjbY.s:90954  .debug_str:0000000000014a80 .LASF3148
     /tmp/ccYIdjbY.s:103106  .debug_str:0000000000046acc .LASF3149
     /tmp/ccYIdjbY.s:86394  .debug_str:0000000000001e56 .LASF3150
     /tmp/ccYIdjbY.s:93766  .debug_str:0000000000020a8c .LASF3151
     /tmp/ccYIdjbY.s:100260  .debug_str:000000000003aeb1 .LASF3152
     /tmp/ccYIdjbY.s:102704  .debug_str:000000000004501a .LASF3153
     /tmp/ccYIdjbY.s:87594  .debug_str:000000000000721e .LASF3154
     /tmp/ccYIdjbY.s:102686  .debug_str:0000000000044ec1 .LASF3155
     /tmp/ccYIdjbY.s:98498  .debug_str:000000000003404e .LASF3156
     /tmp/ccYIdjbY.s:91358  .debug_str:0000000000016502 .LASF3157
     /tmp/ccYIdjbY.s:104104  .debug_str:000000000004b1fc .LASF3158
     /tmp/ccYIdjbY.s:95548  .debug_str:0000000000027b71 .LASF3159
     /tmp/ccYIdjbY.s:87308  .debug_str:0000000000005eb6 .LASF3160
     /tmp/ccYIdjbY.s:101656  .debug_str:0000000000040bda .LASF3161
     /tmp/ccYIdjbY.s:101398  .debug_str:000000000003fa55 .LASF3162
     /tmp/ccYIdjbY.s:87930  .debug_str:0000000000008827 .LASF3163
     /tmp/ccYIdjbY.s:99404  .debug_str:00000000000373d1 .LASF3164
     /tmp/ccYIdjbY.s:89500  .debug_str:000000000000edc2 .LASF3165
     /tmp/ccYIdjbY.s:88244  .debug_str:0000000000009d73 .LASF3166
     /tmp/ccYIdjbY.s:104126  .debug_str:000000000004b367 .LASF3167
     /tmp/ccYIdjbY.s:91868  .debug_str:00000000000186f2 .LASF3168
     /tmp/ccYIdjbY.s:89438  .debug_str:000000000000ea3d .LASF3169
     /tmp/ccYIdjbY.s:86392  .debug_str:0000000000001e2d .LASF3170
     /tmp/ccYIdjbY.s:95604  .debug_str:0000000000027f3d .LASF3171
     /tmp/ccYIdjbY.s:99564  .debug_str:0000000000037f34 .LASF3172
     /tmp/ccYIdjbY.s:98070  .debug_str:0000000000032396 .LASF3173
     /tmp/ccYIdjbY.s:90912  .debug_str:0000000000014782 .LASF3174
     /tmp/ccYIdjbY.s:90196  .debug_str:000000000001199c .LASF3175
     /tmp/ccYIdjbY.s:101164  .debug_str:000000000003ea92 .LASF3176
     /tmp/ccYIdjbY.s:103672  .debug_str:0000000000049293 .LASF3177
     /tmp/ccYIdjbY.s:88560  .debug_str:000000000000b48b .LASF3178
     /tmp/ccYIdjbY.s:96910  .debug_str:000000000002d517 .LASF3179
     /tmp/ccYIdjbY.s:101342  .debug_str:000000000003f5ff .LASF3180
     /tmp/ccYIdjbY.s:99546  .debug_str:0000000000037dd4 .LASF3181
     /tmp/ccYIdjbY.s:92780  .debug_str:000000000001c62b .LASF3182
     /tmp/ccYIdjbY.s:91132  .debug_str:00000000000155ac .LASF3183
     /tmp/ccYIdjbY.s:86018  .debug_str:000000000000056e .LASF3184
     /tmp/ccYIdjbY.s:90124  .debug_str:00000000000114c2 .LASF3185
     /tmp/ccYIdjbY.s:91982  .debug_str:0000000000018e85 .LASF3186
     /tmp/ccYIdjbY.s:98332  .debug_str:00000000000335a2 .LASF3187
     /tmp/ccYIdjbY.s:91916  .debug_str:0000000000018a4a .LASF3188
     /tmp/ccYIdjbY.s:87096  .debug_str:0000000000004fc5 .LASF3189
     /tmp/ccYIdjbY.s:86012  .debug_str:00000000000004a4 .LASF3190
     /tmp/ccYIdjbY.s:100914  .debug_str:000000000003d927 .LASF3191
     /tmp/ccYIdjbY.s:94754  .debug_str:00000000000246b7 .LASF3192
     /tmp/ccYIdjbY.s:86556  .debug_str:0000000000002a85 .LASF3193
     /tmp/ccYIdjbY.s:92200  .debug_str:0000000000019ec7 .LASF3194
     /tmp/ccYIdjbY.s:90066  .debug_str:000000000001108b .LASF3195
     /tmp/ccYIdjbY.s:99962  .debug_str:0000000000039b12 .LASF3196
     /tmp/ccYIdjbY.s:93072  .debug_str:000000000001da3b .LASF3197
     /tmp/ccYIdjbY.s:90790  .debug_str:0000000000013f76 .LASF3198
     /tmp/ccYIdjbY.s:85962  .debug_str:0000000000000157 .LASF3199
     /tmp/ccYIdjbY.s:93734  .debug_str:00000000000207d1 .LASF3200
     /tmp/ccYIdjbY.s:86292  .debug_str:000000000000176c .LASF3201
     /tmp/ccYIdjbY.s:94282  .debug_str:0000000000022ce6 .LASF3202
     /tmp/ccYIdjbY.s:99780  .debug_str:0000000000038d9d .LASF3203
     /tmp/ccYIdjbY.s:87018  .debug_str:0000000000004ad3 .LASF3204
     /tmp/ccYIdjbY.s:100018  .debug_str:0000000000039ec3 .LASF3205
     /tmp/ccYIdjbY.s:98202  .debug_str:0000000000032c3d .LASF3206
     /tmp/ccYIdjbY.s:87582  .debug_str:0000000000007122 .LASF3207
     /tmp/ccYIdjbY.s:87438  .debug_str:00000000000067c4 .LASF3208
     /tmp/ccYIdjbY.s:101494  .debug_str:0000000000040183 .LASF3209
     /tmp/ccYIdjbY.s:93354  .debug_str:000000000001eec5 .LASF3210
     /tmp/ccYIdjbY.s:97036  .debug_str:000000000002dd59 .LASF3211
     /tmp/ccYIdjbY.s:95168  .debug_str:00000000000262bf .LASF3212
     /tmp/ccYIdjbY.s:92320  .debug_str:000000000001a63b .LASF3213
     /tmp/ccYIdjbY.s:104078  .debug_str:000000000004b07d .LASF3214
     /tmp/ccYIdjbY.s:87820  .debug_str:00000000000080cc .LASF3215
     /tmp/ccYIdjbY.s:104054  .debug_str:000000000004af0e .LASF3216
     /tmp/ccYIdjbY.s:103244  .debug_str:0000000000047510 .LASF3217
     /tmp/ccYIdjbY.s:92824  .debug_str:000000000001c91d .LASF3218
     /tmp/ccYIdjbY.s:88858  .debug_str:000000000000c86c .LASF3219
     /tmp/ccYIdjbY.s:96870  .debug_str:000000000002d28c .LASF3220
     /tmp/ccYIdjbY.s:90226  .debug_str:0000000000011b99 .LASF3221
     /tmp/ccYIdjbY.s:100040  .debug_str:000000000003a025 .LASF3222
     /tmp/ccYIdjbY.s:104260  .debug_str:000000000004bcf0 .LASF3223
     /tmp/ccYIdjbY.s:86298  .debug_str:00000000000017df .LASF3224
     /tmp/ccYIdjbY.s:103776  .debug_str:0000000000049b6f .LASF3225
     /tmp/ccYIdjbY.s:89256  .debug_str:000000000000e0e8 .LASF3226
     /tmp/ccYIdjbY.s:98810  .debug_str:0000000000035429 .LASF3227
     /tmp/ccYIdjbY.s:103756  .debug_str:00000000000499b6 .LASF3228
     /tmp/ccYIdjbY.s:89254  .debug_str:000000000000e0a5 .LASF3229
     /tmp/ccYIdjbY.s:98818  .debug_str:00000000000354dd .LASF3230
     /tmp/ccYIdjbY.s:98396  .debug_str:000000000003396f .LASF3231
     /tmp/ccYIdjbY.s:100162  .debug_str:000000000003a7b9 .LASF3232
     /tmp/ccYIdjbY.s:92898  .debug_str:000000000001ceda .LASF3233
     /tmp/ccYIdjbY.s:91198  .debug_str:0000000000015a28 .LASF3234
     /tmp/ccYIdjbY.s:89680  .debug_str:000000000000f864 .LASF3235
     /tmp/ccYIdjbY.s:101390  .debug_str:000000000003f9aa .LASF3236
     /tmp/ccYIdjbY.s:86966  .debug_str:00000000000046e1 .LASF3237
     /tmp/ccYIdjbY.s:92888  .debug_str:000000000001cdd8 .LASF3238
     /tmp/ccYIdjbY.s:89172  .debug_str:000000000000dc8b .LASF3239
     /tmp/ccYIdjbY.s:101760  .debug_str:00000000000412da .LASF3240
     /tmp/ccYIdjbY.s:99128  .debug_str:00000000000365c6 .LASF3241
     /tmp/ccYIdjbY.s:95676  .debug_str:0000000000028433 .LASF3242
     /tmp/ccYIdjbY.s:90506  .debug_str:0000000000012e15 .LASF3243
     /tmp/ccYIdjbY.s:103614  .debug_str:0000000000048f2c .LASF3244
     /tmp/ccYIdjbY.s:87996  .debug_str:0000000000008cf2 .LASF3245
     /tmp/ccYIdjbY.s:102636  .debug_str:0000000000044b7b .LASF3246
     /tmp/ccYIdjbY.s:102030  .debug_str:00000000000423ba .LASF3247
     /tmp/ccYIdjbY.s:88456  .debug_str:000000000000acc9 .LASF3248
     /tmp/ccYIdjbY.s:98684  .debug_str:0000000000034bfb .LASF3249
     /tmp/ccYIdjbY.s:88808  .debug_str:000000000000c51c .LASF3250
     /tmp/ccYIdjbY.s:100888  .debug_str:000000000003d757 .LASF3251
     /tmp/ccYIdjbY.s:99474  .debug_str:00000000000378ee .LASF3252
     /tmp/ccYIdjbY.s:87860  .debug_str:0000000000008344 .LASF3253
     /tmp/ccYIdjbY.s:86868  .debug_str:0000000000004019 .LASF3254
     /tmp/ccYIdjbY.s:100994  .debug_str:000000000003df0f .LASF3255
     /tmp/ccYIdjbY.s:95370  .debug_str:000000000002703d .LASF3256
     /tmp/ccYIdjbY.s:99784  .debug_str:0000000000038df7 .LASF3257
     /tmp/ccYIdjbY.s:90784  .debug_str:0000000000013eef .LASF3258
     /tmp/ccYIdjbY.s:93358  .debug_str:000000000001ef45 .LASF3259
     /tmp/ccYIdjbY.s:98054  .debug_str:000000000003223a .LASF3260
     /tmp/ccYIdjbY.s:93994  .debug_str:000000000002197f .LASF3261
     /tmp/ccYIdjbY.s:99274  .debug_str:0000000000036cf9 .LASF3262
     /tmp/ccYIdjbY.s:92046  .debug_str:0000000000019389 .LASF3263
     /tmp/ccYIdjbY.s:103890  .debug_str:000000000004a3b8 .LASF3264
     /tmp/ccYIdjbY.s:100972  .debug_str:000000000003dd58 .LASF3265
     /tmp/ccYIdjbY.s:89986  .debug_str:0000000000010afb .LASF3266
     /tmp/ccYIdjbY.s:91754  .debug_str:0000000000017efb .LASF3267
     /tmp/ccYIdjbY.s:93062  .debug_str:000000000001d95a .LASF3268
     /tmp/ccYIdjbY.s:92762  .debug_str:000000000001c4d0 .LASF3269
     /tmp/ccYIdjbY.s:90094  .debug_str:000000000001128f .LASF3270
     /tmp/ccYIdjbY.s:101732  .debug_str:00000000000410e1 .LASF3271
     /tmp/ccYIdjbY.s:102244  .debug_str:0000000000043149 .LASF3272
     /tmp/ccYIdjbY.s:92350  .debug_str:000000000001a87b .LASF3273
     /tmp/ccYIdjbY.s:97782  .debug_str:0000000000031051 .LASF3274
     /tmp/ccYIdjbY.s:101458  .debug_str:000000000003fe94 .LASF3275
     /tmp/ccYIdjbY.s:103438  .debug_str:0000000000048291 .LASF3276
     /tmp/ccYIdjbY.s:101234  .debug_str:000000000003f002 .LASF3277
     /tmp/ccYIdjbY.s:93076  .debug_str:000000000001daba .LASF3278
     /tmp/ccYIdjbY.s:92036  .debug_str:00000000000192ac .LASF3279
     /tmp/ccYIdjbY.s:98892  .debug_str:0000000000035958 .LASF3280
     /tmp/ccYIdjbY.s:90670  .debug_str:0000000000013845 .LASF3281
     /tmp/ccYIdjbY.s:97904  .debug_str:00000000000318cd .LASF3282
     /tmp/ccYIdjbY.s:102494  .debug_str:000000000004426a .LASF3283
     /tmp/ccYIdjbY.s:102798  .debug_str:00000000000456d0 .LASF3284
     /tmp/ccYIdjbY.s:101870  .debug_str:00000000000419ff .LASF3285
     /tmp/ccYIdjbY.s:88554  .debug_str:000000000000b3b6 .LASF3286
     /tmp/ccYIdjbY.s:91468  .debug_str:0000000000016d3a .LASF3287
     /tmp/ccYIdjbY.s:86860  .debug_str:0000000000003f71 .LASF3288
     /tmp/ccYIdjbY.s:95008  .debug_str:000000000002577b .LASF3289
     /tmp/ccYIdjbY.s:104160  .debug_str:000000000004b65b .LASF3290
     /tmp/ccYIdjbY.s:99542  .debug_str:0000000000037d72 .LASF3291
     /tmp/ccYIdjbY.s:91030  .debug_str:0000000000014fdf .LASF3292
     /tmp/ccYIdjbY.s:95422  .debug_str:0000000000027447 .LASF3293
     /tmp/ccYIdjbY.s:94032  .debug_str:0000000000021c1e .LASF3294
     /tmp/ccYIdjbY.s:87206  .debug_str:00000000000057cf .LASF3295
     /tmp/ccYIdjbY.s:89670  .debug_str:000000000000f7dc .LASF3296
     /tmp/ccYIdjbY.s:94502  .debug_str:0000000000023951 .LASF3297
     /tmp/ccYIdjbY.s:95324  .debug_str:0000000000026d15 .LASF3298
     /tmp/ccYIdjbY.s:92662  .debug_str:000000000001bdca .LASF3299
     /tmp/ccYIdjbY.s:92942  .debug_str:000000000001d1a2 .LASF3300
     /tmp/ccYIdjbY.s:98976  .debug_str:0000000000035df8 .LASF3301
     /tmp/ccYIdjbY.s:102388  .debug_str:0000000000043abd .LASF3302
     /tmp/ccYIdjbY.s:99578  .debug_str:0000000000038056 .LASF3303
     /tmp/ccYIdjbY.s:99640  .debug_str:000000000003843c .LASF3304
     /tmp/ccYIdjbY.s:91694  .debug_str:0000000000017b74 .LASF3305
     /tmp/ccYIdjbY.s:87316  .debug_str:0000000000005f34 .LASF3306
     /tmp/ccYIdjbY.s:102484  .debug_str:00000000000441a3 .LASF3307
     /tmp/ccYIdjbY.s:100746  .debug_str:000000000003ce00 .LASF3308
     /tmp/ccYIdjbY.s:101774  .debug_str:00000000000413f9 .LASF3309
     /tmp/ccYIdjbY.s:91204  .debug_str:0000000000015ac1 .LASF3310
     /tmp/ccYIdjbY.s:94878  .debug_str:0000000000024f90 .LASF3311
     /tmp/ccYIdjbY.s:88948  .debug_str:000000000000ce6f .LASF3312
     /tmp/ccYIdjbY.s:95020  .debug_str:0000000000025864 .LASF3313
     /tmp/ccYIdjbY.s:86206  .debug_str:00000000000011bc .LASF3314
     /tmp/ccYIdjbY.s:98532  .debug_str:00000000000342a3 .LASF3315
     /tmp/ccYIdjbY.s:88988  .debug_str:000000000000d10d .LASF3316
     /tmp/ccYIdjbY.s:98160  .debug_str:000000000003297a .LASF3317
     /tmp/ccYIdjbY.s:90248  .debug_str:0000000000011d37 .LASF3318
     /tmp/ccYIdjbY.s:90702  .debug_str:0000000000013a7d .LASF3319
     /tmp/ccYIdjbY.s:97746  .debug_str:0000000000030ded .LASF3320
     /tmp/ccYIdjbY.s:97732  .debug_str:0000000000030cf8 .LASF3321
     /tmp/ccYIdjbY.s:98502  .debug_str:000000000003409c .LASF3322
     /tmp/ccYIdjbY.s:87536  .debug_str:0000000000006ec4 .LASF3323
     /tmp/ccYIdjbY.s:87866  .debug_str:00000000000083b6 .LASF3324
     /tmp/ccYIdjbY.s:87800  .debug_str:0000000000007f5d .LASF3325
     /tmp/ccYIdjbY.s:90440  .debug_str:0000000000012a52 .LASF3326
     /tmp/ccYIdjbY.s:95078  .debug_str:0000000000025ca0 .LASF3327
     /tmp/ccYIdjbY.s:90516  .debug_str:0000000000012eeb .LASF3328
     /tmp/ccYIdjbY.s:104006  .debug_str:000000000004abac .LASF3329
     /tmp/ccYIdjbY.s:93170  .debug_str:000000000001e188 .LASF3330
     /tmp/ccYIdjbY.s:92388  .debug_str:000000000001ab57 .LASF3331
     /tmp/ccYIdjbY.s:92810  .debug_str:000000000001c830 .LASF3332
     /tmp/ccYIdjbY.s:97712  .debug_str:0000000000030b87 .LASF3333
     /tmp/ccYIdjbY.s:93904  .debug_str:0000000000021396 .LASF3334
     /tmp/ccYIdjbY.s:90170  .debug_str:0000000000011831 .LASF3335
     /tmp/ccYIdjbY.s:88176  .debug_str:000000000000992a .LASF3336
     /tmp/ccYIdjbY.s:95206  .debug_str:00000000000264dd .LASF3337
     /tmp/ccYIdjbY.s:93522  .debug_str:000000000001fa15 .LASF3338
     /tmp/ccYIdjbY.s:86296  .debug_str:00000000000017be .LASF3339
     /tmp/ccYIdjbY.s:98128  .debug_str:0000000000032724 .LASF3340
     /tmp/ccYIdjbY.s:102280  .debug_str:00000000000433de .LASF3341
     /tmp/ccYIdjbY.s:96428  .debug_str:000000000002b3cf .LASF3342
     /tmp/ccYIdjbY.s:90520  .debug_str:0000000000012f10 .LASF3343
     /tmp/ccYIdjbY.s:90062  .debug_str:0000000000011057 .LASF3344
     /tmp/ccYIdjbY.s:89382  .debug_str:000000000000e7b3 .LASF3345
     /tmp/ccYIdjbY.s:97924  .debug_str:0000000000031a0b .LASF3346
     /tmp/ccYIdjbY.s:97252  .debug_str:000000000002ec7f .LASF3347
     /tmp/ccYIdjbY.s:87428  .debug_str:00000000000066fa .LASF3348
     /tmp/ccYIdjbY.s:96686  .debug_str:000000000002c54d .LASF3349
     /tmp/ccYIdjbY.s:97118  .debug_str:000000000002e35c .LASF3350
     /tmp/ccYIdjbY.s:100258  .debug_str:000000000003ae8d .LASF3351
     /tmp/ccYIdjbY.s:93618  .debug_str:00000000000200ae .LASF3352
     /tmp/ccYIdjbY.s:97846  .debug_str:00000000000314d9 .LASF3354
     /tmp/ccYIdjbY.s:101242  .debug_str:000000000003f089 .LASF3355
     /tmp/ccYIdjbY.s:87914  .debug_str:00000000000086d9 .LASF3356
     /tmp/ccYIdjbY.s:97004  .debug_str:000000000002dba5 .LASF3357
     /tmp/ccYIdjbY.s:96650  .debug_str:000000000002c2c1 .LASF3358
     /tmp/ccYIdjbY.s:96894  .debug_str:000000000002d411 .LASF3359
     /tmp/ccYIdjbY.s:96102  .debug_str:0000000000029f9a .LASF3360
     /tmp/ccYIdjbY.s:100262  .debug_str:000000000003aeed .LASF3361
     /tmp/ccYIdjbY.s:86984  .debug_str:0000000000004846 .LASF3362
     /tmp/ccYIdjbY.s:103246  .debug_str:000000000004754d .LASF3363
     /tmp/ccYIdjbY.s:94422  .debug_str:000000000002355b .LASF3364
     /tmp/ccYIdjbY.s:92244  .debug_str:000000000001a184 .LASF3365
     /tmp/ccYIdjbY.s:94182  .debug_str:00000000000225fd .LASF3366
     /tmp/ccYIdjbY.s:103906  .debug_str:000000000004a4ed .LASF3367
     /tmp/ccYIdjbY.s:102582  .debug_str:000000000004480a .LASF3368
     /tmp/ccYIdjbY.s:97222  .debug_str:000000000002eace .LASF3369
     /tmp/ccYIdjbY.s:90490  .debug_str:0000000000012d3d .LASF3370
     /tmp/ccYIdjbY.s:103434  .debug_str:0000000000048259 .LASF3371
     /tmp/ccYIdjbY.s:90232  .debug_str:0000000000011be5 .LASF3372
     /tmp/ccYIdjbY.s:99618  .debug_str:00000000000382a0 .LASF3373
     /tmp/ccYIdjbY.s:94796  .debug_str:000000000002497a .LASF3374
     /tmp/ccYIdjbY.s:103310  .debug_str:00000000000479c1 .LASF3375
     /tmp/ccYIdjbY.s:86644  .debug_str:00000000000030f5 .LASF3376
     /tmp/ccYIdjbY.s:92790  .debug_str:000000000001c6db .LASF3377
     /tmp/ccYIdjbY.s:97518  .debug_str:000000000002fdaf .LASF3378
     /tmp/ccYIdjbY.s:90536  .debug_str:000000000001300a .LASF3379
     /tmp/ccYIdjbY.s:87040  .debug_str:0000000000004c38 .LASF3380
     /tmp/ccYIdjbY.s:97244  .debug_str:000000000002ebd4 .LASF3381
     /tmp/ccYIdjbY.s:91178  .debug_str:00000000000158b8 .LASF3382
     /tmp/ccYIdjbY.s:89900  .debug_str:00000000000105ca .LASF3383
     /tmp/ccYIdjbY.s:97942  .debug_str:0000000000031b03 .LASF3384
     /tmp/ccYIdjbY.s:87264  .debug_str:0000000000005c29 .LASF3385
     /tmp/ccYIdjbY.s:102218  .debug_str:0000000000042f46 .LASF3386
     /tmp/ccYIdjbY.s:102924  .debug_str:0000000000045f37 .LASF3387
     /tmp/ccYIdjbY.s:90474  .debug_str:0000000000012c60 .LASF3388
     /tmp/ccYIdjbY.s:99842  .debug_str:0000000000039269 .LASF3389
     /tmp/ccYIdjbY.s:95574  .debug_str:0000000000027d59 .LASF3390
     /tmp/ccYIdjbY.s:95738  .debug_str:00000000000287fd .LASF3391
     /tmp/ccYIdjbY.s:103774  .debug_str:0000000000049b62 .LASF3392
     /tmp/ccYIdjbY.s:99590  .debug_str:00000000000380f7 .LASF3393
     /tmp/ccYIdjbY.s:89686  .debug_str:000000000000f8f9 .LASF3394
     /tmp/ccYIdjbY.s:103766  .debug_str:0000000000049ab6 .LASF3395
     /tmp/ccYIdjbY.s:100968  .debug_str:000000000003dcdd .LASF3396
     /tmp/ccYIdjbY.s:86332  .debug_str:0000000000001a47 .LASF3397
     /tmp/ccYIdjbY.s:93130  .debug_str:000000000001de92 .LASF3398
     /tmp/ccYIdjbY.s:89374  .debug_str:000000000000e71a .LASF3399
     /tmp/ccYIdjbY.s:90762  .debug_str:0000000000013db7 .LASF3400
     /tmp/ccYIdjbY.s:86808  .debug_str:0000000000003bc7 .LASF3401
     /tmp/ccYIdjbY.s:102498  .debug_str:00000000000442bb .LASF3402
     /tmp/ccYIdjbY.s:96718  .debug_str:000000000002c7ee .LASF3403
     /tmp/ccYIdjbY.s:97202  .debug_str:000000000002e95c .LASF3404
     /tmp/ccYIdjbY.s:102888  .debug_str:0000000000045cf0 .LASF3405
     /tmp/ccYIdjbY.s:103804  .debug_str:0000000000049ddc .LASF3406
     /tmp/ccYIdjbY.s:95926  .debug_str:0000000000029412 .LASF3407
     /tmp/ccYIdjbY.s:92458  .debug_str:000000000001b089 .LASF3408
     /tmp/ccYIdjbY.s:92724  .debug_str:000000000001c1d1 .LASF3409
     /tmp/ccYIdjbY.s:103064  .debug_str:0000000000046849 .LASF3410
     /tmp/ccYIdjbY.s:104084  .debug_str:000000000004b0ed .LASF3411
     /tmp/ccYIdjbY.s:96198  .debug_str:000000000002a60d .LASF3412
     /tmp/ccYIdjbY.s:97018  .debug_str:000000000002dc7f .LASF3413
     /tmp/ccYIdjbY.s:97766  .debug_str:0000000000030f5f .LASF3414
     /tmp/ccYIdjbY.s:86986  .debug_str:000000000000487b .LASF3415
     /tmp/ccYIdjbY.s:99206  .debug_str:00000000000369af .LASF3416
     /tmp/ccYIdjbY.s:100872  .debug_str:000000000003d621 .LASF3417
     /tmp/ccYIdjbY.s:103480  .debug_str:000000000004857c .LASF3418
     /tmp/ccYIdjbY.s:97090  .debug_str:000000000002e125 .LASF3419
     /tmp/ccYIdjbY.s:103810  .debug_str:0000000000049e3c .LASF3420
     /tmp/ccYIdjbY.s:101880  .debug_str:0000000000041a9a .LASF3421
     /tmp/ccYIdjbY.s:101152  .debug_str:000000000003e9e6 .LASF3422
     /tmp/ccYIdjbY.s:97360  .debug_str:000000000002f33f .LASF3423
     /tmp/ccYIdjbY.s:89154  .debug_str:000000000000db50 .LASF3424
     /tmp/ccYIdjbY.s:99464  .debug_str:000000000003786b .LASF3425
     /tmp/ccYIdjbY.s:95824  .debug_str:0000000000028cfe .LASF3426
     /tmp/ccYIdjbY.s:95796  .debug_str:0000000000028b73 .LASF3427
     /tmp/ccYIdjbY.s:97338  .debug_str:000000000002f185 .LASF3428
     /tmp/ccYIdjbY.s:87716  .debug_str:0000000000007975 .LASF3429
     /tmp/ccYIdjbY.s:93190  .debug_str:000000000001e28a .LASF3430
     /tmp/ccYIdjbY.s:87028  .debug_str:0000000000004b9e .LASF3431
     /tmp/ccYIdjbY.s:99434  .debug_str:000000000003762b .LASF3432
     /tmp/ccYIdjbY.s:103888  .debug_str:000000000004a3a1 .LASF3433
     /tmp/ccYIdjbY.s:99120  .debug_str:0000000000036568 .LASF3434
     /tmp/ccYIdjbY.s:97264  .debug_str:000000000002ed1c .LASF3435
     /tmp/ccYIdjbY.s:91764  .debug_str:0000000000017fc9 .LASF3436
     /tmp/ccYIdjbY.s:93728  .debug_str:0000000000020787 .LASF3437
     /tmp/ccYIdjbY.s:98600  .debug_str:00000000000346db .LASF3438
     /tmp/ccYIdjbY.s:99370  .debug_str:0000000000037230 .LASF3439
     /tmp/ccYIdjbY.s:86836  .debug_str:0000000000003ddc .LASF3440
     /tmp/ccYIdjbY.s:101454  .debug_str:000000000003fe4a .LASF3441
     /tmp/ccYIdjbY.s:95544  .debug_str:0000000000027b2d .LASF3442
     /tmp/ccYIdjbY.s:95386  .debug_str:000000000002719c .LASF3443
     /tmp/ccYIdjbY.s:102526  .debug_str:000000000004447f .LASF3444
     /tmp/ccYIdjbY.s:103972  .debug_str:000000000004a9bd .LASF3445
     /tmp/ccYIdjbY.s:88630  .debug_str:000000000000b96b .LASF3446
     /tmp/ccYIdjbY.s:102926  .debug_str:0000000000045f49 .LASF3447
     /tmp/ccYIdjbY.s:96100  .debug_str:0000000000029f83 .LASF3448
     /tmp/ccYIdjbY.s:88384  .debug_str:000000000000a778 .LASF3449
     /tmp/ccYIdjbY.s:97122  .debug_str:000000000002e39f .LASF3450
     /tmp/ccYIdjbY.s:104202  .debug_str:000000000004b922 .LASF3451
     /tmp/ccYIdjbY.s:92462  .debug_str:000000000001b0da .LASF3452
     /tmp/ccYIdjbY.s:94892  .debug_str:00000000000250ac .LASF3453
     /tmp/ccYIdjbY.s:89038  .debug_str:000000000000d3a6 .LASF3454
     /tmp/ccYIdjbY.s:90850  .debug_str:000000000001436e .LASF3455
     /tmp/ccYIdjbY.s:93558  .debug_str:000000000001fcb0 .LASF3456
     /tmp/ccYIdjbY.s:93540  .debug_str:000000000001fb3a .LASF3457
     /tmp/ccYIdjbY.s:93796  .debug_str:0000000000020bf9 .LASF3458
     /tmp/ccYIdjbY.s:86022  .debug_str:00000000000005be .LASF3459
     /tmp/ccYIdjbY.s:95526  .debug_str:0000000000027a30 .LASF3460
     /tmp/ccYIdjbY.s:102142  .debug_str:0000000000042b1f .LASF3461
     /tmp/ccYIdjbY.s:101634  .debug_str:0000000000040a99 .LASF3462
     /tmp/ccYIdjbY.s:102354  .debug_str:0000000000043860 .LASF3463
     /tmp/ccYIdjbY.s:100060  .debug_str:000000000003a1bd .LASF3464
     /tmp/ccYIdjbY.s:98460  .debug_str:0000000000033da9 .LASF3465
     /tmp/ccYIdjbY.s:102930  .debug_str:0000000000045f6d .LASF3466
     /tmp/ccYIdjbY.s:98616  .debug_str:0000000000034808 .LASF3467
     /tmp/ccYIdjbY.s:103496  .debug_str:0000000000048684 .LASF3468
     /tmp/ccYIdjbY.s:88032  .debug_str:0000000000008f33 .LASF3469
     /tmp/ccYIdjbY.s:86822  .debug_str:0000000000003cc3 .LASF3470
     /tmp/ccYIdjbY.s:102670  .debug_str:0000000000044dbd .LASF3471
     /tmp/ccYIdjbY.s:91378  .debug_str:00000000000166ac .LASF3472
     /tmp/ccYIdjbY.s:101680  .debug_str:0000000000040dbf .LASF3473
     /tmp/ccYIdjbY.s:99400  .debug_str:00000000000373a4 .LASF3474
     /tmp/ccYIdjbY.s:91362  .debug_str:0000000000016564 .LASF3475
     /tmp/ccYIdjbY.s:97724  .debug_str:0000000000030c54 .LASF3476
     /tmp/ccYIdjbY.s:102616  .debug_str:0000000000044a31 .LASF3477
     /tmp/ccYIdjbY.s:88228  .debug_str:0000000000009ca9 .LASF3478
     /tmp/ccYIdjbY.s:88990  .debug_str:000000000000d12c .LASF3479
     /tmp/ccYIdjbY.s:101488  .debug_str:000000000004010c .LASF3480
     /tmp/ccYIdjbY.s:100324  .debug_str:000000000003b343 .LASF3481
     /tmp/ccYIdjbY.s:91504  .debug_str:0000000000016f47 .LASF3482
     /tmp/ccYIdjbY.s:97348  .debug_str:000000000002f256 .LASF3483
     /tmp/ccYIdjbY.s:104012  .debug_str:000000000004ac29 .LASF3484
     /tmp/ccYIdjbY.s:95118  .debug_str:0000000000025f89 .LASF3485
     /tmp/ccYIdjbY.s:96980  .debug_str:000000000002d991 .LASF3486
     /tmp/ccYIdjbY.s:96738  .debug_str:000000000002c938 .LASF3487
     /tmp/ccYIdjbY.s:87602  .debug_str:00000000000072c9 .LASF3488
     /tmp/ccYIdjbY.s:91448  .debug_str:0000000000016b9c .LASF3489
     /tmp/ccYIdjbY.s:101138  .debug_str:000000000003e8ed .LASF3490
     /tmp/ccYIdjbY.s:90018  .debug_str:0000000000010d58 .LASF3491
     /tmp/ccYIdjbY.s:90774  .debug_str:0000000000013e69 .LASF3492
     /tmp/ccYIdjbY.s:100594  .debug_str:000000000003c492 .LASF3493
     /tmp/ccYIdjbY.s:88872  .debug_str:000000000000c97c .LASF3494
     /tmp/ccYIdjbY.s:102538  .debug_str:0000000000044556 .LASF3495
     /tmp/ccYIdjbY.s:89130  .debug_str:000000000000d9d8 .LASF3496
     /tmp/ccYIdjbY.s:90602  .debug_str:0000000000013436 .LASF3497
     /tmp/ccYIdjbY.s:99544  .debug_str:0000000000037dbd .LASF3498
     /tmp/ccYIdjbY.s:94000  .debug_str:00000000000219f2 .LASF3499
     /tmp/ccYIdjbY.s:101452  .debug_str:000000000003fe36 .LASF3500
     /tmp/ccYIdjbY.s:97654  .debug_str:00000000000307bb .LASF3501
     /tmp/ccYIdjbY.s:94222  .debug_str:0000000000022915 .LASF3502
     /tmp/ccYIdjbY.s:96956  .debug_str:000000000002d7c0 .LASF3503
     /tmp/ccYIdjbY.s:90704  .debug_str:0000000000013a9d .LASF3504
     /tmp/ccYIdjbY.s:93996  .debug_str:00000000000219c9 .LASF3505
     /tmp/ccYIdjbY.s:102308  .debug_str:0000000000043574 .LASF3506
     /tmp/ccYIdjbY.s:96662  .debug_str:000000000002c3a8 .LASF3507
     /tmp/ccYIdjbY.s:89132  .debug_str:000000000000d9f5 .LASF3508
     /tmp/ccYIdjbY.s:104232  .debug_str:000000000004bb40 .LASF3509
     /tmp/ccYIdjbY.s:91410  .debug_str:00000000000168f9 .LASF3510
     /tmp/ccYIdjbY.s:96906  .debug_str:000000000002d4e6 .LASF3511
     /tmp/ccYIdjbY.s:97380  .debug_str:000000000002f49f .LASF3512
     /tmp/ccYIdjbY.s:89768  .debug_str:000000000000fd93 .LASF3513
     /tmp/ccYIdjbY.s:87562  .debug_str:000000000000703c .LASF3514
     /tmp/ccYIdjbY.s:97046  .debug_str:000000000002de4c .LASF3515
     /tmp/ccYIdjbY.s:101972  .debug_str:000000000004202c .LASF3516
     /tmp/ccYIdjbY.s:103974  .debug_str:000000000004a9d4 .LASF3517
     /tmp/ccYIdjbY.s:103492  .debug_str:0000000000048620 .LASF3518
     /tmp/ccYIdjbY.s:102096  .debug_str:0000000000042879 .LASF3519
     /tmp/ccYIdjbY.s:97340  .debug_str:000000000002f19c .LASF3520
     /tmp/ccYIdjbY.s:92796  .debug_str:000000000001c760 .LASF3521
     /tmp/ccYIdjbY.s:89528  .debug_str:000000000000f02a .LASF3522
     /tmp/ccYIdjbY.s:99952  .debug_str:0000000000039a73 .LASF3523
     /tmp/ccYIdjbY.s:93158  .debug_str:000000000001e0aa .LASF3524
     /tmp/ccYIdjbY.s:94140  .debug_str:000000000002232a .LASF3525
     /tmp/ccYIdjbY.s:92668  .debug_str:000000000001be63 .LASF3526
     /tmp/ccYIdjbY.s:94212  .debug_str:0000000000022822 .LASF3527
     /tmp/ccYIdjbY.s:86690  .debug_str:00000000000033da .LASF3528
     /tmp/ccYIdjbY.s:99948  .debug_str:0000000000039a48 .LASF3529
     /tmp/ccYIdjbY.s:97564  .debug_str:0000000000030160 .LASF3530
     /tmp/ccYIdjbY.s:102762  .debug_str:0000000000045477 .LASF3531
     /tmp/ccYIdjbY.s:99682  .debug_str:000000000003879b .LASF3532
     /tmp/ccYIdjbY.s:94666  .debug_str:0000000000024132 .LASF3533
     /tmp/ccYIdjbY.s:96120  .debug_str:000000000002a08b .LASF3534
     /tmp/ccYIdjbY.s:88748  .debug_str:000000000000c101 .LASF3535
     /tmp/ccYIdjbY.s:97736  .debug_str:0000000000030d46 .LASF3536
     /tmp/ccYIdjbY.s:97242  .debug_str:000000000002ebc7 .LASF3537
     /tmp/ccYIdjbY.s:96892  .debug_str:000000000002d402 .LASF3538
     /tmp/ccYIdjbY.s:95560  .debug_str:0000000000027c66 .LASF3539
     /tmp/ccYIdjbY.s:95198  .debug_str:0000000000026472 .LASF3540
     /tmp/ccYIdjbY.s:90278  .debug_str:0000000000011f3e .LASF3541
     /tmp/ccYIdjbY.s:94586  .debug_str:0000000000023d98 .LASF3542
     /tmp/ccYIdjbY.s:99376  .debug_str:0000000000037271 .LASF3543
     /tmp/ccYIdjbY.s:88492  .debug_str:000000000000af33 .LASF3544
     /tmp/ccYIdjbY.s:94418  .debug_str:0000000000023530 .LASF3545
     /tmp/ccYIdjbY.s:94924  .debug_str:00000000000252a7 .LASF3546
     /tmp/ccYIdjbY.s:101524  .debug_str:0000000000040373 .LASF3547
     /tmp/ccYIdjbY.s:102152  .debug_str:0000000000042ba0 .LASF3548
     /tmp/ccYIdjbY.s:90760  .debug_str:0000000000013dab .LASF3549
     /tmp/ccYIdjbY.s:98010  .debug_str:0000000000031f3b .LASF3550
     /tmp/ccYIdjbY.s:102662  .debug_str:0000000000044d49 .LASF3551
     /tmp/ccYIdjbY.s:91614  .debug_str:0000000000017689 .LASF3552
     /tmp/ccYIdjbY.s:92180  .debug_str:0000000000019d92 .LASF3553
     /tmp/ccYIdjbY.s:91606  .debug_str:000000000001761e .LASF3554
     /tmp/ccYIdjbY.s:94272  .debug_str:0000000000022c64 .LASF3555
     /tmp/ccYIdjbY.s:91920  .debug_str:0000000000018aa0 .LASF3556
     /tmp/ccYIdjbY.s:98490  .debug_str:0000000000033feb .LASF3557
     /tmp/ccYIdjbY.s:86124  .debug_str:0000000000000bf9 .LASF3558
     /tmp/ccYIdjbY.s:86266  .debug_str:000000000000157b .LASF3559
     /tmp/ccYIdjbY.s:96744  .debug_str:000000000002c9ca .LASF3560
     /tmp/ccYIdjbY.s:89726  .debug_str:000000000000fafe .LASF3561
     /tmp/ccYIdjbY.s:87356  .debug_str:00000000000061d6 .LASF3562
     /tmp/ccYIdjbY.s:101700  .debug_str:0000000000040ed0 .LASF3563
     /tmp/ccYIdjbY.s:91862  .debug_str:00000000000186a9 .LASF3564
     /tmp/ccYIdjbY.s:87170  .debug_str:0000000000005512 .LASF3565
     /tmp/ccYIdjbY.s:102732  .debug_str:000000000004522d .LASF3566
     /tmp/ccYIdjbY.s:91168  .debug_str:0000000000015809 .LASF3567
     /tmp/ccYIdjbY.s:103364  .debug_str:0000000000047d87 .LASF3568
     /tmp/ccYIdjbY.s:94066  .debug_str:0000000000021e76 .LASF3569
     /tmp/ccYIdjbY.s:102676  .debug_str:0000000000044e1b .LASF3570
     /tmp/ccYIdjbY.s:101622  .debug_str:00000000000409b9 .LASF3571
     /tmp/ccYIdjbY.s:103962  .debug_str:000000000004a923 .LASF3572
     /tmp/ccYIdjbY.s:98096  .debug_str:0000000000032583 .LASF3573
     /tmp/ccYIdjbY.s:89144  .debug_str:000000000000da8a .LASF3574
     /tmp/ccYIdjbY.s:96056  .debug_str:0000000000029c23 .LASF3575
     /tmp/ccYIdjbY.s:89370  .debug_str:000000000000e698 .LASF3576
     /tmp/ccYIdjbY.s:100980  .debug_str:000000000003dde2 .LASF3577
     /tmp/ccYIdjbY.s:86554  .debug_str:0000000000002a02 .LASF3578
     /tmp/ccYIdjbY.s:95918  .debug_str:00000000000292e6 .LASF3579
     /tmp/ccYIdjbY.s:102976  .debug_str:00000000000462ba .LASF3580
     /tmp/ccYIdjbY.s:88546  .debug_str:000000000000b35e .LASF3581
     /tmp/ccYIdjbY.s:96760  .debug_str:000000000002cab7 .LASF3582
     /tmp/ccYIdjbY.s:102390  .debug_str:0000000000043adb .LASF3583
     /tmp/ccYIdjbY.s:98000  .debug_str:0000000000031e95 .LASF3584
     /tmp/ccYIdjbY.s:91718  .debug_str:0000000000017c4d .LASF3585
     /tmp/ccYIdjbY.s:86158  .debug_str:0000000000000e68 .LASF3586
     /tmp/ccYIdjbY.s:102622  .debug_str:0000000000044a9e .LASF3587
     /tmp/ccYIdjbY.s:103130  .debug_str:0000000000046ca3 .LASF3588
     /tmp/ccYIdjbY.s:88678  .debug_str:000000000000bc46 .LASF3589
     /tmp/ccYIdjbY.s:90668  .debug_str:0000000000013834 .LASF3590
     /tmp/ccYIdjbY.s:87982  .debug_str:0000000000008ba2 .LASF3591
     /tmp/ccYIdjbY.s:99388  .debug_str:0000000000037305 .LASF3592
     /tmp/ccYIdjbY.s:90156  .debug_str:0000000000011731 .LASF3593
     /tmp/ccYIdjbY.s:89826  .debug_str:00000000000100a1 .LASF3594
     /tmp/ccYIdjbY.s:86776  .debug_str:00000000000039d8 .LASF3595
     /tmp/ccYIdjbY.s:92464  .debug_str:000000000001b0f1 .LASF3596
     /tmp/ccYIdjbY.s:93900  .debug_str:000000000002133f .LASF3597
     /tmp/ccYIdjbY.s:92306  .debug_str:000000000001a54a .LASF3598
     /tmp/ccYIdjbY.s:93964  .debug_str:0000000000021740 .LASF3599
     /tmp/ccYIdjbY.s:98524  .debug_str:0000000000034238 .LASF3600
     /tmp/ccYIdjbY.s:88684  .debug_str:000000000000bca2 .LASF3601
     /tmp/ccYIdjbY.s:104038  .debug_str:000000000004ae45 .LASF3602
     /tmp/ccYIdjbY.s:97260  .debug_str:000000000002ecec .LASF3603
     /tmp/ccYIdjbY.s:94602  .debug_str:0000000000023e97 .LASF3604
     /tmp/ccYIdjbY.s:100996  .debug_str:000000000003df50 .LASF3605
     /tmp/ccYIdjbY.s:87008  .debug_str:0000000000004a00 .LASF3606
     /tmp/ccYIdjbY.s:94896  .debug_str:00000000000250eb .LASF3607
     /tmp/ccYIdjbY.s:93144  .debug_str:000000000001dfd7 .LASF3608
     /tmp/ccYIdjbY.s:93116  .debug_str:000000000001ddb9 .LASF3609
     /tmp/ccYIdjbY.s:103436  .debug_str:000000000004827e .LASF3610
     /tmp/ccYIdjbY.s:98044  .debug_str:00000000000321ab .LASF3611
     /tmp/ccYIdjbY.s:97390  .debug_str:000000000002f53c .LASF3612
     /tmp/ccYIdjbY.s:91156  .debug_str:00000000000157ad .LASF3613
     /tmp/ccYIdjbY.s:87538  .debug_str:0000000000006ee6 .LASF3614
     /tmp/ccYIdjbY.s:92484  .debug_str:000000000001b215 .LASF3615
     /tmp/ccYIdjbY.s:92148  .debug_str:0000000000019b37 .LASF3616
     /tmp/ccYIdjbY.s:87654  .debug_str:00000000000075f3 .LASF3617
     /tmp/ccYIdjbY.s:91350  .debug_str:000000000001644d .LASF3618
     /tmp/ccYIdjbY.s:100332  .debug_str:000000000003b3a5 .LASF3619
     /tmp/ccYIdjbY.s:93178  .debug_str:000000000001e211 .LASF3620
     /tmp/ccYIdjbY.s:93930  .debug_str:000000000002154b .LASF3621
     /tmp/ccYIdjbY.s:92530  .debug_str:000000000001b5e6 .LASF3622
     /tmp/ccYIdjbY.s:94678  .debug_str:0000000000024224 .LASF3623
     /tmp/ccYIdjbY.s:95940  .debug_str:00000000000294e8 .LASF3624
     /tmp/ccYIdjbY.s:99844  .debug_str:000000000003927e .LASF3625
     /tmp/ccYIdjbY.s:102406  .debug_str:0000000000043bdb .LASF3626
     /tmp/ccYIdjbY.s:94756  .debug_str:00000000000246f8 .LASF3627
     /tmp/ccYIdjbY.s:96340  .debug_str:000000000002aeae .LASF3628
     /tmp/ccYIdjbY.s:101952  .debug_str:0000000000041ed9 .LASF3629
     /tmp/ccYIdjbY.s:94724  .debug_str:000000000002452b .LASF3630
     /tmp/ccYIdjbY.s:103606  .debug_str:0000000000048ed1 .LASF3631
     /tmp/ccYIdjbY.s:88780  .debug_str:000000000000c345 .LASF3632
     /tmp/ccYIdjbY.s:93992  .debug_str:000000000002196b .LASF3633
     /tmp/ccYIdjbY.s:92630  .debug_str:000000000001bbdf .LASF3634
     /tmp/ccYIdjbY.s:100034  .debug_str:0000000000039ffa .LASF3635
     /tmp/ccYIdjbY.s:102854  .debug_str:0000000000045ac0 .LASF3636
     /tmp/ccYIdjbY.s:93100  .debug_str:000000000001dcb6 .LASF3637
     /tmp/ccYIdjbY.s:92682  .debug_str:000000000001bf5f .LASF3638
     /tmp/ccYIdjbY.s:99722  .debug_str:0000000000038a0f .LASF3639
     /tmp/ccYIdjbY.s:101160  .debug_str:000000000003ea68 .LASF3640
     /tmp/ccYIdjbY.s:103936  .debug_str:000000000004a745 .LASF3641
     /tmp/ccYIdjbY.s:104042  .debug_str:000000000004ae72 .LASF3642
     /tmp/ccYIdjbY.s:88826  .debug_str:000000000000c605 .LASF3643
     /tmp/ccYIdjbY.s:101818  .debug_str:00000000000416b7 .LASF3644
     /tmp/ccYIdjbY.s:100866  .debug_str:000000000003d5d8 .LASF3645
     /tmp/ccYIdjbY.s:86390  .debug_str:0000000000001e1a .LASF3646
     /tmp/ccYIdjbY.s:87360  .debug_str:000000000000620d .LASF3647
     /tmp/ccYIdjbY.s:88394  .debug_str:000000000000a82b .LASF3648
     /tmp/ccYIdjbY.s:97796  .debug_str:0000000000031154 .LASF3649
     /tmp/ccYIdjbY.s:90888  .debug_str:000000000001461a .LASF3650
     /tmp/ccYIdjbY.s:96132  .debug_str:000000000002a163 .LASF3651
     /tmp/ccYIdjbY.s:102664  .debug_str:0000000000044d5f .LASF3652
     /tmp/ccYIdjbY.s:101830  .debug_str:0000000000041766 .LASF3653
     /tmp/ccYIdjbY.s:93088  .debug_str:000000000001dbc7 .LASF3654
     /tmp/ccYIdjbY.s:92552  .debug_str:000000000001b731 .LASF3655
     /tmp/ccYIdjbY.s:95938  .debug_str:00000000000294d6 .LASF3656
     /tmp/ccYIdjbY.s:102812  .debug_str:00000000000457ff .LASF3657
     /tmp/ccYIdjbY.s:86456  .debug_str:00000000000022df .LASF3658
     /tmp/ccYIdjbY.s:98118  .debug_str:0000000000032666 .LASF3659
     /tmp/ccYIdjbY.s:102296  .debug_str:0000000000043503 .LASF3660
     /tmp/ccYIdjbY.s:92628  .debug_str:000000000001bbd0 .LASF3661
     /tmp/ccYIdjbY.s:101628  .debug_str:0000000000040a46 .LASF3662
     /tmp/ccYIdjbY.s:88904  .debug_str:000000000000cb79 .LASF3663
     /tmp/ccYIdjbY.s:97814  .debug_str:00000000000312ad .LASF3664
     /tmp/ccYIdjbY.s:92842  .debug_str:000000000001caae .LASF3665
     /tmp/ccYIdjbY.s:92914  .debug_str:000000000001cff0 .LASF3666
     /tmp/ccYIdjbY.s:93794  .debug_str:0000000000020bea .LASF3667
     /tmp/ccYIdjbY.s:98530  .debug_str:0000000000034292 .LASF3668
     /tmp/ccYIdjbY.s:91698  .debug_str:0000000000017ba7 .LASF3669
     /tmp/ccYIdjbY.s:99126  .debug_str:00000000000365b5 .LASF3670
     /tmp/ccYIdjbY.s:93572  .debug_str:000000000001fda4 .LASF3671
     /tmp/ccYIdjbY.s:96218  .debug_str:000000000002a713 .LASF3672
     /tmp/ccYIdjbY.s:86342  .debug_str:0000000000001b1b .LASF3673
     /tmp/ccYIdjbY.s:97302  .debug_str:000000000002ef75 .LASF3674
     /tmp/ccYIdjbY.s:98080  .debug_str:0000000000032499 .LASF3675
     /tmp/ccYIdjbY.s:97862  .debug_str:00000000000315f2 .LASF3676
     /tmp/ccYIdjbY.s:103342  .debug_str:0000000000047bf2 .LASF3677
     /tmp/ccYIdjbY.s:89896  .debug_str:0000000000010599 .LASF3678
     /tmp/ccYIdjbY.s:88810  .debug_str:000000000000c55b .LASF3679
     /tmp/ccYIdjbY.s:88464  .debug_str:000000000000ad79 .LASF3680
     /tmp/ccYIdjbY.s:94792  .debug_str:000000000002494f .LASF3681
     /tmp/ccYIdjbY.s:92276  .debug_str:000000000001a3cc .LASF3682
     /tmp/ccYIdjbY.s:103154  .debug_str:0000000000046e19 .LASF3683
     /tmp/ccYIdjbY.s:99974  .debug_str:0000000000039ba6 .LASF3684
     /tmp/ccYIdjbY.s:86320  .debug_str:0000000000001955 .LASF3685
     /tmp/ccYIdjbY.s:87414  .debug_str:00000000000065d0 .LASF3686
     /tmp/ccYIdjbY.s:96680  .debug_str:000000000002c4ff .LASF3687
     /tmp/ccYIdjbY.s:86792  .debug_str:0000000000003ae3 .LASF3688
     /tmp/ccYIdjbY.s:102378  .debug_str:0000000000043a26 .LASF3689
     /tmp/ccYIdjbY.s:86622  .debug_str:0000000000002fdb .LASF3690
     /tmp/ccYIdjbY.s:93724  .debug_str:0000000000020744 .LASF3691
     /tmp/ccYIdjbY.s:88470  .debug_str:000000000000adc0 .LASF3692
     /tmp/ccYIdjbY.s:95316  .debug_str:0000000000026c7e .LASF3693
     /tmp/ccYIdjbY.s:95156  .debug_str:00000000000261ef .LASF3694
     /tmp/ccYIdjbY.s:99936  .debug_str:0000000000039973 .LASF3695
     /tmp/ccYIdjbY.s:91700  .debug_str:0000000000017bb7 .LASF3696
     /tmp/ccYIdjbY.s:87946  .debug_str:0000000000008967 .LASF3697
     /tmp/ccYIdjbY.s:92064  .debug_str:000000000001949c .LASF3698
     /tmp/ccYIdjbY.s:94424  .debug_str:0000000000023575 .LASF3699
     /tmp/ccYIdjbY.s:92670  .debug_str:000000000001be75 .LASF3700
     /tmp/ccYIdjbY.s:90322  .debug_str:000000000001222f .LASF3701
     /tmp/ccYIdjbY.s:94406  .debug_str:0000000000023480 .LASF3702
     /tmp/ccYIdjbY.s:95552  .debug_str:0000000000027bde .LASF3703
     /tmp/ccYIdjbY.s:103592  .debug_str:0000000000048da8 .LASF3704
     /tmp/ccYIdjbY.s:91266  .debug_str:0000000000015edd .LASF3705
     /tmp/ccYIdjbY.s:92680  .debug_str:000000000001bf49 .LASF3706
     /tmp/ccYIdjbY.s:96908  .debug_str:000000000002d501 .LASF3707
     /tmp/ccYIdjbY.s:96332  .debug_str:000000000002ae3b .LASF3708
     /tmp/ccYIdjbY.s:99512  .debug_str:0000000000037ba5 .LASF3709
     /tmp/ccYIdjbY.s:88976  .debug_str:000000000000d038 .LASF3710
     /tmp/ccYIdjbY.s:96972  .debug_str:000000000002d8e8 .LASF3711
     /tmp/ccYIdjbY.s:92570  .debug_str:000000000001b847 .LASF3712
     /tmp/ccYIdjbY.s:95302  .debug_str:0000000000026bc5 .LASF3713
     /tmp/ccYIdjbY.s:96606  .debug_str:000000000002c00a .LASF3714
     /tmp/ccYIdjbY.s:100582  .debug_str:000000000003c3ca .LASF3715
     /tmp/ccYIdjbY.s:101266  .debug_str:000000000003f1fa .LASF3716
     /tmp/ccYIdjbY.s:100722  .debug_str:000000000003cc6e .LASF3717
     /tmp/ccYIdjbY.s:95956  .debug_str:0000000000029613 .LASF3718
     /tmp/ccYIdjbY.s:99554  .debug_str:0000000000037e95 .LASF3719
     /tmp/ccYIdjbY.s:87282  .debug_str:0000000000005cf0 .LASF3720
     /tmp/ccYIdjbY.s:97910  .debug_str:0000000000031959 .LASF3721
     /tmp/ccYIdjbY.s:103232  .debug_str:0000000000047441 .LASF3722
     /tmp/ccYIdjbY.s:101162  .debug_str:000000000003ea79 .LASF3723
     /tmp/ccYIdjbY.s:91128  .debug_str:000000000001555b .LASF3724
     /tmp/ccYIdjbY.s:86084  .debug_str:00000000000009a7 .LASF3725
     /tmp/ccYIdjbY.s:88458  .debug_str:000000000000ad05 .LASF3726
     /tmp/ccYIdjbY.s:93820  .debug_str:0000000000020d93 .LASF3727
     /tmp/ccYIdjbY.s:102156  .debug_str:0000000000042bb8 .LASF3728
     /tmp/ccYIdjbY.s:98038  .debug_str:0000000000032128 .LASF3729
     /tmp/ccYIdjbY.s:97278  .debug_str:000000000002edd6 .LASF3730
     /tmp/ccYIdjbY.s:104294  .debug_str:000000000004bf3e .LASF3731
     /tmp/ccYIdjbY.s:98432  .debug_str:0000000000033c1a .LASF3732
     /tmp/ccYIdjbY.s:93628  .debug_str:00000000000201a9 .LASF3733
     /tmp/ccYIdjbY.s:93442  .debug_str:000000000001f4ce .LASF3734
     /tmp/ccYIdjbY.s:98766  .debug_str:00000000000350fa .LASF3735
     /tmp/ccYIdjbY.s:97432  .debug_str:000000000002f7b7 .LASF3736
     /tmp/ccYIdjbY.s:100150  .debug_str:000000000003a705 .LASF3737
     /tmp/ccYIdjbY.s:94670  .debug_str:0000000000024171 .LASF3738
     /tmp/ccYIdjbY.s:92954  .debug_str:000000000001d2c1 .LASF3739
     /tmp/ccYIdjbY.s:96874  .debug_str:000000000002d31b .LASF3740
     /tmp/ccYIdjbY.s:96810  .debug_str:000000000002cdec .LASF3741
     /tmp/ccYIdjbY.s:102470  .debug_str:0000000000044072 .LASF3742
     /tmp/ccYIdjbY.s:86524  .debug_str:000000000000284c .LASF3743
     /tmp/ccYIdjbY.s:94578  .debug_str:0000000000023d08 .LASF3744
     /tmp/ccYIdjbY.s:100690  .debug_str:000000000003ca96 .LASF3745
     /tmp/ccYIdjbY.s:97170  .debug_str:000000000002e73d .LASF3746
     /tmp/ccYIdjbY.s:96780  .debug_str:000000000002cba5 .LASF3747
     /tmp/ccYIdjbY.s:87354  .debug_str:00000000000061bb .LASF3748
     /tmp/ccYIdjbY.s:103682  .debug_str:0000000000049344 .LASF3749
     /tmp/ccYIdjbY.s:94386  .debug_str:000000000002333c .LASF3750
     /tmp/ccYIdjbY.s:88620  .debug_str:000000000000b8b6 .LASF3751
     /tmp/ccYIdjbY.s:88304  .debug_str:000000000000a23c .LASF3752
     /tmp/ccYIdjbY.s:91890  .debug_str:0000000000018884 .LASF3753
     /tmp/ccYIdjbY.s:97300  .debug_str:000000000002ef5f .LASF3754
     /tmp/ccYIdjbY.s:90390  .debug_str:0000000000012728 .LASF3755
     /tmp/ccYIdjbY.s:87774  .debug_str:0000000000007d50 .LASF3756
     /tmp/ccYIdjbY.s:90334  .debug_str:00000000000122c4 .LASF3757
     /tmp/ccYIdjbY.s:103820  .debug_str:0000000000049ef6 .LASF3758
     /tmp/ccYIdjbY.s:96526  .debug_str:000000000002ba86 .LASF3759
     /tmp/ccYIdjbY.s:101498  .debug_str:00000000000401d0 .LASF3760
     /tmp/ccYIdjbY.s:99368  .debug_str:000000000003721b .LASF3761
     /tmp/ccYIdjbY.s:91846  .debug_str:00000000000185a2 .LASF3762
     /tmp/ccYIdjbY.s:97588  .debug_str:0000000000030321 .LASF3763
     /tmp/ccYIdjbY.s:87626  .debug_str:0000000000007453 .LASF3764
     /tmp/ccYIdjbY.s:101514  .debug_str:00000000000402cf .LASF3765
     /tmp/ccYIdjbY.s:87396  .debug_str:000000000000649f .LASF3766
     /tmp/ccYIdjbY.s:91340  .debug_str:00000000000163b9 .LASF3767
     /tmp/ccYIdjbY.s:91960  .debug_str:0000000000018d92 .LASF3768
     /tmp/ccYIdjbY.s:96430  .debug_str:000000000002b3f4 .LASF3769
     /tmp/ccYIdjbY.s:91542  .debug_str:0000000000017172 .LASF3770
     /tmp/ccYIdjbY.s:95170  .debug_str:0000000000026303 .LASF3771
     /tmp/ccYIdjbY.s:87790  .debug_str:0000000000007e93 .LASF3772
     /tmp/ccYIdjbY.s:89262  .debug_str:000000000000e166 .LASF3773
     /tmp/ccYIdjbY.s:91682  .debug_str:0000000000017ac5 .LASF3774
     /tmp/ccYIdjbY.s:96380  .debug_str:000000000002b11b .LASF3775
     /tmp/ccYIdjbY.s:94750  .debug_str:000000000002469f .LASF3776
     /tmp/ccYIdjbY.s:94360  .debug_str:0000000000023228 .LASF3777
     /tmp/ccYIdjbY.s:87384  .debug_str:00000000000063d7 .LASF3778
     /tmp/ccYIdjbY.s:103322  .debug_str:0000000000047a96 .LASF3779
     /tmp/ccYIdjbY.s:89736  .debug_str:000000000000fbc2 .LASF3780
     /tmp/ccYIdjbY.s:102614  .debug_str:0000000000044a1e .LASF3781
     /tmp/ccYIdjbY.s:95800  .debug_str:0000000000028bab .LASF3782
     /tmp/ccYIdjbY.s:92300  .debug_str:000000000001a4e8 .LASF3783
     /tmp/ccYIdjbY.s:90776  .debug_str:0000000000013e8b .LASF3784
     /tmp/ccYIdjbY.s:93526  .debug_str:000000000001fa6c .LASF3785
     /tmp/ccYIdjbY.s:87706  .debug_str:000000000000790c .LASF3786
     /tmp/ccYIdjbY.s:96800  .debug_str:000000000002ccfe .LASF3787
     /tmp/ccYIdjbY.s:95856  .debug_str:0000000000028fa3 .LASF3788
     /tmp/ccYIdjbY.s:87298  .debug_str:0000000000005e30 .LASF3789
     /tmp/ccYIdjbY.s:91050  .debug_str:0000000000015117 .LASF3790
     /tmp/ccYIdjbY.s:101088  .debug_str:000000000003e58b .LASF3791
     /tmp/ccYIdjbY.s:103144  .debug_str:0000000000046d75 .LASF3792
     /tmp/ccYIdjbY.s:99692  .debug_str:0000000000038836 .LASF3793
     /tmp/ccYIdjbY.s:95528  .debug_str:0000000000027a45 .LASF3794
     /tmp/ccYIdjbY.s:97098  .debug_str:000000000002e1d2 .LASF3795
     /tmp/ccYIdjbY.s:100740  .debug_str:000000000003cd7b .LASF3796
     /tmp/ccYIdjbY.s:103928  .debug_str:000000000004a6d3 .LASF3797
     /tmp/ccYIdjbY.s:89138  .debug_str:000000000000da59 .LASF3798
     /tmp/ccYIdjbY.s:90854  .debug_str:00000000000143dc .LASF3799
     /tmp/ccYIdjbY.s:96338  .debug_str:000000000002ae96 .LASF3800
     /tmp/ccYIdjbY.s:94142  .debug_str:000000000002233c .LASF3801
     /tmp/ccYIdjbY.s:94500  .debug_str:0000000000023939 .LASF3802
     /tmp/ccYIdjbY.s:94176  .debug_str:00000000000225a2 .LASF3803
     /tmp/ccYIdjbY.s:95218  .debug_str:00000000000265a6 .LASF3804
     /tmp/ccYIdjbY.s:99804  .debug_str:0000000000038fb3 .LASF3805
     /tmp/ccYIdjbY.s:88424  .debug_str:000000000000aa5a .LASF3806
     /tmp/ccYIdjbY.s:103274  .debug_str:0000000000047763 .LASF3807
     /tmp/ccYIdjbY.s:98260  .debug_str:0000000000033062 .LASF3808
     /tmp/ccYIdjbY.s:104288  .debug_str:000000000004bee1 .LASF3809
     /tmp/ccYIdjbY.s:86582  .debug_str:0000000000002c4f .LASF3810
     /tmp/ccYIdjbY.s:99556  .debug_str:0000000000037eae .LASF3811
     /tmp/ccYIdjbY.s:95174  .debug_str:0000000000026330 .LASF3812
     /tmp/ccYIdjbY.s:87836  .debug_str:00000000000081b7 .LASF3813
     /tmp/ccYIdjbY.s:101926  .debug_str:0000000000041d1e .LASF3814
     /tmp/ccYIdjbY.s:90772  .debug_str:0000000000013e51 .LASF3815
     /tmp/ccYIdjbY.s:103108  .debug_str:0000000000046b10 .LASF3816
     /tmp/ccYIdjbY.s:102702  .debug_str:0000000000045001 .LASF3817
     /tmp/ccYIdjbY.s:93598  .debug_str:000000000001ff86 .LASF3818
     /tmp/ccYIdjbY.s:86658  .debug_str:0000000000003207 .LASF3819
     /tmp/ccYIdjbY.s:98366  .debug_str:00000000000337cb .LASF3820
     /tmp/ccYIdjbY.s:86034  .debug_str:0000000000000695 .LASF3821
     /tmp/ccYIdjbY.s:104164  .debug_str:000000000004b6b4 .LASF3822
     /tmp/ccYIdjbY.s:86374  .debug_str:0000000000001cfe .LASF3823
     /tmp/ccYIdjbY.s:96620  .debug_str:000000000002c0b3 .LASF3824
     /tmp/ccYIdjbY.s:104254  .debug_str:000000000004bc7e .LASF3825
     /tmp/ccYIdjbY.s:103412  .debug_str:00000000000480d1 .LASF3826
     /tmp/ccYIdjbY.s:88400  .debug_str:000000000000a863 .LASF3827
     /tmp/ccYIdjbY.s:102394  .debug_str:0000000000043b05 .LASF3828
     /tmp/ccYIdjbY.s:92752  .debug_str:000000000001c3fa .LASF3829
     /tmp/ccYIdjbY.s:103688  .debug_str:00000000000493ec .LASF3830
     /tmp/ccYIdjbY.s:95342  .debug_str:0000000000026e2b .LASF3831
     /tmp/ccYIdjbY.s:95088  .debug_str:0000000000025d60 .LASF3832
     /tmp/ccYIdjbY.s:88328  .debug_str:000000000000a38b .LASF3833
     /tmp/ccYIdjbY.s:88034  .debug_str:0000000000008f45 .LASF3834
     /tmp/ccYIdjbY.s:101924  .debug_str:0000000000041d07 .LASF3835
     /tmp/ccYIdjbY.s:88618  .debug_str:000000000000b89e .LASF3836
     /tmp/ccYIdjbY.s:91636  .debug_str:0000000000017822 .LASF3837
     /tmp/ccYIdjbY.s:94528  .debug_str:0000000000023b1e .LASF3838
     /tmp/ccYIdjbY.s:93054  .debug_str:000000000001d8bb .LASF3839
     /tmp/ccYIdjbY.s:86976  .debug_str:00000000000047d6 .LASF3840
     /tmp/ccYIdjbY.s:86786  .debug_str:0000000000003a7d .LASF3841
     /tmp/ccYIdjbY.s:91736  .debug_str:0000000000017dba .LASF3842
     /tmp/ccYIdjbY.s:88880  .debug_str:000000000000ca0d .LASF3843
     /tmp/ccYIdjbY.s:95762  .debug_str:000000000002891c .LASF3844
     /tmp/ccYIdjbY.s:92614  .debug_str:000000000001bb2a .LASF3845
     /tmp/ccYIdjbY.s:102352  .debug_str:0000000000043848 .LASF3846
     /tmp/ccYIdjbY.s:96042  .debug_str:0000000000029b47 .LASF3847
     /tmp/ccYIdjbY.s:87116  .debug_str:000000000000510a .LASF3848
     /tmp/ccYIdjbY.s:99248  .debug_str:0000000000036b34 .LASF3849
     /tmp/ccYIdjbY.s:100076  .debug_str:000000000003a287 .LASF3850
     /tmp/ccYIdjbY.s:89446  .debug_str:000000000000eaf1 .LASF3851
     /tmp/ccYIdjbY.s:93460  .debug_str:000000000001f5e9 .LASF3852
     /tmp/ccYIdjbY.s:86736  .debug_str:00000000000036d3 .LASF3853
     /tmp/ccYIdjbY.s:99412  .debug_str:000000000003748b .LASF3854
     /tmp/ccYIdjbY.s:99724  .debug_str:0000000000038a22 .LASF3855
     /tmp/ccYIdjbY.s:100560  .debug_str:000000000003c27c .LASF3856
     /tmp/ccYIdjbY.s:97938  .debug_str:0000000000031ad5 .LASF3857
     /tmp/ccYIdjbY.s:102288  .debug_str:0000000000043489 .LASF3858
     /tmp/ccYIdjbY.s:96146  .debug_str:000000000002a230 .LASF3859
     /tmp/ccYIdjbY.s:93148  .debug_str:000000000001e00e .LASF3860
     /tmp/ccYIdjbY.s:90134  .debug_str:000000000001157c .LASF3861
     /tmp/ccYIdjbY.s:88350  .debug_str:000000000000a52e .LASF3862
     /tmp/ccYIdjbY.s:87126  .debug_str:00000000000051ab .LASF3863
     /tmp/ccYIdjbY.s:88086  .debug_str:0000000000009321 .LASF3864
     /tmp/ccYIdjbY.s:99198  .debug_str:0000000000036922 .LASF3865
     /tmp/ccYIdjbY.s:96724  .debug_str:000000000002c86a .LASF3866
     /tmp/ccYIdjbY.s:88834  .debug_str:000000000000c696 .LASF3867
     /tmp/ccYIdjbY.s:100306  .debug_str:000000000003b1db .LASF3868
     /tmp/ccYIdjbY.s:95382  .debug_str:000000000002715d .LASF3869
     /tmp/ccYIdjbY.s:94116  .debug_str:00000000000221b1 .LASF3870
     /tmp/ccYIdjbY.s:104162  .debug_str:000000000004b69e .LASF3871
     /tmp/ccYIdjbY.s:94816  .debug_str:0000000000024b2d .LASF3872
     /tmp/ccYIdjbY.s:88326  .debug_str:000000000000a375 .LASF3873
     /tmp/ccYIdjbY.s:98492  .debug_str:0000000000033ff7 .LASF3874
     /tmp/ccYIdjbY.s:103796  .debug_str:0000000000049d36 .LASF3875
     /tmp/ccYIdjbY.s:99348  .debug_str:0000000000037111 .LASF3876
     /tmp/ccYIdjbY.s:90274  .debug_str:0000000000011ee3 .LASF3877
     /tmp/ccYIdjbY.s:100500  .debug_str:000000000003be21 .LASF3878
     /tmp/ccYIdjbY.s:86234  .debug_str:00000000000013a6 .LASF3879
     /tmp/ccYIdjbY.s:98226  .debug_str:0000000000032e02 .LASF3880
     /tmp/ccYIdjbY.s:87388  .debug_str:00000000000063f7 .LASF3881
     /tmp/ccYIdjbY.s:90598  .debug_str:0000000000013414 .LASF3882
     /tmp/ccYIdjbY.s:89366  .debug_str:000000000000e668 .LASF3883
     /tmp/ccYIdjbY.s:91984  .debug_str:0000000000018ec8 .LASF3884
     /tmp/ccYIdjbY.s:87986  .debug_str:0000000000008bd3 .LASF3885
     /tmp/ccYIdjbY.s:90302  .debug_str:00000000000120cd .LASF3886
     /tmp/ccYIdjbY.s:103872  .debug_str:000000000004a261 .LASF3887
     /tmp/ccYIdjbY.s:92912  .debug_str:000000000001cfd6 .LASF3888
     /tmp/ccYIdjbY.s:101248  .debug_str:000000000003f0e8 .LASF3889
     /tmp/ccYIdjbY.s:94340  .debug_str:0000000000023094 .LASF3890
     /tmp/ccYIdjbY.s:93508  .debug_str:000000000001f913 .LASF3891
     /tmp/ccYIdjbY.s:101878  .debug_str:0000000000041a80 .LASF3892
     /tmp/ccYIdjbY.s:99938  .debug_str:0000000000039987 .LASF3893
     /tmp/ccYIdjbY.s:90664  .debug_str:000000000001380f .LASF3894
     /tmp/ccYIdjbY.s:94950  .debug_str:0000000000025443 .LASF3895
     /tmp/ccYIdjbY.s:103448  .debug_str:000000000004832f .LASF3896
     /tmp/ccYIdjbY.s:100092  .debug_str:000000000003a384 .LASF3897
     /tmp/ccYIdjbY.s:90184  .debug_str:00000000000118ef .LASF3898
     /tmp/ccYIdjbY.s:101784  .debug_str:0000000000041493 .LASF3899
     /tmp/ccYIdjbY.s:93222  .debug_str:000000000001e49f .LASF3900
     /tmp/ccYIdjbY.s:103724  .debug_str:00000000000496f1 .LASF3901
     /tmp/ccYIdjbY.s:92198  .debug_str:0000000000019eac .LASF3902
     /tmp/ccYIdjbY.s:101276  .debug_str:000000000003f285 .LASF3903
     /tmp/ccYIdjbY.s:90002  .debug_str:0000000000010bd2 .LASF3904
     /tmp/ccYIdjbY.s:95816  .debug_str:0000000000028c78 .LASF3905
     /tmp/ccYIdjbY.s:103038  .debug_str:0000000000046683 .LASF3906
     /tmp/ccYIdjbY.s:96570  .debug_str:000000000002bd47 .LASF3907
     /tmp/ccYIdjbY.s:89354  .debug_str:000000000000e591 .LASF3908
     /tmp/ccYIdjbY.s:96360  .debug_str:000000000002afdb .LASF3909
     /tmp/ccYIdjbY.s:89776  .debug_str:000000000000fe1d .LASF3910
     /tmp/ccYIdjbY.s:102186  .debug_str:0000000000042d8d .LASF3911
     /tmp/ccYIdjbY.s:89976  .debug_str:0000000000010a52 .LASF3912
     /tmp/ccYIdjbY.s:86376  .debug_str:0000000000001d15 .LASF3913
     /tmp/ccYIdjbY.s:89660  .debug_str:000000000000f742 .LASF3914
     /tmp/ccYIdjbY.s:104250  .debug_str:000000000004bc59 .LASF3915
     /tmp/ccYIdjbY.s:97972  .debug_str:0000000000031d0a .LASF3916
     /tmp/ccYIdjbY.s:103878  .debug_str:000000000004a2db .LASF3917
     /tmp/ccYIdjbY.s:86214  .debug_str:0000000000001240 .LASF3918
     /tmp/ccYIdjbY.s:101434  .debug_str:000000000003fcc8 .LASF3919
     /tmp/ccYIdjbY.s:102624  .debug_str:0000000000044aae .LASF3920
     /tmp/ccYIdjbY.s:91458  .debug_str:0000000000016c9b .LASF3921
     /tmp/ccYIdjbY.s:93812  .debug_str:0000000000020d20 .LASF3922
     /tmp/ccYIdjbY.s:92076  .debug_str:0000000000019565 .LASF3923
     /tmp/ccYIdjbY.s:103116  .debug_str:0000000000046ba6 .LASF3924
     /tmp/ccYIdjbY.s:100066  .debug_str:000000000003a208 .LASF3925
     /tmp/ccYIdjbY.s:100042  .debug_str:000000000003a067 .LASF3926
     /tmp/ccYIdjbY.s:91484  .debug_str:0000000000016e52 .LASF3927
     /tmp/ccYIdjbY.s:99402  .debug_str:00000000000373b6 .LASF3928
     /tmp/ccYIdjbY.s:95280  .debug_str:0000000000026a01 .LASF3929
     /tmp/ccYIdjbY.s:96550  .debug_str:000000000002bbf3 .LASF3930
     /tmp/ccYIdjbY.s:97450  .debug_str:000000000002f8e1 .LASF3931
     /tmp/ccYIdjbY.s:104274  .debug_str:000000000004be26 .LASF3932
     /tmp/ccYIdjbY.s:100170  .debug_str:000000000003a86d .LASF3933
     /tmp/ccYIdjbY.s:103100  .debug_str:0000000000046a76 .LASF3934
     /tmp/ccYIdjbY.s:89978  .debug_str:0000000000010a6c .LASF3935
     /tmp/ccYIdjbY.s:96638  .debug_str:000000000002c1fb .LASF3936
     /tmp/ccYIdjbY.s:92678  .debug_str:000000000001bf30 .LASF3937
     /tmp/ccYIdjbY.s:95192  .debug_str:0000000000026422 .LASF3938
     /tmp/ccYIdjbY.s:98444  .debug_str:0000000000033cce .LASF3939
     /tmp/ccYIdjbY.s:103650  .debug_str:000000000004915e .LASF3940
     /tmp/ccYIdjbY.s:98314  .debug_str:0000000000033475 .LASF3941
     /tmp/ccYIdjbY.s:103868  .debug_str:000000000004a247 .LASF3942
     /tmp/ccYIdjbY.s:95702  .debug_str:0000000000028622 .LASF3943
     /tmp/ccYIdjbY.s:103032  .debug_str:000000000004662c .LASF3944
     /tmp/ccYIdjbY.s:88102  .debug_str:000000000000947e .LASF3945
     /tmp/ccYIdjbY.s:95464  .debug_str:000000000002763b .LASF3946
     /tmp/ccYIdjbY.s:98046  .debug_str:00000000000321bd .LASF3947
     /tmp/ccYIdjbY.s:100106  .debug_str:000000000003a43a .LASF3948
     /tmp/ccYIdjbY.s:93696  .debug_str:000000000002061a .LASF3949
     /tmp/ccYIdjbY.s:87276  .debug_str:0000000000005c98 .LASF3950
     /tmp/ccYIdjbY.s:102588  .debug_str:0000000000044870 .LASF3951
     /tmp/ccYIdjbY.s:93720  .debug_str:000000000002071c .LASF3952
     /tmp/ccYIdjbY.s:103134  .debug_str:0000000000046ccd .LASF3953
     /tmp/ccYIdjbY.s:98198  .debug_str:0000000000032c14 .LASF3954
     /tmp/ccYIdjbY.s:103942  .debug_str:000000000004a790 .LASF3955
     /tmp/ccYIdjbY.s:101372  .debug_str:000000000003f884 .LASF3956
     /tmp/ccYIdjbY.s:100326  .debug_str:000000000003b35b .LASF3957
     /tmp/ccYIdjbY.s:86438  .debug_str:00000000000021e9 .LASF3958
     /tmp/ccYIdjbY.s:102148  .debug_str:0000000000042b66 .LASF3959
     /tmp/ccYIdjbY.s:92694  .debug_str:000000000001bff4 .LASF3960
     /tmp/ccYIdjbY.s:91476  .debug_str:0000000000016dd7 .LASF3961
     /tmp/ccYIdjbY.s:87468  .debug_str:00000000000069f2 .LASF3962
     /tmp/ccYIdjbY.s:98250  .debug_str:0000000000032fd4 .LASF3963
     /tmp/ccYIdjbY.s:102234  .debug_str:0000000000043075 .LASF3964
     /tmp/ccYIdjbY.s:99874  .debug_str:00000000000394db .LASF3965
     /tmp/ccYIdjbY.s:94996  .debug_str:00000000000256b2 .LASF3966
     /tmp/ccYIdjbY.s:99352  .debug_str:0000000000037147 .LASF3967
     /tmp/ccYIdjbY.s:96988  .debug_str:000000000002da43 .LASF3968
     /tmp/ccYIdjbY.s:98572  .debug_str:00000000000344eb .LASF3969
     /tmp/ccYIdjbY.s:102688  .debug_str:0000000000044f05 .LASF3970
     /tmp/ccYIdjbY.s:93722  .debug_str:000000000002072d .LASF3971
     /tmp/ccYIdjbY.s:102454  .debug_str:0000000000043f95 .LASF3972
     /tmp/ccYIdjbY.s:85982  .debug_str:00000000000002b9 .LASF3973
     /tmp/ccYIdjbY.s:88528  .debug_str:000000000000b1c9 .LASF3974
     /tmp/ccYIdjbY.s:100384  .debug_str:000000000003b70d .LASF3975
     /tmp/ccYIdjbY.s:93768  .debug_str:0000000000020ad0 .LASF3976
     /tmp/ccYIdjbY.s:103060  .debug_str:000000000004681f .LASF3977
     /tmp/ccYIdjbY.s:90752  .debug_str:0000000000013d5e .LASF3978
     /tmp/ccYIdjbY.s:90456  .debug_str:0000000000012b17 .LASF3979
     /tmp/ccYIdjbY.s:99330  .debug_str:0000000000036fc8 .LASF3980
     /tmp/ccYIdjbY.s:86670  .debug_str:00000000000032e8 .LASF3981
     /tmp/ccYIdjbY.s:100478  .debug_str:000000000003bc79 .LASF3982
     /tmp/ccYIdjbY.s:90214  .debug_str:0000000000011b15 .LASF3983
     /tmp/ccYIdjbY.s:91610  .debug_str:0000000000017658 .LASF3984
     /tmp/ccYIdjbY.s:98808  .debug_str:0000000000035416 .LASF3985
     /tmp/ccYIdjbY.s:88822  .debug_str:000000000000c5e0 .LASF3986
     /tmp/ccYIdjbY.s:96220  .debug_str:000000000002a724 .LASF3987
     /tmp/ccYIdjbY.s:96432  .debug_str:000000000002b409 .LASF3988
     /tmp/ccYIdjbY.s:101590  .debug_str:0000000000040796 .LASF3989
     /tmp/ccYIdjbY.s:95194  .debug_str:000000000002643d .LASF3990
     /tmp/ccYIdjbY.s:91970  .debug_str:0000000000018df0 .LASF3991
     /tmp/ccYIdjbY.s:86686  .debug_str:00000000000033ad .LASF3992
     /tmp/ccYIdjbY.s:95022  .debug_str:000000000002587f .LASF3993
     /tmp/ccYIdjbY.s:86574  .debug_str:0000000000002bb3 .LASF3994
     /tmp/ccYIdjbY.s:96888  .debug_str:000000000002d3e3 .LASF3995
     /tmp/ccYIdjbY.s:100414  .debug_str:000000000003b934 .LASF3996
     /tmp/ccYIdjbY.s:90186  .debug_str:0000000000011909 .LASF3997
     /tmp/ccYIdjbY.s:90682  .debug_str:0000000000013934 .LASF3998
     /tmp/ccYIdjbY.s:98712  .debug_str:0000000000034e2a .LASF3999
     /tmp/ccYIdjbY.s:94700  .debug_str:00000000000243c7 .LASF4000
     /tmp/ccYIdjbY.s:103584  .debug_str:0000000000048d26 .LASF4001
     /tmp/ccYIdjbY.s:95584  .debug_str:0000000000027e24 .LASF4002
     /tmp/ccYIdjbY.s:103328  .debug_str:0000000000047b23 .LASF4003
     /tmp/ccYIdjbY.s:95350  .debug_str:0000000000026eca .LASF4004
     /tmp/ccYIdjbY.s:90266  .debug_str:0000000000011e80 .LASF4005
     /tmp/ccYIdjbY.s:102108  .debug_str:0000000000042936 .LASF4006
     /tmp/ccYIdjbY.s:99714  .debug_str:0000000000038958 .LASF4007
     /tmp/ccYIdjbY.s:102902  .debug_str:0000000000045dff .LASF4008
     /tmp/ccYIdjbY.s:98394  .debug_str:000000000003395e .LASF4009
     /tmp/ccYIdjbY.s:99372  .debug_str:0000000000037250 .LASF4010
     /tmp/ccYIdjbY.s:88624  .debug_str:000000000000b8ec .LASF4011
     /tmp/ccYIdjbY.s:100788  .debug_str:000000000003d0b3 .LASF4012
     /tmp/ccYIdjbY.s:98550  .debug_str:00000000000343a0 .LASF4013
     /tmp/ccYIdjbY.s:93038  .debug_str:000000000001d7a9 .LASF4014
     /tmp/ccYIdjbY.s:103612  .debug_str:0000000000048f1a .LASF4015
     /tmp/ccYIdjbY.s:98504  .debug_str:00000000000340bb .LASF4016
     /tmp/ccYIdjbY.s:91058  .debug_str:0000000000015160 .LASF4017
     /tmp/ccYIdjbY.s:89494  .debug_str:000000000000ed48 .LASF4018
     /tmp/ccYIdjbY.s:96368  .debug_str:000000000002b023 .LASF4019
     /tmp/ccYIdjbY.s:102818  .debug_str:000000000004588c .LASF4020
     /tmp/ccYIdjbY.s:89430  .debug_str:000000000000e9fc .LASF4021
     /tmp/ccYIdjbY.s:95650  .debug_str:000000000002824a .LASF4022
     /tmp/ccYIdjbY.s:100160  .debug_str:000000000003a7a6 .LASF4023
     /tmp/ccYIdjbY.s:86264  .debug_str:0000000000001567 .LASF4024
     /tmp/ccYIdjbY.s:86842  .debug_str:0000000000003e32 .LASF4025
     /tmp/ccYIdjbY.s:96372  .debug_str:000000000002b075 .LASF4026
     /tmp/ccYIdjbY.s:96768  .debug_str:000000000002cb02 .LASF4027
     /tmp/ccYIdjbY.s:88682  .debug_str:000000000000bc8f .LASF4028
     /tmp/ccYIdjbY.s:100932  .debug_str:000000000003da68 .LASF4029
     /tmp/ccYIdjbY.s:89586  .debug_str:000000000000f3d4 .LASF4030
     /tmp/ccYIdjbY.s:97318  .debug_str:000000000002f014 .LASF4031
     /tmp/ccYIdjbY.s:103526  .debug_str:000000000004889d .LASF4032
     /tmp/ccYIdjbY.s:100072  .debug_str:000000000003a246 .LASF4033
     /tmp/ccYIdjbY.s:90032  .debug_str:0000000000010e39 .LASF4034
     /tmp/ccYIdjbY.s:101852  .debug_str:00000000000418b3 .LASF4035
     /tmp/ccYIdjbY.s:100126  .debug_str:000000000003a54f .LASF4036
     /tmp/ccYIdjbY.s:99194  .debug_str:0000000000036904 .LASF4037
     /tmp/ccYIdjbY.s:93804  .debug_str:0000000000020cc3 .LASF4038
     /tmp/ccYIdjbY.s:96774  .debug_str:000000000002cb6e .LASF4039
     /tmp/ccYIdjbY.s:89666  .debug_str:000000000000f7a8 .LASF4040
     /tmp/ccYIdjbY.s:93180  .debug_str:000000000001e223 .LASF4041
     /tmp/ccYIdjbY.s:88820  .debug_str:000000000000c5cc .LASF4042
     /tmp/ccYIdjbY.s:88700  .debug_str:000000000000bdad .LASF4043
     /tmp/ccYIdjbY.s:89300  .debug_str:000000000000e360 .LASF4044
     /tmp/ccYIdjbY.s:98242  .debug_str:0000000000032f7b .LASF4045
     /tmp/ccYIdjbY.s:90910  .debug_str:000000000001476d .LASF4046
     /tmp/ccYIdjbY.s:87580  .debug_str:000000000000710e .LASF4047
     /tmp/ccYIdjbY.s:102978  .debug_str:00000000000462d2 .LASF4048
     /tmp/ccYIdjbY.s:95494  .debug_str:0000000000027837 .LASF4049
     /tmp/ccYIdjbY.s:97702  .debug_str:0000000000030ad8 .LASF4050
     /tmp/ccYIdjbY.s:88044  .debug_str:0000000000008fda .LASF4051
     /tmp/ccYIdjbY.s:100974  .debug_str:000000000003dd9f .LASF4052
     /tmp/ccYIdjbY.s:96642  .debug_str:000000000002c222 .LASF4053
     /tmp/ccYIdjbY.s:91218  .debug_str:0000000000015b7e .LASF4054
     /tmp/ccYIdjbY.s:103026  .debug_str:00000000000465b4 .LASF4055
     /tmp/ccYIdjbY.s:101066  .debug_str:000000000003e41e .LASF4056
     /tmp/ccYIdjbY.s:95882  .debug_str:00000000000290ec .LASF4057
     /tmp/ccYIdjbY.s:104062  .debug_str:000000000004afa7 .LASF4058
     /tmp/ccYIdjbY.s:102640  .debug_str:0000000000044bd7 .LASF4059
     /tmp/ccYIdjbY.s:94982  .debug_str:00000000000255af .LASF4060
     /tmp/ccYIdjbY.s:94390  .debug_str:000000000002336d .LASF4061
     /tmp/ccYIdjbY.s:92154  .debug_str:0000000000019bbc .LASF4062
     /tmp/ccYIdjbY.s:92948  .debug_str:000000000001d232 .LASF4063
     /tmp/ccYIdjbY.s:92430  .debug_str:000000000001ae52 .LASF4064
     /tmp/ccYIdjbY.s:97988  .debug_str:0000000000031e31 .LASF4065
     /tmp/ccYIdjbY.s:96684  .debug_str:000000000002c530 .LASF4066
     /tmp/ccYIdjbY.s:97086  .debug_str:000000000002e0e1 .LASF4067
     /tmp/ccYIdjbY.s:99880  .debug_str:0000000000039566 .LASF4068
     /tmp/ccYIdjbY.s:100336  .debug_str:000000000003b3e6 .LASF4069
     /tmp/ccYIdjbY.s:88622  .debug_str:000000000000b8d0 .LASF4070
     /tmp/ccYIdjbY.s:92098  .debug_str:0000000000019729 .LASF4071
     /tmp/ccYIdjbY.s:86590  .debug_str:0000000000002ce7 .LASF4072
     /tmp/ccYIdjbY.s:87964  .debug_str:0000000000008ab6 .LASF4073
     /tmp/ccYIdjbY.s:92050  .debug_str:00000000000193dc .LASF4074
     /tmp/ccYIdjbY.s:91490  .debug_str:0000000000016e8c .LASF4075
     /tmp/ccYIdjbY.s:103208  .debug_str:0000000000047282 .LASF4076
     /tmp/ccYIdjbY.s:91062  .debug_str:0000000000015193 .LASF4077
     /tmp/ccYIdjbY.s:89212  .debug_str:000000000000de61 .LASF4078
     /tmp/ccYIdjbY.s:92384  .debug_str:000000000001ab2a .LASF4079
     /tmp/ccYIdjbY.s:94926  .debug_str:00000000000252b4 .LASF4080
     /tmp/ccYIdjbY.s:93452  .debug_str:000000000001f58a .LASF4081
     /tmp/ccYIdjbY.s:94794  .debug_str:000000000002495e .LASF4082
     /tmp/ccYIdjbY.s:89040  .debug_str:000000000000d3c6 .LASF4083
     /tmp/ccYIdjbY.s:92174  .debug_str:0000000000019d37 .LASF4084
     /tmp/ccYIdjbY.s:100950  .debug_str:000000000003dba5 .LASF4085
     /tmp/ccYIdjbY.s:89856  .debug_str:000000000001034b .LASF4086
     /tmp/ccYIdjbY.s:92330  .debug_str:000000000001a722 .LASF4087
     /tmp/ccYIdjbY.s:95960  .debug_str:000000000002966e .LASF4088
     /tmp/ccYIdjbY.s:89800  .debug_str:000000000000fee4 .LASF4089
     /tmp/ccYIdjbY.s:99822  .debug_str:00000000000390de .LASF4090
     /tmp/ccYIdjbY.s:91498  .debug_str:0000000000016ee2 .LASF4091
     /tmp/ccYIdjbY.s:88124  .debug_str:0000000000009648 .LASF4092
     /tmp/ccYIdjbY.s:97080  .debug_str:000000000002e08a .LASF4093
     /tmp/ccYIdjbY.s:95202  .debug_str:0000000000026497 .LASF4094
     /tmp/ccYIdjbY.s:88568  .debug_str:000000000000b541 .LASF4095
     /tmp/ccYIdjbY.s:93588  .debug_str:000000000001fed7 .LASF4096
     /tmp/ccYIdjbY.s:92900  .debug_str:000000000001cf20 .LASF4097
     /tmp/ccYIdjbY.s:102546  .debug_str:00000000000445da .LASF4098
     /tmp/ccYIdjbY.s:102384  .debug_str:0000000000043a8a .LASF4099
     /tmp/ccYIdjbY.s:90332  .debug_str:00000000000122ab .LASF4100
     /tmp/ccYIdjbY.s:92902  .debug_str:000000000001cf3f .LASF4101
     /tmp/ccYIdjbY.s:89088  .debug_str:000000000000d707 .LASF4102
     /tmp/ccYIdjbY.s:94726  .debug_str:000000000002453d .LASF4103
     /tmp/ccYIdjbY.s:99854  .debug_str:0000000000039338 .LASF4104
     /tmp/ccYIdjbY.s:97828  .debug_str:00000000000313a0 .LASF4105
     /tmp/ccYIdjbY.s:101894  .debug_str:0000000000041b63 .LASF4106
     /tmp/ccYIdjbY.s:104010  .debug_str:000000000004ac0e .LASF4107
     /tmp/ccYIdjbY.s:97262  .debug_str:000000000002ecfc .LASF4108
     /tmp/ccYIdjbY.s:96316  .debug_str:000000000002ad4f .LASF4109
     /tmp/ccYIdjbY.s:86684  .debug_str:000000000000339e .LASF4110
     /tmp/ccYIdjbY.s:98876  .debug_str:0000000000035836 .LASF4111
     /tmp/ccYIdjbY.s:93688  .debug_str:00000000000205ce .LASF4112
     /tmp/ccYIdjbY.s:97590  .debug_str:0000000000030336 .LASF4113
     /tmp/ccYIdjbY.s:90294  .debug_str:000000000001205f .LASF4114
     /tmp/ccYIdjbY.s:95674  .debug_str:0000000000028421 .LASF4115
     /tmp/ccYIdjbY.s:88028  .debug_str:0000000000008ef3 .LASF4116
     /tmp/ccYIdjbY.s:96148  .debug_str:000000000002a246 .LASF4117
     /tmp/ccYIdjbY.s:104154  .debug_str:000000000004b5e6 .LASF4118
     /tmp/ccYIdjbY.s:86788  .debug_str:0000000000003a96 .LASF4119
     /tmp/ccYIdjbY.s:91622  .debug_str:0000000000017727 .LASF4120
     /tmp/ccYIdjbY.s:96528  .debug_str:000000000002ba9d .LASF4121
     /tmp/ccYIdjbY.s:99954  .debug_str:0000000000039a92 .LASF4122
     /tmp/ccYIdjbY.s:98256  .debug_str:0000000000033021 .LASF4123
     /tmp/ccYIdjbY.s:91310  .debug_str:000000000001617b .LASF4124
     /tmp/ccYIdjbY.s:92746  .debug_str:000000000001c38f .LASF4125
     /tmp/ccYIdjbY.s:92660  .debug_str:000000000001bdb3 .LASF4126
     /tmp/ccYIdjbY.s:87268  .debug_str:0000000000005c4b .LASF4127
     /tmp/ccYIdjbY.s:86964  .debug_str:00000000000046ca .LASF4128
     /tmp/ccYIdjbY.s:100240  .debug_str:000000000003ad3a .LASF4129
     /tmp/ccYIdjbY.s:103192  .debug_str:000000000004714c .LASF4130
     /tmp/ccYIdjbY.s:96698  .debug_str:000000000002c636 .LASF4131
     /tmp/ccYIdjbY.s:101078  .debug_str:000000000003e523 .LASF4132
     /tmp/ccYIdjbY.s:93296  .debug_str:000000000001ea5b .LASF4133
     /tmp/ccYIdjbY.s:101388  .debug_str:000000000003f993 .LASF4134
     /tmp/ccYIdjbY.s:91502  .debug_str:0000000000016f30 .LASF4135
     /tmp/ccYIdjbY.s:88510  .debug_str:000000000000b0aa .LASF4136
     /tmp/ccYIdjbY.s:104212  .debug_str:000000000004b9c9 .LASF4137
     /tmp/ccYIdjbY.s:86778  .debug_str:00000000000039e9 .LASF4138
     /tmp/ccYIdjbY.s:86858  .debug_str:0000000000003f5a .LASF4139
     /tmp/ccYIdjbY.s:98454  .debug_str:0000000000033d6a .LASF4140
     /tmp/ccYIdjbY.s:93454  .debug_str:000000000001f5a1 .LASF4141
     /tmp/ccYIdjbY.s:92836  .debug_str:000000000001ca34 .LASF4142
     /tmp/ccYIdjbY.s:103376  .debug_str:0000000000047e57 .LASF4143
     /tmp/ccYIdjbY.s:92672  .debug_str:000000000001be8a .LASF4144
     /tmp/ccYIdjbY.s:103854  .debug_str:000000000004a0ff .LASF4145
     /tmp/ccYIdjbY.s:97646  .debug_str:0000000000030770 .LASF4146
     /tmp/ccYIdjbY.s:89352  .debug_str:000000000000e581 .LASF4147
     /tmp/ccYIdjbY.s:90616  .debug_str:0000000000013508 .LASF4148
     /tmp/ccYIdjbY.s:96868  .debug_str:000000000002d279 .LASF4149
     /tmp/ccYIdjbY.s:100548  .debug_str:000000000003c17a .LASF4150
     /tmp/ccYIdjbY.s:86612  .debug_str:0000000000002f0d .LASF4151
     /tmp/ccYIdjbY.s:87158  .debug_str:00000000000053db .LASF4152
     /tmp/ccYIdjbY.s:97366  .debug_str:000000000002f3a1 .LASF4153
     /tmp/ccYIdjbY.s:94514  .debug_str:0000000000023a51 .LASF4154
     /tmp/ccYIdjbY.s:86256  .debug_str:00000000000014e6 .LASF4155
     /tmp/ccYIdjbY.s:87830  .debug_str:000000000000818f .LASF4156
     /tmp/ccYIdjbY.s:101212  .debug_str:000000000003ee4a .LASF4157
     /tmp/ccYIdjbY.s:87500  .debug_str:0000000000006c75 .LASF4158
     /tmp/ccYIdjbY.s:93150  .debug_str:000000000001e025 .LASF4159
     /tmp/ccYIdjbY.s:86252  .debug_str:00000000000014af .LASF4160
     /tmp/ccYIdjbY.s:93382  .debug_str:000000000001f15a .LASF4161
     /tmp/ccYIdjbY.s:88042  .debug_str:0000000000008fc7 .LASF4162
     /tmp/ccYIdjbY.s:97674  .debug_str:0000000000030958 .LASF4163
     /tmp/ccYIdjbY.s:99292  .debug_str:0000000000036e6e .LASF4164
     /tmp/ccYIdjbY.s:102110  .debug_str:0000000000042949 .LASF4165
     /tmp/ccYIdjbY.s:103290  .debug_str:0000000000047876 .LASF4166
     /tmp/ccYIdjbY.s:97084  .debug_str:000000000002e0cf .LASF4167
     /tmp/ccYIdjbY.s:86748  .debug_str:00000000000037ca .LASF4168
     /tmp/ccYIdjbY.s:87698  .debug_str:0000000000007897 .LASF4169
     /tmp/ccYIdjbY.s:92692  .debug_str:000000000001bfe2 .LASF4170
     /tmp/ccYIdjbY.s:95588  .debug_str:0000000000027e56 .LASF4171
     /tmp/ccYIdjbY.s:103624  .debug_str:0000000000048fcb .LASF4172
     /tmp/ccYIdjbY.s:93412  .debug_str:000000000001f33c .LASF4173
     /tmp/ccYIdjbY.s:101504  .debug_str:0000000000040224 .LASF4174
     /tmp/ccYIdjbY.s:93938  .debug_str:00000000000215be .LASF4175
     /tmp/ccYIdjbY.s:98784  .debug_str:0000000000035238 .LASF4176
     /tmp/ccYIdjbY.s:89004  .debug_str:000000000000d1fe .LASF4177
     /tmp/ccYIdjbY.s:102768  .debug_str:00000000000454a7 .LASF4178
     /tmp/ccYIdjbY.s:100098  .debug_str:000000000003a3ce .LASF4179
     /tmp/ccYIdjbY.s:97384  .debug_str:000000000002f4f1 .LASF4180
     /tmp/ccYIdjbY.s:100134  .debug_str:000000000003a600 .LASF4181
     /tmp/ccYIdjbY.s:89804  .debug_str:000000000000ff39 .LASF4182
     /tmp/ccYIdjbY.s:98008  .debug_str:0000000000031f27 .LASF4183
     /tmp/ccYIdjbY.s:102266  .debug_str:00000000000432dd .LASF4184
     /tmp/ccYIdjbY.s:95894  .debug_str:0000000000029155 .LASF4185
     /tmp/ccYIdjbY.s:103898  .debug_str:000000000004a46d .LASF4186
     /tmp/ccYIdjbY.s:90386  .debug_str:0000000000012701 .LASF4187
     /tmp/ccYIdjbY.s:86000  .debug_str:0000000000000428 .LASF4188
     /tmp/ccYIdjbY.s:94124  .debug_str:0000000000022238 .LASF4189
     /tmp/ccYIdjbY.s:88496  .debug_str:000000000000af7f .LASF4190
     /tmp/ccYIdjbY.s:102496  .debug_str:00000000000442ac .LASF4191
     /tmp/ccYIdjbY.s:99912  .debug_str:00000000000397b3 .LASF4192
     /tmp/ccYIdjbY.s:99734  .debug_str:0000000000038a89 .LASF4193
     /tmp/ccYIdjbY.s:89720  .debug_str:000000000000fa89 .LASF4194
     /tmp/ccYIdjbY.s:91590  .debug_str:0000000000017513 .LASF4195
     /tmp/ccYIdjbY.s:89570  .debug_str:000000000000f29b .LASF4196
     /tmp/ccYIdjbY.s:95510  .debug_str:0000000000027939 .LASF4197
     /tmp/ccYIdjbY.s:100808  .debug_str:000000000003d1a2 .LASF4198
     /tmp/ccYIdjbY.s:93326  .debug_str:000000000001ec7e .LASF4199
     /tmp/ccYIdjbY.s:101416  .debug_str:000000000003fbc4 .LASF4200
     /tmp/ccYIdjbY.s:91180  .debug_str:00000000000158d1 .LASF4201
     /tmp/ccYIdjbY.s:99366  .debug_str:0000000000037204 .LASF4202
     /tmp/ccYIdjbY.s:101742  .debug_str:00000000000411aa .LASF4203
     /tmp/ccYIdjbY.s:99094  .debug_str:000000000003639e .LASF4204
     /tmp/ccYIdjbY.s:92924  .debug_str:000000000001d077 .LASF4205
     /tmp/ccYIdjbY.s:101028  .debug_str:000000000003e1e1 .LASF4206
     /tmp/ccYIdjbY.s:90802  .debug_str:0000000000014061 .LASF4207
     /tmp/ccYIdjbY.s:88024  .debug_str:0000000000008eb3 .LASF4208
     /tmp/ccYIdjbY.s:88584  .debug_str:000000000000b64b .LASF4209
     /tmp/ccYIdjbY.s:96856  .debug_str:000000000002d197 .LASF4210
     /tmp/ccYIdjbY.s:86496  .debug_str:000000000000263c .LASF4211
     /tmp/ccYIdjbY.s:98568  .debug_str:0000000000034491 .LASF4212
     /tmp/ccYIdjbY.s:86794  .debug_str:0000000000003af8 .LASF4213
     /tmp/ccYIdjbY.s:102852  .debug_str:0000000000045aa8 .LASF4214
     /tmp/ccYIdjbY.s:86664  .debug_str:0000000000003286 .LASF4215
     /tmp/ccYIdjbY.s:92774  .debug_str:000000000001c5da .LASF4216
     /tmp/ccYIdjbY.s:89344  .debug_str:000000000000e4fe .LASF4217
     /tmp/ccYIdjbY.s:90654  .debug_str:0000000000013777 .LASF4218
     /tmp/ccYIdjbY.s:91292  .debug_str:0000000000016083 .LASF4219
     /tmp/ccYIdjbY.s:92476  .debug_str:000000000001b1a1 .LASF4220
     /tmp/ccYIdjbY.s:96734  .debug_str:000000000002c8f5 .LASF4221
     /tmp/ccYIdjbY.s:86370  .debug_str:0000000000001cd5 .LASF4222
     /tmp/ccYIdjbY.s:97022  .debug_str:000000000002dcaa .LASF4223
     /tmp/ccYIdjbY.s:86688  .debug_str:00000000000033c2 .LASF4224
     /tmp/ccYIdjbY.s:92058  .debug_str:000000000001945f .LASF4225
     /tmp/ccYIdjbY.s:100182  .debug_str:000000000003a91f .LASF4226
     /tmp/ccYIdjbY.s:89688  .debug_str:000000000000f909 .LASF4227
     /tmp/ccYIdjbY.s:100894  .debug_str:000000000003d7e6 .LASF4228
     /tmp/ccYIdjbY.s:90022  .debug_str:0000000000010d8e .LASF4229
     /tmp/ccYIdjbY.s:97308  .debug_str:000000000002efb2 .LASF4230
     /tmp/ccYIdjbY.s:102914  .debug_str:0000000000045ec1 .LASF4231
     /tmp/ccYIdjbY.s:103330  .debug_str:0000000000047b34 .LASF4232
     /tmp/ccYIdjbY.s:91046  .debug_str:00000000000150e5 .LASF4233
     /tmp/ccYIdjbY.s:99212  .debug_str:00000000000369df .LASF4234
     /tmp/ccYIdjbY.s:103298  .debug_str:000000000004792b .LASF4235
     /tmp/ccYIdjbY.s:97058  .debug_str:000000000002df52 .LASF4236
     /tmp/ccYIdjbY.s:86724  .debug_str:00000000000035ce .LASF4237
     /tmp/ccYIdjbY.s:94882  .debug_str:0000000000024fe8 .LASF4238
     /tmp/ccYIdjbY.s:102946  .debug_str:0000000000046076 .LASF4239
     /tmp/ccYIdjbY.s:92716  .debug_str:000000000001c17a .LASF4240
     /tmp/ccYIdjbY.s:100642  .debug_str:000000000003c7bc .LASF4241
     /tmp/ccYIdjbY.s:91708  .debug_str:0000000000017bf8 .LASF4242
     /tmp/ccYIdjbY.s:101110  .debug_str:000000000003e6e6 .LASF4243
     /tmp/ccYIdjbY.s:90884  .debug_str:00000000000145cb .LASF4244
     /tmp/ccYIdjbY.s:99050  .debug_str:0000000000036228 .LASF4245
     /tmp/ccYIdjbY.s:88640  .debug_str:000000000000b9d0 .LASF4246
     /tmp/ccYIdjbY.s:96548  .debug_str:000000000002bbdd .LASF4247
     /tmp/ccYIdjbY.s:86606  .debug_str:0000000000002e78 .LASF4248
     /tmp/ccYIdjbY.s:94568  .debug_str:0000000000023c7a .LASF4249
     /tmp/ccYIdjbY.s:94626  .debug_str:0000000000024012 .LASF4250
     /tmp/ccYIdjbY.s:92448  .debug_str:000000000001afac .LASF4251
     /tmp/ccYIdjbY.s:103096  .debug_str:0000000000046a3b .LASF4252
     /tmp/ccYIdjbY.s:87558  .debug_str:0000000000007010 .LASF4253
     /tmp/ccYIdjbY.s:102126  .debug_str:00000000000429ec .LASF4254
     /tmp/ccYIdjbY.s:103528  .debug_str:00000000000488b0 .LASF4255
     /tmp/ccYIdjbY.s:93308  .debug_str:000000000001eb3f .LASF4256
     /tmp/ccYIdjbY.s:92472  .debug_str:000000000001b183 .LASF4257
     /tmp/ccYIdjbY.s:91972  .debug_str:0000000000018e01 .LASF4258
     /tmp/ccYIdjbY.s:103110  .debug_str:0000000000046b2a .LASF4259
     /tmp/ccYIdjbY.s:93186  .debug_str:000000000001e256 .LASF4260
     /tmp/ccYIdjbY.s:96238  .debug_str:000000000002a850 .LASF4261
     /tmp/ccYIdjbY.s:87806  .debug_str:0000000000007fbd .LASF4262
     /tmp/ccYIdjbY.s:98004  .debug_str:0000000000031ecc .LASF4263
     /tmp/ccYIdjbY.s:89612  .debug_str:000000000000f52f .LASF4264
     /tmp/ccYIdjbY.s:97254  .debug_str:000000000002eca1 .LASF4265
     /tmp/ccYIdjbY.s:90236  .debug_str:0000000000011c21 .LASF4266
     /tmp/ccYIdjbY.s:90806  .debug_str:00000000000140b4 .LASF4267
     /tmp/ccYIdjbY.s:100146  .debug_str:000000000003a6b8 .LASF4268
     /tmp/ccYIdjbY.s:99958  .debug_str:0000000000039acb .LASF4269
     /tmp/ccYIdjbY.s:101736  .debug_str:0000000000041133 .LASF4270
     /tmp/ccYIdjbY.s:102028  .debug_str:00000000000423a2 .LASF4271
     /tmp/ccYIdjbY.s:88442  .debug_str:000000000000aba5 .LASF4272
     /tmp/ccYIdjbY.s:95264  .debug_str:000000000002691e .LASF4273
     /tmp/ccYIdjbY.s:98558  .debug_str:00000000000343df .LASF4274
     /tmp/ccYIdjbY.s:95216  .debug_str:000000000002658e .LASF4275
     /tmp/ccYIdjbY.s:100504  .debug_str:000000000003be5e .LASF4276
     /tmp/ccYIdjbY.s:98688  .debug_str:0000000000034c73 .LASF4277
     /tmp/ccYIdjbY.s:94274  .debug_str:0000000000022c70 .LASF4278
     /tmp/ccYIdjbY.s:99500  .debug_str:0000000000037ab7 .LASF4279
     /tmp/ccYIdjbY.s:96038  .debug_str:0000000000029b0e .LASF4280
     /tmp/ccYIdjbY.s:89630  .debug_str:000000000000f65e .LASF4281
     /tmp/ccYIdjbY.s:97788  .debug_str:00000000000310e0 .LASF4282
     /tmp/ccYIdjbY.s:86700  .debug_str:000000000000343f .LASF4283
     /tmp/ccYIdjbY.s:89394  .debug_str:000000000000e8a3 .LASF4284
     /tmp/ccYIdjbY.s:91284  .debug_str:000000000001600c .LASF4285
     /tmp/ccYIdjbY.s:101332  .debug_str:000000000003f545 .LASF4286
     /tmp/ccYIdjbY.s:92874  .debug_str:000000000001cd01 .LASF4287
     /tmp/ccYIdjbY.s:88484  .debug_str:000000000000aee7 .LASF4288
     /tmp/ccYIdjbY.s:98776  .debug_str:00000000000351cd .LASF4289
     /tmp/ccYIdjbY.s:99754  .debug_str:0000000000038b9d .LASF4290
     /tmp/ccYIdjbY.s:99066  .debug_str:00000000000362f3 .LASF4291
     /tmp/ccYIdjbY.s:88838  .debug_str:000000000000c6cf .LASF4292
     /tmp/ccYIdjbY.s:99826  .debug_str:0000000000039144 .LASF4293
     /tmp/ccYIdjbY.s:91488  .debug_str:0000000000016e74 .LASF4294
     /tmp/ccYIdjbY.s:101574  .debug_str:00000000000406e0 .LASF4295
     /tmp/ccYIdjbY.s:100728  .debug_str:000000000003ccaa .LASF4296
     /tmp/ccYIdjbY.s:95228  .debug_str:0000000000026663 .LASF4297
     /tmp/ccYIdjbY.s:95092  .debug_str:0000000000025db6 .LASF4298
     /tmp/ccYIdjbY.s:92182  .debug_str:0000000000019da9 .LASF4299
     /tmp/ccYIdjbY.s:101366  .debug_str:000000000003f823 .LASF4300
     /tmp/ccYIdjbY.s:93962  .debug_str:0000000000021727 .LASF4301
     /tmp/ccYIdjbY.s:97718  .debug_str:0000000000030c08 .LASF4302
     /tmp/ccYIdjbY.s:99064  .debug_str:00000000000362da .LASF4303
     /tmp/ccYIdjbY.s:103222  .debug_str:0000000000047374 .LASF4304
     /tmp/ccYIdjbY.s:97436  .debug_str:000000000002f7f8 .LASF4305
     /tmp/ccYIdjbY.s:88998  .debug_str:000000000000d1b8 .LASF4306
     /tmp/ccYIdjbY.s:99244  .debug_str:0000000000036b0d .LASF4307
     /tmp/ccYIdjbY.s:90892  .debug_str:000000000001466e .LASF4308
     /tmp/ccYIdjbY.s:86352  .debug_str:0000000000001bb4 .LASF4309
     /tmp/ccYIdjbY.s:96558  .debug_str:000000000002bc6b .LASF4310
     /tmp/ccYIdjbY.s:88070  .debug_str:00000000000091a9 .LASF4311
     /tmp/ccYIdjbY.s:98294  .debug_str:000000000003331a .LASF4312
     /tmp/ccYIdjbY.s:89930  .debug_str:00000000000107f8 .LASF4313
     /tmp/ccYIdjbY.s:92146  .debug_str:0000000000019b1e .LASF4314
     /tmp/ccYIdjbY.s:91632  .debug_str:00000000000177d6 .LASF4315
     /tmp/ccYIdjbY.s:95230  .debug_str:000000000002667b .LASF4316
     /tmp/ccYIdjbY.s:100520  .debug_str:000000000003bf7c .LASF4317
     /tmp/ccYIdjbY.s:103452  .debug_str:000000000004836b .LASF4318
     /tmp/ccYIdjbY.s:99056  .debug_str:0000000000036293 .LASF4319
     /tmp/ccYIdjbY.s:91880  .debug_str:00000000000187c5 .LASF4320
     /tmp/ccYIdjbY.s:99456  .debug_str:00000000000377ed .LASF4321
     /tmp/ccYIdjbY.s:87742  .debug_str:0000000000007b38 .LASF4322
     /tmp/ccYIdjbY.s:101170  .debug_str:000000000003eb2a .LASF4323
     /tmp/ccYIdjbY.s:88574  .debug_str:000000000000b5bf .LASF4324
     /tmp/ccYIdjbY.s:92720  .debug_str:000000000001c1ac .LASF4325
     /tmp/ccYIdjbY.s:103086  .debug_str:00000000000469a7 .LASF4326
     /tmp/ccYIdjbY.s:96228  .debug_str:000000000002a7a4 .LASF4327
     /tmp/ccYIdjbY.s:100630  .debug_str:000000000003c701 .LASF4328
     /tmp/ccYIdjbY.s:99914  .debug_str:00000000000397c1 .LASF4329
     /tmp/ccYIdjbY.s:100928  .debug_str:000000000003da2a .LASF4330
     /tmp/ccYIdjbY.s:92172  .debug_str:0000000000019d1c .LASF4331
     /tmp/ccYIdjbY.s:102744  .debug_str:000000000004532a .LASF4332
     /tmp/ccYIdjbY.s:91744  .debug_str:0000000000017e43 .LASF4333
     /tmp/ccYIdjbY.s:96142  .debug_str:000000000002a1fe .LASF4334
     /tmp/ccYIdjbY.s:95568  .debug_str:0000000000027ce3 .LASF4335
     /tmp/ccYIdjbY.s:98222  .debug_str:0000000000032da7 .LASF4336
     /tmp/ccYIdjbY.s:90160  .debug_str:0000000000011764 .LASF4337
     /tmp/ccYIdjbY.s:103556  .debug_str:0000000000048abc .LASF4338
     /tmp/ccYIdjbY.s:96270  .debug_str:000000000002aa97 .LASF4339
     /tmp/ccYIdjbY.s:86780  .debug_str:0000000000003a00 .LASF4340
     /tmp/ccYIdjbY.s:103468  .debug_str:00000000000484a1 .LASF4341
     /tmp/ccYIdjbY.s:101982  .debug_str:00000000000420a7 .LASF4342
     /tmp/ccYIdjbY.s:87642  .debug_str:0000000000007534 .LASF4343
     /tmp/ccYIdjbY.s:96452  .debug_str:000000000002b55e .LASF4344
     /tmp/ccYIdjbY.s:101624  .debug_str:00000000000409d5 .LASF4345
     /tmp/ccYIdjbY.s:95920  .debug_str:000000000002936b .LASF4346
     /tmp/ccYIdjbY.s:90472  .debug_str:0000000000012c30 .LASF4347
     /tmp/ccYIdjbY.s:86168  .debug_str:0000000000000f11 .LASF4348
     /tmp/ccYIdjbY.s:95874  .debug_str:0000000000029075 .LASF4349
     /tmp/ccYIdjbY.s:95776  .debug_str:0000000000028a41 .LASF4350
     /tmp/ccYIdjbY.s:94688  .debug_str:00000000000242de .LASF4351
     /tmp/ccYIdjbY.s:87334  .debug_str:0000000000006063 .LASF4352
     /tmp/ccYIdjbY.s:93136  .debug_str:000000000001df18 .LASF4353
     /tmp/ccYIdjbY.s:97456  .debug_str:000000000002f924 .LASF4354
     /tmp/ccYIdjbY.s:91616  .debug_str:000000000001769f .LASF4355
     /tmp/ccYIdjbY.s:89160  .debug_str:000000000000db91 .LASF4356
     /tmp/ccYIdjbY.s:89036  .debug_str:000000000000d37b .LASF4357
     /tmp/ccYIdjbY.s:90198  .debug_str:00000000000119da .LASF4358
     /tmp/ccYIdjbY.s:88182  .debug_str:00000000000099ae .LASF4359
     /tmp/ccYIdjbY.s:89166  .debug_str:000000000000dbf3 .LASF4360
     /tmp/ccYIdjbY.s:95052  .debug_str:0000000000025af2 .LASF4361
     /tmp/ccYIdjbY.s:99266  .debug_str:0000000000036c7a .LASF4362
     /tmp/ccYIdjbY.s:97576  .debug_str:0000000000030216 .LASF4363
     /tmp/ccYIdjbY.s:96646  .debug_str:000000000002c26f .LASF4364
     /tmp/ccYIdjbY.s:100420  .debug_str:000000000003b983 .LASF4365
     /tmp/ccYIdjbY.s:95880  .debug_str:00000000000290bf .LASF4366
     /tmp/ccYIdjbY.s:103058  .debug_str:00000000000467f1 .LASF4367
     /tmp/ccYIdjbY.s:86552  .debug_str:00000000000029dd .LASF4368
     /tmp/ccYIdjbY.s:99048  .debug_str:0000000000036200 .LASF4369
     /tmp/ccYIdjbY.s:95402  .debug_str:00000000000272eb .LASF4370
     /tmp/ccYIdjbY.s:98322  .debug_str:0000000000033524 .LASF4371
     /tmp/ccYIdjbY.s:98494  .debug_str:000000000003400e .LASF4372
     /tmp/ccYIdjbY.s:86072  .debug_str:00000000000008fb .LASF4373
     /tmp/ccYIdjbY.s:92238  .debug_str:000000000001a11b .LASF4374
     /tmp/ccYIdjbY.s:86754  .debug_str:0000000000003801 .LASF4375
     /tmp/ccYIdjbY.s:89274  .debug_str:000000000000e1f5 .LASF4376
     /tmp/ccYIdjbY.s:88096  .debug_str:00000000000093d6 .LASF4377
     /tmp/ccYIdjbY.s:94504  .debug_str:0000000000023977 .LASF4378
     /tmp/ccYIdjbY.s:101330  .debug_str:000000000003f51f .LASF4379
     /tmp/ccYIdjbY.s:89146  .debug_str:000000000000dae7 .LASF4380
     /tmp/ccYIdjbY.s:90640  .debug_str:000000000001369b .LASF4381
     /tmp/ccYIdjbY.s:89444  .debug_str:000000000000eac3 .LASF4382
     /tmp/ccYIdjbY.s:96084  .debug_str:0000000000029e4c .LASF4383
     /tmp/ccYIdjbY.s:102714  .debug_str:00000000000450c3 .LASF4384
     /tmp/ccYIdjbY.s:97770  .debug_str:0000000000030f77 .LASF4385
     /tmp/ccYIdjbY.s:103464  .debug_str:000000000004845d .LASF4386
     /tmp/ccYIdjbY.s:99132  .debug_str:0000000000036612 .LASF4387
     /tmp/ccYIdjbY.s:86362  .debug_str:0000000000001c62 .LASF4388
     /tmp/ccYIdjbY.s:92100  .debug_str:0000000000019744 .LASF4389
     /tmp/ccYIdjbY.s:97836  .debug_str:0000000000031407 .LASF4390
     /tmp/ccYIdjbY.s:101772  .debug_str:00000000000413c9 .LASF4391
     /tmp/ccYIdjbY.s:90658  .debug_str:00000000000137b8 .LASF4392
     /tmp/ccYIdjbY.s:90596  .debug_str:00000000000133e2 .LASF4393
     /tmp/ccYIdjbY.s:101112  .debug_str:000000000003e6fc .LASF4394
     /tmp/ccYIdjbY.s:101538  .debug_str:000000000004044f .LASF4395
     /tmp/ccYIdjbY.s:91820  .debug_str:000000000001838b .LASF4396
     /tmp/ccYIdjbY.s:93312  .debug_str:000000000001eb8b .LASF4397
     /tmp/ccYIdjbY.s:100682  .debug_str:000000000003ca18 .LASF4398
     /tmp/ccYIdjbY.s:93914  .debug_str:0000000000021456 .LASF4399
     /tmp/ccYIdjbY.s:91230  .debug_str:0000000000015c95 .LASF4400
     /tmp/ccYIdjbY.s:99868  .debug_str:0000000000039482 .LASF4401
     /tmp/ccYIdjbY.s:96138  .debug_str:000000000002a1ba .LASF4402
     /tmp/ccYIdjbY.s:91296  .debug_str:00000000000160de .LASF4403
     /tmp/ccYIdjbY.s:94592  .debug_str:0000000000023df7 .LASF4404
     /tmp/ccYIdjbY.s:94520  .debug_str:0000000000023a92 .LASF4405
     /tmp/ccYIdjbY.s:87060  .debug_str:0000000000004d60 .LASF4406
     /tmp/ccYIdjbY.s:89498  .debug_str:000000000000ed8a .LASF4407
     /tmp/ccYIdjbY.s:102060  .debug_str:00000000000425c9 .LASF4408
     /tmp/ccYIdjbY.s:86758  .debug_str:000000000000383d .LASF4409
     /tmp/ccYIdjbY.s:90286  .debug_str:0000000000011fae .LASF4410
     /tmp/ccYIdjbY.s:102752  .debug_str:00000000000453a9 .LASF4411
     /tmp/ccYIdjbY.s:96968  .debug_str:000000000002d89d .LASF4412
     /tmp/ccYIdjbY.s:91022  .debug_str:0000000000014f73 .LASF4413
     /tmp/ccYIdjbY.s:93542  .debug_str:000000000001fb51 .LASF4414
     /tmp/ccYIdjbY.s:92828  .debug_str:000000000001c98f .LASF4415
     /tmp/ccYIdjbY.s:101550  .debug_str:00000000000404ef .LASF4416
     /tmp/ccYIdjbY.s:91870  .debug_str:0000000000018735 .LASF4417
     /tmp/ccYIdjbY.s:100554  .debug_str:000000000003c1ed .LASF4418
     /tmp/ccYIdjbY.s:90896  .debug_str:00000000000146a1 .LASF4419
     /tmp/ccYIdjbY.s:99672  .debug_str:0000000000038692 .LASF4420
     /tmp/ccYIdjbY.s:88578  .debug_str:000000000000b611 .LASF4421
     /tmp/ccYIdjbY.s:87208  .debug_str:00000000000057ea .LASF4422
     /tmp/ccYIdjbY.s:88286  .debug_str:000000000000a0e5 .LASF4423
     /tmp/ccYIdjbY.s:102066  .debug_str:0000000000042661 .LASF4424
     /tmp/ccYIdjbY.s:88870  .debug_str:000000000000c944 .LASF4425
     /tmp/ccYIdjbY.s:87370  .debug_str:000000000000629d .LASF4426
     /tmp/ccYIdjbY.s:95618  .debug_str:0000000000028049 .LASF4427
     /tmp/ccYIdjbY.s:95834  .debug_str:0000000000028de5 .LASF4428
     /tmp/ccYIdjbY.s:100620  .debug_str:000000000003c62d .LASF4429
     /tmp/ccYIdjbY.s:96378  .debug_str:000000000002b0e3 .LASF4430
     /tmp/ccYIdjbY.s:92090  .debug_str:0000000000019635 .LASF4431
     /tmp/ccYIdjbY.s:103016  .debug_str:0000000000046503 .LASF4432
     /tmp/ccYIdjbY.s:97220  .debug_str:000000000002ea96 .LASF4433
     /tmp/ccYIdjbY.s:103184  .debug_str:00000000000470d0 .LASF4434
     /tmp/ccYIdjbY.s:97408  .debug_str:000000000002f624 .LASF4435
     /tmp/ccYIdjbY.s:91478  .debug_str:0000000000016def .LASF4436
     /tmp/ccYIdjbY.s:103952  .debug_str:000000000004a84d .LASF4437
     /tmp/ccYIdjbY.s:98140  .debug_str:00000000000327dd .LASF4438
     /tmp/ccYIdjbY.s:92216  .debug_str:0000000000019f9e .LASF4439
     /tmp/ccYIdjbY.s:97068  .debug_str:000000000002dfae .LASF4440
     /tmp/ccYIdjbY.s:94482  .debug_str:0000000000023856 .LASF4441
     /tmp/ccYIdjbY.s:90082  .debug_str:00000000000111c1 .LASF4442
     /tmp/ccYIdjbY.s:95626  .debug_str:00000000000280c0 .LASF4443
     /tmp/ccYIdjbY.s:91006  .debug_str:0000000000014e58 .LASF4444
     /tmp/ccYIdjbY.s:95158  .debug_str:0000000000026203 .LASF4445
     /tmp/ccYIdjbY.s:97198  .debug_str:000000000002e908 .LASF4446
     /tmp/ccYIdjbY.s:89280  .debug_str:000000000000e25d .LASF4447
     /tmp/ccYIdjbY.s:95944  .debug_str:0000000000029507 .LASF4448
     /tmp/ccYIdjbY.s:98318  .debug_str:00000000000334a4 .LASF4449
     /tmp/ccYIdjbY.s:102450  .debug_str:0000000000043f38 .LASF4450
     /tmp/ccYIdjbY.s:97346  .debug_str:000000000002f21e .LASF4451
     /tmp/ccYIdjbY.s:90712  .debug_str:0000000000013b3c .LASF4452
     /tmp/ccYIdjbY.s:96054  .debug_str:0000000000029bea .LASF4453
     /tmp/ccYIdjbY.s:90086  .debug_str:00000000000111ff .LASF4454
     /tmp/ccYIdjbY.s:92156  .debug_str:0000000000019bce .LASF4455
     /tmp/ccYIdjbY.s:86602  .debug_str:0000000000002e01 .LASF4456
     /tmp/ccYIdjbY.s:90820  .debug_str:000000000001419e .LASF4457
     /tmp/ccYIdjbY.s:103264  .debug_str:00000000000476a8 .LASF4458
     /tmp/ccYIdjbY.s:98412  .debug_str:0000000000033ab3 .LASF4459
     /tmp/ccYIdjbY.s:101012  .debug_str:000000000003e08b .LASF4460
     /tmp/ccYIdjbY.s:94270  .debug_str:0000000000022c2d .LASF4461
     /tmp/ccYIdjbY.s:89170  .debug_str:000000000000dc53 .LASF4462
     /tmp/ccYIdjbY.s:94506  .debug_str:00000000000239a7 .LASF4463
     /tmp/ccYIdjbY.s:97048  .debug_str:000000000002de54 .LASF4464
     /tmp/ccYIdjbY.s:87288  .debug_str:0000000000005d3e .LASF4465
     /tmp/ccYIdjbY.s:95284  .debug_str:0000000000026a5f .LASF4466
     /tmp/ccYIdjbY.s:86304  .debug_str:000000000000184d .LASF4467
     /tmp/ccYIdjbY.s:88090  .debug_str:0000000000009358 .LASF4468
     /tmp/ccYIdjbY.s:96078  .debug_str:0000000000029dc7 .LASF4469
     /tmp/ccYIdjbY.s:90118  .debug_str:0000000000011433 .LASF4470
     /tmp/ccYIdjbY.s:102598  .debug_str:000000000004492c .LASF4471
     /tmp/ccYIdjbY.s:88608  .debug_str:000000000000b7ea .LASF4472
     /tmp/ccYIdjbY.s:103506  .debug_str:000000000004870e .LASF4473
     /tmp/ccYIdjbY.s:95336  .debug_str:0000000000026dc1 .LASF4474
     /tmp/ccYIdjbY.s:89360  .debug_str:000000000000e602 .LASF4475
     /tmp/ccYIdjbY.s:91328  .debug_str:00000000000162a3 .LASF4476
     /tmp/ccYIdjbY.s:103966  .debug_str:000000000004a94d .LASF4477
     /tmp/ccYIdjbY.s:96816  .debug_str:000000000002ce6b .LASF4478
     /tmp/ccYIdjbY.s:98798  .debug_str:0000000000035330 .LASF4479
     /tmp/ccYIdjbY.s:95134  .debug_str:000000000002606b .LASF4480
     /tmp/ccYIdjbY.s:87382  .debug_str:000000000000639f .LASF4481
     /tmp/ccYIdjbY.s:103370  .debug_str:0000000000047dc6 .LASF4482
     /tmp/ccYIdjbY.s:94310  .debug_str:0000000000022dae .LASF4483
     /tmp/ccYIdjbY.s:94828  .debug_str:0000000000024c35 .LASF4484
     /tmp/ccYIdjbY.s:93394  .debug_str:000000000001f1e5 .LASF4485
     /tmp/ccYIdjbY.s:102684  .debug_str:0000000000044e89 .LASF4486
     /tmp/ccYIdjbY.s:95606  .debug_str:0000000000027f7b .LASF4487
     /tmp/ccYIdjbY.s:101058  .debug_str:000000000003e36f .LASF4488
     /tmp/ccYIdjbY.s:99100  .debug_str:000000000003640a .LASF4489
     /tmp/ccYIdjbY.s:96374  .debug_str:000000000002b088 .LASF4490
     /tmp/ccYIdjbY.s:93438  .debug_str:000000000001f480 .LASF4491
     /tmp/ccYIdjbY.s:93906  .debug_str:00000000000213bb .LASF4492
     /tmp/ccYIdjbY.s:101202  .debug_str:000000000003edc7 .LASF4493
     /tmp/ccYIdjbY.s:101740  .debug_str:0000000000041171 .LASF4494
     /tmp/ccYIdjbY.s:88184  .debug_str:00000000000099d9 .LASF4495
     /tmp/ccYIdjbY.s:88680  .debug_str:000000000000bc56 .LASF4496
     /tmp/ccYIdjbY.s:94476  .debug_str:0000000000023827 .LASF4497
     /tmp/ccYIdjbY.s:95610  .debug_str:0000000000027fbc .LASF4498
     /tmp/ccYIdjbY.s:89632  .debug_str:000000000000f676 .LASF4499
     /tmp/ccYIdjbY.s:102162  .debug_str:0000000000042c0e .LASF4500
     /tmp/ccYIdjbY.s:98636  .debug_str:000000000003495f .LASF4501
     /tmp/ccYIdjbY.s:99796  .debug_str:0000000000038f09 .LASF4502
     /tmp/ccYIdjbY.s:90058  .debug_str:0000000000011006 .LASF4503
     /tmp/ccYIdjbY.s:97214  .debug_str:000000000002ea1b .LASF4504
     /tmp/ccYIdjbY.s:88986  .debug_str:000000000000d0d6 .LASF4505
     /tmp/ccYIdjbY.s:103762  .debug_str:0000000000049a54 .LASF4506
     /tmp/ccYIdjbY.s:97976  .debug_str:0000000000031d5d .LASF4507
     /tmp/ccYIdjbY.s:99116  .debug_str:0000000000036524 .LASF4508
     /tmp/ccYIdjbY.s:93164  .debug_str:000000000001e11e .LASF4509
     /tmp/ccYIdjbY.s:102728  .debug_str:00000000000451ba .LASF4510
     /tmp/ccYIdjbY.s:99818  .debug_str:0000000000039092 .LASF4511
     /tmp/ccYIdjbY.s:103170  .debug_str:0000000000046f86 .LASF4512
     /tmp/ccYIdjbY.s:102808  .debug_str:00000000000457a9 .LASF4513
     /tmp/ccYIdjbY.s:88698  .debug_str:000000000000bd9d .LASF4514
     /tmp/ccYIdjbY.s:98468  .debug_str:0000000000033e69 .LASF4515
     /tmp/ccYIdjbY.s:101722  .debug_str:0000000000041016 .LASF4516
     /tmp/ccYIdjbY.s:102330  .debug_str:00000000000436b6 .LASF4517
     /tmp/ccYIdjbY.s:87728  .debug_str:0000000000007a1c .LASF4518
     /tmp/ccYIdjbY.s:102446  .debug_str:0000000000043ebf .LASF4519
     /tmp/ccYIdjbY.s:86790  .debug_str:0000000000003aac .LASF4520
     /tmp/ccYIdjbY.s:95562  .debug_str:0000000000027c73 .LASF4521
     /tmp/ccYIdjbY.s:103142  .debug_str:0000000000046d3e .LASF4522
     /tmp/ccYIdjbY.s:91748  .debug_str:0000000000017ea2 .LASF4523
     /tmp/ccYIdjbY.s:91440  .debug_str:0000000000016b10 .LASF4524
     /tmp/ccYIdjbY.s:91770  .debug_str:0000000000018051 .LASF4525
     /tmp/ccYIdjbY.s:95712  .debug_str:00000000000286c3 .LASF4526
     /tmp/ccYIdjbY.s:98400  .debug_str:00000000000339bf .LASF4527
     /tmp/ccYIdjbY.s:92508  .debug_str:000000000001b3b6 .LASF4528
     /tmp/ccYIdjbY.s:86598  .debug_str:0000000000002d85 .LASF4529
     /tmp/ccYIdjbY.s:99182  .debug_str:0000000000036856 .LASF4530
     /tmp/ccYIdjbY.s:97328  .debug_str:000000000002f0f9 .LASF4531
     /tmp/ccYIdjbY.s:101108  .debug_str:000000000003e6af .LASF4532
     /tmp/ccYIdjbY.s:103864  .debug_str:000000000004a1e1 .LASF4533
     /tmp/ccYIdjbY.s:94180  .debug_str:00000000000225c6 .LASF4534
     /tmp/ccYIdjbY.s:102880  .debug_str:0000000000045c42 .LASF4535
     /tmp/ccYIdjbY.s:93242  .debug_str:000000000001e60d .LASF4536
     /tmp/ccYIdjbY.s:95432  .debug_str:00000000000274be .LASF4537
     /tmp/ccYIdjbY.s:102592  .debug_str:0000000000044897 .LASF4538
     /tmp/ccYIdjbY.s:96792  .debug_str:000000000002cc41 .LASF4539
     /tmp/ccYIdjbY.s:99904  .debug_str:000000000003973a .LASF4540
     /tmp/ccYIdjbY.s:93656  .debug_str:00000000000203e0 .LASF4541
     /tmp/ccYIdjbY.s:92892  .debug_str:000000000001ce23 .LASF4542
     /tmp/ccYIdjbY.s:92664  .debug_str:000000000001bde8 .LASF4543
     /tmp/ccYIdjbY.s:86596  .debug_str:0000000000002d4c .LASF4544
     /tmp/ccYIdjbY.s:98116  .debug_str:0000000000032656 .LASF4545
     /tmp/ccYIdjbY.s:90546  .debug_str:00000000000130d0 .LASF4546
     /tmp/ccYIdjbY.s:102984  .debug_str:0000000000046304 .LASF4547
     /tmp/ccYIdjbY.s:97188  .debug_str:000000000002e876 .LASF4548
     /tmp/ccYIdjbY.s:86768  .debug_str:000000000000394c .LASF4549
     /tmp/ccYIdjbY.s:103900  .debug_str:000000000004a481 .LASF4550
     /tmp/ccYIdjbY.s:88196  .debug_str:0000000000009a9c .LASF4551
     /tmp/ccYIdjbY.s:92166  .debug_str:0000000000019c82 .LASF4552
     /tmp/ccYIdjbY.s:86270  .debug_str:0000000000001592 .LASF4553
     /tmp/ccYIdjbY.s:104048  .debug_str:000000000004aea5 .LASF4554
     /tmp/ccYIdjbY.s:94812  .debug_str:0000000000024ace .LASF4555
     /tmp/ccYIdjbY.s:91926  .debug_str:0000000000018adc .LASF4556
     /tmp/ccYIdjbY.s:90844  .debug_str:000000000001430f .LASF4557
     /tmp/ccYIdjbY.s:103282  .debug_str:00000000000477b1 .LASF4558
     /tmp/ccYIdjbY.s:97496  .debug_str:000000000002fbc9 .LASF4559
     /tmp/ccYIdjbY.s:94718  .debug_str:00000000000244c4 .LASF4560
     /tmp/ccYIdjbY.s:104034  .debug_str:000000000004aded .LASF4561
     /tmp/ccYIdjbY.s:100552  .debug_str:000000000003c1b6 .LASF4562
     /tmp/ccYIdjbY.s:99458  .debug_str:0000000000037808 .LASF4563
     /tmp/ccYIdjbY.s:99492  .debug_str:0000000000037a51 .LASF4564
     /tmp/ccYIdjbY.s:104192  .debug_str:000000000004b868 .LASF4565
     /tmp/ccYIdjbY.s:94522  .debug_str:0000000000023aca .LASF4566
     /tmp/ccYIdjbY.s:100158  .debug_str:000000000003a770 .LASF4567
     /tmp/ccYIdjbY.s:90314  .debug_str:000000000001219d .LASF4568
     /tmp/ccYIdjbY.s:91354  .debug_str:0000000000016499 .LASF4569
     /tmp/ccYIdjbY.s:98034  .debug_str:00000000000320ab .LASF4570
     /tmp/ccYIdjbY.s:91804  .debug_str:0000000000018244 .LASF4571
     /tmp/ccYIdjbY.s:100774  .debug_str:000000000003cfaa .LASF4572
     /tmp/ccYIdjbY.s:102068  .debug_str:0000000000042699 .LASF4573
     /tmp/ccYIdjbY.s:103986  .debug_str:000000000004aa42 .LASF4574
     /tmp/ccYIdjbY.s:92122  .debug_str:000000000001995a .LASF4575
     /tmp/ccYIdjbY.s:91002  .debug_str:0000000000014de6 .LASF4576
     /tmp/ccYIdjbY.s:86336  .debug_str:0000000000001a9d .LASF4577
     /tmp/ccYIdjbY.s:88120  .debug_str:00000000000095f1 .LASF4578
     /tmp/ccYIdjbY.s:92952  .debug_str:000000000001d28b .LASF4579
     /tmp/ccYIdjbY.s:99558  .debug_str:0000000000037ec5 .LASF4580
     /tmp/ccYIdjbY.s:99800  .debug_str:0000000000038f62 .LASF4581
     /tmp/ccYIdjbY.s:95644  .debug_str:0000000000028222 .LASF4582
     /tmp/ccYIdjbY.s:99418  .debug_str:000000000003752b .LASF4583
     /tmp/ccYIdjbY.s:86476  .debug_str:000000000000247c .LASF4584
     /tmp/ccYIdjbY.s:103660  .debug_str:00000000000491dc .LASF4585
     /tmp/ccYIdjbY.s:96794  .debug_str:000000000002cc78 .LASF4586
     /tmp/ccYIdjbY.s:93730  .debug_str:000000000002079e .LASF4587
     /tmp/ccYIdjbY.s:86996  .debug_str:00000000000048f3 .LASF4588
     /tmp/ccYIdjbY.s:101770  .debug_str:00000000000413a3 .LASF4589
     /tmp/ccYIdjbY.s:100396  .debug_str:000000000003b7c1 .LASF4590
     /tmp/ccYIdjbY.s:97896  .debug_str:0000000000031850 .LASF4591
     /tmp/ccYIdjbY.s:90586  .debug_str:0000000000013303 .LASF4592
     /tmp/ccYIdjbY.s:102416  .debug_str:0000000000043c60 .LASF4593
     /tmp/ccYIdjbY.s:88612  .debug_str:000000000000b832 .LASF4594
     /tmp/ccYIdjbY.s:86472  .debug_str:000000000000240b .LASF4595
     /tmp/ccYIdjbY.s:87752  .debug_str:0000000000007ba8 .LASF4596
     /tmp/ccYIdjbY.s:101814  .debug_str:000000000004165c .LASF4597
     /tmp/ccYIdjbY.s:85966  .debug_str:00000000000001b2 .LASF4598
     /tmp/ccYIdjbY.s:95844  .debug_str:0000000000028ecc .LASF4599
     /tmp/ccYIdjbY.s:90674  .debug_str:00000000000138b6 .LASF4600
     /tmp/ccYIdjbY.s:102620  .debug_str:0000000000044a6f .LASF4601
     /tmp/ccYIdjbY.s:96708  .debug_str:000000000002c6d9 .LASF4602
     /tmp/ccYIdjbY.s:100290  .debug_str:000000000003b0ae .LASF4603
     /tmp/ccYIdjbY.s:99576  .debug_str:0000000000038020 .LASF4604
     /tmp/ccYIdjbY.s:98668  .debug_str:0000000000034b40 .LASF4605
     /tmp/ccYIdjbY.s:93756  .debug_str:00000000000209d1 .LASF4606
     /tmp/ccYIdjbY.s:91628  .debug_str:0000000000017790 .LASF4607
     /tmp/ccYIdjbY.s:92262  .debug_str:000000000001a29b .LASF4608
     /tmp/ccYIdjbY.s:104284  .debug_str:000000000004be9b .LASF4609
     /tmp/ccYIdjbY.s:98068  .debug_str:000000000003235e .LASF4610
     /tmp/ccYIdjbY.s:91556  .debug_str:000000000001728e .LASF4611
     /tmp/ccYIdjbY.s:93788  .debug_str:0000000000020b7b .LASF4612
     /tmp/ccYIdjbY.s:88480  .debug_str:000000000000ae77 .LASF4613
     /tmp/ccYIdjbY.s:101518  .debug_str:00000000000402ef .LASF4614
     /tmp/ccYIdjbY.s:98926  .debug_str:0000000000035a8e .LASF4615
     /tmp/ccYIdjbY.s:90470  .debug_str:0000000000012bf8 .LASF4616
     /tmp/ccYIdjbY.s:98024  .debug_str:0000000000032003 .LASF4617
     /tmp/ccYIdjbY.s:99034  .debug_str:0000000000036126 .LASF4618
     /tmp/ccYIdjbY.s:98368  .debug_str:00000000000337e3 .LASF4619
     /tmp/ccYIdjbY.s:93422  .debug_str:000000000001f3b7 .LASF4620
     /tmp/ccYIdjbY.s:97398  .debug_str:000000000002f58b .LASF4621
     /tmp/ccYIdjbY.s:95974  .debug_str:0000000000029742 .LASF4622
     /tmp/ccYIdjbY.s:93240  .debug_str:000000000001e5e8 .LASF4623
     /tmp/ccYIdjbY.s:95498  .debug_str:0000000000027850 .LASF4624
     /tmp/ccYIdjbY.s:90162  .debug_str:0000000000011795 .LASF4625
     /tmp/ccYIdjbY.s:101940  .debug_str:0000000000041e1b .LASF4626
     /tmp/ccYIdjbY.s:89734  .debug_str:000000000000fb9d .LASF4627
     /tmp/ccYIdjbY.s:92400  .debug_str:000000000001ac61 .LASF4628
     /tmp/ccYIdjbY.s:101186  .debug_str:000000000003ec86 .LASF4629
     /tmp/ccYIdjbY.s:99216  .debug_str:0000000000036a0a .LASF4630
     /tmp/ccYIdjbY.s:104058  .debug_str:000000000004af5f .LASF4631
     /tmp/ccYIdjbY.s:97160  .debug_str:000000000002e683 .LASF4632
     /tmp/ccYIdjbY.s:102092  .debug_str:0000000000042802 .LASF4633
     /tmp/ccYIdjbY.s:89270  .debug_str:000000000000e1af .LASF4634
     /tmp/ccYIdjbY.s:91500  .debug_str:0000000000016efe .LASF4635
     /tmp/ccYIdjbY.s:98506  .debug_str:00000000000340cd .LASF4636
     /tmp/ccYIdjbY.s:95958  .debug_str:000000000002962d .LASF4637
     /tmp/ccYIdjbY.s:96866  .debug_str:000000000002d266 .LASF4638
     /tmp/ccYIdjbY.s:89084  .debug_str:000000000000d6c8 .LASF4639
     /tmp/ccYIdjbY.s:98032  .debug_str:0000000000032084 .LASF4640
     /tmp/ccYIdjbY.s:88168  .debug_str:00000000000098a4 .LASF4641
     /tmp/ccYIdjbY.s:102910  .debug_str:0000000000045e6d .LASF4642
     /tmp/ccYIdjbY.s:91112  .debug_str:000000000001544b .LASF4643
     /tmp/ccYIdjbY.s:92368  .debug_str:000000000001a9ed .LASF4644
     /tmp/ccYIdjbY.s:90318  .debug_str:00000000000121c5 .LASF4645
     /tmp/ccYIdjbY.s:89358  .debug_str:000000000000e5d0 .LASF4646
     /tmp/ccYIdjbY.s:86232  .debug_str:0000000000001376 .LASF4647
     /tmp/ccYIdjbY.s:93232  .debug_str:000000000001e549 .LASF4648
     /tmp/ccYIdjbY.s:102898  .debug_str:0000000000045db5 .LASF4649
     /tmp/ccYIdjbY.s:92524  .debug_str:000000000001b55e .LASF4650
     /tmp/ccYIdjbY.s:100464  .debug_str:000000000003bbb4 .LASF4651
     /tmp/ccYIdjbY.s:91828  .debug_str:0000000000018421 .LASF4652
     /tmp/ccYIdjbY.s:94352  .debug_str:000000000002317a .LASF4653
     /tmp/ccYIdjbY.s:102966  .debug_str:00000000000461e7 .LASF4654
     /tmp/ccYIdjbY.s:91134  .debug_str:00000000000155e7 .LASF4655
     /tmp/ccYIdjbY.s:91626  .debug_str:000000000001775e .LASF4656
     /tmp/ccYIdjbY.s:88898  .debug_str:000000000000cafc .LASF4657
     /tmp/ccYIdjbY.s:103710  .debug_str:00000000000495c1 .LASF4658
     /tmp/ccYIdjbY.s:100008  .debug_str:0000000000039dd5 .LASF4659
     /tmp/ccYIdjbY.s:96232  .debug_str:000000000002a7d4 .LASF4660
     /tmp/ccYIdjbY.s:103896  .debug_str:000000000004a43f .LASF4661
     /tmp/ccYIdjbY.s:94788  .debug_str:0000000000024915 .LASF4662
     /tmp/ccYIdjbY.s:101568  .debug_str:0000000000040683 .LASF4663
     /tmp/ccYIdjbY.s:101168  .debug_str:000000000003eafa .LASF4664
     /tmp/ccYIdjbY.s:102088  .debug_str:0000000000042799 .LASF4665
     /tmp/ccYIdjbY.s:99984  .debug_str:0000000000039c65 .LASF4666
     /tmp/ccYIdjbY.s:90432  .debug_str:00000000000129e9 .LASF4667
     /tmp/ccYIdjbY.s:88198  .debug_str:0000000000009ad3 .LASF4668
     /tmp/ccYIdjbY.s:91174  .debug_str:0000000000015847 .LASF4669
     /tmp/ccYIdjbY.s:90146  .debug_str:000000000001167d .LASF4670
     /tmp/ccYIdjbY.s:95146  .debug_str:000000000002615b .LASF4671
     /tmp/ccYIdjbY.s:88188  .debug_str:0000000000009a1c .LASF4672
     /tmp/ccYIdjbY.s:87390  .debug_str:0000000000006410 .LASF4673
     /tmp/ccYIdjbY.s:103598  .debug_str:0000000000048e1c .LASF4674
     /tmp/ccYIdjbY.s:89602  .debug_str:000000000000f4a8 .LASF4675
     /tmp/ccYIdjbY.s:93850  .debug_str:0000000000020fe7 .LASF4676
     /tmp/ccYIdjbY.s:96736  .debug_str:000000000002c90d .LASF4677
     /tmp/ccYIdjbY.s:96188  .debug_str:000000000002a561 .LASF4678
     /tmp/ccYIdjbY.s:93852  .debug_str:0000000000021014 .LASF4679
     /tmp/ccYIdjbY.s:92588  .debug_str:000000000001b976 .LASF4680
     /tmp/ccYIdjbY.s:88050  .debug_str:0000000000009019 .LASF4681
     /tmp/ccYIdjbY.s:94158  .debug_str:0000000000022435 .LASF4682
     /tmp/ccYIdjbY.s:86180  .debug_str:0000000000000fe7 .LASF4683
     /tmp/ccYIdjbY.s:93638  .debug_str:0000000000020256 .LASF4684
     /tmp/ccYIdjbY.s:90550  .debug_str:0000000000013111 .LASF4685
     /tmp/ccYIdjbY.s:93020  .debug_str:000000000001d65e .LASF4686
     /tmp/ccYIdjbY.s:98474  .debug_str:0000000000033ed1 .LASF4687
     /tmp/ccYIdjbY.s:89530  .debug_str:000000000000f04a .LASF4688
     /tmp/ccYIdjbY.s:95308  .debug_str:0000000000026c00 .LASF4689
     /tmp/ccYIdjbY.s:100954  .debug_str:000000000003dc08 .LASF4690
     /tmp/ccYIdjbY.s:100100  .debug_str:000000000003a3e1 .LASF4691
     /tmp/ccYIdjbY.s:93986  .debug_str:00000000000218e9 .LASF4692
     /tmp/ccYIdjbY.s:99906  .debug_str:000000000003974c .LASF4693
     /tmp/ccYIdjbY.s:102012  .debug_str:000000000004226a .LASF4694
     /tmp/ccYIdjbY.s:94146  .debug_str:0000000000022380 .LASF4695
     /tmp/ccYIdjbY.s:88970  .debug_str:000000000000cfe7 .LASF4696
     /tmp/ccYIdjbY.s:87530  .debug_str:0000000000006e49 .LASF4697
     /tmp/ccYIdjbY.s:100366  .debug_str:000000000003b5a0 .LASF4698
     /tmp/ccYIdjbY.s:94052  .debug_str:0000000000021d85 .LASF4699
     /tmp/ccYIdjbY.s:86040  .debug_str:00000000000006fa .LASF4700
     /tmp/ccYIdjbY.s:90742  .debug_str:0000000000013cf7 .LASF4701
     /tmp/ccYIdjbY.s:101050  .debug_str:000000000003e347 .LASF4702
     /tmp/ccYIdjbY.s:91634  .debug_str:00000000000177ef .LASF4703
     /tmp/ccYIdjbY.s:86766  .debug_str:000000000000391f .LASF4704
     /tmp/ccYIdjbY.s:101790  .debug_str:00000000000414db .LASF4705
     /tmp/ccYIdjbY.s:99452  .debug_str:000000000003777f .LASF4706
     /tmp/ccYIdjbY.s:93074  .debug_str:000000000001da7e .LASF4707
     /tmp/ccYIdjbY.s:99960  .debug_str:0000000000039ae3 .LASF4708
     /tmp/ccYIdjbY.s:100144  .debug_str:000000000003a689 .LASF4709
     /tmp/ccYIdjbY.s:90468  .debug_str:0000000000012bca .LASF4710
     /tmp/ccYIdjbY.s:99834  .debug_str:00000000000391b4 .LASF4711
     /tmp/ccYIdjbY.s:87740  .debug_str:0000000000007b0a .LASF4712
     /tmp/ccYIdjbY.s:87108  .debug_str:000000000000508f .LASF4713
     /tmp/ccYIdjbY.s:96446  .debug_str:000000000002b4f0 .LASF4714
     /tmp/ccYIdjbY.s:88292  .debug_str:000000000000a167 .LASF4715
     /tmp/ccYIdjbY.s:90016  .debug_str:0000000000010d2a .LASF4716
     /tmp/ccYIdjbY.s:100810  .debug_str:000000000003d1b9 .LASF4717
     /tmp/ccYIdjbY.s:86216  .debug_str:000000000000125b .LASF4718
     /tmp/ccYIdjbY.s:96936  .debug_str:000000000002d6c2 .LASF4719
     /tmp/ccYIdjbY.s:89836  .debug_str:000000000001018e .LASF4720
     /tmp/ccYIdjbY.s:87600  .debug_str:00000000000072a1 .LASF4721
     /tmp/ccYIdjbY.s:98244  .debug_str:0000000000032f8e .LASF4722
     /tmp/ccYIdjbY.s:99794  .debug_str:0000000000038ee1 .LASF4723
     /tmp/ccYIdjbY.s:88040  .debug_str:0000000000008f9f .LASF4724
     /tmp/ccYIdjbY.s:94768  .debug_str:00000000000247b3 .LASF4725
     /tmp/ccYIdjbY.s:94928  .debug_str:00000000000252cc .LASF4726
     /tmp/ccYIdjbY.s:96524  .debug_str:000000000002ba5f .LASF4727
     /tmp/ccYIdjbY.s:90382  .debug_str:00000000000126ad .LASF4728
     /tmp/ccYIdjbY.s:94772  .debug_str:00000000000247ef .LASF4729
     /tmp/ccYIdjbY.s:87644  .debug_str:0000000000007557 .LASF4730
     /tmp/ccYIdjbY.s:104030  .debug_str:000000000004ad9b .LASF4731
     /tmp/ccYIdjbY.s:88934  .debug_str:000000000000cd64 .LASF4732
     /tmp/ccYIdjbY.s:98962  .debug_str:0000000000035d17 .LASF4733
     /tmp/ccYIdjbY.s:92884  .debug_str:000000000001cd92 .LASF4734
     /tmp/ccYIdjbY.s:101102  .debug_str:000000000003e650 .LASF4735
     /tmp/ccYIdjbY.s:93790  .debug_str:0000000000020bb3 .LASF4736
     /tmp/ccYIdjbY.s:88802  .debug_str:000000000000c4d0 .LASF4737
     /tmp/ccYIdjbY.s:86714  .debug_str:000000000000351f .LASF4738
     /tmp/ccYIdjbY.s:100198  .debug_str:000000000003aa32 .LASF4739
     /tmp/ccYIdjbY.s:90420  .debug_str:000000000001293f .LASF4740
     /tmp/ccYIdjbY.s:95050  .debug_str:0000000000025abc .LASF4741
     /tmp/ccYIdjbY.s:99582  .debug_str:000000000003809c .LASF4742
     /tmp/ccYIdjbY.s:88768  .debug_str:000000000000c249 .LASF4743
     /tmp/ccYIdjbY.s:91620  .debug_str:00000000000176f3 .LASF4744
     /tmp/ccYIdjbY.s:97956  .debug_str:0000000000031bf9 .LASF4745
     /tmp/ccYIdjbY.s:96242  .debug_str:000000000002a88b .LASF4746
     /tmp/ccYIdjbY.s:91528  .debug_str:00000000000170b1 .LASF4747
     /tmp/ccYIdjbY.s:95360  .debug_str:0000000000026f68 .LASF4748
     /tmp/ccYIdjbY.s:103014  .debug_str:00000000000464cd .LASF4749
     /tmp/ccYIdjbY.s:102958  .debug_str:0000000000046143 .LASF4750
     /tmp/ccYIdjbY.s:92220  .debug_str:0000000000019fe0 .LASF4751
     /tmp/ccYIdjbY.s:100114  .debug_str:000000000003a493 .LASF4752
     /tmp/ccYIdjbY.s:94904  .debug_str:0000000000025150 .LASF4753
     /tmp/ccYIdjbY.s:103200  .debug_str:00000000000471c2 .LASF4754
     /tmp/ccYIdjbY.s:92706  .debug_str:000000000001c0c2 .LASF4755
     /tmp/ccYIdjbY.s:94258  .debug_str:0000000000022b90 .LASF4756
     /tmp/ccYIdjbY.s:98884  .debug_str:00000000000358a1 .LASF4757
     /tmp/ccYIdjbY.s:91834  .debug_str:00000000000184a7 .LASF4758
     /tmp/ccYIdjbY.s:90398  .debug_str:0000000000012782 .LASF4759
     /tmp/ccYIdjbY.s:94538  .debug_str:0000000000023b99 .LASF4760
     /tmp/ccYIdjbY.s:86228  .debug_str:0000000000001326 .LASF4761
     /tmp/ccYIdjbY.s:101158  .debug_str:000000000003ea42 .LASF4762
     /tmp/ccYIdjbY.s:100052  .debug_str:000000000003a0f5 .LASF4763
     /tmp/ccYIdjbY.s:91884  .debug_str:00000000000187ff .LASF4764
     /tmp/ccYIdjbY.s:92558  .debug_str:000000000001b778 .LASF4765
     /tmp/ccYIdjbY.s:95010  .debug_str:00000000000257c7 .LASF4766
     /tmp/ccYIdjbY.s:98620  .debug_str:0000000000034852 .LASF4767
     /tmp/ccYIdjbY.s:86060  .debug_str:0000000000000825 .LASF4768
     /tmp/ccYIdjbY.s:93400  .debug_str:000000000001f26f .LASF4769
     /tmp/ccYIdjbY.s:89724  .debug_str:000000000000facf .LASF4770
     /tmp/ccYIdjbY.s:101644  .debug_str:0000000000040b0a .LASF4771
     /tmp/ccYIdjbY.s:90154  .debug_str:00000000000116fd .LASF4772
     /tmp/ccYIdjbY.s:98186  .debug_str:0000000000032b53 .LASF4773
     /tmp/ccYIdjbY.s:92250  .debug_str:000000000001a1e0 .LASF4774
     /tmp/ccYIdjbY.s:94226  .debug_str:000000000002294d .LASF4775
     /tmp/ccYIdjbY.s:100896  .debug_str:000000000003d7fb .LASF4776
     /tmp/ccYIdjbY.s:86132  .debug_str:0000000000000c6c .LASF4777
     /tmp/ccYIdjbY.s:91996  .debug_str:0000000000018fb8 .LASF4778
     /tmp/ccYIdjbY.s:93844  .debug_str:0000000000020f55 .LASF4779
     /tmp/ccYIdjbY.s:91188  .debug_str:000000000001593e .LASF4780
     /tmp/ccYIdjbY.s:98686  .debug_str:0000000000034c3f .LASF4781
     /tmp/ccYIdjbY.s:103180  .debug_str:0000000000047084 .LASF4782
     /tmp/ccYIdjbY.s:98560  .debug_str:00000000000343f7 .LASF4783
     /tmp/ccYIdjbY.s:92590  .debug_str:000000000001b99e .LASF4784
     /tmp/ccYIdjbY.s:92832  .debug_str:000000000001c9ef .LASF4785
     /tmp/ccYIdjbY.s:94888  .debug_str:0000000000025057 .LASF4786
     /tmp/ccYIdjbY.s:100372  .debug_str:000000000003b607 .LASF4787
     /tmp/ccYIdjbY.s:87174  .debug_str:000000000000557d .LASF4788
     /tmp/ccYIdjbY.s:99408  .debug_str:0000000000037428 .LASF4789
     /tmp/ccYIdjbY.s:97888  .debug_str:000000000003179b .LASF4790
     /tmp/ccYIdjbY.s:98856  .debug_str:00000000000356e1 .LASF4791
     /tmp/ccYIdjbY.s:102420  .debug_str:0000000000043cab .LASF4792
     /tmp/ccYIdjbY.s:92932  .debug_str:000000000001d0e3 .LASF4793
     /tmp/ccYIdjbY.s:100220  .debug_str:000000000003aba6 .LASF4794
     /tmp/ccYIdjbY.s:94474  .debug_str:00000000000237f2 .LASF4795
     /tmp/ccYIdjbY.s:88962  .debug_str:000000000000cf54 .LASF4796
     /tmp/ccYIdjbY.s:89738  .debug_str:000000000000fbd6 .LASF4797
     /tmp/ccYIdjbY.s:94608  .debug_str:0000000000023ed4 .LASF4798
     /tmp/ccYIdjbY.s:86558  .debug_str:0000000000002abe .LASF4799
     /tmp/ccYIdjbY.s:96594  .debug_str:000000000002bf44 .LASF4800
     /tmp/ccYIdjbY.s:100288  .debug_str:000000000003b079 .LASF4801
     /tmp/ccYIdjbY.s:95952  .debug_str:00000000000295cb .LASF4802
     /tmp/ccYIdjbY.s:86730  .debug_str:0000000000003632 .LASF4803
     /tmp/ccYIdjbY.s:88254  .debug_str:0000000000009e41 .LASF4804
     /tmp/ccYIdjbY.s:99520  .debug_str:0000000000037c2b .LASF4805
     /tmp/ccYIdjbY.s:87522  .debug_str:0000000000006da8 .LASF4806
     /tmp/ccYIdjbY.s:88386  .debug_str:000000000000a78e .LASF4807
     /tmp/ccYIdjbY.s:102802  .debug_str:0000000000045733 .LASF4808
     /tmp/ccYIdjbY.s:103396  .debug_str:0000000000047f9f .LASF4809
     /tmp/ccYIdjbY.s:104268  .debug_str:000000000004bd84 .LASF4810
     /tmp/ccYIdjbY.s:101500  .debug_str:00000000000401e4 .LASF4811
     /tmp/ccYIdjbY.s:88118  .debug_str:00000000000095c3 .LASF4812
     /tmp/ccYIdjbY.s:97966  .debug_str:0000000000031c82 .LASF4813
     /tmp/ccYIdjbY.s:99572  .debug_str:0000000000037fd9 .LASF4814
     /tmp/ccYIdjbY.s:103020  .debug_str:0000000000046545 .LASF4815
     /tmp/ccYIdjbY.s:89774  .debug_str:000000000000fdf0 .LASF4816
     /tmp/ccYIdjbY.s:86854  .debug_str:0000000000003f2a .LASF4817
     /tmp/ccYIdjbY.s:99410  .debug_str:000000000003745c .LASF4818
     /tmp/ccYIdjbY.s:98164  .debug_str:00000000000329c8 .LASF4819
     /tmp/ccYIdjbY.s:97480  .debug_str:000000000002fac9 .LASF4820
     /tmp/ccYIdjbY.s:96912  .debug_str:000000000002d552 .LASF4821
     /tmp/ccYIdjbY.s:89092  .debug_str:000000000000d73f .LASF4822
     /tmp/ccYIdjbY.s:93128  .debug_str:000000000001de66 .LASF4823
     /tmp/ccYIdjbY.s:95418  .debug_str:00000000000273e2 .LASF4824
     /tmp/ccYIdjbY.s:102894  .debug_str:0000000000045d78 .LASF4825
     /tmp/ccYIdjbY.s:102010  .debug_str:0000000000042246 .LASF4826
     /tmp/ccYIdjbY.s:98782  .debug_str:0000000000035215 .LASF4827
     /tmp/ccYIdjbY.s:102646  .debug_str:0000000000044c17 .LASF4828
     /tmp/ccYIdjbY.s:91640  .debug_str:0000000000017883 .LASF4829
     /tmp/ccYIdjbY.s:103104  .debug_str:0000000000046aa8 .LASF4830
     /tmp/ccYIdjbY.s:86328  .debug_str:00000000000019e1 .LASF4831
     /tmp/ccYIdjbY.s:90622  .debug_str:000000000001355e .LASF4832
     /tmp/ccYIdjbY.s:101344  .debug_str:000000000003f642 .LASF4833
     /tmp/ccYIdjbY.s:87070  .debug_str:0000000000004e79 .LASF4834
     /tmp/ccYIdjbY.s:94012  .debug_str:0000000000021a98 .LASF4835
     /tmp/ccYIdjbY.s:99096  .debug_str:00000000000363b6 .LASF4836
     /tmp/ccYIdjbY.s:97738  .debug_str:0000000000030d53 .LASF4837
     /tmp/ccYIdjbY.s:103378  .debug_str:0000000000047e6e .LASF4838
     /tmp/ccYIdjbY.s:94150  .debug_str:00000000000223c3 .LASF4839
     /tmp/ccYIdjbY.s:91456  .debug_str:0000000000016c6e .LASF4840
     /tmp/ccYIdjbY.s:102656  .debug_str:0000000000044cf3 .LASF4841
     /tmp/ccYIdjbY.s:93026  .debug_str:000000000001d6e6 .LASF4842
     /tmp/ccYIdjbY.s:87976  .debug_str:0000000000008b38 .LASF4843
     /tmp/ccYIdjbY.s:100898  .debug_str:000000000003d82f .LASF4844
     /tmp/ccYIdjbY.s:95964  .debug_str:0000000000029693 .LASF4845
     /tmp/ccYIdjbY.s:93928  .debug_str:000000000002151d .LASF4846
     /tmp/ccYIdjbY.s:87094  .debug_str:0000000000004fa1 .LASF4847
     /tmp/ccYIdjbY.s:86886  .debug_str:00000000000041d5 .LASF4848
     /tmp/ccYIdjbY.s:97734  .debug_str:0000000000030d23 .LASF4849
     /tmp/ccYIdjbY.s:92576  .debug_str:000000000001b8b9 .LASF4850
     /tmp/ccYIdjbY.s:104134  .debug_str:000000000004b454 .LASF4851
     /tmp/ccYIdjbY.s:87672  .debug_str:0000000000007726 .LASF4852
     /tmp/ccYIdjbY.s:102476  .debug_str:0000000000044119 .LASF4853
     /tmp/ccYIdjbY.s:98374  .debug_str:000000000003383b .LASF4854
     /tmp/ccYIdjbY.s:93726  .debug_str:000000000002075b .LASF4855
     /tmp/ccYIdjbY.s:100164  .debug_str:000000000003a7f7 .LASF4856
     /tmp/ccYIdjbY.s:102102  .debug_str:00000000000428c7 .LASF4857
     /tmp/ccYIdjbY.s:92748  .debug_str:000000000001c3a6 .LASF4858
     /tmp/ccYIdjbY.s:102696  .debug_str:0000000000044f78 .LASF4859
     /tmp/ccYIdjbY.s:104272  .debug_str:000000000004bdf7 .LASF4860
     /tmp/ccYIdjbY.s:86288  .debug_str:0000000000001723 .LASF4861
     /tmp/ccYIdjbY.s:103578  .debug_str:0000000000048ca3 .LASF4862
     /tmp/ccYIdjbY.s:92186  .debug_str:0000000000019de3 .LASF4863
     /tmp/ccYIdjbY.s:102530  .debug_str:00000000000444c2 .LASF4864
     /tmp/ccYIdjbY.s:96268  .debug_str:000000000002aa68 .LASF4865
     /tmp/ccYIdjbY.s:89054  .debug_str:000000000000d49b .LASF4866
     /tmp/ccYIdjbY.s:94682  .debug_str:0000000000024241 .LASF4867
     /tmp/ccYIdjbY.s:93632  .debug_str:00000000000201ce .LASF4868
     /tmp/ccYIdjbY.s:99720  .debug_str:00000000000389e0 .LASF4869
     /tmp/ccYIdjbY.s:98430  .debug_str:0000000000033beb .LASF4870
     /tmp/ccYIdjbY.s:92804  .debug_str:000000000001c7d1 .LASF4871
     /tmp/ccYIdjbY.s:98538  .debug_str:0000000000034302 .LASF4872
     /tmp/ccYIdjbY.s:91098  .debug_str:00000000000153bd .LASF4873
     /tmp/ccYIdjbY.s:96420  .debug_str:000000000002b334 .LASF4874
     /tmp/ccYIdjbY.s:96748  .debug_str:000000000002c9ef .LASF4875
     /tmp/ccYIdjbY.s:97180  .debug_str:000000000002e7e8 .LASF4876
     /tmp/ccYIdjbY.s:95916  .debug_str:00000000000292b6 .LASF4877
     /tmp/ccYIdjbY.s:100482  .debug_str:000000000003bcd2 .LASF4878
     /tmp/ccYIdjbY.s:87114  .debug_str:00000000000050e4 .LASF4879
     /tmp/ccYIdjbY.s:89888  .debug_str:00000000000104d6 .LASF4880
     /tmp/ccYIdjbY.s:89070  .debug_str:000000000000d5a3 .LASF4881
     /tmp/ccYIdjbY.s:90360  .debug_str:0000000000012470 .LASF4882
     /tmp/ccYIdjbY.s:87890  .debug_str:0000000000008593 .LASF4883
     /tmp/ccYIdjbY.s:98752  .debug_str:0000000000034ff3 .LASF4884
     /tmp/ccYIdjbY.s:86346  .debug_str:0000000000001b50 .LASF4885
     /tmp/ccYIdjbY.s:90078  .debug_str:000000000001115d .LASF4886
     /tmp/ccYIdjbY.s:95638  .debug_str:00000000000281a1 .LASF4887
     /tmp/ccYIdjbY.s:93750  .debug_str:000000000002094f .LASF4888
     /tmp/ccYIdjbY.s:94734  .debug_str:00000000000245bd .LASF4889
     /tmp/ccYIdjbY.s:97662  .debug_str:0000000000030842 .LASF4890
     /tmp/ccYIdjbY.s:92018  .debug_str:0000000000019152 .LASF4891
     /tmp/ccYIdjbY.s:102478  .debug_str:0000000000044141 .LASF4892
     /tmp/ccYIdjbY.s:102892  .debug_str:0000000000045d54 .LASF4893
     /tmp/ccYIdjbY.s:97970  .debug_str:0000000000031cde .LASF4894
     /tmp/ccYIdjbY.s:96846  .debug_str:000000000002d0c5 .LASF4895
     /tmp/ccYIdjbY.s:87358  .debug_str:00000000000061e2 .LASF4896
     /tmp/ccYIdjbY.s:89220  .debug_str:000000000000ded9 .LASF4897
     /tmp/ccYIdjbY.s:103160  .debug_str:0000000000046e9f .LASF4898
     /tmp/ccYIdjbY.s:93082  .debug_str:000000000001db22 .LASF4899
     /tmp/ccYIdjbY.s:95204  .debug_str:00000000000264b3 .LASF4900
     /tmp/ccYIdjbY.s:98526  .debug_str:0000000000034247 .LASF4901
     /tmp/ccYIdjbY.s:94780  .debug_str:000000000002488b .LASF4902
     /tmp/ccYIdjbY.s:88716  .debug_str:000000000000be9a .LASF4903
     /tmp/ccYIdjbY.s:97748  .debug_str:0000000000030e10 .LASF4904
     /tmp/ccYIdjbY.s:97548  .debug_str:0000000000030038 .LASF4905
     /tmp/ccYIdjbY.s:92408  .debug_str:000000000001ad2c .LASF4906
     /tmp/ccYIdjbY.s:94024  .debug_str:0000000000021ba3 .LASF4907
     /tmp/ccYIdjbY.s:103176  .debug_str:0000000000047030 .LASF4908
     /tmp/ccYIdjbY.s:100362  .debug_str:000000000003b553 .LASF4909
     /tmp/ccYIdjbY.s:95148  .debug_str:000000000002618b .LASF4910
     /tmp/ccYIdjbY.s:103808  .debug_str:0000000000049e17 .LASF4911
     /tmp/ccYIdjbY.s:100296  .debug_str:000000000003b122 .LASF4912
     /tmp/ccYIdjbY.s:87250  .debug_str:0000000000005aa4 .LASF4913
     /tmp/ccYIdjbY.s:91034  .debug_str:000000000001500b .LASF4914
     /tmp/ccYIdjbY.s:95968  .debug_str:00000000000296f4 .LASF4915
     /tmp/ccYIdjbY.s:87086  .debug_str:0000000000004f2b .LASF4916
     /tmp/ccYIdjbY.s:93620  .debug_str:00000000000200ee .LASF4917
     /tmp/ccYIdjbY.s:91836  .debug_str:00000000000184d8 .LASF4918
     /tmp/ccYIdjbY.s:90142  .debug_str:000000000001162d .LASF4919
     /tmp/ccYIdjbY.s:94198  .debug_str:0000000000022738 .LASF4920
     /tmp/ccYIdjbY.s:96472  .debug_str:000000000002b6ac .LASF4921
     /tmp/ccYIdjbY.s:103172  .debug_str:0000000000046fbe .LASF4922
     /tmp/ccYIdjbY.s:101222  .debug_str:000000000003eeeb .LASF4923
     /tmp/ccYIdjbY.s:88338  .debug_str:000000000000a465 .LASF4924
     /tmp/ccYIdjbY.s:95538  .debug_str:0000000000027ad0 .LASF4925
     /tmp/ccYIdjbY.s:103008  .debug_str:0000000000046477 .LASF4926
     /tmp/ccYIdjbY.s:93802  .debug_str:0000000000020c93 .LASF4927
     /tmp/ccYIdjbY.s:91192  .debug_str:000000000001598d .LASF4928
     /tmp/ccYIdjbY.s:90268  .debug_str:0000000000011e92 .LASF4929
     /tmp/ccYIdjbY.s:99302  .debug_str:0000000000036edc .LASF4930
     /tmp/ccYIdjbY.s:101892  .debug_str:0000000000041b30 .LASF4931
     /tmp/ccYIdjbY.s:87486  .debug_str:0000000000006b56 .LASF4932
     /tmp/ccYIdjbY.s:99762  .debug_str:0000000000038c42 .LASF4933
     /tmp/ccYIdjbY.s:102242  .debug_str:0000000000043118 .LASF4934
     /tmp/ccYIdjbY.s:98110  .debug_str:00000000000325fe .LASF4935
     /tmp/ccYIdjbY.s:90534  .debug_str:0000000000012fe3 .LASF4936
     /tmp/ccYIdjbY.s:88114  .debug_str:0000000000009580 .LASF4937
     /tmp/ccYIdjbY.s:102240  .debug_str:00000000000430f1 .LASF4938
     /tmp/ccYIdjbY.s:100782  .debug_str:000000000003d03b .LASF4939
     /tmp/ccYIdjbY.s:97530  .debug_str:000000000002fe80 .LASF4940
     /tmp/ccYIdjbY.s:88166  .debug_str:0000000000009877 .LASF4941
     /tmp/ccYIdjbY.s:96928  .debug_str:000000000002d635 .LASF4942
     /tmp/ccYIdjbY.s:100292  .debug_str:000000000003b0e4 .LASF4943
     /tmp/ccYIdjbY.s:90588  .debug_str:0000000000013329 .LASF4944
     /tmp/ccYIdjbY.s:99218  .debug_str:0000000000036a31 .LASF4945
     /tmp/ccYIdjbY.s:89936  .debug_str:0000000000010887 .LASF4946
     /tmp/ccYIdjbY.s:94246  .debug_str:0000000000022abe .LASF4947
     /tmp/ccYIdjbY.s:92294  .debug_str:000000000001a46f .LASF4948
     /tmp/ccYIdjbY.s:102238  .debug_str:00000000000430c3 .LASF4949
     /tmp/ccYIdjbY.s:87810  .debug_str:0000000000007ffd .LASF4950
     /tmp/ccYIdjbY.s:102084  .debug_str:000000000004275a .LASF4951
     /tmp/ccYIdjbY.s:88628  .debug_str:000000000000b937 .LASF4952
     /tmp/ccYIdjbY.s:102524  .debug_str:000000000004444d .LASF4953
     /tmp/ccYIdjbY.s:94510  .debug_str:0000000000023a01 .LASF4954
     /tmp/ccYIdjbY.s:93626  .debug_str:0000000000020178 .LASF4955
     /tmp/ccYIdjbY.s:90122  .debug_str:0000000000011488 .LASF4956
     /tmp/ccYIdjbY.s:99514  .debug_str:0000000000037bba .LASF4957
     /tmp/ccYIdjbY.s:97810  .debug_str:0000000000031264 .LASF4958
     /tmp/ccYIdjbY.s:99628  .debug_str:000000000003836c .LASF4959
     /tmp/ccYIdjbY.s:103802  .debug_str:0000000000049daa .LASF4960
     /tmp/ccYIdjbY.s:97216  .debug_str:000000000002ea52 .LASF4961
     /tmp/ccYIdjbY.s:88478  .debug_str:000000000000ae47 .LASF4962
     /tmp/ccYIdjbY.s:102994  .debug_str:00000000000463c0 .LASF4963
     /tmp/ccYIdjbY.s:101752  .debug_str:000000000004124e .LASF4964
     /tmp/ccYIdjbY.s:103196  .debug_str:0000000000047189 .LASF4965
     /tmp/ccYIdjbY.s:93256  .debug_str:000000000001e772 .LASF4966
     /tmp/ccYIdjbY.s:101132  .debug_str:000000000003e883 .LASF4967
     /tmp/ccYIdjbY.s:91558  .debug_str:00000000000172c6 .LASF4968
     /tmp/ccYIdjbY.s:98722  .debug_str:0000000000034edb .LASF4969
     /tmp/ccYIdjbY.s:88556  .debug_str:000000000000b3f3 .LASF4970
     /tmp/ccYIdjbY.s:87496  .debug_str:0000000000006c17 .LASF4971
     /tmp/ccYIdjbY.s:93650  .debug_str:000000000002032e .LASF4972
     /tmp/ccYIdjbY.s:98328  .debug_str:000000000003356f .LASF4973
     /tmp/ccYIdjbY.s:90254  .debug_str:0000000000011d93 .LASF4974
     /tmp/ccYIdjbY.s:99188  .debug_str:00000000000368ad .LASF4975
     /tmp/ccYIdjbY.s:94584  .debug_str:0000000000023d5e .LASF4976
     /tmp/ccYIdjbY.s:99828  .debug_str:000000000003915c .LASF4977
     /tmp/ccYIdjbY.s:95594  .debug_str:0000000000027e7d .LASF4978
     /tmp/ccYIdjbY.s:97284  .debug_str:000000000002ee51 .LASF4979
     /tmp/ccYIdjbY.s:88094  .debug_str:000000000000939a .LASF4980
     /tmp/ccYIdjbY.s:90288  .debug_str:0000000000011fe6 .LASF4981
     /tmp/ccYIdjbY.s:96064  .debug_str:0000000000029cf3 .LASF4982
     /tmp/ccYIdjbY.s:101838  .debug_str:00000000000417d9 .LASF4983
     /tmp/ccYIdjbY.s:89058  .debug_str:000000000000d4d2 .LASF4984
     /tmp/ccYIdjbY.s:94864  .debug_str:0000000000024e66 .LASF4985
     /tmp/ccYIdjbY.s:86208  .debug_str:00000000000011da .LASF4986
     /tmp/ccYIdjbY.s:87802  .debug_str:0000000000007f79 .LASF4987
     /tmp/ccYIdjbY.s:89384  .debug_str:000000000000e7d8 .LASF4988
     /tmp/ccYIdjbY.s:87772  .debug_str:0000000000007d25 .LASF4989
     /tmp/ccYIdjbY.s:90350  .debug_str:00000000000123dc .LASF4990
     /tmp/ccYIdjbY.s:92444  .debug_str:000000000001af3f .LASF4991
     /tmp/ccYIdjbY.s:93276  .debug_str:000000000001e903 .LASF4992
     /tmp/ccYIdjbY.s:97412  .debug_str:000000000002f684 .LASF4993
     /tmp/ccYIdjbY.s:98022  .debug_str:0000000000031fcd .LASF4994
     /tmp/ccYIdjbY.s:102586  .debug_str:0000000000044840 .LASF4995
     /tmp/ccYIdjbY.s:103846  .debug_str:000000000004a073 .LASF4996
     /tmp/ccYIdjbY.s:103426  .debug_str:00000000000481c8 .LASF4997
     /tmp/ccYIdjbY.s:86870  .debug_str:0000000000004052 .LASF4998
     /tmp/ccYIdjbY.s:87406  .debug_str:0000000000006527 .LASF4999
     /tmp/ccYIdjbY.s:100082  .debug_str:000000000003a2f2 .LASF5000
     /tmp/ccYIdjbY.s:97566  .debug_str:000000000003016b .LASF5001
     /tmp/ccYIdjbY.s:95662  .debug_str:0000000000028359 .LASF5002
     /tmp/ccYIdjbY.s:94404  .debug_str:000000000002344c .LASF5003
     /tmp/ccYIdjbY.s:86696  .debug_str:0000000000003404 .LASF5004
     /tmp/ccYIdjbY.s:90372  .debug_str:000000000001258c .LASF5005
     /tmp/ccYIdjbY.s:96348  .debug_str:000000000002af0b .LASF5006
     /tmp/ccYIdjbY.s:94534  .debug_str:0000000000023b62 .LASF5007
     /tmp/ccYIdjbY.s:91226  .debug_str:0000000000015c2a .LASF5008
     /tmp/ccYIdjbY.s:91152  .debug_str:0000000000015747 .LASF5009
     /tmp/ccYIdjbY.s:92234  .debug_str:000000000001a0b8 .LASF5010
     /tmp/ccYIdjbY.s:96262  .debug_str:000000000002a9d1 .LASF5011
     /tmp/ccYIdjbY.s:95138  .debug_str:00000000000260b0 .LASF5012
     /tmp/ccYIdjbY.s:90500  .debug_str:0000000000012dbc .LASF5013
     /tmp/ccYIdjbY.s:98120  .debug_str:000000000003267b .LASF5014
     /tmp/ccYIdjbY.s:99180  .debug_str:0000000000036826 .LASF5015
     /tmp/ccYIdjbY.s:94350  .debug_str:000000000002314a .LASF5016
     /tmp/ccYIdjbY.s:100130  .debug_str:000000000003a589 .LASF5017
     /tmp/ccYIdjbY.s:87400  .debug_str:00000000000064d7 .LASF5018
     /tmp/ccYIdjbY.s:98952  .debug_str:0000000000035c5b .LASF5019
     /tmp/ccYIdjbY.s:87134  .debug_str:000000000000523a .LASF5020
     /tmp/ccYIdjbY.s:92850  .debug_str:000000000001cb0c .LASF5021
     /tmp/ccYIdjbY.s:102542  .debug_str:000000000004458f .LASF5022
     /tmp/ccYIdjbY.s:100148  .debug_str:000000000003a6d0 .LASF5023
     /tmp/ccYIdjbY.s:92488  .debug_str:000000000001b242 .LASF5024
     /tmp/ccYIdjbY.s:91212  .debug_str:0000000000015b03 .LASF5025
     /tmp/ccYIdjbY.s:98618  .debug_str:0000000000034819 .LASF5026
     /tmp/ccYIdjbY.s:102486  .debug_str:00000000000441be .LASF5027
     /tmp/ccYIdjbY.s:88520  .debug_str:000000000000b154 .LASF5028
     /tmp/ccYIdjbY.s:97014  .debug_str:000000000002dc47 .LASF5029
     /tmp/ccYIdjbY.s:86148  .debug_str:0000000000000d98 .LASF5030
     /tmp/ccYIdjbY.s:103416  .debug_str:000000000004811c .LASF5031
     /tmp/ccYIdjbY.s:89840  .debug_str:00000000000101d0 .LASF5032
     /tmp/ccYIdjbY.s:88598  .debug_str:000000000000b71e .LASF5033
     /tmp/ccYIdjbY.s:95014  .debug_str:00000000000257fa .LASF5034
     /tmp/ccYIdjbY.s:91420  .debug_str:0000000000016986 .LASF5035
     /tmp/ccYIdjbY.s:87002  .debug_str:0000000000004959 .LASF5036
     /tmp/ccYIdjbY.s:86990  .debug_str:0000000000004892 .LASF5037
     /tmp/ccYIdjbY.s:92580  .debug_str:000000000001b8ec .LASF5038
     /tmp/ccYIdjbY.s:87570  .debug_str:000000000000707c .LASF5039
     /tmp/ccYIdjbY.s:102020  .debug_str:00000000000422fd .LASF5040
     /tmp/ccYIdjbY.s:103516  .debug_str:00000000000487dd .LASF5041
     /tmp/ccYIdjbY.s:90886  .debug_str:00000000000145e1 .LASF5042
     /tmp/ccYIdjbY.s:95514  .debug_str:000000000002797c .LASF5043
     /tmp/ccYIdjbY.s:91424  .debug_str:00000000000169e7 .LASF5044
     /tmp/ccYIdjbY.s:99484  .debug_str:0000000000037984 .LASF5045
     /tmp/ccYIdjbY.s:103042  .debug_str:00000000000466ae .LASF5046
     /tmp/ccYIdjbY.s:101632  .debug_str:0000000000040a62 .LASF5047
     /tmp/ccYIdjbY.s:95028  .debug_str:00000000000258bd .LASF5048
     /tmp/ccYIdjbY.s:92496  .debug_str:000000000001b2c4 .LASF5049
     /tmp/ccYIdjbY.s:98238  .debug_str:0000000000032f02 .LASF5050
     /tmp/ccYIdjbY.s:102750  .debug_str:0000000000045370 .LASF5051
     /tmp/ccYIdjbY.s:103546  .debug_str:00000000000489e8 .LASF5052
     /tmp/ccYIdjbY.s:93238  .debug_str:000000000001e5b3 .LASF5053
     /tmp/ccYIdjbY.s:98974  .debug_str:0000000000035dc3 .LASF5054
     /tmp/ccYIdjbY.s:94144  .debug_str:0000000000022353 .LASF5055
     /tmp/ccYIdjbY.s:92760  .debug_str:000000000001c4a2 .LASF5056
     /tmp/ccYIdjbY.s:103224  .debug_str:000000000004738d .LASF5057
     /tmp/ccYIdjbY.s:103866  .debug_str:000000000004a218 .LASF5058
     /tmp/ccYIdjbY.s:103814  .debug_str:0000000000049e69 .LASF5059
     /tmp/ccYIdjbY.s:99756  .debug_str:0000000000038baf .LASF5060
     /tmp/ccYIdjbY.s:95220  .debug_str:00000000000265bf .LASF5061
     /tmp/ccYIdjbY.s:95654  .debug_str:000000000002827f .LASF5062
     /tmp/ccYIdjbY.s:103750  .debug_str:000000000004994d .LASF5063
     /tmp/ccYIdjbY.s:92610  .debug_str:000000000001baf1 .LASF5064
     /tmp/ccYIdjbY.s:101666  .debug_str:0000000000040cbb .LASF5065
     /tmp/ccYIdjbY.s:94316  .debug_str:0000000000022e35 .LASF5066
     /tmp/ccYIdjbY.s:98146  .debug_str:0000000000032853 .LASF5067
     /tmp/ccYIdjbY.s:95976  .debug_str:0000000000029769 .LASF5068
     /tmp/ccYIdjbY.s:91808  .debug_str:00000000000182a8 .LASF5069
     /tmp/ccYIdjbY.s:96630  .debug_str:000000000002c16d .LASF5070
     /tmp/ccYIdjbY.s:93932  .debug_str:000000000002155c .LASF5071
     /tmp/ccYIdjbY.s:100632  .debug_str:000000000003c718 .LASF5072
     /tmp/ccYIdjbY.s:100178  .debug_str:000000000003a8df .LASF5073
     /tmp/ccYIdjbY.s:89846  .debug_str:0000000000010276 .LASF5074
     /tmp/ccYIdjbY.s:88550  .debug_str:000000000000b380 .LASF5075
     /tmp/ccYIdjbY.s:99902  .debug_str:0000000000039712 .LASF5076
     /tmp/ccYIdjbY.s:90592  .debug_str:000000000001339f .LASF5077
     /tmp/ccYIdjbY.s:97146  .debug_str:000000000002e561 .LASF5078
     /tmp/ccYIdjbY.s:95782  .debug_str:0000000000028ab8 .LASF5079
     /tmp/ccYIdjbY.s:100218  .debug_str:000000000003ab84 .LASF5080
     /tmp/ccYIdjbY.s:98602  .debug_str:00000000000346f3 .LASF5081
     /tmp/ccYIdjbY.s:98768  .debug_str:0000000000035113 .LASF5082
     /tmp/ccYIdjbY.s:96098  .debug_str:0000000000029f53 .LASF5083
     /tmp/ccYIdjbY.s:101664  .debug_str:0000000000040c8e .LASF5084
     /tmp/ccYIdjbY.s:102312  .debug_str:00000000000435d9 .LASF5085
     /tmp/ccYIdjbY.s:97676  .debug_str:0000000000030967 .LASF5086
     /tmp/ccYIdjbY.s:89450  .debug_str:000000000000eb35 .LASF5087
     /tmp/ccYIdjbY.s:101064  .debug_str:000000000003e3f3 .LASF5088
     /tmp/ccYIdjbY.s:103536  .debug_str:0000000000048934 .LASF5089
     /tmp/ccYIdjbY.s:94820  .debug_str:0000000000024b84 .LASF5090
     /tmp/ccYIdjbY.s:91772  .debug_str:0000000000018089 .LASF5091
     /tmp/ccYIdjbY.s:99276  .debug_str:0000000000036d38 .LASF5092
     /tmp/ccYIdjbY.s:103490  .debug_str:00000000000485f8 .LASF5093
     /tmp/ccYIdjbY.s:96450  .debug_str:000000000002b534 .LASF5094
     /tmp/ccYIdjbY.s:89322  .debug_str:000000000000e3d4 .LASF5095
     /tmp/ccYIdjbY.s:91400  .debug_str:0000000000016849 .LASF5096
     /tmp/ccYIdjbY.s:103910  .debug_str:000000000004a559 .LASF5097
     /tmp/ccYIdjbY.s:87656  .debug_str:0000000000007608 .LASF5098
     /tmp/ccYIdjbY.s:97438  .debug_str:000000000002f811 .LASF5099
     /tmp/ccYIdjbY.s:86818  .debug_str:0000000000003c70 .LASF5100
     /tmp/ccYIdjbY.s:101708  .debug_str:0000000000040f21 .LASF5101
     /tmp/ccYIdjbY.s:101360  .debug_str:000000000003f77c .LASF5102
     /tmp/ccYIdjbY.s:101552  .debug_str:0000000000040528 .LASF5103
     /tmp/ccYIdjbY.s:100840  .debug_str:000000000003d3f4 .LASF5104
     /tmp/ccYIdjbY.s:88072  .debug_str:00000000000091c2 .LASF5105
     /tmp/ccYIdjbY.s:103554  .debug_str:0000000000048a90 .LASF5106
     /tmp/ccYIdjbY.s:92406  .debug_str:000000000001ad02 .LASF5107
     /tmp/ccYIdjbY.s:103794  .debug_str:0000000000049d0a .LASF5108
     /tmp/ccYIdjbY.s:98814  .debug_str:00000000000354a9 .LASF5109
     /tmp/ccYIdjbY.s:94992  .debug_str:000000000002563a .LASF5110
     /tmp/ccYIdjbY.s:101858  .debug_str:0000000000041914 .LASF5111
     /tmp/ccYIdjbY.s:86850  .debug_str:0000000000003ed1 .LASF5112
     /tmp/ccYIdjbY.s:101124  .debug_str:000000000003e80f .LASF5113
     /tmp/ccYIdjbY.s:93536  .debug_str:000000000001fafe .LASF5114
     /tmp/ccYIdjbY.s:93248  .debug_str:000000000001e6c4 .LASF5115
     /tmp/ccYIdjbY.s:90260  .debug_str:0000000000011df2 .LASF5116
     /tmp/ccYIdjbY.s:97578  .debug_str:0000000000030244 .LASF5117
     /tmp/ccYIdjbY.s:102170  .debug_str:0000000000042c87 .LASF5118
     /tmp/ccYIdjbY.s:88958  .debug_str:000000000000cf13 .LASF5119
     /tmp/ccYIdjbY.s:99068  .debug_str:0000000000036307 .LASF5120
     /tmp/ccYIdjbY.s:98284  .debug_str:0000000000033214 .LASF5121
     /tmp/ccYIdjbY.s:92132  .debug_str:0000000000019a46 .LASF5122
     /tmp/ccYIdjbY.s:89580  .debug_str:000000000000f34c .LASF5123
     /tmp/ccYIdjbY.s:90380  .debug_str:0000000000012682 .LASF5124
     /tmp/ccYIdjbY.s:98774  .debug_str:00000000000351a2 .LASF5125
     /tmp/ccYIdjbY.s:88914  .debug_str:000000000000cc0b .LASF5126
     /tmp/ccYIdjbY.s:89676  .debug_str:000000000000f820 .LASF5127
     /tmp/ccYIdjbY.s:93644  .debug_str:000000000002029b .LASF5128
     /tmp/ccYIdjbY.s:91602  .debug_str:00000000000175ac .LASF5129
     /tmp/ccYIdjbY.s:91850  .debug_str:00000000000185c1 .LASF5130
     /tmp/ccYIdjbY.s:98308  .debug_str:00000000000333fc .LASF5131
     /tmp/ccYIdjbY.s:101850  .debug_str:0000000000041887 .LASF5132
     /tmp/ccYIdjbY.s:88772  .debug_str:000000000000c28e .LASF5133
     /tmp/ccYIdjbY.s:91946  .debug_str:0000000000018c47 .LASF5134
     /tmp/ccYIdjbY.s:95460  .debug_str:0000000000027600 .LASF5135
     /tmp/ccYIdjbY.s:86898  .debug_str:00000000000042a5 .LASF5136
     /tmp/ccYIdjbY.s:102992  .debug_str:00000000000463ab .LASF5137
     /tmp/ccYIdjbY.s:96658  .debug_str:000000000002c338 .LASF5138
     /tmp/ccYIdjbY.s:103158  .debug_str:0000000000046e70 .LASF5139
     /tmp/ccYIdjbY.s:87146  .debug_str:0000000000005340 .LASF5140
     /tmp/ccYIdjbY.s:93760  .debug_str:0000000000020a26 .LASF5141
     /tmp/ccYIdjbY.s:101956  .debug_str:0000000000041f0d .LASF5142
     /tmp/ccYIdjbY.s:93806  .debug_str:0000000000020cd4 .LASF5143
     /tmp/ccYIdjbY.s:97816  .debug_str:00000000000312bd .LASF5144
     /tmp/ccYIdjbY.s:98178  .debug_str:0000000000032ad8 .LASF5145
     /tmp/ccYIdjbY.s:88874  .debug_str:000000000000c99a .LASF5146
     /tmp/ccYIdjbY.s:104052  .debug_str:000000000004aeed .LASF5148
     /tmp/ccYIdjbY.s:88766  .debug_str:000000000000c225 .LASF5149
     /tmp/ccYIdjbY.s:93408  .debug_str:000000000001f2e7 .LASF5150
     /tmp/ccYIdjbY.s:88888  .debug_str:000000000000ca61 .LASF5151
     /tmp/ccYIdjbY.s:95890  .debug_str:0000000000029131 .LASF5152
     /tmp/ccYIdjbY.s:96330  .debug_str:000000000002ae18 .LASF5153
     /tmp/ccYIdjbY.s:90788  .debug_str:0000000000013f5a .LASF5154
     /tmp/ccYIdjbY.s:89614  .debug_str:000000000000f546 .LASF5155
     /tmp/ccYIdjbY.s:95068  .debug_str:0000000000025c09 .LASF5156
     /tmp/ccYIdjbY.s:100506  .debug_str:000000000003be76 .LASF5157
     /tmp/ccYIdjbY.s:96722  .debug_str:000000000002c856 .LASF5158
     /tmp/ccYIdjbY.s:87736  .debug_str:0000000000007ad8 .LASF5159
     /tmp/ccYIdjbY.s:100476  .debug_str:000000000003bc5c .LASF5160
     /tmp/ccYIdjbY.s:92686  .debug_str:000000000001bf87 .LASF5161
     /tmp/ccYIdjbY.s:98340  .debug_str:000000000003363c .LASF5162
     /tmp/ccYIdjbY.s:95334  .debug_str:0000000000026da4 .LASF5163
     /tmp/ccYIdjbY.s:87478  .debug_str:0000000000006a9f .LASF5164
     /tmp/ccYIdjbY.s:88054  .debug_str:0000000000009056 .LASF5165
     /tmp/ccYIdjbY.s:102434  .debug_str:0000000000043df8 .LASF5166
     /tmp/ccYIdjbY.s:88690  .debug_str:000000000000bd21 .LASF5167
     /tmp/ccYIdjbY.s:85998  .debug_str:00000000000003ef .LASF5168
     /tmp/ccYIdjbY.s:92568  .debug_str:000000000001b812 .LASF5169
     /tmp/ccYIdjbY.s:103652  .debug_str:0000000000049177 .LASF5170
     /tmp/ccYIdjbY.s:99878  .debug_str:000000000003952d .LASF5171
     /tmp/ccYIdjbY.s:101036  .debug_str:000000000003e252 .LASF5172
     /tmp/ccYIdjbY.s:92566  .debug_str:000000000001b7f2 .LASF5173
     /tmp/ccYIdjbY.s:86876  .debug_str:00000000000040de .LASF5174
     /tmp/ccYIdjbY.s:93398  .debug_str:000000000001f247 .LASF5175
     /tmp/ccYIdjbY.s:98806  .debug_str:00000000000353f0 .LASF5176
     /tmp/ccYIdjbY.s:99710  .debug_str:00000000000388f5 .LASF5177
     /tmp/ccYIdjbY.s:89662  .debug_str:000000000000f75d .LASF5178
     /tmp/ccYIdjbY.s:88146  .debug_str:00000000000097a7 .LASF5179
     /tmp/ccYIdjbY.s:99202  .debug_str:0000000000036973 .LASF5180
     /tmp/ccYIdjbY.s:100756  .debug_str:000000000003ce8b .LASF5181
     /tmp/ccYIdjbY.s:97708  .debug_str:0000000000030b56 .LASF5182
     /tmp/ccYIdjbY.s:96134  .debug_str:000000000002a178 .LASF5183
     /tmp/ccYIdjbY.s:101352  .debug_str:000000000003f6c7 .LASF5184
     /tmp/ccYIdjbY.s:100432  .debug_str:000000000003ba72 .LASF5185
     /tmp/ccYIdjbY.s:103534  .debug_str:0000000000048918 .LASF5186
     /tmp/ccYIdjbY.s:92318  .debug_str:000000000001a61e .LASF5187
     /tmp/ccYIdjbY.s:90424  .debug_str:0000000000012994 .LASF5188
     /tmp/ccYIdjbY.s:87026  .debug_str:0000000000004b74 .LASF5189
     /tmp/ccYIdjbY.s:96356  .debug_str:000000000002af9d .LASF5190
     /tmp/ccYIdjbY.s:97818  .debug_str:00000000000312e1 .LASF5191
     /tmp/ccYIdjbY.s:89080  .debug_str:000000000000d68d .LASF5192
     /tmp/ccYIdjbY.s:93984  .debug_str:00000000000218b7 .LASF5193
     /tmp/ccYIdjbY.s:96170  .debug_str:000000000002a3d4 .LASF5194
     /tmp/ccYIdjbY.s:100986  .debug_str:000000000003de83 .LASF5195
     /tmp/ccYIdjbY.s:100010  .debug_str:0000000000039e05 .LASF5196
     /tmp/ccYIdjbY.s:99568  .debug_str:0000000000037f92 .LASF5197
     /tmp/ccYIdjbY.s:93504  .debug_str:000000000001f8b9 .LASF5198
     /tmp/ccYIdjbY.s:87900  .debug_str:0000000000008600 .LASF5199
     /tmp/ccYIdjbY.s:103552  .debug_str:0000000000048a6f .LASF5200
     /tmp/ccYIdjbY.s:99354  .debug_str:000000000003715f .LASF5201
     /tmp/ccYIdjbY.s:92106  .debug_str:00000000000197bd .LASF5202
     /tmp/ccYIdjbY.s:98594  .debug_str:000000000003466b .LASF5203
     /tmp/ccYIdjbY.s:87974  .debug_str:0000000000008b1e .LASF5204
     /tmp/ccYIdjbY.s:85952  .debug_str:00000000000000ac .LASF5205
     /tmp/ccYIdjbY.s:97728  .debug_str:0000000000030cb7 .LASF5206
     /tmp/ccYIdjbY.s:90216  .debug_str:0000000000011b26 .LASF5207
     /tmp/ccYIdjbY.s:93310  .debug_str:000000000001eb50 .LASF5208
     /tmp/ccYIdjbY.s:95262  .debug_str:00000000000268e0 .LASF5209
     /tmp/ccYIdjbY.s:99690  .debug_str:00000000000387f8 .LASF5210
     /tmp/ccYIdjbY.s:103362  .debug_str:0000000000047d4b .LASF5211
     /tmp/ccYIdjbY.s:96480  .debug_str:000000000002b72f .LASF5212
     /tmp/ccYIdjbY.s:87462  .debug_str:000000000000692f .LASF5213
     /tmp/ccYIdjbY.s:97982  .debug_str:0000000000031deb .LASF5214
     /tmp/ccYIdjbY.s:89518  .debug_str:000000000000ef74 .LASF5215
     /tmp/ccYIdjbY.s:103178  .debug_str:0000000000047059 .LASF5216
     /tmp/ccYIdjbY.s:87990  .debug_str:0000000000008c1c .LASF5217
     /tmp/ccYIdjbY.s:86614  .debug_str:0000000000002f1e .LASF5218
     /tmp/ccYIdjbY.s:86082  .debug_str:0000000000000992 .LASF5219
     /tmp/ccYIdjbY.s:96568  .debug_str:000000000002bd19 .LASF5220
     /tmp/ccYIdjbY.s:88126  .debug_str:0000000000009660 .LASF5221
     /tmp/ccYIdjbY.s:93864  .debug_str:00000000000210b3 .LASF5222
     /tmp/ccYIdjbY.s:88340  .debug_str:000000000000a493 .LASF5223
     /tmp/ccYIdjbY.s:96384  .debug_str:000000000002b13d .LASF5224
     /tmp/ccYIdjbY.s:100612  .debug_str:000000000003c599 .LASF5225
     /tmp/ccYIdjbY.s:87566  .debug_str:000000000000704e .LASF5226
     /tmp/ccYIdjbY.s:92494  .debug_str:000000000001b2ae .LASF5227
     /tmp/ccYIdjbY.s:88686  .debug_str:000000000000bcb0 .LASF5228
     /tmp/ccYIdjbY.s:96052  .debug_str:0000000000029bba .LASF5229
     /tmp/ccYIdjbY.s:101448  .debug_str:000000000003fdd0 .LASF5230
     /tmp/ccYIdjbY.s:92086  .debug_str:00000000000195c3 .LASF5231
     /tmp/ccYIdjbY.s:88300  .debug_str:000000000000a1fe .LASF5232
     /tmp/ccYIdjbY.s:95366  .debug_str:0000000000026fd3 .LASF5233
     /tmp/ccYIdjbY.s:89178  .debug_str:000000000000dd39 .LASF5234
     /tmp/ccYIdjbY.s:97786  .debug_str:00000000000310b1 .LASF5235
     /tmp/ccYIdjbY.s:97864  .debug_str:0000000000031602 .LASF5236
     /tmp/ccYIdjbY.s:88320  .debug_str:000000000000a32e .LASF5237
     /tmp/ccYIdjbY.s:93824  .debug_str:0000000000020df1 .LASF5238
     /tmp/ccYIdjbY.s:96354  .debug_str:000000000002af71 .LASF5239
     /tmp/ccYIdjbY.s:103344  .debug_str:0000000000047c01 .LASF5240
     /tmp/ccYIdjbY.s:95328  .debug_str:0000000000026d44 .LASF5241
     /tmp/ccYIdjbY.s:100550  .debug_str:000000000003c189 .LASF5242
     /tmp/ccYIdjbY.s:100062  .debug_str:000000000003a1cf .LASF5243
     /tmp/ccYIdjbY.s:98422  .debug_str:0000000000033b30 .LASF5244
     /tmp/ccYIdjbY.s:93330  .debug_str:000000000001eca4 .LASF5245
     /tmp/ccYIdjbY.s:95490  .debug_str:00000000000277d0 .LASF5246
     /tmp/ccYIdjbY.s:94006  .debug_str:0000000000021a42 .LASF5247
     /tmp/ccYIdjbY.s:87368  .debug_str:0000000000006271 .LASF5248
     /tmp/ccYIdjbY.s:101278  .debug_str:000000000003f29f .LASF5249
     /tmp/ccYIdjbY.s:86464  .debug_str:0000000000002375 .LASF5250
     /tmp/ccYIdjbY.s:91044  .debug_str:00000000000150b7 .LASF5251
     /tmp/ccYIdjbY.s:95190  .debug_str:00000000000263f4 .LASF5252
     /tmp/ccYIdjbY.s:90264  .debug_str:0000000000011e52 .LASF5253
     /tmp/ccYIdjbY.s:86738  .debug_str:00000000000036ec .LASF5254
     /tmp/ccYIdjbY.s:101820  .debug_str:00000000000416ca .LASF5255
     /tmp/ccYIdjbY.s:103120  .debug_str:0000000000046c09 .LASF5256
     /tmp/ccYIdjbY.s:92258  .debug_str:000000000001a267 .LASF5257
     /tmp/ccYIdjbY.s:99020  .debug_str:000000000003603f .LASF5258
     /tmp/ccYIdjbY.s:93262  .debug_str:000000000001e7f9 .LASF5259
     /tmp/ccYIdjbY.s:93982  .debug_str:000000000002188b .LASF5260
     /tmp/ccYIdjbY.s:100530  .debug_str:000000000003c047 .LASF5261
     /tmp/ccYIdjbY.s:87320  .debug_str:0000000000005f72 .LASF5262
     /tmp/ccYIdjbY.s:94034  .debug_str:0000000000021c4a .LASF5263
     /tmp/ccYIdjbY.s:100720  .debug_str:000000000003cc41 .LASF5264
     /tmp/ccYIdjbY.s:88846  .debug_str:000000000000c795 .LASF5265
     /tmp/ccYIdjbY.s:88452  .debug_str:000000000000ac63 .LASF5266
     /tmp/ccYIdjbY.s:90072  .debug_str:00000000000110fd .LASF5267
     /tmp/ccYIdjbY.s:95084  .debug_str:0000000000025d06 .LASF5268
     /tmp/ccYIdjbY.s:90128  .debug_str:000000000001150a .LASF5269
     /tmp/ccYIdjbY.s:91446  .debug_str:0000000000016b6e .LASF5270
     /tmp/ccYIdjbY.s:95684  .debug_str:00000000000284c5 .LASF5271
     /tmp/ccYIdjbY.s:86746  .debug_str:000000000000379c .LASF5272
     /tmp/ccYIdjbY.s:99488  .debug_str:00000000000379e6 .LASF5273
     /tmp/ccYIdjbY.s:89520  .debug_str:000000000000ef95 .LASF5274
     /tmp/ccYIdjbY.s:88440  .debug_str:000000000000ab77 .LASF5275
     /tmp/ccYIdjbY.s:94278  .debug_str:0000000000022c99 .LASF5276
     /tmp/ccYIdjbY.s:100702  .debug_str:000000000003cb47 .LASF5277
     /tmp/ccYIdjbY.s:90716  .debug_str:0000000000013b82 .LASF5278
     /tmp/ccYIdjbY.s:103748  .debug_str:0000000000049930 .LASF5279
     /tmp/ccYIdjbY.s:100748  .debug_str:000000000003ce1e .LASF5280
     /tmp/ccYIdjbY.s:88692  .debug_str:000000000000bd5c .LASF5281
     /tmp/ccYIdjbY.s:88298  .debug_str:000000000000a1ef .LASF5282
     /tmp/ccYIdjbY.s:93738  .debug_str:0000000000020838 .LASF5283
     /tmp/ccYIdjbY.s:88046  .debug_str:0000000000008fee .LASF5284
     /tmp/ccYIdjbY.s:88214  .debug_str:0000000000009c0a .LASF5285
     /tmp/ccYIdjbY.s:94136  .debug_str:0000000000022301 .LASF5286
     /tmp/ccYIdjbY.s:86196  .debug_str:0000000000001115 .LASF5287
     /tmp/ccYIdjbY.s:89988  .debug_str:0000000000010b3a .LASF5288
     /tmp/ccYIdjbY.s:92840  .debug_str:000000000001ca8d .LASF5289
     /tmp/ccYIdjbY.s:98576  .debug_str:000000000003452a .LASF5290
     /tmp/ccYIdjbY.s:91786  .debug_str:0000000000018144 .LASF5291
     /tmp/ccYIdjbY.s:93022  .debug_str:000000000001d681 .LASF5292
     /tmp/ccYIdjbY.s:92534  .debug_str:000000000001b600 .LASF5293
     /tmp/ccYIdjbY.s:100386  .debug_str:000000000003b725 .LASF5294
     /tmp/ccYIdjbY.s:86742  .debug_str:0000000000003740 .LASF5295
     /tmp/ccYIdjbY.s:87290  .debug_str:0000000000005d76 .LASF5296
     /tmp/ccYIdjbY.s:103256  .debug_str:0000000000047601 .LASF5297
     /tmp/ccYIdjbY.s:87922  .debug_str:0000000000008798 .LASF5298
     /tmp/ccYIdjbY.s:98094  .debug_str:0000000000032577 .LASF5299
     /tmp/ccYIdjbY.s:101530  .debug_str:00000000000403cf .LASF5300
     /tmp/ccYIdjbY.s:97870  .debug_str:000000000003167a .LASF5301
     /tmp/ccYIdjbY.s:95954  .debug_str:0000000000029600 .LASF5303
     /tmp/ccYIdjbY.s:90680  .debug_str:0000000000013929 .LASF5304
     /tmp/ccYIdjbY.s:98590  .debug_str:000000000003463a .LASF5305
     /tmp/ccYIdjbY.s:88250  .debug_str:0000000000009df9 .LASF5306
     /tmp/ccYIdjbY.s:85956  .debug_str:000000000000010e .LASF5307
     /tmp/ccYIdjbY.s:92254  .debug_str:000000000001a235 .LASF5308
     /tmp/ccYIdjbY.s:96798  .debug_str:000000000002ccc5 .LASF5309
     /tmp/ccYIdjbY.s:93538  .debug_str:000000000001fb29 .LASF5310
     /tmp/ccYIdjbY.s:100930  .debug_str:000000000003da45 .LASF5311
     /tmp/ccYIdjbY.s:86300  .debug_str:0000000000001821 .LASF5312
     /tmp/ccYIdjbY.s:100874  .debug_str:000000000003d63e .LASF5313
     /tmp/ccYIdjbY.s:91688  .debug_str:0000000000017b29 .LASF5314
     /tmp/ccYIdjbY.s:100816  .debug_str:000000000003d217 .LASF5315
     /tmp/ccYIdjbY.s:99598  .debug_str:000000000003814f .LASF5316
     /tmp/ccYIdjbY.s:97774  .debug_str:0000000000030fa7 .LASF5317
     /tmp/ccYIdjbY.s:101214  .debug_str:000000000003ee5c .LASF5318
     /tmp/ccYIdjbY.s:96224  .debug_str:000000000002a758 .LASF5319
     /tmp/ccYIdjbY.s:88816  .debug_str:000000000000c59a .LASF5320
     /tmp/ccYIdjbY.s:90736  .debug_str:0000000000013c9d .LASF5321
     /tmp/ccYIdjbY.s:93070  .debug_str:000000000001da1f .LASF5322
     /tmp/ccYIdjbY.s:99038  .debug_str:0000000000036159 .LASF5323
     /tmp/ccYIdjbY.s:86488  .debug_str:0000000000002576 .LASF5324
     /tmp/ccYIdjbY.s:92418  .debug_str:000000000001adbc .LASF5325
     /tmp/ccYIdjbY.s:98338  .debug_str:0000000000033620 .LASF5326
     /tmp/ccYIdjbY.s:91360  .debug_str:0000000000016547 .LASF5327
     /tmp/ccYIdjbY.s:98276  .debug_str:000000000003314b .LASF5328
     /tmp/ccYIdjbY.s:100368  .debug_str:000000000003b5c3 .LASF5329
     /tmp/ccYIdjbY.s:89338  .debug_str:000000000000e48e .LASF5330
     /tmp/ccYIdjbY.s:102922  .debug_str:0000000000045f1b .LASF5331
     /tmp/ccYIdjbY.s:88194  .debug_str:0000000000009a7c .LASF5332
     /tmp/ccYIdjbY.s:102690  .debug_str:0000000000044f1d .LASF5333
     /tmp/ccYIdjbY.s:100558  .debug_str:000000000003c263 .LASF5334
     /tmp/ccYIdjbY.s:88606  .debug_str:000000000000b7d1 .LASF5335
     /tmp/ccYIdjbY.s:91312  .debug_str:0000000000016192 .LASF5336
     /tmp/ccYIdjbY.s:94532  .debug_str:0000000000023b49 .LASF5337
     /tmp/ccYIdjbY.s:101570  .debug_str:00000000000406b3 .LASF5338
     /tmp/ccYIdjbY.s:103964  .debug_str:000000000004a934 .LASF5339
     /tmp/ccYIdjbY.s:88406  .debug_str:000000000000a8bf .LASF5340
     /tmp/ccYIdjbY.s:97134  .debug_str:000000000002e4c8 .LASF5341
     /tmp/ccYIdjbY.s:95374  .debug_str:00000000000270a3 .LASF5342
     /tmp/ccYIdjbY.s:94690  .debug_str:0000000000024309 .LASF5343
     /tmp/ccYIdjbY.s:92702  .debug_str:000000000001c09d .LASF5344
     /tmp/ccYIdjbY.s:90580  .debug_str:00000000000132bf .LASF5345
     /tmp/ccYIdjbY.s:88524  .debug_str:000000000000b1a0 .LASF5346
     /tmp/ccYIdjbY.s:98372  .debug_str:0000000000033822 .LASF5347
     /tmp/ccYIdjbY.s:102896  .debug_str:0000000000045d9c .LASF5348
     /tmp/ccYIdjbY.s:99924  .debug_str:0000000000039875 .LASF5349
     /tmp/ccYIdjbY.s:98882  .debug_str:0000000000035888 .LASF5350
     /tmp/ccYIdjbY.s:90946  .debug_str:00000000000149e6 .LASF5351
     /tmp/ccYIdjbY.s:90626  .debug_str:000000000001358d .LASF5352
     /tmp/ccYIdjbY.s:90970  .debug_str:0000000000014bac .LASF5353
     /tmp/ccYIdjbY.s:103012  .debug_str:00000000000464b4 .LASF5354
     /tmp/ccYIdjbY.s:103122  .debug_str:0000000000046c37 .LASF5355
     /tmp/ccYIdjbY.s:101438  .debug_str:000000000003fcfc .LASF5356
     /tmp/ccYIdjbY.s:99296  .debug_str:0000000000036e9d .LASF5357
     /tmp/ccYIdjbY.s:95108  .debug_str:0000000000025f29 .LASF5358
     /tmp/ccYIdjbY.s:95176  .debug_str:0000000000026348 .LASF5359
     /tmp/ccYIdjbY.s:93430  .debug_str:000000000001f434 .LASF5360
     /tmp/ccYIdjbY.s:101240  .debug_str:000000000003f070 .LASF5361
     /tmp/ccYIdjbY.s:99398  .debug_str:000000000003738b .LASF5362
     /tmp/ccYIdjbY.s:89456  .debug_str:000000000000ebbc .LASF5363
     /tmp/ccYIdjbY.s:95238  .debug_str:0000000000026730 .LASF5364
     /tmp/ccYIdjbY.s:103062  .debug_str:0000000000046837 .LASF5365
     /tmp/ccYIdjbY.s:93320  .debug_str:000000000001ec3e .LASF5366
     /tmp/ccYIdjbY.s:99550  .debug_str:0000000000037e53 .LASF5367
     /tmp/ccYIdjbY.s:102506  .debug_str:000000000004433c .LASF5368
     /tmp/ccYIdjbY.s:99664  .debug_str:00000000000385d8 .LASF5369
     /tmp/ccYIdjbY.s:94244  .debug_str:0000000000022aa1 .LASF5370
     /tmp/ccYIdjbY.s:87592  .debug_str:0000000000007203 .LASF5371
     /tmp/ccYIdjbY.s:91190  .debug_str:0000000000015972 .LASF5372
     /tmp/ccYIdjbY.s:103544  .debug_str:00000000000489ce .LASF5373
     /tmp/ccYIdjbY.s:90120  .debug_str:000000000001146b .LASF5374
     /tmp/ccYIdjbY.s:102098  .debug_str:0000000000042891 .LASF5375
     /tmp/ccYIdjbY.s:87828  .debug_str:0000000000008172 .LASF5376
     /tmp/ccYIdjbY.s:100274  .debug_str:000000000003af58 .LASF5377
     /tmp/ccYIdjbY.s:95854  .debug_str:0000000000028f88 .LASF5378
     /tmp/ccYIdjbY.s:99446  .debug_str:000000000003770d .LASF5379
     /tmp/ccYIdjbY.s:95162  .debug_str:000000000002624c .LASF5380
     /tmp/ccYIdjbY.s:92548  .debug_str:000000000001b702 .LASF5381
     /tmp/ccYIdjbY.s:96958  .debug_str:000000000002d7dc .LASF5382
     /tmp/ccYIdjbY.s:88760  .debug_str:000000000000c1a4 .LASF5383
     /tmp/ccYIdjbY.s:92778  .debug_str:000000000001c613 .LASF5384
     /tmp/ccYIdjbY.s:97392  .debug_str:000000000002f54e .LASF5385
     /tmp/ccYIdjbY.s:102710  .debug_str:00000000000450a2 .LASF5386
     /tmp/ccYIdjbY.s:99386  .debug_str:00000000000372ed .LASF5387
     /tmp/ccYIdjbY.s:91852  .debug_str:00000000000185eb .LASF5388
     /tmp/ccYIdjbY.s:95268  .debug_str:000000000002693e .LASF5389
     /tmp/ccYIdjbY.s:93752  .debug_str:0000000000020977 .LASF5390
     /tmp/ccYIdjbY.s:97990  .debug_str:0000000000031e49 .LASF5391
     /tmp/ccYIdjbY.s:88504  .debug_str:000000000000b06f .LASF5392
     /tmp/ccYIdjbY.s:96182  .debug_str:000000000002a4ec .LASF5393
     /tmp/ccYIdjbY.s:102862  .debug_str:0000000000045b17 .LASF5394
     /tmp/ccYIdjbY.s:100330  .debug_str:000000000003b38c .LASF5395
     /tmp/ccYIdjbY.s:90102  .debug_str:0000000000011353 .LASF5396
     /tmp/ccYIdjbY.s:102042  .debug_str:00000000000424a5 .LASF5397
     /tmp/ccYIdjbY.s:85964  .debug_str:0000000000000199 .LASF5398
     /tmp/ccYIdjbY.s:88932  .debug_str:000000000000cd4b .LASF5399
     /tmp/ccYIdjbY.s:90942  .debug_str:0000000000014986 .LASF5400
     /tmp/ccYIdjbY.s:98324  .debug_str:000000000003354c .LASF5401
     /tmp/ccYIdjbY.s:90234  .debug_str:0000000000011c08 .LASF5402
     /tmp/ccYIdjbY.s:102708  .debug_str:0000000000045089 .LASF5403
     /tmp/ccYIdjbY.s:86098  .debug_str:0000000000000a90 .LASF5404
     /tmp/ccYIdjbY.s:102502  .debug_str:00000000000442eb .LASF5405
     /tmp/ccYIdjbY.s:99102  .debug_str:0000000000036442 .LASF5406
     /tmp/ccYIdjbY.s:97332  .debug_str:000000000002f124 .LASF5407
     /tmp/ccYIdjbY.s:94596  .debug_str:0000000000023e58 .LASF5408
     /tmp/ccYIdjbY.s:94338  .debug_str:000000000002307b .LASF5409
     /tmp/ccYIdjbY.s:92410  .debug_str:000000000001ad56 .LASF5410
     /tmp/ccYIdjbY.s:90272  .debug_str:0000000000011eca .LASF5411
     /tmp/ccYIdjbY.s:100708  .debug_str:000000000003cba4 .LASF5412
     /tmp/ccYIdjbY.s:98628  .debug_str:0000000000034902 .LASF5413
     /tmp/ccYIdjbY.s:103758  .debug_str:0000000000049a02 .LASF5414
     /tmp/ccYIdjbY.s:86192  .debug_str:00000000000010ed .LASF5415
     /tmp/ccYIdjbY.s:94512  .debug_str:0000000000023a30 .LASF5416
     /tmp/ccYIdjbY.s:102720  .debug_str:0000000000045154 .LASF5417
     /tmp/ccYIdjbY.s:91812  .debug_str:000000000001830a .LASF5418
     /tmp/ccYIdjbY.s:90900  .debug_str:00000000000146e1 .LASF5419
     /tmp/ccYIdjbY.s:90106  .debug_str:0000000000011379 .LASF5420
     /tmp/ccYIdjbY.s:103354  .debug_str:0000000000047ca3 .LASF5421
     /tmp/ccYIdjbY.s:89940  .debug_str:00000000000108c8 .LASF5422
     /tmp/ccYIdjbY.s:96464  .debug_str:000000000002b621 .LASF5423
     /tmp/ccYIdjbY.s:90638  .debug_str:000000000001367b .LASF5424
     /tmp/ccYIdjbY.s:90010  .debug_str:0000000000010c82 .LASF5425
     /tmp/ccYIdjbY.s:94806  .debug_str:0000000000024a47 .LASF5426
     /tmp/ccYIdjbY.s:89508  .debug_str:000000000000ee75 .LASF5427
     /tmp/ccYIdjbY.s:95784  .debug_str:0000000000028ae1 .LASF5428
     /tmp/ccYIdjbY.s:89216  .debug_str:000000000000de92 .LASF5429
     /tmp/ccYIdjbY.s:93194  .debug_str:000000000001e2b4 .LASF5430
     /tmp/ccYIdjbY.s:87434  .debug_str:0000000000006768 .LASF5431
     /tmp/ccYIdjbY.s:98402  .debug_str:00000000000339f7 .LASF5432
     /tmp/ccYIdjbY.s:98970  .debug_str:0000000000035d92 .LASF5433
     /tmp/ccYIdjbY.s:99594  .debug_str:0000000000038111 .LASF5434
     /tmp/ccYIdjbY.s:95144  .debug_str:000000000002613d .LASF5435
     /tmp/ccYIdjbY.s:101346  .debug_str:000000000003f666 .LASF5436
     /tmp/ccYIdjbY.s:103940  .debug_str:000000000004a772 .LASF5437
     /tmp/ccYIdjbY.s:102904  .debug_str:0000000000045e11 .LASF5438
     /tmp/ccYIdjbY.s:100852  .debug_str:000000000003d4d2 .LASF5439
     /tmp/ccYIdjbY.s:86184  .debug_str:0000000000001054 .LASF5440
     /tmp/ccYIdjbY.s:99268  .debug_str:0000000000036ca5 .LASF5441
     /tmp/ccYIdjbY.s:94420  .debug_str:000000000002353c .LASF5442
     /tmp/ccYIdjbY.s:101792  .debug_str:0000000000041507 .LASF5443
     /tmp/ccYIdjbY.s:101948  .debug_str:0000000000041ea1 .LASF5444
     /tmp/ccYIdjbY.s:98410  .debug_str:0000000000033a93 .LASF5445
     /tmp/ccYIdjbY.s:98184  .debug_str:0000000000032b33 .LASF5446
     /tmp/ccYIdjbY.s:97266  .debug_str:000000000002ed33 .LASF5447
     /tmp/ccYIdjbY.s:99694  .debug_str:000000000003884d .LASF5448
     /tmp/ccYIdjbY.s:86030  .debug_str:0000000000000656 .LASF5449
     /tmp/ccYIdjbY.s:103034  .debug_str:000000000004663d .LASF5450
     /tmp/ccYIdjbY.s:97572  .debug_str:00000000000301ec .LASF5451
     /tmp/ccYIdjbY.s:99776  .debug_str:0000000000038d47 .LASF5452
     /tmp/ccYIdjbY.s:100924  .debug_str:000000000003d9f0 .LASF5453
     /tmp/ccYIdjbY.s:97028  .debug_str:000000000002dcf9 .LASF5454
     /tmp/ccYIdjbY.s:102836  .debug_str:0000000000045998 .LASF5455
     /tmp/ccYIdjbY.s:103818  .debug_str:0000000000049ed9 .LASF5456
     /tmp/ccYIdjbY.s:95470  .debug_str:000000000002766a .LASF5457
     /tmp/ccYIdjbY.s:90512  .debug_str:0000000000012eac .LASF5459
     /tmp/ccYIdjbY.s:99424  .debug_str:00000000000375ab .LASF5460
     /tmp/ccYIdjbY.s:100984  .debug_str:000000000003de65 .LASF5461
     /tmp/ccYIdjbY.s:96160  .debug_str:000000000002a2fb .LASF5462
     /tmp/ccYIdjbY.s:101578  .debug_str:0000000000040720 .LASF5463
     /tmp/ccYIdjbY.s:98370  .debug_str:000000000003380c .LASF5464
     /tmp/ccYIdjbY.s:96942  .debug_str:000000000002d719 .LASF5465
     /tmp/ccYIdjbY.s:94234  .debug_str:0000000000022a08 .LASF5466
     /tmp/ccYIdjbY.s:86350  .debug_str:0000000000001b9b .LASF5467
     /tmp/ccYIdjbY.s:89886  .debug_str:00000000000104bd .LASF5468
     /tmp/ccYIdjbY.s:93378  .debug_str:000000000001f137 .LASF5469
     /tmp/ccYIdjbY.s:95424  .debug_str:0000000000027465 .LASF5470
     /tmp/ccYIdjbY.s:101758  .debug_str:00000000000412c1 .LASF5471
     /tmp/ccYIdjbY.s:97210  .debug_str:000000000002e9f9 .LASF5472
     /tmp/ccYIdjbY.s:92456  .debug_str:000000000001b070 .LASF5473
     /tmp/ccYIdjbY.s:100576  .debug_str:000000000003c34c .LASF5474
     /tmp/ccYIdjbY.s:103638  .debug_str:0000000000049081 .LASF5475
     /tmp/ccYIdjbY.s:103562  .debug_str:0000000000048b52 .LASF5476
     /tmp/ccYIdjbY.s:100246  .debug_str:000000000003adaf .LASF5477
     /tmp/ccYIdjbY.s:92656  .debug_str:000000000001bd77 .LASF5478
     /tmp/ccYIdjbY.s:86466  .debug_str:00000000000023a3 .LASF5479
     /tmp/ccYIdjbY.s:88000  .debug_str:0000000000008d4a .LASF5481
     /tmp/ccYIdjbY.s:97320  .debug_str:000000000002f025 .LASF5482
     /tmp/ccYIdjbY.s:92094  .debug_str:00000000000196bb .LASF5483
     /tmp/ccYIdjbY.s:95208  .debug_str:0000000000026500 .LASF5484
     /tmp/ccYIdjbY.s:99738  .debug_str:0000000000038ac2 .LASF5485
     /tmp/ccYIdjbY.s:97182  .debug_str:000000000002e818 .LASF5486
     /tmp/ccYIdjbY.s:92618  .debug_str:000000000001bb52 .LASF5487
     /tmp/ccYIdjbY.s:86770  .debug_str:0000000000003983 .LASF5488
     /tmp/ccYIdjbY.s:90718  .debug_str:0000000000013b96 .LASF5489
     /tmp/ccYIdjbY.s:93556  .debug_str:000000000001fc54 .LASF5490
     /tmp/ccYIdjbY.s:100600  .debug_str:000000000003c4e9 .LASF5491
     /tmp/ccYIdjbY.s:100112  .debug_str:000000000003a482 .LASF5492
     /tmp/ccYIdjbY.s:90858  .debug_str:0000000000014417 .LASF5493
     /tmp/ccYIdjbY.s:99798  .debug_str:0000000000038f40 .LASF5494
     /tmp/ccYIdjbY.s:104156  .debug_str:000000000004b5fc .LASF5495
     /tmp/ccYIdjbY.s:97666  .debug_str:0000000000030888 .LASF5496
     /tmp/ccYIdjbY.s:95188  .debug_str:00000000000263ce .LASF5497
     /tmp/ccYIdjbY.s:102850  .debug_str:0000000000045a6f .LASF5498
     /tmp/ccYIdjbY.s:89258  .debug_str:000000000000e12d .LASF5499
     /tmp/ccYIdjbY.s:101586  .debug_str:000000000004077e .LASF5500
     /tmp/ccYIdjbY.s:86526  .debug_str:0000000000002865 .LASF5501
     /tmp/ccYIdjbY.s:88362  .debug_str:000000000000a5e0 .LASF5502
     /tmp/ccYIdjbY.s:104114  .debug_str:000000000004b2c6 .LASF5503
     /tmp/ccYIdjbY.s:103728  .debug_str:000000000004974d .LASF5504
     /tmp/ccYIdjbY.s:99052  .debug_str:000000000003623e .LASF5506
     /tmp/ccYIdjbY.s:93958  .debug_str:00000000000216f3 .LASF5507
     /tmp/ccYIdjbY.s:98650  .debug_str:0000000000034a63 .LASF5508
     /tmp/ccYIdjbY.s:92038  .debug_str:00000000000192f1 .LASF5509
     /tmp/ccYIdjbY.s:87544  .debug_str:0000000000006f43 .LASF5510
     /tmp/ccYIdjbY.s:93910  .debug_str:000000000002140c .LASF5511
     /tmp/ccYIdjbY.s:98612  .debug_str:00000000000347c1 .LASF5512
     /tmp/ccYIdjbY.s:102492  .debug_str:0000000000044249 .LASF5513
     /tmp/ccYIdjbY.s:90300  .debug_str:00000000000120af .LASF5514
     /tmp/ccYIdjbY.s:99022  .debug_str:000000000003606b .LASF5515
     /tmp/ccYIdjbY.s:93842  .debug_str:0000000000020f33 .LASF5516
     /tmp/ccYIdjbY.s:90476  .debug_str:0000000000012c74 .LASF5517
     /tmp/ccYIdjbY.s:87156  .debug_str:00000000000053b7 .LASF5518
     /tmp/ccYIdjbY.s:102968  .debug_str:0000000000046218 .LASF5519
     /tmp/ccYIdjbY.s:87328  .debug_str:0000000000006015 .LASF5520
     /tmp/ccYIdjbY.s:97756  .debug_str:0000000000030eb9 .LASF5521
     /tmp/ccYIdjbY.s:90624  .debug_str:0000000000013581 .LASF5522
     /tmp/ccYIdjbY.s:89422  .debug_str:000000000000e98a .LASF5523
     /tmp/ccYIdjbY.s:101540  .debug_str:0000000000040481 .LASF5524
     /tmp/ccYIdjbY.s:98060  .debug_str:00000000000322ad .LASF5526
     /tmp/ccYIdjbY.s:88422  .debug_str:000000000000aa26 .LASF5527
     /tmp/ccYIdjbY.s:100798  .debug_str:000000000003d15c .LASF5528
     /tmp/ccYIdjbY.s:86652  .debug_str:000000000000315f .LASF5529
     /tmp/ccYIdjbY.s:99280  .debug_str:0000000000036d73 .LASF5530
     /tmp/ccYIdjbY.s:92150  .debug_str:0000000000019b4d .LASF5531
     /tmp/ccYIdjbY.s:92066  .debug_str:00000000000194b0 .LASF5532
     /tmp/ccYIdjbY.s:102236  .debug_str:000000000004308d .LASF5533
     /tmp/ccYIdjbY.s:94498  .debug_str:0000000000023925 .LASF5534
     /tmp/ccYIdjbY.s:86968  .debug_str:0000000000004727 .LASF5535
     /tmp/ccYIdjbY.s:91038  .debug_str:0000000000015063 .LASF5536
     /tmp/ccYIdjbY.s:100860  .debug_str:000000000003d567 .LASF5537
     /tmp/ccYIdjbY.s:93502  .debug_str:000000000001f8a3 .LASF5538
     /tmp/ccYIdjbY.s:90262  .debug_str:0000000000011e1d .LASF5539
     /tmp/ccYIdjbY.s:87092  .debug_str:0000000000004f8d .LASF5540
     /tmp/ccYIdjbY.s:90164  .debug_str:00000000000117ba .LASF5541
     /tmp/ccYIdjbY.s:97678  .debug_str:000000000003097a .LASF5542
     /tmp/ccYIdjbY.s:91546  .debug_str:00000000000171a9 .LASF5543
     /tmp/ccYIdjbY.s:90728  .debug_str:0000000000013c35 .LASF5544
     /tmp/ccYIdjbY.s:91720  .debug_str:0000000000017c5d .LASF5545
     /tmp/ccYIdjbY.s:100662  .debug_str:000000000003c8d8 .LASF5546
     /tmp/ccYIdjbY.s:101946  .debug_str:0000000000041e8e .LASF5547
     /tmp/ccYIdjbY.s:88266  .debug_str:0000000000009f67 .LASF5548
     /tmp/ccYIdjbY.s:89512  .debug_str:000000000000eece .LASF5549
     /tmp/ccYIdjbY.s:95110  .debug_str:0000000000025f42 .LASF5550
     /tmp/ccYIdjbY.s:93704  .debug_str:0000000000020670 .LASF5551
     /tmp/ccYIdjbY.s:101610  .debug_str:00000000000408d2 .LASF5552
     /tmp/ccYIdjbY.s:101726  .debug_str:0000000000041057 .LASF5553
     /tmp/ccYIdjbY.s:89424  .debug_str:000000000000e996 .LASF5554
     /tmp/ccYIdjbY.s:102950  .debug_str:00000000000460ac .LASF5555
     /tmp/ccYIdjbY.s:91392  .debug_str:00000000000167a6 .LASF5556
     /tmp/ccYIdjbY.s:89504  .debug_str:000000000000ee2c .LASF5557
     /tmp/ccYIdjbY.s:93478  .debug_str:000000000001f6db .LASF5558
     /tmp/ccYIdjbY.s:97960  .debug_str:0000000000031c4c .LASF5559
     /tmp/ccYIdjbY.s:95864  .debug_str:0000000000028ffe .LASF5560
     /tmp/ccYIdjbY.s:89634  .debug_str:000000000000f6ad .LASF5561
     /tmp/ccYIdjbY.s:87014  .debug_str:0000000000004a94 .LASF5562
     /tmp/ccYIdjbY.s:100346  .debug_str:000000000003b48e .LASF5563
     /tmp/ccYIdjbY.s:89618  .debug_str:000000000000f592 .LASF5564
     /tmp/ccYIdjbY.s:87480  .debug_str:0000000000006abb .LASF5565
     /tmp/ccYIdjbY.s:94516  .debug_str:0000000000023a61 .LASF5566
     /tmp/ccYIdjbY.s:91910  .debug_str:00000000000189cd .LASF5567
     /tmp/ccYIdjbY.s:88928  .debug_str:000000000000cd24 .LASF5568
     /tmp/ccYIdjbY.s:86508  .debug_str:0000000000002706 .LASF5569
     /tmp/ccYIdjbY.s:91078  .debug_str:0000000000015244 .LASF5570
     /tmp/ccYIdjbY.s:101128  .debug_str:000000000003e838 .LASF5571
     /tmp/ccYIdjbY.s:102578  .debug_str:00000000000447d4 .LASF5572
     /tmp/ccYIdjbY.s:96746  .debug_str:000000000002c9d6 .LASF5573
     /tmp/ccYIdjbY.s:86368  .debug_str:0000000000001cbc .LASF5574
     /tmp/ccYIdjbY.s:94876  .debug_str:0000000000024f77 .LASF5575
     /tmp/ccYIdjbY.s:97274  .debug_str:000000000002eda3 .LASF5576
     /tmp/ccYIdjbY.s:88650  .debug_str:000000000000ba7f .LASF5577
     /tmp/ccYIdjbY.s:95046  .debug_str:0000000000025a84 .LASF5578
     /tmp/ccYIdjbY.s:96104  .debug_str:0000000000029fb9 .LASF5579
     /tmp/ccYIdjbY.s:100610  .debug_str:000000000003c57e .LASF5580
     /tmp/ccYIdjbY.s:92856  .debug_str:000000000001cbab .LASF5581
     /tmp/ccYIdjbY.s:92486  .debug_str:000000000001b22a .LASF5582
     /tmp/ccYIdjbY.s:94004  .debug_str:0000000000021a26 .LASF5583
     /tmp/ccYIdjbY.s:88170  .debug_str:00000000000098cc .LASF5584
     /tmp/ccYIdjbY.s:102544  .debug_str:00000000000445bd .LASF5585
     /tmp/ccYIdjbY.s:89576  .debug_str:000000000000f2f2 .LASF5586
     /tmp/ccYIdjbY.s:90818  .debug_str:0000000000014180 .LASF5587
     /tmp/ccYIdjbY.s:92518  .debug_str:000000000001b4a7 .LASF5588
     /tmp/ccYIdjbY.s:96598  .debug_str:000000000002bf89 .LASF5589
     /tmp/ccYIdjbY.s:99774  .debug_str:0000000000038d0a .LASF5590
     /tmp/ccYIdjbY.s:102934  .debug_str:0000000000045fa5 .LASF5591
     /tmp/ccYIdjbY.s:93040  .debug_str:000000000001d7bc .LASF5592
     /tmp/ccYIdjbY.s:91290  .debug_str:0000000000016052 .LASF5593
     /tmp/ccYIdjbY.s:102286  .debug_str:000000000004346f .LASF5594
     /tmp/ccYIdjbY.s:100490  .debug_str:000000000003bd87 .LASF5595
     /tmp/ccYIdjbY.s:91840  .debug_str:0000000000018507 .LASF5596
     /tmp/ccYIdjbY.s:88894  .debug_str:000000000000cad0 .LASF5597
     /tmp/ccYIdjbY.s:94114  .debug_str:0000000000022182 .LASF5598
     /tmp/ccYIdjbY.s:88312  .debug_str:000000000000a2a2 .LASF5599
     /tmp/ccYIdjbY.s:94978  .debug_str:0000000000025568 .LASF5600
     /tmp/ccYIdjbY.s:88060  .debug_str:00000000000090f7 .LASF5601
     /tmp/ccYIdjbY.s:90974  .debug_str:0000000000014be5 .LASF5602
     /tmp/ccYIdjbY.s:96310  .debug_str:000000000002ace6 .LASF5603
     /tmp/ccYIdjbY.s:87352  .debug_str:000000000000619c .LASF5604
     /tmp/ccYIdjbY.s:96762  .debug_str:000000000002cad5 .LASF5605
     /tmp/ccYIdjbY.s:101806  .debug_str:00000000000415df .LASF5606
     /tmp/ccYIdjbY.s:86890  .debug_str:000000000000420f .LASF5607
     /tmp/ccYIdjbY.s:87380  .debug_str:000000000000637d .LASF5608
     /tmp/ccYIdjbY.s:88642  .debug_str:000000000000b9e6 .LASF5609
     /tmp/ccYIdjbY.s:88952  .debug_str:000000000000ceac .LASF5610
     /tmp/ccYIdjbY.s:100228  .debug_str:000000000003ac58 .LASF5611
     /tmp/ccYIdjbY.s:86882  .debug_str:0000000000004161 .LASF5612
     /tmp/ccYIdjbY.s:99436  .debug_str:0000000000037643 .LASF5613
     /tmp/ccYIdjbY.s:101950  .debug_str:0000000000041ebe .LASF5614
     /tmp/ccYIdjbY.s:95440  .debug_str:0000000000027531 .LASF5615
     /tmp/ccYIdjbY.s:99504  .debug_str:0000000000037b0e .LASF5616
     /tmp/ccYIdjbY.s:94442  .debug_str:0000000000023671 .LASF5617
     /tmp/ccYIdjbY.s:99428  .debug_str:00000000000375e5 .LASF5618
     /tmp/ccYIdjbY.s:95772  .debug_str:0000000000028a09 .LASF5619
     /tmp/ccYIdjbY.s:101318  .debug_str:000000000003f471 .LASF5620
     /tmp/ccYIdjbY.s:88542  .debug_str:000000000000b32f .LASF5621
     /tmp/ccYIdjbY.s:87886  .debug_str:0000000000008557 .LASF5622
     /tmp/ccYIdjbY.s:94832  .debug_str:0000000000024c78 .LASF5623
     /tmp/ccYIdjbY.s:86384  .debug_str:0000000000001db6 .LASF5624
     /tmp/ccYIdjbY.s:94654  .debug_str:00000000000240a3 .LASF5625
     /tmp/ccYIdjbY.s:100870  .debug_str:000000000003d60d .LASF5626
     /tmp/ccYIdjbY.s:96584  .debug_str:000000000002be7a .LASF5627
                           .group:0000000000000000 wm4.0.2cde0bba310258ac5fb120644dc52a54
                           .group:0000000000000000 wm4.stddef.h.39.a38874c8f8a57e66301090908ec2a69f
                           .group:0000000000000000 wm4._newlib_version.h.4.9ba035841e762c3308916a0ce96032e7
                           .group:0000000000000000 wm4.features.h.33.318b64d71e0957639cfb30f1db1f7ec8
                           .group:0000000000000000 wm4._default_types.h.15.61e9869194cab90bdfa4c7fc42203a0e
                           .group:0000000000000000 wm4._intsup.h.10.b28b45fc63caeb010c3f7ee592257700
                           .group:0000000000000000 wm4._stdint.h.10.c24fa3af3bc1706662bb5593a907e841
                           .group:0000000000000000 wm4.stdint.h.23.d53047a68f4a85177f80b422d52785ed
                           .group:0000000000000000 wm4.stdbool.h.29.07dce69c3b78884144b7f7bd19483461
                           .group:0000000000000000 wm4.mss_assert.h.10.09559128d1f6dbd833ab24347e71c76c
                           .group:0000000000000000 wm4.mss_legacy_defines.h.20.594d5f03b0f5314e3b2e801d98173479
                           .group:0000000000000000 wm4.mss_ddr_defs.h.18.58f9a87b5146acaefd5d9382d54140ba
                           .group:0000000000000000 wm4.mss_sysreg.h.19.614456a035a0cca3fd9d4348b0740228
                           .group:0000000000000000 wm4.mss_ddr_sgmii_regs.h.5543.4c565db9c25f7d4b45bd9b264c475c73
                           .group:0000000000000000 wm4.mss_io_config.h.18.b70207dea5a59bac7da73ad6eee375d0
                           .group:0000000000000000 wm4.mss_pll.h.192.d6d9146a5a36ce9e7f6a5ae2e7816970
                           .group:0000000000000000 wm4.mss_scb_nwc_regs.h.19.92192026ece1a0bf26c7a7af9a56e40a
                           .group:0000000000000000 wm4.mss_sw_config.h.37.2f79a8233593e640cb9660b9e2020907
                           .group:0000000000000000 wm4.atomic.h.33.7c17fdf64e267483cec1d3aead0473f4
                           .group:0000000000000000 wm4.bits.h.32.2ced66ae3bdb7651edf1ccfb67de7b38
                           .group:0000000000000000 wm4.encoding.h.34.68f898bac6356b153788044b6c29d177
                           .group:0000000000000000 wm4.fpga_design_config.h.28.572b3893a09debe9cb72c1441369aee0
                           .group:0000000000000000 wm4.hw_memory.h.28.20599cf485f90ffaa97f313798a86238
                           .group:0000000000000000 wm4.hw_apb_split.h.28.a2537f445f7a8784a4f064a3a60be381
                           .group:0000000000000000 wm4.hw_cache.h.28.aa59d0803f1283c480a862ba52ff4d4f
                           .group:0000000000000000 wm4.hw_pmp_hart0.h.28.354eeff78ff2eb91d2783e01dbe4e5a4
                           .group:0000000000000000 wm4.hw_pmp_hart1.h.28.0ab9e64d9d5e4b3cdd2ef9fae2ec18f2
                           .group:0000000000000000 wm4.hw_pmp_hart2.h.28.361fe83e7fd64067a0988f3e9bcd6e5d
                           .group:0000000000000000 wm4.hw_pmp_hart3.h.28.8c3eca8078d58a4979d23ae7fc3ceb35
                           .group:0000000000000000 wm4.hw_pmp_hart4.h.28.f8bf6b50f09effab3f4dfc16a44d5d0e
                           .group:0000000000000000 wm4.hw_mpu_fic0.h.28.3a719367ee0b56c20c7541cca5239296
                           .group:0000000000000000 wm4.hw_mpu_fic1.h.28.35d3b72b131707dc62529924d8a0d281
                           .group:0000000000000000 wm4.hw_mpu_fic2.h.28.88b1cd488fc04fd09199876067a670cb
                           .group:0000000000000000 wm4.hw_mpu_crypto.h.28.45628d14bd81b7ae15853711bd55f118
                           .group:0000000000000000 wm4.hw_mpu_gem0.h.28.e88b73a77e588162ac08b038acfe3e30
                           .group:0000000000000000 wm4.hw_mpu_gem1.h.28.dadc3a640dcfb61a8f24791560fa3605
                           .group:0000000000000000 wm4.hw_mpu_usb.h.28.0b0c25c65da87670d72dffa8e9b51ad6
                           .group:0000000000000000 wm4.hw_mpu_mmc.h.28.a5df85f7a87dfaafd939c0c9743b44a9
                           .group:0000000000000000 wm4.hw_mpu_scb.h.28.2b778d620a29a13b1a33733b3fefaf3e
                           .group:0000000000000000 wm4.hw_mpu_trace.h.28.dbb150e27983d45d78ea646dfe7486fe
                           .group:0000000000000000 wm4.hw_mssio_mux.h.28.b18396e0f5e6c83835b3b8e1dfadc1b4
                           .group:0000000000000000 wm4.hw_hsio_mux.h.28.924a66a0f83f27c24767fbfdaffeb21f
                           .group:0000000000000000 wm4.hw_sgmii_tip.h.28.c2c656c87ab558ebf9f510f55b530997
                           .group:0000000000000000 wm4.hw_ddr_options.h.28.583107ebf3250a7e99a4e34ca34040f9
                           .group:0000000000000000 wm4.hw_ddr_io_bank.h.28.09e373f4be71534c2b0bf629a50788a8
                           .group:0000000000000000 wm4.hw_ddr_mode.h.28.3ecff7868bb6c2027433e8aaf3a6e9d0
                           .group:0000000000000000 wm4.hw_ddr_off_mode.h.28.c8f0d4bcf68d083d8ff0335e558930e9
                           .group:0000000000000000 wm4.hw_ddr_segs.h.28.93c530a254cc8a9c015d0bae044125b2
                           .group:0000000000000000 wm4.hw_ddrc.h.28.d858943fbdd3e7761d52c974b21ea425
                           .group:0000000000000000 wm4.hw_mss_clks.h.28.53b1f012440894624f35e610477ed6d8
                           .group:0000000000000000 wm4.hw_clk_sysreg.h.28.adf2eb2b08eeb2ee56f6129328388395
                           .group:0000000000000000 wm4.hw_clk_mss_pll.h.28.f255323a7f4276a824501e07bd0f464a
                           .group:0000000000000000 wm4.hw_clk_sgmii_pll.h.28.b1aefe04f9cda949aee4586f0025e039
                           .group:0000000000000000 wm4.hw_clk_ddr_pll.h.28.8f0ed359dbfb59ae6f0aa1f29002d60d
                           .group:0000000000000000 wm4.hw_clk_mss_cfm.h.28.365f11189fcbf1e2f08db25b2ea1557a
                           .group:0000000000000000 wm4.hw_clk_sgmii_cfm.h.28.f59fda78ad3b4981ccbc9fbc0d90ca0a
                           .group:0000000000000000 wm4.hw_gen_peripherals.h.28.67a363af3ea61147ac365f904e7b6183
                           .group:0000000000000000 wm4.mss_ddr.h.335.a7fe38050b0f6ce3ee0df6f9cb324a9e
                           .group:0000000000000000 wm4.mss_clint.h.28.3d2c636f4c8175d64797a2e961db02ff
                           .group:0000000000000000 wm4.mss_h2f.h.21.7086260854010c63b41a469cd9f7486d
                           .group:0000000000000000 wm4.mss_hart_ints.h.20.df914e6570bee6a0a5e5635d9329f21b
                           .group:0000000000000000 wm4.mss_mpu.h.20.dd1fa2a8702d0e819fbbb263dc6428d1
                           .group:0000000000000000 wm4.mss_pmp.h.19.8f83d750289fe5e95625891444a65774
                           .group:0000000000000000 wm4.mss_plic.h.38.63bddd8b7aeec5445a0ab9c829719734
                           .group:0000000000000000 wm4.mss_seg.h.38.d7fedb2c993ff2eb58c3c1c5f57af66f
                           .group:0000000000000000 wm4.mss_util.h.31.57922375d48cf596b0783b975bb89aba
                           .group:0000000000000000 wm4.mss_mtrap.h.32.75bfcc4d9a15120a34cb2ee456cde55a
                           .group:0000000000000000 wm4.mss_l2_cache.h.430.934410ee5d62996f3b8869a34907e316
                           .group:0000000000000000 wm4.mss_axiswitch.h.110.fc13072c0144cbd8e516d1d4f8c599b2
                           .group:0000000000000000 wm4.mss_peripherals.h.19.9837bc1f8d1c62dfd266b4590a8830b2
                           .group:0000000000000000 wm4.mss_cfm.h.20.474baf099ef6f60b14912c934c5e47c6
                           .group:0000000000000000 wm4.mss_sgmii.h.18.7850ab5b5e05dabb42db8143f362bae8
                           .group:0000000000000000 wm4.system_startup.h.17.372727b49fdab2e286123d13f6b6542a
                           .group:0000000000000000 wm4.mss_ddr_debug.h.40.79a83a45aea2f09f97e5663e254e5e65

NO UNDEFINED SYMBOLS
