   1              		.file	"mss_axiswitch.c"
   2              		.option nopic
   3              		.attribute arch, "rv64i2p0_m2p0_a2p0_f2p0_d2p0_c2p0"
   4              		.attribute unaligned_access, 0
   5              		.attribute stack_align, 16
   6              		.text
   7              	.Ltext0:
   8              		.cfi_sections	.debug_frame
   9              		.section	.text.MSS_AXISW_get_hwcfg,"ax",@progbits
  10              		.align	1
  11              		.globl	MSS_AXISW_get_hwcfg
  13              	MSS_AXISW_get_hwcfg:
  14              	.LFB19:
  15              		.file 1 "../src/platform/mpfs_hal/common/mss_axiswitch.c"
   1:../src/platform/mpfs_hal/common/mss_axiswitch.c **** /*******************************************************************************
   2:../src/platform/mpfs_hal/common/mss_axiswitch.c ****  * Copyright 2019-2022 Microchip FPGA Embedded Systems Solutions.
   3:../src/platform/mpfs_hal/common/mss_axiswitch.c ****  *
   4:../src/platform/mpfs_hal/common/mss_axiswitch.c ****  * SPDX-License-Identifier: MIT
   5:../src/platform/mpfs_hal/common/mss_axiswitch.c ****  *
   6:../src/platform/mpfs_hal/common/mss_axiswitch.c ****  * MPFS HAL Embedded Software
   7:../src/platform/mpfs_hal/common/mss_axiswitch.c ****  *
   8:../src/platform/mpfs_hal/common/mss_axiswitch.c ****  */
   9:../src/platform/mpfs_hal/common/mss_axiswitch.c **** /*******************************************************************************
  10:../src/platform/mpfs_hal/common/mss_axiswitch.c ****  * @file mss_axiswitch.c
  11:../src/platform/mpfs_hal/common/mss_axiswitch.c ****  * @author Microchip-FPGA Embedded Systems Solutions
  12:../src/platform/mpfs_hal/common/mss_axiswitch.c ****  * @brief PolarFire SoC MSS AXI switch configuration
  13:../src/platform/mpfs_hal/common/mss_axiswitch.c ****  *
  14:../src/platform/mpfs_hal/common/mss_axiswitch.c ****  */
  15:../src/platform/mpfs_hal/common/mss_axiswitch.c **** 
  16:../src/platform/mpfs_hal/common/mss_axiswitch.c **** #include <stddef.h>
  17:../src/platform/mpfs_hal/common/mss_axiswitch.c **** #include <stdint.h>
  18:../src/platform/mpfs_hal/common/mss_axiswitch.c **** #include "mpfs_hal/mss_hal.h"
  19:../src/platform/mpfs_hal/common/mss_axiswitch.c **** 
  20:../src/platform/mpfs_hal/common/mss_axiswitch.c **** #ifdef __cplusplus
  21:../src/platform/mpfs_hal/common/mss_axiswitch.c **** extern "C" {
  22:../src/platform/mpfs_hal/common/mss_axiswitch.c **** #endif
  23:../src/platform/mpfs_hal/common/mss_axiswitch.c **** 
  24:../src/platform/mpfs_hal/common/mss_axiswitch.c **** /*Returns the value of AXI_HW_CFG_REG register*/
  25:../src/platform/mpfs_hal/common/mss_axiswitch.c **** uint32_t MSS_AXISW_get_hwcfg(void)
  26:../src/platform/mpfs_hal/common/mss_axiswitch.c **** {
  16              		.loc 1 26 1
  17              		.cfi_startproc
  18 0000 4111     		addi	sp,sp,-16
  19              		.cfi_def_cfa_offset 16
  20 0002 22E4     		sd	s0,8(sp)
  21              		.cfi_offset 8, -8
  22 0004 0008     		addi	s0,sp,16
  23              		.cfi_def_cfa 8, 0
  27:../src/platform/mpfs_hal/common/mss_axiswitch.c ****     return (AXISW->HWCFG);
  24              		.loc 1 27 18
  25 0006 B7470020 		li	a5,536887296
  26 000a DC43     		lw	a5,4(a5)
  27 000c 8127     		sext.w	a5,a5
  28:../src/platform/mpfs_hal/common/mss_axiswitch.c **** }
  28              		.loc 1 28 1
  29 000e 3E85     		mv	a0,a5
  30 0010 2264     		ld	s0,8(sp)
  31              		.cfi_restore 8
  32              		.cfi_def_cfa 2, 16
  33 0012 4101     		addi	sp,sp,16
  34              		.cfi_def_cfa_offset 0
  35 0014 8280     		jr	ra
  36              		.cfi_endproc
  37              	.LFE19:
  39              		.section	.text.MSS_AXISW_get_vid,"ax",@progbits
  40              		.align	1
  41              		.globl	MSS_AXISW_get_vid
  43              	MSS_AXISW_get_vid:
  44              	.LFB20:
  29:../src/platform/mpfs_hal/common/mss_axiswitch.c **** 
  30:../src/platform/mpfs_hal/common/mss_axiswitch.c **** /*Returns the value of AXI_VERSION_ID_REG register*/
  31:../src/platform/mpfs_hal/common/mss_axiswitch.c **** uint32_t MSS_AXISW_get_vid(void)
  32:../src/platform/mpfs_hal/common/mss_axiswitch.c **** {
  45              		.loc 1 32 1
  46              		.cfi_startproc
  47 0000 4111     		addi	sp,sp,-16
  48              		.cfi_def_cfa_offset 16
  49 0002 22E4     		sd	s0,8(sp)
  50              		.cfi_offset 8, -8
  51 0004 0008     		addi	s0,sp,16
  52              		.cfi_def_cfa 8, 0
  33:../src/platform/mpfs_hal/common/mss_axiswitch.c ****     return (AXISW->VID);
  53              		.loc 1 33 18
  54 0006 B7470020 		li	a5,536887296
  55 000a 9C43     		lw	a5,0(a5)
  56 000c 8127     		sext.w	a5,a5
  34:../src/platform/mpfs_hal/common/mss_axiswitch.c **** }
  57              		.loc 1 34 1
  58 000e 3E85     		mv	a0,a5
  59 0010 2264     		ld	s0,8(sp)
  60              		.cfi_restore 8
  61              		.cfi_def_cfa 2, 16
  62 0012 4101     		addi	sp,sp,16
  63              		.cfi_def_cfa_offset 0
  64 0014 8280     		jr	ra
  65              		.cfi_endproc
  66              	.LFE20:
  68              		.section	.text.MSS_AXISW_write_qos_val,"ax",@progbits
  69              		.align	1
  70              		.globl	MSS_AXISW_write_qos_val
  72              	MSS_AXISW_write_qos_val:
  73              	.LFB21:
  35:../src/platform/mpfs_hal/common/mss_axiswitch.c **** 
  36:../src/platform/mpfs_hal/common/mss_axiswitch.c **** /*Performs write operation on the AXI SWITCH APB interface,
  37:../src/platform/mpfs_hal/common/mss_axiswitch.c ****  * Parameters:
  38:../src/platform/mpfs_hal/common/mss_axiswitch.c ****  * master_port_num = AXI Master Port number. See Enum mss_axisw_mport_t above.
  39:../src/platform/mpfs_hal/common/mss_axiswitch.c **** 
  40:../src/platform/mpfs_hal/common/mss_axiswitch.c **** 
  41:../src/platform/mpfs_hal/common/mss_axiswitch.c ****  Note: QoS values are programmable through registers only for AXI3 configurations.
  42:../src/platform/mpfs_hal/common/mss_axiswitch.c ****  We have AXI4 so the QoS value programming should not be attempted.
  43:../src/platform/mpfs_hal/common/mss_axiswitch.c ****  IF you try to write/read QoS value you will get return value =1 (AXI_ERR_BIT)
  44:../src/platform/mpfs_hal/common/mss_axiswitch.c **** 
  45:../src/platform/mpfs_hal/common/mss_axiswitch.c ****  Burstiness peak rate and transaction rate can be configured using other APIs.
  46:../src/platform/mpfs_hal/common/mss_axiswitch.c **** 
  47:../src/platform/mpfs_hal/common/mss_axiswitch.c ****   data: QoS value to be programmed
  48:../src/platform/mpfs_hal/common/mss_axiswitch.c ****  return value: As received form AXI_ERR_BIT in CMD register.
  49:../src/platform/mpfs_hal/common/mss_axiswitch.c **** 
  50:../src/platform/mpfs_hal/common/mss_axiswitch.c ****  * */
  51:../src/platform/mpfs_hal/common/mss_axiswitch.c **** uint32_t MSS_AXISW_write_qos_val(mss_axisw_mport_t master_port_num,
  52:../src/platform/mpfs_hal/common/mss_axiswitch.c ****                                                uint32_t data)
  53:../src/platform/mpfs_hal/common/mss_axiswitch.c **** {
  74              		.loc 1 53 1
  75              		.cfi_startproc
  76 0000 0111     		addi	sp,sp,-32
  77              		.cfi_def_cfa_offset 32
  78 0002 22EC     		sd	s0,24(sp)
  79              		.cfi_offset 8, -8
  80 0004 0010     		addi	s0,sp,32
  81              		.cfi_def_cfa 8, 0
  82 0006 AA87     		mv	a5,a0
  83 0008 2E87     		mv	a4,a1
  84 000a 2326F4FE 		sw	a5,-20(s0)
  85 000e BA87     		mv	a5,a4
  86 0010 2324F4FE 		sw	a5,-24(s0)
  54:../src/platform/mpfs_hal/common/mss_axiswitch.c ****     while(AXISW->CMD & AXISW_CMD_EN_MASK);  /*make sure previous command completed*/
  87              		.loc 1 54 10
  88 0014 0100     		nop
  89              	.L6:
  90              		.loc 1 54 16 discriminator 1
  91 0016 B7470020 		li	a5,536887296
  92 001a 9C47     		lw	a5,8(a5)
  93 001c 8127     		sext.w	a5,a5
  94              		.loc 1 54 11 discriminator 1
  95 001e 8127     		sext.w	a5,a5
  96              		.loc 1 54 10 discriminator 1
  97 0020 E3CB07FE 		blt	a5,zero,.L6
  55:../src/platform/mpfs_hal/common/mss_axiswitch.c **** 
  56:../src/platform/mpfs_hal/common/mss_axiswitch.c ****     AXISW->DATA = data & AXISW_DATA_QOSVAL_MASK;  /*only valid values of bits[3:0]*/
  98              		.loc 1 56 10
  99 0024 B7470020 		li	a5,536887296
 100              		.loc 1 56 24
 101 0028 032784FE 		lw	a4,-24(s0)
 102 002c 3D8B     		andi	a4,a4,15
 103 002e 0127     		sext.w	a4,a4
 104              		.loc 1 56 17
 105 0030 D8C7     		sw	a4,12(a5)
  57:../src/platform/mpfs_hal/common/mss_axiswitch.c **** 
  58:../src/platform/mpfs_hal/common/mss_axiswitch.c ****     AXISW->CMD = (AXISW_CMD_RW_MASK |
  59:../src/platform/mpfs_hal/common/mss_axiswitch.c ****                  (master_port_num << AXISW_CMD_RWCHAN) |
 106              		.loc 1 59 35
 107 0032 8327C4FE 		lw	a5,-20(s0)
 108 0036 9B977700 		slliw	a5,a5,7
 109 003a 1B870700 		sext.w	a4,a5
  58:../src/platform/mpfs_hal/common/mss_axiswitch.c ****                  (master_port_num << AXISW_CMD_RWCHAN) |
 110              		.loc 1 58 10
 111 003e B7470020 		li	a5,536887296
  60:../src/platform/mpfs_hal/common/mss_axiswitch.c ****                  MSS_AXISW_QOS_VAL |
 112              		.loc 1 60 36
 113 0042 BA86     		mv	a3,a4
 114 0044 370700C0 		li	a4,-1073741824
 115 0048 0907     		addi	a4,a4,2
 116 004a 558F     		or	a4,a3,a4
 117 004c 0127     		sext.w	a4,a4
  58:../src/platform/mpfs_hal/common/mss_axiswitch.c ****                  (master_port_num << AXISW_CMD_RWCHAN) |
 118              		.loc 1 58 16
 119 004e 98C7     		sw	a4,8(a5)
  61:../src/platform/mpfs_hal/common/mss_axiswitch.c ****                  AXISW_CMD_EN_MASK);
  62:../src/platform/mpfs_hal/common/mss_axiswitch.c **** 
  63:../src/platform/mpfs_hal/common/mss_axiswitch.c ****     while(AXISW->CMD & AXISW_CMD_EN_MASK);    /*Wait for command to complete*/
 120              		.loc 1 63 10
 121 0050 0100     		nop
 122              	.L7:
 123              		.loc 1 63 16 discriminator 1
 124 0052 B7470020 		li	a5,536887296
 125 0056 9C47     		lw	a5,8(a5)
 126 0058 8127     		sext.w	a5,a5
 127              		.loc 1 63 11 discriminator 1
 128 005a 8127     		sext.w	a5,a5
 129              		.loc 1 63 10 discriminator 1
 130 005c E3CB07FE 		blt	a5,zero,.L7
  64:../src/platform/mpfs_hal/common/mss_axiswitch.c **** 
  65:../src/platform/mpfs_hal/common/mss_axiswitch.c ****     return ((AXISW->CMD & AXISW_CMD_ERR_MASK) >> AXISW_CMD_ERR);   /*return error bit value*/
 131              		.loc 1 65 19
 132 0060 B7470020 		li	a5,536887296
 133 0064 9C47     		lw	a5,8(a5)
 134 0066 8127     		sext.w	a5,a5
 135              		.loc 1 65 47
 136 0068 9BD7C701 		srliw	a5,a5,28
 137 006c 8127     		sext.w	a5,a5
 138 006e 858B     		andi	a5,a5,1
 139 0070 8127     		sext.w	a5,a5
  66:../src/platform/mpfs_hal/common/mss_axiswitch.c **** }
 140              		.loc 1 66 1
 141 0072 3E85     		mv	a0,a5
 142 0074 6264     		ld	s0,24(sp)
 143              		.cfi_restore 8
 144              		.cfi_def_cfa 2, 32
 145 0076 0561     		addi	sp,sp,32
 146              		.cfi_def_cfa_offset 0
 147 0078 8280     		jr	ra
 148              		.cfi_endproc
 149              	.LFE21:
 151              		.section	.text.MSS_AXISW_read_qos_val,"ax",@progbits
 152              		.align	1
 153              		.globl	MSS_AXISW_read_qos_val
 155              	MSS_AXISW_read_qos_val:
 156              	.LFB22:
  67:../src/platform/mpfs_hal/common/mss_axiswitch.c **** 
  68:../src/platform/mpfs_hal/common/mss_axiswitch.c **** /*Performs read operation on the AXI SWITCH APB interface,
  69:../src/platform/mpfs_hal/common/mss_axiswitch.c ****  * Parameters:
  70:../src/platform/mpfs_hal/common/mss_axiswitch.c ****  * master_port_num = AXI Master Port number. See Enum mss_axisw_mport_t above.
  71:../src/platform/mpfs_hal/common/mss_axiswitch.c ****  *
  72:../src/platform/mpfs_hal/common/mss_axiswitch.c ****  * Note: QoS values are programmable through registers only for AXI3 configurations.
  73:../src/platform/mpfs_hal/common/mss_axiswitch.c ****  We have AXI4 so the QoS value programming should not be attempted.
  74:../src/platform/mpfs_hal/common/mss_axiswitch.c ****  IF you try to write/read QoS value you will get return value =1 (AXI_ERR_BIT)
  75:../src/platform/mpfs_hal/common/mss_axiswitch.c ****  *
  76:../src/platform/mpfs_hal/common/mss_axiswitch.c ****  * returns the data returned by AXI SWITCH read operation for QoS command
  77:../src/platform/mpfs_hal/common/mss_axiswitch.c ****  *
  78:../src/platform/mpfs_hal/common/mss_axiswitch.c ****  * return value: As received form AXI_ERR_BIT in CMD register.
  79:../src/platform/mpfs_hal/common/mss_axiswitch.c ****  */
  80:../src/platform/mpfs_hal/common/mss_axiswitch.c **** uint32_t MSS_AXISW_read_qos_val(mss_axisw_mport_t master_port_num,
  81:../src/platform/mpfs_hal/common/mss_axiswitch.c ****                                               uint32_t* rd_data)
  82:../src/platform/mpfs_hal/common/mss_axiswitch.c **** {
 157              		.loc 1 82 1
 158              		.cfi_startproc
 159 0000 0111     		addi	sp,sp,-32
 160              		.cfi_def_cfa_offset 32
 161 0002 22EC     		sd	s0,24(sp)
 162              		.cfi_offset 8, -8
 163 0004 0010     		addi	s0,sp,32
 164              		.cfi_def_cfa 8, 0
 165 0006 AA87     		mv	a5,a0
 166 0008 2330B4FE 		sd	a1,-32(s0)
 167 000c 2326F4FE 		sw	a5,-20(s0)
  83:../src/platform/mpfs_hal/common/mss_axiswitch.c **** 
  84:../src/platform/mpfs_hal/common/mss_axiswitch.c ****     while(AXISW->CMD & AXISW_CMD_EN_MASK);
 168              		.loc 1 84 10
 169 0010 0100     		nop
 170              	.L10:
 171              		.loc 1 84 16 discriminator 1
 172 0012 B7470020 		li	a5,536887296
 173 0016 9C47     		lw	a5,8(a5)
 174 0018 8127     		sext.w	a5,a5
 175              		.loc 1 84 11 discriminator 1
 176 001a 8127     		sext.w	a5,a5
 177              		.loc 1 84 10 discriminator 1
 178 001c E3CB07FE 		blt	a5,zero,.L10
  85:../src/platform/mpfs_hal/common/mss_axiswitch.c **** 
  86:../src/platform/mpfs_hal/common/mss_axiswitch.c ****     AXISW->CMD &= ~(AXISW_CMD_RW_MASK);  /*Clear read/write bit*/
 179              		.loc 1 86 16
 180 0020 B7470020 		li	a5,536887296
 181 0024 9C47     		lw	a5,8(a5)
 182 0026 1B870700 		sext.w	a4,a5
 183 002a B7470020 		li	a5,536887296
 184 002e BA86     		mv	a3,a4
 185 0030 370700C0 		li	a4,-1073741824
 186 0034 7D17     		addi	a4,a4,-1
 187 0036 758F     		and	a4,a3,a4
 188 0038 0127     		sext.w	a4,a4
 189 003a 98C7     		sw	a4,8(a5)
  87:../src/platform/mpfs_hal/common/mss_axiswitch.c **** 
  88:../src/platform/mpfs_hal/common/mss_axiswitch.c ****     AXISW->CMD = ((master_port_num << AXISW_CMD_RWCHAN) | (MSS_AXISW_QOS_VAL) | AXISW_CMD_EN_MASK);
 190              		.loc 1 88 36
 191 003c 8327C4FE 		lw	a5,-20(s0)
 192 0040 9B977700 		slliw	a5,a5,7
 193 0044 1B870700 		sext.w	a4,a5
 194              		.loc 1 88 10
 195 0048 B7470020 		li	a5,536887296
 196              		.loc 1 88 79
 197 004c BA86     		mv	a3,a4
 198 004e 37070080 		li	a4,-2147483648
 199 0052 0907     		addi	a4,a4,2
 200 0054 558F     		or	a4,a3,a4
 201 0056 0127     		sext.w	a4,a4
 202              		.loc 1 88 16
 203 0058 98C7     		sw	a4,8(a5)
  89:../src/platform/mpfs_hal/common/mss_axiswitch.c **** 
  90:../src/platform/mpfs_hal/common/mss_axiswitch.c ****     while(AXISW->CMD & AXISW_CMD_EN_MASK);
 204              		.loc 1 90 10
 205 005a 0100     		nop
 206              	.L11:
 207              		.loc 1 90 16 discriminator 1
 208 005c B7470020 		li	a5,536887296
 209 0060 9C47     		lw	a5,8(a5)
 210 0062 8127     		sext.w	a5,a5
 211              		.loc 1 90 11 discriminator 1
 212 0064 8127     		sext.w	a5,a5
 213              		.loc 1 90 10 discriminator 1
 214 0066 E3CB07FE 		blt	a5,zero,.L11
  91:../src/platform/mpfs_hal/common/mss_axiswitch.c **** 
  92:../src/platform/mpfs_hal/common/mss_axiswitch.c ****     *rd_data = AXISW->DATA & AXISW_DATA_QOSVAL_MASK;
 215              		.loc 1 92 21
 216 006a B7470020 		li	a5,536887296
 217 006e DC47     		lw	a5,12(a5)
 218 0070 8127     		sext.w	a5,a5
 219              		.loc 1 92 28
 220 0072 BD8B     		andi	a5,a5,15
 221 0074 1B870700 		sext.w	a4,a5
 222              		.loc 1 92 14
 223 0078 833704FE 		ld	a5,-32(s0)
 224 007c 98C3     		sw	a4,0(a5)
  93:../src/platform/mpfs_hal/common/mss_axiswitch.c **** 
  94:../src/platform/mpfs_hal/common/mss_axiswitch.c ****     return ((AXISW->CMD & AXISW_CMD_ERR_MASK) >> AXISW_CMD_ERR);   /*return error bit value*/
 225              		.loc 1 94 19
 226 007e B7470020 		li	a5,536887296
 227 0082 9C47     		lw	a5,8(a5)
 228 0084 8127     		sext.w	a5,a5
 229              		.loc 1 94 47
 230 0086 9BD7C701 		srliw	a5,a5,28
 231 008a 8127     		sext.w	a5,a5
 232 008c 858B     		andi	a5,a5,1
 233 008e 8127     		sext.w	a5,a5
  95:../src/platform/mpfs_hal/common/mss_axiswitch.c **** }
 234              		.loc 1 95 1
 235 0090 3E85     		mv	a0,a5
 236 0092 6264     		ld	s0,24(sp)
 237              		.cfi_restore 8
 238              		.cfi_def_cfa 2, 32
 239 0094 0561     		addi	sp,sp,32
 240              		.cfi_def_cfa_offset 0
 241 0096 8280     		jr	ra
 242              		.cfi_endproc
 243              	.LFE22:
 245              		.section	.text.MSS_AXISW_write_rate,"ax",@progbits
 246              		.align	1
 247              		.globl	MSS_AXISW_write_rate
 249              	MSS_AXISW_write_rate:
 250              	.LFB23:
  96:../src/platform/mpfs_hal/common/mss_axiswitch.c **** 
  97:../src/platform/mpfs_hal/common/mss_axiswitch.c **** /* Programs the peak rate and transaction rate value for the given master port
  98:../src/platform/mpfs_hal/common/mss_axiswitch.c ****  read/write address channel
  99:../src/platform/mpfs_hal/common/mss_axiswitch.c **** 
 100:../src/platform/mpfs_hal/common/mss_axiswitch.c ****  NOTE: Peak rate and transaction rate are programmed simultaneously in one command.
 101:../src/platform/mpfs_hal/common/mss_axiswitch.c ****  So we must make sure that both desired valid values must be provided.
 102:../src/platform/mpfs_hal/common/mss_axiswitch.c **** 
 103:../src/platform/mpfs_hal/common/mss_axiswitch.c **** * return value: As received form AXI_ERR_BIT in CMD register.
 104:../src/platform/mpfs_hal/common/mss_axiswitch.c **** 
 105:../src/platform/mpfs_hal/common/mss_axiswitch.c **** */
 106:../src/platform/mpfs_hal/common/mss_axiswitch.c **** uint32_t MSS_AXISW_write_rate(mss_axisw_mport_t master_port_num,
 107:../src/platform/mpfs_hal/common/mss_axiswitch.c ****                                             mss_axisw_rate_t peak_rate,
 108:../src/platform/mpfs_hal/common/mss_axiswitch.c ****                                             mss_axisw_rate_t xct_rate)
 109:../src/platform/mpfs_hal/common/mss_axiswitch.c **** {
 251              		.loc 1 109 1
 252              		.cfi_startproc
 253 0000 0111     		addi	sp,sp,-32
 254              		.cfi_def_cfa_offset 32
 255 0002 22EC     		sd	s0,24(sp)
 256              		.cfi_offset 8, -8
 257 0004 0010     		addi	s0,sp,32
 258              		.cfi_def_cfa 8, 0
 259 0006 AA87     		mv	a5,a0
 260 0008 AE86     		mv	a3,a1
 261 000a 3287     		mv	a4,a2
 262 000c 2326F4FE 		sw	a5,-20(s0)
 263 0010 B687     		mv	a5,a3
 264 0012 2324F4FE 		sw	a5,-24(s0)
 265 0016 BA87     		mv	a5,a4
 266 0018 2322F4FE 		sw	a5,-28(s0)
 110:../src/platform/mpfs_hal/common/mss_axiswitch.c ****     while(AXISW->CMD & AXISW_CMD_EN_MASK);  /*make sure previous command completed*/
 267              		.loc 1 110 10
 268 001c 0100     		nop
 269              	.L14:
 270              		.loc 1 110 16 discriminator 1
 271 001e B7470020 		li	a5,536887296
 272 0022 9C47     		lw	a5,8(a5)
 273 0024 8127     		sext.w	a5,a5
 274              		.loc 1 110 11 discriminator 1
 275 0026 8127     		sext.w	a5,a5
 276              		.loc 1 110 10 discriminator 1
 277 0028 E3CB07FE 		blt	a5,zero,.L14
 111:../src/platform/mpfs_hal/common/mss_axiswitch.c ****     AXISW->DATA = ((peak_rate) << AXISW_DATA_PEAKRT) | ((xct_rate) << AXISW_DATA_XCTRT) ;
 278              		.loc 1 111 32
 279 002c 832784FE 		lw	a5,-24(s0)
 280 0030 9B974701 		slliw	a5,a5,20
 281 0034 9B860700 		sext.w	a3,a5
 282              		.loc 1 111 68
 283 0038 832744FE 		lw	a5,-28(s0)
 284 003c 9B974700 		slliw	a5,a5,4
 285 0040 1B870700 		sext.w	a4,a5
 286              		.loc 1 111 10
 287 0044 B7470020 		li	a5,536887296
 288              		.loc 1 111 54
 289 0048 558F     		or	a4,a3,a4
 290 004a 0127     		sext.w	a4,a4
 291              		.loc 1 111 17
 292 004c D8C7     		sw	a4,12(a5)
 112:../src/platform/mpfs_hal/common/mss_axiswitch.c **** 
 113:../src/platform/mpfs_hal/common/mss_axiswitch.c ****     AXISW->CMD = (AXISW_CMD_RW_MASK |
 114:../src/platform/mpfs_hal/common/mss_axiswitch.c ****                  (master_port_num << AXISW_CMD_RWCHAN) |
 293              		.loc 1 114 35
 294 004e 8327C4FE 		lw	a5,-20(s0)
 295 0052 9B977700 		slliw	a5,a5,7
 296 0056 1B870700 		sext.w	a4,a5
 113:../src/platform/mpfs_hal/common/mss_axiswitch.c ****                  (master_port_num << AXISW_CMD_RWCHAN) |
 297              		.loc 1 113 10
 298 005a B7470020 		li	a5,536887296
 115:../src/platform/mpfs_hal/common/mss_axiswitch.c ****                  (MSS_AXISW_PEAKRT_XCTRT) |
 299              		.loc 1 115 43
 300 005e BA86     		mv	a3,a4
 301 0060 370700C0 		li	a4,-1073741824
 302 0064 0507     		addi	a4,a4,1
 303 0066 558F     		or	a4,a3,a4
 304 0068 0127     		sext.w	a4,a4
 113:../src/platform/mpfs_hal/common/mss_axiswitch.c ****                  (master_port_num << AXISW_CMD_RWCHAN) |
 305              		.loc 1 113 16
 306 006a 98C7     		sw	a4,8(a5)
 116:../src/platform/mpfs_hal/common/mss_axiswitch.c ****                  AXISW_CMD_EN_MASK);
 117:../src/platform/mpfs_hal/common/mss_axiswitch.c **** 
 118:../src/platform/mpfs_hal/common/mss_axiswitch.c ****     while(AXISW->CMD & AXISW_CMD_EN_MASK);    /*Wait for command to complete*/
 307              		.loc 1 118 10
 308 006c 0100     		nop
 309              	.L15:
 310              		.loc 1 118 16 discriminator 1
 311 006e B7470020 		li	a5,536887296
 312 0072 9C47     		lw	a5,8(a5)
 313 0074 8127     		sext.w	a5,a5
 314              		.loc 1 118 11 discriminator 1
 315 0076 8127     		sext.w	a5,a5
 316              		.loc 1 118 10 discriminator 1
 317 0078 E3CB07FE 		blt	a5,zero,.L15
 119:../src/platform/mpfs_hal/common/mss_axiswitch.c **** 
 120:../src/platform/mpfs_hal/common/mss_axiswitch.c ****     return ((AXISW->CMD & AXISW_CMD_ERR_MASK) >> AXISW_CMD_ERR);   /*return error bit value*/
 318              		.loc 1 120 19
 319 007c B7470020 		li	a5,536887296
 320 0080 9C47     		lw	a5,8(a5)
 321 0082 8127     		sext.w	a5,a5
 322              		.loc 1 120 47
 323 0084 9BD7C701 		srliw	a5,a5,28
 324 0088 8127     		sext.w	a5,a5
 325 008a 858B     		andi	a5,a5,1
 326 008c 8127     		sext.w	a5,a5
 121:../src/platform/mpfs_hal/common/mss_axiswitch.c **** }
 327              		.loc 1 121 1
 328 008e 3E85     		mv	a0,a5
 329 0090 6264     		ld	s0,24(sp)
 330              		.cfi_restore 8
 331              		.cfi_def_cfa 2, 32
 332 0092 0561     		addi	sp,sp,32
 333              		.cfi_def_cfa_offset 0
 334 0094 8280     		jr	ra
 335              		.cfi_endproc
 336              	.LFE23:
 338              		.section	.text.MSS_AXISW_read_rate,"ax",@progbits
 339              		.align	1
 340              		.globl	MSS_AXISW_read_rate
 342              	MSS_AXISW_read_rate:
 343              	.LFB24:
 122:../src/platform/mpfs_hal/common/mss_axiswitch.c **** 
 123:../src/platform/mpfs_hal/common/mss_axiswitch.c **** /* Reads the peak rate and transaction rate value for the given master port
 124:../src/platform/mpfs_hal/common/mss_axiswitch.c **** read/write address channel
 125:../src/platform/mpfs_hal/common/mss_axiswitch.c **** peak_rate: returns the value of peak rate
 126:../src/platform/mpfs_hal/common/mss_axiswitch.c **** xct_rate: returns the value of transaction rate
 127:../src/platform/mpfs_hal/common/mss_axiswitch.c **** return value: As received form AXI_ERR_BIT in CMD register.
 128:../src/platform/mpfs_hal/common/mss_axiswitch.c **** 
 129:../src/platform/mpfs_hal/common/mss_axiswitch.c **** */
 130:../src/platform/mpfs_hal/common/mss_axiswitch.c **** uint32_t MSS_AXISW_read_rate(mss_axisw_mport_t master_port_num,
 131:../src/platform/mpfs_hal/common/mss_axiswitch.c ****                                           mss_axisw_rate_t* peak_rate,
 132:../src/platform/mpfs_hal/common/mss_axiswitch.c ****                                           mss_axisw_rate_t* xct_rate)
 133:../src/platform/mpfs_hal/common/mss_axiswitch.c **** {
 344              		.loc 1 133 1
 345              		.cfi_startproc
 346 0000 3971     		addi	sp,sp,-64
 347              		.cfi_def_cfa_offset 64
 348 0002 22FC     		sd	s0,56(sp)
 349              		.cfi_offset 8, -8
 350 0004 8000     		addi	s0,sp,64
 351              		.cfi_def_cfa 8, 0
 352 0006 AA87     		mv	a5,a0
 353 0008 2338B4FC 		sd	a1,-48(s0)
 354 000c 2334C4FC 		sd	a2,-56(s0)
 355 0010 232EF4FC 		sw	a5,-36(s0)
 134:../src/platform/mpfs_hal/common/mss_axiswitch.c ****     uint32_t temp = 0u;
 356              		.loc 1 134 14
 357 0014 232604FE 		sw	zero,-20(s0)
 135:../src/platform/mpfs_hal/common/mss_axiswitch.c ****     while(AXISW->CMD & AXISW_CMD_EN_MASK);
 358              		.loc 1 135 10
 359 0018 0100     		nop
 360              	.L18:
 361              		.loc 1 135 16 discriminator 1
 362 001a B7470020 		li	a5,536887296
 363 001e 9C47     		lw	a5,8(a5)
 364 0020 8127     		sext.w	a5,a5
 365              		.loc 1 135 11 discriminator 1
 366 0022 8127     		sext.w	a5,a5
 367              		.loc 1 135 10 discriminator 1
 368 0024 E3CB07FE 		blt	a5,zero,.L18
 136:../src/platform/mpfs_hal/common/mss_axiswitch.c **** 
 137:../src/platform/mpfs_hal/common/mss_axiswitch.c ****     AXISW->CMD &= ~(AXISW_CMD_RW_MASK);  /*Clear read/write and command EN bit*/
 369              		.loc 1 137 16
 370 0028 B7470020 		li	a5,536887296
 371 002c 9C47     		lw	a5,8(a5)
 372 002e 1B870700 		sext.w	a4,a5
 373 0032 B7470020 		li	a5,536887296
 374 0036 BA86     		mv	a3,a4
 375 0038 370700C0 		li	a4,-1073741824
 376 003c 7D17     		addi	a4,a4,-1
 377 003e 758F     		and	a4,a3,a4
 378 0040 0127     		sext.w	a4,a4
 379 0042 98C7     		sw	a4,8(a5)
 138:../src/platform/mpfs_hal/common/mss_axiswitch.c **** 
 139:../src/platform/mpfs_hal/common/mss_axiswitch.c ****     AXISW->CMD = ((master_port_num << AXISW_CMD_RWCHAN) |
 380              		.loc 1 139 36
 381 0044 8327C4FD 		lw	a5,-36(s0)
 382 0048 9B977700 		slliw	a5,a5,7
 383 004c 1B870700 		sext.w	a4,a5
 384              		.loc 1 139 10
 385 0050 B7470020 		li	a5,536887296
 140:../src/platform/mpfs_hal/common/mss_axiswitch.c ****                  (MSS_AXISW_PEAKRT_XCTRT) |
 386              		.loc 1 140 43
 387 0054 BA86     		mv	a3,a4
 388 0056 37070080 		li	a4,-2147483648
 389 005a 0507     		addi	a4,a4,1
 390 005c 558F     		or	a4,a3,a4
 391 005e 0127     		sext.w	a4,a4
 139:../src/platform/mpfs_hal/common/mss_axiswitch.c ****                  (MSS_AXISW_PEAKRT_XCTRT) |
 392              		.loc 1 139 16
 393 0060 98C7     		sw	a4,8(a5)
 141:../src/platform/mpfs_hal/common/mss_axiswitch.c ****                  AXISW_CMD_EN_MASK);
 142:../src/platform/mpfs_hal/common/mss_axiswitch.c **** 
 143:../src/platform/mpfs_hal/common/mss_axiswitch.c ****     while(AXISW->CMD & AXISW_CMD_EN_MASK);
 394              		.loc 1 143 10
 395 0062 0100     		nop
 396              	.L19:
 397              		.loc 1 143 16 discriminator 1
 398 0064 B7470020 		li	a5,536887296
 399 0068 9C47     		lw	a5,8(a5)
 400 006a 8127     		sext.w	a5,a5
 401              		.loc 1 143 11 discriminator 1
 402 006c 8127     		sext.w	a5,a5
 403              		.loc 1 143 10 discriminator 1
 404 006e E3CB07FE 		blt	a5,zero,.L19
 144:../src/platform/mpfs_hal/common/mss_axiswitch.c **** 
 145:../src/platform/mpfs_hal/common/mss_axiswitch.c ****     temp = AXISW->DATA;
 405              		.loc 1 145 17
 406 0072 B7470020 		li	a5,536887296
 407              		.loc 1 145 10
 408 0076 DC47     		lw	a5,12(a5)
 409 0078 2326F4FE 		sw	a5,-20(s0)
 146:../src/platform/mpfs_hal/common/mss_axiswitch.c **** 
 147:../src/platform/mpfs_hal/common/mss_axiswitch.c ****     *peak_rate = (temp & AXISW_DATA_PEAKRT_MASK) >> AXISW_DATA_PEAKRT;
 410              		.loc 1 147 50
 411 007c 8327C4FE 		lw	a5,-20(s0)
 412 0080 9BD74701 		srliw	a5,a5,20
 413 0084 1B870700 		sext.w	a4,a5
 414              		.loc 1 147 16
 415 0088 833704FD 		ld	a5,-48(s0)
 416 008c 98C3     		sw	a4,0(a5)
 148:../src/platform/mpfs_hal/common/mss_axiswitch.c ****     *xct_rate = (temp & AXISW_DATA_XCTRT_MASK) >> AXISW_DATA_XCTRT;
 417              		.loc 1 148 48
 418 008e 8327C4FE 		lw	a5,-20(s0)
 419 0092 9BD74700 		srliw	a5,a5,4
 420 0096 8127     		sext.w	a5,a5
 421 0098 3E87     		mv	a4,a5
 422 009a 8567     		li	a5,4096
 423 009c FD17     		addi	a5,a5,-1
 424 009e F98F     		and	a5,a4,a5
 425 00a0 1B870700 		sext.w	a4,a5
 426              		.loc 1 148 15
 427 00a4 833784FC 		ld	a5,-56(s0)
 428 00a8 98C3     		sw	a4,0(a5)
 149:../src/platform/mpfs_hal/common/mss_axiswitch.c **** 
 150:../src/platform/mpfs_hal/common/mss_axiswitch.c ****     return ((AXISW->CMD & AXISW_CMD_ERR_MASK) >> AXISW_CMD_ERR);   /*return error bit value*/
 429              		.loc 1 150 19
 430 00aa B7470020 		li	a5,536887296
 431 00ae 9C47     		lw	a5,8(a5)
 432 00b0 8127     		sext.w	a5,a5
 433              		.loc 1 150 47
 434 00b2 9BD7C701 		srliw	a5,a5,28
 435 00b6 8127     		sext.w	a5,a5
 436 00b8 858B     		andi	a5,a5,1
 437 00ba 8127     		sext.w	a5,a5
 151:../src/platform/mpfs_hal/common/mss_axiswitch.c **** }
 438              		.loc 1 151 1
 439 00bc 3E85     		mv	a0,a5
 440 00be 6274     		ld	s0,56(sp)
 441              		.cfi_restore 8
 442              		.cfi_def_cfa 2, 64
 443 00c0 2161     		addi	sp,sp,64
 444              		.cfi_def_cfa_offset 0
 445 00c2 8280     		jr	ra
 446              		.cfi_endproc
 447              	.LFE24:
 449              		.section	.text.MSS_AXISW_write_burstiness,"ax",@progbits
 450              		.align	1
 451              		.globl	MSS_AXISW_write_burstiness
 453              	MSS_AXISW_write_burstiness:
 454              	.LFB25:
 152:../src/platform/mpfs_hal/common/mss_axiswitch.c **** 
 153:../src/platform/mpfs_hal/common/mss_axiswitch.c **** /* Programs the burstiness value for the given master port read/write address channel
 154:../src/platform/mpfs_hal/common/mss_axiswitch.c **** 
 155:../src/platform/mpfs_hal/common/mss_axiswitch.c **** burstiness_val: burstiness value to be programmed
 156:../src/platform/mpfs_hal/common/mss_axiswitch.c **** NOTE: Burstiness value formula as mentioned in AXISW document is Burstiness = DataReg[23:16] + 1
 157:../src/platform/mpfs_hal/common/mss_axiswitch.c **** 
 158:../src/platform/mpfs_hal/common/mss_axiswitch.c **** regulator_en: QoS regulator Enable 1= enable, 0 = disable
 159:../src/platform/mpfs_hal/common/mss_axiswitch.c **** 
 160:../src/platform/mpfs_hal/common/mss_axiswitch.c **** * return value: As received form AXI_ERR_BIT in CMD register.
 161:../src/platform/mpfs_hal/common/mss_axiswitch.c **** */
 162:../src/platform/mpfs_hal/common/mss_axiswitch.c **** int32_t MSS_AXISW_write_burstiness(mss_axisw_mport_t master_port_num,
 163:../src/platform/mpfs_hal/common/mss_axiswitch.c ****                                                   uint32_t burstiness_val,
 164:../src/platform/mpfs_hal/common/mss_axiswitch.c ****                                                   uint32_t regulator_en)
 165:../src/platform/mpfs_hal/common/mss_axiswitch.c **** {
 455              		.loc 1 165 1
 456              		.cfi_startproc
 457 0000 0111     		addi	sp,sp,-32
 458              		.cfi_def_cfa_offset 32
 459 0002 22EC     		sd	s0,24(sp)
 460              		.cfi_offset 8, -8
 461 0004 0010     		addi	s0,sp,32
 462              		.cfi_def_cfa 8, 0
 463 0006 AA87     		mv	a5,a0
 464 0008 AE86     		mv	a3,a1
 465 000a 3287     		mv	a4,a2
 466 000c 2326F4FE 		sw	a5,-20(s0)
 467 0010 B687     		mv	a5,a3
 468 0012 2324F4FE 		sw	a5,-24(s0)
 469 0016 BA87     		mv	a5,a4
 470 0018 2322F4FE 		sw	a5,-28(s0)
 166:../src/platform/mpfs_hal/common/mss_axiswitch.c **** 
 167:../src/platform/mpfs_hal/common/mss_axiswitch.c ****     while(AXISW->CMD & AXISW_CMD_EN_MASK);  /*make sure previous command completed*/
 471              		.loc 1 167 10
 472 001c 0100     		nop
 473              	.L22:
 474              		.loc 1 167 16 discriminator 1
 475 001e B7470020 		li	a5,536887296
 476 0022 9C47     		lw	a5,8(a5)
 477 0024 8127     		sext.w	a5,a5
 478              		.loc 1 167 11 discriminator 1
 479 0026 8127     		sext.w	a5,a5
 480              		.loc 1 167 10 discriminator 1
 481 0028 E3CB07FE 		blt	a5,zero,.L22
 168:../src/platform/mpfs_hal/common/mss_axiswitch.c **** 
 169:../src/platform/mpfs_hal/common/mss_axiswitch.c ****     /*Write burstiness value and enable burstiness regulator.
 170:../src/platform/mpfs_hal/common/mss_axiswitch.c ****      * Burstiness_val=0 is not valid.
 171:../src/platform/mpfs_hal/common/mss_axiswitch.c ****     Burstiness value formula as mentioned in AXISW document is Burstiness = DataReg[23:16] + 1*/
 172:../src/platform/mpfs_hal/common/mss_axiswitch.c **** 
 173:../src/platform/mpfs_hal/common/mss_axiswitch.c ****     if(burstiness_val == 0)
 482              		.loc 1 173 7
 483 002c 832784FE 		lw	a5,-24(s0)
 484 0030 8127     		sext.w	a5,a5
 485 0032 99E3     		bne	a5,zero,.L23
 174:../src/platform/mpfs_hal/common/mss_axiswitch.c ****     {
 175:../src/platform/mpfs_hal/common/mss_axiswitch.c ****     	return -1;
 486              		.loc 1 175 13
 487 0034 FD57     		li	a5,-1
 488 0036 9DA0     		j	.L24
 489              	.L23:
 176:../src/platform/mpfs_hal/common/mss_axiswitch.c ****     }
 177:../src/platform/mpfs_hal/common/mss_axiswitch.c ****     else
 178:../src/platform/mpfs_hal/common/mss_axiswitch.c ****     {
 179:../src/platform/mpfs_hal/common/mss_axiswitch.c ****         AXISW->DATA = ((burstiness_val - 1u) << AXISW_DATA_BURSTI) | (regulator_en & 0x01);
 490              		.loc 1 179 40
 491 0038 832784FE 		lw	a5,-24(s0)
 492 003c FD37     		addiw	a5,a5,-1
 493 003e 8127     		sext.w	a5,a5
 494              		.loc 1 179 46
 495 0040 9B970701 		slliw	a5,a5,16
 496 0044 9B860700 		sext.w	a3,a5
 497              		.loc 1 179 84
 498 0048 832744FE 		lw	a5,-28(s0)
 499 004c 858B     		andi	a5,a5,1
 500 004e 1B870700 		sext.w	a4,a5
 501              		.loc 1 179 14
 502 0052 B7470020 		li	a5,536887296
 503              		.loc 1 179 68
 504 0056 558F     		or	a4,a3,a4
 505 0058 0127     		sext.w	a4,a4
 506              		.loc 1 179 21
 507 005a D8C7     		sw	a4,12(a5)
 180:../src/platform/mpfs_hal/common/mss_axiswitch.c ****     }
 181:../src/platform/mpfs_hal/common/mss_axiswitch.c **** 
 182:../src/platform/mpfs_hal/common/mss_axiswitch.c ****     AXISW->CMD = (AXISW_CMD_RW_MASK |
 183:../src/platform/mpfs_hal/common/mss_axiswitch.c ****                  (master_port_num << AXISW_CMD_RWCHAN) |
 508              		.loc 1 183 35
 509 005c 8327C4FE 		lw	a5,-20(s0)
 510 0060 9B977700 		slliw	a5,a5,7
 511 0064 1B870700 		sext.w	a4,a5
 182:../src/platform/mpfs_hal/common/mss_axiswitch.c ****                  (master_port_num << AXISW_CMD_RWCHAN) |
 512              		.loc 1 182 10
 513 0068 B7470020 		li	a5,536887296
 184:../src/platform/mpfs_hal/common/mss_axiswitch.c ****                  (MSS_AXISW_BURSTINESS_EN) |
 514              		.loc 1 184 44
 515 006c BA86     		mv	a3,a4
 516 006e 370700C0 		li	a4,-1073741824
 517 0072 558F     		or	a4,a3,a4
 518 0074 0127     		sext.w	a4,a4
 182:../src/platform/mpfs_hal/common/mss_axiswitch.c ****                  (master_port_num << AXISW_CMD_RWCHAN) |
 519              		.loc 1 182 16
 520 0076 98C7     		sw	a4,8(a5)
 185:../src/platform/mpfs_hal/common/mss_axiswitch.c ****                  AXISW_CMD_EN_MASK);
 186:../src/platform/mpfs_hal/common/mss_axiswitch.c **** 
 187:../src/platform/mpfs_hal/common/mss_axiswitch.c ****     while(AXISW->CMD & AXISW_CMD_EN_MASK);      /*Wait for command to complete*/
 521              		.loc 1 187 10
 522 0078 0100     		nop
 523              	.L25:
 524              		.loc 1 187 16 discriminator 1
 525 007a B7470020 		li	a5,536887296
 526 007e 9C47     		lw	a5,8(a5)
 527 0080 8127     		sext.w	a5,a5
 528              		.loc 1 187 11 discriminator 1
 529 0082 8127     		sext.w	a5,a5
 530              		.loc 1 187 10 discriminator 1
 531 0084 E3CB07FE 		blt	a5,zero,.L25
 188:../src/platform/mpfs_hal/common/mss_axiswitch.c **** 
 189:../src/platform/mpfs_hal/common/mss_axiswitch.c ****     return ((AXISW->CMD & AXISW_CMD_ERR_MASK) >> AXISW_CMD_ERR);   /*return error bit value*/
 532              		.loc 1 189 19
 533 0088 B7470020 		li	a5,536887296
 534 008c 9C47     		lw	a5,8(a5)
 535 008e 8127     		sext.w	a5,a5
 536              		.loc 1 189 47
 537 0090 9BD7C701 		srliw	a5,a5,28
 538 0094 8127     		sext.w	a5,a5
 539 0096 8127     		sext.w	a5,a5
 540 0098 858B     		andi	a5,a5,1
 541 009a 8127     		sext.w	a5,a5
 542              	.L24:
 190:../src/platform/mpfs_hal/common/mss_axiswitch.c **** }
 543              		.loc 1 190 1
 544 009c 3E85     		mv	a0,a5
 545 009e 6264     		ld	s0,24(sp)
 546              		.cfi_restore 8
 547              		.cfi_def_cfa 2, 32
 548 00a0 0561     		addi	sp,sp,32
 549              		.cfi_def_cfa_offset 0
 550 00a2 8280     		jr	ra
 551              		.cfi_endproc
 552              	.LFE25:
 554              		.section	.text.MSS_AXISW_read_burstiness,"ax",@progbits
 555              		.align	1
 556              		.globl	MSS_AXISW_read_burstiness
 558              	MSS_AXISW_read_burstiness:
 559              	.LFB26:
 191:../src/platform/mpfs_hal/common/mss_axiswitch.c **** 
 192:../src/platform/mpfs_hal/common/mss_axiswitch.c **** /* Reads the burstiness value for the given master port read/write address channel
 193:../src/platform/mpfs_hal/common/mss_axiswitch.c **** 
 194:../src/platform/mpfs_hal/common/mss_axiswitch.c **** burstiness_val: Return parameter bit 23:16 shows the burstiness value.
 195:../src/platform/mpfs_hal/common/mss_axiswitch.c **** NOTE: Burstiness value formula as mentioned in AXISW document is Burstiness = DataReg[23:16] + 1
 196:../src/platform/mpfs_hal/common/mss_axiswitch.c **** 
 197:../src/platform/mpfs_hal/common/mss_axiswitch.c **** * return value: As received form AXI_ERR_BIT in CMD register.
 198:../src/platform/mpfs_hal/common/mss_axiswitch.c **** */
 199:../src/platform/mpfs_hal/common/mss_axiswitch.c **** uint32_t MSS_AXISW_read_burstiness(mss_axisw_mport_t master_port_num,
 200:../src/platform/mpfs_hal/common/mss_axiswitch.c ****                                                 uint32_t* burstiness_val)
 201:../src/platform/mpfs_hal/common/mss_axiswitch.c **** {
 560              		.loc 1 201 1
 561              		.cfi_startproc
 562 0000 0111     		addi	sp,sp,-32
 563              		.cfi_def_cfa_offset 32
 564 0002 22EC     		sd	s0,24(sp)
 565              		.cfi_offset 8, -8
 566 0004 0010     		addi	s0,sp,32
 567              		.cfi_def_cfa 8, 0
 568 0006 AA87     		mv	a5,a0
 569 0008 2330B4FE 		sd	a1,-32(s0)
 570 000c 2326F4FE 		sw	a5,-20(s0)
 202:../src/platform/mpfs_hal/common/mss_axiswitch.c ****     while(AXISW->CMD & AXISW_CMD_EN_MASK);
 571              		.loc 1 202 10
 572 0010 0100     		nop
 573              	.L27:
 574              		.loc 1 202 16 discriminator 1
 575 0012 B7470020 		li	a5,536887296
 576 0016 9C47     		lw	a5,8(a5)
 577 0018 8127     		sext.w	a5,a5
 578              		.loc 1 202 11 discriminator 1
 579 001a 8127     		sext.w	a5,a5
 580              		.loc 1 202 10 discriminator 1
 581 001c E3CB07FE 		blt	a5,zero,.L27
 203:../src/platform/mpfs_hal/common/mss_axiswitch.c **** 
 204:../src/platform/mpfs_hal/common/mss_axiswitch.c ****     AXISW->CMD &= ~(AXISW_CMD_RW_MASK);  /*Clear read/write and command EN bit*/
 582              		.loc 1 204 16
 583 0020 B7470020 		li	a5,536887296
 584 0024 9C47     		lw	a5,8(a5)
 585 0026 1B870700 		sext.w	a4,a5
 586 002a B7470020 		li	a5,536887296
 587 002e BA86     		mv	a3,a4
 588 0030 370700C0 		li	a4,-1073741824
 589 0034 7D17     		addi	a4,a4,-1
 590 0036 758F     		and	a4,a3,a4
 591 0038 0127     		sext.w	a4,a4
 592 003a 98C7     		sw	a4,8(a5)
 205:../src/platform/mpfs_hal/common/mss_axiswitch.c **** 
 206:../src/platform/mpfs_hal/common/mss_axiswitch.c ****     AXISW->CMD = ((master_port_num << AXISW_CMD_RWCHAN) |
 593              		.loc 1 206 57
 594 003c 8327C4FE 		lw	a5,-20(s0)
 595 0040 9B977700 		slliw	a5,a5,7
 596 0044 1B870700 		sext.w	a4,a5
 597              		.loc 1 206 10
 598 0048 B7470020 		li	a5,536887296
 207:../src/platform/mpfs_hal/common/mss_axiswitch.c ****                  (MSS_AXISW_BURSTINESS_EN) |
 599              		.loc 1 207 44
 600 004c BA86     		mv	a3,a4
 601 004e 37070080 		li	a4,-2147483648
 602 0052 558F     		or	a4,a3,a4
 603 0054 0127     		sext.w	a4,a4
 206:../src/platform/mpfs_hal/common/mss_axiswitch.c ****                  (MSS_AXISW_BURSTINESS_EN) |
 604              		.loc 1 206 16
 605 0056 98C7     		sw	a4,8(a5)
 208:../src/platform/mpfs_hal/common/mss_axiswitch.c ****                  AXISW_CMD_EN_MASK);
 209:../src/platform/mpfs_hal/common/mss_axiswitch.c **** 
 210:../src/platform/mpfs_hal/common/mss_axiswitch.c ****     while(AXISW->CMD & AXISW_CMD_EN_MASK);
 606              		.loc 1 210 10
 607 0058 0100     		nop
 608              	.L28:
 609              		.loc 1 210 16 discriminator 1
 610 005a B7470020 		li	a5,536887296
 611 005e 9C47     		lw	a5,8(a5)
 612 0060 8127     		sext.w	a5,a5
 613              		.loc 1 210 11 discriminator 1
 614 0062 8127     		sext.w	a5,a5
 615              		.loc 1 210 10 discriminator 1
 616 0064 E3CB07FE 		blt	a5,zero,.L28
 211:../src/platform/mpfs_hal/common/mss_axiswitch.c **** 
 212:../src/platform/mpfs_hal/common/mss_axiswitch.c ****     *burstiness_val = ((AXISW->DATA & AXISW_DATA_BURSTI_MASK) >> AXISW_DATA_BURSTI) + 1u;
 617              		.loc 1 212 30
 618 0068 B7470020 		li	a5,536887296
 619 006c DC47     		lw	a5,12(a5)
 620 006e 8127     		sext.w	a5,a5
 621              		.loc 1 212 63
 622 0070 9BD70701 		srliw	a5,a5,16
 623 0074 8127     		sext.w	a5,a5
 624 0076 93F7F70F 		andi	a5,a5,255
 625 007a 8127     		sext.w	a5,a5
 626              		.loc 1 212 85
 627 007c 8527     		addiw	a5,a5,1
 628 007e 1B870700 		sext.w	a4,a5
 629              		.loc 1 212 21
 630 0082 833704FE 		ld	a5,-32(s0)
 631 0086 98C3     		sw	a4,0(a5)
 213:../src/platform/mpfs_hal/common/mss_axiswitch.c **** 
 214:../src/platform/mpfs_hal/common/mss_axiswitch.c ****     return ((AXISW->CMD & AXISW_CMD_ERR_MASK) >> AXISW_CMD_ERR);   /*return error bit value*/
 632              		.loc 1 214 19
 633 0088 B7470020 		li	a5,536887296
 634 008c 9C47     		lw	a5,8(a5)
 635 008e 8127     		sext.w	a5,a5
 636              		.loc 1 214 47
 637 0090 9BD7C701 		srliw	a5,a5,28
 638 0094 8127     		sext.w	a5,a5
 639 0096 858B     		andi	a5,a5,1
 640 0098 8127     		sext.w	a5,a5
 215:../src/platform/mpfs_hal/common/mss_axiswitch.c **** }
 641              		.loc 1 215 1
 642 009a 3E85     		mv	a0,a5
 643 009c 6264     		ld	s0,24(sp)
 644              		.cfi_restore 8
 645              		.cfi_def_cfa 2, 32
 646 009e 0561     		addi	sp,sp,32
 647              		.cfi_def_cfa_offset 0
 648 00a0 8280     		jr	ra
 649              		.cfi_endproc
 650              	.LFE26:
 652              		.section	.text.MSS_AXISW_write_slave_ready,"ax",@progbits
 653              		.align	1
 654              		.globl	MSS_AXISW_write_slave_ready
 656              	MSS_AXISW_write_slave_ready:
 657              	.LFB27:
 216:../src/platform/mpfs_hal/common/mss_axiswitch.c **** 
 217:../src/platform/mpfs_hal/common/mss_axiswitch.c **** uint32_t MSS_AXISW_write_slave_ready(mss_axisw_mport_t master_port_num,
 218:../src/platform/mpfs_hal/common/mss_axiswitch.c ****                                                    uint8_t slave_ready_en)
 219:../src/platform/mpfs_hal/common/mss_axiswitch.c **** {
 658              		.loc 1 219 1
 659              		.cfi_startproc
 660 0000 0111     		addi	sp,sp,-32
 661              		.cfi_def_cfa_offset 32
 662 0002 22EC     		sd	s0,24(sp)
 663              		.cfi_offset 8, -8
 664 0004 0010     		addi	s0,sp,32
 665              		.cfi_def_cfa 8, 0
 666 0006 AA87     		mv	a5,a0
 667 0008 2E87     		mv	a4,a1
 668 000a 2326F4FE 		sw	a5,-20(s0)
 669 000e BA87     		mv	a5,a4
 670 0010 A305F4FE 		sb	a5,-21(s0)
 220:../src/platform/mpfs_hal/common/mss_axiswitch.c ****     while(AXISW->CMD & AXISW_CMD_EN_MASK);  /*make sure previous command completed*/
 671              		.loc 1 220 10
 672 0014 0100     		nop
 673              	.L31:
 674              		.loc 1 220 16 discriminator 1
 675 0016 B7470020 		li	a5,536887296
 676 001a 9C47     		lw	a5,8(a5)
 677 001c 8127     		sext.w	a5,a5
 678              		.loc 1 220 11 discriminator 1
 679 001e 8127     		sext.w	a5,a5
 680              		.loc 1 220 10 discriminator 1
 681 0020 E3CB07FE 		blt	a5,zero,.L31
 221:../src/platform/mpfs_hal/common/mss_axiswitch.c **** 
 222:../src/platform/mpfs_hal/common/mss_axiswitch.c ****     AXISW->DATA = slave_ready_en & 0x01;  /*only valid value of bit0*/
 682              		.loc 1 222 34
 683 0024 8347B4FE 		lbu	a5,-21(s0)
 684 0028 1B870700 		sext.w	a4,a5
 685              		.loc 1 222 10
 686 002c B7470020 		li	a5,536887296
 687              		.loc 1 222 34
 688 0030 058B     		andi	a4,a4,1
 689 0032 0127     		sext.w	a4,a4
 690              		.loc 1 222 17
 691 0034 D8C7     		sw	a4,12(a5)
 223:../src/platform/mpfs_hal/common/mss_axiswitch.c **** 
 224:../src/platform/mpfs_hal/common/mss_axiswitch.c ****     AXISW->CMD = (AXISW_CMD_RW_MASK |
 225:../src/platform/mpfs_hal/common/mss_axiswitch.c ****                  (master_port_num << AXISW_CMD_RWCHAN) |
 692              		.loc 1 225 35
 693 0036 8327C4FE 		lw	a5,-20(s0)
 694 003a 9B977700 		slliw	a5,a5,7
 695 003e 1B870700 		sext.w	a4,a5
 224:../src/platform/mpfs_hal/common/mss_axiswitch.c ****                  (master_port_num << AXISW_CMD_RWCHAN) |
 696              		.loc 1 224 10
 697 0042 B7470020 		li	a5,536887296
 226:../src/platform/mpfs_hal/common/mss_axiswitch.c ****                  MSS_AXISW_SLV_RDY |
 698              		.loc 1 226 36
 699 0046 BA86     		mv	a3,a4
 700 0048 370700C0 		li	a4,-1073741824
 701 004c 0D07     		addi	a4,a4,3
 702 004e 558F     		or	a4,a3,a4
 703 0050 0127     		sext.w	a4,a4
 224:../src/platform/mpfs_hal/common/mss_axiswitch.c ****                  (master_port_num << AXISW_CMD_RWCHAN) |
 704              		.loc 1 224 16
 705 0052 98C7     		sw	a4,8(a5)
 227:../src/platform/mpfs_hal/common/mss_axiswitch.c ****                  AXISW_CMD_EN_MASK);
 228:../src/platform/mpfs_hal/common/mss_axiswitch.c **** 
 229:../src/platform/mpfs_hal/common/mss_axiswitch.c ****     while(AXISW->CMD & AXISW_CMD_EN_MASK);    /*Wait for command to complete*/
 706              		.loc 1 229 10
 707 0054 0100     		nop
 708              	.L32:
 709              		.loc 1 229 16 discriminator 1
 710 0056 B7470020 		li	a5,536887296
 711 005a 9C47     		lw	a5,8(a5)
 712 005c 8127     		sext.w	a5,a5
 713              		.loc 1 229 11 discriminator 1
 714 005e 8127     		sext.w	a5,a5
 715              		.loc 1 229 10 discriminator 1
 716 0060 E3CB07FE 		blt	a5,zero,.L32
 230:../src/platform/mpfs_hal/common/mss_axiswitch.c **** 
 231:../src/platform/mpfs_hal/common/mss_axiswitch.c ****     return ((AXISW->CMD & AXISW_CMD_ERR_MASK) >> AXISW_CMD_ERR);   /*return error bit value*/
 717              		.loc 1 231 19
 718 0064 B7470020 		li	a5,536887296
 719 0068 9C47     		lw	a5,8(a5)
 720 006a 8127     		sext.w	a5,a5
 721              		.loc 1 231 47
 722 006c 9BD7C701 		srliw	a5,a5,28
 723 0070 8127     		sext.w	a5,a5
 724 0072 858B     		andi	a5,a5,1
 725 0074 8127     		sext.w	a5,a5
 232:../src/platform/mpfs_hal/common/mss_axiswitch.c **** }
 726              		.loc 1 232 1
 727 0076 3E85     		mv	a0,a5
 728 0078 6264     		ld	s0,24(sp)
 729              		.cfi_restore 8
 730              		.cfi_def_cfa 2, 32
 731 007a 0561     		addi	sp,sp,32
 732              		.cfi_def_cfa_offset 0
 733 007c 8280     		jr	ra
 734              		.cfi_endproc
 735              	.LFE27:
 737              		.section	.text.MSS_AXISW_read_slave_ready,"ax",@progbits
 738              		.align	1
 739              		.globl	MSS_AXISW_read_slave_ready
 741              	MSS_AXISW_read_slave_ready:
 742              	.LFB28:
 233:../src/platform/mpfs_hal/common/mss_axiswitch.c **** 
 234:../src/platform/mpfs_hal/common/mss_axiswitch.c **** /*Performs read operation on the AXI SWITCH APB interface,
 235:../src/platform/mpfs_hal/common/mss_axiswitch.c ****  * Parameters:
 236:../src/platform/mpfs_hal/common/mss_axiswitch.c ****  * master_port_num = AXI Master Port number. See Enum mss_axisw_mport_t above.
 237:../src/platform/mpfs_hal/common/mss_axiswitch.c ****  *
 238:../src/platform/mpfs_hal/common/mss_axiswitch.c ****  *
 239:../src/platform/mpfs_hal/common/mss_axiswitch.c ****  * slave_ready_en: returns the data returned by AXI SWITCH read operation for slave ready command
 240:../src/platform/mpfs_hal/common/mss_axiswitch.c ****  * return value: As received form AXI_ERR_BIT in CMD register.
 241:../src/platform/mpfs_hal/common/mss_axiswitch.c ****  *
 242:../src/platform/mpfs_hal/common/mss_axiswitch.c ****  */
 243:../src/platform/mpfs_hal/common/mss_axiswitch.c **** uint32_t MSS_AXISW_read_slave_ready(mss_axisw_mport_t master_port_num,
 244:../src/platform/mpfs_hal/common/mss_axiswitch.c ****                                                   uint8_t* slave_ready_en)
 245:../src/platform/mpfs_hal/common/mss_axiswitch.c **** {
 743              		.loc 1 245 1
 744              		.cfi_startproc
 745 0000 0111     		addi	sp,sp,-32
 746              		.cfi_def_cfa_offset 32
 747 0002 22EC     		sd	s0,24(sp)
 748              		.cfi_offset 8, -8
 749 0004 0010     		addi	s0,sp,32
 750              		.cfi_def_cfa 8, 0
 751 0006 AA87     		mv	a5,a0
 752 0008 2330B4FE 		sd	a1,-32(s0)
 753 000c 2326F4FE 		sw	a5,-20(s0)
 246:../src/platform/mpfs_hal/common/mss_axiswitch.c **** 
 247:../src/platform/mpfs_hal/common/mss_axiswitch.c ****     while(AXISW->CMD & AXISW_CMD_EN_MASK);
 754              		.loc 1 247 10
 755 0010 0100     		nop
 756              	.L35:
 757              		.loc 1 247 16 discriminator 1
 758 0012 B7470020 		li	a5,536887296
 759 0016 9C47     		lw	a5,8(a5)
 760 0018 8127     		sext.w	a5,a5
 761              		.loc 1 247 11 discriminator 1
 762 001a 8127     		sext.w	a5,a5
 763              		.loc 1 247 10 discriminator 1
 764 001c E3CB07FE 		blt	a5,zero,.L35
 248:../src/platform/mpfs_hal/common/mss_axiswitch.c **** 
 249:../src/platform/mpfs_hal/common/mss_axiswitch.c ****     AXISW->CMD &= ~(AXISW_CMD_RW_MASK);  /*Clear read/write bit*/
 765              		.loc 1 249 16
 766 0020 B7470020 		li	a5,536887296
 767 0024 9C47     		lw	a5,8(a5)
 768 0026 1B870700 		sext.w	a4,a5
 769 002a B7470020 		li	a5,536887296
 770 002e BA86     		mv	a3,a4
 771 0030 370700C0 		li	a4,-1073741824
 772 0034 7D17     		addi	a4,a4,-1
 773 0036 758F     		and	a4,a3,a4
 774 0038 0127     		sext.w	a4,a4
 775 003a 98C7     		sw	a4,8(a5)
 250:../src/platform/mpfs_hal/common/mss_axiswitch.c **** 
 251:../src/platform/mpfs_hal/common/mss_axiswitch.c ****     AXISW->CMD = ((master_port_num << AXISW_CMD_RWCHAN) |
 776              		.loc 1 251 36
 777 003c 8327C4FE 		lw	a5,-20(s0)
 778 0040 9B977700 		slliw	a5,a5,7
 779 0044 1B870700 		sext.w	a4,a5
 780              		.loc 1 251 10
 781 0048 B7470020 		li	a5,536887296
 252:../src/platform/mpfs_hal/common/mss_axiswitch.c ****                  (MSS_AXISW_SLV_RDY) |
 782              		.loc 1 252 38
 783 004c BA86     		mv	a3,a4
 784 004e 37070080 		li	a4,-2147483648
 785 0052 0D07     		addi	a4,a4,3
 786 0054 558F     		or	a4,a3,a4
 787 0056 0127     		sext.w	a4,a4
 251:../src/platform/mpfs_hal/common/mss_axiswitch.c ****                  (MSS_AXISW_SLV_RDY) |
 788              		.loc 1 251 16
 789 0058 98C7     		sw	a4,8(a5)
 253:../src/platform/mpfs_hal/common/mss_axiswitch.c ****                  AXISW_CMD_EN_MASK);
 254:../src/platform/mpfs_hal/common/mss_axiswitch.c **** 
 255:../src/platform/mpfs_hal/common/mss_axiswitch.c ****     while(AXISW->CMD & AXISW_CMD_EN_MASK);
 790              		.loc 1 255 10
 791 005a 0100     		nop
 792              	.L36:
 793              		.loc 1 255 16 discriminator 1
 794 005c B7470020 		li	a5,536887296
 795 0060 9C47     		lw	a5,8(a5)
 796 0062 8127     		sext.w	a5,a5
 797              		.loc 1 255 11 discriminator 1
 798 0064 8127     		sext.w	a5,a5
 799              		.loc 1 255 10 discriminator 1
 800 0066 E3CB07FE 		blt	a5,zero,.L36
 256:../src/platform/mpfs_hal/common/mss_axiswitch.c **** 
 257:../src/platform/mpfs_hal/common/mss_axiswitch.c ****     *slave_ready_en = AXISW->DATA & 0x01;
 801              		.loc 1 257 28
 802 006a B7470020 		li	a5,536887296
 803 006e DC47     		lw	a5,12(a5)
 804 0070 8127     		sext.w	a5,a5
 805              		.loc 1 257 35
 806 0072 93F7F70F 		andi	a5,a5,0xff
 807 0076 858B     		andi	a5,a5,1
 808 0078 13F7F70F 		andi	a4,a5,0xff
 809              		.loc 1 257 21
 810 007c 833704FE 		ld	a5,-32(s0)
 811 0080 2380E700 		sb	a4,0(a5)
 258:../src/platform/mpfs_hal/common/mss_axiswitch.c **** 
 259:../src/platform/mpfs_hal/common/mss_axiswitch.c ****     return ((AXISW->CMD & AXISW_CMD_ERR_MASK) >> AXISW_CMD_ERR);   /*return error bit value*/
 812              		.loc 1 259 19
 813 0084 B7470020 		li	a5,536887296
 814 0088 9C47     		lw	a5,8(a5)
 815 008a 8127     		sext.w	a5,a5
 816              		.loc 1 259 47
 817 008c 9BD7C701 		srliw	a5,a5,28
 818 0090 8127     		sext.w	a5,a5
 819 0092 858B     		andi	a5,a5,1
 820 0094 8127     		sext.w	a5,a5
 260:../src/platform/mpfs_hal/common/mss_axiswitch.c **** }
 821              		.loc 1 260 1
 822 0096 3E85     		mv	a0,a5
 823 0098 6264     		ld	s0,24(sp)
 824              		.cfi_restore 8
 825              		.cfi_def_cfa 2, 32
 826 009a 0561     		addi	sp,sp,32
 827              		.cfi_def_cfa_offset 0
 828 009c 8280     		jr	ra
 829              		.cfi_endproc
 830              	.LFE28:
 832              		.text
 833              	.Letext0:
 834              		.file 2 "/home/vinay/Desktop/soft_console/SoftConsole-v2022.2-RISC-V-747/riscv-unknown-elf-gcc/ris
 835              		.file 3 "/home/vinay/Desktop/soft_console/SoftConsole-v2022.2-RISC-V-747/riscv-unknown-elf-gcc/ris
 836              		.file 4 "/home/vinay/Desktop/softconsole_watershed/Water-shed/src/platform/mpfs_hal/common/nwc/mss
 837              		.file 5 "/home/vinay/Desktop/softconsole_watershed/Water-shed/src/platform/mpfs_hal/common/nwc/mss
 838              		.file 6 "/home/vinay/Desktop/softconsole_watershed/Water-shed/src/platform/mpfs_hal/common/nwc/mss
 839              		.file 7 "/home/vinay/Desktop/softconsole_watershed/Water-shed/src/platform/mpfs_hal/common/mss_mpu
 840              		.file 8 "/home/vinay/Desktop/softconsole_watershed/Water-shed/src/platform/mpfs_hal/common/mss_pli
 841              		.file 9 "/home/vinay/Desktop/softconsole_watershed/Water-shed/src/platform/mpfs_hal/common/mss_axi
 842              		.file 10 "/home/vinay/Desktop/softconsole_watershed/Water-shed/src/platform/mpfs_hal/startup_gcc/s