   1              		.file	"mss_peripherals.c"
   2              		.option nopic
   3              		.attribute arch, "rv64i2p0_m2p0_a2p0_f2p0_d2p0_c2p0"
   4              		.attribute unaligned_access, 0
   5              		.attribute stack_align, 16
   6              		.text
   7              	.Ltext0:
   8              		.cfi_sections	.debug_frame
   9              		.globl	LIBERO_SETTING_CONTEXT_EN
  10              		.section	.rodata.LIBERO_SETTING_CONTEXT_EN,"a"
  11              		.align	3
  14              	LIBERO_SETTING_CONTEXT_EN:
  15 0000 00000000 		.word	0
  16 0004 00000000 		.word	0
  17 0008 0F000000 		.word	15
  18 000c 0F000000 		.word	15
  19              		.globl	PERIPHERAL_SETUP
  20              		.section	.rodata.PERIPHERAL_SETUP,"a"
  21              		.align	3
  24              	PERIPHERAL_SETUP:
  25 0000 00000000 		.word	0
  26 0004 00000000 		.word	0
  27 0008 01000000 		.word	1
  28 000c 20000000 		.word	32
  29 0010 01000000 		.word	1
  30 0014 00000000 		.word	0
  31 0018 02000000 		.word	2
  32 001c 40000000 		.word	64
  33 0020 02000000 		.word	2
  34 0024 00000000 		.word	0
  35 0028 04000000 		.word	4
  36 002c 80000000 		.word	128
  37 0030 03000000 		.word	3
  38 0034 00000000 		.word	0
  39 0038 08000000 		.word	8
  40 003c 00010000 		.word	256
  41 0040 04000000 		.word	4
  42 0044 00000000 		.word	0
  43 0048 10000000 		.word	16
  44 004c 00020000 		.word	512
  45 0050 05000000 		.word	5
  46 0054 00000000 		.word	0
  47 0058 20000000 		.word	32
  48 005c 00000000 		.word	0
  49 0060 06000000 		.word	6
  50 0064 00000000 		.word	0
  51 0068 40000000 		.word	64
  52 006c 00000000 		.word	0
  53 0070 07000000 		.word	7
  54 0074 00000000 		.word	0
  55 0078 80000000 		.word	128
  56 007c 00000000 		.word	0
  57 0080 08000000 		.word	8
  58 0084 00000000 		.word	0
  59 0088 00010000 		.word	256
  60 008c 00000000 		.word	0
  61 0090 09000000 		.word	9
  62 0094 00000000 		.word	0
  63 0098 00020000 		.word	512
  64 009c 00000000 		.word	0
  65 00a0 0A000000 		.word	10
  66 00a4 00000000 		.word	0
  67 00a8 00040000 		.word	1024
  68 00ac 00040000 		.word	1024
  69 00b0 0B000000 		.word	11
  70 00b4 00000000 		.word	0
  71 00b8 00080000 		.word	2048
  72 00bc 00080000 		.word	2048
  73 00c0 0C000000 		.word	12
  74 00c4 00000000 		.word	0
  75 00c8 00100000 		.word	4096
  76 00cc 00100000 		.word	4096
  77 00d0 0D000000 		.word	13
  78 00d4 00000000 		.word	0
  79 00d8 00200000 		.word	8192
  80 00dc 00200000 		.word	8192
  81 00e0 0E000000 		.word	14
  82 00e4 00000000 		.word	0
  83 00e8 00400000 		.word	16384
  84 00ec 00400000 		.word	16384
  85 00f0 0F000000 		.word	15
  86 00f4 00000000 		.word	0
  87 00f8 00800000 		.word	32768
  88 00fc 00800000 		.word	32768
  89 0100 10000000 		.word	16
  90 0104 00000000 		.word	0
  91 0108 00000100 		.word	65536
  92 010c 02000000 		.word	2
  93 0110 11000000 		.word	17
  94 0114 00000000 		.word	0
  95 0118 00000200 		.word	131072
  96 011c 04000000 		.word	4
  97 0120 12000000 		.word	18
  98 0124 00000000 		.word	0
  99 0128 00000400 		.word	262144
 100 012c 10000000 		.word	16
 101 0130 13000000 		.word	19
 102 0134 00000000 		.word	0
 103 0138 00000800 		.word	524288
 104 013c 00001000 		.word	1048576
 105 0140 14000000 		.word	20
 106 0144 00000000 		.word	0
 107 0148 00001000 		.word	1048576
 108 014c 00002000 		.word	2097152
 109 0150 15000000 		.word	21
 110 0154 00000000 		.word	0
 111 0158 00002000 		.word	2097152
 112 015c 00004000 		.word	4194304
 113 0160 16000000 		.word	22
 114 0164 00000000 		.word	0
 115 0168 00004000 		.word	4194304
 116 016c 00000400 		.word	262144
 117 0170 17000000 		.word	23
 118 0174 00000000 		.word	0
 119 0178 00008000 		.word	8388608
 120 017c 00000000 		.word	0
 121 0180 18000000 		.word	24
 122 0184 00000000 		.word	0
 123 0188 00000001 		.word	16777216
 124 018c 00000010 		.word	268435456
 125 0190 19000000 		.word	25
 126 0194 00000000 		.word	0
 127 0198 00000002 		.word	33554432
 128 019c 00000100 		.word	65536
 129 01a0 1A000000 		.word	26
 130 01a4 00000000 		.word	0
 131 01a8 00000004 		.word	67108864
 132 01ac 00000800 		.word	524288
 133 01b0 1B000000 		.word	27
 134 01b4 00000000 		.word	0
 135 01b8 00000008 		.word	134217728
 136 01bc 00000010 		.word	268435456
 137 01c0 1C000000 		.word	28
 138 01c4 00000000 		.word	0
 139 01c8 00000040 		.word	1073741824
 140 01cc 08000000 		.word	8
 141 01d0 1D000000 		.word	29
 142 01d4 00000000 		.word	0
 143 01d8 00000040 		.word	1073741824
 144 01dc 08000000 		.word	8
 145 01e0 1E000000 		.word	30
 146 01e4 00000000 		.word	0
 147 01e8 00000040 		.word	1073741824
 148 01ec 08000000 		.word	8
 149 01f0 1F000000 		.word	31
 150 01f4 00000000 		.word	0
 151 01f8 00000080 		.word	-2147483648
 152 01fc 00000020 		.word	536870912
 153 0200 20000000 		.word	32
 154 0204 01000000 		.word	1
 155 0208 01000000 		.word	1
 156 020c 00000001 		.word	16777216
 157 0210 21000000 		.word	33
 158 0214 01000000 		.word	1
 159 0218 02000000 		.word	2
 160 021c 00000002 		.word	33554432
 161 0220 22000000 		.word	34
 162 0224 01000000 		.word	1
 163 0228 04000000 		.word	4
 164 022c 00000004 		.word	67108864
 165 0230 23000000 		.word	35
 166 0234 01000000 		.word	1
 167 0238 08000000 		.word	8
 168 023c 00000008 		.word	134217728
 169              		.section	.text.verify_context_enable,"ax",@progbits
 170              		.align	1
 172              	verify_context_enable:
 173              	.LFB23:
 174              		.file 1 "../src/platform/mpfs_hal/common/mss_peripherals.c"
   1:../src/platform/mpfs_hal/common/mss_peripherals.c **** /*******************************************************************************
   2:../src/platform/mpfs_hal/common/mss_peripherals.c ****  * Copyright 2019-2022 Microchip FPGA Embedded Systems Solutions.
   3:../src/platform/mpfs_hal/common/mss_peripherals.c ****  *
   4:../src/platform/mpfs_hal/common/mss_peripherals.c ****  * SPDX-License-Identifier: MIT
   5:../src/platform/mpfs_hal/common/mss_peripherals.c ****  *
   6:../src/platform/mpfs_hal/common/mss_peripherals.c ****  * MPFS HAL Embedded Software
   7:../src/platform/mpfs_hal/common/mss_peripherals.c ****  *
   8:../src/platform/mpfs_hal/common/mss_peripherals.c ****  */
   9:../src/platform/mpfs_hal/common/mss_peripherals.c **** /*******************************************************************************
  10:../src/platform/mpfs_hal/common/mss_peripherals.c ****  * @file mss_peripherals.c
  11:../src/platform/mpfs_hal/common/mss_peripherals.c ****  * @author Microchip-FPGA Embedded Systems Solutions
  12:../src/platform/mpfs_hal/common/mss_peripherals.c ****  * @brief PolarFire SoC MSS functions related to peripherals.
  13:../src/platform/mpfs_hal/common/mss_peripherals.c ****  *
  14:../src/platform/mpfs_hal/common/mss_peripherals.c ****  */
  15:../src/platform/mpfs_hal/common/mss_peripherals.c **** /*=========================================================================*//**
  16:../src/platform/mpfs_hal/common/mss_peripherals.c **** 
  17:../src/platform/mpfs_hal/common/mss_peripherals.c ****  *//*=========================================================================*/
  18:../src/platform/mpfs_hal/common/mss_peripherals.c **** #include <stdio.h>
  19:../src/platform/mpfs_hal/common/mss_peripherals.c **** #include <string.h>
  20:../src/platform/mpfs_hal/common/mss_peripherals.c **** #include "mpfs_hal/mss_hal.h"
  21:../src/platform/mpfs_hal/common/mss_peripherals.c **** 
  22:../src/platform/mpfs_hal/common/mss_peripherals.c **** const uint32_t LIBERO_SETTING_CONTEXT_EN[][2U] = {
  23:../src/platform/mpfs_hal/common/mss_peripherals.c ****                 {LIBERO_SETTING_CONTEXT_A_EN,
  24:../src/platform/mpfs_hal/common/mss_peripherals.c ****                  LIBERO_SETTING_CONTEXT_B_EN},
  25:../src/platform/mpfs_hal/common/mss_peripherals.c ****                 {LIBERO_SETTING_CONTEXT_A_EN_FIC,
  26:../src/platform/mpfs_hal/common/mss_peripherals.c ****                  LIBERO_SETTING_CONTEXT_B_EN_FIC},
  27:../src/platform/mpfs_hal/common/mss_peripherals.c **** };
  28:../src/platform/mpfs_hal/common/mss_peripherals.c **** 
  29:../src/platform/mpfs_hal/common/mss_peripherals.c **** /* offsets used in PERIPHERAL_SETUP array */
  30:../src/platform/mpfs_hal/common/mss_peripherals.c **** #define PERIPHERAL_INDEX_OFFSET         0U /* used for sanity check */
  31:../src/platform/mpfs_hal/common/mss_peripherals.c **** #define CONTEXT_EN_INDEX_OFFSET         1U
  32:../src/platform/mpfs_hal/common/mss_peripherals.c **** #define CONTEXT_MASK_INDEX_OFFSET       2U
  33:../src/platform/mpfs_hal/common/mss_peripherals.c **** #define CONTEXT_SUBCLK_INDEX_OFFSET     3U
  34:../src/platform/mpfs_hal/common/mss_peripherals.c **** 
  35:../src/platform/mpfs_hal/common/mss_peripherals.c **** const uint32_t PERIPHERAL_SETUP[][4U] = {
  36:../src/platform/mpfs_hal/common/mss_peripherals.c ****         {MSS_PERIPH_MMUART0,CONTEXT_EN_INDEX, CONTEXT_EN_MASK_MMUART0,SUBBLK_CLOCK_CR_MMUART0_MASK}
  37:../src/platform/mpfs_hal/common/mss_peripherals.c ****         {MSS_PERIPH_MMUART1,CONTEXT_EN_INDEX, CONTEXT_EN_MASK_MMUART1,SUBBLK_CLOCK_CR_MMUART1_MASK}
  38:../src/platform/mpfs_hal/common/mss_peripherals.c ****         {MSS_PERIPH_MMUART2,CONTEXT_EN_INDEX, CONTEXT_EN_MASK_MMUART2,SUBBLK_CLOCK_CR_MMUART2_MASK}
  39:../src/platform/mpfs_hal/common/mss_peripherals.c ****         {MSS_PERIPH_MMUART3,CONTEXT_EN_INDEX, CONTEXT_EN_MASK_MMUART3,SUBBLK_CLOCK_CR_MMUART3_MASK}
  40:../src/platform/mpfs_hal/common/mss_peripherals.c ****         {MSS_PERIPH_MMUART4,CONTEXT_EN_INDEX, CONTEXT_EN_MASK_MMUART4,SUBBLK_CLOCK_CR_MMUART4_MASK}
  41:../src/platform/mpfs_hal/common/mss_peripherals.c ****         {MSS_PERIPH_WDOG0,CONTEXT_EN_INDEX, CONTEXT_EN_MASK_WDOG0,SUBBLK_CLOCK_NA_MASK},
  42:../src/platform/mpfs_hal/common/mss_peripherals.c ****         {MSS_PERIPH_WDOG1,CONTEXT_EN_INDEX, CONTEXT_EN_MASK_WDOG1,SUBBLK_CLOCK_NA_MASK},
  43:../src/platform/mpfs_hal/common/mss_peripherals.c ****         {MSS_PERIPH_WDOG2,CONTEXT_EN_INDEX, CONTEXT_EN_MASK_WDOG2,SUBBLK_CLOCK_NA_MASK},
  44:../src/platform/mpfs_hal/common/mss_peripherals.c ****         {MSS_PERIPH_WDOG3,CONTEXT_EN_INDEX, CONTEXT_EN_MASK_WDOG3,SUBBLK_CLOCK_NA_MASK},
  45:../src/platform/mpfs_hal/common/mss_peripherals.c ****         {MSS_PERIPH_WDOG4,CONTEXT_EN_INDEX, CONTEXT_EN_MASK_WDOG4,SUBBLK_CLOCK_NA_MASK},
  46:../src/platform/mpfs_hal/common/mss_peripherals.c ****         {MSS_PERIPH_SPI0,CONTEXT_EN_INDEX, CONTEXT_EN_MASK_SPI0,SUBBLK_CLOCK_CR_SPI0_MASK},
  47:../src/platform/mpfs_hal/common/mss_peripherals.c ****         {MSS_PERIPH_SPI1,CONTEXT_EN_INDEX, CONTEXT_EN_MASK_SPI1,SUBBLK_CLOCK_CR_SPI1_MASK},
  48:../src/platform/mpfs_hal/common/mss_peripherals.c ****         {MSS_PERIPH_I2C0,CONTEXT_EN_INDEX, CONTEXT_EN_MASK_I2C0,SUBBLK_CLOCK_CR_I2C0_MASK},
  49:../src/platform/mpfs_hal/common/mss_peripherals.c ****         {MSS_PERIPH_I2C1,CONTEXT_EN_INDEX, CONTEXT_EN_MASK_I2C1,SUBBLK_CLOCK_CR_I2C1_MASK},
  50:../src/platform/mpfs_hal/common/mss_peripherals.c ****         {MSS_PERIPH_CAN0,CONTEXT_EN_INDEX, CONTEXT_EN_MASK_CAN0,SUBBLK_CLOCK_CR_CAN0_MASK},
  51:../src/platform/mpfs_hal/common/mss_peripherals.c ****         {MSS_PERIPH_CAN1,CONTEXT_EN_INDEX, CONTEXT_EN_MASK_CAN1,SUBBLK_CLOCK_CR_CAN1_MASK},
  52:../src/platform/mpfs_hal/common/mss_peripherals.c ****         {MSS_PERIPH_MAC0,CONTEXT_EN_INDEX, CONTEXT_EN_MASK_MAC0,SUBBLK_CLOCK_CR_MAC0_MASK},
  53:../src/platform/mpfs_hal/common/mss_peripherals.c ****         {MSS_PERIPH_MAC1,CONTEXT_EN_INDEX, CONTEXT_EN_MASK_MAC1,SUBBLK_CLOCK_CR_MAC1_MASK},
  54:../src/platform/mpfs_hal/common/mss_peripherals.c ****         {MSS_PERIPH_TIMER,CONTEXT_EN_INDEX, CONTEXT_EN_MASK_TIMER,SUBBLK_CLOCK_CR_TIMER_MASK},
  55:../src/platform/mpfs_hal/common/mss_peripherals.c ****         {MSS_PERIPH_GPIO0,CONTEXT_EN_INDEX, CONTEXT_EN_MASK_GPIO0,SUBBLK_CLOCK_CR_GPIO0_MASK},
  56:../src/platform/mpfs_hal/common/mss_peripherals.c ****         {MSS_PERIPH_GPIO1,CONTEXT_EN_INDEX, CONTEXT_EN_MASK_GPIO1,SUBBLK_CLOCK_CR_GPIO1_MASK},
  57:../src/platform/mpfs_hal/common/mss_peripherals.c ****         {MSS_PERIPH_GPIO2,CONTEXT_EN_INDEX, CONTEXT_EN_MASK_GPIO2,SUBBLK_CLOCK_CR_GPIO2_MASK},
  58:../src/platform/mpfs_hal/common/mss_peripherals.c ****         {MSS_PERIPH_RTC,CONTEXT_EN_INDEX, CONTEXT_EN_MASK_RTC,SUBBLK_CLOCK_CR_RTC_MASK},
  59:../src/platform/mpfs_hal/common/mss_peripherals.c ****         {MSS_PERIPH_M2FINT,CONTEXT_EN_INDEX, CONTEXT_EN_MASK_M2FINT,  SUBBLK_CLOCK_NA_MASK},
  60:../src/platform/mpfs_hal/common/mss_peripherals.c ****         {MSS_PERIPH_CRYPTO,CONTEXT_EN_INDEX, CONTEXT_EN_MASK_CRYPTO,SUBBLK_CLOCK_CR_ATHENA_MASK},
  61:../src/platform/mpfs_hal/common/mss_peripherals.c ****         {MSS_PERIPH_USB,CONTEXT_EN_INDEX, CONTEXT_EN_MASK_USB,SUBBLK_CLOCK_CR_USB_MASK},
  62:../src/platform/mpfs_hal/common/mss_peripherals.c ****         {MSS_PERIPH_QSPIXIP,CONTEXT_EN_INDEX, CONTEXT_EN_MASK_QSPIXIP,SUBBLK_CLOCK_CR_QSPI_MASK},
  63:../src/platform/mpfs_hal/common/mss_peripherals.c ****         {MSS_PERIPH_ATHENA,CONTEXT_EN_INDEX, CONTEXT_EN_MASK_ATHENA,SUBBLK_CLOCK_CR_ATHENA_MASK},
  64:../src/platform/mpfs_hal/common/mss_peripherals.c ****         {MSS_PERIPH_TRACE,CONTEXT_EN_INDEX, CONTEXT_EN_MASK_MMC,SUBBLK_CLOCK_CR_MMC_MASK},
  65:../src/platform/mpfs_hal/common/mss_peripherals.c ****         {MSS_PERIPH_MAILBOX_SC,CONTEXT_EN_INDEX, CONTEXT_EN_MASK_MMC,SUBBLK_CLOCK_CR_MMC_MASK},
  66:../src/platform/mpfs_hal/common/mss_peripherals.c ****         {MSS_PERIPH_EMMC,CONTEXT_EN_INDEX, CONTEXT_EN_MASK_MMC,SUBBLK_CLOCK_CR_MMC_MASK},
  67:../src/platform/mpfs_hal/common/mss_peripherals.c ****         {MSS_PERIPH_CFM,CONTEXT_EN_INDEX, CONTEXT_EN_MASK_CFM,SUBBLK_CLOCK_CR_CFM_MASK},
  68:../src/platform/mpfs_hal/common/mss_peripherals.c ****         {MSS_PERIPH_FIC0,CONTEXT_EN_INDEX_FIC, CONTEXT_EN_MASK_FIC0,SUBBLK_CLOCK_CR_FIC0_MASK},
  69:../src/platform/mpfs_hal/common/mss_peripherals.c ****         {MSS_PERIPH_FIC1,CONTEXT_EN_INDEX_FIC, CONTEXT_EN_MASK_FIC1,SUBBLK_CLOCK_CR_FIC1_MASK},
  70:../src/platform/mpfs_hal/common/mss_peripherals.c ****         {MSS_PERIPH_FIC2,CONTEXT_EN_INDEX_FIC, CONTEXT_EN_MASK_FIC2,SUBBLK_CLOCK_CR_FIC2_MASK},
  71:../src/platform/mpfs_hal/common/mss_peripherals.c ****         {MSS_PERIPH_FIC3,CONTEXT_EN_INDEX_FIC, CONTEXT_EN_MASK_FIC3,SUBBLK_CLOCK_CR_FIC3_MASK}
  72:../src/platform/mpfs_hal/common/mss_peripherals.c **** };
  73:../src/platform/mpfs_hal/common/mss_peripherals.c **** 
  74:../src/platform/mpfs_hal/common/mss_peripherals.c **** /**
  75:../src/platform/mpfs_hal/common/mss_peripherals.c ****  * If contexts set-up, verify allowed access to peripheral
  76:../src/platform/mpfs_hal/common/mss_peripherals.c ****  * @param option - Two option, , FIC enables set separately. CONTEXT_EN_INDEX_FIC or CONTEXT_EN_IND
  77:../src/platform/mpfs_hal/common/mss_peripherals.c ****  * @param periph_context_mask See CONTEXT_EN_MASK_ defines for options
  78:../src/platform/mpfs_hal/common/mss_peripherals.c ****  * @param hart The hart ID of origin of request.
  79:../src/platform/mpfs_hal/common/mss_peripherals.c ****  * @return
  80:../src/platform/mpfs_hal/common/mss_peripherals.c ****  */
  81:../src/platform/mpfs_hal/common/mss_peripherals.c **** static inline uint8_t verify_context_enable(uint8_t option, uint32_t periph_context_mask , uint8_t 
  82:../src/platform/mpfs_hal/common/mss_peripherals.c **** {
 175              		.loc 1 82 1
 176              		.cfi_startproc
 177 0000 7971     		addi	sp,sp,-48
 178              		.cfi_def_cfa_offset 48
 179 0002 22F4     		sd	s0,40(sp)
 180              		.cfi_offset 8, -8
 181 0004 0018     		addi	s0,sp,48
 182              		.cfi_def_cfa 8, 0
 183 0006 AA87     		mv	a5,a0
 184 0008 AE86     		mv	a3,a1
 185 000a 3287     		mv	a4,a2
 186 000c A30FF4FC 		sb	a5,-33(s0)
 187 0010 B687     		mv	a5,a3
 188 0012 232CF4FC 		sw	a5,-40(s0)
 189 0016 BA87     		mv	a5,a4
 190 0018 230FF4FC 		sb	a5,-34(s0)
  83:../src/platform/mpfs_hal/common/mss_peripherals.c ****     uint8_t result = 1U;
 191              		.loc 1 83 13
 192 001c 8547     		li	a5,1
 193 001e A307F4FE 		sb	a5,-17(s0)
  84:../src/platform/mpfs_hal/common/mss_peripherals.c **** #if ((LIBERO_SETTING_MEM_CONFIGS_ENABLED & PMP_ENABLED_MASK) == PMP_ENABLED_MASK)
  85:../src/platform/mpfs_hal/common/mss_peripherals.c ****     if (hart != (uint8_t) 0U)
  86:../src/platform/mpfs_hal/common/mss_peripherals.c ****     {
  87:../src/platform/mpfs_hal/common/mss_peripherals.c ****         if (LIBERO_SETTING_CONTEXT_A_HART_EN & hart )
  88:../src/platform/mpfs_hal/common/mss_peripherals.c ****         {
  89:../src/platform/mpfs_hal/common/mss_peripherals.c ****             if (LIBERO_SETTING_CONTEXT_EN[option][0U] & periph_context_mask)
  90:../src/platform/mpfs_hal/common/mss_peripherals.c ****             {
  91:../src/platform/mpfs_hal/common/mss_peripherals.c ****                 result = 0U;
  92:../src/platform/mpfs_hal/common/mss_peripherals.c ****             }
  93:../src/platform/mpfs_hal/common/mss_peripherals.c ****         }
  94:../src/platform/mpfs_hal/common/mss_peripherals.c **** 
  95:../src/platform/mpfs_hal/common/mss_peripherals.c ****         if (LIBERO_SETTING_CONTEXT_B_HART_EN & hart )
  96:../src/platform/mpfs_hal/common/mss_peripherals.c ****         {
  97:../src/platform/mpfs_hal/common/mss_peripherals.c ****             if (LIBERO_SETTING_CONTEXT_EN[option][1U] & periph_context_mask)
  98:../src/platform/mpfs_hal/common/mss_peripherals.c ****             {
  99:../src/platform/mpfs_hal/common/mss_peripherals.c ****                 result = 0U;
 100:../src/platform/mpfs_hal/common/mss_peripherals.c ****             }
 101:../src/platform/mpfs_hal/common/mss_peripherals.c ****         }
 102:../src/platform/mpfs_hal/common/mss_peripherals.c ****     }
 103:../src/platform/mpfs_hal/common/mss_peripherals.c ****     else
 104:../src/platform/mpfs_hal/common/mss_peripherals.c ****     {
 105:../src/platform/mpfs_hal/common/mss_peripherals.c ****         hart = 0U;
 106:../src/platform/mpfs_hal/common/mss_peripherals.c ****     }
 107:../src/platform/mpfs_hal/common/mss_peripherals.c **** #else
 108:../src/platform/mpfs_hal/common/mss_peripherals.c ****     (void)hart;
 109:../src/platform/mpfs_hal/common/mss_peripherals.c ****     (void)periph_context_mask;
 110:../src/platform/mpfs_hal/common/mss_peripherals.c ****     (void)option;
 111:../src/platform/mpfs_hal/common/mss_peripherals.c ****     result = 0U;
 194              		.loc 1 111 12
 195 0022 A30704FE 		sb	zero,-17(s0)
 112:../src/platform/mpfs_hal/common/mss_peripherals.c **** #endif
 113:../src/platform/mpfs_hal/common/mss_peripherals.c ****     return result;
 196              		.loc 1 113 12
 197 0026 8347F4FE 		lbu	a5,-17(s0)
 114:../src/platform/mpfs_hal/common/mss_peripherals.c **** }
 198              		.loc 1 114 1
 199 002a 3E85     		mv	a0,a5
 200 002c 2274     		ld	s0,40(sp)
 201              		.cfi_restore 8
 202              		.cfi_def_cfa 2, 48
 203 002e 4561     		addi	sp,sp,48
 204              		.cfi_def_cfa_offset 0
 205 0030 8280     		jr	ra
 206              		.cfi_endproc
 207              	.LFE23:
 209              		.section	.text.peripheral_on_off,"ax",@progbits
 210              		.align	1
 212              	peripheral_on_off:
 213              	.LFB24:
 115:../src/platform/mpfs_hal/common/mss_peripherals.c **** 
 116:../src/platform/mpfs_hal/common/mss_peripherals.c **** /**
 117:../src/platform/mpfs_hal/common/mss_peripherals.c ****  * Turn on/off mss peripheral as required
 118:../src/platform/mpfs_hal/common/mss_peripherals.c ****  * @param peripheral_mask
 119:../src/platform/mpfs_hal/common/mss_peripherals.c ****  * @param req_state
 120:../src/platform/mpfs_hal/common/mss_peripherals.c ****  */
 121:../src/platform/mpfs_hal/common/mss_peripherals.c **** static inline void peripheral_on_off(uint32_t peripheral_mask , PERIPH_RESET_STATE req_state)
 122:../src/platform/mpfs_hal/common/mss_peripherals.c **** {
 214              		.loc 1 122 1
 215              		.cfi_startproc
 216 0000 0111     		addi	sp,sp,-32
 217              		.cfi_def_cfa_offset 32
 218 0002 22EC     		sd	s0,24(sp)
 219              		.cfi_offset 8, -8
 220 0004 0010     		addi	s0,sp,32
 221              		.cfi_def_cfa 8, 0
 222 0006 AA87     		mv	a5,a0
 223 0008 2E87     		mv	a4,a1
 224 000a 2326F4FE 		sw	a5,-20(s0)
 225 000e BA87     		mv	a5,a4
 226 0010 2324F4FE 		sw	a5,-24(s0)
 123:../src/platform/mpfs_hal/common/mss_peripherals.c ****     if (req_state == PERIPHERAL_OFF)
 227              		.loc 1 123 8
 228 0014 832784FE 		lw	a5,-24(s0)
 229 0018 1B870700 		sext.w	a4,a5
 230 001c 8547     		li	a5,1
 231 001e 6313F704 		bne	a4,a5,.L4
 124:../src/platform/mpfs_hal/common/mss_peripherals.c ****     {
 125:../src/platform/mpfs_hal/common/mss_peripherals.c ****         /* Turn off clock */
 126:../src/platform/mpfs_hal/common/mss_peripherals.c ****         SYSREG->SUBBLK_CLOCK_CR &= (uint32_t)~(peripheral_mask);
 232              		.loc 1 126 33
 233 0022 B7270020 		li	a5,536879104
 234 0026 83A74708 		lw	a5,132(a5)
 235 002a 9B860700 		sext.w	a3,a5
 236              		.loc 1 126 46
 237 002e 8327C4FE 		lw	a5,-20(s0)
 238 0032 93C7F7FF 		not	a5,a5
 239 0036 1B870700 		sext.w	a4,a5
 240              		.loc 1 126 33
 241 003a B7270020 		li	a5,536879104
 242 003e 758F     		and	a4,a3,a4
 243 0040 0127     		sext.w	a4,a4
 244 0042 23A2E708 		sw	a4,132(a5)
 127:../src/platform/mpfs_hal/common/mss_peripherals.c ****         /* Hold in reset */
 128:../src/platform/mpfs_hal/common/mss_peripherals.c ****         SYSREG->SOFT_RESET_CR   |= (uint32_t)(peripheral_mask);
 245              		.loc 1 128 33
 246 0046 B7270020 		li	a5,536879104
 247 004a 83A78708 		lw	a5,136(a5)
 248 004e 9B860700 		sext.w	a3,a5
 249 0052 B7270020 		li	a5,536879104
 250 0056 0327C4FE 		lw	a4,-20(s0)
 251 005a 558F     		or	a4,a4,a3
 252 005c 0127     		sext.w	a4,a4
 253 005e 23A4E708 		sw	a4,136(a5)
 129:../src/platform/mpfs_hal/common/mss_peripherals.c ****     }
 130:../src/platform/mpfs_hal/common/mss_peripherals.c ****     else
 131:../src/platform/mpfs_hal/common/mss_peripherals.c ****     {
 132:../src/platform/mpfs_hal/common/mss_peripherals.c ****         /* Turn on clock */
 133:../src/platform/mpfs_hal/common/mss_peripherals.c ****         SYSREG->SUBBLK_CLOCK_CR |= (peripheral_mask);
 134:../src/platform/mpfs_hal/common/mss_peripherals.c ****         /* Remove soft reset */
 135:../src/platform/mpfs_hal/common/mss_peripherals.c ****         SYSREG->SOFT_RESET_CR   &= (uint32_t)~(peripheral_mask);
 136:../src/platform/mpfs_hal/common/mss_peripherals.c ****     }
 137:../src/platform/mpfs_hal/common/mss_peripherals.c **** }
 254              		.loc 1 137 1
 255 0062 89A0     		j	.L6
 256              	.L4:
 133:../src/platform/mpfs_hal/common/mss_peripherals.c ****         /* Remove soft reset */
 257              		.loc 1 133 33
 258 0064 B7270020 		li	a5,536879104
 259 0068 83A74708 		lw	a5,132(a5)
 260 006c 9B860700 		sext.w	a3,a5
 261 0070 B7270020 		li	a5,536879104
 262 0074 0327C4FE 		lw	a4,-20(s0)
 263 0078 558F     		or	a4,a4,a3
 264 007a 0127     		sext.w	a4,a4
 265 007c 23A2E708 		sw	a4,132(a5)
 135:../src/platform/mpfs_hal/common/mss_peripherals.c ****     }
 266              		.loc 1 135 33
 267 0080 B7270020 		li	a5,536879104
 268 0084 83A78708 		lw	a5,136(a5)
 269 0088 9B860700 		sext.w	a3,a5
 135:../src/platform/mpfs_hal/common/mss_peripherals.c ****     }
 270              		.loc 1 135 46
 271 008c 8327C4FE 		lw	a5,-20(s0)
 272 0090 93C7F7FF 		not	a5,a5
 273 0094 1B870700 		sext.w	a4,a5
 135:../src/platform/mpfs_hal/common/mss_peripherals.c ****     }
 274              		.loc 1 135 33
 275 0098 B7270020 		li	a5,536879104
 276 009c 758F     		and	a4,a3,a4
 277 009e 0127     		sext.w	a4,a4
 278 00a0 23A4E708 		sw	a4,136(a5)
 279              	.L6:
 280              		.loc 1 137 1
 281 00a4 0100     		nop
 282 00a6 6264     		ld	s0,24(sp)
 283              		.cfi_restore 8
 284              		.cfi_def_cfa 2, 32
 285 00a8 0561     		addi	sp,sp,32
 286              		.cfi_def_cfa_offset 0
 287 00aa 8280     		jr	ra
 288              		.cfi_endproc
 289              	.LFE24:
 291              		.section	.text.mss_config_clk_rst,"ax",@progbits
 292              		.align	1
 293              		.weak	mss_config_clk_rst
 295              	mss_config_clk_rst:
 296              	.LFB25:
 138:../src/platform/mpfs_hal/common/mss_peripherals.c **** 
 139:../src/platform/mpfs_hal/common/mss_peripherals.c **** 
 140:../src/platform/mpfs_hal/common/mss_peripherals.c **** /***************************************************************************//**
 141:../src/platform/mpfs_hal/common/mss_peripherals.c ****  * See mss_peripherals.h for details of how to use this function.
 142:../src/platform/mpfs_hal/common/mss_peripherals.c ****  */
 143:../src/platform/mpfs_hal/common/mss_peripherals.c **** __attribute__((weak))  uint8_t mss_config_clk_rst(mss_peripherals peripheral, uint8_t hart, PERIPH_
 144:../src/platform/mpfs_hal/common/mss_peripherals.c **** {
 297              		.loc 1 144 1
 298              		.cfi_startproc
 299 0000 7971     		addi	sp,sp,-48
 300              		.cfi_def_cfa_offset 48
 301 0002 06F4     		sd	ra,40(sp)
 302 0004 22F0     		sd	s0,32(sp)
 303              		.cfi_offset 1, -8
 304              		.cfi_offset 8, -16
 305 0006 0018     		addi	s0,sp,48
 306              		.cfi_def_cfa 8, 0
 307 0008 AA87     		mv	a5,a0
 308 000a AE86     		mv	a3,a1
 309 000c 3287     		mv	a4,a2
 310 000e 232EF4FC 		sw	a5,-36(s0)
 311 0012 B687     		mv	a5,a3
 312 0014 A30DF4FC 		sb	a5,-37(s0)
 313 0018 BA87     		mv	a5,a4
 314 001a 232AF4FC 		sw	a5,-44(s0)
 145:../src/platform/mpfs_hal/common/mss_peripherals.c ****     uint8_t result = 1U;
 315              		.loc 1 145 13
 316 001e 8547     		li	a5,1
 317 0020 A307F4FE 		sb	a5,-17(s0)
 146:../src/platform/mpfs_hal/common/mss_peripherals.c **** 
 147:../src/platform/mpfs_hal/common/mss_peripherals.c ****     ASSERT(PERIPHERAL_SETUP[peripheral][PERIPHERAL_INDEX_OFFSET] == peripheral);
 318              		.loc 1 147 5
 319 0024 17070000 		lla	a4,PERIPHERAL_SETUP
 319      13070700 
 320 002c 8367C4FD 		lwu	a5,-36(s0)
 321 0030 9207     		slli	a5,a5,4
 322 0032 BA97     		add	a5,a4,a5
 323 0034 9843     		lw	a4,0(a5)
 324 0036 8327C4FD 		lw	a5,-36(s0)
 325 003a 8127     		sext.w	a5,a5
 326 003c 6383E700 		beq	a5,a4,.L8
 327              		.loc 1 147 5 is_stmt 0 discriminator 1
 328              	 #APP
 329              	# 147 "../src/platform/mpfs_hal/common/mss_peripherals.c" 1
 148              	
 330              		ebreak
 331              	# 0 "" 2
 332              	 #NO_APP
 333              	.L8:
 149:../src/platform/mpfs_hal/common/mss_peripherals.c ****     result = verify_context_enable((uint8_t)PERIPHERAL_SETUP[peripheral][CONTEXT_EN_INDEX_OFFSET], 
 334              		.loc 1 149 73 is_stmt 1
 335 0042 17070000 		lla	a4,PERIPHERAL_SETUP
 335      13070700 
 336 004a 8367C4FD 		lwu	a5,-36(s0)
 337 004e 9207     		slli	a5,a5,4
 338 0050 BA97     		add	a5,a4,a5
 339 0052 DC43     		lw	a5,4(a5)
 340              		.loc 1 149 14
 341 0054 93F6F70F 		andi	a3,a5,0xff
 342 0058 17070000 		lla	a4,PERIPHERAL_SETUP
 342      13070700 
 343 0060 8367C4FD 		lwu	a5,-36(s0)
 344 0064 9207     		slli	a5,a5,4
 345 0066 BA97     		add	a5,a4,a5
 346 0068 9C47     		lw	a5,8(a5)
 347 006a 0347B4FD 		lbu	a4,-37(s0)
 348 006e 3A86     		mv	a2,a4
 349 0070 BE85     		mv	a1,a5
 350 0072 3685     		mv	a0,a3
 351 0074 97000000 		call	verify_context_enable
 351      E7800000 
 352 007c AA87     		mv	a5,a0
 353 007e A307F4FE 		sb	a5,-17(s0)
 150:../src/platform/mpfs_hal/common/mss_peripherals.c **** 
 151:../src/platform/mpfs_hal/common/mss_peripherals.c ****     if (result == 0U)
 354              		.loc 1 151 8
 355 0082 8347F4FE 		lbu	a5,-17(s0)
 356 0086 93F7F70F 		andi	a5,a5,0xff
 357 008a 95E3     		bne	a5,zero,.L9
 152:../src/platform/mpfs_hal/common/mss_peripherals.c ****     {
 153:../src/platform/mpfs_hal/common/mss_peripherals.c ****         peripheral_on_off(PERIPHERAL_SETUP[peripheral][CONTEXT_SUBCLK_INDEX_OFFSET] , req_state);
 358              		.loc 1 153 9
 359 008c 17070000 		lla	a4,PERIPHERAL_SETUP
 359      13070700 
 360 0094 8367C4FD 		lwu	a5,-36(s0)
 361 0098 9207     		slli	a5,a5,4
 362 009a BA97     		add	a5,a4,a5
 363 009c DC47     		lw	a5,12(a5)
 364 009e 032744FD 		lw	a4,-44(s0)
 365 00a2 BA85     		mv	a1,a4
 366 00a4 3E85     		mv	a0,a5
 367 00a6 97000000 		call	peripheral_on_off
 367      E7800000 
 368              	.L9:
 154:../src/platform/mpfs_hal/common/mss_peripherals.c ****     }
 155:../src/platform/mpfs_hal/common/mss_peripherals.c ****     return result;
 369              		.loc 1 155 12
 370 00ae 8347F4FE 		lbu	a5,-17(s0)
 156:../src/platform/mpfs_hal/common/mss_peripherals.c **** }
 371              		.loc 1 156 1
 372 00b2 3E85     		mv	a0,a5
 373 00b4 A270     		ld	ra,40(sp)
 374              		.cfi_restore 1
 375 00b6 0274     		ld	s0,32(sp)
 376              		.cfi_restore 8
 377              		.cfi_def_cfa 2, 48
 378 00b8 4561     		addi	sp,sp,48
 379              		.cfi_def_cfa_offset 0
 380 00ba 8280     		jr	ra
 381              		.cfi_endproc
 382              	.LFE25:
 384              		.section	.text.mss_enable_fabric,"ax",@progbits
 385              		.align	1
 386              		.weak	mss_enable_fabric
 388              	mss_enable_fabric:
 389              	.LFB26:
 157:../src/platform/mpfs_hal/common/mss_peripherals.c **** 
 158:../src/platform/mpfs_hal/common/mss_peripherals.c **** /***************************************************************************//**
 159:../src/platform/mpfs_hal/common/mss_peripherals.c ****  * See mss_peripherals.h for details of how to use this function.
 160:../src/platform/mpfs_hal/common/mss_peripherals.c ****  */
 161:../src/platform/mpfs_hal/common/mss_peripherals.c **** __attribute__((weak)) void mss_enable_fabric(void)
 162:../src/platform/mpfs_hal/common/mss_peripherals.c **** {
 390              		.loc 1 162 1
 391              		.cfi_startproc
 392 0000 4111     		addi	sp,sp,-16
 393              		.cfi_def_cfa_offset 16
 394 0002 22E4     		sd	s0,8(sp)
 395              		.cfi_offset 8, -8
 396 0004 0008     		addi	s0,sp,16
 397              		.cfi_def_cfa 8, 0
 163:../src/platform/mpfs_hal/common/mss_peripherals.c ****     /* Remove soft reset */
 164:../src/platform/mpfs_hal/common/mss_peripherals.c ****     SYSREG->SOFT_RESET_CR &= (uint32_t)~(SOFT_RESET_CR_FPGA_MASK);
 398              		.loc 1 164 27
 399 0006 B7270020 		li	a5,536879104
 400 000a 83A78708 		lw	a5,136(a5)
 401 000e 1B870700 		sext.w	a4,a5
 402 0012 B7270020 		li	a5,536879104
 403 0016 BA86     		mv	a3,a4
 404 0018 0177     		li	a4,-131072
 405 001a 7D17     		addi	a4,a4,-1
 406 001c 758F     		and	a4,a3,a4
 407 001e 0127     		sext.w	a4,a4
 408 0020 23A4E708 		sw	a4,136(a5)
 165:../src/platform/mpfs_hal/common/mss_peripherals.c **** }
 409              		.loc 1 165 1
 410 0024 0100     		nop
 411 0026 2264     		ld	s0,8(sp)
 412              		.cfi_restore 8
 413              		.cfi_def_cfa 2, 16
 414 0028 4101     		addi	sp,sp,16
 415              		.cfi_def_cfa_offset 0
 416 002a 8280     		jr	ra
 417              		.cfi_endproc
 418              	.LFE26:
 420              		.section	.text.mss_disable_fabric,"ax",@progbits
 421              		.align	1
 422              		.weak	mss_disable_fabric
 424              	mss_disable_fabric:
 425              	.LFB27:
 166:../src/platform/mpfs_hal/common/mss_peripherals.c **** 
 167:../src/platform/mpfs_hal/common/mss_peripherals.c **** /***************************************************************************//**
 168:../src/platform/mpfs_hal/common/mss_peripherals.c ****  * See mss_peripherals.h for details of how to use this function.
 169:../src/platform/mpfs_hal/common/mss_peripherals.c ****  */
 170:../src/platform/mpfs_hal/common/mss_peripherals.c **** __attribute__((weak)) void mss_disable_fabric(void)
 171:../src/platform/mpfs_hal/common/mss_peripherals.c **** {
 426              		.loc 1 171 1
 427              		.cfi_startproc
 428 0000 4111     		addi	sp,sp,-16
 429              		.cfi_def_cfa_offset 16
 430 0002 22E4     		sd	s0,8(sp)
 431              		.cfi_offset 8, -8
 432 0004 0008     		addi	s0,sp,16
 433              		.cfi_def_cfa 8, 0
 172:../src/platform/mpfs_hal/common/mss_peripherals.c ****     /* Apply reset */
 173:../src/platform/mpfs_hal/common/mss_peripherals.c ****     SYSREG->SOFT_RESET_CR |= SOFT_RESET_CR_FPGA_MASK;
 434              		.loc 1 173 27
 435 0006 B7270020 		li	a5,536879104
 436 000a 83A78708 		lw	a5,136(a5)
 437 000e 1B870700 		sext.w	a4,a5
 438 0012 B7270020 		li	a5,536879104
 439 0016 BA86     		mv	a3,a4
 440 0018 37070200 		li	a4,131072
 441 001c 558F     		or	a4,a3,a4
 442 001e 0127     		sext.w	a4,a4
 443 0020 23A4E708 		sw	a4,136(a5)
 174:../src/platform/mpfs_hal/common/mss_peripherals.c **** }
 444              		.loc 1 174 1
 445 0024 0100     		nop
 446 0026 2264     		ld	s0,8(sp)
 447              		.cfi_restore 8
 448              		.cfi_def_cfa 2, 16
 449 0028 4101     		addi	sp,sp,16
 450              		.cfi_def_cfa_offset 0
 451 002a 8280     		jr	ra
 452              		.cfi_endproc
 453              	.LFE27:
 455              		.section	.text.mss_set_apb_bus_cr,"ax",@progbits
 456              		.align	1
 457              		.weak	mss_set_apb_bus_cr
 459              	mss_set_apb_bus_cr:
 460              	.LFB28:
 175:../src/platform/mpfs_hal/common/mss_peripherals.c **** 
 176:../src/platform/mpfs_hal/common/mss_peripherals.c **** /***************************************************************************//**
 177:../src/platform/mpfs_hal/common/mss_peripherals.c ****  * See mss_peripherals.h for details of how to use this function.
 178:../src/platform/mpfs_hal/common/mss_peripherals.c ****  */
 179:../src/platform/mpfs_hal/common/mss_peripherals.c **** __attribute__((weak)) void mss_set_apb_bus_cr(uint32_t reg_value)
 180:../src/platform/mpfs_hal/common/mss_peripherals.c **** {
 461              		.loc 1 180 1
 462              		.cfi_startproc
 463 0000 0111     		addi	sp,sp,-32
 464              		.cfi_def_cfa_offset 32
 465 0002 22EC     		sd	s0,24(sp)
 466              		.cfi_offset 8, -8
 467 0004 0010     		addi	s0,sp,32
 468              		.cfi_def_cfa 8, 0
 469 0006 AA87     		mv	a5,a0
 470 0008 2326F4FE 		sw	a5,-20(s0)
 181:../src/platform/mpfs_hal/common/mss_peripherals.c ****     SYSREG->APBBUS_CR = reg_value;
 471              		.loc 1 181 11
 472 000c B7270020 		li	a5,536879104
 473              		.loc 1 181 23
 474 0010 0327C4FE 		lw	a4,-20(s0)
 475 0014 23A0E708 		sw	a4,128(a5)
 182:../src/platform/mpfs_hal/common/mss_peripherals.c **** }
 476              		.loc 1 182 1
 477 0018 0100     		nop
 478 001a 6264     		ld	s0,24(sp)
 479              		.cfi_restore 8
 480              		.cfi_def_cfa 2, 32
 481 001c 0561     		addi	sp,sp,32
 482              		.cfi_def_cfa_offset 0
 483 001e 8280     		jr	ra
 484              		.cfi_endproc
 485              	.LFE28:
 487              		.section	.text.mss_get_apb_bus_cr,"ax",@progbits
 488              		.align	1
 489              		.weak	mss_get_apb_bus_cr
 491              	mss_get_apb_bus_cr:
 492              	.LFB29:
 183:../src/platform/mpfs_hal/common/mss_peripherals.c **** 
 184:../src/platform/mpfs_hal/common/mss_peripherals.c **** /***************************************************************************//**
 185:../src/platform/mpfs_hal/common/mss_peripherals.c ****  * See mss_peripherals.h for details of how to use this function.
 186:../src/platform/mpfs_hal/common/mss_peripherals.c ****  */
 187:../src/platform/mpfs_hal/common/mss_peripherals.c **** __attribute__((weak)) uint32_t mss_get_apb_bus_cr(void)
 188:../src/platform/mpfs_hal/common/mss_peripherals.c **** {
 493              		.loc 1 188 1
 494              		.cfi_startproc
 495 0000 4111     		addi	sp,sp,-16
 496              		.cfi_def_cfa_offset 16
 497 0002 22E4     		sd	s0,8(sp)
 498              		.cfi_offset 8, -8
 499 0004 0008     		addi	s0,sp,16
 500              		.cfi_def_cfa 8, 0
 189:../src/platform/mpfs_hal/common/mss_peripherals.c ****     return (SYSREG->APBBUS_CR);
 501              		.loc 1 189 19
 502 0006 B7270020 		li	a5,536879104
 503 000a 83A70708 		lw	a5,128(a5)
 504 000e 8127     		sext.w	a5,a5
 190:../src/platform/mpfs_hal/common/mss_peripherals.c **** }
 505              		.loc 1 190 1
 506 0010 3E85     		mv	a0,a5
 507 0012 2264     		ld	s0,8(sp)
 508              		.cfi_restore 8
 509              		.cfi_def_cfa 2, 16
 510 0014 4101     		addi	sp,sp,16
 511              		.cfi_def_cfa_offset 0
 512 0016 8280     		jr	ra
 513              		.cfi_endproc
 514              	.LFE29:
 516              		.text
 517              	.Letext0:
 518              		.file 2 "/home/vinay/Desktop/soft_console/SoftConsole-v2022.2-RISC-V-747/riscv-unknown-elf-gcc/ris
 519              		.file 3 "/home/vinay/Desktop/soft_console/SoftConsole-v2022.2-RISC-V-747/riscv-unknown-elf-gcc/lib
 520              		.file 4 "/home/vinay/Desktop/soft_console/SoftConsole-v2022.2-RISC-V-747/riscv-unknown-elf-gcc/ris
 521              		.file 5 "/home/vinay/Desktop/soft_console/SoftConsole-v2022.2-RISC-V-747/riscv-unknown-elf-gcc/ris
 522              		.file 6 "/home/vinay/Desktop/soft_console/SoftConsole-v2022.2-RISC-V-747/riscv-unknown-elf-gcc/ris
 523              		.file 7 "/home/vinay/Desktop/soft_console/SoftConsole-v2022.2-RISC-V-747/riscv-unknown-elf-gcc/ris
 524              		.file 8 "/home/vinay/Desktop/softconsole_watershed/Water-shed/src/platform/mpfs_hal/common/nwc/../
 525              		.file 9 "/home/vinay/Desktop/softconsole_watershed/Water-shed/src/platform/mpfs_hal/common/nwc/mss
 526              		.file 10 "/home/vinay/Desktop/softconsole_watershed/Water-shed/src/platform/mpfs_hal/common/nwc/ms
 527              		.file 11 "/home/vinay/Desktop/softconsole_watershed/Water-shed/src/platform/mpfs_hal/common/nwc/ms
 528              		.file 12 "/home/vinay/Desktop/softconsole_watershed/Water-shed/src/platform/mpfs_hal/common/mss_mp
 529              		.file 13 "/home/vinay/Desktop/softconsole_watershed/Water-shed/src/platform/mpfs_hal/common/mss_pl
 530              		.file 14 "/home/vinay/Desktop/softconsole_watershed/Water-shed/src/platform/mpfs_hal/common/mss_pe
 531              		.file 15 "/home/vinay/Desktop/softconsole_watershed/Water-shed/src/platform/mpfs_hal/startup_gcc/s