   1              		.file	"mss_l2_cache.c"
   2              		.option nopic
   3              		.attribute arch, "rv64i2p0_m2p0_a2p0_f2p0_d2p0_c2p0"
   4              		.attribute unaligned_access, 0
   5              		.attribute stack_align, 16
   6              		.text
   7              	.Ltext0:
   8              		.cfi_sections	.debug_frame
   9              		.section	.sdata2.g_init_marker,"a"
  10              		.align	3
  13              	g_init_marker:
  14 0000 000001C0 		.dword	-4539647396333682688
  14      BEEEFFC0 
  15              		.section	.text.config_l2_cache,"ax",@progbits
  16              		.align	1
  17              		.weak	config_l2_cache
  19              	config_l2_cache:
  20              	.LFB23:
  21              		.file 1 "../src/platform/mpfs_hal/common/mss_l2_cache.c"
   1:../src/platform/mpfs_hal/common/mss_l2_cache.c **** /*******************************************************************************
   2:../src/platform/mpfs_hal/common/mss_l2_cache.c ****  * Copyright 2019-2022 Microchip FPGA Embedded Systems Solutions.
   3:../src/platform/mpfs_hal/common/mss_l2_cache.c ****  *
   4:../src/platform/mpfs_hal/common/mss_l2_cache.c ****  * SPDX-License-Identifier: MIT
   5:../src/platform/mpfs_hal/common/mss_l2_cache.c ****  *
   6:../src/platform/mpfs_hal/common/mss_l2_cache.c ****  * MPFS HAL Embedded Software
   7:../src/platform/mpfs_hal/common/mss_l2_cache.c ****  *
   8:../src/platform/mpfs_hal/common/mss_l2_cache.c ****  */
   9:../src/platform/mpfs_hal/common/mss_l2_cache.c **** /*******************************************************************************
  10:../src/platform/mpfs_hal/common/mss_l2_cache.c ****  * @file mss_l2_cache.c
  11:../src/platform/mpfs_hal/common/mss_l2_cache.c ****  * @author Microchip-FPGA Embedded Systems Solutions
  12:../src/platform/mpfs_hal/common/mss_l2_cache.c ****  * @brief The code in this file is executed before any code/data sections are
  13:../src/platform/mpfs_hal/common/mss_l2_cache.c ****  * copied. This code must not rely sdata/data section content. Hence, global
  14:../src/platform/mpfs_hal/common/mss_l2_cache.c ****  * variables should not be used unless they are constants.
  15:../src/platform/mpfs_hal/common/mss_l2_cache.c ****  *
  16:../src/platform/mpfs_hal/common/mss_l2_cache.c ****  */
  17:../src/platform/mpfs_hal/common/mss_l2_cache.c **** /*==============================================================================
  18:../src/platform/mpfs_hal/common/mss_l2_cache.c ****  *
  19:../src/platform/mpfs_hal/common/mss_l2_cache.c ****  */
  20:../src/platform/mpfs_hal/common/mss_l2_cache.c **** 
  21:../src/platform/mpfs_hal/common/mss_l2_cache.c **** #include <stdio.h>
  22:../src/platform/mpfs_hal/common/mss_l2_cache.c **** #include <string.h>
  23:../src/platform/mpfs_hal/common/mss_l2_cache.c **** #include "mpfs_hal/mss_hal.h"
  24:../src/platform/mpfs_hal/common/mss_l2_cache.c **** #include "mss_l2_cache.h"
  25:../src/platform/mpfs_hal/common/mss_l2_cache.c **** 
  26:../src/platform/mpfs_hal/common/mss_l2_cache.c **** /*==============================================================================
  27:../src/platform/mpfs_hal/common/mss_l2_cache.c ****  * Local defines
  28:../src/platform/mpfs_hal/common/mss_l2_cache.c ****  */
  29:../src/platform/mpfs_hal/common/mss_l2_cache.c **** #if (LIBERO_SETTING_NUM_SCRATCH_PAD_WAYS != 0)
  30:../src/platform/mpfs_hal/common/mss_l2_cache.c **** static const uint64_t g_init_marker = INIT_MARKER;
  31:../src/platform/mpfs_hal/common/mss_l2_cache.c **** #endif
  32:../src/platform/mpfs_hal/common/mss_l2_cache.c **** 
  33:../src/platform/mpfs_hal/common/mss_l2_cache.c **** /*==============================================================================
  34:../src/platform/mpfs_hal/common/mss_l2_cache.c ****  * Local functions.
  35:../src/platform/mpfs_hal/common/mss_l2_cache.c ****  */
  36:../src/platform/mpfs_hal/common/mss_l2_cache.c **** static void check_config_l2_scratchpad(void);
  37:../src/platform/mpfs_hal/common/mss_l2_cache.c **** 
  38:../src/platform/mpfs_hal/common/mss_l2_cache.c **** 
  39:../src/platform/mpfs_hal/common/mss_l2_cache.c **** /*==============================================================================
  40:../src/platform/mpfs_hal/common/mss_l2_cache.c ****  * This code should only be executed from E51 to be functional.
  41:../src/platform/mpfs_hal/common/mss_l2_cache.c ****  * Configure the L2 cache memory:
  42:../src/platform/mpfs_hal/common/mss_l2_cache.c ****  *  - Set the number of cache ways used as cache based on the MSS Configurator
  43:../src/platform/mpfs_hal/common/mss_l2_cache.c ****  *    settings.
  44:../src/platform/mpfs_hal/common/mss_l2_cache.c ****  *  - Configure some of the enabled ways as scratchpad based on linker
  45:../src/platform/mpfs_hal/common/mss_l2_cache.c ****  *    configuration and space allocated by configurator.
  46:../src/platform/mpfs_hal/common/mss_l2_cache.c ****  */
  47:../src/platform/mpfs_hal/common/mss_l2_cache.c **** __attribute__((weak)) void config_l2_cache(void)
  48:../src/platform/mpfs_hal/common/mss_l2_cache.c **** {
  22              		.loc 1 48 1
  23              		.cfi_startproc
  24 0000 3971     		addi	sp,sp,-64
  25              		.cfi_def_cfa_offset 64
  26 0002 06FC     		sd	ra,56(sp)
  27 0004 22F8     		sd	s0,48(sp)
  28              		.cfi_offset 1, -8
  29              		.cfi_offset 8, -16
  30 0006 8000     		addi	s0,sp,64
  31              		.cfi_def_cfa 8, 0
  49:../src/platform/mpfs_hal/common/mss_l2_cache.c ****     ASSERT(LIBERO_SETTING_WAY_ENABLE < 16U);
  50:../src/platform/mpfs_hal/common/mss_l2_cache.c ****     
  51:../src/platform/mpfs_hal/common/mss_l2_cache.c ****     /* 
  52:../src/platform/mpfs_hal/common/mss_l2_cache.c ****      * confirm the amount of l2lim used in the Linker script has been allocated 
  53:../src/platform/mpfs_hal/common/mss_l2_cache.c ****      * in the MSS Configurator
  54:../src/platform/mpfs_hal/common/mss_l2_cache.c ****      */
  55:../src/platform/mpfs_hal/common/mss_l2_cache.c ****     ASSERT(((const uint64_t)&__l2lim_end - (const uint64_t)&__l2lim_start)\
  32              		.loc 1 55 5
  33 0008 17070000 		lla	a4,__l2lim_end
  33      13070700 
  34 0010 97070000 		lla	a5,__l2lim_start
  34      93870700 
  35 0018 1D8F     		sub	a4,a4,a5
  36 001a B7070800 		li	a5,524288
  37 001e 63F3E700 		bleu	a4,a5,.L2
  38              		.loc 1 55 5 is_stmt 0 discriminator 1
  39              	 #APP
  40              	# 55 "../src/platform/mpfs_hal/common/mss_l2_cache.c" 1
  56              	            <= ((15U - LIBERO_SETTING_WAY_ENABLE) * WAY_BYTE_LENGTH));
  41              		ebreak
  42              	# 0 "" 2
  43              	 #NO_APP
  44              	.L2:
  57:../src/platform/mpfs_hal/common/mss_l2_cache.c ****             
  58:../src/platform/mpfs_hal/common/mss_l2_cache.c ****     /*
  59:../src/platform/mpfs_hal/common/mss_l2_cache.c ****      * Set the number of ways that will be shared between cache and scratchpad.
  60:../src/platform/mpfs_hal/common/mss_l2_cache.c ****      */
  61:../src/platform/mpfs_hal/common/mss_l2_cache.c ****     CACHE_CTRL->WAY_ENABLE = LIBERO_SETTING_WAY_ENABLE;
  45              		.loc 1 61 15 is_stmt 1
  46 0024 B7070102 		li	a5,33619968
  47              		.loc 1 61 28
  48 0028 2D47     		li	a4,11
  49 002a 2384E700 		sb	a4,8(a5)
  62:../src/platform/mpfs_hal/common/mss_l2_cache.c **** 
  63:../src/platform/mpfs_hal/common/mss_l2_cache.c ****     /*
  64:../src/platform/mpfs_hal/common/mss_l2_cache.c ****      * shutdown L2 as directed
  65:../src/platform/mpfs_hal/common/mss_l2_cache.c ****      */
  66:../src/platform/mpfs_hal/common/mss_l2_cache.c ****     SYSREG->L2_SHUTDOWN_CR = LIBERO_SETTING_L2_SHUTDOWN_CR;
  50              		.loc 1 66 11
  51 002e B7270020 		li	a5,536879104
  52              		.loc 1 66 28
  53 0032 23AA0716 		sw	zero,372(a5)
  67:../src/platform/mpfs_hal/common/mss_l2_cache.c **** 
  68:../src/platform/mpfs_hal/common/mss_l2_cache.c ****     /* The scratchpad has already been set-up, first check enough space before copying */
  69:../src/platform/mpfs_hal/common/mss_l2_cache.c ****     check_config_l2_scratchpad();
  54              		.loc 1 69 5
  55 0036 97000000 		call	check_config_l2_scratchpad
  55      E7800000 
  70:../src/platform/mpfs_hal/common/mss_l2_cache.c **** 
  71:../src/platform/mpfs_hal/common/mss_l2_cache.c ****     /* If you are not using scratchpad, no need to include the following code */
  72:../src/platform/mpfs_hal/common/mss_l2_cache.c **** 
  73:../src/platform/mpfs_hal/common/mss_l2_cache.c ****     ASSERT(LIBERO_SETTING_WAY_ENABLE >= LIBERO_SETTING_NUM_SCRATCH_PAD_WAYS);
  74:../src/platform/mpfs_hal/common/mss_l2_cache.c **** 
  75:../src/platform/mpfs_hal/common/mss_l2_cache.c **** 
  76:../src/platform/mpfs_hal/common/mss_l2_cache.c **** 
  77:../src/platform/mpfs_hal/common/mss_l2_cache.c ****     /*
  78:../src/platform/mpfs_hal/common/mss_l2_cache.c ****      * Compute the mask used to specify ways that will be used by the
  79:../src/platform/mpfs_hal/common/mss_l2_cache.c ****      * scratchpad.
  80:../src/platform/mpfs_hal/common/mss_l2_cache.c ****      */
  81:../src/platform/mpfs_hal/common/mss_l2_cache.c **** 
  82:../src/platform/mpfs_hal/common/mss_l2_cache.c ****     uint32_t scratchpad_ways_mask = 0U;
  56              		.loc 1 82 14
  57 003e 232604FE 		sw	zero,-20(s0)
  83:../src/platform/mpfs_hal/common/mss_l2_cache.c **** #if (LIBERO_SETTING_NUM_SCRATCH_PAD_WAYS != 0)
  84:../src/platform/mpfs_hal/common/mss_l2_cache.c ****     uint32_t inc;
  85:../src/platform/mpfs_hal/common/mss_l2_cache.c ****     uint32_t seed_ways_mask = 0x1U << LIBERO_SETTING_WAY_ENABLE;
  58              		.loc 1 85 14
  59 0042 8567     		li	a5,4096
  60 0044 93870780 		addi	a5,a5,-2048
  61 0048 2326F4FC 		sw	a5,-52(s0)
  86:../src/platform/mpfs_hal/common/mss_l2_cache.c ****     for(inc = 0; inc < LIBERO_SETTING_NUM_SCRATCH_PAD_WAYS; ++inc)
  62              		.loc 1 86 13
  63 004c 232404FE 		sw	zero,-24(s0)
  64              		.loc 1 86 5
  65 0050 1DA0     		j	.L3
  66              	.L4:
  87:../src/platform/mpfs_hal/common/mss_l2_cache.c ****     {
  88:../src/platform/mpfs_hal/common/mss_l2_cache.c ****         scratchpad_ways_mask |= (seed_ways_mask >> inc) ;
  67              		.loc 1 88 49 discriminator 3
  68 0052 832784FE 		lw	a5,-24(s0)
  69 0056 0327C4FC 		lw	a4,-52(s0)
  70 005a BB57F700 		srlw	a5,a4,a5
  71 005e 1B870700 		sext.w	a4,a5
  72              		.loc 1 88 30 discriminator 3
  73 0062 8327C4FE 		lw	a5,-20(s0)
  74 0066 D98F     		or	a5,a5,a4
  75 0068 2326F4FE 		sw	a5,-20(s0)
  86:../src/platform/mpfs_hal/common/mss_l2_cache.c ****     for(inc = 0; inc < LIBERO_SETTING_NUM_SCRATCH_PAD_WAYS; ++inc)
  76              		.loc 1 86 61 discriminator 3
  77 006c 832784FE 		lw	a5,-24(s0)
  78 0070 8527     		addiw	a5,a5,1
  79 0072 2324F4FE 		sw	a5,-24(s0)
  80              	.L3:
  86:../src/platform/mpfs_hal/common/mss_l2_cache.c ****     for(inc = 0; inc < LIBERO_SETTING_NUM_SCRATCH_PAD_WAYS; ++inc)
  81              		.loc 1 86 5 discriminator 1
  82 0076 832784FE 		lw	a5,-24(s0)
  83 007a 1B870700 		sext.w	a4,a5
  84 007e 8D47     		li	a5,3
  85 0080 E3F9E7FC 		bleu	a4,a5,.L4
  89:../src/platform/mpfs_hal/common/mss_l2_cache.c ****     }
  90:../src/platform/mpfs_hal/common/mss_l2_cache.c **** #else
  91:../src/platform/mpfs_hal/common/mss_l2_cache.c ****     (void)scratchpad_ways_mask;
  92:../src/platform/mpfs_hal/common/mss_l2_cache.c **** #endif
  93:../src/platform/mpfs_hal/common/mss_l2_cache.c **** 
  94:../src/platform/mpfs_hal/common/mss_l2_cache.c ****     /*
  95:../src/platform/mpfs_hal/common/mss_l2_cache.c ****      * Make sure ways are masked if being used as scratchpad
  96:../src/platform/mpfs_hal/common/mss_l2_cache.c ****      */
  97:../src/platform/mpfs_hal/common/mss_l2_cache.c ****     ASSERT((LIBERO_SETTING_WAY_MASK_DMA & scratchpad_ways_mask) == 0UL);
  86              		.loc 1 97 5
  87 0084 8327C4FE 		lw	a5,-20(s0)
  88 0088 93F7F70F 		andi	a5,a5,255
  89 008c 8127     		sext.w	a5,a5
  90 008e 91C3     		beq	a5,zero,.L5
  91              		.loc 1 97 5 is_stmt 0 discriminator 1
  92              	 #APP
  93              	# 97 "../src/platform/mpfs_hal/common/mss_l2_cache.c" 1
  98              	    ASSERT((LIBERO_SETTING_WAY_MASK_AXI4_PORT_0 & scratchpad_ways_mask) == 0UL);
  94              		ebreak
  95              	# 0 "" 2
  96              	 #NO_APP
  97              	.L5:
  98              		.loc 1 98 5 is_stmt 1
  99 0092 8327C4FE 		lw	a5,-20(s0)
 100 0096 93F7F70F 		andi	a5,a5,255
 101 009a 8127     		sext.w	a5,a5
 102 009c 91C3     		beq	a5,zero,.L6
 103              		.loc 1 98 5 is_stmt 0 discriminator 1
 104              	 #APP
 105              	# 98 "../src/platform/mpfs_hal/common/mss_l2_cache.c" 1
  99              	    ASSERT((LIBERO_SETTING_WAY_MASK_AXI4_PORT_1 & scratchpad_ways_mask) == 0UL);
 106              		ebreak
 107              	# 0 "" 2
 108              	 #NO_APP
 109              	.L6:
 110              		.loc 1 99 5 is_stmt 1
 111 00a0 8327C4FE 		lw	a5,-20(s0)
 112 00a4 93F7F70F 		andi	a5,a5,255
 113 00a8 8127     		sext.w	a5,a5
 114 00aa 91C3     		beq	a5,zero,.L7
 115              		.loc 1 99 5 is_stmt 0 discriminator 1
 116              	 #APP
 117              	# 99 "../src/platform/mpfs_hal/common/mss_l2_cache.c" 1
 100              	    ASSERT((LIBERO_SETTING_WAY_MASK_AXI4_PORT_2 & scratchpad_ways_mask) == 0UL);
 118              		ebreak
 119              	# 0 "" 2
 120              	 #NO_APP
 121              	.L7:
 122              		.loc 1 100 5 is_stmt 1
 123 00ae 8327C4FE 		lw	a5,-20(s0)
 124 00b2 93F7F70F 		andi	a5,a5,255
 125 00b6 8127     		sext.w	a5,a5
 126 00b8 91C3     		beq	a5,zero,.L8
 127              		.loc 1 100 5 is_stmt 0 discriminator 1
 128              	 #APP
 129              	# 100 "../src/platform/mpfs_hal/common/mss_l2_cache.c" 1
 101              	    ASSERT((LIBERO_SETTING_WAY_MASK_AXI4_PORT_3 & scratchpad_ways_mask) == 0UL);
 130              		ebreak
 131              	# 0 "" 2
 132              	 #NO_APP
 133              	.L8:
 134              		.loc 1 101 5 is_stmt 1
 135 00bc 8327C4FE 		lw	a5,-20(s0)
 136 00c0 93F7F70F 		andi	a5,a5,255
 137 00c4 8127     		sext.w	a5,a5
 138 00c6 91C3     		beq	a5,zero,.L9
 139              		.loc 1 101 5 is_stmt 0 discriminator 1
 140              	 #APP
 141              	# 101 "../src/platform/mpfs_hal/common/mss_l2_cache.c" 1
 102              	    ASSERT((LIBERO_SETTING_WAY_MASK_E51_DCACHE & scratchpad_ways_mask) == 0UL);
 142              		ebreak
 143              	# 0 "" 2
 144              	 #NO_APP
 145              	.L9:
 146              		.loc 1 102 5 is_stmt 1
 147 00ca 8327C4FE 		lw	a5,-20(s0)
 148 00ce 93F7F70F 		andi	a5,a5,255
 149 00d2 8127     		sext.w	a5,a5
 150 00d4 91C3     		beq	a5,zero,.L10
 151              		.loc 1 102 5 is_stmt 0 discriminator 1
 152              	 #APP
 153              	# 102 "../src/platform/mpfs_hal/common/mss_l2_cache.c" 1
 103              	    ASSERT((LIBERO_SETTING_WAY_MASK_E51_ICACHE & scratchpad_ways_mask) == 0UL);
 154              		ebreak
 155              	# 0 "" 2
 156              	 #NO_APP
 157              	.L10:
 158              		.loc 1 103 5 is_stmt 1
 159 00d8 8327C4FE 		lw	a5,-20(s0)
 160 00dc 93F7F70F 		andi	a5,a5,255
 161 00e0 8127     		sext.w	a5,a5
 162 00e2 91C3     		beq	a5,zero,.L11
 163              		.loc 1 103 5 is_stmt 0 discriminator 1
 164              	 #APP
 165              	# 103 "../src/platform/mpfs_hal/common/mss_l2_cache.c" 1
 104              	    ASSERT((LIBERO_SETTING_WAY_MASK_U54_1_DCACHE & scratchpad_ways_mask) == 0UL);
 166              		ebreak
 167              	# 0 "" 2
 168              	 #NO_APP
 169              	.L11:
 170              		.loc 1 104 5 is_stmt 1
 171 00e6 8327C4FE 		lw	a5,-20(s0)
 172 00ea 93F7F70F 		andi	a5,a5,255
 173 00ee 8127     		sext.w	a5,a5
 174 00f0 91C3     		beq	a5,zero,.L12
 175              		.loc 1 104 5 is_stmt 0 discriminator 1
 176              	 #APP
 177              	# 104 "../src/platform/mpfs_hal/common/mss_l2_cache.c" 1
 105              	    ASSERT((LIBERO_SETTING_WAY_MASK_U54_2_DCACHE & scratchpad_ways_mask) == 0UL);
 178              		ebreak
 179              	# 0 "" 2
 180              	 #NO_APP
 181              	.L12:
 182              		.loc 1 105 5 is_stmt 1
 183 00f4 8327C4FE 		lw	a5,-20(s0)
 184 00f8 93F7F70F 		andi	a5,a5,255
 185 00fc 8127     		sext.w	a5,a5
 186 00fe 91C3     		beq	a5,zero,.L13
 187              		.loc 1 105 5 is_stmt 0 discriminator 1
 188              	 #APP
 189              	# 105 "../src/platform/mpfs_hal/common/mss_l2_cache.c" 1
 106              	    ASSERT((LIBERO_SETTING_WAY_MASK_U54_3_DCACHE & scratchpad_ways_mask) == 0UL);
 190              		ebreak
 191              	# 0 "" 2
 192              	 #NO_APP
 193              	.L13:
 194              		.loc 1 106 5 is_stmt 1
 195 0102 8327C4FE 		lw	a5,-20(s0)
 196 0106 93F7F70F 		andi	a5,a5,255
 197 010a 8127     		sext.w	a5,a5
 198 010c 91C3     		beq	a5,zero,.L14
 199              		.loc 1 106 5 is_stmt 0 discriminator 1
 200              	 #APP
 201              	# 106 "../src/platform/mpfs_hal/common/mss_l2_cache.c" 1
 107              	    ASSERT((LIBERO_SETTING_WAY_MASK_U54_4_DCACHE & scratchpad_ways_mask) == 0UL);
 202              		ebreak
 203              	# 0 "" 2
 204              	 #NO_APP
 205              	.L14:
 206              		.loc 1 107 5 is_stmt 1
 207 0110 8327C4FE 		lw	a5,-20(s0)
 208 0114 93F7F70F 		andi	a5,a5,255
 209 0118 8127     		sext.w	a5,a5
 210 011a 91C3     		beq	a5,zero,.L15
 211              		.loc 1 107 5 is_stmt 0 discriminator 1
 212              	 #APP
 213              	# 107 "../src/platform/mpfs_hal/common/mss_l2_cache.c" 1
 108              	    ASSERT((LIBERO_SETTING_WAY_MASK_U54_1_ICACHE & scratchpad_ways_mask) == 0UL);
 214              		ebreak
 215              	# 0 "" 2
 216              	 #NO_APP
 217              	.L15:
 218              		.loc 1 108 5 is_stmt 1
 219 011e 8327C4FE 		lw	a5,-20(s0)
 220 0122 93F7F70F 		andi	a5,a5,255
 221 0126 8127     		sext.w	a5,a5
 222 0128 91C3     		beq	a5,zero,.L16
 223              		.loc 1 108 5 is_stmt 0 discriminator 1
 224              	 #APP
 225              	# 108 "../src/platform/mpfs_hal/common/mss_l2_cache.c" 1
 109              	    ASSERT((LIBERO_SETTING_WAY_MASK_U54_2_ICACHE & scratchpad_ways_mask) == 0UL);
 226              		ebreak
 227              	# 0 "" 2
 228              	 #NO_APP
 229              	.L16:
 230              		.loc 1 109 5 is_stmt 1
 231 012c 8327C4FE 		lw	a5,-20(s0)
 232 0130 93F7F70F 		andi	a5,a5,255
 233 0134 8127     		sext.w	a5,a5
 234 0136 91C3     		beq	a5,zero,.L17
 235              		.loc 1 109 5 is_stmt 0 discriminator 1
 236              	 #APP
 237              	# 109 "../src/platform/mpfs_hal/common/mss_l2_cache.c" 1
 110              	    ASSERT((LIBERO_SETTING_WAY_MASK_U54_3_ICACHE & scratchpad_ways_mask) == 0UL);
 238              		ebreak
 239              	# 0 "" 2
 240              	 #NO_APP
 241              	.L17:
 242              		.loc 1 110 5 is_stmt 1
 243 013a 8327C4FE 		lw	a5,-20(s0)
 244 013e 93F7F70F 		andi	a5,a5,255
 245 0142 8127     		sext.w	a5,a5
 246 0144 91C3     		beq	a5,zero,.L18
 247              		.loc 1 110 5 is_stmt 0 discriminator 1
 248              	 #APP
 249              	# 110 "../src/platform/mpfs_hal/common/mss_l2_cache.c" 1
 111              	    ASSERT((LIBERO_SETTING_WAY_MASK_U54_4_ICACHE & scratchpad_ways_mask) == 0UL);
 250              		ebreak
 251              	# 0 "" 2
 252              	 #NO_APP
 253              	.L18:
 254              		.loc 1 111 5 is_stmt 1
 255 0148 8327C4FE 		lw	a5,-20(s0)
 256 014c 93F7F70F 		andi	a5,a5,255
 257 0150 8127     		sext.w	a5,a5
 258 0152 91C3     		beq	a5,zero,.L19
 259              		.loc 1 111 5 is_stmt 0 discriminator 1
 260              	 #APP
 261              	# 111 "../src/platform/mpfs_hal/common/mss_l2_cache.c" 1
 112              	
 262              		ebreak
 263              	# 0 "" 2
 264              	 #NO_APP
 265              	.L19:
 113:../src/platform/mpfs_hal/common/mss_l2_cache.c ****     /*
 114:../src/platform/mpfs_hal/common/mss_l2_cache.c ****      * Setup all masters, apart from one we are using to setup scratch
 115:../src/platform/mpfs_hal/common/mss_l2_cache.c ****      */
 116:../src/platform/mpfs_hal/common/mss_l2_cache.c ****     CACHE_CTRL->WAY_MASK_DMA = LIBERO_SETTING_WAY_MASK_DMA;
 266              		.loc 1 116 15 is_stmt 1
 267 0156 37070102 		li	a4,33619968
 268              		.loc 1 116 30
 269 015a 8567     		li	a5,4096
 270 015c BA97     		add	a5,a4,a5
 271 015e 1307F00F 		li	a4,255
 272 0162 23B0E780 		sd	a4,-2048(a5)
 117:../src/platform/mpfs_hal/common/mss_l2_cache.c ****     CACHE_CTRL->WAY_MASK_AXI4_SLAVE_PORT_0 = LIBERO_SETTING_WAY_MASK_AXI4_PORT_0;
 273              		.loc 1 117 15
 274 0166 37070102 		li	a4,33619968
 275              		.loc 1 117 44
 276 016a 8567     		li	a5,4096
 277 016c BA97     		add	a5,a4,a5
 278 016e 1307F00F 		li	a4,255
 279 0172 23B4E780 		sd	a4,-2040(a5)
 118:../src/platform/mpfs_hal/common/mss_l2_cache.c ****     CACHE_CTRL->WAY_MASK_AXI4_SLAVE_PORT_1 = LIBERO_SETTING_WAY_MASK_AXI4_PORT_1;
 280              		.loc 1 118 15
 281 0176 37070102 		li	a4,33619968
 282              		.loc 1 118 44
 283 017a 8567     		li	a5,4096
 284 017c BA97     		add	a5,a4,a5
 285 017e 1307F00F 		li	a4,255
 286 0182 23B8E780 		sd	a4,-2032(a5)
 119:../src/platform/mpfs_hal/common/mss_l2_cache.c ****     CACHE_CTRL->WAY_MASK_AXI4_SLAVE_PORT_2 = LIBERO_SETTING_WAY_MASK_AXI4_PORT_2;
 287              		.loc 1 119 15
 288 0186 37070102 		li	a4,33619968
 289              		.loc 1 119 44
 290 018a 8567     		li	a5,4096
 291 018c BA97     		add	a5,a4,a5
 292 018e 1307F00F 		li	a4,255
 293 0192 23BCE780 		sd	a4,-2024(a5)
 120:../src/platform/mpfs_hal/common/mss_l2_cache.c ****     CACHE_CTRL->WAY_MASK_AXI4_SLAVE_PORT_3 = LIBERO_SETTING_WAY_MASK_AXI4_PORT_3;
 294              		.loc 1 120 15
 295 0196 37070102 		li	a4,33619968
 296              		.loc 1 120 44
 297 019a 8567     		li	a5,4096
 298 019c BA97     		add	a5,a4,a5
 299 019e 1307F00F 		li	a4,255
 300 01a2 23B0E782 		sd	a4,-2016(a5)
 121:../src/platform/mpfs_hal/common/mss_l2_cache.c ****     CACHE_CTRL->WAY_MASK_E51_ICACHE = LIBERO_SETTING_WAY_MASK_E51_ICACHE;
 301              		.loc 1 121 15
 302 01a6 37070102 		li	a4,33619968
 303              		.loc 1 121 37
 304 01aa 8567     		li	a5,4096
 305 01ac BA97     		add	a5,a4,a5
 306 01ae 1307F00F 		li	a4,255
 307 01b2 23B8E782 		sd	a4,-2000(a5)
 122:../src/platform/mpfs_hal/common/mss_l2_cache.c ****     CACHE_CTRL->WAY_MASK_U54_1_DCACHE = LIBERO_SETTING_WAY_MASK_U54_1_DCACHE;
 308              		.loc 1 122 15
 309 01b6 37070102 		li	a4,33619968
 310              		.loc 1 122 39
 311 01ba 8567     		li	a5,4096
 312 01bc BA97     		add	a5,a4,a5
 313 01be 1307F00F 		li	a4,255
 314 01c2 23BCE782 		sd	a4,-1992(a5)
 123:../src/platform/mpfs_hal/common/mss_l2_cache.c ****     CACHE_CTRL->WAY_MASK_U54_1_ICACHE = LIBERO_SETTING_WAY_MASK_U54_1_ICACHE;
 315              		.loc 1 123 15
 316 01c6 37070102 		li	a4,33619968
 317              		.loc 1 123 39
 318 01ca 8567     		li	a5,4096
 319 01cc BA97     		add	a5,a4,a5
 320 01ce 1307F00F 		li	a4,255
 321 01d2 23B0E784 		sd	a4,-1984(a5)
 124:../src/platform/mpfs_hal/common/mss_l2_cache.c ****     CACHE_CTRL->WAY_MASK_U54_2_DCACHE = LIBERO_SETTING_WAY_MASK_U54_2_DCACHE;
 322              		.loc 1 124 15
 323 01d6 37070102 		li	a4,33619968
 324              		.loc 1 124 39
 325 01da 8567     		li	a5,4096
 326 01dc BA97     		add	a5,a4,a5
 327 01de 1307F00F 		li	a4,255
 328 01e2 23B4E784 		sd	a4,-1976(a5)
 125:../src/platform/mpfs_hal/common/mss_l2_cache.c ****     CACHE_CTRL->WAY_MASK_U54_2_ICACHE = LIBERO_SETTING_WAY_MASK_U54_2_ICACHE;
 329              		.loc 1 125 15
 330 01e6 37070102 		li	a4,33619968
 331              		.loc 1 125 39
 332 01ea 8567     		li	a5,4096
 333 01ec BA97     		add	a5,a4,a5
 334 01ee 1307F00F 		li	a4,255
 335 01f2 23B8E784 		sd	a4,-1968(a5)
 126:../src/platform/mpfs_hal/common/mss_l2_cache.c ****     CACHE_CTRL->WAY_MASK_U54_3_DCACHE = LIBERO_SETTING_WAY_MASK_U54_3_DCACHE;
 336              		.loc 1 126 15
 337 01f6 37070102 		li	a4,33619968
 338              		.loc 1 126 39
 339 01fa 8567     		li	a5,4096
 340 01fc BA97     		add	a5,a4,a5
 341 01fe 1307F00F 		li	a4,255
 342 0202 23BCE784 		sd	a4,-1960(a5)
 127:../src/platform/mpfs_hal/common/mss_l2_cache.c ****     CACHE_CTRL->WAY_MASK_U54_3_ICACHE = LIBERO_SETTING_WAY_MASK_U54_3_ICACHE;
 343              		.loc 1 127 15
 344 0206 37070102 		li	a4,33619968
 345              		.loc 1 127 39
 346 020a 8567     		li	a5,4096
 347 020c BA97     		add	a5,a4,a5
 348 020e 1307F00F 		li	a4,255
 349 0212 23B0E786 		sd	a4,-1952(a5)
 128:../src/platform/mpfs_hal/common/mss_l2_cache.c ****     CACHE_CTRL->WAY_MASK_U54_4_DCACHE = LIBERO_SETTING_WAY_MASK_U54_4_DCACHE;
 350              		.loc 1 128 15
 351 0216 37070102 		li	a4,33619968
 352              		.loc 1 128 39
 353 021a 8567     		li	a5,4096
 354 021c BA97     		add	a5,a4,a5
 355 021e 1307F00F 		li	a4,255
 356 0222 23B4E786 		sd	a4,-1944(a5)
 129:../src/platform/mpfs_hal/common/mss_l2_cache.c ****     CACHE_CTRL->WAY_MASK_U54_4_ICACHE = LIBERO_SETTING_WAY_MASK_U54_4_ICACHE;
 357              		.loc 1 129 15
 358 0226 37070102 		li	a4,33619968
 359              		.loc 1 129 39
 360 022a 8567     		li	a5,4096
 361 022c BA97     		add	a5,a4,a5
 362 022e 1307F00F 		li	a4,255
 363 0232 23B8E786 		sd	a4,-1936(a5)
 130:../src/platform/mpfs_hal/common/mss_l2_cache.c **** 
 131:../src/platform/mpfs_hal/common/mss_l2_cache.c **** #if (LIBERO_SETTING_NUM_SCRATCH_PAD_WAYS != 0)
 132:../src/platform/mpfs_hal/common/mss_l2_cache.c ****     /*
 133:../src/platform/mpfs_hal/common/mss_l2_cache.c ****      * Assign ways to Zero Device
 134:../src/platform/mpfs_hal/common/mss_l2_cache.c ****      */
 135:../src/platform/mpfs_hal/common/mss_l2_cache.c ****     uint64_t * p_scratchpad = (uint64_t *)ZERO_DEVICE_BOTTOM;
 364              		.loc 1 135 16
 365 0236 B707000A 		li	a5,167772160
 366 023a 2330F4FE 		sd	a5,-32(s0)
 136:../src/platform/mpfs_hal/common/mss_l2_cache.c ****     uint32_t ways_inc;
 137:../src/platform/mpfs_hal/common/mss_l2_cache.c ****     uint64_t current_way = 0x1U << (((LIBERO_SETTING_WAY_ENABLE + 1U) - LIBERO_SETTING_NUM_SCRATCH_
 367              		.loc 1 137 14
 368 023e 93070010 		li	a5,256
 369 0242 2338F4FC 		sd	a5,-48(s0)
 138:../src/platform/mpfs_hal/common/mss_l2_cache.c ****     for(ways_inc = 0; ways_inc < LIBERO_SETTING_NUM_SCRATCH_PAD_WAYS; ++ways_inc)
 370              		.loc 1 138 18
 371 0246 232E04FC 		sw	zero,-36(s0)
 372              		.loc 1 138 5
 373 024a 85A8     		j	.L20
 374              	.L23:
 139:../src/platform/mpfs_hal/common/mss_l2_cache.c ****     {
 140:../src/platform/mpfs_hal/common/mss_l2_cache.c ****         /*
 141:../src/platform/mpfs_hal/common/mss_l2_cache.c ****          * Populate the scratchpad memory one way at a time.
 142:../src/platform/mpfs_hal/common/mss_l2_cache.c ****          */
 143:../src/platform/mpfs_hal/common/mss_l2_cache.c ****         CACHE_CTRL->WAY_MASK_E51_DCACHE = current_way;
 375              		.loc 1 143 19
 376 024c 37070102 		li	a4,33619968
 377              		.loc 1 143 41
 378 0250 8567     		li	a5,4096
 379 0252 BA97     		add	a5,a4,a5
 380 0254 033704FD 		ld	a4,-48(s0)
 381 0258 23B4E782 		sd	a4,-2008(a5)
 144:../src/platform/mpfs_hal/common/mss_l2_cache.c ****         mb();
 382              		.loc 1 144 9
 383              	 #APP
 384              	# 144 "../src/platform/mpfs_hal/common/mss_l2_cache.c" 1
 145              	        /*
 146:../src/platform/mpfs_hal/common/mss_l2_cache.c ****          * Write to the first 64-bit location of each cache block.
 147:../src/platform/mpfs_hal/common/mss_l2_cache.c ****          */
 148:../src/platform/mpfs_hal/common/mss_l2_cache.c ****         for(inc = 0; inc < (WAY_BYTE_LENGTH / CACHE_BLOCK_BYTE_LENGTH); ++inc)
 385              		fence
 386              	# 0 "" 2
 387              		.loc 1 148 17
 388              	 #NO_APP
 389 0260 232404FE 		sw	zero,-24(s0)
 390              		.loc 1 148 9
 391 0264 3DA0     		j	.L21
 392              	.L22:
 149:../src/platform/mpfs_hal/common/mss_l2_cache.c ****         {
 150:../src/platform/mpfs_hal/common/mss_l2_cache.c ****             *p_scratchpad = g_init_marker + inc;
 393              		.loc 1 150 43 discriminator 3
 394 0266 036784FE 		lwu	a4,-24(s0)
 395 026a 97070000 		lla	a5,.LC0
 395      93870700 
 396 0272 9C63     		ld	a5,0(a5)
 397 0274 3E97     		add	a4,a4,a5
 398              		.loc 1 150 27 discriminator 3
 399 0276 833704FE 		ld	a5,-32(s0)
 400 027a 98E3     		sd	a4,0(a5)
 151:../src/platform/mpfs_hal/common/mss_l2_cache.c ****             p_scratchpad += CACHE_BLOCK_BYTE_LENGTH / UINT64_BYTE_LENGTH;
 401              		.loc 1 151 26 discriminator 3
 402 027c 833704FE 		ld	a5,-32(s0)
 403 0280 93870704 		addi	a5,a5,64
 404 0284 2330F4FE 		sd	a5,-32(s0)
 148:../src/platform/mpfs_hal/common/mss_l2_cache.c ****         {
 405              		.loc 1 148 73 discriminator 3
 406 0288 832784FE 		lw	a5,-24(s0)
 407 028c 8527     		addiw	a5,a5,1
 408 028e 2324F4FE 		sw	a5,-24(s0)
 409              	.L21:
 148:../src/platform/mpfs_hal/common/mss_l2_cache.c ****         {
 410              		.loc 1 148 9 discriminator 1
 411 0292 832784FE 		lw	a5,-24(s0)
 412 0296 1B870700 		sext.w	a4,a5
 413 029a 9307F07F 		li	a5,2047
 414 029e E3F4E7FC 		bleu	a4,a5,.L22
 152:../src/platform/mpfs_hal/common/mss_l2_cache.c ****         }
 153:../src/platform/mpfs_hal/common/mss_l2_cache.c ****         current_way = current_way << 1U;
 415              		.loc 1 153 21 discriminator 2
 416 02a2 833704FD 		ld	a5,-48(s0)
 417 02a6 8607     		slli	a5,a5,1
 418 02a8 2338F4FC 		sd	a5,-48(s0)
 154:../src/platform/mpfs_hal/common/mss_l2_cache.c ****         mb();
 419              		.loc 1 154 9 discriminator 2
 420              	 #APP
 421              	# 154 "../src/platform/mpfs_hal/common/mss_l2_cache.c" 1
 155              	    }
 138:../src/platform/mpfs_hal/common/mss_l2_cache.c ****     {
 422              		fence
 423              	# 0 "" 2
 424              		.loc 1 138 71 discriminator 2
 425              	 #NO_APP
 426 02b0 8327C4FD 		lw	a5,-36(s0)
 427 02b4 8527     		addiw	a5,a5,1
 428 02b6 232EF4FC 		sw	a5,-36(s0)
 429              	.L20:
 138:../src/platform/mpfs_hal/common/mss_l2_cache.c ****     {
 430              		.loc 1 138 5 discriminator 1
 431 02ba 8327C4FD 		lw	a5,-36(s0)
 432 02be 1B870700 		sext.w	a4,a5
 433 02c2 8D47     		li	a5,3
 434 02c4 E3F4E7F8 		bleu	a4,a5,.L23
 156:../src/platform/mpfs_hal/common/mss_l2_cache.c **** #endif  /* (LIBERO_SETTING_NUM_SCRATCH_PAD_WAYS != 0) */
 157:../src/platform/mpfs_hal/common/mss_l2_cache.c ****     /*
 158:../src/platform/mpfs_hal/common/mss_l2_cache.c ****      * Prevent E51 from evicting from scratchpad ways.
 159:../src/platform/mpfs_hal/common/mss_l2_cache.c ****      */
 160:../src/platform/mpfs_hal/common/mss_l2_cache.c ****     CACHE_CTRL->WAY_MASK_E51_DCACHE = LIBERO_SETTING_WAY_MASK_E51_DCACHE;
 435              		.loc 1 160 15
 436 02c8 37070102 		li	a4,33619968
 437              		.loc 1 160 37
 438 02cc 8567     		li	a5,4096
 439 02ce BA97     		add	a5,a4,a5
 440 02d0 1307F00F 		li	a4,255
 441 02d4 23B4E782 		sd	a4,-2008(a5)
 161:../src/platform/mpfs_hal/common/mss_l2_cache.c ****     mb();
 442              		.loc 1 161 5
 443              	 #APP
 444              	# 161 "../src/platform/mpfs_hal/common/mss_l2_cache.c" 1
 162              	
 163:../src/platform/mpfs_hal/common/mss_l2_cache.c **** }
 445              		fence
 446              	# 0 "" 2
 447              		.loc 1 163 1
 448              	 #NO_APP
 449 02dc 0100     		nop
 450 02de E270     		ld	ra,56(sp)
 451              		.cfi_restore 1
 452 02e0 4274     		ld	s0,48(sp)
 453              		.cfi_restore 8
 454              		.cfi_def_cfa 2, 64
 455 02e2 2161     		addi	sp,sp,64
 456              		.cfi_def_cfa_offset 0
 457 02e4 8280     		jr	ra
 458              		.cfi_endproc
 459              	.LFE23:
 461              		.section	.text.check_config_l2_scratchpad,"ax",@progbits
 462              		.align	1
 464              	check_config_l2_scratchpad:
 465              	.LFB24:
 164:../src/platform/mpfs_hal/common/mss_l2_cache.c **** 
 165:../src/platform/mpfs_hal/common/mss_l2_cache.c **** 
 166:../src/platform/mpfs_hal/common/mss_l2_cache.c **** /*==============================================================================
 167:../src/platform/mpfs_hal/common/mss_l2_cache.c ****  * Configure the L2 scratchpad based on linker symbols:
 168:../src/platform/mpfs_hal/common/mss_l2_cache.c ****  *  __l2_scratchpad_vma_start
 169:../src/platform/mpfs_hal/common/mss_l2_cache.c ****  *  __l2_scratchpad_vma_end
 170:../src/platform/mpfs_hal/common/mss_l2_cache.c ****  *
 171:../src/platform/mpfs_hal/common/mss_l2_cache.c ****  *  These linker symbols specify the start address and length of the scratchpad.
 172:../src/platform/mpfs_hal/common/mss_l2_cache.c ****  *  The scratchpad must be located within the Zero Device memory range.
 173:../src/platform/mpfs_hal/common/mss_l2_cache.c ****  */
 174:../src/platform/mpfs_hal/common/mss_l2_cache.c **** static void check_config_l2_scratchpad(void)
 175:../src/platform/mpfs_hal/common/mss_l2_cache.c **** {
 466              		.loc 1 175 1
 467              		.cfi_startproc
 468 0000 7971     		addi	sp,sp,-48
 469              		.cfi_def_cfa_offset 48
 470 0002 22F4     		sd	s0,40(sp)
 471              		.cfi_offset 8, -8
 472 0004 0018     		addi	s0,sp,48
 473              		.cfi_def_cfa 8, 0
 176:../src/platform/mpfs_hal/common/mss_l2_cache.c ****     extern char __l2_scratchpad_vma_start;
 177:../src/platform/mpfs_hal/common/mss_l2_cache.c ****     extern char __l2_scratchpad_vma_end;
 178:../src/platform/mpfs_hal/common/mss_l2_cache.c **** 
 179:../src/platform/mpfs_hal/common/mss_l2_cache.c ****     uint8_t n_scratchpad_ways;
 180:../src/platform/mpfs_hal/common/mss_l2_cache.c ****     const uint64_t end = (const uint64_t)&__l2_scratchpad_vma_end;
 474              		.loc 1 180 20
 475 0006 97070000 		lla	a5,__l2_scratchpad_vma_end
 475      93870700 
 476 000e 2330F4FE 		sd	a5,-32(s0)
 181:../src/platform/mpfs_hal/common/mss_l2_cache.c ****     const uint64_t start = (const uint64_t)&__l2_scratchpad_vma_start;
 477              		.loc 1 181 20
 478 0012 97070000 		lla	a5,__l2_scratchpad_vma_start
 478      93870700 
 479 001a 233CF4FC 		sd	a5,-40(s0)
 182:../src/platform/mpfs_hal/common/mss_l2_cache.c ****     uint64_t modulo;
 183:../src/platform/mpfs_hal/common/mss_l2_cache.c **** 
 184:../src/platform/mpfs_hal/common/mss_l2_cache.c ****     ASSERT(start >= (uint64_t)ZERO_DEVICE_BOTTOM);
 480              		.loc 1 184 5
 481 001e 033784FD 		ld	a4,-40(s0)
 482 0022 B707000A 		li	a5,167772160
 483 0026 6373F700 		bgeu	a4,a5,.L25
 484              		.loc 1 184 5 is_stmt 0 discriminator 1
 485              	 #APP
 486              	# 184 "../src/platform/mpfs_hal/common/mss_l2_cache.c" 1
 185              	    ASSERT(end < (uint64_t)ZERO_DEVICE_TOP);
 487              		ebreak
 488              	# 0 "" 2
 489              	 #NO_APP
 490              	.L25:
 491              		.loc 1 185 5 is_stmt 1
 492 002c 033704FE 		ld	a4,-32(s0)
 493 0030 B707000C 		li	a5,201326592
 494 0034 6363F700 		bltu	a4,a5,.L26
 495              		.loc 1 185 5 is_stmt 0 discriminator 1
 496              	 #APP
 497              	# 185 "../src/platform/mpfs_hal/common/mss_l2_cache.c" 1
 186              	    ASSERT(end >= start);
 498              		ebreak
 499              	# 0 "" 2
 500              	 #NO_APP
 501              	.L26:
 502              		.loc 1 186 5 is_stmt 1
 503 003a 033704FE 		ld	a4,-32(s0)
 504 003e 833784FD 		ld	a5,-40(s0)
 505 0042 6373F700 		bgeu	a4,a5,.L27
 506              		.loc 1 186 5 is_stmt 0 discriminator 1
 507              	 #APP
 508              	# 186 "../src/platform/mpfs_hal/common/mss_l2_cache.c" 1
 187              	
 509              		ebreak
 510              	# 0 "" 2
 511              	 #NO_APP
 512              	.L27:
 188:../src/platform/mpfs_hal/common/mss_l2_cache.c ****     /*
 189:../src/platform/mpfs_hal/common/mss_l2_cache.c ****      * Figure out how many cache ways will be required from linker script
 190:../src/platform/mpfs_hal/common/mss_l2_cache.c ****      * symbols.
 191:../src/platform/mpfs_hal/common/mss_l2_cache.c ****      */
 192:../src/platform/mpfs_hal/common/mss_l2_cache.c ****     n_scratchpad_ways = (uint8_t)((end - start) / WAY_BYTE_LENGTH);
 513              		.loc 1 192 40 is_stmt 1
 514 0048 033704FE 		ld	a4,-32(s0)
 515 004c 833784FD 		ld	a5,-40(s0)
 516 0050 B307F740 		sub	a5,a4,a5
 517              		.loc 1 192 49
 518 0054 C583     		srli	a5,a5,17
 519              		.loc 1 192 23
 520 0056 A307F4FE 		sb	a5,-17(s0)
 193:../src/platform/mpfs_hal/common/mss_l2_cache.c ****     modulo = (end - start) % WAY_BYTE_LENGTH;
 521              		.loc 1 193 19
 522 005a 033704FE 		ld	a4,-32(s0)
 523 005e 833784FD 		ld	a5,-40(s0)
 524 0062 1D8F     		sub	a4,a4,a5
 525              		.loc 1 193 12
 526 0064 B7070200 		li	a5,131072
 527 0068 FD17     		addi	a5,a5,-1
 528 006a F98F     		and	a5,a4,a5
 529 006c 2338F4FC 		sd	a5,-48(s0)
 194:../src/platform/mpfs_hal/common/mss_l2_cache.c ****     if(modulo > 0)
 530              		.loc 1 194 7
 531 0070 833704FD 		ld	a5,-48(s0)
 532 0074 91C7     		beq	a5,zero,.L28
 195:../src/platform/mpfs_hal/common/mss_l2_cache.c ****     {
 196:../src/platform/mpfs_hal/common/mss_l2_cache.c ****         ++n_scratchpad_ways;
 533              		.loc 1 196 9
 534 0076 8347F4FE 		lbu	a5,-17(s0)
 535 007a 8527     		addiw	a5,a5,1
 536 007c A307F4FE 		sb	a5,-17(s0)
 537              	.L28:
 197:../src/platform/mpfs_hal/common/mss_l2_cache.c ****     }
 198:../src/platform/mpfs_hal/common/mss_l2_cache.c **** 
 199:../src/platform/mpfs_hal/common/mss_l2_cache.c ****     ASSERT(LIBERO_SETTING_NUM_SCRATCH_PAD_WAYS >= n_scratchpad_ways);
 538              		.loc 1 199 5
 539 0080 8347F4FE 		lbu	a5,-17(s0)
 540 0084 13F7F70F 		andi	a4,a5,0xff
 541 0088 9147     		li	a5,4
 542 008a 63F3E700 		bleu	a4,a5,.L30
 543              		.loc 1 199 5 is_stmt 0 discriminator 1
 544              	 #APP
 545              	# 199 "../src/platform/mpfs_hal/common/mss_l2_cache.c" 1
 200              	}
 546              		ebreak
 547              	# 0 "" 2
 548              	 #NO_APP
 549              	.L30:
 550              		.loc 1 200 1 is_stmt 1
 551 0090 0100     		nop
 552 0092 2274     		ld	s0,40(sp)
 553              		.cfi_restore 8
 554              		.cfi_def_cfa 2, 48
 555 0094 4561     		addi	sp,sp,48
 556              		.cfi_def_cfa_offset 0
 557 0096 8280     		jr	ra
 558              		.cfi_endproc
 559              	.LFE24:
 561              		.section	.rodata
 562              		.align	3
 563              	.LC0:
 564 0000 000001C0 		.dword	-4539647396333682688
 564      BEEEFFC0 
 565              		.text
 566              	.Letext0:
 567              		.file 2 "/home/vinay/Desktop/soft_console/SoftConsole-v2022.2-RISC-V-747/riscv-unknown-elf-gcc/ris
 568              		.file 3 "/home/vinay/Desktop/soft_console/SoftConsole-v2022.2-RISC-V-747/riscv-unknown-elf-gcc/lib
 569              		.file 4 "/home/vinay/Desktop/soft_console/SoftConsole-v2022.2-RISC-V-747/riscv-unknown-elf-gcc/ris
 570              		.file 5 "/home/vinay/Desktop/soft_console/SoftConsole-v2022.2-RISC-V-747/riscv-unknown-elf-gcc/ris
 571              		.file 6 "/home/vinay/Desktop/soft_console/SoftConsole-v2022.2-RISC-V-747/riscv-unknown-elf-gcc/ris
 572              		.file 7 "/home/vinay/Desktop/soft_console/SoftConsole-v2022.2-RISC-V-747/riscv-unknown-elf-gcc/ris
 573              		.file 8 "/home/vinay/Desktop/softconsole_watershed/Water-shed/src/platform/mpfs_hal/common/nwc/../
 574              		.file 9 "/home/vinay/Desktop/softconsole_watershed/Water-shed/src/platform/mpfs_hal/common/nwc/mss
 575              		.file 10 "/home/vinay/Desktop/softconsole_watershed/Water-shed/src/platform/mpfs_hal/common/nwc/ms
 576              		.file 11 "/home/vinay/Desktop/softconsole_watershed/Water-shed/src/platform/mpfs_hal/common/nwc/ms
 577              		.file 12 "/home/vinay/Desktop/softconsole_watershed/Water-shed/src/platform/mpfs_hal/common/mss_mp
 578              		.file 13 "/home/vinay/Desktop/softconsole_watershed/Water-shed/src/platform/mpfs_hal/common/mss_pl
 579              		.file 14 "/home/vinay/Desktop/softconsole_watershed/Water-shed/src/platform/mpfs_hal/common/mss_l2
 580              		.file 15 "/home/vinay/Desktop/softconsole_watershed/Water-shed/src/platform/mpfs_hal/startup_gcc/s