   1              		.file	"mss_mpu.c"
   2              		.option nopic
   3              		.attribute arch, "rv64i2p0_m2p0_a2p0_f2p0_d2p0_c2p0"
   4              		.attribute unaligned_access, 0
   5              		.attribute stack_align, 16
   6              		.text
   7              	.Ltext0:
   8              		.cfi_sections	.debug_frame
   9              		.globl	num_pmp_lut
  10              		.section	.data.num_pmp_lut,"aw"
  11              		.align	3
  14              	num_pmp_lut:
  15 0000 10       		.byte	16
  16 0001 10       		.byte	16
  17 0002 08       		.byte	8
  18 0003 04       		.byte	4
  19 0004 08       		.byte	8
  20 0005 08       		.byte	8
  21 0006 04       		.byte	4
  22 0007 04       		.byte	4
  23 0008 08       		.byte	8
  24 0009 02       		.byte	2
  25              		.globl	mpu_fic0_values
  26              		.section	.rodata.mpu_fic0_values,"a"
  27              		.align	3
  30              	mpu_fic0_values:
  31 0000 FFFFFFFF 		.dword	2233785483895242751
  31      0F00001F 
  32 0008 FFFFFFFF 		.dword	2233785483895242751
  32      0F00001F 
  33 0010 FFFFFFFF 		.dword	2233785483895242751
  33      0F00001F 
  34 0018 FFFFFFFF 		.dword	2233785483895242751
  34      0F00001F 
  35 0020 FFFFFFFF 		.dword	2233785483895242751
  35      0F00001F 
  36 0028 FFFFFFFF 		.dword	2233785483895242751
  36      0F00001F 
  37 0030 FFFFFFFF 		.dword	2233785483895242751
  37      0F00001F 
  38 0038 FFFFFFFF 		.dword	2233785483895242751
  38      0F00001F 
  39 0040 FFFFFFFF 		.dword	2233785483895242751
  39      0F00001F 
  40 0048 FFFFFFFF 		.dword	2233785483895242751
  40      0F00001F 
  41 0050 FFFFFFFF 		.dword	2233785483895242751
  41      0F00001F 
  42 0058 FFFFFFFF 		.dword	2233785483895242751
  42      0F00001F 
  43 0060 FFFFFFFF 		.dword	2233785483895242751
  43      0F00001F 
  44 0068 FFFFFFFF 		.dword	2233785483895242751
  44      0F00001F 
  45 0070 FFFFFFFF 		.dword	2233785483895242751
  45      0F00001F 
  46 0078 FFFFFFFF 		.dword	2233785483895242751
  46      0F00001F 
  47              		.globl	mpu_fic1_values
  48              		.section	.rodata.mpu_fic1_values,"a"
  49              		.align	3
  52              	mpu_fic1_values:
  53 0000 FFFFFFFF 		.dword	2233785483895242751
  53      0F00001F 
  54 0008 FFFFFFFF 		.dword	2233785483895242751
  54      0F00001F 
  55 0010 FFFFFFFF 		.dword	2233785483895242751
  55      0F00001F 
  56 0018 FFFFFFFF 		.dword	2233785483895242751
  56      0F00001F 
  57 0020 FFFFFFFF 		.dword	2233785483895242751
  57      0F00001F 
  58 0028 FFFFFFFF 		.dword	2233785483895242751
  58      0F00001F 
  59 0030 FFFFFFFF 		.dword	2233785483895242751
  59      0F00001F 
  60 0038 FFFFFFFF 		.dword	2233785483895242751
  60      0F00001F 
  61 0040 FFFFFFFF 		.dword	2233785483895242751
  61      0F00001F 
  62 0048 FFFFFFFF 		.dword	2233785483895242751
  62      0F00001F 
  63 0050 FFFFFFFF 		.dword	2233785483895242751
  63      0F00001F 
  64 0058 FFFFFFFF 		.dword	2233785483895242751
  64      0F00001F 
  65 0060 FFFFFFFF 		.dword	2233785483895242751
  65      0F00001F 
  66 0068 FFFFFFFF 		.dword	2233785483895242751
  66      0F00001F 
  67 0070 FFFFFFFF 		.dword	2233785483895242751
  67      0F00001F 
  68 0078 FFFFFFFF 		.dword	2233785483895242751
  68      0F00001F 
  69              		.globl	mpu_fic2_values
  70              		.section	.rodata.mpu_fic2_values,"a"
  71              		.align	3
  74              	mpu_fic2_values:
  75 0000 FFFFFFFF 		.dword	2233785483895242751
  75      0F00001F 
  76 0008 FFFFFFFF 		.dword	2233785483895242751
  76      0F00001F 
  77 0010 FFFFFFFF 		.dword	2233785483895242751
  77      0F00001F 
  78 0018 FFFFFFFF 		.dword	2233785483895242751
  78      0F00001F 
  79 0020 FFFFFFFF 		.dword	2233785483895242751
  79      0F00001F 
  80 0028 FFFFFFFF 		.dword	2233785483895242751
  80      0F00001F 
  81 0030 FFFFFFFF 		.dword	2233785483895242751
  81      0F00001F 
  82 0038 FFFFFFFF 		.dword	2233785483895242751
  82      0F00001F 
  83              		.globl	mpu_crypto_values
  84              		.section	.rodata.mpu_crypto_values,"a"
  85              		.align	3
  88              	mpu_crypto_values:
  89 0000 FFFFFFFF 		.dword	2233785483895242751
  89      0F00001F 
  90 0008 FFFFFFFF 		.dword	2233785483895242751
  90      0F00001F 
  91 0010 FFFFFFFF 		.dword	2233785483895242751
  91      0F00001F 
  92 0018 FFFFFFFF 		.dword	2233785483895242751
  92      0F00001F 
  93              		.globl	mpu_gem0_values
  94              		.section	.rodata.mpu_gem0_values,"a"
  95              		.align	3
  98              	mpu_gem0_values:
  99 0000 FFFFFFFF 		.dword	2233785483895242751
  99      0F00001F 
 100 0008 FFFFFFFF 		.dword	2233785483895242751
 100      0F00001F 
 101 0010 FFFFFFFF 		.dword	2233785483895242751
 101      0F00001F 
 102 0018 FFFFFFFF 		.dword	2233785483895242751
 102      0F00001F 
 103 0020 FFFFFFFF 		.dword	2233785483895242751
 103      0F00001F 
 104 0028 FFFFFFFF 		.dword	2233785483895242751
 104      0F00001F 
 105 0030 FFFFFFFF 		.dword	2233785483895242751
 105      0F00001F 
 106 0038 FFFFFFFF 		.dword	2233785483895242751
 106      0F00001F 
 107              		.globl	mpu_gem1_values
 108              		.section	.rodata.mpu_gem1_values,"a"
 109              		.align	3
 112              	mpu_gem1_values:
 113 0000 FFFFFFFF 		.dword	2233785483895242751
 113      0F00001F 
 114 0008 FFFFFFFF 		.dword	2233785483895242751
 114      0F00001F 
 115 0010 FFFFFFFF 		.dword	2233785483895242751
 115      0F00001F 
 116 0018 FFFFFFFF 		.dword	2233785483895242751
 116      0F00001F 
 117 0020 FFFFFFFF 		.dword	2233785483895242751
 117      0F00001F 
 118 0028 FFFFFFFF 		.dword	2233785483895242751
 118      0F00001F 
 119 0030 FFFFFFFF 		.dword	2233785483895242751
 119      0F00001F 
 120 0038 FFFFFFFF 		.dword	2233785483895242751
 120      0F00001F 
 121              		.globl	mpu_mmc_values
 122              		.section	.rodata.mpu_mmc_values,"a"
 123              		.align	3
 126              	mpu_mmc_values:
 127 0000 FFFFFFFF 		.dword	2233785483895242751
 127      0F00001F 
 128 0008 FFFFFFFF 		.dword	2233785483895242751
 128      0F00001F 
 129 0010 FFFFFFFF 		.dword	2233785483895242751
 129      0F00001F 
 130 0018 FFFFFFFF 		.dword	2233785483895242751
 130      0F00001F 
 131              		.globl	mpu_scb_values
 132              		.section	.rodata.mpu_scb_values,"a"
 133              		.align	3
 136              	mpu_scb_values:
 137 0000 FFFFFFFF 		.dword	2233785483895242751
 137      0F00001F 
 138 0008 FFFFFFFF 		.dword	2233785483895242751
 138      0F00001F 
 139 0010 FFFFFFFF 		.dword	2233785483895242751
 139      0F00001F 
 140 0018 FFFFFFFF 		.dword	2233785483895242751
 140      0F00001F 
 141 0020 FFFFFFFF 		.dword	2233785483895242751
 141      0F00001F 
 142 0028 FFFFFFFF 		.dword	2233785483895242751
 142      0F00001F 
 143 0030 FFFFFFFF 		.dword	2233785483895242751
 143      0F00001F 
 144 0038 FFFFFFFF 		.dword	2233785483895242751
 144      0F00001F 
 145              		.globl	mpu_usb_values
 146              		.section	.rodata.mpu_usb_values,"a"
 147              		.align	3
 150              	mpu_usb_values:
 151 0000 FFFFFFFF 		.dword	2233785483895242751
 151      0F00001F 
 152 0008 FFFFFFFF 		.dword	2233785483895242751
 152      0F00001F 
 153 0010 FFFFFFFF 		.dword	2233785483895242751
 153      0F00001F 
 154 0018 FFFFFFFF 		.dword	2233785483895242751
 154      0F00001F 
 155              		.globl	mpu_trace_values
 156              		.section	.rodata.mpu_trace_values,"a"
 157              		.align	3
 160              	mpu_trace_values:
 161 0000 FFFFFFFF 		.dword	2233785483895242751
 161      0F00001F 
 162 0008 FFFFFFFF 		.dword	2233785483895242751
 162      0F00001F 
 163              		.section	.text.mpu_configure,"ax",@progbits
 164              		.align	1
 165              		.globl	mpu_configure
 167              	mpu_configure:
 168              	.LFB23:
 169              		.file 1 "../src/platform/mpfs_hal/common/mss_mpu.c"
   1:../src/platform/mpfs_hal/common/mss_mpu.c **** /*******************************************************************************
   2:../src/platform/mpfs_hal/common/mss_mpu.c ****  * Copyright 2019-2022 Microchip FPGA Embedded Systems Solutions.
   3:../src/platform/mpfs_hal/common/mss_mpu.c ****  *
   4:../src/platform/mpfs_hal/common/mss_mpu.c ****  * SPDX-License-Identifier: MIT
   5:../src/platform/mpfs_hal/common/mss_mpu.c ****  *
   6:../src/platform/mpfs_hal/common/mss_mpu.c ****  * MPFS HAL Embedded Software
   7:../src/platform/mpfs_hal/common/mss_mpu.c ****  *
   8:../src/platform/mpfs_hal/common/mss_mpu.c ****  */
   9:../src/platform/mpfs_hal/common/mss_mpu.c **** /*******************************************************************************
  10:../src/platform/mpfs_hal/common/mss_mpu.c ****  * @file mss_mpu.c
  11:../src/platform/mpfs_hal/common/mss_mpu.c ****  * @author Microchip-FPGA Embedded Systems Solutions
  12:../src/platform/mpfs_hal/common/mss_mpu.c ****  * @brief PolarFire SoC MSS MPU driver for configuring access regions for the
  13:../src/platform/mpfs_hal/common/mss_mpu.c ****  * external masters.
  14:../src/platform/mpfs_hal/common/mss_mpu.c ****  *
  15:../src/platform/mpfs_hal/common/mss_mpu.c ****  */
  16:../src/platform/mpfs_hal/common/mss_mpu.c **** /*=========================================================================*//**
  17:../src/platform/mpfs_hal/common/mss_mpu.c **** 
  18:../src/platform/mpfs_hal/common/mss_mpu.c ****  *//*=========================================================================*/
  19:../src/platform/mpfs_hal/common/mss_mpu.c **** #include <stdio.h>
  20:../src/platform/mpfs_hal/common/mss_mpu.c **** #include <string.h>
  21:../src/platform/mpfs_hal/common/mss_mpu.c **** #include "mpfs_hal/mss_hal.h"
  22:../src/platform/mpfs_hal/common/mss_mpu.c **** 
  23:../src/platform/mpfs_hal/common/mss_mpu.c **** static uint64_t pmp_get_napot_base_and_range(uint64_t reg, uint64_t *range);
  24:../src/platform/mpfs_hal/common/mss_mpu.c **** 
  25:../src/platform/mpfs_hal/common/mss_mpu.c **** uint8_t num_pmp_lut[10U] = {16U,16U,8U,4U,8U,8U,4U,4U,8U,2U};
  26:../src/platform/mpfs_hal/common/mss_mpu.c **** 
  27:../src/platform/mpfs_hal/common/mss_mpu.c **** /**
  28:../src/platform/mpfs_hal/common/mss_mpu.c ****  * \brief MPU configuration from Libero for FIC0
  29:../src/platform/mpfs_hal/common/mss_mpu.c ****  *
  30:../src/platform/mpfs_hal/common/mss_mpu.c ****  */
  31:../src/platform/mpfs_hal/common/mss_mpu.c **** const uint64_t    mpu_fic0_values[] = {
  32:../src/platform/mpfs_hal/common/mss_mpu.c ****     LIBERO_SETTING_FIC0_MPU_CFG_PMP0,
  33:../src/platform/mpfs_hal/common/mss_mpu.c ****     LIBERO_SETTING_FIC0_MPU_CFG_PMP1,
  34:../src/platform/mpfs_hal/common/mss_mpu.c ****     LIBERO_SETTING_FIC0_MPU_CFG_PMP2,
  35:../src/platform/mpfs_hal/common/mss_mpu.c ****     LIBERO_SETTING_FIC0_MPU_CFG_PMP3,
  36:../src/platform/mpfs_hal/common/mss_mpu.c ****     LIBERO_SETTING_FIC0_MPU_CFG_PMP4,
  37:../src/platform/mpfs_hal/common/mss_mpu.c ****     LIBERO_SETTING_FIC0_MPU_CFG_PMP5,
  38:../src/platform/mpfs_hal/common/mss_mpu.c ****     LIBERO_SETTING_FIC0_MPU_CFG_PMP6,
  39:../src/platform/mpfs_hal/common/mss_mpu.c ****     LIBERO_SETTING_FIC0_MPU_CFG_PMP7,
  40:../src/platform/mpfs_hal/common/mss_mpu.c ****     LIBERO_SETTING_FIC0_MPU_CFG_PMP8,
  41:../src/platform/mpfs_hal/common/mss_mpu.c ****     LIBERO_SETTING_FIC0_MPU_CFG_PMP9,
  42:../src/platform/mpfs_hal/common/mss_mpu.c ****     LIBERO_SETTING_FIC0_MPU_CFG_PMP10,
  43:../src/platform/mpfs_hal/common/mss_mpu.c ****     LIBERO_SETTING_FIC0_MPU_CFG_PMP11,
  44:../src/platform/mpfs_hal/common/mss_mpu.c ****     LIBERO_SETTING_FIC0_MPU_CFG_PMP12,
  45:../src/platform/mpfs_hal/common/mss_mpu.c ****     LIBERO_SETTING_FIC0_MPU_CFG_PMP13,
  46:../src/platform/mpfs_hal/common/mss_mpu.c ****     LIBERO_SETTING_FIC0_MPU_CFG_PMP14,
  47:../src/platform/mpfs_hal/common/mss_mpu.c ****     LIBERO_SETTING_FIC0_MPU_CFG_PMP15
  48:../src/platform/mpfs_hal/common/mss_mpu.c **** };
  49:../src/platform/mpfs_hal/common/mss_mpu.c **** 
  50:../src/platform/mpfs_hal/common/mss_mpu.c **** /**
  51:../src/platform/mpfs_hal/common/mss_mpu.c ****  * \brief MPU configuration from Libero for FIC1
  52:../src/platform/mpfs_hal/common/mss_mpu.c ****  *
  53:../src/platform/mpfs_hal/common/mss_mpu.c ****  */
  54:../src/platform/mpfs_hal/common/mss_mpu.c **** const uint64_t    mpu_fic1_values[] = {
  55:../src/platform/mpfs_hal/common/mss_mpu.c ****     LIBERO_SETTING_FIC1_MPU_CFG_PMP0,
  56:../src/platform/mpfs_hal/common/mss_mpu.c ****     LIBERO_SETTING_FIC1_MPU_CFG_PMP1,
  57:../src/platform/mpfs_hal/common/mss_mpu.c ****     LIBERO_SETTING_FIC1_MPU_CFG_PMP2,
  58:../src/platform/mpfs_hal/common/mss_mpu.c ****     LIBERO_SETTING_FIC1_MPU_CFG_PMP3,
  59:../src/platform/mpfs_hal/common/mss_mpu.c ****     LIBERO_SETTING_FIC1_MPU_CFG_PMP4,
  60:../src/platform/mpfs_hal/common/mss_mpu.c ****     LIBERO_SETTING_FIC1_MPU_CFG_PMP5,
  61:../src/platform/mpfs_hal/common/mss_mpu.c ****     LIBERO_SETTING_FIC1_MPU_CFG_PMP6,
  62:../src/platform/mpfs_hal/common/mss_mpu.c ****     LIBERO_SETTING_FIC1_MPU_CFG_PMP7,
  63:../src/platform/mpfs_hal/common/mss_mpu.c ****     LIBERO_SETTING_FIC1_MPU_CFG_PMP8,
  64:../src/platform/mpfs_hal/common/mss_mpu.c ****     LIBERO_SETTING_FIC1_MPU_CFG_PMP9,
  65:../src/platform/mpfs_hal/common/mss_mpu.c ****     LIBERO_SETTING_FIC1_MPU_CFG_PMP10,
  66:../src/platform/mpfs_hal/common/mss_mpu.c ****     LIBERO_SETTING_FIC1_MPU_CFG_PMP11,
  67:../src/platform/mpfs_hal/common/mss_mpu.c ****     LIBERO_SETTING_FIC1_MPU_CFG_PMP12,
  68:../src/platform/mpfs_hal/common/mss_mpu.c ****     LIBERO_SETTING_FIC1_MPU_CFG_PMP13,
  69:../src/platform/mpfs_hal/common/mss_mpu.c ****     LIBERO_SETTING_FIC1_MPU_CFG_PMP14,
  70:../src/platform/mpfs_hal/common/mss_mpu.c ****     LIBERO_SETTING_FIC1_MPU_CFG_PMP15
  71:../src/platform/mpfs_hal/common/mss_mpu.c **** };
  72:../src/platform/mpfs_hal/common/mss_mpu.c **** 
  73:../src/platform/mpfs_hal/common/mss_mpu.c **** /**
  74:../src/platform/mpfs_hal/common/mss_mpu.c ****  * \brief MPU configuration from Libero for FIC2
  75:../src/platform/mpfs_hal/common/mss_mpu.c ****  *
  76:../src/platform/mpfs_hal/common/mss_mpu.c ****  */
  77:../src/platform/mpfs_hal/common/mss_mpu.c **** const uint64_t    mpu_fic2_values[] = {
  78:../src/platform/mpfs_hal/common/mss_mpu.c ****     LIBERO_SETTING_FIC2_MPU_CFG_PMP0,
  79:../src/platform/mpfs_hal/common/mss_mpu.c ****     LIBERO_SETTING_FIC2_MPU_CFG_PMP1,
  80:../src/platform/mpfs_hal/common/mss_mpu.c ****     LIBERO_SETTING_FIC2_MPU_CFG_PMP2,
  81:../src/platform/mpfs_hal/common/mss_mpu.c ****     LIBERO_SETTING_FIC2_MPU_CFG_PMP3,
  82:../src/platform/mpfs_hal/common/mss_mpu.c ****     LIBERO_SETTING_FIC2_MPU_CFG_PMP4,
  83:../src/platform/mpfs_hal/common/mss_mpu.c ****     LIBERO_SETTING_FIC2_MPU_CFG_PMP5,
  84:../src/platform/mpfs_hal/common/mss_mpu.c ****     LIBERO_SETTING_FIC2_MPU_CFG_PMP6,
  85:../src/platform/mpfs_hal/common/mss_mpu.c ****     LIBERO_SETTING_FIC2_MPU_CFG_PMP7,
  86:../src/platform/mpfs_hal/common/mss_mpu.c **** };
  87:../src/platform/mpfs_hal/common/mss_mpu.c **** 
  88:../src/platform/mpfs_hal/common/mss_mpu.c **** /**
  89:../src/platform/mpfs_hal/common/mss_mpu.c ****  * \brief MPU configuration from Libero for ATHENA
  90:../src/platform/mpfs_hal/common/mss_mpu.c ****  *
  91:../src/platform/mpfs_hal/common/mss_mpu.c ****  */
  92:../src/platform/mpfs_hal/common/mss_mpu.c **** const uint64_t    mpu_crypto_values[] = {
  93:../src/platform/mpfs_hal/common/mss_mpu.c ****     LIBERO_SETTING_CRYPTO_MPU_CFG_PMP0,
  94:../src/platform/mpfs_hal/common/mss_mpu.c ****     LIBERO_SETTING_CRYPTO_MPU_CFG_PMP1,
  95:../src/platform/mpfs_hal/common/mss_mpu.c ****     LIBERO_SETTING_CRYPTO_MPU_CFG_PMP2,
  96:../src/platform/mpfs_hal/common/mss_mpu.c ****     LIBERO_SETTING_CRYPTO_MPU_CFG_PMP3,
  97:../src/platform/mpfs_hal/common/mss_mpu.c **** };
  98:../src/platform/mpfs_hal/common/mss_mpu.c **** 
  99:../src/platform/mpfs_hal/common/mss_mpu.c **** /**
 100:../src/platform/mpfs_hal/common/mss_mpu.c ****  * \brief MPU configuration from Libero for GEM0
 101:../src/platform/mpfs_hal/common/mss_mpu.c ****  *
 102:../src/platform/mpfs_hal/common/mss_mpu.c ****  */
 103:../src/platform/mpfs_hal/common/mss_mpu.c **** const uint64_t    mpu_gem0_values[] = {
 104:../src/platform/mpfs_hal/common/mss_mpu.c ****     LIBERO_SETTING_GEM0_MPU_CFG_PMP0,
 105:../src/platform/mpfs_hal/common/mss_mpu.c ****     LIBERO_SETTING_GEM0_MPU_CFG_PMP1,
 106:../src/platform/mpfs_hal/common/mss_mpu.c ****     LIBERO_SETTING_GEM0_MPU_CFG_PMP2,
 107:../src/platform/mpfs_hal/common/mss_mpu.c ****     LIBERO_SETTING_GEM0_MPU_CFG_PMP3,
 108:../src/platform/mpfs_hal/common/mss_mpu.c ****     LIBERO_SETTING_GEM0_MPU_CFG_PMP4,
 109:../src/platform/mpfs_hal/common/mss_mpu.c ****     LIBERO_SETTING_GEM0_MPU_CFG_PMP5,
 110:../src/platform/mpfs_hal/common/mss_mpu.c ****     LIBERO_SETTING_GEM0_MPU_CFG_PMP6,
 111:../src/platform/mpfs_hal/common/mss_mpu.c ****     LIBERO_SETTING_GEM0_MPU_CFG_PMP7,
 112:../src/platform/mpfs_hal/common/mss_mpu.c **** };
 113:../src/platform/mpfs_hal/common/mss_mpu.c **** 
 114:../src/platform/mpfs_hal/common/mss_mpu.c **** /**
 115:../src/platform/mpfs_hal/common/mss_mpu.c ****  * \brief MPU configuration from Libero for GEM1
 116:../src/platform/mpfs_hal/common/mss_mpu.c ****  *
 117:../src/platform/mpfs_hal/common/mss_mpu.c ****  */
 118:../src/platform/mpfs_hal/common/mss_mpu.c **** const uint64_t    mpu_gem1_values[] = {
 119:../src/platform/mpfs_hal/common/mss_mpu.c ****     LIBERO_SETTING_GEM1_MPU_CFG_PMP0,
 120:../src/platform/mpfs_hal/common/mss_mpu.c ****     LIBERO_SETTING_GEM1_MPU_CFG_PMP1,
 121:../src/platform/mpfs_hal/common/mss_mpu.c ****     LIBERO_SETTING_GEM1_MPU_CFG_PMP2,
 122:../src/platform/mpfs_hal/common/mss_mpu.c ****     LIBERO_SETTING_GEM1_MPU_CFG_PMP3,
 123:../src/platform/mpfs_hal/common/mss_mpu.c ****     LIBERO_SETTING_GEM1_MPU_CFG_PMP4,
 124:../src/platform/mpfs_hal/common/mss_mpu.c ****     LIBERO_SETTING_GEM1_MPU_CFG_PMP5,
 125:../src/platform/mpfs_hal/common/mss_mpu.c ****     LIBERO_SETTING_GEM1_MPU_CFG_PMP6,
 126:../src/platform/mpfs_hal/common/mss_mpu.c ****     LIBERO_SETTING_GEM1_MPU_CFG_PMP7,
 127:../src/platform/mpfs_hal/common/mss_mpu.c **** };
 128:../src/platform/mpfs_hal/common/mss_mpu.c **** 
 129:../src/platform/mpfs_hal/common/mss_mpu.c **** /**
 130:../src/platform/mpfs_hal/common/mss_mpu.c ****  * \brief MPU configuration from Libero for MMC
 131:../src/platform/mpfs_hal/common/mss_mpu.c ****  *
 132:../src/platform/mpfs_hal/common/mss_mpu.c ****  */
 133:../src/platform/mpfs_hal/common/mss_mpu.c **** const uint64_t    mpu_mmc_values[] = {
 134:../src/platform/mpfs_hal/common/mss_mpu.c ****     LIBERO_SETTING_MMC_MPU_CFG_PMP0,
 135:../src/platform/mpfs_hal/common/mss_mpu.c ****     LIBERO_SETTING_MMC_MPU_CFG_PMP1,
 136:../src/platform/mpfs_hal/common/mss_mpu.c ****     LIBERO_SETTING_MMC_MPU_CFG_PMP2,
 137:../src/platform/mpfs_hal/common/mss_mpu.c ****     LIBERO_SETTING_MMC_MPU_CFG_PMP3,
 138:../src/platform/mpfs_hal/common/mss_mpu.c **** };
 139:../src/platform/mpfs_hal/common/mss_mpu.c **** 
 140:../src/platform/mpfs_hal/common/mss_mpu.c **** /**
 141:../src/platform/mpfs_hal/common/mss_mpu.c ****  * \brief MPU configuration from Libero for SCB
 142:../src/platform/mpfs_hal/common/mss_mpu.c ****  *
 143:../src/platform/mpfs_hal/common/mss_mpu.c ****  */
 144:../src/platform/mpfs_hal/common/mss_mpu.c **** const uint64_t    mpu_scb_values[] = {
 145:../src/platform/mpfs_hal/common/mss_mpu.c ****     LIBERO_SETTING_SCB_MPU_CFG_PMP0,
 146:../src/platform/mpfs_hal/common/mss_mpu.c ****     LIBERO_SETTING_SCB_MPU_CFG_PMP1,
 147:../src/platform/mpfs_hal/common/mss_mpu.c ****     LIBERO_SETTING_SCB_MPU_CFG_PMP2,
 148:../src/platform/mpfs_hal/common/mss_mpu.c ****     LIBERO_SETTING_SCB_MPU_CFG_PMP3,
 149:../src/platform/mpfs_hal/common/mss_mpu.c ****     LIBERO_SETTING_SCB_MPU_CFG_PMP4,
 150:../src/platform/mpfs_hal/common/mss_mpu.c ****     LIBERO_SETTING_SCB_MPU_CFG_PMP5,
 151:../src/platform/mpfs_hal/common/mss_mpu.c ****     LIBERO_SETTING_SCB_MPU_CFG_PMP6,
 152:../src/platform/mpfs_hal/common/mss_mpu.c ****     LIBERO_SETTING_SCB_MPU_CFG_PMP7,
 153:../src/platform/mpfs_hal/common/mss_mpu.c **** };
 154:../src/platform/mpfs_hal/common/mss_mpu.c **** 
 155:../src/platform/mpfs_hal/common/mss_mpu.c **** /**
 156:../src/platform/mpfs_hal/common/mss_mpu.c ****  * \brief MPU configuration from Libero for USB
 157:../src/platform/mpfs_hal/common/mss_mpu.c ****  *
 158:../src/platform/mpfs_hal/common/mss_mpu.c ****  */
 159:../src/platform/mpfs_hal/common/mss_mpu.c **** const uint64_t    mpu_usb_values[] = {
 160:../src/platform/mpfs_hal/common/mss_mpu.c ****     LIBERO_SETTING_USB_MPU_CFG_PMP0,
 161:../src/platform/mpfs_hal/common/mss_mpu.c ****     LIBERO_SETTING_USB_MPU_CFG_PMP1,
 162:../src/platform/mpfs_hal/common/mss_mpu.c ****     LIBERO_SETTING_USB_MPU_CFG_PMP2,
 163:../src/platform/mpfs_hal/common/mss_mpu.c ****     LIBERO_SETTING_USB_MPU_CFG_PMP3,
 164:../src/platform/mpfs_hal/common/mss_mpu.c **** };
 165:../src/platform/mpfs_hal/common/mss_mpu.c **** 
 166:../src/platform/mpfs_hal/common/mss_mpu.c **** /**
 167:../src/platform/mpfs_hal/common/mss_mpu.c ****  * \brief MPU configuration from Libero for TRACE
 168:../src/platform/mpfs_hal/common/mss_mpu.c ****  *
 169:../src/platform/mpfs_hal/common/mss_mpu.c ****  */
 170:../src/platform/mpfs_hal/common/mss_mpu.c **** const uint64_t    mpu_trace_values[] = {
 171:../src/platform/mpfs_hal/common/mss_mpu.c ****     LIBERO_SETTING_TRACE_MPU_CFG_PMP0,
 172:../src/platform/mpfs_hal/common/mss_mpu.c ****     LIBERO_SETTING_TRACE_MPU_CFG_PMP1,
 173:../src/platform/mpfs_hal/common/mss_mpu.c **** };
 174:../src/platform/mpfs_hal/common/mss_mpu.c **** 
 175:../src/platform/mpfs_hal/common/mss_mpu.c **** 
 176:../src/platform/mpfs_hal/common/mss_mpu.c **** /***************************************************************************//**
 177:../src/platform/mpfs_hal/common/mss_mpu.c ****  * MSS_MPU_auto_configure()
 178:../src/platform/mpfs_hal/common/mss_mpu.c ****  * Set MPU's up with configuration from Libero
 179:../src/platform/mpfs_hal/common/mss_mpu.c ****  *
 180:../src/platform/mpfs_hal/common/mss_mpu.c ****  *
 181:../src/platform/mpfs_hal/common/mss_mpu.c ****  * @return
 182:../src/platform/mpfs_hal/common/mss_mpu.c ****  */
 183:../src/platform/mpfs_hal/common/mss_mpu.c **** uint8_t mpu_configure(void)
 184:../src/platform/mpfs_hal/common/mss_mpu.c **** {
 170              		.loc 1 184 1
 171              		.cfi_startproc
 172 0000 4111     		addi	sp,sp,-16
 173              		.cfi_def_cfa_offset 16
 174 0002 06E4     		sd	ra,8(sp)
 175 0004 22E0     		sd	s0,0(sp)
 176              		.cfi_offset 1, -8
 177              		.cfi_offset 8, -16
 178 0006 0008     		addi	s0,sp,16
 179              		.cfi_def_cfa 8, 0
 185:../src/platform/mpfs_hal/common/mss_mpu.c ****     config_64_copy((void *)(&(MSS_MPU(MSS_MPU_FIC0)->PMPCFG)),
 180              		.loc 1 185 5
 181 0008 13060008 		li	a2,128
 182 000c 97050000 		lla	a1,mpu_fic0_values
 182      93850500 
 183 0014 37550020 		li	a0,536891392
 184 0018 97000000 		call	config_64_copy
 184      E7800000 
 186:../src/platform/mpfs_hal/common/mss_mpu.c ****                  &(mpu_fic0_values),
 187:../src/platform/mpfs_hal/common/mss_mpu.c ****                  sizeof(mpu_fic0_values));
 188:../src/platform/mpfs_hal/common/mss_mpu.c **** 
 189:../src/platform/mpfs_hal/common/mss_mpu.c ****     config_64_copy((void *)(&(MSS_MPU(MSS_MPU_FIC1)->PMPCFG)),
 185              		.loc 1 189 5
 186 0020 13060008 		li	a2,128
 187 0024 97050000 		lla	a1,mpu_fic1_values
 187      93850500 
 188 002c B7570020 		li	a5,536891392
 189 0030 13850710 		addi	a0,a5,256
 190 0034 97000000 		call	config_64_copy
 190      E7800000 
 190:../src/platform/mpfs_hal/common/mss_mpu.c ****                 &(mpu_fic1_values),
 191:../src/platform/mpfs_hal/common/mss_mpu.c ****                 sizeof(mpu_fic1_values));
 192:../src/platform/mpfs_hal/common/mss_mpu.c **** 
 193:../src/platform/mpfs_hal/common/mss_mpu.c ****     config_64_copy((void *)(&(MSS_MPU(MSS_MPU_FIC2)->PMPCFG)),
 191              		.loc 1 193 5
 192 003c 13060004 		li	a2,64
 193 0040 97050000 		lla	a1,mpu_fic2_values
 193      93850500 
 194 0048 B7570020 		li	a5,536891392
 195 004c 13850720 		addi	a0,a5,512
 196 0050 97000000 		call	config_64_copy
 196      E7800000 
 194:../src/platform/mpfs_hal/common/mss_mpu.c ****                 &(mpu_fic2_values),
 195:../src/platform/mpfs_hal/common/mss_mpu.c ****                 sizeof(mpu_fic2_values));
 196:../src/platform/mpfs_hal/common/mss_mpu.c **** 
 197:../src/platform/mpfs_hal/common/mss_mpu.c ****     config_64_copy((void *)(&(MSS_MPU(MSS_MPU_CRYPTO)->PMPCFG)),
 197              		.loc 1 197 5
 198 0058 13060002 		li	a2,32
 199 005c 97050000 		lla	a1,mpu_crypto_values
 199      93850500 
 200 0064 B7570020 		li	a5,536891392
 201 0068 13850730 		addi	a0,a5,768
 202 006c 97000000 		call	config_64_copy
 202      E7800000 
 198:../src/platform/mpfs_hal/common/mss_mpu.c ****                 &(mpu_crypto_values),
 199:../src/platform/mpfs_hal/common/mss_mpu.c ****                 sizeof(mpu_crypto_values));
 200:../src/platform/mpfs_hal/common/mss_mpu.c **** 
 201:../src/platform/mpfs_hal/common/mss_mpu.c ****     config_64_copy((void *)(&(MSS_MPU(MSS_MPU_GEM0)->PMPCFG)),
 203              		.loc 1 201 5
 204 0074 13060004 		li	a2,64
 205 0078 97050000 		lla	a1,mpu_gem0_values
 205      93850500 
 206 0080 B7570020 		li	a5,536891392
 207 0084 13850740 		addi	a0,a5,1024
 208 0088 97000000 		call	config_64_copy
 208      E7800000 
 202:../src/platform/mpfs_hal/common/mss_mpu.c ****                 &(mpu_gem0_values),
 203:../src/platform/mpfs_hal/common/mss_mpu.c ****                 sizeof(mpu_gem0_values));
 204:../src/platform/mpfs_hal/common/mss_mpu.c **** 
 205:../src/platform/mpfs_hal/common/mss_mpu.c ****     config_64_copy((void *)(&(MSS_MPU(MSS_MPU_GEM1)->PMPCFG)),
 209              		.loc 1 205 5
 210 0090 13060004 		li	a2,64
 211 0094 97050000 		lla	a1,mpu_gem1_values
 211      93850500 
 212 009c B7570020 		li	a5,536891392
 213 00a0 13850750 		addi	a0,a5,1280
 214 00a4 97000000 		call	config_64_copy
 214      E7800000 
 206:../src/platform/mpfs_hal/common/mss_mpu.c ****                 &(mpu_gem1_values),
 207:../src/platform/mpfs_hal/common/mss_mpu.c ****                 sizeof(mpu_gem1_values));
 208:../src/platform/mpfs_hal/common/mss_mpu.c **** 
 209:../src/platform/mpfs_hal/common/mss_mpu.c ****     config_64_copy((void *)(&(MSS_MPU(MSS_MPU_USB)->PMPCFG)),
 215              		.loc 1 209 5
 216 00ac 13060002 		li	a2,32
 217 00b0 97050000 		lla	a1,mpu_usb_values
 217      93850500 
 218 00b8 B7570020 		li	a5,536891392
 219 00bc 13850760 		addi	a0,a5,1536
 220 00c0 97000000 		call	config_64_copy
 220      E7800000 
 210:../src/platform/mpfs_hal/common/mss_mpu.c ****                 &(mpu_usb_values),
 211:../src/platform/mpfs_hal/common/mss_mpu.c ****                 sizeof(mpu_usb_values));
 212:../src/platform/mpfs_hal/common/mss_mpu.c **** 
 213:../src/platform/mpfs_hal/common/mss_mpu.c ****     config_64_copy((void *)(&(MSS_MPU(MSS_MPU_MMC)->PMPCFG)),
 221              		.loc 1 213 5
 222 00c8 13060002 		li	a2,32
 223 00cc 97050000 		lla	a1,mpu_mmc_values
 223      93850500 
 224 00d4 B7570020 		li	a5,536891392
 225 00d8 13850770 		addi	a0,a5,1792
 226 00dc 97000000 		call	config_64_copy
 226      E7800000 
 214:../src/platform/mpfs_hal/common/mss_mpu.c ****                 &(mpu_mmc_values),
 215:../src/platform/mpfs_hal/common/mss_mpu.c ****                 sizeof(mpu_mmc_values));
 216:../src/platform/mpfs_hal/common/mss_mpu.c **** 
 217:../src/platform/mpfs_hal/common/mss_mpu.c ****     config_64_copy((void *)(&(MSS_MPU(MSS_MPU_SCB)->PMPCFG)),
 227              		.loc 1 217 5
 228 00e4 13060004 		li	a2,64
 229 00e8 97050000 		lla	a1,mpu_scb_values
 229      93850500 
 230 00f0 B7670020 		li	a5,536895488
 231 00f4 13850780 		addi	a0,a5,-2048
 232 00f8 97000000 		call	config_64_copy
 232      E7800000 
 218:../src/platform/mpfs_hal/common/mss_mpu.c ****                 &(mpu_scb_values),
 219:../src/platform/mpfs_hal/common/mss_mpu.c ****                 sizeof(mpu_scb_values));
 220:../src/platform/mpfs_hal/common/mss_mpu.c **** 
 221:../src/platform/mpfs_hal/common/mss_mpu.c ****     config_64_copy((void *)(&(MSS_MPU(MSS_MPU_TRACE)->PMPCFG)),
 233              		.loc 1 221 5
 234 0100 4146     		li	a2,16
 235 0102 97050000 		lla	a1,mpu_trace_values
 235      93850500 
 236 010a B7670020 		li	a5,536895488
 237 010e 13850790 		addi	a0,a5,-1792
 238 0112 97000000 		call	config_64_copy
 238      E7800000 
 222:../src/platform/mpfs_hal/common/mss_mpu.c ****                 &(mpu_trace_values),
 223:../src/platform/mpfs_hal/common/mss_mpu.c ****                 sizeof(mpu_trace_values));
 224:../src/platform/mpfs_hal/common/mss_mpu.c **** 
 225:../src/platform/mpfs_hal/common/mss_mpu.c ****     return(0);
 239              		.loc 1 225 11
 240 011a 8147     		li	a5,0
 226:../src/platform/mpfs_hal/common/mss_mpu.c **** }
 241              		.loc 1 226 1
 242 011c 3E85     		mv	a0,a5
 243 011e A260     		ld	ra,8(sp)
 244              		.cfi_restore 1
 245 0120 0264     		ld	s0,0(sp)
 246              		.cfi_restore 8
 247              		.cfi_def_cfa 2, 16
 248 0122 4101     		addi	sp,sp,16
 249              		.cfi_def_cfa_offset 0
 250 0124 8280     		jr	ra
 251              		.cfi_endproc
 252              	.LFE23:
 254              		.section	.text.MSS_MPU_configure,"ax",@progbits
 255              		.align	1
 256              		.globl	MSS_MPU_configure
 258              	MSS_MPU_configure:
 259              	.LFB24:
 227:../src/platform/mpfs_hal/common/mss_mpu.c **** 
 228:../src/platform/mpfs_hal/common/mss_mpu.c **** 
 229:../src/platform/mpfs_hal/common/mss_mpu.c **** 
 230:../src/platform/mpfs_hal/common/mss_mpu.c **** 
 231:../src/platform/mpfs_hal/common/mss_mpu.c **** 
 232:../src/platform/mpfs_hal/common/mss_mpu.c **** /***************************************************************************//**
 233:../src/platform/mpfs_hal/common/mss_mpu.c **** */
 234:../src/platform/mpfs_hal/common/mss_mpu.c **** uint8_t MSS_MPU_configure(mss_mpu_mport_t master_port,
 235:../src/platform/mpfs_hal/common/mss_mpu.c ****                                         mss_mpu_pmp_region_t pmp_region,
 236:../src/platform/mpfs_hal/common/mss_mpu.c ****                                         uint64_t base,
 237:../src/platform/mpfs_hal/common/mss_mpu.c ****                                         uint64_t size,
 238:../src/platform/mpfs_hal/common/mss_mpu.c ****                                         uint8_t permission,
 239:../src/platform/mpfs_hal/common/mss_mpu.c ****                                         mss_mpu_addrm_t matching_mode,
 240:../src/platform/mpfs_hal/common/mss_mpu.c ****                                         uint8_t lock_en)
 241:../src/platform/mpfs_hal/common/mss_mpu.c **** {
 260              		.loc 1 241 1
 261              		.cfi_startproc
 262 0000 5D71     		addi	sp,sp,-80
 263              		.cfi_def_cfa_offset 80
 264 0002 A2E4     		sd	s0,72(sp)
 265              		.cfi_offset 8, -8
 266 0004 8008     		addi	s0,sp,80
 267              		.cfi_def_cfa 8, 0
 268 0006 2330C4FC 		sd	a2,-64(s0)
 269 000a 233CD4FA 		sd	a3,-72(s0)
 270 000e 3A86     		mv	a2,a4
 271 0010 BE86     		mv	a3,a5
 272 0012 4287     		mv	a4,a6
 273 0014 AA87     		mv	a5,a0
 274 0016 2326F4FC 		sw	a5,-52(s0)
 275 001a AE87     		mv	a5,a1
 276 001c 2324F4FC 		sw	a5,-56(s0)
 277 0020 B287     		mv	a5,a2
 278 0022 A30BF4FA 		sb	a5,-73(s0)
 279 0026 B687     		mv	a5,a3
 280 0028 2328F4FA 		sw	a5,-80(s0)
 281 002c BA87     		mv	a5,a4
 282 002e 230BF4FA 		sb	a5,-74(s0)
 242:../src/platform/mpfs_hal/common/mss_mpu.c ****     uint64_t temp = size, cnt=0ULL;
 283              		.loc 1 242 14
 284 0032 833784FB 		ld	a5,-72(s0)
 285 0036 2334F4FE 		sd	a5,-24(s0)
 286              		.loc 1 242 27
 287 003a 233004FE 		sd	zero,-32(s0)
 243:../src/platform/mpfs_hal/common/mss_mpu.c ****     uint64_t range;
 244:../src/platform/mpfs_hal/common/mss_mpu.c **** 
 245:../src/platform/mpfs_hal/common/mss_mpu.c ****     /*size must be minimum 4k
 246:../src/platform/mpfs_hal/common/mss_mpu.c ****       Size must be power of 2
 247:../src/platform/mpfs_hal/common/mss_mpu.c ****       different masters have different number of regions*/
 248:../src/platform/mpfs_hal/common/mss_mpu.c ****     if((size >= 4096ULL) && (0U == (size & (size - 1U))) && (pmp_region < num_pmp_lut[master_port])
 288              		.loc 1 248 7
 289 003e 033784FB 		ld	a4,-72(s0)
 290 0042 8567     		li	a5,4096
 291 0044 6363F710 		bltu	a4,a5,.L4
 292              		.loc 1 248 50 discriminator 1
 293 0048 833784FB 		ld	a5,-72(s0)
 294 004c 1387F7FF 		addi	a4,a5,-1
 295              		.loc 1 248 42 discriminator 1
 296 0050 833784FB 		ld	a5,-72(s0)
 297 0054 F98F     		and	a5,a4,a5
 298              		.loc 1 248 26 discriminator 1
 299 0056 F5EB     		bne	a5,zero,.L4
 300              		.loc 1 248 86 discriminator 2
 301 0058 17070000 		lla	a4,num_pmp_lut
 301      13070700 
 302 0060 8367C4FC 		lwu	a5,-52(s0)
 303 0064 BA97     		add	a5,a4,a5
 304 0066 83C70700 		lbu	a5,0(a5)
 305 006a 1B870700 		sext.w	a4,a5
 306              		.loc 1 248 58 discriminator 2
 307 006e 832784FC 		lw	a5,-56(s0)
 308 0072 8127     		sext.w	a5,a5
 309 0074 63FBE70C 		bgeu	a5,a4,.L4
 249:../src/platform/mpfs_hal/common/mss_mpu.c ****     {
 250:../src/platform/mpfs_hal/common/mss_mpu.c ****         while((0 == (temp & 0x01U)))
 310              		.loc 1 250 14
 311 0078 19A8     		j	.L5
 312              	.L6:
 251:../src/platform/mpfs_hal/common/mss_mpu.c ****         {
 252:../src/platform/mpfs_hal/common/mss_mpu.c ****             cnt++;
 313              		.loc 1 252 16
 314 007a 833704FE 		ld	a5,-32(s0)
 315 007e 8507     		addi	a5,a5,1
 316 0080 2330F4FE 		sd	a5,-32(s0)
 253:../src/platform/mpfs_hal/common/mss_mpu.c ****             temp >>= 1U;
 317              		.loc 1 253 18
 318 0084 833784FE 		ld	a5,-24(s0)
 319 0088 8583     		srli	a5,a5,1
 320 008a 2334F4FE 		sd	a5,-24(s0)
 321              	.L5:
 250:../src/platform/mpfs_hal/common/mss_mpu.c ****         {
 322              		.loc 1 250 27
 323 008e 833784FE 		ld	a5,-24(s0)
 324 0092 858B     		andi	a5,a5,1
 250:../src/platform/mpfs_hal/common/mss_mpu.c ****         {
 325              		.loc 1 250 14
 326 0094 FDD3     		beq	a5,zero,.L6
 254:../src/platform/mpfs_hal/common/mss_mpu.c ****         }
 255:../src/platform/mpfs_hal/common/mss_mpu.c **** 
 256:../src/platform/mpfs_hal/common/mss_mpu.c ****         range = (1ULL << (cnt-1U))-1U;
 327              		.loc 1 256 30
 328 0096 833704FE 		ld	a5,-32(s0)
 329 009a 8127     		sext.w	a5,a5
 330 009c FD37     		addiw	a5,a5,-1
 331 009e 8127     		sext.w	a5,a5
 332              		.loc 1 256 23
 333 00a0 3E87     		mv	a4,a5
 334 00a2 8547     		li	a5,1
 335 00a4 B397E700 		sll	a5,a5,a4
 336              		.loc 1 256 15
 337 00a8 FD17     		addi	a5,a5,-1
 338 00aa 233CF4FC 		sd	a5,-40(s0)
 257:../src/platform/mpfs_hal/common/mss_mpu.c **** 
 258:../src/platform/mpfs_hal/common/mss_mpu.c ****         MSS_MPU(master_port)->PMPCFG[pmp_region].raw = (base | range) >> 2U;
 339              		.loc 1 258 62
 340 00ae 033704FC 		ld	a4,-64(s0)
 341 00b2 833784FD 		ld	a5,-40(s0)
 342 00b6 D98F     		or	a5,a4,a5
 343              		.loc 1 258 9
 344 00b8 0327C4FC 		lw	a4,-52(s0)
 345 00bc 1B178700 		slliw	a4,a4,8
 346 00c0 0127     		sext.w	a4,a4
 347 00c2 93160702 		slli	a3,a4,32
 348 00c6 8192     		srli	a3,a3,32
 349 00c8 37570020 		li	a4,536891392
 350 00cc 3697     		add	a4,a3,a4
 351 00ce BA86     		mv	a3,a4
 352              		.loc 1 258 71
 353 00d0 13D72700 		srli	a4,a5,2
 354              		.loc 1 258 54
 355 00d4 836784FC 		lwu	a5,-56(s0)
 356 00d8 8E07     		slli	a5,a5,3
 357 00da B697     		add	a5,a3,a5
 358 00dc 98E3     		sd	a4,0(a5)
 259:../src/platform/mpfs_hal/common/mss_mpu.c **** 
 260:../src/platform/mpfs_hal/common/mss_mpu.c ****         MSS_MPU(master_port)->PMPCFG[pmp_region].MPUCFG_TypeDef.mode = (uint8_t)(permission |
 261:../src/platform/mpfs_hal/common/mss_mpu.c ****                                               (uint8_t)(matching_mode << 3U) |
 359              		.loc 1 261 47
 360 00de 832704FB 		lw	a5,-80(s0)
 361 00e2 93F7F70F 		andi	a5,a5,0xff
 362 00e6 9B973700 		slliw	a5,a5,3
 363 00ea 13F7F70F 		andi	a4,a5,0xff
 364              		.loc 1 261 78
 365 00ee 834774FB 		lbu	a5,-73(s0)
 366 00f2 D98F     		or	a5,a4,a5
 367 00f4 93F7F70F 		andi	a5,a5,0xff
 368 00f8 1B978701 		slliw	a4,a5,24
 369 00fc 1B578741 		sraiw	a4,a4,24
 262:../src/platform/mpfs_hal/common/mss_mpu.c ****                                                         (lock_en << 0x7U));
 370              		.loc 1 262 66
 371 0100 834764FB 		lbu	a5,-74(s0)
 372 0104 8127     		sext.w	a5,a5
 373 0106 9B977700 		slliw	a5,a5,7
 374 010a 8127     		sext.w	a5,a5
 261:../src/platform/mpfs_hal/common/mss_mpu.c ****                                                         (lock_en << 0x7U));
 375              		.loc 1 261 78
 376 010c 9B978701 		slliw	a5,a5,24
 377 0110 9BD78741 		sraiw	a5,a5,24
 378 0114 D98F     		or	a5,a4,a5
 379 0116 1B968701 		slliw	a2,a5,24
 380 011a 1B568641 		sraiw	a2,a2,24
 260:../src/platform/mpfs_hal/common/mss_mpu.c ****                                               (uint8_t)(matching_mode << 3U) |
 381              		.loc 1 260 9
 382 011e 8327C4FC 		lw	a5,-52(s0)
 383 0122 9B978700 		slliw	a5,a5,8
 384 0126 8127     		sext.w	a5,a5
 385 0128 13970702 		slli	a4,a5,32
 386 012c 0193     		srli	a4,a4,32
 387 012e B7570020 		li	a5,536891392
 388 0132 BA97     		add	a5,a4,a5
 389 0134 BE86     		mv	a3,a5
 260:../src/platform/mpfs_hal/common/mss_mpu.c ****                                               (uint8_t)(matching_mode << 3U) |
 390              		.loc 1 260 72
 391 0136 1377F60F 		andi	a4,a2,0xff
 260:../src/platform/mpfs_hal/common/mss_mpu.c ****                                               (uint8_t)(matching_mode << 3U) |
 392              		.loc 1 260 70
 393 013a 836784FC 		lwu	a5,-56(s0)
 394 013e 8E07     		slli	a5,a5,3
 395 0140 B697     		add	a5,a3,a5
 396 0142 A383E700 		sb	a4,7(a5)
 263:../src/platform/mpfs_hal/common/mss_mpu.c **** 
 264:../src/platform/mpfs_hal/common/mss_mpu.c ****         return ((uint8_t)0);
 397              		.loc 1 264 16
 398 0146 8147     		li	a5,0
 399 0148 11A0     		j	.L7
 400              	.L4:
 265:../src/platform/mpfs_hal/common/mss_mpu.c ****     }
 266:../src/platform/mpfs_hal/common/mss_mpu.c ****     else
 267:../src/platform/mpfs_hal/common/mss_mpu.c ****     {
 268:../src/platform/mpfs_hal/common/mss_mpu.c ****         return ((uint8_t)1);
 401              		.loc 1 268 16
 402 014a 8547     		li	a5,1
 403              	.L7:
 269:../src/platform/mpfs_hal/common/mss_mpu.c ****     }
 270:../src/platform/mpfs_hal/common/mss_mpu.c **** }
 404              		.loc 1 270 1
 405 014c 3E85     		mv	a0,a5
 406 014e 2664     		ld	s0,72(sp)
 407              		.cfi_restore 8
 408              		.cfi_def_cfa 2, 80
 409 0150 6161     		addi	sp,sp,80
 410              		.cfi_def_cfa_offset 0
 411 0152 8280     		jr	ra
 412              		.cfi_endproc
 413              	.LFE24:
 415              		.section	.text.MSS_MPU_get_config,"ax",@progbits
 416              		.align	1
 417              		.globl	MSS_MPU_get_config
 419              	MSS_MPU_get_config:
 420              	.LFB25:
 271:../src/platform/mpfs_hal/common/mss_mpu.c **** 
 272:../src/platform/mpfs_hal/common/mss_mpu.c **** uint8_t MSS_MPU_get_config(mss_mpu_mport_t master_port,
 273:../src/platform/mpfs_hal/common/mss_mpu.c ****                            mss_mpu_pmp_region_t pmp_region,
 274:../src/platform/mpfs_hal/common/mss_mpu.c ****                            uint64_t* base,
 275:../src/platform/mpfs_hal/common/mss_mpu.c ****                            uint64_t* size,
 276:../src/platform/mpfs_hal/common/mss_mpu.c ****                            uint8_t* permission,
 277:../src/platform/mpfs_hal/common/mss_mpu.c ****                            mss_mpu_addrm_t* matching_mode,
 278:../src/platform/mpfs_hal/common/mss_mpu.c ****                            uint8_t* lock_en)
 279:../src/platform/mpfs_hal/common/mss_mpu.c **** {
 421              		.loc 1 279 1
 422              		.cfi_startproc
 423 0000 5D71     		addi	sp,sp,-80
 424              		.cfi_def_cfa_offset 80
 425 0002 86E4     		sd	ra,72(sp)
 426 0004 A2E0     		sd	s0,64(sp)
 427              		.cfi_offset 1, -8
 428              		.cfi_offset 8, -16
 429 0006 8008     		addi	s0,sp,80
 430              		.cfi_def_cfa 8, 0
 431 0008 2338C4FC 		sd	a2,-48(s0)
 432 000c 2334D4FC 		sd	a3,-56(s0)
 433 0010 2330E4FC 		sd	a4,-64(s0)
 434 0014 233CF4FA 		sd	a5,-72(s0)
 435 0018 233804FB 		sd	a6,-80(s0)
 436 001c AA87     		mv	a5,a0
 437 001e 232EF4FC 		sw	a5,-36(s0)
 438 0022 AE87     		mv	a5,a1
 439 0024 232CF4FC 		sw	a5,-40(s0)
 280:../src/platform/mpfs_hal/common/mss_mpu.c ****     uint64_t reg;
 281:../src/platform/mpfs_hal/common/mss_mpu.c **** 
 282:../src/platform/mpfs_hal/common/mss_mpu.c ****     /*All AXI external masters dont have same number of PMP regions*/
 283:../src/platform/mpfs_hal/common/mss_mpu.c ****     if(pmp_region < num_pmp_lut[master_port])
 440              		.loc 1 283 32
 441 0028 17070000 		lla	a4,num_pmp_lut
 441      13070700 
 442 0030 8367C4FD 		lwu	a5,-36(s0)
 443 0034 BA97     		add	a5,a4,a5
 444 0036 83C70700 		lbu	a5,0(a5)
 445 003a 1B870700 		sext.w	a4,a5
 446              		.loc 1 283 7
 447 003e 832784FD 		lw	a5,-40(s0)
 448 0042 8127     		sext.w	a5,a5
 449 0044 63FDE70A 		bgeu	a5,a4,.L9
 284:../src/platform/mpfs_hal/common/mss_mpu.c ****     {
 285:../src/platform/mpfs_hal/common/mss_mpu.c ****         reg = MSS_MPU(master_port)->PMPCFG[pmp_region].MPUCFG_TypeDef.pmp;
 450              		.loc 1 285 15
 451 0048 8327C4FD 		lw	a5,-36(s0)
 452 004c 9B978700 		slliw	a5,a5,8
 453 0050 8127     		sext.w	a5,a5
 454 0052 13970702 		slli	a4,a5,32
 455 0056 0193     		srli	a4,a4,32
 456 0058 B7570020 		li	a5,536891392
 457 005c BA97     		add	a5,a4,a5
 458 005e 3E87     		mv	a4,a5
 459              		.loc 1 285 70
 460 0060 836784FD 		lwu	a5,-40(s0)
 461 0064 8E07     		slli	a5,a5,3
 462 0066 BA97     		add	a5,a4,a5
 463 0068 9863     		ld	a4,0(a5)
 464 006a FD57     		li	a5,-1
 465 006c E983     		srli	a5,a5,26
 466 006e F98F     		and	a5,a4,a5
 467              		.loc 1 285 13
 468 0070 2334F4FE 		sd	a5,-24(s0)
 286:../src/platform/mpfs_hal/common/mss_mpu.c ****         *base = pmp_get_napot_base_and_range(reg, size);
 469              		.loc 1 286 17
 470 0074 833584FC 		ld	a1,-56(s0)
 471 0078 033584FE 		ld	a0,-24(s0)
 472 007c 97000000 		call	pmp_get_napot_base_and_range
 472      E7800000 
 473 0084 2A87     		mv	a4,a0
 474              		.loc 1 286 15
 475 0086 833704FD 		ld	a5,-48(s0)
 476 008a 98E3     		sd	a4,0(a5)
 287:../src/platform/mpfs_hal/common/mss_mpu.c **** 
 288:../src/platform/mpfs_hal/common/mss_mpu.c ****         reg = MSS_MPU(master_port)->PMPCFG[pmp_region].MPUCFG_TypeDef.mode;
 477              		.loc 1 288 15
 478 008c 8327C4FD 		lw	a5,-36(s0)
 479 0090 9B978700 		slliw	a5,a5,8
 480 0094 8127     		sext.w	a5,a5
 481 0096 13970702 		slli	a4,a5,32
 482 009a 0193     		srli	a4,a4,32
 483 009c B7570020 		li	a5,536891392
 484 00a0 BA97     		add	a5,a4,a5
 485 00a2 3E87     		mv	a4,a5
 486              		.loc 1 288 70
 487 00a4 836784FD 		lwu	a5,-40(s0)
 488 00a8 8E07     		slli	a5,a5,3
 489 00aa BA97     		add	a5,a4,a5
 490 00ac 83C77700 		lbu	a5,7(a5)
 491 00b0 93F7F70F 		andi	a5,a5,0xff
 492              		.loc 1 288 13
 493 00b4 2334F4FE 		sd	a5,-24(s0)
 289:../src/platform/mpfs_hal/common/mss_mpu.c ****         *lock_en = ( reg >> 0x7U) & 0x1U;
 494              		.loc 1 289 26
 495 00b8 833784FE 		ld	a5,-24(s0)
 496 00bc 9D83     		srli	a5,a5,7
 497              		.loc 1 289 35
 498 00be 93F7F70F 		andi	a5,a5,0xff
 499 00c2 858B     		andi	a5,a5,1
 500 00c4 13F7F70F 		andi	a4,a5,0xff
 501              		.loc 1 289 18
 502 00c8 833704FB 		ld	a5,-80(s0)
 503 00cc 2380E700 		sb	a4,0(a5)
 290:../src/platform/mpfs_hal/common/mss_mpu.c ****         *matching_mode = (mss_mpu_addrm_t)( (reg >> 3ULL) & 0x3U);
 504              		.loc 1 290 50
 505 00d0 833784FE 		ld	a5,-24(s0)
 506 00d4 8D83     		srli	a5,a5,3
 507              		.loc 1 290 26
 508 00d6 8127     		sext.w	a5,a5
 509              		.loc 1 290 59
 510 00d8 8D8B     		andi	a5,a5,3
 511 00da 1B870700 		sext.w	a4,a5
 512              		.loc 1 290 24
 513 00de 833784FB 		ld	a5,-72(s0)
 514 00e2 98C3     		sw	a4,0(a5)
 291:../src/platform/mpfs_hal/common/mss_mpu.c ****         *permission = reg & 0x7U;
 515              		.loc 1 291 27
 516 00e4 833784FE 		ld	a5,-24(s0)
 517 00e8 93F7F70F 		andi	a5,a5,0xff
 518 00ec 9D8B     		andi	a5,a5,7
 519 00ee 13F7F70F 		andi	a4,a5,0xff
 520              		.loc 1 291 21
 521 00f2 833704FC 		ld	a5,-64(s0)
 522 00f6 2380E700 		sb	a4,0(a5)
 292:../src/platform/mpfs_hal/common/mss_mpu.c **** 
 293:../src/platform/mpfs_hal/common/mss_mpu.c ****         return ((uint8_t)0);
 523              		.loc 1 293 16
 524 00fa 8147     		li	a5,0
 525 00fc 11A0     		j	.L10
 526              	.L9:
 294:../src/platform/mpfs_hal/common/mss_mpu.c ****     }
 295:../src/platform/mpfs_hal/common/mss_mpu.c ****     else
 296:../src/platform/mpfs_hal/common/mss_mpu.c ****     {
 297:../src/platform/mpfs_hal/common/mss_mpu.c ****         return ((uint8_t)1);
 527              		.loc 1 297 16
 528 00fe 8547     		li	a5,1
 529              	.L10:
 298:../src/platform/mpfs_hal/common/mss_mpu.c ****     }
 299:../src/platform/mpfs_hal/common/mss_mpu.c **** }
 530              		.loc 1 299 1
 531 0100 3E85     		mv	a0,a5
 532 0102 A660     		ld	ra,72(sp)
 533              		.cfi_restore 1
 534 0104 0664     		ld	s0,64(sp)
 535              		.cfi_restore 8
 536              		.cfi_def_cfa 2, 80
 537 0106 6161     		addi	sp,sp,80
 538              		.cfi_def_cfa_offset 0
 539 0108 8280     		jr	ra
 540              		.cfi_endproc
 541              	.LFE25:
 543              		.section	.text.pmp_get_napot_base_and_range,"ax",@progbits
 544              		.align	1
 546              	pmp_get_napot_base_and_range:
 547              	.LFB26:
 300:../src/platform/mpfs_hal/common/mss_mpu.c **** 
 301:../src/platform/mpfs_hal/common/mss_mpu.c **** static uint64_t pmp_get_napot_base_and_range(uint64_t reg, uint64_t *range)
 302:../src/platform/mpfs_hal/common/mss_mpu.c **** {
 548              		.loc 1 302 1
 549              		.cfi_startproc
 550 0000 3971     		addi	sp,sp,-64
 551              		.cfi_def_cfa_offset 64
 552 0002 22FC     		sd	s0,56(sp)
 553              		.cfi_offset 8, -8
 554 0004 8000     		addi	s0,sp,64
 555              		.cfi_def_cfa 8, 0
 556 0006 2334A4FC 		sd	a0,-56(s0)
 557 000a 2330B4FC 		sd	a1,-64(s0)
 303:../src/platform/mpfs_hal/common/mss_mpu.c ****     /* construct a mask of all bits bar the top bit */
 304:../src/platform/mpfs_hal/common/mss_mpu.c ****     uint64_t mask = 0U;
 558              		.loc 1 304 14
 559 000e 233404FE 		sd	zero,-24(s0)
 305:../src/platform/mpfs_hal/common/mss_mpu.c ****     uint64_t base = reg;
 560              		.loc 1 305 14
 561 0012 833784FC 		ld	a5,-56(s0)
 562 0016 2330F4FE 		sd	a5,-32(s0)
 306:../src/platform/mpfs_hal/common/mss_mpu.c ****     uint64_t numbits = (sizeof(uint64_t) * 8U) + 2U;
 563              		.loc 1 306 14
 564 001a 93072004 		li	a5,66
 565 001e 233CF4FC 		sd	a5,-40(s0)
 307:../src/platform/mpfs_hal/common/mss_mpu.c ****     mask = (mask - 1U) >> 1U;
 566              		.loc 1 307 18
 567 0022 833784FE 		ld	a5,-24(s0)
 568 0026 FD17     		addi	a5,a5,-1
 569              		.loc 1 307 10
 570 0028 8583     		srli	a5,a5,1
 571 002a 2334F4FE 		sd	a5,-24(s0)
 308:../src/platform/mpfs_hal/common/mss_mpu.c **** 
 309:../src/platform/mpfs_hal/common/mss_mpu.c ****     while (mask)
 572              		.loc 1 309 11
 573 002e 35A8     		j	.L12
 574              	.L15:
 310:../src/platform/mpfs_hal/common/mss_mpu.c ****     {
 311:../src/platform/mpfs_hal/common/mss_mpu.c ****         if ((reg & mask) == mask)
 575              		.loc 1 311 18
 576 0030 033784FC 		ld	a4,-56(s0)
 577 0034 833784FE 		ld	a5,-24(s0)
 578 0038 F98F     		and	a5,a4,a5
 579              		.loc 1 311 12
 580 003a 033784FE 		ld	a4,-24(s0)
 581 003e 631CF700 		bne	a4,a5,.L13
 312:../src/platform/mpfs_hal/common/mss_mpu.c ****         {
 313:../src/platform/mpfs_hal/common/mss_mpu.c ****             /* this is the mask to use */
 314:../src/platform/mpfs_hal/common/mss_mpu.c ****             base = reg & ~mask;
 582              		.loc 1 314 26
 583 0042 833784FE 		ld	a5,-24(s0)
 584 0046 93C7F7FF 		not	a5,a5
 585              		.loc 1 314 18
 586 004a 033784FC 		ld	a4,-56(s0)
 587 004e F98F     		and	a5,a4,a5
 588 0050 2330F4FE 		sd	a5,-32(s0)
 315:../src/platform/mpfs_hal/common/mss_mpu.c ****             break;
 589              		.loc 1 315 13
 590 0054 31A8     		j	.L14
 591              	.L13:
 316:../src/platform/mpfs_hal/common/mss_mpu.c ****         }
 317:../src/platform/mpfs_hal/common/mss_mpu.c ****         mask >>= 1U;
 592              		.loc 1 317 14
 593 0056 833784FE 		ld	a5,-24(s0)
 594 005a 8583     		srli	a5,a5,1
 595 005c 2334F4FE 		sd	a5,-24(s0)
 318:../src/platform/mpfs_hal/common/mss_mpu.c ****         numbits--;
 596              		.loc 1 318 16
 597 0060 833784FD 		ld	a5,-40(s0)
 598 0064 FD17     		addi	a5,a5,-1
 599 0066 233CF4FC 		sd	a5,-40(s0)
 600              	.L12:
 309:../src/platform/mpfs_hal/common/mss_mpu.c ****     {
 601              		.loc 1 309 11
 602 006a 833784FE 		ld	a5,-24(s0)
 603 006e E9F3     		bne	a5,zero,.L15
 604              	.L14:
 319:../src/platform/mpfs_hal/common/mss_mpu.c ****     }
 320:../src/platform/mpfs_hal/common/mss_mpu.c **** 
 321:../src/platform/mpfs_hal/common/mss_mpu.c ****     *range = (1LU << numbits);
 605              		.loc 1 321 19
 606 0070 833784FD 		ld	a5,-40(s0)
 607 0074 8127     		sext.w	a5,a5
 608 0076 3E87     		mv	a4,a5
 609 0078 8547     		li	a5,1
 610 007a 3397E700 		sll	a4,a5,a4
 611              		.loc 1 321 12
 612 007e 833704FC 		ld	a5,-64(s0)
 613 0082 98E3     		sd	a4,0(a5)
 322:../src/platform/mpfs_hal/common/mss_mpu.c ****     return (base << 2U);
 614              		.loc 1 322 18
 615 0084 833704FE 		ld	a5,-32(s0)
 616 0088 8A07     		slli	a5,a5,2
 323:../src/platform/mpfs_hal/common/mss_mpu.c **** }
 617              		.loc 1 323 1
 618 008a 3E85     		mv	a0,a5
 619 008c 6274     		ld	s0,56(sp)
 620              		.cfi_restore 8
 621              		.cfi_def_cfa 2, 64
 622 008e 2161     		addi	sp,sp,64
 623              		.cfi_def_cfa_offset 0
 624 0090 8280     		jr	ra
 625              		.cfi_endproc
 626              	.LFE26:
 628              		.text
 629              	.Letext0:
 630              		.file 2 "/home/vinay/Desktop/soft_console/SoftConsole-v2022.2-RISC-V-747/riscv-unknown-elf-gcc/ris
 631              		.file 3 "/home/vinay/Desktop/soft_console/SoftConsole-v2022.2-RISC-V-747/riscv-unknown-elf-gcc/lib
 632              		.file 4 "/home/vinay/Desktop/soft_console/SoftConsole-v2022.2-RISC-V-747/riscv-unknown-elf-gcc/ris
 633              		.file 5 "/home/vinay/Desktop/soft_console/SoftConsole-v2022.2-RISC-V-747/riscv-unknown-elf-gcc/ris
 634              		.file 6 "/home/vinay/Desktop/soft_console/SoftConsole-v2022.2-RISC-V-747/riscv-unknown-elf-gcc/ris
 635              		.file 7 "/home/vinay/Desktop/soft_console/SoftConsole-v2022.2-RISC-V-747/riscv-unknown-elf-gcc/ris
 636              		.file 8 "/home/vinay/Desktop/softconsole_watershed/Water-shed/src/platform/mpfs_hal/common/nwc/mss
 637              		.file 9 "/home/vinay/Desktop/softconsole_watershed/Water-shed/src/platform/mpfs_hal/common/nwc/mss
 638              		.file 10 "/home/vinay/Desktop/softconsole_watershed/Water-shed/src/platform/mpfs_hal/common/nwc/ms
 639              		.file 11 "/home/vinay/Desktop/softconsole_watershed/Water-shed/src/platform/mpfs_hal/common/mss_mp
 640              		.file 12 "/home/vinay/Desktop/softconsole_watershed/Water-shed/src/platform/mpfs_hal/common/mss_pl
 641              		.file 13 "/home/vinay/Desktop/softconsole_watershed/Water-shed/src/platform/mpfs_hal/startup_gcc/s