   1              		.file	"mss_util.c"
   2              		.option nopic
   3              		.attribute arch, "rv64i2p0_m2p0_a2p0_f2p0_d2p0_c2p0"
   4              		.attribute unaligned_access, 0
   5              		.attribute stack_align, 16
   6              		.text
   7              	.Ltext0:
   8              		.cfi_sections	.debug_frame
   9              		.section	.text.enable_interrupts,"ax",@progbits
  10              		.align	1
  11              		.globl	enable_interrupts
  13              	enable_interrupts:
  14              	.LFB19:
  15              		.file 1 "../src/platform/mpfs_hal/common/mss_util.c"
   1:../src/platform/mpfs_hal/common/mss_util.c **** /*******************************************************************************
   2:../src/platform/mpfs_hal/common/mss_util.c ****  * Copyright 2019-2022 Microchip FPGA Embedded Systems Solutions.
   3:../src/platform/mpfs_hal/common/mss_util.c ****  *
   4:../src/platform/mpfs_hal/common/mss_util.c ****  * SPDX-License-Identifier: MIT
   5:../src/platform/mpfs_hal/common/mss_util.c ****  *
   6:../src/platform/mpfs_hal/common/mss_util.c ****  * MPFS HAL Embedded Software
   7:../src/platform/mpfs_hal/common/mss_util.c ****  *
   8:../src/platform/mpfs_hal/common/mss_util.c ****  */
   9:../src/platform/mpfs_hal/common/mss_util.c **** 
  10:../src/platform/mpfs_hal/common/mss_util.c **** /***************************************************************************
  11:../src/platform/mpfs_hal/common/mss_util.c ****  * @file mss_util.c
  12:../src/platform/mpfs_hal/common/mss_util.c ****  * @author Microchip-FPGA Embedded Systems Solutions
  13:../src/platform/mpfs_hal/common/mss_util.c ****  * @brief Utility functions
  14:../src/platform/mpfs_hal/common/mss_util.c ****  *
  15:../src/platform/mpfs_hal/common/mss_util.c ****  */
  16:../src/platform/mpfs_hal/common/mss_util.c **** #include <stddef.h>
  17:../src/platform/mpfs_hal/common/mss_util.c **** #include <stdbool.h>
  18:../src/platform/mpfs_hal/common/mss_util.c **** #include "mpfs_hal/mss_hal.h"
  19:../src/platform/mpfs_hal/common/mss_util.c **** 
  20:../src/platform/mpfs_hal/common/mss_util.c **** #ifdef __cplusplus
  21:../src/platform/mpfs_hal/common/mss_util.c **** extern "C" {
  22:../src/platform/mpfs_hal/common/mss_util.c **** #endif
  23:../src/platform/mpfs_hal/common/mss_util.c **** 
  24:../src/platform/mpfs_hal/common/mss_util.c **** /*------------------------------------------------------------------------------
  25:../src/platform/mpfs_hal/common/mss_util.c ****  *
  26:../src/platform/mpfs_hal/common/mss_util.c ****  */
  27:../src/platform/mpfs_hal/common/mss_util.c **** void enable_interrupts(void) {
  16              		.loc 1 27 30
  17              		.cfi_startproc
  18 0000 4111     		addi	sp,sp,-16
  19              		.cfi_def_cfa_offset 16
  20 0002 06E4     		sd	ra,8(sp)
  21 0004 22E0     		sd	s0,0(sp)
  22              		.cfi_offset 1, -8
  23              		.cfi_offset 8, -16
  24 0006 0008     		addi	s0,sp,16
  25              		.cfi_def_cfa 8, 0
  28:../src/platform/mpfs_hal/common/mss_util.c ****     __enable_irq();
  26              		.loc 1 28 5
  27 0008 97000000 		call	__enable_irq
  27      E7800000 
  29:../src/platform/mpfs_hal/common/mss_util.c **** }
  28              		.loc 1 29 1
  29 0010 0100     		nop
  30 0012 A260     		ld	ra,8(sp)
  31              		.cfi_restore 1
  32 0014 0264     		ld	s0,0(sp)
  33              		.cfi_restore 8
  34              		.cfi_def_cfa 2, 16
  35 0016 4101     		addi	sp,sp,16
  36              		.cfi_def_cfa_offset 0
  37 0018 8280     		jr	ra
  38              		.cfi_endproc
  39              	.LFE19:
  41              		.section	.text.disable_interrupts,"ax",@progbits
  42              		.align	1
  43              		.globl	disable_interrupts
  45              	disable_interrupts:
  46              	.LFB20:
  30:../src/platform/mpfs_hal/common/mss_util.c **** 
  31:../src/platform/mpfs_hal/common/mss_util.c **** /*------------------------------------------------------------------------------
  32:../src/platform/mpfs_hal/common/mss_util.c ****  *
  33:../src/platform/mpfs_hal/common/mss_util.c ****  */
  34:../src/platform/mpfs_hal/common/mss_util.c **** uint64_t disable_interrupts(void) {
  47              		.loc 1 34 35
  48              		.cfi_startproc
  49 0000 0111     		addi	sp,sp,-32
  50              		.cfi_def_cfa_offset 32
  51 0002 06EC     		sd	ra,24(sp)
  52 0004 22E8     		sd	s0,16(sp)
  53              		.cfi_offset 1, -8
  54              		.cfi_offset 8, -16
  55 0006 0010     		addi	s0,sp,32
  56              		.cfi_def_cfa 8, 0
  57              	.LBB2:
  35:../src/platform/mpfs_hal/common/mss_util.c ****     uint64_t psr;
  36:../src/platform/mpfs_hal/common/mss_util.c ****     psr = read_csr(mstatus);
  58              		.loc 1 36 11
  59              	 #APP
  60              	# 36 "../src/platform/mpfs_hal/common/mss_util.c" 1
  37              	    __disable_irq();
  61              		csrr a5, mstatus
  62              	# 0 "" 2
  63              	 #NO_APP
  64 000c 2334F4FE 		sd	a5,-24(s0)
  65 0010 833784FE 		ld	a5,-24(s0)
  66              	.LBE2:
  36:../src/platform/mpfs_hal/common/mss_util.c ****     psr = read_csr(mstatus);
  67              		.loc 1 36 9
  68 0014 2330F4FE 		sd	a5,-32(s0)
  69              		.loc 1 37 5
  70 0018 97000000 		call	__disable_irq
  70      E7800000 
  38:../src/platform/mpfs_hal/common/mss_util.c ****     return(psr);
  71              		.loc 1 38 11
  72 0020 833704FE 		ld	a5,-32(s0)
  39:../src/platform/mpfs_hal/common/mss_util.c **** }
  73              		.loc 1 39 1
  74 0024 3E85     		mv	a0,a5
  75 0026 E260     		ld	ra,24(sp)
  76              		.cfi_restore 1
  77 0028 4264     		ld	s0,16(sp)
  78              		.cfi_restore 8
  79              		.cfi_def_cfa 2, 32
  80 002a 0561     		addi	sp,sp,32
  81              		.cfi_def_cfa_offset 0
  82 002c 8280     		jr	ra
  83              		.cfi_endproc
  84              	.LFE20:
  86              		.section	.text.restore_interrupts,"ax",@progbits
  87              		.align	1
  88              		.globl	restore_interrupts
  90              	restore_interrupts:
  91              	.LFB21:
  40:../src/platform/mpfs_hal/common/mss_util.c **** 
  41:../src/platform/mpfs_hal/common/mss_util.c **** /*------------------------------------------------------------------------------
  42:../src/platform/mpfs_hal/common/mss_util.c ****  *
  43:../src/platform/mpfs_hal/common/mss_util.c ****  */
  44:../src/platform/mpfs_hal/common/mss_util.c **** void restore_interrupts(uint64_t saved_psr) {
  92              		.loc 1 44 45
  93              		.cfi_startproc
  94 0000 0111     		addi	sp,sp,-32
  95              		.cfi_def_cfa_offset 32
  96 0002 22EC     		sd	s0,24(sp)
  97              		.cfi_offset 8, -8
  98 0004 0010     		addi	s0,sp,32
  99              		.cfi_def_cfa 8, 0
 100 0006 2334A4FE 		sd	a0,-24(s0)
  45:../src/platform/mpfs_hal/common/mss_util.c ****     write_csr(mstatus, saved_psr);
 101              		.loc 1 45 5
 102 000a 833784FE 		ld	a5,-24(s0)
 103              	 #APP
 104              	# 45 "../src/platform/mpfs_hal/common/mss_util.c" 1
  46              	}
 105              		csrw mstatus, a5
 106              	# 0 "" 2
 107              		.loc 1 46 1
 108              	 #NO_APP
 109 0012 0100     		nop
 110 0014 6264     		ld	s0,24(sp)
 111              		.cfi_restore 8
 112              		.cfi_def_cfa 2, 32
 113 0016 0561     		addi	sp,sp,32
 114              		.cfi_def_cfa_offset 0
 115 0018 8280     		jr	ra
 116              		.cfi_endproc
 117              	.LFE21:
 119              		.section	.text.__disable_irq,"ax",@progbits
 120              		.align	1
 121              		.globl	__disable_irq
 123              	__disable_irq:
 124              	.LFB22:
  47:../src/platform/mpfs_hal/common/mss_util.c **** 
  48:../src/platform/mpfs_hal/common/mss_util.c **** /*------------------------------------------------------------------------------
  49:../src/platform/mpfs_hal/common/mss_util.c ****  * Disable all interrupts.
  50:../src/platform/mpfs_hal/common/mss_util.c ****  */
  51:../src/platform/mpfs_hal/common/mss_util.c **** void __disable_irq(void)
  52:../src/platform/mpfs_hal/common/mss_util.c **** {
 125              		.loc 1 52 1
 126              		.cfi_startproc
 127 0000 0111     		addi	sp,sp,-32
 128              		.cfi_def_cfa_offset 32
 129 0002 22EC     		sd	s0,24(sp)
 130              		.cfi_offset 8, -8
 131 0004 0010     		addi	s0,sp,32
 132              		.cfi_def_cfa 8, 0
 133              	.LBB3:
  53:../src/platform/mpfs_hal/common/mss_util.c ****     clear_csr(mstatus, MSTATUS_MIE);
 134              		.loc 1 53 5
 135              	 #APP
 136              	# 53 "../src/platform/mpfs_hal/common/mss_util.c" 1
  54              	    clear_csr(mstatus, MSTATUS_MPIE);
 137              		csrrc a5, mstatus, 8
 138              	# 0 "" 2
 139              	 #NO_APP
 140 000a 2334F4FE 		sd	a5,-24(s0)
 141              	.LBE3:
 142              	.LBB4:
 143              		.loc 1 54 5
 144 000e 93070008 		li	a5,128
 145              	 #APP
 146              	# 54 "../src/platform/mpfs_hal/common/mss_util.c" 1
  55              	}
 147              		csrrc a5, mstatus, a5
 148              	# 0 "" 2
 149              	 #NO_APP
 150 0016 2330F4FE 		sd	a5,-32(s0)
 151              	.LBE4:
 152              		.loc 1 55 1
 153 001a 0100     		nop
 154 001c 6264     		ld	s0,24(sp)
 155              		.cfi_restore 8
 156              		.cfi_def_cfa 2, 32
 157 001e 0561     		addi	sp,sp,32
 158              		.cfi_def_cfa_offset 0
 159 0020 8280     		jr	ra
 160              		.cfi_endproc
 161              	.LFE22:
 163              		.section	.text.__disable_all_irqs,"ax",@progbits
 164              		.align	1
 165              		.globl	__disable_all_irqs
 167              	__disable_all_irqs:
 168              	.LFB23:
  56:../src/platform/mpfs_hal/common/mss_util.c **** 
  57:../src/platform/mpfs_hal/common/mss_util.c **** void __disable_all_irqs(void)
  58:../src/platform/mpfs_hal/common/mss_util.c **** {
 169              		.loc 1 58 1
 170              		.cfi_startproc
 171 0000 4111     		addi	sp,sp,-16
 172              		.cfi_def_cfa_offset 16
 173 0002 06E4     		sd	ra,8(sp)
 174 0004 22E0     		sd	s0,0(sp)
 175              		.cfi_offset 1, -8
 176              		.cfi_offset 8, -16
 177 0006 0008     		addi	s0,sp,16
 178              		.cfi_def_cfa 8, 0
  59:../src/platform/mpfs_hal/common/mss_util.c ****     __disable_irq();
 179              		.loc 1 59 5
 180 0008 97000000 		call	__disable_irq
 180      E7800000 
  60:../src/platform/mpfs_hal/common/mss_util.c ****     write_csr(mie, 0x00U);
 181              		.loc 1 60 5
 182              	 #APP
 183              	# 60 "../src/platform/mpfs_hal/common/mss_util.c" 1
  61              	    write_csr(mip, 0x00);
 184              		csrw mie, 0
 185              	# 0 "" 2
 186              		.loc 1 61 5
 187              	# 61 "../src/platform/mpfs_hal/common/mss_util.c" 1
  62              	}
 188              		csrw mip, 0
 189              	# 0 "" 2
 190              		.loc 1 62 1
 191              	 #NO_APP
 192 0018 0100     		nop
 193 001a A260     		ld	ra,8(sp)
 194              		.cfi_restore 1
 195 001c 0264     		ld	s0,0(sp)
 196              		.cfi_restore 8
 197              		.cfi_def_cfa 2, 16
 198 001e 4101     		addi	sp,sp,16
 199              		.cfi_def_cfa_offset 0
 200 0020 8280     		jr	ra
 201              		.cfi_endproc
 202              	.LFE23:
 204              		.section	.text.__enable_irq,"ax",@progbits
 205              		.align	1
 206              		.globl	__enable_irq
 208              	__enable_irq:
 209              	.LFB24:
  63:../src/platform/mpfs_hal/common/mss_util.c **** 
  64:../src/platform/mpfs_hal/common/mss_util.c **** /*------------------------------------------------------------------------------
  65:../src/platform/mpfs_hal/common/mss_util.c ****  * Enable all interrupts.
  66:../src/platform/mpfs_hal/common/mss_util.c ****  */
  67:../src/platform/mpfs_hal/common/mss_util.c **** void __enable_irq(void)
  68:../src/platform/mpfs_hal/common/mss_util.c **** {
 210              		.loc 1 68 1
 211              		.cfi_startproc
 212 0000 0111     		addi	sp,sp,-32
 213              		.cfi_def_cfa_offset 32
 214 0002 22EC     		sd	s0,24(sp)
 215              		.cfi_offset 8, -8
 216 0004 0010     		addi	s0,sp,32
 217              		.cfi_def_cfa 8, 0
 218              	.LBB5:
  69:../src/platform/mpfs_hal/common/mss_util.c ****     set_csr(mstatus, MSTATUS_MIE);  /* mstatus Register- Machine Interrupt Enable */
 219              		.loc 1 69 5
 220              	 #APP
 221              	# 69 "../src/platform/mpfs_hal/common/mss_util.c" 1
  70              	}
 222              		csrrs a5, mstatus, 8
 223              	# 0 "" 2
 224              	 #NO_APP
 225 000a 2334F4FE 		sd	a5,-24(s0)
 226              	.LBE5:
 227              		.loc 1 70 1
 228 000e 0100     		nop
 229 0010 6264     		ld	s0,24(sp)
 230              		.cfi_restore 8
 231              		.cfi_def_cfa 2, 32
 232 0012 0561     		addi	sp,sp,32
 233              		.cfi_def_cfa_offset 0
 234 0014 8280     		jr	ra
 235              		.cfi_endproc
 236              	.LFE24:
 238              		.section	.text.__enable_local_irq,"ax",@progbits
 239              		.align	1
 240              		.globl	__enable_local_irq
 242              	__enable_local_irq:
 243              	.LFB25:
  71:../src/platform/mpfs_hal/common/mss_util.c **** 
  72:../src/platform/mpfs_hal/common/mss_util.c **** /*------------------------------------------------------------------------------
  73:../src/platform/mpfs_hal/common/mss_util.c ****  * Enable particular local interrupt
  74:../src/platform/mpfs_hal/common/mss_util.c ****  */
  75:../src/platform/mpfs_hal/common/mss_util.c **** void __enable_local_irq(uint8_t local_interrupt)
  76:../src/platform/mpfs_hal/common/mss_util.c **** {
 244              		.loc 1 76 1
 245              		.cfi_startproc
 246 0000 3971     		addi	sp,sp,-64
 247              		.cfi_def_cfa_offset 64
 248 0002 22FC     		sd	s0,56(sp)
 249              		.cfi_offset 8, -8
 250 0004 8000     		addi	s0,sp,64
 251              		.cfi_def_cfa 8, 0
 252 0006 AA87     		mv	a5,a0
 253 0008 A307F4FC 		sb	a5,-49(s0)
  77:../src/platform/mpfs_hal/common/mss_util.c ****     ASSERT(local_interrupt > (int8_t)0);
 254              		.loc 1 77 5
 255 000c 8347F4FC 		lbu	a5,-49(s0)
 256 0010 93F7F70F 		andi	a5,a5,0xff
 257 0014 91E3     		bne	a5,zero,.L9
 258              		.loc 1 77 5 is_stmt 0 discriminator 1
 259              	 #APP
 260              	# 77 "../src/platform/mpfs_hal/common/mss_util.c" 1
  78              	    ASSERT( (local_interrupt <= LOCAL_INT_MAX));
 261              		ebreak
 262              	# 0 "" 2
 263              	 #NO_APP
 264              	.L9:
 265              		.loc 1 78 5 is_stmt 1
 266 0018 8347F4FC 		lbu	a5,-49(s0)
 267 001c 13F7F70F 		andi	a4,a5,0xff
 268 0020 9307F002 		li	a5,47
 269 0024 63F3E700 		bleu	a4,a5,.L10
 270              		.loc 1 78 5 is_stmt 0 discriminator 1
 271              	 #APP
 272              	# 78 "../src/platform/mpfs_hal/common/mss_util.c" 1
  79              	
 273              		ebreak
 274              	# 0 "" 2
 275              	 #NO_APP
 276              	.L10:
 277              	.LBB6:
  80:../src/platform/mpfs_hal/common/mss_util.c ****     uint8_t mhart_id = (uint8_t)read_csr(mhartid);
 278              		.loc 1 80 33 is_stmt 1
 279              	 #APP
 280              	# 80 "../src/platform/mpfs_hal/common/mss_util.c" 1
  81              	
 281              		csrr a5, mhartid
 282              	# 0 "" 2
 283              	 #NO_APP
 284 002e 2334F4FE 		sd	a5,-24(s0)
 285 0032 833784FE 		ld	a5,-24(s0)
 286              	.LBE6:
  80:../src/platform/mpfs_hal/common/mss_util.c ****     uint8_t mhart_id = (uint8_t)read_csr(mhartid);
 287              		.loc 1 80 13
 288 0036 A303F4FE 		sb	a5,-25(s0)
  82:../src/platform/mpfs_hal/common/mss_util.c ****     if((local_interrupt > (int8_t)0) && (local_interrupt <= LOCAL_INT_MAX))
 289              		.loc 1 82 7
 290 003a 8347F4FC 		lbu	a5,-49(s0)
 291 003e 93F7F70F 		andi	a5,a5,0xff
 292 0042 63860712 		beq	a5,zero,.L15
 293              		.loc 1 82 38 discriminator 1
 294 0046 8347F4FC 		lbu	a5,-49(s0)
 295 004a 13F7F70F 		andi	a4,a5,0xff
 296 004e 9307F002 		li	a5,47
 297 0052 63EEE710 		bgtu	a4,a5,.L15
 298              	.LBB7:
  83:../src/platform/mpfs_hal/common/mss_util.c ****     {
  84:../src/platform/mpfs_hal/common/mss_util.c **** 
  85:../src/platform/mpfs_hal/common/mss_util.c ****         set_csr(mie, (0x1LLU << (int8_t)(local_interrupt + LOCAL_INT_OFFSET_IN_MIE)));  /* mie Regi
 299              		.loc 1 85 9
 300 0056 8347F4FC 		lbu	a5,-49(s0)
 301 005a C127     		addiw	a5,a5,16
 302 005c 93F7F70F 		andi	a5,a5,0xff
 303 0060 9B978701 		slliw	a5,a5,24
 304 0064 9BD78741 		sraiw	a5,a5,24
 305 0068 8127     		sext.w	a5,a5
 306 006a 3E87     		mv	a4,a5
 307 006c 8547     		li	a5,1
 308 006e B397E700 		sll	a5,a5,a4
 309              	 #APP
 310              	# 85 "../src/platform/mpfs_hal/common/mss_util.c" 1
  86              	
 311              		csrrs a5, mie, a5
 312              	# 0 "" 2
 313              	 #NO_APP
 314 0076 233CF4FC 		sd	a5,-40(s0)
 315              	.LBE7:
  87:../src/platform/mpfs_hal/common/mss_util.c ****         /* Enable F2M interrupts as local instead of PLIC interrupts */
  88:../src/platform/mpfs_hal/common/mss_util.c ****         if (local_interrupt >= LOCAL_INT_F2M_OFFSET)
 316              		.loc 1 88 12
 317 007a 8347F4FC 		lbu	a5,-49(s0)
 318 007e 13F7F70F 		andi	a4,a5,0xff
 319 0082 BD47     		li	a5,15
 320 0084 63F5E70E 		bleu	a4,a5,.L15
  89:../src/platform/mpfs_hal/common/mss_util.c ****         {
  90:../src/platform/mpfs_hal/common/mss_util.c ****             if (mhart_id == 1)
 321              		.loc 1 90 16
 322 0088 834774FE 		lbu	a5,-25(s0)
 323 008c 13F7F70F 		andi	a4,a5,0xff
 324 0090 8547     		li	a5,1
 325 0092 6318F702 		bne	a4,a5,.L12
  91:../src/platform/mpfs_hal/common/mss_util.c ****             {
  92:../src/platform/mpfs_hal/common/mss_util.c ****                 SYSREG->FAB_INTEN_U54_1 |= (1u << (local_interrupt - LOCAL_INT_F2M_OFFSET));
 326              		.loc 1 92 41
 327 0096 B7270020 		li	a5,536879104
 328 009a BC43     		lw	a5,64(a5)
 329 009c 9B860700 		sext.w	a3,a5
 330              		.loc 1 92 68
 331 00a0 8347F4FC 		lbu	a5,-49(s0)
 332 00a4 8127     		sext.w	a5,a5
 333 00a6 C137     		addiw	a5,a5,-16
 334 00a8 8127     		sext.w	a5,a5
 335              		.loc 1 92 48
 336 00aa 3E87     		mv	a4,a5
 337 00ac 8547     		li	a5,1
 338 00ae BB97E700 		sllw	a5,a5,a4
 339 00b2 1B870700 		sext.w	a4,a5
 340              		.loc 1 92 41
 341 00b6 B7270020 		li	a5,536879104
 342 00ba 558F     		or	a4,a3,a4
 343 00bc 0127     		sext.w	a4,a4
 344 00be B8C3     		sw	a4,64(a5)
  93:../src/platform/mpfs_hal/common/mss_util.c ****             }
  94:../src/platform/mpfs_hal/common/mss_util.c ****             else if (mhart_id == 2)
  95:../src/platform/mpfs_hal/common/mss_util.c ****             {
  96:../src/platform/mpfs_hal/common/mss_util.c ****                 SYSREG->FAB_INTEN_U54_2 |= (1u << (local_interrupt - LOCAL_INT_F2M_OFFSET));
  97:../src/platform/mpfs_hal/common/mss_util.c ****             }
  98:../src/platform/mpfs_hal/common/mss_util.c ****             else if (mhart_id == 3)
  99:../src/platform/mpfs_hal/common/mss_util.c ****             {
 100:../src/platform/mpfs_hal/common/mss_util.c ****                 SYSREG->FAB_INTEN_U54_3 |= (1u << (local_interrupt - LOCAL_INT_F2M_OFFSET));
 101:../src/platform/mpfs_hal/common/mss_util.c ****             }
 102:../src/platform/mpfs_hal/common/mss_util.c ****             else if (mhart_id == 4)
 103:../src/platform/mpfs_hal/common/mss_util.c ****             {
 104:../src/platform/mpfs_hal/common/mss_util.c ****                 SYSREG->FAB_INTEN_U54_4 |= (1u << (local_interrupt - LOCAL_INT_F2M_OFFSET));
 105:../src/platform/mpfs_hal/common/mss_util.c ****             }
 106:../src/platform/mpfs_hal/common/mss_util.c ****         }
 107:../src/platform/mpfs_hal/common/mss_util.c ****     }
 108:../src/platform/mpfs_hal/common/mss_util.c **** }
 345              		.loc 1 108 1
 346 00c0 7DA0     		j	.L15
 347              	.L12:
  94:../src/platform/mpfs_hal/common/mss_util.c ****             {
 348              		.loc 1 94 21
 349 00c2 834774FE 		lbu	a5,-25(s0)
 350 00c6 13F7F70F 		andi	a4,a5,0xff
 351 00ca 8947     		li	a5,2
 352 00cc 6318F702 		bne	a4,a5,.L13
  96:../src/platform/mpfs_hal/common/mss_util.c ****             }
 353              		.loc 1 96 41
 354 00d0 B7270020 		li	a5,536879104
 355 00d4 FC43     		lw	a5,68(a5)
 356 00d6 9B860700 		sext.w	a3,a5
  96:../src/platform/mpfs_hal/common/mss_util.c ****             }
 357              		.loc 1 96 68
 358 00da 8347F4FC 		lbu	a5,-49(s0)
 359 00de 8127     		sext.w	a5,a5
 360 00e0 C137     		addiw	a5,a5,-16
 361 00e2 8127     		sext.w	a5,a5
  96:../src/platform/mpfs_hal/common/mss_util.c ****             }
 362              		.loc 1 96 48
 363 00e4 3E87     		mv	a4,a5
 364 00e6 8547     		li	a5,1
 365 00e8 BB97E700 		sllw	a5,a5,a4
 366 00ec 1B870700 		sext.w	a4,a5
  96:../src/platform/mpfs_hal/common/mss_util.c ****             }
 367              		.loc 1 96 41
 368 00f0 B7270020 		li	a5,536879104
 369 00f4 558F     		or	a4,a3,a4
 370 00f6 0127     		sext.w	a4,a4
 371 00f8 F8C3     		sw	a4,68(a5)
 372              		.loc 1 108 1
 373 00fa 95A8     		j	.L15
 374              	.L13:
  98:../src/platform/mpfs_hal/common/mss_util.c ****             {
 375              		.loc 1 98 21
 376 00fc 834774FE 		lbu	a5,-25(s0)
 377 0100 13F7F70F 		andi	a4,a5,0xff
 378 0104 8D47     		li	a5,3
 379 0106 6318F702 		bne	a4,a5,.L14
 100:../src/platform/mpfs_hal/common/mss_util.c ****             }
 380              		.loc 1 100 41
 381 010a B7270020 		li	a5,536879104
 382 010e BC47     		lw	a5,72(a5)
 383 0110 9B860700 		sext.w	a3,a5
 100:../src/platform/mpfs_hal/common/mss_util.c ****             }
 384              		.loc 1 100 68
 385 0114 8347F4FC 		lbu	a5,-49(s0)
 386 0118 8127     		sext.w	a5,a5
 387 011a C137     		addiw	a5,a5,-16
 388 011c 8127     		sext.w	a5,a5
 100:../src/platform/mpfs_hal/common/mss_util.c ****             }
 389              		.loc 1 100 48
 390 011e 3E87     		mv	a4,a5
 391 0120 8547     		li	a5,1
 392 0122 BB97E700 		sllw	a5,a5,a4
 393 0126 1B870700 		sext.w	a4,a5
 100:../src/platform/mpfs_hal/common/mss_util.c ****             }
 394              		.loc 1 100 41
 395 012a B7270020 		li	a5,536879104
 396 012e 558F     		or	a4,a3,a4
 397 0130 0127     		sext.w	a4,a4
 398 0132 B8C7     		sw	a4,72(a5)
 399              		.loc 1 108 1
 400 0134 2DA8     		j	.L15
 401              	.L14:
 102:../src/platform/mpfs_hal/common/mss_util.c ****             {
 402              		.loc 1 102 21
 403 0136 834774FE 		lbu	a5,-25(s0)
 404 013a 13F7F70F 		andi	a4,a5,0xff
 405 013e 9147     		li	a5,4
 406 0140 6317F702 		bne	a4,a5,.L15
 104:../src/platform/mpfs_hal/common/mss_util.c ****             }
 407              		.loc 1 104 41
 408 0144 B7270020 		li	a5,536879104
 409 0148 FC47     		lw	a5,76(a5)
 410 014a 9B860700 		sext.w	a3,a5
 104:../src/platform/mpfs_hal/common/mss_util.c ****             }
 411              		.loc 1 104 68
 412 014e 8347F4FC 		lbu	a5,-49(s0)
 413 0152 8127     		sext.w	a5,a5
 414 0154 C137     		addiw	a5,a5,-16
 415 0156 8127     		sext.w	a5,a5
 104:../src/platform/mpfs_hal/common/mss_util.c ****             }
 416              		.loc 1 104 48
 417 0158 3E87     		mv	a4,a5
 418 015a 8547     		li	a5,1
 419 015c BB97E700 		sllw	a5,a5,a4
 420 0160 1B870700 		sext.w	a4,a5
 104:../src/platform/mpfs_hal/common/mss_util.c ****             }
 421              		.loc 1 104 41
 422 0164 B7270020 		li	a5,536879104
 423 0168 558F     		or	a4,a3,a4
 424 016a 0127     		sext.w	a4,a4
 425 016c F8C7     		sw	a4,76(a5)
 426              	.L15:
 427              		.loc 1 108 1
 428 016e 0100     		nop
 429 0170 6274     		ld	s0,56(sp)
 430              		.cfi_restore 8
 431              		.cfi_def_cfa 2, 64
 432 0172 2161     		addi	sp,sp,64
 433              		.cfi_def_cfa_offset 0
 434 0174 8280     		jr	ra
 435              		.cfi_endproc
 436              	.LFE25:
 438              		.section	.text.__disable_local_irq,"ax",@progbits
 439              		.align	1
 440              		.globl	__disable_local_irq
 442              	__disable_local_irq:
 443              	.LFB26:
 109:../src/platform/mpfs_hal/common/mss_util.c **** 
 110:../src/platform/mpfs_hal/common/mss_util.c **** /*------------------------------------------------------------------------------
 111:../src/platform/mpfs_hal/common/mss_util.c ****  * Disable particular local interrupt
 112:../src/platform/mpfs_hal/common/mss_util.c ****  */
 113:../src/platform/mpfs_hal/common/mss_util.c **** void __disable_local_irq(uint8_t local_interrupt)
 114:../src/platform/mpfs_hal/common/mss_util.c **** {
 444              		.loc 1 114 1
 445              		.cfi_startproc
 446 0000 7971     		addi	sp,sp,-48
 447              		.cfi_def_cfa_offset 48
 448 0002 22F4     		sd	s0,40(sp)
 449              		.cfi_offset 8, -8
 450 0004 0018     		addi	s0,sp,48
 451              		.cfi_def_cfa 8, 0
 452 0006 AA87     		mv	a5,a0
 453 0008 A30FF4FC 		sb	a5,-33(s0)
 115:../src/platform/mpfs_hal/common/mss_util.c ****     ASSERT(local_interrupt > (int8_t)0);
 454              		.loc 1 115 5
 455 000c 8347F4FD 		lbu	a5,-33(s0)
 456 0010 93F7F70F 		andi	a5,a5,0xff
 457 0014 91E3     		bne	a5,zero,.L17
 458              		.loc 1 115 5 is_stmt 0 discriminator 1
 459              	 #APP
 460              	# 115 "../src/platform/mpfs_hal/common/mss_util.c" 1
 116              	    ASSERT( (local_interrupt <= LOCAL_INT_MAX));
 461              		ebreak
 462              	# 0 "" 2
 463              	 #NO_APP
 464              	.L17:
 465              		.loc 1 116 5 is_stmt 1
 466 0018 8347F4FD 		lbu	a5,-33(s0)
 467 001c 13F7F70F 		andi	a4,a5,0xff
 468 0020 9307F002 		li	a5,47
 469 0024 63F3E700 		bleu	a4,a5,.L18
 470              		.loc 1 116 5 is_stmt 0 discriminator 1
 471              	 #APP
 472              	# 116 "../src/platform/mpfs_hal/common/mss_util.c" 1
 117              	
 473              		ebreak
 474              	# 0 "" 2
 475              	 #NO_APP
 476              	.L18:
 118:../src/platform/mpfs_hal/common/mss_util.c ****     if((local_interrupt > (int8_t)0) && (local_interrupt <= LOCAL_INT_MAX))
 477              		.loc 1 118 7 is_stmt 1
 478 002a 8347F4FD 		lbu	a5,-33(s0)
 479 002e 93F7F70F 		andi	a5,a5,0xff
 480 0032 9DCB     		beq	a5,zero,.L20
 481              		.loc 1 118 38 discriminator 1
 482 0034 8347F4FD 		lbu	a5,-33(s0)
 483 0038 13F7F70F 		andi	a4,a5,0xff
 484 003c 9307F002 		li	a5,47
 485 0040 63E4E702 		bgtu	a4,a5,.L20
 486              	.LBB8:
 119:../src/platform/mpfs_hal/common/mss_util.c ****     {
 120:../src/platform/mpfs_hal/common/mss_util.c ****         clear_csr(mie, (0x1LLU << (int8_t)(local_interrupt + LOCAL_INT_OFFSET_IN_MIE)));  /* mie Re
 487              		.loc 1 120 9
 488 0044 8347F4FD 		lbu	a5,-33(s0)
 489 0048 C127     		addiw	a5,a5,16
 490 004a 93F7F70F 		andi	a5,a5,0xff
 491 004e 9B978701 		slliw	a5,a5,24
 492 0052 9BD78741 		sraiw	a5,a5,24
 493 0056 8127     		sext.w	a5,a5
 494 0058 3E87     		mv	a4,a5
 495 005a 8547     		li	a5,1
 496 005c B397E700 		sll	a5,a5,a4
 497              	 #APP
 498              	# 120 "../src/platform/mpfs_hal/common/mss_util.c" 1
 121              	    }
 499              		csrrc a5, mie, a5
 500              	# 0 "" 2
 501              	 #NO_APP
 502 0064 2334F4FE 		sd	a5,-24(s0)
 503              	.L20:
 504              	.LBE8:
 122:../src/platform/mpfs_hal/common/mss_util.c **** }
 505              		.loc 1 122 1
 506 0068 0100     		nop
 507 006a 2274     		ld	s0,40(sp)
 508              		.cfi_restore 8
 509              		.cfi_def_cfa 2, 48
 510 006c 4561     		addi	sp,sp,48
 511              		.cfi_def_cfa_offset 0
 512 006e 8280     		jr	ra
 513              		.cfi_endproc
 514              	.LFE26:
 516              		.section	.text.readmcycle,"ax",@progbits
 517              		.align	1
 518              		.globl	readmcycle
 520              	readmcycle:
 521              	.LFB27:
 123:../src/platform/mpfs_hal/common/mss_util.c **** 
 124:../src/platform/mpfs_hal/common/mss_util.c **** /**
 125:../src/platform/mpfs_hal/common/mss_util.c ****  * readmcycle(void)
 126:../src/platform/mpfs_hal/common/mss_util.c ****  * @return returns the mcycle count from hart CSR
 127:../src/platform/mpfs_hal/common/mss_util.c ****  */
 128:../src/platform/mpfs_hal/common/mss_util.c **** uint64_t readmcycle(void)
 129:../src/platform/mpfs_hal/common/mss_util.c **** {
 522              		.loc 1 129 1
 523              		.cfi_startproc
 524 0000 0111     		addi	sp,sp,-32
 525              		.cfi_def_cfa_offset 32
 526 0002 22EC     		sd	s0,24(sp)
 527              		.cfi_offset 8, -8
 528 0004 0010     		addi	s0,sp,32
 529              		.cfi_def_cfa 8, 0
 530              	.LBB9:
 130:../src/platform/mpfs_hal/common/mss_util.c ****     return (read_csr(mcycle));
 531              		.loc 1 130 13
 532              	 #APP
 533              	# 130 "../src/platform/mpfs_hal/common/mss_util.c" 1
 131              	}
 534              		csrr a5, mcycle
 535              	# 0 "" 2
 536              	 #NO_APP
 537 000a 2334F4FE 		sd	a5,-24(s0)
 538 000e 833784FE 		ld	a5,-24(s0)
 539              	.LBE9:
 540              		.loc 1 131 1
 541 0012 3E85     		mv	a0,a5
 542 0014 6264     		ld	s0,24(sp)
 543              		.cfi_restore 8
 544              		.cfi_def_cfa 2, 32
 545 0016 0561     		addi	sp,sp,32
 546              		.cfi_def_cfa_offset 0
 547 0018 8280     		jr	ra
 548              		.cfi_endproc
 549              	.LFE27:
 551              		.section	.text.sleep_ms,"ax",@progbits
 552              		.align	1
 553              		.globl	sleep_ms
 555              	sleep_ms:
 556              	.LFB28:
 132:../src/platform/mpfs_hal/common/mss_util.c **** 
 133:../src/platform/mpfs_hal/common/mss_util.c **** void sleep_ms(uint64_t msecs)
 134:../src/platform/mpfs_hal/common/mss_util.c **** {
 557              		.loc 1 134 1
 558              		.cfi_startproc
 559 0000 7971     		addi	sp,sp,-48
 560              		.cfi_def_cfa_offset 48
 561 0002 06F4     		sd	ra,40(sp)
 562 0004 22F0     		sd	s0,32(sp)
 563              		.cfi_offset 1, -8
 564              		.cfi_offset 8, -16
 565 0006 0018     		addi	s0,sp,48
 566              		.cfi_def_cfa 8, 0
 567 0008 233CA4FC 		sd	a0,-40(s0)
 135:../src/platform/mpfs_hal/common/mss_util.c ****     uint64_t starttime = readmtime();
 568              		.loc 1 135 26
 569 000c 97000000 		call	readmtime
 569      E7800000 
 570 0014 2334A4FE 		sd	a0,-24(s0)
 136:../src/platform/mpfs_hal/common/mss_util.c ****     volatile uint64_t endtime = 0U;
 571              		.loc 1 136 23
 572 0018 233004FE 		sd	zero,-32(s0)
 137:../src/platform/mpfs_hal/common/mss_util.c **** 
 138:../src/platform/mpfs_hal/common/mss_util.c ****     while(endtime < (starttime+msecs)) {
 573              		.loc 1 138 10
 574 001c 01A8     		j	.L24
 575              	.L25:
 139:../src/platform/mpfs_hal/common/mss_util.c ****         endtime = readmtime();
 576              		.loc 1 139 19
 577 001e 97000000 		call	readmtime
 577      E7800000 
 578 0026 AA87     		mv	a5,a0
 579              		.loc 1 139 17
 580 0028 2330F4FE 		sd	a5,-32(s0)
 581              	.L24:
 138:../src/platform/mpfs_hal/common/mss_util.c ****         endtime = readmtime();
 582              		.loc 1 138 31
 583 002c 033784FE 		ld	a4,-24(s0)
 584 0030 833784FD 		ld	a5,-40(s0)
 585 0034 3E97     		add	a4,a4,a5
 138:../src/platform/mpfs_hal/common/mss_util.c ****         endtime = readmtime();
 586              		.loc 1 138 19
 587 0036 833704FE 		ld	a5,-32(s0)
 138:../src/platform/mpfs_hal/common/mss_util.c ****         endtime = readmtime();
 588              		.loc 1 138 10
 589 003a E3E2E7FE 		bgtu	a4,a5,.L25
 140:../src/platform/mpfs_hal/common/mss_util.c ****     }
 141:../src/platform/mpfs_hal/common/mss_util.c **** }
 590              		.loc 1 141 1
 591 003e 0100     		nop
 592 0040 A270     		ld	ra,40(sp)
 593              		.cfi_restore 1
 594 0042 0274     		ld	s0,32(sp)
 595              		.cfi_restore 8
 596              		.cfi_def_cfa 2, 48
 597 0044 4561     		addi	sp,sp,48
 598              		.cfi_def_cfa_offset 0
 599 0046 8280     		jr	ra
 600              		.cfi_endproc
 601              	.LFE28:
 603              		.section	.text.sleep_cycles,"ax",@progbits
 604              		.align	1
 605              		.globl	sleep_cycles
 607              	sleep_cycles:
 608              	.LFB29:
 142:../src/platform/mpfs_hal/common/mss_util.c **** 
 143:../src/platform/mpfs_hal/common/mss_util.c **** /**
 144:../src/platform/mpfs_hal/common/mss_util.c ****  * sleep_cycles(uint64_t ncycles)
 145:../src/platform/mpfs_hal/common/mss_util.c ****  * @param number of cycles to sleep
 146:../src/platform/mpfs_hal/common/mss_util.c ****  */
 147:../src/platform/mpfs_hal/common/mss_util.c **** void sleep_cycles(uint64_t ncycles)
 148:../src/platform/mpfs_hal/common/mss_util.c **** {
 609              		.loc 1 148 1
 610              		.cfi_startproc
 611 0000 7971     		addi	sp,sp,-48
 612              		.cfi_def_cfa_offset 48
 613 0002 06F4     		sd	ra,40(sp)
 614 0004 22F0     		sd	s0,32(sp)
 615              		.cfi_offset 1, -8
 616              		.cfi_offset 8, -16
 617 0006 0018     		addi	s0,sp,48
 618              		.cfi_def_cfa 8, 0
 619 0008 233CA4FC 		sd	a0,-40(s0)
 149:../src/platform/mpfs_hal/common/mss_util.c ****     uint64_t starttime = readmcycle();
 620              		.loc 1 149 26
 621 000c 97000000 		call	readmcycle
 621      E7800000 
 622 0014 2334A4FE 		sd	a0,-24(s0)
 150:../src/platform/mpfs_hal/common/mss_util.c ****     volatile uint64_t endtime = 0U;
 623              		.loc 1 150 23
 624 0018 233004FE 		sd	zero,-32(s0)
 151:../src/platform/mpfs_hal/common/mss_util.c **** 
 152:../src/platform/mpfs_hal/common/mss_util.c ****     while(endtime < (starttime + ncycles)) {
 625              		.loc 1 152 10
 626 001c 01A8     		j	.L27
 627              	.L28:
 153:../src/platform/mpfs_hal/common/mss_util.c ****         endtime = readmcycle();
 628              		.loc 1 153 19
 629 001e 97000000 		call	readmcycle
 629      E7800000 
 630 0026 AA87     		mv	a5,a0
 631              		.loc 1 153 17
 632 0028 2330F4FE 		sd	a5,-32(s0)
 633              	.L27:
 152:../src/platform/mpfs_hal/common/mss_util.c ****         endtime = readmcycle();
 634              		.loc 1 152 32
 635 002c 033784FE 		ld	a4,-24(s0)
 636 0030 833784FD 		ld	a5,-40(s0)
 637 0034 3E97     		add	a4,a4,a5
 152:../src/platform/mpfs_hal/common/mss_util.c ****         endtime = readmcycle();
 638              		.loc 1 152 19
 639 0036 833704FE 		ld	a5,-32(s0)
 152:../src/platform/mpfs_hal/common/mss_util.c ****         endtime = readmcycle();
 640              		.loc 1 152 10
 641 003a E3E2E7FE 		bgtu	a4,a5,.L28
 154:../src/platform/mpfs_hal/common/mss_util.c ****     }
 155:../src/platform/mpfs_hal/common/mss_util.c **** }
 642              		.loc 1 155 1
 643 003e 0100     		nop
 644 0040 A270     		ld	ra,40(sp)
 645              		.cfi_restore 1
 646 0042 0274     		ld	s0,32(sp)
 647              		.cfi_restore 8
 648              		.cfi_def_cfa 2, 48
 649 0044 4561     		addi	sp,sp,48
 650              		.cfi_def_cfa_offset 0
 651 0046 8280     		jr	ra
 652              		.cfi_endproc
 653              	.LFE29:
 655              		.section	.text.get_program_counter,"ax",@progbits
 656 0000 01001300 		.align	4
 656      00001300 
 656      00001300 
 656      0000
 657              		.globl	get_program_counter
 659              	get_program_counter:
 660              	.LFB30:
 156:../src/platform/mpfs_hal/common/mss_util.c **** 
 157:../src/platform/mpfs_hal/common/mss_util.c **** /**
 158:../src/platform/mpfs_hal/common/mss_util.c ****  * get_program_counter(void)
 159:../src/platform/mpfs_hal/common/mss_util.c ****  * @return returns the program counter
 160:../src/platform/mpfs_hal/common/mss_util.c ****  */
 161:../src/platform/mpfs_hal/common/mss_util.c **** __attribute__((aligned(16))) uint64_t get_program_counter(void)
 162:../src/platform/mpfs_hal/common/mss_util.c **** {
 661              		.loc 1 162 1
 662              		.cfi_startproc
 663 000e 0111     		addi	sp,sp,-32
 664              		.cfi_def_cfa_offset 32
 665 0010 22EC     		sd	s0,24(sp)
 666              		.cfi_offset 8, -8
 667 0012 0010     		addi	s0,sp,32
 668              		.cfi_def_cfa 8, 0
 163:../src/platform/mpfs_hal/common/mss_util.c ****     uint64_t prog_counter;
 164:../src/platform/mpfs_hal/common/mss_util.c ****     asm volatile ("auipc %0, 0" : "=r"(prog_counter));
 669              		.loc 1 164 5
 670              	 #APP
 671              	# 164 "../src/platform/mpfs_hal/common/mss_util.c" 1
 165              	    return (prog_counter);
 672              		auipc a5, 0
 673              	# 0 "" 2
 674              	 #NO_APP
 675 0018 2334F4FE 		sd	a5,-24(s0)
 676              		.loc 1 165 12
 677 001c 833784FE 		ld	a5,-24(s0)
 166:../src/platform/mpfs_hal/common/mss_util.c **** }
 678              		.loc 1 166 1
 679 0020 3E85     		mv	a0,a5
 680 0022 6264     		ld	s0,24(sp)
 681              		.cfi_restore 8
 682              		.cfi_def_cfa 2, 32
 683 0024 0561     		addi	sp,sp,32
 684              		.cfi_def_cfa_offset 0
 685 0026 8280     		jr	ra
 686              		.cfi_endproc
 687              	.LFE30:
 689 0028 00000000 		.section	.text.get_stack_pointer,"ax",@progbits
 689      00000000 
 690              		.align	1
 691              		.globl	get_stack_pointer
 693              	get_stack_pointer:
 694              	.LFB31:
 167:../src/platform/mpfs_hal/common/mss_util.c **** 
 168:../src/platform/mpfs_hal/common/mss_util.c **** /**
 169:../src/platform/mpfs_hal/common/mss_util.c ****  * get_stack_pointer(void)
 170:../src/platform/mpfs_hal/common/mss_util.c ****  * @return Return the stack pointer
 171:../src/platform/mpfs_hal/common/mss_util.c ****  */
 172:../src/platform/mpfs_hal/common/mss_util.c **** uint64_t get_stack_pointer(void)
 173:../src/platform/mpfs_hal/common/mss_util.c **** {
 695              		.loc 1 173 1
 696              		.cfi_startproc
 697 0000 0111     		addi	sp,sp,-32
 698              		.cfi_def_cfa_offset 32
 699 0002 22EC     		sd	s0,24(sp)
 700              		.cfi_offset 8, -8
 701 0004 0010     		addi	s0,sp,32
 702              		.cfi_def_cfa 8, 0
 174:../src/platform/mpfs_hal/common/mss_util.c ****     uint64_t stack_pointer;
 175:../src/platform/mpfs_hal/common/mss_util.c ****     asm volatile ("addi %0, sp, 0" : "=r"(stack_pointer));
 703              		.loc 1 175 5
 704              	 #APP
 705              	# 175 "../src/platform/mpfs_hal/common/mss_util.c" 1
 176              	    return (stack_pointer);
 706              		addi a5, sp, 0
 707              	# 0 "" 2
 708              	 #NO_APP
 709 000a 2334F4FE 		sd	a5,-24(s0)
 710              		.loc 1 176 12
 711 000e 833784FE 		ld	a5,-24(s0)
 177:../src/platform/mpfs_hal/common/mss_util.c **** }
 712              		.loc 1 177 1
 713 0012 3E85     		mv	a0,a5
 714 0014 6264     		ld	s0,24(sp)
 715              		.cfi_restore 8
 716              		.cfi_def_cfa 2, 32
 717 0016 0561     		addi	sp,sp,32
 718              		.cfi_def_cfa_offset 0
 719 0018 8280     		jr	ra
 720              		.cfi_endproc
 721              	.LFE31:
 723              		.section	.text.get_tp_reg,"ax",@progbits
 724              		.align	1
 725              		.globl	get_tp_reg
 727              	get_tp_reg:
 728              	.LFB32:
 178:../src/platform/mpfs_hal/common/mss_util.c **** 
 179:../src/platform/mpfs_hal/common/mss_util.c **** /**
 180:../src/platform/mpfs_hal/common/mss_util.c ****  * Return the tp register
 181:../src/platform/mpfs_hal/common/mss_util.c ****  * The tp register holds the value of the Hart Common memory HLS once not in an
 182:../src/platform/mpfs_hal/common/mss_util.c ****  * interrupt. If the tp value is used in an interrupt, it is saved first and
 183:../src/platform/mpfs_hal/common/mss_util.c ****  * restored on exit. This conforms to OpenSBI implementation.
 184:../src/platform/mpfs_hal/common/mss_util.c ****  *
 185:../src/platform/mpfs_hal/common/mss_util.c ****  * @return returns the tp register value
 186:../src/platform/mpfs_hal/common/mss_util.c ****  */
 187:../src/platform/mpfs_hal/common/mss_util.c **** uint64_t get_tp_reg(void)
 188:../src/platform/mpfs_hal/common/mss_util.c **** {
 729              		.loc 1 188 1
 730              		.cfi_startproc
 731 0000 0111     		addi	sp,sp,-32
 732              		.cfi_def_cfa_offset 32
 733 0002 22EC     		sd	s0,24(sp)
 734              		.cfi_offset 8, -8
 735 0004 0010     		addi	s0,sp,32
 736              		.cfi_def_cfa 8, 0
 189:../src/platform/mpfs_hal/common/mss_util.c ****     uint64_t tp_reg_val;
 190:../src/platform/mpfs_hal/common/mss_util.c ****     asm volatile ("addi %0, tp, 0" : "=r"(tp_reg_val));
 737              		.loc 1 190 5
 738              	 #APP
 739              	# 190 "../src/platform/mpfs_hal/common/mss_util.c" 1
 191              	    return (tp_reg_val);
 740              		addi a5, tp, 0
 741              	# 0 "" 2
 742              	 #NO_APP
 743 000a 2334F4FE 		sd	a5,-24(s0)
 744              		.loc 1 191 12
 745 000e 833784FE 		ld	a5,-24(s0)
 192:../src/platform/mpfs_hal/common/mss_util.c **** }
 746              		.loc 1 192 1
 747 0012 3E85     		mv	a0,a5
 748 0014 6264     		ld	s0,24(sp)
 749              		.cfi_restore 8
 750              		.cfi_def_cfa 2, 32
 751 0016 0561     		addi	sp,sp,32
 752              		.cfi_def_cfa_offset 0
 753 0018 8280     		jr	ra
 754              		.cfi_endproc
 755              	.LFE32:
 757              		.section	.text.disable_branch_prediction,"ax",@progbits
 758              		.align	1
 759              		.globl	disable_branch_prediction
 761              	disable_branch_prediction:
 762              	.LFB33:
 193:../src/platform/mpfs_hal/common/mss_util.c **** 
 194:../src/platform/mpfs_hal/common/mss_util.c **** #ifdef PRINTF_DEBUG_SUPPORTED
 195:../src/platform/mpfs_hal/common/mss_util.c **** void display_address_of_interest(uint64_t * address_of_interest, int nb_locations) {
 196:../src/platform/mpfs_hal/common/mss_util.c ****   uint64_t * p_addr_of_interest = address_of_interest;
 197:../src/platform/mpfs_hal/common/mss_util.c ****   int inc;
 198:../src/platform/mpfs_hal/common/mss_util.c ****   mpfs_printf(" Displaying address of interest: 0x%lx\n", p_addr_of_interest);
 199:../src/platform/mpfs_hal/common/mss_util.c **** 
 200:../src/platform/mpfs_hal/common/mss_util.c ****   for (inc = 0U; inc < nb_locations; ++inc) {
 201:../src/platform/mpfs_hal/common/mss_util.c ****     mpfs_printf("  address of interest: 0x%lx: 0x%lx\n", p_addr_of_interest, *p_addr_of_interest);
 202:../src/platform/mpfs_hal/common/mss_util.c ****     p_addr_of_interest = p_addr_of_interest + 8;
 203:../src/platform/mpfs_hal/common/mss_util.c ****   }
 204:../src/platform/mpfs_hal/common/mss_util.c **** }
 205:../src/platform/mpfs_hal/common/mss_util.c **** #endif
 206:../src/platform/mpfs_hal/common/mss_util.c **** 
 207:../src/platform/mpfs_hal/common/mss_util.c **** /*------------------------------------------------------------------------------
 208:../src/platform/mpfs_hal/common/mss_util.c ****  * This function disables dynamic branch prediction on the hart from which it
 209:../src/platform/mpfs_hal/common/mss_util.c ****  * executes. It is enabled by default.
 210:../src/platform/mpfs_hal/common/mss_util.c ****  */
 211:../src/platform/mpfs_hal/common/mss_util.c **** void disable_branch_prediction(void)
 212:../src/platform/mpfs_hal/common/mss_util.c **** {
 763              		.loc 1 212 1
 764              		.cfi_startproc
 765 0000 4111     		addi	sp,sp,-16
 766              		.cfi_def_cfa_offset 16
 767 0002 22E4     		sd	s0,8(sp)
 768              		.cfi_offset 8, -8
 769 0004 0008     		addi	s0,sp,16
 770              		.cfi_def_cfa 8, 0
 213:../src/platform/mpfs_hal/common/mss_util.c ****     write_csr(0x7C0, 0x1u);
 771              		.loc 1 213 5
 772              	 #APP
 773              	# 213 "../src/platform/mpfs_hal/common/mss_util.c" 1
 214              	}
 774              		csrw 0x7C0, 1
 775              	# 0 "" 2
 776              		.loc 1 214 1
 777              	 #NO_APP
 778 000a 0100     		nop
 779 000c 2264     		ld	s0,8(sp)
 780              		.cfi_restore 8
 781              		.cfi_def_cfa 2, 16
 782 000e 4101     		addi	sp,sp,16
 783              		.cfi_def_cfa_offset 0
 784 0010 8280     		jr	ra
 785              		.cfi_endproc
 786              	.LFE33:
 788              		.section	.text.enable_branch_prediction,"ax",@progbits
 789              		.align	1
 790              		.globl	enable_branch_prediction
 792              	enable_branch_prediction:
 793              	.LFB34:
 215:../src/platform/mpfs_hal/common/mss_util.c **** 
 216:../src/platform/mpfs_hal/common/mss_util.c **** /*------------------------------------------------------------------------------
 217:../src/platform/mpfs_hal/common/mss_util.c ****  * This function enables dynamic branch prediction on the hart from which it
 218:../src/platform/mpfs_hal/common/mss_util.c ****  * executes.
 219:../src/platform/mpfs_hal/common/mss_util.c ****  */
 220:../src/platform/mpfs_hal/common/mss_util.c **** void enable_branch_prediction(void)
 221:../src/platform/mpfs_hal/common/mss_util.c **** {
 794              		.loc 1 221 1
 795              		.cfi_startproc
 796 0000 4111     		addi	sp,sp,-16
 797              		.cfi_def_cfa_offset 16
 798 0002 22E4     		sd	s0,8(sp)
 799              		.cfi_offset 8, -8
 800 0004 0008     		addi	s0,sp,16
 801              		.cfi_def_cfa 8, 0
 222:../src/platform/mpfs_hal/common/mss_util.c ****     write_csr(0x7C0, 0x0u);
 802              		.loc 1 222 5
 803              	 #APP
 804              	# 222 "../src/platform/mpfs_hal/common/mss_util.c" 1
 223              	}
 805              		csrw 0x7C0, 0
 806              	# 0 "" 2
 807              		.loc 1 223 1
 808              	 #NO_APP
 809 000a 0100     		nop
 810 000c 2264     		ld	s0,8(sp)
 811              		.cfi_restore 8
 812              		.cfi_def_cfa 2, 16
 813 000e 4101     		addi	sp,sp,16
 814              		.cfi_def_cfa_offset 0
 815 0010 8280     		jr	ra
 816              		.cfi_endproc
 817              	.LFE34:
 819              		.text
 820              	.Letext0:
 821              		.file 2 "/home/vinay/Desktop/soft_console/SoftConsole-v2022.2-RISC-V-747/riscv-unknown-elf-gcc/ris
 822              		.file 3 "/home/vinay/Desktop/soft_console/SoftConsole-v2022.2-RISC-V-747/riscv-unknown-elf-gcc/ris
 823              		.file 4 "/home/vinay/Desktop/softconsole_watershed/Water-shed/src/platform/mpfs_hal/common/nwc/../
 824              		.file 5 "/home/vinay/Desktop/softconsole_watershed/Water-shed/src/platform/mpfs_hal/common/nwc/mss
 825              		.file 6 "/home/vinay/Desktop/softconsole_watershed/Water-shed/src/platform/mpfs_hal/common/nwc/mss
 826              		.file 7 "/home/vinay/Desktop/softconsole_watershed/Water-shed/src/platform/mpfs_hal/common/nwc/mss
 827              		.file 8 "/home/vinay/Desktop/softconsole_watershed/Water-shed/src/platform/mpfs_hal/common/mss_mpu
 828              		.file 9 "/home/vinay/Desktop/softconsole_watershed/Water-shed/src/platform/mpfs_hal/common/mss_pli
 829              		.file 10 "/home/vinay/Desktop/softconsole_watershed/Water-shed/src/platform/mpfs_hal/startup_gcc/s