   1              		.file	"mss_mpu.c"
   2              		.option nopic
   3              		.attribute arch, "rv64i2p0_m2p0_a2p0_f2p0_d2p0_c2p0"
   4              		.attribute unaligned_access, 0
   5              		.attribute stack_align, 16
   6              		.text
   7              	.Ltext0:
   8              		.cfi_sections	.debug_frame
   9              		.globl	num_pmp_lut
  10              		.section	.data.num_pmp_lut,"aw"
  11              		.align	3
  14              	num_pmp_lut:
  15 0000 10       		.byte	16
  16 0001 10       		.byte	16
  17 0002 08       		.byte	8
  18 0003 04       		.byte	4
  19 0004 08       		.byte	8
  20 0005 08       		.byte	8
  21 0006 04       		.byte	4
  22 0007 04       		.byte	4
  23 0008 08       		.byte	8
  24 0009 02       		.byte	2
  25              		.globl	mpu_fic0_values
  26              		.section	.rodata.mpu_fic0_values,"a"
  27              		.align	3
  30              	mpu_fic0_values:
  31 0000 FFFFFFFF 		.dword	2233785483895242751
  31      0F00001F 
  32 0008 FFFFFFFF 		.dword	2233785483895242751
  32      0F00001F 
  33 0010 FFFFFFFF 		.dword	2233785483895242751
  33      0F00001F 
  34 0018 FFFFFFFF 		.dword	2233785483895242751
  34      0F00001F 
  35 0020 FFFFFFFF 		.dword	2233785483895242751
  35      0F00001F 
  36 0028 FFFFFFFF 		.dword	2233785483895242751
  36      0F00001F 
  37 0030 FFFFFFFF 		.dword	2233785483895242751
  37      0F00001F 
  38 0038 FFFFFFFF 		.dword	2233785483895242751
  38      0F00001F 
  39 0040 FFFFFFFF 		.dword	2233785483895242751
  39      0F00001F 
  40 0048 FFFFFFFF 		.dword	2233785483895242751
  40      0F00001F 
  41 0050 FFFFFFFF 		.dword	2233785483895242751
  41      0F00001F 
  42 0058 FFFFFFFF 		.dword	2233785483895242751
  42      0F00001F 
  43 0060 FFFFFFFF 		.dword	2233785483895242751
  43      0F00001F 
  44 0068 FFFFFFFF 		.dword	2233785483895242751
  44      0F00001F 
  45 0070 FFFFFFFF 		.dword	2233785483895242751
  45      0F00001F 
  46 0078 FFFFFFFF 		.dword	2233785483895242751
  46      0F00001F 
  47              		.globl	mpu_fic1_values
  48              		.section	.rodata.mpu_fic1_values,"a"
  49              		.align	3
  52              	mpu_fic1_values:
  53 0000 FFFFFFFF 		.dword	2233785483895242751
  53      0F00001F 
  54 0008 FFFFFFFF 		.dword	2233785483895242751
  54      0F00001F 
  55 0010 FFFFFFFF 		.dword	2233785483895242751
  55      0F00001F 
  56 0018 FFFFFFFF 		.dword	2233785483895242751
  56      0F00001F 
  57 0020 FFFFFFFF 		.dword	2233785483895242751
  57      0F00001F 
  58 0028 FFFFFFFF 		.dword	2233785483895242751
  58      0F00001F 
  59 0030 FFFFFFFF 		.dword	2233785483895242751
  59      0F00001F 
  60 0038 FFFFFFFF 		.dword	2233785483895242751
  60      0F00001F 
  61 0040 FFFFFFFF 		.dword	2233785483895242751
  61      0F00001F 
  62 0048 FFFFFFFF 		.dword	2233785483895242751
  62      0F00001F 
  63 0050 FFFFFFFF 		.dword	2233785483895242751
  63      0F00001F 
  64 0058 FFFFFFFF 		.dword	2233785483895242751
  64      0F00001F 
  65 0060 FFFFFFFF 		.dword	2233785483895242751
  65      0F00001F 
  66 0068 FFFFFFFF 		.dword	2233785483895242751
  66      0F00001F 
  67 0070 FFFFFFFF 		.dword	2233785483895242751
  67      0F00001F 
  68 0078 FFFFFFFF 		.dword	2233785483895242751
  68      0F00001F 
  69              		.globl	mpu_fic2_values
  70              		.section	.rodata.mpu_fic2_values,"a"
  71              		.align	3
  74              	mpu_fic2_values:
  75 0000 FFFFFFFF 		.dword	2233785483895242751
  75      0F00001F 
  76 0008 FFFFFFFF 		.dword	2233785483895242751
  76      0F00001F 
  77 0010 FFFFFFFF 		.dword	2233785483895242751
  77      0F00001F 
  78 0018 FFFFFFFF 		.dword	2233785483895242751
  78      0F00001F 
  79 0020 FFFFFFFF 		.dword	2233785483895242751
  79      0F00001F 
  80 0028 FFFFFFFF 		.dword	2233785483895242751
  80      0F00001F 
  81 0030 FFFFFFFF 		.dword	2233785483895242751
  81      0F00001F 
  82 0038 FFFFFFFF 		.dword	2233785483895242751
  82      0F00001F 
  83              		.globl	mpu_crypto_values
  84              		.section	.rodata.mpu_crypto_values,"a"
  85              		.align	3
  88              	mpu_crypto_values:
  89 0000 FFFFFFFF 		.dword	2233785483895242751
  89      0F00001F 
  90 0008 FFFFFFFF 		.dword	2233785483895242751
  90      0F00001F 
  91 0010 FFFFFFFF 		.dword	2233785483895242751
  91      0F00001F 
  92 0018 FFFFFFFF 		.dword	2233785483895242751
  92      0F00001F 
  93              		.globl	mpu_gem0_values
  94              		.section	.rodata.mpu_gem0_values,"a"
  95              		.align	3
  98              	mpu_gem0_values:
  99 0000 FFFFFFFF 		.dword	2233785483895242751
  99      0F00001F 
 100 0008 FFFFFFFF 		.dword	2233785483895242751
 100      0F00001F 
 101 0010 FFFFFFFF 		.dword	2233785483895242751
 101      0F00001F 
 102 0018 FFFFFFFF 		.dword	2233785483895242751
 102      0F00001F 
 103 0020 FFFFFFFF 		.dword	2233785483895242751
 103      0F00001F 
 104 0028 FFFFFFFF 		.dword	2233785483895242751
 104      0F00001F 
 105 0030 FFFFFFFF 		.dword	2233785483895242751
 105      0F00001F 
 106 0038 FFFFFFFF 		.dword	2233785483895242751
 106      0F00001F 
 107              		.globl	mpu_gem1_values
 108              		.section	.rodata.mpu_gem1_values,"a"
 109              		.align	3
 112              	mpu_gem1_values:
 113 0000 FFFFFFFF 		.dword	2233785483895242751
 113      0F00001F 
 114 0008 FFFFFFFF 		.dword	2233785483895242751
 114      0F00001F 
 115 0010 FFFFFFFF 		.dword	2233785483895242751
 115      0F00001F 
 116 0018 FFFFFFFF 		.dword	2233785483895242751
 116      0F00001F 
 117 0020 FFFFFFFF 		.dword	2233785483895242751
 117      0F00001F 
 118 0028 FFFFFFFF 		.dword	2233785483895242751
 118      0F00001F 
 119 0030 FFFFFFFF 		.dword	2233785483895242751
 119      0F00001F 
 120 0038 FFFFFFFF 		.dword	2233785483895242751
 120      0F00001F 
 121              		.globl	mpu_mmc_values
 122              		.section	.rodata.mpu_mmc_values,"a"
 123              		.align	3
 126              	mpu_mmc_values:
 127 0000 FFFFFFFF 		.dword	2233785483895242751
 127      0F00001F 
 128 0008 FFFFFFFF 		.dword	2233785483895242751
 128      0F00001F 
 129 0010 FFFFFFFF 		.dword	2233785483895242751
 129      0F00001F 
 130 0018 FFFFFFFF 		.dword	2233785483895242751
 130      0F00001F 
 131              		.globl	mpu_scb_values
 132              		.section	.rodata.mpu_scb_values,"a"
 133              		.align	3
 136              	mpu_scb_values:
 137 0000 FFFFFFFF 		.dword	2233785483895242751
 137      0F00001F 
 138 0008 FFFFFFFF 		.dword	2233785483895242751
 138      0F00001F 
 139 0010 FFFFFFFF 		.dword	2233785483895242751
 139      0F00001F 
 140 0018 FFFFFFFF 		.dword	2233785483895242751
 140      0F00001F 
 141 0020 FFFFFFFF 		.dword	2233785483895242751
 141      0F00001F 
 142 0028 FFFFFFFF 		.dword	2233785483895242751
 142      0F00001F 
 143 0030 FFFFFFFF 		.dword	2233785483895242751
 143      0F00001F 
 144 0038 FFFFFFFF 		.dword	2233785483895242751
 144      0F00001F 
 145              		.globl	mpu_usb_values
 146              		.section	.rodata.mpu_usb_values,"a"
 147              		.align	3
 150              	mpu_usb_values:
 151 0000 FFFFFFFF 		.dword	2233785483895242751
 151      0F00001F 
 152 0008 FFFFFFFF 		.dword	2233785483895242751
 152      0F00001F 
 153 0010 FFFFFFFF 		.dword	2233785483895242751
 153      0F00001F 
 154 0018 FFFFFFFF 		.dword	2233785483895242751
 154      0F00001F 
 155              		.globl	mpu_trace_values
 156              		.section	.rodata.mpu_trace_values,"a"
 157              		.align	3
 160              	mpu_trace_values:
 161 0000 FFFFFFFF 		.dword	2233785483895242751
 161      0F00001F 
 162 0008 FFFFFFFF 		.dword	2233785483895242751
 162      0F00001F 
 163              		.section	.text.mpu_configure,"ax",@progbits
 164              		.align	1
 165              		.globl	mpu_configure
 167              	mpu_configure:
 168              	.LFB23:
 169              		.file 1 "../src/platform/mpfs_hal/common/mss_mpu.c"
   1:../src/platform/mpfs_hal/common/mss_mpu.c **** /*******************************************************************************
   2:../src/platform/mpfs_hal/common/mss_mpu.c ****  * Copyright 2019-2022 Microchip FPGA Embedded Systems Solutions.
   3:../src/platform/mpfs_hal/common/mss_mpu.c ****  *
   4:../src/platform/mpfs_hal/common/mss_mpu.c ****  * SPDX-License-Identifier: MIT
   5:../src/platform/mpfs_hal/common/mss_mpu.c ****  *
   6:../src/platform/mpfs_hal/common/mss_mpu.c ****  * MPFS HAL Embedded Software
   7:../src/platform/mpfs_hal/common/mss_mpu.c ****  *
   8:../src/platform/mpfs_hal/common/mss_mpu.c ****  */
   9:../src/platform/mpfs_hal/common/mss_mpu.c **** /*******************************************************************************
  10:../src/platform/mpfs_hal/common/mss_mpu.c ****  * @file mss_mpu.c
  11:../src/platform/mpfs_hal/common/mss_mpu.c ****  * @author Microchip-FPGA Embedded Systems Solutions
  12:../src/platform/mpfs_hal/common/mss_mpu.c ****  * @brief PolarFire SoC MSS MPU driver for configuring access regions for the
  13:../src/platform/mpfs_hal/common/mss_mpu.c ****  * external masters.
  14:../src/platform/mpfs_hal/common/mss_mpu.c ****  *
  15:../src/platform/mpfs_hal/common/mss_mpu.c ****  */
  16:../src/platform/mpfs_hal/common/mss_mpu.c **** /*=========================================================================*//**
  17:../src/platform/mpfs_hal/common/mss_mpu.c **** 
  18:../src/platform/mpfs_hal/common/mss_mpu.c ****  *//*=========================================================================*/
  19:../src/platform/mpfs_hal/common/mss_mpu.c **** #include <stdio.h>
  20:../src/platform/mpfs_hal/common/mss_mpu.c **** #include <string.h>
  21:../src/platform/mpfs_hal/common/mss_mpu.c **** #include "mpfs_hal/mss_hal.h"
  22:../src/platform/mpfs_hal/common/mss_mpu.c **** 
  23:../src/platform/mpfs_hal/common/mss_mpu.c **** static uint64_t pmp_get_napot_base_and_range(uint64_t reg, uint64_t *range);
  24:../src/platform/mpfs_hal/common/mss_mpu.c **** 
  25:../src/platform/mpfs_hal/common/mss_mpu.c **** uint8_t num_pmp_lut[10U] = {16U,16U,8U,4U,8U,8U,4U,4U,8U,2U};
  26:../src/platform/mpfs_hal/common/mss_mpu.c **** 
  27:../src/platform/mpfs_hal/common/mss_mpu.c **** /**
  28:../src/platform/mpfs_hal/common/mss_mpu.c ****  * \brief MPU configuration from Libero for FIC0
  29:../src/platform/mpfs_hal/common/mss_mpu.c ****  *
  30:../src/platform/mpfs_hal/common/mss_mpu.c ****  */
  31:../src/platform/mpfs_hal/common/mss_mpu.c **** const uint64_t    mpu_fic0_values[] = {
  32:../src/platform/mpfs_hal/common/mss_mpu.c ****     LIBERO_SETTING_FIC0_MPU_CFG_PMP0,
  33:../src/platform/mpfs_hal/common/mss_mpu.c ****     LIBERO_SETTING_FIC0_MPU_CFG_PMP1,
  34:../src/platform/mpfs_hal/common/mss_mpu.c ****     LIBERO_SETTING_FIC0_MPU_CFG_PMP2,
  35:../src/platform/mpfs_hal/common/mss_mpu.c ****     LIBERO_SETTING_FIC0_MPU_CFG_PMP3,
  36:../src/platform/mpfs_hal/common/mss_mpu.c ****     LIBERO_SETTING_FIC0_MPU_CFG_PMP4,
  37:../src/platform/mpfs_hal/common/mss_mpu.c ****     LIBERO_SETTING_FIC0_MPU_CFG_PMP5,
  38:../src/platform/mpfs_hal/common/mss_mpu.c ****     LIBERO_SETTING_FIC0_MPU_CFG_PMP6,
  39:../src/platform/mpfs_hal/common/mss_mpu.c ****     LIBERO_SETTING_FIC0_MPU_CFG_PMP7,
  40:../src/platform/mpfs_hal/common/mss_mpu.c ****     LIBERO_SETTING_FIC0_MPU_CFG_PMP8,
  41:../src/platform/mpfs_hal/common/mss_mpu.c ****     LIBERO_SETTING_FIC0_MPU_CFG_PMP9,
  42:../src/platform/mpfs_hal/common/mss_mpu.c ****     LIBERO_SETTING_FIC0_MPU_CFG_PMP10,
  43:../src/platform/mpfs_hal/common/mss_mpu.c ****     LIBERO_SETTING_FIC0_MPU_CFG_PMP11,
  44:../src/platform/mpfs_hal/common/mss_mpu.c ****     LIBERO_SETTING_FIC0_MPU_CFG_PMP12,
  45:../src/platform/mpfs_hal/common/mss_mpu.c ****     LIBERO_SETTING_FIC0_MPU_CFG_PMP13,
  46:../src/platform/mpfs_hal/common/mss_mpu.c ****     LIBERO_SETTING_FIC0_MPU_CFG_PMP14,
  47:../src/platform/mpfs_hal/common/mss_mpu.c ****     LIBERO_SETTING_FIC0_MPU_CFG_PMP15
  48:../src/platform/mpfs_hal/common/mss_mpu.c **** };
  49:../src/platform/mpfs_hal/common/mss_mpu.c **** 
  50:../src/platform/mpfs_hal/common/mss_mpu.c **** /**
  51:../src/platform/mpfs_hal/common/mss_mpu.c ****  * \brief MPU configuration from Libero for FIC1
  52:../src/platform/mpfs_hal/common/mss_mpu.c ****  *
  53:../src/platform/mpfs_hal/common/mss_mpu.c ****  */
  54:../src/platform/mpfs_hal/common/mss_mpu.c **** const uint64_t    mpu_fic1_values[] = {
  55:../src/platform/mpfs_hal/common/mss_mpu.c ****     LIBERO_SETTING_FIC1_MPU_CFG_PMP0,
  56:../src/platform/mpfs_hal/common/mss_mpu.c ****     LIBERO_SETTING_FIC1_MPU_CFG_PMP1,
  57:../src/platform/mpfs_hal/common/mss_mpu.c ****     LIBERO_SETTING_FIC1_MPU_CFG_PMP2,
  58:../src/platform/mpfs_hal/common/mss_mpu.c ****     LIBERO_SETTING_FIC1_MPU_CFG_PMP3,
  59:../src/platform/mpfs_hal/common/mss_mpu.c ****     LIBERO_SETTING_FIC1_MPU_CFG_PMP4,
  60:../src/platform/mpfs_hal/common/mss_mpu.c ****     LIBERO_SETTING_FIC1_MPU_CFG_PMP5,
  61:../src/platform/mpfs_hal/common/mss_mpu.c ****     LIBERO_SETTING_FIC1_MPU_CFG_PMP6,
  62:../src/platform/mpfs_hal/common/mss_mpu.c ****     LIBERO_SETTING_FIC1_MPU_CFG_PMP7,
  63:../src/platform/mpfs_hal/common/mss_mpu.c ****     LIBERO_SETTING_FIC1_MPU_CFG_PMP8,
  64:../src/platform/mpfs_hal/common/mss_mpu.c ****     LIBERO_SETTING_FIC1_MPU_CFG_PMP9,
  65:../src/platform/mpfs_hal/common/mss_mpu.c ****     LIBERO_SETTING_FIC1_MPU_CFG_PMP10,
  66:../src/platform/mpfs_hal/common/mss_mpu.c ****     LIBERO_SETTING_FIC1_MPU_CFG_PMP11,
  67:../src/platform/mpfs_hal/common/mss_mpu.c ****     LIBERO_SETTING_FIC1_MPU_CFG_PMP12,
  68:../src/platform/mpfs_hal/common/mss_mpu.c ****     LIBERO_SETTING_FIC1_MPU_CFG_PMP13,
  69:../src/platform/mpfs_hal/common/mss_mpu.c ****     LIBERO_SETTING_FIC1_MPU_CFG_PMP14,
  70:../src/platform/mpfs_hal/common/mss_mpu.c ****     LIBERO_SETTING_FIC1_MPU_CFG_PMP15
  71:../src/platform/mpfs_hal/common/mss_mpu.c **** };
  72:../src/platform/mpfs_hal/common/mss_mpu.c **** 
  73:../src/platform/mpfs_hal/common/mss_mpu.c **** /**
  74:../src/platform/mpfs_hal/common/mss_mpu.c ****  * \brief MPU configuration from Libero for FIC2
  75:../src/platform/mpfs_hal/common/mss_mpu.c ****  *
  76:../src/platform/mpfs_hal/common/mss_mpu.c ****  */
  77:../src/platform/mpfs_hal/common/mss_mpu.c **** const uint64_t    mpu_fic2_values[] = {
  78:../src/platform/mpfs_hal/common/mss_mpu.c ****     LIBERO_SETTING_FIC2_MPU_CFG_PMP0,
  79:../src/platform/mpfs_hal/common/mss_mpu.c ****     LIBERO_SETTING_FIC2_MPU_CFG_PMP1,
  80:../src/platform/mpfs_hal/common/mss_mpu.c ****     LIBERO_SETTING_FIC2_MPU_CFG_PMP2,
  81:../src/platform/mpfs_hal/common/mss_mpu.c ****     LIBERO_SETTING_FIC2_MPU_CFG_PMP3,
  82:../src/platform/mpfs_hal/common/mss_mpu.c ****     LIBERO_SETTING_FIC2_MPU_CFG_PMP4,
  83:../src/platform/mpfs_hal/common/mss_mpu.c ****     LIBERO_SETTING_FIC2_MPU_CFG_PMP5,
  84:../src/platform/mpfs_hal/common/mss_mpu.c ****     LIBERO_SETTING_FIC2_MPU_CFG_PMP6,
  85:../src/platform/mpfs_hal/common/mss_mpu.c ****     LIBERO_SETTING_FIC2_MPU_CFG_PMP7,
  86:../src/platform/mpfs_hal/common/mss_mpu.c **** };
  87:../src/platform/mpfs_hal/common/mss_mpu.c **** 
  88:../src/platform/mpfs_hal/common/mss_mpu.c **** /**
  89:../src/platform/mpfs_hal/common/mss_mpu.c ****  * \brief MPU configuration from Libero for ATHENA
  90:../src/platform/mpfs_hal/common/mss_mpu.c ****  *
  91:../src/platform/mpfs_hal/common/mss_mpu.c ****  */
  92:../src/platform/mpfs_hal/common/mss_mpu.c **** const uint64_t    mpu_crypto_values[] = {
  93:../src/platform/mpfs_hal/common/mss_mpu.c ****     LIBERO_SETTING_CRYPTO_MPU_CFG_PMP0,
  94:../src/platform/mpfs_hal/common/mss_mpu.c ****     LIBERO_SETTING_CRYPTO_MPU_CFG_PMP1,
  95:../src/platform/mpfs_hal/common/mss_mpu.c ****     LIBERO_SETTING_CRYPTO_MPU_CFG_PMP2,
  96:../src/platform/mpfs_hal/common/mss_mpu.c ****     LIBERO_SETTING_CRYPTO_MPU_CFG_PMP3,
  97:../src/platform/mpfs_hal/common/mss_mpu.c **** };
  98:../src/platform/mpfs_hal/common/mss_mpu.c **** 
  99:../src/platform/mpfs_hal/common/mss_mpu.c **** /**
 100:../src/platform/mpfs_hal/common/mss_mpu.c ****  * \brief MPU configuration from Libero for GEM0
 101:../src/platform/mpfs_hal/common/mss_mpu.c ****  *
 102:../src/platform/mpfs_hal/common/mss_mpu.c ****  */
 103:../src/platform/mpfs_hal/common/mss_mpu.c **** const uint64_t    mpu_gem0_values[] = {
 104:../src/platform/mpfs_hal/common/mss_mpu.c ****     LIBERO_SETTING_GEM0_MPU_CFG_PMP0,
 105:../src/platform/mpfs_hal/common/mss_mpu.c ****     LIBERO_SETTING_GEM0_MPU_CFG_PMP1,
 106:../src/platform/mpfs_hal/common/mss_mpu.c ****     LIBERO_SETTING_GEM0_MPU_CFG_PMP2,
 107:../src/platform/mpfs_hal/common/mss_mpu.c ****     LIBERO_SETTING_GEM0_MPU_CFG_PMP3,
 108:../src/platform/mpfs_hal/common/mss_mpu.c ****     LIBERO_SETTING_GEM0_MPU_CFG_PMP4,
 109:../src/platform/mpfs_hal/common/mss_mpu.c ****     LIBERO_SETTING_GEM0_MPU_CFG_PMP5,
 110:../src/platform/mpfs_hal/common/mss_mpu.c ****     LIBERO_SETTING_GEM0_MPU_CFG_PMP6,
 111:../src/platform/mpfs_hal/common/mss_mpu.c ****     LIBERO_SETTING_GEM0_MPU_CFG_PMP7,
 112:../src/platform/mpfs_hal/common/mss_mpu.c **** };
 113:../src/platform/mpfs_hal/common/mss_mpu.c **** 
 114:../src/platform/mpfs_hal/common/mss_mpu.c **** /**
 115:../src/platform/mpfs_hal/common/mss_mpu.c ****  * \brief MPU configuration from Libero for GEM1
 116:../src/platform/mpfs_hal/common/mss_mpu.c ****  *
 117:../src/platform/mpfs_hal/common/mss_mpu.c ****  */
 118:../src/platform/mpfs_hal/common/mss_mpu.c **** const uint64_t    mpu_gem1_values[] = {
 119:../src/platform/mpfs_hal/common/mss_mpu.c ****     LIBERO_SETTING_GEM1_MPU_CFG_PMP0,
 120:../src/platform/mpfs_hal/common/mss_mpu.c ****     LIBERO_SETTING_GEM1_MPU_CFG_PMP1,
 121:../src/platform/mpfs_hal/common/mss_mpu.c ****     LIBERO_SETTING_GEM1_MPU_CFG_PMP2,
 122:../src/platform/mpfs_hal/common/mss_mpu.c ****     LIBERO_SETTING_GEM1_MPU_CFG_PMP3,
 123:../src/platform/mpfs_hal/common/mss_mpu.c ****     LIBERO_SETTING_GEM1_MPU_CFG_PMP4,
 124:../src/platform/mpfs_hal/common/mss_mpu.c ****     LIBERO_SETTING_GEM1_MPU_CFG_PMP5,
 125:../src/platform/mpfs_hal/common/mss_mpu.c ****     LIBERO_SETTING_GEM1_MPU_CFG_PMP6,
 126:../src/platform/mpfs_hal/common/mss_mpu.c ****     LIBERO_SETTING_GEM1_MPU_CFG_PMP7,
 127:../src/platform/mpfs_hal/common/mss_mpu.c **** };
 128:../src/platform/mpfs_hal/common/mss_mpu.c **** 
 129:../src/platform/mpfs_hal/common/mss_mpu.c **** /**
 130:../src/platform/mpfs_hal/common/mss_mpu.c ****  * \brief MPU configuration from Libero for MMC
 131:../src/platform/mpfs_hal/common/mss_mpu.c ****  *
 132:../src/platform/mpfs_hal/common/mss_mpu.c ****  */
 133:../src/platform/mpfs_hal/common/mss_mpu.c **** const uint64_t    mpu_mmc_values[] = {
 134:../src/platform/mpfs_hal/common/mss_mpu.c ****     LIBERO_SETTING_MMC_MPU_CFG_PMP0,
 135:../src/platform/mpfs_hal/common/mss_mpu.c ****     LIBERO_SETTING_MMC_MPU_CFG_PMP1,
 136:../src/platform/mpfs_hal/common/mss_mpu.c ****     LIBERO_SETTING_MMC_MPU_CFG_PMP2,
 137:../src/platform/mpfs_hal/common/mss_mpu.c ****     LIBERO_SETTING_MMC_MPU_CFG_PMP3,
 138:../src/platform/mpfs_hal/common/mss_mpu.c **** };
 139:../src/platform/mpfs_hal/common/mss_mpu.c **** 
 140:../src/platform/mpfs_hal/common/mss_mpu.c **** /**
 141:../src/platform/mpfs_hal/common/mss_mpu.c ****  * \brief MPU configuration from Libero for SCB
 142:../src/platform/mpfs_hal/common/mss_mpu.c ****  *
 143:../src/platform/mpfs_hal/common/mss_mpu.c ****  */
 144:../src/platform/mpfs_hal/common/mss_mpu.c **** const uint64_t    mpu_scb_values[] = {
 145:../src/platform/mpfs_hal/common/mss_mpu.c ****     LIBERO_SETTING_SCB_MPU_CFG_PMP0,
 146:../src/platform/mpfs_hal/common/mss_mpu.c ****     LIBERO_SETTING_SCB_MPU_CFG_PMP1,
 147:../src/platform/mpfs_hal/common/mss_mpu.c ****     LIBERO_SETTING_SCB_MPU_CFG_PMP2,
 148:../src/platform/mpfs_hal/common/mss_mpu.c ****     LIBERO_SETTING_SCB_MPU_CFG_PMP3,
 149:../src/platform/mpfs_hal/common/mss_mpu.c ****     LIBERO_SETTING_SCB_MPU_CFG_PMP4,
 150:../src/platform/mpfs_hal/common/mss_mpu.c ****     LIBERO_SETTING_SCB_MPU_CFG_PMP5,
 151:../src/platform/mpfs_hal/common/mss_mpu.c ****     LIBERO_SETTING_SCB_MPU_CFG_PMP6,
 152:../src/platform/mpfs_hal/common/mss_mpu.c ****     LIBERO_SETTING_SCB_MPU_CFG_PMP7,
 153:../src/platform/mpfs_hal/common/mss_mpu.c **** };
 154:../src/platform/mpfs_hal/common/mss_mpu.c **** 
 155:../src/platform/mpfs_hal/common/mss_mpu.c **** /**
 156:../src/platform/mpfs_hal/common/mss_mpu.c ****  * \brief MPU configuration from Libero for USB
 157:../src/platform/mpfs_hal/common/mss_mpu.c ****  *
 158:../src/platform/mpfs_hal/common/mss_mpu.c ****  */
 159:../src/platform/mpfs_hal/common/mss_mpu.c **** const uint64_t    mpu_usb_values[] = {
 160:../src/platform/mpfs_hal/common/mss_mpu.c ****     LIBERO_SETTING_USB_MPU_CFG_PMP0,
 161:../src/platform/mpfs_hal/common/mss_mpu.c ****     LIBERO_SETTING_USB_MPU_CFG_PMP1,
 162:../src/platform/mpfs_hal/common/mss_mpu.c ****     LIBERO_SETTING_USB_MPU_CFG_PMP2,
 163:../src/platform/mpfs_hal/common/mss_mpu.c ****     LIBERO_SETTING_USB_MPU_CFG_PMP3,
 164:../src/platform/mpfs_hal/common/mss_mpu.c **** };
 165:../src/platform/mpfs_hal/common/mss_mpu.c **** 
 166:../src/platform/mpfs_hal/common/mss_mpu.c **** /**
 167:../src/platform/mpfs_hal/common/mss_mpu.c ****  * \brief MPU configuration from Libero for TRACE
 168:../src/platform/mpfs_hal/common/mss_mpu.c ****  *
 169:../src/platform/mpfs_hal/common/mss_mpu.c ****  */
 170:../src/platform/mpfs_hal/common/mss_mpu.c **** const uint64_t    mpu_trace_values[] = {
 171:../src/platform/mpfs_hal/common/mss_mpu.c ****     LIBERO_SETTING_TRACE_MPU_CFG_PMP0,
 172:../src/platform/mpfs_hal/common/mss_mpu.c ****     LIBERO_SETTING_TRACE_MPU_CFG_PMP1,
 173:../src/platform/mpfs_hal/common/mss_mpu.c **** };
 174:../src/platform/mpfs_hal/common/mss_mpu.c **** 
 175:../src/platform/mpfs_hal/common/mss_mpu.c **** 
 176:../src/platform/mpfs_hal/common/mss_mpu.c **** /***************************************************************************//**
 177:../src/platform/mpfs_hal/common/mss_mpu.c ****  * MSS_MPU_auto_configure()
 178:../src/platform/mpfs_hal/common/mss_mpu.c ****  * Set MPU's up with configuration from Libero
 179:../src/platform/mpfs_hal/common/mss_mpu.c ****  *
 180:../src/platform/mpfs_hal/common/mss_mpu.c ****  *
 181:../src/platform/mpfs_hal/common/mss_mpu.c ****  * @return
 182:../src/platform/mpfs_hal/common/mss_mpu.c ****  */
 183:../src/platform/mpfs_hal/common/mss_mpu.c **** uint8_t mpu_configure(void)
 184:../src/platform/mpfs_hal/common/mss_mpu.c **** {
 170              		.loc 1 184 1
 171              		.cfi_startproc
 172 0000 4111     		addi	sp,sp,-16
 173              		.cfi_def_cfa_offset 16
 174 0002 06E4     		sd	ra,8(sp)
 175 0004 22E0     		sd	s0,0(sp)
 176              		.cfi_offset 1, -8
 177              		.cfi_offset 8, -16
 178 0006 0008     		addi	s0,sp,16
 179              		.cfi_def_cfa 8, 0
 185:../src/platform/mpfs_hal/common/mss_mpu.c ****     config_64_copy((void *)(&(MSS_MPU(MSS_MPU_FIC0)->PMPCFG)),
 180              		.loc 1 185 5
 181 0008 13060008 		li	a2,128
 182 000c 97050000 		lla	a1,mpu_fic0_values
 182      93850500 
 183 0014 37550020 		li	a0,536891392
 184 0018 97000000 		call	config_64_copy
 184      E7800000 
 186:../src/platform/mpfs_hal/common/mss_mpu.c ****                  &(mpu_fic0_values),
 187:../src/platform/mpfs_hal/common/mss_mpu.c ****                  sizeof(mpu_fic0_values));
 188:../src/platform/mpfs_hal/common/mss_mpu.c **** 
 189:../src/platform/mpfs_hal/common/mss_mpu.c ****     config_64_copy((void *)(&(MSS_MPU(MSS_MPU_FIC1)->PMPCFG)),
 185              		.loc 1 189 5
 186 0020 13060008 		li	a2,128
 187 0024 97050000 		lla	a1,mpu_fic1_values
 187      93850500 
 188 002c B7570020 		li	a5,536891392
 189 0030 13850710 		addi	a0,a5,256
 190 0034 97000000 		call	config_64_copy
 190      E7800000 
 190:../src/platform/mpfs_hal/common/mss_mpu.c ****                 &(mpu_fic1_values),
 191:../src/platform/mpfs_hal/common/mss_mpu.c ****                 sizeof(mpu_fic1_values));
 192:../src/platform/mpfs_hal/common/mss_mpu.c **** 
 193:../src/platform/mpfs_hal/common/mss_mpu.c ****     config_64_copy((void *)(&(MSS_MPU(MSS_MPU_FIC2)->PMPCFG)),
 191              		.loc 1 193 5
 192 003c 13060004 		li	a2,64
 193 0040 97050000 		lla	a1,mpu_fic2_values
 193      93850500 
 194 0048 B7570020 		li	a5,536891392
 195 004c 13850720 		addi	a0,a5,512
 196 0050 97000000 		call	config_64_copy
 196      E7800000 
 194:../src/platform/mpfs_hal/common/mss_mpu.c ****                 &(mpu_fic2_values),
 195:../src/platform/mpfs_hal/common/mss_mpu.c ****                 sizeof(mpu_fic2_values));
 196:../src/platform/mpfs_hal/common/mss_mpu.c **** 
 197:../src/platform/mpfs_hal/common/mss_mpu.c ****     config_64_copy((void *)(&(MSS_MPU(MSS_MPU_CRYPTO)->PMPCFG)),
 197              		.loc 1 197 5
 198 0058 13060002 		li	a2,32
 199 005c 97050000 		lla	a1,mpu_crypto_values
 199      93850500 
 200 0064 B7570020 		li	a5,536891392
 201 0068 13850730 		addi	a0,a5,768
 202 006c 97000000 		call	config_64_copy
 202      E7800000 
 198:../src/platform/mpfs_hal/common/mss_mpu.c ****                 &(mpu_crypto_values),
 199:../src/platform/mpfs_hal/common/mss_mpu.c ****                 sizeof(mpu_crypto_values));
 200:../src/platform/mpfs_hal/common/mss_mpu.c **** 
 201:../src/platform/mpfs_hal/common/mss_mpu.c ****     config_64_copy((void *)(&(MSS_MPU(MSS_MPU_GEM0)->PMPCFG)),
 203              		.loc 1 201 5
 204 0074 13060004 		li	a2,64
 205 0078 97050000 		lla	a1,mpu_gem0_values
 205      93850500 
 206 0080 B7570020 		li	a5,536891392
 207 0084 13850740 		addi	a0,a5,1024
 208 0088 97000000 		call	config_64_copy
 208      E7800000 
 202:../src/platform/mpfs_hal/common/mss_mpu.c ****                 &(mpu_gem0_values),
 203:../src/platform/mpfs_hal/common/mss_mpu.c ****                 sizeof(mpu_gem0_values));
 204:../src/platform/mpfs_hal/common/mss_mpu.c **** 
 205:../src/platform/mpfs_hal/common/mss_mpu.c ****     config_64_copy((void *)(&(MSS_MPU(MSS_MPU_GEM1)->PMPCFG)),
 209              		.loc 1 205 5
 210 0090 13060004 		li	a2,64
 211 0094 97050000 		lla	a1,mpu_gem1_values
 211      93850500 
 212 009c B7570020 		li	a5,536891392
 213 00a0 13850750 		addi	a0,a5,1280
 214 00a4 97000000 		call	config_64_copy
 214      E7800000 
 206:../src/platform/mpfs_hal/common/mss_mpu.c ****                 &(mpu_gem1_values),
 207:../src/platform/mpfs_hal/common/mss_mpu.c ****                 sizeof(mpu_gem1_values));
 208:../src/platform/mpfs_hal/common/mss_mpu.c **** 
 209:../src/platform/mpfs_hal/common/mss_mpu.c ****     config_64_copy((void *)(&(MSS_MPU(MSS_MPU_USB)->PMPCFG)),
 215              		.loc 1 209 5
 216 00ac 13060002 		li	a2,32
 217 00b0 97050000 		lla	a1,mpu_usb_values
 217      93850500 
 218 00b8 B7570020 		li	a5,536891392
 219 00bc 13850760 		addi	a0,a5,1536
 220 00c0 97000000 		call	config_64_copy
 220      E7800000 
 210:../src/platform/mpfs_hal/common/mss_mpu.c ****                 &(mpu_usb_values),
 211:../src/platform/mpfs_hal/common/mss_mpu.c ****                 sizeof(mpu_usb_values));
 212:../src/platform/mpfs_hal/common/mss_mpu.c **** 
 213:../src/platform/mpfs_hal/common/mss_mpu.c ****     config_64_copy((void *)(&(MSS_MPU(MSS_MPU_MMC)->PMPCFG)),
 221              		.loc 1 213 5
 222 00c8 13060002 		li	a2,32
 223 00cc 97050000 		lla	a1,mpu_mmc_values
 223      93850500 
 224 00d4 B7570020 		li	a5,536891392
 225 00d8 13850770 		addi	a0,a5,1792
 226 00dc 97000000 		call	config_64_copy
 226      E7800000 
 214:../src/platform/mpfs_hal/common/mss_mpu.c ****                 &(mpu_mmc_values),
 215:../src/platform/mpfs_hal/common/mss_mpu.c ****                 sizeof(mpu_mmc_values));
 216:../src/platform/mpfs_hal/common/mss_mpu.c **** 
 217:../src/platform/mpfs_hal/common/mss_mpu.c ****     config_64_copy((void *)(&(MSS_MPU(MSS_MPU_SCB)->PMPCFG)),
 227              		.loc 1 217 5
 228 00e4 13060004 		li	a2,64
 229 00e8 97050000 		lla	a1,mpu_scb_values
 229      93850500 
 230 00f0 B7670020 		li	a5,536895488
 231 00f4 13850780 		addi	a0,a5,-2048
 232 00f8 97000000 		call	config_64_copy
 232      E7800000 
 218:../src/platform/mpfs_hal/common/mss_mpu.c ****                 &(mpu_scb_values),
 219:../src/platform/mpfs_hal/common/mss_mpu.c ****                 sizeof(mpu_scb_values));
 220:../src/platform/mpfs_hal/common/mss_mpu.c **** 
 221:../src/platform/mpfs_hal/common/mss_mpu.c ****     config_64_copy((void *)(&(MSS_MPU(MSS_MPU_TRACE)->PMPCFG)),
 233              		.loc 1 221 5
 234 0100 4146     		li	a2,16
 235 0102 97050000 		lla	a1,mpu_trace_values
 235      93850500 
 236 010a B7670020 		li	a5,536895488
 237 010e 13850790 		addi	a0,a5,-1792
 238 0112 97000000 		call	config_64_copy
 238      E7800000 
 222:../src/platform/mpfs_hal/common/mss_mpu.c ****                 &(mpu_trace_values),
 223:../src/platform/mpfs_hal/common/mss_mpu.c ****                 sizeof(mpu_trace_values));
 224:../src/platform/mpfs_hal/common/mss_mpu.c **** 
 225:../src/platform/mpfs_hal/common/mss_mpu.c ****     return(0);
 239              		.loc 1 225 11
 240 011a 8147     		li	a5,0
 226:../src/platform/mpfs_hal/common/mss_mpu.c **** }
 241              		.loc 1 226 1
 242 011c 3E85     		mv	a0,a5
 243 011e A260     		ld	ra,8(sp)
 244              		.cfi_restore 1
 245 0120 0264     		ld	s0,0(sp)
 246              		.cfi_restore 8
 247              		.cfi_def_cfa 2, 16
 248 0122 4101     		addi	sp,sp,16
 249              		.cfi_def_cfa_offset 0
 250 0124 8280     		jr	ra
 251              		.cfi_endproc
 252              	.LFE23:
 254              		.section	.text.MSS_MPU_configure,"ax",@progbits
 255              		.align	1
 256              		.globl	MSS_MPU_configure
 258              	MSS_MPU_configure:
 259              	.LFB24:
 227:../src/platform/mpfs_hal/common/mss_mpu.c **** 
 228:../src/platform/mpfs_hal/common/mss_mpu.c **** 
 229:../src/platform/mpfs_hal/common/mss_mpu.c **** 
 230:../src/platform/mpfs_hal/common/mss_mpu.c **** 
 231:../src/platform/mpfs_hal/common/mss_mpu.c **** 
 232:../src/platform/mpfs_hal/common/mss_mpu.c **** /***************************************************************************//**
 233:../src/platform/mpfs_hal/common/mss_mpu.c **** */
 234:../src/platform/mpfs_hal/common/mss_mpu.c **** uint8_t MSS_MPU_configure(mss_mpu_mport_t master_port,
 235:../src/platform/mpfs_hal/common/mss_mpu.c ****                                         mss_mpu_pmp_region_t pmp_region,
 236:../src/platform/mpfs_hal/common/mss_mpu.c ****                                         uint64_t base,
 237:../src/platform/mpfs_hal/common/mss_mpu.c ****                                         uint64_t size,
 238:../src/platform/mpfs_hal/common/mss_mpu.c ****                                         uint8_t permission,
 239:../src/platform/mpfs_hal/common/mss_mpu.c ****                                         mss_mpu_addrm_t matching_mode,
 240:../src/platform/mpfs_hal/common/mss_mpu.c ****                                         uint8_t lock_en)
 241:../src/platform/mpfs_hal/common/mss_mpu.c **** {
 260              		.loc 1 241 1
 261              		.cfi_startproc
 262 0000 5D71     		addi	sp,sp,-80
 263              		.cfi_def_cfa_offset 80
 264 0002 A2E4     		sd	s0,72(sp)
 265              		.cfi_offset 8, -8
 266 0004 8008     		addi	s0,sp,80
 267              		.cfi_def_cfa 8, 0
 268 0006 2330C4FC 		sd	a2,-64(s0)
 269 000a 233CD4FA 		sd	a3,-72(s0)
 270 000e 3A86     		mv	a2,a4
 271 0010 BE86     		mv	a3,a5
 272 0012 4287     		mv	a4,a6
 273 0014 AA87     		mv	a5,a0
 274 0016 2326F4FC 		sw	a5,-52(s0)
 275 001a AE87     		mv	a5,a1
 276 001c 2324F4FC 		sw	a5,-56(s0)
 277 0020 B287     		mv	a5,a2
 278 0022 A30BF4FA 		sb	a5,-73(s0)
 279 0026 B687     		mv	a5,a3
 280 0028 2328F4FA 		sw	a5,-80(s0)
 281 002c BA87     		mv	a5,a4
 282 002e 230BF4FA 		sb	a5,-74(s0)
 242:../src/platform/mpfs_hal/common/mss_mpu.c ****     uint64_t temp = size, cnt=0ULL;
 283              		.loc 1 242 14
 284 0032 833784FB 		ld	a5,-72(s0)
 285 0036 2334F4FE 		sd	a5,-24(s0)
 286              		.loc 1 242 27
 287 003a 233004FE 		sd	zero,-32(s0)
 243:../src/platform/mpfs_hal/common/mss_mpu.c ****     uint64_t range;
 244:../src/platform/mpfs_hal/common/mss_mpu.c **** 
 245:../src/platform/mpfs_hal/common/mss_mpu.c ****     /*size must be minimum 4k
 246:../src/platform/mpfs_hal/common/mss_mpu.c ****       Size must be power of 2
 247:../src/platform/mpfs_hal/common/mss_mpu.c ****       different masters have different number of regions*/
 248:../src/platform/mpfs_hal/common/mss_mpu.c ****     if((size >= 4096ULL) && (0U == (size & (size - 1U))) && (pmp_region < num_pmp_lut[master_port])
 288              		.loc 1 248 7
 289 003e 033784FB 		ld	a4,-72(s0)
 290 0042 8567     		li	a5,4096
 291 0044 6363F710 		bltu	a4,a5,.L4
 292              		.loc 1 248 50 discriminator 1
 293 0048 833784FB 		ld	a5,-72(s0)
 294 004c 1387F7FF 		addi	a4,a5,-1
 295              		.loc 1 248 42 discriminator 1
 296 0050 833784FB 		ld	a5,-72(s0)
 297 0054 F98F     		and	a5,a4,a5
 298              		.loc 1 248 26 discriminator 1
 299 0056 F5EB     		bne	a5,zero,.L4
 300              		.loc 1 248 86 discriminator 2
 301 0058 17070000 		lla	a4,num_pmp_lut
 301      13070700 
 302 0060 8367C4FC 		lwu	a5,-52(s0)
 303 0064 BA97     		add	a5,a4,a5
 304 0066 83C70700 		lbu	a5,0(a5)
 305 006a 1B870700 		sext.w	a4,a5
 306              		.loc 1 248 58 discriminator 2
 307 006e 832784FC 		lw	a5,-56(s0)
 308 0072 8127     		sext.w	a5,a5
 309 0074 63FBE70C 		bgeu	a5,a4,.L4
 249:../src/platform/mpfs_hal/common/mss_mpu.c ****     {
 250:../src/platform/mpfs_hal/common/mss_mpu.c ****         while((0 == (temp & 0x01U)))
 310              		.loc 1 250 14
 311 0078 19A8     		j	.L5
 312              	.L6:
 251:../src/platform/mpfs_hal/common/mss_mpu.c ****         {
 252:../src/platform/mpfs_hal/common/mss_mpu.c ****             cnt++;
 313              		.loc 1 252 16
 314 007a 833704FE 		ld	a5,-32(s0)
 315 007e 8507     		addi	a5,a5,1
 316 0080 2330F4FE 		sd	a5,-32(s0)
 253:../src/platform/mpfs_hal/common/mss_mpu.c ****             temp >>= 1U;
 317              		.loc 1 253 18
 318 0084 833784FE 		ld	a5,-24(s0)
 319 0088 8583     		srli	a5,a5,1
 320 008a 2334F4FE 		sd	a5,-24(s0)
 321              	.L5:
 250:../src/platform/mpfs_hal/common/mss_mpu.c ****         {
 322              		.loc 1 250 27
 323 008e 833784FE 		ld	a5,-24(s0)
 324 0092 858B     		andi	a5,a5,1
 250:../src/platform/mpfs_hal/common/mss_mpu.c ****         {
 325              		.loc 1 250 14
 326 0094 FDD3     		beq	a5,zero,.L6
 254:../src/platform/mpfs_hal/common/mss_mpu.c ****         }
 255:../src/platform/mpfs_hal/common/mss_mpu.c **** 
 256:../src/platform/mpfs_hal/common/mss_mpu.c ****         range = (1ULL << (cnt-1U))-1U;
 327              		.loc 1 256 30
 328 0096 833704FE 		ld	a5,-32(s0)
 329 009a 8127     		sext.w	a5,a5
 330 009c FD37     		addiw	a5,a5,-1
 331 009e 8127     		sext.w	a5,a5
 332              		.loc 1 256 23
 333 00a0 3E87     		mv	a4,a5
 334 00a2 8547     		li	a5,1
 335 00a4 B397E700 		sll	a5,a5,a4
 336              		.loc 1 256 15
 337 00a8 FD17     		addi	a5,a5,-1
 338 00aa 233CF4FC 		sd	a5,-40(s0)
 257:../src/platform/mpfs_hal/common/mss_mpu.c **** 
 258:../src/platform/mpfs_hal/common/mss_mpu.c ****         MSS_MPU(master_port)->PMPCFG[pmp_region].raw = (base | range) >> 2U;
 339              		.loc 1 258 62
 340 00ae 033704FC 		ld	a4,-64(s0)
 341 00b2 833784FD 		ld	a5,-40(s0)
 342 00b6 D98F     		or	a5,a4,a5
 343              		.loc 1 258 9
 344 00b8 0327C4FC 		lw	a4,-52(s0)
 345 00bc 1B178700 		slliw	a4,a4,8
 346 00c0 0127     		sext.w	a4,a4
 347 00c2 93160702 		slli	a3,a4,32
 348 00c6 8192     		srli	a3,a3,32
 349 00c8 37570020 		li	a4,536891392
 350 00cc 3697     		add	a4,a3,a4
 351 00ce BA86     		mv	a3,a4
 352              		.loc 1 258 71
 353 00d0 13D72700 		srli	a4,a5,2
 354              		.loc 1 258 54
 355 00d4 836784FC 		lwu	a5,-56(s0)
 356 00d8 8E07     		slli	a5,a5,3
 357 00da B697     		add	a5,a3,a5
 358 00dc 98E3     		sd	a4,0(a5)
 259:../src/platform/mpfs_hal/common/mss_mpu.c **** 
 260:../src/platform/mpfs_hal/common/mss_mpu.c ****         MSS_MPU(master_port)->PMPCFG[pmp_region].MPUCFG_TypeDef.mode = (uint8_t)(permission |
 261:../src/platform/mpfs_hal/common/mss_mpu.c ****                                               (uint8_t)(matching_mode << 3U) |
 359              		.loc 1 261 47
 360 00de 832704FB 		lw	a5,-80(s0)
 361 00e2 93F7F70F 		andi	a5,a5,0xff
 362 00e6 9B973700 		slliw	a5,a5,3
 363 00ea 13F7F70F 		andi	a4,a5,0xff
 364              		.loc 1 261 78
 365 00ee 834774FB 		lbu	a5,-73(s0)
 366 00f2 D98F     		or	a5,a4,a5
 367 00f4 93F7F70F 		andi	a5,a5,0xff
 368 00f8 1B978701 		slliw	a4,a5,24
 369 00fc 1B578741 		sraiw	a4,a4,24
 262:../src/platform/mpfs_hal/common/mss_mpu.c ****                                                         (lock_en << 0x7U));
 370              		.loc 1 262 66
 371 0100 834764FB 		lbu	a5,-74(s0)
 372 0104 8127     		sext.w	a5,a5
 373 0106 9B977700 		slliw	a5,a5,7
 374 010a 8127     		sext.w	a5,a5
 261:../src/platform/mpfs_hal/common/mss_mpu.c ****                                                         (lock_en << 0x7U));
 375              		.loc 1 261 78
 376 010c 9B978701 		slliw	a5,a5,24
 377 0110 9BD78741 		sraiw	a5,a5,24
 378 0114 D98F     		or	a5,a4,a5
 379 0116 1B968701 		slliw	a2,a5,24
 380 011a 1B568641 		sraiw	a2,a2,24
 260:../src/platform/mpfs_hal/common/mss_mpu.c ****                                               (uint8_t)(matching_mode << 3U) |
 381              		.loc 1 260 9
 382 011e 8327C4FC 		lw	a5,-52(s0)
 383 0122 9B978700 		slliw	a5,a5,8
 384 0126 8127     		sext.w	a5,a5
 385 0128 13970702 		slli	a4,a5,32
 386 012c 0193     		srli	a4,a4,32
 387 012e B7570020 		li	a5,536891392
 388 0132 BA97     		add	a5,a4,a5
 389 0134 BE86     		mv	a3,a5
 260:../src/platform/mpfs_hal/common/mss_mpu.c ****                                               (uint8_t)(matching_mode << 3U) |
 390              		.loc 1 260 72
 391 0136 1377F60F 		andi	a4,a2,0xff
 260:../src/platform/mpfs_hal/common/mss_mpu.c ****                                               (uint8_t)(matching_mode << 3U) |
 392              		.loc 1 260 70
 393 013a 836784FC 		lwu	a5,-56(s0)
 394 013e 8E07     		slli	a5,a5,3
 395 0140 B697     		add	a5,a3,a5
 396 0142 A383E700 		sb	a4,7(a5)
 263:../src/platform/mpfs_hal/common/mss_mpu.c **** 
 264:../src/platform/mpfs_hal/common/mss_mpu.c ****         return ((uint8_t)0);
 397              		.loc 1 264 16
 398 0146 8147     		li	a5,0
 399 0148 11A0     		j	.L7
 400              	.L4:
 265:../src/platform/mpfs_hal/common/mss_mpu.c ****     }
 266:../src/platform/mpfs_hal/common/mss_mpu.c ****     else
 267:../src/platform/mpfs_hal/common/mss_mpu.c ****     {
 268:../src/platform/mpfs_hal/common/mss_mpu.c ****         return ((uint8_t)1);
 401              		.loc 1 268 16
 402 014a 8547     		li	a5,1
 403              	.L7:
 269:../src/platform/mpfs_hal/common/mss_mpu.c ****     }
 270:../src/platform/mpfs_hal/common/mss_mpu.c **** }
 404              		.loc 1 270 1
 405 014c 3E85     		mv	a0,a5
 406 014e 2664     		ld	s0,72(sp)
 407              		.cfi_restore 8
 408              		.cfi_def_cfa 2, 80
 409 0150 6161     		addi	sp,sp,80
 410              		.cfi_def_cfa_offset 0
 411 0152 8280     		jr	ra
 412              		.cfi_endproc
 413              	.LFE24:
 415              		.section	.text.MSS_MPU_get_config,"ax",@progbits
 416              		.align	1
 417              		.globl	MSS_MPU_get_config
 419              	MSS_MPU_get_config:
 420              	.LFB25:
 271:../src/platform/mpfs_hal/common/mss_mpu.c **** 
 272:../src/platform/mpfs_hal/common/mss_mpu.c **** uint8_t MSS_MPU_get_config(mss_mpu_mport_t master_port,
 273:../src/platform/mpfs_hal/common/mss_mpu.c ****                            mss_mpu_pmp_region_t pmp_region,
 274:../src/platform/mpfs_hal/common/mss_mpu.c ****                            uint64_t* base,
 275:../src/platform/mpfs_hal/common/mss_mpu.c ****                            uint64_t* size,
 276:../src/platform/mpfs_hal/common/mss_mpu.c ****                            uint8_t* permission,
 277:../src/platform/mpfs_hal/common/mss_mpu.c ****                            mss_mpu_addrm_t* matching_mode,
 278:../src/platform/mpfs_hal/common/mss_mpu.c ****                            uint8_t* lock_en)
 279:../src/platform/mpfs_hal/common/mss_mpu.c **** {
 421              		.loc 1 279 1
 422              		.cfi_startproc
 423 0000 5D71     		addi	sp,sp,-80
 424              		.cfi_def_cfa_offset 80
 425 0002 86E4     		sd	ra,72(sp)
 426 0004 A2E0     		sd	s0,64(sp)
 427              		.cfi_offset 1, -8
 428              		.cfi_offset 8, -16
 429 0006 8008     		addi	s0,sp,80
 430              		.cfi_def_cfa 8, 0
 431 0008 2338C4FC 		sd	a2,-48(s0)
 432 000c 2334D4FC 		sd	a3,-56(s0)
 433 0010 2330E4FC 		sd	a4,-64(s0)
 434 0014 233CF4FA 		sd	a5,-72(s0)
 435 0018 233804FB 		sd	a6,-80(s0)
 436 001c AA87     		mv	a5,a0
 437 001e 232EF4FC 		sw	a5,-36(s0)
 438 0022 AE87     		mv	a5,a1
 439 0024 232CF4FC 		sw	a5,-40(s0)
 280:../src/platform/mpfs_hal/common/mss_mpu.c ****     uint64_t reg;
 281:../src/platform/mpfs_hal/common/mss_mpu.c **** 
 282:../src/platform/mpfs_hal/common/mss_mpu.c ****     /*All AXI external masters dont have same number of PMP regions*/
 283:../src/platform/mpfs_hal/common/mss_mpu.c ****     if(pmp_region < num_pmp_lut[master_port])
 440              		.loc 1 283 32
 441 0028 17070000 		lla	a4,num_pmp_lut
 441      13070700 
 442 0030 8367C4FD 		lwu	a5,-36(s0)
 443 0034 BA97     		add	a5,a4,a5
 444 0036 83C70700 		lbu	a5,0(a5)
 445 003a 1B870700 		sext.w	a4,a5
 446              		.loc 1 283 7
 447 003e 832784FD 		lw	a5,-40(s0)
 448 0042 8127     		sext.w	a5,a5
 449 0044 63FDE70A 		bgeu	a5,a4,.L9
 284:../src/platform/mpfs_hal/common/mss_mpu.c ****     {
 285:../src/platform/mpfs_hal/common/mss_mpu.c ****         reg = MSS_MPU(master_port)->PMPCFG[pmp_region].MPUCFG_TypeDef.pmp;
 450              		.loc 1 285 15
 451 0048 8327C4FD 		lw	a5,-36(s0)
 452 004c 9B978700 		slliw	a5,a5,8
 453 0050 8127     		sext.w	a5,a5
 454 0052 13970702 		slli	a4,a5,32
 455 0056 0193     		srli	a4,a4,32
 456 0058 B7570020 		li	a5,536891392
 457 005c BA97     		add	a5,a4,a5
 458 005e 3E87     		mv	a4,a5
 459              		.loc 1 285 70
 460 0060 836784FD 		lwu	a5,-40(s0)
 461 0064 8E07     		slli	a5,a5,3
 462 0066 BA97     		add	a5,a4,a5
 463 0068 9863     		ld	a4,0(a5)
 464 006a FD57     		li	a5,-1
 465 006c E983     		srli	a5,a5,26
 466 006e F98F     		and	a5,a4,a5
 467              		.loc 1 285 13
 468 0070 2334F4FE 		sd	a5,-24(s0)
 286:../src/platform/mpfs_hal/common/mss_mpu.c ****         *base = pmp_get_napot_base_and_range(reg, size);
 469              		.loc 1 286 17
 470 0074 833584FC 		ld	a1,-56(s0)
 471 0078 033584FE 		ld	a0,-24(s0)
 472 007c 97000000 		call	pmp_get_napot_base_and_range
 472      E7800000 
 473 0084 2A87     		mv	a4,a0
 474              		.loc 1 286 15
 475 0086 833704FD 		ld	a5,-48(s0)
 476 008a 98E3     		sd	a4,0(a5)
 287:../src/platform/mpfs_hal/common/mss_mpu.c **** 
 288:../src/platform/mpfs_hal/common/mss_mpu.c ****         reg = MSS_MPU(master_port)->PMPCFG[pmp_region].MPUCFG_TypeDef.mode;
 477              		.loc 1 288 15
 478 008c 8327C4FD 		lw	a5,-36(s0)
 479 0090 9B978700 		slliw	a5,a5,8
 480 0094 8127     		sext.w	a5,a5
 481 0096 13970702 		slli	a4,a5,32
 482 009a 0193     		srli	a4,a4,32
 483 009c B7570020 		li	a5,536891392
 484 00a0 BA97     		add	a5,a4,a5
 485 00a2 3E87     		mv	a4,a5
 486              		.loc 1 288 70
 487 00a4 836784FD 		lwu	a5,-40(s0)
 488 00a8 8E07     		slli	a5,a5,3
 489 00aa BA97     		add	a5,a4,a5
 490 00ac 83C77700 		lbu	a5,7(a5)
 491 00b0 93F7F70F 		andi	a5,a5,0xff
 492              		.loc 1 288 13
 493 00b4 2334F4FE 		sd	a5,-24(s0)
 289:../src/platform/mpfs_hal/common/mss_mpu.c ****         *lock_en = ( reg >> 0x7U) & 0x1U;
 494              		.loc 1 289 26
 495 00b8 833784FE 		ld	a5,-24(s0)
 496 00bc 9D83     		srli	a5,a5,7
 497              		.loc 1 289 35
 498 00be 93F7F70F 		andi	a5,a5,0xff
 499 00c2 858B     		andi	a5,a5,1
 500 00c4 13F7F70F 		andi	a4,a5,0xff
 501              		.loc 1 289 18
 502 00c8 833704FB 		ld	a5,-80(s0)
 503 00cc 2380E700 		sb	a4,0(a5)
 290:../src/platform/mpfs_hal/common/mss_mpu.c ****         *matching_mode = (mss_mpu_addrm_t)( (reg >> 3ULL) & 0x3U);
 504              		.loc 1 290 50
 505 00d0 833784FE 		ld	a5,-24(s0)
 506 00d4 8D83     		srli	a5,a5,3
 507              		.loc 1 290 26
 508 00d6 8127     		sext.w	a5,a5
 509              		.loc 1 290 59
 510 00d8 8D8B     		andi	a5,a5,3
 511 00da 1B870700 		sext.w	a4,a5
 512              		.loc 1 290 24
 513 00de 833784FB 		ld	a5,-72(s0)
 514 00e2 98C3     		sw	a4,0(a5)
 291:../src/platform/mpfs_hal/common/mss_mpu.c ****         *permission = reg & 0x7U;
 515              		.loc 1 291 27
 516 00e4 833784FE 		ld	a5,-24(s0)
 517 00e8 93F7F70F 		andi	a5,a5,0xff
 518 00ec 9D8B     		andi	a5,a5,7
 519 00ee 13F7F70F 		andi	a4,a5,0xff
 520              		.loc 1 291 21
 521 00f2 833704FC 		ld	a5,-64(s0)
 522 00f6 2380E700 		sb	a4,0(a5)
 292:../src/platform/mpfs_hal/common/mss_mpu.c **** 
 293:../src/platform/mpfs_hal/common/mss_mpu.c ****         return ((uint8_t)0);
 523              		.loc 1 293 16
 524 00fa 8147     		li	a5,0
 525 00fc 11A0     		j	.L10
 526              	.L9:
 294:../src/platform/mpfs_hal/common/mss_mpu.c ****     }
 295:../src/platform/mpfs_hal/common/mss_mpu.c ****     else
 296:../src/platform/mpfs_hal/common/mss_mpu.c ****     {
 297:../src/platform/mpfs_hal/common/mss_mpu.c ****         return ((uint8_t)1);
 527              		.loc 1 297 16
 528 00fe 8547     		li	a5,1
 529              	.L10:
 298:../src/platform/mpfs_hal/common/mss_mpu.c ****     }
 299:../src/platform/mpfs_hal/common/mss_mpu.c **** }
 530              		.loc 1 299 1
 531 0100 3E85     		mv	a0,a5
 532 0102 A660     		ld	ra,72(sp)
 533              		.cfi_restore 1
 534 0104 0664     		ld	s0,64(sp)
 535              		.cfi_restore 8
 536              		.cfi_def_cfa 2, 80
 537 0106 6161     		addi	sp,sp,80
 538              		.cfi_def_cfa_offset 0
 539 0108 8280     		jr	ra
 540              		.cfi_endproc
 541              	.LFE25:
 543              		.section	.text.pmp_get_napot_base_and_range,"ax",@progbits
 544              		.align	1
 546              	pmp_get_napot_base_and_range:
 547              	.LFB26:
 300:../src/platform/mpfs_hal/common/mss_mpu.c **** 
 301:../src/platform/mpfs_hal/common/mss_mpu.c **** static uint64_t pmp_get_napot_base_and_range(uint64_t reg, uint64_t *range)
 302:../src/platform/mpfs_hal/common/mss_mpu.c **** {
 548              		.loc 1 302 1
 549              		.cfi_startproc
 550 0000 3971     		addi	sp,sp,-64
 551              		.cfi_def_cfa_offset 64
 552 0002 22FC     		sd	s0,56(sp)
 553              		.cfi_offset 8, -8
 554 0004 8000     		addi	s0,sp,64
 555              		.cfi_def_cfa 8, 0
 556 0006 2334A4FC 		sd	a0,-56(s0)
 557 000a 2330B4FC 		sd	a1,-64(s0)
 303:../src/platform/mpfs_hal/common/mss_mpu.c ****     /* construct a mask of all bits bar the top bit */
 304:../src/platform/mpfs_hal/common/mss_mpu.c ****     uint64_t mask = 0U;
 558              		.loc 1 304 14
 559 000e 233404FE 		sd	zero,-24(s0)
 305:../src/platform/mpfs_hal/common/mss_mpu.c ****     uint64_t base = reg;
 560              		.loc 1 305 14
 561 0012 833784FC 		ld	a5,-56(s0)
 562 0016 2330F4FE 		sd	a5,-32(s0)
 306:../src/platform/mpfs_hal/common/mss_mpu.c ****     uint64_t numbits = (sizeof(uint64_t) * 8U) + 2U;
 563              		.loc 1 306 14
 564 001a 93072004 		li	a5,66
 565 001e 233CF4FC 		sd	a5,-40(s0)
 307:../src/platform/mpfs_hal/common/mss_mpu.c ****     mask = (mask - 1U) >> 1U;
 566              		.loc 1 307 18
 567 0022 833784FE 		ld	a5,-24(s0)
 568 0026 FD17     		addi	a5,a5,-1
 569              		.loc 1 307 10
 570 0028 8583     		srli	a5,a5,1
 571 002a 2334F4FE 		sd	a5,-24(s0)
 308:../src/platform/mpfs_hal/common/mss_mpu.c **** 
 309:../src/platform/mpfs_hal/common/mss_mpu.c ****     while (mask)
 572              		.loc 1 309 11
 573 002e 35A8     		j	.L12
 574              	.L15:
 310:../src/platform/mpfs_hal/common/mss_mpu.c ****     {
 311:../src/platform/mpfs_hal/common/mss_mpu.c ****         if ((reg & mask) == mask)
 575              		.loc 1 311 18
 576 0030 033784FC 		ld	a4,-56(s0)
 577 0034 833784FE 		ld	a5,-24(s0)
 578 0038 F98F     		and	a5,a4,a5
 579              		.loc 1 311 12
 580 003a 033784FE 		ld	a4,-24(s0)
 581 003e 631CF700 		bne	a4,a5,.L13
 312:../src/platform/mpfs_hal/common/mss_mpu.c ****         {
 313:../src/platform/mpfs_hal/common/mss_mpu.c ****             /* this is the mask to use */
 314:../src/platform/mpfs_hal/common/mss_mpu.c ****             base = reg & ~mask;
 582              		.loc 1 314 26
 583 0042 833784FE 		ld	a5,-24(s0)
 584 0046 93C7F7FF 		not	a5,a5
 585              		.loc 1 314 18
 586 004a 033784FC 		ld	a4,-56(s0)
 587 004e F98F     		and	a5,a4,a5
 588 0050 2330F4FE 		sd	a5,-32(s0)
 315:../src/platform/mpfs_hal/common/mss_mpu.c ****             break;
 589              		.loc 1 315 13
 590 0054 31A8     		j	.L14
 591              	.L13:
 316:../src/platform/mpfs_hal/common/mss_mpu.c ****         }
 317:../src/platform/mpfs_hal/common/mss_mpu.c ****         mask >>= 1U;
 592              		.loc 1 317 14
 593 0056 833784FE 		ld	a5,-24(s0)
 594 005a 8583     		srli	a5,a5,1
 595 005c 2334F4FE 		sd	a5,-24(s0)
 318:../src/platform/mpfs_hal/common/mss_mpu.c ****         numbits--;
 596              		.loc 1 318 16
 597 0060 833784FD 		ld	a5,-40(s0)
 598 0064 FD17     		addi	a5,a5,-1
 599 0066 233CF4FC 		sd	a5,-40(s0)
 600              	.L12:
 309:../src/platform/mpfs_hal/common/mss_mpu.c ****     {
 601              		.loc 1 309 11
 602 006a 833784FE 		ld	a5,-24(s0)
 603 006e E9F3     		bne	a5,zero,.L15
 604              	.L14:
 319:../src/platform/mpfs_hal/common/mss_mpu.c ****     }
 320:../src/platform/mpfs_hal/common/mss_mpu.c **** 
 321:../src/platform/mpfs_hal/common/mss_mpu.c ****     *range = (1LU << numbits);
 605              		.loc 1 321 19
 606 0070 833784FD 		ld	a5,-40(s0)
 607 0074 8127     		sext.w	a5,a5
 608 0076 3E87     		mv	a4,a5
 609 0078 8547     		li	a5,1
 610 007a 3397E700 		sll	a4,a5,a4
 611              		.loc 1 321 12
 612 007e 833704FC 		ld	a5,-64(s0)
 613 0082 98E3     		sd	a4,0(a5)
 322:../src/platform/mpfs_hal/common/mss_mpu.c ****     return (base << 2U);
 614              		.loc 1 322 18
 615 0084 833704FE 		ld	a5,-32(s0)
 616 0088 8A07     		slli	a5,a5,2
 323:../src/platform/mpfs_hal/common/mss_mpu.c **** }
 617              		.loc 1 323 1
 618 008a 3E85     		mv	a0,a5
 619 008c 6274     		ld	s0,56(sp)
 620              		.cfi_restore 8
 621              		.cfi_def_cfa 2, 64
 622 008e 2161     		addi	sp,sp,64
 623              		.cfi_def_cfa_offset 0
 624 0090 8280     		jr	ra
 625              		.cfi_endproc
 626              	.LFE26:
 628              		.text
 629              	.Letext0:
 630              		.file 2 "/home/vinay/Desktop/soft_console/SoftConsole-v2022.2-RISC-V-747/riscv-unknown-elf-gcc/ris
 631              		.file 3 "/home/vinay/Desktop/soft_console/SoftConsole-v2022.2-RISC-V-747/riscv-unknown-elf-gcc/lib
 632              		.file 4 "/home/vinay/Desktop/soft_console/SoftConsole-v2022.2-RISC-V-747/riscv-unknown-elf-gcc/ris
 633              		.file 5 "/home/vinay/Desktop/soft_console/SoftConsole-v2022.2-RISC-V-747/riscv-unknown-elf-gcc/ris
 634              		.file 6 "/home/vinay/Desktop/soft_console/SoftConsole-v2022.2-RISC-V-747/riscv-unknown-elf-gcc/ris
 635              		.file 7 "/home/vinay/Desktop/soft_console/SoftConsole-v2022.2-RISC-V-747/riscv-unknown-elf-gcc/ris
 636              		.file 8 "/home/vinay/Desktop/softconsole_watershed/Water-shed/src/platform/mpfs_hal/common/nwc/mss
 637              		.file 9 "/home/vinay/Desktop/softconsole_watershed/Water-shed/src/platform/mpfs_hal/common/nwc/mss
 638              		.file 10 "/home/vinay/Desktop/softconsole_watershed/Water-shed/src/platform/mpfs_hal/common/nwc/ms
 639              		.file 11 "/home/vinay/Desktop/softconsole_watershed/Water-shed/src/platform/mpfs_hal/common/mss_mp
 640              		.file 12 "/home/vinay/Desktop/softconsole_watershed/Water-shed/src/platform/mpfs_hal/common/mss_pl
 641              		.file 13 "/home/vinay/Desktop/softconsole_watershed/Water-shed/src/platform/mpfs_hal/startup_gcc/s
DEFINED SYMBOLS
                            *ABS*:0000000000000000 mss_mpu.c
     /tmp/ccCwMAmf.s:14     .data.num_pmp_lut:0000000000000000 num_pmp_lut
     /tmp/ccCwMAmf.s:30     .rodata.mpu_fic0_values:0000000000000000 mpu_fic0_values
     /tmp/ccCwMAmf.s:52     .rodata.mpu_fic1_values:0000000000000000 mpu_fic1_values
     /tmp/ccCwMAmf.s:74     .rodata.mpu_fic2_values:0000000000000000 mpu_fic2_values
     /tmp/ccCwMAmf.s:88     .rodata.mpu_crypto_values:0000000000000000 mpu_crypto_values
     /tmp/ccCwMAmf.s:98     .rodata.mpu_gem0_values:0000000000000000 mpu_gem0_values
     /tmp/ccCwMAmf.s:112    .rodata.mpu_gem1_values:0000000000000000 mpu_gem1_values
     /tmp/ccCwMAmf.s:126    .rodata.mpu_mmc_values:0000000000000000 mpu_mmc_values
     /tmp/ccCwMAmf.s:136    .rodata.mpu_scb_values:0000000000000000 mpu_scb_values
     /tmp/ccCwMAmf.s:150    .rodata.mpu_usb_values:0000000000000000 mpu_usb_values
     /tmp/ccCwMAmf.s:160    .rodata.mpu_trace_values:0000000000000000 mpu_trace_values
     /tmp/ccCwMAmf.s:167    .text.mpu_configure:0000000000000000 mpu_configure
     /tmp/ccCwMAmf.s:171    .text.mpu_configure:0000000000000000 .L0 
     /tmp/ccCwMAmf.s:172    .text.mpu_configure:0000000000000000 .L0 
     /tmp/ccCwMAmf.s:173    .text.mpu_configure:0000000000000002 .L0 
     /tmp/ccCwMAmf.s:176    .text.mpu_configure:0000000000000006 .L0 
     /tmp/ccCwMAmf.s:177    .text.mpu_configure:0000000000000006 .L0 
     /tmp/ccCwMAmf.s:179    .text.mpu_configure:0000000000000008 .L0 
     /tmp/ccCwMAmf.s:181    .text.mpu_configure:0000000000000008 .L0 
     /tmp/ccCwMAmf.s:186    .text.mpu_configure:0000000000000020 .L0 
     /tmp/ccCwMAmf.s:192    .text.mpu_configure:000000000000003c .L0 
     /tmp/ccCwMAmf.s:198    .text.mpu_configure:0000000000000058 .L0 
     /tmp/ccCwMAmf.s:204    .text.mpu_configure:0000000000000074 .L0 
     /tmp/ccCwMAmf.s:210    .text.mpu_configure:0000000000000090 .L0 
     /tmp/ccCwMAmf.s:216    .text.mpu_configure:00000000000000ac .L0 
     /tmp/ccCwMAmf.s:222    .text.mpu_configure:00000000000000c8 .L0 
     /tmp/ccCwMAmf.s:228    .text.mpu_configure:00000000000000e4 .L0 
     /tmp/ccCwMAmf.s:234    .text.mpu_configure:0000000000000100 .L0 
     /tmp/ccCwMAmf.s:240    .text.mpu_configure:000000000000011a .L0 
     /tmp/ccCwMAmf.s:242    .text.mpu_configure:000000000000011c .L0 
     /tmp/ccCwMAmf.s:244    .text.mpu_configure:0000000000000120 .L0 
     /tmp/ccCwMAmf.s:246    .text.mpu_configure:0000000000000122 .L0 
     /tmp/ccCwMAmf.s:247    .text.mpu_configure:0000000000000122 .L0 
     /tmp/ccCwMAmf.s:249    .text.mpu_configure:0000000000000124 .L0 
     /tmp/ccCwMAmf.s:251    .text.mpu_configure:0000000000000126 .L0 
     /tmp/ccCwMAmf.s:258    .text.MSS_MPU_configure:0000000000000000 MSS_MPU_configure
     /tmp/ccCwMAmf.s:261    .text.MSS_MPU_configure:0000000000000000 .L0 
     /tmp/ccCwMAmf.s:262    .text.MSS_MPU_configure:0000000000000000 .L0 
     /tmp/ccCwMAmf.s:263    .text.MSS_MPU_configure:0000000000000002 .L0 
     /tmp/ccCwMAmf.s:265    .text.MSS_MPU_configure:0000000000000004 .L0 
     /tmp/ccCwMAmf.s:267    .text.MSS_MPU_configure:0000000000000006 .L0 
     /tmp/ccCwMAmf.s:284    .text.MSS_MPU_configure:0000000000000032 .L0 
     /tmp/ccCwMAmf.s:287    .text.MSS_MPU_configure:000000000000003a .L0 
     /tmp/ccCwMAmf.s:289    .text.MSS_MPU_configure:000000000000003e .L0 
     /tmp/ccCwMAmf.s:293    .text.MSS_MPU_configure:0000000000000048 .L0 
     /tmp/ccCwMAmf.s:296    .text.MSS_MPU_configure:0000000000000050 .L0 
     /tmp/ccCwMAmf.s:299    .text.MSS_MPU_configure:0000000000000056 .L0 
     /tmp/ccCwMAmf.s:301    .text.MSS_MPU_configure:0000000000000058 .L0 
     /tmp/ccCwMAmf.s:307    .text.MSS_MPU_configure:000000000000006e .L0 
     /tmp/ccCwMAmf.s:311    .text.MSS_MPU_configure:0000000000000078 .L0 
     /tmp/ccCwMAmf.s:314    .text.MSS_MPU_configure:000000000000007a .L0 
     /tmp/ccCwMAmf.s:318    .text.MSS_MPU_configure:0000000000000084 .L0 
     /tmp/ccCwMAmf.s:323    .text.MSS_MPU_configure:000000000000008e .L0 
     /tmp/ccCwMAmf.s:326    .text.MSS_MPU_configure:0000000000000094 .L0 
     /tmp/ccCwMAmf.s:328    .text.MSS_MPU_configure:0000000000000096 .L0 
     /tmp/ccCwMAmf.s:333    .text.MSS_MPU_configure:00000000000000a0 .L0 
     /tmp/ccCwMAmf.s:337    .text.MSS_MPU_configure:00000000000000a8 .L0 
     /tmp/ccCwMAmf.s:340    .text.MSS_MPU_configure:00000000000000ae .L0 
     /tmp/ccCwMAmf.s:344    .text.MSS_MPU_configure:00000000000000b8 .L0 
     /tmp/ccCwMAmf.s:353    .text.MSS_MPU_configure:00000000000000d0 .L0 
     /tmp/ccCwMAmf.s:355    .text.MSS_MPU_configure:00000000000000d4 .L0 
     /tmp/ccCwMAmf.s:360    .text.MSS_MPU_configure:00000000000000de .L0 
     /tmp/ccCwMAmf.s:365    .text.MSS_MPU_configure:00000000000000ee .L0 
     /tmp/ccCwMAmf.s:371    .text.MSS_MPU_configure:0000000000000100 .L0 
     /tmp/ccCwMAmf.s:376    .text.MSS_MPU_configure:000000000000010c .L0 
     /tmp/ccCwMAmf.s:382    .text.MSS_MPU_configure:000000000000011e .L0 
     /tmp/ccCwMAmf.s:391    .text.MSS_MPU_configure:0000000000000136 .L0 
     /tmp/ccCwMAmf.s:393    .text.MSS_MPU_configure:000000000000013a .L0 
     /tmp/ccCwMAmf.s:398    .text.MSS_MPU_configure:0000000000000146 .L0 
     /tmp/ccCwMAmf.s:402    .text.MSS_MPU_configure:000000000000014a .L0 
     /tmp/ccCwMAmf.s:405    .text.MSS_MPU_configure:000000000000014c .L0 
     /tmp/ccCwMAmf.s:407    .text.MSS_MPU_configure:0000000000000150 .L0 
     /tmp/ccCwMAmf.s:408    .text.MSS_MPU_configure:0000000000000150 .L0 
     /tmp/ccCwMAmf.s:410    .text.MSS_MPU_configure:0000000000000152 .L0 
     /tmp/ccCwMAmf.s:412    .text.MSS_MPU_configure:0000000000000154 .L0 
     /tmp/ccCwMAmf.s:419    .text.MSS_MPU_get_config:0000000000000000 MSS_MPU_get_config
     /tmp/ccCwMAmf.s:422    .text.MSS_MPU_get_config:0000000000000000 .L0 
     /tmp/ccCwMAmf.s:423    .text.MSS_MPU_get_config:0000000000000000 .L0 
     /tmp/ccCwMAmf.s:424    .text.MSS_MPU_get_config:0000000000000002 .L0 
     /tmp/ccCwMAmf.s:427    .text.MSS_MPU_get_config:0000000000000006 .L0 
     /tmp/ccCwMAmf.s:428    .text.MSS_MPU_get_config:0000000000000006 .L0 
     /tmp/ccCwMAmf.s:430    .text.MSS_MPU_get_config:0000000000000008 .L0 
     /tmp/ccCwMAmf.s:441    .text.MSS_MPU_get_config:0000000000000028 .L0 
     /tmp/ccCwMAmf.s:447    .text.MSS_MPU_get_config:000000000000003e .L0 
     /tmp/ccCwMAmf.s:451    .text.MSS_MPU_get_config:0000000000000048 .L0 
     /tmp/ccCwMAmf.s:460    .text.MSS_MPU_get_config:0000000000000060 .L0 
     /tmp/ccCwMAmf.s:468    .text.MSS_MPU_get_config:0000000000000070 .L0 
     /tmp/ccCwMAmf.s:470    .text.MSS_MPU_get_config:0000000000000074 .L0 
     /tmp/ccCwMAmf.s:546    .text.pmp_get_napot_base_and_range:0000000000000000 pmp_get_napot_base_and_range
     /tmp/ccCwMAmf.s:475    .text.MSS_MPU_get_config:0000000000000086 .L0 
     /tmp/ccCwMAmf.s:478    .text.MSS_MPU_get_config:000000000000008c .L0 
     /tmp/ccCwMAmf.s:487    .text.MSS_MPU_get_config:00000000000000a4 .L0 
     /tmp/ccCwMAmf.s:493    .text.MSS_MPU_get_config:00000000000000b4 .L0 
     /tmp/ccCwMAmf.s:495    .text.MSS_MPU_get_config:00000000000000b8 .L0 
     /tmp/ccCwMAmf.s:498    .text.MSS_MPU_get_config:00000000000000be .L0 
     /tmp/ccCwMAmf.s:502    .text.MSS_MPU_get_config:00000000000000c8 .L0 
     /tmp/ccCwMAmf.s:505    .text.MSS_MPU_get_config:00000000000000d0 .L0 
     /tmp/ccCwMAmf.s:508    .text.MSS_MPU_get_config:00000000000000d6 .L0 
     /tmp/ccCwMAmf.s:510    .text.MSS_MPU_get_config:00000000000000d8 .L0 
     /tmp/ccCwMAmf.s:513    .text.MSS_MPU_get_config:00000000000000de .L0 
     /tmp/ccCwMAmf.s:516    .text.MSS_MPU_get_config:00000000000000e4 .L0 
     /tmp/ccCwMAmf.s:521    .text.MSS_MPU_get_config:00000000000000f2 .L0 
     /tmp/ccCwMAmf.s:524    .text.MSS_MPU_get_config:00000000000000fa .L0 
     /tmp/ccCwMAmf.s:528    .text.MSS_MPU_get_config:00000000000000fe .L0 
     /tmp/ccCwMAmf.s:531    .text.MSS_MPU_get_config:0000000000000100 .L0 
     /tmp/ccCwMAmf.s:533    .text.MSS_MPU_get_config:0000000000000104 .L0 
     /tmp/ccCwMAmf.s:535    .text.MSS_MPU_get_config:0000000000000106 .L0 
     /tmp/ccCwMAmf.s:536    .text.MSS_MPU_get_config:0000000000000106 .L0 
     /tmp/ccCwMAmf.s:538    .text.MSS_MPU_get_config:0000000000000108 .L0 
     /tmp/ccCwMAmf.s:540    .text.MSS_MPU_get_config:000000000000010a .L0 
     /tmp/ccCwMAmf.s:549    .text.pmp_get_napot_base_and_range:0000000000000000 .L0 
     /tmp/ccCwMAmf.s:550    .text.pmp_get_napot_base_and_range:0000000000000000 .L0 
     /tmp/ccCwMAmf.s:551    .text.pmp_get_napot_base_and_range:0000000000000002 .L0 
     /tmp/ccCwMAmf.s:553    .text.pmp_get_napot_base_and_range:0000000000000004 .L0 
     /tmp/ccCwMAmf.s:555    .text.pmp_get_napot_base_and_range:0000000000000006 .L0 
     /tmp/ccCwMAmf.s:559    .text.pmp_get_napot_base_and_range:000000000000000e .L0 
     /tmp/ccCwMAmf.s:561    .text.pmp_get_napot_base_and_range:0000000000000012 .L0 
     /tmp/ccCwMAmf.s:564    .text.pmp_get_napot_base_and_range:000000000000001a .L0 
     /tmp/ccCwMAmf.s:567    .text.pmp_get_napot_base_and_range:0000000000000022 .L0 
     /tmp/ccCwMAmf.s:570    .text.pmp_get_napot_base_and_range:0000000000000028 .L0 
     /tmp/ccCwMAmf.s:573    .text.pmp_get_napot_base_and_range:000000000000002e .L0 
     /tmp/ccCwMAmf.s:576    .text.pmp_get_napot_base_and_range:0000000000000030 .L0 
     /tmp/ccCwMAmf.s:580    .text.pmp_get_napot_base_and_range:000000000000003a .L0 
     /tmp/ccCwMAmf.s:583    .text.pmp_get_napot_base_and_range:0000000000000042 .L0 
     /tmp/ccCwMAmf.s:586    .text.pmp_get_napot_base_and_range:000000000000004a .L0 
     /tmp/ccCwMAmf.s:590    .text.pmp_get_napot_base_and_range:0000000000000054 .L0 
     /tmp/ccCwMAmf.s:593    .text.pmp_get_napot_base_and_range:0000000000000056 .L0 
     /tmp/ccCwMAmf.s:597    .text.pmp_get_napot_base_and_range:0000000000000060 .L0 
     /tmp/ccCwMAmf.s:602    .text.pmp_get_napot_base_and_range:000000000000006a .L0 
     /tmp/ccCwMAmf.s:606    .text.pmp_get_napot_base_and_range:0000000000000070 .L0 
     /tmp/ccCwMAmf.s:612    .text.pmp_get_napot_base_and_range:000000000000007e .L0 
     /tmp/ccCwMAmf.s:615    .text.pmp_get_napot_base_and_range:0000000000000084 .L0 
     /tmp/ccCwMAmf.s:618    .text.pmp_get_napot_base_and_range:000000000000008a .L0 
     /tmp/ccCwMAmf.s:620    .text.pmp_get_napot_base_and_range:000000000000008e .L0 
     /tmp/ccCwMAmf.s:621    .text.pmp_get_napot_base_and_range:000000000000008e .L0 
     /tmp/ccCwMAmf.s:623    .text.pmp_get_napot_base_and_range:0000000000000090 .L0 
     /tmp/ccCwMAmf.s:625    .text.pmp_get_napot_base_and_range:0000000000000092 .L0 
     /tmp/ccCwMAmf.s:254    .text.mpu_configure:0000000000000126 .L0 
     /tmp/ccCwMAmf.s:415    .text.MSS_MPU_configure:0000000000000154 .L0 
     /tmp/ccCwMAmf.s:543    .text.MSS_MPU_get_config:000000000000010a .L0 
     /tmp/ccCwMAmf.s:628    .text.pmp_get_napot_base_and_range:0000000000000092 .L0 
                     .debug_frame:0000000000000000 .L0 
     /tmp/ccCwMAmf.s:182    .text.mpu_configure:000000000000000c .L0 
     /tmp/ccCwMAmf.s:187    .text.mpu_configure:0000000000000024 .L0 
     /tmp/ccCwMAmf.s:193    .text.mpu_configure:0000000000000040 .L0 
     /tmp/ccCwMAmf.s:199    .text.mpu_configure:000000000000005c .L0 
     /tmp/ccCwMAmf.s:205    .text.mpu_configure:0000000000000078 .L0 
     /tmp/ccCwMAmf.s:211    .text.mpu_configure:0000000000000094 .L0 
     /tmp/ccCwMAmf.s:217    .text.mpu_configure:00000000000000b0 .L0 
     /tmp/ccCwMAmf.s:223    .text.mpu_configure:00000000000000cc .L0 
     /tmp/ccCwMAmf.s:229    .text.mpu_configure:00000000000000e8 .L0 
     /tmp/ccCwMAmf.s:235    .text.mpu_configure:0000000000000102 .L0 
     /tmp/ccCwMAmf.s:301    .text.MSS_MPU_configure:0000000000000058 .L0 
     /tmp/ccCwMAmf.s:400    .text.MSS_MPU_configure:000000000000014a .L4
     /tmp/ccCwMAmf.s:321    .text.MSS_MPU_configure:000000000000008e .L5
     /tmp/ccCwMAmf.s:312    .text.MSS_MPU_configure:000000000000007a .L6
     /tmp/ccCwMAmf.s:403    .text.MSS_MPU_configure:000000000000014c .L7
     /tmp/ccCwMAmf.s:441    .text.MSS_MPU_get_config:0000000000000028 .L0 
     /tmp/ccCwMAmf.s:526    .text.MSS_MPU_get_config:00000000000000fe .L9
     /tmp/ccCwMAmf.s:529    .text.MSS_MPU_get_config:0000000000000100 .L10
     /tmp/ccCwMAmf.s:600    .text.pmp_get_napot_base_and_range:000000000000006a .L12
     /tmp/ccCwMAmf.s:591    .text.pmp_get_napot_base_and_range:0000000000000056 .L13
     /tmp/ccCwMAmf.s:604    .text.pmp_get_napot_base_and_range:0000000000000070 .L14
     /tmp/ccCwMAmf.s:574    .text.pmp_get_napot_base_and_range:0000000000000030 .L15
     /tmp/ccCwMAmf.s:68509  .debug_abbrev:0000000000000000 .Ldebug_abbrev0
     /tmp/ccCwMAmf.s:97796  .debug_str:0000000000024ab7 .LASF9679
     /tmp/ccCwMAmf.s:89716  .debug_str:0000000000003541 .LASF9680
     /tmp/ccCwMAmf.s:108200  .debug_str:000000000004f643 .LASF9681
     /tmp/ccCwMAmf.s:69474  .debug_ranges:0000000000000000 .Ldebug_ranges0
     /tmp/ccCwMAmf.s:88948  .debug_line:0000000000000000 .Ldebug_line0
     /tmp/ccCwMAmf.s:69486  .debug_macro:0000000000000000 .Ldebug_macro0
     /tmp/ccCwMAmf.s:106204  .debug_str:0000000000046ef5 .LASF6024
     /tmp/ccCwMAmf.s:90078  .debug_str:0000000000004e8f .LASF6028
     /tmp/ccCwMAmf.s:93772  .debug_str:0000000000013c1b .LASF6025
     /tmp/ccCwMAmf.s:104404  .debug_str:000000000003f392 .LASF6026
     /tmp/ccCwMAmf.s:100424  .debug_str:000000000002f10e .LASF6027
     /tmp/ccCwMAmf.s:97514  .debug_str:00000000000238f7 .LASF6029
     /tmp/ccCwMAmf.s:89708  .debug_str:00000000000034f8 .LASF6030
     /tmp/ccCwMAmf.s:106648  .debug_str:0000000000048c0e .LASF6031
     /tmp/ccCwMAmf.s:90296  .debug_str:0000000000005cc0 .LASF6032
     /tmp/ccCwMAmf.s:95072  .debug_str:0000000000018e6f .LASF6033
     /tmp/ccCwMAmf.s:108154  .debug_str:000000000004f2b3 .LASF6034
     /tmp/ccCwMAmf.s:101134  .debug_str:0000000000031e7d .LASF6035
     /tmp/ccCwMAmf.s:100174  .debug_str:000000000002e058 .LASF6036
     /tmp/ccCwMAmf.s:93240  .debug_str:0000000000011855 .LASF6037
     /tmp/ccCwMAmf.s:89632  .debug_str:0000000000003001 .LASF6038
     /tmp/ccCwMAmf.s:90264  .debug_str:0000000000005ae3 .LASF6039
     /tmp/ccCwMAmf.s:101686  .debug_str:000000000003438e .LASF6040
     /tmp/ccCwMAmf.s:102080  .debug_str:0000000000035f85 .LASF6041
     /tmp/ccCwMAmf.s:102606  .debug_str:0000000000038182 .LASF6042
     /tmp/ccCwMAmf.s:107522  .debug_str:000000000004c725 .LASF6043
     /tmp/ccCwMAmf.s:101660  .debug_str:00000000000341c1 .LASF6044
     /tmp/ccCwMAmf.s:100012  .debug_str:000000000002d592 .LASF6045
     /tmp/ccCwMAmf.s:90256  .debug_str:0000000000005a41 .LASF6046
     /tmp/ccCwMAmf.s:94832  .debug_str:0000000000017fa6 .LASF6047
     /tmp/ccCwMAmf.s:94992  .debug_str:0000000000018925 .LASF6052
     /tmp/ccCwMAmf.s:106982  .debug_str:000000000004a174 .LASF6048
     /tmp/ccCwMAmf.s:89068  .debug_str:000000000000084b .LASF6049
     /tmp/ccCwMAmf.s:103750  .debug_str:000000000003c8d5 .LASF6050
     /tmp/ccCwMAmf.s:91040  .debug_str:0000000000008f4d .LASF6051
     /tmp/ccCwMAmf.s:100664  .debug_str:00000000000300f9 .LASF6053
     /tmp/ccCwMAmf.s:92172  .debug_str:000000000000dba7 .LASF6054
     /tmp/ccCwMAmf.s:97750  .debug_str:0000000000024892 .LASF6055
     /tmp/ccCwMAmf.s:106760  .debug_str:00000000000493ac .LASF6056
     /tmp/ccCwMAmf.s:101162  .debug_str:0000000000032064 .LASF6057
     /tmp/ccCwMAmf.s:97482  .debug_str:00000000000236c8 .LASF6058
     /tmp/ccCwMAmf.s:96854  .debug_str:0000000000020c06 .LASF6059
     /tmp/ccCwMAmf.s:96982  .debug_str:0000000000021457 .LASF6060
     /tmp/ccCwMAmf.s:107378  .debug_str:000000000004bd84 .LASF6061
     /tmp/ccCwMAmf.s:90042  .debug_str:0000000000004bfb .LASF6062
     /tmp/ccCwMAmf.s:104212  .debug_str:000000000003e827 .LASF6063
     /tmp/ccCwMAmf.s:89572  .debug_str:0000000000002bd9 .LASF6064
     /tmp/ccCwMAmf.s:92702  .debug_str:000000000000f895 .LASF6065
     /tmp/ccCwMAmf.s:103684  .debug_str:000000000003c4ce .LASF6066
     /tmp/ccCwMAmf.s:99706  .debug_str:000000000002c361 .LASF6067
     /tmp/ccCwMAmf.s:91092  .debug_str:000000000000927a .LASF6068
     /tmp/ccCwMAmf.s:95078  .debug_str:0000000000018ecd .LASF6069
     /tmp/ccCwMAmf.s:98564  .debug_str:00000000000278ec .LASF6070
     /tmp/ccCwMAmf.s:99678  .debug_str:000000000002c1d8 .LASF6071
     /tmp/ccCwMAmf.s:99696  .debug_str:000000000002c2e1 .LASF6072
     /tmp/ccCwMAmf.s:98420  .debug_str:0000000000026fbb .LASF6073
     /tmp/ccCwMAmf.s:105182  .debug_str:0000000000042b70 .LASF6074
     /tmp/ccCwMAmf.s:101846  .debug_str:0000000000034e6b .LASF6075
     /tmp/ccCwMAmf.s:103770  .debug_str:000000000003ca2a .LASF6076
     /tmp/ccCwMAmf.s:98138  .debug_str:0000000000025d7e .LASF6077
     /tmp/ccCwMAmf.s:89962  .debug_str:000000000000461c .LASF6078
     /tmp/ccCwMAmf.s:93038  .debug_str:0000000000010ba4 .LASF6079
     /tmp/ccCwMAmf.s:92514  .debug_str:000000000000ed5f .LASF6080
     /tmp/ccCwMAmf.s:97818  .debug_str:0000000000024cb4 .LASF6081
     /tmp/ccCwMAmf.s:97674  .debug_str:00000000000243ab .LASF6082
     /tmp/ccCwMAmf.s:102136  .debug_str:000000000003637c .LASF6083
     /tmp/ccCwMAmf.s:106854  .debug_str:0000000000049a14 .LASF6084
     /tmp/ccCwMAmf.s:95076  .debug_str:0000000000018ec8 .LASF6085
     /tmp/ccCwMAmf.s:101596  .debug_str:0000000000033e1a .LASF6086
     /tmp/ccCwMAmf.s:103194  .debug_str:000000000003a1e6 .LASF6087
     /tmp/ccCwMAmf.s:93346  .debug_str:0000000000011f44 .LASF6088
     /tmp/ccCwMAmf.s:96320  .debug_str:000000000001e674 .LASF6089
     /tmp/ccCwMAmf.s:95734  .debug_str:000000000001bca4 .LASF6090
     /tmp/ccCwMAmf.s:102366  .debug_str:000000000003729e .LASF6091
     /tmp/ccCwMAmf.s:106200  .debug_str:0000000000046ed1 .LASF6092
     /tmp/ccCwMAmf.s:107342  .debug_str:000000000004bae2 .LASF6093
     /tmp/ccCwMAmf.s:99536  .debug_str:000000000002b956 .LASF6094
     /tmp/ccCwMAmf.s:105344  .debug_str:00000000000436b6 .LASF6095
     /tmp/ccCwMAmf.s:98796  .debug_str:00000000000288f6 .LASF6096
     /tmp/ccCwMAmf.s:104382  .debug_str:000000000003f22a .LASF6097
     /tmp/ccCwMAmf.s:90206  .debug_str:00000000000056ca .LASF6098
     /tmp/ccCwMAmf.s:100590  .debug_str:000000000002fc29 .LASF6099
     /tmp/ccCwMAmf.s:101554  .debug_str:0000000000033b40 .LASF6100
     /tmp/ccCwMAmf.s:105172  .debug_str:0000000000042ada .LASF6101
     /tmp/ccCwMAmf.s:96944  .debug_str:00000000000211c6 .LASF6102
     /tmp/ccCwMAmf.s:103828  .debug_str:000000000003cdde .LASF6103
     /tmp/ccCwMAmf.s:94354  .debug_str:0000000000015f72 .LASF6104
     /tmp/ccCwMAmf.s:95752  .debug_str:000000000001bdc6 .LASF6105
     /tmp/ccCwMAmf.s:101166  .debug_str:0000000000032099 .LASF6106
     /tmp/ccCwMAmf.s:92862  .debug_str:000000000001020d .LASF6107
     /tmp/ccCwMAmf.s:101024  .debug_str:0000000000031829 .LASF6108
     /tmp/ccCwMAmf.s:98594  .debug_str:0000000000027b12 .LASF6109
     /tmp/ccCwMAmf.s:93956  .debug_str:0000000000014758 .LASF6110
     /tmp/ccCwMAmf.s:99780  .debug_str:000000000002c785 .LASF6111
     /tmp/ccCwMAmf.s:105732  .debug_str:000000000004500c .LASF6112
     /tmp/ccCwMAmf.s:100966  .debug_str:00000000000313c6 .LASF6113
     /tmp/ccCwMAmf.s:103748  .debug_str:000000000003c8cd .LASF6114
     /tmp/ccCwMAmf.s:97318  .debug_str:0000000000022b41 .LASF840
     /tmp/ccCwMAmf.s:94938  .debug_str:0000000000018692 .LASF6115
     /tmp/ccCwMAmf.s:106674  .debug_str:0000000000048dcb .LASF6116
     /tmp/ccCwMAmf.s:102864  .debug_str:0000000000038fcc .LASF6117
     /tmp/ccCwMAmf.s:104058  .debug_str:000000000003ddd0 .LASF6118
     /tmp/ccCwMAmf.s:106782  .debug_str:00000000000494d7 .LASF6119
     /tmp/ccCwMAmf.s:101144  .debug_str:0000000000031f30 .LASF6120
     /tmp/ccCwMAmf.s:106528  .debug_str:00000000000484b0 .LASF6121
     /tmp/ccCwMAmf.s:90522  .debug_str:0000000000006bd8 .LASF6122
     /tmp/ccCwMAmf.s:95164  .debug_str:0000000000019524 .LASF6123
     /tmp/ccCwMAmf.s:93686  .debug_str:0000000000013703 .LASF6124
     /tmp/ccCwMAmf.s:106716  .debug_str:00000000000490a2 .LASF6125
     /tmp/ccCwMAmf.s:94664  .debug_str:0000000000017419 .LASF6126
     /tmp/ccCwMAmf.s:106052  .debug_str:00000000000464fc .LASF6127
     /tmp/ccCwMAmf.s:88964  .debug_str:0000000000000111 .LASF6128
     /tmp/ccCwMAmf.s:90612  .debug_str:00000000000072f9 .LASF6129
     /tmp/ccCwMAmf.s:95534  .debug_str:000000000001af32 .LASF6130
     /tmp/ccCwMAmf.s:91584  .debug_str:000000000000b49f .LASF6131
     /tmp/ccCwMAmf.s:93432  .debug_str:0000000000012502 .LASF6132
     /tmp/ccCwMAmf.s:107434  .debug_str:000000000004c0ef .LASF6133
     /tmp/ccCwMAmf.s:103832  .debug_str:000000000003ce09 .LASF6134
     /tmp/ccCwMAmf.s:100762  .debug_str:00000000000307cd .LASF6135
     /tmp/ccCwMAmf.s:95690  .debug_str:000000000001b988 .LASF6136
     /tmp/ccCwMAmf.s:91520  .debug_str:000000000000af81 .LASF6137
     /tmp/ccCwMAmf.s:99740  .debug_str:000000000002c54a .LASF6138
     /tmp/ccCwMAmf.s:107268  .debug_str:000000000004b628 .LASF6139
     /tmp/ccCwMAmf.s:93918  .debug_str:00000000000144dd .LASF6140
     /tmp/ccCwMAmf.s:95392  .debug_str:000000000001a514 .LASF6141
     /tmp/ccCwMAmf.s:103572  .debug_str:000000000003bc62 .LASF9682
     /tmp/ccCwMAmf.s:108220  .debug_str:000000000004f77d .LASF6142
     /tmp/ccCwMAmf.s:107448  .debug_str:000000000004c1e5 .LASF6143
     /tmp/ccCwMAmf.s:92822  .debug_str:0000000000010081 .LASF6144
     /tmp/ccCwMAmf.s:101720  .debug_str:0000000000034514 .LASF6145
     /tmp/ccCwMAmf.s:107134  .debug_str:000000000004ac23 .LASF6146
     /tmp/ccCwMAmf.s:99732  .debug_str:000000000002c4c8 .LASF6147
     /tmp/ccCwMAmf.s:93142  .debug_str:0000000000011289 .LASF6148
     /tmp/ccCwMAmf.s:105950  .debug_str:0000000000045e69 .LASF6149
     /tmp/ccCwMAmf.s:102364  .debug_str:0000000000037295 .LASF6150
     /tmp/ccCwMAmf.s:95002  .debug_str:00000000000189cd .LASF6151
     /tmp/ccCwMAmf.s:106924  .debug_str:0000000000049e52 .LASF6152
     /tmp/ccCwMAmf.s:93598  .debug_str:0000000000013049 .LASF6153
     /tmp/ccCwMAmf.s:92932  .debug_str:0000000000010575 .LASF6154
     /tmp/ccCwMAmf.s:99442  .debug_str:000000000002b257 .LASF6155
     /tmp/ccCwMAmf.s:96660  .debug_str:000000000001fe34 .LASF6156
     /tmp/ccCwMAmf.s:97248  .debug_str:0000000000022662 .LASF6157
     /tmp/ccCwMAmf.s:91060  .debug_str:0000000000009082 .LASF6158
     /tmp/ccCwMAmf.s:89814  .debug_str:0000000000003bdb .LASF6159
     /tmp/ccCwMAmf.s:101014  .debug_str:000000000003175e .LASF6160
     /tmp/ccCwMAmf.s:104698  .debug_str:000000000004059b .LASF6161
     /tmp/ccCwMAmf.s:89854  .debug_str:0000000000003e3f .LASF6162
     /tmp/ccCwMAmf.s:107620  .debug_str:000000000004ce54 .LASF6163
     /tmp/ccCwMAmf.s:104234  .debug_str:000000000003e991 .LASF6164
     /tmp/ccCwMAmf.s:100436  .debug_str:000000000002f1da .LASF6165
     /tmp/ccCwMAmf.s:89060  .debug_str:00000000000007be .LASF6166
     /tmp/ccCwMAmf.s:101232  .debug_str:00000000000325c2 .LASF6167
     /tmp/ccCwMAmf.s:105860  .debug_str:00000000000458da .LASF6168
     /tmp/ccCwMAmf.s:94962  .debug_str:00000000000187e4 .LASF6169
     /tmp/ccCwMAmf.s:101284  .debug_str:000000000003293e .LASF6170
     /tmp/ccCwMAmf.s:101224  .debug_str:0000000000032555 .LASF6171
     /tmp/ccCwMAmf.s:97042  .debug_str:0000000000021844 .LASF6172
     /tmp/ccCwMAmf.s:101016  .debug_str:0000000000031775 .LASF6173
     /tmp/ccCwMAmf.s:101732  .debug_str:0000000000034627 .LASF6174
     /tmp/ccCwMAmf.s:101956  .debug_str:00000000000356e8 .LASF6175
     /tmp/ccCwMAmf.s:101250  .debug_str:00000000000326e9 .LASF6176
     /tmp/ccCwMAmf.s:107458  .debug_str:000000000004c291 .LASF6177
     /tmp/ccCwMAmf.s:103396  .debug_str:000000000003b01b .LASF6178
     /tmp/ccCwMAmf.s:94418  .debug_str:0000000000016394 .LASF6179
     /tmp/ccCwMAmf.s:97018  .debug_str:00000000000216df .LASF6180
     /tmp/ccCwMAmf.s:90008  .debug_str:0000000000004983 .LASF6181
     /tmp/ccCwMAmf.s:100144  .debug_str:000000000002de2e .LASF6182
     /tmp/ccCwMAmf.s:102002  .debug_str:0000000000035991 .LASF6183
     /tmp/ccCwMAmf.s:99750  .debug_str:000000000002c5f8 .LASF6184
     /tmp/ccCwMAmf.s:100450  .debug_str:000000000002f33c .LASF6185
     /tmp/ccCwMAmf.s:101172  .debug_str:00000000000320f6 .LASF6186
     /tmp/ccCwMAmf.s:100170  .debug_str:000000000002dffe .LASF6187
     /tmp/ccCwMAmf.s:106354  .debug_str:00000000000478eb .LASF6188
     /tmp/ccCwMAmf.s:90822  .debug_str:000000000000802d .LASF6189
     /tmp/ccCwMAmf.s:93294  .debug_str:0000000000011c05 .LASF6190
     /tmp/ccCwMAmf.s:95908  .debug_str:000000000001c9bb .LASF6191
     /tmp/ccCwMAmf.s:89096  .debug_str:0000000000000a2f .LASF6192
     /tmp/ccCwMAmf.s:103456  .debug_str:000000000003b4cb .LASF6193
     /tmp/ccCwMAmf.s:104810  .debug_str:0000000000040ebd .LASF6194
     /tmp/ccCwMAmf.s:106636  .debug_str:0000000000048b4c .LASF6195
     /tmp/ccCwMAmf.s:99082  .debug_str:0000000000029ba3 .LASF6196
     /tmp/ccCwMAmf.s:101270  .debug_str:0000000000032869 .LASF6197
     /tmp/ccCwMAmf.s:89198  .debug_str:000000000000112c .LASF6198
     /tmp/ccCwMAmf.s:91366  .debug_str:000000000000a4ec .LASF6199
     /tmp/ccCwMAmf.s:94212  .debug_str:000000000001569d .LASF6200
     /tmp/ccCwMAmf.s:89292  .debug_str:000000000000176c .LASF6201
     /tmp/ccCwMAmf.s:102710  .debug_str:00000000000387c9 .LASF6202
     /tmp/ccCwMAmf.s:100472  .debug_str:000000000002f4c9 .LASF6203
     /tmp/ccCwMAmf.s:93666  .debug_str:00000000000135e3 .LASF6204
     /tmp/ccCwMAmf.s:106948  .debug_str:0000000000049fdb .LASF6205
     /tmp/ccCwMAmf.s:89218  .debug_str:0000000000001252 .LASF6206
     /tmp/ccCwMAmf.s:97398  .debug_str:0000000000023033 .LASF6207
     /tmp/ccCwMAmf.s:94802  .debug_str:0000000000017de5 .LASF6208
     /tmp/ccCwMAmf.s:93944  .debug_str:00000000000146a5 .LASF6209
     /tmp/ccCwMAmf.s:96104  .debug_str:000000000001d6ad .LASF6210
     /tmp/ccCwMAmf.s:100172  .debug_str:000000000002e025 .LASF6211
     /tmp/ccCwMAmf.s:107844  .debug_str:000000000004de87 .LASF6212
     /tmp/ccCwMAmf.s:105660  .debug_str:0000000000044b8d .LASF6213
     /tmp/ccCwMAmf.s:93252  .debug_str:000000000001190c .LASF6214
     /tmp/ccCwMAmf.s:104522  .debug_str:000000000003faca .LASF6215
     /tmp/ccCwMAmf.s:94610  .debug_str:0000000000017004 .LASF6216
     /tmp/ccCwMAmf.s:90106  .debug_str:0000000000004fdf .LASF6217
     /tmp/ccCwMAmf.s:89134  .debug_str:0000000000000c80 .LASF6218
     /tmp/ccCwMAmf.s:95702  .debug_str:000000000001ba22 .LASF6219
     /tmp/ccCwMAmf.s:106386  .debug_str:0000000000047b0d .LASF6220
     /tmp/ccCwMAmf.s:107940  .debug_str:000000000004e541 .LASF6221
     /tmp/ccCwMAmf.s:102754  .debug_str:000000000003897d .LASF6222
     /tmp/ccCwMAmf.s:92044  .debug_str:000000000000d409 .LASF6223
     /tmp/ccCwMAmf.s:92232  .debug_str:000000000000de3d .LASF6224
     /tmp/ccCwMAmf.s:107738  .debug_str:000000000004d5fa .LASF6225
     /tmp/ccCwMAmf.s:105372  .debug_str:00000000000438b4 .LASF6226
     /tmp/ccCwMAmf.s:90946  .debug_str:00000000000088c0 .LASF6227
     /tmp/ccCwMAmf.s:89686  .debug_str:00000000000033ac .LASF6228
     /tmp/ccCwMAmf.s:91422  .debug_str:000000000000a92b .LASF6229
     /tmp/ccCwMAmf.s:94530  .debug_str:0000000000016b29 .LASF6230
     /tmp/ccCwMAmf.s:103702  .debug_str:000000000003c5f2 .LASF6231
     /tmp/ccCwMAmf.s:91032  .debug_str:0000000000008e9d .LASF6232
     /tmp/ccCwMAmf.s:90240  .debug_str:00000000000058f4 .LASF6233
     /tmp/ccCwMAmf.s:102590  .debug_str:0000000000038076 .LASF6234
     /tmp/ccCwMAmf.s:102532  .debug_str:0000000000037cbb .LASF6235
     /tmp/ccCwMAmf.s:102976  .debug_str:0000000000039576 .LASF6236
     /tmp/ccCwMAmf.s:89968  .debug_str:0000000000004672 .LASF6237
     /tmp/ccCwMAmf.s:98782  .debug_str:00000000000287c3 .LASF6238
     /tmp/ccCwMAmf.s:107272  .debug_str:000000000004b648 .LASF6239
     /tmp/ccCwMAmf.s:99338  .debug_str:000000000002abdc .LASF6240
     /tmp/ccCwMAmf.s:94374  .debug_str:00000000000160b7 .LASF6241
     /tmp/ccCwMAmf.s:92620  .debug_str:000000000000f35c .LASF6242
     /tmp/ccCwMAmf.s:90278  .debug_str:0000000000005bda .LASF6243
     /tmp/ccCwMAmf.s:104856  .debug_str:00000000000412d2 .LASF6244
     /tmp/ccCwMAmf.s:103706  .debug_str:000000000003c653 .LASF6245
     /tmp/ccCwMAmf.s:102624  .debug_str:00000000000382b7 .LASF6246
     /tmp/ccCwMAmf.s:92286  .debug_str:000000000000e172 .LASF6247
     /tmp/ccCwMAmf.s:96956  .debug_str:0000000000021271 .LASF6248
     /tmp/ccCwMAmf.s:89466  .debug_str:00000000000024b8 .LASF6249
     /tmp/ccCwMAmf.s:90324  .debug_str:0000000000005e97 .LASF6250
     /tmp/ccCwMAmf.s:94924  .debug_str:000000000001859e .LASF6251
     /tmp/ccCwMAmf.s:101386  .debug_str:0000000000032fab .LASF6252
     /tmp/ccCwMAmf.s:91214  .debug_str:0000000000009b2d .LASF6253
     /tmp/ccCwMAmf.s:98690  .debug_str:0000000000028125 .LASF6254
     /tmp/ccCwMAmf.s:93048  .debug_str:0000000000010c54 .LASF6255
     /tmp/ccCwMAmf.s:103786  .debug_str:000000000003cb20 .LASF6256
     /tmp/ccCwMAmf.s:107760  .debug_str:000000000004d7dc .LASF6257
     /tmp/ccCwMAmf.s:108294  .debug_str:000000000004fcb9 .LASF6258
     /tmp/ccCwMAmf.s:101714  .debug_str:00000000000344f0 .LASF6259
     /tmp/ccCwMAmf.s:97884  .debug_str:0000000000025087 .LASF6260
     /tmp/ccCwMAmf.s:101716  .debug_str:00000000000344fc .LASF6261
     /tmp/ccCwMAmf.s:103118  .debug_str:0000000000039d17 .LASF6262
     /tmp/ccCwMAmf.s:99470  .debug_str:000000000002b4fb .LASF6263
     /tmp/ccCwMAmf.s:96436  .debug_str:000000000001eddf .LASF6264
     /tmp/ccCwMAmf.s:96546  .debug_str:000000000001f637 .LASF6265
     /tmp/ccCwMAmf.s:100914  .debug_str:00000000000310fa .LASF6266
     /tmp/ccCwMAmf.s:91160  .debug_str:000000000000971e .LASF6267
     /tmp/ccCwMAmf.s:96334  .debug_str:000000000001e75d .LASF6268
     /tmp/ccCwMAmf.s:91334  .debug_str:000000000000a330 .LASF6269
     /tmp/ccCwMAmf.s:96200  .debug_str:000000000001ddec .LASF6270
     /tmp/ccCwMAmf.s:91130  .debug_str:0000000000009551 .LASF6271
     /tmp/ccCwMAmf.s:99340  .debug_str:000000000002abf8 .LASF6272
     /tmp/ccCwMAmf.s:96042  .debug_str:000000000001d27a .LASF6273
     /tmp/ccCwMAmf.s:106592  .debug_str:0000000000048874 .LASF6274
     /tmp/ccCwMAmf.s:90526  .debug_str:0000000000006c13 .LASF6275
     /tmp/ccCwMAmf.s:102284  .debug_str:0000000000036cfa .LASF6276
     /tmp/ccCwMAmf.s:107336  .debug_str:000000000004baa1 .LASF6277
     /tmp/ccCwMAmf.s:107648  .debug_str:000000000004d007 .LASF6278
     /tmp/ccCwMAmf.s:89946  .debug_str:000000000000456d .LASF6279
     /tmp/ccCwMAmf.s:107664  .debug_str:000000000004d0d9 .LASF6280
     /tmp/ccCwMAmf.s:91768  .debug_str:000000000000c1a1 .LASF6281
     /tmp/ccCwMAmf.s:97490  .debug_str:0000000000023757 .LASF6282
     /tmp/ccCwMAmf.s:92276  .debug_str:000000000000e13b .LASF6283
     /tmp/ccCwMAmf.s:97610  .debug_str:0000000000023f16 .LASF6284
     /tmp/ccCwMAmf.s:99976  .debug_str:000000000002d35b .LASF6285
     /tmp/ccCwMAmf.s:107978  .debug_str:000000000004e78b .LASF6286
     /tmp/ccCwMAmf.s:97548  .debug_str:0000000000023b08 .LASF6287
     /tmp/ccCwMAmf.s:98526  .debug_str:0000000000027607 .LASF6288
     /tmp/ccCwMAmf.s:95104  .debug_str:00000000000190ad .LASF6289
     /tmp/ccCwMAmf.s:95106  .debug_str:00000000000190bc .LASF6290
     /tmp/ccCwMAmf.s:95298  .debug_str:0000000000019e69 .LASF6291
     /tmp/ccCwMAmf.s:94390  .debug_str:0000000000016181 .LASF6292
     /tmp/ccCwMAmf.s:101590  .debug_str:0000000000033da3 .LASF6293
     /tmp/ccCwMAmf.s:96406  .debug_str:000000000001ec3e .LASF6294
     /tmp/ccCwMAmf.s:92630  .debug_str:000000000000f3f5 .LASF6295
     /tmp/ccCwMAmf.s:92632  .debug_str:000000000000f404 .LASF6296
     /tmp/ccCwMAmf.s:94744  .debug_str:0000000000017a03 .LASF6297
     /tmp/ccCwMAmf.s:97964  .debug_str:00000000000254b4 .LASF6298
     /tmp/ccCwMAmf.s:105090  .debug_str:00000000000425b1 .LASF6299
     /tmp/ccCwMAmf.s:104498  .debug_str:000000000003f976 .LASF6300
     /tmp/ccCwMAmf.s:96408  .debug_str:000000000001ec48 .LASF6301
     /tmp/ccCwMAmf.s:90956  .debug_str:000000000000899e .LASF6302
     /tmp/ccCwMAmf.s:98070  .debug_str:0000000000025a30 .LASF6303
     /tmp/ccCwMAmf.s:106544  .debug_str:000000000004857d .LASF6304
     /tmp/ccCwMAmf.s:95596  .debug_str:000000000001b30a .LASF6305
     /tmp/ccCwMAmf.s:97738  .debug_str:00000000000247e0 .LASF6306
     /tmp/ccCwMAmf.s:103032  .debug_str:0000000000039838 .LASF6307
     /tmp/ccCwMAmf.s:100300  .debug_str:000000000002e8c8 .LASF6308
     /tmp/ccCwMAmf.s:106254  .debug_str:00000000000471f8 .LASF6309
     /tmp/ccCwMAmf.s:89900  .debug_str:00000000000041d3 .LASF6310
     /tmp/ccCwMAmf.s:92960  .debug_str:00000000000107a0 .LASF6311
     /tmp/ccCwMAmf.s:103196  .debug_str:000000000003a1f1 .LASF6312
     /tmp/ccCwMAmf.s:106100  .debug_str:0000000000046800 .LASF6313
     /tmp/ccCwMAmf.s:97638  .debug_str:000000000002412a .LASF6314
     /tmp/ccCwMAmf.s:104650  .debug_str:000000000004025c .LASF6315
     /tmp/ccCwMAmf.s:105606  .debug_str:0000000000044764 .LASF6316
     /tmp/ccCwMAmf.s:96008  .debug_str:000000000001d047 .LASF6317
     /tmp/ccCwMAmf.s:108020  .debug_str:000000000004e9d2 .LASF6318
     /tmp/ccCwMAmf.s:97060  .debug_str:00000000000219ee .LASF6319
     /tmp/ccCwMAmf.s:92266  .debug_str:000000000000e0a4 .LASF6320
     /tmp/ccCwMAmf.s:91494  .debug_str:000000000000adfd .LASF6321
     /tmp/ccCwMAmf.s:90434  .debug_str:00000000000065a7 .LASF6322
     /tmp/ccCwMAmf.s:90304  .debug_str:0000000000005d23 .LASF6323
     /tmp/ccCwMAmf.s:92032  .debug_str:000000000000d375 .LASF6324
     /tmp/ccCwMAmf.s:105612  .debug_str:00000000000447f1 .LASF6325
     /tmp/ccCwMAmf.s:101368  .debug_str:0000000000032e99 .LASF6326
     /tmp/ccCwMAmf.s:105304  .debug_str:00000000000433af .LASF6327
     /tmp/ccCwMAmf.s:106944  .debug_str:0000000000049f99 .LASF6328
     /tmp/ccCwMAmf.s:99850  .debug_str:000000000002cc2c .LASF6329
     /tmp/ccCwMAmf.s:106234  .debug_str:0000000000047073 .LASF6330
     /tmp/ccCwMAmf.s:107636  .debug_str:000000000004cf4e .LASF6331
     /tmp/ccCwMAmf.s:102400  .debug_str:000000000003746e .LASF6332
     /tmp/ccCwMAmf.s:99120  .debug_str:0000000000029e30 .LASF6333
     /tmp/ccCwMAmf.s:99132  .debug_str:0000000000029ef8 .LASF6334
     /tmp/ccCwMAmf.s:92110  .debug_str:000000000000d7f9 .LASF6335
     /tmp/ccCwMAmf.s:105800  .debug_str:0000000000045469 .LASF6336
     /tmp/ccCwMAmf.s:105578  .debug_str:00000000000445ec .LASF6337
     /tmp/ccCwMAmf.s:105802  .debug_str:0000000000045473 .LASF6338
     /tmp/ccCwMAmf.s:93804  .debug_str:0000000000013e01 .LASF6339
     /tmp/ccCwMAmf.s:105808  .debug_str:00000000000454c5 .LASF6340
     /tmp/ccCwMAmf.s:105024  .debug_str:00000000000420cc .LASF6341
     /tmp/ccCwMAmf.s:103990  .debug_str:000000000003d85f .LASF6342
     /tmp/ccCwMAmf.s:91850  .debug_str:000000000000c6a3 .LASF6343
     /tmp/ccCwMAmf.s:100878  .debug_str:0000000000030ead .LASF6344
     /tmp/ccCwMAmf.s:92278  .debug_str:000000000000e14a .LASF6345
     /tmp/ccCwMAmf.s:92280  .debug_str:000000000000e154 .LASF6346
     /tmp/ccCwMAmf.s:97134  .debug_str:0000000000021f1f .LASF6347
     /tmp/ccCwMAmf.s:91846  .debug_str:000000000000c639 .LASF6348
     /tmp/ccCwMAmf.s:108104  .debug_str:000000000004efdc .LASF6349
     /tmp/ccCwMAmf.s:93688  .debug_str:000000000001371a .LASF6350
     /tmp/ccCwMAmf.s:92282  .debug_str:000000000000e15e .LASF6351
     /tmp/ccCwMAmf.s:89600  .debug_str:0000000000002d99 .LASF6352
     /tmp/ccCwMAmf.s:92284  .debug_str:000000000000e168 .LASF6353
     /tmp/ccCwMAmf.s:94298  .debug_str:0000000000015cb5 .LASF6354
     /tmp/ccCwMAmf.s:102298  .debug_str:0000000000036dd8 .LASF6355
     /tmp/ccCwMAmf.s:92374  .debug_str:000000000000e6fb .LASF6356
     /tmp/ccCwMAmf.s:96628  .debug_str:000000000001fb9a .LASF6357
     /tmp/ccCwMAmf.s:92376  .debug_str:000000000000e705 .LASF6358
     /tmp/ccCwMAmf.s:99542  .debug_str:000000000002b979 .LASF6359
     /tmp/ccCwMAmf.s:92646  .debug_str:000000000000f58f .LASF6360
     /tmp/ccCwMAmf.s:102952  .debug_str:000000000003942e .LASF6361
     /tmp/ccCwMAmf.s:91320  .debug_str:000000000000a271 .LASF6362
     /tmp/ccCwMAmf.s:105958  .debug_str:0000000000045eea .LASF6363
     /tmp/ccCwMAmf.s:104544  .debug_str:000000000003fc25 .LASF6364
     /tmp/ccCwMAmf.s:92380  .debug_str:000000000000e728 .LASF6365
     /tmp/ccCwMAmf.s:91932  .debug_str:000000000000ccc6 .LASF6366
     /tmp/ccCwMAmf.s:99896  .debug_str:000000000002ceb4 .LASF6367
     /tmp/ccCwMAmf.s:92382  .debug_str:000000000000e732 .LASF6368
     /tmp/ccCwMAmf.s:91102  .debug_str:0000000000009360 .LASF6369
     /tmp/ccCwMAmf.s:104558  .debug_str:000000000003fce8 .LASF6370
     /tmp/ccCwMAmf.s:93418  .debug_str:0000000000012423 .LASF6371
     /tmp/ccCwMAmf.s:107166  .debug_str:000000000004af06 .LASF6372
     /tmp/ccCwMAmf.s:100812  .debug_str:0000000000030ab8 .LASF6373
     /tmp/ccCwMAmf.s:90876  .debug_str:00000000000083ff .LASF6374
     /tmp/ccCwMAmf.s:92384  .debug_str:000000000000e73c .LASF6375
     /tmp/ccCwMAmf.s:107060  .debug_str:000000000004a78e .LASF6376
     /tmp/ccCwMAmf.s:92386  .debug_str:000000000000e746 .LASF6377
     /tmp/ccCwMAmf.s:101360  .debug_str:0000000000032e16 .LASF6378
     /tmp/ccCwMAmf.s:89844  .debug_str:0000000000003dd0 .LASF6379
     /tmp/ccCwMAmf.s:92388  .debug_str:000000000000e750 .LASF6380
     /tmp/ccCwMAmf.s:98852  .debug_str:0000000000028cac .LASF6381
     /tmp/ccCwMAmf.s:95278  .debug_str:0000000000019cd5 .LASF6382
     /tmp/ccCwMAmf.s:90532  .debug_str:0000000000006c7f .LASF6383
     /tmp/ccCwMAmf.s:94286  .debug_str:0000000000015c20 .LASF6384
     /tmp/ccCwMAmf.s:105522  .debug_str:0000000000044219 .LASF6385
     /tmp/ccCwMAmf.s:92390  .debug_str:000000000000e75a .LASF6386
     /tmp/ccCwMAmf.s:99096  .debug_str:0000000000029cae .LASF6387
     /tmp/ccCwMAmf.s:94144  .debug_str:00000000000152b4 .LASF6388
     /tmp/ccCwMAmf.s:105926  .debug_str:0000000000045cd9 .LASF6389
     /tmp/ccCwMAmf.s:94422  .debug_str:0000000000016400 .LASF6390
     /tmp/ccCwMAmf.s:95562  .debug_str:000000000001b111 .LASF6391
     /tmp/ccCwMAmf.s:106852  .debug_str:00000000000499ed .LASF6392
     /tmp/ccCwMAmf.s:89158  .debug_str:0000000000000e2d .LASF6393
     /tmp/ccCwMAmf.s:98656  .debug_str:0000000000027f1c .LASF6394
     /tmp/ccCwMAmf.s:104898  .debug_str:00000000000415a0 .LASF6395
     /tmp/ccCwMAmf.s:98784  .debug_str:0000000000028806 .LASF6396
     /tmp/ccCwMAmf.s:92572  .debug_str:000000000000f0f0 .LASF6397
     /tmp/ccCwMAmf.s:105916  .debug_str:0000000000045c17 .LASF6398
     /tmp/ccCwMAmf.s:106180  .debug_str:0000000000046d42 .LASF6399
     /tmp/ccCwMAmf.s:92458  .debug_str:000000000000eb44 .LASF6400
     /tmp/ccCwMAmf.s:91550  .debug_str:000000000000b243 .LASF6401
     /tmp/ccCwMAmf.s:90900  .debug_str:0000000000008582 .LASF6402
     /tmp/ccCwMAmf.s:93596  .debug_str:0000000000013042 .LASF6403
     /tmp/ccCwMAmf.s:93466  .debug_str:0000000000012700 .LASF6404
     /tmp/ccCwMAmf.s:105616  .debug_str:0000000000044834 .LASF6405
     /tmp/ccCwMAmf.s:104208  .debug_str:000000000003e7cc .LASF6406
     /tmp/ccCwMAmf.s:98886  .debug_str:0000000000028f45 .LASF6407
     /tmp/ccCwMAmf.s:91608  .debug_str:000000000000b62b .LASF6408
     /tmp/ccCwMAmf.s:104932  .debug_str:00000000000417ee .LASF6409
     /tmp/ccCwMAmf.s:96690  .debug_str:00000000000200ae .LASF6410
     /tmp/ccCwMAmf.s:92180  .debug_str:000000000000dbf7 .LASF6411
     /tmp/ccCwMAmf.s:107870  .debug_str:000000000004e005 .LASF6412
     /tmp/ccCwMAmf.s:93684  .debug_str:00000000000136d9 .LASF6413
     /tmp/ccCwMAmf.s:92726  .debug_str:000000000000fa7d .LASF6414
     /tmp/ccCwMAmf.s:104336  .debug_str:000000000003ef4f .LASF6415
     /tmp/ccCwMAmf.s:92182  .debug_str:000000000000dc01 .LASF6416
     /tmp/ccCwMAmf.s:96026  .debug_str:000000000001d176 .LASF6417
     /tmp/ccCwMAmf.s:99764  .debug_str:000000000002c685 .LASF6418
     /tmp/ccCwMAmf.s:98658  .debug_str:0000000000027f36 .LASF6419
     /tmp/ccCwMAmf.s:100868  .debug_str:0000000000030e28 .LASF6420
     /tmp/ccCwMAmf.s:89052  .debug_str:0000000000000755 .LASF6421
     /tmp/ccCwMAmf.s:89726  .debug_str:00000000000035c8 .LASF6422
     /tmp/ccCwMAmf.s:107098  .debug_str:000000000004aa1d .LASF6423
     /tmp/ccCwMAmf.s:92336  .debug_str:000000000000e472 .LASF6424
     /tmp/ccCwMAmf.s:92184  .debug_str:000000000000dc0b .LASF6425
     /tmp/ccCwMAmf.s:92186  .debug_str:000000000000dc15 .LASF6426
     /tmp/ccCwMAmf.s:95648  .debug_str:000000000001b66d .LASF6427
     /tmp/ccCwMAmf.s:105718  .debug_str:0000000000044f3b .LASF6428
     /tmp/ccCwMAmf.s:99560  .debug_str:000000000002ba18 .LASF6429
     /tmp/ccCwMAmf.s:101290  .debug_str:00000000000329f0 .LASF6430
     /tmp/ccCwMAmf.s:98598  .debug_str:0000000000027b4d .LASF6431
     /tmp/ccCwMAmf.s:91330  .debug_str:000000000000a314 .LASF6432
     /tmp/ccCwMAmf.s:105910  .debug_str:0000000000045bc0 .LASF6433
     /tmp/ccCwMAmf.s:95930  .debug_str:000000000001cb5e .LASF6434
     /tmp/ccCwMAmf.s:92316  .debug_str:000000000000e351 .LASF6435
     /tmp/ccCwMAmf.s:102788  .debug_str:0000000000038bd9 .LASF6436
     /tmp/ccCwMAmf.s:99290  .debug_str:000000000002a8d4 .LASF6437
     /tmp/ccCwMAmf.s:91742  .debug_str:000000000000c01a .LASF6438
     /tmp/ccCwMAmf.s:92536  .debug_str:000000000000ee67 .LASF6439
     /tmp/ccCwMAmf.s:102964  .debug_str:00000000000394d5 .LASF6440
     /tmp/ccCwMAmf.s:101090  .debug_str:0000000000031bbb .LASF6441
     /tmp/ccCwMAmf.s:97072  .debug_str:0000000000021ae2 .LASF6442
     /tmp/ccCwMAmf.s:96350  .debug_str:000000000001e868 .LASF6443
     /tmp/ccCwMAmf.s:90980  .debug_str:0000000000008b14 .LASF6444
     /tmp/ccCwMAmf.s:103624  .debug_str:000000000003bff9 .LASF6445
     /tmp/ccCwMAmf.s:95940  .debug_str:000000000001cbd3 .LASF6446
     /tmp/ccCwMAmf.s:91312  .debug_str:000000000000a1ae .LASF6447
     /tmp/ccCwMAmf.s:105568  .debug_str:0000000000044572 .LASF6448
     /tmp/ccCwMAmf.s:107064  .debug_str:000000000004a79c .LASF6449
     /tmp/ccCwMAmf.s:103002  .debug_str:000000000003963d .LASF6450
     /tmp/ccCwMAmf.s:96458  .debug_str:000000000001ef3a .LASF6451
     /tmp/ccCwMAmf.s:90396  .debug_str:000000000000632f .LASF6452
     /tmp/ccCwMAmf.s:101976  .debug_str:0000000000035821 .LASF6453
     /tmp/ccCwMAmf.s:99898  .debug_str:000000000002cebf .LASF6454
     /tmp/ccCwMAmf.s:96678  .debug_str:000000000001ffd0 .LASF6455
     /tmp/ccCwMAmf.s:88966  .debug_str:0000000000000116 .LASF6456
     /tmp/ccCwMAmf.s:94134  .debug_str:00000000000151b3 .LASF6457
     /tmp/ccCwMAmf.s:97532  .debug_str:0000000000023a0a .LASF6458
     /tmp/ccCwMAmf.s:90884  .debug_str:000000000000845f .LASF6459
     /tmp/ccCwMAmf.s:106118  .debug_str:00000000000468ba .LASF6460
     /tmp/ccCwMAmf.s:90196  .debug_str:00000000000055f2 .LASF6461
     /tmp/ccCwMAmf.s:105146  .debug_str:00000000000429a4 .LASF6462
     /tmp/ccCwMAmf.s:98440  .debug_str:00000000000270f9 .LASF6463
     /tmp/ccCwMAmf.s:104224  .debug_str:000000000003e8e8 .LASF6464
     /tmp/ccCwMAmf.s:96582  .debug_str:000000000001f8d0 .LASF6465
     /tmp/ccCwMAmf.s:91526  .debug_str:000000000000b023 .LASF6466
     /tmp/ccCwMAmf.s:101104  .debug_str:0000000000031ca7 .LASF6467
     /tmp/ccCwMAmf.s:94454  .debug_str:00000000000165a9 .LASF6468
     /tmp/ccCwMAmf.s:108012  .debug_str:000000000004e973 .LASF6469
     /tmp/ccCwMAmf.s:102672  .debug_str:0000000000038512 .LASF6470
     /tmp/ccCwMAmf.s:89502  .debug_str:000000000000270b .LASF6471
     /tmp/ccCwMAmf.s:99496  .debug_str:000000000002b6a8 .LASF6472
     /tmp/ccCwMAmf.s:102266  .debug_str:0000000000036c2c .LASF6473
     /tmp/ccCwMAmf.s:102444  .debug_str:000000000003778d .LASF6474
     /tmp/ccCwMAmf.s:99526  .debug_str:000000000002b895 .LASF6475
     /tmp/ccCwMAmf.s:102282  .debug_str:0000000000036ceb .LASF6476
     /tmp/ccCwMAmf.s:90286  .debug_str:0000000000005c33 .LASF6477
     /tmp/ccCwMAmf.s:98816  .debug_str:0000000000028a4a .LASF6478
     /tmp/ccCwMAmf.s:98546  .debug_str:00000000000277b2 .LASF6479
     /tmp/ccCwMAmf.s:92466  .debug_str:000000000000eba5 .LASF6480
     /tmp/ccCwMAmf.s:91774  .debug_str:000000000000c1df .LASF6481
     /tmp/ccCwMAmf.s:91810  .debug_str:000000000000c400 .LASF6482
     /tmp/ccCwMAmf.s:99522  .debug_str:000000000002b84e .LASF6483
     /tmp/ccCwMAmf.s:97364  .debug_str:0000000000022e52 .LASF6484
     /tmp/ccCwMAmf.s:101282  .debug_str:000000000003292a .LASF6485
     /tmp/ccCwMAmf.s:95130  .debug_str:0000000000019214 .LASF6486
     /tmp/ccCwMAmf.s:107582  .debug_str:000000000004cb9b .LASF6487
     /tmp/ccCwMAmf.s:105906  .debug_str:0000000000045b70 .LASF6488
     /tmp/ccCwMAmf.s:99060  .debug_str:0000000000029a2e .LASF6489
     /tmp/ccCwMAmf.s:95140  .debug_str:000000000001935f .LASF6490
     /tmp/ccCwMAmf.s:100584  .debug_str:000000000002fbf4 .LASF6491
     /tmp/ccCwMAmf.s:91504  .debug_str:000000000000aecb .LASF6492
     /tmp/ccCwMAmf.s:99962  .debug_str:000000000002d2a4 .LASF6493
     /tmp/ccCwMAmf.s:93996  .debug_str:0000000000014a0a .LASF6494
     /tmp/ccCwMAmf.s:94050  .debug_str:0000000000014c66 .LASF6495
     /tmp/ccCwMAmf.s:103966  .debug_str:000000000003d6cb .LASF6496
     /tmp/ccCwMAmf.s:99342  .debug_str:000000000002ac08 .LASF6497
     /tmp/ccCwMAmf.s:99146  .debug_str:0000000000029ff1 .LASF6498
     /tmp/ccCwMAmf.s:103620  .debug_str:000000000003bfd1 .LASF6499
     /tmp/ccCwMAmf.s:97928  .debug_str:0000000000025310 .LASF6500
     /tmp/ccCwMAmf.s:92120  .debug_str:000000000000d89d .LASF6501
     /tmp/ccCwMAmf.s:97212  .debug_str:00000000000224aa .LASF6502
     /tmp/ccCwMAmf.s:96572  .debug_str:000000000001f80c .LASF6503
     /tmp/ccCwMAmf.s:103098  .debug_str:0000000000039c1a .LASF6504
     /tmp/ccCwMAmf.s:103096  .debug_str:0000000000039c0a .LASF6505
     /tmp/ccCwMAmf.s:101322  .debug_str:0000000000032be8 .LASF6506
     /tmp/ccCwMAmf.s:91646  .debug_str:000000000000b8e0 .LASF6507
     /tmp/ccCwMAmf.s:106062  .debug_str:000000000004656b .LASF6508
     /tmp/ccCwMAmf.s:91416  .debug_str:000000000000a8de .LASF6509
     /tmp/ccCwMAmf.s:97034  .debug_str:00000000000217ce .LASF6510
     /tmp/ccCwMAmf.s:95086  .debug_str:0000000000018f4d .LASF6511
     /tmp/ccCwMAmf.s:97214  .debug_str:00000000000224b3 .LASF6512
     /tmp/ccCwMAmf.s:102320  .debug_str:0000000000036f56 .LASF6513
     /tmp/ccCwMAmf.s:106260  .debug_str:0000000000047277 .LASF6514
     /tmp/ccCwMAmf.s:100454  .debug_str:000000000002f383 .LASF6515
     /tmp/ccCwMAmf.s:104426  .debug_str:000000000003f4b4 .LASF6516
     /tmp/ccCwMAmf.s:98570  .debug_str:0000000000027934 .LASF6517
     /tmp/ccCwMAmf.s:108082  .debug_str:000000000004ee7a .LASF6518
     /tmp/ccCwMAmf.s:97216  .debug_str:00000000000224bc .LASF6519
     /tmp/ccCwMAmf.s:103730  .debug_str:000000000003c7f2 .LASF6520
     /tmp/ccCwMAmf.s:104428  .debug_str:000000000003f4c2 .LASF6521
     /tmp/ccCwMAmf.s:90490  .debug_str:000000000000699b .LASF6522
     /tmp/ccCwMAmf.s:106700  .debug_str:0000000000048fa7 .LASF6523
     /tmp/ccCwMAmf.s:103538  .debug_str:000000000003b9c3 .LASF6524
     /tmp/ccCwMAmf.s:98726  .debug_str:0000000000028372 .LASF6525
     /tmp/ccCwMAmf.s:98712  .debug_str:0000000000028271 .LASF6526
     /tmp/ccCwMAmf.s:106404  .debug_str:0000000000047c81 .LASF6527
     /tmp/ccCwMAmf.s:97868  .debug_str:0000000000024f66 .LASF6528
     /tmp/ccCwMAmf.s:92188  .debug_str:000000000000dc1f .LASF6529
     /tmp/ccCwMAmf.s:97218  .debug_str:00000000000224c5 .LASF6530
     /tmp/ccCwMAmf.s:97512  .debug_str:00000000000238d4 .LASF6531
     /tmp/ccCwMAmf.s:97544  .debug_str:0000000000023adb .LASF6532
     /tmp/ccCwMAmf.s:91842  .debug_str:000000000000c608 .LASF6533
     /tmp/ccCwMAmf.s:91610  .debug_str:000000000000b636 .LASF6534
     /tmp/ccCwMAmf.s:100684  .debug_str:0000000000030241 .LASF6535
     /tmp/ccCwMAmf.s:89552  .debug_str:0000000000002ac6 .LASF6536
     /tmp/ccCwMAmf.s:90502  .debug_str:0000000000006a82 .LASF6537
     /tmp/ccCwMAmf.s:89806  .debug_str:0000000000003b58 .LASF6538
     /tmp/ccCwMAmf.s:92890  .debug_str:00000000000103c9 .LASF6539
     /tmp/ccCwMAmf.s:90384  .debug_str:0000000000006256 .LASF6540
     /tmp/ccCwMAmf.s:99384  .debug_str:000000000002af81 .LASF6541
     /tmp/ccCwMAmf.s:104902  .debug_str:00000000000415f2 .LASF6542
     /tmp/ccCwMAmf.s:92190  .debug_str:000000000000dc29 .LASF6543
     /tmp/ccCwMAmf.s:97220  .debug_str:00000000000224ce .LASF6544
     /tmp/ccCwMAmf.s:91290  .debug_str:000000000000a01d .LASF6545
     /tmp/ccCwMAmf.s:97662  .debug_str:00000000000242f1 .LASF6546
     /tmp/ccCwMAmf.s:105170  .debug_str:0000000000042acc .LASF6547
     /tmp/ccCwMAmf.s:106988  .debug_str:000000000004a1e8 .LASF6548
     /tmp/ccCwMAmf.s:106968  .debug_str:000000000004a0f0 .LASF6549
     /tmp/ccCwMAmf.s:92192  .debug_str:000000000000dc33 .LASF6550
     /tmp/ccCwMAmf.s:97222  .debug_str:00000000000224d7 .LASF6551
     /tmp/ccCwMAmf.s:104634  .debug_str:00000000000401a1 .LASF6552
     /tmp/ccCwMAmf.s:90692  .debug_str:000000000000783e .LASF6553
     /tmp/ccCwMAmf.s:108328  .debug_str:000000000004fead .LASF6554
     /tmp/ccCwMAmf.s:92194  .debug_str:000000000000dc3d .LASF6555
     /tmp/ccCwMAmf.s:97224  .debug_str:00000000000224e0 .LASF6556
     /tmp/ccCwMAmf.s:98524  .debug_str:00000000000275e4 .LASF6557
     /tmp/ccCwMAmf.s:90096  .debug_str:0000000000004f82 .LASF6558
     /tmp/ccCwMAmf.s:106594  .debug_str:0000000000048884 .LASF6559
     /tmp/ccCwMAmf.s:98174  .debug_str:0000000000025fe5 .LASF6560
     /tmp/ccCwMAmf.s:105640  .debug_str:00000000000449f2 .LASF6561
     /tmp/ccCwMAmf.s:91464  .debug_str:000000000000aba5 .LASF6562
     /tmp/ccCwMAmf.s:95232  .debug_str:00000000000199ca .LASF6563
     /tmp/ccCwMAmf.s:93800  .debug_str:0000000000013dcd .LASF6564
     /tmp/ccCwMAmf.s:89720  .debug_str:000000000000357e .LASF6565
     /tmp/ccCwMAmf.s:101038  .debug_str:00000000000318e4 .LASF6566
     /tmp/ccCwMAmf.s:103924  .debug_str:000000000003d3f0 .LASF6567
     /tmp/ccCwMAmf.s:90566  .debug_str:0000000000006fbb .LASF6568
     /tmp/ccCwMAmf.s:89972  .debug_str:00000000000046cc .LASF6569
     /tmp/ccCwMAmf.s:101784  .debug_str:0000000000034ae0 .LASF6570
     /tmp/ccCwMAmf.s:107326  .debug_str:000000000004ba12 .LASF6571
     /tmp/ccCwMAmf.s:96790  .debug_str:0000000000020876 .LASF6572
     /tmp/ccCwMAmf.s:92900  .debug_str:0000000000010479 .LASF6573
     /tmp/ccCwMAmf.s:95926  .debug_str:000000000001cb11 .LASF6574
     /tmp/ccCwMAmf.s:98868  .debug_str:0000000000028e01 .LASF6575
     /tmp/ccCwMAmf.s:93212  .debug_str:0000000000011645 .LASF6576
     /tmp/ccCwMAmf.s:99126  .debug_str:0000000000029eac .LASF6577
     /tmp/ccCwMAmf.s:97326  .debug_str:0000000000022b98 .LASF6578
     /tmp/ccCwMAmf.s:89076  .debug_str:00000000000008d0 .LASF6579
     /tmp/ccCwMAmf.s:103140  .debug_str:0000000000039e35 .LASF6580
     /tmp/ccCwMAmf.s:96208  .debug_str:000000000001de6c .LASF6581
     /tmp/ccCwMAmf.s:105020  .debug_str:000000000004209e .LASF6582
     /tmp/ccCwMAmf.s:107220  .debug_str:000000000004b2a5 .LASF6583
     /tmp/ccCwMAmf.s:90732  .debug_str:0000000000007a9c .LASF6584
     /tmp/ccCwMAmf.s:103296  .debug_str:000000000003a939 .LASF6585
     /tmp/ccCwMAmf.s:98448  .debug_str:000000000002717b .LASF6586
     /tmp/ccCwMAmf.s:105714  .debug_str:0000000000044f19 .LASF6587
     /tmp/ccCwMAmf.s:99088  .debug_str:0000000000029bf7 .LASF6588
     /tmp/ccCwMAmf.s:105298  .debug_str:000000000004337b .LASF6589
     /tmp/ccCwMAmf.s:104086  .debug_str:000000000003dfb0 .LASF6590
     /tmp/ccCwMAmf.s:95728  .debug_str:000000000001bc75 .LASF6591
     /tmp/ccCwMAmf.s:98450  .debug_str:0000000000027184 .LASF6592
     /tmp/ccCwMAmf.s:106534  .debug_str:00000000000484fa .LASF6593
     /tmp/ccCwMAmf.s:95370  .debug_str:000000000001a332 .LASF6594
     /tmp/ccCwMAmf.s:102172  .debug_str:00000000000365b7 .LASF6595
     /tmp/ccCwMAmf.s:97392  .debug_str:0000000000022ff3 .LASF6596
     /tmp/ccCwMAmf.s:102666  .debug_str:0000000000038486 .LASF6597
     /tmp/ccCwMAmf.s:96390  .debug_str:000000000001eb0e .LASF6598
     /tmp/ccCwMAmf.s:101174  .debug_str:0000000000032136 .LASF6599
     /tmp/ccCwMAmf.s:98452  .debug_str:000000000002718d .LASF6600
     /tmp/ccCwMAmf.s:96830  .debug_str:0000000000020ab8 .LASF6601
     /tmp/ccCwMAmf.s:103126  .debug_str:0000000000039d6c .LASF6602
     /tmp/ccCwMAmf.s:107354  .debug_str:000000000004bbe1 .LASF6603
     /tmp/ccCwMAmf.s:100372  .debug_str:000000000002edbc .LASF6604
     /tmp/ccCwMAmf.s:98454  .debug_str:0000000000027196 .LASF6605
     /tmp/ccCwMAmf.s:89660  .debug_str:00000000000031d0 .LASF6606
     /tmp/ccCwMAmf.s:91668  .debug_str:000000000000ba59 .LASF6607
     /tmp/ccCwMAmf.s:99140  .debug_str:0000000000029f95 .LASF6608
     /tmp/ccCwMAmf.s:95274  .debug_str:0000000000019cb2 .LASF6609
     /tmp/ccCwMAmf.s:103188  .debug_str:000000000003a196 .LASF6610
     /tmp/ccCwMAmf.s:103474  .debug_str:000000000003b608 .LASF6611
     /tmp/ccCwMAmf.s:93954  .debug_str:000000000001474e .LASF6612
     /tmp/ccCwMAmf.s:96506  .debug_str:000000000001f320 .LASF6613
     /tmp/ccCwMAmf.s:99190  .debug_str:000000000002a32b .LASF6614
     /tmp/ccCwMAmf.s:98458  .debug_str:00000000000271b9 .LASF6615
     /tmp/ccCwMAmf.s:90632  .debug_str:0000000000007461 .LASF6616
     /tmp/ccCwMAmf.s:107966  .debug_str:000000000004e69d .LASF6617
     /tmp/ccCwMAmf.s:100184  .debug_str:000000000002e0ee .LASF6618
     /tmp/ccCwMAmf.s:100834  .debug_str:0000000000030c1e .LASF6619
     /tmp/ccCwMAmf.s:102270  .debug_str:0000000000036c6a .LASF6620
     /tmp/ccCwMAmf.s:96912  .debug_str:0000000000020f66 .LASF6621
     /tmp/ccCwMAmf.s:96514  .debug_str:000000000001f3c7 .LASF6622
     /tmp/ccCwMAmf.s:94424  .debug_str:000000000001640a .LASF6623
     /tmp/ccCwMAmf.s:105136  .debug_str:000000000004290a .LASF6624
     /tmp/ccCwMAmf.s:91098  .debug_str:00000000000092bb .LASF6625
     /tmp/ccCwMAmf.s:102294  .debug_str:0000000000036d8a .LASF6626
     /tmp/ccCwMAmf.s:104276  .debug_str:000000000003eb9e .LASF6627
     /tmp/ccCwMAmf.s:105084  .debug_str:000000000004257a .LASF6628
     /tmp/ccCwMAmf.s:96880  .debug_str:0000000000020d68 .LASF6629
     /tmp/ccCwMAmf.s:107234  .debug_str:000000000004b3da .LASF6630
     /tmp/ccCwMAmf.s:98622  .debug_str:0000000000027cc6 .LASF6631
     /tmp/ccCwMAmf.s:91984  .debug_str:000000000000cfcb .LASF6632
     /tmp/ccCwMAmf.s:99966  .debug_str:000000000002d2c1 .LASF6633
     /tmp/ccCwMAmf.s:91506  .debug_str:000000000000aef8 .LASF6634
     /tmp/ccCwMAmf.s:106532  .debug_str:00000000000484d7 .LASF6635
     /tmp/ccCwMAmf.s:92088  .debug_str:000000000000d6c4 .LASF6636
     /tmp/ccCwMAmf.s:101452  .debug_str:0000000000033434 .LASF6637
     /tmp/ccCwMAmf.s:101848  .debug_str:0000000000034e78 .LASF6638
     /tmp/ccCwMAmf.s:98354  .debug_str:0000000000026b6c .LASF6639
     /tmp/ccCwMAmf.s:98014  .debug_str:00000000000257db .LASF6640
     /tmp/ccCwMAmf.s:99970  .debug_str:000000000002d305 .LASF6641
     /tmp/ccCwMAmf.s:89178  .debug_str:0000000000000fa6 .LASF6642
     /tmp/ccCwMAmf.s:91112  .debug_str:0000000000009436 .LASF6643
     /tmp/ccCwMAmf.s:104730  .debug_str:0000000000040836 .LASF6644
     /tmp/ccCwMAmf.s:103858  .debug_str:000000000003cfb9 .LASF6645
     /tmp/ccCwMAmf.s:104242  .debug_str:000000000003ea40 .LASF6646
     /tmp/ccCwMAmf.s:105894  .debug_str:0000000000045aab .LASF6647
     /tmp/ccCwMAmf.s:104880  .debug_str:0000000000041491 .LASF6648
     /tmp/ccCwMAmf.s:107178  .debug_str:000000000004afb6 .LASF6649
     /tmp/ccCwMAmf.s:100978  .debug_str:00000000000314a9 .LASF6650
     /tmp/ccCwMAmf.s:103582  .debug_str:000000000003bcf7 .LASF6651
     /tmp/ccCwMAmf.s:90706  .debug_str:0000000000007924 .LASF6652
     /tmp/ccCwMAmf.s:96166  .debug_str:000000000001db80 .LASF6653
     /tmp/ccCwMAmf.s:91118  .debug_str:000000000000947e .LASF6654
     /tmp/ccCwMAmf.s:95174  .debug_str:00000000000195e0 .LASF6655
     /tmp/ccCwMAmf.s:89130  .debug_str:0000000000000c51 .LASF6656
     /tmp/ccCwMAmf.s:104974  .debug_str:0000000000041d03 .LASF6657
     /tmp/ccCwMAmf.s:96684  .debug_str:0000000000020051 .LASF6658
     /tmp/ccCwMAmf.s:105866  .debug_str:0000000000045944 .LASF6659
     /tmp/ccCwMAmf.s:108070  .debug_str:000000000004edab .LASF6660
     /tmp/ccCwMAmf.s:93402  .debug_str:0000000000012391 .LASF6661
     /tmp/ccCwMAmf.s:103914  .debug_str:000000000003d2fd .LASF6662
     /tmp/ccCwMAmf.s:91916  .debug_str:000000000000cba8 .LASF6663
     /tmp/ccCwMAmf.s:102640  .debug_str:000000000003840d .LASF6664
     /tmp/ccCwMAmf.s:96140  .debug_str:000000000001d95b .LASF6665
     /tmp/ccCwMAmf.s:99712  .debug_str:000000000002c3a6 .LASF6666
     /tmp/ccCwMAmf.s:105528  .debug_str:0000000000044273 .LASF6667
     /tmp/ccCwMAmf.s:91250  .debug_str:0000000000009de0 .LASF6668
     /tmp/ccCwMAmf.s:99714  .debug_str:000000000002c3b6 .LASF6669
     /tmp/ccCwMAmf.s:89058  .debug_str:00000000000007b5 .LASF6670
     /tmp/ccCwMAmf.s:106000  .debug_str:00000000000461e1 .LASF6671
     /tmp/ccCwMAmf.s:95944  .debug_str:000000000001cc12 .LASF6672
     /tmp/ccCwMAmf.s:92988  .debug_str:0000000000010948 .LASF6673
     /tmp/ccCwMAmf.s:106440  .debug_str:0000000000047ed0 .LASF6674
     /tmp/ccCwMAmf.s:101000  .debug_str:000000000003168c .LASF6675
     /tmp/ccCwMAmf.s:96014  .debug_str:000000000001d0a9 .LASF6676
     /tmp/ccCwMAmf.s:101772  .debug_str:00000000000349b6 .LASF6677
     /tmp/ccCwMAmf.s:95860  .debug_str:000000000001c5fe .LASF6678
     /tmp/ccCwMAmf.s:95414  .debug_str:000000000001a68c .LASF6679
     /tmp/ccCwMAmf.s:98674  .debug_str:0000000000028069 .LASF6680
     /tmp/ccCwMAmf.s:102718  .debug_str:000000000003882f .LASF6681
     /tmp/ccCwMAmf.s:98196  .debug_str:0000000000026167 .LASF6682
     /tmp/ccCwMAmf.s:91408  .debug_str:000000000000a857 .LASF6683
     /tmp/ccCwMAmf.s:101540  .debug_str:0000000000033a94 .LASF6684
     /tmp/ccCwMAmf.s:94898  .debug_str:0000000000018409 .LASF6685
     /tmp/ccCwMAmf.s:107912  .debug_str:000000000004e322 .LASF6686
     /tmp/ccCwMAmf.s:101542  .debug_str:0000000000033aa0 .LASF6687
     /tmp/ccCwMAmf.s:104256  .debug_str:000000000003eb01 .LASF6688
     /tmp/ccCwMAmf.s:101864  .debug_str:0000000000034f8b .LASF6689
     /tmp/ccCwMAmf.s:101544  .debug_str:0000000000033aac .LASF6690
     /tmp/ccCwMAmf.s:104258  .debug_str:000000000003eb07 .LASF6691
     /tmp/ccCwMAmf.s:95660  .debug_str:000000000001b726 .LASF6692
     /tmp/ccCwMAmf.s:99544  .debug_str:000000000002b98a .LASF6693
     /tmp/ccCwMAmf.s:104890  .debug_str:0000000000041549 .LASF6694
     /tmp/ccCwMAmf.s:104004  .debug_str:000000000003d9a1 .LASF6695
     /tmp/ccCwMAmf.s:99546  .debug_str:000000000002b994 .LASF6696
     /tmp/ccCwMAmf.s:104262  .debug_str:000000000003eb19 .LASF6697
     /tmp/ccCwMAmf.s:90846  .debug_str:00000000000081af .LASF6698
     /tmp/ccCwMAmf.s:106618  .debug_str:00000000000489ef .LASF6699
     /tmp/ccCwMAmf.s:104264  .debug_str:000000000003eb1f .LASF6700
     /tmp/ccCwMAmf.s:96622  .debug_str:000000000001fb22 .LASF6701
     /tmp/ccCwMAmf.s:99550  .debug_str:000000000002b9b3 .LASF6702
     /tmp/ccCwMAmf.s:94916  .debug_str:0000000000018511 .LASF6703
     /tmp/ccCwMAmf.s:97300  .debug_str:00000000000229e3 .LASF6704
     /tmp/ccCwMAmf.s:107688  .debug_str:000000000004d23d .LASF6705
     /tmp/ccCwMAmf.s:104268  .debug_str:000000000003eb57 .LASF6706
     /tmp/ccCwMAmf.s:103778  .debug_str:000000000003ca7a .LASF6707
     /tmp/ccCwMAmf.s:104564  .debug_str:000000000003fd3b .LASF6708
     /tmp/ccCwMAmf.s:104270  .debug_str:000000000003eb5d .LASF6709
     /tmp/ccCwMAmf.s:96852  .debug_str:0000000000020be6 .LASF6710
     /tmp/ccCwMAmf.s:89528  .debug_str:00000000000028fe .LASF6711
     /tmp/ccCwMAmf.s:94968  .debug_str:000000000001887e .LASF6712
     /tmp/ccCwMAmf.s:93270  .debug_str:0000000000011a63 .LASF6713
     /tmp/ccCwMAmf.s:89530  .debug_str:0000000000002909 .LASF6714
     /tmp/ccCwMAmf.s:94970  .debug_str:0000000000018885 .LASF6715
     /tmp/ccCwMAmf.s:106530  .debug_str:00000000000484b6 .LASF6716
     /tmp/ccCwMAmf.s:104068  .debug_str:000000000003de7d .LASF6717
     /tmp/ccCwMAmf.s:91952  .debug_str:000000000000ce22 .LASF6718
     /tmp/ccCwMAmf.s:105532  .debug_str:0000000000044290 .LASF6719
     /tmp/ccCwMAmf.s:104070  .debug_str:000000000003de86 .LASF6720
     /tmp/ccCwMAmf.s:94974  .debug_str:0000000000018893 .LASF6721
     /tmp/ccCwMAmf.s:94266  .debug_str:0000000000015a3b .LASF6722
     /tmp/ccCwMAmf.s:104072  .debug_str:000000000003de8f .LASF6723
     /tmp/ccCwMAmf.s:94976  .debug_str:000000000001889a .LASF6724
     /tmp/ccCwMAmf.s:107476  .debug_str:000000000004c3ca .LASF6725
     /tmp/ccCwMAmf.s:104074  .debug_str:000000000003de98 .LASF6726
     /tmp/ccCwMAmf.s:94014  .debug_str:0000000000014b23 .LASF6727
     /tmp/ccCwMAmf.s:101434  .debug_str:00000000000332f6 .LASF6728
     /tmp/ccCwMAmf.s:103868  .debug_str:000000000003d07a .LASF6729
     /tmp/ccCwMAmf.s:94018  .debug_str:0000000000014b53 .LASF6730
     /tmp/ccCwMAmf.s:95240  .debug_str:0000000000019a37 .LASF6731
     /tmp/ccCwMAmf.s:104682  .debug_str:0000000000040497 .LASF6732
     /tmp/ccCwMAmf.s:102406  .debug_str:00000000000374d8 .LASF6733
     /tmp/ccCwMAmf.s:91200  .debug_str:00000000000099f8 .LASF6734
     /tmp/ccCwMAmf.s:94886  .debug_str:000000000001831c .LASF6735
     /tmp/ccCwMAmf.s:102408  .debug_str:00000000000374de .LASF6736
     /tmp/ccCwMAmf.s:104526  .debug_str:000000000003fb19 .LASF6737
     /tmp/ccCwMAmf.s:92474  .debug_str:000000000000ec42 .LASF6738
     /tmp/ccCwMAmf.s:102410  .debug_str:00000000000374e4 .LASF6739
     /tmp/ccCwMAmf.s:98406  .debug_str:0000000000026ee4 .LASF6740
     /tmp/ccCwMAmf.s:101518  .debug_str:00000000000338c3 .LASF6741
     /tmp/ccCwMAmf.s:102472  .debug_str:0000000000037996 .LASF6742
     /tmp/ccCwMAmf.s:102374  .debug_str:000000000003730d .LASF6743
     /tmp/ccCwMAmf.s:89422  .debug_str:000000000000217b .LASF6744
     /tmp/ccCwMAmf.s:102474  .debug_str:000000000003799c .LASF6745
     /tmp/ccCwMAmf.s:104546  .debug_str:000000000003fc2e .LASF6746
     /tmp/ccCwMAmf.s:104946  .debug_str:00000000000418cc .LASF6747
     /tmp/ccCwMAmf.s:102476  .debug_str:00000000000379a2 .LASF6748
     /tmp/ccCwMAmf.s:98426  .debug_str:000000000002703c .LASF6749
     /tmp/ccCwMAmf.s:96878  .debug_str:0000000000020d5a .LASF6750
     /tmp/ccCwMAmf.s:102478  .debug_str:00000000000379a8 .LASF6751
     /tmp/ccCwMAmf.s:92170  .debug_str:000000000000db87 .LASF6752
     /tmp/ccCwMAmf.s:96882  .debug_str:0000000000020d8b .LASF6753
     /tmp/ccCwMAmf.s:102480  .debug_str:00000000000379ae .LASF6754
     /tmp/ccCwMAmf.s:105552  .debug_str:000000000004442c .LASF6755
     /tmp/ccCwMAmf.s:100122  .debug_str:000000000002dcc3 .LASF6756
     /tmp/ccCwMAmf.s:102482  .debug_str:00000000000379b4 .LASF6757
     /tmp/ccCwMAmf.s:99462  .debug_str:000000000002b46d .LASF6758
     /tmp/ccCwMAmf.s:107666  .debug_str:000000000004d0e2 .LASF6759
     /tmp/ccCwMAmf.s:102484  .debug_str:00000000000379ba .LASF6760
     /tmp/ccCwMAmf.s:93246  .debug_str:00000000000118b6 .LASF6761
     /tmp/ccCwMAmf.s:101032  .debug_str:00000000000318ac .LASF6762
     /tmp/ccCwMAmf.s:102486  .debug_str:00000000000379c0 .LASF6763
     /tmp/ccCwMAmf.s:107802  .debug_str:000000000004db52 .LASF6764
     /tmp/ccCwMAmf.s:101482  .debug_str:000000000003369a .LASF6765
     /tmp/ccCwMAmf.s:99418  .debug_str:000000000002b13b .LASF6766
     /tmp/ccCwMAmf.s:100448  .debug_str:000000000002f31c .LASF6767
     /tmp/ccCwMAmf.s:94634  .debug_str:00000000000171c1 .LASF6768
     /tmp/ccCwMAmf.s:102490  .debug_str:00000000000379e7 .LASF6769
     /tmp/ccCwMAmf.s:94246  .debug_str:00000000000158f8 .LASF6770
     /tmp/ccCwMAmf.s:101448  .debug_str:00000000000333fd .LASF6771
     /tmp/ccCwMAmf.s:102564  .debug_str:0000000000037f70 .LASF6772
     /tmp/ccCwMAmf.s:106526  .debug_str:0000000000048490 .LASF6773
     /tmp/ccCwMAmf.s:102286  .debug_str:0000000000036d09 .LASF6774
     /tmp/ccCwMAmf.s:102566  .debug_str:0000000000037f76 .LASF6775
     /tmp/ccCwMAmf.s:100466  .debug_str:000000000002f44e .LASF6776
     /tmp/ccCwMAmf.s:89816  .debug_str:0000000000003c17 .LASF6777
     /tmp/ccCwMAmf.s:102568  .debug_str:0000000000037f7c .LASF6778
     /tmp/ccCwMAmf.s:94264  .debug_str:0000000000015a1b .LASF6779
     /tmp/ccCwMAmf.s:93030  .debug_str:0000000000010b41 .LASF6780
     /tmp/ccCwMAmf.s:102570  .debug_str:0000000000037f82 .LASF6781
     /tmp/ccCwMAmf.s:107472  .debug_str:000000000004c394 .LASF6782
     /tmp/ccCwMAmf.s:93032  .debug_str:0000000000010b4b .LASF6783
     /tmp/ccCwMAmf.s:102572  .debug_str:0000000000037f88 .LASF6784
     /tmp/ccCwMAmf.s:89838  .debug_str:0000000000003d5d .LASF6785
     /tmp/ccCwMAmf.s:98774  .debug_str:0000000000028738 .LASF6786
     /tmp/ccCwMAmf.s:99578  .debug_str:000000000002bb29 .LASF6787
     /tmp/ccCwMAmf.s:92138  .debug_str:000000000000d9ac .LASF6788
     /tmp/ccCwMAmf.s:107862  .debug_str:000000000004df7f .LASF6789
     /tmp/ccCwMAmf.s:102576  .debug_str:0000000000037f9d .LASF6790
     /tmp/ccCwMAmf.s:89064  .debug_str:0000000000000804 .LASF6791
     /tmp/ccCwMAmf.s:107866  .debug_str:000000000004dfb8 .LASF6792
     /tmp/ccCwMAmf.s:102578  .debug_str:0000000000037fa3 .LASF6793
     /tmp/ccCwMAmf.s:102388  .debug_str:00000000000373dd .LASF6794
     /tmp/ccCwMAmf.s:92812  .debug_str:000000000000fff3 .LASF6795
     /tmp/ccCwMAmf.s:102580  .debug_str:0000000000037fa9 .LASF6796
     /tmp/ccCwMAmf.s:96188  .debug_str:000000000001dd06 .LASF6797
     /tmp/ccCwMAmf.s:108260  .debug_str:000000000004fa60 .LASF6798
     /tmp/ccCwMAmf.s:102582  .debug_str:0000000000037faf .LASF6799
     /tmp/ccCwMAmf.s:90000  .debug_str:00000000000048d5 .LASF6800
     /tmp/ccCwMAmf.s:101458  .debug_str:00000000000334b6 .LASF6801
     /tmp/ccCwMAmf.s:102644  .debug_str:0000000000038430 .LASF6802
     /tmp/ccCwMAmf.s:102416  .debug_str:0000000000037528 .LASF6803
     /tmp/ccCwMAmf.s:98506  .debug_str:00000000000274ec .LASF6804
     /tmp/ccCwMAmf.s:102646  .debug_str:0000000000038436 .LASF6805
     /tmp/ccCwMAmf.s:96210  .debug_str:000000000001de7c .LASF6806
     /tmp/ccCwMAmf.s:89864  .debug_str:0000000000003f0a .LASF6807
     /tmp/ccCwMAmf.s:102648  .debug_str:000000000003843c .LASF6808
     /tmp/ccCwMAmf.s:90016  .debug_str:0000000000004a5b .LASF6809
     /tmp/ccCwMAmf.s:94292  .debug_str:0000000000015c65 .LASF6810
     /tmp/ccCwMAmf.s:102650  .debug_str:0000000000038442 .LASF6811
     /tmp/ccCwMAmf.s:103432  .debug_str:000000000003b28a .LASF6812
     /tmp/ccCwMAmf.s:94294  .debug_str:0000000000015c71 .LASF6813
     /tmp/ccCwMAmf.s:102652  .debug_str:0000000000038448 .LASF6814
     /tmp/ccCwMAmf.s:97200  .debug_str:000000000002240e .LASF6815
     /tmp/ccCwMAmf.s:94524  .debug_str:0000000000016ab1 .LASF6816
     /tmp/ccCwMAmf.s:102654  .debug_str:000000000003844e .LASF6817
     /tmp/ccCwMAmf.s:90962  .debug_str:00000000000089f7 .LASF6818
     /tmp/ccCwMAmf.s:89670  .debug_str:0000000000003256 .LASF6819
     /tmp/ccCwMAmf.s:102656  .debug_str:0000000000038454 .LASF6820
     /tmp/ccCwMAmf.s:104278  .debug_str:000000000003eba9 .LASF6821
     /tmp/ccCwMAmf.s:89674  .debug_str:00000000000032a2 .LASF6822
     /tmp/ccCwMAmf.s:102658  .debug_str:000000000003845a .LASF6823
     /tmp/ccCwMAmf.s:98156  .debug_str:0000000000025e56 .LASF6824
     /tmp/ccCwMAmf.s:98270  .debug_str:00000000000265c2 .LASF6825
     /tmp/ccCwMAmf.s:102660  .debug_str:0000000000038460 .LASF6826
     /tmp/ccCwMAmf.s:91920  .debug_str:000000000000cbe9 .LASF6827
     /tmp/ccCwMAmf.s:97760  .debug_str:000000000002492f .LASF6828
     /tmp/ccCwMAmf.s:102662  .debug_str:0000000000038466 .LASF6829
     /tmp/ccCwMAmf.s:105274  .debug_str:00000000000431d2 .LASF6830
     /tmp/ccCwMAmf.s:107932  .debug_str:000000000004e4af .LASF6831
     /tmp/ccCwMAmf.s:102724  .debug_str:0000000000038892 .LASF6832
     /tmp/ccCwMAmf.s:98180  .debug_str:000000000002606a .LASF6833
     /tmp/ccCwMAmf.s:97352  .debug_str:0000000000022d8e .LASF6834
     /tmp/ccCwMAmf.s:99892  .debug_str:000000000002ce82 .LASF6835
     /tmp/ccCwMAmf.s:91940  .debug_str:000000000000cd4d .LASF6836
     /tmp/ccCwMAmf.s:103402  .debug_str:000000000003b0a6 .LASF6837
     /tmp/ccCwMAmf.s:102728  .debug_str:00000000000388a3 .LASF6838
     /tmp/ccCwMAmf.s:105296  .debug_str:000000000004335b .LASF6839
     /tmp/ccCwMAmf.s:96336  .debug_str:000000000001e765 .LASF6840
     /tmp/ccCwMAmf.s:102730  .debug_str:00000000000388a9 .LASF6841
     /tmp/ccCwMAmf.s:99188  .debug_str:000000000002a30b .LASF6842
     /tmp/ccCwMAmf.s:94382  .debug_str:000000000001614d .LASF6843
     /tmp/ccCwMAmf.s:102732  .debug_str:00000000000388af .LASF6844
     /tmp/ccCwMAmf.s:92962  .debug_str:00000000000107ad .LASF6845
     /tmp/ccCwMAmf.s:94386  .debug_str:000000000001616a .LASF6846
     /tmp/ccCwMAmf.s:102734  .debug_str:00000000000388b5 .LASF6847
     /tmp/ccCwMAmf.s:106246  .debug_str:0000000000047132 .LASF6848
     /tmp/ccCwMAmf.s:104280  .debug_str:000000000003ebc9 .LASF6849
     /tmp/ccCwMAmf.s:102736  .debug_str:00000000000388bb .LASF6850
     /tmp/ccCwMAmf.s:100216  .debug_str:000000000002e2bf .LASF6851
     /tmp/ccCwMAmf.s:89142  .debug_str:0000000000000d1b .LASF6852
     /tmp/ccCwMAmf.s:102738  .debug_str:00000000000388c1 .LASF6853
     /tmp/ccCwMAmf.s:93992  .debug_str:00000000000149b3 .LASF6854
     /tmp/ccCwMAmf.s:89752  .debug_str:0000000000003764 .LASF6855
     /tmp/ccCwMAmf.s:102740  .debug_str:00000000000388c7 .LASF6856
     /tmp/ccCwMAmf.s:107198  .debug_str:000000000004b12d .LASF6857
     /tmp/ccCwMAmf.s:101362  .debug_str:0000000000032e1f .LASF6858
     /tmp/ccCwMAmf.s:99910  .debug_str:000000000002cfa4 .LASF6859
     /tmp/ccCwMAmf.s:101160  .debug_str:0000000000032044 .LASF6860
     /tmp/ccCwMAmf.s:99566  .debug_str:000000000002ba7b .LASF6861
     /tmp/ccCwMAmf.s:102824  .debug_str:0000000000038df3 .LASF6862
     /tmp/ccCwMAmf.s:94176  .debug_str:000000000001547c .LASF6863
     /tmp/ccCwMAmf.s:99568  .debug_str:000000000002ba89 .LASF6864
     /tmp/ccCwMAmf.s:102826  .debug_str:0000000000038df9 .LASF6865
     /tmp/ccCwMAmf.s:107392  .debug_str:000000000004be6e .LASF6866
     /tmp/ccCwMAmf.s:93144  .debug_str:0000000000011291 .LASF6867
     /tmp/ccCwMAmf.s:102828  .debug_str:0000000000038dff .LASF6868
     /tmp/ccCwMAmf.s:101354  .debug_str:0000000000032dc8 .LASF6869
     /tmp/ccCwMAmf.s:94906  .debug_str:000000000001848b .LASF6870
     /tmp/ccCwMAmf.s:102830  .debug_str:0000000000038e05 .LASF6871
     /tmp/ccCwMAmf.s:95142  .debug_str:000000000001936f .LASF6872
     /tmp/ccCwMAmf.s:94910  .debug_str:00000000000184d3 .LASF6873
     /tmp/ccCwMAmf.s:102832  .debug_str:0000000000038e0b .LASF6874
     /tmp/ccCwMAmf.s:88976  .debug_str:00000000000001e5 .LASF6875
     /tmp/ccCwMAmf.s:94452  .debug_str:0000000000016595 .LASF6876
     /tmp/ccCwMAmf.s:102834  .debug_str:0000000000038e11 .LASF6877
     /tmp/ccCwMAmf.s:104934  .debug_str:00000000000417f3 .LASF6878
     /tmp/ccCwMAmf.s:92800  .debug_str:000000000000ff55 .LASF6879
     /tmp/ccCwMAmf.s:102836  .debug_str:0000000000038e17 .LASF6880
     /tmp/ccCwMAmf.s:96128  .debug_str:000000000001d84a .LASF6881
     /tmp/ccCwMAmf.s:100606  .debug_str:000000000002fd80 .LASF6882
     /tmp/ccCwMAmf.s:102838  .debug_str:0000000000038e1d .LASF6883
     /tmp/ccCwMAmf.s:89916  .debug_str:00000000000042e8 .LASF6884
     /tmp/ccCwMAmf.s:106168  .debug_str:0000000000046c76 .LASF6885
     /tmp/ccCwMAmf.s:102840  .debug_str:0000000000038e23 .LASF6886
     /tmp/ccCwMAmf.s:103346  .debug_str:000000000003aca6 .LASF6887
     /tmp/ccCwMAmf.s:107652  .debug_str:000000000004d01e .LASF6888
     /tmp/ccCwMAmf.s:102842  .debug_str:0000000000038e29 .LASF6889
     /tmp/ccCwMAmf.s:97112  .debug_str:0000000000021de8 .LASF6890
     /tmp/ccCwMAmf.s:97276  .debug_str:0000000000022839 .LASF6891
     /tmp/ccCwMAmf.s:102900  .debug_str:00000000000391eb .LASF6892
     /tmp/ccCwMAmf.s:89940  .debug_str:0000000000004510 .LASF6893
     /tmp/ccCwMAmf.s:99392  .debug_str:000000000002afe8 .LASF6894
     /tmp/ccCwMAmf.s:102902  .debug_str:00000000000391f1 .LASF6895
     /tmp/ccCwMAmf.s:103364  .debug_str:000000000003adc8 .LASF6896
     /tmp/ccCwMAmf.s:103842  .debug_str:000000000003ced5 .LASF6897
     /tmp/ccCwMAmf.s:102904  .debug_str:00000000000391f7 .LASF6898
     /tmp/ccCwMAmf.s:97130  .debug_str:0000000000021eef .LASF6899
     /tmp/ccCwMAmf.s:103846  .debug_str:000000000003cefb .LASF6900
     /tmp/ccCwMAmf.s:102906  .debug_str:00000000000391fd .LASF6901
     /tmp/ccCwMAmf.s:90882  .debug_str:000000000000843f .LASF6902
     /tmp/ccCwMAmf.s:101820  .debug_str:0000000000034cdb .LASF6903
     /tmp/ccCwMAmf.s:102908  .debug_str:0000000000039203 .LASF6904
     /tmp/ccCwMAmf.s:104198  .debug_str:000000000003e72b .LASF6905
     /tmp/ccCwMAmf.s:95566  .debug_str:000000000001b137 .LASF6906
     /tmp/ccCwMAmf.s:102910  .debug_str:0000000000039209 .LASF6907
     /tmp/ccCwMAmf.s:100764  .debug_str:00000000000307d7 .LASF6908
     /tmp/ccCwMAmf.s:95570  .debug_str:000000000001b164 .LASF6909
     /tmp/ccCwMAmf.s:102912  .debug_str:000000000003920f .LASF6910
     /tmp/ccCwMAmf.s:91834  .debug_str:000000000000c5b4 .LASF6911
     /tmp/ccCwMAmf.s:95552  .debug_str:000000000001b04c .LASF6912
     /tmp/ccCwMAmf.s:102914  .debug_str:0000000000039215 .LASF6913
     /tmp/ccCwMAmf.s:105180  .debug_str:0000000000042b50 .LASF6914
     /tmp/ccCwMAmf.s:89506  .debug_str:0000000000002742 .LASF6915
     /tmp/ccCwMAmf.s:102916  .debug_str:000000000003921b .LASF6916
     /tmp/ccCwMAmf.s:99084  .debug_str:0000000000029bbc .LASF6917
     /tmp/ccCwMAmf.s:89508  .debug_str:000000000000274f .LASF6918
     /tmp/ccCwMAmf.s:102918  .debug_str:0000000000039221 .LASF6919
     /tmp/ccCwMAmf.s:100952  .debug_str:000000000003132c .LASF6920
     /tmp/ccCwMAmf.s:104540  .debug_str:000000000003fbda .LASF6921
     /tmp/ccCwMAmf.s:102980  .debug_str:00000000000395e8 .LASF6922
     /tmp/ccCwMAmf.s:105214  .debug_str:0000000000042d80 .LASF6923
     /tmp/ccCwMAmf.s:108130  .debug_str:000000000004f130 .LASF6924
     /tmp/ccCwMAmf.s:102982  .debug_str:00000000000395ee .LASF6925
     /tmp/ccCwMAmf.s:99106  .debug_str:0000000000029d36 .LASF6926
     /tmp/ccCwMAmf.s:104328  .debug_str:000000000003eea9 .LASF6927
     /tmp/ccCwMAmf.s:102984  .debug_str:00000000000395f4 .LASF6928
     /tmp/ccCwMAmf.s:92884  .debug_str:000000000001037e .LASF6929
     /tmp/ccCwMAmf.s:90310  .debug_str:0000000000005d7e .LASF6930
     /tmp/ccCwMAmf.s:102986  .debug_str:00000000000395fa .LASF6931
     /tmp/ccCwMAmf.s:106174  .debug_str:0000000000046cc5 .LASF6932
     /tmp/ccCwMAmf.s:99268  .debug_str:000000000002a7c9 .LASF6933
     /tmp/ccCwMAmf.s:102988  .debug_str:0000000000039600 .LASF6934
     /tmp/ccCwMAmf.s:100136  .debug_str:000000000002ddc0 .LASF6935
     /tmp/ccCwMAmf.s:102872  .debug_str:000000000003904b .LASF6936
     /tmp/ccCwMAmf.s:102990  .debug_str:0000000000039606 .LASF6937
     /tmp/ccCwMAmf.s:93906  .debug_str:000000000001444d .LASF6938
     /tmp/ccCwMAmf.s:98432  .debug_str:000000000002709d .LASF6939
     /tmp/ccCwMAmf.s:102992  .debug_str:000000000003960c .LASF6940
     /tmp/ccCwMAmf.s:107116  .debug_str:000000000004aaff .LASF6941
     /tmp/ccCwMAmf.s:94628  .debug_str:0000000000017194 .LASF6942
     /tmp/ccCwMAmf.s:102994  .debug_str:0000000000039612 .LASF6943
     /tmp/ccCwMAmf.s:101072  .debug_str:0000000000031acd .LASF6944
     /tmp/ccCwMAmf.s:94632  .debug_str:00000000000171b5 .LASF6945
     /tmp/ccCwMAmf.s:102996  .debug_str:0000000000039618 .LASF6946
     /tmp/ccCwMAmf.s:94882  .debug_str:00000000000182dc .LASF6947
     /tmp/ccCwMAmf.s:98482  .debug_str:00000000000272e5 .LASF6948
     /tmp/ccCwMAmf.s:102998  .debug_str:000000000003961e .LASF6949
     /tmp/ccCwMAmf.s:108112  .debug_str:000000000004f02e .LASF6950
     /tmp/ccCwMAmf.s:98798  .debug_str:0000000000028903 .LASF6951
     /tmp/ccCwMAmf.s:103062  .debug_str:0000000000039a84 .LASF6952
     /tmp/ccCwMAmf.s:101094  .debug_str:0000000000031bf4 .LASF6953
     /tmp/ccCwMAmf.s:101882  .debug_str:000000000003514e .LASF6954
     /tmp/ccCwMAmf.s:103064  .debug_str:0000000000039a8a .LASF6955
     /tmp/ccCwMAmf.s:94900  .debug_str:000000000001840f .LASF6956
     /tmp/ccCwMAmf.s:101158  .debug_str:0000000000032036 .LASF6957
     /tmp/ccCwMAmf.s:100530  .debug_str:000000000002f8b3 .LASF6958
     /tmp/ccCwMAmf.s:95336  .debug_str:000000000001a0a9 .LASF6959
     /tmp/ccCwMAmf.s:104446  .debug_str:000000000003f5e8 .LASF6960
     /tmp/ccCwMAmf.s:103068  .debug_str:0000000000039aad .LASF6961
     /tmp/ccCwMAmf.s:102066  .debug_str:0000000000035ead .LASF6962
     /tmp/ccCwMAmf.s:89742  .debug_str:0000000000003696 .LASF6963
     /tmp/ccCwMAmf.s:100536  .debug_str:000000000002f90c .LASF6964
     /tmp/ccCwMAmf.s:95884  .debug_str:000000000001c794 .LASF6965
     /tmp/ccCwMAmf.s:95490  .debug_str:000000000001ac61 .LASF6966
     /tmp/ccCwMAmf.s:103072  .debug_str:0000000000039ad1 .LASF6967
     /tmp/ccCwMAmf.s:89700  .debug_str:0000000000003494 .LASF6968
     /tmp/ccCwMAmf.s:93714  .debug_str:0000000000013897 .LASF6969
     /tmp/ccCwMAmf.s:103074  .debug_str:0000000000039ad7 .LASF6970
     /tmp/ccCwMAmf.s:101292  .debug_str:0000000000032a03 .LASF6971
     /tmp/ccCwMAmf.s:103944  .debug_str:000000000003d534 .LASF6972
     /tmp/ccCwMAmf.s:103076  .debug_str:0000000000039add .LASF6973
     /tmp/ccCwMAmf.s:96860  .debug_str:0000000000020c3b .LASF6974
     /tmp/ccCwMAmf.s:89658  .debug_str:00000000000031c5 .LASF6975
     /tmp/ccCwMAmf.s:100550  .debug_str:000000000002f9da .LASF6976
     /tmp/ccCwMAmf.s:90636  .debug_str:0000000000007484 .LASF6977
     /tmp/ccCwMAmf.s:97710  .debug_str:0000000000024646 .LASF6978
     /tmp/ccCwMAmf.s:103080  .debug_str:0000000000039b0b .LASF6979
     /tmp/ccCwMAmf.s:103970  .debug_str:000000000003d704 .LASF6980
     /tmp/ccCwMAmf.s:102776  .debug_str:0000000000038b34 .LASF6981
     /tmp/ccCwMAmf.s:92412  .debug_str:000000000000e896 .LASF6982
     /tmp/ccCwMAmf.s:90606  .debug_str:0000000000007281 .LASF6983
     /tmp/ccCwMAmf.s:102780  .debug_str:0000000000038b7b .LASF6984
     /tmp/ccCwMAmf.s:93692  .debug_str:000000000001373b .LASF6985
     /tmp/ccCwMAmf.s:103942  .debug_str:000000000003d513 .LASF6986
     /tmp/ccCwMAmf.s:95344  .debug_str:000000000001a156 .LASF6987
     /tmp/ccCwMAmf.s:93696  .debug_str:0000000000013761 .LASF6988
     /tmp/ccCwMAmf.s:95610  .debug_str:000000000001b409 .LASF6989
     /tmp/ccCwMAmf.s:98102  .debug_str:0000000000025c91 .LASF6990
     /tmp/ccCwMAmf.s:92418  .debug_str:000000000000e8eb .LASF6991
     /tmp/ccCwMAmf.s:91530  .debug_str:000000000000b078 .LASF6992
     /tmp/ccCwMAmf.s:98104  .debug_str:0000000000025ca0 .LASF6993
     /tmp/ccCwMAmf.s:92420  .debug_str:000000000000e8f2 .LASF6994
     /tmp/ccCwMAmf.s:104858  .debug_str:0000000000041313 .LASF6995
     /tmp/ccCwMAmf.s:97132  .debug_str:0000000000021f0f .LASF6996
     /tmp/ccCwMAmf.s:92422  .debug_str:000000000000e8f9 .LASF6997
     /tmp/ccCwMAmf.s:98758  .debug_str:00000000000285e0 .LASF6998
     /tmp/ccCwMAmf.s:94948  .debug_str:000000000001872a .LASF6999
     /tmp/ccCwMAmf.s:92424  .debug_str:000000000000e900 .LASF7000
     /tmp/ccCwMAmf.s:92526  .debug_str:000000000000edbe .LASF7001
     /tmp/ccCwMAmf.s:90460  .debug_str:0000000000006797 .LASF7002
     /tmp/ccCwMAmf.s:92426  .debug_str:000000000000e907 .LASF7003
     /tmp/ccCwMAmf.s:105880  .debug_str:00000000000459ed .LASF7004
     /tmp/ccCwMAmf.s:98326  .debug_str:00000000000269df .LASF7005
     /tmp/ccCwMAmf.s:92428  .debug_str:000000000000e90e .LASF7006
     /tmp/ccCwMAmf.s:99776  .debug_str:000000000002c72a .LASF7007
     /tmp/ccCwMAmf.s:98330  .debug_str:0000000000026a02 .LASF7008
     /tmp/ccCwMAmf.s:92430  .debug_str:000000000000e915 .LASF7009
     /tmp/ccCwMAmf.s:93578  .debug_str:0000000000012f1b .LASF7010
     /tmp/ccCwMAmf.s:105256  .debug_str:000000000004306f .LASF7011
     /tmp/ccCwMAmf.s:92490  .debug_str:000000000000ecb4 .LASF7012
     /tmp/ccCwMAmf.s:105900  .debug_str:0000000000045b27 .LASF7013
     /tmp/ccCwMAmf.s:93734  .debug_str:00000000000139d2 .LASF7014
     /tmp/ccCwMAmf.s:92492  .debug_str:000000000000ecbb .LASF7015
     /tmp/ccCwMAmf.s:99800  .debug_str:000000000002c894 .LASF7016
     /tmp/ccCwMAmf.s:93736  .debug_str:00000000000139e3 .LASF7017
     /tmp/ccCwMAmf.s:92494  .debug_str:000000000000ecc2 .LASF7018
     /tmp/ccCwMAmf.s:93594  .debug_str:0000000000013021 .LASF7019
     /tmp/ccCwMAmf.s:90694  .debug_str:000000000000784e .LASF7020
     /tmp/ccCwMAmf.s:92496  .debug_str:000000000000ecc9 .LASF7021
     /tmp/ccCwMAmf.s:106814  .debug_str:00000000000496ac .LASF7022
     /tmp/ccCwMAmf.s:100960  .debug_str:000000000003137d .LASF7023
     /tmp/ccCwMAmf.s:92498  .debug_str:000000000000ecd0 .LASF7024
     /tmp/ccCwMAmf.s:100768  .debug_str:0000000000030810 .LASF7025
     /tmp/ccCwMAmf.s:100968  .debug_str:00000000000313cf .LASF7026
     /tmp/ccCwMAmf.s:92500  .debug_str:000000000000ecd7 .LASF7027
     /tmp/ccCwMAmf.s:94564  .debug_str:0000000000016d8c .LASF7028
     /tmp/ccCwMAmf.s:91270  .debug_str:0000000000009eeb .LASF7029
     /tmp/ccCwMAmf.s:92502  .debug_str:000000000000ecde .LASF7030
     /tmp/ccCwMAmf.s:89930  .debug_str:000000000000445a .LASF7031
     /tmp/ccCwMAmf.s:89036  .debug_str:0000000000000660 .LASF7032
     /tmp/ccCwMAmf.s:92504  .debug_str:000000000000ece5 .LASF7033
     /tmp/ccCwMAmf.s:101760  .debug_str:0000000000034875 .LASF7034
     /tmp/ccCwMAmf.s:90794  .debug_str:0000000000007e7f .LASF7035
     /tmp/ccCwMAmf.s:92506  .debug_str:000000000000ecec .LASF7036
     /tmp/ccCwMAmf.s:95548  .debug_str:000000000001b020 .LASF7037
     /tmp/ccCwMAmf.s:101012  .debug_str:000000000003174d .LASF7038
     /tmp/ccCwMAmf.s:92508  .debug_str:000000000000ecf3 .LASF7039
     /tmp/ccCwMAmf.s:89352  .debug_str:0000000000001c77 .LASF7040
     /tmp/ccCwMAmf.s:93848  .debug_str:0000000000014051 .LASF7041
     /tmp/ccCwMAmf.s:92590  .debug_str:000000000000f235 .LASF7042
     /tmp/ccCwMAmf.s:107288  .debug_str:000000000004b726 .LASF7043
     /tmp/ccCwMAmf.s:101114  .debug_str:0000000000031d34 .LASF7044
     /tmp/ccCwMAmf.s:92592  .debug_str:000000000000f23c .LASF7045
     /tmp/ccCwMAmf.s:95568  .debug_str:000000000001b143 .LASF7046
     /tmp/ccCwMAmf.s:94020  .debug_str:0000000000014b5a .LASF7047
     /tmp/ccCwMAmf.s:92594  .debug_str:000000000000f243 .LASF7048
     /tmp/ccCwMAmf.s:89374  .debug_str:0000000000001e2c .LASF7049
     /tmp/ccCwMAmf.s:96462  .debug_str:000000000001ef91 .LASF7050
     /tmp/ccCwMAmf.s:92596  .debug_str:000000000000f24a .LASF7051
     /tmp/ccCwMAmf.s:106880  .debug_str:0000000000049b7a .LASF7052
     /tmp/ccCwMAmf.s:96466  .debug_str:000000000001efa7 .LASF7053
     /tmp/ccCwMAmf.s:92598  .debug_str:000000000000f251 .LASF7054
     /tmp/ccCwMAmf.s:96530  .debug_str:000000000001f4ec .LASF7055
     /tmp/ccCwMAmf.s:89928  .debug_str:000000000000444d .LASF7056
     /tmp/ccCwMAmf.s:92600  .debug_str:000000000000f258 .LASF7057
     /tmp/ccCwMAmf.s:90342  .debug_str:0000000000005f8e .LASF7058
     /tmp/ccCwMAmf.s:89382  .debug_str:0000000000001ef8 .LASF7059
     /tmp/ccCwMAmf.s:94034  .debug_str:0000000000014bce .LASF7060
     /tmp/ccCwMAmf.s:103692  .debug_str:000000000003c535 .LASF7061
     /tmp/ccCwMAmf.s:89386  .debug_str:0000000000001f34 .LASF7062
     /tmp/ccCwMAmf.s:94036  .debug_str:0000000000014bd5 .LASF7063
     /tmp/ccCwMAmf.s:89298  .debug_str:00000000000017f7 .LASF7064
     /tmp/ccCwMAmf.s:108218  .debug_str:000000000004f774 .LASF7065
     /tmp/ccCwMAmf.s:92606  .debug_str:000000000000f28c .LASF7066
     /tmp/ccCwMAmf.s:108106  .debug_str:000000000004efe7 .LASF7067
     /tmp/ccCwMAmf.s:104204  .debug_str:000000000003e79b .LASF7068
     /tmp/ccCwMAmf.s:92608  .debug_str:000000000000f293 .LASF7069
     /tmp/ccCwMAmf.s:104588  .debug_str:000000000003fea3 .LASF7070
     /tmp/ccCwMAmf.s:96118  .debug_str:000000000001d782 .LASF7071
     /tmp/ccCwMAmf.s:94168  .debug_str:000000000001542f .LASF7072
     /tmp/ccCwMAmf.s:104400  .debug_str:000000000003f358 .LASF7073
     /tmp/ccCwMAmf.s:96280  .debug_str:000000000001e38c .LASF7074
     /tmp/ccCwMAmf.s:92666  .debug_str:000000000000f71e .LASF7075
     /tmp/ccCwMAmf.s:91240  .debug_str:0000000000009d3a .LASF7076
     /tmp/ccCwMAmf.s:104942  .debug_str:000000000004188c .LASF7077
     /tmp/ccCwMAmf.s:92668  .debug_str:000000000000f725 .LASF7078
     /tmp/ccCwMAmf.s:104614  .debug_str:0000000000040058 .LASF7079
     /tmp/ccCwMAmf.s:93750  .debug_str:0000000000013a93 .LASF7080
     /tmp/ccCwMAmf.s:92670  .debug_str:000000000000f72c .LASF7081
     /tmp/ccCwMAmf.s:98510  .debug_str:0000000000027524 .LASF7082
     /tmp/ccCwMAmf.s:101862  .debug_str:0000000000034f82 .LASF7083
     /tmp/ccCwMAmf.s:92672  .debug_str:000000000000f733 .LASF7084
     /tmp/ccCwMAmf.s:92240  .debug_str:000000000000def2 .LASF7085
     /tmp/ccCwMAmf.s:90544  .debug_str:0000000000006da5 .LASF7086
     /tmp/ccCwMAmf.s:92674  .debug_str:000000000000f73a .LASF7087
     /tmp/ccCwMAmf.s:105604  .debug_str:0000000000044743 .LASF7088
     /tmp/ccCwMAmf.s:94150  .debug_str:00000000000152fc .LASF7089
     /tmp/ccCwMAmf.s:92676  .debug_str:000000000000f741 .LASF7090
     /tmp/ccCwMAmf.s:99524  .debug_str:000000000002b874 .LASF7091
     /tmp/ccCwMAmf.s:102404  .debug_str:00000000000374cc .LASF7092
     /tmp/ccCwMAmf.s:92678  .debug_str:000000000000f748 .LASF7093
     /tmp/ccCwMAmf.s:90480  .debug_str:00000000000068c3 .LASF7094
     /tmp/ccCwMAmf.s:102784  .debug_str:0000000000038bb3 .LASF7095
     /tmp/ccCwMAmf.s:92680  .debug_str:000000000000f74f .LASF7096
     /tmp/ccCwMAmf.s:106568  .debug_str:00000000000486ef .LASF7097
     /tmp/ccCwMAmf.s:100588  .debug_str:000000000002fc1d .LASF7098
     /tmp/ccCwMAmf.s:94198  .debug_str:00000000000155e9 .LASF7099
     /tmp/ccCwMAmf.s:103276  .debug_str:000000000003a7b1 .LASF7100
     /tmp/ccCwMAmf.s:96900  .debug_str:0000000000020e86 .LASF7101
     /tmp/ccCwMAmf.s:92754  .debug_str:000000000000fccd .LASF7102
     /tmp/ccCwMAmf.s:101598  .debug_str:0000000000033e25 .LASF7103
     /tmp/ccCwMAmf.s:101620  .debug_str:0000000000033f29 .LASF7104
     /tmp/ccCwMAmf.s:94330  .debug_str:0000000000015e51 .LASF7105
     /tmp/ccCwMAmf.s:106588  .debug_str:0000000000048825 .LASF7106
     /tmp/ccCwMAmf.s:90308  .debug_str:0000000000005d73 .LASF7107
     /tmp/ccCwMAmf.s:92758  .debug_str:000000000000fce4 .LASF7108
     /tmp/ccCwMAmf.s:100538  .debug_str:000000000002f912 .LASF7109
     /tmp/ccCwMAmf.s:94398  .debug_str:0000000000016225 .LASF7110
     /tmp/ccCwMAmf.s:92760  .debug_str:000000000000fceb .LASF7111
     /tmp/ccCwMAmf.s:94314  .debug_str:0000000000015d78 .LASF7112
     /tmp/ccCwMAmf.s:94376  .debug_str:00000000000160f9 .LASF7113
     /tmp/ccCwMAmf.s:92762  .debug_str:000000000000fcf2 .LASF7114
     /tmp/ccCwMAmf.s:107542  .debug_str:000000000004c865 .LASF7115
     /tmp/ccCwMAmf.s:93328  .debug_str:0000000000011e3d .LASF7116
     /tmp/ccCwMAmf.s:92764  .debug_str:000000000000fcf9 .LASF7117
     /tmp/ccCwMAmf.s:101502  .debug_str:00000000000337ab .LASF7118
     /tmp/ccCwMAmf.s:95988  .debug_str:000000000001cf3e .LASF7119
     /tmp/ccCwMAmf.s:94342  .debug_str:0000000000015f19 .LASF7120
     /tmp/ccCwMAmf.s:100748  .debug_str:00000000000306bb .LASF7121
     /tmp/ccCwMAmf.s:99864  .debug_str:000000000002cceb .LASF7122
     /tmp/ccCwMAmf.s:94344  .debug_str:0000000000015f20 .LASF7123
     /tmp/ccCwMAmf.s:89120  .debug_str:0000000000000bcb .LASF7124
     /tmp/ccCwMAmf.s:101676  .debug_str:00000000000342e2 .LASF7125
     /tmp/ccCwMAmf.s:94346  .debug_str:0000000000015f27 .LASF7126
     /tmp/ccCwMAmf.s:102446  .debug_str:000000000003779b .LASF7127
     /tmp/ccCwMAmf.s:90300  .debug_str:0000000000005d06 .LASF7128
     /tmp/ccCwMAmf.s:94348  .debug_str:0000000000015f2e .LASF7129
     /tmp/ccCwMAmf.s:96246  .debug_str:000000000001e10b .LASF7130
     /tmp/ccCwMAmf.s:104872  .debug_str:00000000000413fd .LASF7131
     /tmp/ccCwMAmf.s:92842  .debug_str:00000000000101c7 .LASF7132
     /tmp/ccCwMAmf.s:89136  .debug_str:0000000000000ca0 .LASF7133
     /tmp/ccCwMAmf.s:95204  .debug_str:00000000000197c7 .LASF7134
     /tmp/ccCwMAmf.s:92844  .debug_str:00000000000101ce .LASF7135
     /tmp/ccCwMAmf.s:104940  .debug_str:000000000004186b .LASF7136
     /tmp/ccCwMAmf.s:106216  .debug_str:0000000000046f5b .LASF7137
     /tmp/ccCwMAmf.s:92846  .debug_str:00000000000101d5 .LASF7138
     /tmp/ccCwMAmf.s:96268  .debug_str:000000000001e2d1 .LASF7139
     /tmp/ccCwMAmf.s:91400  .debug_str:000000000000a7b4 .LASF7140
     /tmp/ccCwMAmf.s:92848  .debug_str:00000000000101dc .LASF7141
     /tmp/ccCwMAmf.s:106256  .debug_str:0000000000047226 .LASF7142
     /tmp/ccCwMAmf.s:100160  .debug_str:000000000002df51 .LASF7143
     /tmp/ccCwMAmf.s:92850  .debug_str:00000000000101e3 .LASF7144
     /tmp/ccCwMAmf.s:103484  .debug_str:000000000003b652 .LASF7145
     /tmp/ccCwMAmf.s:93264  .debug_str:0000000000011a01 .LASF7146
     /tmp/ccCwMAmf.s:92852  .debug_str:00000000000101ea .LASF7147
     /tmp/ccCwMAmf.s:97268  .debug_str:00000000000227ba .LASF7148
     /tmp/ccCwMAmf.s:107126  .debug_str:000000000004aba3 .LASF7149
     /tmp/ccCwMAmf.s:92854  .debug_str:00000000000101f1 .LASF7150
     /tmp/ccCwMAmf.s:91016  .debug_str:0000000000008d36 .LASF7151
     /tmp/ccCwMAmf.s:95404  .debug_str:000000000001a5ec .LASF7152
     /tmp/ccCwMAmf.s:92856  .debug_str:00000000000101f8 .LASF7153
     /tmp/ccCwMAmf.s:104348  .debug_str:000000000003f019 .LASF7154
     /tmp/ccCwMAmf.s:107950  .debug_str:000000000004e5d3 .LASF7155
     /tmp/ccCwMAmf.s:92858  .debug_str:00000000000101ff .LASF7156
     /tmp/ccCwMAmf.s:98230  .debug_str:000000000002636d .LASF7157
     /tmp/ccCwMAmf.s:89404  .debug_str:000000000000205f .LASF7158
     /tmp/ccCwMAmf.s:92860  .debug_str:0000000000010206 .LASF7159
     /tmp/ccCwMAmf.s:91980  .debug_str:000000000000cf94 .LASF7160
     /tmp/ccCwMAmf.s:90734  .debug_str:0000000000007aac .LASF7161
     /tmp/ccCwMAmf.s:92912  .debug_str:0000000000010515 .LASF7162
     /tmp/ccCwMAmf.s:104534  .debug_str:000000000003fb84 .LASF7163
     /tmp/ccCwMAmf.s:99760  .debug_str:000000000002c650 .LASF7164
     /tmp/ccCwMAmf.s:92914  .debug_str:000000000001051c .LASF7165
     /tmp/ccCwMAmf.s:98412  .debug_str:0000000000026f3a .LASF7166
     /tmp/ccCwMAmf.s:103466  .debug_str:000000000003b57c .LASF7167
     /tmp/ccCwMAmf.s:92916  .debug_str:0000000000010523 .LASF7168
     /tmp/ccCwMAmf.s:92154  .debug_str:000000000000dab9 .LASF7169
     /tmp/ccCwMAmf.s:104482  .debug_str:000000000003f876 .LASF7170
     /tmp/ccCwMAmf.s:96314  .debug_str:000000000001e60a .LASF7171
     /tmp/ccCwMAmf.s:105534  .debug_str:00000000000442b1 .LASF7172
     /tmp/ccCwMAmf.s:90120  .debug_str:0000000000005112 .LASF7173
     /tmp/ccCwMAmf.s:92920  .debug_str:000000000001054b .LASF7174
     /tmp/ccCwMAmf.s:99444  .debug_str:000000000002b270 .LASF7175
     /tmp/ccCwMAmf.s:94494  .debug_str:000000000001689b .LASF7176
     /tmp/ccCwMAmf.s:92922  .debug_str:0000000000010552 .LASF7177
     /tmp/ccCwMAmf.s:89172  .debug_str:0000000000000f33 .LASF7178
     /tmp/ccCwMAmf.s:103360  .debug_str:000000000003ad9f .LASF7179
     /tmp/ccCwMAmf.s:92924  .debug_str:0000000000010559 .LASF7180
     /tmp/ccCwMAmf.s:95540  .debug_str:000000000001af6e .LASF7181
     /tmp/ccCwMAmf.s:101298  .debug_str:0000000000032a6c .LASF7182
     /tmp/ccCwMAmf.s:92926  .debug_str:0000000000010560 .LASF7183
     /tmp/ccCwMAmf.s:100434  .debug_str:000000000002f1b9 .LASF7184
     /tmp/ccCwMAmf.s:100426  .debug_str:000000000002f121 .LASF7185
     /tmp/ccCwMAmf.s:92928  .debug_str:0000000000010567 .LASF7186
     /tmp/ccCwMAmf.s:108162  .debug_str:000000000004f367 .LASF7187
     /tmp/ccCwMAmf.s:95996  .debug_str:000000000001cfbf .LASF7188
     /tmp/ccCwMAmf.s:92930  .debug_str:000000000001056e .LASF7189
     /tmp/ccCwMAmf.s:107436  .debug_str:000000000004c0fd .LASF7190
     /tmp/ccCwMAmf.s:89318  .debug_str:0000000000001a26 .LASF7191
     /tmp/ccCwMAmf.s:94800  .debug_str:0000000000017dde .LASF7192
     /tmp/ccCwMAmf.s:100456  .debug_str:000000000002f38d .LASF7193
     /tmp/ccCwMAmf.s:91272  .debug_str:0000000000009ef7 .LASF7194
     /tmp/ccCwMAmf.s:94804  .debug_str:0000000000017e19 .LASF7195
     /tmp/ccCwMAmf.s:94256  .debug_str:000000000001599d .LASF7196
     /tmp/ccCwMAmf.s:91276  .debug_str:0000000000009f19 .LASF7197
     /tmp/ccCwMAmf.s:93000  .debug_str:00000000000109ee .LASF7198
     /tmp/ccCwMAmf.s:107464  .debug_str:000000000004c32c .LASF7199
     /tmp/ccCwMAmf.s:102946  .debug_str:00000000000393fa .LASF7200
     /tmp/ccCwMAmf.s:93002  .debug_str:00000000000109f5 .LASF7201
     /tmp/ccCwMAmf.s:92998  .debug_str:00000000000109cd .LASF7202
     /tmp/ccCwMAmf.s:102922  .debug_str:000000000003924a .LASF7203
     /tmp/ccCwMAmf.s:93004  .debug_str:00000000000109fc .LASF7204
     /tmp/ccCwMAmf.s:95212  .debug_str:0000000000019831 .LASF7205
     /tmp/ccCwMAmf.s:102926  .debug_str:0000000000039294 .LASF7206
     /tmp/ccCwMAmf.s:93006  .debug_str:0000000000010a03 .LASF7207
     /tmp/ccCwMAmf.s:89046  .debug_str:00000000000006f1 .LASF7208
     /tmp/ccCwMAmf.s:103242  .debug_str:000000000003a500 .LASF7209
     /tmp/ccCwMAmf.s:93008  .debug_str:0000000000010a0a .LASF7210
     /tmp/ccCwMAmf.s:102372  .debug_str:00000000000372ec .LASF7211
     /tmp/ccCwMAmf.s:98242  .debug_str:00000000000263ec .LASF7212
     /tmp/ccCwMAmf.s:93010  .debug_str:0000000000010a11 .LASF7213
     /tmp/ccCwMAmf.s:96178  .debug_str:000000000001dc5e .LASF7214
     /tmp/ccCwMAmf.s:98246  .debug_str:000000000002643b .LASF7215
     /tmp/ccCwMAmf.s:93012  .debug_str:0000000000010a18 .LASF7216
     /tmp/ccCwMAmf.s:89982  .debug_str:0000000000004782 .LASF7217
     /tmp/ccCwMAmf.s:104226  .debug_str:000000000003e912 .LASF7218
     /tmp/ccCwMAmf.s:94824  .debug_str:0000000000017f2f .LASF7219
     /tmp/ccCwMAmf.s:92094  .debug_str:000000000000d6e6 .LASF7220
     /tmp/ccCwMAmf.s:95794  .debug_str:000000000001c114 .LASF7221
     /tmp/ccCwMAmf.s:93078  .debug_str:0000000000010ed7 .LASF7222
     /tmp/ccCwMAmf.s:96190  .debug_str:000000000001dd26 .LASF7223
     /tmp/ccCwMAmf.s:95798  .debug_str:000000000001c13f .LASF7224
     /tmp/ccCwMAmf.s:93080  .debug_str:0000000000010ede .LASF7225
     /tmp/ccCwMAmf.s:90002  .debug_str:00000000000048f5 .LASF7226
     /tmp/ccCwMAmf.s:103416  .debug_str:000000000003b15b .LASF7227
     /tmp/ccCwMAmf.s:93082  .debug_str:0000000000010ee5 .LASF7228
     /tmp/ccCwMAmf.s:103420  .debug_str:000000000003b196 .LASF7229
     /tmp/ccCwMAmf.s:91074  .debug_str:000000000000919d .LASF7230
     /tmp/ccCwMAmf.s:94972  .debug_str:000000000001888c .LASF7231
     /tmp/ccCwMAmf.s:97180  .debug_str:00000000000221f3 .LASF7232
     /tmp/ccCwMAmf.s:91078  .debug_str:00000000000091c8 .LASF7233
     /tmp/ccCwMAmf.s:93086  .debug_str:0000000000010eff .LASF7234
     /tmp/ccCwMAmf.s:90948  .debug_str:0000000000008905 .LASF7235
     /tmp/ccCwMAmf.s:94332  .debug_str:0000000000015e58 .LASF7236
     /tmp/ccCwMAmf.s:93088  .debug_str:0000000000010f06 .LASF7237
     /tmp/ccCwMAmf.s:104254  .debug_str:000000000003eae0 .LASF7238
     /tmp/ccCwMAmf.s:96698  .debug_str:000000000002014a .LASF7239
     /tmp/ccCwMAmf.s:93090  .debug_str:0000000000010f0d .LASF7240
     /tmp/ccCwMAmf.s:98142  .debug_str:0000000000025d94 .LASF7241
     /tmp/ccCwMAmf.s:96700  .debug_str:0000000000020158 .LASF7242
     /tmp/ccCwMAmf.s:93092  .debug_str:0000000000010f14 .LASF7243
     /tmp/ccCwMAmf.s:91898  .debug_str:000000000000ca1c .LASF7244
     /tmp/ccCwMAmf.s:100340  .debug_str:000000000002ebb3 .LASF7245
     /tmp/ccCwMAmf.s:94988  .debug_str:0000000000018906 .LASF7246
     /tmp/ccCwMAmf.s:105260  .debug_str:00000000000430aa .LASF7247
     /tmp/ccCwMAmf.s:92000  .debug_str:000000000000d140 .LASF7248
     /tmp/ccCwMAmf.s:93096  .debug_str:0000000000010f45 .LASF7249
     /tmp/ccCwMAmf.s:99150  .debug_str:000000000002a02c .LASF7250
     /tmp/ccCwMAmf.s:92004  .debug_str:000000000000d183 .LASF7251
     /tmp/ccCwMAmf.s:93174  .debug_str:000000000001148b .LASF7252
     /tmp/ccCwMAmf.s:91928  .debug_str:000000000000cc7f .LASF7253
     /tmp/ccCwMAmf.s:95470  .debug_str:000000000001ab14 .LASF7254
     /tmp/ccCwMAmf.s:93176  .debug_str:0000000000011492 .LASF7255
     /tmp/ccCwMAmf.s:105280  .debug_str:0000000000043245 .LASF7256
     /tmp/ccCwMAmf.s:106574  .debug_str:000000000004872f .LASF7257
     /tmp/ccCwMAmf.s:93178  .debug_str:0000000000011499 .LASF7258
     /tmp/ccCwMAmf.s:99174  .debug_str:000000000002a1c0 .LASF7259
     /tmp/ccCwMAmf.s:91492  .debug_str:000000000000adee .LASF7260
     /tmp/ccCwMAmf.s:97074  .debug_str:0000000000021af2 .LASF7261
     /tmp/ccCwMAmf.s:106630  .debug_str:0000000000048ac7 .LASF7262
     /tmp/ccCwMAmf.s:94552  .debug_str:0000000000016c95 .LASF7263
     /tmp/ccCwMAmf.s:93182  .debug_str:00000000000114ca .LASF7264
     /tmp/ccCwMAmf.s:106236  .debug_str:000000000004707a .LASF7265
     /tmp/ccCwMAmf.s:106378  .debug_str:0000000000047aaf .LASF7266
     /tmp/ccCwMAmf.s:93184  .debug_str:00000000000114d1 .LASF7267
     /tmp/ccCwMAmf.s:100202  .debug_str:000000000002e21e .LASF7268
     /tmp/ccCwMAmf.s:106382  .debug_str:0000000000047aeb .LASF7269
     /tmp/ccCwMAmf.s:93186  .debug_str:00000000000114d8 .LASF7270
     /tmp/ccCwMAmf.s:93972  .debug_str:000000000001486a .LASF7271
     /tmp/ccCwMAmf.s:104640  .debug_str:00000000000401e1 .LASF7272
     /tmp/ccCwMAmf.s:93188  .debug_str:00000000000114df .LASF7273
     /tmp/ccCwMAmf.s:93118  .debug_str:000000000001107e .LASF7274
     /tmp/ccCwMAmf.s:99316  .debug_str:000000000002aaa0 .LASF7275
     /tmp/ccCwMAmf.s:93190  .debug_str:00000000000114e6 .LASF7276
     /tmp/ccCwMAmf.s:101138  .debug_str:0000000000031eb5 .LASF7277
     /tmp/ccCwMAmf.s:102812  .debug_str:0000000000038d5a .LASF7278
     /tmp/ccCwMAmf.s:93192  .debug_str:00000000000114ed .LASF7279
     /tmp/ccCwMAmf.s:94942  .debug_str:00000000000186af .LASF7280
     /tmp/ccCwMAmf.s:102596  .debug_str:00000000000380f2 .LASF7281
     /tmp/ccCwMAmf.s:97762  .debug_str:000000000002493c .LASF7282
     /tmp/ccCwMAmf.s:102822  .debug_str:0000000000038dd2 .LASF7283
     /tmp/ccCwMAmf.s:102600  .debug_str:0000000000038129 .LASF7284
     /tmp/ccCwMAmf.s:97764  .debug_str:0000000000024943 .LASF7285
     /tmp/ccCwMAmf.s:96602  .debug_str:000000000001f9e5 .LASF7286
     /tmp/ccCwMAmf.s:102858  .debug_str:0000000000038f5e .LASF7287
     /tmp/ccCwMAmf.s:97766  .debug_str:000000000002494a .LASF7288
     /tmp/ccCwMAmf.s:90412  .debug_str:0000000000006458 .LASF7289
     /tmp/ccCwMAmf.s:97910  .debug_str:000000000002520a .LASF7290
     /tmp/ccCwMAmf.s:97768  .debug_str:0000000000024951 .LASF7291
     /tmp/ccCwMAmf.s:103762  .debug_str:000000000003c9be .LASF7292
     /tmp/ccCwMAmf.s:97914  .debug_str:0000000000025229 .LASF7293
     /tmp/ccCwMAmf.s:97770  .debug_str:0000000000024958 .LASF7294
     /tmp/ccCwMAmf.s:97546  .debug_str:0000000000023ae7 .LASF7295
     /tmp/ccCwMAmf.s:94440  .debug_str:0000000000016532 .LASF7296
     /tmp/ccCwMAmf.s:97772  .debug_str:000000000002495f .LASF7297
     /tmp/ccCwMAmf.s:108178  .debug_str:000000000004f492 .LASF7298
     /tmp/ccCwMAmf.s:95398  .debug_str:000000000001a578 .LASF7299
     /tmp/ccCwMAmf.s:97774  .debug_str:0000000000024966 .LASF7300
     /tmp/ccCwMAmf.s:107574  .debug_str:000000000004cb00 .LASF7301
     /tmp/ccCwMAmf.s:102820  .debug_str:0000000000038dc2 .LASF7302
     /tmp/ccCwMAmf.s:97776  .debug_str:000000000002496d .LASF7303
     /tmp/ccCwMAmf.s:98556  .debug_str:0000000000027868 .LASF7304
     /tmp/ccCwMAmf.s:106484  .debug_str:00000000000481a3 .LASF7305
     /tmp/ccCwMAmf.s:97778  .debug_str:0000000000024974 .LASF7306
     /tmp/ccCwMAmf.s:92296  .debug_str:000000000000e221 .LASF7307
     /tmp/ccCwMAmf.s:103888  .debug_str:000000000003d196 .LASF7308
     /tmp/ccCwMAmf.s:97780  .debug_str:000000000002497b .LASF7309
     /tmp/ccCwMAmf.s:105658  .debug_str:0000000000044b6c .LASF7310
     /tmp/ccCwMAmf.s:90836  .debug_str:0000000000008114 .LASF7311
     /tmp/ccCwMAmf.s:97838  .debug_str:0000000000024e57 .LASF7312
     /tmp/ccCwMAmf.s:98580  .debug_str:00000000000279e2 .LASF7313
     /tmp/ccCwMAmf.s:90838  .debug_str:0000000000008123 .LASF7314
     /tmp/ccCwMAmf.s:97840  .debug_str:0000000000024e5e .LASF7315
     /tmp/ccCwMAmf.s:92330  .debug_str:000000000000e427 .LASF7316
     /tmp/ccCwMAmf.s:91086  .debug_str:0000000000009233 .LASF7317
     /tmp/ccCwMAmf.s:97842  .debug_str:0000000000024e65 .LASF7318
     /tmp/ccCwMAmf.s:105680  .debug_str:0000000000044ce6 .LASF7319
     /tmp/ccCwMAmf.s:105736  .debug_str:0000000000045039 .LASF7320
     /tmp/ccCwMAmf.s:97844  .debug_str:0000000000024e6c .LASF7321
     /tmp/ccCwMAmf.s:99604  .debug_str:000000000002bce6 .LASF7322
     /tmp/ccCwMAmf.s:105740  .debug_str:0000000000045052 .LASF7323
     /tmp/ccCwMAmf.s:97846  .debug_str:0000000000024e73 .LASF7324
     /tmp/ccCwMAmf.s:93394  .debug_str:00000000000122df .LASF7325
     /tmp/ccCwMAmf.s:95144  .debug_str:000000000001938f .LASF7326
     /tmp/ccCwMAmf.s:97848  .debug_str:0000000000024e7a .LASF7327
     /tmp/ccCwMAmf.s:106628  .debug_str:0000000000048aa6 .LASF7328
     /tmp/ccCwMAmf.s:91332  .debug_str:000000000000a325 .LASF7329
     /tmp/ccCwMAmf.s:97850  .debug_str:0000000000024e81 .LASF7330
     /tmp/ccCwMAmf.s:100580  .debug_str:000000000002fb9b .LASF7331
     /tmp/ccCwMAmf.s:91336  .debug_str:000000000000a339 .LASF7332
     /tmp/ccCwMAmf.s:97852  .debug_str:0000000000024e88 .LASF7333
     /tmp/ccCwMAmf.s:94362  .debug_str:0000000000015fe1 .LASF7334
     /tmp/ccCwMAmf.s:104220  .debug_str:000000000003e8c3 .LASF7335
     /tmp/ccCwMAmf.s:97854  .debug_str:0000000000024e8f .LASF7336
     /tmp/ccCwMAmf.s:107596  .debug_str:000000000004cc86 .LASF7337
     /tmp/ccCwMAmf.s:102430  .debug_str:0000000000037683 .LASF7338
     /tmp/ccCwMAmf.s:97856  .debug_str:0000000000024e96 .LASF7339
     /tmp/ccCwMAmf.s:101550  .debug_str:0000000000033af9 .LASF7340
     /tmp/ccCwMAmf.s:97834  .debug_str:0000000000024e17 .LASF7341
     /tmp/ccCwMAmf.s:97936  .debug_str:00000000000253b8 .LASF7342
     /tmp/ccCwMAmf.s:91374  .debug_str:000000000000a5c8 .LASF7343
     /tmp/ccCwMAmf.s:106230  .debug_str:000000000004705d .LASF7344
     /tmp/ccCwMAmf.s:97938  .debug_str:00000000000253bf .LASF7345
     /tmp/ccCwMAmf.s:97758  .debug_str:000000000002490e .LASF7346
     /tmp/ccCwMAmf.s:106232  .debug_str:0000000000047068 .LASF7347
     /tmp/ccCwMAmf.s:104630  .debug_str:0000000000040172 .LASF7348
     /tmp/ccCwMAmf.s:101576  .debug_str:0000000000033ca5 .LASF7349
     /tmp/ccCwMAmf.s:106552  .debug_str:000000000004860e .LASF7350
     /tmp/ccCwMAmf.s:97942  .debug_str:00000000000253fb .LASF7351
     /tmp/ccCwMAmf.s:95372  .debug_str:000000000001a356 .LASF7352
     /tmp/ccCwMAmf.s:90302  .debug_str:0000000000005d15 .LASF7353
     /tmp/ccCwMAmf.s:97944  .debug_str:0000000000025402 .LASF7354
     /tmp/ccCwMAmf.s:89182  .debug_str:0000000000000fe4 .LASF7355
     /tmp/ccCwMAmf.s:100306  .debug_str:000000000002e93b .LASF7356
     /tmp/ccCwMAmf.s:97946  .debug_str:0000000000025409 .LASF7357
     /tmp/ccCwMAmf.s:102528  .debug_str:0000000000037c58 .LASF7358
     /tmp/ccCwMAmf.s:90896  .debug_str:0000000000008559 .LASF7359
     /tmp/ccCwMAmf.s:97948  .debug_str:0000000000025410 .LASF7360
     /tmp/ccCwMAmf.s:96304  .debug_str:000000000001e582 .LASF7361
     /tmp/ccCwMAmf.s:101472  .debug_str:00000000000335ec .LASF7362
     /tmp/ccCwMAmf.s:97950  .debug_str:0000000000025417 .LASF7363
     /tmp/ccCwMAmf.s:90132  .debug_str:00000000000051b1 .LASF7364
     /tmp/ccCwMAmf.s:100192  .debug_str:000000000002e19a .LASF7365
     /tmp/ccCwMAmf.s:97952  .debug_str:000000000002541e .LASF7366
     /tmp/ccCwMAmf.s:103514  .debug_str:000000000003b820 .LASF7367
     /tmp/ccCwMAmf.s:100240  .debug_str:000000000002e47c .LASF7368
     /tmp/ccCwMAmf.s:97954  .debug_str:0000000000025425 .LASF7369
     /tmp/ccCwMAmf.s:97306  .debug_str:0000000000022a44 .LASF7370
     /tmp/ccCwMAmf.s:106966  .debug_str:000000000004a0e5 .LASF7371
     /tmp/ccCwMAmf.s:98026  .debug_str:0000000000025876 .LASF7372
     /tmp/ccCwMAmf.s:103192  .debug_str:000000000003a1c5 .LASF7373
     /tmp/ccCwMAmf.s:106970  .debug_str:000000000004a0fa .LASF7374
     /tmp/ccCwMAmf.s:98028  .debug_str:000000000002587d .LASF7375
     /tmp/ccCwMAmf.s:103536  .debug_str:000000000003b9a2 .LASF7376
     /tmp/ccCwMAmf.s:90976  .debug_str:0000000000008ad4 .LASF7377
     /tmp/ccCwMAmf.s:98030  .debug_str:0000000000025884 .LASF7378
     /tmp/ccCwMAmf.s:97316  .debug_str:0000000000022b20 .LASF7379
     /tmp/ccCwMAmf.s:102468  .debug_str:000000000003796e .LASF7380
     /tmp/ccCwMAmf.s:98032  .debug_str:000000000002588b .LASF7381
     /tmp/ccCwMAmf.s:91070  .debug_str:000000000000915d .LASF7382
     /tmp/ccCwMAmf.s:107168  .debug_str:000000000004af31 .LASF7383
     /tmp/ccCwMAmf.s:98034  .debug_str:0000000000025892 .LASF7384
     /tmp/ccCwMAmf.s:104410  .debug_str:000000000003f3d0 .LASF7385
     /tmp/ccCwMAmf.s:99822  .debug_str:000000000002ca3a .LASF7386
     /tmp/ccCwMAmf.s:98036  .debug_str:0000000000025899 .LASF7387
     /tmp/ccCwMAmf.s:98288  .debug_str:00000000000266c3 .LASF7388
     /tmp/ccCwMAmf.s:99824  .debug_str:000000000002ca46 .LASF7389
     /tmp/ccCwMAmf.s:98038  .debug_str:00000000000258a0 .LASF7390
     /tmp/ccCwMAmf.s:92042  .debug_str:000000000000d3e8 .LASF7391
     /tmp/ccCwMAmf.s:99826  .debug_str:000000000002ca52 .LASF7392
     /tmp/ccCwMAmf.s:98040  .debug_str:00000000000258a7 .LASF7393
     /tmp/ccCwMAmf.s:105418  .debug_str:0000000000043b82 .LASF7394
     /tmp/ccCwMAmf.s:94588  .debug_str:0000000000016f16 .LASF7395
     /tmp/ccCwMAmf.s:98042  .debug_str:00000000000258ae .LASF7396
     /tmp/ccCwMAmf.s:99322  .debug_str:000000000002aae9 .LASF7397
     /tmp/ccCwMAmf.s:90648  .debug_str:000000000000751c .LASF7398
     /tmp/ccCwMAmf.s:98044  .debug_str:00000000000258b5 .LASF7399
     /tmp/ccCwMAmf.s:93068  .debug_str:0000000000010e12 .LASF7400
     /tmp/ccCwMAmf.s:94594  .debug_str:0000000000016f6d .LASF7401
     /tmp/ccCwMAmf.s:98114  .debug_str:0000000000025d19 .LASF7402
     /tmp/ccCwMAmf.s:105448  .debug_str:0000000000043da8 .LASF7403
     /tmp/ccCwMAmf.s:98470  .debug_str:0000000000027245 .LASF7404
     /tmp/ccCwMAmf.s:98116  .debug_str:0000000000025d20 .LASF7405
     /tmp/ccCwMAmf.s:99350  .debug_str:000000000002ac95 .LASF7406
     /tmp/ccCwMAmf.s:101808  .debug_str:0000000000034c5c .LASF7407
     /tmp/ccCwMAmf.s:98118  .debug_str:0000000000025d27 .LASF7408
     /tmp/ccCwMAmf.s:103574  .debug_str:000000000003bc6d .LASF7409
     /tmp/ccCwMAmf.s:92212  .debug_str:000000000000dd54 .LASF7410
     /tmp/ccCwMAmf.s:98120  .debug_str:0000000000025d2e .LASF7411
     /tmp/ccCwMAmf.s:106374  .debug_str:0000000000047a78 .LASF7412
     /tmp/ccCwMAmf.s:92214  .debug_str:000000000000dd60 .LASF7413
     /tmp/ccCwMAmf.s:98122  .debug_str:0000000000025d35 .LASF7414
     /tmp/ccCwMAmf.s:91482  .debug_str:000000000000ad40 .LASF7415
     /tmp/ccCwMAmf.s:92216  .debug_str:000000000000dd6c .LASF7416
     /tmp/ccCwMAmf.s:98124  .debug_str:0000000000025d3c .LASF7417
     /tmp/ccCwMAmf.s:101792  .debug_str:0000000000034b79 .LASF7418
     /tmp/ccCwMAmf.s:108090  .debug_str:000000000004eee3 .LASF7419
     /tmp/ccCwMAmf.s:98126  .debug_str:0000000000025d43 .LASF7420
     /tmp/ccCwMAmf.s:107338  .debug_str:000000000004baac .LASF7421
     /tmp/ccCwMAmf.s:108092  .debug_str:000000000004eeed .LASF7422
     /tmp/ccCwMAmf.s:98128  .debug_str:0000000000025d4a .LASF7423
     /tmp/ccCwMAmf.s:91064  .debug_str:00000000000090d8 .LASF7424
     /tmp/ccCwMAmf.s:103292  .debug_str:000000000003a8e8 .LASF7425
     /tmp/ccCwMAmf.s:98130  .debug_str:0000000000025d51 .LASF7426
     /tmp/ccCwMAmf.s:95082  .debug_str:0000000000018ef4 .LASF7427
     /tmp/ccCwMAmf.s:108096  .debug_str:000000000004ef27 .LASF7428
     /tmp/ccCwMAmf.s:98132  .debug_str:0000000000025d58 .LASF7429
     /tmp/ccCwMAmf.s:108312  .debug_str:000000000004fdb9 .LASF7430
     /tmp/ccCwMAmf.s:93514  .debug_str:0000000000012a90 .LASF7431
     /tmp/ccCwMAmf.s:98204  .debug_str:00000000000261e7 .LASF7432
     /tmp/ccCwMAmf.s:102216  .debug_str:00000000000368b6 .LASF7433
     /tmp/ccCwMAmf.s:101564  .debug_str:0000000000033c14 .LASF7434
     /tmp/ccCwMAmf.s:92476  .debug_str:000000000000ec50 .LASF7435
     /tmp/ccCwMAmf.s:100640  .debug_str:000000000002ff73 .LASF7436
     /tmp/ccCwMAmf.s:101566  .debug_str:0000000000033c20 .LASF7437
     /tmp/ccCwMAmf.s:92480  .debug_str:000000000000ec6c .LASF7438
     /tmp/ccCwMAmf.s:94432  .debug_str:0000000000016499 .LASF7439
     /tmp/ccCwMAmf.s:106980  .debug_str:000000000004a168 .LASF7440
     /tmp/ccCwMAmf.s:93874  .debug_str:0000000000014236 .LASF7441
     /tmp/ccCwMAmf.s:91960  .debug_str:000000000000ce68 .LASF7442
     /tmp/ccCwMAmf.s:104504  .debug_str:000000000003f9bd .LASF7443
     /tmp/ccCwMAmf.s:94608  .debug_str:0000000000016ffa .LASF7444
     /tmp/ccCwMAmf.s:97494  .debug_str:0000000000023784 .LASF7445
     /tmp/ccCwMAmf.s:103682  .debug_str:000000000003c4c2 .LASF7446
     /tmp/ccCwMAmf.s:103148  .debug_str:0000000000039e79 .LASF7447
     /tmp/ccCwMAmf.s:100772  .debug_str:000000000003084f .LASF7448
     /tmp/ccCwMAmf.s:92462  .debug_str:000000000000eb88 .LASF7449
     /tmp/ccCwMAmf.s:105446  .debug_str:0000000000043d82 .LASF7450
     /tmp/ccCwMAmf.s:104642  .debug_str:00000000000401f3 .LASF7451
     /tmp/ccCwMAmf.s:92414  .debug_str:000000000000e89d .LASF7452
     /tmp/ccCwMAmf.s:96398  .debug_str:000000000001eb9a .LASF7453
     /tmp/ccCwMAmf.s:104520  .debug_str:000000000003fabc .LASF7454
     /tmp/ccCwMAmf.s:90750  .debug_str:0000000000007b6a .LASF7455
     /tmp/ccCwMAmf.s:93468  .debug_str:0000000000012707 .LASF7456
     /tmp/ccCwMAmf.s:104638  .debug_str:00000000000401d5 .LASF7457
     /tmp/ccCwMAmf.s:101918  .debug_str:00000000000353da .LASF7458
     /tmp/ccCwMAmf.s:103480  .debug_str:000000000003b634 .LASF7459
     /tmp/ccCwMAmf.s:105678  .debug_str:0000000000044cd8 .LASF7460
     /tmp/ccCwMAmf.s:98392  .debug_str:0000000000026e2c .LASF7461
     /tmp/ccCwMAmf.s:95970  .debug_str:000000000001cdf6 .LASF7462
     /tmp/ccCwMAmf.s:99400  .debug_str:000000000002b05b .LASF7463
     /tmp/ccCwMAmf.s:101240  .debug_str:0000000000032641 .LASF7464
     /tmp/ccCwMAmf.s:103384  .debug_str:000000000003af68 .LASF7465
     /tmp/ccCwMAmf.s:92400  .debug_str:000000000000e7c6 .LASF7466
     /tmp/ccCwMAmf.s:106494  .debug_str:000000000004823f .LASF7467
     /tmp/ccCwMAmf.s:105834  .debug_str:0000000000045726 .LASF7468
     /tmp/ccCwMAmf.s:96762  .debug_str:00000000000205ed .LASF7469
     /tmp/ccCwMAmf.s:95300  .debug_str:0000000000019e77 .LASF7470
     /tmp/ccCwMAmf.s:90034  .debug_str:0000000000004b77 .LASF7471
     /tmp/ccCwMAmf.s:91934  .debug_str:000000000000ccd1 .LASF7472
     /tmp/ccCwMAmf.s:96952  .debug_str:0000000000021238 .LASF7473
     /tmp/ccCwMAmf.s:105346  .debug_str:00000000000436c5 .LASF7474
     /tmp/ccCwMAmf.s:89858  .debug_str:0000000000003e92 .LASF7475
     /tmp/ccCwMAmf.s:104824  .debug_str:0000000000041019 .LASF7476
     /tmp/ccCwMAmf.s:95550  .debug_str:000000000001b041 .LASF7477
     /tmp/ccCwMAmf.s:104380  .debug_str:000000000003f205 .LASF7478
     /tmp/ccCwMAmf.s:89516  .debug_str:00000000000027ce .LASF7479
     /tmp/ccCwMAmf.s:104002  .debug_str:000000000003d994 .LASF7480
     /tmp/ccCwMAmf.s:93126  .debug_str:000000000001112c .LASF7481
     /tmp/ccCwMAmf.s:101810  .debug_str:0000000000034c64 .LASF7482
     /tmp/ccCwMAmf.s:106714  .debug_str:0000000000049099 .LASF7483
     /tmp/ccCwMAmf.s:102920  .debug_str:0000000000039227 .LASF7484
     /tmp/ccCwMAmf.s:90158  .debug_str:0000000000005342 .LASF7485
     /tmp/ccCwMAmf.s:98612  .debug_str:0000000000027c5c .LASF7486
     /tmp/ccCwMAmf.s:88988  .debug_str:00000000000002cc .LASF7487
     /tmp/ccCwMAmf.s:99402  .debug_str:000000000002b083 .LASF7488
     /tmp/ccCwMAmf.s:99110  .debug_str:0000000000029d69 .LASF7489
     /tmp/ccCwMAmf.s:93396  .debug_str:0000000000012300 .LASF7490
     /tmp/ccCwMAmf.s:98680  .debug_str:00000000000280ac .LASF7491
     /tmp/ccCwMAmf.s:90330  .debug_str:0000000000005f25 .LASF7492
     /tmp/ccCwMAmf.s:105076  .debug_str:00000000000424d5 .LASF7493
     /tmp/ccCwMAmf.s:105032  .debug_str:0000000000042139 .LASF7494
     /tmp/ccCwMAmf.s:91656  .debug_str:000000000000b96e .LASF7495
     /tmp/ccCwMAmf.s:106798  .debug_str:0000000000049597 .LASF7496
     /tmp/ccCwMAmf.s:107478  .debug_str:000000000004c3eb .LASF7497
     /tmp/ccCwMAmf.s:104952  .debug_str:0000000000041905 .LASF7498
     /tmp/ccCwMAmf.s:90254  .debug_str:0000000000005a34 .LASF7499
     /tmp/ccCwMAmf.s:94196  .debug_str:00000000000155c2 .LASF7500
     /tmp/ccCwMAmf.s:94626  .debug_str:0000000000017182 .LASF7501
     /tmp/ccCwMAmf.s:100862  .debug_str:0000000000030df4 .LASF7502
     /tmp/ccCwMAmf.s:101832  .debug_str:0000000000034d88 .LASF7503
     /tmp/ccCwMAmf.s:99636  .debug_str:000000000002bf1e .LASF7504
     /tmp/ccCwMAmf.s:90830  .debug_str:00000000000080cb .LASF7505
     /tmp/ccCwMAmf.s:97308  .debug_str:0000000000022a65 .LASF7506
     /tmp/ccCwMAmf.s:105890  .debug_str:0000000000045a7a .LASF7507
     /tmp/ccCwMAmf.s:103014  .debug_str:000000000003970b .LASF7508
     /tmp/ccCwMAmf.s:97294  .debug_str:000000000002295c .LASF7509
     /tmp/ccCwMAmf.s:95026  .debug_str:0000000000018b4d .LASF7510
     /tmp/ccCwMAmf.s:103648  .debug_str:000000000003c21a .LASF7511
     /tmp/ccCwMAmf.s:92522  .debug_str:000000000000ed87 .LASF7512
     /tmp/ccCwMAmf.s:101226  .debug_str:000000000003256d .LASF7513
     /tmp/ccCwMAmf.s:103016  .debug_str:0000000000039712 .LASF7514
     /tmp/ccCwMAmf.s:91042  .debug_str:0000000000008f52 .LASF7515
     /tmp/ccCwMAmf.s:103806  .debug_str:000000000003ccbf .LASF7516
     /tmp/ccCwMAmf.s:101124  .debug_str:0000000000031dde .LASF7517
     /tmp/ccCwMAmf.s:102240  .debug_str:0000000000036a44 .LASF7518
     /tmp/ccCwMAmf.s:100214  .debug_str:000000000002e2ab .LASF7519
     /tmp/ccCwMAmf.s:106014  .debug_str:00000000000462be .LASF7520
     /tmp/ccCwMAmf.s:100714  .debug_str:00000000000303f9 .LASF7521
     /tmp/ccCwMAmf.s:89794  .debug_str:0000000000003a53 .LASF7522
     /tmp/ccCwMAmf.s:106016  .debug_str:00000000000462cc .LASF7523
     /tmp/ccCwMAmf.s:94508  .debug_str:0000000000016981 .LASF7524
     /tmp/ccCwMAmf.s:98498  .debug_str:0000000000027439 .LASF7525
     /tmp/ccCwMAmf.s:106018  .debug_str:00000000000462da .LASF7526
     /tmp/ccCwMAmf.s:107754  .debug_str:000000000004d738 .LASF7527
     /tmp/ccCwMAmf.s:97536  .debug_str:0000000000023a5d .LASF7528
     /tmp/ccCwMAmf.s:103588  .debug_str:000000000003bd67 .LASF7529
     /tmp/ccCwMAmf.s:101698  .debug_str:00000000000343f8 .LASF7530
     /tmp/ccCwMAmf.s:91222  .debug_str:0000000000009bf1 .LASF7531
     /tmp/ccCwMAmf.s:106022  .debug_str:000000000004632a .LASF7532
     /tmp/ccCwMAmf.s:106996  .debug_str:000000000004a26f .LASF7533
     /tmp/ccCwMAmf.s:102554  .debug_str:0000000000037ec4 .LASF7534
     /tmp/ccCwMAmf.s:106024  .debug_str:0000000000046338 .LASF7535
     /tmp/ccCwMAmf.s:103320  .debug_str:000000000003aaca .LASF7536
     /tmp/ccCwMAmf.s:105174  .debug_str:0000000000042ae6 .LASF7537
     /tmp/ccCwMAmf.s:100390  .debug_str:000000000002ee96 .LASF7538
     /tmp/ccCwMAmf.s:100392  .debug_str:000000000002eea8 .LASF7539
     /tmp/ccCwMAmf.s:100396  .debug_str:000000000002eee6 .LASF7540
     /tmp/ccCwMAmf.s:103522  .debug_str:000000000003b89d .LASF7541
     /tmp/ccCwMAmf.s:106286  .debug_str:0000000000047463 .LASF7542
     /tmp/ccCwMAmf.s:100398  .debug_str:000000000002eef8 .LASF7543
     /tmp/ccCwMAmf.s:105184  .debug_str:0000000000042b76 .LASF7544
     /tmp/ccCwMAmf.s:105186  .debug_str:0000000000042b88 .LASF7545
     /tmp/ccCwMAmf.s:105188  .debug_str:0000000000042b9a .LASF7546
     /tmp/ccCwMAmf.s:103524  .debug_str:000000000003b8ac .LASF7547
     /tmp/ccCwMAmf.s:100248  .debug_str:000000000002e4ed .LASF7548
     /tmp/ccCwMAmf.s:102494  .debug_str:00000000000379f5 .LASF7549
     /tmp/ccCwMAmf.s:106430  .debug_str:0000000000047e5f .LASF7550
     /tmp/ccCwMAmf.s:98302  .debug_str:0000000000026802 .LASF7551
     /tmp/ccCwMAmf.s:102230  .debug_str:000000000003699b .LASF7552
     /tmp/ccCwMAmf.s:103560  .debug_str:000000000003bb5d .LASF7553
     /tmp/ccCwMAmf.s:105980  .debug_str:0000000000046070 .LASF7554
     /tmp/ccCwMAmf.s:104486  .debug_str:000000000003f8b5 .LASF7555
     /tmp/ccCwMAmf.s:108138  .debug_str:000000000004f1cf .LASF7556
     /tmp/ccCwMAmf.s:94426  .debug_str:0000000000016420 .LASF7557
     /tmp/ccCwMAmf.s:105986  .debug_str:00000000000460ca .LASF7558
     /tmp/ccCwMAmf.s:89272  .debug_str:00000000000015cb .LASF7559
     /tmp/ccCwMAmf.s:107030  .debug_str:000000000004a4dd .LASF7560
     /tmp/ccCwMAmf.s:104056  .debug_str:000000000003ddbd .LASF7561
     /tmp/ccCwMAmf.s:89012  .debug_str:0000000000000469 .LASF7562
     /tmp/ccCwMAmf.s:93862  .debug_str:000000000001416d .LASF7563
     /tmp/ccCwMAmf.s:90624  .debug_str:00000000000073d0 .LASF7564
     /tmp/ccCwMAmf.s:90462  .debug_str:00000000000067aa .LASF7565
     /tmp/ccCwMAmf.s:99868  .debug_str:000000000002cd09 .LASF7566
     /tmp/ccCwMAmf.s:99870  .debug_str:000000000002cd21 .LASF7567
     /tmp/ccCwMAmf.s:99872  .debug_str:000000000002cd39 .LASF7568
     /tmp/ccCwMAmf.s:99874  .debug_str:000000000002cd51 .LASF7569
     /tmp/ccCwMAmf.s:105540  .debug_str:000000000004434e .LASF7570
     /tmp/ccCwMAmf.s:91176  .debug_str:0000000000009823 .LASF7571
     /tmp/ccCwMAmf.s:99876  .debug_str:000000000002cd69 .LASF7572
     /tmp/ccCwMAmf.s:92766  .debug_str:000000000000fd00 .LASF7573
     /tmp/ccCwMAmf.s:92768  .debug_str:000000000000fd1e .LASF7574
     /tmp/ccCwMAmf.s:92770  .debug_str:000000000000fd3c .LASF7575
     /tmp/ccCwMAmf.s:92772  .debug_str:000000000000fd5a .LASF7576
     /tmp/ccCwMAmf.s:92774  .debug_str:000000000000fd78 .LASF7577
     /tmp/ccCwMAmf.s:96612  .debug_str:000000000001fa9e .LASF7578
     /tmp/ccCwMAmf.s:92448  .debug_str:000000000000eab2 .LASF7579
     /tmp/ccCwMAmf.s:96616  .debug_str:000000000001facb .LASF7580
     /tmp/ccCwMAmf.s:96618  .debug_str:000000000001fae8 .LASF7581
     /tmp/ccCwMAmf.s:96620  .debug_str:000000000001fb05 .LASF7582
     /tmp/ccCwMAmf.s:108202  .debug_str:000000000004f682 .LASF7583
     /tmp/ccCwMAmf.s:108204  .debug_str:000000000004f69c .LASF7584
     /tmp/ccCwMAmf.s:108206  .debug_str:000000000004f6b6 .LASF7585
     /tmp/ccCwMAmf.s:108208  .debug_str:000000000004f6d0 .LASF7586
     /tmp/ccCwMAmf.s:108210  .debug_str:000000000004f6ea .LASF7587
     /tmp/ccCwMAmf.s:102664  .debug_str:000000000003846c .LASF7588
     /tmp/ccCwMAmf.s:104896  .debug_str:0000000000041589 .LASF7589
     /tmp/ccCwMAmf.s:105542  .debug_str:0000000000044366 .LASF7590
     /tmp/ccCwMAmf.s:104524  .debug_str:000000000003fae7 .LASF7591
     /tmp/ccCwMAmf.s:102024  .debug_str:0000000000035ba5 .LASF7592
     /tmp/ccCwMAmf.s:90698  .debug_str:000000000000788d .LASF7593
     /tmp/ccCwMAmf.s:90700  .debug_str:00000000000078aa .LASF7594
     /tmp/ccCwMAmf.s:102034  .debug_str:0000000000035c98 .LASF7595
     /tmp/ccCwMAmf.s:89574  .debug_str:0000000000002be1 .LASF7596
     /tmp/ccCwMAmf.s:99736  .debug_str:000000000002c4ed .LASF7597
     /tmp/ccCwMAmf.s:90704  .debug_str:0000000000007907 .LASF7598
     /tmp/ccCwMAmf.s:100092  .debug_str:000000000002dabf .LASF7599
     /tmp/ccCwMAmf.s:100094  .debug_str:000000000002dae2 .LASF7600
     /tmp/ccCwMAmf.s:100096  .debug_str:000000000002db05 .LASF7601
     /tmp/ccCwMAmf.s:100098  .debug_str:000000000002db28 .LASF7602
     /tmp/ccCwMAmf.s:100100  .debug_str:000000000002db4b .LASF7603
     /tmp/ccCwMAmf.s:96884  .debug_str:0000000000020d99 .LASF7604
     /tmp/ccCwMAmf.s:96886  .debug_str:0000000000020dbb .LASF7605
     /tmp/ccCwMAmf.s:97992  .debug_str:0000000000025650 .LASF7606
     /tmp/ccCwMAmf.s:96890  .debug_str:0000000000020dee .LASF7607
     /tmp/ccCwMAmf.s:96892  .debug_str:0000000000020e10 .LASF7608
     /tmp/ccCwMAmf.s:99658  .debug_str:000000000002c0bc .LASF7609
     /tmp/ccCwMAmf.s:99660  .debug_str:000000000002c0db .LASF7610
     /tmp/ccCwMAmf.s:99662  .debug_str:000000000002c0fa .LASF7611
     /tmp/ccCwMAmf.s:102898  .debug_str:00000000000391cc .LASF7612
     /tmp/ccCwMAmf.s:99666  .debug_str:000000000002c127 .LASF7613
     /tmp/ccCwMAmf.s:99786  .debug_str:000000000002c7b3 .LASF7614
     /tmp/ccCwMAmf.s:105068  .debug_str:0000000000042425 .LASF7615
     /tmp/ccCwMAmf.s:89576  .debug_str:0000000000002bfe .LASF7616
     /tmp/ccCwMAmf.s:96866  .debug_str:0000000000020caa .LASF7617
     /tmp/ccCwMAmf.s:101600  .debug_str:0000000000033e46 .LASF7618
     /tmp/ccCwMAmf.s:101602  .debug_str:0000000000033e5e .LASF7619
     /tmp/ccCwMAmf.s:101604  .debug_str:0000000000033e76 .LASF7620
     /tmp/ccCwMAmf.s:101606  .debug_str:0000000000033e8e .LASF7621
     /tmp/ccCwMAmf.s:96080  .debug_str:000000000001d4fd .LASF7622
     /tmp/ccCwMAmf.s:95598  .debug_str:000000000001b319 .LASF7623
     /tmp/ccCwMAmf.s:101608  .debug_str:0000000000033ea6 .LASF7624
     /tmp/ccCwMAmf.s:94536  .debug_str:0000000000016ba0 .LASF7625
     /tmp/ccCwMAmf.s:94538  .debug_str:0000000000016bbe .LASF7626
     /tmp/ccCwMAmf.s:105154  .debug_str:00000000000429fc .LASF7627
     /tmp/ccCwMAmf.s:94542  .debug_str:0000000000016c01 .LASF7628
     /tmp/ccCwMAmf.s:94544  .debug_str:0000000000016c1f .LASF7629
     /tmp/ccCwMAmf.s:98332  .debug_str:0000000000026a13 .LASF7630
     /tmp/ccCwMAmf.s:98334  .debug_str:0000000000026a30 .LASF7631
     /tmp/ccCwMAmf.s:98336  .debug_str:0000000000026a4d .LASF7632
     /tmp/ccCwMAmf.s:98338  .debug_str:0000000000026a6a .LASF7633
     /tmp/ccCwMAmf.s:98340  .debug_str:0000000000026a87 .LASF7634
     /tmp/ccCwMAmf.s:90514  .debug_str:0000000000006b70 .LASF7635
     /tmp/ccCwMAmf.s:90516  .debug_str:0000000000006b8a .LASF7636
     /tmp/ccCwMAmf.s:90518  .debug_str:0000000000006ba4 .LASF7637
     /tmp/ccCwMAmf.s:90520  .debug_str:0000000000006bbe .LASF7638
     /tmp/ccCwMAmf.s:107742  .debug_str:000000000004d65d .LASF7639
     /tmp/ccCwMAmf.s:93940  .debug_str:0000000000014675 .LASF7640
     /tmp/ccCwMAmf.s:101838  .debug_str:0000000000034df6 .LASF7641
     /tmp/ccCwMAmf.s:96084  .debug_str:000000000001d531 .LASF7642
     /tmp/ccCwMAmf.s:89408  .debug_str:0000000000002099 .LASF7643
     /tmp/ccCwMAmf.s:107800  .debug_str:000000000004db3b .LASF7644
     /tmp/ccCwMAmf.s:93216  .debug_str:000000000001168f .LASF7645
     /tmp/ccCwMAmf.s:93218  .debug_str:00000000000116a6 .LASF7646
     /tmp/ccCwMAmf.s:107806  .debug_str:000000000004dba8 .LASF7647
     /tmp/ccCwMAmf.s:94024  .debug_str:0000000000014b77 .LASF7648
     /tmp/ccCwMAmf.s:89976  .debug_str:000000000000471f .LASF7649
     /tmp/ccCwMAmf.s:93222  .debug_str:00000000000116ce .LASF7650
     /tmp/ccCwMAmf.s:104472  .debug_str:000000000003f7e5 .LASF7651
     /tmp/ccCwMAmf.s:104474  .debug_str:000000000003f802 .LASF7652
     /tmp/ccCwMAmf.s:104476  .debug_str:000000000003f81f .LASF7653
     /tmp/ccCwMAmf.s:104478  .debug_str:000000000003f83c .LASF7654
     /tmp/ccCwMAmf.s:104480  .debug_str:000000000003f859 .LASF7655
     /tmp/ccCwMAmf.s:94062  .debug_str:0000000000014d3a .LASF7656
     /tmp/ccCwMAmf.s:94064  .debug_str:0000000000014d56 .LASF7657
     /tmp/ccCwMAmf.s:89510  .debug_str:000000000000275c .LASF7658
     /tmp/ccCwMAmf.s:94068  .debug_str:0000000000014da2 .LASF7659
     /tmp/ccCwMAmf.s:94070  .debug_str:0000000000014dbe .LASF7660
     /tmp/ccCwMAmf.s:100080  .debug_str:000000000002da08 .LASF7661
     /tmp/ccCwMAmf.s:100082  .debug_str:000000000002da21 .LASF7662
     /tmp/ccCwMAmf.s:100084  .debug_str:000000000002da3a .LASF7663
     /tmp/ccCwMAmf.s:100086  .debug_str:000000000002da53 .LASF7664
     /tmp/ccCwMAmf.s:100088  .debug_str:000000000002da6c .LASF7665
     /tmp/ccCwMAmf.s:101390  .debug_str:0000000000032fe9 .LASF7666
     /tmp/ccCwMAmf.s:103368  .debug_str:000000000003ae11 .LASF7667
     /tmp/ccCwMAmf.s:94026  .debug_str:0000000000014b8e .LASF7668
     /tmp/ccCwMAmf.s:95148  .debug_str:00000000000193ce .LASF7669
     /tmp/ccCwMAmf.s:94098  .debug_str:0000000000014f5c .LASF7670
     /tmp/ccCwMAmf.s:94100  .debug_str:0000000000014f7f .LASF7671
     /tmp/ccCwMAmf.s:94102  .debug_str:0000000000014fa2 .LASF7672
     /tmp/ccCwMAmf.s:94104  .debug_str:0000000000014fc5 .LASF7673
     /tmp/ccCwMAmf.s:94106  .debug_str:0000000000014fe8 .LASF7674
     /tmp/ccCwMAmf.s:108066  .debug_str:000000000004ed7e .LASF7675
     /tmp/ccCwMAmf.s:105212  .debug_str:0000000000042d4a .LASF7676
     /tmp/ccCwMAmf.s:106718  .debug_str:00000000000490a9 .LASF7677
     /tmp/ccCwMAmf.s:105198  .debug_str:0000000000042c70 .LASF7678
     /tmp/ccCwMAmf.s:105200  .debug_str:0000000000042c94 .LASF7679
     /tmp/ccCwMAmf.s:105892  .debug_str:0000000000045a87 .LASF7680
     /tmp/ccCwMAmf.s:105204  .debug_str:0000000000042cc4 .LASF7681
     /tmp/ccCwMAmf.s:105206  .debug_str:0000000000042ce8 .LASF7682
     /tmp/ccCwMAmf.s:100556  .debug_str:000000000002fa23 .LASF7683
     /tmp/ccCwMAmf.s:107976  .debug_str:000000000004e75d .LASF7684
     /tmp/ccCwMAmf.s:96770  .debug_str:00000000000206b6 .LASF7685
     /tmp/ccCwMAmf.s:92072  .debug_str:000000000000d5b3 .LASF7686
     /tmp/ccCwMAmf.s:99974  .debug_str:000000000002d342 .LASF7687
     /tmp/ccCwMAmf.s:107414  .debug_str:000000000004bfc9 .LASF7688
     /tmp/ccCwMAmf.s:100366  .debug_str:000000000002ed7b .LASF7689
     /tmp/ccCwMAmf.s:96780  .debug_str:00000000000207c5 .LASF7690
     /tmp/ccCwMAmf.s:90670  .debug_str:0000000000007631 .LASF7691
     /tmp/ccCwMAmf.s:102774  .debug_str:0000000000038b2d .LASF7692
     /tmp/ccCwMAmf.s:92684  .debug_str:000000000000f76d .LASF7693
     /tmp/ccCwMAmf.s:91458  .debug_str:000000000000ab78 .LASF7694
     /tmp/ccCwMAmf.s:96048  .debug_str:000000000001d2a1 .LASF7695
     /tmp/ccCwMAmf.s:91296  .debug_str:000000000000a0a4 .LASF7696
     /tmp/ccCwMAmf.s:90764  .debug_str:0000000000007cbb .LASF7697
     /tmp/ccCwMAmf.s:99130  .debug_str:0000000000029eec .LASF7698
     /tmp/ccCwMAmf.s:91990  .debug_str:000000000000d045 .LASF7699
     /tmp/ccCwMAmf.s:98788  .debug_str:0000000000028825 .LASF7700
     /tmp/ccCwMAmf.s:96778  .debug_str:00000000000207af .LASF7701
     /tmp/ccCwMAmf.s:94528  .debug_str:0000000000016b11 .LASF7702
     /tmp/ccCwMAmf.s:108276  .debug_str:000000000004fb5c .LASF7703
     /tmp/ccCwMAmf.s:92300  .debug_str:000000000000e267 .LASF7704
     /tmp/ccCwMAmf.s:107630  .debug_str:000000000004cef1 .LASF7705
     /tmp/ccCwMAmf.s:107632  .debug_str:000000000004cf10 .LASF7706
     /tmp/ccCwMAmf.s:107634  .debug_str:000000000004cf2f .LASF7707
     /tmp/ccCwMAmf.s:101702  .debug_str:0000000000034437 .LASF7708
     /tmp/ccCwMAmf.s:95972  .debug_str:000000000001ce04 .LASF7709
     /tmp/ccCwMAmf.s:94860  .debug_str:000000000001810b .LASF7710
     /tmp/ccCwMAmf.s:107638  .debug_str:000000000004cf5c .LASF7711
     /tmp/ccCwMAmf.s:102868  .debug_str:0000000000038ff7 .LASF7712
     /tmp/ccCwMAmf.s:102508  .debug_str:0000000000037b02 .LASF7713
     /tmp/ccCwMAmf.s:98460  .debug_str:00000000000271c2 .LASF7714
     /tmp/ccCwMAmf.s:98462  .debug_str:00000000000271df .LASF7715
     /tmp/ccCwMAmf.s:98464  .debug_str:00000000000271fc .LASF7716
     /tmp/ccCwMAmf.s:101132  .debug_str:0000000000031e60 .LASF7717
     /tmp/ccCwMAmf.s:98468  .debug_str:0000000000027228 .LASF7718
     /tmp/ccCwMAmf.s:89788  .debug_str:00000000000039e0 .LASF7719
     /tmp/ccCwMAmf.s:107538  .debug_str:000000000004c816 .LASF7720
     /tmp/ccCwMAmf.s:102084  .debug_str:0000000000035fa4 .LASF7721
     /tmp/ccCwMAmf.s:99996  .debug_str:000000000002d49e .LASF7722
     /tmp/ccCwMAmf.s:101812  .debug_str:0000000000034c71 .LASF7723
     /tmp/ccCwMAmf.s:89028  .debug_str:00000000000005c9 .LASF7724
     /tmp/ccCwMAmf.s:103426  .debug_str:000000000003b211 .LASF7725
     /tmp/ccCwMAmf.s:101922  .debug_str:0000000000035414 .LASF7726
     /tmp/ccCwMAmf.s:101924  .debug_str:0000000000035430 .LASF7727
     /tmp/ccCwMAmf.s:101926  .debug_str:000000000003544c .LASF7728
     /tmp/ccCwMAmf.s:101928  .debug_str:0000000000035468 .LASF7729
     /tmp/ccCwMAmf.s:108266  .debug_str:000000000004fab8 .LASF7730
     /tmp/ccCwMAmf.s:99046  .debug_str:000000000002995c .LASF7731
     /tmp/ccCwMAmf.s:101930  .debug_str:0000000000035484 .LASF7732
     /tmp/ccCwMAmf.s:99634  .debug_str:000000000002bf07 .LASF7733
     /tmp/ccCwMAmf.s:106614  .debug_str:00000000000489a8 .LASF7734
     /tmp/ccCwMAmf.s:91000  .debug_str:0000000000008c6e .LASF7735
     /tmp/ccCwMAmf.s:103578  .debug_str:000000000003bcc4 .LASF7736
     /tmp/ccCwMAmf.s:107382  .debug_str:000000000004bdb7 .LASF7737
     /tmp/ccCwMAmf.s:99054  .debug_str:00000000000299ce .LASF7738
     /tmp/ccCwMAmf.s:104494  .debug_str:000000000003f92f .LASF7739
     /tmp/ccCwMAmf.s:104408  .debug_str:000000000003f3ad .LASF7740
     /tmp/ccCwMAmf.s:96726  .debug_str:0000000000020332 .LASF7741
     /tmp/ccCwMAmf.s:98786  .debug_str:0000000000028817 .LASF7742
     /tmp/ccCwMAmf.s:94184  .debug_str:000000000001551d .LASF7743
     /tmp/ccCwMAmf.s:99230  .debug_str:000000000002a5b0 .LASF7744
     /tmp/ccCwMAmf.s:108232  .debug_str:000000000004f86b .LASF7745
     /tmp/ccCwMAmf.s:94730  .debug_str:000000000001793f .LASF7746
     /tmp/ccCwMAmf.s:101438  .debug_str:0000000000033325 .LASF7747
     /tmp/ccCwMAmf.s:105946  .debug_str:0000000000045e2b .LASF7748
     /tmp/ccCwMAmf.s:90294  .debug_str:0000000000005cb2 .LASF7749
     /tmp/ccCwMAmf.s:102020  .debug_str:0000000000035b65 .LASF7750
     /tmp/ccCwMAmf.s:91682  .debug_str:000000000000bb61 .LASF7751
     /tmp/ccCwMAmf.s:102686  .debug_str:000000000003861d .LASF7752
     /tmp/ccCwMAmf.s:101268  .debug_str:0000000000032840 .LASF7753
     /tmp/ccCwMAmf.s:98320  .debug_str:000000000002697a .LASF7754
     /tmp/ccCwMAmf.s:90664  .debug_str:00000000000075d4 .LASF7755
     /tmp/ccCwMAmf.s:93776  .debug_str:0000000000013c4d .LASF7756
     /tmp/ccCwMAmf.s:90736  .debug_str:0000000000007aba .LASF7757
     /tmp/ccCwMAmf.s:95124  .debug_str:00000000000191c4 .LASF7758
     /tmp/ccCwMAmf.s:107518  .debug_str:000000000004c6d9 .LASF7759
     /tmp/ccCwMAmf.s:103506  .debug_str:000000000003b7c0 .LASF7760
     /tmp/ccCwMAmf.s:98214  .debug_str:0000000000026272 .LASF7761
     /tmp/ccCwMAmf.s:93590  .debug_str:0000000000012ff3 .LASF7762
     /tmp/ccCwMAmf.s:94662  .debug_str:00000000000173ee .LASF7763
     /tmp/ccCwMAmf.s:97566  .debug_str:0000000000023c39 .LASF7764
     /tmp/ccCwMAmf.s:93166  .debug_str:000000000001140e .LASF7765
     /tmp/ccCwMAmf.s:105454  .debug_str:0000000000043e2a .LASF7766
     /tmp/ccCwMAmf.s:100844  .debug_str:0000000000030cc4 .LASF7767
     /tmp/ccCwMAmf.s:96446  .debug_str:000000000001ee7e .LASF7768
     /tmp/ccCwMAmf.s:89282  .debug_str:0000000000001696 .LASF7769
     /tmp/ccCwMAmf.s:103512  .debug_str:000000000003b815 .LASF7770
     /tmp/ccCwMAmf.s:96278  .debug_str:000000000001e381 .LASF7771
     /tmp/ccCwMAmf.s:91836  .debug_str:000000000000c5d4 .LASF7772
     /tmp/ccCwMAmf.s:101272  .debug_str:00000000000328a5 .LASF7773
     /tmp/ccCwMAmf.s:102274  .debug_str:0000000000036c99 .LASF7774
     /tmp/ccCwMAmf.s:97302  .debug_str:0000000000022a03 .LASF7775
     /tmp/ccCwMAmf.s:99918  .debug_str:000000000002cff0 .LASF7776
     /tmp/ccCwMAmf.s:94302  .debug_str:0000000000015cd1 .LASF7777
     /tmp/ccCwMAmf.s:98840  .debug_str:0000000000028bca .LASF7778
     /tmp/ccCwMAmf.s:91260  .debug_str:0000000000009e76 .LASF7779
     /tmp/ccCwMAmf.s:92750  .debug_str:000000000000fc73 .LASF7780
     /tmp/ccCwMAmf.s:96974  .debug_str:0000000000021387 .LASF7781
     /tmp/ccCwMAmf.s:92746  .debug_str:000000000000fc49 .LASF7782
     /tmp/ccCwMAmf.s:96972  .debug_str:000000000002136e .LASF7783
     /tmp/ccCwMAmf.s:95448  .debug_str:000000000001a923 .LASF7784
     /tmp/ccCwMAmf.s:96562  .debug_str:000000000001f76e .LASF7785
     /tmp/ccCwMAmf.s:106912  .debug_str:0000000000049d4e .LASF7786
     /tmp/ccCwMAmf.s:95224  .debug_str:000000000001992b .LASF7787
     /tmp/ccCwMAmf.s:93782  .debug_str:0000000000013c9b .LASF7788
     /tmp/ccCwMAmf.s:92152  .debug_str:000000000000daa3 .LASF7789
     /tmp/ccCwMAmf.s:93564  .debug_str:0000000000012e0b .LASF7790
     /tmp/ccCwMAmf.s:95966  .debug_str:000000000001cdb7 .LASF7791
     /tmp/ccCwMAmf.s:104600  .debug_str:000000000003ff71 .LASF7792
     /tmp/ccCwMAmf.s:104606  .debug_str:000000000003ffe3 .LASF7793
     /tmp/ccCwMAmf.s:100036  .debug_str:000000000002d6e7 .LASF7794
     /tmp/ccCwMAmf.s:92272  .debug_str:000000000000e0ee .LASF7795
     /tmp/ccCwMAmf.s:94472  .debug_str:00000000000166f6 .LASF7796
     /tmp/ccCwMAmf.s:95494  .debug_str:000000000001ac97 .LASF7797
     /tmp/ccCwMAmf.s:107050  .debug_str:000000000004a670 .LASF7798
     /tmp/ccCwMAmf.s:96524  .debug_str:000000000001f490 .LASF7799
     /tmp/ccCwMAmf.s:98008  .debug_str:00000000000257a4 .LASF7800
     /tmp/ccCwMAmf.s:106066  .debug_str:0000000000046592 .LASF7801
     /tmp/ccCwMAmf.s:90380  .debug_str:0000000000006219 .LASF7802
     /tmp/ccCwMAmf.s:106728  .debug_str:0000000000049170 .LASF7803
     /tmp/ccCwMAmf.s:93986  .debug_str:0000000000014982 .LASF7804
     /tmp/ccCwMAmf.s:104430  .debug_str:000000000003f4d4 .LASF7805
     /tmp/ccCwMAmf.s:92132  .debug_str:000000000000d968 .LASF7806
     /tmp/ccCwMAmf.s:104174  .debug_str:000000000003e577 .LASF7807
     /tmp/ccCwMAmf.s:103642  .debug_str:000000000003c19c .LASF7808
     /tmp/ccCwMAmf.s:101396  .debug_str:000000000003305e .LASF7809
     /tmp/ccCwMAmf.s:99838  .debug_str:000000000002cb2c .LASF7810
     /tmp/ccCwMAmf.s:103132  .debug_str:0000000000039dc5 .LASF7811
     /tmp/ccCwMAmf.s:90204  .debug_str:00000000000056bc .LASF7812
     /tmp/ccCwMAmf.s:102114  .debug_str:00000000000361cb .LASF7813
     /tmp/ccCwMAmf.s:98920  .debug_str:00000000000291d7 .LASF7814
     /tmp/ccCwMAmf.s:94566  .debug_str:0000000000016dad .LASF7815
     /tmp/ccCwMAmf.s:92804  .debug_str:000000000000ff73 .LASF7816
     /tmp/ccCwMAmf.s:105648  .debug_str:0000000000044ab0 .LASF7817
     /tmp/ccCwMAmf.s:98640  .debug_str:0000000000027def .LASF7818
     /tmp/ccCwMAmf.s:102610  .debug_str:00000000000381a2 .LASF7819
     /tmp/ccCwMAmf.s:107142  .debug_str:000000000004acb8 .LASF7820
     /tmp/ccCwMAmf.s:102942  .debug_str:00000000000393b1 .LASF7821
     /tmp/ccCwMAmf.s:99556  .debug_str:000000000002b9ee .LASF7822
     /tmp/ccCwMAmf.s:90162  .debug_str:0000000000005370 .LASF7823
     /tmp/ccCwMAmf.s:104980  .debug_str:0000000000041d6c .LASF7824
     /tmp/ccCwMAmf.s:105804  .debug_str:000000000004547d .LASF7825
     /tmp/ccCwMAmf.s:107998  .debug_str:000000000004e8bd .LASF7826
     /tmp/ccCwMAmf.s:96526  .debug_str:000000000001f49e .LASF7827
     /tmp/ccCwMAmf.s:98090  .debug_str:0000000000025b9c .LASF7828
     /tmp/ccCwMAmf.s:89306  .debug_str:000000000000192e .LASF7829
     /tmp/ccCwMAmf.s:101640  .debug_str:000000000003408c .LASF7830
     /tmp/ccCwMAmf.s:90210  .debug_str:00000000000056ea .LASF7831
     /tmp/ccCwMAmf.s:89566  .debug_str:0000000000002b86 .LASF7832
     /tmp/ccCwMAmf.s:98254  .debug_str:00000000000264b0 .LASF7833
     /tmp/ccCwMAmf.s:90972  .debug_str:0000000000008aac .LASF7834
     /tmp/ccCwMAmf.s:94928  .debug_str:00000000000185d7 .LASF7835
     /tmp/ccCwMAmf.s:94996  .debug_str:0000000000018963 .LASF7836
     /tmp/ccCwMAmf.s:97756  .debug_str:0000000000024901 .LASF7837
     /tmp/ccCwMAmf.s:98992  .debug_str:000000000002958f .LASF7838
     /tmp/ccCwMAmf.s:89738  .debug_str:000000000000365a .LASF7839
     /tmp/ccCwMAmf.s:95484  .debug_str:000000000001ac11 .LASF7840
     /tmp/ccCwMAmf.s:104378  .debug_str:000000000003f1e0 .LASF7841
     /tmp/ccCwMAmf.s:93640  .debug_str:00000000000133f3 .LASF7842
     /tmp/ccCwMAmf.s:105754  .debug_str:000000000004513a .LASF7843
     /tmp/ccCwMAmf.s:93636  .debug_str:00000000000133c9 .LASF7844
     /tmp/ccCwMAmf.s:105496  .debug_str:000000000004407c .LASF7845
     /tmp/ccCwMAmf.s:100898  .debug_str:0000000000030fec .LASF7846
     /tmp/ccCwMAmf.s:95992  .debug_str:000000000001cf8b .LASF7847
     /tmp/ccCwMAmf.s:101430  .debug_str:0000000000033298 .LASF7848
     /tmp/ccCwMAmf.s:104296  .debug_str:000000000003eca8 .LASF7849
     /tmp/ccCwMAmf.s:102888  .debug_str:0000000000039132 .LASF7850
     /tmp/ccCwMAmf.s:96992  .debug_str:000000000002150e .LASF7851
     /tmp/ccCwMAmf.s:99160  .debug_str:000000000002a0f5 .LASF7852
     /tmp/ccCwMAmf.s:106488  .debug_str:00000000000481ca .LASF7853
     /tmp/ccCwMAmf.s:102688  .debug_str:000000000003862c .LASF7854
     /tmp/ccCwMAmf.s:106498  .debug_str:000000000004826b .LASF7855
     /tmp/ccCwMAmf.s:94108  .debug_str:000000000001500b .LASF7856
     /tmp/ccCwMAmf.s:89108  .debug_str:0000000000000b0d .LASF7857
     /tmp/ccCwMAmf.s:106278  .debug_str:00000000000473ef .LASF7858
     /tmp/ccCwMAmf.s:107432  .debug_str:000000000004c0df .LASF7859
     /tmp/ccCwMAmf.s:104218  .debug_str:000000000003e8b6 .LASF7860
     /tmp/ccCwMAmf.s:104724  .debug_str:00000000000407b3 .LASF7861
     /tmp/ccCwMAmf.s:108136  .debug_str:000000000004f1b5 .LASF7862
     /tmp/ccCwMAmf.s:99606  .debug_str:000000000002bd07 .LASF7863
     /tmp/ccCwMAmf.s:106962  .debug_str:000000000004a0a6 .LASF7864
     /tmp/ccCwMAmf.s:93738  .debug_str:00000000000139f4 .LASF7865
     /tmp/ccCwMAmf.s:90992  .debug_str:0000000000008c10 .LASF7866
     /tmp/ccCwMAmf.s:108270  .debug_str:000000000004fad6 .LASF7867
     /tmp/ccCwMAmf.s:90038  .debug_str:0000000000004bb2 .LASF7868
     /tmp/ccCwMAmf.s:105460  .debug_str:0000000000043e7e .LASF7869
     /tmp/ccCwMAmf.s:94612  .debug_str:000000000001704f .LASF7870
     /tmp/ccCwMAmf.s:96834  .debug_str:0000000000020b05 .LASF7871
     /tmp/ccCwMAmf.s:92228  .debug_str:000000000000de0f .LASF7872
     /tmp/ccCwMAmf.s:91948  .debug_str:000000000000ce02 .LASF7873
     /tmp/ccCwMAmf.s:98410  .debug_str:0000000000026f31 .LASF7874
     /tmp/ccCwMAmf.s:100338  .debug_str:000000000002eb90 .LASF7875
     /tmp/ccCwMAmf.s:94368  .debug_str:0000000000016071 .LASF7876
     /tmp/ccCwMAmf.s:97168  .debug_str:00000000000220f1 .LASF7877
     /tmp/ccCwMAmf.s:99594  .debug_str:000000000002bbd9 .LASF7878
     /tmp/ccCwMAmf.s:91560  .debug_str:000000000000b2bc .LASF7879
     /tmp/ccCwMAmf.s:99076  .debug_str:0000000000029b4e .LASF7880
     /tmp/ccCwMAmf.s:98192  .debug_str:000000000002613d .LASF7881
     /tmp/ccCwMAmf.s:98198  .debug_str:000000000002617d .LASF7882
     /tmp/ccCwMAmf.s:90594  .debug_str:000000000000717c .LASF7883
     /tmp/ccCwMAmf.s:100076  .debug_str:000000000002d9de .LASF7884
     /tmp/ccCwMAmf.s:100060  .debug_str:000000000002d88f .LASF7885
     /tmp/ccCwMAmf.s:104512  .debug_str:000000000003fa6b .LASF7886
     /tmp/ccCwMAmf.s:90068  .debug_str:0000000000004df5 .LASF7887
     /tmp/ccCwMAmf.s:107282  .debug_str:000000000004b6ef .LASF7888
     /tmp/ccCwMAmf.s:106542  .debug_str:000000000004855a .LASF7889
     /tmp/ccCwMAmf.s:106900  .debug_str:0000000000049c74 .LASF7890
     /tmp/ccCwMAmf.s:103350  .debug_str:000000000003acf3 .LASF7891
     /tmp/ccCwMAmf.s:92298  .debug_str:000000000000e242 .LASF7892
     /tmp/ccCwMAmf.s:93930  .debug_str:000000000001457f .LASF7893
     /tmp/ccCwMAmf.s:90280  .debug_str:0000000000005bf6 .LASF7894
     /tmp/ccCwMAmf.s:105264  .debug_str:00000000000430ee .LASF7895
     /tmp/ccCwMAmf.s:99240  .debug_str:000000000002a685 .LASF7896
     /tmp/ccCwMAmf.s:99242  .debug_str:000000000002a693 .LASF7897
     /tmp/ccCwMAmf.s:99244  .debug_str:000000000002a6a1 .LASF7898
     /tmp/ccCwMAmf.s:99246  .debug_str:000000000002a6af .LASF7899
     /tmp/ccCwMAmf.s:99248  .debug_str:000000000002a6bd .LASF7900
     /tmp/ccCwMAmf.s:99250  .debug_str:000000000002a6cb .LASF7901
     /tmp/ccCwMAmf.s:99252  .debug_str:000000000002a6d9 .LASF7902
     /tmp/ccCwMAmf.s:99254  .debug_str:000000000002a6e7 .LASF7903
     /tmp/ccCwMAmf.s:99256  .debug_str:000000000002a6f5 .LASF7904
     /tmp/ccCwMAmf.s:99258  .debug_str:000000000002a703 .LASF7905
     /tmp/ccCwMAmf.s:107194  .debug_str:000000000004b0e9 .LASF7906
     /tmp/ccCwMAmf.s:91578  .debug_str:000000000000b461 .LASF7907
     /tmp/ccCwMAmf.s:102168  .debug_str:0000000000036589 .LASF7908
     /tmp/ccCwMAmf.s:97786  .debug_str:00000000000249de .LASF7909
     /tmp/ccCwMAmf.s:90126  .debug_str:0000000000005181 .LASF7910
     /tmp/ccCwMAmf.s:105422  .debug_str:0000000000043bcc .LASF7911
     /tmp/ccCwMAmf.s:97176  .debug_str:0000000000022186 .LASF7912
     /tmp/ccCwMAmf.s:94446  .debug_str:0000000000016560 .LASF7913
     /tmp/ccCwMAmf.s:105434  .debug_str:0000000000043c54 .LASF7914
     /tmp/ccCwMAmf.s:89998  .debug_str:00000000000048b1 .LASF7915
     /tmp/ccCwMAmf.s:89040  .debug_str:000000000000068e .LASF7916
     /tmp/ccCwMAmf.s:96392  .debug_str:000000000001eb15 .LASF7917
     /tmp/ccCwMAmf.s:92964  .debug_str:00000000000107cd .LASF7918
     /tmp/ccCwMAmf.s:107954  .debug_str:000000000004e5f9 .LASF7919
     /tmp/ccCwMAmf.s:91714  .debug_str:000000000000be22 .LASF7920
     /tmp/ccCwMAmf.s:99294  .debug_str:000000000002a934 .LASF7921
     /tmp/ccCwMAmf.s:102278  .debug_str:0000000000036cc5 .LASF7922
     /tmp/ccCwMAmf.s:105886  .debug_str:0000000000045a54 .LASF7923
     /tmp/ccCwMAmf.s:106348  .debug_str:0000000000047866 .LASF7924
     /tmp/ccCwMAmf.s:95588  .debug_str:000000000001b286 .LASF7925
     /tmp/ccCwMAmf.s:105888  .debug_str:0000000000045a67 .LASF7926
     /tmp/ccCwMAmf.s:100322  .debug_str:000000000002ea7f .LASF7927
     /tmp/ccCwMAmf.s:95030  .debug_str:0000000000018b70 .LASF7928
     /tmp/ccCwMAmf.s:90104  .debug_str:0000000000004fcd .LASF7929
     /tmp/ccCwMAmf.s:106090  .debug_str:0000000000046757 .LASF7930
     /tmp/ccCwMAmf.s:95032  .debug_str:0000000000018b82 .LASF7931
     /tmp/ccCwMAmf.s:102208  .debug_str:0000000000036832 .LASF7932
     /tmp/ccCwMAmf.s:100038  .debug_str:000000000002d6f0 .LASF7933
     /tmp/ccCwMAmf.s:95034  .debug_str:0000000000018b94 .LASF7934
     /tmp/ccCwMAmf.s:90108  .debug_str:000000000000500b .LASF7935
     /tmp/ccCwMAmf.s:93814  .debug_str:0000000000013e8d .LASF7936
     /tmp/ccCwMAmf.s:97378  .debug_str:0000000000022f2a .LASF7937
     /tmp/ccCwMAmf.s:102214  .debug_str:00000000000368a4 .LASF7938
     /tmp/ccCwMAmf.s:107028  .debug_str:000000000004a4b7 .LASF7939
     /tmp/ccCwMAmf.s:93440  .debug_str:00000000000125af .LASF7940
     /tmp/ccCwMAmf.s:107332  .debug_str:000000000004ba57 .LASF7941
     /tmp/ccCwMAmf.s:91386  .debug_str:000000000000a6bc .LASF7942
     /tmp/ccCwMAmf.s:93442  .debug_str:00000000000125c1 .LASF7943
     /tmp/ccCwMAmf.s:107650  .debug_str:000000000004d00c .LASF7944
     /tmp/ccCwMAmf.s:104720  .debug_str:000000000004074b .LASF7945
     /tmp/ccCwMAmf.s:93444  .debug_str:00000000000125d3 .LASF7946
     /tmp/ccCwMAmf.s:107944  .debug_str:000000000004e572 .LASF7947
     /tmp/ccCwMAmf.s:98628  .debug_str:0000000000027d1b .LASF7948
     /tmp/ccCwMAmf.s:94384  .debug_str:000000000001615a .LASF7949
     /tmp/ccCwMAmf.s:89094  .debug_str:0000000000000a1f .LASF7950
     /tmp/ccCwMAmf.s:100106  .debug_str:000000000002dba7 .LASF7951
     /tmp/ccCwMAmf.s:105602  .debug_str:0000000000044732 .LASF7952
     /tmp/ccCwMAmf.s:95364  .debug_str:000000000001a2de .LASF7953
     /tmp/ccCwMAmf.s:100980  .debug_str:00000000000314cc .LASF7954
     /tmp/ccCwMAmf.s:94596  .debug_str:0000000000016f77 .LASF7955
     /tmp/ccCwMAmf.s:105656  .debug_str:0000000000044b56 .LASF7956
     /tmp/ccCwMAmf.s:89592  .debug_str:0000000000002d13 .LASF7957
     /tmp/ccCwMAmf.s:99774  .debug_str:000000000002c717 .LASF7958
     /tmp/ccCwMAmf.s:91048  .debug_str:0000000000008fc5 .LASF7959
     /tmp/ccCwMAmf.s:102252  .debug_str:0000000000036b32 .LASF7960
     /tmp/ccCwMAmf.s:94614  .debug_str:0000000000017063 .LASF7961
     /tmp/ccCwMAmf.s:101110  .debug_str:0000000000031cff .LASF7962
     /tmp/ccCwMAmf.s:98186  .debug_str:00000000000260d6 .LASF7963
     /tmp/ccCwMAmf.s:105190  .debug_str:0000000000042bac .LASF7964
     /tmp/ccCwMAmf.s:89260  .debug_str:000000000000151a .LASF7965
     /tmp/ccCwMAmf.s:107974  .debug_str:000000000004e73d .LASF7966
     /tmp/ccCwMAmf.s:105202  .debug_str:0000000000042cb8 .LASF7967
     /tmp/ccCwMAmf.s:96984  .debug_str:0000000000021461 .LASF7968
     /tmp/ccCwMAmf.s:97602  .debug_str:0000000000023e90 .LASF7969
     /tmp/ccCwMAmf.s:98190  .debug_str:0000000000026131 .LASF7970
     /tmp/ccCwMAmf.s:89892  .debug_str:000000000000412c .LASF7971
     /tmp/ccCwMAmf.s:100508  .debug_str:000000000002f717 .LASF7972
     /tmp/ccCwMAmf.s:105766  .debug_str:000000000004523a .LASF7973
     /tmp/ccCwMAmf.s:107306  .debug_str:000000000004b8ae .LASF7974
     /tmp/ccCwMAmf.s:90988  .debug_str:0000000000008bca .LASF7975
     /tmp/ccCwMAmf.s:91510  .debug_str:000000000000af18 .LASF7976
     /tmp/ccCwMAmf.s:94322  .debug_str:0000000000015dfc .LASF7977
     /tmp/ccCwMAmf.s:102442  .debug_str:000000000003775d .LASF7978
     /tmp/ccCwMAmf.s:98942  .debug_str:0000000000029348 .LASF7979
     /tmp/ccCwMAmf.s:90932  .debug_str:00000000000087f2 .LASF7980
     /tmp/ccCwMAmf.s:96508  .debug_str:000000000001f329 .LASF7981
     /tmp/ccCwMAmf.s:94028  .debug_str:0000000000014ba5 .LASF7982
     /tmp/ccCwMAmf.s:94894  .debug_str:00000000000183b3 .LASF7983
     /tmp/ccCwMAmf.s:106244  .debug_str:000000000004710f .LASF7984
     /tmp/ccCwMAmf.s:89456  .debug_str:00000000000023fb .LASF7985
     /tmp/ccCwMAmf.s:101426  .debug_str:0000000000033256 .LASF7986
     /tmp/ccCwMAmf.s:102614  .debug_str:00000000000381ee .LASF7987
     /tmp/ccCwMAmf.s:101614  .debug_str:0000000000033ee7 .LASF7988
     /tmp/ccCwMAmf.s:89226  .debug_str:00000000000012ce .LASF7989
     /tmp/ccCwMAmf.s:97256  .debug_str:00000000000226ca .LASF7990
     /tmp/ccCwMAmf.s:103092  .debug_str:0000000000039bb8 .LASF7991
     /tmp/ccCwMAmf.s:102534  .debug_str:0000000000037cd9 .LASF7992
     /tmp/ccCwMAmf.s:106604  .debug_str:000000000004890a .LASF7993
     /tmp/ccCwMAmf.s:106454  .debug_str:0000000000047fcf .LASF7994
     /tmp/ccCwMAmf.s:100578  .debug_str:000000000002fb85 .LASF7995
     /tmp/ccCwMAmf.s:95486  .debug_str:000000000001ac1c .LASF7996
     /tmp/ccCwMAmf.s:107068  .debug_str:000000000004a7f1 .LASF7997
     /tmp/ccCwMAmf.s:97338  .debug_str:0000000000022c7c .LASF7998
     /tmp/ccCwMAmf.s:106768  .debug_str:00000000000493ed .LASF7999
     /tmp/ccCwMAmf.s:103464  .debug_str:000000000003b564 .LASF8000
     /tmp/ccCwMAmf.s:100490  .debug_str:000000000002f649 .LASF8001
     /tmp/ccCwMAmf.s:103904  .debug_str:000000000003d26f .LASF8002
     /tmp/ccCwMAmf.s:89580  .debug_str:0000000000002c46 .LASF8003
     /tmp/ccCwMAmf.s:97734  .debug_str:00000000000247b5 .LASF8004
     /tmp/ccCwMAmf.s:98630  .debug_str:0000000000027d41 .LASF8005
     /tmp/ccCwMAmf.s:93580  .debug_str:0000000000012f3c .LASF8006
     /tmp/ccCwMAmf.s:95186  .debug_str:000000000001967a .LASF8007
     /tmp/ccCwMAmf.s:99738  .debug_str:000000000002c524 .LASF8008
     /tmp/ccCwMAmf.s:100866  .debug_str:0000000000030e18 .LASF8009
     /tmp/ccCwMAmf.s:94814  .debug_str:0000000000017eb6 .LASF8010
     /tmp/ccCwMAmf.s:106734  .debug_str:00000000000491b0 .LASF8011
     /tmp/ccCwMAmf.s:98542  .debug_str:000000000002776c .LASF8012
     /tmp/ccCwMAmf.s:93024  .debug_str:0000000000010ae5 .LASF8013
     /tmp/ccCwMAmf.s:94656  .debug_str:0000000000017376 .LASF8014
     /tmp/ccCwMAmf.s:105052  .debug_str:00000000000422bc .LASF8015
     /tmp/ccCwMAmf.s:90050  .debug_str:0000000000004c64 .LASF8016
     /tmp/ccCwMAmf.s:94364  .debug_str:0000000000016002 .LASF8017
     /tmp/ccCwMAmf.s:92026  .debug_str:000000000000d31c .LASF8018
     /tmp/ccCwMAmf.s:107398  .debug_str:000000000004beb3 .LASF8019
     /tmp/ccCwMAmf.s:103278  .debug_str:000000000003a7d2 .LASF8020
     /tmp/ccCwMAmf.s:96716  .debug_str:000000000002026a .LASF8021
     /tmp/ccCwMAmf.s:100612  .debug_str:000000000002fdf9 .LASF8022
     /tmp/ccCwMAmf.s:97608  .debug_str:0000000000023ee8 .LASF8023
     /tmp/ccCwMAmf.s:94306  .debug_str:0000000000015cfe .LASF8024
     /tmp/ccCwMAmf.s:97044  .debug_str:0000000000021885 .LASF8025
     /tmp/ccCwMAmf.s:100210  .debug_str:000000000002e276 .LASF8026
     /tmp/ccCwMAmf.s:89208  .debug_str:00000000000011ae .LASF8027
     /tmp/ccCwMAmf.s:92248  .debug_str:000000000000df7f .LASF8028
     /tmp/ccCwMAmf.s:105862  .debug_str:0000000000045901 .LASF8029
     /tmp/ccCwMAmf.s:95880  .debug_str:000000000001c74f .LASF8030
     /tmp/ccCwMAmf.s:103794  .debug_str:000000000003cbc0 .LASF8031
     /tmp/ccCwMAmf.s:93552  .debug_str:0000000000012d36 .LASF8032
     /tmp/ccCwMAmf.s:101422  .debug_str:000000000003321d .LASF8033
     /tmp/ccCwMAmf.s:90644  .debug_str:00000000000074fe .LASF8034
     /tmp/ccCwMAmf.s:95182  .debug_str:0000000000019644 .LASF8035
     /tmp/ccCwMAmf.s:99622  .debug_str:000000000002be39 .LASF8036
     /tmp/ccCwMAmf.s:102164  .debug_str:0000000000036548 .LASF8037
     /tmp/ccCwMAmf.s:99022  .debug_str:00000000000297f2 .LASF8038
     /tmp/ccCwMAmf.s:105598  .debug_str:0000000000044715 .LASF8039
     /tmp/ccCwMAmf.s:93296  .debug_str:0000000000011c2d .LASF8040
     /tmp/ccCwMAmf.s:100420  .debug_str:000000000002f0db .LASF8041
     /tmp/ccCwMAmf.s:94326  .debug_str:0000000000015e30 .LASF8042
     /tmp/ccCwMAmf.s:105430  .debug_str:0000000000043c3c .LASF8043
     /tmp/ccCwMAmf.s:105044  .debug_str:0000000000042205 .LASF8044
     /tmp/ccCwMAmf.s:99310  .debug_str:000000000002aa5e .LASF8045
     /tmp/ccCwMAmf.s:107260  .debug_str:000000000004b58c .LASF8046
     /tmp/ccCwMAmf.s:94052  .debug_str:0000000000014c75 .LASF8047
     /tmp/ccCwMAmf.s:94770  .debug_str:0000000000017c13 .LASF8048
     /tmp/ccCwMAmf.s:103812  .debug_str:000000000003ccec .LASF8049
     /tmp/ccCwMAmf.s:104318  .debug_str:000000000003edee .LASF8050
     /tmp/ccCwMAmf.s:92866  .debug_str:0000000000010235 .LASF8051
     /tmp/ccCwMAmf.s:102074  .debug_str:0000000000035f22 .LASF8052
     /tmp/ccCwMAmf.s:96230  .debug_str:000000000001dffc .LASF8053
     /tmp/ccCwMAmf.s:100256  .debug_str:000000000002e574 .LASF8054
     /tmp/ccCwMAmf.s:96668  .debug_str:000000000001ff04 .LASF8055
     /tmp/ccCwMAmf.s:105742  .debug_str:0000000000045061 .LASF8056
     /tmp/ccCwMAmf.s:106084  .debug_str:00000000000466ce .LASF8057
     /tmp/ccCwMAmf.s:89200  .debug_str:0000000000001151 .LASF8058
     /tmp/ccCwMAmf.s:107290  .debug_str:000000000004b747 .LASF8059
     /tmp/ccCwMAmf.s:108308  .debug_str:000000000004fd9a .LASF8060
     /tmp/ccCwMAmf.s:97722  .debug_str:00000000000246fc .LASF8061
     /tmp/ccCwMAmf.s:92470  .debug_str:000000000000ebf0 .LASF8062
     /tmp/ccCwMAmf.s:105478  .debug_str:0000000000043f5f .LASF8063
     /tmp/ccCwMAmf.s:92372  .debug_str:000000000000e6f1 .LASF8064
     /tmp/ccCwMAmf.s:88994  .debug_str:000000000000031b .LASF8065
     /tmp/ccCwMAmf.s:105468  .debug_str:0000000000043eeb .LASF8066
     /tmp/ccCwMAmf.s:95118  .debug_str:0000000000019150 .LASF8067
     /tmp/ccCwMAmf.s:93194  .debug_str:00000000000114f4 .LASF8068
     /tmp/ccCwMAmf.s:94694  .debug_str:0000000000017675 .LASF8069
     /tmp/ccCwMAmf.s:97142  .debug_str:0000000000021f6e .LASF8070
     /tmp/ccCwMAmf.s:95058  .debug_str:0000000000018d36 .LASF8071
     /tmp/ccCwMAmf.s:96220  .debug_str:000000000001df2d .LASF8072
     /tmp/ccCwMAmf.s:94402  .debug_str:0000000000016275 .LASF8073
     /tmp/ccCwMAmf.s:99862  .debug_str:000000000002ccc2 .LASF8074
     /tmp/ccCwMAmf.s:98520  .debug_str:0000000000027598 .LASF8075
     /tmp/ccCwMAmf.s:100954  .debug_str:000000000003134c .LASF8076
     /tmp/ccCwMAmf.s:105308  .debug_str:00000000000433df .LASF8077
     /tmp/ccCwMAmf.s:99476  .debug_str:000000000002b535 .LASF8078
     /tmp/ccCwMAmf.s:105818  .debug_str:00000000000455f5 .LASF8079
     /tmp/ccCwMAmf.s:98428  .debug_str:000000000002705c .LASF8080
     /tmp/ccCwMAmf.s:99466  .debug_str:000000000002b4ad .LASF8081
     /tmp/ccCwMAmf.s:105812  .debug_str:000000000004559f .LASF8082
     /tmp/ccCwMAmf.s:102700  .debug_str:0000000000038708 .LASF8083
     /tmp/ccCwMAmf.s:105586  .debug_str:0000000000044641 .LASF8084
     /tmp/ccCwMAmf.s:94864  .debug_str:0000000000018180 .LASF8085
     /tmp/ccCwMAmf.s:96132  .debug_str:000000000001d89c .LASF8086
     /tmp/ccCwMAmf.s:105576  .debug_str:00000000000445e2 .LASF8087
     /tmp/ccCwMAmf.s:92482  .debug_str:000000000000ec74 .LASF8088
     /tmp/ccCwMAmf.s:93704  .debug_str:00000000000137d6 .LASF8089
     /tmp/ccCwMAmf.s:88992  .debug_str:000000000000030a .LASF8090
     /tmp/ccCwMAmf.s:88956  .debug_str:000000000000006f .LASF8091
     /tmp/ccCwMAmf.s:107242  .debug_str:000000000004b44f .LASF8092
     /tmp/ccCwMAmf.s:92176  .debug_str:000000000000dbd3 .LASF8093
     /tmp/ccCwMAmf.s:92140  .debug_str:000000000000d9cc .LASF8094
     /tmp/ccCwMAmf.s:108212  .debug_str:000000000004f704 .LASF8095
     /tmp/ccCwMAmf.s:95730  .debug_str:000000000001bc85 .LASF8096
     /tmp/ccCwMAmf.s:90080  .debug_str:0000000000004e99 .LASF8097
     /tmp/ccCwMAmf.s:94702  .debug_str:0000000000017708 .LASF8098
     /tmp/ccCwMAmf.s:102876  .debug_str:000000000003906e .LASF8099
     /tmp/ccCwMAmf.s:92160  .debug_str:000000000000db31 .LASF8100
     /tmp/ccCwMAmf.s:103408  .debug_str:000000000003b10d .LASF8101
     /tmp/ccCwMAmf.s:92364  .debug_str:000000000000e691 .LASF8102
     /tmp/ccCwMAmf.s:92162  .debug_str:000000000000db3a .LASF8103
     /tmp/ccCwMAmf.s:97172  .debug_str:0000000000022148 .LASF8104
     /tmp/ccCwMAmf.s:102884  .debug_str:00000000000390f8 .LASF8105
     /tmp/ccCwMAmf.s:92166  .debug_str:000000000000db56 .LASF8106
     /tmp/ccCwMAmf.s:104250  .debug_str:000000000003eab2 .LASF8107
     /tmp/ccCwMAmf.s:92234  .debug_str:000000000000de5e .LASF8108
     /tmp/ccCwMAmf.s:91732  .debug_str:000000000000bf46 .LASF8109
     /tmp/ccCwMAmf.s:89266  .debug_str:0000000000001559 .LASF8110
     /tmp/ccCwMAmf.s:102456  .debug_str:000000000003787d .LASF8111
     /tmp/ccCwMAmf.s:89558  .debug_str:0000000000002b14 .LASF8112
     /tmp/ccCwMAmf.s:98394  .debug_str:0000000000026e32 .LASF8113
     /tmp/ccCwMAmf.s:102458  .debug_str:0000000000037895 .LASF8114
     /tmp/ccCwMAmf.s:96932  .debug_str:00000000000210de .LASF8115
     /tmp/ccCwMAmf.s:104696  .debug_str:000000000004056f .LASF8116
     /tmp/ccCwMAmf.s:107718  .debug_str:000000000004d498 .LASF8117
     /tmp/ccCwMAmf.s:94912  .debug_str:00000000000184e1 .LASF8118
     /tmp/ccCwMAmf.s:100720  .debug_str:0000000000030462 .LASF8119
     /tmp/ccCwMAmf.s:107720  .debug_str:000000000004d4b0 .LASF8120
     /tmp/ccCwMAmf.s:94914  .debug_str:00000000000184f9 .LASF8121
     /tmp/ccCwMAmf.s:94514  .debug_str:00000000000169cc .LASF8122
     /tmp/ccCwMAmf.s:94714  .debug_str:00000000000177e5 .LASF8123
     /tmp/ccCwMAmf.s:100310  .debug_str:000000000002e982 .LASF8124
     /tmp/ccCwMAmf.s:93140  .debug_str:000000000001125d .LASF8125
     /tmp/ccCwMAmf.s:93644  .debug_str:0000000000013420 .LASF8126
     /tmp/ccCwMAmf.s:100312  .debug_str:000000000002e99a .LASF8127
     /tmp/ccCwMAmf.s:106410  .debug_str:0000000000047ceb .LASF8128
     /tmp/ccCwMAmf.s:98986  .debug_str:0000000000029537 .LASF8129
     /tmp/ccCwMAmf.s:105544  .debug_str:000000000004437e .LASF8130
     /tmp/ccCwMAmf.s:105258  .debug_str:000000000004307e .LASF8131
     /tmp/ccCwMAmf.s:98988  .debug_str:000000000002954f .LASF8132
     /tmp/ccCwMAmf.s:105546  .debug_str:0000000000044396 .LASF8133
     /tmp/ccCwMAmf.s:99148  .debug_str:000000000002a000 .LASF8134
     /tmp/ccCwMAmf.s:104246  .debug_str:000000000003ea82 .LASF8135
     /tmp/ccCwMAmf.s:100700  .debug_str:0000000000030304 .LASF8136
     /tmp/ccCwMAmf.s:97904  .debug_str:000000000002518a .LASF8137
     /tmp/ccCwMAmf.s:104248  .debug_str:000000000003ea9a .LASF8138
     /tmp/ccCwMAmf.s:91358  .debug_str:000000000000a463 .LASF8139
     /tmp/ccCwMAmf.s:91692  .debug_str:000000000000bc81 .LASF8140
     /tmp/ccCwMAmf.s:90142  .debug_str:0000000000005240 .LASF8141
     /tmp/ccCwMAmf.s:96782  .debug_str:00000000000207ed .LASF8142
     /tmp/ccCwMAmf.s:90410  .debug_str:000000000000642c .LASF8143
     /tmp/ccCwMAmf.s:90144  .debug_str:0000000000005258 .LASF8144
     /tmp/ccCwMAmf.s:96784  .debug_str:0000000000020805 .LASF8145
     /tmp/ccCwMAmf.s:103760  .debug_str:000000000003c992 .LASF8146
     /tmp/ccCwMAmf.s:95512  .debug_str:000000000001adab .LASF8147
     /tmp/ccCwMAmf.s:102130  .debug_str:00000000000362fe .LASF8148
     /tmp/ccCwMAmf.s:99064  .debug_str:0000000000029a55 .LASF8149
     /tmp/ccCwMAmf.s:95514  .debug_str:000000000001adc3 .LASF8150
     /tmp/ccCwMAmf.s:102132  .debug_str:0000000000036316 .LASF8151
     /tmp/ccCwMAmf.s:96386  .debug_str:000000000001ea9f .LASF8152
     /tmp/ccCwMAmf.s:100870  .debug_str:0000000000030e34 .LASF8153
     /tmp/ccCwMAmf.s:107366  .debug_str:000000000004bcbc .LASF8154
     /tmp/ccCwMAmf.s:95230  .debug_str:000000000001999e .LASF8155
     /tmp/ccCwMAmf.s:100872  .debug_str:0000000000030e4c .LASF8156
     /tmp/ccCwMAmf.s:107368  .debug_str:000000000004bcd4 .LASF8157
     /tmp/ccCwMAmf.s:89062  .debug_str:00000000000007d8 .LASF8158
     /tmp/ccCwMAmf.s:106132  .debug_str:00000000000469ab .LASF8159
     /tmp/ccCwMAmf.s:93312  .debug_str:0000000000011d40 .LASF8160
     /tmp/ccCwMAmf.s:107084  .debug_str:000000000004a8ec .LASF8161
     /tmp/ccCwMAmf.s:106134  .debug_str:00000000000469c3 .LASF8162
     /tmp/ccCwMAmf.s:93314  .debug_str:0000000000011d58 .LASF8163
     /tmp/ccCwMAmf.s:101046  .debug_str:000000000003192b .LASF8164
     /tmp/ccCwMAmf.s:91956  .debug_str:000000000000ce38 .LASF8165
     /tmp/ccCwMAmf.s:98654  .debug_str:0000000000027f04 .LASF8166
     /tmp/ccCwMAmf.s:99894  .debug_str:000000000002ce88 .LASF8167
     /tmp/ccCwMAmf.s:91958  .debug_str:000000000000ce50 .LASF8168
     /tmp/ccCwMAmf.s:95624  .debug_str:000000000001b4ee .LASF8169
     /tmp/ccCwMAmf.s:93670  .debug_str:000000000001361e .LASF8170
     /tmp/ccCwMAmf.s:107846  .debug_str:000000000004dea9 .LASF8171
     /tmp/ccCwMAmf.s:93492  .debug_str:00000000000128df .LASF8172
     /tmp/ccCwMAmf.s:95882  .debug_str:000000000001c767 .LASF8173
     /tmp/ccCwMAmf.s:107848  .debug_str:000000000004dec2 .LASF8174
     /tmp/ccCwMAmf.s:93494  .debug_str:00000000000128f8 .LASF8175
     /tmp/ccCwMAmf.s:89698  .debug_str:0000000000003467 .LASF8176
     /tmp/ccCwMAmf.s:93778  .debug_str:0000000000013c69 .LASF8177
     /tmp/ccCwMAmf.s:103400  .debug_str:000000000003b08d .LASF8178
     /tmp/ccCwMAmf.s:107938  .debug_str:000000000004e514 .LASF8179
     /tmp/ccCwMAmf.s:93780  .debug_str:0000000000013c82 .LASF8180
     /tmp/ccCwMAmf.s:98818  .debug_str:0000000000028a53 .LASF8181
     /tmp/ccCwMAmf.s:101884  .debug_str:000000000003515e .LASF8182
     /tmp/ccCwMAmf.s:97122  .debug_str:0000000000021e9c .LASF8183
     /tmp/ccCwMAmf.s:104104  .debug_str:000000000003e0f2 .LASF8184
     /tmp/ccCwMAmf.s:100696  .debug_str:00000000000302ad .LASF8185
     /tmp/ccCwMAmf.s:97124  .debug_str:0000000000021eb5 .LASF8186
     /tmp/ccCwMAmf.s:104106  .debug_str:000000000003e10b .LASF8187
     /tmp/ccCwMAmf.s:94484  .debug_str:000000000001680b .LASF8188
     /tmp/ccCwMAmf.s:107732  .debug_str:000000000004d58c .LASF8189
     /tmp/ccCwMAmf.s:89978  .debug_str:0000000000004750 .LASF8190
     /tmp/ccCwMAmf.s:93106  .debug_str:0000000000010fb1 .LASF8191
     /tmp/ccCwMAmf.s:104388  .debug_str:000000000003f276 .LASF8192
     /tmp/ccCwMAmf.s:89980  .debug_str:0000000000004769 .LASF8193
     /tmp/ccCwMAmf.s:106380  .debug_str:0000000000047abe .LASF8194
     /tmp/ccCwMAmf.s:90282  .debug_str:0000000000005c01 .LASF8195
     /tmp/ccCwMAmf.s:95366  .debug_str:000000000001a2ef .LASF8196
     /tmp/ccCwMAmf.s:105226  .debug_str:0000000000042e71 .LASF8197
     /tmp/ccCwMAmf.s:90284  .debug_str:0000000000005c1a .LASF8198
     /tmp/ccCwMAmf.s:103876  .debug_str:000000000003d0cb .LASF8199
     /tmp/ccCwMAmf.s:99118  .debug_str:0000000000029e03 .LASF8200
     /tmp/ccCwMAmf.s:95666  .debug_str:000000000001b784 .LASF8201
     /tmp/ccCwMAmf.s:100728  .debug_str:00000000000304fd .LASF8202
     /tmp/ccCwMAmf.s:97874  .debug_str:0000000000024fc8 .LASF8203
     /tmp/ccCwMAmf.s:90156  .debug_str:0000000000005329 .LASF8204
     /tmp/ccCwMAmf.s:100730  .debug_str:0000000000030516 .LASF8205
     /tmp/ccCwMAmf.s:91664  .debug_str:000000000000b9ea .LASF8206
     /tmp/ccCwMAmf.s:102212  .debug_str:0000000000036886 .LASF8207
     /tmp/ccCwMAmf.s:94616  .debug_str:000000000001706f .LASF8208
     /tmp/ccCwMAmf.s:100742  .debug_str:0000000000030620 .LASF8209
     /tmp/ccCwMAmf.s:104612  .debug_str:000000000004004b .LASF8210
     /tmp/ccCwMAmf.s:91126  .debug_str:000000000000951b .LASF8211
     /tmp/ccCwMAmf.s:101096  .debug_str:0000000000031c14 .LASF8212
     /tmp/ccCwMAmf.s:101688  .debug_str:0000000000034394 .LASF8213
     /tmp/ccCwMAmf.s:93354  .debug_str:0000000000011fef .LASF8214
     /tmp/ccCwMAmf.s:98794  .debug_str:00000000000288d5 .LASF8215
     /tmp/ccCwMAmf.s:101690  .debug_str:00000000000343a1 .LASF8216
     /tmp/ccCwMAmf.s:91132  .debug_str:000000000000955f .LASF8217
     /tmp/ccCwMAmf.s:102070  .debug_str:0000000000035ee9 .LASF8218
     /tmp/ccCwMAmf.s:100232  .debug_str:000000000002e3f4 .LASF8219
     /tmp/ccCwMAmf.s:90592  .debug_str:0000000000007170 .LASF8220
     /tmp/ccCwMAmf.s:95994  .debug_str:000000000001cf9f .LASF8221
     /tmp/ccCwMAmf.s:104260  .debug_str:000000000003eb0d .LASF8222
     /tmp/ccCwMAmf.s:95744  .debug_str:000000000001bd3a .LASF8223
     /tmp/ccCwMAmf.s:107374  .debug_str:000000000004bd49 .LASF8224
     /tmp/ccCwMAmf.s:93272  .debug_str:0000000000011a84 .LASF8225
     /tmp/ccCwMAmf.s:103542  .debug_str:000000000003ba15 .LASF8226
     /tmp/ccCwMAmf.s:93664  .debug_str:00000000000135b4 .LASF8227
     /tmp/ccCwMAmf.s:106788  .debug_str:0000000000049506 .LASF8228
     /tmp/ccCwMAmf.s:95934  .debug_str:000000000001cb8b .LASF8229
     /tmp/ccCwMAmf.s:89084  .debug_str:0000000000000974 .LASF8230
     /tmp/ccCwMAmf.s:96898  .debug_str:0000000000020e74 .LASF8231
     /tmp/ccCwMAmf.s:101146  .debug_str:0000000000031f36 .LASF8232
     /tmp/ccCwMAmf.s:105920  .debug_str:0000000000045c61 .LASF8233
     /tmp/ccCwMAmf.s:94738  .debug_str:00000000000179ba .LASF8234
     /tmp/ccCwMAmf.s:98982  .debug_str:0000000000029508 .LASF8235
     /tmp/ccCwMAmf.s:103910  .debug_str:000000000003d2ba .LASF8236
     /tmp/ccCwMAmf.s:105374  .debug_str:00000000000438ce .LASF8237
     /tmp/ccCwMAmf.s:101914  .debug_str:000000000003537d .LASF8238
     /tmp/ccCwMAmf.s:102264  .debug_str:0000000000036c02 .LASF8239
     /tmp/ccCwMAmf.s:91612  .debug_str:000000000000b640 .LASF8240
     /tmp/ccCwMAmf.s:103428  .debug_str:000000000003b238 .LASF8241
     /tmp/ccCwMAmf.s:96148  .debug_str:000000000001d9e7 .LASF8242
     /tmp/ccCwMAmf.s:104888  .debug_str:0000000000041538 .LASF8243
     /tmp/ccCwMAmf.s:108002  .debug_str:000000000004e8da .LASF8244
     /tmp/ccCwMAmf.s:104978  .debug_str:0000000000041d47 .LASF8245
     /tmp/ccCwMAmf.s:93910  .debug_str:0000000000014480 .LASF8246
     /tmp/ccCwMAmf.s:99982  .debug_str:000000000002d3b5 .LASF8247
     /tmp/ccCwMAmf.s:99900  .debug_str:000000000002ced0 .LASF8248
     /tmp/ccCwMAmf.s:104372  .debug_str:000000000003f1a5 .LASF8249
     /tmp/ccCwMAmf.s:100226  .debug_str:000000000002e391 .LASF8250
     /tmp/ccCwMAmf.s:101852  .debug_str:0000000000034ed4 .LASF8251
     /tmp/ccCwMAmf.s:89748  .debug_str:0000000000003706 .LASF8252
     /tmp/ccCwMAmf.s:99998  .debug_str:000000000002d4b2 .LASF8253
     /tmp/ccCwMAmf.s:99814  .debug_str:000000000002c976 .LASF8254
     /tmp/ccCwMAmf.s:96322  .debug_str:000000000001e67c .LASF8255
     /tmp/ccCwMAmf.s:99434  .debug_str:000000000002b1d4 .LASF8256
     /tmp/ccCwMAmf.s:89110  .debug_str:0000000000000b1e .LASF8257
     /tmp/ccCwMAmf.s:98228  .debug_str:000000000002635d .LASF8258
     /tmp/ccCwMAmf.s:101652  .debug_str:0000000000034129 .LASF8259
     /tmp/ccCwMAmf.s:98684  .debug_str:00000000000280d3 .LASF8260
     /tmp/ccCwMAmf.s:95574  .debug_str:000000000001b1a9 .LASF8261
     /tmp/ccCwMAmf.s:108310  .debug_str:000000000004fdb0 .LASF8262
     /tmp/ccCwMAmf.s:96760  .debug_str:00000000000205d0 .LASF8263
     /tmp/ccCwMAmf.s:91460  .debug_str:000000000000ab8f .LASF8264
     /tmp/ccCwMAmf.s:101798  .debug_str:0000000000034be4 .LASF8265
     /tmp/ccCwMAmf.s:108314  .debug_str:000000000004fdda .LASF8266
     /tmp/ccCwMAmf.s:91014  .debug_str:0000000000008d2b .LASF8267
     /tmp/ccCwMAmf.s:90778  .debug_str:0000000000007db6 .LASF8268
     /tmp/ccCwMAmf.s:97196  .debug_str:00000000000223c4 .LASF8269
     /tmp/ccCwMAmf.s:106876  .debug_str:0000000000049b56 .LASF8270
     /tmp/ccCwMAmf.s:92628  .debug_str:000000000000f3e5 .LASF8271
     /tmp/ccCwMAmf.s:101060  .debug_str:0000000000031a22 .LASF8272
     /tmp/ccCwMAmf.s:96624  .debug_str:000000000001fb42 .LASF8273
     /tmp/ccCwMAmf.s:90788  .debug_str:0000000000007e4f .LASF8274
     /tmp/ccCwMAmf.s:95314  .debug_str:0000000000019f10 .LASF8275
     /tmp/ccCwMAmf.s:93822  .debug_str:0000000000013f06 .LASF8276
     /tmp/ccCwMAmf.s:107216  .debug_str:000000000004b25e .LASF8277
     /tmp/ccCwMAmf.s:103330  .debug_str:000000000003ab75 .LASF8278
     /tmp/ccCwMAmf.s:108268  .debug_str:000000000004face .LASF8279
     /tmp/ccCwMAmf.s:92222  .debug_str:000000000000ddbe .LASF8280
     /tmp/ccCwMAmf.s:89944  .debug_str:0000000000004551 .LASF8281
     /tmp/ccCwMAmf.s:90026  .debug_str:0000000000004af0 .LASF8282
     /tmp/ccCwMAmf.s:93534  .debug_str:0000000000012be6 .LASF8283
     /tmp/ccCwMAmf.s:106830  .debug_str:00000000000497e5 .LASF8284
     /tmp/ccCwMAmf.s:92790  .debug_str:000000000000fec8 .LASF8285
     /tmp/ccCwMAmf.s:103082  .debug_str:0000000000039b11 .LASF8286
     /tmp/ccCwMAmf.s:94866  .debug_str:000000000001818a .LASF8287
     /tmp/ccCwMAmf.s:92778  .debug_str:000000000000fdad .LASF8288
     /tmp/ccCwMAmf.s:103058  .debug_str:0000000000039a34 .LASF8289
     /tmp/ccCwMAmf.s:97138  .debug_str:0000000000021f3e .LASF8290
     /tmp/ccCwMAmf.s:102630  .debug_str:0000000000038347 .LASF8291
     /tmp/ccCwMAmf.s:106012  .debug_str:00000000000462b6 .LASF8292
     /tmp/ccCwMAmf.s:96076  .debug_str:000000000001d4b3 .LASF8293
     /tmp/ccCwMAmf.s:89106  .debug_str:0000000000000b05 .LASF8294
     /tmp/ccCwMAmf.s:108000  .debug_str:000000000004e8d2 .LASF8295
     /tmp/ccCwMAmf.s:103106  .debug_str:0000000000039c78 .LASF8296
     /tmp/ccCwMAmf.s:96844  .debug_str:0000000000020ba6 .LASF8297
     /tmp/ccCwMAmf.s:93698  .debug_str:0000000000013768 .LASF8298
     /tmp/ccCwMAmf.s:100690  .debug_str:000000000003026b .LASF8299
     /tmp/ccCwMAmf.s:93226  .debug_str:00000000000116ff .LASF8300
     /tmp/ccCwMAmf.s:103482  .debug_str:000000000003b64b .LASF8301
     /tmp/ccCwMAmf.s:100566  .debug_str:000000000002fab1 .LASF8302
     /tmp/ccCwMAmf.s:97426  .debug_str:0000000000023237 .LASF8303
     /tmp/ccCwMAmf.s:100930  .debug_str:0000000000031204 .LASF8304
     /tmp/ccCwMAmf.s:90348  .debug_str:0000000000005fef .LASF8305
     /tmp/ccCwMAmf.s:106360  .debug_str:000000000004794a .LASF8306
     /tmp/ccCwMAmf.s:91712  .debug_str:000000000000be19 .LASF8307
     /tmp/ccCwMAmf.s:101892  .debug_str:000000000003520b .LASF8308
     /tmp/ccCwMAmf.s:93308  .debug_str:0000000000011d2d .LASF8309
     /tmp/ccCwMAmf.s:102678  .debug_str:0000000000038578 .LASF8310
     /tmp/ccCwMAmf.s:89164  .debug_str:0000000000000eb2 .LASF8311
     /tmp/ccCwMAmf.s:102750  .debug_str:0000000000038946 .LASF8312
     /tmp/ccCwMAmf.s:106114  .debug_str:000000000004688f .LASF8313
     /tmp/ccCwMAmf.s:106464  .debug_str:000000000004806d .LASF8314
     /tmp/ccCwMAmf.s:91548  .debug_str:000000000000b23c .LASF8315
     /tmp/ccCwMAmf.s:101878  .debug_str:0000000000035105 .LASF8316
     /tmp/ccCwMAmf.s:97028  .debug_str:0000000000021788 .LASF8317
     /tmp/ccCwMAmf.s:96284  .debug_str:000000000001e3d0 .LASF8318
     /tmp/ccCwMAmf.s:105870  .debug_str:000000000004597c .LASF8319
     /tmp/ccCwMAmf.s:89138  .debug_str:0000000000000cc1 .LASF8320
     /tmp/ccCwMAmf.s:98146  .debug_str:0000000000025dce .LASF8321
     /tmp/ccCwMAmf.s:103394  .debug_str:000000000003b008 .LASF8322
     /tmp/ccCwMAmf.s:107770  .debug_str:000000000004d8ba .LASF8323
     /tmp/ccCwMAmf.s:102948  .debug_str:000000000003940a .LASF8324
     /tmp/ccCwMAmf.s:95800  .debug_str:000000000001c14e .LASF8325
     /tmp/ccCwMAmf.s:96394  .debug_str:000000000001eb34 .LASF8326
     /tmp/ccCwMAmf.s:103520  .debug_str:000000000003b88b .LASF8327
     /tmp/ccCwMAmf.s:104718  .debug_str:0000000000040739 .LASF8328
     /tmp/ccCwMAmf.s:97798  .debug_str:0000000000024b7e .LASF8329
     /tmp/ccCwMAmf.s:91788  .debug_str:000000000000c2b6 .LASF8330
     /tmp/ccCwMAmf.s:101214  .debug_str:00000000000324a9 .LASF8331
     /tmp/ccCwMAmf.s:98538  .debug_str:000000000002771a .LASF8332
     /tmp/ccCwMAmf.s:96680  .debug_str:000000000001fffb .LASF8333
     /tmp/ccCwMAmf.s:99440  .debug_str:000000000002b240 .LASF8334
     /tmp/ccCwMAmf.s:99716  .debug_str:000000000002c3c6 .LASF8335
     /tmp/ccCwMAmf.s:107492  .debug_str:000000000004c502 .LASF8336
     /tmp/ccCwMAmf.s:103494  .debug_str:000000000003b723 .LASF8337
     /tmp/ccCwMAmf.s:104678  .debug_str:0000000000040440 .LASF8338
     /tmp/ccCwMAmf.s:96438  .debug_str:000000000001ede8 .LASF8339
     /tmp/ccCwMAmf.s:104908  .debug_str:000000000004164b .LASF8340
     /tmp/ccCwMAmf.s:97704  .debug_str:00000000000245c8 .LASF8341
     /tmp/ccCwMAmf.s:92362  .debug_str:000000000000e67f .LASF8342
     /tmp/ccCwMAmf.s:105688  .debug_str:0000000000044d65 .LASF8343
     /tmp/ccCwMAmf.s:90722  .debug_str:00000000000079e3 .LASF8344
     /tmp/ccCwMAmf.s:102344  .debug_str:000000000003713e .LASF8345
     /tmp/ccCwMAmf.s:105756  .debug_str:0000000000045151 .LASF8346
     /tmp/ccCwMAmf.s:102186  .debug_str:0000000000036680 .LASF8347
     /tmp/ccCwMAmf.s:91470  .debug_str:000000000000abf6 .LASF8348
     /tmp/ccCwMAmf.s:101806  .debug_str:0000000000034c55 .LASF8349
     /tmp/ccCwMAmf.s:97980  .debug_str:000000000002557b .LASF8350
     /tmp/ccCwMAmf.s:91630  .debug_str:000000000000b7e2 .LASF8351
     /tmp/ccCwMAmf.s:101966  .debug_str:00000000000357b6 .LASF8352
     /tmp/ccCwMAmf.s:95814  .debug_str:000000000001c20b .LASF8353
     /tmp/ccCwMAmf.s:94794  .debug_str:0000000000017da9 .LASF8354
     /tmp/ccCwMAmf.s:94598  .debug_str:0000000000016f8d .LASF8355
     /tmp/ccCwMAmf.s:98374  .debug_str:0000000000026cf7 .LASF8356
     /tmp/ccCwMAmf.s:90212  .debug_str:00000000000056fd .LASF8357
     /tmp/ccCwMAmf.s:90782  .debug_str:0000000000007dde .LASF8358
     /tmp/ccCwMAmf.s:97614  .debug_str:0000000000023f36 .LASF8359
     /tmp/ccCwMAmf.s:102064  .debug_str:0000000000035e9d .LASF8360
     /tmp/ccCwMAmf.s:89214  .debug_str:0000000000001224 .LASF8361
     /tmp/ccCwMAmf.s:104892  .debug_str:000000000004154f .LASF8362
     /tmp/ccCwMAmf.s:103138  .debug_str:0000000000039e29 .LASF8363
     /tmp/ccCwMAmf.s:90024  .debug_str:0000000000004ae4 .LASF8364
     /tmp/ccCwMAmf.s:99642  .debug_str:000000000002bfb5 .LASF8365
     /tmp/ccCwMAmf.s:101062  .debug_str:0000000000031a46 .LASF8366
     /tmp/ccCwMAmf.s:98272  .debug_str:00000000000265ce .LASF8367
     /tmp/ccCwMAmf.s:95256  .debug_str:0000000000019b73 .LASF8368
     /tmp/ccCwMAmf.s:96010  .debug_str:000000000001d053 .LASF8369
     /tmp/ccCwMAmf.s:102694  .debug_str:0000000000038676 .LASF8370
     /tmp/ccCwMAmf.s:105792  .debug_str:00000000000453d3 .LASF8371
     /tmp/ccCwMAmf.s:101638  .debug_str:000000000003407c .LASF8372
     /tmp/ccCwMAmf.s:108174  .debug_str:000000000004f462 .LASF8373
     /tmp/ccCwMAmf.s:97894  .debug_str:000000000002510d .LASF8374
     /tmp/ccCwMAmf.s:94590  .debug_str:0000000000016f20 .LASF8375
     /tmp/ccCwMAmf.s:96888  .debug_str:0000000000020ddd .LASF8376
     /tmp/ccCwMAmf.s:102510  .debug_str:0000000000037b38 .LASF8377
     /tmp/ccCwMAmf.s:99270  .debug_str:000000000002a7d5 .LASF8378
     /tmp/ccCwMAmf.s:106096  .debug_str:00000000000467da .LASF8379
     /tmp/ccCwMAmf.s:100402  .debug_str:000000000002ef30 .LASF8380
     /tmp/ccCwMAmf.s:99272  .debug_str:000000000002a7e8 .LASF8381
     /tmp/ccCwMAmf.s:106098  .debug_str:00000000000467ed .LASF8382
     /tmp/ccCwMAmf.s:95848  .debug_str:000000000001c557 .LASF8383
     /tmp/ccCwMAmf.s:99274  .debug_str:000000000002a7fb .LASF8384
     /tmp/ccCwMAmf.s:98618  .debug_str:0000000000027ca0 .LASF8385
     /tmp/ccCwMAmf.s:107400  .debug_str:000000000004bec0 .LASF8386
     /tmp/ccCwMAmf.s:98682  .debug_str:00000000000280c0 .LASF8387
     /tmp/ccCwMAmf.s:106102  .debug_str:000000000004680d .LASF8388
     /tmp/ccCwMAmf.s:101364  .debug_str:0000000000032e2f .LASF8389
     /tmp/ccCwMAmf.s:99278  .debug_str:000000000002a82f .LASF8390
     /tmp/ccCwMAmf.s:106104  .debug_str:0000000000046820 .LASF8391
     /tmp/ccCwMAmf.s:95154  .debug_str:0000000000019439 .LASF8392
     /tmp/ccCwMAmf.s:99280  .debug_str:000000000002a842 .LASF8393
     /tmp/ccCwMAmf.s:106106  .debug_str:0000000000046833 .LASF8394
     /tmp/ccCwMAmf.s:88984  .debug_str:000000000000027c .LASF8395
     /tmp/ccCwMAmf.s:99282  .debug_str:000000000002a855 .LASF8396
     /tmp/ccCwMAmf.s:106108  .debug_str:0000000000046846 .LASF8397
     /tmp/ccCwMAmf.s:102306  .debug_str:0000000000036e55 .LASF8398
     /tmp/ccCwMAmf.s:99284  .debug_str:000000000002a868 .LASF8399
     /tmp/ccCwMAmf.s:106110  .debug_str:0000000000046859 .LASF8400
     /tmp/ccCwMAmf.s:96134  .debug_str:000000000001d8ba .LASF8401
     /tmp/ccCwMAmf.s:99530  .debug_str:000000000002b8e5 .LASF8402
     /tmp/ccCwMAmf.s:96368  .debug_str:000000000001e9e4 .LASF8403
     /tmp/ccCwMAmf.s:102310  .debug_str:0000000000036e9d .LASF8404
     /tmp/ccCwMAmf.s:105770  .debug_str:0000000000045266 .LASF8405
     /tmp/ccCwMAmf.s:96370  .debug_str:000000000001e9f7 .LASF8406
     /tmp/ccCwMAmf.s:100222  .debug_str:000000000002e334 .LASF8407
     /tmp/ccCwMAmf.s:89468  .debug_str:00000000000024d1 .LASF8408
     /tmp/ccCwMAmf.s:96372  .debug_str:000000000001ea0a .LASF8409
     /tmp/ccCwMAmf.s:94002  .debug_str:0000000000014a58 .LASF8410
     /tmp/ccCwMAmf.s:89470  .debug_str:00000000000024e4 .LASF8411
     /tmp/ccCwMAmf.s:96374  .debug_str:000000000001ea1d .LASF8412
     /tmp/ccCwMAmf.s:107208  .debug_str:000000000004b1e5 .LASF8413
     /tmp/ccCwMAmf.s:89472  .debug_str:00000000000024f7 .LASF8414
     /tmp/ccCwMAmf.s:96376  .debug_str:000000000001ea30 .LASF8415
     /tmp/ccCwMAmf.s:95868  .debug_str:000000000001c66a .LASF8416
     /tmp/ccCwMAmf.s:89474  .debug_str:000000000000250a .LASF8417
     /tmp/ccCwMAmf.s:96378  .debug_str:000000000001ea43 .LASF8418
     /tmp/ccCwMAmf.s:95262  .debug_str:0000000000019be9 .LASF8419
     /tmp/ccCwMAmf.s:89476  .debug_str:000000000000251d .LASF8420
     /tmp/ccCwMAmf.s:96380  .debug_str:000000000001ea56 .LASF8421
     /tmp/ccCwMAmf.s:108198  .debug_str:000000000004f61c .LASF8422
     /tmp/ccCwMAmf.s:105788  .debug_str:00000000000453a4 .LASF8423
     /tmp/ccCwMAmf.s:96382  .debug_str:000000000001ea69 .LASF8424
     /tmp/ccCwMAmf.s:102120  .debug_str:0000000000036214 .LASF8425
     /tmp/ccCwMAmf.s:107122  .debug_str:000000000004ab6e .LASF8426
     /tmp/ccCwMAmf.s:99186  .debug_str:000000000002a2f8 .LASF8427
     /tmp/ccCwMAmf.s:107238  .debug_str:000000000004b403 .LASF8428
     /tmp/ccCwMAmf.s:97292  .debug_str:0000000000022949 .LASF8429
     /tmp/ccCwMAmf.s:89236  .debug_str:0000000000001374 .LASF8430
     /tmp/ccCwMAmf.s:93830  .debug_str:0000000000013f52 .LASF8431
     /tmp/ccCwMAmf.s:96108  .debug_str:000000000001d6de .LASF8432
     /tmp/ccCwMAmf.s:101274  .debug_str:00000000000328b6 .LASF8433
     /tmp/ccCwMAmf.s:100146  .debug_str:000000000002de46 .LASF8434
     /tmp/ccCwMAmf.s:97816  .debug_str:0000000000024ca0 .LASF8435
     /tmp/ccCwMAmf.s:103234  .debug_str:000000000003a496 .LASF8436
     /tmp/ccCwMAmf.s:107592  .debug_str:000000000004cc49 .LASF8437
     /tmp/ccCwMAmf.s:98136  .debug_str:0000000000025d75 .LASF8438
     /tmp/ccCwMAmf.s:95036  .debug_str:0000000000018ba6 .LASF8439
     /tmp/ccCwMAmf.s:90854  .debug_str:000000000000823e .LASF8440
     /tmp/ccCwMAmf.s:101840  .debug_str:0000000000034e0d .LASF8441
     /tmp/ccCwMAmf.s:108128  .debug_str:000000000004f126 .LASF8442
     /tmp/ccCwMAmf.s:91242  .debug_str:0000000000009d5b .LASF8443
     /tmp/ccCwMAmf.s:102398  .debug_str:000000000003745a .LASF8444
     /tmp/ccCwMAmf.s:101208  .debug_str:0000000000032428 .LASF8445
     /tmp/ccCwMAmf.s:90312  .debug_str:0000000000005d8c .LASF8446
     /tmp/ccCwMAmf.s:104354  .debug_str:000000000003f057 .LASF8447
     /tmp/ccCwMAmf.s:100498  .debug_str:000000000002f695 .LASF8448
     /tmp/ccCwMAmf.s:93342  .debug_str:0000000000011eec .LASF8449
     /tmp/ccCwMAmf.s:102110  .debug_str:00000000000361ae .LASF8450
     /tmp/ccCwMAmf.s:105510  .debug_str:000000000004413a .LASF8451
     /tmp/ccCwMAmf.s:96184  .debug_str:000000000001dcda .LASF8452
     /tmp/ccCwMAmf.s:107430  .debug_str:000000000004c0d8 .LASF8453
     /tmp/ccCwMAmf.s:103544  .debug_str:000000000003ba30 .LASF8454
     /tmp/ccCwMAmf.s:90110  .debug_str:000000000000501d .LASF8455
     /tmp/ccCwMAmf.s:105738  .debug_str:0000000000045048 .LASF8456
     /tmp/ccCwMAmf.s:90130  .debug_str:00000000000051a7 .LASF8457
     /tmp/ccCwMAmf.s:105286  .debug_str:00000000000432ca .LASF8458
     /tmp/ccCwMAmf.s:102492  .debug_str:00000000000379ed .LASF8459
     /tmp/ccCwMAmf.s:105904  .debug_str:0000000000045b68 .LASF8460
     /tmp/ccCwMAmf.s:99684  .debug_str:000000000002c241 .LASF8461
     /tmp/ccCwMAmf.s:93488  .debug_str:00000000000128a9 .LASF8462
     /tmp/ccCwMAmf.s:106320  .debug_str:000000000004768a .LASF8463
     /tmp/ccCwMAmf.s:97460  .debug_str:000000000002347b .LASF8464
     /tmp/ccCwMAmf.s:92946  .debug_str:00000000000106a1 .LASF8465
     /tmp/ccCwMAmf.s:91678  .debug_str:000000000000bb2b .LASF8466
     /tmp/ccCwMAmf.s:106836  .debug_str:0000000000049833 .LASF8467
     /tmp/ccCwMAmf.s:107610  .debug_str:000000000004cdaf .LASF8468
     /tmp/ccCwMAmf.s:91328  .debug_str:000000000000a308 .LASF8469
     /tmp/ccCwMAmf.s:92114  .debug_str:000000000000d82c .LASF8470
     /tmp/ccCwMAmf.s:97012  .debug_str:00000000000216a3 .LASF8471
     /tmp/ccCwMAmf.s:96800  .debug_str:00000000000208d2 .LASF8472
     /tmp/ccCwMAmf.s:105088  .debug_str:0000000000042594 .LASF8473
     /tmp/ccCwMAmf.s:92270  .debug_str:000000000000e0e3 .LASF8474
     /tmp/ccCwMAmf.s:106476  .debug_str:000000000004814e .LASF8475
     /tmp/ccCwMAmf.s:89100  .debug_str:0000000000000ab6 .LASF8476
     /tmp/ccCwMAmf.s:91424  .debug_str:000000000000a948 .LASF8477
     /tmp/ccCwMAmf.s:90602  .debug_str:0000000000007233 .LASF8478
     /tmp/ccCwMAmf.s:104304  .debug_str:000000000003ed16 .LASF8479
     /tmp/ccCwMAmf.s:98574  .debug_str:000000000002797c .LASF8480
     /tmp/ccCwMAmf.s:90082  .debug_str:0000000000004ea7 .LASF8481
     /tmp/ccCwMAmf.s:106340  .debug_str:00000000000477d1 .LASF8482
     /tmp/ccCwMAmf.s:95424  .debug_str:000000000001a70b .LASF8483
     /tmp/ccCwMAmf.s:98876  .debug_str:0000000000028e77 .LASF8484
     /tmp/ccCwMAmf.s:96496  .debug_str:000000000001f24d .LASF8485
     /tmp/ccCwMAmf.s:89082  .debug_str:0000000000000964 .LASF8486
     /tmp/ccCwMAmf.s:89848  .debug_str:0000000000003dfd .LASF8487
     /tmp/ccCwMAmf.s:99372  .debug_str:000000000002aea2 .LASF8488
     /tmp/ccCwMAmf.s:106536  .debug_str:0000000000048504 .LASF8489
     /tmp/ccCwMAmf.s:97912  .debug_str:0000000000025219 .LASF8490
     /tmp/ccCwMAmf.s:89606  .debug_str:0000000000002dd9 .LASF8491
     /tmp/ccCwMAmf.s:93410  .debug_str:00000000000123d2 .LASF8492
     /tmp/ccCwMAmf.s:100280  .debug_str:000000000002e776 .LASF8493
     /tmp/ccCwMAmf.s:95354  .debug_str:000000000001a21f .LASF8494
     /tmp/ccCwMAmf.s:94288  .debug_str:0000000000015c2c .LASF8495
     /tmp/ccCwMAmf.s:103502  .debug_str:000000000003b793 .LASF8496
     /tmp/ccCwMAmf.s:107254  .debug_str:000000000004b547 .LASF8497
     /tmp/ccCwMAmf.s:98140  .debug_str:0000000000025d84 .LASF8498
     /tmp/ccCwMAmf.s:92012  .debug_str:000000000000d21a .LASF8499
     /tmp/ccCwMAmf.s:101464  .debug_str:000000000003353d .LASF8500
     /tmp/ccCwMAmf.s:99416  .debug_str:000000000002b127 .LASF8501
     /tmp/ccCwMAmf.s:99852  .debug_str:000000000002cc36 .LASF8502
     /tmp/ccCwMAmf.s:104038  .debug_str:000000000003dc24 .LASF8503
     /tmp/ccCwMAmf.s:102394  .debug_str:0000000000037423 .LASF8504
     /tmp/ccCwMAmf.s:97930  .debug_str:0000000000025325 .LASF8505
     /tmp/ccCwMAmf.s:98500  .debug_str:0000000000027454 .LASF8506
     /tmp/ccCwMAmf.s:100822  .debug_str:0000000000030b68 .LASF8507
     /tmp/ccCwMAmf.s:91300  .debug_str:000000000000a0de .LASF8508
     /tmp/ccCwMAmf.s:102892  .debug_str:0000000000039159 .LASF8509
     /tmp/ccCwMAmf.s:93840  .debug_str:0000000000013ff3 .LASF8510
     /tmp/ccCwMAmf.s:94148  .debug_str:00000000000152e1 .LASF8511
     /tmp/ccCwMAmf.s:95974  .debug_str:000000000001ce20 .LASF8512
     /tmp/ccCwMAmf.s:95488  .debug_str:000000000001ac46 .LASF8513
     /tmp/ccCwMAmf.s:95810  .debug_str:000000000001c1d2 .LASF8514
     /tmp/ccCwMAmf.s:90696  .debug_str:000000000000785e .LASF8515
     /tmp/ccCwMAmf.s:92796  .debug_str:000000000000ff08 .LASF8516
     /tmp/ccCwMAmf.s:100544  .debug_str:000000000002f978 .LASF8517
     /tmp/ccCwMAmf.s:93318  .debug_str:0000000000011d97 .LASF8518
     /tmp/ccCwMAmf.s:94442  .debug_str:0000000000016543 .LASF8519
     /tmp/ccCwMAmf.s:96862  .debug_str:0000000000020c5b .LASF8520
     /tmp/ccCwMAmf.s:93816  .debug_str:0000000000013eb3 .LASF8521
     /tmp/ccCwMAmf.s:90934  .debug_str:00000000000087fd .LASF8522
     /tmp/ccCwMAmf.s:99432  .debug_str:000000000002b1c6 .LASF8523
     /tmp/ccCwMAmf.s:101188  .debug_str:0000000000032243 .LASF8524
     /tmp/ccCwMAmf.s:108318  .debug_str:000000000004fe2d .LASF8525
     /tmp/ccCwMAmf.s:89736  .debug_str:000000000000364c .LASF8526
     /tmp/ccCwMAmf.s:98850  .debug_str:0000000000028c8a .LASF8527
     /tmp/ccCwMAmf.s:107730  .debug_str:000000000004d57f .LASF8528
     /tmp/ccCwMAmf.s:90528  .debug_str:0000000000006c31 .LASF8529
     /tmp/ccCwMAmf.s:98748  .debug_str:0000000000028513 .LASF8530
     /tmp/ccCwMAmf.s:91804  .debug_str:000000000000c3b1 .LASF8531
     /tmp/ccCwMAmf.s:101762  .debug_str:0000000000034896 .LASF8532
     /tmp/ccCwMAmf.s:100104  .debug_str:000000000002db83 .LASF8533
     /tmp/ccCwMAmf.s:96590  .debug_str:000000000001f95a .LASF8534
     /tmp/ccCwMAmf.s:106330  .debug_str:000000000004770b .LASF8535
     /tmp/ccCwMAmf.s:99820  .debug_str:000000000002ca16 .LASF8536
     /tmp/ccCwMAmf.s:107394  .debug_str:000000000004be8e .LASF8537
     /tmp/ccCwMAmf.s:100850  .debug_str:0000000000030d15 .LASF8538
     /tmp/ccCwMAmf.s:94880  .debug_str:00000000000182bf .LASF8539
     /tmp/ccCwMAmf.s:92994  .debug_str:0000000000010999 .LASF8540
     /tmp/ccCwMAmf.s:96702  .debug_str:0000000000020166 .LASF8541
     /tmp/ccCwMAmf.s:103638  .debug_str:000000000003c13f .LASF8542
     /tmp/ccCwMAmf.s:96174  .debug_str:000000000001dc2e .LASF8543
     /tmp/ccCwMAmf.s:91792  .debug_str:000000000000c2e6 .LASF8544
     /tmp/ccCwMAmf.s:90660  .debug_str:000000000000758c .LASF8545
     /tmp/ccCwMAmf.s:105124  .debug_str:0000000000042831 .LASF8546
     /tmp/ccCwMAmf.s:98112  .debug_str:0000000000025d03 .LASF8547
     /tmp/ccCwMAmf.s:89874  .debug_str:0000000000003fd4 .LASF8548
     /tmp/ccCwMAmf.s:95310  .debug_str:0000000000019ed3 .LASF8549
     /tmp/ccCwMAmf.s:107832  .debug_str:000000000004dd96 .LASF8550
     /tmp/ccCwMAmf.s:89764  .debug_str:000000000000385c .LASF8551
     /tmp/ccCwMAmf.s:99540  .debug_str:000000000002b963 .LASF8552
     /tmp/ccCwMAmf.s:92560  .debug_str:000000000000efd0 .LASF8553
     /tmp/ccCwMAmf.s:101030  .debug_str:0000000000031882 .LASF8554
     /tmp/ccCwMAmf.s:102368  .debug_str:00000000000372ad .LASF8555
     /tmp/ccCwMAmf.s:105776  .debug_str:00000000000452aa .LASF8556
     /tmp/ccCwMAmf.s:94822  .debug_str:0000000000017f13 .LASF8557
     /tmp/ccCwMAmf.s:102376  .debug_str:000000000003732d .LASF8558
     /tmp/ccCwMAmf.s:105784  .debug_str:0000000000045369 .LASF8559
     /tmp/ccCwMAmf.s:105972  .debug_str:0000000000046015 .LASF8560
     /tmp/ccCwMAmf.s:104586  .debug_str:000000000003fe91 .LASF8561
     /tmp/ccCwMAmf.s:100926  .debug_str:00000000000311af .LASF8562
     /tmp/ccCwMAmf.s:99038  .debug_str:00000000000298e5 .LASF8563
     /tmp/ccCwMAmf.s:107258  .debug_str:000000000004b585 .LASF8564
     /tmp/ccCwMAmf.s:103478  .debug_str:000000000003b62d .LASF8565
     /tmp/ccCwMAmf.s:98560  .debug_str:000000000002789c .LASF8566
     /tmp/ccCwMAmf.s:100808  .debug_str:0000000000030aa5 .LASF8567
     /tmp/ccCwMAmf.s:101234  .debug_str:00000000000325ff .LASF8568
     /tmp/ccCwMAmf.s:100126  .debug_str:000000000002dd0a .LASF8569
     /tmp/ccCwMAmf.s:107300  .debug_str:000000000004b84b .LASF8570
     /tmp/ccCwMAmf.s:106786  .debug_str:00000000000494f2 .LASF8571
     /tmp/ccCwMAmf.s:105580  .debug_str:00000000000445f2 .LASF8572
     /tmp/ccCwMAmf.s:107772  .debug_str:000000000004d8e1 .LASF8573
     /tmp/ccCwMAmf.s:103026  .debug_str:00000000000397c5 .LASF8574
     /tmp/ccCwMAmf.s:102524  .debug_str:0000000000037c08 .LASF8575
     /tmp/ccCwMAmf.s:93170  .debug_str:000000000001143f .LASF8576
     /tmp/ccCwMAmf.s:98086  .debug_str:0000000000025b7a .LASF8577
     /tmp/ccCwMAmf.s:89596  .debug_str:0000000000002d58 .LASF8578
     /tmp/ccCwMAmf.s:92378  .debug_str:000000000000e70f .LASF8579
     /tmp/ccCwMAmf.s:95260  .debug_str:0000000000019bd0 .LASF8580
     /tmp/ccCwMAmf.s:97506  .debug_str:0000000000023869 .LASF8581
     /tmp/ccCwMAmf.s:103984  .debug_str:000000000003d7db .LASF8582
     /tmp/ccCwMAmf.s:98480  .debug_str:00000000000272d5 .LASF8583
     /tmp/ccCwMAmf.s:105942  .debug_str:0000000000045dee .LASF8584
     /tmp/ccCwMAmf.s:107420  .debug_str:000000000004c023 .LASF8585
     /tmp/ccCwMAmf.s:101964  .debug_str:000000000003579f .LASF8586
     /tmp/ccCwMAmf.s:94188  .debug_str:0000000000015548 .LASF8587
     /tmp/ccCwMAmf.s:104274  .debug_str:000000000003eb8d .LASF8588
     /tmp/ccCwMAmf.s:98812  .debug_str:0000000000028a20 .LASF8589
     /tmp/ccCwMAmf.s:98890  .debug_str:0000000000028f88 .LASF8590
     /tmp/ccCwMAmf.s:92478  .debug_str:000000000000ec58 .LASF8591
     /tmp/ccCwMAmf.s:99200  .debug_str:000000000002a3d0 .LASF8592
     /tmp/ccCwMAmf.s:107914  .debug_str:000000000004e342 .LASF8593
     /tmp/ccCwMAmf.s:94174  .debug_str:0000000000015465 .LASF8594
     /tmp/ccCwMAmf.s:94132  .debug_str:000000000001519c .LASF8595
     /tmp/ccCwMAmf.s:97414  .debug_str:0000000000023123 .LASF8596
     /tmp/ccCwMAmf.s:91006  .debug_str:0000000000008cb6 .LASF8597
     /tmp/ccCwMAmf.s:95390  .debug_str:000000000001a508 .LASF8598
     /tmp/ccCwMAmf.s:95938  .debug_str:000000000001cbb3 .LASF8599
     /tmp/ccCwMAmf.s:107990  .debug_str:000000000004e878 .LASF8600
     /tmp/ccCwMAmf.s:91308  .debug_str:000000000000a15b .LASF8601
     /tmp/ccCwMAmf.s:105708  .debug_str:0000000000044eb3 .LASF8602
     /tmp/ccCwMAmf.s:95098  .debug_str:0000000000019045 .LASF8603
     /tmp/ccCwMAmf.s:105672  .debug_str:0000000000044c84 .LASF8604
     /tmp/ccCwMAmf.s:106678  .debug_str:0000000000048e18 .LASF8605
     /tmp/ccCwMAmf.s:100652  .debug_str:000000000003001c .LASF8606
     /tmp/ccCwMAmf.s:93786  .debug_str:0000000000013cb1 .LASF8607
     /tmp/ccCwMAmf.s:91446  .debug_str:000000000000aa74 .LASF8608
     /tmp/ccCwMAmf.s:93708  .debug_str:000000000001380f .LASF8609
     /tmp/ccCwMAmf.s:105142  .debug_str:0000000000042974 .LASF8610
     /tmp/ccCwMAmf.s:100292  .debug_str:000000000002e82c .LASF8611
     /tmp/ccCwMAmf.s:96872  .debug_str:0000000000020d0f .LASF8612
     /tmp/ccCwMAmf.s:93026  .debug_str:0000000000010af5 .LASF8613
     /tmp/ccCwMAmf.s:107418  .debug_str:000000000004c004 .LASF8614
     /tmp/ccCwMAmf.s:102140  .debug_str:0000000000036395 .LASF8615
     /tmp/ccCwMAmf.s:107466  .debug_str:000000000004c34d .LASF8616
     /tmp/ccCwMAmf.s:107782  .debug_str:000000000004d9c8 .LASF8617
     /tmp/ccCwMAmf.s:92014  .debug_str:000000000000d22a .LASF8618
     /tmp/ccCwMAmf.s:100362  .debug_str:000000000002ed41 .LASF8619
     /tmp/ccCwMAmf.s:104230  .debug_str:000000000003e94d .LASF8620
     /tmp/ccCwMAmf.s:102620  .debug_str:000000000003825b .LASF8621
     /tmp/ccCwMAmf.s:90390  .debug_str:00000000000062cd .LASF8622
     /tmp/ccCwMAmf.s:107352  .debug_str:000000000004bbbc .LASF8623
     /tmp/ccCwMAmf.s:100778  .debug_str:0000000000030890 .LASF8624
     /tmp/ccCwMAmf.s:106048  .debug_str:00000000000464ca .LASF8625
     /tmp/ccCwMAmf.s:97370  .debug_str:0000000000022e98 .LASF8626
     /tmp/ccCwMAmf.s:100278  .debug_str:000000000002e76b .LASF8627
     /tmp/ccCwMAmf.s:95724  .debug_str:000000000001bc2e .LASF8628
     /tmp/ccCwMAmf.s:105584  .debug_str:0000000000044622 .LASF8629
     /tmp/ccCwMAmf.s:107498  .debug_str:000000000004c571 .LASF8630
     /tmp/ccCwMAmf.s:103142  .debug_str:0000000000039e44 .LASF8631
     /tmp/ccCwMAmf.s:101190  .debug_str:0000000000032265 .LASF8632
     /tmp/ccCwMAmf.s:105570  .debug_str:0000000000044582 .LASF8633
     /tmp/ccCwMAmf.s:99724  .debug_str:000000000002c445 .LASF8634
     /tmp/ccCwMAmf.s:94934  .debug_str:0000000000018635 .LASF8635
     /tmp/ccCwMAmf.s:93360  .debug_str:000000000001205e .LASF8636
     /tmp/ccCwMAmf.s:97794  .debug_str:0000000000024aa7 .LASF8637
     /tmp/ccCwMAmf.s:92066  .debug_str:000000000000d53a .LASF8638
     /tmp/ccCwMAmf.s:99304  .debug_str:000000000002aa06 .LASF8639
     /tmp/ccCwMAmf.s:94788  .debug_str:0000000000017d56 .LASF8640
     /tmp/ccCwMAmf.s:92082  .debug_str:000000000000d653 .LASF8641
     /tmp/ccCwMAmf.s:104010  .debug_str:000000000003da21 .LASF8642
     /tmp/ccCwMAmf.s:95856  .debug_str:000000000001c5b4 .LASF8643
     /tmp/ccCwMAmf.s:106922  .debug_str:0000000000049e2c .LASF8644
     /tmp/ccCwMAmf.s:104252  .debug_str:000000000003eacf .LASF8645
     /tmp/ccCwMAmf.s:96000  .debug_str:000000000001cff2 .LASF8646
     /tmp/ccCwMAmf.s:107408  .debug_str:000000000004bf60 .LASF8647
     /tmp/ccCwMAmf.s:91058  .debug_str:0000000000009069 .LASF8648
     /tmp/ccCwMAmf.s:97254  .debug_str:00000000000226b1 .LASF8649
     /tmp/ccCwMAmf.s:103042  .debug_str:00000000000398de .LASF8650
     /tmp/ccCwMAmf.s:104832  .debug_str:000000000004112b .LASF8651
     /tmp/ccCwMAmf.s:92974  .debug_str:000000000001085d .LASF8652
     /tmp/ccCwMAmf.s:102680  .debug_str:000000000003857f .LASF8653
     /tmp/ccCwMAmf.s:89732  .debug_str:000000000000360e .LASF8654
     /tmp/ccCwMAmf.s:99664  .debug_str:000000000002c119 .LASF8655
     /tmp/ccCwMAmf.s:107548  .debug_str:000000000004c8d9 .LASF8656
     /tmp/ccCwMAmf.s:104164  .debug_str:000000000003e4b2 .LASF8657
     /tmp/ccCwMAmf.s:102390  .debug_str:00000000000373fd .LASF8658
     /tmp/ccCwMAmf.s:107130  .debug_str:000000000004abeb .LASF8659
     /tmp/ccCwMAmf.s:93220  .debug_str:00000000000116bd .LASF8660
     /tmp/ccCwMAmf.s:90940  .debug_str:000000000000882e .LASF8661
     /tmp/ccCwMAmf.s:104658  .debug_str:00000000000402b6 .LASF8662
     /tmp/ccCwMAmf.s:92100  .debug_str:000000000000d749 .LASF8663
     /tmp/ccCwMAmf.s:107922  .debug_str:000000000004e3e3 .LASF8664
     /tmp/ccCwMAmf.s:108330  .debug_str:000000000004febe .LASF8665
     /tmp/ccCwMAmf.s:91164  .debug_str:0000000000009754 .LASF8666
     /tmp/ccCwMAmf.s:98746  .debug_str:0000000000028502 .LASF8667
     /tmp/ccCwMAmf.s:91056  .debug_str:0000000000009044 .LASF8668
     /tmp/ccCwMAmf.s:95114  .debug_str:000000000001912a .LASF8669
     /tmp/ccCwMAmf.s:91552  .debug_str:000000000000b252 .LASF8670
     /tmp/ccCwMAmf.s:94236  .debug_str:0000000000015859 .LASF8671
     /tmp/ccCwMAmf.s:94816  .debug_str:0000000000017ec6 .LASF8672
     /tmp/ccCwMAmf.s:91554  .debug_str:000000000000b264 .LASF8673
     /tmp/ccCwMAmf.s:107446  .debug_str:000000000004c1bf .LASF8674
     /tmp/ccCwMAmf.s:92060  .debug_str:000000000000d4f2 .LASF8675
     /tmp/ccCwMAmf.s:91590  .debug_str:000000000000b512 .LASF8676
     /tmp/ccCwMAmf.s:91844  .debug_str:000000000000c614 .LASF8677
     /tmp/ccCwMAmf.s:96270  .debug_str:000000000001e2f2 .LASF8678
     /tmp/ccCwMAmf.s:103690  .debug_str:000000000003c51d .LASF8679
     /tmp/ccCwMAmf.s:101872  .debug_str:0000000000035056 .LASF8680
     /tmp/ccCwMAmf.s:99554  .debug_str:000000000002b9d8 .LASF8681
     /tmp/ccCwMAmf.s:94776  .debug_str:0000000000017c9d .LASF8682
     /tmp/ccCwMAmf.s:102804  .debug_str:0000000000038d00 .LASF8683
     /tmp/ccCwMAmf.s:99964  .debug_str:000000000002d2ae .LASF8684
     /tmp/ccCwMAmf.s:97146  .debug_str:0000000000021f9f .LASF8685
     /tmp/ccCwMAmf.s:105030  .debug_str:0000000000042112 .LASF8686
     /tmp/ccCwMAmf.s:90128  .debug_str:0000000000005192 .LASF8687
     /tmp/ccCwMAmf.s:102146  .debug_str:00000000000363ec .LASF8688
     /tmp/ccCwMAmf.s:103272  .debug_str:000000000003a76f .LASF8689
     /tmp/ccCwMAmf.s:96540  .debug_str:000000000001f5b5 .LASF8690
     /tmp/ccCwMAmf.s:100408  .debug_str:000000000002efa7 .LASF8691
     /tmp/ccCwMAmf.s:90674  .debug_str:000000000000767a .LASF8692
     /tmp/ccCwMAmf.s:98860  .debug_str:0000000000028d56 .LASF8693
     /tmp/ccCwMAmf.s:107440  .debug_str:000000000004c137 .LASF8694
     /tmp/ccCwMAmf.s:105692  .debug_str:0000000000044d96 .LASF8695
     /tmp/ccCwMAmf.s:97908  .debug_str:00000000000251eb .LASF8696
     /tmp/ccCwMAmf.s:106522  .debug_str:0000000000048439 .LASF8697
     /tmp/ccCwMAmf.s:92028  .debug_str:000000000000d329 .LASF8698
     /tmp/ccCwMAmf.s:95646  .debug_str:000000000001b656 .LASF8699
     /tmp/ccCwMAmf.s:94572  .debug_str:0000000000016dee .LASF8700
     /tmp/ccCwMAmf.s:102328  .debug_str:0000000000036fd3 .LASF8701
     /tmp/ccCwMAmf.s:91384  .debug_str:000000000000a6a6 .LASF8702
     /tmp/ccCwMAmf.s:105228  .debug_str:0000000000042e9e .LASF8703
     /tmp/ccCwMAmf.s:93376  .debug_str:000000000001219f .LASF8704
     /tmp/ccCwMAmf.s:89590  .debug_str:0000000000002d05 .LASF8705
     /tmp/ccCwMAmf.s:96750  .debug_str:0000000000020516 .LASF8706
     /tmp/ccCwMAmf.s:95980  .debug_str:000000000001ceab .LASF8707
     /tmp/ccCwMAmf.s:100470  .debug_str:000000000002f4b5 .LASF8708
     /tmp/ccCwMAmf.s:104502  .debug_str:000000000003f9a9 .LASF8709
     /tmp/ccCwMAmf.s:107588  .debug_str:000000000004cc01 .LASF8710
     /tmp/ccCwMAmf.s:103230  .debug_str:000000000003a449 .LASF8711
     /tmp/ccCwMAmf.s:103006  .debug_str:0000000000039664 .LASF8712
     /tmp/ccCwMAmf.s:104684  .debug_str:00000000000404a3 .LASF8713
     /tmp/ccCwMAmf.s:107964  .debug_str:000000000004e68b .LASF8714
     /tmp/ccCwMAmf.s:95776  .debug_str:000000000001bfb1 .LASF8715
     /tmp/ccCwMAmf.s:103112  .debug_str:0000000000039cc8 .LASF8716
     /tmp/ccCwMAmf.s:90136  .debug_str:00000000000051de .LASF8717
     /tmp/ccCwMAmf.s:104184  .debug_str:000000000003e620 .LASF8718
     /tmp/ccCwMAmf.s:98072  .debug_str:0000000000025a59 .LASF8719
     /tmp/ccCwMAmf.s:95606  .debug_str:000000000001b3c0 .LASF8720
     /tmp/ccCwMAmf.s:93748  .debug_str:0000000000013a7e .LASF8721
     /tmp/ccCwMAmf.s:94660  .debug_str:00000000000173c5 .LASF8722
     /tmp/ccCwMAmf.s:101206  .debug_str:0000000000032411 .LASF8723
     /tmp/ccCwMAmf.s:99618  .debug_str:000000000002be06 .LASF8724
     /tmp/ccCwMAmf.s:104674  .debug_str:00000000000403f3 .LASF8725
     /tmp/ccCwMAmf.s:95250  .debug_str:0000000000019b19 .LASF8726
     /tmp/ccCwMAmf.s:99052  .debug_str:00000000000299bc .LASF8727
     /tmp/ccCwMAmf.s:89996  .debug_str:000000000000488b .LASF8728
     /tmp/ccCwMAmf.s:90244  .debug_str:000000000000594b .LASF8729
     /tmp/ccCwMAmf.s:92226  .debug_str:000000000000ddf8 .LASF8730
     /tmp/ccCwMAmf.s:103382  .debug_str:000000000003af3d .LASF8731
     /tmp/ccCwMAmf.s:92116  .debug_str:000000000000d84c .LASF8732
     /tmp/ccCwMAmf.s:91022  .debug_str:0000000000008db4 .LASF8733
     /tmp/ccCwMAmf.s:99376  .debug_str:000000000002aefe .LASF8734
     /tmp/ccCwMAmf.s:106808  .debug_str:0000000000049676 .LASF8735
     /tmp/ccCwMAmf.s:91180  .debug_str:000000000000985f .LASF8736
     /tmp/ccCwMAmf.s:106576  .debug_str:000000000004873e .LASF8737
     /tmp/ccCwMAmf.s:106834  .debug_str:0000000000049829 .LASF8738
     /tmp/ccCwMAmf.s:91204  .debug_str:0000000000009a50 .LASF8739
     /tmp/ccCwMAmf.s:106250  .debug_str:0000000000047194 .LASF8740
     /tmp/ccCwMAmf.s:104350  .debug_str:000000000003f03a .LASF8741
     /tmp/ccCwMAmf.s:92956  .debug_str:000000000001075e .LASF8742
     /tmp/ccCwMAmf.s:102960  .debug_str:00000000000394a5 .LASF8743
     /tmp/ccCwMAmf.s:91964  .debug_str:000000000000ce92 .LASF8744
     /tmp/ccCwMAmf.s:104420  .debug_str:000000000003f476 .LASF8745
     /tmp/ccCwMAmf.s:105670  .debug_str:0000000000044c5b .LASF8746
     /tmp/ccCwMAmf.s:99828  .debug_str:000000000002ca5e .LASF8747
     /tmp/ccCwMAmf.s:105380  .debug_str:0000000000043919 .LASF8748
     /tmp/ccCwMAmf.s:89170  .debug_str:0000000000000f05 .LASF8749
     /tmp/ccCwMAmf.s:94408  .debug_str:00000000000162ce .LASF8750
     /tmp/ccCwMAmf.s:91518  .debug_str:000000000000af63 .LASF8751
     /tmp/ccCwMAmf.s:95048  .debug_str:0000000000018c71 .LASF8752
     /tmp/ccCwMAmf.s:100430  .debug_str:000000000002f156 .LASF8753
     /tmp/ccCwMAmf.s:90138  .debug_str:00000000000051f2 .LASF8754
     /tmp/ccCwMAmf.s:91490  .debug_str:000000000000adbe .LASF8755
     /tmp/ccCwMAmf.s:102470  .debug_str:0000000000037979 .LASF8756
     /tmp/ccCwMAmf.s:89616  .debug_str:0000000000002ec4 .LASF8757
     /tmp/ccCwMAmf.s:94812  .debug_str:0000000000017e85 .LASF8758
     /tmp/ccCwMAmf.s:102206  .debug_str:000000000003681f .LASF8759
     /tmp/ccCwMAmf.s:100688  .debug_str:0000000000030258 .LASF8760
     /tmp/ccCwMAmf.s:90796  .debug_str:0000000000007e8d .LASF8761
     /tmp/ccCwMAmf.s:107850  .debug_str:000000000004dedb .LASF8762
     /tmp/ccCwMAmf.s:98686  .debug_str:00000000000280f7 .LASF8763
     /tmp/ccCwMAmf.s:91284  .debug_str:0000000000009f96 .LASF8764
     /tmp/ccCwMAmf.s:101246  .debug_str:000000000003269f .LASF8765
     /tmp/ccCwMAmf.s:107510  .debug_str:000000000004c649 .LASF8766
     /tmp/ccCwMAmf.s:100196  .debug_str:000000000002e1c8 .LASF8767
     /tmp/ccCwMAmf.s:97150  .debug_str:0000000000021fee .LASF8768
     /tmp/ccCwMAmf.s:107702  .debug_str:000000000004d34a .LASF8769
     /tmp/ccCwMAmf.s:89756  .debug_str:00000000000037b2 .LASF8770
     /tmp/ccCwMAmf.s:90168  .debug_str:00000000000053cd .LASF8771
     /tmp/ccCwMAmf.s:94118  .debug_str:00000000000150be .LASF8772
     /tmp/ccCwMAmf.s:103564  .debug_str:000000000003bba5 .LASF8773
     /tmp/ccCwMAmf.s:101972  .debug_str:00000000000357f9 .LASF8774
     /tmp/ccCwMAmf.s:102100  .debug_str:000000000003609d .LASF8775
     /tmp/ccCwMAmf.s:96904  .debug_str:0000000000020ed5 .LASF8776
     /tmp/ccCwMAmf.s:104120  .debug_str:000000000003e21e .LASF8777
     /tmp/ccCwMAmf.s:94732  .debug_str:0000000000017952 .LASF8778
     /tmp/ccCwMAmf.s:92582  .debug_str:000000000000f1ac .LASF8779
     /tmp/ccCwMAmf.s:95516  .debug_str:000000000001addb .LASF8780
     /tmp/ccCwMAmf.s:90802  .debug_str:0000000000007efe .LASF8781
     /tmp/ccCwMAmf.s:91316  .debug_str:000000000000a212 .LASF8782
     /tmp/ccCwMAmf.s:93282  .debug_str:0000000000011b3e .LASF8783
     /tmp/ccCwMAmf.s:107014  .debug_str:000000000004a399 .LASF8784
     /tmp/ccCwMAmf.s:95750  .debug_str:000000000001bda2 .LASF8785
     /tmp/ccCwMAmf.s:98434  .debug_str:00000000000270a7 .LASF8786
     /tmp/ccCwMAmf.s:95070  .debug_str:0000000000018e5f .LASF8787
     /tmp/ccCwMAmf.s:98766  .debug_str:0000000000028686 .LASF8788
     /tmp/ccCwMAmf.s:97418  .debug_str:0000000000023188 .LASF8789
     /tmp/ccCwMAmf.s:104862  .debug_str:0000000000041346 .LASF8790
     /tmp/ccCwMAmf.s:108140  .debug_str:000000000004f1e4 .LASF8791
     /tmp/ccCwMAmf.s:105500  .debug_str:00000000000440b7 .LASF8792
     /tmp/ccCwMAmf.s:95560  .debug_str:000000000001b104 .LASF8793
     /tmp/ccCwMAmf.s:101152  .debug_str:0000000000031f97 .LASF8794
     /tmp/ccCwMAmf.s:92328  .debug_str:000000000000e41a .LASF8795
     /tmp/ccCwMAmf.s:94358  .debug_str:0000000000015f91 .LASF8796
     /tmp/ccCwMAmf.s:100252  .debug_str:000000000002e53e .LASF8797
     /tmp/ccCwMAmf.s:104148  .debug_str:000000000003e3d4 .LASF8798
     /tmp/ccCwMAmf.s:107388  .debug_str:000000000004be44 .LASF8799
     /tmp/ccCwMAmf.s:92538  .debug_str:000000000000ee90 .LASF8800
     /tmp/ccCwMAmf.s:92966  .debug_str:0000000000010800 .LASF8801
     /tmp/ccCwMAmf.s:103608  .debug_str:000000000003bef3 .LASF8802
     /tmp/ccCwMAmf.s:103406  .debug_str:000000000003b0e9 .LASF8803
     /tmp/ccCwMAmf.s:92968  .debug_str:0000000000010810 .LASF8804
     /tmp/ccCwMAmf.s:103610  .debug_str:000000000003bf03 .LASF8805
     /tmp/ccCwMAmf.s:90180  .debug_str:00000000000054c7 .LASF8806
     /tmp/ccCwMAmf.s:94534  .debug_str:0000000000016b90 .LASF8807
     /tmp/ccCwMAmf.s:94844  .debug_str:0000000000018050 .LASF8808
     /tmp/ccCwMAmf.s:90640  .debug_str:00000000000074c4 .LASF8809
     /tmp/ccCwMAmf.s:103740  .debug_str:000000000003c88d .LASF8810
     /tmp/ccCwMAmf.s:94846  .debug_str:0000000000018060 .LASF8811
     /tmp/ccCwMAmf.s:103978  .debug_str:000000000003d779 .LASF8812
     /tmp/ccCwMAmf.s:103742  .debug_str:000000000003c89d .LASF8813
     /tmp/ccCwMAmf.s:94848  .debug_str:0000000000018070 .LASF8814
     /tmp/ccCwMAmf.s:97784  .debug_str:00000000000249ba .LASF8815
     /tmp/ccCwMAmf.s:103744  .debug_str:000000000003c8ad .LASF8816
     /tmp/ccCwMAmf.s:94850  .debug_str:0000000000018080 .LASF8817
     /tmp/ccCwMAmf.s:100414  .debug_str:000000000002f05a .LASF8818
     /tmp/ccCwMAmf.s:103746  .debug_str:000000000003c8bd .LASF8819
     /tmp/ccCwMAmf.s:94852  .debug_str:0000000000018090 .LASF8820
     /tmp/ccCwMAmf.s:104920  .debug_str:00000000000416d8 .LASF8821
     /tmp/ccCwMAmf.s:97002  .debug_str:00000000000215a6 .LASF8822
     /tmp/ccCwMAmf.s:100254  .debug_str:000000000002e55f .LASF8823
     /tmp/ccCwMAmf.s:93896  .debug_str:000000000001435d .LASF8824
     /tmp/ccCwMAmf.s:94208  .debug_str:0000000000015652 .LASF8825
     /tmp/ccCwMAmf.s:103738  .debug_str:000000000003c87d .LASF8826
     /tmp/ccCwMAmf.s:93966  .debug_str:000000000001482a .LASF8827
     /tmp/ccCwMAmf.s:89948  .debug_str:0000000000004582 .LASF8828
     /tmp/ccCwMAmf.s:91866  .debug_str:000000000000c7f0 .LASF8829
     /tmp/ccCwMAmf.s:107568  .debug_str:000000000004ca90 .LASF8830
     /tmp/ccCwMAmf.s:89950  .debug_str:0000000000004598 .LASF8831
     /tmp/ccCwMAmf.s:91868  .debug_str:000000000000c806 .LASF8832
     /tmp/ccCwMAmf.s:100428  .debug_str:000000000002f12c .LASF8833
     /tmp/ccCwMAmf.s:89952  .debug_str:00000000000045ae .LASF8834
     /tmp/ccCwMAmf.s:91870  .debug_str:000000000000c81c .LASF8835
     /tmp/ccCwMAmf.s:94220  .debug_str:0000000000015751 .LASF8836
     /tmp/ccCwMAmf.s:89954  .debug_str:00000000000045c4 .LASF8837
     /tmp/ccCwMAmf.s:91872  .debug_str:000000000000c832 .LASF8838
     /tmp/ccCwMAmf.s:107428  .debug_str:000000000004c0ae .LASF8839
     /tmp/ccCwMAmf.s:89956  .debug_str:00000000000045da .LASF8840
     /tmp/ccCwMAmf.s:91874  .debug_str:000000000000c848 .LASF8841
     /tmp/ccCwMAmf.s:101572  .debug_str:0000000000033c47 .LASF8842
     /tmp/ccCwMAmf.s:89958  .debug_str:00000000000045f0 .LASF8843
     /tmp/ccCwMAmf.s:91876  .debug_str:000000000000c85e .LASF8844
     /tmp/ccCwMAmf.s:95368  .debug_str:000000000001a308 .LASF8845
     /tmp/ccCwMAmf.s:89960  .debug_str:0000000000004606 .LASF8846
     /tmp/ccCwMAmf.s:91878  .debug_str:000000000000c874 .LASF8847
     /tmp/ccCwMAmf.s:89180  .debug_str:0000000000000fba .LASF8848
     /tmp/ccCwMAmf.s:106470  .debug_str:00000000000480d4 .LASF8849
     /tmp/ccCwMAmf.s:91880  .debug_str:000000000000c88a .LASF8850
     /tmp/ccCwMAmf.s:102526  .debug_str:0000000000037c2e .LASF8851
     /tmp/ccCwMAmf.s:104616  .debug_str:0000000000040079 .LASF8852
     /tmp/ccCwMAmf.s:100158  .debug_str:000000000002df42 .LASF8853
     /tmp/ccCwMAmf.s:103830  .debug_str:000000000003cde6 .LASF8854
     /tmp/ccCwMAmf.s:93870  .debug_str:0000000000014205 .LASF8855
     /tmp/ccCwMAmf.s:102970  .debug_str:000000000003950c .LASF8856
     /tmp/ccCwMAmf.s:97654  .debug_str:0000000000024254 .LASF8857
     /tmp/ccCwMAmf.s:95416  .debug_str:000000000001a69d .LASF8858
     /tmp/ccCwMAmf.s:90924  .debug_str:0000000000008779 .LASF8859
     /tmp/ccCwMAmf.s:97974  .debug_str:000000000002552c .LASF8860
     /tmp/ccCwMAmf.s:96814  .debug_str:00000000000209a4 .LASF8861
     /tmp/ccCwMAmf.s:101674  .debug_str:00000000000342cb .LASF8862
     /tmp/ccCwMAmf.s:107066  .debug_str:000000000004a7c6 .LASF8863
     /tmp/ccCwMAmf.s:104352  .debug_str:000000000003f047 .LASF8864
     /tmp/ccCwMAmf.s:98616  .debug_str:0000000000027c90 .LASF8865
     /tmp/ccCwMAmf.s:103202  .debug_str:000000000003a267 .LASF8866
     /tmp/ccCwMAmf.s:105486  .debug_str:0000000000043faf .LASF8867
     /tmp/ccCwMAmf.s:105316  .debug_str:0000000000043476 .LASF8868
     /tmp/ccCwMAmf.s:95382  .debug_str:000000000001a434 .LASF8869
     /tmp/ccCwMAmf.s:97588  .debug_str:0000000000023daf .LASF8870
     /tmp/ccCwMAmf.s:93158  .debug_str:0000000000011378 .LASF8871
     /tmp/ccCwMAmf.s:93558  .debug_str:0000000000012da9 .LASF8872
     /tmp/ccCwMAmf.s:97670  .debug_str:0000000000024365 .LASF8873
     /tmp/ccCwMAmf.s:93290  .debug_str:0000000000011bb6 .LASF8874
     /tmp/ccCwMAmf.s:99648  .debug_str:000000000002c01d .LASF8875
     /tmp/ccCwMAmf.s:94038  .debug_str:0000000000014bdc .LASF8876
     /tmp/ccCwMAmf.s:93408  .debug_str:00000000000123c8 .LASF8877
     /tmp/ccCwMAmf.s:91672  .debug_str:000000000000bad7 .LASF8878
     /tmp/ccCwMAmf.s:105140  .debug_str:0000000000042969 .LASF8879
     /tmp/ccCwMAmf.s:105404  .debug_str:0000000000043a97 .LASF8880
     /tmp/ccCwMAmf.s:99328  .debug_str:000000000002ab35 .LASF8881
     /tmp/ccCwMAmf.s:103792  .debug_str:000000000003cbaa .LASF8882
     /tmp/ccCwMAmf.s:108152  .debug_str:000000000004f29d .LASF8883
     /tmp/ccCwMAmf.s:103226  .debug_str:000000000003a407 .LASF8884
     /tmp/ccCwMAmf.s:105152  .debug_str:00000000000429ed .LASF8885
     /tmp/ccCwMAmf.s:98810  .debug_str:0000000000028a11 .LASF8886
     /tmp/ccCwMAmf.s:98696  .debug_str:0000000000028178 .LASF8887
     /tmp/ccCwMAmf.s:92864  .debug_str:0000000000010214 .LASF8888
     /tmp/ccCwMAmf.s:107576  .debug_str:000000000004cb21 .LASF8889
     /tmp/ccCwMAmf.s:107562  .debug_str:000000000004c9e6 .LASF8890
     /tmp/ccCwMAmf.s:103958  .debug_str:000000000003d653 .LASF8891
     /tmp/ccCwMAmf.s:99276  .debug_str:000000000002a80e .LASF8892
     /tmp/ccCwMAmf.s:99368  .debug_str:000000000002ae4f .LASF8893
     /tmp/ccCwMAmf.s:101616  .debug_str:0000000000033ef5 .LASF8894
     /tmp/ccCwMAmf.s:108006  .debug_str:000000000004e90b .LASF8895
     /tmp/ccCwMAmf.s:98996  .debug_str:00000000000295c9 .LASF8896
     /tmp/ccCwMAmf.s:92814  .debug_str:0000000000010005 .LASF8897
     /tmp/ccCwMAmf.s:103864  .debug_str:000000000003d035 .LASF8898
     /tmp/ccCwMAmf.s:108262  .debug_str:000000000004fa70 .LASF8899
     /tmp/ccCwMAmf.s:104490  .debug_str:000000000003f8ef .LASF8900
     /tmp/ccCwMAmf.s:90798  .debug_str:0000000000007eb4 .LASF8901
     /tmp/ccCwMAmf.s:99238  .debug_str:000000000002a65a .LASF8902
     /tmp/ccCwMAmf.s:103764  .debug_str:000000000003c9df .LASF8903
     /tmp/ccCwMAmf.s:89648  .debug_str:0000000000003148 .LASF8904
     /tmp/ccCwMAmf.s:89908  .debug_str:0000000000004257 .LASF8905
     /tmp/ccCwMAmf.s:103766  .debug_str:000000000003c9f8 .LASF8906
     /tmp/ccCwMAmf.s:89650  .debug_str:0000000000003161 .LASF8907
     /tmp/ccCwMAmf.s:96226  .debug_str:000000000001df96 .LASF8908
     /tmp/ccCwMAmf.s:103768  .debug_str:000000000003ca11 .LASF8909
     /tmp/ccCwMAmf.s:89652  .debug_str:000000000000317a .LASF8910
     /tmp/ccCwMAmf.s:97106  .debug_str:0000000000021da0 .LASF8911
     /tmp/ccCwMAmf.s:103172  .debug_str:0000000000039ff4 .LASF8912
     /tmp/ccCwMAmf.s:89654  .debug_str:0000000000003193 .LASF8913
     /tmp/ccCwMAmf.s:90860  .debug_str:0000000000008298 .LASF8914
     /tmp/ccCwMAmf.s:103772  .debug_str:000000000003ca31 .LASF8915
     /tmp/ccCwMAmf.s:89656  .debug_str:00000000000031ac .LASF8916
     /tmp/ccCwMAmf.s:104180  .debug_str:000000000003e5bf .LASF8917
     /tmp/ccCwMAmf.s:105826  .debug_str:0000000000045675 .LASF8918
     /tmp/ccCwMAmf.s:105300  .debug_str:000000000004338a .LASF8919
     /tmp/ccCwMAmf.s:99744  .debug_str:000000000002c572 .LASF8920
     /tmp/ccCwMAmf.s:95010  .debug_str:0000000000018a5c .LASF8921
     /tmp/ccCwMAmf.s:97562  .debug_str:0000000000023bfe .LASF8922
     /tmp/ccCwMAmf.s:97586  .debug_str:0000000000023d8e .LASF8923
     /tmp/ccCwMAmf.s:99680  .debug_str:000000000002c1ea .LASF8924
     /tmp/ccCwMAmf.s:93740  .debug_str:0000000000013a11 .LASF8925
     /tmp/ccCwMAmf.s:97646  .debug_str:00000000000241c5 .LASF8926
     /tmp/ccCwMAmf.s:92178  .debug_str:000000000000dbe4 .LASF8927
     /tmp/ccCwMAmf.s:101018  .debug_str:000000000003179c .LASF8928
     /tmp/ccCwMAmf.s:101168  .debug_str:000000000003209f .LASF8929
     /tmp/ccCwMAmf.s:95898  .debug_str:000000000001c8cb .LASF8930
     /tmp/ccCwMAmf.s:105934  .debug_str:0000000000045d87 .LASF8931
     /tmp/ccCwMAmf.s:101516  .debug_str:00000000000338a1 .LASF8932
     /tmp/ccCwMAmf.s:100534  .debug_str:000000000002f900 .LASF8933
     /tmp/ccCwMAmf.s:93924  .debug_str:0000000000014543 .LASF8934
     /tmp/ccCwMAmf.s:97714  .debug_str:000000000002466b .LASF8935
     /tmp/ccCwMAmf.s:95126  .debug_str:00000000000191d1 .LASF8936
     /tmp/ccCwMAmf.s:94448  .debug_str:0000000000016570 .LASF8937
     /tmp/ccCwMAmf.s:104000  .debug_str:000000000003d973 .LASF8938
     /tmp/ccCwMAmf.s:95024  .debug_str:0000000000018b39 .LASF8939
     /tmp/ccCwMAmf.s:94504  .debug_str:000000000001695a .LASF8940
     /tmp/ccCwMAmf.s:103380  .debug_str:000000000003af15 .LASF8941
     /tmp/ccCwMAmf.s:89902  .debug_str:00000000000041e3 .LASF8942
     /tmp/ccCwMAmf.s:97264  .debug_str:0000000000022768 .LASF8943
     /tmp/ccCwMAmf.s:97004  .debug_str:00000000000215bb .LASF8944
     /tmp/ccCwMAmf.s:89964  .debug_str:0000000000004625 .LASF8945
     /tmp/ccCwMAmf.s:100624  .debug_str:000000000002feb0 .LASF8946
     /tmp/ccCwMAmf.s:107736  .debug_str:000000000004d5d0 .LASF8947
     /tmp/ccCwMAmf.s:90840  .debug_str:0000000000008132 .LASF8948
     /tmp/ccCwMAmf.s:99920  .debug_str:000000000002cffd .LASF8949
     /tmp/ccCwMAmf.s:107144  .debug_str:000000000004acc9 .LASF8950
     /tmp/ccCwMAmf.s:101730  .debug_str:000000000003461f .LASF8951
     /tmp/ccCwMAmf.s:106730  .debug_str:000000000004917e .LASF8952
     /tmp/ccCwMAmf.s:99558  .debug_str:000000000002b9fc .LASF8953
     /tmp/ccCwMAmf.s:90718  .debug_str:00000000000079bd .LASF8954
     /tmp/ccCwMAmf.s:106784  .debug_str:00000000000494df .LASF8955
     /tmp/ccCwMAmf.s:96258  .debug_str:000000000001e1f5 .LASF8956
     /tmp/ccCwMAmf.s:90720  .debug_str:00000000000079d0 .LASF8957
     /tmp/ccCwMAmf.s:96404  .debug_str:000000000001ec2b .LASF8958
     /tmp/ccCwMAmf.s:106120  .debug_str:00000000000468cb .LASF8959
     /tmp/ccCwMAmf.s:101984  .debug_str:00000000000358d0 .LASF8960
     /tmp/ccCwMAmf.s:90234  .debug_str:00000000000058b8 .LASF8961
     /tmp/ccCwMAmf.s:105080  .debug_str:0000000000042519 .LASF8962
     /tmp/ccCwMAmf.s:101986  .debug_str:00000000000358e4 .LASF8963
     /tmp/ccCwMAmf.s:90236  .debug_str:00000000000058cc .LASF8964
     /tmp/ccCwMAmf.s:98990  .debug_str:0000000000029567 .LASF8965
     /tmp/ccCwMAmf.s:101988  .debug_str:00000000000358f8 .LASF8966
     /tmp/ccCwMAmf.s:90238  .debug_str:00000000000058e0 .LASF8967
     /tmp/ccCwMAmf.s:92908  .debug_str:00000000000104b7 .LASF8968
     /tmp/ccCwMAmf.s:101990  .debug_str:000000000003590c .LASF8969
     /tmp/ccCwMAmf.s:97110  .debug_str:0000000000021dd4 .LASF8970
     /tmp/ccCwMAmf.s:92434  .debug_str:000000000000e942 .LASF8971
     /tmp/ccCwMAmf.s:101992  .debug_str:0000000000035920 .LASF8972
     /tmp/ccCwMAmf.s:90242  .debug_str:0000000000005937 .LASF8973
     /tmp/ccCwMAmf.s:100010  .debug_str:000000000002d56a .LASF8974
     /tmp/ccCwMAmf.s:94578  .debug_str:0000000000016e41 .LASF8975
     /tmp/ccCwMAmf.s:97558  .debug_str:0000000000023bda .LASF8976
     /tmp/ccCwMAmf.s:89568  .debug_str:0000000000002b94 .LASF8977
     /tmp/ccCwMAmf.s:90812  .debug_str:0000000000007f8c .LASF8978
     /tmp/ccCwMAmf.s:97560  .debug_str:0000000000023bec .LASF8979
     /tmp/ccCwMAmf.s:98106  .debug_str:0000000000025caf .LASF8980
     /tmp/ccCwMAmf.s:90814  .debug_str:0000000000007f9e .LASF8981
     /tmp/ccCwMAmf.s:91812  .debug_str:000000000000c40c .LASF8982
     /tmp/ccCwMAmf.s:104608  .debug_str:000000000003ffef .LASF8983
     /tmp/ccCwMAmf.s:89328  .debug_str:0000000000001a98 .LASF8984
     /tmp/ccCwMAmf.s:90334  .debug_str:0000000000005f47 .LASF8985
     /tmp/ccCwMAmf.s:106564  .debug_str:00000000000486b6 .LASF8986
     /tmp/ccCwMAmf.s:89330  .debug_str:0000000000001aaa .LASF8987
     /tmp/ccCwMAmf.s:90336  .debug_str:0000000000005f59 .LASF8988
     /tmp/ccCwMAmf.s:100504  .debug_str:000000000002f6d1 .LASF8989
     /tmp/ccCwMAmf.s:105564  .debug_str:0000000000044536 .LASF8990
     /tmp/ccCwMAmf.s:90338  .debug_str:0000000000005f6b .LASF8991
     /tmp/ccCwMAmf.s:94290  .debug_str:0000000000015c3f .LASF8992
     /tmp/ccCwMAmf.s:106724  .debug_str:000000000004914a .LASF8993
     /tmp/ccCwMAmf.s:100494  .debug_str:000000000002f670 .LASF8994
     /tmp/ccCwMAmf.s:96874  .debug_str:0000000000020d1a .LASF8995
     /tmp/ccCwMAmf.s:105396  .debug_str:0000000000043a10 .LASF8996
     /tmp/ccCwMAmf.s:106952  .debug_str:000000000004a023 .LASF8997
     /tmp/ccCwMAmf.s:100622  .debug_str:000000000002fe8a .LASF8998
     /tmp/ccCwMAmf.s:89436  .debug_str:0000000000002292 .LASF8999
     /tmp/ccCwMAmf.s:101752  .debug_str:00000000000347c7 .LASF9000
     /tmp/ccCwMAmf.s:102160  .debug_str:0000000000036502 .LASF9001
     /tmp/ccCwMAmf.s:93524  .debug_str:0000000000012b19 .LASF9002
     /tmp/ccCwMAmf.s:107230  .debug_str:000000000004b39c .LASF9003
     /tmp/ccCwMAmf.s:98532  .debug_str:000000000002765f .LASF9004
     /tmp/ccCwMAmf.s:96044  .debug_str:000000000001d289 .LASF9005
     /tmp/ccCwMAmf.s:106478  .debug_str:0000000000048159 .LASF9006
     /tmp/ccCwMAmf.s:94690  .debug_str:0000000000017608 .LASF9007
     /tmp/ccCwMAmf.s:99192  .debug_str:000000000002a335 .LASF9008
     /tmp/ccCwMAmf.s:105390  .debug_str:00000000000439c5 .LASF9009
     /tmp/ccCwMAmf.s:103720  .debug_str:000000000003c76c .LASF9010
     /tmp/ccCwMAmf.s:93828  .debug_str:0000000000013f3d .LASF9011
     /tmp/ccCwMAmf.s:98178  .debug_str:0000000000026055 .LASF9012
     /tmp/ccCwMAmf.s:98446  .debug_str:0000000000027152 .LASF9013
     /tmp/ccCwMAmf.s:98048  .debug_str:00000000000258f8 .LASF9014
     /tmp/ccCwMAmf.s:91586  .debug_str:000000000000b4ac .LASF9015
     /tmp/ccCwMAmf.s:106078  .debug_str:000000000004665b .LASF9016
     /tmp/ccCwMAmf.s:96538  .debug_str:000000000001f598 .LASF9017
     /tmp/ccCwMAmf.s:90116  .debug_str:00000000000050b4 .LASF9018
     /tmp/ccCwMAmf.s:107904  .debug_str:000000000004e25d .LASF9019
     /tmp/ccCwMAmf.s:89868  .debug_str:0000000000003f5c .LASF9020
     /tmp/ccCwMAmf.s:98148  .debug_str:0000000000025de1 .LASF9021
     /tmp/ccCwMAmf.s:102008  .debug_str:0000000000035a45 .LASF9022
     /tmp/ccCwMAmf.s:98084  .debug_str:0000000000025b66 .LASF9023
     /tmp/ccCwMAmf.s:105356  .debug_str:0000000000043783 .LASF9024
     /tmp/ccCwMAmf.s:99100  .debug_str:0000000000029ccc .LASF9025
     /tmp/ccCwMAmf.s:104782  .debug_str:0000000000040d0a .LASF9026
     /tmp/ccCwMAmf.s:89992  .debug_str:0000000000004861 .LASF9027
     /tmp/ccCwMAmf.s:99234  .debug_str:000000000002a601 .LASF9028
     /tmp/ccCwMAmf.s:106878  .debug_str:0000000000049b66 .LASF9029
     /tmp/ccCwMAmf.s:105704  .debug_str:0000000000044e74 .LASF9030
     /tmp/ccCwMAmf.s:107572  .debug_str:000000000004cad8 .LASF9031
     /tmp/ccCwMAmf.s:90406  .debug_str:00000000000063f3 .LASF9032
     /tmp/ccCwMAmf.s:101886  .debug_str:000000000003518b .LASF9033
     /tmp/ccCwMAmf.s:98290  .debug_str:00000000000266e4 .LASF9034
     /tmp/ccCwMAmf.s:92368  .debug_str:000000000000e6b3 .LASF9035
     /tmp/ccCwMAmf.s:98518  .debug_str:0000000000027583 .LASF9036
     /tmp/ccCwMAmf.s:105590  .debug_str:000000000004468b .LASF9037
     /tmp/ccCwMAmf.s:96948  .debug_str:0000000000021202 .LASF9038
     /tmp/ccCwMAmf.s:101222  .debug_str:0000000000032540 .LASF9039
     /tmp/ccCwMAmf.s:98898  .debug_str:0000000000029016 .LASF9040
     /tmp/ccCwMAmf.s:91438  .debug_str:000000000000a9f9 .LASF9041
     /tmp/ccCwMAmf.s:106212  .debug_str:0000000000046f44 .LASF9042
     /tmp/ccCwMAmf.s:107200  .debug_str:000000000004b14d .LASF9043
     /tmp/ccCwMAmf.s:92392  .debug_str:000000000000e764 .LASF9044
     /tmp/ccCwMAmf.s:96838  .debug_str:0000000000020b44 .LASF9045
     /tmp/ccCwMAmf.s:100446  .debug_str:000000000002f2f5 .LASF9046
     /tmp/ccCwMAmf.s:94110  .debug_str:0000000000015018 .LASF9047
     /tmp/ccCwMAmf.s:106032  .debug_str:0000000000046381 .LASF9048
     /tmp/ccCwMAmf.s:106158  .debug_str:0000000000046bad .LASF9049
     /tmp/ccCwMAmf.s:91770  .debug_str:000000000000c1ad .LASF9050
     /tmp/ccCwMAmf.s:94550  .debug_str:0000000000016c7d .LASF9051
     /tmp/ccCwMAmf.s:107860  .debug_str:000000000004df53 .LASF9052
     /tmp/ccCwMAmf.s:105600  .debug_str:0000000000044723 .LASF9053
     /tmp/ccCwMAmf.s:101650  .debug_str:000000000003411a .LASF9054
     /tmp/ccCwMAmf.s:100316  .debug_str:000000000002e9e8 .LASF9055
     /tmp/ccCwMAmf.s:95530  .debug_str:000000000001af07 .LASF9056
     /tmp/ccCwMAmf.s:103598  .debug_str:000000000003be08 .LASF9057
     /tmp/ccCwMAmf.s:96906  .debug_str:0000000000020efa .LASF9058
     /tmp/ccCwMAmf.s:91696  .debug_str:000000000000bcda .LASF9059
     /tmp/ccCwMAmf.s:107826  .debug_str:000000000004dd40 .LASF9060
     /tmp/ccCwMAmf.s:103584  .debug_str:000000000003bcfe .LASF9061
     /tmp/ccCwMAmf.s:107304  .debug_str:000000000004b897 .LASF9062
     /tmp/ccCwMAmf.s:92682  .debug_str:000000000000f756 .LASF9063
     /tmp/ccCwMAmf.s:101164  .debug_str:000000000003206e .LASF9064
     /tmp/ccCwMAmf.s:89594  .debug_str:0000000000002d3d .LASF9065
     /tmp/ccCwMAmf.s:102312  .debug_str:0000000000036ec4 .LASF9066
     /tmp/ccCwMAmf.s:99394  .debug_str:000000000002aff6 .LASF9067
     /tmp/ccCwMAmf.s:102560  .debug_str:0000000000037f54 .LASF9068
     /tmp/ccCwMAmf.s:100212  .debug_str:000000000002e29b .LASF9069
     /tmp/ccCwMAmf.s:102866  .debug_str:0000000000038fd3 .LASF9070
     /tmp/ccCwMAmf.s:94716  .debug_str:00000000000177fd .LASF9071
     /tmp/ccCwMAmf.s:89418  .debug_str:0000000000002122 .LASF9072
     /tmp/ccCwMAmf.s:93982  .debug_str:0000000000014921 .LASF9073
     /tmp/ccCwMAmf.s:92396  .debug_str:000000000000e794 .LASF9074
     /tmp/ccCwMAmf.s:102676  .debug_str:0000000000038564 .LASF9075
     /tmp/ccCwMAmf.s:105482  .debug_str:0000000000043f7a .LASF9076
     /tmp/ccCwMAmf.s:95108  .debug_str:00000000000190cb .LASF9077
     /tmp/ccCwMAmf.s:99866  .debug_str:000000000002ccf6 .LASF9078
     /tmp/ccCwMAmf.s:90910  .debug_str:0000000000008674 .LASF9079
     /tmp/ccCwMAmf.s:98822  .debug_str:0000000000028a8f .LASF9080
     /tmp/ccCwMAmf.s:97624  .debug_str:0000000000024017 .LASF9081
     /tmp/ccCwMAmf.s:107670  .debug_str:000000000004d0ff .LASF9082
     /tmp/ccCwMAmf.s:98824  .debug_str:0000000000028aac .LASF9083
     /tmp/ccCwMAmf.s:97626  .debug_str:0000000000024034 .LASF9084
     /tmp/ccCwMAmf.s:89116  .debug_str:0000000000000b6f .LASF9085
     /tmp/ccCwMAmf.s:104112  .debug_str:000000000003e177 .LASF9086
     /tmp/ccCwMAmf.s:103066  .debug_str:0000000000039a90 .LASF9087
     /tmp/ccCwMAmf.s:105782  .debug_str:0000000000045338 .LASF9088
     /tmp/ccCwMAmf.s:104114  .debug_str:000000000003e194 .LASF9089
     /tmp/ccCwMAmf.s:90376  .debug_str:00000000000061e6 .LASF9090
     /tmp/ccCwMAmf.s:94234  .debug_str:0000000000015828 .LASF9091
     /tmp/ccCwMAmf.s:106208  .debug_str:0000000000046f0e .LASF9092
     /tmp/ccCwMAmf.s:93574  .debug_str:0000000000012ee7 .LASF9093
     /tmp/ccCwMAmf.s:104562  .debug_str:000000000003fd0c .LASF9094
     /tmp/ccCwMAmf.s:106210  .debug_str:0000000000046f29 .LASF9095
     /tmp/ccCwMAmf.s:102756  .debug_str:00000000000389c6 .LASF9096
     /tmp/ccCwMAmf.s:98442  .debug_str:0000000000027109 .LASF9097
     /tmp/ccCwMAmf.s:92034  .debug_str:000000000000d37a .LASF9098
     /tmp/ccCwMAmf.s:98906  .debug_str:00000000000290cb .LASF9099
     /tmp/ccCwMAmf.s:97120  .debug_str:0000000000021e6d .LASF9100
     /tmp/ccCwMAmf.s:92036  .debug_str:000000000000d395 .LASF9101
     /tmp/ccCwMAmf.s:93926  .debug_str:000000000001454f .LASF9102
     /tmp/ccCwMAmf.s:90874  .debug_str:00000000000083d0 .LASF9103
     /tmp/ccCwMAmf.s:97920  .debug_str:0000000000025271 .LASF9104
     /tmp/ccCwMAmf.s:96646  .debug_str:000000000001fcfd .LASF9105
     /tmp/ccCwMAmf.s:89074  .debug_str:000000000000089f .LASF9106
     /tmp/ccCwMAmf.s:97922  .debug_str:000000000002528e .LASF9107
     /tmp/ccCwMAmf.s:96648  .debug_str:000000000001fd1a .LASF9108
     /tmp/ccCwMAmf.s:99292  .debug_str:000000000002a903 .LASF9109
     /tmp/ccCwMAmf.s:103374  .debug_str:000000000003aeb1 .LASF9110
     /tmp/ccCwMAmf.s:102026  .debug_str:0000000000035bc2 .LASF9111
     /tmp/ccCwMAmf.s:101064  .debug_str:0000000000031a58 .LASF9112
     /tmp/ccCwMAmf.s:103376  .debug_str:000000000003aece .LASF9113
     /tmp/ccCwMAmf.s:102028  .debug_str:0000000000035bdf .LASF9114
     /tmp/ccCwMAmf.s:94874  .debug_str:000000000001822c .LASF9115
     /tmp/ccCwMAmf.s:108248  .debug_str:000000000004f980 .LASF9116
     /tmp/ccCwMAmf.s:91392  .debug_str:000000000000a728 .LASF9117
     /tmp/ccCwMAmf.s:95208  .debug_str:00000000000197eb .LASF9118
     /tmp/ccCwMAmf.s:108250  .debug_str:000000000004f999 .LASF9119
     /tmp/ccCwMAmf.s:91394  .debug_str:000000000000a741 .LASF9120
     /tmp/ccCwMAmf.s:89044  .debug_str:00000000000006c4 .LASF9121
     /tmp/ccCwMAmf.s:90964  .debug_str:0000000000008a17 .LASF9122
     /tmp/ccCwMAmf.s:103754  .debug_str:000000000003c910 .LASF9123
     /tmp/ccCwMAmf.s:92700  .debug_str:000000000000f870 .LASF9124
     /tmp/ccCwMAmf.s:91950  .debug_str:000000000000ce10 .LASF9125
     /tmp/ccCwMAmf.s:95806  .debug_str:000000000001c1a7 .LASF9126
     /tmp/ccCwMAmf.s:107174  .debug_str:000000000004af60 .LASF9127
     /tmp/ccCwMAmf.s:91114  .debug_str:000000000000944d .LASF9128
     /tmp/ccCwMAmf.s:108150  .debug_str:000000000004f291 .LASF9129
     /tmp/ccCwMAmf.s:89448  .debug_str:000000000000237c .LASF9130
     /tmp/ccCwMAmf.s:106942  .debug_str:0000000000049f86 .LASF9131
     /tmp/ccCwMAmf.s:92662  .debug_str:000000000000f6f1 .LASF9132
     /tmp/ccCwMAmf.s:105674  .debug_str:0000000000044c98 .LASF9133
     /tmp/ccCwMAmf.s:96708  .debug_str:00000000000201c7 .LASF9134
     /tmp/ccCwMAmf.s:100654  .debug_str:000000000003002a .LASF9135
     /tmp/ccCwMAmf.s:94178  .debug_str:000000000001549c .LASF9136
     /tmp/ccCwMAmf.s:91274  .debug_str:0000000000009f02 .LASF9137
     /tmp/ccCwMAmf.s:98058  .debug_str:00000000000259ac .LASF9138
     /tmp/ccCwMAmf.s:92564  .debug_str:000000000000f03d .LASF9139
     /tmp/ccCwMAmf.s:100554  .debug_str:000000000002fa12 .LASF9140
     /tmp/ccCwMAmf.s:96004  .debug_str:000000000001d01a .LASF9141
     /tmp/ccCwMAmf.s:99428  .debug_str:000000000002b190 .LASF9142
     /tmp/ccCwMAmf.s:97500  .debug_str:00000000000237fb .LASF9143
     /tmp/ccCwMAmf.s:105002  .debug_str:0000000000041f34 .LASF9144
     /tmp/ccCwMAmf.s:106932  .debug_str:0000000000049efc .LASF9145
     /tmp/ccCwMAmf.s:101562  .debug_str:0000000000033bfe .LASF9146
     /tmp/ccCwMAmf.s:99734  .debug_str:000000000002c4d7 .LASF9147
     /tmp/ccCwMAmf.s:92736  .debug_str:000000000000fb33 .LASF9148
     /tmp/ccCwMAmf.s:99564  .debug_str:000000000002ba66 .LASF9149
     /tmp/ccCwMAmf.s:105878  .debug_str:00000000000459d8 .LASF9150
     /tmp/ccCwMAmf.s:96724  .debug_str:0000000000020309 .LASF9151
     /tmp/ccCwMAmf.s:100168  .debug_str:000000000002dfea .LASF9152
     /tmp/ccCwMAmf.s:96248  .debug_str:000000000001e12c .LASF9153
     /tmp/ccCwMAmf.s:102860  .debug_str:0000000000038f6b .LASF9154
     /tmp/ccCwMAmf.s:97960  .debug_str:0000000000025471 .LASF9155
     /tmp/ccCwMAmf.s:104568  .debug_str:000000000003fd91 .LASF9156
     /tmp/ccCwMAmf.s:107454  .debug_str:000000000004c248 .LASF9157
     /tmp/ccCwMAmf.s:99958  .debug_str:000000000002d27e .LASF9158
     /tmp/ccCwMAmf.s:95348  .debug_str:000000000001a186 .LASF9159
     /tmp/ccCwMAmf.s:105794  .debug_str:00000000000453f7 .LASF9160
     /tmp/ccCwMAmf.s:98322  .debug_str:0000000000026985 .LASF9161
     /tmp/ccCwMAmf.s:93854  .debug_str:00000000000140d6 .LASF9162
     /tmp/ccCwMAmf.s:92084  .debug_str:000000000000d678 .LASF9163
     /tmp/ccCwMAmf.s:106778  .debug_str:00000000000494a4 .LASF9164
     /tmp/ccCwMAmf.s:90378  .debug_str:0000000000006203 .LASF9165
     /tmp/ccCwMAmf.s:95522  .debug_str:000000000001ae5d .LASF9166
     /tmp/ccCwMAmf.s:98492  .debug_str:00000000000273c6 .LASF9167
     /tmp/ccCwMAmf.s:93132  .debug_str:00000000000111c0 .LASF9168
     /tmp/ccCwMAmf.s:104748  .debug_str:0000000000040982 .LASF9169
     /tmp/ccCwMAmf.s:96856  .debug_str:0000000000020c10 .LASF9170
     /tmp/ccCwMAmf.s:90856  .debug_str:000000000000825b .LASF9171
     /tmp/ccCwMAmf.s:108032  .debug_str:000000000004eac8 .LASF9172
     /tmp/ccCwMAmf.s:106240  .debug_str:00000000000470d2 .LASF9173
     /tmp/ccCwMAmf.s:98530  .debug_str:000000000002764b .LASF9174
     /tmp/ccCwMAmf.s:90858  .debug_str:0000000000008270 .LASF9175
     /tmp/ccCwMAmf.s:101538  .debug_str:0000000000033a7c .LASF9176
     /tmp/ccCwMAmf.s:90968  .debug_str:0000000000008a54 .LASF9177
     /tmp/ccCwMAmf.s:91466  .debug_str:000000000000abae .LASF9178
     /tmp/ccCwMAmf.s:93406  .debug_str:00000000000123ab .LASF9179
     /tmp/ccCwMAmf.s:90780  .debug_str:0000000000007dc1 .LASF9180
     /tmp/ccCwMAmf.s:103262  .debug_str:000000000003a6ac .LASF9181
     /tmp/ccCwMAmf.s:94978  .debug_str:00000000000188a1 .LASF9182
     /tmp/ccCwMAmf.s:94980  .debug_str:00000000000188b0 .LASF9183
     /tmp/ccCwMAmf.s:94982  .debug_str:00000000000188bf .LASF9184
     /tmp/ccCwMAmf.s:97038  .debug_str:00000000000217f0 .LASF9185
     /tmp/ccCwMAmf.s:95386  .debug_str:000000000001a4a4 .LASF9186
     /tmp/ccCwMAmf.s:95206  .debug_str:00000000000197d2 .LASF9187
     /tmp/ccCwMAmf.s:96988  .debug_str:00000000000214b0 .LASF9188
     /tmp/ccCwMAmf.s:104838  .debug_str:000000000004118d .LASF9189
     /tmp/ccCwMAmf.s:93540  .debug_str:0000000000012c3c .LASF9190
     /tmp/ccCwMAmf.s:102790  .debug_str:0000000000038bee .LASF9191
     /tmp/ccCwMAmf.s:92408  .debug_str:000000000000e86e .LASF9192
     /tmp/ccCwMAmf.s:93372  .debug_str:000000000001214d .LASF9193
     /tmp/ccCwMAmf.s:96978  .debug_str:00000000000213dc .LASF9194
     /tmp/ccCwMAmf.s:90208  .debug_str:00000000000056d2 .LASF9195
     /tmp/ccCwMAmf.s:90588  .debug_str:000000000000714b .LASF9196
     /tmp/ccCwMAmf.s:94040  .debug_str:0000000000014be6 .LASF9197
     /tmp/ccCwMAmf.s:93674  .debug_str:0000000000013670 .LASF9198
     /tmp/ccCwMAmf.s:104790  .debug_str:0000000000040d73 .LASF9199
     /tmp/ccCwMAmf.s:104786  .debug_str:0000000000040d61 .LASF9200
     /tmp/ccCwMAmf.s:104788  .debug_str:0000000000040d6a .LASF9201
     /tmp/ccCwMAmf.s:105118  .debug_str:00000000000427f6 .LASF9202
     /tmp/ccCwMAmf.s:104656  .debug_str:00000000000402b1 .LASF9203
     /tmp/ccCwMAmf.s:94834  .debug_str:0000000000017faf .LASF9204
     /tmp/ccCwMAmf.s:100628  .debug_str:000000000002fecf .LASF9205
     /tmp/ccCwMAmf.s:93810  .debug_str:0000000000013e37 .LASF9206
     /tmp/ccCwMAmf.s:97876  .debug_str:0000000000024ff5 .LASF9207
     /tmp/ccCwMAmf.s:100662  .debug_str:00000000000300ea .LASF9208
     /tmp/ccCwMAmf.s:104012  .debug_str:000000000003da33 .LASF9209
     /tmp/ccCwMAmf.s:94986  .debug_str:00000000000188f7 .LASF9210
     /tmp/ccCwMAmf.s:99336  .debug_str:000000000002abd1 .LASF9211
     /tmp/ccCwMAmf.s:90292  .debug_str:0000000000005c9e .LASF9212
     /tmp/ccCwMAmf.s:100674  .debug_str:0000000000030165 .LASF9213
     /tmp/ccCwMAmf.s:99168  .debug_str:000000000002a17a .LASF9214
     /tmp/ccCwMAmf.s:98024  .debug_str:0000000000025868 .LASF9215
     /tmp/ccCwMAmf.s:97320  .debug_str:0000000000022b46 .LASF9216
     /tmp/ccCwMAmf.s:90726  .debug_str:0000000000007a43 .LASF9217
     /tmp/ccCwMAmf.s:105432  .debug_str:0000000000043c4a .LASF9218
     /tmp/ccCwMAmf.s:100048  .debug_str:000000000002d7b9 .LASF9219
     /tmp/ccCwMAmf.s:99034  .debug_str:00000000000298bf .LASF9220
     /tmp/ccCwMAmf.s:97024  .debug_str:0000000000021763 .LASF9221
     /tmp/ccCwMAmf.s:94568  .debug_str:0000000000016dbb .LASF9222
     /tmp/ccCwMAmf.s:104664  .debug_str:000000000004032d .LASF9223
     /tmp/ccCwMAmf.s:104800  .debug_str:0000000000040e48 .LASF9224
     /tmp/ccCwMAmf.s:89322  .debug_str:0000000000001a67 .LASF9225
     /tmp/ccCwMAmf.s:95914  .debug_str:000000000001ca27 .LASF9226
     /tmp/ccCwMAmf.s:101816  .debug_str:0000000000034ca7 .LASF9227
     /tmp/ccCwMAmf.s:93202  .debug_str:0000000000011570 .LASF9228
     /tmp/ccCwMAmf.s:97446  .debug_str:00000000000233ce .LASF9229
     /tmp/ccCwMAmf.s:91436  .debug_str:000000000000a9f3 .LASF9230
     /tmp/ccCwMAmf.s:97584  .debug_str:0000000000023d77 .LASF9231
     /tmp/ccCwMAmf.s:99016  .debug_str:0000000000029773 .LASF9232
     /tmp/ccCwMAmf.s:93746  .debug_str:0000000000013a77 .LASF9233
     /tmp/ccCwMAmf.s:95802  .debug_str:000000000001c15f .LASF9234
     /tmp/ccCwMAmf.s:106660  .debug_str:0000000000048cac .LASF9235
     /tmp/ccCwMAmf.s:94462  .debug_str:0000000000016645 .LASF9236
     /tmp/ccCwMAmf.s:99926  .debug_str:000000000002d065 .LASF9237
     /tmp/ccCwMAmf.s:99214  .debug_str:000000000002a4db .LASF9238
     /tmp/ccCwMAmf.s:92554  .debug_str:000000000000efa3 .LASF9239
     /tmp/ccCwMAmf.s:91748  .debug_str:000000000000c076 .LASF9240
     /tmp/ccCwMAmf.s:92686  .debug_str:000000000000f779 .LASF9241
     /tmp/ccCwMAmf.s:91512  .debug_str:000000000000af34 .LASF9242
     /tmp/ccCwMAmf.s:107062  .debug_str:000000000004a796 .LASF9243
     /tmp/ccCwMAmf.s:98234  .debug_str:00000000000263a1 .LASF9244
     /tmp/ccCwMAmf.s:105292  .debug_str:000000000004333d .LASF9245
     /tmp/ccCwMAmf.s:90364  .debug_str:000000000000612c .LASF9246
     /tmp/ccCwMAmf.s:92356  .debug_str:000000000000e5e4 .LASF9247
     /tmp/ccCwMAmf.s:103810  .debug_str:000000000003cce2 .LASF9248
     /tmp/ccCwMAmf.s:93260  .debug_str:0000000000011995 .LASF9249
     /tmp/ccCwMAmf.s:98928  .debug_str:000000000002926e .LASF9250
     /tmp/ccCwMAmf.s:90590  .debug_str:0000000000007166 .LASF9251
     /tmp/ccCwMAmf.s:94706  .debug_str:0000000000017754 .LASF9252
     /tmp/ccCwMAmf.s:91592  .debug_str:000000000000b523 .LASF9253
     /tmp/ccCwMAmf.s:101056  .debug_str:00000000000319ec .LASF9254
     /tmp/ccCwMAmf.s:88980  .debug_str:0000000000000246 .LASF9255
     /tmp/ccCwMAmf.s:104624  .debug_str:00000000000400f5 .LASF9256
     /tmp/ccCwMAmf.s:95302  .debug_str:0000000000019e7d .LASF9257
     /tmp/ccCwMAmf.s:99574  .debug_str:000000000002baf0 .LASF9258
     /tmp/ccCwMAmf.s:90214  .debug_str:0000000000005705 .LASF9259
     /tmp/ccCwMAmf.s:103236  .debug_str:000000000003a4aa .LASF9260
     /tmp/ccCwMAmf.s:90404  .debug_str:00000000000063e7 .LASF9261
     /tmp/ccCwMAmf.s:101052  .debug_str:00000000000319a8 .LASF9262
     /tmp/ccCwMAmf.s:98856  .debug_str:0000000000028cf1 .LASF9263
     /tmp/ccCwMAmf.s:89932  .debug_str:000000000000447b .LASF9264
     /tmp/ccCwMAmf.s:106960  .debug_str:000000000004a099 .LASF9265
     /tmp/ccCwMAmf.s:98402  .debug_str:0000000000026ed0 .LASF9266
     /tmp/ccCwMAmf.s:106358  .debug_str:000000000004793b .LASF9267
     /tmp/ccCwMAmf.s:98096  .debug_str:0000000000025bfe .LASF9268
     /tmp/ccCwMAmf.s:95480  .debug_str:000000000001abdd .LASF9269
     /tmp/ccCwMAmf.s:107318  .debug_str:000000000004b974 .LASF9270
     /tmp/ccCwMAmf.s:95614  .debug_str:000000000001b446 .LASF9271
     /tmp/ccCwMAmf.s:98626  .debug_str:0000000000027d0a .LASF9272
     /tmp/ccCwMAmf.s:103902  .debug_str:000000000003d25e .LASF9273
     /tmp/ccCwMAmf.s:89500  .debug_str:00000000000026f9 .LASF9274
     /tmp/ccCwMAmf.s:89706  .debug_str:00000000000034ed .LASF9275
     /tmp/ccCwMAmf.s:99484  .debug_str:000000000002b5c5 .LASF9276
     /tmp/ccCwMAmf.s:95618  .debug_str:000000000001b48a .LASF9277
     /tmp/ccCwMAmf.s:102562  .debug_str:0000000000037f64 .LASF9278
     /tmp/ccCwMAmf.s:98938  .debug_str:000000000002930f .LASF9279
     /tmp/ccCwMAmf.s:101718  .debug_str:0000000000034508 .LASF9280
     /tmp/ccCwMAmf.s:96804  .debug_str:00000000000208e5 .LASF9281
     /tmp/ccCwMAmf.s:97726  .debug_str:000000000002472b .LASF9282
     /tmp/ccCwMAmf.s:95202  .debug_str:00000000000197c1 .LASF9283
     /tmp/ccCwMAmf.s:89256  .debug_str:00000000000014d0 .LASF9284
     /tmp/ccCwMAmf.s:97154  .debug_str:000000000002200d .LASF9285
     /tmp/ccCwMAmf.s:92344  .debug_str:000000000000e4d8 .LASF9286
     /tmp/ccCwMAmf.s:101048  .debug_str:0000000000031957 .LASF9287
     /tmp/ccCwMAmf.s:106290  .debug_str:00000000000474c4 .LASF9288
     /tmp/ccCwMAmf.s:97108  .debug_str:0000000000021dcd .LASF9289
     /tmp/ccCwMAmf.s:102940  .debug_str:00000000000393a5 .LASF9290
     /tmp/ccCwMAmf.s:96828  .debug_str:0000000000020ab1 .LASF9291
     /tmp/ccCwMAmf.s:97104  .debug_str:0000000000021d99 .LASF9292
     /tmp/ccCwMAmf.s:105492  .debug_str:0000000000044030 .LASF9293
     /tmp/ccCwMAmf.s:99050  .debug_str:0000000000029994 .LASF9294
     /tmp/ccCwMAmf.s:91488  .debug_str:000000000000adb4 .LASF9295
     /tmp/ccCwMAmf.s:90786  .debug_str:0000000000007e29 .LASF9296
     /tmp/ccCwMAmf.s:99390  .debug_str:000000000002afe1 .LASF9297
     /tmp/ccCwMAmf.s:106128  .debug_str:0000000000046962 .LASF9298
     /tmp/ccCwMAmf.s:104916  .debug_str:000000000004169a .LASF9299
     /tmp/ccCwMAmf.s:102746  .debug_str:00000000000388fa .LASF9300
     /tmp/ccCwMAmf.s:97492  .debug_str:000000000002377d .LASF9301
     /tmp/ccCwMAmf.s:105246  .debug_str:0000000000042fef .LASF9302
     /tmp/ccCwMAmf.s:100800  .debug_str:00000000000309ed .LASF9303
     /tmp/ccCwMAmf.s:101264  .debug_str:0000000000032824 .LASF9304
     /tmp/ccCwMAmf.s:90432  .debug_str:0000000000006598 .LASF9305
     /tmp/ccCwMAmf.s:107674  .debug_str:000000000004d15b .LASF9306
     /tmp/ccCwMAmf.s:106214  .debug_str:0000000000046f54 .LASF9307
     /tmp/ccCwMAmf.s:100296  .debug_str:000000000002e877 .LASF9308
     /tmp/ccCwMAmf.s:90094  .debug_str:0000000000004f59 .LASF9309
     /tmp/ccCwMAmf.s:96100  .debug_str:000000000001d65c .LASF9310
     /tmp/ccCwMAmf.s:105428  .debug_str:0000000000043c33 .LASF9311
     /tmp/ccCwMAmf.s:104158  .debug_str:000000000003e476 .LASF9312
     /tmp/ccCwMAmf.s:96796  .debug_str:00000000000208be .LASF9313
     /tmp/ccCwMAmf.s:96798  .debug_str:00000000000208c8 .LASF9314
     /tmp/ccCwMAmf.s:106824  .debug_str:000000000004977a .LASF9315
     /tmp/ccCwMAmf.s:96802  .debug_str:00000000000208db .LASF9316
     /tmp/ccCwMAmf.s:101900  .debug_str:000000000003528f .LASF9317
     /tmp/ccCwMAmf.s:100646  .debug_str:000000000002ffd7 .LASF9318
     /tmp/ccCwMAmf.s:106072  .debug_str:0000000000046605 .LASF9319
     /tmp/ccCwMAmf.s:99164  .debug_str:000000000002a135 .LASF9320
     /tmp/ccCwMAmf.s:95330  .debug_str:000000000001a031 .LASF9321
     /tmp/ccCwMAmf.s:101490  .debug_str:0000000000033718 .LASF9322
     /tmp/ccCwMAmf.s:91340  .debug_str:000000000000a35d .LASF9323
     /tmp/ccCwMAmf.s:95102  .debug_str:0000000000019086 .LASF9324
     /tmp/ccCwMAmf.s:91342  .debug_str:000000000000a368 .LASF9325
     /tmp/ccCwMAmf.s:93316  .debug_str:0000000000011d70 .LASF9326
     /tmp/ccCwMAmf.s:91344  .debug_str:000000000000a373 .LASF9327
     /tmp/ccCwMAmf.s:99710  .debug_str:000000000002c37f .LASF9328
     /tmp/ccCwMAmf.s:91346  .debug_str:000000000000a37e .LASF9329
     /tmp/ccCwMAmf.s:96086  .debug_str:000000000001d549 .LASF9330
     /tmp/ccCwMAmf.s:91348  .debug_str:000000000000a389 .LASF9331
     /tmp/ccCwMAmf.s:89880  .debug_str:0000000000004023 .LASF9332
     /tmp/ccCwMAmf.s:102050  .debug_str:0000000000035dd4 .LASF9333
     /tmp/ccCwMAmf.s:90250  .debug_str:00000000000059df .LASF9334
     /tmp/ccCwMAmf.s:98962  .debug_str:0000000000029476 .LASF9335
     /tmp/ccCwMAmf.s:105630  .debug_str:0000000000044932 .LASF9336
     /tmp/ccCwMAmf.s:98964  .debug_str:0000000000029480 .LASF9337
     /tmp/ccCwMAmf.s:103044  .debug_str:000000000003990b .LASF9338
     /tmp/ccCwMAmf.s:98966  .debug_str:000000000002948a .LASF9339
     /tmp/ccCwMAmf.s:93338  .debug_str:0000000000011ea4 .LASF9340
     /tmp/ccCwMAmf.s:98968  .debug_str:0000000000029494 .LASF9341
     /tmp/ccCwMAmf.s:106586  .debug_str:00000000000487ff .LASF9342
     /tmp/ccCwMAmf.s:98970  .debug_str:000000000002949e .LASF9343
     /tmp/ccCwMAmf.s:102604  .debug_str:000000000003815c .LASF9344
     /tmp/ccCwMAmf.s:98972  .debug_str:00000000000294a8 .LASF9345
     /tmp/ccCwMAmf.s:94310  .debug_str:0000000000015d41 .LASF9346
     /tmp/ccCwMAmf.s:98974  .debug_str:00000000000294b2 .LASF9347
     /tmp/ccCwMAmf.s:107540  .debug_str:000000000004c83f .LASF9348
     /tmp/ccCwMAmf.s:97968  .debug_str:00000000000254fe .LASF9349
     /tmp/ccCwMAmf.s:92320  .debug_str:000000000000e37d .LASF9350
     /tmp/ccCwMAmf.s:95122  .debug_str:000000000001919b .LASF9351
     /tmp/ccCwMAmf.s:99506  .debug_str:000000000002b75d .LASF9352
     /tmp/ccCwMAmf.s:93266  .debug_str:0000000000011a15 .LASF9353
     /tmp/ccCwMAmf.s:94128  .debug_str:0000000000015166 .LASF9354
     /tmp/ccCwMAmf.s:105938  .debug_str:0000000000045db8 .LASF9355
     /tmp/ccCwMAmf.s:92972  .debug_str:0000000000010837 .LASF9356
     /tmp/ccCwMAmf.s:104808  .debug_str:0000000000040eb6 .LASF9357
     /tmp/ccCwMAmf.s:107026  .debug_str:000000000004a4ab .LASF9358
     /tmp/ccCwMAmf.s:104084  .debug_str:000000000003df88 .LASF9359
     /tmp/ccCwMAmf.s:93970  .debug_str:0000000000014862 .LASF9360
     /tmp/ccCwMAmf.s:89360  .debug_str:0000000000001d1e .LASF9361
     /tmp/ccCwMAmf.s:99978  .debug_str:000000000002d36b .LASF9362
     /tmp/ccCwMAmf.s:107140  .debug_str:000000000004ac91 .LASF9363
     /tmp/ccCwMAmf.s:103378  .debug_str:000000000003aeeb .LASF9364
     /tmp/ccCwMAmf.s:101092  .debug_str:0000000000031be6 .LASF9365
     /tmp/ccCwMAmf.s:105566  .debug_str:0000000000044548 .LASF9366
     /tmp/ccCwMAmf.s:96818  .debug_str:00000000000209f0 .LASF9367
     /tmp/ccCwMAmf.s:100946  .debug_str:00000000000312e8 .LASF9368
     /tmp/ccCwMAmf.s:93422  .debug_str:000000000001244e .LASF9369
     /tmp/ccCwMAmf.s:93648  .debug_str:0000000000013469 .LASF9370
     /tmp/ccCwMAmf.s:95698  .debug_str:000000000001b9e0 .LASF9371
     /tmp/ccCwMAmf.s:96850  .debug_str:0000000000020bda .LASF9372
     /tmp/ccCwMAmf.s:98348  .debug_str:0000000000026b0d .LASF9373
     /tmp/ccCwMAmf.s:90938  .debug_str:0000000000008822 .LASF9374
     /tmp/ccCwMAmf.s:100208  .debug_str:000000000002e265 .LASF9375
     /tmp/ccCwMAmf.s:95286  .debug_str:0000000000019d85 .LASF9376
     /tmp/ccCwMAmf.s:94490  .debug_str:0000000000016881 .LASF9377
     /tmp/ccCwMAmf.s:105976  .debug_str:0000000000046047 .LASF9378
     /tmp/ccCwMAmf.s:95254  .debug_str:0000000000019b69 .LASF9379
     /tmp/ccCwMAmf.s:98910  .debug_str:000000000002911e .LASF9380
     /tmp/ccCwMAmf.s:89154  .debug_str:0000000000000df0 .LASF9381
     /tmp/ccCwMAmf.s:95878  .debug_str:000000000001c73e .LASF9382
     /tmp/ccCwMAmf.s:102574  .debug_str:0000000000037f8e .LASF9383
     /tmp/ccCwMAmf.s:100958  .debug_str:0000000000031373 .LASF9384
     /tmp/ccCwMAmf.s:97474  .debug_str:000000000002364b .LASF9385
     /tmp/ccCwMAmf.s:98606  .debug_str:0000000000027c1b .LASF9386
     /tmp/ccCwMAmf.s:97274  .debug_str:0000000000022833 .LASF9387
     /tmp/ccCwMAmf.s:89204  .debug_str:0000000000001185 .LASF9388
     /tmp/ccCwMAmf.s:89358  .debug_str:0000000000001cfa .LASF9389
     /tmp/ccCwMAmf.s:92048  .debug_str:000000000000d45c .LASF9390
     /tmp/ccCwMAmf.s:91784  .debug_str:000000000000c294 .LASF9391
     /tmp/ccCwMAmf.s:100198  .debug_str:000000000002e1fc .LASF9392
     /tmp/ccCwMAmf.s:95948  .debug_str:000000000001cc3a .LASF9393
     /tmp/ccCwMAmf.s:99940  .debug_str:000000000002d16b .LASF9394
     /tmp/ccCwMAmf.s:99942  .debug_str:000000000002d170 .LASF9395
     /tmp/ccCwMAmf.s:90746  .debug_str:0000000000007b60 .LASF9396
     /tmp/ccCwMAmf.s:90748  .debug_str:0000000000007b65 .LASF9397
     /tmp/ccCwMAmf.s:107320  .debug_str:000000000004b989 .LASF9398
     /tmp/ccCwMAmf.s:103822  .debug_str:000000000003cd73 .LASF9399
     /tmp/ccCwMAmf.s:105166  .debug_str:0000000000042ac0 .LASF9400
     /tmp/ccCwMAmf.s:105168  .debug_str:0000000000042ac6 .LASF9401
     /tmp/ccCwMAmf.s:98400  .debug_str:0000000000026eca .LASF9402
     /tmp/ccCwMAmf.s:98404  .debug_str:0000000000026ede .LASF9403
     /tmp/ccCwMAmf.s:106458  .debug_str:0000000000048001 .LASF9404
     /tmp/ccCwMAmf.s:95238  .debug_str:0000000000019a0b .LASF9405
     /tmp/ccCwMAmf.s:105626  .debug_str:000000000004490c .LASF9406
     /tmp/ccCwMAmf.s:89804  .debug_str:0000000000003b2e .LASF9407
     /tmp/ccCwMAmf.s:97030  .debug_str:00000000000217a3 .LASF9408
     /tmp/ccCwMAmf.s:99674  .debug_str:000000000002c17e .LASF9409
     /tmp/ccCwMAmf.s:105110  .debug_str:0000000000042744 .LASF9410
     /tmp/ccCwMAmf.s:93286  .debug_str:0000000000011b85 .LASF9411
     /tmp/ccCwMAmf.s:99990  .debug_str:000000000002d456 .LASF9412
     /tmp/ccCwMAmf.s:89622  .debug_str:0000000000002f21 .LASF9413
     /tmp/ccCwMAmf.s:100936  .debug_str:0000000000031261 .LASF9414
     /tmp/ccCwMAmf.s:97676  .debug_str:00000000000243b2 .LASF9415
     /tmp/ccCwMAmf.s:99992  .debug_str:000000000002d45f .LASF9416
     /tmp/ccCwMAmf.s:99548  .debug_str:000000000002b99e .LASF9417
     /tmp/ccCwMAmf.s:95272  .debug_str:0000000000019c9e .LASF9418
     /tmp/ccCwMAmf.s:90716  .debug_str:00000000000079ab .LASF9419
     /tmp/ccCwMAmf.s:100540  .debug_str:000000000002f933 .LASF9420
     /tmp/ccCwMAmf.s:90160  .debug_str:0000000000005358 .LASF9421
     /tmp/ccCwMAmf.s:104576  .debug_str:000000000003fe02 .LASF9422
     /tmp/ccCwMAmf.s:107858  .debug_str:000000000004df47 .LASF9423
     /tmp/ccCwMAmf.s:96536  .debug_str:000000000001f588 .LASF9424
     /tmp/ccCwMAmf.s:108122  .debug_str:000000000004f0cb .LASF9425
     /tmp/ccCwMAmf.s:91080  .debug_str:00000000000091d7 .LASF9426
     /tmp/ccCwMAmf.s:89560  .debug_str:0000000000002b2c .LASF9427
     /tmp/ccCwMAmf.s:105216  .debug_str:0000000000042da0 .LASF9428
     /tmp/ccCwMAmf.s:104484  .debug_str:000000000003f888 .LASF9429
     /tmp/ccCwMAmf.s:98558  .debug_str:0000000000027889 .LASF9430
     /tmp/ccCwMAmf.s:103240  .debug_str:000000000003a4ed .LASF9431
     /tmp/ccCwMAmf.s:106438  .debug_str:0000000000047ebd .LASF9432
     /tmp/ccCwMAmf.s:94888  .debug_str:000000000001832c .LASF9433
     /tmp/ccCwMAmf.s:100568  .debug_str:000000000002facc .LASF9434
     /tmp/ccCwMAmf.s:103996  .debug_str:000000000003d8fb .LASF9435
     /tmp/ccCwMAmf.s:101356  .debug_str:0000000000032de8 .LASF9436
     /tmp/ccCwMAmf.s:99856  .debug_str:000000000002cc87 .LASF9437
     /tmp/ccCwMAmf.s:94678  .debug_str:00000000000174f1 .LASF9438
     /tmp/ccCwMAmf.s:93998  .debug_str:0000000000014a14 .LASF9439
     /tmp/ccCwMAmf.s:96556  .debug_str:000000000001f731 .LASF9440
     /tmp/ccCwMAmf.s:96460  .debug_str:000000000001ef62 .LASF9441
     /tmp/ccCwMAmf.s:101612  .debug_str:0000000000033edf .LASF9442
     /tmp/ccCwMAmf.s:104752  .debug_str:00000000000409b2 .LASF9443
     /tmp/ccCwMAmf.s:95632  .debug_str:000000000001b5bb .LASF9444
     /tmp/ccCwMAmf.s:95640  .debug_str:000000000001b5f5 .LASF9445
     /tmp/ccCwMAmf.s:99756  .debug_str:000000000002c63d .LASF9446
     /tmp/ccCwMAmf.s:102432  .debug_str:0000000000037692 .LASF9447
     /tmp/ccCwMAmf.s:99860  .debug_str:000000000002ccba .LASF9448
     /tmp/ccCwMAmf.s:93452  .debug_str:0000000000012648 .LASF9449
     /tmp/ccCwMAmf.s:96262  .debug_str:000000000001e249 .LASF9450
     /tmp/ccCwMAmf.s:95840  .debug_str:000000000001c4eb .LASF9451
     /tmp/ccCwMAmf.s:108226  .debug_str:000000000004f807 .LASF9452
     /tmp/ccCwMAmf.s:89126  .debug_str:0000000000000c20 .LASF9453
     /tmp/ccCwMAmf.s:89248  .debug_str:0000000000001461 .LASF9454
     /tmp/ccCwMAmf.s:95462  .debug_str:000000000001aa49 .LASF9455
     /tmp/ccCwMAmf.s:90470  .debug_str:000000000000683b .LASF9456
     /tmp/ccCwMAmf.s:98110  .debug_str:0000000000025cfa .LASF9457
     /tmp/ccCwMAmf.s:104750  .debug_str:00000000000409ab .LASF9458
     /tmp/ccCwMAmf.s:95638  .debug_str:000000000001b5eb .LASF9459
     /tmp/ccCwMAmf.s:99404  .debug_str:000000000002b092 .LASF9460
     /tmp/ccCwMAmf.s:95184  .debug_str:000000000001966e .LASF9461
     /tmp/ccCwMAmf.s:89250  .debug_str:000000000000146c .LASF9462
     /tmp/ccCwMAmf.s:89286  .debug_str:00000000000016d8 .LASF9463
     /tmp/ccCwMAmf.s:102552  .debug_str:0000000000037ebd .LASF9464
     /tmp/ccCwMAmf.s:96410  .debug_str:000000000001ec52 .LASF9465
     /tmp/ccCwMAmf.s:96412  .debug_str:000000000001ec5c .LASF9466
     /tmp/ccCwMAmf.s:96414  .debug_str:000000000001ec66 .LASF9467
     /tmp/ccCwMAmf.s:96416  .debug_str:000000000001ec70 .LASF9468
     /tmp/ccCwMAmf.s:96418  .debug_str:000000000001ec7a .LASF9469
     /tmp/ccCwMAmf.s:101642  .debug_str:000000000003409a .LASF9470
     /tmp/ccCwMAmf.s:96420  .debug_str:000000000001ec84 .LASF9471
     /tmp/ccCwMAmf.s:92516  .debug_str:000000000000ed66 .LASF9472
     /tmp/ccCwMAmf.s:92518  .debug_str:000000000000ed71 .LASF9473
     /tmp/ccCwMAmf.s:107748  .debug_str:000000000004d6e4 .LASF9474
     /tmp/ccCwMAmf.s:104912  .debug_str:0000000000041684 .LASF9475
     /tmp/ccCwMAmf.s:90610  .debug_str:00000000000072d2 .LASF9476
     /tmp/ccCwMAmf.s:97396  .debug_str:000000000002302a .LASF9477
     /tmp/ccCwMAmf.s:90774  .debug_str:0000000000007d6b .LASF9478
     /tmp/ccCwMAmf.s:104914  .debug_str:000000000004168f .LASF9479
     /tmp/ccCwMAmf.s:103946  .debug_str:000000000003d53e .LASF9480
     /tmp/ccCwMAmf.s:89428  .debug_str:00000000000021f0 .LASF9481
     /tmp/ccCwMAmf.s:100072  .debug_str:000000000002d9b0 .LASF9482
     /tmp/ccCwMAmf.s:97732  .debug_str:000000000002478e .LASF9483
     /tmp/ccCwMAmf.s:104146  .debug_str:000000000003e3c9 .LASF9484
     /tmp/ccCwMAmf.s:103776  .debug_str:000000000003ca6f .LASF9485
     /tmp/ccCwMAmf.s:89410  .debug_str:00000000000020cb .LASF9486
     /tmp/ccCwMAmf.s:93604  .debug_str:00000000000130c6 .LASF9487
     /tmp/ccCwMAmf.s:96634  .debug_str:000000000001fc02 .LASF9488
     /tmp/ccCwMAmf.s:97802  .debug_str:0000000000024bd9 .LASF9489
     /tmp/ccCwMAmf.s:93162  .debug_str:00000000000113ac .LASF9490
     /tmp/ccCwMAmf.s:97804  .debug_str:0000000000024be4 .LASF9491
     /tmp/ccCwMAmf.s:105622  .debug_str:00000000000448a1 .LASF9492
     /tmp/ccCwMAmf.s:94092  .debug_str:0000000000014f3b .LASF9493
     /tmp/ccCwMAmf.s:107798  .debug_str:000000000004db14 .LASF9494
     /tmp/ccCwMAmf.s:94094  .debug_str:0000000000014f46 .LASF9495
     /tmp/ccCwMAmf.s:101744  .debug_str:0000000000034751 .LASF9496
     /tmp/ccCwMAmf.s:94096  .debug_str:0000000000014f51 .LASF9497
     /tmp/ccCwMAmf.s:95528  .debug_str:000000000001aee0 .LASF9498
     /tmp/ccCwMAmf.s:97114  .debug_str:0000000000021e08 .LASF9499
     /tmp/ccCwMAmf.s:102702  .debug_str:0000000000038726 .LASF9500
     /tmp/ccCwMAmf.s:93892  .debug_str:0000000000014347 .LASF9501
     /tmp/ccCwMAmf.s:91024  .debug_str:0000000000008dd9 .LASF9502
     /tmp/ccCwMAmf.s:93894  .debug_str:0000000000014352 .LASF9503
     /tmp/ccCwMAmf.s:104356  .debug_str:000000000003f063 .LASF9504
     /tmp/ccCwMAmf.s:94230  .debug_str:000000000001580e .LASF9505
     /tmp/ccCwMAmf.s:105734  .debug_str:0000000000045012 .LASF9506
     /tmp/ccCwMAmf.s:102726  .debug_str:0000000000038898 .LASF9507
     /tmp/ccCwMAmf.s:99646  .debug_str:000000000002bff6 .LASF9508
     /tmp/ccCwMAmf.s:94238  .debug_str:000000000001587f .LASF9509
     /tmp/ccCwMAmf.s:105504  .debug_str:00000000000440df .LASF9510
     /tmp/ccCwMAmf.s:100796  .debug_str:00000000000309d0 .LASF9511
     /tmp/ccCwMAmf.s:89230  .debug_str:00000000000012f0 .LASF9512
     /tmp/ccCwMAmf.s:95584  .debug_str:000000000001b270 .LASF9513
     /tmp/ccCwMAmf.s:108238  .debug_str:000000000004f8a4 .LASF9514
     /tmp/ccCwMAmf.s:95586  .debug_str:000000000001b27b .LASF9515
     /tmp/ccCwMAmf.s:101380  .debug_str:0000000000032f2a .LASF9516
     /tmp/ccCwMAmf.s:91722  .debug_str:000000000000beca .LASF9517
     /tmp/ccCwMAmf.s:90928  .debug_str:00000000000087bc .LASF9518
     /tmp/ccCwMAmf.s:91724  .debug_str:000000000000bed5 .LASF9519
     /tmp/ccCwMAmf.s:97478  .debug_str:0000000000023675 .LASF9520
     /tmp/ccCwMAmf.s:91726  .debug_str:000000000000bee0 .LASF9521
     /tmp/ccCwMAmf.s:91246  .debug_str:0000000000009da7 .LASF9522
     /tmp/ccCwMAmf.s:104376  .debug_str:000000000003f1d6 .LASF9523
     /tmp/ccCwMAmf.s:95284  .debug_str:0000000000019d5f .LASF9524
     /tmp/ccCwMAmf.s:98950  .debug_str:00000000000293dd .LASF9525
     /tmp/ccCwMAmf.s:98952  .debug_str:00000000000293f1 .LASF9526
     /tmp/ccCwMAmf.s:98954  .debug_str:0000000000029405 .LASF9527
     /tmp/ccCwMAmf.s:97970  .debug_str:000000000002550a .LASF9528
     /tmp/ccCwMAmf.s:97972  .debug_str:000000000002551b .LASF9529
     /tmp/ccCwMAmf.s:89444  .debug_str:0000000000002353 .LASF9530
     /tmp/ccCwMAmf.s:97976  .debug_str:0000000000025559 .LASF9531
     /tmp/ccCwMAmf.s:97978  .debug_str:000000000002556a .LASF9532
     /tmp/ccCwMAmf.s:90744  .debug_str:0000000000007b4e .LASF9533
     /tmp/ccCwMAmf.s:98056  .debug_str:0000000000025997 .LASF9534
     /tmp/ccCwMAmf.s:94206  .debug_str:0000000000015643 .LASF9535
     /tmp/ccCwMAmf.s:94232  .debug_str:0000000000015819 .LASF9536
     /tmp/ccCwMAmf.s:107656  .debug_str:000000000004d05e .LASF9537
     /tmp/ccCwMAmf.s:105378  .debug_str:0000000000043900 .LASF9538
     /tmp/ccCwMAmf.s:101486  .debug_str:00000000000336ee .LASF9539
     /tmp/ccCwMAmf.s:106842  .debug_str:00000000000498d2 .LASF9540
     /tmp/ccCwMAmf.s:105556  .debug_str:0000000000044474 .LASF9541
     /tmp/ccCwMAmf.s:93380  .debug_str:00000000000121e1 .LASF9542
     /tmp/ccCwMAmf.s:96036  .debug_str:000000000001d212 .LASF9543
     /tmp/ccCwMAmf.s:99882  .debug_str:000000000002cdde .LASF9544
     /tmp/ccCwMAmf.s:102516  .debug_str:0000000000037ba0 .LASF9545
     /tmp/ccCwMAmf.s:105470  .debug_str:0000000000043ef5 .LASF9546
     /tmp/ccCwMAmf.s:90134  .debug_str:00000000000051d2 .LASF9547
     /tmp/ccCwMAmf.s:97232  .debug_str:0000000000022558 .LASF9548
     /tmp/ccCwMAmf.s:105236  .debug_str:0000000000042f26 .LASF9549
     /tmp/ccCwMAmf.s:99670  .debug_str:000000000002c168 .LASF9550
     /tmp/ccCwMAmf.s:98278  .debug_str:0000000000026645 .LASF9551
     /tmp/ccCwMAmf.s:100384  .debug_str:000000000002ee50 .LASF9552
     /tmp/ccCwMAmf.s:91432  .debug_str:000000000000a9d2 .LASF9553
     /tmp/ccCwMAmf.s:97458  .debug_str:0000000000023471 .LASF9554
     /tmp/ccCwMAmf.s:100816  .debug_str:0000000000030b04 .LASF9555
     /tmp/ccCwMAmf.s:96732  .debug_str:00000000000203a5 .LASF9556
     /tmp/ccCwMAmf.s:103298  .debug_str:000000000003a946 .LASF9557
     /tmp/ccCwMAmf.s:103300  .debug_str:000000000003a951 .LASF9558
     /tmp/ccCwMAmf.s:103302  .debug_str:000000000003a95c .LASF9559
     /tmp/ccCwMAmf.s:103304  .debug_str:000000000003a967 .LASF9560
     /tmp/ccCwMAmf.s:89722  .debug_str:0000000000003589 .LASF9561
     /tmp/ccCwMAmf.s:96598  .debug_str:000000000001f9c4 .LASF9562
     /tmp/ccCwMAmf.s:102104  .debug_str:00000000000360f0 .LASF9563
     /tmp/ccCwMAmf.s:101300  .debug_str:0000000000032a79 .LASF9564
     /tmp/ccCwMAmf.s:107890  .debug_str:000000000004e183 .LASF9565
     /tmp/ccCwMAmf.s:105842  .debug_str:00000000000457bc .LASF9566
     /tmp/ccCwMAmf.s:91252  .debug_str:0000000000009e03 .LASF9567
     /tmp/ccCwMAmf.s:105364  .debug_str:0000000000043815 .LASF9568
     /tmp/ccCwMAmf.s:107252  .debug_str:000000000004b537 .LASF9569
     /tmp/ccCwMAmf.s:104302  .debug_str:000000000003ed04 .LASF9570
     /tmp/ccCwMAmf.s:93064  .debug_str:0000000000010dbe .LASF9571
     /tmp/ccCwMAmf.s:95704  .debug_str:000000000001ba6c .LASF9572
     /tmp/ccCwMAmf.s:100512  .debug_str:000000000002f770 .LASF9573
     /tmp/ccCwMAmf.s:89006  .debug_str:000000000000040c .LASF9574
     /tmp/ccCwMAmf.s:107110  .debug_str:000000000004aabc .LASF9575
     /tmp/ccCwMAmf.s:107112  .debug_str:000000000004aac9 .LASF9576
     /tmp/ccCwMAmf.s:105484  .debug_str:0000000000043fa2 .LASF9577
     /tmp/ccCwMAmf.s:98064  .debug_str:00000000000259f0 .LASF9578
     /tmp/ccCwMAmf.s:97918  .debug_str:0000000000025264 .LASF9579
     /tmp/ccCwMAmf.s:93676  .debug_str:0000000000013679 .LASF9580
     /tmp/ccCwMAmf.s:93100  .debug_str:0000000000010f5c .LASF9581
     /tmp/ccCwMAmf.s:108304  .debug_str:000000000004fd73 .LASF9582
     /tmp/ccCwMAmf.s:100704  .debug_str:0000000000030363 .LASF9583
     /tmp/ccCwMAmf.s:98366  .debug_str:0000000000026c7b .LASF9584
     /tmp/ccCwMAmf.s:99588  .debug_str:000000000002bba2 .LASF9585
     /tmp/ccCwMAmf.s:99590  .debug_str:000000000002bbaf .LASF9586
     /tmp/ccCwMAmf.s:92108  .debug_str:000000000000d7e9 .LASF9587
     /tmp/ccCwMAmf.s:92200  .debug_str:000000000000dcb1 .LASF9588
     /tmp/ccCwMAmf.s:95732  .debug_str:000000000001bc93 .LASF9589
     /tmp/ccCwMAmf.s:90092  .debug_str:0000000000004f49 .LASF9590
     /tmp/ccCwMAmf.s:92292  .debug_str:000000000000e1f9 .LASF9591
     /tmp/ccCwMAmf.s:92294  .debug_str:000000000000e20d .LASF9592
     /tmp/ccCwMAmf.s:104288  .debug_str:000000000003ec22 .LASF9593
     /tmp/ccCwMAmf.s:104292  .debug_str:000000000003ec5b .LASF9594
     /tmp/ccCwMAmf.s:89314  .debug_str:00000000000019c7 .LASF9595
     /tmp/ccCwMAmf.s:92302  .debug_str:000000000000e29b .LASF9596
     /tmp/ccCwMAmf.s:92304  .debug_str:000000000000e2af .LASF9597
     /tmp/ccCwMAmf.s:92306  .debug_str:000000000000e2c3 .LASF9598
     /tmp/ccCwMAmf.s:92308  .debug_str:000000000000e2d7 .LASF9599
     /tmp/ccCwMAmf.s:92310  .debug_str:000000000000e2eb .LASF9600
     /tmp/ccCwMAmf.s:97682  .debug_str:000000000002441e .LASF9601
     /tmp/ccCwMAmf.s:97684  .debug_str:0000000000024433 .LASF9602
     /tmp/ccCwMAmf.s:100114  .debug_str:000000000002dc1f .LASF9603
     /tmp/ccCwMAmf.s:97688  .debug_str:000000000002448e .LASF9604
     /tmp/ccCwMAmf.s:97690  .debug_str:00000000000244a3 .LASF9605
     /tmp/ccCwMAmf.s:97692  .debug_str:00000000000244b8 .LASF9606
     /tmp/ccCwMAmf.s:104134  .debug_str:000000000003e302 .LASF9607
     /tmp/ccCwMAmf.s:99032  .debug_str:00000000000298b3 .LASF9608
     /tmp/ccCwMAmf.s:92090  .debug_str:000000000000d6cc .LASF9609
     /tmp/ccCwMAmf.s:107088  .debug_str:000000000004a958 .LASF9610
     /tmp/ccCwMAmf.s:101120  .debug_str:0000000000031d8d .LASF9611
     /tmp/ccCwMAmf.s:93784  .debug_str:0000000000013ca9 .LASF9612
     /tmp/ccCwMAmf.s:96464  .debug_str:000000000001efa0 .LASF9613
     /tmp/ccCwMAmf.s:103190  .debug_str:000000000003a1bd .LASF9614
     /tmp/ccCwMAmf.s:92552  .debug_str:000000000000ef8c .LASF9615
     /tmp/ccCwMAmf.s:103100  .debug_str:0000000000039c2a .LASF9616
     /tmp/ccCwMAmf.s:100810  .debug_str:0000000000030aac .LASF9617
     /tmp/ccCwMAmf.s:103932  .debug_str:000000000003d46d .LASF9618
     /tmp/ccCwMAmf.s:93528  .debug_str:0000000000012b6c .LASF9619
     /tmp/ccCwMAmf.s:107452  .debug_str:000000000004c235 .LASF9620
     /tmp/ccCwMAmf.s:93602  .debug_str:00000000000130b6 .LASF9621
     /tmp/ccCwMAmf.s:96848  .debug_str:0000000000020bc7 .LASF9622
     /tmp/ccCwMAmf.s:93680  .debug_str:000000000001369c .LASF9623
     /tmp/ccCwMAmf.s:96936  .debug_str:000000000002111f .LASF9624
     /tmp/ccCwMAmf.s:93756  .debug_str:0000000000013b02 .LASF9625
     /tmp/ccCwMAmf.s:97014  .debug_str:00000000000216ac .LASF9626
     /tmp/ccCwMAmf.s:93842  .debug_str:000000000001400e .LASF9627
     /tmp/ccCwMAmf.s:97092  .debug_str:0000000000021cb4 .LASF9628
     /tmp/ccCwMAmf.s:102276  .debug_str:0000000000036cad .LASF9629
     /tmp/ccCwMAmf.s:104344  .debug_str:000000000003efe3 .LASF9630
     /tmp/ccCwMAmf.s:93962  .debug_str:00000000000147de .LASF9631
     /tmp/ccCwMAmf.s:90454  .debug_str:0000000000006744 .LASF9632
     /tmp/ccCwMAmf.s:103264  .debug_str:000000000003a6c9 .LASF9633
     /tmp/ccCwMAmf.s:106972  .debug_str:000000000004a105 .LASF9634
     /tmp/ccCwMAmf.s:107018  .debug_str:000000000004a3e0 .LASF9635
     /tmp/ccCwMAmf.s:90766  .debug_str:0000000000007cc5 .LASF9636
     /tmp/ccCwMAmf.s:91178  .debug_str:0000000000009855 .LASF9637
     /tmp/ccCwMAmf.s:90658  .debug_str:000000000000757f .LASF9638
     /tmp/ccCwMAmf.s:107624  .debug_str:000000000004ce81 .LASF9639
     /tmp/ccCwMAmf.s:93460  .debug_str:00000000000126ab .LASF9640
     /tmp/ccCwMAmf.s:102184  .debug_str:0000000000036674 .LASF9641
     /tmp/ccCwMAmf.s:107170  .debug_str:000000000004af3c .LASF9642
     /tmp/ccCwMAmf.s:106080  .debug_str:000000000004668c .LASF9643
     /tmp/ccCwMAmf.s:91478  .debug_str:000000000000ad08 .LASF9644
     /tmp/ccCwMAmf.s:102762  .debug_str:0000000000038a4e .LASF9645
     /tmp/ccCwMAmf.s:94444  .debug_str:0000000000016550 .LASF9646
     /tmp/ccCwMAmf.s:96214  .debug_str:000000000001dec1 .LASF9647
     /tmp/ccCwMAmf.s:95756  .debug_str:000000000001be0d .LASF9648
     /tmp/ccCwMAmf.s:93658  .debug_str:0000000000013544 .LASF9649
     /tmp/ccCwMAmf.s:106314  .debug_str:000000000004762f .LASF9650
     /tmp/ccCwMAmf.s:102498  .debug_str:0000000000037a19 .LASF9651
     /tmp/ccCwMAmf.s:97518  .debug_str:000000000002391a .LASF9652
     /tmp/ccCwMAmf.s:98264  .debug_str:000000000002655b .LASF9653
     /tmp/ccCwMAmf.s:107622  .debug_str:000000000004ce6e .LASF9654
     /tmp/ccCwMAmf.s:94084  .debug_str:0000000000014eb1 .LASF9655
     /tmp/ccCwMAmf.s:94272  .debug_str:0000000000015ac6 .LASF9656
     /tmp/ccCwMAmf.s:95956  .debug_str:000000000001cd10 .LASF9657
     /tmp/ccCwMAmf.s:106562  .debug_str:00000000000486a6 .LASF9658
     /tmp/ccCwMAmf.s:92096  .debug_str:000000000000d707 .LASF9659
     /tmp/ccCwMAmf.s:91174  .debug_str:0000000000009813 .LASF9660
     /tmp/ccCwMAmf.s:101998  .debug_str:000000000003595e .LASF9661
     /tmp/ccCwMAmf.s:94740  .debug_str:00000000000179cc .LASF9662
     /tmp/ccCwMAmf.s:101296  .debug_str:0000000000032a5d .LASF9663
     /tmp/ccCwMAmf.s:93462  .debug_str:00000000000126b7 .LASF9664
     /tmp/ccCwMAmf.s:107470  .debug_str:000000000004c383 .LASF9665
     /tmp/ccCwMAmf.s:91602  .debug_str:000000000000b5d9 .LASF9683
     /tmp/ccCwMAmf.s:547    .text.pmp_get_napot_base_and_range:0000000000000000 .LFB26
     /tmp/ccCwMAmf.s:626    .text.pmp_get_napot_base_and_range:0000000000000092 .LFE26
     /tmp/ccCwMAmf.s:99104  .debug_str:0000000000029d30 .LASF9666
     /tmp/ccCwMAmf.s:92604  .debug_str:000000000000f287 .LASF9667
     /tmp/ccCwMAmf.s:93320  .debug_str:0000000000011db9 .LASF9668
     /tmp/ccCwMAmf.s:93332  .debug_str:0000000000011e5f .LASF9669
     /tmp/ccCwMAmf.s:105290  .debug_str:000000000004332a .LASF9676
     /tmp/ccCwMAmf.s:420    .text.MSS_MPU_get_config:0000000000000000 .LFB25
     /tmp/ccCwMAmf.s:541    .text.MSS_MPU_get_config:000000000000010a .LFE25
     /tmp/ccCwMAmf.s:93310  .debug_str:0000000000011d34 .LASF9670
     /tmp/ccCwMAmf.s:99752  .debug_str:000000000002c61f .LASF9671
     /tmp/ccCwMAmf.s:100006  .debug_str:000000000002d511 .LASF9672
     /tmp/ccCwMAmf.s:91594  .debug_str:000000000000b52e .LASF9673
     /tmp/ccCwMAmf.s:100668  .debug_str:0000000000030117 .LASF9674
     /tmp/ccCwMAmf.s:91962  .debug_str:000000000000ce8a .LASF9675
     /tmp/ccCwMAmf.s:102692  .debug_str:0000000000038664 .LASF9677
     /tmp/ccCwMAmf.s:259    .text.MSS_MPU_configure:0000000000000000 .LFB24
     /tmp/ccCwMAmf.s:413    .text.MSS_MPU_configure:0000000000000154 .LFE24
     /tmp/ccCwMAmf.s:104034  .debug_str:000000000003dbd7 .LASF9678
     /tmp/ccCwMAmf.s:89850  .debug_str:0000000000003e0d .LASF9684
     /tmp/ccCwMAmf.s:168    .text.mpu_configure:0000000000000000 .LFB23
     /tmp/ccCwMAmf.s:252    .text.mpu_configure:0000000000000126 .LFE23
     /tmp/ccCwMAmf.s:643    .debug_info:0000000000000000 .Ldebug_info0
     /tmp/ccCwMAmf.s:70371  .debug_macro:0000000000000000 .Ldebug_macro2
     /tmp/ccCwMAmf.s:93728  .debug_str:000000000001398f .LASF324
     /tmp/ccCwMAmf.s:99630  .debug_str:000000000002becb .LASF325
     /tmp/ccCwMAmf.s:96340  .debug_str:000000000001e780 .LASF326
     /tmp/ccCwMAmf.s:71348  .debug_macro:0000000000000000 .Ldebug_macro3
     /tmp/ccCwMAmf.s:71368  .debug_macro:0000000000000000 .Ldebug_macro4
     /tmp/ccCwMAmf.s:94606  .debug_str:0000000000016fe8 .LASF341
     /tmp/ccCwMAmf.s:71400  .debug_macro:0000000000000000 .Ldebug_macro5
     /tmp/ccCwMAmf.s:71414  .debug_macro:0000000000000000 .Ldebug_macro6
     /tmp/ccCwMAmf.s:71482  .debug_macro:0000000000000000 .Ldebug_macro7
     /tmp/ccCwMAmf.s:71511  .debug_macro:0000000000000000 .Ldebug_macro8
     /tmp/ccCwMAmf.s:71540  .debug_macro:0000000000000000 .Ldebug_macro9
     /tmp/ccCwMAmf.s:91462  .debug_str:000000000000ab96 .LASF385
     /tmp/ccCwMAmf.s:71554  .debug_macro:0000000000000000 .Ldebug_macro10
     /tmp/ccCwMAmf.s:71598  .debug_macro:0000000000000000 .Ldebug_macro11
     /tmp/ccCwMAmf.s:71666  .debug_macro:0000000000000000 .Ldebug_macro12
     /tmp/ccCwMAmf.s:72034  .debug_macro:0000000000000000 .Ldebug_macro13
     /tmp/ccCwMAmf.s:100564  .debug_str:000000000002fa9f .LASF573
     /tmp/ccCwMAmf.s:72147  .debug_macro:0000000000000000 .Ldebug_macro14
     /tmp/ccCwMAmf.s:103780  .debug_str:000000000003ca9a .LASF576
     /tmp/ccCwMAmf.s:100032  .debug_str:000000000002d6c0 .LASF577
     /tmp/ccCwMAmf.s:72158  .debug_macro:0000000000000000 .Ldebug_macro15
     /tmp/ccCwMAmf.s:72172  .debug_macro:0000000000000000 .Ldebug_macro16
     /tmp/ccCwMAmf.s:102122  .debug_str:000000000003623b .LASF582
     /tmp/ccCwMAmf.s:72204  .debug_macro:0000000000000000 .Ldebug_macro17
     /tmp/ccCwMAmf.s:72230  .debug_macro:0000000000000000 .Ldebug_macro18
     /tmp/ccCwMAmf.s:72241  .debug_macro:0000000000000000 .Ldebug_macro19
     /tmp/ccCwMAmf.s:72285  .debug_macro:0000000000000000 .Ldebug_macro20
     /tmp/ccCwMAmf.s:72464  .debug_macro:0000000000000000 .Ldebug_macro21
     /tmp/ccCwMAmf.s:72475  .debug_macro:0000000000000000 .Ldebug_macro22
     /tmp/ccCwMAmf.s:92878  .debug_str:0000000000010331 .LASF682
     /tmp/ccCwMAmf.s:72531  .debug_macro:0000000000000000 .Ldebug_macro23
     /tmp/ccCwMAmf.s:72548  .debug_macro:0000000000000000 .Ldebug_macro24
     /tmp/ccCwMAmf.s:101058  .debug_str:0000000000031a13 .LASF700
     /tmp/ccCwMAmf.s:101266  .debug_str:000000000003282f .LASF701
     /tmp/ccCwMAmf.s:72592  .debug_macro:0000000000000000 .Ldebug_macro25
     /tmp/ccCwMAmf.s:99202  .debug_str:000000000002a3e4 .LASF712
     /tmp/ccCwMAmf.s:89784  .debug_str:00000000000039a0 .LASF713
     /tmp/ccCwMAmf.s:72627  .debug_macro:0000000000000000 .Ldebug_macro26
     /tmp/ccCwMAmf.s:72638  .debug_macro:0000000000000000 .Ldebug_macro27
     /tmp/ccCwMAmf.s:72673  .debug_macro:0000000000000000 .Ldebug_macro28
     /tmp/ccCwMAmf.s:98730  .debug_str:00000000000283ca .LASF758
     /tmp/ccCwMAmf.s:72774  .debug_macro:0000000000000000 .Ldebug_macro29
     /tmp/ccCwMAmf.s:72791  .debug_macro:0000000000000000 .Ldebug_macro30
     /tmp/ccCwMAmf.s:98236  .debug_str:00000000000263a6 .LASF772
     /tmp/ccCwMAmf.s:94060  .debug_str:0000000000014d2a .LASF773
     /tmp/ccCwMAmf.s:72823  .debug_macro:0000000000000000 .Ldebug_macro31
     /tmp/ccCwMAmf.s:72837  .debug_macro:0000000000000000 .Ldebug_macro32
     /tmp/ccCwMAmf.s:72989  .debug_macro:0000000000000000 .Ldebug_macro33
     /tmp/ccCwMAmf.s:73003  .debug_macro:0000000000000000 .Ldebug_macro34
     /tmp/ccCwMAmf.s:92342  .debug_str:000000000000e4c8 .LASF827
     /tmp/ccCwMAmf.s:90272  .debug_str:0000000000005b6b .LASF828
     /tmp/ccCwMAmf.s:106638  .debug_str:0000000000048b71 .LASF829
     /tmp/ccCwMAmf.s:98914  .debug_str:0000000000029183 .LASF830
     /tmp/ccCwMAmf.s:73029  .debug_macro:0000000000000000 .Ldebug_macro35
     /tmp/ccCwMAmf.s:95510  .debug_str:000000000001ada0 .LASF836
     /tmp/ccCwMAmf.s:73049  .debug_macro:0000000000000000 .Ldebug_macro36
     /tmp/ccCwMAmf.s:73171  .debug_macro:0000000000000000 .Ldebug_macro37
     /tmp/ccCwMAmf.s:95116  .debug_str:000000000001913c .LASF935
     /tmp/ccCwMAmf.s:73383  .debug_macro:0000000000000000 .Ldebug_macro38
     /tmp/ccCwMAmf.s:73394  .debug_macro:0000000000000000 .Ldebug_macro39
     /tmp/ccCwMAmf.s:75193  .debug_macro:0000000000000000 .Ldebug_macro40
     /tmp/ccCwMAmf.s:96234  .debug_str:000000000001e057 .LASF1558
     /tmp/ccCwMAmf.s:75264  .debug_macro:0000000000000000 .Ldebug_macro41
     /tmp/ccCwMAmf.s:104518  .debug_str:000000000003faa1 .LASF3749
     /tmp/ccCwMAmf.s:81839  .debug_macro:0000000000000000 .Ldebug_macro42
     /tmp/ccCwMAmf.s:81856  .debug_macro:0000000000000000 .Ldebug_macro43
     /tmp/ccCwMAmf.s:81879  .debug_macro:0000000000000000 .Ldebug_macro44
     /tmp/ccCwMAmf.s:81896  .debug_macro:0000000000000000 .Ldebug_macro45
     /tmp/ccCwMAmf.s:81925  .debug_macro:0000000000000000 .Ldebug_macro46
     /tmp/ccCwMAmf.s:81984  .debug_macro:0000000000000000 .Ldebug_macro47
     /tmp/ccCwMAmf.s:82007  .debug_macro:0000000000000000 .Ldebug_macro48
     /tmp/ccCwMAmf.s:82066  .debug_macro:0000000000000000 .Ldebug_macro49
     /tmp/ccCwMAmf.s:84825  .debug_macro:0000000000000000 .Ldebug_macro50
     /tmp/ccCwMAmf.s:84869  .debug_macro:0000000000000000 .Ldebug_macro51
     /tmp/ccCwMAmf.s:84955  .debug_macro:0000000000000000 .Ldebug_macro52
     /tmp/ccCwMAmf.s:84984  .debug_macro:0000000000000000 .Ldebug_macro53
     /tmp/ccCwMAmf.s:85043  .debug_macro:0000000000000000 .Ldebug_macro54
     /tmp/ccCwMAmf.s:85105  .debug_macro:0000000000000000 .Ldebug_macro55
     /tmp/ccCwMAmf.s:85167  .debug_macro:0000000000000000 .Ldebug_macro56
     /tmp/ccCwMAmf.s:85229  .debug_macro:0000000000000000 .Ldebug_macro57
     /tmp/ccCwMAmf.s:85291  .debug_macro:0000000000000000 .Ldebug_macro58
     /tmp/ccCwMAmf.s:85353  .debug_macro:0000000000000000 .Ldebug_macro59
     /tmp/ccCwMAmf.s:85409  .debug_macro:0000000000000000 .Ldebug_macro60
     /tmp/ccCwMAmf.s:85465  .debug_macro:0000000000000000 .Ldebug_macro61
     /tmp/ccCwMAmf.s:85497  .debug_macro:0000000000000000 .Ldebug_macro62
     /tmp/ccCwMAmf.s:85517  .debug_macro:0000000000000000 .Ldebug_macro63
     /tmp/ccCwMAmf.s:85549  .debug_macro:0000000000000000 .Ldebug_macro64
     /tmp/ccCwMAmf.s:85581  .debug_macro:0000000000000000 .Ldebug_macro65
     /tmp/ccCwMAmf.s:85601  .debug_macro:0000000000000000 .Ldebug_macro66
     /tmp/ccCwMAmf.s:85621  .debug_macro:0000000000000000 .Ldebug_macro67
     /tmp/ccCwMAmf.s:85653  .debug_macro:0000000000000000 .Ldebug_macro68
     /tmp/ccCwMAmf.s:85667  .debug_macro:0000000000000000 .Ldebug_macro69
     /tmp/ccCwMAmf.s:85768  .debug_macro:0000000000000000 .Ldebug_macro70
     /tmp/ccCwMAmf.s:85785  .debug_macro:0000000000000000 .Ldebug_macro71
     /tmp/ccCwMAmf.s:85823  .debug_macro:0000000000000000 .Ldebug_macro72
     /tmp/ccCwMAmf.s:85846  .debug_macro:0000000000000000 .Ldebug_macro73
     /tmp/ccCwMAmf.s:85974  .debug_macro:0000000000000000 .Ldebug_macro74
     /tmp/ccCwMAmf.s:85988  .debug_macro:0000000000000000 .Ldebug_macro75
     /tmp/ccCwMAmf.s:86002  .debug_macro:0000000000000000 .Ldebug_macro76
     /tmp/ccCwMAmf.s:86058  .debug_macro:0000000000000000 .Ldebug_macro77
     /tmp/ccCwMAmf.s:87173  .debug_macro:0000000000000000 .Ldebug_macro78
     /tmp/ccCwMAmf.s:87205  .debug_macro:0000000000000000 .Ldebug_macro79
     /tmp/ccCwMAmf.s:87225  .debug_macro:0000000000000000 .Ldebug_macro80
     /tmp/ccCwMAmf.s:87269  .debug_macro:0000000000000000 .Ldebug_macro81
     /tmp/ccCwMAmf.s:87316  .debug_macro:0000000000000000 .Ldebug_macro82
     /tmp/ccCwMAmf.s:87363  .debug_macro:0000000000000000 .Ldebug_macro83
     /tmp/ccCwMAmf.s:87398  .debug_macro:0000000000000000 .Ldebug_macro84
     /tmp/ccCwMAmf.s:87421  .debug_macro:0000000000000000 .Ldebug_macro85
     /tmp/ccCwMAmf.s:89054  .debug_str:0000000000000761 .LASF5543
     /tmp/ccCwMAmf.s:87438  .debug_macro:0000000000000000 .Ldebug_macro86
     /tmp/ccCwMAmf.s:92888  .debug_str:00000000000103bc .LASF5698
     /tmp/ccCwMAmf.s:87905  .debug_macro:0000000000000000 .Ldebug_macro87
     /tmp/ccCwMAmf.s:87922  .debug_macro:0000000000000000 .Ldebug_macro88
     /tmp/ccCwMAmf.s:87936  .debug_macro:0000000000000000 .Ldebug_macro89
     /tmp/ccCwMAmf.s:88253  .debug_macro:0000000000000000 .Ldebug_macro90
     /tmp/ccCwMAmf.s:88273  .debug_macro:0000000000000000 .Ldebug_macro91
     /tmp/ccCwMAmf.s:100116  .debug_str:000000000002dc34 .LASF5854
     /tmp/ccCwMAmf.s:88395  .debug_macro:0000000000000000 .Ldebug_macro92
     /tmp/ccCwMAmf.s:88457  .debug_macro:0000000000000000 .Ldebug_macro93
     /tmp/ccCwMAmf.s:99518  .debug_str:000000000002b810 .LASF5876
     /tmp/ccCwMAmf.s:88468  .debug_macro:0000000000000000 .Ldebug_macro94
     /tmp/ccCwMAmf.s:88497  .debug_macro:0000000000000000 .Ldebug_macro95
     /tmp/ccCwMAmf.s:103354  .debug_str:000000000003ad6d .LASF5901
     /tmp/ccCwMAmf.s:88550  .debug_macro:0000000000000000 .Ldebug_macro96
     /tmp/ccCwMAmf.s:107482  .debug_str:000000000004c41f .LASF5921
     /tmp/ccCwMAmf.s:88612  .debug_macro:0000000000000000 .Ldebug_macro97
     /tmp/ccCwMAmf.s:88680  .debug_macro:0000000000000000 .Ldebug_macro98
     /tmp/ccCwMAmf.s:88703  .debug_macro:0000000000000000 .Ldebug_macro99
     /tmp/ccCwMAmf.s:88783  .debug_macro:0000000000000000 .Ldebug_macro100
     /tmp/ccCwMAmf.s:88914  .debug_macro:0000000000000000 .Ldebug_macro101
     /tmp/ccCwMAmf.s:88934  .debug_macro:0000000000000000 .Ldebug_macro102
     /tmp/ccCwMAmf.s:93820  .debug_str:0000000000013efb .LASF0
     /tmp/ccCwMAmf.s:100666  .debug_str:00000000000300fe .LASF1
     /tmp/ccCwMAmf.s:97814  .debug_str:0000000000024c8e .LASF2
     /tmp/ccCwMAmf.s:97886  .debug_str:0000000000025096 .LASF3
     /tmp/ccCwMAmf.s:92332  .debug_str:000000000000e448 .LASF4
     /tmp/ccCwMAmf.s:92520  .debug_str:000000000000ed7c .LASF5
     /tmp/ccCwMAmf.s:103286  .debug_str:000000000003a868 .LASF6
     /tmp/ccCwMAmf.s:91238  .debug_str:0000000000009d24 .LASF7
     /tmp/ccCwMAmf.s:89550  .debug_str:0000000000002ab2 .LASF8
     /tmp/ccCwMAmf.s:89220  .debug_str:0000000000001273 .LASF9
     /tmp/ccCwMAmf.s:102808  .debug_str:0000000000038d3d .LASF10
     /tmp/ccCwMAmf.s:106482  .debug_str:0000000000048190 .LASF11
     /tmp/ccCwMAmf.s:100356  .debug_str:000000000002ecb2 .LASF12
     /tmp/ccCwMAmf.s:96030  .debug_str:000000000001d1b2 .LASF13
     /tmp/ccCwMAmf.s:92062  .debug_str:000000000000d503 .LASF14
     /tmp/ccCwMAmf.s:91268  .debug_str:0000000000009ed4 .LASF15
     /tmp/ccCwMAmf.s:105582  .debug_str:000000000004461a .LASF16
     /tmp/ccCwMAmf.s:103906  .debug_str:000000000003d29b .LASF17
     /tmp/ccCwMAmf.s:94960  .debug_str:00000000000187d3 .LASF18
     /tmp/ccCwMAmf.s:106434  .debug_str:0000000000047e89 .LASF19
     /tmp/ccCwMAmf.s:106164  .debug_str:0000000000046c45 .LASF20
     /tmp/ccCwMAmf.s:107056  .debug_str:000000000004a75f .LASF21
     /tmp/ccCwMAmf.s:90580  .debug_str:00000000000070af .LASF22
     /tmp/ccCwMAmf.s:92456  .debug_str:000000000000eb30 .LASF23
     /tmp/ccCwMAmf.s:104954  .debug_str:0000000000041915 .LASF24
     /tmp/ccCwMAmf.s:103212  .debug_str:000000000003a2ee .LASF25
     /tmp/ccCwMAmf.s:91970  .debug_str:000000000000ced1 .LASF26
     /tmp/ccCwMAmf.s:91002  .debug_str:0000000000008c85 .LASF27
     /tmp/ccCwMAmf.s:104822  .debug_str:0000000000040ffc .LASF28
     /tmp/ccCwMAmf.s:103088  .debug_str:0000000000039b6b .LASF29
     /tmp/ccCwMAmf.s:94654  .debug_str:000000000001735c .LASF30
     /tmp/ccCwMAmf.s:102190  .debug_str:00000000000366b1 .LASF31
     /tmp/ccCwMAmf.s:95668  .debug_str:000000000001b79d .LASF32
     /tmp/ccCwMAmf.s:99770  .debug_str:000000000002c6e3 .LASF33
     /tmp/ccCwMAmf.s:99438  .debug_str:000000000002b220 .LASF34
     /tmp/ccCwMAmf.s:91796  .debug_str:000000000000c33d .LASF35
     /tmp/ccCwMAmf.s:94048  .debug_str:0000000000014c53 .LASF36
     /tmp/ccCwMAmf.s:98634  .debug_str:0000000000027d7a .LASF37
     /tmp/ccCwMAmf.s:108214  .debug_str:000000000004f729 .LASF38
     /tmp/ccCwMAmf.s:97666  .debug_str:0000000000024319 .LASF39
     /tmp/ccCwMAmf.s:98836  .debug_str:0000000000028b8c .LASF40
     /tmp/ccCwMAmf.s:94010  .debug_str:0000000000014ae3 .LASF41
     /tmp/ccCwMAmf.s:90444  .debug_str:0000000000006676 .LASF42
     /tmp/ccCwMAmf.s:103700  .debug_str:000000000003c5d8 .LASF43
     /tmp/ccCwMAmf.s:89696  .debug_str:000000000000344e .LASF44
     /tmp/ccCwMAmf.s:104690  .debug_str:0000000000040534 .LASF45
     /tmp/ccCwMAmf.s:90414  .debug_str:0000000000006479 .LASF46
     /tmp/ccCwMAmf.s:103208  .debug_str:000000000003a2b7 .LASF47
     /tmp/ccCwMAmf.s:100074  .debug_str:000000000002d9bb .LASF48
     /tmp/ccCwMAmf.s:96276  .debug_str:000000000001e364 .LASF49
     /tmp/ccCwMAmf.s:107708  .debug_str:000000000004d3a3 .LASF50
     /tmp/ccCwMAmf.s:90638  .debug_str:00000000000074a4 .LASF51
     /tmp/ccCwMAmf.s:95052  .debug_str:0000000000018cf1 .LASF52
     /tmp/ccCwMAmf.s:101934  .debug_str:00000000000354e4 .LASF53
     /tmp/ccCwMAmf.s:89388  .debug_str:0000000000001f3f .LASF54
     /tmp/ccCwMAmf.s:91926  .debug_str:000000000000cc5c .LASF55
     /tmp/ccCwMAmf.s:106162  .debug_str:0000000000046c1c .LASF56
     /tmp/ccCwMAmf.s:104578  .debug_str:000000000003fe0a .LASF57
     /tmp/ccCwMAmf.s:107346  .debug_str:000000000004bb43 .LASF58
     /tmp/ccCwMAmf.s:105796  .debug_str:000000000004541b .LASF59
     /tmp/ccCwMAmf.s:100034  .debug_str:000000000002d6cf .LASF60
     /tmp/ccCwMAmf.s:105864  .debug_str:000000000004592c .LASF61
     /tmp/ccCwMAmf.s:98958  .debug_str:0000000000029434 .LASF62
     /tmp/ccCwMAmf.s:104470  .debug_str:000000000003f7c4 .LASF63
     /tmp/ccCwMAmf.s:98298  .debug_str:00000000000267a9 .LASF64
     /tmp/ccCwMAmf.s:99668  .debug_str:000000000002c146 .LASF65
     /tmp/ccCwMAmf.s:101084  .debug_str:0000000000031b66 .LASF66
     /tmp/ccCwMAmf.s:96328  .debug_str:000000000001e6e5 .LASF67
     /tmp/ccCwMAmf.s:105924  .debug_str:0000000000045cb6 .LASF68
     /tmp/ccCwMAmf.s:103594  .debug_str:000000000003bda8 .LASF69
     /tmp/ccCwMAmf.s:108216  .debug_str:000000000004f742 .LASF70
     /tmp/ccCwMAmf.s:94570  .debug_str:0000000000016dd7 .LASF71
     /tmp/ccCwMAmf.s:89496  .debug_str:00000000000026b0 .LASF72
     /tmp/ccCwMAmf.s:106388  .debug_str:0000000000047b39 .LASF73
     /tmp/ccCwMAmf.s:98194  .debug_str:0000000000026150 .LASF74
     /tmp/ccCwMAmf.s:104644  .debug_str:00000000000401f8 .LASF75
     /tmp/ccCwMAmf.s:97496  .debug_str:000000000002378f .LASF76
     /tmp/ccCwMAmf.s:91046  .debug_str:0000000000008fac .LASF77
     /tmp/ccCwMAmf.s:101318  .debug_str:0000000000032bbc .LASF78
     /tmp/ccCwMAmf.s:99330  .debug_str:000000000002ab54 .LASF79
     /tmp/ccCwMAmf.s:100830  .debug_str:0000000000030be5 .LASF80
     /tmp/ccCwMAmf.s:93794  .debug_str:0000000000013d48 .LASF81
     /tmp/ccCwMAmf.s:91216  .debug_str:0000000000009b60 .LASF82
     /tmp/ccCwMAmf.s:91248  .debug_str:0000000000009dce .LASF83
     /tmp/ccCwMAmf.s:92976  .debug_str:0000000000010869 .LASF84
     /tmp/ccCwMAmf.s:99718  .debug_str:000000000002c3f1 .LASF85
     /tmp/ccCwMAmf.s:101488  .debug_str:0000000000033706 .LASF86
     /tmp/ccCwMAmf.s:97864  .debug_str:0000000000024f3b .LASF87
     /tmp/ccCwMAmf.s:106764  .debug_str:00000000000493ca .LASF88
     /tmp/ccCwMAmf.s:92250  .debug_str:000000000000df96 .LASF89
     /tmp/ccCwMAmf.s:98554  .debug_str:0000000000027853 .LASF90
     /tmp/ccCwMAmf.s:95318  .debug_str:0000000000019f48 .LASF91
     /tmp/ccCwMAmf.s:97508  .debug_str:0000000000023896 .LASF92
     /tmp/ccCwMAmf.s:106792  .debug_str:0000000000049526 .LASF93
     /tmp/ccCwMAmf.s:107232  .debug_str:000000000004b3b5 .LASF94
     /tmp/ccCwMAmf.s:101140  .debug_str:0000000000031ed6 .LASF95
     /tmp/ccCwMAmf.s:97102  .debug_str:0000000000021d85 .LASF96
     /tmp/ccCwMAmf.s:92338  .debug_str:000000000000e47d .LASF97
     /tmp/ccCwMAmf.s:101314  .debug_str:0000000000032b81 .LASF98
     /tmp/ccCwMAmf.s:103334  .debug_str:000000000003abca .LASF99
     /tmp/ccCwMAmf.s:102744  .debug_str:00000000000388e8 .LASF100
     /tmp/ccCwMAmf.s:89666  .debug_str:000000000000322f .LASF101
     /tmp/ccCwMAmf.s:99888  .debug_str:000000000002ce4a .LASF102
     /tmp/ccCwMAmf.s:91978  .debug_str:000000000000cf72 .LASF103
     /tmp/ccCwMAmf.s:99754  .debug_str:000000000002c62a .LASF104
     /tmp/ccCwMAmf.s:97736  .debug_str:00000000000247ca .LASF105
     /tmp/ccCwMAmf.s:99552  .debug_str:000000000002b9bd .LASF106
     /tmp/ccCwMAmf.s:90066  .debug_str:0000000000004dd1 .LASF107
     /tmp/ccCwMAmf.s:102386  .debug_str:00000000000373c5 .LASF108
     /tmp/ccCwMAmf.s:100776  .debug_str:0000000000030882 .LASF109
     /tmp/ccCwMAmf.s:104662  .debug_str:0000000000040316 .LASF110
     /tmp/ccCwMAmf.s:92134  .debug_str:000000000000d97b .LASF111
     /tmp/ccCwMAmf.s:103150  .debug_str:0000000000039e88 .LASF112
     /tmp/ccCwMAmf.s:89122  .debug_str:0000000000000bec .LASF113
     /tmp/ccCwMAmf.s:105130  .debug_str:0000000000042890 .LASF114
     /tmp/ccCwMAmf.s:106556  .debug_str:0000000000048663 .LASF115
     /tmp/ccCwMAmf.s:98092  .debug_str:0000000000025bb0 .LASF116
     /tmp/ccCwMAmf.s:93556  .debug_str:0000000000012d81 .LASF117
     /tmp/ccCwMAmf.s:94116  .debug_str:00000000000150aa .LASF118
     /tmp/ccCwMAmf.s:102380  .debug_str:0000000000037378 .LASF119
     /tmp/ccCwMAmf.s:100078  .debug_str:000000000002d9ef .LASF120
     /tmp/ccCwMAmf.s:92906  .debug_str:00000000000104a8 .LASF121
     /tmp/ccCwMAmf.s:94350  .debug_str:0000000000015f35 .LASF122
     /tmp/ccCwMAmf.s:93098  .debug_str:0000000000010f4c .LASF123
     /tmp/ccCwMAmf.s:95270  .debug_str:0000000000019c7d .LASF124
     /tmp/ccCwMAmf.s:102890  .debug_str:0000000000039144 .LASF125
     /tmp/ccCwMAmf.s:104466  .debug_str:000000000003f784 .LASF126
     /tmp/ccCwMAmf.s:104096  .debug_str:000000000003e07a .LASF127
     /tmp/ccCwMAmf.s:103328  .debug_str:000000000003ab58 .LASF128
     /tmp/ccCwMAmf.s:99152  .debug_str:000000000002a04d .LASF129
     /tmp/ccCwMAmf.s:103974  .debug_str:000000000003d746 .LASF130
     /tmp/ccCwMAmf.s:93280  .debug_str:0000000000011b26 .LASF131
     /tmp/ccCwMAmf.s:97258  .debug_str:00000000000226ec .LASF132
     /tmp/ccCwMAmf.s:99228  .debug_str:000000000002a598 .LASF133
     /tmp/ccCwMAmf.s:93650  .debug_str:0000000000013475 .LASF134
     /tmp/ccCwMAmf.s:106306  .debug_str:000000000004758d .LASF135
     /tmp/ccCwMAmf.s:104282  .debug_str:000000000003ebd4 .LASF136
     /tmp/ccCwMAmf.s:100154  .debug_str:000000000002defa .LASF137
     /tmp/ccCwMAmf.s:96204  .debug_str:000000000001de1d .LASF138
     /tmp/ccCwMAmf.s:102454  .debug_str:0000000000037854 .LASF139
     /tmp/ccCwMAmf.s:94250  .debug_str:000000000001593d .LASF140
     /tmp/ccCwMAmf.s:107372  .debug_str:000000000004bd35 .LASF141
     /tmp/ccCwMAmf.s:99068  .debug_str:0000000000029ac9 .LASF142
     /tmp/ccCwMAmf.s:98010  .debug_str:00000000000257b2 .LASF143
     /tmp/ccCwMAmf.s:93336  .debug_str:0000000000011e8c .LASF144
     /tmp/ccCwMAmf.s:91900  .debug_str:000000000000ca3d .LASF145
     /tmp/ccCwMAmf.s:92918  .debug_str:000000000001052a .LASF146
     /tmp/ccCwMAmf.s:93712  .debug_str:0000000000013881 .LASF147
     /tmp/ccCwMAmf.s:96614  .debug_str:000000000001fabb .LASF148
     /tmp/ccCwMAmf.s:100828  .debug_str:0000000000030bd1 .LASF149
     /tmp/ccCwMAmf.s:104514  .debug_str:000000000003fa7a .LASF150
     /tmp/ccCwMAmf.s:95358  .debug_str:000000000001a273 .LASF151
     /tmp/ccCwMAmf.s:98144  .debug_str:0000000000025db5 .LASF152
     /tmp/ccCwMAmf.s:91194  .debug_str:00000000000099bd .LASF153
     /tmp/ccCwMAmf.s:104948  .debug_str:00000000000418d8 .LASF154
     /tmp/ccCwMAmf.s:93678  .debug_str:0000000000013686 .LASF155
     /tmp/ccCwMAmf.s:106362  .debug_str:0000000000047953 .LASF156
     /tmp/ccCwMAmf.s:99902  .debug_str:000000000002cef5 .LASF157
     /tmp/ccCwMAmf.s:90248  .debug_str:00000000000059a5 .LASF158
     /tmp/ccCwMAmf.s:90506  .debug_str:0000000000006ab0 .LASF159
     /tmp/ccCwMAmf.s:107662  .debug_str:000000000004d0c4 .LASF160
     /tmp/ccCwMAmf.s:104734  .debug_str:0000000000040870 .LASF161
     /tmp/ccCwMAmf.s:107162  .debug_str:000000000004aeb5 .LASF162
     /tmp/ccCwMAmf.s:93404  .debug_str:000000000001239a .LASF163
     /tmp/ccCwMAmf.s:94258  .debug_str:00000000000159be .LASF164
     /tmp/ccCwMAmf.s:106898  .debug_str:0000000000049c65 .LASF165
     /tmp/ccCwMAmf.s:101148  .debug_str:0000000000031f48 .LASF166
     /tmp/ccCwMAmf.s:93498  .debug_str:0000000000012942 .LASF167
     /tmp/ccCwMAmf.s:89484  .debug_str:00000000000025a9 .LASF168
     /tmp/ccCwMAmf.s:100134  .debug_str:000000000002dda9 .LASF169
     /tmp/ccCwMAmf.s:103422  .debug_str:000000000003b1b7 .LASF170
     /tmp/ccCwMAmf.s:101880  .debug_str:000000000003510c .LASF171
     /tmp/ccCwMAmf.s:100602  .debug_str:000000000002fd25 .LASF172
     /tmp/ccCwMAmf.s:91528  .debug_str:000000000000b033 .LASF173
     /tmp/ccCwMAmf.s:103602  .debug_str:000000000003be39 .LASF174
     /tmp/ccCwMAmf.s:101080  .debug_str:0000000000031b37 .LASF175
     /tmp/ccCwMAmf.s:93720  .debug_str:00000000000138dd .LASF176
     /tmp/ccCwMAmf.s:93642  .debug_str:0000000000013408 .LASF177
     /tmp/ccCwMAmf.s:102714  .debug_str:0000000000038801 .LASF178
     /tmp/ccCwMAmf.s:100024  .debug_str:000000000002d63a .LASF179
     /tmp/ccCwMAmf.s:101908  .debug_str:000000000003530d .LASF180
     /tmp/ccCwMAmf.s:93758  .debug_str:0000000000013b12 .LASF181
     /tmp/ccCwMAmf.s:107286  .debug_str:000000000004b70a .LASF182
     /tmp/ccCwMAmf.s:91266  .debug_str:0000000000009ebd .LASF183
     /tmp/ccCwMAmf.s:106486  .debug_str:00000000000481b1 .LASF184
     /tmp/ccCwMAmf.s:97400  .debug_str:0000000000023048 .LASF185
     /tmp/ccCwMAmf.s:94560  .debug_str:0000000000016d28 .LASF186
     /tmp/ccCwMAmf.s:98292  .debug_str:000000000002670a .LASF187
     /tmp/ccCwMAmf.s:90122  .debug_str:0000000000005122 .LASF188
     /tmp/ccCwMAmf.s:89988  .debug_str:00000000000047e5 .LASF189
     /tmp/ccCwMAmf.s:93624  .debug_str:00000000000132a6 .LASF190
     /tmp/ccCwMAmf.s:107900  .debug_str:000000000004e21f .LASF191
     /tmp/ccCwMAmf.s:104188  .debug_str:000000000003e67a .LASF192
     /tmp/ccCwMAmf.s:96518  .debug_str:000000000001f3f0 .LASF193
     /tmp/ccCwMAmf.s:89994  .debug_str:0000000000004875 .LASF194
     /tmp/ccCwMAmf.s:104548  .debug_str:000000000003fc4e .LASF195
     /tmp/ccCwMAmf.s:106030  .debug_str:0000000000046368 .LASF196
     /tmp/ccCwMAmf.s:97572  .debug_str:0000000000023c8a .LASF197
     /tmp/ccCwMAmf.s:89018  .debug_str:00000000000004b2 .LASF198
     /tmp/ccCwMAmf.s:89690  .debug_str:00000000000033ed .LASF199
     /tmp/ccCwMAmf.s:105150  .debug_str:00000000000429d5 .LASF200
     /tmp/ccCwMAmf.s:100320  .debug_str:000000000002ea44 .LASF201
     /tmp/ccCwMAmf.s:106720  .debug_str:00000000000490ce .LASF202
     /tmp/ccCwMAmf.s:103094  .debug_str:0000000000039bcc .LASF203
     /tmp/ccCwMAmf.s:90190  .debug_str:000000000000556c .LASF204
     /tmp/ccCwMAmf.s:106684  .debug_str:0000000000048e6f .LASF205
     /tmp/ccCwMAmf.s:97724  .debug_str:0000000000024712 .LASF206
     /tmp/ccCwMAmf.s:105134  .debug_str:00000000000428f0 .LASF207
     /tmp/ccCwMAmf.s:96306  .debug_str:000000000001e5a3 .LASF208
     /tmp/ccCwMAmf.s:99504  .debug_str:000000000002b747 .LASF209
     /tmp/ccCwMAmf.s:94670  .debug_str:000000000001747f .LASF210
     /tmp/ccCwMAmf.s:92252  .debug_str:000000000000dfa8 .LASF211
     /tmp/ccCwMAmf.s:108018  .debug_str:000000000004e9b6 .LASF212
     /tmp/ccCwMAmf.s:105252  .debug_str:000000000004304a .LASF213
     /tmp/ccCwMAmf.s:94748  .debug_str:0000000000017a46 .LASF214
     /tmp/ccCwMAmf.s:98002  .debug_str:000000000002571d .LASF215
     /tmp/ccCwMAmf.s:96292  .debug_str:000000000001e466 .LASF216
     /tmp/ccCwMAmf.s:94518  .debug_str:0000000000016a27 .LASF217
     /tmp/ccCwMAmf.s:101780  .debug_str:0000000000034a67 .LASF218
     /tmp/ccCwMAmf.s:90326  .debug_str:0000000000005ecb .LASF219
     /tmp/ccCwMAmf.s:97360  .debug_str:0000000000022e22 .LASF220
     /tmp/ccCwMAmf.s:107820  .debug_str:000000000004dcd4 .LASF221
     /tmp/ccCwMAmf.s:104308  .debug_str:000000000003ed5d .LASF222
     /tmp/ccCwMAmf.s:93908  .debug_str:000000000001446d .LASF223
     /tmp/ccCwMAmf.s:105716  .debug_str:0000000000044f23 .LASF224
     /tmp/ccCwMAmf.s:107530  .debug_str:000000000004c77a .LASF225
     /tmp/ccCwMAmf.s:95334  .debug_str:000000000001a08d .LASF226
     /tmp/ccCwMAmf.s:104054  .debug_str:000000000003dd9f .LASF227
     /tmp/ccCwMAmf.s:95422  .debug_str:000000000001a6f2 .LASF228
     /tmp/ccCwMAmf.s:102742  .debug_str:00000000000388cd .LASF229
     /tmp/ccCwMAmf.s:91256  .debug_str:0000000000009e3a .LASF230
     /tmp/ccCwMAmf.s:91534  .debug_str:000000000000b0b8 .LASF231
     /tmp/ccCwMAmf.s:95456  .debug_str:000000000001a9bc .LASF232
     /tmp/ccCwMAmf.s:93122  .debug_str:00000000000110b6 .LASF233
     /tmp/ccCwMAmf.s:90258  .debug_str:0000000000005a53 .LASF234
     /tmp/ccCwMAmf.s:103724  .debug_str:000000000003c7a5 .LASF235
     /tmp/ccCwMAmf.s:100888  .debug_str:0000000000030f40 .LASF236
     /tmp/ccCwMAmf.s:92806  .debug_str:000000000000ff88 .LASF237
     /tmp/ccCwMAmf.s:92454  .debug_str:000000000000eb19 .LASF238
     /tmp/ccCwMAmf.s:107184  .debug_str:000000000004b02d .LASF239
     /tmp/ccCwMAmf.s:94856  .debug_str:00000000000180bc .LASF240
     /tmp/ccCwMAmf.s:96170  .debug_str:000000000001dbe5 .LASF241
     /tmp/ccCwMAmf.s:90472  .debug_str:0000000000006843 .LASF242
     /tmp/ccCwMAmf.s:102642  .debug_str:0000000000038416 .LASF243
     /tmp/ccCwMAmf.s:105876  .debug_str:00000000000459be .LASF244
     /tmp/ccCwMAmf.s:102076  .debug_str:0000000000035f35 .LASF245
     /tmp/ccCwMAmf.s:94836  .debug_str:0000000000017fb7 .LASF246
     /tmp/ccCwMAmf.s:104900  .debug_str:00000000000415b1 .LASF247
     /tmp/ccCwMAmf.s:97498  .debug_str:00000000000237b6 .LASF248
     /tmp/ccCwMAmf.s:102072  .debug_str:0000000000035f0a .LASF249
     /tmp/ccCwMAmf.s:96244  .debug_str:000000000001e0f1 .LASF250
     /tmp/ccCwMAmf.s:106776  .debug_str:0000000000049489 .LASF251
     /tmp/ccCwMAmf.s:95654  .debug_str:000000000001b6c7 .LASF252
     /tmp/ccCwMAmf.s:102608  .debug_str:000000000003818a .LASF253
     /tmp/ccCwMAmf.s:89780  .debug_str:000000000000397b .LASF254
     /tmp/ccCwMAmf.s:103630  .debug_str:000000000003c083 .LASF255
     /tmp/ccCwMAmf.s:90546  .debug_str:0000000000006db3 .LASF256
     /tmp/ccCwMAmf.s:90826  .debug_str:0000000000008084 .LASF257
     /tmp/ccCwMAmf.s:107104  .debug_str:000000000004aa77 .LASF258
     /tmp/ccCwMAmf.s:104996  .debug_str:0000000000041ece .LASF259
     /tmp/ccCwMAmf.s:92660  .debug_str:000000000000f6b2 .LASF260
     /tmp/ccCwMAmf.s:96344  .debug_str:000000000001e7c3 .LASF261
     /tmp/ccCwMAmf.s:106130  .debug_str:000000000004696a .LASF262
     /tmp/ccCwMAmf.s:103798  .debug_str:000000000003cc04 .LASF263
     /tmp/ccCwMAmf.s:99700  .debug_str:000000000002c302 .LASF264
     /tmp/ccCwMAmf.s:91772  .debug_str:000000000000c1c5 .LASF265
     /tmp/ccCwMAmf.s:97332  .debug_str:0000000000022be9 .LASF266
     /tmp/ccCwMAmf.s:101066  .debug_str:0000000000031a89 .LASF267
     /tmp/ccCwMAmf.s:96630  .debug_str:000000000001fba3 .LASF268
     /tmp/ccCwMAmf.s:98834  .debug_str:0000000000028b77 .LASF269
     /tmp/ccCwMAmf.s:101182  .debug_str:00000000000321c8 .LASF270
     /tmp/ccCwMAmf.s:91634  .debug_str:000000000000b804 .LASF271
     /tmp/ccCwMAmf.s:107276  .debug_str:000000000004b67e .LASF272
     /tmp/ccCwMAmf.s:93818  .debug_str:0000000000013ed4 .LASF273
     /tmp/ccCwMAmf.s:91606  .debug_str:000000000000b615 .LASF274
     /tmp/ccCwMAmf.s:103120  .debug_str:0000000000039d27 .LASF275
     /tmp/ccCwMAmf.s:98550  .debug_str:00000000000277ff .LASF276
     /tmp/ccCwMAmf.s:89104  .debug_str:0000000000000aee .LASF277
     /tmp/ccCwMAmf.s:102428  .debug_str:000000000003765d .LASF278
     /tmp/ccCwMAmf.s:101278  .debug_str:00000000000328eb .LASF279
     /tmp/ccCwMAmf.s:107404  .debug_str:000000000004bf01 .LASF280
     /tmp/ccCwMAmf.s:99420  .debug_str:000000000002b141 .LASF281
     /tmp/ccCwMAmf.s:104670  .debug_str:00000000000403a0 .LASF282
     /tmp/ccCwMAmf.s:89342  .debug_str:0000000000001b83 .LASF283
     /tmp/ccCwMAmf.s:108324  .debug_str:000000000004fe7f .LASF284
     /tmp/ccCwMAmf.s:101294  .debug_str:0000000000032a23 .LASF285
     /tmp/ccCwMAmf.s:101074  .debug_str:0000000000031aed .LASF286
     /tmp/ccCwMAmf.s:103260  .debug_str:000000000003a667 .LASF287
     /tmp/ccCwMAmf.s:108014  .debug_str:000000000004e988 .LASF288
     /tmp/ccCwMAmf.s:106682  .debug_str:0000000000048e58 .LASF289
     /tmp/ccCwMAmf.s:94766  .debug_str:0000000000017bd1 .LASF290
     /tmp/ccCwMAmf.s:91196  .debug_str:00000000000099d1 .LASF291
     /tmp/ccCwMAmf.s:103774  .debug_str:000000000003ca4a .LASF292
     /tmp/ccCwMAmf.s:105596  .debug_str:00000000000446f0 .LASF293
     /tmp/ccCwMAmf.s:102518  .debug_str:0000000000037bb2 .LASF294
     /tmp/ccCwMAmf.s:90738  .debug_str:0000000000007af0 .LASF295
     /tmp/ccCwMAmf.s:99058  .debug_str:0000000000029a0c .LASF296
     /tmp/ccCwMAmf.s:96688  .debug_str:000000000002008c .LASF297
     /tmp/ccCwMAmf.s:104592  .debug_str:000000000003fedc .LASF298
     /tmp/ccCwMAmf.s:91604  .debug_str:000000000000b5f6 .LASF299
     /tmp/ccCwMAmf.s:104770  .debug_str:0000000000040c2a .LASF300
     /tmp/ccCwMAmf.s:94224  .debug_str:00000000000157b4 .LASF301
     /tmp/ccCwMAmf.s:104708  .debug_str:0000000000040661 .LASF302
     /tmp/ccCwMAmf.s:106402  .debug_str:0000000000047c5d .LASF303
     /tmp/ccCwMAmf.s:98380  .debug_str:0000000000026d84 .LASF304
     /tmp/ccCwMAmf.s:103246  .debug_str:000000000003a543 .LASF305
     /tmp/ccCwMAmf.s:101340  .debug_str:0000000000032d05 .LASF306
     /tmp/ccCwMAmf.s:97528  .debug_str:00000000000239c8 .LASF307
     /tmp/ccCwMAmf.s:106712  .debug_str:0000000000049084 .LASF308
     /tmp/ccCwMAmf.s:106726  .debug_str:000000000004915c .LASF309
     /tmp/ccCwMAmf.s:100726  .debug_str:00000000000304e6 .LASF310
     /tmp/ccCwMAmf.s:90760  .debug_str:0000000000007c6d .LASF311
     /tmp/ccCwMAmf.s:89112  .debug_str:0000000000000b3f .LASF312
     /tmp/ccCwMAmf.s:103114  .debug_str:0000000000039cee .LASF313
     /tmp/ccCwMAmf.s:101494  .debug_str:0000000000033745 .LASF314
     /tmp/ccCwMAmf.s:102360  .debug_str:0000000000037259 .LASF315
     /tmp/ccCwMAmf.s:89184  .debug_str:0000000000001005 .LASF316
     /tmp/ccCwMAmf.s:96186  .debug_str:000000000001dcf6 .LASF317
     /tmp/ccCwMAmf.s:97366  .debug_str:0000000000022e6e .LASF318
     /tmp/ccCwMAmf.s:96696  .debug_str:000000000002013b .LASF319
     /tmp/ccCwMAmf.s:106976  .debug_str:000000000004a13f .LASF320
     /tmp/ccCwMAmf.s:104424  .debug_str:000000000003f499 .LASF321
     /tmp/ccCwMAmf.s:100896  .debug_str:0000000000030fd4 .LASF322
     /tmp/ccCwMAmf.s:94388  .debug_str:0000000000016177 .LASF323
     /tmp/ccCwMAmf.s:95268  .debug_str:0000000000019c67 .LASF327
     /tmp/ccCwMAmf.s:102224  .debug_str:0000000000036922 .LASF328
     /tmp/ccCwMAmf.s:99410  .debug_str:000000000002b0d9 .LASF329
     /tmp/ccCwMAmf.s:93914  .debug_str:00000000000144af .LASF330
     /tmp/ccCwMAmf.s:102896  .debug_str:00000000000391b4 .LASF331
     /tmp/ccCwMAmf.s:91914  .debug_str:000000000000cb92 .LASF332
     /tmp/ccCwMAmf.s:105362  .debug_str:0000000000043801 .LASF333
     /tmp/ccCwMAmf.s:95694  .debug_str:000000000001b9a9 .LASF334
     /tmp/ccCwMAmf.s:94818  .debug_str:0000000000017ed8 .LASF335
     /tmp/ccCwMAmf.s:105530  .debug_str:000000000004427c .LASF336
     /tmp/ccCwMAmf.s:95322  .debug_str:0000000000019f9d .LASF337
     /tmp/ccCwMAmf.s:93844  .debug_str:000000000001401e .LASF338
     /tmp/ccCwMAmf.s:92258  .debug_str:000000000000dffa .LASF339
     /tmp/ccCwMAmf.s:104866  .debug_str:000000000004138c .LASF340
     /tmp/ccCwMAmf.s:106376  .debug_str:0000000000047a99 .LASF342
     /tmp/ccCwMAmf.s:97450  .debug_str:00000000000233ef .LASF343
     /tmp/ccCwMAmf.s:102466  .debug_str:0000000000037946 .LASF344
     /tmp/ccCwMAmf.s:102250  .debug_str:0000000000036b21 .LASF345
     /tmp/ccCwMAmf.s:100008  .debug_str:000000000002d516 .LASF346
     /tmp/ccCwMAmf.s:90392  .debug_str:00000000000062de .LASF347
     /tmp/ccCwMAmf.s:104202  .debug_str:000000000003e78b .LASF348
     /tmp/ccCwMAmf.s:89070  .debug_str:0000000000000853 .LASF349
     /tmp/ccCwMAmf.s:94078  .debug_str:0000000000014e44 .LASF350
     /tmp/ccCwMAmf.s:96288  .debug_str:000000000001e41d .LASF351
     /tmp/ccCwMAmf.s:92756  .debug_str:000000000000fcd4 .LASF352
     /tmp/ccCwMAmf.s:94152  .debug_str:0000000000015308 .LASF353
     /tmp/ccCwMAmf.s:99312  .debug_str:000000000002aa78 .LASF354
     /tmp/ccCwMAmf.s:104406  .debug_str:000000000003f39c .LASF355
     /tmp/ccCwMAmf.s:104840  .debug_str:00000000000411a5 .LASF356
     /tmp/ccCwMAmf.s:102966  .debug_str:00000000000394e6 .LASF357
     /tmp/ccCwMAmf.s:94260  .debug_str:00000000000159d2 .LASF358
     /tmp/ccCwMAmf.s:95196  .debug_str:0000000000019730 .LASF359
     /tmp/ccCwMAmf.s:98134  .debug_str:0000000000025d5f .LASF360
     /tmp/ccCwMAmf.s:100374  .debug_str:000000000002edc3 .LASF361
     /tmp/ccCwMAmf.s:92218  .debug_str:000000000000dd78 .LASF362
     /tmp/ccCwMAmf.s:95764  .debug_str:000000000001bea8 .LASF363
     /tmp/ccCwMAmf.s:95426  .debug_str:000000000001a713 .LASF364
     /tmp/ccCwMAmf.s:92128  .debug_str:000000000000d92f .LASF365
     /tmp/ccCwMAmf.s:95592  .debug_str:000000000001b2c1 .LASF366
     /tmp/ccCwMAmf.s:104860  .debug_str:0000000000041334 .LASF367
     /tmp/ccCwMAmf.s:108114  .debug_str:000000000004f04e .LASF368
     /tmp/ccCwMAmf.s:89086  .debug_str:000000000000099b .LASF369
     /tmp/ccCwMAmf.s:106560  .debug_str:000000000004869c .LASF370
     /tmp/ccCwMAmf.s:101374  .debug_str:0000000000032ee7 .LASF371
     /tmp/ccCwMAmf.s:99162  .debug_str:000000000002a118 .LASF372
     /tmp/ccCwMAmf.s:101332  .debug_str:0000000000032c80 .LASF373
     /tmp/ccCwMAmf.s:102062  .debug_str:0000000000035e8f .LASF374
     /tmp/ccCwMAmf.s:100046  .debug_str:000000000002d7ad .LASF375
     /tmp/ccCwMAmf.s:95288  .debug_str:0000000000019db2 .LASF376
     /tmp/ccCwMAmf.s:106346  .debug_str:000000000004784d .LASF377
     /tmp/ccCwMAmf.s:94742  .debug_str:00000000000179db .LASF378
     /tmp/ccCwMAmf.s:98066  .debug_str:00000000000259ff .LASF379
     /tmp/ccCwMAmf.s:89394  .debug_str:0000000000001f8e .LASF380
     /tmp/ccCwMAmf.s:107100  .debug_str:000000000004aa2b .LASF381
     /tmp/ccCwMAmf.s:106056  .debug_str:000000000004651e .LASF382
     /tmp/ccCwMAmf.s:90044  .debug_str:0000000000004c06 .LASF383
     /tmp/ccCwMAmf.s:97998  .debug_str:00000000000256c2 .LASF384
     /tmp/ccCwMAmf.s:104618  .debug_str:0000000000040088 .LASF386
     /tmp/ccCwMAmf.s:94826  .debug_str:0000000000017f36 .LASF387
     /tmp/ccCwMAmf.s:105636  .debug_str:00000000000449a9 .LASF388
     /tmp/ccCwMAmf.s:93036  .debug_str:0000000000010b94 .LASF389
     /tmp/ccCwMAmf.s:89834  .debug_str:0000000000003d27 .LASF390
     /tmp/ccCwMAmf.s:93876  .debug_str:000000000001423e .LASF391
     /tmp/ccCwMAmf.s:105948  .debug_str:0000000000045e54 .LASF392
     /tmp/ccCwMAmf.s:95014  .debug_str:0000000000018aa9 .LASF393
     /tmp/ccCwMAmf.s:92828  .debug_str:00000000000100ee .LASF394
     /tmp/ccCwMAmf.s:100548  .debug_str:000000000002f9bf .LASF395
     /tmp/ccCwMAmf.s:103870  .debug_str:000000000003d081 .LASF396
     /tmp/ccCwMAmf.s:101202  .debug_str:00000000000323b2 .LASF397
     /tmp/ccCwMAmf.s:101078  .debug_str:0000000000031b31 .LASF398
     /tmp/ccCwMAmf.s:103900  .debug_str:000000000003d252 .LASF399
     /tmp/ccCwMAmf.s:104324  .debug_str:000000000003ee90 .LASF400
     /tmp/ccCwMAmf.s:97606  .debug_str:0000000000023edf .LASF401
     /tmp/ccCwMAmf.s:107270  .debug_str:000000000004b639 .LASF402
     /tmp/ccCwMAmf.s:104694  .debug_str:0000000000040565 .LASF403
     /tmp/ccCwMAmf.s:101006  .debug_str:00000000000316f5 .LASF404
     /tmp/ccCwMAmf.s:104020  .debug_str:000000000003daba .LASF405
     /tmp/ccCwMAmf.s:92052  .debug_str:000000000000d492 .LASF406
     /tmp/ccCwMAmf.s:106772  .debug_str:000000000004943a .LASF407
     /tmp/ccCwMAmf.s:98350  .debug_str:0000000000026b1e .LASF408
     /tmp/ccCwMAmf.s:90688  .debug_str:00000000000077e9 .LASF409
     /tmp/ccCwMAmf.s:89564  .debug_str:0000000000002b70 .LASF410
     /tmp/ccCwMAmf.s:93616  .debug_str:00000000000131da .LASF411
     /tmp/ccCwMAmf.s:96742  .debug_str:000000000002043f .LASF412
     /tmp/ccCwMAmf.s:100686  .debug_str:000000000003024b .LASF413
     /tmp/ccCwMAmf.s:90958  .debug_str:00000000000089ad .LASF414
     /tmp/ccCwMAmf.s:96032  .debug_str:000000000001d1c5 .LASF415
     /tmp/ccCwMAmf.s:90996  .debug_str:0000000000008c4f .LASF416
     /tmp/ccCwMAmf.s:100016  .debug_str:000000000002d5be .LASF417
     /tmp/ccCwMAmf.s:98436  .debug_str:00000000000270b7 .LASF418
     /tmp/ccCwMAmf.s:92802  .debug_str:000000000000ff67 .LASF419
     /tmp/ccCwMAmf.s:101824  .debug_str:0000000000034d06 .LASF420
     /tmp/ccCwMAmf.s:106790  .debug_str:0000000000049519 .LASF421
     /tmp/ccCwMAmf.s:108144  .debug_str:000000000004f238 .LASF422
     /tmp/ccCwMAmf.s:100740  .debug_str:00000000000305e7 .LASF423
     /tmp/ccCwMAmf.s:97384  .debug_str:0000000000022f6b .LASF424
     /tmp/ccCwMAmf.s:96106  .debug_str:000000000001d6c2 .LASF425
     /tmp/ccCwMAmf.s:99654  .debug_str:000000000002c08b .LASF426
     /tmp/ccCwMAmf.s:100736  .debug_str:000000000003058e .LASF427
     /tmp/ccCwMAmf.s:89626  .debug_str:0000000000002f61 .LASF428
     /tmp/ccCwMAmf.s:94498  .debug_str:00000000000168d6 .LASF429
     /tmp/ccCwMAmf.s:101344  .debug_str:0000000000032d41 .LASF430
     /tmp/ccCwMAmf.s:93114  .debug_str:0000000000011061 .LASF431
     /tmp/ccCwMAmf.s:105368  .debug_str:0000000000043867 .LASF432
     /tmp/ccCwMAmf.s:106990  .debug_str:000000000004a1f2 .LASF433
     /tmp/ccCwMAmf.s:99098  .debug_str:0000000000029cb9 .LASF434
     /tmp/ccCwMAmf.s:93826  .debug_str:0000000000013f2a .LASF435
     /tmp/ccCwMAmf.s:98514  .debug_str:0000000000027560 .LASF436
     /tmp/ccCwMAmf.s:89326  .debug_str:0000000000001a8b .LASF437
     /tmp/ccCwMAmf.s:95436  .debug_str:000000000001a81b .LASF438
     /tmp/ccCwMAmf.s:90920  .debug_str:0000000000008729 .LASF439
     /tmp/ccCwMAmf.s:101568  .debug_str:0000000000033c2c .LASF440
     /tmp/ccCwMAmf.s:91652  .debug_str:000000000000b93d .LASF441
     /tmp/ccCwMAmf.s:98892  .debug_str:0000000000028fad .LASF442
     /tmp/ccCwMAmf.s:103694  .debug_str:000000000003c556 .LASF443
     /tmp/ccCwMAmf.s:101342  .debug_str:0000000000032d21 .LASF444
     /tmp/ccCwMAmf.s:91134  .debug_str:000000000000956c .LASF445
     /tmp/ccCwMAmf.s:101628  .debug_str:0000000000033fab .LASF446
     /tmp/ccCwMAmf.s:97824  .debug_str:0000000000024d30 .LASF447
     /tmp/ccCwMAmf.s:90878  .debug_str:000000000000840b .LASF448
     /tmp/ccCwMAmf.s:102258  .debug_str:0000000000036b92 .LASF449
     /tmp/ccCwMAmf.s:95712  .debug_str:000000000001baf5 .LASF450
     /tmp/ccCwMAmf.s:104394  .debug_str:000000000003f2ec .LASF451
     /tmp/ccCwMAmf.s:106936  .debug_str:0000000000049f3e .LASF452
     /tmp/ccCwMAmf.s:105874  .debug_str:00000000000459a7 .LASF453
     /tmp/ccCwMAmf.s:92208  .debug_str:000000000000dd16 .LASF454
     /tmp/ccCwMAmf.s:93916  .debug_str:00000000000144c2 .LASF455
     /tmp/ccCwMAmf.s:95328  .debug_str:000000000001a018 .LASF456
     /tmp/ccCwMAmf.s:96560  .debug_str:000000000001f756 .LASF457
     /tmp/ccCwMAmf.s:106758  .debug_str:0000000000049390 .LASF458
     /tmp/ccCwMAmf.s:103698  .debug_str:000000000003c5b5 .LASF459
     /tmp/ccCwMAmf.s:95736  .debug_str:000000000001bcae .LASF460
     /tmp/ccCwMAmf.s:106136  .debug_str:00000000000469db .LASF461
     /tmp/ccCwMAmf.s:105094  .debug_str:00000000000425d6 .LASF462
     /tmp/ccCwMAmf.s:90974  .debug_str:0000000000008ac5 .LASF463
     /tmp/ccCwMAmf.s:104156  .debug_str:000000000003e45d .LASF464
     /tmp/ccCwMAmf.s:89532  .debug_str:0000000000002914 .LASF465
     /tmp/ccCwMAmf.s:100458  .debug_str:000000000002f3ae .LASF466
     /tmp/ccCwMAmf.s:105310  .debug_str:0000000000043408 .LASF467
     /tmp/ccCwMAmf.s:96426  .debug_str:000000000001ecfd .LASF468
     /tmp/ccCwMAmf.s:104028  .debug_str:000000000003db78 .LASF469
     /tmp/ccCwMAmf.s:104570  .debug_str:000000000003fd9d .LASF470
     /tmp/ccCwMAmf.s:94414  .debug_str:000000000001633d .LASF471
     /tmp/ccCwMAmf.s:105474  .debug_str:0000000000043f30 .LASF472
     /tmp/ccCwMAmf.s:98018  .debug_str:0000000000025806 .LASF473
     /tmp/ccCwMAmf.s:108164  .debug_str:000000000004f388 .LASF474
     /tmp/ccCwMAmf.s:99880  .debug_str:000000000002cdb1 .LASF475
     /tmp/ccCwMAmf.s:105852  .debug_str:000000000004581c .LASF476
     /tmp/ccCwMAmf.s:93436  .debug_str:000000000001254b .LASF477
     /tmp/ccCwMAmf.s:96596  .debug_str:000000000001f98f .LASF478
     /tmp/ccCwMAmf.s:105444  .debug_str:0000000000043d45 .LASF479
     /tmp/ccCwMAmf.s:104528  .debug_str:000000000003fb39 .LASF480
     /tmp/ccCwMAmf.s:89664  .debug_str:0000000000003205 .LASF481
     /tmp/ccCwMAmf.s:103736  .debug_str:000000000003c85c .LASF482
     /tmp/ccCwMAmf.s:96150  .debug_str:000000000001da0c .LASF483
     /tmp/ccCwMAmf.s:106480  .debug_str:0000000000048166 .LASF484
     /tmp/ccCwMAmf.s:103548  .debug_str:000000000003ba74 .LASF485
     /tmp/ccCwMAmf.s:107790  .debug_str:000000000004da80 .LASF486
     /tmp/ccCwMAmf.s:100920  .debug_str:0000000000031135 .LASF487
     /tmp/ccCwMAmf.s:94666  .debug_str:0000000000017421 .LASF488
     /tmp/ccCwMAmf.s:100308  .debug_str:000000000002e94f .LASF489
     /tmp/ccCwMAmf.s:100846  .debug_str:0000000000030cd4 .LASF490
     /tmp/ccCwMAmf.s:102412  .debug_str:00000000000374ea .LASF491
     /tmp/ccCwMAmf.s:95708  .debug_str:000000000001baab .LASF492
     /tmp/ccCwMAmf.s:105176  .debug_str:0000000000042af8 .LASF493
     /tmp/ccCwMAmf.s:90568  .debug_str:0000000000006fc7 .LASF494
     /tmp/ccCwMAmf.s:102324  .debug_str:0000000000036f82 .LASF495
     /tmp/ccCwMAmf.s:93484  .debug_str:0000000000012820 .LASF496
     /tmp/ccCwMAmf.s:104554  .debug_str:000000000003fca3 .LASF497
     /tmp/ccCwMAmf.s:92734  .debug_str:000000000000fae7 .LASF498
     /tmp/ccCwMAmf.s:106850  .debug_str:0000000000049961 .LASF499
     /tmp/ccCwMAmf.s:101876  .debug_str:00000000000350a6 .LASF500
     /tmp/ccCwMAmf.s:91904  .debug_str:000000000000ca80 .LASF501
     /tmp/ccCwMAmf.s:97878  .debug_str:0000000000025000 .LASF502
     /tmp/ccCwMAmf.s:90400  .debug_str:0000000000006359 .LASF503
     /tmp/ccCwMAmf.s:105194  .debug_str:0000000000042bfb .LASF504
     /tmp/ccCwMAmf.s:102792  .debug_str:0000000000038c0c .LASF505
     /tmp/ccCwMAmf.s:90596  .debug_str:000000000000718d .LASF506
     /tmp/ccCwMAmf.s:106546  .debug_str:000000000004858d .LASF507
     /tmp/ccCwMAmf.s:95138  .debug_str:00000000000192e8 .LASF508
     /tmp/ccCwMAmf.s:91884  .debug_str:000000000000c8c9 .LASF509
     /tmp/ccCwMAmf.s:98000  .debug_str:00000000000256cf .LASF510
     /tmp/ccCwMAmf.s:97664  .debug_str:00000000000242ff .LASF511
     /tmp/ccCwMAmf.s:91808  .debug_str:000000000000c3e7 .LASF512
     /tmp/ccCwMAmf.s:98878  .debug_str:0000000000028e7f .LASF513
     /tmp/ccCwMAmf.s:107982  .debug_str:000000000004e7da .LASF514
     /tmp/ccCwMAmf.s:93718  .debug_str:00000000000138c0 .LASF515
     /tmp/ccCwMAmf.s:97084  .debug_str:0000000000021bb2 .LASF516
     /tmp/ccCwMAmf.s:89520  .debug_str:000000000000281f .LASF517
     /tmp/ccCwMAmf.s:97054  .debug_str:0000000000021960 .LASF518
     /tmp/ccCwMAmf.s:102496  .debug_str:0000000000037a0f .LASF519
     /tmp/ccCwMAmf.s:103414  .debug_str:000000000003b150 .LASF520
     /tmp/ccCwMAmf.s:93084  .debug_str:0000000000010eec .LASF521
     /tmp/ccCwMAmf.s:106444  .debug_str:0000000000047f10 .LASF522
     /tmp/ccCwMAmf.s:90654  .debug_str:0000000000007554 .LASF523
     /tmp/ccCwMAmf.s:95460  .debug_str:000000000001aa1a .LASF524
     /tmp/ccCwMAmf.s:100294  .debug_str:000000000002e857 .LASF525
     /tmp/ccCwMAmf.s:96448  .debug_str:000000000001ee89 .LASF526
     /tmp/ccCwMAmf.s:101492  .debug_str:0000000000033720 .LASF527
     /tmp/ccCwMAmf.s:105646  .debug_str:0000000000044a63 .LASF528
     /tmp/ccCwMAmf.s:92444  .debug_str:000000000000ea4f .LASF529
     /tmp/ccCwMAmf.s:90684  .debug_str:0000000000007759 .LASF530
     /tmp/ccCwMAmf.s:96534  .debug_str:000000000001f53b .LASF531
     /tmp/ccCwMAmf.s:90686  .debug_str:00000000000077ac .LASF532
     /tmp/ccCwMAmf.s:101910  .debug_str:000000000003531d .LASF533
     /tmp/ccCwMAmf.s:96822  .debug_str:0000000000020a1e .LASF534
     /tmp/ccCwMAmf.s:89372  .debug_str:0000000000001ddb .LASF535
     /tmp/ccCwMAmf.s:95762  .debug_str:000000000001be5d .LASF536
     /tmp/ccCwMAmf.s:102126  .debug_str:0000000000036286 .LASF537
     /tmp/ccCwMAmf.s:100234  .debug_str:000000000002e400 .LASF538
     /tmp/ccCwMAmf.s:91918  .debug_str:000000000000cbba .LASF539
     /tmp/ccCwMAmf.s:100932  .debug_str:000000000003120c .LASF540
     /tmp/ccCwMAmf.s:108282  .debug_str:000000000004fbc8 .LASF541
     /tmp/ccCwMAmf.s:95152  .debug_str:000000000001942d .LASF542
     /tmp/ccCwMAmf.s:98342  .debug_str:0000000000026aa4 .LASF543
     /tmp/ccCwMAmf.s:103820  .debug_str:000000000003cd67 .LASF544
     /tmp/ccCwMAmf.s:91034  .debug_str:0000000000008eba .LASF545
     /tmp/ccCwMAmf.s:106890  .debug_str:0000000000049c05 .LASF546
     /tmp/ccCwMAmf.s:106326  .debug_str:00000000000476dc .LASF547
     /tmp/ccCwMAmf.s:96570  .debug_str:000000000001f7ff .LASF548
     /tmp/ccCwMAmf.s:95046  .debug_str:0000000000018c60 .LASF549
     /tmp/ccCwMAmf.s:94120  .debug_str:00000000000150cb .LASF550
     /tmp/ccCwMAmf.s:106294  .debug_str:00000000000474e1 .LASF551
     /tmp/ccCwMAmf.s:99796  .debug_str:000000000002c84f .LASF552
     /tmp/ccCwMAmf.s:105302  .debug_str:000000000004339e .LASF553
     /tmp/ccCwMAmf.s:101694  .debug_str:00000000000343dc .LASF554
     /tmp/ccCwMAmf.s:94510  .debug_str:00000000000169a9 .LASF555
     /tmp/ccCwMAmf.s:94778  .debug_str:0000000000017cb3 .LASF556
     /tmp/ccCwMAmf.s:90372  .debug_str:00000000000061a1 .LASF557
     /tmp/ccCwMAmf.s:108296  .debug_str:000000000004fcc7 .LASF558
     /tmp/ccCwMAmf.s:106868  .debug_str:0000000000049ae2 .LASF559
     /tmp/ccCwMAmf.s:102440  .debug_str:0000000000037752 .LASF560
     /tmp/ccCwMAmf.s:97250  .debug_str:0000000000022688 .LASF561
     /tmp/ccCwMAmf.s:90810  .debug_str:0000000000007f79 .LASF562
     /tmp/ccCwMAmf.s:89876  .debug_str:0000000000003ffe .LASF563
     /tmp/ccCwMAmf.s:90100  .debug_str:0000000000004fa7 .LASF564
     /tmp/ccCwMAmf.s:107284  .debug_str:000000000004b6f8 .LASF565
     /tmp/ccCwMAmf.s:98806  .debug_str:00000000000289bd .LASF566
     /tmp/ccCwMAmf.s:105162  .debug_str:0000000000042a8d .LASF567
     /tmp/ccCwMAmf.s:93054  .debug_str:0000000000010cd6 .LASF568
     /tmp/ccCwMAmf.s:104532  .debug_str:000000000003fb76 .LASF569
     /tmp/ccCwMAmf.s:103436  .debug_str:000000000003b2c5 .LASF570
     /tmp/ccCwMAmf.s:95824  .debug_str:000000000001c2db .LASF571
     /tmp/ccCwMAmf.s:102078  .debug_str:0000000000035f73 .LASF572
     /tmp/ccCwMAmf.s:98248  .debug_str:0000000000026449 .LASF574
     /tmp/ccCwMAmf.s:92410  .debug_str:000000000000e886 .LASF575
     /tmp/ccCwMAmf.s:97888  .debug_str:00000000000250a8 .LASF578
     /tmp/ccCwMAmf.s:98466  .debug_str:0000000000027219 .LASF579
     /tmp/ccCwMAmf.s:97228  .debug_str:0000000000022521 .LASF580
     /tmp/ccCwMAmf.s:101436  .debug_str:0000000000033317 .LASF581
     /tmp/ccCwMAmf.s:93764  .debug_str:0000000000013ba5 .LASF583
     /tmp/ccCwMAmf.s:97526  .debug_str:00000000000239b8 .LASF584
     /tmp/ccCwMAmf.s:99768  .debug_str:000000000002c6da .LASF585
     /tmp/ccCwMAmf.s:101400  .debug_str:0000000000033091 .LASF586
     /tmp/ccCwMAmf.s:103886  .debug_str:000000000003d188 .LASF587
     /tmp/ccCwMAmf.s:95544  .debug_str:000000000001afbe .LASF588
     /tmp/ccCwMAmf.s:89446  .debug_str:0000000000002364 .LASF589
     /tmp/ccCwMAmf.s:98702  .debug_str:00000000000281c0 .LASF590
     /tmp/ccCwMAmf.s:107214  .debug_str:000000000004b253 .LASF591
     /tmp/ccCwMAmf.s:92616  .debug_str:000000000000f2e4 .LASF592
     /tmp/ccCwMAmf.s:96260  .debug_str:000000000001e21c .LASF593
     /tmp/ccCwMAmf.s:89026  .debug_str:0000000000000592 .LASF594
     /tmp/ccCwMAmf.s:101854  .debug_str:0000000000034ef0 .LASF595
     /tmp/ccCwMAmf.s:90556  .debug_str:0000000000006ebc .LASF596
     /tmp/ccCwMAmf.s:95716  .debug_str:000000000001bb57 .LASF597
     /tmp/ccCwMAmf.s:94946  .debug_str:0000000000018702 .LASF598
     /tmp/ccCwMAmf.s:103266  .debug_str:000000000003a6d4 .LASF599
     /tmp/ccCwMAmf.s:91894  .debug_str:000000000000c9d0 .LASF600
     /tmp/ccCwMAmf.s:101874  .debug_str:0000000000035082 .LASF601
     /tmp/ccCwMAmf.s:96078  .debug_str:000000000001d4cf .LASF602
     /tmp/ccCwMAmf.s:92636  .debug_str:000000000000f45e .LASF603
     /tmp/ccCwMAmf.s:106282  .debug_str:000000000004741e .LASF604
     /tmp/ccCwMAmf.s:90084  .debug_str:0000000000004eb3 .LASF605
     /tmp/ccCwMAmf.s:107506  .debug_str:000000000004c614 .LASF606
     /tmp/ccCwMAmf.s:105382  .debug_str:0000000000043933 .LASF607
     /tmp/ccCwMAmf.s:107460  .debug_str:000000000004c2ac .LASF608
     /tmp/ccCwMAmf.s:96842  .debug_str:0000000000020b8e .LASF609
     /tmp/ccCwMAmf.s:106146  .debug_str:0000000000046ac1 .LASF610
     /tmp/ccCwMAmf.s:107000  .debug_str:000000000004a2a9 .LASF611
     /tmp/ccCwMAmf.s:97000  .debug_str:000000000002158e .LASF612
     /tmp/ccCwMAmf.s:105728  .debug_str:0000000000044fe4 .LASF613
     /tmp/ccCwMAmf.s:94990  .debug_str:000000000001890d .LASF614
     /tmp/ccCwMAmf.s:100464  .debug_str:000000000002f439 .LASF615
     /tmp/ccCwMAmf.s:97202  .debug_str:000000000002242e .LASF616
     /tmp/ccCwMAmf.s:98764  .debug_str:000000000002866f .LASF617
     /tmp/ccCwMAmf.s:96736  .debug_str:00000000000203c6 .LASF618
     /tmp/ccCwMAmf.s:97462  .debug_str:000000000002349b .LASF619
     /tmp/ccCwMAmf.s:89302  .debug_str:0000000000001847 .LASF620
     /tmp/ccCwMAmf.s:98688  .debug_str:0000000000028109 .LASF621
     /tmp/ccCwMAmf.s:92638  .debug_str:000000000000f47e .LASF622
     /tmp/ccCwMAmf.s:89926  .debug_str:00000000000043e4 .LASF623
     /tmp/ccCwMAmf.s:97184  .debug_str:000000000002224d .LASF624
     /tmp/ccCwMAmf.s:104754  .debug_str:00000000000409ba .LASF625
     /tmp/ccCwMAmf.s:102030  .debug_str:0000000000035bfc .LASF626
     /tmp/ccCwMAmf.s:95836  .debug_str:000000000001c405 .LASF627
     /tmp/ccCwMAmf.s:92618  .debug_str:000000000000f2f4 .LASF628
     /tmp/ccCwMAmf.s:105778  .debug_str:00000000000452b2 .LASF629
     /tmp/ccCwMAmf.s:104962  .debug_str:00000000000419c5 .LASF630
     /tmp/ccCwMAmf.s:102540  .debug_str:0000000000037d62 .LASF631
     /tmp/ccCwMAmf.s:104992  .debug_str:0000000000041e5a .LASF632
     /tmp/ccCwMAmf.s:103796  .debug_str:000000000003cbd8 .LASF633
     /tmp/ccCwMAmf.s:98708  .debug_str:0000000000028215 .LASF634
     /tmp/ccCwMAmf.s:97636  .debug_str:00000000000240fd .LASF635
     /tmp/ccCwMAmf.s:103104  .debug_str:0000000000039c4b .LASF636
     /tmp/ccCwMAmf.s:105706  .debug_str:0000000000044e88 .LASF637
     /tmp/ccCwMAmf.s:91568  .debug_str:000000000000b362 .LASF638
     /tmp/ccCwMAmf.s:89504  .debug_str:0000000000002712 .LASF639
     /tmp/ccCwMAmf.s:106964  .debug_str:000000000004a0bf .LASF640
     /tmp/ccCwMAmf.s:99508  .debug_str:000000000002b763 .LASF641
     /tmp/ccCwMAmf.s:100976  .debug_str:000000000003147b .LASF642
     /tmp/ccCwMAmf.s:102766  .debug_str:0000000000038a84 .LASF643
     /tmp/ccCwMAmf.s:89406  .debug_str:000000000000206f .LASF644
     /tmp/ccCwMAmf.s:97830  .debug_str:0000000000024da7 .LASF645
     /tmp/ccCwMAmf.s:98826  .debug_str:0000000000028ac9 .LASF646
     /tmp/ccCwMAmf.s:97836  .debug_str:0000000000024e20 .LASF647
     /tmp/ccCwMAmf.s:101520  .debug_str:00000000000338d1 .LASF648
     /tmp/ccCwMAmf.s:104166  .debug_str:000000000003e4c4 .LASF649
     /tmp/ccCwMAmf.s:107628  .debug_str:000000000004ceb8 .LASF650
     /tmp/ccCwMAmf.s:94500  .debug_str:00000000000168e4 .LASF651
     /tmp/ccCwMAmf.s:100520  .debug_str:000000000002f7dd .LASF652
     /tmp/ccCwMAmf.s:90564  .debug_str:0000000000006f7e .LASF653
     /tmp/ccCwMAmf.s:91498  .debug_str:000000000000ae35 .LASF654
     /tmp/ccCwMAmf.s:92512  .debug_str:000000000000ed25 .LASF655
     /tmp/ccCwMAmf.s:103790  .debug_str:000000000003cb7e .LASF656
     /tmp/ccCwMAmf.s:96138  .debug_str:000000000001d903 .LASF657
     /tmp/ccCwMAmf.s:106420  .debug_str:0000000000047dae .LASF658
     /tmp/ccCwMAmf.s:96752  .debug_str:0000000000020524 .LASF659
     /tmp/ccCwMAmf.s:101774  .debug_str:00000000000349da .LASF660
     /tmp/ccCwMAmf.s:93072  .debug_str:0000000000010e68 .LASF661
     /tmp/ccCwMAmf.s:97470  .debug_str:0000000000023603 .LASF662
     /tmp/ccCwMAmf.s:93770  .debug_str:0000000000013c03 .LASF663
     /tmp/ccCwMAmf.s:105254  .debug_str:0000000000043061 .LASF664
     /tmp/ccCwMAmf.s:98632  .debug_str:0000000000027d6a .LASF665
     /tmp/ccCwMAmf.s:96970  .debug_str:000000000002135c .LASF666
     /tmp/ccCwMAmf.s:103356  .debug_str:000000000003ad7d .LASF667
     /tmp/ccCwMAmf.s:94328  .debug_str:0000000000015e3e .LASF668
     /tmp/ccCwMAmf.s:106508  .debug_str:000000000004831b .LASF669
     /tmp/ccCwMAmf.s:96606  .debug_str:000000000001fa1c .LASF670
     /tmp/ccCwMAmf.s:104160  .debug_str:000000000003e483 .LASF671
     /tmp/ccCwMAmf.s:99216  .debug_str:000000000002a502 .LASF672
     /tmp/ccCwMAmf.s:89228  .debug_str:00000000000012dc .LASF673
     /tmp/ccCwMAmf.s:100200  .debug_str:000000000002e20a .LASF674
     /tmp/ccCwMAmf.s:105686  .debug_str:0000000000044d52 .LASF675
     /tmp/ccCwMAmf.s:97712  .debug_str:0000000000024657 .LASF676
     /tmp/ccCwMAmf.s:105348  .debug_str:00000000000436d1 .LASF677
     /tmp/ccCwMAmf.s:94956  .debug_str:000000000001879b .LASF678
     /tmp/ccCwMAmf.s:100694  .debug_str:0000000000030298 .LASF679
     /tmp/ccCwMAmf.s:99516  .debug_str:000000000002b7fc .LASF680
     /tmp/ccCwMAmf.s:102198  .debug_str:0000000000036793 .LASF681
     /tmp/ccCwMAmf.s:95316  .debug_str:0000000000019f34 .LASF683
     /tmp/ccCwMAmf.s:99430  .debug_str:000000000002b1b5 .LASF684
     /tmp/ccCwMAmf.s:90656  .debug_str:000000000000756e .LASF685
     /tmp/ccCwMAmf.s:100650  .debug_str:0000000000030001 .LASF686
     /tmp/ccCwMAmf.s:107942  .debug_str:000000000004e561 .LASF687
     /tmp/ccCwMAmf.s:97204  .debug_str:0000000000022447 .LASF688
     /tmp/ccCwMAmf.s:93108  .debug_str:0000000000010fde .LASF689
     /tmp/ccCwMAmf.s:106658  .debug_str:0000000000048c95 .LASF690
     /tmp/ccCwMAmf.s:104398  .debug_str:000000000003f341 .LASF691
     /tmp/ccCwMAmf.s:104032  .debug_str:000000000003dbc0 .LASF692
     /tmp/ccCwMAmf.s:89852  .debug_str:0000000000003e1b .LASF693
     /tmp/ccCwMAmf.s:92064  .debug_str:000000000000d516 .LASF694
     /tmp/ccCwMAmf.s:107616  .debug_str:000000000004cdf5 .LASF695
     /tmp/ccCwMAmf.s:108146  .debug_str:000000000004f241 .LASF696
     /tmp/ccCwMAmf.s:108008  .debug_str:000000000004e923 .LASF697
     /tmp/ccCwMAmf.s:91800  .debug_str:000000000000c37c .LASF698
     /tmp/ccCwMAmf.s:89768  .debug_str:000000000000389f .LASF699
     /tmp/ccCwMAmf.s:95018  .debug_str:0000000000018b02 .LASF702
     /tmp/ccCwMAmf.s:90886  .debug_str:000000000000848a .LASF703
     /tmp/ccCwMAmf.s:100956  .debug_str:0000000000031361 .LASF704
     /tmp/ccCwMAmf.s:103592  .debug_str:000000000003bd96 .LASF705
     /tmp/ccCwMAmf.s:99948  .debug_str:000000000002d1c7 .LASF706
     /tmp/ccCwMAmf.s:94746  .debug_str:0000000000017a11 .LASF707
     /tmp/ccCwMAmf.s:100258  .debug_str:000000000002e58d .LASF708
     /tmp/ccCwMAmf.s:102106  .debug_str:00000000000360f8 .LASF709
     /tmp/ccCwMAmf.s:107052  .debug_str:000000000004a67f .LASF710
     /tmp/ccCwMAmf.s:105810  .debug_str:00000000000454cf .LASF711
     /tmp/ccCwMAmf.s:101938  .debug_str:0000000000035514 .LASF714
     /tmp/ccCwMAmf.s:103352  .debug_str:000000000003acfe .LASF715
     /tmp/ccCwMAmf.s:107202  .debug_str:000000000004b171 .LASF716
     /tmp/ccCwMAmf.s:92486  .debug_str:000000000000ec90 .LASF717
     /tmp/ccCwMAmf.s:106580  .debug_str:000000000004877f .LASF718
     /tmp/ccCwMAmf.s:95578  .debug_str:000000000001b1e1 .LASF719
     /tmp/ccCwMAmf.s:101236  .debug_str:0000000000032606 .LASF720
     /tmp/ccCwMAmf.s:91434  .debug_str:000000000000a9de .LASF721
     /tmp/ccCwMAmf.s:108042  .debug_str:000000000004eb77 .LASF722
     /tmp/ccCwMAmf.s:98074  .debug_str:0000000000025a81 .LASF723
     /tmp/ccCwMAmf.s:107022  .debug_str:000000000004a42f .LASF724
     /tmp/ccCwMAmf.s:103050  .debug_str:0000000000039960 .LASF725
     /tmp/ccCwMAmf.s:90710  .debug_str:000000000000795c .LASF726
     /tmp/ccCwMAmf.s:100206  .debug_str:000000000002e259 .LASF727
     /tmp/ccCwMAmf.s:100710  .debug_str:00000000000303c8 .LASF728
     /tmp/ccCwMAmf.s:94202  .debug_str:000000000001560e .LASF729
     /tmp/ccCwMAmf.s:97872  .debug_str:0000000000024fb6 .LASF730
     /tmp/ccCwMAmf.s:99576  .debug_str:000000000002bb16 .LASF731
     /tmp/ccCwMAmf.s:94638  .debug_str:000000000001720b .LASF732
     /tmp/ccCwMAmf.s:98262  .debug_str:0000000000026549 .LASF733
     /tmp/ccCwMAmf.s:100798  .debug_str:00000000000309da .LASF734
     /tmp/ccCwMAmf.s:97126  .debug_str:0000000000021ece .LASF735
     /tmp/ccCwMAmf.s:107992  .debug_str:000000000004e889 .LASF736
     /tmp/ccCwMAmf.s:107744  .debug_str:000000000004d677 .LASF737
     /tmp/ccCwMAmf.s:106950  .debug_str:000000000004a010 .LASF738
     /tmp/ccCwMAmf.s:106692  .debug_str:0000000000048f3c .LASF739
     /tmp/ccCwMAmf.s:102806  .debug_str:0000000000038d2a .LASF740
     /tmp/ccCwMAmf.s:103658  .debug_str:000000000003c2cd .LASF741
     /tmp/ccCwMAmf.s:89416  .debug_str:0000000000002112 .LASF742
     /tmp/ccCwMAmf.s:91516  .debug_str:000000000000af52 .LASF743
     /tmp/ccCwMAmf.s:93148  .debug_str:00000000000112ab .LASF744
     /tmp/ccCwMAmf.s:91658  .debug_str:000000000000b97e .LASF745
     /tmp/ccCwMAmf.s:108078  .debug_str:000000000004ee25 .LASF746
     /tmp/ccCwMAmf.s:99378  .debug_str:000000000002af37 .LASF747
     /tmp/ccCwMAmf.s:99514  .debug_str:000000000002b7eb .LASF748
     /tmp/ccCwMAmf.s:101042  .debug_str:0000000000031909 .LASF749
     /tmp/ccCwMAmf.s:107724  .debug_str:000000000004d501 .LASF750
     /tmp/ccCwMAmf.s:95406  .debug_str:000000000001a5fe .LASF751
     /tmp/ccCwMAmf.s:104414  .debug_str:000000000003f421 .LASF752
     /tmp/ccCwMAmf.s:98222  .debug_str:00000000000262e2 .LASF753
     /tmp/ccCwMAmf.s:99722  .debug_str:000000000002c430 .LASF754
     /tmp/ccCwMAmf.s:100876  .debug_str:0000000000030e9a .LASF755
     /tmp/ccCwMAmf.s:106384  .debug_str:0000000000047afa .LASF756
     /tmp/ccCwMAmf.s:107952  .debug_str:000000000004e5e3 .LASF757
     /tmp/ccCwMAmf.s:96222  .debug_str:000000000001df42 .LASF759
     /tmp/ccCwMAmf.s:95792  .debug_str:000000000001c106 .LASF760
     /tmp/ccCwMAmf.s:107508  .debug_str:000000000004c63c .LASF761
     /tmp/ccCwMAmf.s:90098  .debug_str:0000000000004f9c .LASF762
     /tmp/ccCwMAmf.s:88998  .debug_str:0000000000000372 .LASF763
     /tmp/ccCwMAmf.s:91746  .debug_str:000000000000c05f .LASF764
     /tmp/ccCwMAmf.s:99218  .debug_str:000000000002a515 .LASF765
     /tmp/ccCwMAmf.s:89150  .debug_str:0000000000000da0 .LASF766
     /tmp/ccCwMAmf.s:95946  .debug_str:000000000001cc20 .LASF767
     /tmp/ccCwMAmf.s:91414  .debug_str:000000000000a8c4 .LASF768
     /tmp/ccCwMAmf.s:99778  .debug_str:000000000002c74b .LASF769
     /tmp/ccCwMAmf.s:100998  .debug_str:0000000000031654 .LASF770
     /tmp/ccCwMAmf.s:99686  .debug_str:000000000002c25d .LASF771
     /tmp/ccCwMAmf.s:92080  .debug_str:000000000000d642 .LASF774
     /tmp/ccCwMAmf.s:103372  .debug_str:000000000003ae5c .LASF775
     /tmp/ccCwMAmf.s:89490  .debug_str:0000000000002616 .LASF776
     /tmp/ccCwMAmf.s:89912  .debug_str:00000000000042bc .LASF777
     /tmp/ccCwMAmf.s:101070  .debug_str:0000000000031abf .LASF778
     /tmp/ccCwMAmf.s:95760  .debug_str:000000000001be50 .LASF779
     /tmp/ccCwMAmf.s:97288  .debug_str:000000000002292c .LASF780
     /tmp/ccCwMAmf.s:103558  .debug_str:000000000003bb50 .LASF781
     /tmp/ccCwMAmf.s:97522  .debug_str:000000000002396e .LASF782
     /tmp/ccCwMAmf.s:90370  .debug_str:0000000000006193 .LASF783
     /tmp/ccCwMAmf.s:105848  .debug_str:00000000000457fa .LASF784
     /tmp/ccCwMAmf.s:103222  .debug_str:000000000003a3cf .LASF785
     /tmp/ccCwMAmf.s:107706  .debug_str:000000000004d395 .LASF786
     /tmp/ccCwMAmf.s:103252  .debug_str:000000000003a5b8 .LASF787
     /tmp/ccCwMAmf.s:92348  .debug_str:000000000000e522 .LASF788
     /tmp/ccCwMAmf.s:94842  .debug_str:0000000000018042 .LASF789
     /tmp/ccCwMAmf.s:107640  .debug_str:000000000004cf7b .LASF790
     /tmp/ccCwMAmf.s:106028  .debug_str:000000000004635a .LASF791
     /tmp/ccCwMAmf.s:92558  .debug_str:000000000000efc2 .LASF792
     /tmp/ccCwMAmf.s:90790  .debug_str:0000000000007e5f .LASF793
     /tmp/ccCwMAmf.s:100626  .debug_str:000000000002fec6 .LASF794
     /tmp/ccCwMAmf.s:98870  .debug_str:0000000000028e0b .LASF795
     /tmp/ccCwMAmf.s:104732  .debug_str:0000000000040867 .LASF796
     /tmp/ccCwMAmf.s:96910  .debug_str:0000000000020f5d .LASF797
     /tmp/ccCwMAmf.s:102316  .debug_str:0000000000036f22 .LASF798
     /tmp/ccCwMAmf.s:104326  .debug_str:000000000003ee9c .LASF799
     /tmp/ccCwMAmf.s:103818  .debug_str:000000000003cd55 .LASF800
     /tmp/ccCwMAmf.s:94512  .debug_str:00000000000169b6 .LASF801
     /tmp/ccCwMAmf.s:106766  .debug_str:00000000000493dd .LASF802
     /tmp/ccCwMAmf.s:103412  .debug_str:000000000003b145 .LASF803
     /tmp/ccCwMAmf.s:94088  .debug_str:0000000000014ef7 .LASF804
     /tmp/ccCwMAmf.s:89454  .debug_str:00000000000023f0 .LASF805
     /tmp/ccCwMAmf.s:92206  .debug_str:000000000000dd0b .LASF806
     /tmp/ccCwMAmf.s:96066  .debug_str:000000000001d3de .LASF807
     /tmp/ccCwMAmf.s:89542  .debug_str:00000000000029de .LASF808
     /tmp/ccCwMAmf.s:104464  .debug_str:000000000003f76b .LASF809
     /tmp/ccCwMAmf.s:102296  .debug_str:0000000000036dbe .LASF810
     /tmp/ccCwMAmf.s:100756  .debug_str:000000000003075a .LASF811
     /tmp/ccCwMAmf.s:106202  .debug_str:0000000000046ed9 .LASF812
     /tmp/ccCwMAmf.s:96588  .debug_str:000000000001f942 .LASF813
     /tmp/ccCwMAmf.s:103438  .debug_str:000000000003b2d4 .LASF814
     /tmp/ccCwMAmf.s:93710  .debug_str:0000000000013826 .LASF815
     /tmp/ccCwMAmf.s:105066  .debug_str:00000000000423cc .LASF816
     /tmp/ccCwMAmf.s:89934  .debug_str:0000000000004486 .LASF817
     /tmp/ccCwMAmf.s:107676  .debug_str:000000000004d161 .LASF818
     /tmp/ccCwMAmf.s:104266  .debug_str:000000000003eb25 .LASF819
     /tmp/ccCwMAmf.s:102698  .debug_str:00000000000386cf .LASF820
     /tmp/ccCwMAmf.s:100562  .debug_str:000000000002fa85 .LASF821
     /tmp/ccCwMAmf.s:91142  .debug_str:00000000000095f1 .LASF822
     /tmp/ccCwMAmf.s:95466  .debug_str:000000000001aab3 .LASF823
     /tmp/ccCwMAmf.s:102420  .debug_str:0000000000037565 .LASF824
     /tmp/ccCwMAmf.s:96064  .debug_str:000000000001d3d1 .LASF825
     /tmp/ccCwMAmf.s:92054  .debug_str:000000000000d49c .LASF826
     /tmp/ccCwMAmf.s:92288  .debug_str:000000000000e1b4 .LASF831
     /tmp/ccCwMAmf.s:94370  .debug_str:000000000001607f .LASF832
     /tmp/ccCwMAmf.s:99424  .debug_str:000000000002b175 .LASF833
     /tmp/ccCwMAmf.s:99048  .debug_str:000000000002998c .LASF834
     /tmp/ccCwMAmf.s:108004  .debug_str:000000000004e8eb .LASF835
     /tmp/ccCwMAmf.s:105730  .debug_str:0000000000044ffc .LASF837
     /tmp/ccCwMAmf.s:89324  .debug_str:0000000000001a6f .LASF838
     /tmp/ccCwMAmf.s:102272  .debug_str:0000000000036c92 .LASF839
     /tmp/ccCwMAmf.s:99012  .debug_str:0000000000029748 .LASF841
     /tmp/ccCwMAmf.s:108050  .debug_str:000000000004ec44 .LASF842
     /tmp/ccCwMAmf.s:100774  .debug_str:0000000000030878 .LASF843
     /tmp/ccCwMAmf.s:101570  .debug_str:0000000000033c42 .LASF844
     /tmp/ccCwMAmf.s:89434  .debug_str:0000000000002288 .LASF845
     /tmp/ccCwMAmf.s:91856  .debug_str:000000000000c715 .LASF846
     /tmp/ccCwMAmf.s:100634  .debug_str:000000000002ff4a .LASF847
     /tmp/ccCwMAmf.s:98716  .debug_str:00000000000282ca .LASF848
     /tmp/ccCwMAmf.s:106810  .debug_str:0000000000049680 .LASF849
     /tmp/ccCwMAmf.s:102928  .debug_str:00000000000392a2 .LASF850
     /tmp/ccCwMAmf.s:101794  .debug_str:0000000000034b9a .LASF851
     /tmp/ccCwMAmf.s:105982  .debug_str:000000000004609a .LASF852
     /tmp/ccCwMAmf.s:102098  .debug_str:000000000003608c .LASF853
     /tmp/ccCwMAmf.s:95852  .debug_str:000000000001c590 .LASF854
     /tmp/ccCwMAmf.s:102154  .debug_str:00000000000364b0 .LASF855
     /tmp/ccCwMAmf.s:101320  .debug_str:0000000000032bdf .LASF856
     /tmp/ccCwMAmf.s:95054  .debug_str:0000000000018d10 .LASF857
     /tmp/ccCwMAmf.s:107054  .debug_str:000000000004a756 .LASF858
     /tmp/ccCwMAmf.s:92322  .debug_str:000000000000e38a .LASF859
     /tmp/ccCwMAmf.s:102810  .debug_str:0000000000038d50 .LASF860
     /tmp/ccCwMAmf.s:90494  .debug_str:00000000000069da .LASF861
     /tmp/ccCwMAmf.s:93146  .debug_str:000000000001129d .LASF862
     /tmp/ccCwMAmf.s:95924  .debug_str:000000000001cb03 .LASF863
     /tmp/ccCwMAmf.s:103052  .debug_str:00000000000399e4 .LASF864
     /tmp/ccCwMAmf.s:108236  .debug_str:000000000004f896 .LASF865
     /tmp/ccCwMAmf.s:106390  .debug_str:0000000000047b4d .LASF866
     /tmp/ccCwMAmf.s:103012  .debug_str:00000000000396f1 .LASF867
     /tmp/ccCwMAmf.s:93322  .debug_str:0000000000011dbe .LASF868
     /tmp/ccCwMAmf.s:101904  .debug_str:00000000000352dc .LASF869
     /tmp/ccCwMAmf.s:90350  .debug_str:000000000000600b .LASF870
     /tmp/ccCwMAmf.s:104500  .debug_str:000000000003f990 .LASF871
     /tmp/ccCwMAmf.s:97032  .debug_str:00000000000217b5 .LASF872
     /tmp/ccCwMAmf.s:105508  .debug_str:0000000000044121 .LASF873
     /tmp/ccCwMAmf.s:96580  .debug_str:000000000001f8af .LASF874
     /tmp/ccCwMAmf.s:97380  .debug_str:0000000000022f3c .LASF875
     /tmp/ccCwMAmf.s:105488  .debug_str:0000000000043fc9 .LASF876
     /tmp/ccCwMAmf.s:106844  .debug_str:00000000000498e0 .LASF877
     /tmp/ccCwMAmf.s:98700  .debug_str:00000000000281a8 .LASF878
     /tmp/ccCwMAmf.s:96754  .debug_str:000000000002053e .LASF879
     /tmp/ccCwMAmf.s:100832  .debug_str:0000000000030bf5 .LASF880
     /tmp/ccCwMAmf.s:99806  .debug_str:000000000002c8f7 .LASF881
     /tmp/ccCwMAmf.s:95818  .debug_str:000000000001c25f .LASF882
     /tmp/ccCwMAmf.s:107792  .debug_str:000000000004daab .LASF883
     /tmp/ccCwMAmf.s:92664  .debug_str:000000000000f704 .LASF884
     /tmp/ccCwMAmf.s:106226  .debug_str:000000000004701b .LASF885
     /tmp/ccCwMAmf.s:99074  .debug_str:0000000000029b23 .LASF886
     /tmp/ccCwMAmf.s:90420  .debug_str:00000000000064e6 .LASF887
     /tmp/ccCwMAmf.s:106224  .debug_str:0000000000046ff3 .LASF888
     /tmp/ccCwMAmf.s:93554  .debug_str:0000000000012d62 .LASF889
     /tmp/ccCwMAmf.s:97368  .debug_str:0000000000022e7e .LASF890
     /tmp/ccCwMAmf.s:106432  .debug_str:0000000000047e6d .LASF891
     /tmp/ccCwMAmf.s:89526  .debug_str:00000000000028d3 .LASF892
     /tmp/ccCwMAmf.s:100948  .debug_str:00000000000312f1 .LASF893
     /tmp/ccCwMAmf.s:94764  .debug_str:0000000000017ba9 .LASF894
     /tmp/ccCwMAmf.s:104596  .debug_str:000000000003ff2a .LASF895
     /tmp/ccCwMAmf.s:90102  .debug_str:0000000000004fb3 .LASF896
     /tmp/ccCwMAmf.s:90662  .debug_str:00000000000075b8 .LASF897
     /tmp/ccCwMAmf.s:106754  .debug_str:0000000000049341 .LASF898
     /tmp/ccCwMAmf.s:102586  .debug_str:0000000000037ff9 .LASF899
     /tmp/ccCwMAmf.s:105984  .debug_str:00000000000460a2 .LASF900
     /tmp/ccCwMAmf.s:89168  .debug_str:0000000000000ede .LASF901
     /tmp/ccCwMAmf.s:93386  .debug_str:0000000000012234 .LASF902
     /tmp/ccCwMAmf.s:106818  .debug_str:00000000000496e6 .LASF903
     /tmp/ccCwMAmf.s:89288  .debug_str:00000000000016ff .LASF904
     /tmp/ccCwMAmf.s:97464  .debug_str:0000000000023591 .LASF905
     /tmp/ccCwMAmf.s:89378  .debug_str:0000000000001e8f .LASF906
     /tmp/ccCwMAmf.s:106242  .debug_str:00000000000470e6 .LASF907
     /tmp/ccCwMAmf.s:100176  .debug_str:000000000002e05f .LASF908
     /tmp/ccCwMAmf.s:99938  .debug_str:000000000002d145 .LASF909
     /tmp/ccCwMAmf.s:101330  .debug_str:0000000000032c57 .LASF910
     /tmp/ccCwMAmf.s:107248  .debug_str:000000000004b4ec .LASF911
     /tmp/ccCwMAmf.s:101552  .debug_str:0000000000033b1a .LASF912
     /tmp/ccCwMAmf.s:103716  .debug_str:000000000003c729 .LASF913
     /tmp/ccCwMAmf.s:106126  .debug_str:0000000000046945 .LASF914
     /tmp/ccCwMAmf.s:93912  .debug_str:0000000000014491 .LASF915
     /tmp/ccCwMAmf.s:90478  .debug_str:00000000000068ab .LASF916
     /tmp/ccCwMAmf.s:100336  .debug_str:000000000002eb64 .LASF917
     /tmp/ccCwMAmf.s:105726  .debug_str:0000000000044fbd .LASF918
     /tmp/ccCwMAmf.s:99534  .debug_str:000000000002b938 .LASF919
     /tmp/ccCwMAmf.s:106268  .debug_str:00000000000472fd .LASF920
     /tmp/ccCwMAmf.s:99988  .debug_str:000000000002d43c .LASF921
     /tmp/ccCwMAmf.s:98732  .debug_str:00000000000283e1 .LASF922
     /tmp/ccCwMAmf.s:97100  .debug_str:0000000000021d6d .LASF923
     /tmp/ccCwMAmf.s:102082  .debug_str:0000000000035f8c .LASF924
     /tmp/ccCwMAmf.s:107854  .debug_str:000000000004df18 .LASF925
     /tmp/ccCwMAmf.s:107686  .debug_str:000000000004d225 .LASF926
     /tmp/ccCwMAmf.s:104556  .debug_str:000000000003fcd0 .LASF927
     /tmp/ccCwMAmf.s:102356  .debug_str:0000000000037226 .LASF928
     /tmp/ccCwMAmf.s:94380  .debug_str:0000000000016135 .LASF929
     /tmp/ccCwMAmf.s:102246  .debug_str:0000000000036ac9 .LASF930
     /tmp/ccCwMAmf.s:106934  .debug_str:0000000000049f26 .LASF931
     /tmp/ccCwMAmf.s:106166  .debug_str:0000000000046c5c .LASF932
     /tmp/ccCwMAmf.s:92832  .debug_str:000000000001011c .LASF933
     /tmp/ccCwMAmf.s:93824  .debug_str:0000000000013f0e .LASF934
     /tmp/ccCwMAmf.s:90572  .debug_str:000000000000702c .LASF936
     /tmp/ccCwMAmf.s:107444  .debug_str:000000000004c173 .LASF937
     /tmp/ccCwMAmf.s:96038  .debug_str:000000000001d23c .LASF938
     /tmp/ccCwMAmf.s:96432  .debug_str:000000000001ed69 .LASF939
     /tmp/ccCwMAmf.s:103136  .debug_str:0000000000039de1 .LASF940
     /tmp/ccCwMAmf.s:97686  .debug_str:0000000000024448 .LASF941
     /tmp/ccCwMAmf.s:102150  .debug_str:000000000003642e .LASF942
     /tmp/ccCwMAmf.s:107044  .debug_str:000000000004a5c7 .LASF943
     /tmp/ccCwMAmf.s:92826  .debug_str:00000000000100ac .LASF944
     /tmp/ccCwMAmf.s:97708  .debug_str:0000000000024604 .LASF945
     /tmp/ccCwMAmf.s:102502  .debug_str:0000000000037a73 .LASF946
     /tmp/ccCwMAmf.s:107278  .debug_str:000000000004b697 .LASF947
     /tmp/ccCwMAmf.s:92724  .debug_str:000000000000fa3b .LASF948
     /tmp/ccCwMAmf.s:95886  .debug_str:000000000001c7b4 .LASF949
     /tmp/ccCwMAmf.s:93018  .debug_str:0000000000010a5e .LASF950
     /tmp/ccCwMAmf.s:105798  .debug_str:0000000000045432 .LASF951
     /tmp/ccCwMAmf.s:96658  .debug_str:000000000001fdef .LASF952
     /tmp/ccCwMAmf.s:103008  .debug_str:000000000003966d .LASF953
     /tmp/ccCwMAmf.s:90006  .debug_str:0000000000004944 .LASF954
     /tmp/ccCwMAmf.s:91700  .debug_str:000000000000bd0f .LASF955
     /tmp/ccCwMAmf.s:101382  .debug_str:0000000000032f51 .LASF956
     /tmp/ccCwMAmf.s:91310  .debug_str:000000000000a16c .LASF957
     /tmp/ccCwMAmf.s:95870  .debug_str:000000000001c691 .LASF958
     /tmp/ccCwMAmf.s:107154  .debug_str:000000000004adeb .LASF959
     /tmp/ccCwMAmf.s:97310  .debug_str:0000000000022a72 .LASF960
     /tmp/ccCwMAmf.s:96056  .debug_str:000000000001d340 .LASF961
     /tmp/ccCwMAmf.s:97116  .debug_str:0000000000021e12 .LASF962
     /tmp/ccCwMAmf.s:101200  .debug_str:0000000000032370 .LASF963
     /tmp/ccCwMAmf.s:91828  .debug_str:000000000000c527 .LASF964
     /tmp/ccCwMAmf.s:91576  .debug_str:000000000000b41f .LASF965
     /tmp/ccCwMAmf.s:101252  .debug_str:0000000000032710 .LASF966
     /tmp/ccCwMAmf.s:89000  .debug_str:000000000000038a .LASF967
     /tmp/ccCwMAmf.s:101022  .debug_str:00000000000317e7 .LASF968
     /tmp/ccCwMAmf.s:107032  .debug_str:000000000004a4ef .LASF969
     /tmp/ccCwMAmf.s:97192  .debug_str:000000000002234c .LASF970
     /tmp/ccCwMAmf.s:106826  .debug_str:0000000000049784 .LASF971
     /tmp/ccCwMAmf.s:96990  .debug_str:00000000000214cc .LASF972
     /tmp/ccCwMAmf.s:91662  .debug_str:000000000000b9a8 .LASF973
     /tmp/ccCwMAmf.s:105662  .debug_str:0000000000044ba3 .LASF974
     /tmp/ccCwMAmf.s:91450  .debug_str:000000000000aab7 .LASF975
     /tmp/ccCwMAmf.s:101122  .debug_str:0000000000031d9c .LASF976
     /tmp/ccCwMAmf.s:91066  .debug_str:00000000000090f9 .LASF977
     /tmp/ccCwMAmf.s:98832  .debug_str:0000000000028b35 .LASF978
     /tmp/ccCwMAmf.s:106914  .debug_str:0000000000049d5e .LASF979
     /tmp/ccCwMAmf.s:97078  .debug_str:0000000000021b21 .LASF980
     /tmp/ccCwMAmf.s:106708  .debug_str:000000000004900c .LASF981
     /tmp/ccCwMAmf.s:96864  .debug_str:0000000000020c68 .LASF982
     /tmp/ccCwMAmf.s:91546  .debug_str:000000000000b1fa .LASF983
     /tmp/ccCwMAmf.s:101220  .debug_str:00000000000324fe .LASF984
     /tmp/ccCwMAmf.s:91326  .debug_str:000000000000a2c6 .LASF985
     /tmp/ccCwMAmf.s:100988  .debug_str:0000000000031548 .LASF986
     /tmp/ccCwMAmf.s:97870  .debug_str:0000000000024f7c .LASF987
     /tmp/ccCwMAmf.s:91910  .debug_str:000000000000cb34 .LASF988
     /tmp/ccCwMAmf.s:105512  .debug_str:0000000000044142 .LASF989
     /tmp/ccCwMAmf.s:105358  .debug_str:0000000000043797 .LASF990
     /tmp/ccCwMAmf.s:98808  .debug_str:00000000000289ce .LASF991
     /tmp/ccCwMAmf.s:101738  .debug_str:000000000003469f .LASF992
     /tmp/ccCwMAmf.s:101440  .debug_str:0000000000033334 .LASF993
     /tmp/ccCwMAmf.s:101154  .debug_str:0000000000031fb8 .LASF994
     /tmp/ccCwMAmf.s:100128  .debug_str:000000000002dd25 .LASF995
     /tmp/ccCwMAmf.s:108246  .debug_str:000000000004f93d .LASF996
     /tmp/ccCwMAmf.s:101796  .debug_str:0000000000034ba1 .LASF997
     /tmp/ccCwMAmf.s:105928  .debug_str:0000000000045ce5 .LASF998
     /tmp/ccCwMAmf.s:105620  .debug_str:000000000004485a .LASF999
     /tmp/ccCwMAmf.s:105352  .debug_str:000000000004371b .LASF1000
     /tmp/ccCwMAmf.s:89344  .debug_str:0000000000001b9b .LASF1001
     /tmp/ccCwMAmf.s:104784  .debug_str:0000000000040d1e .LASF1002
     /tmp/ccCwMAmf.s:98424  .debug_str:0000000000026ff9 .LASF1003
     /tmp/ccCwMAmf.s:102338  .debug_str:0000000000037095 .LASF1004
     /tmp/ccCwMAmf.s:96568  .debug_str:000000000001f7b8 .LASF1005
     /tmp/ccCwMAmf.s:96266  .debug_str:000000000001e28a .LASF1006
     /tmp/ccCwMAmf.s:94400  .debug_str:0000000000016234 .LASF1007
     /tmp/ccCwMAmf.s:107710  .debug_str:000000000004d3c5 .LASF1008
     /tmp/ccCwMAmf.s:101418  .debug_str:00000000000331bc .LASF1009
     /tmp/ccCwMAmf.s:96748  .debug_str:00000000000204cf .LASF1010
     /tmp/ccCwMAmf.s:100702  .debug_str:000000000003031c .LASF1011
     /tmp/ccCwMAmf.s:100432  .debug_str:000000000002f172 .LASF1012
     /tmp/ccCwMAmf.s:89482  .debug_str:0000000000002568 .LASF1013
     /tmp/ccCwMAmf.s:100676  .debug_str:000000000003016f .LASF1014
     /tmp/ccCwMAmf.s:103430  .debug_str:000000000003b249 .LASF1015
     /tmp/ccCwMAmf.s:91190  .debug_str:0000000000009940 .LASF1016
     /tmp/ccCwMAmf.s:93236  .debug_str:00000000000117fc .LASF1017
     /tmp/ccCwMAmf.s:107704  .debug_str:000000000004d350 .LASF1018
     /tmp/ccCwMAmf.s:102452  .debug_str:0000000000037813 .LASF1019
     /tmp/ccCwMAmf.s:89918  .debug_str:0000000000004308 .LASF1020
     /tmp/ccCwMAmf.s:89190  .debug_str:0000000000001078 .LASF1021
     /tmp/ccCwMAmf.s:100220  .debug_str:000000000002e2f9 .LASF1022
     /tmp/ccCwMAmf.s:98188  .debug_str:00000000000260f6 .LASF1023
     /tmp/ccCwMAmf.s:107728  .debug_str:000000000004d544 .LASF1024
     /tmp/ccCwMAmf.s:107496  .debug_str:000000000004c536 .LASF1025
     /tmp/ccCwMAmf.s:108252  .debug_str:000000000004f9b2 .LASF1026
     /tmp/ccCwMAmf.s:94280  .debug_str:0000000000015b80 .LASF1027
     /tmp/ccCwMAmf.s:93214  .debug_str:000000000001164f .LASF1028
     /tmp/ccCwMAmf.s:105074  .debug_str:0000000000042495 .LASF1029
     /tmp/ccCwMAmf.s:93066  .debug_str:0000000000010dd2 .LASF1030
     /tmp/ccCwMAmf.s:89862  .debug_str:0000000000003eca .LASF1031
     /tmp/ccCwMAmf.s:103930  .debug_str:000000000003d42d .LASF1032
     /tmp/ccCwMAmf.s:100788  .debug_str:000000000003092d .LASF1033
     /tmp/ccCwMAmf.s:106140  .debug_str:0000000000046a33 .LASF1034
     /tmp/ccCwMAmf.s:100752  .debug_str:00000000000306f2 .LASF1035
     /tmp/ccCwMAmf.s:106366  .debug_str:00000000000479c1 .LASF1036
     /tmp/ccCwMAmf.s:96502  .debug_str:000000000001f2cc .LASF1037
     /tmp/ccCwMAmf.s:106020  .debug_str:00000000000462e8 .LASF1038
     /tmp/ccCwMAmf.s:96272  .debug_str:000000000001e30a .LASF1039
     /tmp/ccCwMAmf.s:102438  .debug_str:0000000000037710 .LASF1040
     /tmp/ccCwMAmf.s:92416  .debug_str:000000000000e8a9 .LASF1041
     /tmp/ccCwMAmf.s:102210  .debug_str:0000000000036844 .LASF1042
     /tmp/ccCwMAmf.s:89376  .debug_str:0000000000001e4d .LASF1043
     /tmp/ccCwMAmf.s:101866  .debug_str:0000000000034fab .LASF1044
     /tmp/ccCwMAmf.s:104722  .debug_str:0000000000040771 .LASF1045
     /tmp/ccCwMAmf.s:106248  .debug_str:0000000000047152 .LASF1046
     /tmp/ccCwMAmf.s:95990  .debug_str:000000000001cf49 .LASF1047
     /tmp/ccCwMAmf.s:105908  .debug_str:0000000000045b7e .LASF1048
     /tmp/ccCwMAmf.s:96168  .debug_str:000000000001dba3 .LASF1049
     /tmp/ccCwMAmf.s:102302  .debug_str:0000000000036dfb .LASF1050
     /tmp/ccCwMAmf.s:92264  .debug_str:000000000000e062 .LASF1051
     /tmp/ccCwMAmf.s:102102  .debug_str:00000000000360ae .LASF1052
     /tmp/ccCwMAmf.s:89608  .debug_str:0000000000002dfd .LASF1053
     /tmp/ccCwMAmf.s:101742  .debug_str:000000000003470f .LASF1054
     /tmp/ccCwMAmf.s:91666  .debug_str:000000000000ba17 .LASF1055
     /tmp/ccCwMAmf.s:106138  .debug_str:00000000000469f1 .LASF1056
     /tmp/ccCwMAmf.s:96238  .debug_str:000000000001e07f .LASF1057
     /tmp/ccCwMAmf.s:99220  .debug_str:000000000002a52d .LASF1058
     /tmp/ccCwMAmf.s:90652  .debug_str:0000000000007537 .LASF1059
     /tmp/ccCwMAmf.s:100838  .debug_str:0000000000030c64 .LASF1060
     /tmp/ccCwMAmf.s:95986  .debug_str:000000000001cf28 .LASF1061
     /tmp/ccCwMAmf.s:97036  .debug_str:00000000000217db .LASF1062
     /tmp/ccCwMAmf.s:102112  .debug_str:00000000000361b6 .LASF1063
     /tmp/ccCwMAmf.s:91108  .debug_str:00000000000093ee .LASF1064
     /tmp/ccCwMAmf.s:94466  .debug_str:0000000000016664 .LASF1065
     /tmp/ccCwMAmf.s:108124  .debug_str:000000000004f0d5 .LASF1066
     /tmp/ccCwMAmf.s:97140  .debug_str:0000000000021f59 .LASF1067
     /tmp/ccCwMAmf.s:95276  .debug_str:0000000000019cbf .LASF1068
     /tmp/ccCwMAmf.s:107516  .debug_str:000000000004c6c6 .LASF1069
     /tmp/ccCwMAmf.s:100484  .debug_str:000000000002f5d4 .LASF1070
     /tmp/ccCwMAmf.s:99810  .debug_str:000000000002c944 .LASF1071
     /tmp/ccCwMAmf.s:97730  .debug_str:0000000000024779 .LASF1072
     /tmp/ccCwMAmf.s:89984  .debug_str:00000000000047a3 .LASF1073
     /tmp/ccCwMAmf.s:100334  .debug_str:000000000002eb4b .LASF1074
     /tmp/ccCwMAmf.s:99610  .debug_str:000000000002bd53 .LASF1075
     /tmp/ccCwMAmf.s:105276  .debug_str:00000000000431f2 .LASF1076
     /tmp/ccCwMAmf.s:93256  .debug_str:0000000000011968 .LASF1077
     /tmp/ccCwMAmf.s:104102  .debug_str:000000000003e0d9 .LASF1078
     /tmp/ccCwMAmf.s:95340  .debug_str:000000000001a0fd .LASF1079
     /tmp/ccCwMAmf.s:105952  .debug_str:0000000000045e72 .LASF1080
     /tmp/ccCwMAmf.s:97152  .debug_str:0000000000021ff4 .LASF1081
     /tmp/ccCwMAmf.s:93576  .debug_str:0000000000012f02 .LASF1082
     /tmp/ccCwMAmf.s:107856  .debug_str:000000000004df2e .LASF1083
     /tmp/ccCwMAmf.s:95564  .debug_str:000000000001b11e .LASF1084
     /tmp/ccCwMAmf.s:106154  .debug_str:0000000000046b6d .LASF1085
     /tmp/ccCwMAmf.s:97362  .debug_str:0000000000022e39 .LASF1086
     /tmp/ccCwMAmf.s:107968  .debug_str:000000000004e6c1 .LASF1087
     /tmp/ccCwMAmf.s:99314  .debug_str:000000000002aa87 .LASF1088
     /tmp/ccCwMAmf.s:90584  .debug_str:00000000000070f9 .LASF1089
     /tmp/ccCwMAmf.s:101308  .debug_str:0000000000032b17 .LASF1090
     /tmp/ccCwMAmf.s:92366  .debug_str:000000000000e69a .LASF1091
     /tmp/ccCwMAmf.s:108254  .debug_str:000000000004f9f2 .LASF1092
     /tmp/ccCwMAmf.s:105700  .debug_str:0000000000044e33 .LASF1093
     /tmp/ccCwMAmf.s:90634  .debug_str:000000000000746b .LASF1094
     /tmp/ccCwMAmf.s:101370  .debug_str:0000000000032ea7 .LASF1095
     /tmp/ccCwMAmf.s:92622  .debug_str:000000000000f384 .LASF1096
     /tmp/ccCwMAmf.s:103392  .debug_str:000000000003afef .LASF1097
     /tmp/ccCwMAmf.s:103926  .debug_str:000000000003d3fb .LASF1098
     /tmp/ccCwMAmf.s:105144  .debug_str:000000000004298b .LASF1099
     /tmp/ccCwMAmf.s:96360  .debug_str:000000000001e939 .LASF1100
     /tmp/ccCwMAmf.s:107108  .debug_str:000000000004aaa3 .LASF1101
     /tmp/ccCwMAmf.s:91640  .debug_str:000000000000b85e .LASF1102
     /tmp/ccCwMAmf.s:94786  .debug_str:0000000000017d3d .LASF1103
     /tmp/ccCwMAmf.s:105416  .debug_str:0000000000043b69 .LASF1104
     /tmp/ccCwMAmf.s:106342  .debug_str:00000000000477f1 .LASF1105
     /tmp/ccCwMAmf.s:92748  .debug_str:000000000000fc60 .LASF1106
     /tmp/ccCwMAmf.s:104854  .debug_str:00000000000412bc .LASF1107
     /tmp/ccCwMAmf.s:97540  .debug_str:0000000000023a9e .LASF1108
     /tmp/ccCwMAmf.s:90192  .debug_str:00000000000055ae .LASF1109
     /tmp/ccCwMAmf.s:102392  .debug_str:000000000003740f .LASF1110
     /tmp/ccCwMAmf.s:101504  .debug_str:00000000000337cc .LASF1111
     /tmp/ccCwMAmf.s:94700  .debug_str:00000000000176f5 .LASF1112
     /tmp/ccCwMAmf.s:93882  .debug_str:0000000000014293 .LASF1113
     /tmp/ccCwMAmf.s:105974  .debug_str:0000000000046031 .LASF1114
     /tmp/ccCwMAmf.s:98478  .debug_str:00000000000272bf .LASF1115
     /tmp/ccCwMAmf.s:93968  .debug_str:000000000001484e .LASF1116
     /tmp/ccCwMAmf.s:92830  .debug_str:0000000000010108 .LASF1117
     /tmp/ccCwMAmf.s:101894  .debug_str:0000000000035228 .LASF1118
     /tmp/ccCwMAmf.s:107264  .debug_str:000000000004b5db .LASF1119
     /tmp/ccCwMAmf.s:94710  .debug_str:0000000000017795 .LASF1120
     /tmp/ccCwMAmf.s:95008  .debug_str:0000000000018a41 .LASF1121
     /tmp/ccCwMAmf.s:107878  .debug_str:000000000004e09d .LASF1122
     /tmp/ccCwMAmf.s:99138  .debug_str:0000000000029f7a .LASF1123
     /tmp/ccCwMAmf.s:90182  .debug_str:00000000000054eb .LASF1124
     /tmp/ccCwMAmf.s:101040  .debug_str:00000000000318ee .LASF1125
     /tmp/ccCwMAmf.s:92256  .debug_str:000000000000dfdf .LASF1126
     /tmp/ccCwMAmf.s:103054  .debug_str:00000000000399ef .LASF1127
     /tmp/ccCwMAmf.s:94186  .debug_str:000000000001552d .LASF1128
     /tmp/ccCwMAmf.s:104764  .debug_str:0000000000040bac .LASF1129
     /tmp/ccCwMAmf.s:96022  .debug_str:000000000001d10f .LASF1130
     /tmp/ccCwMAmf.s:98752  .debug_str:0000000000028575 .LASF1131
     /tmp/ccCwMAmf.s:89884  .debug_str:0000000000004093 .LASF1132
     /tmp/ccCwMAmf.s:100618  .debug_str:000000000002fe53 .LASF1133
     /tmp/ccCwMAmf.s:91650  .debug_str:000000000000b921 .LASF1134
     /tmp/ccCwMAmf.s:107502  .debug_str:000000000004c5b5 .LASF1135
     /tmp/ccCwMAmf.s:93808  .debug_str:0000000000013e1b .LASF1136
     /tmp/ccCwMAmf.s:104386  .debug_str:000000000003f25a .LASF1137
     /tmp/ccCwMAmf.s:95642  .debug_str:000000000001b5fb .LASF1138
     /tmp/ccCwMAmf.s:91824  .debug_str:000000000000c4dc .LASF1139
     /tmp/ccCwMAmf.s:97424  .debug_str:000000000002321b .LASF1140
     /tmp/ccCwMAmf.s:93872  .debug_str:000000000001421a .LASF1141
     /tmp/ccCwMAmf.s:104444  .debug_str:000000000003f5cc .LASF1142
     /tmp/ccCwMAmf.s:95872  .debug_str:000000000001c6d3 .LASF1143
     /tmp/ccCwMAmf.s:106442  .debug_str:0000000000047ef4 .LASF1144
     /tmp/ccCwMAmf.s:97696  .debug_str:0000000000024501 .LASF1145
     /tmp/ccCwMAmf.s:94522  .debug_str:0000000000016a95 .LASF1146
     /tmp/ccCwMAmf.s:99620  .debug_str:000000000002be1d .LASF1147
     /tmp/ccCwMAmf.s:90850  .debug_str:00000000000081f8 .LASF1148
     /tmp/ccCwMAmf.s:101618  .debug_str:0000000000033f0d .LASF1149
     /tmp/ccCwMAmf.s:92688  .debug_str:000000000000f780 .LASF1150
     /tmp/ccCwMAmf.s:89148  .debug_str:0000000000000d84 .LASF1151
     /tmp/ccCwMAmf.s:99848  .debug_str:000000000002cc10 .LASF1152
     /tmp/ccCwMAmf.s:93880  .debug_str:0000000000014268 .LASF1153
     /tmp/ccCwMAmf.s:89684  .debug_str:000000000000336f .LASF1154
     /tmp/ccCwMAmf.s:101670  .debug_str:000000000003426c .LASF1155
     /tmp/ccCwMAmf.s:95332  .debug_str:000000000001a058 .LASF1156
     /tmp/ccCwMAmf.s:101558  .debug_str:0000000000033b9a .LASF1157
     /tmp/ccCwMAmf.s:97906  .debug_str:00000000000251b6 .LASF1158
     /tmp/ccCwMAmf.s:103218  .debug_str:000000000003a381 .LASF1159
     /tmp/ccCwMAmf.s:97356  .debug_str:0000000000022dbb .LASF1160
     /tmp/ccCwMAmf.s:104236  .debug_str:000000000003e9cf .LASF1161
     /tmp/ccCwMAmf.s:96816  .debug_str:00000000000209bb .LASF1162
     /tmp/ccCwMAmf.s:103898  .debug_str:000000000003d21f .LASF1163
     /tmp/ccCwMAmf.s:93204  .debug_str:0000000000011588 .LASF1164
     /tmp/ccCwMAmf.s:106866  .debug_str:0000000000049aaf .LASF1165
     /tmp/ccCwMAmf.s:105608  .debug_str:0000000000044772 .LASF1166
     /tmp/ccCwMAmf.s:95412  .debug_str:000000000001a636 .LASF1167
     /tmp/ccCwMAmf.s:95170  .debug_str:0000000000019574 .LASF1168
     /tmp/ccCwMAmf.s:94758  .debug_str:0000000000017b0e .LASF1169
     /tmp/ccCwMAmf.s:94526  .debug_str:0000000000016abb .LASF1170
     /tmp/ccCwMAmf.s:94124  .debug_str:00000000000150f7 .LASF1171
     /tmp/ccCwMAmf.s:93890  .debug_str:00000000000142f1 .LASF1172
     /tmp/ccCwMAmf.s:93486  .debug_str:0000000000012853 .LASF1173
     /tmp/ccCwMAmf.s:93228  .debug_str:0000000000011706 .LASF1174
     /tmp/ccCwMAmf.s:92788  .debug_str:000000000000fe72 .LASF1175
     /tmp/ccCwMAmf.s:93046  .debug_str:0000000000010bfb .LASF1176
     /tmp/ccCwMAmf.s:91210  .debug_str:0000000000009ac4 .LASF1177
     /tmp/ccCwMAmf.s:89522  .debug_str:0000000000002862 .LASF1178
     /tmp/ccCwMAmf.s:107146  .debug_str:000000000004acf3 .LASF1179
     /tmp/ccCwMAmf.s:91622  .debug_str:000000000000b6ea .LASF1180
     /tmp/ccCwMAmf.s:96510  .debug_str:000000000001f348 .LASF1181
     /tmp/ccCwMAmf.s:101536  .debug_str:0000000000033a25 .LASF1182
     /tmp/ccCwMAmf.s:106394  .debug_str:0000000000047b80 .LASF1183
     /tmp/ccCwMAmf.s:91688  .debug_str:000000000000bbe7 .LASF1184
     /tmp/ccCwMAmf.s:96756  .debug_str:0000000000020558 .LASF1185
     /tmp/ccCwMAmf.s:91670  .debug_str:000000000000ba80 .LASF1186
     /tmp/ccCwMAmf.s:102588  .debug_str:000000000003801f .LASF1187
     /tmp/ccCwMAmf.s:95950  .debug_str:000000000001cc64 .LASF1188
     /tmp/ccCwMAmf.s:103834  .debug_str:000000000003ce17 .LASF1189
     /tmp/ccCwMAmf.s:96776  .debug_str:0000000000020756 .LASF1190
     /tmp/ccCwMAmf.s:107566  .debug_str:000000000004ca37 .LASF1191
     /tmp/ccCwMAmf.s:98858  .debug_str:0000000000028cfd .LASF1192
     /tmp/ccCwMAmf.s:90220  .debug_str:0000000000005740 .LASF1193
     /tmp/ccCwMAmf.s:100972  .debug_str:0000000000031407 .LASF1194
     /tmp/ccCwMAmf.s:92238  .debug_str:000000000000de99 .LASF1195
     /tmp/ccCwMAmf.s:96554  .debug_str:000000000001f6d8 .LASF1196
     /tmp/ccCwMAmf.s:107344  .debug_str:000000000004baea .LASF1197
     /tmp/ccCwMAmf.s:100272  .debug_str:000000000002e6de .LASF1198
     /tmp/ccCwMAmf.s:97890  .debug_str:00000000000250b7 .LASF1199
     /tmp/ccCwMAmf.s:103654  .debug_str:000000000003c259 .LASF1200
     /tmp/ccCwMAmf.s:101404  .debug_str:00000000000330c2 .LASF1201
     /tmp/ccCwMAmf.s:99334  .debug_str:000000000002ab96 .LASF1202
     /tmp/ccCwMAmf.s:97050  .debug_str:00000000000218fa .LASF1203
     /tmp/ccCwMAmf.s:93504  .debug_str:00000000000129a5 .LASF1204
     /tmp/ccCwMAmf.s:99352  .debug_str:000000000002acb6 .LASF1205
     /tmp/ccCwMAmf.s:92784  .debug_str:000000000000fe05 .LASF1206
     /tmp/ccCwMAmf.s:92524  .debug_str:000000000000ed94 .LASF1207
     /tmp/ccCwMAmf.s:94242  .debug_str:00000000000158b5 .LASF1208
     /tmp/ccCwMAmf.s:105896  .debug_str:0000000000045ace .LASF1209
     /tmp/ccCwMAmf.s:90986  .debug_str:0000000000008ba5 .LASF1210
     /tmp/ccCwMAmf.s:99638  .debug_str:000000000002bf2b .LASF1211
     /tmp/ccCwMAmf.s:96626  .debug_str:000000000001fb52 .LASF1212
     /tmp/ccCwMAmf.s:96130  .debug_str:000000000001d86a .LASF1213
     /tmp/ccCwMAmf.s:104778  .debug_str:0000000000040c97 .LASF1214
     /tmp/ccCwMAmf.s:104342  .debug_str:000000000003efad .LASF1215
     /tmp/ccCwMAmf.s:89692  .debug_str:0000000000003405 .LASF1216
     /tmp/ccCwMAmf.s:99928  .debug_str:000000000002d070 .LASF1217
     /tmp/ccCwMAmf.s:108278  .debug_str:000000000004fb76 .LASF1218
     /tmp/ccCwMAmf.s:108048  .debug_str:000000000004ec0c .LASF1219
     /tmp/ccCwMAmf.s:98908  .debug_str:00000000000290e6 .LASF1220
     /tmp/ccCwMAmf.s:96454  .debug_str:000000000001eecc .LASF1221
     /tmp/ccCwMAmf.s:95282  .debug_str:0000000000019d2b .LASF1222
     /tmp/ccCwMAmf.s:101198  .debug_str:000000000003233e .LASF1223
     /tmp/ccCwMAmf.s:98768  .debug_str:00000000000286aa .LASF1224
     /tmp/ccCwMAmf.s:103704  .debug_str:000000000003c61b .LASF1225
     /tmp/ccCwMAmf.s:102204  .debug_str:00000000000367e7 .LASF1226
     /tmp/ccCwMAmf.s:99746  .debug_str:000000000002c59a .LASF1227
     /tmp/ccCwMAmf.s:103920  .debug_str:000000000003d3a8 .LASF1228
     /tmp/ccCwMAmf.s:101442  .debug_str:000000000003337b .LASF1229
     /tmp/ccCwMAmf.s:92156  .debug_str:000000000000dada .LASF1230
     /tmp/ccCwMAmf.s:105472  .debug_str:0000000000043efc .LASF1231
     /tmp/ccCwMAmf.s:98742  .debug_str:00000000000284b1 .LASF1232
     /tmp/ccCwMAmf.s:89186  .debug_str:0000000000001016 .LASF1233
     /tmp/ccCwMAmf.s:98152  .debug_str:0000000000025e09 .LASF1234
     /tmp/ccCwMAmf.s:102362  .debug_str:0000000000037267 .LASF1235
     /tmp/ccCwMAmf.s:105070  .debug_str:0000000000042441 .LASF1236
     /tmp/ccCwMAmf.s:90548  .debug_str:0000000000006dd1 .LASF1237
     /tmp/ccCwMAmf.s:92532  .debug_str:000000000000ee25 .LASF1238
     /tmp/ccCwMAmf.s:97632  .debug_str:00000000000240b6 .LASF1239
     /tmp/ccCwMAmf.s:98604  .debug_str:0000000000027bed .LASF1240
     /tmp/ccCwMAmf.s:105008  .debug_str:0000000000041f73 .LASF1241
     /tmp/ccCwMAmf.s:99000  .debug_str:0000000000029614 .LASF1242
     /tmp/ccCwMAmf.s:97820  .debug_str:0000000000024cbb .LASF1243
     /tmp/ccCwMAmf.s:96712  .debug_str:0000000000020211 .LASF1244
     /tmp/ccCwMAmf.s:89734  .debug_str:000000000000361c .LASF1245
     /tmp/ccCwMAmf.s:103626  .debug_str:000000000003c025 .LASF1246
     /tmp/ccCwMAmf.s:95266  .debug_str:0000000000019c37 .LASF1247
     /tmp/ccCwMAmf.s:105240  .debug_str:0000000000042f5c .LASF1248
     /tmp/ccCwMAmf.s:107334  .debug_str:000000000004ba69 .LASF1249
     /tmp/ccCwMAmf.s:97314  .debug_str:0000000000022adc .LASF1250
     /tmp/ccCwMAmf.s:97238  .debug_str:0000000000022585 .LASF1251
     /tmp/ccCwMAmf.s:102612  .debug_str:00000000000381b0 .LASF1252
     /tmp/ccCwMAmf.s:100224  .debug_str:000000000002e35b .LASF1253
     /tmp/ccCwMAmf.s:106710  .debug_str:000000000004904e .LASF1254
     /tmp/ccCwMAmf.s:93762  .debug_str:0000000000013b6f .LASF1255
     /tmp/ccCwMAmf.s:100438  .debug_str:000000000002f200 .LASF1256
     /tmp/ccCwMAmf.s:98166  .debug_str:0000000000025f33 .LASF1257
     /tmp/ccCwMAmf.s:96738  .debug_str:00000000000203dc .LASF1258
     /tmp/ccCwMAmf.s:95626  .debug_str:000000000001b506 .LASF1259
     /tmp/ccCwMAmf.s:90086  .debug_str:0000000000004ec3 .LASF1260
     /tmp/ccCwMAmf.s:92654  .debug_str:000000000000f641 .LASF1261
     /tmp/ccCwMAmf.s:90868  .debug_str:0000000000008344 .LASF1262
     /tmp/ccCwMAmf.s:108134  .debug_str:000000000004f17d .LASF1263
     /tmp/ccCwMAmf.s:95342  .debug_str:000000000001a116 .LASF1264
     /tmp/ccCwMAmf.s:90702  .debug_str:00000000000078c7 .LASF1265
     /tmp/ccCwMAmf.s:96348  .debug_str:000000000001e82e .LASF1266
     /tmp/ccCwMAmf.s:89258  .debug_str:00000000000014d8 .LASF1267
     /tmp/ccCwMAmf.s:103036  .debug_str:000000000003985d .LASF1268
     /tmp/ccCwMAmf.s:89512  .debug_str:0000000000002778 .LASF1269
     /tmp/ccCwMAmf.s:99358  .debug_str:000000000002ad46 .LASF1270
     /tmp/ccCwMAmf.s:101288  .debug_str:00000000000329bd .LASF1271
     /tmp/ccCwMAmf.s:108256  .debug_str:000000000004fa0b .LASF1272
     /tmp/ccCwMAmf.s:95962  .debug_str:000000000001cd5f .LASF1273
     /tmp/ccCwMAmf.s:103090  .debug_str:0000000000039b85 .LASF1274
     /tmp/ccCwMAmf.s:94892  .debug_str:0000000000018380 .LASF1275
     /tmp/ccCwMAmf.s:97672  .debug_str:0000000000024378 .LASF1276
     /tmp/ccCwMAmf.s:104024  .debug_str:000000000003db05 .LASF1277
     /tmp/ccCwMAmf.s:89162  .debug_str:0000000000000e7f .LASF1278
     /tmp/ccCwMAmf.s:99562  .debug_str:000000000002ba33 .LASF1279
     /tmp/ccCwMAmf.s:106538  .debug_str:0000000000048514 .LASF1280
     /tmp/ccCwMAmf.s:98596  .debug_str:0000000000027b18 .LASF1281
     /tmp/ccCwMAmf.s:106042  .debug_str:000000000004643d .LASF1282
     /tmp/ccCwMAmf.s:104128  .debug_str:000000000003e29e .LASF1283
     /tmp/ccCwMAmf.s:105062  .debug_str:0000000000042372 .LASF1284
     /tmp/ccCwMAmf.s:90440  .debug_str:000000000000661a .LASF1285
     /tmp/ccCwMAmf.s:97438  .debug_str:000000000002331f .LASF1286
     /tmp/ccCwMAmf.s:96194  .debug_str:000000000001dd5d .LASF1287
     /tmp/ccCwMAmf.s:99020  .debug_str:00000000000297bd .LASF1288
     /tmp/ccCwMAmf.s:102012  .debug_str:0000000000035aaf .LASF1289
     /tmp/ccCwMAmf.s:104688  .debug_str:00000000000404ff .LASF1290
     /tmp/ccCwMAmf.s:95504  .debug_str:000000000001ad20 .LASF1291
     /tmp/ccCwMAmf.s:98274  .debug_str:00000000000265e0 .LASF1292
     /tmp/ccCwMAmf.s:91372  .debug_str:000000000000a593 .LASF1293
     /tmp/ccCwMAmf.s:104008  .debug_str:000000000003d9ec .LASF1294
     /tmp/ccCwMAmf.s:106356  .debug_str:0000000000047906 .LASF1295
     /tmp/ccCwMAmf.s:90288  .debug_str:0000000000005c41 .LASF1296
     /tmp/ccCwMAmf.s:93070  .debug_str:0000000000010e33 .LASF1297
     /tmp/ccCwMAmf.s:95922  .debug_str:000000000001cace .LASF1298
     /tmp/ccCwMAmf.s:98866  .debug_str:0000000000028dcc .LASF1299
     /tmp/ccCwMAmf.s:101708  .debug_str:0000000000034484 .LASF1300
     /tmp/ccCwMAmf.s:92314  .debug_str:000000000000e31c .LASF1301
     /tmp/ccCwMAmf.s:95190  .debug_str:00000000000196c7 .LASF1302
     /tmp/ccCwMAmf.s:97940  .debug_str:00000000000253c6 .LASF1303
     /tmp/ccCwMAmf.s:92958  .debug_str:000000000001076b .LASF1304
     /tmp/ccCwMAmf.s:103752  .debug_str:000000000003c8db .LASF1305
     /tmp/ccCwMAmf.s:106634  .debug_str:0000000000048b17 .LASF1306
     /tmp/ccCwMAmf.s:99986  .debug_str:000000000002d407 .LASF1307
     /tmp/ccCwMAmf.s:92938  .debug_str:00000000000105ed .LASF1308
     /tmp/ccCwMAmf.s:95790  .debug_str:000000000001c0d1 .LASF1309
     /tmp/ccCwMAmf.s:98562  .debug_str:00000000000278b7 .LASF1310
     /tmp/ccCwMAmf.s:89294  .debug_str:0000000000001792 .LASF1311
     /tmp/ccCwMAmf.s:92002  .debug_str:000000000000d14e .LASF1312
     /tmp/ccCwMAmf.s:95044  .debug_str:0000000000018c2b .LASF1313
     /tmp/ccCwMAmf.s:97800  .debug_str:0000000000024ba4 .LASF1314
     /tmp/ccCwMAmf.s:100678  .debug_str:00000000000301b4 .LASF1315
     /tmp/ccCwMAmf.s:103614  .debug_str:000000000003bf41 .LASF1316
     /tmp/ccCwMAmf.s:106324  .debug_str:00000000000476a7 .LASF1317
     /tmp/ccCwMAmf.s:89842  .debug_str:0000000000003d9b .LASF1318
     /tmp/ccCwMAmf.s:92624  .debug_str:000000000000f39d .LASF1319
     /tmp/ccCwMAmf.s:95472  .debug_str:000000000001ab25 .LASF1320
     /tmp/ccCwMAmf.s:105638  .debug_str:00000000000449bd .LASF1321
     /tmp/ccCwMAmf.s:96480  .debug_str:000000000001f0cf .LASF1322
     /tmp/ccCwMAmf.s:97340  .debug_str:0000000000022c93 .LASF1323
     /tmp/ccCwMAmf.s:92074  .debug_str:000000000000d5cc .LASF1324
     /tmp/ccCwMAmf.s:97504  .debug_str:0000000000023834 .LASF1325
     /tmp/ccCwMAmf.s:107262  .debug_str:000000000004b5a6 .LASF1326
     /tmp/ccCwMAmf.s:103370  .debug_str:000000000003ae27 .LASF1327
     /tmp/ccCwMAmf.s:106196  .debug_str:0000000000046e7a .LASF1328
     /tmp/ccCwMAmf.s:89562  .debug_str:0000000000002b3b .LASF1329
     /tmp/ccCwMAmf.s:92268  .debug_str:000000000000e0ae .LASF1330
     /tmp/ccCwMAmf.s:102618  .debug_str:0000000000038226 .LASF1331
     /tmp/ccCwMAmf.s:94086  .debug_str:0000000000014ec2 .LASF1332
     /tmp/ccCwMAmf.s:102036  .debug_str:0000000000035cb5 .LASF1333
     /tmp/ccCwMAmf.s:91564  .debug_str:000000000000b2ec .LASF1334
     /tmp/ccCwMAmf.s:96610  .debug_str:000000000001fa4e .LASF1335
     /tmp/ccCwMAmf.s:100410  .debug_str:000000000002efc5 .LASF1336
     /tmp/ccCwMAmf.s:99836  .debug_str:000000000002cae1 .LASF1337
     /tmp/ccCwMAmf.s:99260  .debug_str:000000000002a711 .LASF1338
     /tmp/ccCwMAmf.s:98488  .debug_str:0000000000027362 .LASF1339
     /tmp/ccCwMAmf.s:107240  .debug_str:000000000004b42a .LASF1340
     /tmp/ccCwMAmf.s:93586  .debug_str:0000000000012f7d .LASF1341
     /tmp/ccCwMAmf.s:106088  .debug_str:000000000004671e .LASF1342
     /tmp/ccCwMAmf.s:91998  .debug_str:000000000000d111 .LASF1343
     /tmp/ccCwMAmf.s:99346  .debug_str:000000000002ac49 .LASF1344
     /tmp/ccCwMAmf.s:93044  .debug_str:0000000000010bcc .LASF1345
     /tmp/ccCwMAmf.s:104874  .debug_str:0000000000041406 .LASF1346
     /tmp/ccCwMAmf.s:91908  .debug_str:000000000000cb05 .LASF1347
     /tmp/ccCwMAmf.s:95580  .debug_str:000000000001b200 .LASF1348
     /tmp/ccCwMAmf.s:102752  .debug_str:000000000003894e .LASF1349
     /tmp/ccCwMAmf.s:103404  .debug_str:000000000003b0bc .LASF1350
     /tmp/ccCwMAmf.s:107298  .debug_str:000000000004b81c .LASF1351
     /tmp/ccCwMAmf.s:105156  .debug_str:0000000000042a1a .LASF1352
     /tmp/ccCwMAmf.s:93622  .debug_str:000000000001325d .LASF1353
     /tmp/ccCwMAmf.s:102500  .debug_str:0000000000037a2a .LASF1354
     /tmp/ccCwMAmf.s:91588  .debug_str:000000000000b4c9 .LASF1355
     /tmp/ccCwMAmf.s:100592  .debug_str:000000000002fc2e .LASF1356
     /tmp/ccCwMAmf.s:89882  .debug_str:000000000000404a .LASF1357
     /tmp/ccCwMAmf.s:98602  .debug_str:0000000000027ba4 .LASF1358
     /tmp/ccCwMAmf.s:107370  .debug_str:000000000004bcec .LASF1359
     /tmp/ccCwMAmf.s:96666  .debug_str:000000000001febb .LASF1360
     /tmp/ccCwMAmf.s:105490  .debug_str:0000000000043fe7 .LASF1361
     /tmp/ccCwMAmf.s:94902  .debug_str:000000000001842f .LASF1362
     /tmp/ccCwMAmf.s:89432  .debug_str:000000000000223a .LASF1363
     /tmp/ccCwMAmf.s:96070  .debug_str:000000000001d436 .LASF1364
     /tmp/ccCwMAmf.s:108274  .debug_str:000000000004fb0e .LASF1365
     /tmp/ccCwMAmf.s:89796  .debug_str:0000000000003a63 .LASF1366
     /tmp/ccCwMAmf.s:97580  .debug_str:0000000000023d0b .LASF1367
     /tmp/ccCwMAmf.s:93850  .debug_str:0000000000014060 .LASF1368
     /tmp/ccCwMAmf.s:91218  .debug_str:0000000000009b82 .LASF1369
     /tmp/ccCwMAmf.s:96024  .debug_str:000000000001d12a .LASF1370
     /tmp/ccCwMAmf.s:97096  .debug_str:0000000000021ce9 .LASF1371
     /tmp/ccCwMAmf.s:91524  .debug_str:000000000000afd7 .LASF1372
     /tmp/ccCwMAmf.s:94562  .debug_str:0000000000016d40 .LASF1373
     /tmp/ccCwMAmf.s:101196  .debug_str:00000000000322f2 .LASF1374
     /tmp/ccCwMAmf.s:107488  .debug_str:000000000004c470 .LASF1375
     /tmp/ccCwMAmf.s:94692  .debug_str:0000000000017629 .LASF1376
     /tmp/ccCwMAmf.s:101176  .debug_str:000000000003213b .LASF1377
     /tmp/ccCwMAmf.s:107694  .debug_str:000000000004d28f .LASF1378
     /tmp/ccCwMAmf.s:95050  .debug_str:0000000000018ca3 .LASF1379
     /tmp/ccCwMAmf.s:101728  .debug_str:00000000000345d1 .LASF1380
     /tmp/ccCwMAmf.s:102134  .debug_str:000000000003632e .LASF1381
     /tmp/ccCwMAmf.s:95434  .debug_str:000000000001a7cd .LASF1382
     /tmp/ccCwMAmf.s:95400  .debug_str:000000000001a589 .LASF1383
     /tmp/ccCwMAmf.s:90060  .debug_str:0000000000004d34 .LASF1384
     /tmp/ccCwMAmf.s:91484  .debug_str:000000000000ad61 .LASF1385
     /tmp/ccCwMAmf.s:91750  .debug_str:000000000000c07c .LASF1386
     /tmp/ccCwMAmf.s:90430  .debug_str:0000000000006568 .LASF1387
     /tmp/ccCwMAmf.s:105056  .debug_str:00000000000422e9 .LASF1388
     /tmp/ccCwMAmf.s:94684  .debug_str:0000000000017574 .LASF1389
     /tmp/ccCwMAmf.s:96216  .debug_str:000000000001decf .LASF1390
     /tmp/ccCwMAmf.s:89966  .debug_str:000000000000463b .LASF1391
     /tmp/ccCwMAmf.s:99616  .debug_str:000000000002bdcf .LASF1392
     /tmp/ccCwMAmf.s:96096  .debug_str:000000000001d60c .LASF1393
     /tmp/ccCwMAmf.s:105760  .debug_str:0000000000045194 .LASF1394
     /tmp/ccCwMAmf.s:105752  .debug_str:000000000004511b .LASF1395
     /tmp/ccCwMAmf.s:96474  .debug_str:000000000001f036 .LASF1396
     /tmp/ccCwMAmf.s:105690  .debug_str:0000000000044d77 .LASF1397
     /tmp/ccCwMAmf.s:98202  .debug_str:00000000000261be .LASF1398
     /tmp/ccCwMAmf.s:101560  .debug_str:0000000000033bd3 .LASF1399
     /tmp/ccCwMAmf.s:92794  .debug_str:000000000000fee1 .LASF1400
     /tmp/ccCwMAmf.s:102848  .debug_str:0000000000038e6b .LASF1401
     /tmp/ccCwMAmf.s:106312  .debug_str:0000000000047604 .LASF1402
     /tmp/ccCwMAmf.s:99266  .debug_str:000000000002a7a2 .LASF1403
     /tmp/ccCwMAmf.s:104852  .debug_str:0000000000041295 .LASF1404
     /tmp/ccCwMAmf.s:98760  .debug_str:0000000000028601 .LASF1405
     /tmp/ccCwMAmf.s:91050  .debug_str:0000000000008fd8 .LASF1406
     /tmp/ccCwMAmf.s:103040  .debug_str:00000000000398b1 .LASF1407
     /tmp/ccCwMAmf.s:88986  .debug_str:00000000000002a3 .LASF1408
     /tmp/ccCwMAmf.s:97412  .debug_str:00000000000230fa .LASF1409
     /tmp/ccCwMAmf.s:93920  .debug_str:00000000000144ec .LASF1410
     /tmp/ccCwMAmf.s:94372  .debug_str:000000000001608a .LASF1411
     /tmp/ccCwMAmf.s:106746  .debug_str:00000000000492a9 .LASF1412
     /tmp/ccCwMAmf.s:98408  .debug_str:0000000000026f04 .LASF1413
     /tmp/ccCwMAmf.s:96934  .debug_str:00000000000210f6 .LASF1414
     /tmp/ccCwMAmf.s:93544  .debug_str:0000000000012c8e .LASF1415
     /tmp/ccCwMAmf.s:90630  .debug_str:0000000000007436 .LASF1416
     /tmp/ccCwMAmf.s:98438  .debug_str:00000000000270c8 .LASF1417
     /tmp/ccCwMAmf.s:100986  .debug_str:000000000003151f .LASF1418
     /tmp/ccCwMAmf.s:94136  .debug_str:00000000000151de .LASF1419
     /tmp/ccCwMAmf.s:94428  .debug_str:000000000001644f .LASF1420
     /tmp/ccCwMAmf.s:95696  .debug_str:000000000001b9b7 .LASF1421
     /tmp/ccCwMAmf.s:99040  .debug_str:000000000002990b .LASF1422
     /tmp/ccCwMAmf.s:95194  .debug_str:000000000001970d .LASF1423
     /tmp/ccCwMAmf.s:89426  .debug_str:00000000000021d1 .LASF1424
     /tmp/ccCwMAmf.s:101336  .debug_str:0000000000032cb5 .LASF1425
     /tmp/ccCwMAmf.s:104066  .debug_str:000000000003de58 .LASF1426
     /tmp/ccCwMAmf.s:95894  .debug_str:000000000001c869 .LASF1427
     /tmp/ccCwMAmf.s:107010  .debug_str:000000000004a357 .LASF1428
     /tmp/ccCwMAmf.s:89460  .debug_str:000000000000244f .LASF1429
     /tmp/ccCwMAmf.s:98250  .debug_str:000000000002645a .LASF1430
     /tmp/ccCwMAmf.s:104702  .debug_str:0000000000040606 .LASF1431
     /tmp/ccCwMAmf.s:101280  .debug_str:0000000000032905 .LASF1432
     /tmp/ccCwMAmf.s:97660  .debug_str:00000000000242cc .LASF1433
     /tmp/ccCwMAmf.s:94192  .debug_str:0000000000015581 .LASF1434
     /tmp/ccCwMAmf.s:106228  .debug_str:0000000000047037 .LASF1435
     /tmp/ccCwMAmf.s:92168  .debug_str:000000000000db5f .LASF1436
     /tmp/ccCwMAmf.s:90062  .debug_str:0000000000004d82 .LASF1437
     /tmp/ccCwMAmf.s:92980  .debug_str:00000000000108a5 .LASF1438
     /tmp/ccCwMAmf.s:105106  .debug_str:00000000000426cf .LASF1439
     /tmp/ccCwMAmf.s:107734  .debug_str:000000000004d5a5 .LASF1440
     /tmp/ccCwMAmf.s:94768  .debug_str:0000000000017be8 .LASF1441
     /tmp/ccCwMAmf.s:101260  .debug_str:00000000000327b6 .LASF1442
     /tmp/ccCwMAmf.s:107604  .debug_str:000000000004cd42 .LASF1443
     /tmp/ccCwMAmf.s:94658  .debug_str:000000000001739a .LASF1444
     /tmp/ccCwMAmf.s:93438  .debug_str:0000000000012584 .LASF1445
     /tmp/ccCwMAmf.s:99934  .debug_str:000000000002d0e1 .LASF1446
     /tmp/ccCwMAmf.s:106266  .debug_str:00000000000472d2 .LASF1447
     /tmp/ccCwMAmf.s:93300  .debug_str:0000000000011c67 .LASF1448
     /tmp/ccCwMAmf.s:99802  .debug_str:000000000002c8b5 .LASF1449
     /tmp/ccCwMAmf.s:105464  .debug_str:0000000000043eaa .LASF1450
     /tmp/ccCwMAmf.s:90608  .debug_str:00000000000072a2 .LASF1451
     /tmp/ccCwMAmf.s:105126  .debug_str:0000000000042847 .LASF1452
     /tmp/ccCwMAmf.s:100598  .debug_str:000000000002fcc8 .LASF1453
     /tmp/ccCwMAmf.s:96686  .debug_str:000000000002005a .LASF1454
     /tmp/ccCwMAmf.s:92876  .debug_str:0000000000010307 .LASF1455
     /tmp/ccCwMAmf.s:92018  .debug_str:000000000000d269 .LASF1456
     /tmp/ccCwMAmf.s:104598  .debug_str:000000000003ff49 .LASF1457
     /tmp/ccCwMAmf.s:96512  .debug_str:000000000001f39f .LASF1458
     /tmp/ccCwMAmf.s:107612  .debug_str:000000000004cdbb .LASF1459
     /tmp/ccCwMAmf.s:96954  .debug_str:0000000000021249 .LASF1460
     /tmp/ccCwMAmf.s:91136  .debug_str:0000000000009589 .LASF1461
     /tmp/ccCwMAmf.s:102598  .debug_str:0000000000038101 .LASF1462
     /tmp/ccCwMAmf.s:94268  .debug_str:0000000000015a5c .LASF1463
     /tmp/ccCwMAmf.s:105554  .debug_str:000000000004444c .LASF1464
     /tmp/ccCwMAmf.s:97284  .debug_str:00000000000228d7 .LASF1465
     /tmp/ccCwMAmf.s:89128  .debug_str:0000000000000c29 .LASF1466
     /tmp/ccCwMAmf.s:91356  .debug_str:000000000000a439 .LASF1467
     /tmp/ccCwMAmf.s:101178  .debug_str:0000000000032189 .LASF1468
     /tmp/ccCwMAmf.s:91088  .debug_str:0000000000009240 .LASF1469
     /tmp/ccCwMAmf.s:103162  .debug_str:0000000000039f33 .LASF1470
     /tmp/ccCwMAmf.s:90852  .debug_str:0000000000008214 .LASF1471
     /tmp/ccCwMAmf.s:100486  .debug_str:000000000002f5e4 .LASF1472
     /tmp/ccCwMAmf.s:90616  .debug_str:0000000000007331 .LASF1473
     /tmp/ccCwMAmf.s:100244  .debug_str:000000000002e49a .LASF1474
     /tmp/ccCwMAmf.s:90366  .debug_str:0000000000006137 .LASF1475
     /tmp/ccCwMAmf.s:99972  .debug_str:000000000002d318 .LASF1476
     /tmp/ccCwMAmf.s:91852  .debug_str:000000000000c6ac .LASF1477
     /tmp/ccCwMAmf.s:96308  .debug_str:000000000001e5b6 .LASF1478
     /tmp/ccCwMAmf.s:91420  .debug_str:000000000000a901 .LASF1479
     /tmp/ccCwMAmf.s:101248  .debug_str:00000000000326bf .LASF1480
     /tmp/ccCwMAmf.s:104116  .debug_str:000000000003e1b1 .LASF1481
     /tmp/ccCwMAmf.s:100970  .debug_str:00000000000313dd .LASF1482
     /tmp/ccCwMAmf.s:90926  .debug_str:0000000000008792 .LASF1483
     /tmp/ccCwMAmf.s:100718  .debug_str:0000000000030438 .LASF1484
     /tmp/ccCwMAmf.s:90676  .debug_str:00000000000076ac .LASF1485
     /tmp/ccCwMAmf.s:92016  .debug_str:000000000000d23f .LASF1486
     /tmp/ccCwMAmf.s:104580  .debug_str:000000000003fe2d .LASF1487
     /tmp/ccCwMAmf.s:101858  .debug_str:0000000000034f3f .LASF1488
     /tmp/ccCwMAmf.s:91936  .debug_str:000000000000ccfa .LASF1489
     /tmp/ccCwMAmf.s:101594  .debug_str:0000000000033df0 .LASF1490
     /tmp/ccCwMAmf.s:96330  .debug_str:000000000001e6fe .LASF1491
     /tmp/ccCwMAmf.s:101326  .debug_str:0000000000032c13 .LASF1492
     /tmp/ccCwMAmf.s:91406  .debug_str:000000000000a82d .LASF1493
     /tmp/ccCwMAmf.s:101050  .debug_str:000000000003197e .LASF1494
     /tmp/ccCwMAmf.s:91140  .debug_str:00000000000095c7 .LASF1495
     /tmp/ccCwMAmf.s:100784  .debug_str:00000000000308e9 .LASF1496
     /tmp/ccCwMAmf.s:92568  .debug_str:000000000000f099 .LASF1497
     /tmp/ccCwMAmf.s:102330  .debug_str:0000000000036ffe .LASF1498
     /tmp/ccCwMAmf.s:92262  .debug_str:000000000000e038 .LASF1499
     /tmp/ccCwMAmf.s:98472  .debug_str:000000000002724f .LASF1500
     /tmp/ccCwMAmf.s:92006  .debug_str:000000000000d191 .LASF1501
     /tmp/ccCwMAmf.s:101842  .debug_str:0000000000034e17 .LASF1502
     /tmp/ccCwMAmf.s:91736  .debug_str:000000000000bf9e .LASF1503
     /tmp/ccCwMAmf.s:101398  .debug_str:0000000000033067 .LASF1504
     /tmp/ccCwMAmf.s:91480  .debug_str:000000000000ad16 .LASF1505
     /tmp/ccCwMAmf.s:107642  .debug_str:000000000004cf89 .LASF1506
     /tmp/ccCwMAmf.s:93094  .debug_str:0000000000010f1b .LASF1507
     /tmp/ccCwMAmf.s:102690  .debug_str:000000000003863a .LASF1508
     /tmp/ccCwMAmf.s:92820  .debug_str:0000000000010057 .LASF1509
     /tmp/ccCwMAmf.s:102414  .debug_str:00000000000374fe .LASF1510
     /tmp/ccCwMAmf.s:92274  .debug_str:000000000000e111 .LASF1511
     /tmp/ccCwMAmf.s:102142  .debug_str:00000000000363ac .LASF1512
     /tmp/ccCwMAmf.s:92070  .debug_str:000000000000d589 .LASF1513
     /tmp/ccCwMAmf.s:101920  .debug_str:00000000000353ea .LASF1514
     /tmp/ccCwMAmf.s:91816  .debug_str:000000000000c458 .LASF1515
     /tmp/ccCwMAmf.s:101656  .debug_str:000000000003416b .LASF1516
     /tmp/ccCwMAmf.s:93482  .debug_str:00000000000127f6 .LASF1517
     /tmp/ccCwMAmf.s:103224  .debug_str:000000000003a3dd .LASF1518
     /tmp/ccCwMAmf.s:93180  .debug_str:00000000000114a0 .LASF1519
     /tmp/ccCwMAmf.s:102764  .debug_str:0000000000038a5a .LASF1520
     /tmp/ccCwMAmf.s:93124  .debug_str:00000000000110f7 .LASF1521
     /tmp/ccCwMAmf.s:93994  .debug_str:00000000000149d3 .LASF1522
     /tmp/ccCwMAmf.s:88952  .debug_str:0000000000000021 .LASF1523
     /tmp/ccCwMAmf.s:103306  .debug_str:000000000003a972 .LASF1524
     /tmp/ccCwMAmf.s:97040  .debug_str:000000000002180d .LASF1525
     /tmp/ccCwMAmf.s:105398  .debug_str:0000000000043a22 .LASF1526
     /tmp/ccCwMAmf.s:89332  .debug_str:0000000000001abc .LASF1527
     /tmp/ccCwMAmf.s:90054  .debug_str:0000000000004cb1 .LASF1528
     /tmp/ccCwMAmf.s:90484  .debug_str:00000000000068f8 .LASF1529
     /tmp/ccCwMAmf.s:90844  .debug_str:000000000000817e .LASF1530
     /tmp/ccCwMAmf.s:93752  .debug_str:0000000000013a9e .LASF1531
     /tmp/ccCwMAmf.s:103244  .debug_str:000000000003a50c .LASF1532
     /tmp/ccCwMAmf.s:101944  .debug_str:00000000000355bd .LASF1533
     /tmp/ccCwMAmf.s:104436  .debug_str:000000000003f512 .LASF1534
     /tmp/ccCwMAmf.s:107024  .debug_str:000000000004a474 .LASF1535
     /tmp/ccCwMAmf.s:90486  .debug_str:0000000000006929 .LASF1536
     /tmp/ccCwMAmf.s:89478  .debug_str:0000000000002530 .LASF1537
     /tmp/ccCwMAmf.s:89836  .debug_str:0000000000003d3b .LASF1538
     /tmp/ccCwMAmf.s:105262  .debug_str:00000000000430cb .LASF1539
     /tmp/ccCwMAmf.s:105898  .debug_str:0000000000045b0a .LASF1540
     /tmp/ccCwMAmf.s:104622  .debug_str:00000000000400d4 .LASF1541
     /tmp/ccCwMAmf.s:104806  .debug_str:0000000000040e95 .LASF1542
     /tmp/ccCwMAmf.s:95216  .debug_str:000000000001987f .LASF1543
     /tmp/ccCwMAmf.s:106566  .debug_str:00000000000486dc .LASF1544
     /tmp/ccCwMAmf.s:108016  .debug_str:000000000004e99d .LASF1545
     /tmp/ccCwMAmf.s:99382  .debug_str:000000000002af6b .LASF1546
     /tmp/ccCwMAmf.s:92892  .debug_str:00000000000103da .LASF1547
     /tmp/ccCwMAmf.s:101668  .debug_str:0000000000034256 .LASF1548
     /tmp/ccCwMAmf.s:91264  .debug_str:0000000000009ea7 .LASF1549
     /tmp/ccCwMAmf.s:88962  .debug_str:00000000000000c4 .LASF1550
     /tmp/ccCwMAmf.s:97324  .debug_str:0000000000022b7e .LASF1551
     /tmp/ccCwMAmf.s:97576  .debug_str:0000000000023ce0 .LASF1552
     /tmp/ccCwMAmf.s:103664  .debug_str:000000000003c335 .LASF1553
     /tmp/ccCwMAmf.s:105868  .debug_str:0000000000045967 .LASF1554
     /tmp/ccCwMAmf.s:107360  .debug_str:000000000004bc57 .LASF1555
     /tmp/ccCwMAmf.s:96730  .debug_str:0000000000020385 .LASF1556
     /tmp/ccCwMAmf.s:100528  .debug_str:000000000002f88a .LASF1557
     /tmp/ccCwMAmf.s:93134  .debug_str:00000000000111d5 .LASF1559
     /tmp/ccCwMAmf.s:106702  .debug_str:0000000000048fb9 .LASF1560
     /tmp/ccCwMAmf.s:94404  .debug_str:000000000001628a .LASF1561
     /tmp/ccCwMAmf.s:98978  .debug_str:00000000000294e9 .LASF1562
     /tmp/ccCwMAmf.s:94252  .debug_str:0000000000015960 .LASF1563
     /tmp/ccCwMAmf.s:94190  .debug_str:0000000000015573 .LASF1564
     /tmp/ccCwMAmf.s:100492  .debug_str:000000000002f661 .LASF1565
     /tmp/ccCwMAmf.s:89014  .debug_str:000000000000047a .LASF1566
     /tmp/ccCwMAmf.s:94492  .debug_str:000000000001688a .LASF1567
     /tmp/ccCwMAmf.s:96492  .debug_str:000000000001f215 .LASF1568
     /tmp/ccCwMAmf.s:97652  .debug_str:0000000000024230 .LASF1569
     /tmp/ccCwMAmf.s:105086  .debug_str:0000000000042583 .LASF1570
     /tmp/ccCwMAmf.s:92610  .debug_str:000000000000f29a .LASF1571
     /tmp/ccCwMAmf.s:99208  .debug_str:000000000002a441 .LASF1572
     /tmp/ccCwMAmf.s:90512  .debug_str:0000000000006b55 .LASF1573
     /tmp/ccCwMAmf.s:91396  .debug_str:000000000000a75a .LASF1574
     /tmp/ccCwMAmf.s:97390  .debug_str:0000000000022fc8 .LASF1575
     /tmp/ccCwMAmf.s:91390  .debug_str:000000000000a701 .LASF1576
     /tmp/ccCwMAmf.s:96364  .debug_str:000000000001e98c .LASF1577
     /tmp/ccCwMAmf.s:101526  .debug_str:0000000000033956 .LASF1578
     /tmp/ccCwMAmf.s:97468  .debug_str:00000000000235e4 .LASF1579
     /tmp/ccCwMAmf.s:89662  .debug_str:00000000000031dd .LASF1580
     /tmp/ccCwMAmf.s:99072  .debug_str:0000000000029b03 .LASF1581
     /tmp/ccCwMAmf.s:90070  .debug_str:0000000000004e05 .LASF1582
     /tmp/ccCwMAmf.s:92244  .debug_str:000000000000df3f .LASF1583
     /tmp/ccCwMAmf.s:108258  .debug_str:000000000004fa3e .LASF1584
     /tmp/ccCwMAmf.s:98844  .debug_str:0000000000028c0a .LASF1585
     /tmp/ccCwMAmf.s:103204  .debug_str:000000000003a28b .LASF1586
     /tmp/ccCwMAmf.s:99204  .debug_str:000000000002a3f6 .LASF1587
     /tmp/ccCwMAmf.s:106370  .debug_str:0000000000047a3b .LASF1588
     /tmp/ccCwMAmf.s:105408  .debug_str:0000000000043acc .LASF1589
     /tmp/ccCwMAmf.s:92640  .debug_str:000000000000f529 .LASF1590
     /tmp/ccCwMAmf.s:106894  .debug_str:0000000000049c22 .LASF1591
     /tmp/ccCwMAmf.s:90020  .debug_str:0000000000004ab5 .LASF1592
     /tmp/ccCwMAmf.s:95226  .debug_str:0000000000019939 .LASF1593
     /tmp/ccCwMAmf.s:99182  .debug_str:000000000002a271 .LASF1594
     /tmp/ccCwMAmf.s:90904  .debug_str:00000000000085d9 .LASF1595
     /tmp/ccCwMAmf.s:93130  .debug_str:000000000001117c .LASF1596
     /tmp/ccCwMAmf.s:101310  .debug_str:0000000000032b30 .LASF1597
     /tmp/ccCwMAmf.s:92358  .debug_str:000000000000e60b .LASF1598
     /tmp/ccCwMAmf.s:106770  .debug_str:0000000000049418 .LASF1599
     /tmp/ccCwMAmf.s:95292  .debug_str:0000000000019de0 .LASF1600
     /tmp/ccCwMAmf.s:108062  .debug_str:000000000004ed4c .LASF1601
     /tmp/ccCwMAmf.s:92934  .debug_str:000000000001059a .LASF1602
     /tmp/ccCwMAmf.s:101712  .debug_str:00000000000344d1 .LASF1603
     /tmp/ccCwMAmf.s:107906  .debug_str:000000000004e28e .LASF1604
     /tmp/ccCwMAmf.s:100616  .debug_str:000000000002fe34 .LASF1605
     /tmp/ccCwMAmf.s:98552  .debug_str:0000000000027815 .LASF1606
     /tmp/ccCwMAmf.s:101476  .debug_str:0000000000033626 .LASF1607
     /tmp/ccCwMAmf.s:95478  .debug_str:000000000001ab99 .LASF1608
     /tmp/ccCwMAmf.s:102462  .debug_str:00000000000378e0 .LASF1609
     /tmp/ccCwMAmf.s:105018  .debug_str:0000000000042052 .LASF1610
     /tmp/ccCwMAmf.s:103804  .debug_str:000000000003cca5 .LASF1611
     /tmp/ccCwMAmf.s:95820  .debug_str:000000000001c285 .LASF1612
     /tmp/ccCwMAmf.s:99922  .debug_str:000000000002d013 .LASF1613
     /tmp/ccCwMAmf.s:107462  .debug_str:000000000004c30a .LASF1614
     /tmp/ccCwMAmf.s:92978  .debug_str:000000000001087b .LASF1615
     /tmp/ccCwMAmf.s:91942  .debug_str:000000000000cd6d .LASF1616
     /tmp/ccCwMAmf.s:91642  .debug_str:000000000000b877 .LASF1617
     /tmp/ccCwMAmf.s:89364  .debug_str:0000000000001d52 .LASF1618
     /tmp/ccCwMAmf.s:101184  .debug_str:00000000000321de .LASF1619
     /tmp/ccCwMAmf.s:94240  .debug_str:000000000001588a .LASF1620
     /tmp/ccCwMAmf.s:99154  .debug_str:000000000002a064 .LASF1621
     /tmp/ccCwMAmf.s:101408  .debug_str:0000000000033113 .LASF1622
     /tmp/ccCwMAmf.s:96500  .debug_str:000000000001f299 .LASF1623
     /tmp/ccCwMAmf.s:95112  .debug_str:00000000000190ff .LASF1624
     /tmp/ccCwMAmf.s:102108  .debug_str:000000000003617b .LASF1625
     /tmp/ccCwMAmf.s:91168  .debug_str:0000000000009781 .LASF1626
     /tmp/ccCwMAmf.s:100802  .debug_str:0000000000030a16 .LASF1627
     /tmp/ccCwMAmf.s:105026  .debug_str:00000000000420dc .LASF1628
     /tmp/ccCwMAmf.s:96202  .debug_str:000000000001ddf6 .LASF1629
     /tmp/ccCwMAmf.s:108022  .debug_str:000000000004e9dc .LASF1630
     /tmp/ccCwMAmf.s:105022  .debug_str:00000000000420ae .LASF1631
     /tmp/ccCwMAmf.s:108044  .debug_str:000000000004ebbb .LASF1632
     /tmp/ccCwMAmf.s:92144  .debug_str:000000000000da18 .LASF1633
     /tmp/ccCwMAmf.s:107512  .debug_str:000000000004c669 .LASF1634
     /tmp/ccCwMAmf.s:96424  .debug_str:000000000001eccd .LASF1635
     /tmp/ccCwMAmf.s:106860  .debug_str:0000000000049a63 .LASF1636
     /tmp/ccCwMAmf.s:90176  .debug_str:000000000000545e .LASF1637
     /tmp/ccCwMAmf.s:94718  .debug_str:0000000000017812 .LASF1638
     /tmp/ccCwMAmf.s:105320  .debug_str:00000000000434a9 .LASF1639
     /tmp/ccCwMAmf.s:95080  .debug_str:0000000000018ed2 .LASF1640
     /tmp/ccCwMAmf.s:97790  .debug_str:0000000000024a3e .LASF1641
     /tmp/ccCwMAmf.s:97210  .debug_str:000000000002248e .LASF1642
     /tmp/ccCwMAmf.s:108230  .debug_str:000000000004f849 .LASF1643
     /tmp/ccCwMAmf.s:101170  .debug_str:00000000000320c6 .LASF1644
     /tmp/ccCwMAmf.s:93706  .debug_str:00000000000137f4 .LASF1645
     /tmp/ccCwMAmf.s:98108  .debug_str:0000000000025cd5 .LASF1646
     /tmp/ccCwMAmf.s:101750  .debug_str:000000000003479a .LASF1647
     /tmp/ccCwMAmf.s:89808  .debug_str:0000000000003b6a .LASF1648
     /tmp/ccCwMAmf.s:92570  .debug_str:000000000000f0c3 .LASF1649
     /tmp/ccCwMAmf.s:92210  .debug_str:000000000000dd2f .LASF1650
     /tmp/ccCwMAmf.s:107210  .debug_str:000000000004b20c .LASF1651
     /tmp/ccCwMAmf.s:99446  .debug_str:000000000002b291 .LASF1652
     /tmp/ccCwMAmf.s:98212  .debug_str:0000000000026245 .LASF1653
     /tmp/ccCwMAmf.s:91896  .debug_str:000000000000c9fa .LASF1654
     /tmp/ccCwMAmf.s:97312  .debug_str:0000000000022ab4 .LASF1655
     /tmp/ccCwMAmf.s:101524  .debug_str:0000000000033920 .LASF1656
     /tmp/ccCwMAmf.s:106656  .debug_str:0000000000048c7f .LASF1657
     /tmp/ccCwMAmf.s:108288  .debug_str:000000000004fc28 .LASF1658
     /tmp/ccCwMAmf.s:103882  .debug_str:000000000003d11a .LASF1659
     /tmp/ccCwMAmf.s:99592  .debug_str:000000000002bbbc .LASF1660
     /tmp/ccCwMAmf.s:94820  .debug_str:0000000000017eee .LASF1661
     /tmp/ccCwMAmf.s:90820  .debug_str:0000000000008010 .LASF1662
     /tmp/ccCwMAmf.s:105164  .debug_str:0000000000042a9b .LASF1663
     /tmp/ccCwMAmf.s:101586  .debug_str:0000000000033d5f .LASF1664
     /tmp/ccCwMAmf.s:96154  .debug_str:000000000001da62 .LASF1665
     /tmp/ccCwMAmf.s:92656  .debug_str:000000000000f677 .LASF1666
     /tmp/ccCwMAmf.s:106490  .debug_str:00000000000481d8 .LASF1667
     /tmp/ccCwMAmf.s:106694  .debug_str:0000000000048f4f .LASF1668
     /tmp/ccCwMAmf.s:95346  .debug_str:000000000001a163 .LASF1669
     /tmp/ccCwMAmf.s:97892  .debug_str:00000000000250f2 .LASF1670
     /tmp/ccCwMAmf.s:105696  .debug_str:0000000000044de8 .LASF1671
     /tmp/ccCwMAmf.s:89114  .debug_str:0000000000000b54 .LASF1672
     /tmp/ccCwMAmf.s:96664  .debug_str:000000000001fe98 .LASF1673
     /tmp/ccCwMAmf.s:99812  .debug_str:000000000002c95b .LASF1674
     /tmp/ccCwMAmf.s:93832  .debug_str:0000000000013f79 .LASF1675
     /tmp/ccCwMAmf.s:90870  .debug_str:000000000000837a .LASF1676
     /tmp/ccCwMAmf.s:102340  .debug_str:00000000000370dc .LASF1677
     /tmp/ccCwMAmf.s:104994  .debug_str:0000000000041eb4 .LASF1678
     /tmp/ccCwMAmf.s:93980  .debug_str:00000000000148ff .LASF1679
     /tmp/ccCwMAmf.s:103504  .debug_str:000000000003b7a6 .LASF1680
     /tmp/ccCwMAmf.s:104312  .debug_str:000000000003ed92 .LASF1681
     /tmp/ccCwMAmf.s:90398  .debug_str:000000000000633f .LASF1682
     /tmp/ccCwMAmf.s:98240  .debug_str:00000000000263ca .LASF1683
     /tmp/ccCwMAmf.s:101106  .debug_str:0000000000031cb8 .LASF1684
     /tmp/ccCwMAmf.s:89174  .debug_str:0000000000000f54 .LASF1685
     /tmp/ccCwMAmf.s:102244  .debug_str:0000000000036aaf .LASF1686
     /tmp/ccCwMAmf.s:94336  .debug_str:0000000000015e79 .LASF1687
     /tmp/ccCwMAmf.s:93420  .debug_str:0000000000012434 .LASF1688
     /tmp/ccCwMAmf.s:104676  .debug_str:000000000004041e .LASF1689
     /tmp/ccCwMAmf.s:104760  .debug_str:0000000000040b4d .LASF1690
     /tmp/ccCwMAmf.s:96444  .debug_str:000000000001ee5b .LASF1691
     /tmp/ccCwMAmf.s:107412  .debug_str:000000000004bfae .LASF1692
     /tmp/ccCwMAmf.s:105936  .debug_str:0000000000045d95 .LASF1693
     /tmp/ccCwMAmf.s:95670  .debug_str:000000000001b7ca .LASF1694
     /tmp/ccCwMAmf.s:103338  .debug_str:000000000003ac05 .LASF1695
     /tmp/ccCwMAmf.s:107396  .debug_str:000000000004be97 .LASF1696
     /tmp/ccCwMAmf.s:94172  .debug_str:0000000000015441 .LASF1697
     /tmp/ccCwMAmf.s:100760  .debug_str:00000000000307b1 .LASF1698
     /tmp/ccCwMAmf.s:97434  .debug_str:00000000000232c0 .LASF1699
     /tmp/ccCwMAmf.s:89612  .debug_str:0000000000002e61 .LASF1700
     /tmp/ccCwMAmf.s:102768  .debug_str:0000000000038aab .LASF1701
     /tmp/ccCwMAmf.s:103164  .debug_str:0000000000039f5d .LASF1702
     /tmp/ccCwMAmf.s:95684  .debug_str:000000000001b907 .LASF1703
     /tmp/ccCwMAmf.s:102418  .debug_str:0000000000037548 .LASF1704
     /tmp/ccCwMAmf.s:104652  .debug_str:0000000000040269 .LASF1705
     /tmp/ccCwMAmf.s:99036  .debug_str:00000000000298c9 .LASF1706
     /tmp/ccCwMAmf.s:100378  .debug_str:000000000002ede6 .LASF1707
     /tmp/ccCwMAmf.s:97698  .debug_str:000000000002451d .LASF1708
     /tmp/ccCwMAmf.s:94884  .debug_str:00000000000182fc .LASF1709
     /tmp/ccCwMAmf.s:92716  .debug_str:000000000000f988 .LASF1710
     /tmp/ccCwMAmf.s:89254  .debug_str:00000000000014b0 .LASF1711
     /tmp/ccCwMAmf.s:104572  .debug_str:000000000003fdc0 .LASF1712
     /tmp/ccCwMAmf.s:92010  .debug_str:000000000000d1fb .LASF1713
     /tmp/ccCwMAmf.s:95236  .debug_str:00000000000199e4 .LASF1714
     /tmp/ccCwMAmf.s:100266  .debug_str:000000000002e662 .LASF1715
     /tmp/ccCwMAmf.s:105452  .debug_str:0000000000043e01 .LASF1716
     /tmp/ccCwMAmf.s:92882  .debug_str:000000000001035b .LASF1717
     /tmp/ccCwMAmf.s:97322  .debug_str:0000000000022b53 .LASF1718
     /tmp/ccCwMAmf.s:103024  .debug_str:00000000000397a2 .LASF1719
     /tmp/ccCwMAmf.s:99766  .debug_str:000000000002c6af .LASF1720
     /tmp/ccCwMAmf.s:94146  .debug_str:00000000000152be .LASF1721
     /tmp/ccCwMAmf.s:98666  .debug_str:0000000000027fa5 .LASF1722
     /tmp/ccCwMAmf.s:104906  .debug_str:0000000000041628 .LASF1723
     /tmp/ccCwMAmf.s:89578  .debug_str:0000000000002c1b .LASF1724
     /tmp/ccCwMAmf.s:96142  .debug_str:000000000001d97e .LASF1725
     /tmp/ccCwMAmf.s:100056  .debug_str:000000000002d847 .LASF1726
     /tmp/ccCwMAmf.s:108176  .debug_str:000000000004f472 .LASF1727
     /tmp/ccCwMAmf.s:104306  .debug_str:000000000003ed35 .LASF1728
     /tmp/ccCwMAmf.s:99464  .debug_str:000000000002b48d .LASF1729
     /tmp/ccCwMAmf.s:101680  .debug_str:0000000000034336 .LASF1730
     /tmp/ccCwMAmf.s:105902  .debug_str:0000000000045b48 .LASF1731
     /tmp/ccCwMAmf.s:96552  .debug_str:000000000001f6b0 .LASF1732
     /tmp/ccCwMAmf.s:97582  .debug_str:0000000000023d57 .LASF1733
     /tmp/ccCwMAmf.s:99626  .debug_str:000000000002be7e .LASF1734
     /tmp/ccCwMAmf.s:105232  .debug_str:0000000000042ecb .LASF1735
     /tmp/ccCwMAmf.s:104668  .debug_str:0000000000040378 .LASF1736
     /tmp/ccCwMAmf.s:101514  .debug_str:0000000000033881 .LASF1737
     /tmp/ccCwMAmf.s:95672  .debug_str:000000000001b7e6 .LASF1738
     /tmp/ccCwMAmf.s:94204  .debug_str:0000000000015623 .LASF1739
     /tmp/ccCwMAmf.s:106584  .debug_str:00000000000487d7 .LASF1740
     /tmp/ccCwMAmf.s:108120  .debug_str:000000000004f0aa .LASF1741
     /tmp/ccCwMAmf.s:94680  .debug_str:0000000000017504 .LASF1742
     /tmp/ccCwMAmf.s:101942  .debug_str:000000000003559d .LASF1743
     /tmp/ccCwMAmf.s:105702  .debug_str:0000000000044e4c .LASF1744
     /tmp/ccCwMAmf.s:94868  .debug_str:00000000000181a5 .LASF1745
     /tmp/ccCwMAmf.s:90492  .debug_str:00000000000069b1 .LASF1746
     /tmp/ccCwMAmf.s:90072  .debug_str:0000000000004e2d .LASF1747
     /tmp/ccCwMAmf.s:94674  .debug_str:00000000000174a6 .LASF1748
     /tmp/ccCwMAmf.s:104726  .debug_str:00000000000407cd .LASF1749
     /tmp/ccCwMAmf.s:107578  .debug_str:000000000004cb42 .LASF1750
     /tmp/ccCwMAmf.s:100070  .debug_str:000000000002d98e .LASF1751
     /tmp/ccCwMAmf.s:97628  .debug_str:0000000000024051 .LASF1752
     /tmp/ccCwMAmf.s:96950  .debug_str:0000000000021217 .LASF1753
     /tmp/ccCwMAmf.s:99792  .debug_str:000000000002c80b .LASF1754
     /tmp/ccCwMAmf.s:96302  .debug_str:000000000001e561 .LASF1755
     /tmp/ccCwMAmf.s:95706  .debug_str:000000000001ba82 .LASF1756
     /tmp/ccCwMAmf.s:91448  .debug_str:000000000000aa96 .LASF1757
     /tmp/ccCwMAmf.s:105322  .debug_str:00000000000434c5 .LASF1758
     /tmp/ccCwMAmf.s:106176  .debug_str:0000000000046ce5 .LASF1759
     /tmp/ccCwMAmf.s:95960  .debug_str:000000000001cd36 .LASF1760
     /tmp/ccCwMAmf.s:98286  .debug_str:00000000000266a2 .LASF1761
     /tmp/ccCwMAmf.s:105420  .debug_str:0000000000043ba3 .LASF1762
     /tmp/ccCwMAmf.s:91782  .debug_str:000000000000c271 .LASF1763
     /tmp/ccCwMAmf.s:104584  .debug_str:000000000003fe66 .LASF1764
     /tmp/ccCwMAmf.s:97486  .debug_str:00000000000236fe .LASF1765
     /tmp/ccCwMAmf.s:99858  .debug_str:000000000002cc92 .LASF1766
     /tmp/ccCwMAmf.s:106074  .debug_str:0000000000046615 .LASF1767
     /tmp/ccCwMAmf.s:90914  .debug_str:00000000000086b4 .LASF1768
     /tmp/ccCwMAmf.s:98312  .debug_str:00000000000268d7 .LASF1769
     /tmp/ccCwMAmf.s:103070  .debug_str:0000000000039ab3 .LASF1770
     /tmp/ccCwMAmf.s:104384  .debug_str:000000000003f234 .LASF1771
     /tmp/ccCwMAmf.s:94200  .debug_str:00000000000155f0 .LASF1772
     /tmp/ccCwMAmf.s:95622  .debug_str:000000000001b4c8 .LASF1773
     /tmp/ccCwMAmf.s:106034  .debug_str:000000000004639b .LASF1774
     /tmp/ccCwMAmf.s:94540  .debug_str:0000000000016bdc .LASF1775
     /tmp/ccCwMAmf.s:106904  .debug_str:0000000000049cbd .LASF1776
     /tmp/ccCwMAmf.s:91380  .debug_str:000000000000a654 .LASF1777
     /tmp/ccCwMAmf.s:101276  .debug_str:00000000000328ca .LASF1778
     /tmp/ccCwMAmf.s:97080  .debug_str:0000000000021b63 .LASF1779
     /tmp/ccCwMAmf.s:106812  .debug_str:000000000004968b .LASF1780
     /tmp/ccCwMAmf.s:107380  .debug_str:000000000004bd8e .LASF1781
     /tmp/ccCwMAmf.s:106274  .debug_str:00000000000473a0 .LASF1782
     /tmp/ccCwMAmf.s:98210  .debug_str:000000000002621c .LASF1783
     /tmp/ccCwMAmf.s:97476  .debug_str:0000000000023654 .LASF1784
     /tmp/ccCwMAmf.s:91322  .debug_str:000000000000a27c .LASF1785
     /tmp/ccCwMAmf.s:108086  .debug_str:000000000004eeae .LASF1786
     /tmp/ccCwMAmf.s:99602  .debug_str:000000000002bcbd .LASF1787
     /tmp/ccCwMAmf.s:93716  .debug_str:00000000000138a2 .LASF1788
     /tmp/ccCwMAmf.s:100792  .debug_str:0000000000030997 .LASF1789
     /tmp/ccCwMAmf.s:104300  .debug_str:000000000003ece6 .LASF1790
     /tmp/ccCwMAmf.s:89770  .debug_str:00000000000038b9 .LASF1791
     /tmp/ccCwMAmf.s:98578  .debug_str:00000000000279c4 .LASF1792
     /tmp/ccCwMAmf.s:101126  .debug_str:0000000000031dec .LASF1793
     /tmp/ccCwMAmf.s:100770  .debug_str:0000000000030831 .LASF1794
     /tmp/ccCwMAmf.s:91930  .debug_str:000000000000cca0 .LASF1795
     /tmp/ccCwMAmf.s:90682  .debug_str:000000000000773b .LASF1796
     /tmp/ccCwMAmf.s:97328  .debug_str:0000000000022ba0 .LASF1797
     /tmp/ccCwMAmf.s:101420  .debug_str:00000000000331ff .LASF1798
     /tmp/ccCwMAmf.s:107684  .debug_str:000000000004d1ff .LASF1799
     /tmp/ccCwMAmf.s:92076  .debug_str:000000000000d601 .LASF1800
     /tmp/ccCwMAmf.s:99298  .debug_str:000000000002a97a .LASF1801
     /tmp/ccCwMAmf.s:99772  .debug_str:000000000002c6f8 .LASF1802
     /tmp/ccCwMAmf.s:89066  .debug_str:0000000000000824 .LASF1803
     /tmp/ccCwMAmf.s:106750  .debug_str:000000000004930e .LASF1804
     /tmp/ccCwMAmf.s:107750  .debug_str:000000000004d6ef .LASF1805
     /tmp/ccCwMAmf.s:93662  .debug_str:0000000000013595 .LASF1806
     /tmp/ccCwMAmf.s:96160  .debug_str:000000000001dae7 .LASF1807
     /tmp/ccCwMAmf.s:100506  .debug_str:000000000002f6f7 .LASF1808
     /tmp/ccCwMAmf.s:96470  .debug_str:000000000001efce .LASF1809
     /tmp/ccCwMAmf.s:95686  .debug_str:000000000001b929 .LASF1810
     /tmp/ccCwMAmf.s:105956  .debug_str:0000000000045ec2 .LASF1811
     /tmp/ccCwMAmf.s:90806  .debug_str:0000000000007f20 .LASF1812
     /tmp/ccCwMAmf.s:107716  .debug_str:000000000004d470 .LASF1813
     /tmp/ccCwMAmf.s:106828  .debug_str:00000000000497c6 .LASF1814
     /tmp/ccCwMAmf.s:96654  .debug_str:000000000001fd91 .LASF1815
     /tmp/ccCwMAmf.s:99116  .debug_str:0000000000029de4 .LASF1816
     /tmp/ccCwMAmf.s:101372  .debug_str:0000000000032ec0 .LASF1817
     /tmp/ccCwMAmf.s:99224  .debug_str:000000000002a569 .LASF1818
     /tmp/ccCwMAmf.s:91262  .debug_str:0000000000009e80 .LASF1819
     /tmp/ccCwMAmf.s:104802  .debug_str:0000000000040e52 .LASF1820
     /tmp/ccCwMAmf.s:107250  .debug_str:000000000004b510 .LASF1821
     /tmp/ccCwMAmf.s:100142  .debug_str:000000000002de0f .LASF1822
     /tmp/ccCwMAmf.s:91362  .debug_str:000000000000a49c .LASF1823
     /tmp/ccCwMAmf.s:103892  .debug_str:000000000003d1b8 .LASF1824
     /tmp/ccCwMAmf.s:104154  .debug_str:000000000003e434 .LASF1825
     /tmp/ccCwMAmf.s:103048  .debug_str:0000000000039942 .LASF1826
     /tmp/ccCwMAmf.s:92124  .debug_str:000000000000d8e7 .LASF1827
     /tmp/ccCwMAmf.s:99572  .debug_str:000000000002bad0 .LASF1828
     /tmp/ccCwMAmf.s:101532  .debug_str:00000000000339d3 .LASF1829
     /tmp/ccCwMAmf.s:89016  .debug_str:000000000000049c .LASF1830
     /tmp/ccCwMAmf.s:91532  .debug_str:000000000000b099 .LASF1831
     /tmp/ccCwMAmf.s:95312  .debug_str:0000000000019ee9 .LASF1832
     /tmp/ccCwMAmf.s:91388  .debug_str:000000000000a6e2 .LASF1833
     /tmp/ccCwMAmf.s:98386  .debug_str:0000000000026dd2 .LASF1834
     /tmp/ccCwMAmf.s:104604  .debug_str:000000000003ffc1 .LASF1835
     /tmp/ccCwMAmf.s:95090  .debug_str:0000000000018f6f .LASF1836
     /tmp/ccCwMAmf.s:108058  .debug_str:000000000004ecf3 .LASF1837
     /tmp/ccCwMAmf.s:95682  .debug_str:000000000001b8dd .LASF1838
     /tmp/ccCwMAmf.s:102144  .debug_str:00000000000363d6 .LASF1839
     /tmp/ccCwMAmf.s:106744  .debug_str:0000000000049288 .LASF1840
     /tmp/ccCwMAmf.s:104438  .debug_str:000000000003f549 .LASF1841
     /tmp/ccCwMAmf.s:100614  .debug_str:000000000002fe13 .LASF1842
     /tmp/ccCwMAmf.s:105610  .debug_str:00000000000447c8 .LASF1843
     /tmp/ccCwMAmf.s:105054  .debug_str:00000000000422d3 .LASF1844
     /tmp/ccCwMAmf.s:98346  .debug_str:0000000000026af0 .LASF1845
     /tmp/ccCwMAmf.s:90834  .debug_str:00000000000080ef .LASF1846
     /tmp/ccCwMAmf.s:99362  .debug_str:000000000002adc4 .LASF1847
     /tmp/ccCwMAmf.s:98922  .debug_str:00000000000291e5 .LASF1848
     /tmp/ccCwMAmf.s:93834  .debug_str:0000000000013f9c .LASF1849
     /tmp/ccCwMAmf.s:100938  .debug_str:000000000003126e .LASF1850
     /tmp/ccCwMAmf.s:94646  .debug_str:000000000001729e .LASF1851
     /tmp/ccCwMAmf.s:99582  .debug_str:000000000002bb47 .LASF1852
     /tmp/ccCwMAmf.s:91128  .debug_str:0000000000009528 .LASF1853
     /tmp/ccCwMAmf.s:106170  .debug_str:0000000000046c86 .LASF1854
     /tmp/ccCwMAmf.s:100600  .debug_str:000000000002fcf2 .LASF1855
     /tmp/ccCwMAmf.s:90188  .debug_str:000000000000554b .LASF1856
     /tmp/ccCwMAmf.s:96714  .debug_str:0000000000020241 .LASF1857
     /tmp/ccCwMAmf.s:89888  .debug_str:00000000000040dc .LASF1858
     /tmp/ccCwMAmf.s:94554  .debug_str:0000000000016ca2 .LASF1859
     /tmp/ccCwMAmf.s:91068  .debug_str:000000000000913b .LASF1860
     /tmp/ccCwMAmf.s:100644  .debug_str:000000000002ffad .LASF1861
     /tmp/ccCwMAmf.s:101946  .debug_str:00000000000355f4 .LASF1862
     /tmp/ccCwMAmf.s:98390  .debug_str:0000000000026e0e .LASF1863
     /tmp/ccCwMAmf.s:98568  .debug_str:000000000002790e .LASF1864
     /tmp/ccCwMAmf.s:93500  .debug_str:000000000001295c .LASF1865
     /tmp/ccCwMAmf.s:102712  .debug_str:00000000000387e3 .LASF1866
     /tmp/ccCwMAmf.s:92546  .debug_str:000000000000eefb .LASF1867
     /tmp/ccCwMAmf.s:89782  .debug_str:000000000000398d .LASF1868
     /tmp/ccCwMAmf.s:107936  .debug_str:000000000004e4f7 .LASF1869
     /tmp/ccCwMAmf.s:100052  .debug_str:000000000002d7ff .LASF1870
     /tmp/ccCwMAmf.s:102674  .debug_str:0000000000038541 .LASF1871
     /tmp/ccCwMAmf.s:107672  .debug_str:000000000004d130 .LASF1872
     /tmp/ccCwMAmf.s:96896  .debug_str:0000000000020e58 .LASF1873
     /tmp/ccCwMAmf.s:97020  .debug_str:00000000000216fb .LASF1874
     /tmp/ccCwMAmf.s:97452  .debug_str:0000000000023409 .LASF1875
     /tmp/ccCwMAmf.s:100156  .debug_str:000000000002df1a .LASF1876
     /tmp/ccCwMAmf.s:102180  .debug_str:0000000000036649 .LASF1877
     /tmp/ccCwMAmf.s:101860  .debug_str:0000000000034f69 .LASF1878
     /tmp/ccCwMAmf.s:91702  .debug_str:000000000000bd51 .LASF1879
     /tmp/ccCwMAmf.s:93378  .debug_str:00000000000121c9 .LASF1880
     /tmp/ccCwMAmf.s:106182  .debug_str:0000000000046d50 .LASF1881
     /tmp/ccCwMAmf.s:92104  .debug_str:000000000000d79c .LASF1882
     /tmp/ccCwMAmf.s:104192  .debug_str:000000000003e6c9 .LASF1883
     /tmp/ccCwMAmf.s:89570  .debug_str:0000000000002bba .LASF1884
     /tmp/ccCwMAmf.s:101118  .debug_str:0000000000031d66 .LASF1885
     /tmp/ccCwMAmf.s:103274  .debug_str:000000000003a798 .LASF1886
     /tmp/ccCwMAmf.s:104746  .debug_str:0000000000040961 .LASF1887
     /tmp/ccCwMAmf.s:95168  .debug_str:000000000001955b .LASF1888
     /tmp/ccCwMAmf.s:100284  .debug_str:000000000002e799 .LASF1889
     /tmp/ccCwMAmf.s:100880  .debug_str:0000000000030eba .LASF1890
     /tmp/ccCwMAmf.s:94008  .debug_str:0000000000014ac2 .LASF1891
     /tmp/ccCwMAmf.s:100782  .debug_str:00000000000308c0 .LASF1892
     /tmp/ccCwMAmf.s:92092  .debug_str:000000000000d6d2 .LASF1893
     /tmp/ccCwMAmf.s:97650  .debug_str:0000000000024210 .LASF1894
     /tmp/ccCwMAmf.s:100754  .debug_str:0000000000030732 .LASF1895
     /tmp/ccCwMAmf.s:107390  .debug_str:000000000004be50 .LASF1896
     /tmp/ccCwMAmf.s:89442  .debug_str:000000000000232d .LASF1897
     /tmp/ccCwMAmf.s:95892  .debug_str:000000000001c845 .LASF1898
     /tmp/ccCwMAmf.s:92242  .debug_str:000000000000df13 .LASF1899
     /tmp/ccCwMAmf.s:103248  .debug_str:000000000003a55f .LASF1900
     /tmp/ccCwMAmf.s:100790  .debug_str:000000000003096d .LASF1901
     /tmp/ccCwMAmf.s:95812  .debug_str:000000000001c1ed .LASF1902
     /tmp/ccCwMAmf.s:99222  .debug_str:000000000002a543 .LASF1903
     /tmp/ccCwMAmf.s:105966  .debug_str:0000000000045fb1 .LASF1904
     /tmp/ccCwMAmf.s:91116  .debug_str:0000000000009459 .LASF1905
     /tmp/ccCwMAmf.s:104046  .debug_str:000000000003dcd5 .LASF1906
     /tmp/ccCwMAmf.s:97530  .debug_str:00000000000239dd .LASF1907
     /tmp/ccCwMAmf.s:100918  .debug_str:000000000003111b .LASF1908
     /tmp/ccCwMAmf.s:91302  .debug_str:000000000000a0ec .LASF1909
     /tmp/ccCwMAmf.s:94828  .debug_str:0000000000017f4b .LASF1910
     /tmp/ccCwMAmf.s:91862  .debug_str:000000000000c796 .LASF1911
     /tmp/ccCwMAmf.s:100130  .debug_str:000000000002dd66 .LASF1912
     /tmp/ccCwMAmf.s:92658  .debug_str:000000000000f694 .LASF1913
     /tmp/ccCwMAmf.s:96254  .debug_str:000000000001e1b6 .LASF1914
     /tmp/ccCwMAmf.s:92896  .debug_str:0000000000010402 .LASF1915
     /tmp/ccCwMAmf.s:98364  .debug_str:0000000000026c51 .LASF1916
     /tmp/ccCwMAmf.s:93154  .debug_str:0000000000011319 .LASF1917
     /tmp/ccCwMAmf.s:105072  .debug_str:000000000004246f .LASF1918
     /tmp/ccCwMAmf.s:106276  .debug_str:00000000000473c1 .LASF1919
     /tmp/ccCwMAmf.s:90408  .debug_str:0000000000006405 .LASF1920
     /tmp/ccCwMAmf.s:92694  .debug_str:000000000000f7c4 .LASF1921
     /tmp/ccCwMAmf.s:100842  .debug_str:0000000000030c9d .LASF1922
     /tmp/ccCwMAmf.s:104510  .debug_str:000000000003fa3c .LASF1923
     /tmp/ccCwMAmf.s:97806  .debug_str:0000000000024bef .LASF1924
     /tmp/ccCwMAmf.s:104412  .debug_str:000000000003f3f1 .LASF1925
     /tmp/ccCwMAmf.s:90360  .debug_str:00000000000060ec .LASF1926
     /tmp/ccCwMAmf.s:95718  .debug_str:000000000001bb75 .LASF1927
     /tmp/ccCwMAmf.s:107196  .debug_str:000000000004b103 .LASF1928
     /tmp/ccCwMAmf.s:99520  .debug_str:000000000002b81c .LASF1929
     /tmp/ccCwMAmf.s:95746  .debug_str:000000000001bd46 .LASF1930
     /tmp/ccCwMAmf.s:97542  .debug_str:0000000000023ab4 .LASF1931
     /tmp/ccCwMAmf.s:90154  .debug_str:00000000000052fa .LASF1932
     /tmp/ccCwMAmf.s:96940  .debug_str:000000000002115a .LASF1933
     /tmp/ccCwMAmf.s:93278  .debug_str:0000000000011af6 .LASF1934
     /tmp/ccCwMAmf.s:89368  .debug_str:0000000000001d9b .LASF1935
     /tmp/ccCwMAmf.s:95662  .debug_str:000000000001b746 .LASF1936
     /tmp/ccCwMAmf.s:105338  .debug_str:0000000000043623 .LASF1937
     /tmp/ccCwMAmf.s:98756  .debug_str:00000000000285b0 .LASF1938
     /tmp/ccCwMAmf.s:96400  .debug_str:000000000001ebc0 .LASF1939
     /tmp/ccCwMAmf.s:101456  .debug_str:0000000000033486 .LASF1940
     /tmp/ccCwMAmf.s:89494  .debug_str:0000000000002687 .LASF1941
     /tmp/ccCwMAmf.s:95356  .debug_str:000000000001a242 .LASF1942
     /tmp/ccCwMAmf.s:104632  .debug_str:0000000000040179 .LASF1943
     /tmp/ccCwMAmf.s:106258  .debug_str:0000000000047247 .LASF1944
     /tmp/ccCwMAmf.s:90848  .debug_str:00000000000081cf .LASF1945
     /tmp/ccCwMAmf.s:95134  .debug_str:0000000000019273 .LASF1946
     /tmp/ccCwMAmf.s:94548  .debug_str:0000000000016c61 .LASF1947
     /tmp/ccCwMAmf.s:106428  .debug_str:0000000000047e39 .LASF1948
     /tmp/ccCwMAmf.s:101306  .debug_str:0000000000032ae9 .LASF1949
     /tmp/ccCwMAmf.s:106916  .debug_str:0000000000049da0 .LASF1950
     /tmp/ccCwMAmf.s:97186  .debug_str:00000000000222dd .LASF1951
     /tmp/ccCwMAmf.s:101588  .debug_str:0000000000033d7c .LASF1952
     /tmp/ccCwMAmf.s:90708  .debug_str:000000000000792d .LASF1953
     /tmp/ccCwMAmf.s:106832  .debug_str:0000000000049801 .LASF1954
     /tmp/ccCwMAmf.s:95062  .debug_str:0000000000018d99 .LASF1955
     /tmp/ccCwMAmf.s:102592  .debug_str:00000000000380a0 .LASF1956
     /tmp/ccCwMAmf.s:105998  .debug_str:00000000000461c0 .LASF1957
     /tmp/ccCwMAmf.s:96638  .debug_str:000000000001fc42 .LASF1958
     /tmp/ccCwMAmf.s:98828  .debug_str:0000000000028afe .LASF1959
     /tmp/ccCwMAmf.s:94790  .debug_str:0000000000017d67 .LASF1960
     /tmp/ccCwMAmf.s:105722  .debug_str:0000000000044f87 .LASF1961
     /tmp/ccCwMAmf.s:97926  .debug_str:00000000000252e7 .LASF1962
     /tmp/ccCwMAmf.s:89922  .debug_str:000000000000439e .LASF1963
     /tmp/ccCwMAmf.s:104338  .debug_str:000000000003ef56 .LASF1964
     /tmp/ccCwMAmf.s:91010  .debug_str:0000000000008cdf .LASF1965
     /tmp/ccCwMAmf.s:107046  .debug_str:000000000004a609 .LASF1966
     /tmp/ccCwMAmf.s:101786  .debug_str:0000000000034b09 .LASF1967
     /tmp/ccCwMAmf.s:107410  .debug_str:000000000004bf85 .LASF1968
     /tmp/ccCwMAmf.s:97386  .debug_str:0000000000022f7a .LASF1969
     /tmp/ccCwMAmf.s:95492  .debug_str:000000000001ac6f .LASF1970
     /tmp/ccCwMAmf.s:107894  .debug_str:000000000004e1a5 .LASF1971
     /tmp/ccCwMAmf.s:92584  .debug_str:000000000000f1cb .LASF1972
     /tmp/ccCwMAmf.s:104346  .debug_str:000000000003eff9 .LASF1973
     /tmp/ccCwMAmf.s:105098  .debug_str:000000000004262c .LASF1974
     /tmp/ccCwMAmf.s:106436  .debug_str:0000000000047e9b .LASF1975
     /tmp/ccCwMAmf.s:98080  .debug_str:0000000000025b24 .LASF1976
     /tmp/ccCwMAmf.s:99586  .debug_str:000000000002bb7f .LASF1977
     /tmp/ccCwMAmf.s:106068  .debug_str:00000000000465a7 .LASF1978
     /tmp/ccCwMAmf.s:88958  .debug_str:0000000000000080 .LASF1979
     /tmp/ccCwMAmf.s:97298  .debug_str:00000000000229bc .LASF1980
     /tmp/ccCwMAmf.s:99408  .debug_str:000000000002b0aa .LASF1981
     /tmp/ccCwMAmf.s:94004  .debug_str:0000000000014a7f .LASF1982
     /tmp/ccCwMAmf.s:90252  .debug_str:0000000000005a05 .LASF1983
     /tmp/ccCwMAmf.s:103968  .debug_str:000000000003d6db .LASF1984
     /tmp/ccCwMAmf.s:98474  .debug_str:0000000000027279 .LASF1985
     /tmp/ccCwMAmf.s:91636  .debug_str:000000000000b820 .LASF1986
     /tmp/ccCwMAmf.s:99500  .debug_str:000000000002b6e6 .LASF1987
     /tmp/ccCwMAmf.s:100274  .debug_str:000000000002e719 .LASF1988
     /tmp/ccCwMAmf.s:90356  .debug_str:000000000000607c .LASF1989
     /tmp/ccCwMAmf.s:94756  .debug_str:0000000000017ae8 .LASF1990
     /tmp/ccCwMAmf.s:91536  .debug_str:000000000000b0f7 .LASF1991
     /tmp/ccCwMAmf.s:105282  .debug_str:0000000000043266 .LASF1992
     /tmp/ccCwMAmf.s:103418  .debug_str:000000000003b168 .LASF1993
     /tmp/ccCwMAmf.s:97538  .debug_str:0000000000023a78 .LASF1994
     /tmp/ccCwMAmf.s:96218  .debug_str:000000000001deff .LASF1995
     /tmp/ccCwMAmf.s:107524  .debug_str:000000000004c72d .LASF1996
     /tmp/ccCwMAmf.s:107690  .debug_str:000000000004d245 .LASF1997
     /tmp/ccCwMAmf.s:90216  .debug_str:0000000000005710 .LASF1998
     /tmp/ccCwMAmf.s:93250  .debug_str:00000000000118eb .LASF1999
     /tmp/ccCwMAmf.s:102706  .debug_str:0000000000038767 .LASF2000
     /tmp/ccCwMAmf.s:96672  .debug_str:000000000001ff4e .LASF2001
     /tmp/ccCwMAmf.s:103590  .debug_str:000000000003bd75 .LASF2002
     /tmp/ccCwMAmf.s:96122  .debug_str:000000000001d7ed .LASF2003
     /tmp/ccCwMAmf.s:93274  .debug_str:0000000000011a9f .LASF2004
     /tmp/ccCwMAmf.s:90442  .debug_str:000000000000664f .LASF2005
     /tmp/ccCwMAmf.s:100910  .debug_str:00000000000310af .LASF2006
     /tmp/ccCwMAmf.s:94140  .debug_str:0000000000015250 .LASF2007
     /tmp/ccCwMAmf.s:107480  .debug_str:000000000004c3fb .LASF2008
     /tmp/ccCwMAmf.s:96172  .debug_str:000000000001dc02 .LASF2009
     /tmp/ccCwMAmf.s:93074  .debug_str:0000000000010e89 .LASF2010
     /tmp/ccCwMAmf.s:105768  .debug_str:000000000004524c .LASF2011
     /tmp/ccCwMAmf.s:99886  .debug_str:000000000002ce28 .LASF2012
     /tmp/ccCwMAmf.s:100856  .debug_str:0000000000030d7f .LASF2013
     /tmp/ccCwMAmf.s:89830  .debug_str:0000000000003ced .LASF2014
     /tmp/ccCwMAmf.s:89598  .debug_str:0000000000002d7e .LASF2015
     /tmp/ccCwMAmf.s:91486  .debug_str:000000000000ad91 .LASF2016
     /tmp/ccCwMAmf.s:104232  .debug_str:000000000003e976 .LASF2017
     /tmp/ccCwMAmf.s:101116  .debug_str:0000000000031d43 .LASF2018
     /tmp/ccCwMAmf.s:91632  .debug_str:000000000000b7e9 .LASF2019
     /tmp/ccCwMAmf.s:104452  .debug_str:000000000003f668 .LASF2020
     /tmp/ccCwMAmf.s:89124  .debug_str:0000000000000c05 .LASF2021
     /tmp/ccCwMAmf.s:92438  .debug_str:000000000000e9a4 .LASF2022
     /tmp/ccCwMAmf.s:89450  .debug_str:000000000000239c .LASF2023
     /tmp/ccCwMAmf.s:96384  .debug_str:000000000001ea7c .LASF2024
     /tmp/ccCwMAmf.s:104100  .debug_str:000000000003e0be .LASF2025
     /tmp/ccCwMAmf.s:105882  .debug_str:0000000000045a0e .LASF2026
     /tmp/ccCwMAmf.s:103342  .debug_str:000000000003ac56 .LASF2027
     /tmp/ccCwMAmf.s:107124  .debug_str:000000000004ab81 .LASF2028
     /tmp/ccCwMAmf.s:98456  .debug_str:000000000002719f .LASF2029
     /tmp/ccCwMAmf.s:96136  .debug_str:000000000001d8e1 .LASF2030
     /tmp/ccCwMAmf.s:90186  .debug_str:0000000000005530 .LASF2031
     /tmp/ccCwMAmf.s:104742  .debug_str:0000000000040901 .LASF2032
     /tmp/ccCwMAmf.s:104868  .debug_str:00000000000413a1 .LASF2033
     /tmp/ccCwMAmf.s:94840  .debug_str:000000000001801f .LASF2034
     /tmp/ccCwMAmf.s:107376  .debug_str:000000000004bd69 .LASF2035
     /tmp/ccCwMAmf.s:93798  .debug_str:0000000000013daa .LASF2036
     /tmp/ccCwMAmf.s:102704  .debug_str:000000000003874c .LASF2037
     /tmp/ccCwMAmf.s:108168  .debug_str:000000000004f3d9 .LASF2038
     /tmp/ccCwMAmf.s:105694  .debug_str:0000000000044dcd .LASF2039
     /tmp/ccCwMAmf.s:107590  .debug_str:000000000004cc29 .LASF2040
     /tmp/ccCwMAmf.s:96938  .debug_str:0000000000021132 .LASF2041
     /tmp/ccCwMAmf.s:89146  .debug_str:0000000000000d64 .LASF2042
     /tmp/ccCwMAmf.s:106352  .debug_str:00000000000478c3 .LASF2043
     /tmp/ccCwMAmf.s:96124  .debug_str:000000000001d816 .LASF2044
     /tmp/ccCwMAmf.s:106872  .debug_str:0000000000049b18 .LASF2045
     /tmp/ccCwMAmf.s:91232  .debug_str:0000000000009cbe .LASF2046
     /tmp/ccCwMAmf.s:96994  .debug_str:0000000000021517 .LASF2047
     /tmp/ccCwMAmf.s:98224  .debug_str:00000000000262f7 .LASF2048
     /tmp/ccCwMAmf.s:98360  .debug_str:0000000000026bec .LASF2049
     /tmp/ccCwMAmf.s:93458  .debug_str:000000000001268a .LASF2050
     /tmp/ccCwMAmf.s:107812  .debug_str:000000000004dc24 .LASF2051
     /tmp/ccCwMAmf.s:102488  .debug_str:00000000000379c6 .LASF2052
     /tmp/ccCwMAmf.s:92196  .debug_str:000000000000dc47 .LASF2053
     /tmp/ccCwMAmf.s:91094  .debug_str:0000000000009282 .LASF2054
     /tmp/ccCwMAmf.s:102018  .debug_str:0000000000035b3c .LASF2055
     /tmp/ccCwMAmf.s:105058  .debug_str:0000000000042319 .LASF2056
     /tmp/ccCwMAmf.s:103078  .debug_str:0000000000039ae3 .LASF2057
     /tmp/ccCwMAmf.s:100388  .debug_str:000000000002ee76 .LASF2058
     /tmp/ccCwMAmf.s:93206  .debug_str:00000000000115bd .LASF2059
     /tmp/ccCwMAmf.s:96758  .debug_str:00000000000205af .LASF2060
     /tmp/ccCwMAmf.s:100744  .debug_str:0000000000030652 .LASF2061
     /tmp/ccCwMAmf.s:96916  .debug_str:0000000000020fa0 .LASF2062
     /tmp/ccCwMAmf.s:90680  .debug_str:0000000000007712 .LASF2063
     /tmp/ccCwMAmf.s:94676  .debug_str:00000000000174d0 .LASF2064
     /tmp/ccCwMAmf.s:101740  .debug_str:00000000000346e6 .LASF2065
     /tmp/ccCwMAmf.s:89702  .debug_str:00000000000034b4 .LASF2066
     /tmp/ccCwMAmf.s:104088  .debug_str:000000000003dfbe .LASF2067
     /tmp/ccCwMAmf.s:90166  .debug_str:00000000000053b3 .LASF2068
     /tmp/ccCwMAmf.s:90476  .debug_str:000000000000688d .LASF2069
     /tmp/ccCwMAmf.s:102292  .debug_str:0000000000036d63 .LASF2070
     /tmp/ccCwMAmf.s:99398  .debug_str:000000000002b040 .LASF2071
     /tmp/ccCwMAmf.s:105078  .debug_str:00000000000424fa .LASF2072
     /tmp/ccCwMAmf.s:105814  .debug_str:00000000000455a9 .LASF2073
     /tmp/ccCwMAmf.s:103800  .debug_str:000000000003cc4a .LASF2074
     /tmp/ccCwMAmf.s:94430  .debug_str:000000000001647a .LASF2075
     /tmp/ccCwMAmf.s:97550  .debug_str:0000000000023b15 .LASF2076
     /tmp/ccCwMAmf.s:90322  .debug_str:0000000000005e7c .LASF2077
     /tmp/ccCwMAmf.s:107468  .debug_str:000000000004c364 .LASF2078
     /tmp/ccCwMAmf.s:96040  .debug_str:000000000001d252 .LASF2079
     /tmp/ccCwMAmf.s:100786  .debug_str:0000000000030913 .LASF2080
     /tmp/ccCwMAmf.s:107570  .debug_str:000000000004caba .LASF2081
     /tmp/ccCwMAmf.s:106600  .debug_str:00000000000488c2 .LASF2082
     /tmp/ccCwMAmf.s:100132  .debug_str:000000000002dd8e .LASF2083
     /tmp/ccCwMAmf.s:106608  .debug_str:0000000000048944 .LASF2084
     /tmp/ccCwMAmf.s:99846  .debug_str:000000000002cbe8 .LASF2085
     /tmp/ccCwMAmf.s:103650  .debug_str:000000000003c227 .LASF2086
     /tmp/ccCwMAmf.s:95458  .debug_str:000000000001a9fb .LASF2087
     /tmp/ccCwMAmf.s:108098  .debug_str:000000000004ef31 .LASF2088
     /tmp/ccCwMAmf.s:91468  .debug_str:000000000000abda .LASF2089
     /tmp/ccCwMAmf.s:102796  .debug_str:0000000000038c76 .LASF2090
     /tmp/ccCwMAmf.s:97648  .debug_str:00000000000241e7 .LASF2091
     /tmp/ccCwMAmf.s:103442  .debug_str:000000000003b34c .LASF2092
     /tmp/ccCwMAmf.s:107114  .debug_str:000000000004aad6 .LASF2093
     /tmp/ccCwMAmf.s:91148  .debug_str:000000000000966c .LASF2094
     /tmp/ccCwMAmf.s:101844  .debug_str:0000000000034e41 .LASF2095
     /tmp/ccCwMAmf.s:105720  .debug_str:0000000000044f65 .LASF2096
     /tmp/ccCwMAmf.s:91728  .debug_str:000000000000beeb .LASF2097
     /tmp/ccCwMAmf.s:93368  .debug_str:00000000000120fd .LASF2098
     /tmp/ccCwMAmf.s:93196  .debug_str:0000000000011512 .LASF2099
     /tmp/ccCwMAmf.s:107810  .debug_str:000000000004dc02 .LASF2100
     /tmp/ccCwMAmf.s:102758  .debug_str:00000000000389e1 .LASF2101
     /tmp/ccCwMAmf.s:91020  .debug_str:0000000000008d92 .LASF2102
     /tmp/ccCwMAmf.s:106558  .debug_str:0000000000048672 .LASF2103
     /tmp/ccCwMAmf.s:105748  .debug_str:00000000000450cd .LASF2104
     /tmp/ccCwMAmf.s:96640  .debug_str:000000000001fc6b .LASF2105
     /tmp/ccCwMAmf.s:104168  .debug_str:000000000003e4fb .LASF2106
     /tmp/ccCwMAmf.s:103962  .debug_str:000000000003d689 .LASF2107
     /tmp/ccCwMAmf.s:99480  .debug_str:000000000002b577 .LASF2108
     /tmp/ccCwMAmf.s:94016  .debug_str:0000000000014b2a .LASF2109
     /tmp/ccCwMAmf.s:91780  .debug_str:000000000000c24f .LASF2110
     /tmp/ccCwMAmf.s:95558  .debug_str:000000000001b0da .LASF2111
     /tmp/ccCwMAmf.s:106328  .debug_str:00000000000476e9 .LASF2112
     /tmp/ccCwMAmf.s:105012  .debug_str:0000000000041fd8 .LASF2113
     /tmp/ccCwMAmf.s:89610  .debug_str:0000000000002e3f .LASF2114
     /tmp/ccCwMAmf.s:89464  .debug_str:000000000000248e .LASF2115
     /tmp/ccCwMAmf.s:104238  .debug_str:000000000003ea02 .LASF2116
     /tmp/ccCwMAmf.s:98994  .debug_str:000000000002959f .LASF2117
     /tmp/ccCwMAmf.s:101814  .debug_str:0000000000034c85 .LASF2118
     /tmp/ccCwMAmf.s:104804  .debug_str:0000000000040e71 .LASF2119
     /tmp/ccCwMAmf.s:95004  .debug_str:00000000000189f2 .LASF2120
     /tmp/ccCwMAmf.s:103668  .debug_str:000000000003c39a .LASF2121
     /tmp/ccCwMAmf.s:99028  .debug_str:000000000002984e .LASF2122
     /tmp/ccCwMAmf.s:98614  .debug_str:0000000000027c69 .LASF2123
     /tmp/ccCwMAmf.s:103852  .debug_str:000000000003cf5d .LASF2124
     /tmp/ccCwMAmf.s:97466  .debug_str:00000000000235b5 .LASF2125
     /tmp/ccCwMAmf.s:100290  .debug_str:000000000002e7f5 .LASF2126
     /tmp/ccCwMAmf.s:104124  .debug_str:000000000003e24d .LASF2127
     /tmp/ccCwMAmf.s:94994  .debug_str:000000000001892d .LASF2128
     /tmp/ccCwMAmf.s:101754  .debug_str:00000000000347de .LASF2129
     /tmp/ccCwMAmf.s:105400  .debug_str:0000000000043a51 .LASF2130
     /tmp/ccCwMAmf.s:103718  .debug_str:000000000003c745 .LASF2131
     /tmp/ccCwMAmf.s:95294  .debug_str:0000000000019e24 .LASF2132
     /tmp/ccCwMAmf.s:101474  .debug_str:00000000000335fe .LASF2133
     /tmp/ccCwMAmf.s:89296  .debug_str:00000000000017c7 .LASF2134
     /tmp/ccCwMAmf.s:90818  .debug_str:0000000000007fe7 .LASF2135
     /tmp/ccCwMAmf.s:98054  .debug_str:0000000000025966 .LASF2136
     /tmp/ccCwMAmf.s:98600  .debug_str:0000000000027b7a .LASF2137
     /tmp/ccCwMAmf.s:106994  .debug_str:000000000004a23d .LASF2138
     /tmp/ccCwMAmf.s:96808  .debug_str:000000000002092d .LASF2139
     /tmp/ccCwMAmf.s:93480  .debug_str:00000000000127c4 .LASF2140
     /tmp/ccCwMAmf.s:89118  .debug_str:0000000000000ba0 .LASF2141
     /tmp/ccCwMAmf.s:102436  .debug_str:00000000000376dd .LASF2142
     /tmp/ccCwMAmf.s:107192  .debug_str:000000000004b0bb .LASF2143
     /tmp/ccCwMAmf.s:97282  .debug_str:00000000000228a1 .LASF2144
     /tmp/ccCwMAmf.s:102978  .debug_str:00000000000395ba .LASF2145
     /tmp/ccCwMAmf.s:107804  .debug_str:000000000004db72 .LASF2146
     /tmp/ccCwMAmf.s:100708  .debug_str:000000000003039a .LASF2147
     /tmp/ccCwMAmf.s:101768  .debug_str:000000000003493a .LASF2148
     /tmp/ccCwMAmf.s:98584  .debug_str:0000000000027a2f .LASF2149
     /tmp/ccCwMAmf.s:95700  .debug_str:000000000001b9ec .LASF2150
     /tmp/ccCwMAmf.s:107602  .debug_str:000000000004cd12 .LASF2151
     /tmp/ccCwMAmf.s:105112  .debug_str:0000000000042759 .LASF2152
     /tmp/ccCwMAmf.s:99878  .debug_str:000000000002cd81 .LASF2153
     /tmp/ccCwMAmf.s:98168  .debug_str:0000000000025f69 .LASF2154
     /tmp/ccCwMAmf.s:95832  .debug_str:000000000001c38d .LASF2155
     /tmp/ccCwMAmf.s:103644  .debug_str:000000000003c1b1 .LASF2156
     /tmp/ccCwMAmf.s:91886  .debug_str:000000000000c915 .LASF2157
     /tmp/ccCwMAmf.s:91026  .debug_str:0000000000008e00 .LASF2158
     /tmp/ccCwMAmf.s:101970  .debug_str:00000000000357d4 .LASF2159
     /tmp/ccCwMAmf.s:107606  .debug_str:000000000004cd6d .LASF2160
     /tmp/ccCwMAmf.s:105116  .debug_str:00000000000427d5 .LASF2161
     /tmp/ccCwMAmf.s:108172  .debug_str:000000000004f43a .LASF2162
     /tmp/ccCwMAmf.s:97644  .debug_str:0000000000024195 .LASF2163
     /tmp/ccCwMAmf.s:104922  .debug_str:00000000000416fc .LASF2164
     /tmp/ccCwMAmf.s:95758  .debug_str:000000000001be20 .LASF2165
     /tmp/ccCwMAmf.s:92588  .debug_str:000000000000f20b .LASF2166
     /tmp/ccCwMAmf.s:99210  .debug_str:000000000002a465 .LASF2167
     /tmp/ccCwMAmf.s:89486  .debug_str:00000000000025be .LASF2168
     /tmp/ccCwMAmf.s:90368  .debug_str:0000000000006161 .LASF2169
     /tmp/ccCwMAmf.s:90184  .debug_str:0000000000005506 .LASF2170
     /tmp/ccCwMAmf.s:101128  .debug_str:0000000000031e12 .LASF2171
     /tmp/ccCwMAmf.s:98258  .debug_str:00000000000264f2 .LASF2172
     /tmp/ccCwMAmf.s:107876  .debug_str:000000000004e069 .LASF2173
     /tmp/ccCwMAmf.s:100934  .debug_str:0000000000031241 .LASF2174
     /tmp/ccCwMAmf.s:92996  .debug_str:00000000000109ab .LASF2175
     /tmp/ccCwMAmf.s:89034  .debug_str:0000000000000636 .LASF2176
     /tmp/ccCwMAmf.s:96494  .debug_str:000000000001f22b .LASF2177
     /tmp/ccCwMAmf.s:95304  .debug_str:0000000000019e87 .LASF2178
     /tmp/ccCwMAmf.s:108046  .debug_str:000000000004ebe7 .LASF2179
     /tmp/ccCwMAmf.s:99482  .debug_str:000000000002b598 .LASF2180
     /tmp/ccCwMAmf.s:88968  .debug_str:0000000000000127 .LASF2181
     /tmp/ccCwMAmf.s:104396  .debug_str:000000000003f30c .LASF2182
     /tmp/ccCwMAmf.s:107550  .debug_str:000000000004c8fb .LASF2183
     /tmp/ccCwMAmf.s:96342  .debug_str:000000000001e78f .LASF2184
     /tmp/ccCwMAmf.s:101632  .debug_str:0000000000033fde .LASF2185
     /tmp/ccCwMAmf.s:107042  .debug_str:000000000004a598 .LASF2186
     /tmp/ccCwMAmf.s:99762  .debug_str:000000000002c660 .LASF2187
     /tmp/ccCwMAmf.s:95100  .debug_str:0000000000019059 .LASF2188
     /tmp/ccCwMAmf.s:95772  .debug_str:000000000001bf6b .LASF2189
     /tmp/ccCwMAmf.s:103628  .debug_str:000000000003c055 .LASF2190
     /tmp/ccCwMAmf.s:90714  .debug_str:0000000000007984 .LASF2191
     /tmp/ccCwMAmf.s:101312  .debug_str:0000000000032b52 .LASF2192
     /tmp/ccCwMAmf.s:105178  .debug_str:0000000000042b28 .LASF2193
     /tmp/ccCwMAmf.s:91720  .debug_str:000000000000be9a .LASF2194
     /tmp/ccCwMAmf.s:90290  .debug_str:0000000000005c76 .LASF2195
     /tmp/ccCwMAmf.s:104496  .debug_str:000000000003f946 .LASF2196
     /tmp/ccCwMAmf.s:103670  .debug_str:000000000003c3be .LASF2197
     /tmp/ccCwMAmf.s:100576  .debug_str:000000000002fb54 .LASF2198
     /tmp/ccCwMAmf.s:90770  .debug_str:0000000000007d14 .LASF2199
     /tmp/ccCwMAmf.s:102166  .debug_str:0000000000036555 .LASF2200
     /tmp/ccCwMAmf.s:105940  .debug_str:0000000000045dc2 .LASF2201
     /tmp/ccCwMAmf.s:89746  .debug_str:00000000000036d2 .LASF2202
     /tmp/ccCwMAmf.s:103866  .debug_str:000000000003d04e .LASF2203
     /tmp/ccCwMAmf.s:103154  .debug_str:0000000000039eb9 .LASF2204
     /tmp/ccCwMAmf.s:101830  .debug_str:0000000000034d5c .LASF2205
     /tmp/ccCwMAmf.s:96946  .debug_str:00000000000211ce .LASF2206
     /tmp/ccCwMAmf.s:102354  .debug_str:00000000000371f8 .LASF2207
     /tmp/ccCwMAmf.s:94412  .debug_str:0000000000016307 .LASF2208
     /tmp/ccCwMAmf.s:94486  .debug_str:0000000000016838 .LASF2209
     /tmp/ccCwMAmf.s:105414  .debug_str:0000000000043b33 .LASF2210
     /tmp/ccCwMAmf.s:90614  .debug_str:0000000000007303 .LASF2211
     /tmp/ccCwMAmf.s:93614  .debug_str:00000000000131a4 .LASF2212
     /tmp/ccCwMAmf.s:90004  .debug_str:0000000000004916 .LASF2213
     /tmp/ccCwMAmf.s:100042  .debug_str:000000000002d757 .LASF2214
     /tmp/ccCwMAmf.s:95418  .debug_str:000000000001a6b6 .LASF2215
     /tmp/ccCwMAmf.s:105780  .debug_str:000000000004530d .LASF2216
     /tmp/ccCwMAmf.s:102162  .debug_str:000000000003652d .LASF2217
     /tmp/ccCwMAmf.s:90954  .debug_str:000000000000897c .LASF2218
     /tmp/ccCwMAmf.s:98314  .debug_str:00000000000268fd .LASF2219
     /tmp/ccCwMAmf.s:93340  .debug_str:0000000000011eca .LASF2220
     /tmp/ccCwMAmf.s:91052  .debug_str:0000000000009005 .LASF2221
     /tmp/ccCwMAmf.s:104530  .debug_str:000000000003fb52 .LASF2222
     /tmp/ccCwMAmf.s:96028  .debug_str:000000000001d186 .LASF2223
     /tmp/ccCwMAmf.s:96316  .debug_str:000000000001e611 .LASF2224
     /tmp/ccCwMAmf.s:106450  .debug_str:0000000000047f74 .LASF2225
     /tmp/ccCwMAmf.s:96914  .debug_str:0000000000020f7c .LASF2226
     /tmp/ccCwMAmf.s:88982  .debug_str:0000000000000250 .LASF2227
     /tmp/ccCwMAmf.s:105394  .debug_str:00000000000439ea .LASF2228
     /tmp/ccCwMAmf.s:104812  .debug_str:0000000000040efa .LASF2229
     /tmp/ccCwMAmf.s:95454  .debug_str:000000000001a996 .LASF2230
     /tmp/ccCwMAmf.s:96532  .debug_str:000000000001f50d .LASF2231
     /tmp/ccCwMAmf.s:97552  .debug_str:0000000000023b3d .LASF2232
     /tmp/ccCwMAmf.s:97564  .debug_str:0000000000023c0b .LASF2233
     /tmp/ccCwMAmf.s:98646  .debug_str:0000000000027e62 .LASF2234
     /tmp/ccCwMAmf.s:100462  .debug_str:000000000002f409 .LASF2235
     /tmp/ccCwMAmf.s:91790  .debug_str:000000000000c2cc .LASF2236
     /tmp/ccCwMAmf.s:98998  .debug_str:00000000000295f5 .LASF2237
     /tmp/ccCwMAmf.s:94080  .debug_str:0000000000014e52 .LASF2238
     /tmp/ccCwMAmf.s:100102  .debug_str:000000000002db6e .LASF2239
     /tmp/ccCwMAmf.s:97720  .debug_str:00000000000246d6 .LASF2240
     /tmp/ccCwMAmf.s:107654  .debug_str:000000000004d030 .LASF2241
     /tmp/ccCwMAmf.s:99952  .debug_str:000000000002d211 .LASF2242
     /tmp/ccCwMAmf.s:106672  .debug_str:0000000000048da0 .LASF2243
     /tmp/ccCwMAmf.s:104162  .debug_str:000000000003e497 .LASF2244
     /tmp/ccCwMAmf.s:94532  .debug_str:0000000000016b6d .LASF2245
     /tmp/ccCwMAmf.s:91382  .debug_str:000000000000a67b .LASF2246
     /tmp/ccCwMAmf.s:90510  .debug_str:0000000000006b32 .LASF2247
     /tmp/ccCwMAmf.s:97620  .debug_str:0000000000023fa8 .LASF2248
     /tmp/ccCwMAmf.s:106116  .debug_str:0000000000046897 .LASF2249
     /tmp/ccCwMAmf.s:104006  .debug_str:000000000003d9c1 .LASF2250
     /tmp/ccCwMAmf.s:102174  .debug_str:00000000000365be .LASF2251
     /tmp/ccCwMAmf.s:90772  .debug_str:0000000000007d40 .LASF2252
     /tmp/ccCwMAmf.s:101358  .debug_str:0000000000032df3 .LASF2253
     /tmp/ccCwMAmf.s:97052  .debug_str:0000000000021935 .LASF2254
     /tmp/ccCwMAmf.s:104418  .debug_str:000000000003f451 .LASF2255
     /tmp/ccCwMAmf.s:95362  .debug_str:000000000001a2b1 .LASF2256
     /tmp/ccCwMAmf.s:98218  .debug_str:00000000000262a5 .LASF2257
     /tmp/ccCwMAmf.s:93866  .debug_str:0000000000014198 .LASF2258
     /tmp/ccCwMAmf.s:107292  .debug_str:000000000004b76f .LASF2259
     /tmp/ccCwMAmf.s:93060  .debug_str:0000000000010d62 .LASF2260
     /tmp/ccCwMAmf.s:107072  .debug_str:000000000004a81e .LASF2261
     /tmp/ccCwMAmf.s:91694  .debug_str:000000000000bcad .LASF2262
     /tmp/ccCwMAmf.s:98960  .debug_str:0000000000029451 .LASF2263
     /tmp/ccCwMAmf.s:90266  .debug_str:0000000000005aec .LASF2264
     /tmp/ccCwMAmf.s:89210  .debug_str:00000000000011c5 .LASF2265
     /tmp/ccCwMAmf.s:92078  .debug_str:000000000000d61f .LASF2266
     /tmp/ccCwMAmf.s:95374  .debug_str:000000000001a377 .LASF2267
     /tmp/ccCwMAmf.s:107752  .debug_str:000000000004d715 .LASF2268
     /tmp/ccCwMAmf.s:93560  .debug_str:0000000000012dd1 .LASF2269
     /tmp/ccCwMAmf.s:103680  .debug_str:000000000003c49f .LASF2270
     /tmp/ccCwMAmf.s:107852  .debug_str:000000000004deed .LASF2271
     /tmp/ccCwMAmf.s:100030  .debug_str:000000000002d69d .LASF2272
     /tmp/ccCwMAmf.s:94722  .debug_str:0000000000017878 .LASF2273
     /tmp/ccCwMAmf.s:95984  .debug_str:000000000001cf05 .LASF2274
     /tmp/ccCwMAmf.s:100940  .debug_str:0000000000031299 .LASF2275
     /tmp/ccCwMAmf.s:105806  .debug_str:00000000000454a0 .LASF2276
     /tmp/ccCwMAmf.s:108322  .debug_str:000000000004fe52 .LASF2277
     /tmp/ccCwMAmf.s:99628  .debug_str:000000000002bea6 .LASF2278
     /tmp/ccCwMAmf.s:106318  .debug_str:000000000004765d .LASF2279
     /tmp/ccCwMAmf.s:93334  .debug_str:0000000000011e67 .LASF2280
     /tmp/ccCwMAmf.s:105592  .debug_str:00000000000446b4 .LASF2281
     /tmp/ccCwMAmf.s:106496  .debug_str:0000000000048246 .LASF2282
     /tmp/ccCwMAmf.s:106610  .debug_str:0000000000048963 .LASF2283
     /tmp/ccCwMAmf.s:100364  .debug_str:000000000002ed56 .LASF2284
     /tmp/ccCwMAmf.s:102878  .debug_str:0000000000039077 .LASF2285
     /tmp/ccCwMAmf.s:92472  .debug_str:000000000000ec1a .LASF2286
     /tmp/ccCwMAmf.s:92098  .debug_str:000000000000d719 .LASF2287
     /tmp/ccCwMAmf.s:102318  .debug_str:0000000000036f2e .LASF2288
     /tmp/ccCwMAmf.s:97394  .debug_str:0000000000022ffa .LASF2289
     /tmp/ccCwMAmf.s:92530  .debug_str:000000000000edfd .LASF2290
     /tmp/ccCwMAmf.s:102156  .debug_str:00000000000364bc .LASF2291
     /tmp/ccCwMAmf.s:102382  .debug_str:0000000000037391 .LASF2292
     /tmp/ccCwMAmf.s:108094  .debug_str:000000000004eef7 .LASF2293
     /tmp/ccCwMAmf.s:92602  .debug_str:000000000000f25f .LASF2294
     /tmp/ccCwMAmf.s:94066  .debug_str:0000000000014d72 .LASF2295
     /tmp/ccCwMAmf.s:91350  .debug_str:000000000000a394 .LASF2296
     /tmp/ccCwMAmf.s:89538  .debug_str:0000000000002975 .LASF2297
     /tmp/ccCwMAmf.s:103788  .debug_str:000000000003cb54 .LASF2298
     /tmp/ccCwMAmf.s:100268  .debug_str:000000000002e683 .LASF2299
     /tmp/ccCwMAmf.s:94704  .debug_str:000000000001772a .LASF2300
     /tmp/ccCwMAmf.s:90262  .debug_str:0000000000005ac2 .LASF2301
     /tmp/ccCwMAmf.s:105272  .debug_str:00000000000431a9 .LASF2302
     /tmp/ccCwMAmf.s:90466  .debug_str:00000000000067e9 .LASF2303
     /tmp/ccCwMAmf.s:89240  .debug_str:00000000000013ad .LASF2304
     /tmp/ccCwMAmf.s:104440  .debug_str:000000000003f572 .LASF2305
     /tmp/ccCwMAmf.s:99692  .debug_str:000000000002c2a6 .LASF2306
     /tmp/ccCwMAmf.s:101068  .debug_str:0000000000031a9e .LASF2307
     /tmp/ccCwMAmf.s:97668  .debug_str:000000000002433c .LASF2308
     /tmp/ccCwMAmf.s:100014  .debug_str:000000000002d59a .LASF2309
     /tmp/ccCwMAmf.s:105750  .debug_str:00000000000450ef .LASF2310
     /tmp/ccCwMAmf.s:94316  .debug_str:0000000000015d99 .LASF2311
     /tmp/ccCwMAmf.s:107970  .debug_str:000000000004e6da .LASF2312
     /tmp/ccCwMAmf.s:93424  .debug_str:000000000001245d .LASF2313
     /tmp/ccCwMAmf.s:94254  .debug_str:0000000000015974 .LASF2314
     /tmp/ccCwMAmf.s:106112  .debug_str:000000000004686c .LASF2315
     /tmp/ccCwMAmf.s:98260  .debug_str:000000000002651e .LASF2316
     /tmp/ccCwMAmf.s:97330  .debug_str:0000000000022bc6 .LASF2317
     /tmp/ccCwMAmf.s:89744  .debug_str:00000000000036a7 .LASF2318
     /tmp/ccCwMAmf.s:107924  .debug_str:000000000004e3f5 .LASF2319
     /tmp/ccCwMAmf.s:100230  .debug_str:000000000002e3c9 .LASF2320
     /tmp/ccCwMAmf.s:99380  .debug_str:000000000002af48 .LASF2321
     /tmp/ccCwMAmf.s:91012  .debug_str:0000000000008d00 .LASF2322
     /tmp/ccCwMAmf.s:108242  .debug_str:000000000004f906 .LASF2323
     /tmp/ccCwMAmf.s:93254  .debug_str:0000000000011940 .LASF2324
     /tmp/ccCwMAmf.s:108156  .debug_str:000000000004f2c1 .LASF2325
     /tmp/ccCwMAmf.s:101822  .debug_str:0000000000034ce5 .LASF2326
     /tmp/ccCwMAmf.s:107956  .debug_str:000000000004e619 .LASF2327
     /tmp/ccCwMAmf.s:98496  .debug_str:0000000000027418 .LASF2328
     /tmp/ccCwMAmf.s:98944  .debug_str:0000000000029353 .LASF2329
     /tmp/ccCwMAmf.s:95774  .debug_str:000000000001bf91 .LASF2330
     /tmp/ccCwMAmf.s:92612  .debug_str:000000000000f2b0 .LASF2331
     /tmp/ccCwMAmf.s:88950  .debug_str:0000000000000000 .LASF2332
     /tmp/ccCwMAmf.s:93654  .debug_str:00000000000134df .LASF2333
     /tmp/ccCwMAmf.s:99644  .debug_str:000000000002bfd5 .LASF2334
     /tmp/ccCwMAmf.s:104014  .debug_str:000000000003da3a .LASF2335
     /tmp/ccCwMAmf.s:106474  .debug_str:000000000004812e .LASF2336
     /tmp/ccCwMAmf.s:94056  .debug_str:0000000000014ce6 .LASF2337
     /tmp/ccCwMAmf.s:94876  .debug_str:000000000001825d .LASF2338
     /tmp/ccCwMAmf.s:103662  .debug_str:000000000003c30a .LASF2339
     /tmp/ccCwMAmf.s:92732  .debug_str:000000000000fac6 .LASF2340
     /tmp/ccCwMAmf.s:93110  .debug_str:0000000000010ffb .LASF2341
     /tmp/ccCwMAmf.s:98918  .debug_str:00000000000291b7 .LASF2342
     /tmp/ccCwMAmf.s:100912  .debug_str:00000000000310d2 .LASF2343
     /tmp/ccCwMAmf.s:97094  .debug_str:0000000000021cc7 .LASF2344
     /tmp/ccCwMAmf.s:93612  .debug_str:000000000001317a .LASF2345
     /tmp/ccCwMAmf.s:107678  .debug_str:000000000004d191 .LASF2346
     /tmp/ccCwMAmf.s:90228  .debug_str:000000000000583a .LASF2347
     /tmp/ccCwMAmf.s:92540  .debug_str:000000000000eeb0 .LASF2348
     /tmp/ccCwMAmf.s:100698  .debug_str:00000000000302da .LASF2349
     /tmp/ccCwMAmf.s:90226  .debug_str:0000000000005818 .LASF2350
     /tmp/ccCwMAmf.s:91496  .debug_str:000000000000ae0b .LASF2351
     /tmp/ccCwMAmf.s:100734  .debug_str:000000000003056f .LASF2352
     /tmp/ccCwMAmf.s:93014  .debug_str:0000000000010a1f .LASF2353
     /tmp/ccCwMAmf.s:106504  .debug_str:00000000000482db .LASF2354
     /tmp/ccCwMAmf.s:104704  .debug_str:000000000004062b .LASF2355
     /tmp/ccCwMAmf.s:107902  .debug_str:000000000004e235 .LASF2356
     /tmp/ccCwMAmf.s:89620  .debug_str:0000000000002f01 .LASF2357
     /tmp/ccCwMAmf.s:98902  .debug_str:000000000002905f .LASF2358
     /tmp/ccCwMAmf.s:89340  .debug_str:0000000000001b64 .LASF2359
     /tmp/ccCwMAmf.s:100020  .debug_str:000000000002d607 .LASF2360
     /tmp/ccCwMAmf.s:105854  .debug_str:000000000004584f .LASF2361
     /tmp/ccCwMAmf.s:93454  .debug_str:0000000000012650 .LASF2362
     /tmp/ccCwMAmf.s:97066  .debug_str:0000000000021a5b .LASF2363
     /tmp/ccCwMAmf.s:103836  .debug_str:000000000003ce6e .LASF2364
     /tmp/ccCwMAmf.s:97752  .debug_str:000000000002489b .LASF2365
     /tmp/ccCwMAmf.s:93948  .debug_str:00000000000146d1 .LASF2366
     /tmp/ccCwMAmf.s:95830  .debug_str:000000000001c36b .LASF2367
     /tmp/ccCwMAmf.s:106732  .debug_str:0000000000049186 .LASF2368
     /tmp/ccCwMAmf.s:90198  .debug_str:000000000000561d .LASF2369
     /tmp/ccCwMAmf.s:92706  .debug_str:000000000000f8c2 .LASF2370
     /tmp/ccCwMAmf.s:92406  .debug_str:000000000000e84f .LASF2371
     /tmp/ccCwMAmf.s:91226  .debug_str:0000000000009c33 .LASF2372
     /tmp/ccCwMAmf.s:103444  .debug_str:000000000003b36d .LASF2373
     /tmp/ccCwMAmf.s:90048  .debug_str:0000000000004c3b .LASF2374
     /tmp/ccCwMAmf.s:94734  .debug_str:000000000001795d .LASF2375
     /tmp/ccCwMAmf.s:101076  .debug_str:0000000000031b08 .LASF2376
     /tmp/ccCwMAmf.s:105354  .debug_str:0000000000043762 .LASF2377
     /tmp/ccCwMAmf.s:91882  .debug_str:000000000000c8a0 .LASF2378
     /tmp/ccCwMAmf.s:96548  .debug_str:000000000001f664 .LASF2379
     /tmp/ccCwMAmf.s:102396  .debug_str:0000000000037431 .LASF2380
     /tmp/ccCwMAmf.s:99370  .debug_str:000000000002ae84 .LASF2381
     /tmp/ccCwMAmf.s:90344  .debug_str:0000000000005faf .LASF2382
     /tmp/ccCwMAmf.s:107788  .debug_str:000000000004da64 .LASF2383
     /tmp/ccCwMAmf.s:103152  .debug_str:0000000000039e97 .LASF2384
     /tmp/ccCwMAmf.s:107102  .debug_str:000000000004aa4d .LASF2385
     /tmp/ccCwMAmf.s:91582  .debug_str:000000000000b488 .LASF2386
     /tmp/ccCwMAmf.s:103184  .debug_str:000000000003a12a .LASF2387
     /tmp/ccCwMAmf.s:100186  .debug_str:000000000002e104 .LASF2388
     /tmp/ccCwMAmf.s:101646  .debug_str:00000000000340e2 .LASF2389
     /tmp/ccCwMAmf.s:98800  .debug_str:0000000000028910 .LASF2390
     /tmp/ccCwMAmf.s:106602  .debug_str:00000000000488e9 .LASF2391
     /tmp/ccCwMAmf.s:104842  .debug_str:00000000000411b8 .LASF2392
     /tmp/ccCwMAmf.s:101510  .debug_str:0000000000033849 .LASF2393
     /tmp/ccCwMAmf.s:94984  .debug_str:00000000000188ce .LASF2394
     /tmp/ccCwMAmf.s:89942  .debug_str:0000000000004530 .LASF2395
     /tmp/ccCwMAmf.s:93936  .debug_str:0000000000014614 .LASF2396
     /tmp/ccCwMAmf.s:103284  .debug_str:000000000003a847 .LASF2397
     /tmp/ccCwMAmf.s:92370  .debug_str:000000000000e6c8 .LASF2398
     /tmp/ccCwMAmf.s:105830  .debug_str:00000000000456c5 .LASF2399
     /tmp/ccCwMAmf.s:93632  .debug_str:000000000001338e .LASF2400
     /tmp/ccCwMAmf.s:100824  .debug_str:0000000000030b76 .LASF2401
     /tmp/ccCwMAmf.s:100394  .debug_str:000000000002eeba .LASF2402
     /tmp/ccCwMAmf.s:94546  .debug_str:0000000000016c3d .LASF2403
     /tmp/ccCwMAmf.s:100608  .debug_str:000000000002fd92 .LASF2404
     /tmp/ccCwMAmf.s:107714  .debug_str:000000000004d44c .LASF2405
     /tmp/ccCwMAmf.s:97656  .debug_str:000000000002427d .LASF2406
     /tmp/ccCwMAmf.s:101578  .debug_str:0000000000033cc6 .LASF2407
     /tmp/ccCwMAmf.s:96968  .debug_str:0000000000021330 .LASF2408
     /tmp/ccCwMAmf.s:95290  .debug_str:0000000000019dbc .LASF2409
     /tmp/ccCwMAmf.s:95474  .debug_str:000000000001ab5a .LASF2410
     /tmp/ccCwMAmf.s:99318  .debug_str:000000000002aab0 .LASF2411
     /tmp/ccCwMAmf.s:101534  .debug_str:00000000000339fb .LASF2412
     /tmp/ccCwMAmf.s:91562  .debug_str:000000000000b2ca .LASF2413
     /tmp/ccCwMAmf.s:104078  .debug_str:000000000003dee1 .LASF2414
     /tmp/ccCwMAmf.s:106516  .debug_str:00000000000483ac .LASF2415
     /tmp/ccCwMAmf.s:92230  .debug_str:000000000000de23 .LASF2416
     /tmp/ccCwMAmf.s:101098  .debug_str:0000000000031c35 .LASF2417
     /tmp/ccCwMAmf.s:103038  .debug_str:0000000000039897 .LASF2418
     /tmp/ccCwMAmf.s:92126  .debug_str:000000000000d90d .LASF2419
     /tmp/ccCwMAmf.s:94164  .debug_str:00000000000153dc .LASF2420
     /tmp/ccCwMAmf.s:102930  .debug_str:00000000000392af .LASF2421
     /tmp/ccCwMAmf.s:106800  .debug_str:00000000000495c1 .LASF2422
     /tmp/ccCwMAmf.s:94600  .debug_str:0000000000016f96 .LASF2423
     /tmp/ccCwMAmf.s:91124  .debug_str:0000000000009500 .LASF2424
     /tmp/ccCwMAmf.s:98738  .debug_str:000000000002844d .LASF2425
     /tmp/ccCwMAmf.s:101216  .debug_str:00000000000324bf .LASF2426
     /tmp/ccCwMAmf.s:89002  .debug_str:00000000000003cc .LASF2427
     /tmp/ccCwMAmf.s:100974  .debug_str:0000000000031460 .LASF2428
     /tmp/ccCwMAmf.s:98924  .debug_str:0000000000029208 .LASF2429
     /tmp/ccCwMAmf.s:97510  .debug_str:00000000000238b9 .LASF2430
     /tmp/ccCwMAmf.s:89728  .debug_str:00000000000035d0 .LASF2431
     /tmp/ccCwMAmf.s:103386  .debug_str:000000000003af77 .LASF2432
     /tmp/ccCwMAmf.s:90598  .debug_str:00000000000071f0 .LASF2433
     /tmp/ccCwMAmf.s:106198  .debug_str:0000000000046eaf .LASF2434
     /tmp/ccCwMAmf.s:101328  .debug_str:0000000000032c3d .LASF2435
     /tmp/ccCwMAmf.s:97406  .debug_str:00000000000230b1 .LASF2436
     /tmp/ccCwMAmf.s:99142  .debug_str:0000000000029f9e .LASF2437
     /tmp/ccCwMAmf.s:92174  .debug_str:000000000000dbb0 .LASF2438
     /tmp/ccCwMAmf.s:90276  .debug_str:0000000000005bbf .LASF2439
     /tmp/ccCwMAmf.s:103518  .debug_str:000000000003b868 .LASF2440
     /tmp/ccCwMAmf.s:108036  .debug_str:000000000004eb0c .LASF2441
     /tmp/ccCwMAmf.s:95604  .debug_str:000000000001b39c .LASF2442
     /tmp/ccCwMAmf.s:91076  .debug_str:00000000000091ac .LASF2443
     /tmp/ccCwMAmf.s:104122  .debug_str:000000000003e229 .LASF2444
     /tmp/ccCwMAmf.s:103872  .debug_str:000000000003d09c .LASF2445
     /tmp/ccCwMAmf.s:106742  .debug_str:000000000004926d .LASF2446
     /tmp/ccCwMAmf.s:92810  .debug_str:000000000000ffd0 .LASF2447
     /tmp/ccCwMAmf.s:103556  .debug_str:000000000003bb35 .LASF2448
     /tmp/ccCwMAmf.s:103532  .debug_str:000000000003b94c .LASF2449
     /tmp/ccCwMAmf.s:103434  .debug_str:000000000003b2aa .LASF2450
     /tmp/ccCwMAmf.s:94668  .debug_str:000000000001745c .LASF2451
     /tmp/ccCwMAmf.s:105506  .debug_str:0000000000044106 .LASF2452
     /tmp/ccCwMAmf.s:105836  .debug_str:0000000000045736 .LASF2453
     /tmp/ccCwMAmf.s:96114  .debug_str:000000000001d74c .LASF2454
     /tmp/ccCwMAmf.s:99024  .debug_str:0000000000029813 .LASF2455
     /tmp/ccCwMAmf.s:97618  .debug_str:0000000000023f8c .LASF2456
     /tmp/ccCwMAmf.s:89274  .debug_str:00000000000015dd .LASF2457
     /tmp/ccCwMAmf.s:102068  .debug_str:0000000000035ecd .LASF2458
     /tmp/ccCwMAmf.s:102178  .debug_str:0000000000036625 .LASF2459
     /tmp/ccCwMAmf.s:97270  .debug_str:00000000000227db .LASF2460
     /tmp/ccCwMAmf.s:102602  .debug_str:0000000000038138 .LASF2461
     /tmp/ccCwMAmf.s:89584  .debug_str:0000000000002c80 .LASF2462
     /tmp/ccCwMAmf.s:95710  .debug_str:000000000001bada .LASF2463
     /tmp/ccCwMAmf.s:99726  .debug_str:000000000002c45a .LASF2464
     /tmp/ccCwMAmf.s:106284  .debug_str:0000000000047448 .LASF2465
     /tmp/ccCwMAmf.s:91220  .debug_str:0000000000009bce .LASF2466
     /tmp/ccCwMAmf.s:89624  .debug_str:0000000000002f46 .LASF2467
     /tmp/ccCwMAmf.s:102000  .debug_str:000000000003596e .LASF2468
     /tmp/ccCwMAmf.s:108110  .debug_str:000000000004f013 .LASF2469
     /tmp/ccCwMAmf.s:108184  .debug_str:000000000004f513 .LASF2470
     /tmp/ccCwMAmf.s:102200  .debug_str:00000000000367a8 .LASF2471
     /tmp/ccCwMAmf.s:106666  .debug_str:0000000000048d26 .LASF2472
     /tmp/ccCwMAmf.s:106334  .debug_str:000000000004774a .LASF2473
     /tmp/ccCwMAmf.s:104904  .debug_str:0000000000041604 .LASF2474
     /tmp/ccCwMAmf.s:103476  .debug_str:000000000003b611 .LASF2475
     /tmp/ccCwMAmf.s:95244  .debug_str:0000000000019a70 .LASF2476
     /tmp/ccCwMAmf.s:101130  .debug_str:0000000000031e44 .LASF2477
     /tmp/ccCwMAmf.s:105498  .debug_str:0000000000044093 .LASF2478
     /tmp/ccCwMAmf.s:88954  .debug_str:0000000000000058 .LASF2479
     /tmp/ccCwMAmf.s:98316  .debug_str:0000000000026927 .LASF2480
     /tmp/ccCwMAmf.s:107190  .debug_str:000000000004b098 .LASF2481
     /tmp/ccCwMAmf.s:98384  .debug_str:0000000000026db7 .LASF2482
     /tmp/ccCwMAmf.s:98430  .debug_str:000000000002707a .LASF2483
     /tmp/ccCwMAmf.s:95396  .debug_str:000000000001a55d .LASF2484
     /tmp/ccCwMAmf.s:89602  .debug_str:0000000000002da2 .LASF2485
     /tmp/ccCwMAmf.s:91426  .debug_str:000000000000a953 .LASF2486
     /tmp/ccCwMAmf.s:100922  .debug_str:000000000003115e .LASF2487
     /tmp/ccCwMAmf.s:108190  .debug_str:000000000004f58f .LASF2488
     /tmp/ccCwMAmf.s:106882  .debug_str:0000000000049b9b .LASF2489
     /tmp/ccCwMAmf.s:94194  .debug_str:00000000000155a6 .LASF2490
     /tmp/ccCwMAmf.s:101218  .debug_str:00000000000324da .LASF2491
     /tmp/ccCwMAmf.s:95862  .debug_str:000000000001c610 .LASF2492
     /tmp/ccCwMAmf.s:94576  .debug_str:0000000000016e1d .LASF2493
     /tmp/ccCwMAmf.s:93744  .debug_str:0000000000013a5b .LASF2494
     /tmp/ccCwMAmf.s:105816  .debug_str:00000000000455d1 .LASF2495
     /tmp/ccCwMAmf.s:107074  .debug_str:000000000004a843 .LASF2496
     /tmp/ccCwMAmf.s:93592  .debug_str:0000000000013004 .LASF2497
     /tmp/ccCwMAmf.s:96926  .debug_str:0000000000021066 .LASF2498
     /tmp/ccCwMAmf.s:104958  .debug_str:0000000000041970 .LASF2499
     /tmp/ccCwMAmf.s:99180  .debug_str:000000000002a24d .LASF2500
     /tmp/ccCwMAmf.s:108182  .debug_str:000000000004f4f2 .LASF2501
     /tmp/ccCwMAmf.s:98916  .debug_str:000000000002918e .LASF2502
     /tmp/ccCwMAmf.s:106280  .debug_str:00000000000473ff .LASF2503
     /tmp/ccCwMAmf.s:92834  .debug_str:0000000000010136 .LASF2504
     /tmp/ccCwMAmf.s:94352  .debug_str:0000000000015f51 .LASF2505
     /tmp/ccCwMAmf.s:102558  .debug_str:0000000000037f2b .LASF2506
     /tmp/ccCwMAmf.s:108272  .debug_str:000000000004faf2 .LASF2507
     /tmp/ccCwMAmf.s:89336  .debug_str:0000000000001b2c .LASF2508
     /tmp/ccCwMAmf.s:101304  .debug_str:0000000000032aca .LASF2509
     /tmp/ccCwMAmf.s:101834  .debug_str:0000000000034dae .LASF2510
     /tmp/ccCwMAmf.s:107494  .debug_str:000000000004c517 .LASF2511
     /tmp/ccCwMAmf.s:98076  .debug_str:0000000000025ac6 .LASF2512
     /tmp/ccCwMAmf.s:98754  .debug_str:0000000000028591 .LASF2513
     /tmp/ccCwMAmf.s:103180  .debug_str:000000000003a0cb .LASF2514
     /tmp/ccCwMAmf.s:105666  .debug_str:0000000000044c15 .LASF2515
     /tmp/ccCwMAmf.s:106740  .debug_str:0000000000049244 .LASF2516
     /tmp/ccCwMAmf.s:93858  .debug_str:0000000000014121 .LASF2517
     /tmp/ccCwMAmf.s:104982  .debug_str:0000000000041d75 .LASF2518
     /tmp/ccCwMAmf.s:92404  .debug_str:000000000000e81e .LASF2519
     /tmp/ccCwMAmf.s:91254  .debug_str:0000000000009e19 .LASF2520
     /tmp/ccCwMAmf.s:91938  .debug_str:000000000000cd24 .LASF2521
     /tmp/ccCwMAmf.s:107004  .debug_str:000000000004a300 .LASF2522
     /tmp/ccCwMAmf.s:96908  .debug_str:0000000000020f22 .LASF2523
     /tmp/ccCwMAmf.s:104460  .debug_str:000000000003f6fd .LASF2524
     /tmp/ccCwMAmf.s:107646  .debug_str:000000000004cfcc .LASF2525
     /tmp/ccCwMAmf.s:95464  .debug_str:000000000001aa70 .LASF2526
     /tmp/ccCwMAmf.s:98882  .debug_str:0000000000028ece .LASF2527
     /tmp/ccCwMAmf.s:102336  .debug_str:0000000000037052 .LASF2528
     /tmp/ccCwMAmf.s:107842  .debug_str:000000000004de4f .LASF2529
     /tmp/ccCwMAmf.s:97010  .debug_str:0000000000021663 .LASF2530
     /tmp/ccCwMAmf.s:102778  .debug_str:0000000000038b43 .LASF2531
     /tmp/ccCwMAmf.s:107310  .debug_str:000000000004b8d2 .LASF2532
     /tmp/ccCwMAmf.s:94082  .debug_str:0000000000014e79 .LASF2533
     /tmp/ccCwMAmf.s:98306  .debug_str:0000000000026841 .LASF2534
     /tmp/ccCwMAmf.s:104672  .debug_str:00000000000403bb .LASF2535
     /tmp/ccCwMAmf.s:89246  .debug_str:0000000000001421 .LASF2536
     /tmp/ccCwMAmf.s:103686  .debug_str:000000000003c4d7 .LASF2537
     /tmp/ccCwMAmf.s:97420  .debug_str:0000000000023197 .LASF2538
     /tmp/ccCwMAmf.s:90586  .debug_str:0000000000007112 .LASF2539
     /tmp/ccCwMAmf.s:104956  .debug_str:000000000004192f .LASF2540
     /tmp/ccCwMAmf.s:91976  .debug_str:000000000000cf36 .LASF2541
     /tmp/ccCwMAmf.s:98714  .debug_str:0000000000028286 .LASF2542
     /tmp/ccCwMAmf.s:100442  .debug_str:000000000002f278 .LASF2543
     /tmp/ccCwMAmf.s:94338  .debug_str:0000000000015e9b .LASF2544
     /tmp/ccCwMAmf.s:106736  .debug_str:00000000000491d4 .LASF2545
     /tmp/ccCwMAmf.s:107762  .debug_str:000000000004d7eb .LASF2546
     /tmp/ccCwMAmf.s:97792  .debug_str:0000000000024a6e .LASF2547
     /tmp/ccCwMAmf.s:90554  .debug_str:0000000000006e7b .LASF2548
     /tmp/ccCwMAmf.s:95754  .debug_str:000000000001bdcd .LASF2549
     /tmp/ccCwMAmf.s:95834  .debug_str:000000000001c3bd .LASF2550
     /tmp/ccCwMAmf.s:107002  .debug_str:000000000004a2c1 .LASF2551
     /tmp/ccCwMAmf.s:94998  .debug_str:0000000000018973 .LASF2552
     /tmp/ccCwMAmf.s:96806  .debug_str:00000000000208f1 .LASF2553
     /tmp/ccCwMAmf.s:89290  .debug_str:0000000000001728 .LASF2554
     /tmp/ccCwMAmf.s:98398  .debug_str:0000000000026e8e .LASF2555
     /tmp/ccCwMAmf.s:98790  .debug_str:0000000000028859 .LASF2556
     /tmp/ccCwMAmf.s:93626  .debug_str:00000000000132e7 .LASF2557
     /tmp/ccCwMAmf.s:108224  .debug_str:000000000004f7c3 .LASF2558
     /tmp/ccCwMAmf.s:95440  .debug_str:000000000001a861 .LASF2559
     /tmp/ccCwMAmf.s:98750  .debug_str:0000000000028534 .LASF2560
     /tmp/ccCwMAmf.s:99936  .debug_str:000000000002d10c .LASF2561
     /tmp/ccCwMAmf.s:97520  .debug_str:000000000002392d .LASF2562
     /tmp/ccCwMAmf.s:105096  .debug_str:00000000000425f3 .LASF2563
     /tmp/ccCwMAmf.s:102852  .debug_str:0000000000038ecc .LASF2564
     /tmp/ccCwMAmf.s:100270  .debug_str:000000000002e6a5 .LASF2565
     /tmp/ccCwMAmf.s:93028  .debug_str:0000000000010b00 .LASF2566
     /tmp/ccCwMAmf.s:97182  .debug_str:0000000000022214 .LASF2567
     /tmp/ccCwMAmf.s:95352  .debug_str:000000000001a1de .LASF2568
     /tmp/ccCwMAmf.s:98370  .debug_str:0000000000026ca7 .LASF2569
     /tmp/ccCwMAmf.s:91352  .debug_str:000000000000a3b3 .LASF2570
     /tmp/ccCwMAmf.s:104666  .debug_str:000000000004033b .LASF2571
     /tmp/ccCwMAmf.s:93610  .debug_str:0000000000013135 .LASF2572
     /tmp/ccCwMAmf.s:90570  .debug_str:0000000000006ff5 .LASF2573
     /tmp/ccCwMAmf.s:108180  .debug_str:000000000004f4b3 .LASF2574
     /tmp/ccCwMAmf.s:97962  .debug_str:000000000002547d .LASF2575
     /tmp/ccCwMAmf.s:107882  .debug_str:000000000004e0cd .LASF2576
     /tmp/ccCwMAmf.s:92436  .debug_str:000000000000e96a .LASF2577
     /tmp/ccCwMAmf.s:90028  .debug_str:0000000000004af8 .LASF2578
     /tmp/ccCwMAmf.s:91170  .debug_str:00000000000097ac .LASF2579
     /tmp/ccCwMAmf.s:103884  .debug_str:000000000003d13f .LASF2580
     /tmp/ccCwMAmf.s:93364  .debug_str:0000000000012084 .LASF2581
     /tmp/ccCwMAmf.s:91544  .debug_str:000000000000b1b2 .LASF2582
     /tmp/ccCwMAmf.s:106156  .debug_str:0000000000046b86 .LASF2583
     /tmp/ccCwMAmf.s:93164  .debug_str:00000000000113d3 .LASF2584
     /tmp/ccCwMAmf.s:90768  .debug_str:0000000000007cd1 .LASF2585
     /tmp/ccCwMAmf.s:103988  .debug_str:000000000003d824 .LASF2586
     /tmp/ccCwMAmf.s:101262  .debug_str:00000000000327e1 .LASF2587
     /tmp/ccCwMAmf.s:95188  .debug_str:000000000001968c .LASF2588
     /tmp/ccCwMAmf.s:100906  .debug_str:000000000003104f .LASF2589
     /tmp/ccCwMAmf.s:101100  .debug_str:0000000000031c57 .LASF2590
     /tmp/ccCwMAmf.s:107520  .debug_str:000000000004c6e5 .LASF2591
     /tmp/ccCwMAmf.s:108026  .debug_str:000000000004ea31 .LASF2592
     /tmp/ccCwMAmf.s:91318  .debug_str:000000000000a231 .LASF2593
     /tmp/ccCwMAmf.s:95394  .debug_str:000000000001a525 .LASF2594
     /tmp/ccCwMAmf.s:89438  .debug_str:00000000000022a9 .LASF2595
     /tmp/ccCwMAmf.s:90576  .debug_str:0000000000007065 .LASF2596
     /tmp/ccCwMAmf.s:99908  .debug_str:000000000002cf64 .LASF2597
     /tmp/ccCwMAmf.s:89534  .debug_str:0000000000002922 .LASF2598
     /tmp/ccCwMAmf.s:107980  .debug_str:000000000004e79a .LASF2599
     /tmp/ccCwMAmf.s:103332  .debug_str:000000000003ab91 .LASF2600
     /tmp/ccCwMAmf.s:89970  .debug_str:000000000000468b .LASF2601
     /tmp/ccCwMAmf.s:106086  .debug_str:00000000000466e2 .LASF2602
     /tmp/ccCwMAmf.s:89420  .debug_str:0000000000002137 .LASF2603
     /tmp/ccCwMAmf.s:106396  .debug_str:0000000000047bd7 .LASF2604
     /tmp/ccCwMAmf.s:96586  .debug_str:000000000001f904 .LASF2605
     /tmp/ccCwMAmf.s:98854  .debug_str:0000000000028cbb .LASF2606
     /tmp/ccCwMAmf.s:96692  .debug_str:00000000000200b6 .LASF2607
     /tmp/ccCwMAmf.s:103986  .debug_str:000000000003d7eb .LASF2608
     /tmp/ccCwMAmf.s:103708  .debug_str:000000000003c67c .LASF2609
     /tmp/ccCwMAmf.s:105494  .debug_str:000000000004403c .LASF2610
     /tmp/ccCwMAmf.s:91522  .debug_str:000000000000af8f .LASF2611
     /tmp/ccCwMAmf.s:98588  .debug_str:0000000000027a74 .LASF2612
     /tmp/ccCwMAmf.s:104828  .debug_str:000000000004106d .LASF2613
     /tmp/ccCwMAmf.s:89160  .debug_str:0000000000000e43 .LASF2614
     /tmp/ccCwMAmf.s:99528  .debug_str:000000000002b8a1 .LASF2615
     /tmp/ccCwMAmf.s:103696  .debug_str:000000000003c579 .LASF2616
     /tmp/ccCwMAmf.s:101350  .debug_str:0000000000032d6e .LASF2617
     /tmp/ccCwMAmf.s:98894  .debug_str:0000000000028fc4 .LASF2618
     /tmp/ccCwMAmf.s:99212  .debug_str:000000000002a497 .LASF2619
     /tmp/ccCwMAmf.s:101664  .debug_str:00000000000341e6 .LASF2620
     /tmp/ccCwMAmf.s:104870  .debug_str:00000000000413bc .LASF2621
     /tmp/ccCwMAmf.s:96824  .debug_str:0000000000020a65 .LASF2622
     /tmp/ccCwMAmf.s:101286  .debug_str:000000000003297c .LASF2623
     /tmp/ccCwMAmf.s:91762  .debug_str:000000000000c11c .LASF2624
     /tmp/ccCwMAmf.s:90118  .debug_str:00000000000050d1 .LASF2625
     /tmp/ccCwMAmf.s:96722  .debug_str:00000000000202d0 .LASF2626
     /tmp/ccCwMAmf.s:100804  .debug_str:0000000000030a49 .LASF2627
     /tmp/ccCwMAmf.s:93136  .debug_str:00000000000111e3 .LASF2628
     /tmp/ccCwMAmf.s:100630  .debug_str:000000000002fed9 .LASF2629
     /tmp/ccCwMAmf.s:94726  .debug_str:00000000000178dc .LASF2630
     /tmp/ccCwMAmf.s:102530  .debug_str:0000000000037c79 .LASF2631
     /tmp/ccCwMAmf.s:107934  .debug_str:000000000004e4ba .LASF2632
     /tmp/ccCwMAmf.s:96354  .debug_str:000000000001e8a6 .LASF2633
     /tmp/ccCwMAmf.s:100560  .debug_str:000000000002fa4e .LASF2634
     /tmp/ccCwMAmf.s:103268  .debug_str:000000000003a6f4 .LASF2635
     /tmp/ccCwMAmf.s:99264  .debug_str:000000000002a76b .LASF2636
     /tmp/ccCwMAmf.s:90536  .debug_str:0000000000006cc8 .LASF2637
     /tmp/ccCwMAmf.s:91570  .debug_str:000000000000b38e .LASF2638
     /tmp/ccCwMAmf.s:97932  .debug_str:0000000000025333 .LASF2639
     /tmp/ccCwMAmf.s:104936  .debug_str:0000000000041813 .LASF2640
     /tmp/ccCwMAmf.s:102696  .debug_str:0000000000038686 .LASF2641
     /tmp/ccCwMAmf.s:103802  .debug_str:000000000003cc65 .LASF2642
     /tmp/ccCwMAmf.s:107786  .debug_str:000000000004da1c .LASF2643
     /tmp/ccCwMAmf.s:105306  .debug_str:00000000000433b8 .LASF2644
     /tmp/ccCwMAmf.s:97554  .debug_str:0000000000023b63 .LASF2645
     /tmp/ccCwMAmf.s:96402  .debug_str:000000000001ebe8 .LASF2646
     /tmp/ccCwMAmf.s:105326  .debug_str:0000000000043529 .LASF2647
     /tmp/ccCwMAmf.s:98098  .debug_str:0000000000025c0c .LASF2648
     /tmp/ccCwMAmf.s:91402  .debug_str:000000000000a7c4 .LASF2649
     /tmp/ccCwMAmf.s:97702  .debug_str:0000000000024585 .LASF2650
     /tmp/ccCwMAmf.s:102856  .debug_str:0000000000038f26 .LASF2651
     /tmp/ccCwMAmf.s:101026  .debug_str:000000000003182f .LASF2652
     /tmp/ccCwMAmf.s:93978  .debug_str:00000000000148c7 .LASF2653
     /tmp/ccCwMAmf.s:89990  .debug_str:0000000000004821 .LASF2654
     /tmp/ccCwMAmf.s:97098  .debug_str:0000000000021d35 .LASF2655
     /tmp/ccCwMAmf.s:99946  .debug_str:000000000002d187 .LASF2656
     /tmp/ccCwMAmf.s:95982  .debug_str:000000000001cecd .LASF2657
     /tmp/ccCwMAmf.s:90752  .debug_str:0000000000007b76 .LASF2658
     /tmp/ccCwMAmf.s:96264  .debug_str:000000000001e252 .LASF2659
     /tmp/ccCwMAmf.s:95782  .debug_str:000000000001c024 .LASF2660
     /tmp/ccCwMAmf.s:88996  .debug_str:0000000000000339 .LASF2661
     /tmp/ccCwMAmf.s:93702  .debug_str:0000000000013795 .LASF2662
     /tmp/ccCwMAmf.s:102634  .debug_str:000000000003836a .LASF2663
     /tmp/ccCwMAmf.s:99676  .debug_str:000000000002c194 .LASF2664
     /tmp/ccCwMAmf.s:93022  .debug_str:0000000000010aaf .LASF2665
     /tmp/ccCwMAmf.s:95252  .debug_str:0000000000019b2b .LASF2666
     /tmp/ccCwMAmf.s:99356  .debug_str:000000000002ad10 .LASF2667
     /tmp/ccCwMAmf.s:104990  .debug_str:0000000000041e1c .LASF2668
     /tmp/ccCwMAmf.s:90808  .debug_str:0000000000007f40 .LASF2669
     /tmp/ccCwMAmf.s:100040  .debug_str:000000000002d716 .LASF2670
     /tmp/ccCwMAmf.s:104716  .debug_str:00000000000406f9 .LASF2671
     /tmp/ccCwMAmf.s:106220  .debug_str:0000000000046f83 .LASF2672
     /tmp/ccCwMAmf.s:93536  .debug_str:0000000000012bee .LASF2673
     /tmp/ccCwMAmf.s:90178  .debug_str:0000000000005480 .LASF2674
     /tmp/ccCwMAmf.s:94436  .debug_str:00000000000164e5 .LASF2675
     /tmp/ccCwMAmf.s:99640  .debug_str:000000000002bf71 .LASF2676
     /tmp/ccCwMAmf.s:89458  .debug_str:0000000000002413 .LASF2677
     /tmp/ccCwMAmf.s:97022  .debug_str:000000000002171f .LASF2678
     /tmp/ccCwMAmf.s:104110  .debug_str:000000000003e13b .LASF2679
     /tmp/ccCwMAmf.s:89866  .debug_str:0000000000003f18 .LASF2680
     /tmp/ccCwMAmf.s:107722  .debug_str:000000000004d4c8 .LASF2681
     /tmp/ccCwMAmf.s:92198  .debug_str:000000000000dc70 .LASF2682
     /tmp/ccCwMAmf.s:103604  .debug_str:000000000003be82 .LASF2683
     /tmp/ccCwMAmf.s:104022  .debug_str:000000000003dac4 .LASF2684
     /tmp/ccCwMAmf.s:98184  .debug_str:000000000002609d .LASF2685
     /tmp/ccCwMAmf.s:94966  .debug_str:000000000001883d .LASF2686
     /tmp/ccCwMAmf.s:93230  .debug_str:000000000001175c .LASF2687
     /tmp/ccCwMAmf.s:89276  .debug_str:0000000000001601 .LASF2688
     /tmp/ccCwMAmf.s:100318  .debug_str:000000000002ea0b .LASF2689
     /tmp/ccCwMAmf.s:104216  .debug_str:000000000003e875 .LASF2690
     /tmp/ccCwMAmf.s:98572  .debug_str:0000000000027942 .LASF2691
     /tmp/ccCwMAmf.s:94270  .debug_str:0000000000015a84 .LASF2692
     /tmp/ccCwMAmf.s:94636  .debug_str:00000000000171ce .LASF2693
     /tmp/ccCwMAmf.s:96102  .debug_str:000000000001d668 .LASF2694
     /tmp/ccCwMAmf.s:94406  .debug_str:0000000000016297 .LASF2695
     /tmp/ccCwMAmf.s:108100  .debug_str:000000000004ef59 .LASF2696
     /tmp/ccCwMAmf.s:89544  .debug_str:00000000000029f7 .LASF2697
     /tmp/ccCwMAmf.s:103018  .debug_str:0000000000039719 .LASF2698
     /tmp/ccCwMAmf.s:100090  .debug_str:000000000002da85 .LASF2699
     /tmp/ccCwMAmf.s:89548  .debug_str:0000000000002a70 .LASF2700
     /tmp/ccCwMAmf.s:89196  .debug_str:00000000000010eb .LASF2701
     /tmp/ccCwMAmf.s:101454  .debug_str:000000000003343d .LASF2702
     /tmp/ccCwMAmf.s:100732  .debug_str:000000000003052f .LASF2703
     /tmp/ccCwMAmf.s:93268  .debug_str:0000000000011a1b .LASF2704
     /tmp/ccCwMAmf.s:104450  .debug_str:000000000003f641 .LASF2705
     /tmp/ccCwMAmf.s:105234  .debug_str:0000000000042eeb .LASF2706
     /tmp/ccCwMAmf.s:101142  .debug_str:0000000000031eed .LASF2707
     /tmp/ccCwMAmf.s:94712  .debug_str:00000000000177aa .LASF2708
     /tmp/ccCwMAmf.s:90784  .debug_str:0000000000007de6 .LASF2709
     /tmp/ccCwMAmf.s:107312  .debug_str:000000000004b912 .LASF2710
     /tmp/ccCwMAmf.s:103424  .debug_str:000000000003b1ce .LASF2711
     /tmp/ccCwMAmf.s:108074  .debug_str:000000000004edcc .LASF2712
     /tmp/ccCwMAmf.s:89672  .debug_str:0000000000003262 .LASF2713
     /tmp/ccCwMAmf.s:99366  .debug_str:000000000002ae17 .LASF2714
     /tmp/ccCwMAmf.s:89280  .debug_str:0000000000001656 .LASF2715
     /tmp/ccCwMAmf.s:89938  .debug_str:00000000000044d8 .LASF2716
     /tmp/ccCwMAmf.s:90942  .debug_str:000000000000883f .LASF2717
     /tmp/ccCwMAmf.s:101186  .debug_str:000000000003220b .LASF2718
     /tmp/ccCwMAmf.s:101460  .debug_str:00000000000334c1 .LASF2719
     /tmp/ccCwMAmf.s:100152  .debug_str:000000000002dec2 .LASF2720
     /tmp/ccCwMAmf.s:95012  .debug_str:0000000000018a69 .LASF2721
     /tmp/ccCwMAmf.s:89644  .debug_str:00000000000030f8 .LASF2722
     /tmp/ccCwMAmf.s:93950  .debug_str:00000000000146f8 .LASF2723
     /tmp/ccCwMAmf.s:92870  .debug_str:0000000000010263 .LASF2724
     /tmp/ccCwMAmf.s:107020  .debug_str:000000000004a3eb .LASF2725
     /tmp/ccCwMAmf.s:107128  .debug_str:000000000004abb5 .LASF2726
     /tmp/ccCwMAmf.s:93796  .debug_str:0000000000013d6c .LASF2727
     /tmp/ccCwMAmf.s:105350  .debug_str:00000000000436e5 .LASF2728
     /tmp/ccCwMAmf.s:93904  .debug_str:000000000001440f .LASF2729
     /tmp/ccCwMAmf.s:97068  .debug_str:0000000000021a7b .LASF2730
     /tmp/ccCwMAmf.s:90890  .debug_str:00000000000084ca .LASF2731
     /tmp/ccCwMAmf.s:103458  .debug_str:000000000003b4e1 .LASF2732
     /tmp/ccCwMAmf.s:107092  .debug_str:000000000004a98e .LASF2733
     /tmp/ccCwMAmf.s:95220  .debug_str:00000000000198d7 .LASF2734
     /tmp/ccCwMAmf.s:89540  .debug_str:0000000000002997 .LASF2735
     /tmp/ccCwMAmf.s:91618  .debug_str:000000000000b69d .LASF2736
     /tmp/ccCwMAmf.s:98176  .debug_str:0000000000026011 .LASF2737
     /tmp/ccCwMAmf.s:108126  .debug_str:000000000004f0ea .LASF2738
     /tmp/ccCwMAmf.s:91974  .debug_str:000000000000cef2 .LASF2739
     /tmp/ccCwMAmf.s:105828  .debug_str:0000000000045689 .LASF2740
     /tmp/ccCwMAmf.s:91704  .debug_str:000000000000bd72 .LASF2741
     /tmp/ccCwMAmf.s:108052  .debug_str:000000000004ec4c .LASF2742
     /tmp/ccCwMAmf.s:100120  .debug_str:000000000002dc82 .LASF2743
     /tmp/ccCwMAmf.s:89678  .debug_str:00000000000032e2 .LASF2744
     /tmp/ccCwMAmf.s:88978  .debug_str:0000000000000205 .LASF2745
     /tmp/ccCwMAmf.s:104320  .debug_str:000000000003ee0f .LASF2746
     /tmp/ccCwMAmf.s:98484  .debug_str:00000000000272f4 .LASF2747
     /tmp/ccCwMAmf.s:99456  .debug_str:000000000002b3d3 .LASF2748
     /tmp/ccCwMAmf.s:107928  .debug_str:000000000004e443 .LASF2749
     /tmp/ccCwMAmf.s:105642  .debug_str:00000000000449fc .LASF2750
     /tmp/ccCwMAmf.s:107896  .debug_str:000000000004e1c5 .LASF2751
     /tmp/ccCwMAmf.s:98668  .debug_str:0000000000027fd0 .LASF2752
     /tmp/ccCwMAmf.s:106492  .debug_str:00000000000481fd .LASF2753
     /tmp/ccCwMAmf.s:99854  .debug_str:000000000002cc4a .LASF2754
     /tmp/ccCwMAmf.s:106690  .debug_str:0000000000048ef7 .LASF2755
     /tmp/ccCwMAmf.s:91122  .debug_str:00000000000094c9 .LASF2756
     /tmp/ccCwMAmf.s:93034  .debug_str:0000000000010b55 .LASF2757
     /tmp/ccCwMAmf.s:106082  .debug_str:0000000000046697 .LASF2758
     /tmp/ccCwMAmf.s:94696  .debug_str:000000000001768b .LASF2759
     /tmp/ccCwMAmf.s:108292  .debug_str:000000000004fc7f .LASF2760
     /tmp/ccCwMAmf.s:100658  .debug_str:0000000000030078 .LASF2761
     /tmp/ccCwMAmf.s:91566  .debug_str:000000000000b321 .LASF2762
     /tmp/ccCwMAmf.s:91992  .debug_str:000000000000d05f .LASF2763
     /tmp/ccCwMAmf.s:105312  .debug_str:000000000004341c .LASF2764
     /tmp/ccCwMAmf.s:95350  .debug_str:000000000001a196 .LASF2765
     /tmp/ccCwMAmf.s:103660  .debug_str:000000000003c2e3 .LASF2766
     /tmp/ccCwMAmf.s:101636  .debug_str:0000000000034041 .LASF2767
     /tmp/ccCwMAmf.s:93932  .debug_str:0000000000014589 .LASF2768
     /tmp/ccCwMAmf.s:92710  .debug_str:000000000000f908 .LASF2769
     /tmp/ccCwMAmf.s:98728  .debug_str:0000000000028387 .LASF2770
     /tmp/ccCwMAmf.s:103586  .debug_str:000000000003bd2c .LASF2771
     /tmp/ccCwMAmf.s:89638  .debug_str:000000000000305b .LASF2772
     /tmp/ccCwMAmf.s:100068  .debug_str:000000000002d956 .LASF2773
     /tmp/ccCwMAmf.s:98864  .debug_str:0000000000028d8c .LASF2774
     /tmp/ccCwMAmf.s:91600  .debug_str:000000000000b5a1 .LASF2775
     /tmp/ccCwMAmf.s:90970  .debug_str:0000000000008a6c .LASF2776
     /tmp/ccCwMAmf.s:95858  .debug_str:000000000001c5c6 .LASF2777
     /tmp/ccCwMAmf.s:100746  .debug_str:000000000003067b .LASF2778
     /tmp/ccCwMAmf.s:106424  .debug_str:0000000000047de4 .LASF2779
     /tmp/ccCwMAmf.s:104826  .debug_str:000000000004102d .LASF2780
     /tmp/ccCwMAmf.s:106038  .debug_str:00000000000463f5 .LASF2781
     /tmp/ccCwMAmf.s:93630  .debug_str:000000000001334e .LASF2782
     /tmp/ccCwMAmf.s:95042  .debug_str:0000000000018bf2 .LASF2783
     /tmp/ccCwMAmf.s:103918  .debug_str:000000000003d367 .LASF2784
     /tmp/ccCwMAmf.s:93656  .debug_str:0000000000013508 .LASF2785
     /tmp/ccCwMAmf.s:102176  .debug_str:00000000000365e1 .LASF2786
     /tmp/ccCwMAmf.s:104988  .debug_str:0000000000041de6 .LASF2787
     /tmp/ccCwMAmf.s:102152  .debug_str:0000000000036472 .LASF2788
     /tmp/ccCwMAmf.s:108148  .debug_str:000000000004f25b .LASF2789
     /tmp/ccCwMAmf.s:102248  .debug_str:0000000000036ae3 .LASF2790
     /tmp/ccCwMAmf.s:97488  .debug_str:000000000002371e .LASF2791
     /tmp/ccCwMAmf.s:95120  .debug_str:000000000001915a .LASF2792
     /tmp/ccCwMAmf.s:101790  .debug_str:0000000000034b39 .LASF2793
     /tmp/ccCwMAmf.s:105538  .debug_str:0000000000044306 .LASF2794
     /tmp/ccCwMAmf.s:91988  .debug_str:000000000000d006 .LASF2795
     /tmp/ccCwMAmf.s:96632  .debug_str:000000000001fbbb .LASF2796
     /tmp/ccCwMAmf.s:101958  .debug_str:0000000000035728 .LASF2797
     /tmp/ccCwMAmf.s:91186  .debug_str:00000000000098b0 .LASF2798
     /tmp/ccCwMAmf.s:99612  .debug_str:000000000002bd6c .LASF2799
     /tmp/ccCwMAmf.s:100814  .debug_str:0000000000030ac0 .LASF2800
     /tmp/ccCwMAmf.s:95218  .debug_str:000000000001989b .LASF2801
     /tmp/ccCwMAmf.s:90762  .debug_str:0000000000007c77 .LASF2802
     /tmp/ccCwMAmf.s:99018  .debug_str:0000000000029784 .LASF2803
     /tmp/ccCwMAmf.s:102684  .debug_str:00000000000385dc .LASF2804
     /tmp/ccCwMAmf.s:99114  .debug_str:0000000000029dab .LASF2805
     /tmp/ccCwMAmf.s:98244  .debug_str:00000000000263fa .LASF2806
     /tmp/ccCwMAmf.s:104244  .debug_str:000000000003ea49 .LASF2807
     /tmp/ccCwMAmf.s:102192  .debug_str:00000000000366d8 .LASF2808
     /tmp/ccCwMAmf.s:102010  .debug_str:0000000000035a76 .LASF2809
     /tmp/ccCwMAmf.s:92102  .debug_str:000000000000d75b .LASF2810
     /tmp/ccCwMAmf.s:92290  .debug_str:000000000000e1c0 .LASF2811
     /tmp/ccCwMAmf.s:104144  .debug_str:000000000003e388 .LASF2812
     /tmp/ccCwMAmf.s:96196  .debug_str:000000000001dd92 .LASF2813
     /tmp/ccCwMAmf.s:96918  .debug_str:0000000000020fc1 .LASF2814
     /tmp/ccCwMAmf.s:98494  .debug_str:00000000000273db .LASF2815
     /tmp/ccCwMAmf.s:107296  .debug_str:000000000004b7d7 .LASF2816
     /tmp/ccCwMAmf.s:101726  .debug_str:000000000003459a .LASF2817
     /tmp/ccCwMAmf.s:107246  .debug_str:000000000004b4ad .LASF2818
     /tmp/ccCwMAmf.s:96840  .debug_str:0000000000020b57 .LASF2819
     /tmp/ccCwMAmf.s:92798  .debug_str:000000000000ff16 .LASF2820
     /tmp/ccCwMAmf.s:93542  .debug_str:0000000000012c54 .LASF2821
     /tmp/ccCwMAmf.s:89546  .debug_str:0000000000002a2e .LASF2822
     /tmp/ccCwMAmf.s:96396  .debug_str:000000000001eb59 .LASF2823
     /tmp/ccCwMAmf.s:103998  .debug_str:000000000003d92a .LASF2824
     /tmp/ccCwMAmf.s:96472  .debug_str:000000000001eff6 .LASF2825
     /tmp/ccCwMAmf.s:94920  .debug_str:0000000000018541 .LASF2826
     /tmp/ccCwMAmf.s:104492  .debug_str:000000000003f906 .LASF2827
     /tmp/ccCwMAmf.s:108170  .debug_str:000000000004f3fc .LASF2828
     /tmp/ccCwMAmf.s:97344  .debug_str:0000000000022cd9 .LASF2829
     /tmp/ccCwMAmf.s:99458  .debug_str:000000000002b40c .LASF2830
     /tmp/ccCwMAmf.s:96012  .debug_str:000000000001d063 .LASF2831
     /tmp/ccCwMAmf.s:90562  .debug_str:0000000000006f40 .LASF2832
     /tmp/ccCwMAmf.s:101770  .debug_str:0000000000034970 .LASF2833
     /tmp/ccCwMAmf.s:107758  .debug_str:000000000004d7a1 .LASF2834
     /tmp/ccCwMAmf.s:100928  .debug_str:00000000000311c1 .LASF2835
     /tmp/ccCwMAmf.s:99008  .debug_str:00000000000296c6 .LASF2836
     /tmp/ccCwMAmf.s:92752  .debug_str:000000000000fc8a .LASF2837
     /tmp/ccCwMAmf.s:95920  .debug_str:000000000001ca93 .LASF2838
     /tmp/ccCwMAmf.s:102242  .debug_str:0000000000036a6c .LASF2839
     /tmp/ccCwMAmf.s:107514  .debug_str:000000000004c68b .LASF2840
     /tmp/ccCwMAmf.s:93128  .debug_str:0000000000011139 .LASF2841
     /tmp/ccCwMAmf.s:100758  .debug_str:0000000000030776 .LASF2842
     /tmp/ccCwMAmf.s:101392  .debug_str:0000000000033002 .LASF2843
     /tmp/ccCwMAmf.s:97860  .debug_str:0000000000024ee5 .LASF2844
     /tmp/ccCwMAmf.s:89628  .debug_str:0000000000002f84 .LASF2845
     /tmp/ccCwMAmf.s:104780  .debug_str:0000000000040ccb .LASF2846
     /tmp/ccCwMAmf.s:107778  .debug_str:000000000004d94a .LASF2847
     /tmp/ccCwMAmf.s:89270  .debug_str:0000000000001592 .LASF2848
     /tmp/ccCwMAmf.s:98740  .debug_str:0000000000028470 .LASF2849
     /tmp/ccCwMAmf.s:95524  .debug_str:000000000001ae87 .LASF2850
     /tmp/ccCwMAmf.s:94112  .debug_str:0000000000015032 .LASF2851
     /tmp/ccCwMAmf.s:100064  .debug_str:000000000002d8d5 .LASF2852
     /tmp/ccCwMAmf.s:103232  .debug_str:000000000003a452 .LASF2853
     /tmp/ccCwMAmf.s:102378  .debug_str:0000000000037335 .LASF2854
     /tmp/ccCwMAmf.s:97160  .debug_str:000000000002203d .LASF2855
     /tmp/ccCwMAmf.s:91626  .debug_str:000000000000b787 .LASF2856
     /tmp/ccCwMAmf.s:90756  .debug_str:0000000000007bf7 .LASF2857
     /tmp/ccCwMAmf.s:96682  .debug_str:0000000000020012 .LASF2858
     /tmp/ccCwMAmf.s:98592  .debug_str:0000000000027acb .LASF2859
     /tmp/ccCwMAmf.s:91794  .debug_str:000000000000c2fe .LASF2860
     /tmp/ccCwMAmf.s:99010  .debug_str:0000000000029701 .LASF2861
     /tmp/ccCwMAmf.s:106520  .debug_str:00000000000483fa .LASF2862
     /tmp/ccCwMAmf.s:93550  .debug_str:0000000000012cef .LASF2863
     /tmp/ccCwMAmf.s:97556  .debug_str:0000000000023b9e .LASF2864
     /tmp/ccCwMAmf.s:104602  .debug_str:000000000003ff7d .LASF2865
     /tmp/ccCwMAmf.s:92580  .debug_str:000000000000f170 .LASF2866
     /tmp/ccCwMAmf.s:100018  .debug_str:000000000002d5c3 .LASF2867
     /tmp/ccCwMAmf.s:107228  .debug_str:000000000004b360 .LASF2868
     /tmp/ccCwMAmf.s:90690  .debug_str:00000000000077fa .LASF2869
     /tmp/ccCwMAmf.s:106122  .debug_str:00000000000468f2 .LASF2870
     /tmp/ccCwMAmf.s:107712  .debug_str:000000000004d408 .LASF2871
     /tmp/ccCwMAmf.s:89144  .debug_str:0000000000000d28 .LASF2872
     /tmp/ccCwMAmf.s:100298  .debug_str:000000000002e884 .LASF2873
     /tmp/ccCwMAmf.s:89762  .debug_str:000000000000381f .LASF2874
     /tmp/ccCwMAmf.s:92650  .debug_str:000000000000f5e3 .LASF2875
     /tmp/ccCwMAmf.s:94754  .debug_str:0000000000017aa8 .LASF2876
     /tmp/ccCwMAmf.s:104714  .debug_str:00000000000406b1 .LASF2877
     /tmp/ccCwMAmf.s:96456  .debug_str:000000000001ef00 .LASF2878
     /tmp/ccCwMAmf.s:91146  .debug_str:000000000000962a .LASF2879
     /tmp/ccCwMAmf.s:91814  .debug_str:000000000000c41e .LASF2880
     /tmp/ccCwMAmf.s:98100  .debug_str:0000000000025c4f .LASF2881
     /tmp/ccCwMAmf.s:91708  .debug_str:000000000000bdcb .LASF2882
     /tmp/ccCwMAmf.s:107584  .debug_str:000000000004cbaa .LASF2883
     /tmp/ccCwMAmf.s:104392  .debug_str:000000000003f2a8 .LASF2884
     /tmp/ccCwMAmf.s:106840  .debug_str:0000000000049886 .LASF2885
     /tmp/ccCwMAmf.s:102352  .debug_str:00000000000371b5 .LASF2886
     /tmp/ccCwMAmf.s:89032  .debug_str:00000000000005eb .LASF2887
     /tmp/ccCwMAmf.s:94728  .debug_str:0000000000017916 .LASF2888
     /tmp/ccCwMAmf.s:100360  .debug_str:000000000002ed03 .LASF2889
     /tmp/ccCwMAmf.s:106252  .debug_str:00000000000471b2 .LASF2890
     /tmp/ccCwMAmf.s:103634  .debug_str:000000000003c0b7 .LASF2891
     /tmp/ccCwMAmf.s:104766  .debug_str:0000000000040bc7 .LASF2892
     /tmp/ccCwMAmf.s:94964  .debug_str:00000000000187ff .LASF2893
     /tmp/ccCwMAmf.s:91624  .debug_str:000000000000b741 .LASF2894
     /tmp/ccCwMAmf.s:92744  .debug_str:000000000000fc0e .LASF2895
     /tmp/ccCwMAmf.s:94890  .debug_str:000000000001833d .LASF2896
     /tmp/ccCwMAmf.s:103952  .debug_str:000000000003d5ae .LASF2897
     /tmp/ccCwMAmf.s:89380  .debug_str:0000000000001eb5 .LASF2898
     /tmp/ccCwMAmf.s:95674  .debug_str:000000000001b80e .LASF2899
     /tmp/ccCwMAmf.s:99844  .debug_str:000000000002cba5 .LASF2900
     /tmp/ccCwMAmf.s:94624  .debug_str:0000000000017147 .LASF2901
     /tmp/ccCwMAmf.s:90672  .debug_str:0000000000007637 .LASF2902
     /tmp/ccCwMAmf.s:93570  .debug_str:0000000000012e97 .LASF2903
     /tmp/ccCwMAmf.s:98926  .debug_str:000000000002922b .LASF2904
     /tmp/ccCwMAmf.s:98352  .debug_str:0000000000026b30 .LASF2905
     /tmp/ccCwMAmf.s:106094  .debug_str:0000000000046796 .LASF2906
     /tmp/ccCwMAmf.s:96422  .debug_str:000000000001ec8e .LASF2907
     /tmp/ccCwMAmf.s:92874  .debug_str:00000000000102c0 .LASF2908
     /tmp/ccCwMAmf.s:101644  .debug_str:00000000000340a9 .LASF2909
     /tmp/ccCwMAmf.s:105132  .debug_str:00000000000428af .LASF2910
     /tmp/ccCwMAmf.s:103552  .debug_str:000000000003babd .LASF2911
     /tmp/ccCwMAmf.s:90620  .debug_str:000000000000737d .LASF2912
     /tmp/ccCwMAmf.s:105548  .debug_str:00000000000443ae .LASF2913
     /tmp/ccCwMAmf.s:100418  .debug_str:000000000002f097 .LASF2914
     /tmp/ccCwMAmf.s:100166  .debug_str:000000000002dfa7 .LASF2915
     /tmp/ccCwMAmf.s:102004  .debug_str:00000000000359d2 .LASF2916
     /tmp/ccCwMAmf.s:91104  .debug_str:0000000000009369 .LASF2917
     /tmp/ccCwMAmf.s:107324  .debug_str:000000000004b9c8 .LASF2918
     /tmp/ccCwMAmf.s:97296  .debug_str:000000000002297d .LASF2919
     /tmp/ccCwMAmf.s:94896  .debug_str:00000000000183c2 .LASF2920
     /tmp/ccCwMAmf.s:105994  .debug_str:0000000000046169 .LASF2921
     /tmp/ccCwMAmf.s:97336  .debug_str:0000000000022c35 .LASF2922
     /tmp/ccCwMAmf.s:91854  .debug_str:000000000000c6d6 .LASF2923
     /tmp/ccCwMAmf.s:89614  .debug_str:0000000000002e7d .LASF2924
     /tmp/ccCwMAmf.s:91456  .debug_str:000000000000ab3c .LASF2925
     /tmp/ccCwMAmf.s:93242  .debug_str:000000000001185c .LASF2926
     /tmp/ccCwMAmf.s:98376  .debug_str:0000000000026d14 .LASF2927
     /tmp/ccCwMAmf.s:101722  .debug_str:0000000000034520 .LASF2928
     /tmp/ccCwMAmf.s:93446  .debug_str:00000000000125e5 .LASF2929
     /tmp/ccCwMAmf.s:101302  .debug_str:0000000000032a86 .LASF2930
     /tmp/ccCwMAmf.s:98576  .debug_str:0000000000027988 .LASF2931
     /tmp/ccCwMAmf.s:97422  .debug_str:00000000000231d7 .LASF2932
     /tmp/ccCwMAmf.s:94736  .debug_str:000000000001797e .LASF2933
     /tmp/ccCwMAmf.s:97262  .debug_str:0000000000022724 .LASF2934
     /tmp/ccCwMAmf.s:99968  .debug_str:000000000002d2c8 .LASF2935
     /tmp/ccCwMAmf.s:91734  .debug_str:000000000000bf59 .LASF2936
     /tmp/ccCwMAmf.s:95738  .debug_str:000000000001bcc1 .LASF2937
     /tmp/ccCwMAmf.s:93812  .debug_str:0000000000013e45 .LASF2938
     /tmp/ccCwMAmf.s:94908  .debug_str:0000000000018499 .LASF2939
     /tmp/ccCwMAmf.s:95828  .debug_str:000000000001c329 .LASF2940
     /tmp/ccCwMAmf.s:90316  .debug_str:0000000000005de8 .LASF2941
     /tmp/ccCwMAmf.s:100680  .debug_str:00000000000301e9 .LASF2942
     /tmp/ccCwMAmf.s:93724  .debug_str:0000000000013922 .LASF2943
     /tmp/ccCwMAmf.s:106554  .debug_str:000000000004861e .LASF2944
     /tmp/ccCwMAmf.s:102584  .debug_str:0000000000037fb5 .LASF2945
     /tmp/ccCwMAmf.s:93324  .debug_str:0000000000011dd8 .LASF2946
     /tmp/ccCwMAmf.s:94830  .debug_str:0000000000017f63 .LASF2947
     /tmp/ccCwMAmf.s:89316  .debug_str:00000000000019db .LASF2948
     /tmp/ccCwMAmf.s:91150  .debug_str:000000000000968e .LASF2949
     /tmp/ccCwMAmf.s:96366  .debug_str:000000000001e9bb .LASF2950
     /tmp/ccCwMAmf.s:104140  .debug_str:000000000003e340 .LASF2951
     /tmp/ccCwMAmf.s:96792  .debug_str:0000000000020880 .LASF2952
     /tmp/ccCwMAmf.s:97334  .debug_str:0000000000022c04 .LASF2953
     /tmp/ccCwMAmf.s:103980  .debug_str:000000000003d79d .LASF2954
     /tmp/ccCwMAmf.s:101112  .debug_str:0000000000031d0b .LASF2955
     /tmp/ccCwMAmf.s:106006  .debug_str:0000000000046269 .LASF2956
     /tmp/ccCwMAmf.s:106664  .debug_str:0000000000048ceb .LASF2957
     /tmp/ccCwMAmf.s:90200  .debug_str:000000000000563d .LASF2958
     /tmp/ccCwMAmf.s:98414  .debug_str:0000000000026f5b .LASF2959
     /tmp/ccCwMAmf.s:103454  .debug_str:000000000003b488 .LASF2960
     /tmp/ccCwMAmf.s:91888  .debug_str:000000000000c945 .LASF2961
     /tmp/ccCwMAmf.s:91472  .debug_str:000000000000abfd .LASF2962
     /tmp/ccCwMAmf.s:103562  .debug_str:000000000003bb6d .LASF2963
     /tmp/ccCwMAmf.s:104076  .debug_str:000000000003dea1 .LASF2964
     /tmp/ccCwMAmf.s:89910  .debug_str:0000000000004284 .LASF2965
     /tmp/ccCwMAmf.s:102772  .debug_str:0000000000038aed .LASF2966
     /tmp/ccCwMAmf.s:96710  .debug_str:00000000000201d9 .LASF2967
     /tmp/ccCwMAmf.s:93660  .debug_str:0000000000013555 .LASF2968
     /tmp/ccCwMAmf.s:96704  .debug_str:0000000000020178 .LASF2969
     /tmp/ccCwMAmf.s:104026  .debug_str:000000000003db38 .LASF2970
     /tmp/ccCwMAmf.s:95656  .debug_str:000000000001b6db .LASF2971
     /tmp/ccCwMAmf.s:97700  .debug_str:0000000000024545 .LASF2972
     /tmp/ccCwMAmf.s:100124  .debug_str:000000000002dcd1 .LASF2973
     /tmp/ccCwMAmf.s:104080  .debug_str:000000000003df0b .LASF2974
     /tmp/ccCwMAmf.s:90416  .debug_str:0000000000006491 .LASF2975
     /tmp/ccCwMAmf.s:97402  .debug_str:000000000002305b .LASF2976
     /tmp/ccCwMAmf.s:101982  .debug_str:000000000003589a .LASF2977
     /tmp/ccCwMAmf.s:107048  .debug_str:000000000004a632 .LASF2978
     /tmp/ccCwMAmf.s:90524  .debug_str:0000000000006bdd .LASF2979
     /tmp/ccCwMAmf.s:91444  .debug_str:000000000000aa36 .LASF2980
     /tmp/ccCwMAmf.s:107358  .debug_str:000000000004bc1e .LASF2981
     /tmp/ccCwMAmf.s:98324  .debug_str:000000000002699e .LASF2982
     /tmp/ccCwMAmf.s:93964  .debug_str:00000000000147ea .LASF2983
     /tmp/ccCwMAmf.s:95546  .debug_str:000000000001afd8 .LASF2984
     /tmp/ccCwMAmf.s:105858  .debug_str:000000000004589b .LASF2985
     /tmp/ccCwMAmf.s:100468  .debug_str:000000000002f46e .LASF2986
     /tmp/ccCwMAmf.s:101800  .debug_str:0000000000034beb .LASF2987
     /tmp/ccCwMAmf.s:107386  .debug_str:000000000004be00 .LASF2988
     /tmp/ccCwMAmf.s:96976  .debug_str:00000000000213a0 .LASF2989
     /tmp/ccCwMAmf.s:103468  .debug_str:000000000003b58c .LASF2990
     /tmp/ccCwMAmf.s:94276  .debug_str:0000000000015b0c .LASF2991
     /tmp/ccCwMAmf.s:103848  .debug_str:000000000003cf07 .LASF2992
     /tmp/ccCwMAmf.s:104998  .debug_str:0000000000041ee8 .LASF2993
     /tmp/ccCwMAmf.s:105654  .debug_str:0000000000044b15 .LASF2994
     /tmp/ccCwMAmf.s:94470  .debug_str:00000000000166bd .LASF2995
     /tmp/ccCwMAmf.s:95910  .debug_str:000000000001c9d7 .LASF2996
     /tmp/ccCwMAmf.s:99302  .debug_str:000000000002a9cd .LASF2997
     /tmp/ccCwMAmf.s:105370  .debug_str:0000000000043873 .LASF2998
     /tmp/ccCwMAmf.s:96928  .debug_str:000000000002108b .LASF2999
     /tmp/ccCwMAmf.s:95430  .debug_str:000000000001a754 .LASF3000
     /tmp/ccCwMAmf.s:95630  .debug_str:000000000001b582 .LASF3001
     /tmp/ccCwMAmf.s:95246  .debug_str:0000000000019a94 .LASF3002
     /tmp/ccCwMAmf.s:101948  .debug_str:0000000000035608 .LASF3003
     /tmp/ccCwMAmf.s:93520  .debug_str:0000000000012aca .LASF3004
     /tmp/ccCwMAmf.s:99232  .debug_str:000000000002a5c4 .LASF3005
     /tmp/ccCwMAmf.s:100738  .debug_str:00000000000305a2 .LASF3006
     /tmp/ccCwMAmf.s:90582  .debug_str:00000000000070c2 .LASF3007
     /tmp/ccCwMAmf.s:95644  .debug_str:000000000001b617 .LASF3008
     /tmp/ccCwMAmf.s:105330  .debug_str:0000000000043593 .LASF3009
     /tmp/ccCwMAmf.s:93588  .debug_str:0000000000012fb4 .LASF3010
     /tmp/ccCwMAmf.s:90018  .debug_str:0000000000004a7b .LASF3011
     /tmp/ccCwMAmf.s:107874  .debug_str:000000000004e027 .LASF3012
     /tmp/ccCwMAmf.s:93138  .debug_str:000000000001121c .LASF3013
     /tmp/ccCwMAmf.s:90446  .debug_str:000000000000668e .LASF3014
     /tmp/ccCwMAmf.s:103824  .debug_str:000000000003cd78 .LASF3015
     /tmp/ccCwMAmf.s:102044  .debug_str:0000000000035d4b .LASF3016
     /tmp/ccCwMAmf.s:105104  .debug_str:00000000000426a8 .LASF3017
     /tmp/ccCwMAmf.s:97574  .debug_str:0000000000023ca5 .LASF3018
     /tmp/ccCwMAmf.s:96034  .debug_str:000000000001d1cf .LASF3019
     /tmp/ccCwMAmf.s:94642  .debug_str:000000000001722d .LASF3020
     /tmp/ccCwMAmf.s:106344  .debug_str:000000000004780a .LASF3021
     /tmp/ccCwMAmf.s:105248  .debug_str:0000000000042ffc .LASF3022
     /tmp/ccCwMAmf.s:102194  .debug_str:0000000000036719 .LASF3023
     /tmp/ccCwMAmf.s:89402  .debug_str:0000000000002027 .LASF3024
     /tmp/ccCwMAmf.s:103450  .debug_str:000000000003b407 .LASF3025
     /tmp/ccCwMAmf.s:101980  .debug_str:0000000000035862 .LASF3026
     /tmp/ccCwMAmf.s:93868  .debug_str:00000000000141c5 .LASF3027
     /tmp/ccCwMAmf.s:91314  .debug_str:000000000000a1da .LASF3028
     /tmp/ccCwMAmf.s:104200  .debug_str:000000000003e74b .LASF3029
     /tmp/ccCwMAmf.s:102086  .debug_str:0000000000035fb7 .LASF3030
     /tmp/ccCwMAmf.s:89898  .debug_str:0000000000004193 .LASF3031
     /tmp/ccCwMAmf.s:101020  .debug_str:00000000000317af .LASF3032
     /tmp/ccCwMAmf.s:103446  .debug_str:000000000003b38e .LASF3033
     /tmp/ccCwMAmf.s:94262  .debug_str:00000000000159e2 .LASF3034
     /tmp/ccCwMAmf.s:107756  .debug_str:000000000004d760 .LASF3035
     /tmp/ccCwMAmf.s:95726  .debug_str:000000000001bc39 .LASF3036
     /tmp/ccCwMAmf.s:107532  .debug_str:000000000004c78c .LASF3037
     /tmp/ccCwMAmf.s:107946  .debug_str:000000000004e584 .LASF3038
     /tmp/ccCwMAmf.s:99818  .debug_str:000000000002c9d8 .LASF3039
     /tmp/ccCwMAmf.s:92910  .debug_str:00000000000104df .LASF3040
     /tmp/ccCwMAmf.s:102538  .debug_str:0000000000037d24 .LASF3041
     /tmp/ccCwMAmf.s:94142  .debug_str:000000000001527b .LASF3042
     /tmp/ccCwMAmf.s:101950  .debug_str:0000000000035642 .LASF3043
     /tmp/ccCwMAmf.s:104332  .debug_str:000000000003eecf .LASF3044
     /tmp/ccCwMAmf.s:96252  .debug_str:000000000001e16e .LASF3045
     /tmp/ccCwMAmf.s:105410  .debug_str:0000000000043ae7 .LASF3046
     /tmp/ccCwMAmf.s:95770  .debug_str:000000000001bf24 .LASF3047
     /tmp/ccCwMAmf.s:106930  .debug_str:0000000000049ec0 .LASF3048
     /tmp/ccCwMAmf.s:94686  .debug_str:00000000000175a4 .LASF3049
     /tmp/ccCwMAmf.s:102238  .debug_str:0000000000036a08 .LASF3050
     /tmp/ccCwMAmf.s:89212  .debug_str:00000000000011e0 .LASF3051
     /tmp/ccCwMAmf.s:97272  .debug_str:00000000000227f7 .LASF3052
     /tmp/ccCwMAmf.s:103316  .debug_str:000000000003aa6c .LASF3053
     /tmp/ccCwMAmf.s:91644  .debug_str:000000000000b8a7 .LASF3054
     /tmp/ccCwMAmf.s:89870  .debug_str:0000000000003f79 .LASF3055
     /tmp/ccCwMAmf.s:106190  .debug_str:0000000000046e10 .LASF3056
     /tmp/ccCwMAmf.s:105266  .debug_str:0000000000043113 .LASF3057
     /tmp/ccCwMAmf.s:101508  .debug_str:0000000000033810 .LASF3058
     /tmp/ccCwMAmf.s:89430  .debug_str:00000000000021f9 .LASF3059
     /tmp/ccCwMAmf.s:96674  .debug_str:000000000001ff6b .LASF3060
     /tmp/ccCwMAmf.s:99134  .debug_str:0000000000029f01 .LASF3061
     /tmp/ccCwMAmf.s:92780  .debug_str:000000000000fdb4 .LASF3062
     /tmp/ccCwMAmf.s:98932  .debug_str:0000000000029297 .LASF3063
     /tmp/ccCwMAmf.s:90724  .debug_str:0000000000007a09 .LASF3064
     /tmp/ccCwMAmf.s:104506  .debug_str:000000000003f9c8 .LASF3065
     /tmp/ccCwMAmf.s:102682  .debug_str:000000000003859f .LASF3066
     /tmp/ccCwMAmf.s:104882  .debug_str:0000000000041499 .LASF3067
     /tmp/ccCwMAmf.s:103640  .debug_str:000000000003c165 .LASF3068
     /tmp/ccCwMAmf.s:90552  .debug_str:0000000000006e3c .LASF3069
     /tmp/ccCwMAmf.s:99090  .debug_str:0000000000029c1b .LASF3070
     /tmp/ccCwMAmf.s:95896  .debug_str:000000000001c88c .LASF3071
     /tmp/ccCwMAmf.s:106188  .debug_str:0000000000046dd6 .LASF3072
     /tmp/ccCwMAmf.s:100118  .debug_str:000000000002dc40 .LASF3073
     /tmp/ccCwMAmf.s:102628  .debug_str:0000000000038306 .LASF3074
     /tmp/ccCwMAmf.s:106500  .debug_str:0000000000048279 .LASF3075
     /tmp/ccCwMAmf.s:102448  .debug_str:00000000000377bc .LASF3076
     /tmp/ccCwMAmf.s:89424  .debug_str:0000000000002189 .LASF3077
     /tmp/ccCwMAmf.s:106050  .debug_str:00000000000464d5 .LASF3078
     /tmp/ccCwMAmf.s:99816  .debug_str:000000000002c99d .LASF3079
     /tmp/ccCwMAmf.s:96746  .debug_str:000000000002048c .LASF3080
     /tmp/ccCwMAmf.s:90872  .debug_str:0000000000008395 .LASF3081
     /tmp/ccCwMAmf.s:105192  .debug_str:0000000000042bb8 .LASF3082
     /tmp/ccCwMAmf.s:100610  .debug_str:000000000002fdbe .LASF3083
     /tmp/ccCwMAmf.s:96388  .debug_str:000000000001eacb .LASF3084
     /tmp/ccCwMAmf.s:103460  .debug_str:000000000003b521 .LASF3085
     /tmp/ccCwMAmf.s:93898  .debug_str:0000000000014386 .LASF3086
     /tmp/ccCwMAmf.s:95084  .debug_str:0000000000018f15 .LASF3087
     /tmp/ccCwMAmf.s:90952  .debug_str:000000000000893c .LASF3088
     /tmp/ccCwMAmf.s:106822  .debug_str:0000000000049742 .LASF3089
     /tmp/ccCwMAmf.s:95228  .debug_str:000000000001995e .LASF3090
     /tmp/ccCwMAmf.s:107322  .debug_str:000000000004b990 .LASF3091
     /tmp/ccCwMAmf.s:105588  .debug_str:000000000004464b .LASF3092
     /tmp/ccCwMAmf.s:106288  .debug_str:000000000004748c .LASF3093
     /tmp/ccCwMAmf.s:94340  .debug_str:0000000000015ed9 .LASF3094
     /tmp/ccCwMAmf.s:93050  .debug_str:0000000000010c6e .LASF3095
     /tmp/ccCwMAmf.s:91944  .debug_str:000000000000cd95 .LASF3096
     /tmp/ccCwMAmf.s:100996  .debug_str:0000000000031618 .LASF3097
     /tmp/ccCwMAmf.s:89078  .debug_str:00000000000008f2 .LASF3098
     /tmp/ccCwMAmf.s:98644  .debug_str:0000000000027e2c .LASF3099
     /tmp/ccCwMAmf.s:108054  .debug_str:000000000004ec85 .LASF3100
     /tmp/ccCwMAmf.s:100874  .debug_str:0000000000030e64 .LASF3101
     /tmp/ccCwMAmf.s:98158  .debug_str:0000000000025e76 .LASF3102
     /tmp/ccCwMAmf.s:100546  .debug_str:000000000002f986 .LASF3103
     /tmp/ccCwMAmf.s:105518  .debug_str:00000000000441c8 .LASF3104
     /tmp/ccCwMAmf.s:95518  .debug_str:000000000001ade6 .LASF3105
     /tmp/ccCwMAmf.s:97178  .debug_str:00000000000221ab .LASF3106
     /tmp/ccCwMAmf.s:106296  .debug_str:00000000000474f1 .LASF3107
     /tmp/ccCwMAmf.s:100480  .debug_str:000000000002f573 .LASF3108
     /tmp/ccCwMAmf.s:108160  .debug_str:000000000004f32b .LASF3109
     /tmp/ccCwMAmf.s:108300  .debug_str:000000000004fd00 .LASF3110
     /tmp/ccCwMAmf.s:98160  .debug_str:0000000000025eb4 .LASF3111
     /tmp/ccCwMAmf.s:94160  .debug_str:000000000001537f .LASF3112
     /tmp/ccCwMAmf.s:95846  .debug_str:000000000001c51b .LASF3113
     /tmp/ccCwMAmf.s:108028  .debug_str:000000000004ea69 .LASF3114
     /tmp/ccCwMAmf.s:104960  .debug_str:000000000004198c .LASF3115
     /tmp/ccCwMAmf.s:93606  .debug_str:00000000000130d0 .LASF3116
     /tmp/ccCwMAmf.s:93076  .debug_str:0000000000010e9e .LASF3117
     /tmp/ccCwMAmf.s:103174  .debug_str:000000000003a00d .LASF3118
     /tmp/ccCwMAmf.s:107560  .debug_str:000000000004c9ad .LASF3119
     /tmp/ccCwMAmf.s:101528  .debug_str:000000000003396e .LASF3120
     /tmp/ccCwMAmf.s:102894  .debug_str:000000000003917b .LASF3121
     /tmp/ccCwMAmf.s:102670  .debug_str:00000000000384d1 .LASF3122
     /tmp/ccCwMAmf.s:89452  .debug_str:00000000000023b7 .LASF3123
     /tmp/ccCwMAmf.s:106160  .debug_str:0000000000046bdb .LASF3124
     /tmp/ccCwMAmf.s:99158  .debug_str:000000000002a0bb .LASF3125
     /tmp/ccCwMAmf.s:96294  .debug_str:000000000001e4a2 .LASF3126
     /tmp/ccCwMAmf.s:104744  .debug_str:0000000000040924 .LASF3127
     /tmp/ccCwMAmf.s:98226  .debug_str:0000000000026318 .LASF3128
     /tmp/ccCwMAmf.s:89152  .debug_str:0000000000000db9 .LASF3129
     /tmp/ccCwMAmf.s:104930  .debug_str:00000000000417af .LASF3130
     /tmp/ccCwMAmf.s:92738  .debug_str:000000000000fb5d .LASF3131
     /tmp/ccCwMAmf.s:90306  .debug_str:0000000000005d34 .LASF3132
     /tmp/ccCwMAmf.s:93172  .debug_str:0000000000011451 .LASF3133
     /tmp/ccCwMAmf.s:91542  .debug_str:000000000000b170 .LASF3134
     /tmp/ccCwMAmf.s:106774  .debug_str:0000000000049448 .LASF3135
     /tmp/ccCwMAmf.s:103060  .debug_str:0000000000039a3b .LASF3136
     /tmp/ccCwMAmf.s:90222  .debug_str:0000000000005799 .LASF3137
     /tmp/ccCwMAmf.s:100304  .debug_str:000000000002e8f3 .LASF3138
     /tmp/ccCwMAmf.s:103516  .debug_str:000000000003b841 .LASF3139
     /tmp/ccCwMAmf.s:101624  .debug_str:0000000000033f58 .LASF3140
     /tmp/ccCwMAmf.s:107294  .debug_str:000000000004b794 .LASF3141
     /tmp/ccCwMAmf.s:106652  .debug_str:0000000000048c24 .LASF3142
     /tmp/ccCwMAmf.s:97934  .debug_str:0000000000025375 .LASF3143
     /tmp/ccCwMAmf.s:97832  .debug_str:0000000000024ddc .LASF3144
     /tmp/ccCwMAmf.s:89232  .debug_str:0000000000001316 .LASF3145
     /tmp/ccCwMAmf.s:100188  .debug_str:000000000002e12d .LASF3146
     /tmp/ccCwMAmf.s:107696  .debug_str:000000000004d2dd .LASF3147
     /tmp/ccCwMAmf.s:91192  .debug_str:0000000000009985 .LASF3148
     /tmp/ccCwMAmf.s:104542  .debug_str:000000000003fbe5 .LASF3149
     /tmp/ccCwMAmf.s:99448  .debug_str:000000000002b2b6 .LASF3150
     /tmp/ccCwMAmf.s:98778  .debug_str:0000000000028758 .LASF3151
     /tmp/ccCwMAmf.s:93276  .debug_str:0000000000011abe .LASF3152
     /tmp/ccCwMAmf.s:107186  .debug_str:000000000004b03f .LASF3153
     /tmp/ccCwMAmf.s:103618  .debug_str:000000000003bf99 .LASF3154
     /tmp/ccCwMAmf.s:104878  .debug_str:0000000000041451 .LASF3155
     /tmp/ccCwMAmf.s:92350  .debug_str:000000000000e530 .LASF3156
     /tmp/ccCwMAmf.s:95748  .debug_str:000000000001bd61 .LASF3157
     /tmp/ccCwMAmf.s:106178  .debug_str:0000000000046d06 .LASF3158
     /tmp/ccCwMAmf.s:89056  .debug_str:0000000000000771 .LASF3159
     /tmp/ccCwMAmf.s:102022  .debug_str:0000000000035b6f .LASF3160
     /tmp/ccCwMAmf.s:96998  .debug_str:0000000000021550 .LASF3161
     /tmp/ccCwMAmf.s:99004  .debug_str:0000000000029664 .LASF3162
     /tmp/ccCwMAmf.s:97266  .debug_str:000000000002277c .LASF3163
     /tmp/ccCwMAmf.s:95060  .debug_str:0000000000018d60 .LASF3164
     /tmp/ccCwMAmf.s:89754  .debug_str:0000000000003771 .LASF3165
     /tmp/ccCwMAmf.s:104334  .debug_str:000000000003ef0f .LASF3166
     /tmp/ccCwMAmf.s:97858  .debug_str:0000000000024e9d .LASF3167
     /tmp/ccCwMAmf.s:95326  .debug_str:0000000000019fd9 .LASF3168
     /tmp/ccCwMAmf.s:105050  .debug_str:0000000000042275 .LASF3169
     /tmp/ccCwMAmf.s:98046  .debug_str:00000000000258bc .LASF3170
     /tmp/ccCwMAmf.s:96942  .debug_str:0000000000021182 .LASF3171
     /tmp/ccCwMAmf.s:108286  .debug_str:000000000004fbec .LASF3172
     /tmp/ccCwMAmf.s:89024  .debug_str:000000000000054e .LASF3173
     /tmp/ccCwMAmf.s:105990  .debug_str:00000000000460f5 .LASF3174
     /tmp/ccCwMAmf.s:98804  .debug_str:0000000000028979 .LASF3175
     /tmp/ccCwMAmf.s:104040  .debug_str:000000000003dc4c .LASF3176
     /tmp/ccCwMAmf.s:98762  .debug_str:000000000002862e .LASF3177
     /tmp/ccCwMAmf.s:104150  .debug_str:000000000003e3e0 .LASF3178
     /tmp/ccCwMAmf.s:106722  .debug_str:0000000000049109 .LASF3179
     /tmp/ccCwMAmf.s:94502  .debug_str:0000000000016921 .LASF3180
     /tmp/ccCwMAmf.s:96832  .debug_str:0000000000020ac4 .LASF3181
     /tmp/ccCwMAmf.s:108118  .debug_str:000000000004f071 .LASF3182
     /tmp/ccCwMAmf.s:106270  .debug_str:000000000004731c .LASF3183
     /tmp/ccCwMAmf.s:100886  .debug_str:0000000000030f07 .LASF3184
     /tmp/ccCwMAmf.s:100890  .debug_str:0000000000030f5a .LASF3185
     /tmp/ccCwMAmf.s:97616  .debug_str:0000000000023f52 .LASF3186
     /tmp/ccCwMAmf.s:104886  .debug_str:00000000000414f6 .LASF3187
     /tmp/ccCwMAmf.s:90496  .debug_str:00000000000069e7 .LASF3188
     /tmp/ccCwMAmf.s:94138  .debug_str:000000000001520b .LASF3189
     /tmp/ccCwMAmf.s:90978  .debug_str:0000000000008add .LASF3190
     /tmp/ccCwMAmf.s:99980  .debug_str:000000000002d376 .LASF3191
     /tmp/ccCwMAmf.s:105954  .debug_str:0000000000045e8b .LASF3192
     /tmp/ccCwMAmf.s:104686  .debug_str:00000000000404c0 .LASF3193
     /tmp/ccCwMAmf.s:89072  .debug_str:0000000000000865 .LASF3194
     /tmp/ccCwMAmf.s:101194  .debug_str:00000000000322b0 .LASF3195
     /tmp/ccCwMAmf.s:90982  .debug_str:0000000000008b26 .LASF3196
     /tmp/ccCwMAmf.s:99682  .debug_str:000000000002c1f8 .LASF3197
     /tmp/ccCwMAmf.s:100722  .debug_str:000000000003048e .LASF3198
     /tmp/ccCwMAmf.s:104322  .debug_str:000000000003ee48 .LASF3199
     /tmp/ccCwMAmf.s:102638  .debug_str:00000000000383e6 .LASF3200
     /tmp/ccCwMAmf.s:89680  .debug_str:000000000000331b .LASF3201
     /tmp/ccCwMAmf.s:104118  .debug_str:000000000003e1db .LASF3202
     /tmp/ccCwMAmf.s:103086  .debug_str:0000000000039b30 .LASF3203
     /tmp/ccCwMAmf.s:95720  .debug_str:000000000001bba6 .LASF3204
     /tmp/ccCwMAmf.s:94210  .debug_str:0000000000015662 .LASF3205
     /tmp/ccCwMAmf.s:102314  .debug_str:0000000000036edf .LASF3206
     /tmp/ccCwMAmf.s:105450  .debug_str:0000000000043dc9 .LASF3207
     /tmp/ccCwMAmf.s:104214  .debug_str:000000000003e835 .LASF3208
     /tmp/ccCwMAmf.s:96642  .debug_str:000000000001fc95 .LASF3209
     /tmp/ccCwMAmf.s:105832  .debug_str:00000000000456e6 .LASF3210
     /tmp/ccCwMAmf.s:107206  .debug_str:000000000004b1ad .LASF3211
     /tmp/ccCwMAmf.s:96786  .debug_str:000000000002081d .LASF3212
     /tmp/ccCwMAmf.s:94774  .debug_str:0000000000017c65 .LASF3213
     /tmp/ccCwMAmf.s:107086  .debug_str:000000000004a918 .LASF3214
     /tmp/ccCwMAmf.s:90388  .debug_str:0000000000006295 .LASF3215
     /tmp/ccCwMAmf.s:95918  .debug_str:000000000001ca53 .LASF3216
     /tmp/ccCwMAmf.s:105572  .debug_str:0000000000044597 .LASF3217
     /tmp/ccCwMAmf.s:99288  .debug_str:000000000002a893 .LASF3218
     /tmp/ccCwMAmf.s:93742  .debug_str:0000000000013a1f .LASF3219
     /tmp/ccCwMAmf.s:99360  .debug_str:000000000002ad80 .LASF3220
     /tmp/ccCwMAmf.s:106338  .debug_str:000000000004779b .LASF3221
     /tmp/ccCwMAmf.s:105284  .debug_str:000000000004328c .LASF3222
     /tmp/ccCwMAmf.s:93358  .debug_str:0000000000012028 .LASF3223
     /tmp/ccCwMAmf.s:105562  .debug_str:00000000000444f8 .LASF3224
     /tmp/ccCwMAmf.s:93366  .debug_str:00000000000120c4 .LASF3225
     /tmp/ccCwMAmf.s:93476  .debug_str:0000000000012765 .LASF3226
     /tmp/ccCwMAmf.s:97088  .debug_str:0000000000021c3b .LASF3227
     /tmp/ccCwMAmf.s:105138  .debug_str:0000000000042921 .LASF3228
     /tmp/ccCwMAmf.s:90224  .debug_str:00000000000057d9 .LASF3229
     /tmp/ccCwMAmf.s:90274  .debug_str:0000000000005b78 .LASF3230
     /tmp/ccCwMAmf.s:101480  .debug_str:000000000003365e .LASF3231
     /tmp/ccCwMAmf.s:91890  .debug_str:000000000000c980 .LASF3232
     /tmp/ccCwMAmf.s:99102  .debug_str:0000000000029cf4 .LASF3233
     /tmp/ccCwMAmf.s:103756  .debug_str:000000000003c921 .LASF3234
     /tmp/ccCwMAmf.s:96744  .debug_str:0000000000020450 .LASF3235
     /tmp/ccCwMAmf.s:89518  .debug_str:00000000000027db .LASF3236
     /tmp/ccCwMAmf.s:89252  .debug_str:0000000000001477 .LASF3237
     /tmp/ccCwMAmf.s:101008  .debug_str:00000000000316fe .LASF3238
     /tmp/ccCwMAmf.s:105442  .debug_str:0000000000043d0c .LASF3239
     /tmp/ccCwMAmf.s:90944  .debug_str:000000000000887f .LASF3240
     /tmp/ccCwMAmf.s:106058  .debug_str:0000000000046527 .LASF3241
     /tmp/ccCwMAmf.s:100574  .debug_str:000000000002fb13 .LASF3242
     /tmp/ccCwMAmf.s:95904  .debug_str:000000000001c957 .LASF3243
     /tmp/ccCwMAmf.s:90530  .debug_str:0000000000006c3e .LASF3244
     /tmp/ccCwMAmf.s:104052  .debug_str:000000000003dd66 .LASF3245
     /tmp/ccCwMAmf.s:90320  .debug_str:0000000000005e3b .LASF3246
     /tmp/ccCwMAmf.s:96362  .debug_str:000000000001e952 .LASF3247
     /tmp/ccCwMAmf.s:97534  .debug_str:0000000000023a1b .LASF3248
     /tmp/ccCwMAmf.s:93112  .debug_str:0000000000011024 .LASF3249
     /tmp/ccCwMAmf.s:100066  .debug_str:000000000002d911 .LASF3250
     /tmp/ccCwMAmf.s:104190  .debug_str:000000000003e692 .LASF3251
     /tmp/ccCwMAmf.s:94862  .debug_str:0000000000018141 .LASF3252
     /tmp/ccCwMAmf.s:103028  .debug_str:00000000000397d7 .LASF3253
     /tmp/ccCwMAmf.s:101258  .debug_str:0000000000032777 .LASF3254
     /tmp/ccCwMAmf.s:97416  .debug_str:000000000002314e .LASF3255
     /tmp/ccCwMAmf.s:89348  .debug_str:0000000000001c00 .LASF3256
     /tmp/ccCwMAmf.s:92986  .debug_str:0000000000010907 .LASF3257
     /tmp/ccCwMAmf.s:96772  .debug_str:00000000000206cc .LASF3258
     /tmp/ccCwMAmf.s:91718  .debug_str:000000000000be5a .LASF3259
     /tmp/ccCwMAmf.s:105242  .debug_str:0000000000042f8e .LASF3260
     /tmp/ccCwMAmf.s:90888  .debug_str:00000000000084a1 .LASF3261
     /tmp/ccCwMAmf.s:91860  .debug_str:000000000000c758 .LASF3262
     /tmp/ccCwMAmf.s:95768  .debug_str:000000000001bede .LASF3263
     /tmp/ccCwMAmf.s:91288  .debug_str:0000000000009fdf .LASF3264
     /tmp/ccCwMAmf.s:104186  .debug_str:000000000003e634 .LASF3265
     /tmp/ccCwMAmf.s:93958  .debug_str:0000000000014761 .LASF3266
     /tmp/ccCwMAmf.s:93262  .debug_str:00000000000119bb .LASF3267
     /tmp/ccCwMAmf.s:98624  .debug_str:0000000000027ccf .LASF3268
     /tmp/ccCwMAmf.s:90866  .debug_str:0000000000008301 .LASF3269
     /tmp/ccCwMAmf.s:89774  .debug_str:0000000000003900 .LASF3270
     /tmp/ccCwMAmf.s:101902  .debug_str:0000000000035299 .LASF3271
     /tmp/ccCwMAmf.s:100488  .debug_str:000000000002f60e .LASF3272
     /tmp/ccCwMAmf.s:107868  .debug_str:000000000004dfc2 .LASF3273
     /tmp/ccCwMAmf.s:108240  .debug_str:000000000004f8cb .LASF3274
     /tmp/ccCwMAmf.s:95582  .debug_str:000000000001b22d .LASF3275
     /tmp/ccCwMAmf.s:90538  .debug_str:0000000000006d07 .LASF3276
     /tmp/ccCwMAmf.s:105108  .debug_str:0000000000042701 .LASF3277
     /tmp/ccCwMAmf.s:91062  .debug_str:000000000000909c .LASF3278
     /tmp/ccCwMAmf.s:107764  .debug_str:000000000004d829 .LASF3279
     /tmp/ccCwMAmf.s:91502  .debug_str:000000000000ae8c .LASF3280
     /tmp/ccCwMAmf.s:103916  .debug_str:000000000003d320 .LASF3281
     /tmp/ccCwMAmf.s:98874  .debug_str:0000000000028e3e .LASF3282
     /tmp/ccCwMAmf.s:93618  .debug_str:00000000000131ec .LASF3283
     /tmp/ccCwMAmf.s:105060  .debug_str:0000000000042339 .LASF3284
     /tmp/ccCwMAmf.s:103452  .debug_str:000000000003b447 .LASF3285
     /tmp/ccCwMAmf.s:98362  .debug_str:0000000000026c15 .LASF3286
     /tmp/ccCwMAmf.s:101932  .debug_str:00000000000354a0 .LASF3287
     /tmp/ccCwMAmf.s:106044  .debug_str:0000000000046472 .LASF3288
     /tmp/ccCwMAmf.s:103666  .debug_str:000000000003c34f .LASF3289
     /tmp/ccCwMAmf.s:90560  .debug_str:0000000000006efe .LASF3290
     /tmp/ccCwMAmf.s:106582  .debug_str:000000000004878d .LASF3291
     /tmp/ccCwMAmf.s:103714  .debug_str:000000000003c6ea .LASF3292
     /tmp/ccCwMAmf.s:94682  .debug_str:000000000001752d .LASF3293
     /tmp/ccCwMAmf.s:96318  .debug_str:000000000001e635 .LASF3294
     /tmp/ccCwMAmf.s:91368  .debug_str:000000000000a505 .LASF3295
     /tmp/ccCwMAmf.s:93960  .debug_str:000000000001479f .LASF3296
     /tmp/ccCwMAmf.s:94216  .debug_str:00000000000156f1 .LASF3297
     /tmp/ccCwMAmf.s:91994  .debug_str:000000000000d0a8 .LASF3298
     /tmp/ccCwMAmf.s:104762  .debug_str:0000000000040b68 .LASF3299
     /tmp/ccCwMAmf.s:106262  .debug_str:0000000000047281 .LASF3300
     /tmp/ccCwMAmf.s:99468  .debug_str:000000000002b4b7 .LASF3301
     /tmp/ccCwMAmf.s:107182  .debug_str:000000000004aff1 .LASF3302
     /tmp/ccCwMAmf.s:89440  .debug_str:00000000000022e9 .LASF3303
     /tmp/ccCwMAmf.s:93304  .debug_str:0000000000011cba .LASF3304
     /tmp/ccCwMAmf.s:101204  .debug_str:00000000000323cd .LASF3305
     /tmp/ccCwMAmf.s:106920  .debug_str:0000000000049df0 .LASF3306
     /tmp/ccCwMAmf.s:101468  .debug_str:0000000000033590 .LASF3307
     /tmp/ccCwMAmf.s:104816  .debug_str:0000000000040f66 .LASF3308
     /tmp/ccCwMAmf.s:101484  .debug_str:00000000000336a9 .LASF3309
     /tmp/ccCwMAmf.s:90056  .debug_str:0000000000004ce2 .LASF3310
     /tmp/ccCwMAmf.s:93058  .debug_str:0000000000010d1a .LASF3311
     /tmp/ccCwMAmf.s:101782  .debug_str:0000000000034aa6 .LASF3312
     /tmp/ccCwMAmf.s:95376  .debug_str:000000000001a3a2 .LASF3313
     /tmp/ccCwMAmf.s:100050  .debug_str:000000000002d7c5 .LASF3314
     /tmp/ccCwMAmf.s:100264  .debug_str:000000000002e620 .LASF3315
     /tmp/ccCwMAmf.s:103256  .debug_str:000000000003a5f4 .LASF3316
     /tmp/ccCwMAmf.s:103176  .debug_str:000000000003a04e .LASF3317
     /tmp/ccCwMAmf.s:91430  .debug_str:000000000000a98e .LASF3318
     /tmp/ccCwMAmf.s:97086  .debug_str:0000000000021bef .LASF3319
     /tmp/ccCwMAmf.s:102464  .debug_str:0000000000037903 .LASF3320
     /tmp/ccCwMAmf.s:100460  .debug_str:000000000002f3be .LASF3321
     /tmp/ccCwMAmf.s:94228  .debug_str:00000000000157e5 .LASF3322
     /tmp/ccCwMAmf.s:107598  .debug_str:000000000004cca7 .LASF3323
     /tmp/ccCwMAmf.s:104448  .debug_str:000000000003f5fb .LASF3324
     /tmp/ccCwMAmf.s:106906  .debug_str:0000000000049cdc .LASF3325
     /tmp/ccCwMAmf.s:95452  .debug_str:000000000001a950 .LASF3326
     /tmp/ccCwMAmf.s:96478  .debug_str:000000000001f091 .LASF3327
     /tmp/ccCwMAmf.s:105820  .debug_str:00000000000455ff .LASF3328
     /tmp/ccCwMAmf.s:92142  .debug_str:000000000000d9dd .LASF3329
     /tmp/ccCwMAmf.s:103672  .debug_str:000000000003c3e7 .LASF3330
     /tmp/ccCwMAmf.s:102956  .debug_str:000000000003944f .LASF3331
     /tmp/ccCwMAmf.s:94584  .debug_str:0000000000016e9c .LASF3332
     /tmp/ccCwMAmf.s:94074  .debug_str:0000000000014df2 .LASF3333
     /tmp/ccCwMAmf.s:101366  .debug_str:0000000000032e56 .LASF3334
     /tmp/ccCwMAmf.s:104660  .debug_str:00000000000402db .LASF3335
     /tmp/ccCwMAmf.s:95928  .debug_str:000000000001cb1b .LASF3336
     /tmp/ccCwMAmf.s:103674  .debug_str:000000000003c42a .LASF3337
     /tmp/ccCwMAmf.s:104050  .debug_str:000000000003dd23 .LASF3338
     /tmp/ccCwMAmf.s:94592  .debug_str:0000000000016f31 .LASF3339
     /tmp/ccCwMAmf.s:104796  .debug_str:0000000000040de1 .LASF3340
     /tmp/ccCwMAmf.s:106460  .debug_str:0000000000048011 .LASF3341
     /tmp/ccCwMAmf.s:100444  .debug_str:000000000002f2ae .LASF3342
     /tmp/ccCwMAmf.s:94222  .debug_str:000000000001577b .LASF3343
     /tmp/ccCwMAmf.s:90754  .debug_str:0000000000007bb6 .LASF3344
     /tmp/ccCwMAmf.s:100510  .debug_str:000000000002f737 .LASF3345
     /tmp/ccCwMAmf.s:91848  .debug_str:000000000000c662 .LASF3346
     /tmp/ccCwMAmf.s:104082  .debug_str:000000000003df4c .LASF3347
     /tmp/ccCwMAmf.s:98904  .debug_str:0000000000029087 .LASF3348
     /tmp/ccCwMAmf.s:107504  .debug_str:000000000004c5d1 .LASF3349
     /tmp/ccCwMAmf.s:102622  .debug_str:000000000003826c .LASF3350
     /tmp/ccCwMAmf.s:105288  .debug_str:00000000000432e8 .LASF3351
     /tmp/ccCwMAmf.s:97680  .debug_str:00000000000243d4 .LASF3352
     /tmp/ccCwMAmf.s:90908  .debug_str:0000000000008635 .LASF3353
     /tmp/ccCwMAmf.s:102748  .debug_str:00000000000388ff .LASF3354
     /tmp/ccCwMAmf.s:99436  .debug_str:000000000002b1e1 .LASF3355
     /tmp/ccCwMAmf.s:100532  .debug_str:000000000002f8b9 .LASF3356
     /tmp/ccCwMAmf.s:108024  .debug_str:000000000004e9f2 .LASF3357
     /tmp/ccCwMAmf.s:90488  .debug_str:0000000000006954 .LASF3358
     /tmp/ccCwMAmf.s:101778  .debug_str:0000000000034a2b .LASF3359
     /tmp/ccCwMAmf.s:106472  .debug_str:00000000000480ea .LASF3360
     /tmp/ccCwMAmf.s:96766  .debug_str:000000000002062f .LASF3361
     /tmp/ccCwMAmf.s:96442  .debug_str:000000000001ee17 .LASF3362
     /tmp/ccCwMAmf.s:105840  .debug_str:0000000000045780 .LASF3363
     /tmp/ccCwMAmf.s:91028  .debug_str:0000000000008e38 .LASF3364
     /tmp/ccCwMAmf.s:102924  .debug_str:0000000000039258 .LASF3365
     /tmp/ccCwMAmf.s:96158  .debug_str:000000000001daa3 .LASF3366
     /tmp/ccCwMAmf.s:97148  .debug_str:0000000000021fb2 .LASF3367
     /tmp/ccCwMAmf.s:103784  .debug_str:000000000003cadc .LASF3368
     /tmp/ccCwMAmf.s:94396  .debug_str:00000000000161e8 .LASF3369
     /tmp/ccCwMAmf.s:107818  .debug_str:000000000004dc8f .LASF3370
     /tmp/ccCwMAmf.s:99532  .debug_str:000000000002b8f8 .LASF3371
     /tmp/ccCwMAmf.s:92742  .debug_str:000000000000fbc6 .LASF3372
     /tmp/ccCwMAmf.s:100380  .debug_str:000000000002ee06 .LASF3373
     /tmp/ccCwMAmf.s:97822  .debug_str:0000000000024cee .LASF3374
     /tmp/ccCwMAmf.s:90500  .debug_str:0000000000006a48 .LASF3375
     /tmp/ccCwMAmf.s:95384  .debug_str:000000000001a462 .LASF3376
     /tmp/ccCwMAmf.s:95446  .debug_str:000000000001a8e6 .LASF3377
     /tmp/ccCwMAmf.s:95722  .debug_str:000000000001bbe9 .LASF3378
     /tmp/ccCwMAmf.s:100260  .debug_str:000000000002e5bf .LASF3379
     /tmp/ccCwMAmf.s:91188  .debug_str:00000000000098f4 .LASF3380
     /tmp/ccCwMAmf.s:103530  .debug_str:000000000003b909 .LASF3381
     /tmp/ccCwMAmf.s:90540  .debug_str:0000000000006d42 .LASF3382
     /tmp/ccCwMAmf.s:89986  .debug_str:00000000000047bc .LASF3383
     /tmp/ccCwMAmf.s:100594  .debug_str:000000000002fc77 .LASF3384
     /tmp/ccCwMAmf.s:94284  .debug_str:0000000000015bda .LASF3385
     /tmp/ccCwMAmf.s:91616  .debug_str:000000000000b65f .LASF3386
     /tmp/ccCwMAmf.s:104628  .debug_str:000000000004012c .LASF3387
     /tmp/ccCwMAmf.s:90984  .debug_str:0000000000008b67 .LASF3388
     /tmp/ccCwMAmf.s:95628  .debug_str:000000000001b53c .LASF3389
     /tmp/ccCwMAmf.s:105324  .debug_str:00000000000434ee .LASF3390
     /tmp/ccCwMAmf.s:101432  .debug_str:00000000000332b3 .LASF3391
     /tmp/ccCwMAmf.s:96528  .debug_str:000000000001f4b1 .LASF3392
     /tmp/ccCwMAmf.s:106272  .debug_str:000000000004735d .LASF3393
     /tmp/ccCwMAmf.s:98358  .debug_str:0000000000026bb1 .LASF3394
     /tmp/ccCwMAmf.s:102760  .debug_str:0000000000038a0b .LASF3395
     /tmp/ccCwMAmf.s:98528  .debug_str:0000000000027610 .LASF3396
     /tmp/ccCwMAmf.s:93652  .debug_str:000000000001349c .LASF3397
     /tmp/ccCwMAmf.s:97436  .debug_str:00000000000232e4 .LASF3398
     /tmp/ccCwMAmf.s:101888  .debug_str:000000000003519d .LASF3399
     /tmp/ccCwMAmf.s:89636  .debug_str:000000000000301f .LASF3400
     /tmp/ccCwMAmf.s:95016  .debug_str:0000000000018abe .LASF3401
     /tmp/ccCwMAmf.s:89092  .debug_str:00000000000009e0 .LASF3402
     /tmp/ccCwMAmf.s:96694  .debug_str:00000000000200f4 .LASF3403
     /tmp/ccCwMAmf.s:104044  .debug_str:000000000003dc9c .LASF3404
     /tmp/ccCwMAmf.s:90358  .debug_str:00000000000060ab .LASF3405
     /tmp/ccCwMAmf.s:95816  .debug_str:000000000001c226 .LASF3406
     /tmp/ccCwMAmf.s:96068  .debug_str:000000000001d3f5 .LASF3407
     /tmp/ccCwMAmf.s:90202  .debug_str:0000000000005680 .LASF3408
     /tmp/ccCwMAmf.s:95066  .debug_str:0000000000018de4 .LASF3409
     /tmp/ccCwMAmf.s:100994  .debug_str:00000000000315d5 .LASF3410
     /tmp/ccCwMAmf.s:104210  .debug_str:000000000003e7dc .LASF3411
     /tmp/ccCwMAmf.s:95804  .debug_str:000000000001c165 .LASF3412
     /tmp/ccCwMAmf.s:100412  .debug_str:000000000002f010 .LASF3413
     /tmp/ccCwMAmf.s:94878  .debug_str:0000000000018280 .LASF3414
     /tmp/ccCwMAmf.s:106676  .debug_str:0000000000048dd1 .LASF3415
     /tmp/ccCwMAmf.s:107450  .debug_str:000000000004c1f6 .LASF3416
     /tmp/ccCwMAmf.s:98534  .debug_str:000000000002768c .LASF3417
     /tmp/ccCwMAmf.s:98912  .debug_str:0000000000029144 .LASF3418
     /tmp/ccCwMAmf.s:91370  .debug_str:000000000000a54c .LASF3419
     /tmp/ccCwMAmf.s:107222  .debug_str:000000000004b2b5 .LASF3420
     /tmp/ccCwMAmf.s:93566  .debug_str:0000000000012e24 .LASF3421
     /tmp/ccCwMAmf.s:102548  .debug_str:0000000000037e54 .LASF3422
     /tmp/ccCwMAmf.s:101212  .debug_str:0000000000032465 .LASF3423
     /tmp/ccCwMAmf.s:97524  .debug_str:000000000002397c .LASF3424
     /tmp/ccCwMAmf.s:103214  .debug_str:000000000003a302 .LASF3425
     /tmp/ccCwMAmf.s:92722  .debug_str:000000000000f9ff .LASF3426
     /tmp/ccCwMAmf.s:93152  .debug_str:00000000000112d5 .LASF3427
     /tmp/ccCwMAmf.s:90626  .debug_str:00000000000073df .LASF3428
     /tmp/ccCwMAmf.s:92944  .debug_str:000000000001065d .LASF3429
     /tmp/ccCwMAmf.s:103566  .debug_str:000000000003bbc6 .LASF3430
     /tmp/ccCwMAmf.s:100326  .debug_str:000000000002eac9 .LASF3431
     /tmp/ccCwMAmf.s:89400  .debug_str:0000000000001fe7 .LASF3432
     /tmp/ccCwMAmf.s:95092  .debug_str:0000000000018f99 .LASF3433
     /tmp/ccCwMAmf.s:93526  .debug_str:0000000000012b32 .LASF3434
     /tmp/ccCwMAmf.s:100440  .debug_str:000000000002f236 .LASF3435
     /tmp/ccCwMAmf.s:90906  .debug_str:00000000000085fb .LASF3436
     /tmp/ccCwMAmf.s:105366  .debug_str:0000000000043825 .LASF3437
     /tmp/ccCwMAmf.s:104366  .debug_str:000000000003f136 .LASF3438
     /tmp/ccCwMAmf.s:105762  .debug_str:00000000000451b3 .LASF3439
     /tmp/ccCwMAmf.s:101444  .debug_str:00000000000333b1 .LASF3440
     /tmp/ccCwMAmf.s:97008  .debug_str:0000000000021617 .LASF3441
     /tmp/ccCwMAmf.s:96902  .debug_str:0000000000020e92 .LASF3442
     /tmp/ccCwMAmf.s:104456  .debug_str:000000000003f6a2 .LASF3443
     /tmp/ccCwMAmf.s:90260  .debug_str:0000000000005a99 .LASF3444
     /tmp/ccCwMAmf.s:104850  .debug_str:0000000000041257 .LASF3445
     /tmp/ccCwMAmf.s:106310  .debug_str:00000000000475be .LASF3446
     /tmp/ccCwMAmf.s:96094  .debug_str:000000000001d5ce .LASF3447
     /tmp/ccCwMAmf.s:94458  .debug_str:00000000000165e6 .LASF3448
     /tmp/ccCwMAmf.s:106670  .debug_str:0000000000048d62 .LASF3449
     /tmp/ccCwMAmf.s:104792  .debug_str:0000000000040d7c .LASF3450
     /tmp/ccCwMAmf.s:99178  .debug_str:000000000002a212 .LASF3451
     /tmp/ccCwMAmf.s:103010  .debug_str:00000000000396ae .LASF3452
     /tmp/ccCwMAmf.s:90298  .debug_str:0000000000005ccb .LASF3453
     /tmp/ccCwMAmf.s:90246  .debug_str:0000000000005962 .LASF3454
     /tmp/ccCwMAmf.s:95676  .debug_str:000000000001b849 .LASF3455
     /tmp/ccCwMAmf.s:100348  .debug_str:000000000002ec1b .LASF3456
     /tmp/ccCwMAmf.s:92058  .debug_str:000000000000d4b7 .LASF3457
     /tmp/ccCwMAmf.s:91120  .debug_str:0000000000009486 .LASF3458
     /tmp/ccCwMAmf.s:91018  .debug_str:0000000000008d57 .LASF3459
     /tmp/ccCwMAmf.s:105440  .debug_str:0000000000043cc9 .LASF3460
     /tmp/ccCwMAmf.s:101580  .debug_str:0000000000033cea .LASF3461
     /tmp/ccCwMAmf.s:99094  .debug_str:0000000000029c6a .LASF3462
     /tmp/ccCwMAmf.s:95688  .debug_str:000000000001b949 .LASF3463
     /tmp/ccCwMAmf.s:92948  .debug_str:00000000000106a9 .LASF3464
     /tmp/ccCwMAmf.s:104294  .debug_str:000000000003ec6f .LASF3465
     /tmp/ccCwMAmf.s:96774  .debug_str:0000000000020715 .LASF3466
     /tmp/ccCwMAmf.s:91044  .debug_str:0000000000008f73 .LASF3467
     /tmp/ccCwMAmf.s:95902  .debug_str:000000000001c916 .LASF3468
     /tmp/ccCwMAmf.s:96016  .debug_str:000000000001d0b3 .LASF3469
     /tmp/ccCwMAmf.s:102434  .debug_str:0000000000037699 .LASF3470
     /tmp/ccCwMAmf.s:94360  .debug_str:0000000000015f9e .LASF3471
     /tmp/ccCwMAmf.s:104928  .debug_str:0000000000041764 .LASF3472
     /tmp/ccCwMAmf.s:105960  .debug_str:0000000000045ef4 .LASF3473
     /tmp/ccCwMAmf.s:103636  .debug_str:000000000003c0f5 .LASF3474
     /tmp/ccCwMAmf.s:106902  .debug_str:0000000000049c7e .LASF3475
     /tmp/ccCwMAmf.s:103294  .debug_str:000000000003a8f2 .LASF3476
     /tmp/ccCwMAmf.s:103994  .debug_str:000000000003d8bc .LASF3477
     /tmp/ccCwMAmf.s:93234  .debug_str:00000000000117b5 .LASF3478
     /tmp/ccCwMAmf.s:97240  .debug_str:00000000000225cb .LASF3479
     /tmp/ccCwMAmf.s:102794  .debug_str:0000000000038c2f .LASF3480
     /tmp/ccCwMAmf.s:93434  .debug_str:000000000001250f .LASF3481
     /tmp/ccCwMAmf.s:91036  .debug_str:0000000000008ec7 .LASF3482
     /tmp/ccCwMAmf.s:108040  .debug_str:000000000004eb3b .LASF3483
     /tmp/ccCwMAmf.s:102932  .debug_str:00000000000392d1 .LASF3484
     /tmp/ccCwMAmf.s:103390  .debug_str:000000000003afb3 .LASF3485
     /tmp/ccCwMAmf.s:95158  .debug_str:000000000001948b .LASF3486
     /tmp/ccCwMAmf.s:98344  .debug_str:0000000000026ab4 .LASF3487
     /tmp/ccCwMAmf.s:90174  .debug_str:000000000000541a .LASF3488
     /tmp/ccCwMAmf.s:103540  .debug_str:000000000003b9d9 .LASF3489
     /tmp/ccCwMAmf.s:89974  .debug_str:00000000000046db .LASF3490
     /tmp/ccCwMAmf.s:106036  .debug_str:00000000000463b8 .LASF3491
     /tmp/ccCwMAmf.s:98296  .debug_str:0000000000026764 .LASF3492
     /tmp/ccCwMAmf.s:98802  .debug_str:0000000000028939 .LASF3493
     /tmp/ccCwMAmf.s:104036  .debug_str:000000000003dbdc .LASF3494
     /tmp/ccCwMAmf.s:91864  .debug_str:000000000000c7b6 .LASF3495
     /tmp/ccCwMAmf.s:91922  .debug_str:000000000000cc09 .LASF3496
     /tmp/ccCwMAmf.s:106796  .debug_str:000000000004955d .LASF3497
     /tmp/ccCwMAmf.s:107836  .debug_str:000000000004ddda .LASF3498
     /tmp/ccCwMAmf.s:94558  .debug_str:0000000000016ceb .LASF3499
     /tmp/ccCwMAmf.s:93788  .debug_str:0000000000013cbf .LASF3500
     /tmp/ccCwMAmf.s:94420  .debug_str:00000000000163bc .LASF3501
     /tmp/ccCwMAmf.s:102556  .debug_str:0000000000037edf .LASF3502
     /tmp/ccCwMAmf.s:105964  .debug_str:0000000000045f6e .LASF3503
     /tmp/ccCwMAmf.s:104566  .debug_str:000000000003fd46 .LASF3504
     /tmp/ccCwMAmf.s:107626  .debug_str:000000000004ce8f .LASF3505
     /tmp/ccCwMAmf.s:95554  .debug_str:000000000001b05b .LASF3506
     /tmp/ccCwMAmf.s:103290  .debug_str:000000000003a8a2 .LASF3507
     /tmp/ccCwMAmf.s:100358  .debug_str:000000000002ecc5 .LASF3508
     /tmp/ccCwMAmf.s:103860  .debug_str:000000000003cfc4 .LASF3509
     /tmp/ccCwMAmf.s:91378  .debug_str:000000000000a616 .LASF3510
     /tmp/ccCwMAmf.s:94622  .debug_str:0000000000017101 .LASF3511
     /tmp/ccCwMAmf.s:105016  .debug_str:0000000000042017 .LASF3512
     /tmp/ccCwMAmf.s:96522  .debug_str:000000000001f44d .LASF3513
     /tmp/ccCwMAmf.s:103492  .debug_str:000000000003b6e8 .LASF3514
     /tmp/ccCwMAmf.s:106848  .debug_str:000000000004991e .LASF3515
     /tmp/ccCwMAmf.s:94620  .debug_str:00000000000170c6 .LASF3516
     /tmp/ccCwMAmf.s:97808  .debug_str:0000000000024c17 .LASF3517
     /tmp/ccCwMAmf.s:105218  .debug_str:0000000000042db1 .LASF3518
     /tmp/ccCwMAmf.s:90604  .debug_str:000000000000723e .LASF3519
     /tmp/ccCwMAmf.s:105758  .debug_str:0000000000045159 .LASF3520
     /tmp/ccCwMAmf.s:96986  .debug_str:000000000002146d .LASF3521
     /tmp/ccCwMAmf.s:95780  .debug_str:000000000001bfe8 .LASF3522
     /tmp/ccCwMAmf.s:96110  .debug_str:000000000001d6f2 .LASF3523
     /tmp/ccCwMAmf.s:89022  .debug_str:000000000000050f .LASF3524
     /tmp/ccCwMAmf.s:101868  .debug_str:0000000000034fed .LASF3525
     /tmp/ccCwMAmf.s:99570  .debug_str:000000000002ba97 .LASF3526
     /tmp/ccCwMAmf.s:99984  .debug_str:000000000002d3c6 .LASF3527
     /tmp/ccCwMAmf.s:105918  .debug_str:0000000000045c28 .LASF3528
     /tmp/ccCwMAmf.s:103488  .debug_str:000000000003b695 .LASF3529
     /tmp/ccCwMAmf.s:101634  .debug_str:0000000000034005 .LASF3530
     /tmp/ccCwMAmf.s:90114  .debug_str:0000000000005070 .LASF3531
     /tmp/ccCwMAmf.s:107808  .debug_str:000000000004dbbf .LASF3532
     /tmp/ccCwMAmf.s:93400  .debug_str:0000000000012346 .LASF3533
     /tmp/ccCwMAmf.s:101002  .debug_str:000000000003169b .LASF3534
     /tmp/ccCwMAmf.s:106806  .debug_str:000000000004962c .LASF3535
     /tmp/ccCwMAmf.s:107218  .debug_str:000000000004b266 .LASF3536
     /tmp/ccCwMAmf.s:94480  .debug_str:0000000000016786 .LASF3537
     /tmp/ccCwMAmf.s:100180  .debug_str:000000000002e097 .LASF3538
     /tmp/ccCwMAmf.s:106184  .debug_str:0000000000046d71 .LASF3539
     /tmp/ccCwMAmf.s:102014  .debug_str:0000000000035ae4 .LASF3540
     /tmp/ccCwMAmf.s:98536  .debug_str:00000000000276d3 .LASF3541
     /tmp/ccCwMAmf.s:99194  .debug_str:000000000002a347 .LASF3542
     /tmp/ccCwMAmf.s:97622  .debug_str:0000000000023fd3 .LASF3543
     /tmp/ccCwMAmf.s:90088  .debug_str:0000000000004ef9 .LASF3544
     /tmp/ccCwMAmf.s:107078  .debug_str:000000000004a87e .LASF3545
     /tmp/ccCwMAmf.s:103528  .debug_str:000000000003b8cd .LASF3546
     /tmp/ccCwMAmf.s:96520  .debug_str:000000000001f409 .LASF3547
     /tmp/ccCwMAmf.s:104062  .debug_str:000000000003ddfa .LASF3548
     /tmp/ccCwMAmf.s:106642  .debug_str:0000000000048b99 .LASF3549
     /tmp/ccCwMAmf.s:90678  .debug_str:00000000000076d6 .LASF3550
     /tmp/ccCwMAmf.s:106622  .debug_str:0000000000048a31 .LASF3551
     /tmp/ccCwMAmf.s:102226  .debug_str:000000000003693a .LASF3552
     /tmp/ccCwMAmf.s:94648  .debug_str:00000000000172d1 .LASF3553
     /tmp/ccCwMAmf.s:108132  .debug_str:000000000004f13d .LASF3554
     /tmp/ccCwMAmf.s:99066  .debug_str:0000000000029a81 .LASF3555
     /tmp/ccCwMAmf.s:90374  .debug_str:00000000000061ac .LASF3556
     /tmp/ccCwMAmf.s:105550  .debug_str:00000000000443ea .LASF3557
     /tmp/ccCwMAmf.s:105278  .debug_str:000000000004320b .LASF3558
     /tmp/ccCwMAmf.s:91038  .debug_str:0000000000008f0b .LASF3559
     /tmp/ccCwMAmf.s:93768  .debug_str:0000000000013bc6 .LASF3560
     /tmp/ccCwMAmf.s:92698  .debug_str:000000000000f82b .LASF3561
     /tmp/ccCwMAmf.s:91354  .debug_str:000000000000a3f5 .LASF3562
     /tmp/ccCwMAmf.s:108158  .debug_str:000000000004f2df .LASF3563
     /tmp/ccCwMAmf.s:95198  .debug_str:0000000000019745 .LASF3564
     /tmp/ccCwMAmf.s:92634  .debug_str:000000000000f413 .LASF3565
     /tmp/ccCwMAmf.s:89414  .debug_str:00000000000020e9 .LASF3566
     /tmp/ccCwMAmf.s:99122  .debug_str:0000000000029e36 .LASF3567
     /tmp/ccCwMAmf.s:107490  .debug_str:000000000004c4bc .LASF3568
     /tmp/ccCwMAmf.s:101776  .debug_str:00000000000349ed .LASF3569
     /tmp/ccCwMAmf.s:94182  .debug_str:00000000000154d7 .LASF3570
     /tmp/ccCwMAmf.s:93428  .debug_str:0000000000012497 .LASF3571
     /tmp/ccCwMAmf.s:105042  .debug_str:00000000000421bf .LASF3572
     /tmp/ccCwMAmf.s:107680  .debug_str:000000000004d1b3 .LASF3573
     /tmp/ccCwMAmf.s:91690  .debug_str:000000000000bc3e .LASF3574
     /tmp/ccCwMAmf.s:100524  .debug_str:000000000002f82c .LASF3575
     /tmp/ccCwMAmf.s:105220  .debug_str:0000000000042dec .LASF3576
     /tmp/ccCwMAmf.s:103312  .debug_str:000000000003aa0b .LASF3577
     /tmp/ccCwMAmf.s:96182  .debug_str:000000000001dc97 .LASF3578
     /tmp/ccCwMAmf.s:98050  .debug_str:0000000000025915 .LASF3579
     /tmp/ccCwMAmf.s:101678  .debug_str:00000000000342f3 .LASF3580
     /tmp/ccCwMAmf.s:93352  .debug_str:0000000000011fb4 .LASF3581
     /tmp/ccCwMAmf.s:95320  .debug_str:0000000000019f5a .LASF3582
     /tmp/ccCwMAmf.s:102056  .debug_str:0000000000035e1d .LASF3583
     /tmp/ccCwMAmf.s:95248  .debug_str:0000000000019ad5 .LASF3584
     /tmp/ccCwMAmf.s:90152  .debug_str:00000000000052bb .LASF3585
     /tmp/ccCwMAmf.s:89020  .debug_str:00000000000004c8 .LASF3586
     /tmp/ccCwMAmf.s:104758  .debug_str:0000000000040b14 .LASF3587
     /tmp/ccCwMAmf.s:90550  .debug_str:0000000000006dfb .LASF3588
     /tmp/ccCwMAmf.s:89586  .debug_str:0000000000002c97 .LASF3589
     /tmp/ccCwMAmf.s:95556  .debug_str:000000000001b099 .LASF3590
     /tmp/ccCwMAmf.s:93292  .debug_str:0000000000011bc9 .LASF3591
     /tmp/ccCwMAmf.s:94468  .debug_str:0000000000016679 .LASF3592
     /tmp/ccCwMAmf.s:96484  .debug_str:000000000001f120 .LASF3593
     /tmp/ccCwMAmf.s:89750  .debug_str:0000000000003719 .LASF3594
     /tmp/ccCwMAmf.s:88970  .debug_str:0000000000000154 .LASF3595
     /tmp/ccCwMAmf.s:97170  .debug_str:00000000000220fe .LASF3596
     /tmp/ccCwMAmf.s:89304  .debug_str:00000000000018ef .LASF3597
     /tmp/ccCwMAmf.s:97754  .debug_str:00000000000248ba .LASF3598
     /tmp/ccCwMAmf.s:103554  .debug_str:000000000003baf6 .LASF3599
     /tmp/ccCwMAmf.s:89098  .debug_str:0000000000000a6f .LASF3600
     /tmp/ccCwMAmf.s:89334  .debug_str:0000000000001aed .LASF3601
     /tmp/ccCwMAmf.s:101916  .debug_str:0000000000035393 .LASF3602
     /tmp/ccCwMAmf.s:90668  .debug_str:00000000000075f5 .LASF3603
     /tmp/ccCwMAmf.s:90508  .debug_str:0000000000006aee .LASF3604
     /tmp/ccCwMAmf.s:105384  .debug_str:0000000000043947 .LASF3605
     /tmp/ccCwMAmf.s:96326  .debug_str:000000000001e6a1 .LASF3606
     /tmp/ccCwMAmf.s:100656  .debug_str:000000000003003c .LASF3607
     /tmp/ccCwMAmf.s:98670  .debug_str:000000000002800a .LASF3608
     /tmp/ccCwMAmf.s:95680  .debug_str:000000000001b8a1 .LASF3609
     /tmp/ccCwMAmf.s:108102  .debug_str:000000000004ef98 .LASF3610
     /tmp/ccCwMAmf.s:90918  .debug_str:00000000000086ed .LASF3611
     /tmp/ccCwMAmf.s:108080  .debug_str:000000000004ee36 .LASF3612
     /tmp/ccCwMAmf.s:107224  .debug_str:000000000004b2f1 .LASF3613
     /tmp/ccCwMAmf.s:96224  .debug_str:000000000001df51 .LASF3614
     /tmp/ccCwMAmf.s:92008  .debug_str:000000000000d1bb .LASF3615
     /tmp/ccCwMAmf.s:100478  .debug_str:000000000002f52b .LASF3616
     /tmp/ccCwMAmf.s:93464  .debug_str:00000000000126c6 .LASF3617
     /tmp/ccCwMAmf.s:103814  .debug_str:000000000003ccf9 .LASF3618
     /tmp/ccCwMAmf.s:108290  .debug_str:000000000004fc45 .LASF3619
     /tmp/ccCwMAmf.s:89310  .debug_str:0000000000001962 .LASF3620
     /tmp/ccCwMAmf.s:107796  .debug_str:000000000004dad7 .LASF3621
     /tmp/ccCwMAmf.s:92442  .debug_str:000000000000ea0a .LASF3622
     /tmp/ccCwMAmf.s:102546  .debug_str:0000000000037e10 .LASF3623
     /tmp/ccCwMAmf.s:107774  .debug_str:000000000004d8f3 .LASF3624
     /tmp/ccCwMAmf.s:92440  .debug_str:000000000000e9c7 .LASF3625
     /tmp/ccCwMAmf.s:103186  .debug_str:000000000003a14b .LASF3626
     /tmp/ccCwMAmf.s:102118  .debug_str:00000000000361eb .LASF3627
     /tmp/ccCwMAmf.s:103954  .debug_str:000000000003d5e9 .LASF3628
     /tmp/ccCwMAmf.s:96296  .debug_str:000000000001e4e4 .LASF3629
     /tmp/ccCwMAmf.s:94482  .debug_str:00000000000167cd .LASF3630
     /tmp/ccCwMAmf.s:92898  .debug_str:0000000000010433 .LASF3631
     /tmp/ccCwMAmf.s:105270  .debug_str:000000000004316b .LASF3632
     /tmp/ccCwMAmf.s:90012  .debug_str:00000000000049da .LASF3633
     /tmp/ccCwMAmf.s:96286  .debug_str:000000000001e3e2 .LASF3634
     /tmp/ccCwMAmf.s:92354  .debug_str:000000000000e5a1 .LASF3635
     /tmp/ccCwMAmf.s:105652  .debug_str:0000000000044ada .LASF3636
     /tmp/ccCwMAmf.s:102882  .debug_str:00000000000390b5 .LASF3637
     /tmp/ccCwMAmf.s:99198  .debug_str:000000000002a395 .LASF3638
     /tmp/ccCwMAmf.s:93760  .debug_str:0000000000013b2c .LASF3639
     /tmp/ccCwMAmf.s:107618  .debug_str:000000000004ce19 .LASF3640
     /tmp/ccCwMAmf.s:91106  .debug_str:00000000000093ab .LASF3641
     /tmp/ccCwMAmf.s:97630  .debug_str:000000000002407b .LASF3642
     /tmp/ccCwMAmf.s:105932  .debug_str:0000000000045d44 .LASF3643
     /tmp/ccCwMAmf.s:91572  .debug_str:000000000000b3c8 .LASF3644
     /tmp/ccCwMAmf.s:102422  .debug_str:00000000000375cd .LASF3645
     /tmp/ccCwMAmf.s:92346  .debug_str:000000000000e4e3 .LASF3646
     /tmp/ccCwMAmf.s:104728  .debug_str:00000000000407ef .LASF3647
     /tmp/ccCwMAmf.s:103238  .debug_str:000000000003a4b4 .LASF3648
     /tmp/ccCwMAmf.s:90960  .debug_str:00000000000089b6 .LASF3649
     /tmp/ccCwMAmf.s:89904  .debug_str:00000000000041f7 .LASF3650
     /tmp/ccCwMAmf.s:104844  .debug_str:00000000000411e1 .LASF3651
     /tmp/ccCwMAmf.s:98884  .debug_str:0000000000028f09 .LASF3652
     /tmp/ccCwMAmf.s:94366  .debug_str:000000000001602d .LASF3653
     /tmp/ccCwMAmf.s:94054  .debug_str:0000000000014ca3 .LASF3654
     /tmp/ccCwMAmf.s:96768  .debug_str:000000000002066b .LASF3655
     /tmp/ccCwMAmf.s:101758  .debug_str:0000000000034833 .LASF3656
     /tmp/ccCwMAmf.s:97442  .debug_str:0000000000023368 .LASF3657
     /tmp/ccCwMAmf.s:90776  .debug_str:0000000000007d77 .LASF3658
     /tmp/ccCwMAmf.s:95388  .debug_str:000000000001a4c1 .LASF3659
     /tmp/ccCwMAmf.s:107910  .debug_str:000000000004e2e3 .LASF3660
     /tmp/ccCwMAmf.s:104818  .debug_str:0000000000040fa3 .LASF3661
     /tmp/ccCwMAmf.s:93208  .debug_str:00000000000115e5 .LASF3662
     /tmp/ccCwMAmf.s:95074  .debug_str:0000000000018e81 .LASF3663
     /tmp/ccCwMAmf.s:96476  .debug_str:000000000001f055 .LASF3664
     /tmp/ccCwMAmf.s:96164  .debug_str:000000000001db3c .LASF3665
     /tmp/ccCwMAmf.s:98718  .debug_str:00000000000282d3 .LASF3666
     /tmp/ccCwMAmf.s:105624  .debug_str:00000000000448c8 .LASF3667
     /tmp/ccCwMAmf.s:106152  .debug_str:0000000000046b31 .LASF3668
     /tmp/ccCwMAmf.s:95714  .debug_str:000000000001bb13 .LASF3669
     /tmp/ccCwMAmf.s:101462  .debug_str:0000000000033501 .LASF3670
     /tmp/ccCwMAmf.s:105342  .debug_str:0000000000043672 .LASF3671
     /tmp/ccCwMAmf.s:107426  .debug_str:000000000004c072 .LASF3672
     /tmp/ccCwMAmf.s:105114  .debug_str:0000000000042791 .LASF3673
     /tmp/ccCwMAmf.s:96490  .debug_str:000000000001f1d8 .LASF3674
     /tmp/ccCwMAmf.s:95378  .debug_str:000000000001a3e4 .LASF3675
     /tmp/ccCwMAmf.s:102636  .debug_str:00000000000383a6 .LASF3676
     /tmp/ccCwMAmf.s:93934  .debug_str:00000000000145cc .LASF3677
     /tmp/ccCwMAmf.s:101592  .debug_str:0000000000033db6 .LASF3678
     /tmp/ccCwMAmf.s:106414  .debug_str:0000000000047d38 .LASF3679
     /tmp/ccCwMAmf.s:106738  .debug_str:000000000004920a .LASF3680
     /tmp/ccCwMAmf.s:105764  .debug_str:00000000000451f8 .LASF3681
     /tmp/ccCwMAmf.s:91684  .debug_str:000000000000bb69 .LASF3682
     /tmp/ccCwMAmf.s:94772  .debug_str:0000000000017c20 .LASF3683
     /tmp/ccCwMAmf.s:89896  .debug_str:000000000000414f .LASF3684
     /tmp/ccCwMAmf.s:98502  .debug_str:0000000000027476 .LASF3685
     /tmp/ccCwMAmf.s:108192  .debug_str:000000000004f5ab .LASF3686
     /tmp/ccCwMAmf.s:103308  .debug_str:000000000003a9a9 .LASF3687
     /tmp/ccCwMAmf.s:94304  .debug_str:0000000000015ce3 .LASF3688
     /tmp/ccCwMAmf.s:98934  .debug_str:00000000000292d8 .LASF3689
     /tmp/ccCwMAmf.s:97480  .debug_str:000000000002369c .LASF3690
     /tmp/ccCwMAmf.s:90268  .debug_str:0000000000005b19 .LASF3691
     /tmp/ccCwMAmf.s:92886  .debug_str:000000000001039e .LASF3692
     /tmp/ccCwMAmf.s:97986  .debug_str:00000000000255c2 .LASF3693
     /tmp/ccCwMAmf.s:98838  .debug_str:0000000000028baf .LASF3694
     /tmp/ccCwMAmf.s:96052  .debug_str:000000000001d2e9 .LASF3695
     /tmp/ccCwMAmf.s:96346  .debug_str:000000000001e802 .LASF3696
     /tmp/ccCwMAmf.s:102722  .debug_str:0000000000038877 .LASF3697
     /tmp/ccCwMAmf.s:106302  .debug_str:000000000004755d .LASF3698
     /tmp/ccCwMAmf.s:91806  .debug_str:000000000000c3c1 .LASF3699
     /tmp/ccCwMAmf.s:103410  .debug_str:000000000003b12a .LASF3700
     /tmp/ccCwMAmf.s:97208  .debug_str:0000000000022470 .LASF3701
     /tmp/ccCwMAmf.s:90382  .debug_str:000000000000622a .LASF3702
     /tmp/ccCwMAmf.s:106406  .debug_str:0000000000047c97 .LASF3703
     /tmp/ccCwMAmf.s:93478  .debug_str:00000000000127a6 .LASF3704
     /tmp/ccCwMAmf.s:105668  .debug_str:0000000000044c35 .LASF3705
     /tmp/ccCwMAmf.s:94488  .debug_str:0000000000016866 .LASF3706
     /tmp/ccCwMAmf.s:98368  .debug_str:0000000000026c89 .LASF3707
     /tmp/ccCwMAmf.s:92106  .debug_str:000000000000d7bd .LASF3708
     /tmp/ccCwMAmf.s:98512  .debug_str:0000000000027545 .LASF3709
     /tmp/ccCwMAmf.s:89216  .debug_str:0000000000001234 .LASF3710
     /tmp/ccCwMAmf.s:102262  .debug_str:0000000000036bdc .LASF3711
     /tmp/ccCwMAmf.s:92148  .debug_str:000000000000da6b .LASF3712
     /tmp/ccCwMAmf.s:101870  .debug_str:0000000000035034 .LASF3713
     /tmp/ccCwMAmf.s:93490  .debug_str:00000000000128b5 .LASF3714
     /tmp/ccCwMAmf.s:93974  .debug_str:000000000001488b .LASF3715
     /tmp/ccCwMAmf.s:101424  .debug_str:0000000000033233 .LASF3716
     /tmp/ccCwMAmf.s:101410  .debug_str:000000000003313e .LASF3717
     /tmp/ccCwMAmf.s:102232  .debug_str:00000000000369ac .LASF3718
     /tmp/ccCwMAmf.s:90618  .debug_str:000000000000735b .LASF3719
     /tmp/ccCwMAmf.s:90966  .debug_str:0000000000008a28 .LASF3720
     /tmp/ccCwMAmf.s:90892  .debug_str:000000000000850b .LASF3721
     /tmp/ccCwMAmf.s:93694  .debug_str:0000000000013742 .LASF3722
     /tmp/ccCwMAmf.s:105360  .debug_str:00000000000437da .LASF3723
     /tmp/ccCwMAmf.s:101906  .debug_str:00000000000352f6 .LASF3724
     /tmp/ccCwMAmf.s:108030  .debug_str:000000000004eaad .LASF3725
     /tmp/ccCwMAmf.s:96584  .debug_str:000000000001f8e1 .LASF3726
     /tmp/ccCwMAmf.s:95766  .debug_str:000000000001beb9 .LASF3727
     /tmp/ccCwMAmf.s:96212  .debug_str:000000000001de9c .LASF3728
     /tmp/ccCwMAmf.s:101388  .debug_str:0000000000032fc4 .LASF3729
     /tmp/ccCwMAmf.s:97346  .debug_str:0000000000022d1f .LASF3730
     /tmp/ccCwMAmf.s:93398  .debug_str:0000000000012323 .LASF3731
     /tmp/ccCwMAmf.s:91286  .debug_str:0000000000009fbc .LASF3732
     /tmp/ccCwMAmf.s:98706  .debug_str:00000000000281f2 .LASF3733
     /tmp/ccCwMAmf.s:89262  .debug_str:0000000000001526 .LASF3734
     /tmp/ccCwMAmf.s:89308  .debug_str:0000000000001941 .LASF3735
     /tmp/ccCwMAmf.s:101836  .debug_str:0000000000034dd5 .LASF3736
     /tmp/ccCwMAmf.s:106186  .debug_str:0000000000046db8 .LASF3737
     /tmp/ccCwMAmf.s:100000  .debug_str:000000000002d4c5 .LASF3738
     /tmp/ccCwMAmf.s:93774  .debug_str:0000000000013c29 .LASF3739
     /tmp/ccCwMAmf.s:93288  .debug_str:0000000000011b95 .LASF3740
     /tmp/ccCwMAmf.s:92574  .debug_str:000000000000f101 .LASF3741
     /tmp/ccCwMAmf.s:101610  .debug_str:0000000000033ebe .LASF3742
     /tmp/ccCwMAmf.s:100892  .debug_str:0000000000030f9b .LASF3743
     /tmp/ccCwMAmf.s:90498  .debug_str:0000000000006a24 .LASF3744
     /tmp/ccCwMAmf.s:100288  .debug_str:000000000002e7d3 .LASF3745
     /tmp/ccCwMAmf.s:101622  .debug_str:0000000000033f36 .LASF3746
     /tmp/ccCwMAmf.s:104060  .debug_str:000000000003ddd6 .LASF3747
     /tmp/ccCwMAmf.s:97046  .debug_str:0000000000021896 .LASF3748
     /tmp/ccCwMAmf.s:101530  .debug_str:00000000000339af .LASF3750
     /tmp/ccCwMAmf.s:105122  .debug_str:0000000000042818 .LASF3751
     /tmp/ccCwMAmf.s:104536  .debug_str:000000000003fba5 .LASF3752
     /tmp/ccCwMAmf.s:100620  .debug_str:000000000002fe6f .LASF3753
     /tmp/ccCwMAmf.s:100250  .debug_str:000000000002e516 .LASF3754
     /tmp/ccCwMAmf.s:100502  .debug_str:000000000002f6b0 .LASF3755
     /tmp/ccCwMAmf.s:98266  .debug_str:000000000002656c .LASF3756
     /tmp/ccCwMAmf.s:104064  .debug_str:000000000003de36 .LASF3757
     /tmp/ccCwMAmf.s:90030  .debug_str:0000000000004b3a .LASF3758
     /tmp/ccCwMAmf.s:107226  .debug_str:000000000004b32e .LASF3759
     /tmp/ccCwMAmf.s:97900  .debug_str:000000000002515c .LASF3760
     /tmp/ccCwMAmf.s:95600  .debug_str:000000000001b34b .LASF3761
     /tmp/ccCwMAmf.s:97642  .debug_str:000000000002416e .LASF3762
     /tmp/ccCwMAmf.s:107926  .debug_str:000000000004e418 .LASF3763
     /tmp/ccCwMAmf.s:106506  .debug_str:00000000000482f8 .LASF3764
     /tmp/ccCwMAmf.s:100860  .debug_str:0000000000030dd1 .LASF3765
     /tmp/ccCwMAmf.s:103616  .debug_str:000000000003bf76 .LASF3766
     /tmp/ccCwMAmf.s:107422  .debug_str:000000000004c03a .LASF3767
     /tmp/ccCwMAmf.s:93470  .debug_str:0000000000012712 .LASF3768
     /tmp/ccCwMAmf.s:103388  .debug_str:000000000003af8e .LASF3769
     /tmp/ccCwMAmf.s:98284  .debug_str:000000000002667a .LASF3770
     /tmp/ccCwMAmf.s:103314  .debug_str:000000000003aa46 .LASF3771
     /tmp/ccCwMAmf.s:89668  .debug_str:0000000000003244 .LASF3772
     /tmp/ccCwMAmf.s:96192  .debug_str:000000000001dd47 .LASF3773
     /tmp/ccCwMAmf.s:101180  .debug_str:00000000000321b3 .LASF3774
     /tmp/ccCwMAmf.s:93792  .debug_str:0000000000013d2b .LASF3775
     /tmp/ccCwMAmf.s:90090  .debug_str:0000000000004f35 .LASF3776
     /tmp/ccCwMAmf.s:100884  .debug_str:0000000000030ef0 .LASF3777
     /tmp/ccCwMAmf.s:94460  .debug_str:000000000001662c .LASF3778
     /tmp/ccCwMAmf.s:93120  .debug_str:000000000001109f .LASF3779
     /tmp/ccCwMAmf.s:101630  .debug_str:0000000000033fc7 .LASF3780
     /tmp/ccCwMAmf.s:90328  .debug_str:0000000000005f0e .LASF3781
     /tmp/ccCwMAmf.s:106124  .debug_str:000000000004692e .LASF3782
     /tmp/ccCwMAmf.s:106886  .debug_str:0000000000049bdb .LASF3783
     /tmp/ccCwMAmf.s:93730  .debug_str:000000000001399a .LASF3784
     /tmp/ccCwMAmf.s:103960  .debug_str:000000000003d674 .LASF3785
     /tmp/ccCwMAmf.s:99092  .debug_str:0000000000029c52 .LASF3786
     /tmp/ccCwMAmf.s:99262  .debug_str:000000000002a75c .LASF3787
     /tmp/ccCwMAmf.s:107794  .debug_str:000000000004daca .LASF3788
     /tmp/ccCwMAmf.s:103358  .debug_str:000000000003ad90 .LASF3789
     /tmp/ccCwMAmf.s:92902  .debug_str:0000000000010483 .LASF3790
     /tmp/ccCwMAmf.s:107784  .debug_str:000000000004d9f3 .LASF3791
     /tmp/ccCwMAmf.s:104814  .debug_str:0000000000040f28 .LASF3792
     /tmp/ccCwMAmf.s:89350  .debug_str:0000000000001c42 .LASF3793
     /tmp/ccCwMAmf.s:96544  .debug_str:000000000001f5ff .LASF3794
     /tmp/ccCwMAmf.s:92566  .debug_str:000000000000f068 .LASF3795
     /tmp/ccCwMAmf.s:94032  .debug_str:0000000000014bc0 .LASF3796
     /tmp/ccCwMAmf.s:89846  .debug_str:0000000000003dda .LASF3797
     /tmp/ccCwMAmf.s:106418  .debug_str:0000000000047d89 .LASF3798
     /tmp/ccCwMAmf.s:100324  .debug_str:000000000002eaa6 .LASF3799
     /tmp/ccCwMAmf.s:100840  .debug_str:0000000000030c80 .LASF3800
     /tmp/ccCwMAmf.s:106846  .debug_str:00000000000498fd .LASF3801
     /tmp/ccCwMAmf.s:107824  .debug_str:000000000004dd1f .LASF3802
     /tmp/ccCwMAmf.s:99460  .debug_str:000000000002b44a .LASF3803
     /tmp/ccCwMAmf.s:95838  .debug_str:000000000001c4a3 .LASF3804
     /tmp/ccCwMAmf.s:96120  .debug_str:000000000001d78d .LASF3805
     /tmp/ccCwMAmf.s:107040  .debug_str:000000000004a589 .LASF3806
     /tmp/ccCwMAmf.s:108108  .debug_str:000000000004f008 .LASF3807
     /tmp/ccCwMAmf.s:99758  .debug_str:000000000002c645 .LASF3808
     /tmp/ccCwMAmf.s:100636  .debug_str:000000000002ff52 .LASF3809
     /tmp/ccCwMAmf.s:101446  .debug_str:00000000000333f5 .LASF3810
     /tmp/ccCwMAmf.s:90032  .debug_str:0000000000004b6f .LASF3811
     /tmp/ccCwMAmf.s:102962  .debug_str:00000000000394c6 .LASF3812
     /tmp/ccCwMAmf.s:104712  .debug_str:0000000000040694 .LASF3813
     /tmp/ccCwMAmf.s:107474  .debug_str:000000000004c3b4 .LASF3814
     /tmp/ccCwMAmf.s:100716  .debug_str:0000000000030421 .LASF3815
     /tmp/ccCwMAmf.s:107830  .debug_str:000000000004dd7f .LASF3816
     /tmp/ccCwMAmf.s:105774  .debug_str:0000000000045293 .LASF3817
     /tmp/ccCwMAmf.s:105028  .debug_str:00000000000420fb .LASF3818
     /tmp/ccCwMAmf.s:101004  .debug_str:00000000000316dd .LASF3819
     /tmp/ccCwMAmf.s:92334  .debug_str:000000000000e45a .LASF3820
     /tmp/ccCwMAmf.s:103228  .debug_str:000000000003a431 .LASF3821
     /tmp/ccCwMAmf.s:99354  .debug_str:000000000002acf8 .LASF3822
     /tmp/ccCwMAmf.s:99320  .debug_str:000000000002aad2 .LASF3823
     /tmp/ccCwMAmf.s:100982  .debug_str:00000000000314f1 .LASF3824
     /tmp/ccCwMAmf.s:90804  .debug_str:0000000000007f09 .LASF3825
     /tmp/ccCwMAmf.s:96604  .debug_str:000000000001fa06 .LASF3826
     /tmp/ccCwMAmf.s:90076  .debug_str:0000000000004e79 .LASF3827
     /tmp/ccCwMAmf.s:103198  .debug_str:000000000003a1fe .LASF3828
     /tmp/ccCwMAmf.s:107908  .debug_str:000000000004e2cc .LASF3829
     /tmp/ccCwMAmf.s:102874  .debug_str:0000000000039057 .LASF3830
     /tmp/ccCwMAmf.s:100904  .debug_str:0000000000031038 .LASF3831
     /tmp/ccCwMAmf.s:95088  .debug_str:0000000000018f59 .LASF3832
     /tmp/ccCwMAmf.s:97164  .debug_str:00000000000220b4 .LASF3833
     /tmp/ccCwMAmf.s:102332  .debug_str:0000000000037028 .LASF3834
     /tmp/ccCwMAmf.s:103128  .debug_str:0000000000039d92 .LASF3835
     /tmp/ccCwMAmf.s:89872  .debug_str:0000000000003fba .LASF3836
     /tmp/ccCwMAmf.s:105336  .debug_str:0000000000043601 .LASF3837
     /tmp/ccCwMAmf.s:99062  .debug_str:0000000000029a3d .LASF3838
     /tmp/ccCwMAmf.s:98900  .debug_str:000000000002903f .LASF3839
     /tmp/ccCwMAmf.s:106448  .debug_str:0000000000047f5d .LASF3840
     /tmp/ccCwMAmf.s:107994  .debug_str:000000000004e89e .LASF3841
     /tmp/ccCwMAmf.s:91766  .debug_str:000000000000c189 .LASF3842
     /tmp/ccCwMAmf.s:106888  .debug_str:0000000000049bed .LASF3843
     /tmp/ccCwMAmf.s:99652  .debug_str:000000000002c074 .LASF3844
     /tmp/ccCwMAmf.s:107698  .debug_str:000000000004d31d .LASF3845
     /tmp/ccCwMAmf.s:100750  .debug_str:00000000000306dc .LASF3846
     /tmp/ccCwMAmf.s:108234  .debug_str:000000000004f87f .LASF3847
     /tmp/ccCwMAmf.s:95842  .debug_str:000000000001c4f4 .LASF3848
     /tmp/ccCwMAmf.s:92714  .debug_str:000000000000f970 .LASF3849
     /tmp/ccCwMAmf.s:92204  .debug_str:000000000000dceb .LASF3850
     /tmp/ccCwMAmf.s:94122  .debug_str:00000000000150df .LASF3851
     /tmp/ccCwMAmf.s:93928  .debug_str:000000000001456a .LASF3852
     /tmp/ccCwMAmf.s:96964  .debug_str:00000000000212e1 .LASF3853
     /tmp/ccCwMAmf.s:97236  .debug_str:0000000000022570 .LASF3854
     /tmp/ccCwMAmf.s:89030  .debug_str:00000000000005d6 .LASF3855
     /tmp/ccCwMAmf.s:99042  .debug_str:000000000002992e .LASF3856
     /tmp/ccCwMAmf.s:106046  .debug_str:00000000000464b5 .LASF3857
     /tmp/ccCwMAmf.s:105526  .debug_str:000000000004425c .LASF3858
     /tmp/ccCwMAmf.s:106264  .debug_str:00000000000472bd .LASF3859
     /tmp/ccCwMAmf.s:103838  .debug_str:000000000003ce96 .LASF3860
     /tmp/ccCwMAmf.s:102188  .debug_str:000000000003669c .LASF3861
     /tmp/ccCwMAmf.s:106892  .debug_str:0000000000049c11 .LASF3862
     /tmp/ccCwMAmf.s:102346  .debug_str:0000000000037146 .LASF3863
     /tmp/ccCwMAmf.s:105006  .debug_str:0000000000041f63 .LASF3864
     /tmp/ccCwMAmf.s:91144  .debug_str:0000000000009618 .LASF3865
     /tmp/ccCwMAmf.s:89860  .debug_str:0000000000003eb8 .LASF3866
     /tmp/ccCwMAmf.s:106606  .debug_str:0000000000048932 .LASF3867
     /tmp/ccCwMAmf.s:94672  .debug_str:0000000000017490 .LASF3868
     /tmp/ccCwMAmf.s:105574  .debug_str:00000000000445d0 .LASF3869
     /tmp/ccCwMAmf.s:103158  .debug_str:0000000000039f06 .LASF3870
     /tmp/ccCwMAmf.s:94652  .debug_str:0000000000017333 .LASF3871
     /tmp/ccCwMAmf.s:102934  .debug_str:0000000000039315 .LASF3872
     /tmp/ccCwMAmf.s:95602  .debug_str:000000000001b36e .LASF3873
     /tmp/ccCwMAmf.s:91338  .debug_str:000000000000a344 .LASF3874
     /tmp/ccCwMAmf.s:92150  .debug_str:000000000000da8a .LASF3875
     /tmp/ccCwMAmf.s:105376  .debug_str:00000000000438e4 .LASF3876
     /tmp/ccCwMAmf.s:104130  .debug_str:000000000003e2d3 .LASF3877
     /tmp/ccCwMAmf.s:90318  .debug_str:0000000000005e22 .LASF3878
     /tmp/ccCwMAmf.s:100992  .debug_str:00000000000315c2 .LASF3879
     /tmp/ccCwMAmf.s:108038  .debug_str:000000000004eb28 .LASF3880
     /tmp/ccCwMAmf.s:98620  .debug_str:0000000000027cb3 .LASF3881
     /tmp/ccCwMAmf.s:100596  .debug_str:000000000002fcb5 .LASF3882
     /tmp/ccCwMAmf.s:100346  .debug_str:000000000002ec02 .LASF3883
     /tmp/ccCwMAmf.s:98020  .debug_str:000000000002582b .LASF3884
     /tmp/ccCwMAmf.s:102054  .debug_str:0000000000035e07 .LASF3885
     /tmp/ccCwMAmf.s:105014  .debug_str:0000000000042002 .LASF3886
     /tmp/ccCwMAmf.s:93244  .debug_str:00000000000118a0 .LASF3887
     /tmp/ccCwMAmf.s:94044  .debug_str:0000000000014c1d .LASF3888
     /tmp/ccCwMAmf.s:104416  .debug_str:000000000003f434 .LASF3889
     /tmp/ccCwMAmf.s:92022  .debug_str:000000000000d2cb .LASF3890
     /tmp/ccCwMAmf.s:106462  .debug_str:0000000000048050 .LASF3891
     /tmp/ccCwMAmf.s:95650  .debug_str:000000000001b67d .LASF3892
     /tmp/ccCwMAmf.s:93864  .debug_str:0000000000014181 .LASF3893
     /tmp/ccCwMAmf.s:103310  .debug_str:000000000003a9f4 .LASF3894
     /tmp/ccCwMAmf.s:97448  .debug_str:00000000000233db .LASF3895
     /tmp/ccCwMAmf.s:105332  .debug_str:00000000000435ca .LASF3896
     /tmp/ccCwMAmf.s:101324  .debug_str:0000000000032bf9 .LASF3897
     /tmp/ccCwMAmf.s:92158  .debug_str:000000000000db16 .LASF3898
     /tmp/ccCwMAmf.s:100570  .debug_str:000000000002fadf .LASF3899
     /tmp/ccCwMAmf.s:93976  .debug_str:00000000000148ab .LASF3900
     /tmp/ccCwMAmf.s:97444  .debug_str:00000000000233b2 .LASF3901
     /tmp/ccCwMAmf.s:106218  .debug_str:0000000000046f66 .LASF3902
     /tmp/ccCwMAmf.s:100262  .debug_str:000000000002e603 .LASF3903
     /tmp/ccCwMAmf.s:92312  .debug_str:000000000000e2ff .LASF3904
     /tmp/ccCwMAmf.s:108264  .debug_str:000000000004fa9d .LASF3905
     /tmp/ccCwMAmf.s:94708  .debug_str:000000000001777a .LASF3906
     /tmp/ccCwMAmf.s:100514  .debug_str:000000000002f785 .LASF3907
     /tmp/ccCwMAmf.s:93456  .debug_str:0000000000012678 .LASF3908
     /tmp/ccCwMAmf.s:92982  .debug_str:00000000000108db .LASF3909
     /tmp/ccCwMAmf.s:90646  .debug_str:0000000000007514 .LASF3910
     /tmp/ccCwMAmf.s:100670  .debug_str:0000000000030125 .LASF3911
     /tmp/ccCwMAmf.s:99538  .debug_str:000000000002b95b .LASF3912
     /tmp/ccCwMAmf.s:107996  .debug_str:000000000004e8b5 .LASF3913
     /tmp/ccCwMAmf.s:107486  .debug_str:000000000004c458 .LASF3914
     /tmp/ccCwMAmf.s:105996  .debug_str:00000000000461a8 .LASF3915
     /tmp/ccCwMAmf.s:100984  .debug_str:0000000000031508 .LASF3916
     /tmp/ccCwMAmf.s:96198  .debug_str:000000000001ddcc .LASF3917
     /tmp/ccCwMAmf.s:92728  .debug_str:000000000000fa83 .LASF3918
     /tmp/ccCwMAmf.s:103726  .debug_str:000000000003c7bd .LASF3919
     /tmp/ccCwMAmf.s:96574  .debug_str:000000000001f82f .LASF3920
     /tmp/ccCwMAmf.s:97594  .debug_str:0000000000023e17 .LASF3921
     /tmp/ccCwMAmf.s:96060  .debug_str:000000000001d3aa .LASF3922
     /tmp/ccCwMAmf.s:97678  .debug_str:00000000000243c2 .LASF3923
     /tmp/ccCwMAmf.s:89718  .debug_str:000000000000356b .LASF3924
     /tmp/ccCwMAmf.s:103722  .debug_str:000000000003c792 .LASF3925
     /tmp/ccCwMAmf.s:101228  .debug_str:000000000003257a .LASF3926
     /tmp/ccCwMAmf.s:106698  .debug_str:0000000000048f9c .LASF3927
     /tmp/ccCwMAmf.s:103462  .debug_str:000000000003b559 .LASF3928
     /tmp/ccCwMAmf.s:98150  .debug_str:0000000000025dfe .LASF3929
     /tmp/ccCwMAmf.s:99672  .debug_str:000000000002c173 .LASF3930
     /tmp/ccCwMAmf.s:91892  .debug_str:000000000000c9c4 .LASF3931
     /tmp/ccCwMAmf.s:101414  .debug_str:000000000003318c .LASF3932
     /tmp/ccCwMAmf.s:100882  .debug_str:0000000000030ee3 .LASF3933
     /tmp/ccCwMAmf.s:100500  .debug_str:000000000002f6a1 .LASF3934
     /tmp/ccCwMAmf.s:99078  .debug_str:0000000000029b5f .LASF3935
     /tmp/ccCwMAmf.s:98698  .debug_str:000000000002819b .LASF3936
     /tmp/ccCwMAmf.s:93522  .debug_str:0000000000012b0c .LASF3937
     /tmp/ccCwMAmf.s:98068  .debug_str:0000000000025a22 .LASF3938
     /tmp/ccCwMAmf.s:103134  .debug_str:0000000000039dd3 .LASF3939
     /tmp/ccCwMAmf.s:91614  .debug_str:000000000000b651 .LASF3940
     /tmp/ccCwMAmf.s:97896  .debug_str:0000000000025131 .LASF3941
     /tmp/ccCwMAmf.s:98416  .debug_str:0000000000026f96 .LASF3942
     /tmp/ccCwMAmf.s:105412  .debug_str:0000000000043b26 .LASF3943
     /tmp/ccCwMAmf.s:106060  .debug_str:0000000000046560 .LASF3944
     /tmp/ccCwMAmf.s:94030  .debug_str:0000000000014bb4 .LASF3945
     /tmp/ccCwMAmf.s:101706  .debug_str:000000000003446a .LASF3946
     /tmp/ccCwMAmf.s:106596  .debug_str:0000000000048896 .LASF3947
     /tmp/ccCwMAmf.s:94930  .debug_str:00000000000185f4 .LASF3948
     /tmp/ccCwMAmf.s:95532  .debug_str:000000000001af1b .LASF3949
     /tmp/ccCwMAmf.s:94922  .debug_str:0000000000018589 .LASF3950
     /tmp/ccCwMAmf.s:97742  .debug_str:0000000000024827 .LASF3951
     /tmp/ccCwMAmf.s:96338  .debug_str:000000000001e774 .LASF3952
     /tmp/ccCwMAmf.s:102218  .debug_str:00000000000368d7 .LASF3953
     /tmp/ccCwMAmf.s:89132  .debug_str:0000000000000c74 .LASF3954
     /tmp/ccCwMAmf.s:106572  .debug_str:0000000000048723 .LASF3955
     /tmp/ccCwMAmf.s:100350  .debug_str:000000000002ec5e .LASF3956
     /tmp/ccCwMAmf.s:92942  .debug_str:0000000000010651 .LASF3957
     /tmp/ccCwMAmf.s:90426  .debug_str:0000000000006546 .LASF3958
     /tmp/ccCwMAmf.s:105594  .debug_str:00000000000446e1 .LASF3959
     /tmp/ccCwMAmf.s:95192  .debug_str:00000000000196fc .LASF3960
     /tmp/ccCwMAmf.s:90230  .debug_str:0000000000005864 .LASF3961
     /tmp/ccCwMAmf.s:106668  .debug_str:0000000000048d4a .LASF3962
     /tmp/ccCwMAmf.s:94450  .debug_str:000000000001657d .LASF3963
     /tmp/ccCwMAmf.s:107350  .debug_str:000000000004bba7 .LASF3964
     /tmp/ccCwMAmf.s:97516  .debug_str:0000000000023902 .LASF3965
     /tmp/ccCwMAmf.s:106612  .debug_str:0000000000048990 .LASF3966
     /tmp/ccCwMAmf.s:105514  .debug_str:000000000004417c .LASF3967
     /tmp/ccCwMAmf.s:97348  .debug_str:0000000000022d44 .LASF3968
     /tmp/ccCwMAmf.s:101804  .debug_str:0000000000034c33 .LASF3969
     /tmp/ccCwMAmf.s:92324  .debug_str:000000000000e394 .LASF3970
     /tmp/ccCwMAmf.s:99600  .debug_str:000000000002bc51 .LASF3971
     /tmp/ccCwMAmf.s:92562  .debug_str:000000000000efe6 .LASF3972
     /tmp/ccCwMAmf.s:104830  .debug_str:00000000000410b4 .LASF3973
     /tmp/ccCwMAmf.s:101766  .debug_str:00000000000348b7 .LASF3974
     /tmp/ccCwMAmf.s:99452  .debug_str:000000000002b31e .LASF3975
     /tmp/ccCwMAmf.s:106938  .debug_str:0000000000049f5a .LASF3976
     /tmp/ccCwMAmf.s:91676  .debug_str:000000000000bb11 .LASF3977
     /tmp/ccCwMAmf.s:100368  .debug_str:000000000002ed89 .LASF3978
     /tmp/ccCwMAmf.s:106304  .debug_str:000000000004757b .LASF3979
     /tmp/ccCwMAmf.s:101696  .debug_str:00000000000343e9 .LASF3980
     /tmp/ccCwMAmf.s:95038  .debug_str:0000000000018baf .LASF3981
     /tmp/ccCwMAmf.s:89166  .debug_str:0000000000000ecd .LASF3982
     /tmp/ccCwMAmf.s:106548  .debug_str:00000000000485e5 .LASF3983
     /tmp/ccCwMAmf.s:107106  .debug_str:000000000004aa92 .LASF3984
     /tmp/ccCwMAmf.s:93040  .debug_str:0000000000010baa .LASF3985
     /tmp/ccCwMAmf.s:102040  .debug_str:0000000000035d02 .LASF3986
     /tmp/ccCwMAmf.s:91090  .debug_str:000000000000926a .LASF3987
     /tmp/ccCwMAmf.s:103146  .debug_str:0000000000039e67 .LASF3988
     /tmp/ccCwMAmf.s:93384  .debug_str:0000000000012223 .LASF3989
     /tmp/ccCwMAmf.s:93042  .debug_str:0000000000010bba .LASF3990
     /tmp/ccCwMAmf.s:90998  .debug_str:0000000000008c5d .LASF3991
     /tmp/ccCwMAmf.s:95844  .debug_str:000000000001c50b .LASF3992
     /tmp/ccCwMAmf.s:97342  .debug_str:0000000000022cc8 .LASF3993
     /tmp/ccCwMAmf.s:95664  .debug_str:000000000001b775 .LASF3994
     /tmp/ccCwMAmf.s:97410  .debug_str:00000000000230ec .LASF3995
     /tmp/ccCwMAmf.s:102254  .debug_str:0000000000036b59 .LASF3996
     /tmp/ccCwMAmf.s:91822  .debug_str:000000000000c4ce .LASF3997
     /tmp/ccCwMAmf.s:108064  .debug_str:000000000004ed6d .LASF3998
     /tmp/ccCwMAmf.s:100900  .debug_str:0000000000031008 .LASF3999
     /tmp/ccCwMAmf.s:98088  .debug_str:0000000000025b8c .LASF4000
     /tmp/ccCwMAmf.s:104848  .debug_str:0000000000041246 .LASF4001
     /tmp/ccCwMAmf.s:90058  .debug_str:0000000000004d22 .LASF4002
     /tmp/ccCwMAmf.s:98388  .debug_str:0000000000026df9 .LASF4003
     /tmp/ccCwMAmf.s:96558  .debug_str:000000000001f744 .LASF4004
     /tmp/ccCwMAmf.s:94300  .debug_str:0000000000015cc0 .LASF4005
     /tmp/ccCwMAmf.s:107424  .debug_str:000000000004c05f .LASF4006
     /tmp/ccCwMAmf.s:101746  .debug_str:0000000000034778 .LASF4007
     /tmp/ccCwMAmf.s:101034  .debug_str:00000000000318ba .LASF4008
     /tmp/ccCwMAmf.s:94438  .debug_str:0000000000016521 .LASF4009
     /tmp/ccCwMAmf.s:90622  .debug_str:00000000000073be .LASF4010
     /tmp/ccCwMAmf.s:95864  .debug_str:000000000001c62c .LASF4011
     /tmp/ccCwMAmf.s:95498  .debug_str:000000000001acbe .LASF4012
     /tmp/ccCwMAmf.s:90740  .debug_str:0000000000007b0e .LASF4013
     /tmp/ccCwMAmf.s:94640  .debug_str:000000000001721c .LASF4014
     /tmp/ccCwMAmf.s:104138  .debug_str:000000000003e330 .LASF4015
     /tmp/ccCwMAmf.s:96592  .debug_str:000000000001f96a .LASF4016
     /tmp/ccCwMAmf.s:97374  .debug_str:0000000000022ee5 .LASF4017
     /tmp/ccCwMAmf.s:95912  .debug_str:000000000001ca18 .LASF4018
     /tmp/ccCwMAmf.s:98162  .debug_str:0000000000025ef0 .LASF4019
     /tmp/ccCwMAmf.s:99474  .debug_str:000000000002b520 .LASF4020
     /tmp/ccCwMAmf.s:103622  .debug_str:000000000003bfe5 .LASF4021
     /tmp/ccCwMAmf.s:106322  .debug_str:0000000000047696 .LASF4022
     /tmp/ccCwMAmf.s:98238  .debug_str:00000000000263b6 .LASF4023
     /tmp/ccCwMAmf.s:99916  .debug_str:000000000002cfdf .LASF4024
     /tmp/ccCwMAmf.s:105850  .debug_str:0000000000045808 .LASF4025
     /tmp/ccCwMAmf.s:98206  .debug_str:00000000000261ee .LASF4026
     /tmp/ccCwMAmf.s:107608  .debug_str:000000000004cd9a .LASF4027
     /tmp/ccCwMAmf.s:91924  .debug_str:000000000000cc4b .LASF4028
     /tmp/ccCwMAmf.s:97440  .debug_str:0000000000023354 .LASF4029
     /tmp/ccCwMAmf.s:96020  .debug_str:000000000001d0fe .LASF4030
     /tmp/ccCwMAmf.s:103808  .debug_str:000000000003ccce .LASF4031
     /tmp/ccCwMAmf.s:107880  .debug_str:000000000004e0b8 .LASF4032
     /tmp/ccCwMAmf.s:96516  .debug_str:000000000001f3dc .LASF4033
     /tmp/ccCwMAmf.s:106040  .debug_str:000000000004642d .LASF4034
     /tmp/ccCwMAmf.s:103498  .debug_str:000000000003b767 .LASF4035
     /tmp/ccCwMAmf.s:105036  .debug_str:000000000004217d .LASF4036
     /tmp/ccCwMAmf.s:107958  .debug_str:000000000004e642 .LASF4037
     /tmp/ccCwMAmf.s:108068  .debug_str:000000000004ed9a .LASF4038
     /tmp/ccCwMAmf.s:91972  .debug_str:000000000000cee0 .LASF4039
     /tmp/ccCwMAmf.s:105710  .debug_str:0000000000044ed8 .LASF4040
     /tmp/ccCwMAmf.s:104706  .debug_str:000000000004064b .LASF4041
     /tmp/ccCwMAmf.s:89412  .debug_str:00000000000020d6 .LASF4042
     /tmp/ccCwMAmf.s:90428  .debug_str:0000000000006552 .LASF4043
     /tmp/ccCwMAmf.s:91508  .debug_str:000000000000af01 .LASF4044
     /tmp/ccCwMAmf.s:101478  .debug_str:0000000000033648 .LASF4045
     /tmp/ccCwMAmf.s:94158  .debug_str:000000000001536f .LASF4046
     /tmp/ccCwMAmf.s:99688  .debug_str:000000000002c279 .LASF4047
     /tmp/ccCwMAmf.s:106598  .debug_str:00000000000488ac .LASF4048
     /tmp/ccCwMAmf.s:105724  .debug_str:0000000000044fa8 .LASF4049
     /tmp/ccCwMAmf.s:96504  .debug_str:000000000001f30e .LASF4050
     /tmp/ccCwMAmf.s:95936  .debug_str:000000000001cb9e .LASF4051
     /tmp/ccCwMAmf.s:99472  .debug_str:000000000002b50e .LASF4052
     /tmp/ccCwMAmf.s:106752  .debug_str:000000000004932c .LASF4053
     /tmp/ccCwMAmf.s:89480  .debug_str:0000000000002552 .LASF4054
     /tmp/ccCwMAmf.s:101826  .debug_str:0000000000034d17 .LASF4055
     /tmp/ccCwMAmf.s:106206  .debug_str:0000000000046f01 .LASF4056
     /tmp/ccCwMAmf.s:96018  .debug_str:000000000001d0ef .LASF4057
     /tmp/ccCwMAmf.s:105520  .debug_str:0000000000044209 .LASF4058
     /tmp/ccCwMAmf.s:92056  .debug_str:000000000000d4a8 .LASF4059
     /tmp/ccCwMAmf.s:101496  .debug_str:0000000000033753 .LASF4060
     /tmp/ccCwMAmf.s:96242  .debug_str:000000000001e0e2 .LASF4061
     /tmp/ccCwMAmf.s:96312  .debug_str:000000000001e5fa .LASF4062
     /tmp/ccCwMAmf.s:97234  .debug_str:0000000000022561 .LASF4063
     /tmp/ccCwMAmf.s:102260  .debug_str:0000000000036bcb .LASF4064
     /tmp/ccCwMAmf.s:95020  .debug_str:0000000000018b14 .LASF4065
     /tmp/ccCwMAmf.s:102880  .debug_str:00000000000390a4 .LASF4066
     /tmp/ccCwMAmf.s:96996  .debug_str:0000000000021540 .LASF4067
     /tmp/ccCwMAmf.s:99782  .debug_str:000000000002c78d .LASF4068
     /tmp/ccCwMAmf.s:89362  .debug_str:0000000000001d42 .LASF4069
     /tmp/ccCwMAmf.s:100944  .debug_str:00000000000312da .LASF4070
     /tmp/ccCwMAmf.s:101788  .debug_str:0000000000034b2a .LASF4071
     /tmp/ccCwMAmf.s:101546  .debug_str:0000000000033ab8 .LASF4072
     /tmp/ccCwMAmf.s:107328  .debug_str:000000000004ba1c .LASF4073
     /tmp/ccCwMAmf.s:93116  .debug_str:000000000001106e .LASF4074
     /tmp/ccCwMAmf.s:91954  .debug_str:000000000000ce29 .LASF4075
     /tmp/ccCwMAmf.s:91580  .debug_str:000000000000b478 .LASF4076
     /tmp/ccCwMAmf.s:98280  .debug_str:000000000002664f .LASF4077
     /tmp/ccCwMAmf.s:95634  .debug_str:000000000001b5c1 .LASF4078
     /tmp/ccCwMAmf.s:107132  .debug_str:000000000004ac11 .LASF4079
     /tmp/ccCwMAmf.s:93412  .debug_str:00000000000123e1 .LASF4080
     /tmp/ccCwMAmf.s:89338  .debug_str:0000000000001b50 .LASF4081
     /tmp/ccCwMAmf.s:90482  .debug_str:00000000000068e4 .LASF4082
     /tmp/ccCwMAmf.s:100282  .debug_str:000000000002e785 .LASF4083
     /tmp/ccCwMAmf.s:89824  .debug_str:0000000000003c89 .LASF4084
     /tmp/ccCwMAmf.s:106292  .debug_str:00000000000474cc .LASF4085
     /tmp/ccCwMAmf.s:89646  .debug_str:0000000000003131 .LASF4086
     /tmp/ccCwMAmf.s:92038  .debug_str:000000000000d3b0 .LASF4087
     /tmp/ccCwMAmf.s:107556  .debug_str:000000000004c96f .LASF4088
     /tmp/ccCwMAmf.s:98830  .debug_str:0000000000028b1f .LASF4089
     /tmp/ccCwMAmf.s:98660  .debug_str:0000000000027f3c .LASF4090
     /tmp/ccCwMAmf.s:103710  .debug_str:000000000003c6bd .LASF4091
     /tmp/ccCwMAmf.s:95022  .debug_str:0000000000018b24 .LASF4092
     /tmp/ccCwMAmf.s:91054  .debug_str:000000000000902f .LASF4093
     /tmp/ccCwMAmf.s:95408  .debug_str:000000000001a610 .LASF4094
     /tmp/ccCwMAmf.s:97902  .debug_str:0000000000025176 .LASF4095
     /tmp/ccCwMAmf.s:96062  .debug_str:000000000001d3bc .LASF4096
     /tmp/ccCwMAmf.s:93572  .debug_str:0000000000012ed2 .LASF4097
     /tmp/ccCwMAmf.s:97882  .debug_str:0000000000025072 .LASF4098
     /tmp/ccCwMAmf.s:99070  .debug_str:0000000000029aee .LASF4099
     /tmp/ccCwMAmf.s:107594  .debug_str:000000000004cc71 .LASF4100
     /tmp/ccCwMAmf.s:94556  .debug_str:0000000000016cd6 .LASF4101
     /tmp/ccCwMAmf.s:96074  .debug_str:000000000001d49d .LASF4102
     /tmp/ccCwMAmf.s:100522  .debug_str:000000000002f816 .LASF4103
     /tmp/ccCwMAmf.s:99906  .debug_str:000000000002cf4f .LASF4104
     /tmp/ccCwMAmf.s:103280  .debug_str:000000000003a7f3 .LASF4105
     /tmp/ccCwMAmf.s:92136  .debug_str:000000000000d996 .LASF4106
     /tmp/ccCwMAmf.s:100586  .debug_str:000000000002fc07 .LASF4107
     /tmp/ccCwMAmf.s:95958  .debug_str:000000000001cd20 .LASF4108
     /tmp/ccCwMAmf.s:98814  .debug_str:0000000000028a31 .LASF4109
     /tmp/ccCwMAmf.s:100204  .debug_str:000000000002e23f .LASF4110
     /tmp/ccCwMAmf.s:104402  .debug_str:000000000003f379 .LASF4111
     /tmp/ccCwMAmf.s:105148  .debug_str:00000000000429bc .LASF4112
     /tmp/ccCwMAmf.s:104552  .debug_str:000000000003fc8b .LASF4113
     /tmp/ccCwMAmf.s:99490  .debug_str:000000000002b634 .LASF4114
     /tmp/ccCwMAmf.s:103322  .debug_str:000000000003aaf2 .LASF4115
     /tmp/ccCwMAmf.s:90346  .debug_str:0000000000005fd5 .LASF4116
     /tmp/ccCwMAmf.s:97746  .debug_str:000000000002484b .LASF4117
     /tmp/ccCwMAmf.s:107212  .debug_str:000000000004b239 .LASF4118
     /tmp/ccCwMAmf.s:105038  .debug_str:000000000004218e .LASF4119
     /tmp/ccCwMAmf.s:94410  .debug_str:00000000000162ec .LASF4120
     /tmp/ccCwMAmf.s:89090  .debug_str:00000000000009c6 .LASF4121
     /tmp/ccCwMAmf.s:91574  .debug_str:000000000000b404 .LASF4122
     /tmp/ccCwMAmf.s:97260  .debug_str:000000000002270a .LASF4123
     /tmp/ccCwMAmf.s:106064  .debug_str:0000000000046578 .LASF4124
     /tmp/ccCwMAmf.s:95636  .debug_str:000000000001b5d1 .LASF4125
     /tmp/ccCwMAmf.s:90950  .debug_str:0000000000008926 .LASF4126
     /tmp/ccCwMAmf.s:108326  .debug_str:000000000004fe98 .LASF4127
     /tmp/ccCwMAmf.s:102158  .debug_str:00000000000364ec .LASF4128
     /tmp/ccCwMAmf.s:97058  .debug_str:00000000000219d9 .LASF4129
     /tmp/ccCwMAmf.s:96858  .debug_str:0000000000020c25 .LASF4130
     /tmp/ccCwMAmf.s:102504  .debug_str:0000000000037ab5 .LASF4131
     /tmp/ccCwMAmf.s:101082  .debug_str:0000000000031b4c .LASF4132
     /tmp/ccCwMAmf.s:103940  .debug_str:000000000003d4fa .LASF4133
     /tmp/ccCwMAmf.s:98154  .debug_str:0000000000025e3d .LASF4134
     /tmp/ccCwMAmf.s:96358  .debug_str:000000000001e921 .LASF4135
     /tmp/ccCwMAmf.s:100482  .debug_str:000000000002f5ba .LASF4136
     /tmp/ccCwMAmf.s:100416  .debug_str:000000000002f07e .LASF4137
     /tmp/ccCwMAmf.s:106392  .debug_str:0000000000047b66 .LASF4138
     /tmp/ccCwMAmf.s:89554  .debug_str:0000000000002ad6 .LASF4139
     /tmp/ccCwMAmf.s:98062  .debug_str:00000000000259d6 .LASF4140
     /tmp/ccCwMAmf.s:104516  .debug_str:000000000003fa88 .LASF4141
     /tmp/ccCwMAmf.s:100806  .debug_str:0000000000030a8a .LASF4142
     /tmp/ccCwMAmf.s:100386  .debug_str:000000000002ee5c .LASF4143
     /tmp/ccCwMAmf.s:90424  .debug_str:000000000000652b .LASF4144
     /tmp/ccCwMAmf.s:107692  .debug_str:000000000004d275 .LASF4145
     /tmp/ccCwMAmf.s:97862  .debug_str:0000000000024f21 .LASF4146
     /tmp/ccCwMAmf.s:91756  .debug_str:000000000000c0d4 .LASF4147
     /tmp/ccCwMAmf.s:91418  .debug_str:000000000000a8eb .LASF4148
     /tmp/ccCwMAmf.s:95222  .debug_str:0000000000019916 .LASF4149
     /tmp/ccCwMAmf.s:100942  .debug_str:00000000000312c4 .LASF4150
     /tmp/ccCwMAmf.s:93638  .debug_str:00000000000133de .LASF4151
     /tmp/ccCwMAmf.s:90864  .debug_str:00000000000082f0 .LASF4152
     /tmp/ccCwMAmf.s:93584  .debug_str:0000000000012f67 .LASF4153
     /tmp/ccCwMAmf.s:107840  .debug_str:000000000004de39 .LASF4154
     /tmp/ccCwMAmf.s:100110  .debug_str:000000000002dbf2 .LASF4155
     /tmp/ccCwMAmf.s:105386  .debug_str:0000000000043983 .LASF4156
     /tmp/ccCwMAmf.s:103124  .debug_str:0000000000039d57 .LASF4157
     /tmp/ccCwMAmf.s:95172  .debug_str:00000000000195ca .LASF4158
     /tmp/ccCwMAmf.s:101254  .debug_str:0000000000032752 .LASF4159
     /tmp/ccCwMAmf.s:90712  .debug_str:000000000000796e .LASF4160
     /tmp/ccCwMAmf.s:105402  .debug_str:0000000000043a82 .LASF4161
     /tmp/ccCwMAmf.s:90464  .debug_str:00000000000067d3 .LASF4162
     /tmp/ccCwMAmf.s:94630  .debug_str:00000000000171a0 .LASF4163
     /tmp/ccCwMAmf.s:95296  .debug_str:0000000000019e53 .LASF4164
     /tmp/ccCwMAmf.s:100002  .debug_str:000000000002d4ea .LASF4165
     /tmp/ccCwMAmf.s:94854  .debug_str:00000000000180a0 .LASF4166
     /tmp/ccCwMAmf.s:98672  .debug_str:000000000002804e .LASF4167
     /tmp/ccCwMAmf.s:90880  .debug_str:000000000000842a .LASF4168
     /tmp/ccCwMAmf.s:92450  .debug_str:000000000000eacf .LASF4169
     /tmp/ccCwMAmf.s:95000  .debug_str:00000000000189ba .LASF4170
     /tmp/ccCwMAmf.s:99956  .debug_str:000000000002d26c .LASF4171
     /tmp/ccCwMAmf.s:98232  .debug_str:000000000002638e .LASF4172
     /tmp/ccCwMAmf.s:95500  .debug_str:000000000001acd4 .LASF4173
     /tmp/ccCwMAmf.s:90452  .debug_str:0000000000006731 .LASF4174
     /tmp/ccCwMAmf.s:107308  .debug_str:000000000004b8c0 .LASF4175
     /tmp/ccCwMAmf.s:92952  .debug_str:0000000000010715 .LASF4176
     /tmp/ccCwMAmf.s:106540  .debug_str:0000000000048547 .LASF4177
     /tmp/ccCwMAmf.s:99326  .debug_str:000000000002ab21 .LASF4178
     /tmp/ccCwMAmf.s:95658  .debug_str:000000000001b713 .LASF4179
     /tmp/ccCwMAmf.s:94046  .debug_str:0000000000014c3f .LASF4180
     /tmp/ccCwMAmf.s:101582  .debug_str:0000000000033d26 .LASF4181
     /tmp/ccCwMAmf.s:90792  .debug_str:0000000000007e6d .LASF4182
     /tmp/ccCwMAmf.s:100406  .debug_str:000000000002ef90 .LASF4183
     /tmp/ccCwMAmf.s:99388  .debug_str:000000000002afca .LASF4184
     /tmp/ccCwMAmf.s:90362  .debug_str:0000000000006115 .LASF4185
     /tmp/ccCwMAmf.s:94324  .debug_str:0000000000015e18 .LASF4186
     /tmp/ccCwMAmf.s:104950  .debug_str:00000000000418ee .LASF4187
     /tmp/ccCwMAmf.s:107120  .debug_str:000000000004ab56 .LASF4188
     /tmp/ccCwMAmf.s:103470  .debug_str:000000000003b5d0 .LASF4189
     /tmp/ccCwMAmf.s:99044  .debug_str:0000000000029943 .LASF4190
     /tmp/ccCwMAmf.s:100724  .debug_str:00000000000304ce .LASF4191
     /tmp/ccCwMAmf.s:104574  .debug_str:000000000003fde8 .LASF4192
     /tmp/ccCwMAmf.s:107948  .debug_str:000000000004e5ba .LASF4193
     /tmp/ccCwMAmf.s:92318  .debug_str:000000000000e363 .LASF4194
     /tmp/ccCwMAmf.s:94126  .debug_str:000000000001514d .LASF4195
     /tmp/ccCwMAmf.s:99914  .debug_str:000000000002cfc7 .LASF4196
     /tmp/ccCwMAmf.s:97596  .debug_str:0000000000023e29 .LASF4197
     /tmp/ccCwMAmf.s:97984  .debug_str:00000000000255aa .LASF4198
     /tmp/ccCwMAmf.s:97634  .debug_str:00000000000240e6 .LASF4199
     /tmp/ccCwMAmf.s:98722  .debug_str:0000000000028327 .LASF4200
     /tmp/ccCwMAmf.s:103580  .debug_str:000000000003bcdf .LASF4201
     /tmp/ccCwMAmf.s:91540  .debug_str:000000000000b159 .LASF4202
     /tmp/ccCwMAmf.s:107256  .debug_str:000000000004b56e .LASF4203
     /tmp/ccCwMAmf.s:101978  .debug_str:000000000003584b .LASF4204
     /tmp/ccCwMAmf.s:108320  .debug_str:000000000004fe3b .LASF4205
     /tmp/ccCwMAmf.s:96764  .debug_str:0000000000020617 .LASF4206
     /tmp/ccCwMAmf.s:103324  .debug_str:000000000003ab0b .LASF4207
     /tmp/ccCwMAmf.s:98676  .debug_str:000000000002807b .LASF4208
     /tmp/ccCwMAmf.s:90936  .debug_str:000000000000880b .LASF4209
     /tmp/ccCwMAmf.s:105824  .debug_str:000000000004565c .LASF4210
     /tmp/ccCwMAmf.s:94042  .debug_str:0000000000014c05 .LASF4211
     /tmp/ccCwMAmf.s:107080  .debug_str:000000000004a8c2 .LASF4212
     /tmp/ccCwMAmf.s:106640  .debug_str:0000000000048b80 .LASF4213
     /tmp/ccCwMAmf.s:97026  .debug_str:000000000002176e .LASF4214
     /tmp/ccCwMAmf.s:89682  .debug_str:0000000000003356 .LASF4215
     /tmp/ccCwMAmf.s:102088  .debug_str:0000000000035fef .LASF4216
     /tmp/ccCwMAmf.s:89042  .debug_str:00000000000006ad .LASF4217
     /tmp/ccCwMAmf.s:108196  .debug_str:000000000004f604 .LASF4218
     /tmp/ccCwMAmf.s:89396  .debug_str:0000000000001fb7 .LASF4219
     /tmp/ccCwMAmf.s:100218  .debug_str:000000000002e2df .LASF4220
     /tmp/ccCwMAmf.s:108284  .debug_str:000000000004fbd3 .LASF4221
     /tmp/ccCwMAmf.s:107402  .debug_str:000000000004bee7 .LASF4222
     /tmp/ccCwMAmf.s:91514  .debug_str:000000000000af39 .LASF4223
     /tmp/ccCwMAmf.s:106308  .debug_str:00000000000475a5 .LASF4224
     /tmp/ccCwMAmf.s:96152  .debug_str:000000000001da4a .LASF4225
     /tmp/ccCwMAmf.s:107700  .debug_str:000000000004d333 .LASF4226
     /tmp/ccCwMAmf.s:99324  .debug_str:000000000002ab0a .LASF4227
     /tmp/ccCwMAmf.s:98586  .debug_str:0000000000027a5d .LASF4228
     /tmp/ccCwMAmf.s:91442  .debug_str:000000000000aa1f .LASF4229
     /tmp/ccCwMAmf.s:89524  .debug_str:00000000000028bb .LASF4230
     /tmp/ccCwMAmf.s:105822  .debug_str:0000000000045645 .LASF4231
     /tmp/ccCwMAmf.s:91752  .debug_str:000000000000c0ac .LASF4232
     /tmp/ccCwMAmf.s:94954  .debug_str:0000000000018784 .LASF4233
     /tmp/ccCwMAmf.s:98012  .debug_str:00000000000257c2 .LASF4234
     /tmp/ccCwMAmf.s:96468  .debug_str:000000000001efb6 .LASF4235
     /tmp/ccCwMAmf.s:90022  .debug_str:0000000000004aca .LASF4236
     /tmp/ccCwMAmf.s:89818  .debug_str:0000000000003c23 .LASF4237
     /tmp/ccCwMAmf.s:95056  .debug_str:0000000000018d1c .LASF4238
     /tmp/ccCwMAmf.s:92030  .debug_str:000000000000d35c .LASF4239
     /tmp/ccCwMAmf.s:99286  .debug_str:000000000002a87b .LASF4240
     /tmp/ccCwMAmf.s:96002  .debug_str:000000000001d003 .LASF4241
     /tmp/ccCwMAmf.s:105040  .debug_str:00000000000421a7 .LASF4242
     /tmp/ccCwMAmf.s:99584  .debug_str:000000000002bb68 .LASF4243
     /tmp/ccCwMAmf.s:90172  .debug_str:0000000000005400 .LASF4244
     /tmp/ccCwMAmf.s:103004  .debug_str:000000000003964b .LASF4245
     /tmp/ccCwMAmf.s:103856  .debug_str:000000000003cf9f .LASF4246
     /tmp/ccCwMAmf.s:92644  .debug_str:000000000000f576 .LASF4247
     /tmp/ccCwMAmf.s:96876  .debug_str:0000000000020d40 .LASF4248
     /tmp/ccCwMAmf.s:89766  .debug_str:0000000000003886 .LASF4249
     /tmp/ccCwMAmf.s:103170  .debug_str:0000000000039fda .LASF4250
     /tmp/ccCwMAmf.s:103500  .debug_str:000000000003b77a .LASF4251
     /tmp/ccCwMAmf.s:104370  .debug_str:000000000003f18c .LASF4252
     /tmp/ccCwMAmf.s:101626  .debug_str:0000000000033f93 .LASF4253
     /tmp/ccCwMAmf.s:106194  .debug_str:0000000000046e63 .LASF4254
     /tmp/ccCwMAmf.s:99702  .debug_str:000000000002c31a .LASF4255
     /tmp/ccCwMAmf.s:96564  .debug_str:000000000001f793 .LASF4256
     /tmp/ccCwMAmf.s:93362  .debug_str:000000000001206e .LASF4257
     /tmp/ccCwMAmf.s:102170  .debug_str:00000000000365a0 .LASF4258
     /tmp/ccCwMAmf.s:95890  .debug_str:000000000001c82f .LASF4259
     /tmp/ccCwMAmf.s:91198  .debug_str:00000000000099e1 .LASF4260
     /tmp/ccCwMAmf.s:102954  .debug_str:0000000000039439 .LASF4261
     /tmp/ccCwMAmf.s:100332  .debug_str:000000000002eb34 .LASF4262
     /tmp/ccCwMAmf.s:91982  .debug_str:000000000000cfb5 .LASF4263
     /tmp/ccCwMAmf.s:104108  .debug_str:000000000003e124 .LASF4264
     /tmp/ccCwMAmf.s:98896  .debug_str:0000000000029000 .LASF4265
     /tmp/ccCwMAmf.s:97570  .debug_str:0000000000023c73 .LASF4266
     /tmp/ccCwMAmf.s:108194  .debug_str:000000000004f5ee .LASF4267
     /tmp/ccCwMAmf.s:98304  .debug_str:000000000002682a .LASF4268
     /tmp/ccCwMAmf.s:91440  .debug_str:000000000000aa09 .LASF4269
     /tmp/ccCwMAmf.s:102220  .debug_str:00000000000368e3 .LASF4270
     /tmp/ccCwMAmf.s:107816  .debug_str:000000000004dc79 .LASF4271
     /tmp/ccCwMAmf.s:103102  .debug_str:0000000000039c31 .LASF4272
     /tmp/ccCwMAmf.s:93518  .debug_str:0000000000012ab1 .LASF4273
     /tmp/ccCwMAmf.s:104310  .debug_str:000000000003ed77 .LASF4274
     /tmp/ccCwMAmf.s:89244  .debug_str:0000000000001407 .LASF4275
     /tmp/ccCwMAmf.s:101940  .debug_str:0000000000035583 .LASF4276
     /tmp/ccCwMAmf.s:90456  .debug_str:0000000000006751 .LASF4277
     /tmp/ccCwMAmf.s:93860  .debug_str:0000000000014152 .LASF4278
     /tmp/ccCwMAmf.s:92556  .debug_str:000000000000efa8 .LASF4279
     /tmp/ccCwMAmf.s:95324  .debug_str:0000000000019fc0 .LASF4280
     /tmp/ccCwMAmf.s:91096  .debug_str:00000000000092a3 .LASF4281
     /tmp/ccCwMAmf.s:93548  .debug_str:0000000000012cd5 .LASF4282
     /tmp/ccCwMAmf.s:107892  .debug_str:000000000004e18c .LASF4283
     /tmp/ccCwMAmf.s:96310  .debug_str:000000000001e5e0 .LASF4284
     /tmp/ccCwMAmf.s:105128  .debug_str:0000000000042877 .LASF4285
     /tmp/ccCwMAmf.s:97812  .debug_str:0000000000024c73 .LASF4286
     /tmp/ccCwMAmf.s:96930  .debug_str:00000000000210c4 .LASF4287
     /tmp/ccCwMAmf.s:105772  .debug_str:0000000000045279 .LASF4288
     /tmp/ccCwMAmf.s:103712  .debug_str:000000000003c6d1 .LASF4289
     /tmp/ccCwMAmf.s:89730  .debug_str:00000000000035f3 .LASF4290
     /tmp/ccCwMAmf.s:98444  .debug_str:0000000000027138 .LASF4291
     /tmp/ccCwMAmf.s:107438  .debug_str:000000000004c11e .LASF4292
     /tmp/ccCwMAmf.s:103874  .debug_str:000000000003d0b3 .LASF4293
     /tmp/ccCwMAmf.s:93414  .debug_str:00000000000123f6 .LASF4294
     /tmp/ccCwMAmf.s:105676  .debug_str:0000000000044cbf .LASF4295
     /tmp/ccCwMAmf.s:96636  .debug_str:000000000001fc28 .LASF4296
     /tmp/ccCwMAmf.s:107740  .debug_str:000000000004d644 .LASF4297
     /tmp/ccCwMAmf.s:102632  .debug_str:000000000003834f .LASF4298
     /tmp/ccCwMAmf.s:105158  .debug_str:0000000000042a47 .LASF4299
     /tmp/ccCwMAmf.s:93224  .debug_str:00000000000116e5 .LASF4300
     /tmp/ccCwMAmf.s:99348  .debug_str:000000000002ac7c .LASF4301
     /tmp/ccCwMAmf.s:107012  .debug_str:000000000004a37e .LASF4302
     /tmp/ccCwMAmf.s:100164  .debug_str:000000000002df8d .LASF4303
     /tmp/ccCwMAmf.s:92544  .debug_str:000000000000eee2 .LASF4304
     /tmp/ccCwMAmf.s:91004  .debug_str:0000000000008c9e .LASF4305
     /tmp/ccCwMAmf.s:92992  .debug_str:000000000001097f .LASF4306
     /tmp/ccCwMAmf.s:106092  .debug_str:000000000004677d .LASF4307
     /tmp/ccCwMAmf.s:93198  .debug_str:000000000001153c .LASF4308
     /tmp/ccCwMAmf.s:89398  .debug_str:0000000000001fce .LASF4309
     /tmp/ccCwMAmf.s:92868  .debug_str:0000000000010248 .LASF4310
     /tmp/ccCwMAmf.s:108280  .debug_str:000000000004fbae .LASF4311
     /tmp/ccCwMAmf.s:101662  .debug_str:00000000000341cc .LASF4312
     /tmp/ccCwMAmf.s:107898  .debug_str:000000000004e206 .LASF4313
     /tmp/ccCwMAmf.s:89222  .debug_str:0000000000001286 .LASF4314
     /tmp/ccCwMAmf.s:105314  .debug_str:000000000004345c .LASF4315
     /tmp/ccCwMAmf.s:106550  .debug_str:00000000000485f5 .LASF4316
     /tmp/ccCwMAmf.s:94762  .debug_str:0000000000017b91 .LASF4317
     /tmp/ccCwMAmf.s:97252  .debug_str:0000000000022697 .LASF4318
     /tmp/ccCwMAmf.s:95420  .debug_str:000000000001a6d9 .LASF4319
     /tmp/ccCwMAmf.s:94752  .debug_str:0000000000017a8d .LASF4320
     /tmp/ccCwMAmf.s:103844  .debug_str:000000000003cee1 .LASF4321
     /tmp/ccCwMAmf.s:103816  .debug_str:000000000003cd3b .LASF4322
     /tmp/ccCwMAmf.s:94792  .debug_str:0000000000017d90 .LASF4323
     /tmp/ccCwMAmf.s:103160  .debug_str:0000000000039f18 .LASF4324
     /tmp/ccCwMAmf.s:92984  .debug_str:00000000000108ed .LASF4325
     /tmp/ccCwMAmf.s:100140  .debug_str:000000000002ddf6 .LASF4326
     /tmp/ccCwMAmf.s:101102  .debug_str:0000000000031c8f .LASF4327
     /tmp/ccCwMAmf.s:94282  .debug_str:0000000000015bc0 .LASF4328
     /tmp/ccCwMAmf.s:103964  .debug_str:000000000003d6b2 .LASF4329
     /tmp/ccCwMAmf.s:89234  .debug_str:0000000000001359 .LASF4330
     /tmp/ccCwMAmf.s:93200  .debug_str:0000000000011556 .LASF4331
     /tmp/ccCwMAmf.s:100238  .debug_str:000000000002e462 .LASF4332
     /tmp/ccCwMAmf.s:96072  .debug_str:000000000001d484 .LASF4333
     /tmp/ccCwMAmf.s:98692  .debug_str:000000000002814b .LASF4334
     /tmp/ccCwMAmf.s:99002  .debug_str:000000000002964a .LASF4335
     /tmp/ccCwMAmf.s:107658  .debug_str:000000000004d070 .LASF4336
     /tmp/ccCwMAmf.s:102038  .debug_str:0000000000035cea .LASF4337
     /tmp/ccCwMAmf.s:107888  .debug_str:000000000004e172 .LASF4338
     /tmp/ccCwMAmf.s:99226  .debug_str:000000000002a588 .LASF4339
     /tmp/ccCwMAmf.s:107006  .debug_str:000000000004a327 .LASF4340
     /tmp/ccCwMAmf.s:91212  .debug_str:0000000000009b1d .LASF4341
     /tmp/ccCwMAmf.s:98980  .debug_str:00000000000294f7 .LASF4342
     /tmp/ccCwMAmf.s:101748  .debug_str:000000000003478a .LASF4343
     /tmp/ccCwMAmf.s:103890  .debug_str:000000000003d1a7 .LASF4344
     /tmp/ccCwMAmf.s:97136  .debug_str:0000000000021f2e .LASF4345
     /tmp/ccCwMAmf.s:90340  .debug_str:0000000000005f7d .LASF4346
     /tmp/ccCwMAmf.s:106514  .debug_str:000000000004839c .LASF4347
     /tmp/ccCwMAmf.s:97156  .debug_str:0000000000022015 .LASF4348
     /tmp/ccCwMAmf.s:101996  .debug_str:000000000003594e .LASF4349
     /tmp/ccCwMAmf.s:101912  .debug_str:000000000003536a .LASF4350
     /tmp/ccCwMAmf.s:107962  .debug_str:000000000004e674 .LASF4351
     /tmp/ccCwMAmf.s:105250  .debug_str:0000000000043037 .LASF4352
     /tmp/ccCwMAmf.s:104132  .debug_str:000000000003e2eb .LASF4353
     /tmp/ccCwMAmf.s:89462  .debug_str:000000000000247a .LASF4354
     /tmp/ccCwMAmf.s:106054  .debug_str:0000000000046506 .LASF4355
     /tmp/ccCwMAmf.s:96090  .debug_str:000000000001d582 .LASF4356
     /tmp/ccCwMAmf.s:94780  .debug_str:0000000000017cbd .LASF4357
     /tmp/ccCwMAmf.s:90542  .debug_str:0000000000006d8d .LASF4358
     /tmp/ccCwMAmf.s:101968  .debug_str:00000000000357bd .LASF4359
     /tmp/ccCwMAmf.s:106142  .debug_str:0000000000046a73 .LASF4360
     /tmp/ccCwMAmf.s:103652  .debug_str:000000000003c242 .LASF4361
     /tmp/ccCwMAmf.s:98490  .debug_str:00000000000273ad .LASF4362
     /tmp/ccCwMAmf.s:103108  .debug_str:0000000000039c94 .LASF4363
     /tmp/ccCwMAmf.s:100604  .debug_str:000000000002fd67 .LASF4364
     /tmp/ccCwMAmf.s:102304  .debug_str:0000000000036e3d .LASF4365
     /tmp/ccCwMAmf.s:106624  .debug_str:0000000000048a75 .LASF4366
     /tmp/ccCwMAmf.s:97158  .debug_str:0000000000022026 .LASF4367
     /tmp/ccCwMAmf.s:106372  .debug_str:0000000000047a60 .LASF4368
     /tmp/ccCwMAmf.s:88990  .debug_str:00000000000002f3 .LASF4369
     /tmp/ccCwMAmf.s:91660  .debug_str:000000000000b98f .LASF4370
     /tmp/ccCwMAmf.s:104194  .debug_str:000000000003e6f2 .LASF4371
     /tmp/ccCwMAmf.s:97206  .debug_str:0000000000022457 .LASF4372
     /tmp/ccCwMAmf.s:107036  .debug_str:000000000004a55f .LASF4373
     /tmp/ccCwMAmf.s:94022  .debug_str:0000000000014b67 .LASF4374
     /tmp/ccCwMAmf.s:98328  .debug_str:00000000000269f0 .LASF4375
     /tmp/ccCwMAmf.s:103084  .debug_str:0000000000039b18 .LASF4376
     /tmp/ccCwMAmf.s:89694  .debug_str:0000000000003437 .LASF4377
     /tmp/ccCwMAmf.s:104286  .debug_str:000000000003ec10 .LASF4378
     /tmp/ccCwMAmf.s:93448  .debug_str:0000000000012621 .LASF4379
     /tmp/ccCwMAmf.s:94926  .debug_str:00000000000185c3 .LASF4380
     /tmp/ccCwMAmf.s:102544  .debug_str:0000000000037dfd .LASF4381
     /tmp/ccCwMAmf.s:91968  .debug_str:000000000000cebb .LASF4382
     /tmp/ccCwMAmf.s:99784  .debug_str:000000000002c79e .LASF4383
     /tmp/ccCwMAmf.s:100004  .debug_str:000000000002d4ff .LASF4384
     /tmp/ccCwMAmf.s:105480  .debug_str:0000000000043f69 .LASF4385
     /tmp/ccCwMAmf.s:98694  .debug_str:0000000000028166 .LASF4386
     /tmp/ccCwMAmf.s:95306  .debug_str:0000000000019eb1 .LASF4387
     /tmp/ccCwMAmf.s:89712  .debug_str:0000000000003514 .LASF4388
     /tmp/ccCwMAmf.s:98516  .debug_str:000000000002756f .LASF4389
     /tmp/ccCwMAmf.s:89604  .debug_str:0000000000002dc5 .LASF4390
     /tmp/ccCwMAmf.s:100496  .debug_str:000000000002f682 .LASF4391
     /tmp/ccCwMAmf.s:104222  .debug_str:000000000003e8d4 .LASF4392
     /tmp/ccCwMAmf.s:93416  .debug_str:0000000000012410 .LASF4393
     /tmp/ccCwMAmf.s:93952  .debug_str:0000000000014739 .LASF4394
     /tmp/ccCwMAmf.s:102450  .debug_str:00000000000377fc .LASF4395
     /tmp/ccCwMAmf.s:98182  .debug_str:000000000002608a .LASF4396
     /tmp/ccCwMAmf.s:107586  .debug_str:000000000004cbef .LASF4397
     /tmp/ccCwMAmf.s:99830  .debug_str:000000000002ca78 .LASF4398
     /tmp/ccCwMAmf.s:107314  .debug_str:000000000004b94d .LASF4399
     /tmp/ccCwMAmf.s:98862  .debug_str:0000000000028d79 .LASF4400
     /tmp/ccCwMAmf.s:93508  .debug_str:0000000000012a15 .LASF4401
     /tmp/ccCwMAmf.s:106008  .debug_str:0000000000046290 .LASF4402
     /tmp/ccCwMAmf.s:103490  .debug_str:000000000003b6d6 .LASF4403
     /tmp/ccCwMAmf.s:106862  .debug_str:0000000000049a7f .LASF4404
     /tmp/ccCwMAmf.s:102116  .debug_str:00000000000361da .LASF4405
     /tmp/ccCwMAmf.s:103130  .debug_str:0000000000039db2 .LASF4406
     /tmp/ccCwMAmf.s:91760  .debug_str:000000000000c10a .LASF4407
     /tmp/ccCwMAmf.s:104626  .debug_str:000000000004011b .LASF4408
     /tmp/ccCwMAmf.s:102280  .debug_str:0000000000036cd8 .LASF4409
     /tmp/ccCwMAmf.s:96450  .debug_str:000000000001ee9d .LASF4410
     /tmp/ccCwMAmf.s:107614  .debug_str:000000000004cde3 .LASF4411
     /tmp/ccCwMAmf.s:102234  .debug_str:00000000000369cb .LASF4412
     /tmp/ccCwMAmf.s:94334  .debug_str:0000000000015e68 .LASF4413
     /tmp/ccCwMAmf.s:92690  .debug_str:000000000000f79c .LASF4414
     /tmp/ccCwMAmf.s:99944  .debug_str:000000000002d175 .LASF4415
     /tmp/ccCwMAmf.s:106762  .debug_str:00000000000493b6 .LASF4416
     /tmp/ccCwMAmf.s:92626  .debug_str:000000000000f3d2 .LASF4417
     /tmp/ccCwMAmf.s:99170  .debug_str:000000000002a186 .LASF4418
     /tmp/ccCwMAmf.s:103950  .debug_str:000000000003d59b .LASF4419
     /tmp/ccCwMAmf.s:89278  .debug_str:0000000000001642 .LASF4420
     /tmp/ccCwMAmf.s:89878  .debug_str:0000000000004010 .LASF4421
     /tmp/ccCwMAmf.s:90150  .debug_str:00000000000052a8 .LASF4422
     /tmp/ccCwMAmf.s:100376  .debug_str:000000000002edd4 .LASF4423
     /tmp/ccCwMAmf.s:91820  .debug_str:000000000000c4bb .LASF4424
     /tmp/ccCwMAmf.s:104776  .debug_str:0000000000040c85 .LASF4425
     /tmp/ccCwMAmf.s:92792  .debug_str:000000000000fecf .LASF4426
     /tmp/ccCwMAmf.s:100962  .debug_str:000000000003138b .LASF4427
     /tmp/ccCwMAmf.s:107526  .debug_str:000000000004c755 .LASF4428
     /tmp/ccCwMAmf.s:103850  .debug_str:000000000003cf4b .LASF4429
     /tmp/ccCwMAmf.s:93258  .debug_str:0000000000011981 .LASF4430
     /tmp/ccCwMAmf.s:105746  .debug_str:00000000000450ba .LASF4431
     /tmp/ccCwMAmf.s:103908  .debug_str:000000000003d2a6 .LASF4432
     /tmp/ccCwMAmf.s:102950  .debug_str:000000000003941b .LASF4433
     /tmp/ccCwMAmf.s:97244  .debug_str:000000000002263a .LASF4434
     /tmp/ccCwMAmf.s:100382  .debug_str:000000000002ee40 .LASF4435
     /tmp/ccCwMAmf.s:92880  .debug_str:0000000000010347 .LASF4436
     /tmp/ccCwMAmf.s:96594  .debug_str:000000000001f97c .LASF4437
     /tmp/ccCwMAmf.s:91966  .debug_str:000000000000cea7 .LASF4438
     /tmp/ccCwMAmf.s:91840  .debug_str:000000000000c5f5 .LASF4439
     /tmp/ccCwMAmf.s:92488  .debug_str:000000000000eca3 .LASF4440
     /tmp/ccCwMAmf.s:101960  .debug_str:0000000000035764 .LASF4441
     /tmp/ccCwMAmf.s:94180  .debug_str:00000000000154c2 .LASF4442
     /tmp/ccCwMAmf.s:90666  .debug_str:00000000000075e1 .LASF4443
     /tmp/ccCwMAmf.s:106940  .debug_str:0000000000049f72 .LASF4444
     /tmp/ccCwMAmf.s:98060  .debug_str:00000000000259c3 .LASF4445
     /tmp/ccCwMAmf.s:101376  .debug_str:0000000000032ef1 .LASF4446
     /tmp/ccCwMAmf.s:91156  .debug_str:00000000000096e9 .LASF4447
     /tmp/ccCwMAmf.s:104820  .debug_str:0000000000040fea .LASF4448
     /tmp/ccCwMAmf.s:100242  .debug_str:000000000002e489 .LASF4449
     /tmp/ccCwMAmf.s:94506  .debug_str:000000000001696e .LASF4450
     /tmp/ccCwMAmf.s:106998  .debug_str:000000000004a297 .LASF4451
     /tmp/ccCwMAmf.s:104926  .debug_str:000000000004174f .LASF4452
     /tmp/ccCwMAmf.s:99414  .debug_str:000000000002b113 .LASF4453
     /tmp/ccCwMAmf.s:108088  .debug_str:000000000004eecf .LASF4454
     /tmp/ccCwMAmf.s:106570  .debug_str:0000000000048710 .LASF4455
     /tmp/ccCwMAmf.s:98476  .debug_str:00000000000272aa .LASF4456
     /tmp/ccCwMAmf.s:97866  .debug_str:0000000000024f52 .LASF4457
     /tmp/ccCwMAmf.s:95506  .debug_str:000000000001ad55 .LASF4458
     /tmp/ccCwMAmf.s:96352  .debug_str:000000000001e892 .LASF4459
     /tmp/ccCwMAmf.s:95808  .debug_str:000000000001c1b9 .LASF4460
     /tmp/ccCwMAmf.s:101682  .debug_str:000000000003435e .LASF4461
     /tmp/ccCwMAmf.s:100286  .debug_str:000000000002e7b6 .LASF4462
     /tmp/ccCwMAmf.s:100712  .debug_str:00000000000303dd .LASF4463
     /tmp/ccCwMAmf.s:101710  .debug_str:00000000000344b9 .LASF4464
     /tmp/ccCwMAmf.s:104142  .debug_str:000000000003e371 .LASF4465
     /tmp/ccCwMAmf.s:91758  .debug_str:000000000000c0ee .LASF4466
     /tmp/ccCwMAmf.s:95442  .debug_str:000000000001a89a .LASF4467
     /tmp/ccCwMAmf.s:89618  .debug_str:0000000000002ee1 .LASF4468
     /tmp/ccCwMAmf.s:91072  .debug_str:000000000000917e .LASF4469
     /tmp/ccCwMAmf.s:89194  .debug_str:00000000000010d8 .LASF4470
     /tmp/ccCwMAmf.s:94798  .debug_str:0000000000017dca .LASF4471
     /tmp/ccCwMAmf.s:107188  .debug_str:000000000004b07f .LASF4472
     /tmp/ccCwMAmf.s:100864  .debug_str:0000000000030e00 .LASF4473
     /tmp/ccCwMAmf.s:92394  .debug_str:000000000000e777 .LASF4474
     /tmp/ccCwMAmf.s:96156  .debug_str:000000000001da87 .LASF4475
     /tmp/ccCwMAmf.s:98418  .debug_str:0000000000026fa3 .LASF4476
     /tmp/ccCwMAmf.s:96868  .debug_str:0000000000020ce1 .LASF4477
     /tmp/ccCwMAmf.s:98282  .debug_str:000000000002665e .LASF4478
     /tmp/ccCwMAmf.s:91802  .debug_str:000000000000c396 .LASF4479
     /tmp/ccCwMAmf.s:95526  .debug_str:000000000001aec0 .LASF4480
     /tmp/ccCwMAmf.s:104794  .debug_str:0000000000040dc2 .LASF4481
     /tmp/ccCwMAmf.s:96126  .debug_str:000000000001d837 .LASF4482
     /tmp/ccCwMAmf.s:95692  .debug_str:000000000001b995 .LASF4483
     /tmp/ccCwMAmf.s:99494  .debug_str:000000000002b68f .LASF4484
     /tmp/ccCwMAmf.s:93016  .debug_str:0000000000010a46 .LASF4485
     /tmp/ccCwMAmf.s:103600  .debug_str:000000000003be1c .LASF4486
     /tmp/ccCwMAmf.s:94806  .debug_str:0000000000017e20 .LASF4487
     /tmp/ccCwMAmf.s:91234  .debug_str:0000000000009cdf .LASF4488
     /tmp/ccCwMAmf.s:92970  .debug_str:0000000000010820 .LASF4489
     /tmp/ccCwMAmf.s:106456  .debug_str:0000000000047fe5 .LASF4490
     /tmp/ccCwMAmf.s:91698  .debug_str:000000000000bcf4 .LASF4491
     /tmp/ccCwMAmf.s:97016  .debug_str:00000000000216bf .LASF4492
     /tmp/ccCwMAmf.s:96298  .debug_str:000000000001e52a .LASF4493
     /tmp/ccCwMAmf.s:94226  .debug_str:00000000000157d2 .LASF4494
     /tmp/ccCwMAmf.s:106298  .debug_str:0000000000047530 .LASF4495
     /tmp/ccCwMAmf.s:93582  .debug_str:0000000000012f4e .LASF4496
     /tmp/ccCwMAmf.s:96300  .debug_str:000000000001e549 .LASF4497
     /tmp/ccCwMAmf.s:92254  .debug_str:000000000000dfc2 .LASF4498
     /tmp/ccCwMAmf.s:98208  .debug_str:0000000000026200 .LASF4499
     /tmp/ccCwMAmf.s:103632  .debug_str:000000000003c09f .LASF4500
     /tmp/ccCwMAmf.s:101512  .debug_str:000000000003386a .LASF4501
     /tmp/ccCwMAmf.s:105790  .debug_str:00000000000453b7 .LASF4502
     /tmp/ccCwMAmf.s:108034  .debug_str:000000000004eaf1 .LASF4503
     /tmp/ccCwMAmf.s:100902  .debug_str:0000000000031018 .LASF4504
     /tmp/ccCwMAmf.s:99890  .debug_str:000000000002ce63 .LASF4505
     /tmp/ccCwMAmf.s:89710  .debug_str:0000000000003505 .LASF4506
     /tmp/ccCwMAmf.s:102616  .debug_str:000000000003821a .LASF4507
     /tmp/ccCwMAmf.s:97128  .debug_str:0000000000021ee2 .LASF4508
     /tmp/ccCwMAmf.s:101256  .debug_str:0000000000032767 .LASF4509
     /tmp/ccCwMAmf.s:93538  .debug_str:0000000000012c2d .LASF4510
     /tmp/ccCwMAmf.s:99196  .debug_str:000000000002a383 .LASF4511
     /tmp/ccCwMAmf.s:91138  .debug_str:00000000000095b1 .LASF4512
     /tmp/ccCwMAmf.s:99708  .debug_str:000000000002c369 .LASF4513
     /tmp/ccCwMAmf.s:108186  .debug_str:000000000004f536 .LASF4514
     /tmp/ccCwMAmf.s:89820  .debug_str:0000000000003c3c .LASF4515
     /tmp/ccCwMAmf.s:94940  .debug_str:0000000000018699 .LASF4516
     /tmp/ccCwMAmf.s:100112  .debug_str:000000000002dc09 .LASF4517
     /tmp/ccCwMAmf.s:103728  .debug_str:000000000003c7dc .LASF4518
     /tmp/ccCwMAmf.s:101974  .debug_str:000000000003580a .LASF4519
     /tmp/ccCwMAmf.s:94602  .debug_str:0000000000016fb8 .LASF4520
     /tmp/ccCwMAmf.s:96144  .debug_str:000000000001d9a1 .LASF4521
     /tmp/ccCwMAmf.s:96050  .debug_str:000000000001d2d2 .LASF4522
     /tmp/ccCwMAmf.s:90332  .debug_str:0000000000005f30 .LASF4523
     /tmp/ccCwMAmf.s:90010  .debug_str:00000000000049c3 .LASF4524
     /tmp/ccCwMAmf.s:104042  .debug_str:000000000003dc85 .LASF4525
     /tmp/ccCwMAmf.s:107172  .debug_str:000000000004af49 .LASF4526
     /tmp/ccCwMAmf.s:100302  .debug_str:000000000002e8dc .LASF4527
     /tmp/ccCwMAmf.s:104938  .debug_str:0000000000041854 .LASF4528
     /tmp/ccCwMAmf.s:96706  .debug_str:00000000000201b0 .LASF4529
     /tmp/ccCwMAmf.s:105268  .debug_str:0000000000043154 .LASF4530
     /tmp/ccCwMAmf.s:94810  .debug_str:0000000000017e6e .LASF4531
     /tmp/ccCwMAmf.s:91638  .debug_str:000000000000b847 .LASF4532
     /tmp/ccCwMAmf.s:108244  .debug_str:000000000004f926 .LASF4533
     /tmp/ccCwMAmf.s:89810  .debug_str:0000000000003b8f .LASF4534
     /tmp/ccCwMAmf.s:89894  .debug_str:0000000000004138 .LASF4535
     /tmp/ccCwMAmf.s:102182  .debug_str:000000000003665d .LASF4536
     /tmp/ccCwMAmf.s:96870  .debug_str:0000000000020cf8 .LASF4537
     /tmp/ccCwMAmf.s:96236  .debug_str:000000000001e068 .LASF4538
     /tmp/ccCwMAmf.s:107362  .debug_str:000000000004bc77 .LASF4539
     /tmp/ccCwMAmf.s:95538  .debug_str:000000000001af57 .LASF4540
     /tmp/ccCwMAmf.s:107872  .debug_str:000000000004e015 .LASF4541
     /tmp/ccCwMAmf.s:101316  .debug_str:0000000000032bae .LASF4542
     /tmp/ccCwMAmf.s:92542  .debug_str:000000000000eed2 .LASF4543
     /tmp/ccCwMAmf.s:93878  .debug_str:0000000000014253 .LASF4544
     /tmp/ccCwMAmf.s:100476  .debug_str:000000000002f518 .LASF4545
     /tmp/ccCwMAmf.s:104358  .debug_str:000000000003f08a .LASF4546
     /tmp/ccCwMAmf.s:89640  .debug_str:000000000000309e .LASF4547
     /tmp/ccCwMAmf.s:90218  .debug_str:000000000000572d .LASF4548
     /tmp/ccCwMAmf.s:101010  .debug_str:000000000003173f .LASF4549
     /tmp/ccCwMAmf.s:93802  .debug_str:0000000000013df1 .LASF4550
     /tmp/ccCwMAmf.s:89268  .debug_str:0000000000001580 .LASF4551
     /tmp/ccCwMAmf.s:90930  .debug_str:00000000000087e3 .LASF4552
     /tmp/ccCwMAmf.s:105092  .debug_str:00000000000425c4 .LASF4553
     /tmp/ccCwMAmf.s:90578  .debug_str:000000000000709d .LASF4554
     /tmp/ccCwMAmf.s:96566  .debug_str:000000000001f7aa .LASF4555
     /tmp/ccCwMAmf.s:89264  .debug_str:0000000000001549 .LASF4556
     /tmp/ccCwMAmf.s:96794  .debug_str:00000000000208a9 .LASF4557
     /tmp/ccCwMAmf.s:91154  .debug_str:00000000000096d6 .LASF4558
     /tmp/ccCwMAmf.s:101346  .debug_str:0000000000032d4c .LASF4559
     /tmp/ccCwMAmf.s:103046  .debug_str:0000000000039931 .LASF4560
     /tmp/ccCwMAmf.s:106010  .debug_str:00000000000462a3 .LASF4561
     /tmp/ccCwMAmf.s:107274  .debug_str:000000000004b670 .LASF4562
     /tmp/ccCwMAmf.s:92484  .debug_str:000000000000ec7e .LASF4563
     /tmp/ccCwMAmf.s:89778  .debug_str:0000000000003969 .LASF4564
     /tmp/ccCwMAmf.s:98382  .debug_str:0000000000026da5 .LASF4565
     /tmp/ccCwMAmf.s:96088  .debug_str:000000000001d570 .LASF4566
     /tmp/ccCwMAmf.s:99108  .debug_str:0000000000029d56 .LASF4567
     /tmp/ccCwMAmf.s:95476  .debug_str:000000000001ab86 .LASF4568
     /tmp/ccCwMAmf.s:96826  .debug_str:0000000000020a9e .LASF4569
     /tmp/ccCwMAmf.s:105392  .debug_str:00000000000439d7 .LASF4570
     /tmp/ccCwMAmf.s:97382  .debug_str:0000000000022f58 .LASF4571
     /tmp/ccCwMAmf.s:103206  .debug_str:000000000003a2a4 .LASF4572
     /tmp/ccCwMAmf.s:92164  .debug_str:000000000000db43 .LASF4573
     /tmp/ccCwMAmf.s:106704  .debug_str:0000000000048fcc .LASF4574
     /tmp/ccCwMAmf.s:103878  .debug_str:000000000003d0e4 .LASF4575
     /tmp/ccCwMAmf.s:101028  .debug_str:000000000003186f .LASF4576
     /tmp/ccCwMAmf.s:103922  .debug_str:000000000003d3dc .LASF4577
     /tmp/ccCwMAmf.s:93020  .debug_str:0000000000010a9b .LASF4578
     /tmp/ccCwMAmf.s:101704  .debug_str:0000000000034456 .LASF4579
     /tmp/ccCwMAmf.s:106172  .debug_str:0000000000046cb1 .LASF4580
     /tmp/ccCwMAmf.s:99426  .debug_str:000000000002b17c .LASF4581
     /tmp/ccCwMAmf.s:107918  .debug_str:000000000004e398 .LASF4582
     /tmp/ccCwMAmf.s:93634  .debug_str:00000000000133b7 .LASF4583
     /tmp/ccCwMAmf.s:89010  .debug_str:0000000000000458 .LASF4584
     /tmp/ccCwMAmf.s:97578  .debug_str:0000000000023cfa .LASF4585
     /tmp/ccCwMAmf.s:91620  .debug_str:000000000000b6d9 .LASF4586
     /tmp/ccCwMAmf.s:106416  .debug_str:0000000000047d7a .LASF4587
     /tmp/ccCwMAmf.s:103688  .debug_str:000000000003c50f .LASF4588
     /tmp/ccCwMAmf.s:103508  .debug_str:000000000003b7cd .LASF4589
     /tmp/ccCwMAmf.s:92936  .debug_str:00000000000105dc .LASF4590
     /tmp/ccCwMAmf.s:94904  .debug_str:0000000000018478 .LASF4591
     /tmp/ccCwMAmf.s:92776  .debug_str:000000000000fd96 .LASF4592
     /tmp/ccCwMAmf.s:99026  .debug_str:0000000000029837 .LASF4593
     /tmp/ccCwMAmf.s:104646  .debug_str:0000000000040219 .LASF4594
     /tmp/ccCwMAmf.s:96734  .debug_str:00000000000203af .LASF4595
     /tmp/ccCwMAmf.s:105294  .debug_str:0000000000043344 .LASF4596
     /tmp/ccCwMAmf.s:94464  .debug_str:000000000001664d .LASF4597
     /tmp/ccCwMAmf.s:103122  .debug_str:0000000000039d40 .LASF4598
     /tmp/ccCwMAmf.s:105634  .debug_str:0000000000044991 .LASF4599
     /tmp/ccCwMAmf.s:102844  .debug_str:0000000000038e2f .LASF4600
     /tmp/ccCwMAmf.s:96324  .debug_str:000000000001e689 .LASF4601
     /tmp/ccCwMAmf.s:104884  .debug_str:00000000000414de .LASF4602
     /tmp/ccCwMAmf.s:94072  .debug_str:0000000000014dda .LASF4603
     /tmp/ccCwMAmf.s:100516  .debug_str:000000000002f7a0 .LASF4604
     /tmp/ccCwMAmf.s:91716  .debug_str:000000000000be42 .LASF4605
     /tmp/ccCwMAmf.s:108116  .debug_str:000000000004f059 .LASF4606
     /tmp/ccCwMAmf.s:102094  .debug_str:0000000000036046 .LASF4607
     /tmp/ccCwMAmf.s:102300  .debug_str:0000000000036de3 .LASF4608
     /tmp/ccCwMAmf.s:89826  .debug_str:0000000000003c9e .LASF4609
     /tmp/ccCwMAmf.s:106804  .debug_str:0000000000049614 .LASF4610
     /tmp/ccCwMAmf.s:89688  .debug_str:00000000000033d5 .LASF4611
     /tmp/ccCwMAmf.s:96176  .debug_str:000000000001dc46 .LASF4612
     /tmp/ccCwMAmf.s:92534  .debug_str:000000000000ee4f .LASF4613
     /tmp/ccCwMAmf.s:89704  .debug_str:00000000000034d5 .LASF4614
     /tmp/ccCwMAmf.s:94582  .debug_str:0000000000016e84 .LASF4615
     /tmp/ccCwMAmf.s:95854  .debug_str:000000000001c59c .LASF4616
     /tmp/ccCwMAmf.s:100342  .debug_str:000000000002ebbf .LASF4617
     /tmp/ccCwMAmf.s:89392  .debug_str:0000000000001f76 .LASF4618
     /tmp/ccCwMAmf.s:100642  .debug_str:000000000002ff95 .LASF4619
     /tmp/ccCwMAmf.s:89714  .debug_str:0000000000003529 .LASF4620
     /tmp/ccCwMAmf.s:95402  .debug_str:000000000001a5d7 .LASF4621
     /tmp/ccCwMAmf.s:103976  .debug_str:000000000003d764 .LASF4622
     /tmp/ccCwMAmf.s:92904  .debug_str:0000000000010493 .LASF4623
     /tmp/ccCwMAmf.s:104736  .debug_str:0000000000040887 .LASF4624
     /tmp/ccCwMAmf.s:93248  .debug_str:00000000000118d6 .LASF4625
     /tmp/ccCwMAmf.s:100950  .debug_str:0000000000031317 .LASF4626
     /tmp/ccCwMAmf.s:106874  .debug_str:0000000000049b41 .LASF4627
     /tmp/ccCwMAmf.s:107316  .debug_str:000000000004b95e .LASF4628
     /tmp/ccCwMAmf.s:94320  .debug_str:0000000000015de6 .LASF4629
     /tmp/ccCwMAmf.s:102968  .debug_str:00000000000394f6 .LASF4630
     /tmp/ccCwMAmf.s:107280  .debug_str:000000000004b6d9 .LASF4631
     /tmp/ccCwMAmf.s:100682  .debug_str:000000000003022b .LASF4632
     /tmp/ccCwMAmf.s:93942  .debug_str:000000000001468f .LASF4633
     /tmp/ccCwMAmf.s:98372  .debug_str:0000000000026ce1 .LASF4634
     /tmp/ccCwMAmf.s:106908  .debug_str:0000000000049d1a .LASF4635
     /tmp/ccCwMAmf.s:96112  .debug_str:000000000001d736 .LASF4636
     /tmp/ccCwMAmf.s:104468  .debug_str:000000000003f7ae .LASF4637
     /tmp/ccCwMAmf.s:95028  .debug_str:0000000000018b5a .LASF4638
     /tmp/ccCwMAmf.s:104984  .debug_str:0000000000041d9e .LASF4639
     /tmp/ccCwMAmf.s:94154  .debug_str:0000000000015320 .LASF4640
     /tmp/ccCwMAmf.s:102800  .debug_str:0000000000038cbf .LASF4641
     /tmp/ccCwMAmf.s:91776  .debug_str:000000000000c1ee .LASF4642
     /tmp/ccCwMAmf.s:100138  .debug_str:000000000002dde0 .LASF4643
     /tmp/ccCwMAmf.s:89634  .debug_str:0000000000003009 .LASF4644
     /tmp/ccCwMAmf.s:98052  .debug_str:0000000000025950 .LASF4645
     /tmp/ccCwMAmf.s:106616  .debug_str:00000000000489d9 .LASF4646
     /tmp/ccCwMAmf.s:95826  .debug_str:000000000001c313 .LASF4647
     /tmp/ccCwMAmf.s:107070  .debug_str:000000000004a808 .LASF4648
     /tmp/ccCwMAmf.s:90642  .debug_str:00000000000074e8 .LASF4649
     /tmp/ccCwMAmf.s:106026  .debug_str:0000000000046346 .LASF4650
     /tmp/ccCwMAmf.s:107528  .debug_str:000000000004c768 .LASF4651
     /tmp/ccCwMAmf.s:96718  .debug_str:0000000000020284 .LASF4652
     /tmp/ccCwMAmf.s:95850  .debug_str:000000000001c57e .LASF4653
     /tmp/ccCwMAmf.s:95308  .debug_str:0000000000019ec2 .LASF4654
     /tmp/ccCwMAmf.s:107082  .debug_str:000000000004a8dc .LASF4655
     /tmp/ccCwMAmf.s:96600  .debug_str:000000000001f9d2 .LASF4656
     /tmp/ccCwMAmf.s:99804  .debug_str:000000000002c8e0 .LASF4657
     /tmp/ccCwMAmf.s:90898  .debug_str:000000000000856b .LASF4658
     /tmp/ccCwMAmf.s:101700  .debug_str:0000000000034420 .LASF4659
     /tmp/ccCwMAmf.s:92816  .debug_str:000000000001001e .LASF4660
     /tmp/ccCwMAmf.s:100894  .debug_str:0000000000030fbd .LASF4661
     /tmp/ccCwMAmf.s:93474  .debug_str:000000000001274e .LASF4662
     /tmp/ccCwMAmf.s:94076  .debug_str:0000000000014e2d .LASF4663
     /tmp/ccCwMAmf.s:103936  .debug_str:000000000003d4ad .LASF4664
     /tmp/ccCwMAmf.s:103732  .debug_str:000000000003c815 .LASF4665
     /tmp/ccCwMAmf.s:105628  .debug_str:000000000004491a .LASF4666
     /tmp/ccCwMAmf.s:105930  .debug_str:0000000000045d2c .LASF4667
     /tmp/ccCwMAmf.s:91558  .debug_str:000000000000b2a4 .LASF4668
     /tmp/ccCwMAmf.s:98772  .debug_str:0000000000028720 .LASF4669
     /tmp/ccCwMAmf.s:102288  .debug_str:0000000000036d17 .LASF4670
     /tmp/ccCwMAmf.s:98720  .debug_str:000000000002830f .LASF4671
     /tmp/ccCwMAmf.s:104314  .debug_str:000000000003edb4 .LASF4672
     /tmp/ccCwMAmf.s:102426  .debug_str:0000000000037645 .LASF4673
     /tmp/ccCwMAmf.s:97744  .debug_str:0000000000024833 .LASF4674
     /tmp/ccCwMAmf.s:90824  .debug_str:000000000000806c .LASF4675
     /tmp/ccCwMAmf.s:99580  .debug_str:000000000002bb2f .LASF4676
     /tmp/ccCwMAmf.s:92836  .debug_str:000000000001015d .LASF4677
     /tmp/ccCwMAmf.s:101470  .debug_str:00000000000335d4 .LASF4678
     /tmp/ccCwMAmf.s:92578  .debug_str:000000000000f158 .LASF4679
     /tmp/ccCwMAmf.s:92586  .debug_str:000000000000f1f3 .LASF4680
     /tmp/ccCwMAmf.s:94574  .debug_str:0000000000016e05 .LASF4681
     /tmp/ccCwMAmf.s:105210  .debug_str:0000000000042d32 .LASF4682
     /tmp/ccCwMAmf.s:96274  .debug_str:000000000001e34c .LASF4683
     /tmp/ccCwMAmf.s:98220  .debug_str:00000000000262ca .LASF4684
     /tmp/ccCwMAmf.s:102514  .debug_str:0000000000037b88 .LASF4685
     /tmp/ccCwMAmf.s:103526  .debug_str:000000000003b8bb .LASF4686
     /tmp/ccCwMAmf.s:102816  .debug_str:0000000000038d84 .LASF4687
     /tmp/ccCwMAmf.s:91986  .debug_str:000000000000cfee .LASF4688
     /tmp/ccCwMAmf.s:89832  .debug_str:0000000000003d0f .LASF4689
     /tmp/ccCwMAmf.s:94796  .debug_str:0000000000017db2 .LASF4690
     /tmp/ccCwMAmf.s:105462  .debug_str:0000000000043e92 .LASF4691
     /tmp/ccCwMAmf.s:104560  .debug_str:000000000003fcf4 .LASF4692
     /tmp/ccCwMAmf.s:103116  .debug_str:0000000000039cff .LASF4693
     /tmp/ccCwMAmf.s:98590  .debug_str:0000000000027ab3 .LASF4694
     /tmp/ccCwMAmf.s:95536  .debug_str:000000000001af3e .LASF4695
     /tmp/ccCwMAmf.s:105244  .debug_str:0000000000042fd6 .LASF4696
     /tmp/ccCwMAmf.s:97408  .debug_str:00000000000230d3 .LASF4697
     /tmp/ccCwMAmf.s:101394  .debug_str:0000000000033045 .LASF4698
     /tmp/ccCwMAmf.s:102814  .debug_str:0000000000038d6b .LASF4699
     /tmp/ccCwMAmf.s:105988  .debug_str:00000000000460dc .LASF4700
     /tmp/ccCwMAmf.s:101086  .debug_str:0000000000031b8d .LASF4701
     /tmp/ccCwMAmf.s:105424  .debug_str:0000000000043bdd .LASF4702
     /tmp/ccCwMAmf.s:103000  .debug_str:0000000000039624 .LASF4703
     /tmp/ccCwMAmf.s:94162  .debug_str:00000000000153c3 .LASF4704
     /tmp/ccCwMAmf.s:103928  .debug_str:000000000003d414 .LASF4705
     /tmp/ccCwMAmf.s:100148  .debug_str:000000000002de6e .LASF4706
     /tmp/ccCwMAmf.s:91182  .debug_str:0000000000009869 .LASF4707
     /tmp/ccCwMAmf.s:102016  .debug_str:0000000000035b23 .LASF4708
     /tmp/ccCwMAmf.s:93150  .debug_str:00000000000112bc .LASF4709
     /tmp/ccCwMAmf.s:95496  .debug_str:000000000001aca5 .LASF4710
     /tmp/ccCwMAmf.s:94950  .debug_str:0000000000018738 .LASF4711
     /tmp/ccCwMAmf.s:98736  .debug_str:0000000000028434 .LASF4712
     /tmp/ccCwMAmf.s:104330  .debug_str:000000000003eeb6 .LASF4713
     /tmp/ccCwMAmf.s:107442  .debug_str:000000000004c15a .LASF4714
     /tmp/ccCwMAmf.s:90912  .debug_str:000000000000869b .LASF4715
     /tmp/ccCwMAmf.s:95210  .debug_str:0000000000019818 .LASF4716
     /tmp/ccCwMAmf.s:103220  .debug_str:000000000003a3b4 .LASF4717
     /tmp/ccCwMAmf.s:90832  .debug_str:00000000000080d8 .LASF4718
     /tmp/ccCwMAmf.s:105048  .debug_str:0000000000042257 .LASF4719
     /tmp/ccCwMAmf.s:91706  .debug_str:000000000000bdb6 .LASF4720
     /tmp/ccCwMAmf.s:96116  .debug_str:000000000001d768 .LASF4721
     /tmp/ccCwMAmf.s:93690  .debug_str:0000000000013725 .LASF4722
     /tmp/ccCwMAmf.s:99794  .debug_str:000000000002c834 .LASF4723
     /tmp/ccCwMAmf.s:104454  .debug_str:000000000003f68b .LASF4724
     /tmp/ccCwMAmf.s:102522  .debug_str:0000000000037bf3 .LASF4725
     /tmp/ccCwMAmf.s:104772  .debug_str:0000000000040c47 .LASF4726
     /tmp/ccCwMAmf.s:105978  .debug_str:0000000000046055 .LASF4727
     /tmp/ccCwMAmf.s:106680  .debug_str:0000000000048e40 .LASF4728
     /tmp/ccCwMAmf.s:95064  .debug_str:0000000000018dc9 .LASF4729
     /tmp/ccCwMAmf.s:99698  .debug_str:000000000002c2e8 .LASF4730
     /tmp/ccCwMAmf.s:99086  .debug_str:0000000000029bdc .LASF4731
     /tmp/ccCwMAmf.s:101936  .debug_str:00000000000354fd .LASF4732
     /tmp/ccCwMAmf.s:93388  .debug_str:0000000000012256 .LASF4733
     /tmp/ccCwMAmf.s:107558  .debug_str:000000000004c985 .LASF4734
     /tmp/ccCwMAmf.s:99842  .debug_str:000000000002cb7e .LASF4735
     /tmp/ccCwMAmf.s:89812  .debug_str:0000000000003ba6 .LASF4736
     /tmp/ccCwMAmf.s:104126  .debug_str:000000000003e27b .LASF4737
     /tmp/ccCwMAmf.s:105884  .debug_str:0000000000045a31 .LASF4738
     /tmp/ccCwMAmf.s:90728  .debug_str:0000000000007a4f .LASF4739
     /tmp/ccCwMAmf.s:100028  .debug_str:000000000002d67a .LASF4740
     /tmp/ccCwMAmf.s:105516  .debug_str:0000000000044198 .LASF4741
     /tmp/ccCwMAmf.s:99454  .debug_str:000000000002b3a3 .LASF4742
     /tmp/ccCwMAmf.s:93726  .debug_str:000000000001395f .LASF4743
     /tmp/ccCwMAmf.s:89176  .debug_str:0000000000000f76 .LASF4744
     /tmp/ccCwMAmf.s:99406  .debug_str:000000000002b09c .LASF4745
     /tmp/ccCwMAmf.s:99300  .debug_str:000000000002a9a0 .LASF4746
     /tmp/ccCwMAmf.s:98170  .debug_str:0000000000025fa1 .LASF4747
     /tmp/ccCwMAmf.s:90402  .debug_str:00000000000063ba .LASF4748
     /tmp/ccCwMAmf.s:96550  .debug_str:000000000001f685 .LASF4749
     /tmp/ccCwMAmf.s:101108  .debug_str:0000000000031cd2 .LASF4750
     /tmp/ccCwMAmf.s:94932  .debug_str:000000000001860a .LASF4751
     /tmp/ccCwMAmf.s:92340  .debug_str:000000000000e49b .LASF4752
     /tmp/ccCwMAmf.s:92202  .debug_str:000000000000dcc0 .LASF4753
     /tmp/ccCwMAmf.s:93430  .debug_str:00000000000124d5 .LASF4754
     /tmp/ccCwMAmf.s:91292  .debug_str:000000000000a040 .LASF4755
     /tmp/ccCwMAmf.s:95264  .debug_str:0000000000019c10 .LASF4756
     /tmp/ccCwMAmf.s:98548  .debug_str:00000000000277d5 .LASF4757
     /tmp/ccCwMAmf.s:103020  .debug_str:0000000000039758 .LASF4758
     /tmp/ccCwMAmf.s:101242  .debug_str:0000000000032647 .LASF4759
     /tmp/ccCwMAmf.s:100246  .debug_str:000000000002e4c4 .LASF4760
     /tmp/ccCwMAmf.s:104228  .debug_str:000000000003e923 .LASF4761
     /tmp/ccCwMAmf.s:99412  .debug_str:000000000002b0e6 .LASF4762
     /tmp/ccCwMAmf.s:107034  .debug_str:000000000004a531 .LASF4763
     /tmp/ccCwMAmf.s:89582  .debug_str:0000000000002c5b .LASF4764
     /tmp/ccCwMAmf.s:102798  .debug_str:0000000000038c97 .LASF4765
     /tmp/ccCwMAmf.s:107554  .debug_str:000000000004c948 .LASF4766
     /tmp/ccCwMAmf.s:102046  .debug_str:0000000000035d93 .LASF4767
     /tmp/ccCwMAmf.s:102222  .debug_str:00000000000368fa .LASF4768
     /tmp/ccCwMAmf.s:105560  .debug_str:00000000000444cb .LASF4769
     /tmp/ccCwMAmf.s:95594  .debug_str:000000000001b2e2 .LASF4770
     /tmp/ccCwMAmf.s:89786  .debug_str:00000000000039b3 .LASF4771
     /tmp/ccCwMAmf.s:92464  .debug_str:000000000000eb94 .LASF4772
     /tmp/ccCwMAmf.s:91208  .debug_str:0000000000009a96 .LASF4773
     /tmp/ccCwMAmf.s:97988  .debug_str:00000000000255e8 .LASF4774
     /tmp/ccCwMAmf.s:105208  .debug_str:0000000000042d0c .LASF4775
     /tmp/ccCwMAmf.s:92326  .debug_str:000000000000e3f1 .LASF4776
     /tmp/ccCwMAmf.s:93902  .debug_str:00000000000143e6 .LASF4777
     /tmp/ccCwMAmf.s:92642  .debug_str:000000000000f548 .LASF4778
     /tmp/ccCwMAmf.s:99632  .debug_str:000000000002bed9 .LASF4779
     /tmp/ccCwMAmf.s:106650  .debug_str:0000000000048c17 .LASF4780
     /tmp/ccCwMAmf.s:101450  .debug_str:000000000003340d .LASF4781
     /tmp/ccCwMAmf.s:107456  .debug_str:000000000004c268 .LASF4782
     /tmp/ccCwMAmf.s:102886  .debug_str:0000000000039101 .LASF4783
     /tmp/ccCwMAmf.s:89384  .debug_str:0000000000001f03 .LASF4784
     /tmp/ccCwMAmf.s:95444  .debug_str:000000000001a8b5 .LASF4785
     /tmp/ccCwMAmf.s:99236  .debug_str:000000000002a629 .LASF4786
     /tmp/ccCwMAmf.s:105664  .debug_str:0000000000044be5 .LASF4787
     /tmp/ccCwMAmf.s:93922  .debug_str:0000000000014513 .LASF4788
     /tmp/ccCwMAmf.s:93856  .debug_str:00000000000140ef .LASF4789
     /tmp/ccCwMAmf.s:104986  .debug_str:0000000000041db4 .LASF4790
     /tmp/ccCwMAmf.s:106696  .debug_str:0000000000048f6a .LASF4791
     /tmp/ccCwMAmf.s:95146  .debug_str:000000000001939c .LASF4792
     /tmp/ccCwMAmf.s:99344  .debug_str:000000000002ac17 .LASF4793
     /tmp/ccCwMAmf.s:104508  .debug_str:000000000003fa0a .LASF4794
     /tmp/ccCwMAmf.s:97358  .debug_str:0000000000022df0 .LASF4795
     /tmp/ccCwMAmf.s:94520  .debug_str:0000000000016a63 .LASF4796
     /tmp/ccCwMAmf.s:103646  .debug_str:000000000003c1e9 .LASF4797
     /tmp/ccCwMAmf.s:99694  .debug_str:000000000002c2d0 .LASF4798
     /tmp/ccCwMAmf.s:94586  .debug_str:0000000000016edf .LASF4799
     /tmp/ccCwMAmf.s:98078  .debug_str:0000000000025aed .LASF4800
     /tmp/ccCwMAmf.s:98004  .debug_str:0000000000025736 .LASF4801
     /tmp/ccCwMAmf.s:90112  .debug_str:0000000000005038 .LASF4802
     /tmp/ccCwMAmf.s:92696  .debug_str:000000000000f7f3 .LASF4803
     /tmp/ccCwMAmf.s:105962  .debug_str:0000000000045f36 .LASF4804
     /tmp/ccCwMAmf.s:89790  .debug_str:00000000000039ef .LASF4805
     /tmp/ccCwMAmf.s:93530  .debug_str:0000000000012b7c .LASF4806
     /tmp/ccCwMAmf.s:106688  .debug_str:0000000000048ebf .LASF4807
     /tmp/ccCwMAmf.s:100582  .debug_str:000000000002fbbc .LASF4808
     /tmp/ccCwMAmf.s:94296  .debug_str:0000000000015c7d .LASF4809
     /tmp/ccCwMAmf.s:96966  .debug_str:00000000000212f8 .LASF4810
     /tmp/ccCwMAmf.s:96228  .debug_str:000000000001dfc3 .LASF4811
     /tmp/ccCwMAmf.s:105436  .debug_str:0000000000043c64 .LASF4812
     /tmp/ccCwMAmf.s:95200  .debug_str:0000000000019788 .LASF4813
     /tmp/ccCwMAmf.s:104364  .debug_str:000000000003f0fd .LASF4814
     /tmp/ccCwMAmf.s:94166  .debug_str:00000000000153f6 .LASF4815
     /tmp/ccCwMAmf.s:103448  .debug_str:000000000003b3ce .LASF4816
     /tmp/ccCwMAmf.s:91710  .debug_str:000000000000be08 .LASF4817
     /tmp/ccCwMAmf.s:90270  .debug_str:0000000000005b34 .LASF4818
     /tmp/ccCwMAmf.s:91398  .debug_str:000000000000a77d .LASF4819
     /tmp/ccCwMAmf.s:105968  .debug_str:0000000000045fce .LASF4820
     /tmp/ccCwMAmf.s:92020  .debug_str:000000000000d293 .LASF4821
     /tmp/ccCwMAmf.s:90438  .debug_str:00000000000065e2 .LASF4822
     /tmp/ccCwMAmf.s:99136  .debug_str:0000000000029f42 .LASF4823
     /tmp/ccCwMAmf.s:99364  .debug_str:000000000002addf .LASF4824
     /tmp/ccCwMAmf.s:104442  .debug_str:000000000003f594 .LASF4825
     /tmp/ccCwMAmf.s:99954  .debug_str:000000000002d234 .LASF4826
     /tmp/ccCwMAmf.s:95432  .debug_str:000000000001a795 .LASF4827
     /tmp/ccCwMAmf.s:106986  .debug_str:000000000004a1b0 .LASF4828
     /tmp/ccCwMAmf.s:100858  .debug_str:0000000000030d99 .LASF4829
     /tmp/ccCwMAmf.s:107164  .debug_str:000000000004aecd .LASF4830
     /tmp/ccCwMAmf.s:101054  .debug_str:00000000000319b3 .LASF4831
     /tmp/ccCwMAmf.s:94784  .debug_str:0000000000017d04 .LASF4832
     /tmp/ccCwMAmf.s:107972  .debug_str:000000000004e704 .LASF4833
     /tmp/ccCwMAmf.s:101850  .debug_str:0000000000034e9b .LASF4834
     /tmp/ccCwMAmf.s:95572  .debug_str:000000000001b170 .LASF4835
     /tmp/ccCwMAmf.s:100692  .debug_str:0000000000030287 .LASF4836
     /tmp/ccCwMAmf.s:97966  .debug_str:00000000000254c7 .LASF4837
     /tmp/ccCwMAmf.s:93306  .debug_str:0000000000011cf6 .LASF4838
     /tmp/ccCwMAmf.s:99144  .debug_str:0000000000029fb9 .LASF4839
     /tmp/ccCwMAmf.s:94278  .debug_str:0000000000015b48 .LASF4840
     /tmp/ccCwMAmf.s:98662  .debug_str:0000000000027f50 .LASF4841
     /tmp/ccCwMAmf.s:100836  .debug_str:0000000000030c2c .LASF4842
     /tmp/ccCwMAmf.s:92468  .debug_str:000000000000ebb8 .LASF4843
     /tmp/ccCwMAmf.s:99478  .debug_str:000000000002b53f .LASF4844
     /tmp/ccCwMAmf.s:102042  .debug_str:0000000000035d13 .LASF4845
     /tmp/ccCwMAmf.s:106368  .debug_str:0000000000047a03 .LASF4846
     /tmp/ccCwMAmf.s:100990  .debug_str:000000000003158a .LASF4847
     /tmp/ccCwMAmf.s:93984  .debug_str:000000000001494a .LASF4848
     /tmp/ccCwMAmf.s:99598  .debug_str:000000000002bc18 .LASF4849
     /tmp/ccCwMAmf.s:98734  .debug_str:00000000000283fb .LASF4850
     /tmp/ccCwMAmf.s:95508  .debug_str:000000000001ad67 .LASF4851
     /tmp/ccCwMAmf.s:89630  .debug_str:0000000000002fc8 .LASF4852
     /tmp/ccCwMAmf.s:94090  .debug_str:0000000000014f02 .LASF4853
     /tmp/ccCwMAmf.s:107244  .debug_str:000000000004b474 .LASF4854
     /tmp/ccCwMAmf.s:102138  .debug_str:0000000000036384 .LASF4855
     /tmp/ccCwMAmf.s:104864  .debug_str:0000000000041355 .LASF4856
     /tmp/ccCwMAmf.s:97740  .debug_str:00000000000247f0 .LASF4857
     /tmp/ccCwMAmf.s:92352  .debug_str:000000000000e569 .LASF4858
     /tmp/ccCwMAmf.s:97990  .debug_str:0000000000025618 .LASF4859
     /tmp/ccCwMAmf.s:100672  .debug_str:000000000003012d .LASF4860
     /tmp/ccCwMAmf.s:90352  .debug_str:0000000000006023 .LASF4861
     /tmp/ccCwMAmf.s:98792  .debug_str:000000000002889d .LASF4862
     /tmp/ccCwMAmf.s:89320  .debug_str:0000000000001a2f .LASF4863
     /tmp/ccCwMAmf.s:91202  .debug_str:0000000000009a18 .LASF4864
     /tmp/ccCwMAmf.s:99624  .debug_str:000000000002be46 .LASF4865
     /tmp/ccCwMAmf.s:93344  .debug_str:0000000000011f0c .LASF4866
     /tmp/ccCwMAmf.s:106524  .debug_str:0000000000048458 .LASF4867
     /tmp/ccCwMAmf.s:91740  .debug_str:000000000000bfe1 .LASF4868
     /tmp/ccCwMAmf.s:107500  .debug_str:000000000004c57c .LASF4869
     /tmp/ccCwMAmf.s:98848  .debug_str:0000000000028c51 .LASF4870
     /tmp/ccCwMAmf.s:92550  .debug_str:000000000000ef53 .LASF4871
     /tmp/ccCwMAmf.s:94618  .debug_str:000000000001708d .LASF4872
     /tmp/ccCwMAmf.s:107986  .debug_str:000000000004e80d .LASF4873
     /tmp/ccCwMAmf.s:100422  .debug_str:000000000002f0fd .LASF4874
     /tmp/ccCwMAmf.s:102536  .debug_str:0000000000037ced .LASF4875
     /tmp/ccCwMAmf.s:98636  .debug_str:0000000000027d95 .LASF4876
     /tmp/ccCwMAmf.s:90450  .debug_str:00000000000066f9 .LASF4877
     /tmp/ccCwMAmf.s:107356  .debug_str:000000000004bbe6 .LASF4878
     /tmp/ccCwMAmf.s:97782  .debug_str:0000000000024982 .LASF4879
     /tmp/ccCwMAmf.s:98318  .debug_str:0000000000026942 .LASF4880
     /tmp/ccCwMAmf.s:96092  .debug_str:000000000001d596 .LASF4881
     /tmp/ccCwMAmf.s:106620  .debug_str:00000000000489f9 .LASF4882
     /tmp/ccCwMAmf.s:99124  .debug_str:0000000000029e74 .LASF4883
     /tmp/ccCwMAmf.s:104918  .debug_str:00000000000416a0 .LASF4884
     /tmp/ccCwMAmf.s:102850  .debug_str:0000000000038e94 .LASF4885
     /tmp/ccCwMAmf.s:99950  .debug_str:000000000002d1d9 .LASF4886
     /tmp/ccCwMAmf.s:102862  .debug_str:0000000000038f93 .LASF4887
     /tmp/ccCwMAmf.s:97350  .debug_str:0000000000022d55 .LASF4888
     /tmp/ccCwMAmf.s:105082  .debug_str:0000000000042541 .LASF4889
     /tmp/ccCwMAmf.s:105632  .debug_str:0000000000044958 .LASF4890
     /tmp/ccCwMAmf.s:91294  .debug_str:000000000000a06b .LASF4891
     /tmp/ccCwMAmf.s:91818  .debug_str:000000000000c482 .LASF4892
     /tmp/ccCwMAmf.s:97958  .debug_str:0000000000025461 .LASF4893
     /tmp/ccCwMAmf.s:99128  .debug_str:0000000000029eb5 .LASF4894
     /tmp/ccCwMAmf.s:92838  .debug_str:0000000000010175 .LASF4895
     /tmp/ccCwMAmf.s:106070  .debug_str:00000000000465ce .LASF4896
     /tmp/ccCwMAmf.s:102370  .debug_str:00000000000372b5 .LASF4897
     /tmp/ccCwMAmf.s:103570  .debug_str:000000000003bc2b .LASF4898
     /tmp/ccCwMAmf.s:93284  .debug_str:0000000000011b4e .LASF4899
     /tmp/ccCwMAmf.s:100852  .debug_str:0000000000030d1e .LASF4900
     /tmp/ccCwMAmf.s:92146  .debug_str:000000000000da34 .LASF4901
     /tmp/ccCwMAmf.s:107780  .debug_str:000000000004d991 .LASF4902
     /tmp/ccCwMAmf.s:101666  .debug_str:000000000003421f .LASF4903
     /tmp/ccCwMAmf.s:102870  .debug_str:0000000000039013 .LASF4904
     /tmp/ccCwMAmf.s:96578  .debug_str:000000000001f877 .LASF4905
     /tmp/ccCwMAmf.s:106662  .debug_str:0000000000048cb3 .LASF4906
     /tmp/ccCwMAmf.s:103596  .debug_str:000000000003bdd0 .LASF4907
     /tmp/ccCwMAmf.s:107148  .debug_str:000000000004ad4c .LASF4908
     /tmp/ccCwMAmf.s:106748  .debug_str:00000000000492d6 .LASF4909
     /tmp/ccCwMAmf.s:91838  .debug_str:000000000000c5e5 .LASF4910
     /tmp/ccCwMAmf.s:102196  .debug_str:000000000003675c .LASF4911
     /tmp/ccCwMAmf.s:105614  .debug_str:00000000000447fd .LASF4912
     /tmp/ccCwMAmf.s:106238  .debug_str:000000000004709b .LASF4913
     /tmp/ccCwMAmf.s:90816  .debug_str:0000000000007fb0 .LASF4914
     /tmp/ccCwMAmf.s:106364  .debug_str:000000000004798a .LASF4915
     /tmp/ccCwMAmf.s:89822  .debug_str:0000000000003c52 .LASF4916
     /tmp/ccCwMAmf.s:99080  .debug_str:0000000000029b6c .LASF4917
     /tmp/ccCwMAmf.s:107118  .debug_str:000000000004ab1f .LASF4918
     /tmp/ccCwMAmf.s:95068  .debug_str:0000000000018e28 .LASF4919
     /tmp/ccCwMAmf.s:107152  .debug_str:000000000004adb4 .LASF4920
     /tmp/ccCwMAmf.s:95094  .debug_str:0000000000018fe1 .LASF4921
     /tmp/ccCwMAmf.s:90040  .debug_str:0000000000004bc3 .LASF4922
     /tmp/ccCwMAmf.s:102124  .debug_str:000000000003624e .LASF4923
     /tmp/ccCwMAmf.s:95888  .debug_str:000000000001c7f7 .LASF4924
     /tmp/ccCwMAmf.s:107302  .debug_str:000000000004b85f .LASF4925
     /tmp/ccCwMAmf.s:102938  .debug_str:000000000003936d .LASF4926
     /tmp/ccCwMAmf.s:95234  .debug_str:00000000000199d4 .LASF4927
     /tmp/ccCwMAmf.s:99386  .debug_str:000000000002af93 .LASF4928
     /tmp/ccCwMAmf.s:107884  .debug_str:000000000004e10c .LASF4929
     /tmp/ccCwMAmf.s:97640  .debug_str:0000000000024137 .LASF4930
     /tmp/ccCwMAmf.s:106838  .debug_str:000000000004984f .LASF4931
     /tmp/ccCwMAmf.s:96656  .debug_str:000000000001fdb8 .LASF4932
     /tmp/ccCwMAmf.s:98946  .debug_str:000000000002937c .LASF4933
     /tmp/ccCwMAmf.s:106518  .debug_str:00000000000483c3 .LASF4934
     /tmp/ccCwMAmf.s:89828  .debug_str:0000000000003cb6 .LASF4935
     /tmp/ccCwMAmf.s:103678  .debug_str:000000000003c48d .LASF4936
     /tmp/ccCwMAmf.s:97090  .debug_str:0000000000021c7b .LASF4937
     /tmp/ccCwMAmf.s:96290  .debug_str:000000000001e42d .LASF4938
     /tmp/ccCwMAmf.s:96054  .debug_str:000000000001d307 .LASF4939
     /tmp/ccCwMAmf.s:93510  .debug_str:0000000000012a27 .LASF4940
     /tmp/ccCwMAmf.s:91754  .debug_str:000000000000c0c4 .LASF4941
     /tmp/ccCwMAmf.s:101150  .debug_str:0000000000031f60 .LASF4942
     /tmp/ccCwMAmf.s:106946  .debug_str:0000000000049fa4 .LASF4943
     /tmp/ccCwMAmf.s:100826  .debug_str:0000000000030b9a .LASF4944
     /tmp/ccCwMAmf.s:89800  .debug_str:0000000000003ade .LASF4945
     /tmp/ccCwMAmf.s:107920  .debug_str:000000000004e3ac .LASF4946
     /tmp/ccCwMAmf.s:96576  .debug_str:000000000001f840 .LASF4947
     /tmp/ccCwMAmf.s:95520  .debug_str:000000000001ae26 .LASF4948
     /tmp/ccCwMAmf.s:89284  .debug_str:00000000000016a1 .LASF4949
     /tmp/ccCwMAmf.s:108072  .debug_str:000000000004edbc .LASF4950
     /tmp/ccCwMAmf.s:98300  .debug_str:00000000000267cb .LASF4951
     /tmp/ccCwMAmf.s:95258  .debug_str:0000000000019b99 .LASF4952
     /tmp/ccCwMAmf.s:94114  .debug_str:0000000000015073 .LASF4953
     /tmp/ccCwMAmf.s:107266  .debug_str:000000000004b5f1 .LASF4954
     /tmp/ccCwMAmf.s:101156  .debug_str:0000000000031fff .LASF4955
     /tmp/ccCwMAmf.s:98200  .debug_str:0000000000026187 .LASF4956
     /tmp/ccCwMAmf.s:108060  .debug_str:000000000004ed15 .LASF4957
     /tmp/ccCwMAmf.s:104362  .debug_str:000000000003f0c6 .LASF4958
     /tmp/ccCwMAmf.s:96960  .debug_str:00000000000212c1 .LASF4959
     /tmp/ccCwMAmf.s:103258  .debug_str:000000000003a631 .LASF4960
     /tmp/ccCwMAmf.s:108222  .debug_str:000000000004f78d .LASF4961
     /tmp/ccCwMAmf.s:98006  .debug_str:000000000002576e .LASF4962
     /tmp/ccCwMAmf.s:103948  .debug_str:000000000003d565 .LASF4963
     /tmp/ccCwMAmf.s:93562  .debug_str:0000000000012dfc .LASF4964
     /tmp/ccCwMAmf.s:94644  .debug_str:0000000000017268 .LASF4965
     /tmp/ccCwMAmf.s:101736  .debug_str:0000000000034669 .LASF4966
     /tmp/ccCwMAmf.s:95128  .debug_str:00000000000191de .LASF4967
     /tmp/ccCwMAmf.s:104610  .debug_str:0000000000040015 .LASF4968
     /tmp/ccCwMAmf.s:105970  .debug_str:0000000000046006 .LASF4969
     /tmp/ccCwMAmf.s:108010  .debug_str:000000000004e93d .LASF4970
     /tmp/ccCwMAmf.s:95468  .debug_str:000000000001aade .LASF4971
     /tmp/ccCwMAmf.s:94274  .debug_str:0000000000015ad6 .LASF4972
     /tmp/ccCwMAmf.s:89354  .debug_str:0000000000001c98 .LASF4973
     /tmp/ccCwMAmf.s:91230  .debug_str:0000000000009c88 .LASF4974
     /tmp/ccCwMAmf.s:96356  .debug_str:000000000001e8eb .LASF4975
     /tmp/ccCwMAmf.s:103326  .debug_str:000000000003ab22 .LASF4976
     /tmp/ccCwMAmf.s:103576  .debug_str:000000000003bc8e .LASF4977
     /tmp/ccCwMAmf.s:107682  .debug_str:000000000004d1ee .LASF4978
     /tmp/ccCwMAmf.s:103178  .debug_str:000000000003a093 .LASF4979
     /tmp/ccCwMAmf.s:108228  .debug_str:000000000004f811 .LASF4980
     /tmp/ccCwMAmf.s:107668  .debug_str:000000000004d0ee .LASF4981
     /tmp/ccCwMAmf.s:100400  .debug_str:000000000002ef0a .LASF4982
     /tmp/ccCwMAmf.s:97166  .debug_str:00000000000220cb .LASF4983
     /tmp/ccCwMAmf.s:90046  .debug_str:0000000000004c15 .LASF4984
     /tmp/ccCwMAmf.s:92432  .debug_str:000000000000e91c .LASF4985
     /tmp/ccCwMAmf.s:104206  .debug_str:000000000003e7a6 .LASF4986
     /tmp/ccCwMAmf.s:101584  .debug_str:0000000000033d39 .LASF4987
     /tmp/ccCwMAmf.s:93846  .debug_str:000000000001402b .LASF4988
     /tmp/ccCwMAmf.s:106332  .debug_str:000000000004771b .LASF4989
     /tmp/ccCwMAmf.s:91744  .debug_str:000000000000c029 .LASF4990
     /tmp/ccCwMAmf.s:89498  .debug_str:00000000000026c3 .LASF4991
     /tmp/ccCwMAmf.s:90842  .debug_str:0000000000008148 .LASF4992
     /tmp/ccCwMAmf.s:92452  .debug_str:000000000000eae3 .LASF4993
     /tmp/ccCwMAmf.s:88974  .debug_str:00000000000001af .LASF4994
     /tmp/ccCwMAmf.s:99374  .debug_str:000000000002aec6 .LASF4995
     /tmp/ccCwMAmf.s:93938  .debug_str:000000000001463d .LASF4996
     /tmp/ccCwMAmf.s:104170  .debug_str:000000000003e51c .LASF4997
     /tmp/ccCwMAmf.s:100314  .debug_str:000000000002e9b2 .LASF4998
     /tmp/ccCwMAmf.s:104092  .debug_str:000000000003e01c .LASF4999
     /tmp/ccCwMAmf.s:103344  .debug_str:000000000003ac70 .LASF5000
     /tmp/ccCwMAmf.s:102402  .debug_str:0000000000037496 .LASF5001
     /tmp/ccCwMAmf.s:97194  .debug_str:000000000002238e .LASF5002
     /tmp/ccCwMAmf.s:106820  .debug_str:000000000004970a .LASF5003
     /tmp/ccCwMAmf.s:95620  .debug_str:000000000001b490 .LASF5004
     /tmp/ccCwMAmf.s:108316  .debug_str:000000000004fdf5 .LASF5005
     /tmp/ccCwMAmf.s:103182  .debug_str:000000000003a0f2 .LASF5006
     /tmp/ccCwMAmf.s:94870  .debug_str:00000000000181c6 .LASF5007
     /tmp/ccCwMAmf.s:97226  .debug_str:00000000000224e9 .LASF5008
     /tmp/ccCwMAmf.s:91598  .debug_str:000000000000b569 .LASF5009
     /tmp/ccCwMAmf.s:105406  .debug_str:0000000000043aa2 .LASF5010
     /tmp/ccCwMAmf.s:102668  .debug_str:00000000000384a7 .LASF5011
     /tmp/ccCwMAmf.s:106004  .debug_str:0000000000046231 .LASF5012
     /tmp/ccCwMAmf.s:90232  .debug_str:00000000000058a8 .LASF5013
     /tmp/ccCwMAmf.s:102782  .debug_str:0000000000038b8a .LASF5014
     /tmp/ccCwMAmf.s:102090  .debug_str:0000000000036007 .LASF5015
     /tmp/ccCwMAmf.s:96836  .debug_str:0000000000020b19 .LASF5016
     /tmp/ccCwMAmf.s:101044  .debug_str:000000000003191a .LASF5017
     /tmp/ccCwMAmf.s:99510  .debug_str:000000000002b793 .LASF5018
     /tmp/ccCwMAmf.s:96652  .debug_str:000000000001fd6c .LASF5019
     /tmp/ccCwMAmf.s:99014  .debug_str:000000000002974e .LASF5020
     /tmp/ccCwMAmf.s:93390  .debug_str:0000000000012287 .LASF5021
     /tmp/ccCwMAmf.s:105838  .debug_str:0000000000045759 .LASF5022
     /tmp/ccCwMAmf.s:92950  .debug_str:00000000000106f0 .LASF5023
     /tmp/ccCwMAmf.s:95778  .debug_str:000000000001bfc3 .LASF5024
     /tmp/ccCwMAmf.s:105064  .debug_str:00000000000423a7 .LASF5025
     /tmp/ccCwMAmf.s:102972  .debug_str:0000000000039521 .LASF5026
     /tmp/ccCwMAmf.s:108084  .debug_str:000000000004ee87 .LASF5027
     /tmp/ccCwMAmf.s:100794  .debug_str:00000000000309bd .LASF5028
     /tmp/ccCwMAmf.s:105992  .debug_str:0000000000046131 .LASF5029
     /tmp/ccCwMAmf.s:92460  .debug_str:000000000000eb4e .LASF5030
     /tmp/ccCwMAmf.s:94808  .debug_str:0000000000017e3c .LASF5031
     /tmp/ccCwMAmf.s:102236  .debug_str:00000000000369dd .LASF5032
     /tmp/ccCwMAmf.s:99492  .debug_str:000000000002b64e .LASF5033
     /tmp/ccCwMAmf.s:100474  .debug_str:000000000002f505 .LASF5034
     /tmp/ccCwMAmf.s:100518  .debug_str:000000000002f7b8 .LASF5035
     /tmp/ccCwMAmf.s:101734  .debug_str:0000000000034642 .LASF5036
     /tmp/ccCwMAmf.s:91280  .debug_str:0000000000009f51 .LASF5037
     /tmp/ccCwMAmf.s:106870  .debug_str:0000000000049aed .LASF5038
     /tmp/ccCwMAmf.s:94394  .debug_str:00000000000161c0 .LASF5039
     /tmp/ccCwMAmf.s:95740  .debug_str:000000000001bd01 .LASF5040
     /tmp/ccCwMAmf.s:93568  .debug_str:0000000000012e68 .LASF5041
     /tmp/ccCwMAmf.s:92548  .debug_str:000000000000ef21 .LASF5042
     /tmp/ccCwMAmf.s:89242  .debug_str:00000000000013d7 .LASF5043
     /tmp/ccCwMAmf.s:96644  .debug_str:000000000001fccd .LASF5044
     /tmp/ccCwMAmf.s:106858  .debug_str:0000000000049a35 .LASF5045
     /tmp/ccCwMAmf.s:95906  .debug_str:000000000001c990 .LASF5046
     /tmp/ccCwMAmf.s:104272  .debug_str:000000000003eb63 .LASF5047
     /tmp/ccCwMAmf.s:95156  .debug_str:0000000000019460 .LASF5048
     /tmp/ccCwMAmf.s:97828  .debug_str:0000000000024d7d .LASF5049
     /tmp/ccCwMAmf.s:106926  .debug_str:0000000000049e6b .LASF5050
     /tmp/ccCwMAmf.s:94416  .debug_str:0000000000016362 .LASF5051
     /tmp/ccCwMAmf.s:94944  .debug_str:00000000000186d0 .LASF5052
     /tmp/ccCwMAmf.s:92050  .debug_str:000000000000d462 .LASF5053
     /tmp/ccCwMAmf.s:107726  .debug_str:000000000004d514 .LASF5054
     /tmp/ccCwMAmf.s:103782  .debug_str:000000000003caac .LASF5055
     /tmp/ccCwMAmf.s:99798  .debug_str:000000000002c864 .LASF5056
     /tmp/ccCwMAmf.s:107916  .debug_str:000000000004e36a .LASF5057
     /tmp/ccCwMAmf.s:98276  .debug_str:0000000000026615 .LASF5058
     /tmp/ccCwMAmf.s:105456  .debug_str:0000000000043e35 .LASF5059
     /tmp/ccCwMAmf.s:105046  .debug_str:0000000000042227 .LASF5060
     /tmp/ccCwMAmf.s:90922  .debug_str:000000000000874c .LASF5061
     /tmp/ccCwMAmf.s:103758  .debug_str:000000000003c965 .LASF5062
     /tmp/ccCwMAmf.s:93682  .debug_str:00000000000136ac .LASF5063
     /tmp/ccCwMAmf.s:91306  .debug_str:000000000000a12e .LASF5064
     /tmp/ccCwMAmf.s:94456  .debug_str:00000000000165bb .LASF5065
     /tmp/ccCwMAmf.s:93374  .debug_str:000000000001216f .LASF5066
     /tmp/ccCwMAmf.s:98650  .debug_str:0000000000027ea8 .LASF5067
     /tmp/ccCwMAmf.s:91298  .debug_str:000000000000a0ae .LASF5068
     /tmp/ccCwMAmf.s:90458  .debug_str:000000000000676a .LASF5069
     /tmp/ccCwMAmf.s:107600  .debug_str:000000000004cce5 .LASF5070
     /tmp/ccCwMAmf.s:92808  .debug_str:000000000000ffa3 .LASF5071
     /tmp/ccCwMAmf.s:97286  .debug_str:00000000000228ff .LASF5072
     /tmp/ccCwMAmf.s:100344  .debug_str:000000000002ebd7 .LASF5073
     /tmp/ccCwMAmf.s:99748  .debug_str:000000000002c5ce .LASF5074
     /tmp/ccCwMAmf.s:97290  .debug_str:0000000000022939 .LASF5075
     /tmp/ccCwMAmf.s:95976  .debug_str:000000000001ce4f .LASF5076
     /tmp/ccCwMAmf.s:91162  .debug_str:0000000000009728 .LASF5077
     /tmp/ccCwMAmf.s:97612  .debug_str:0000000000023f22 .LASF5078
     /tmp/ccCwMAmf.s:89188  .debug_str:000000000000104c .LASF5079
     /tmp/ccCwMAmf.s:97070  .debug_str:0000000000021ab4 .LASF5080
     /tmp/ccCwMAmf.s:93806  .debug_str:0000000000013e0b .LASF5081
     /tmp/ccCwMAmf.s:96428  .debug_str:000000000001ed25 .LASF5082
     /tmp/ccCwMAmf.s:102202  .debug_str:00000000000367c4 .LASF5083
     /tmp/ccCwMAmf.s:92730  .debug_str:000000000000faa3 .LASF5084
     /tmp/ccCwMAmf.s:98820  .debug_str:0000000000028a6c .LASF5085
     /tmp/ccCwMAmf.s:104798  .debug_str:0000000000040e25 .LASF5086
     /tmp/ccCwMAmf.s:103880  .debug_str:000000000003d0f7 .LASF5087
     /tmp/ccCwMAmf.s:97432  .debug_str:000000000002329d .LASF5088
     /tmp/ccCwMAmf.s:89936  .debug_str:00000000000044b5 .LASF5089
     /tmp/ccCwMAmf.s:105914  .debug_str:0000000000045bf4 .LASF5090
     /tmp/ccCwMAmf.s:97600  .debug_str:0000000000023e6d .LASF5091
     /tmp/ccCwMAmf.s:92130  .debug_str:000000000000d945 .LASF5092
     /tmp/ccCwMAmf.s:104910  .debug_str:0000000000041661 .LASF5093
     /tmp/ccCwMAmf.s:104176  .debug_str:000000000003e585 .LASF5094
     /tmp/ccCwMAmf.s:97502  .debug_str:0000000000023811 .LASF5095
     /tmp/ccCwMAmf.s:89050  .debug_str:0000000000000732 .LASF5096
     /tmp/ccCwMAmf.s:94012  .debug_str:0000000000014b00 .LASF5097
     /tmp/ccCwMAmf.s:100022  .debug_str:000000000002d62e .LASF5098
     /tmp/ccCwMAmf.s:94952  .debug_str:0000000000018751 .LASF5099
     /tmp/ccCwMAmf.s:89798  .debug_str:0000000000003ab1 .LASF5100
     /tmp/ccCwMAmf.s:105682  .debug_str:0000000000044d07 .LASF5101
     /tmp/ccCwMAmf.s:103216  .debug_str:000000000003a346 .LASF5102
     /tmp/ccCwMAmf.s:96488  .debug_str:000000000001f19c .LASF5103
     /tmp/ccCwMAmf.s:103734  .debug_str:000000000003c82d .LASF5104
     /tmp/ccCwMAmf.s:103934  .debug_str:000000000003d47e .LASF5105
     /tmp/ccCwMAmf.s:93722  .debug_str:00000000000138f4 .LASF5106
     /tmp/ccCwMAmf.s:103612  .debug_str:000000000003bf13 .LASF5107
     /tmp/ccCwMAmf.s:90828  .debug_str:000000000000809d .LASF5108
     /tmp/ccCwMAmf.s:90164  .debug_str:0000000000005385 .LASF5109
     /tmp/ccCwMAmf.s:99834  .debug_str:000000000002cab3 .LASF5110
     /tmp/ccCwMAmf.s:91404  .debug_str:000000000000a7ff .LASF5111
     /tmp/ccCwMAmf.s:95150  .debug_str:00000000000193ff .LASF5112
     /tmp/ccCwMAmf.s:104648  .debug_str:0000000000040230 .LASF5113
     /tmp/ccCwMAmf.s:89224  .debug_str:00000000000012a1 .LASF5114
     /tmp/ccCwMAmf.s:100552  .debug_str:000000000002f9e0 .LASF5115
     /tmp/ccCwMAmf.s:93052  .debug_str:0000000000010ca7 .LASF5116
     /tmp/ccCwMAmf.s:91906  .debug_str:000000000000cadd .LASF5117
     /tmp/ccCwMAmf.s:101962  .debug_str:0000000000035777 .LASF5118
     /tmp/ccCwMAmf.s:103568  .debug_str:000000000003bc03 .LASF5119
     /tmp/ccCwMAmf.s:91152  .debug_str:00000000000096ae .LASF5120
     /tmp/ccCwMAmf.s:98252  .debug_str:0000000000026482 .LASF5121
     /tmp/ccCwMAmf.s:98422  .debug_str:0000000000026fc1 .LASF5122
     /tmp/ccCwMAmf.s:100108  .debug_str:000000000002dbcb .LASF5123
     /tmp/ccCwMAmf.s:94318  .debug_str:0000000000015dbb .LASF5124
     /tmp/ccCwMAmf.s:98256  .debug_str:00000000000264be .LASF5125
     /tmp/ccCwMAmf.s:90730  .debug_str:0000000000007a72 .LASF5126
     /tmp/ccCwMAmf.s:108056  .debug_str:000000000004ecc3 .LASF5127
     /tmp/ccCwMAmf.s:107988  .debug_str:000000000004e846 .LASF5128
     /tmp/ccCwMAmf.s:102708  .debug_str:0000000000038796 .LASF5129
     /tmp/ccCwMAmf.s:96282  .debug_str:000000000001e39c .LASF5130
     /tmp/ccCwMAmf.s:104976  .debug_str:0000000000041d16 .LASF5131
     /tmp/ccCwMAmf.s:97230  .debug_str:000000000002252a .LASF5132
     /tmp/ccCwMAmf.s:91946  .debug_str:000000000000cdd6 .LASF5133
     /tmp/ccCwMAmf.s:89740  .debug_str:000000000000366a .LASF5134
     /tmp/ccCwMAmf.s:103992  .debug_str:000000000003d889 .LASF5135
     /tmp/ccCwMAmf.s:93668  .debug_str:00000000000135f5 .LASF5136
     /tmp/ccCwMAmf.s:98544  .debug_str:000000000002777c .LASF5137
     /tmp/ccCwMAmf.s:103348  .debug_str:000000000003acc6 .LASF5138
     /tmp/ccCwMAmf.s:90800  .debug_str:0000000000007ecb .LASF5139
     /tmp/ccCwMAmf.s:94936  .debug_str:000000000001865e .LASF5140
     /tmp/ccCwMAmf.s:92740  .debug_str:000000000000fb94 .LASF5141
     /tmp/ccCwMAmf.s:99808  .debug_str:000000000002c91b .LASF5142
     /tmp/ccCwMAmf.s:94838  .debug_str:0000000000017ff5 .LASF5143
     /tmp/ccCwMAmf.s:98872  .debug_str:0000000000028e14 .LASF5144
     /tmp/ccCwMAmf.s:106984  .debug_str:000000000004a17a .LASF5145
     /tmp/ccCwMAmf.s:106918  .debug_str:0000000000049dc7 .LASF5146
     /tmp/ccCwMAmf.s:95576  .debug_str:000000000001b1b2 .LASF5147
     /tmp/ccCwMAmf.s:103896  .debug_str:000000000003d1ea .LASF5148
     /tmp/ccCwMAmf.s:98396  .debug_str:0000000000026e5e .LASF5149
     /tmp/ccCwMAmf.s:107180  .debug_str:000000000004afbf .LASF5150
     /tmp/ccCwMAmf.s:93168  .debug_str:0000000000011419 .LASF5151
     /tmp/ccCwMAmf.s:97728  .debug_str:0000000000024753 .LASF5152
     /tmp/ccCwMAmf.s:102626  .debug_str:00000000000382d4 .LASF5153
     /tmp/ccCwMAmf.s:95160  .debug_str:00000000000194cf .LASF5154
     /tmp/ccCwMAmf.s:93646  .debug_str:0000000000013438 .LASF5155
     /tmp/ccCwMAmf.s:98022  .debug_str:0000000000025842 .LASF5156
     /tmp/ccCwMAmf.s:89238  .debug_str:0000000000001387 .LASF5157
     /tmp/ccCwMAmf.s:105034  .debug_str:0000000000042157 .LASF5158
     /tmp/ccCwMAmf.s:103826  .debug_str:000000000003cdb8 .LASF5159
     /tmp/ccCwMAmf.s:95214  .debug_str:0000000000019852 .LASF5160
     /tmp/ccCwMAmf.s:95942  .debug_str:000000000001cbe5 .LASF5161
     /tmp/ccCwMAmf.s:98504  .debug_str:00000000000274c2 .LASF5162
     /tmp/ccCwMAmf.s:102350  .debug_str:0000000000037190 .LASF5163
     /tmp/ccCwMAmf.s:91798  .debug_str:000000000000c357 .LASF5164
     /tmp/ccCwMAmf.s:96812  .debug_str:000000000002097f .LASF5165
     /tmp/ccCwMAmf.s:92940  .debug_str:0000000000010622 .LASF5166
     /tmp/ccCwMAmf.s:105536  .debug_str:00000000000442d2 .LASF5167
     /tmp/ccCwMAmf.s:93382  .debug_str:00000000000121ef .LASF5168
     /tmp/ccCwMAmf.s:101898  .debug_str:000000000003525b .LASF5169
     /tmp/ccCwMAmf.s:95608  .debug_str:000000000001b3d5 .LASF5170
     /tmp/ccCwMAmf.s:97694  .debug_str:00000000000244cd .LASF5171
     /tmp/ccCwMAmf.s:104738  .debug_str:000000000004089c .LASF5172
     /tmp/ccCwMAmf.s:89140  .debug_str:0000000000000ce7 .LASF5173
     /tmp/ccCwMAmf.s:95338  .debug_str:000000000001a0c9 .LASF5174
     /tmp/ccCwMAmf.s:97280  .debug_str:000000000002286d .LASF5175
     /tmp/ccCwMAmf.s:94474  .debug_str:0000000000016704 .LASF5176
     /tmp/ccCwMAmf.s:102424  .debug_str:0000000000037611 .LASF5177
     /tmp/ccCwMAmf.s:107160  .debug_str:000000000004ae81 .LASF5178
     /tmp/ccCwMAmf.s:102290  .debug_str:0000000000036d2f .LASF5179
     /tmp/ccCwMAmf.s:95978  .debug_str:000000000001ce77 .LASF5180
     /tmp/ccCwMAmf.s:96232  .debug_str:000000000001e023 .LASF5181
     /tmp/ccCwMAmf.s:98378  .debug_str:0000000000026d50 .LASF5182
     /tmp/ccCwMAmf.s:104182  .debug_str:000000000003e5ec .LASF5183
     /tmp/ccCwMAmf.s:97006  .debug_str:00000000000215e3 .LASF5184
     /tmp/ccCwMAmf.s:103166  .debug_str:0000000000039f77 .LASF5185
     /tmp/ccCwMAmf.s:101574  .debug_str:0000000000033c71 .LASF5186
     /tmp/ccCwMAmf.s:102594  .debug_str:00000000000380bd .LASF5187
     /tmp/ccCwMAmf.s:106336  .debug_str:0000000000047766 .LASF5188
     /tmp/ccCwMAmf.s:96332  .debug_str:000000000001e728 .LASF5189
     /tmp/ccCwMAmf.s:104018  .debug_str:000000000003da85 .LASF5190
     /tmp/ccCwMAmf.s:97956  .debug_str:000000000002542c .LASF5191
     /tmp/ccCwMAmf.s:92122  .debug_str:000000000000d8b2 .LASF5192
     /tmp/ccCwMAmf.s:92954  .debug_str:0000000000010729 .LASF5193
     /tmp/ccCwMAmf.s:98094  .debug_str:0000000000025bc9 .LASF5194
     /tmp/ccCwMAmf.s:89588  .debug_str:0000000000002cd0 .LASF5195
     /tmp/ccCwMAmf.s:100190  .debug_str:000000000002e165 .LASF5196
     /tmp/ccCwMAmf.s:104090  .debug_str:000000000003dfe7 .LASF5197
     /tmp/ccCwMAmf.s:99486  .debug_str:000000000002b5ec .LASF5198
     /tmp/ccCwMAmf.s:89760  .debug_str:00000000000037e5 .LASF5199
     /tmp/ccCwMAmf.s:91364  .debug_str:000000000000a4c3 .LASF5200
     /tmp/ccCwMAmf.s:103288  .debug_str:000000000003a879 .LASF5201
     /tmp/ccCwMAmf.s:90600  .debug_str:000000000000720a .LASF5202
     /tmp/ccCwMAmf.s:91500  .debug_str:000000000000ae64 .LASF5203
     /tmp/ccCwMAmf.s:96058  .debug_str:000000000001d382 .LASF5204
     /tmp/ccCwMAmf.s:107384  .debug_str:000000000004bdc9 .LASF5205
     /tmp/ccCwMAmf.s:108298  .debug_str:000000000004fcd1 .LASF5206
     /tmp/ccCwMAmf.s:105388  .debug_str:0000000000043997 .LASF5207
     /tmp/ccCwMAmf.s:91228  .debug_str:0000000000009c5a .LASF5208
     /tmp/ccCwMAmf.s:101654  .debug_str:0000000000034139 .LASF5209
     /tmp/ccCwMAmf.s:103340  .debug_str:000000000003ac29 .LASF5210
     /tmp/ccCwMAmf.s:106992  .debug_str:000000000004a210 .LASF5211
     /tmp/ccCwMAmf.s:92990  .debug_str:0000000000010952 .LASF5212
     /tmp/ccCwMAmf.s:89890  .debug_str:0000000000004108 .LASF5213
     /tmp/ccCwMAmf.s:103168  .debug_str:0000000000039fab .LASF5214
     /tmp/ccCwMAmf.s:104374  .debug_str:000000000003f1ad .LASF5215
     /tmp/ccCwMAmf.s:101136  .debug_str:0000000000031e89 .LASF5216
     /tmp/ccCwMAmf.s:100526  .debug_str:000000000002f867 .LASF5217
     /tmp/ccCwMAmf.s:92260  .debug_str:000000000000e011 .LASF5218
     /tmp/ccCwMAmf.s:96542  .debug_str:000000000001f5d3 .LASF5219
     /tmp/ccCwMAmf.s:98930  .debug_str:0000000000029273 .LASF5220
     /tmp/ccCwMAmf.s:102228  .debug_str:0000000000036977 .LASF5221
     /tmp/ccCwMAmf.s:105912  .debug_str:0000000000045bd0 .LASF5222
     /tmp/ccCwMAmf.s:102520  .debug_str:0000000000037bd0 .LASF5223
     /tmp/ccCwMAmf.s:106578  .debug_str:000000000004875c .LASF5224
     /tmp/ccCwMAmf.s:94958  .debug_str:00000000000187af .LASF5225
     /tmp/ccCwMAmf.s:107076  .debug_str:000000000004a85a .LASF5226
     /tmp/ccCwMAmf.s:89346  .debug_str:0000000000001bdc .LASF5227
     /tmp/ccCwMAmf.s:93884  .debug_str:00000000000142a9 .LASF5228
     /tmp/ccCwMAmf.s:105222  .debug_str:0000000000042e2f .LASF5229
     /tmp/ccCwMAmf.s:90124  .debug_str:000000000000515c .LASF5230
     /tmp/ccCwMAmf.s:105334  .debug_str:00000000000435de .LASF5231
     /tmp/ccCwMAmf.s:102846  .debug_str:0000000000038e47 .LASF5232
     /tmp/ccCwMAmf.s:101416  .debug_str:0000000000033199 .LASF5233
     /tmp/ccCwMAmf.s:107364  .debug_str:000000000004bc8e .LASF5234
     /tmp/ccCwMAmf.s:97604  .debug_str:0000000000023eb0 .LASF5235
     /tmp/ccCwMAmf.s:94760  .debug_str:0000000000017b64 .LASF5236
     /tmp/ccCwMAmf.s:106590  .debug_str:0000000000048846 .LASF5237
     /tmp/ccCwMAmf.s:96434  .debug_str:000000000001edad .LASF5238
     /tmp/ccCwMAmf.s:91084  .debug_str:0000000000009200 .LASF5239
     /tmp/ccCwMAmf.s:104740  .debug_str:00000000000408d0 .LASF5240
     /tmp/ccCwMAmf.s:99498  .debug_str:000000000002b6b4 .LASF5241
     /tmp/ccCwMAmf.s:97372  .debug_str:0000000000022eb7 .LASF5242
     /tmp/ccCwMAmf.s:90148  .debug_str:0000000000005284 .LASF5243
     /tmp/ccCwMAmf.s:89924  .debug_str:00000000000043c1 .LASF5244
     /tmp/ccCwMAmf.s:101412  .debug_str:0000000000033169 .LASF5245
     /tmp/ccCwMAmf.s:95964  .debug_str:000000000001cd92 .LASF5246
     /tmp/ccCwMAmf.s:108166  .debug_str:000000000004f3b5 .LASF5247
     /tmp/ccCwMAmf.s:90758  .debug_str:0000000000007c41 .LASF5248
     /tmp/ccCwMAmf.s:106398  .debug_str:0000000000047c0d .LASF5249
     /tmp/ccCwMAmf.s:102096  .debug_str:000000000003605e .LASF5250
     /tmp/ccCwMAmf.s:97162  .debug_str:0000000000022088 .LASF5251
     /tmp/ccCwMAmf.s:103956  .debug_str:000000000003d627 .LASF5252
     /tmp/ccCwMAmf.s:106002  .debug_str:0000000000046204 .LASF5253
     /tmp/ccCwMAmf.s:96146  .debug_str:000000000001d9b8 .LASF5254
     /tmp/ccCwMAmf.s:106632  .debug_str:0000000000048ae8 .LASF5255
     /tmp/ccCwMAmf.s:108302  .debug_str:000000000004fd44 .LASF5256
     /tmp/ccCwMAmf.s:89300  .debug_str:0000000000001818 .LASF5257
     /tmp/ccCwMAmf.s:107580  .debug_str:000000000004cb6c .LASF5258
     /tmp/ccCwMAmf.s:95542  .debug_str:000000000001af8f .LASF5259
     /tmp/ccCwMAmf.s:106452  .debug_str:0000000000047fa0 .LASF5260
     /tmp/ccCwMAmf.s:99840  .debug_str:000000000002cb4f .LASF5261
     /tmp/ccCwMAmf.s:92220  .debug_str:000000000000dd8f .LASF5262
     /tmp/ccCwMAmf.s:98164  .debug_str:0000000000025f04 .LASF5263
     /tmp/ccCwMAmf.s:97062  .debug_str:00000000000219fe .LASF5264
     /tmp/ccCwMAmf.s:103496  .debug_str:000000000003b738 .LASF5265
     /tmp/ccCwMAmf.s:94782  .debug_str:0000000000017cd5 .LASF5266
     /tmp/ccCwMAmf.s:96206  .debug_str:000000000001de3d .LASF5267
     /tmp/ccCwMAmf.s:102268  .debug_str:0000000000036c3b .LASF5268
     /tmp/ccCwMAmf.s:94378  .debug_str:0000000000016106 .LASF5269
     /tmp/ccCwMAmf.s:99994  .debug_str:000000000002d46f .LASF5270
     /tmp/ccCwMAmf.s:100354  .debug_str:000000000002ec83 .LASF5271
     /tmp/ccCwMAmf.s:100818  .debug_str:0000000000030b0c .LASF5272
     /tmp/ccCwMAmf.s:99450  .debug_str:000000000002b2ee .LASF5273
     /tmp/ccCwMAmf.s:104290  .debug_str:000000000003ec36 .LASF5274
     /tmp/ccCwMAmf.s:90170  .debug_str:00000000000053da .LASF5275
     /tmp/ccCwMAmf.s:93104  .debug_str:0000000000010f81 .LASF5276
     /tmp/ccCwMAmf.s:92236  .debug_str:000000000000de71 .LASF5277
     /tmp/ccCwMAmf.s:93608  .debug_str:0000000000013111 .LASF5278
     /tmp/ccCwMAmf.s:90994  .debug_str:0000000000008c2c .LASF5279
     /tmp/ccCwMAmf.s:105100  .debug_str:0000000000042654 .LASF5280
     /tmp/ccCwMAmf.s:89366  .debug_str:0000000000001d77 .LASF5281
     /tmp/ccCwMAmf.s:93302  .debug_str:0000000000011c92 .LASF5282
     /tmp/ccCwMAmf.s:99156  .debug_str:000000000002a097 .LASF5283
     /tmp/ccCwMAmf.s:97188  .debug_str:000000000002230c .LASF5284
     /tmp/ccCwMAmf.s:98216  .debug_str:0000000000026280 .LASF5285
     /tmp/ccCwMAmf.s:101334  .debug_str:0000000000032c8e .LASF5286
     /tmp/ccCwMAmf.s:95360  .debug_str:000000000001a28a .LASF5287
     /tmp/ccCwMAmf.s:106400  .debug_str:0000000000047c35 .LASF5288
     /tmp/ccCwMAmf.s:104846  .debug_str:0000000000041222 .LASF5289
     /tmp/ccCwMAmf.s:101658  .debug_str:0000000000034195 .LASF5290
     /tmp/ccCwMAmf.s:100452  .debug_str:000000000002f357 .LASF5291
     /tmp/ccCwMAmf.s:100706  .debug_str:000000000003036f .LASF5292
     /tmp/ccCwMAmf.s:92402  .debug_str:000000000000e7ef .LASF5293
     /tmp/ccCwMAmf.s:107138  .debug_str:000000000004ac65 .LASF5294
     /tmp/ccCwMAmf.s:96498  .debug_str:000000000001f269 .LASF5295
     /tmp/ccCwMAmf.s:98704  .debug_str:00000000000281c8 .LASF5296
     /tmp/ccCwMAmf.s:102256  .debug_str:0000000000036b68 .LASF5297
     /tmp/ccCwMAmf.s:98268  .debug_str:000000000002658b .LASF5298
     /tmp/ccCwMAmf.s:91858  .debug_str:000000000000c721 .LASF5299
     /tmp/ccCwMAmf.s:101428  .debug_str:000000000003326e .LASF5300
     /tmp/ccCwMAmf.s:101210  .debug_str:000000000003243c .LASF5301
     /tmp/ccCwMAmf.s:95786  .debug_str:000000000001c08e .LASF5302
     /tmp/ccCwMAmf.s:97472  .debug_str:0000000000023621 .LASF5303
     /tmp/ccCwMAmf.s:107156  .debug_str:000000000004ae2d .LASF5304
     /tmp/ccCwMAmf.s:104172  .debug_str:000000000003e54b .LASF5305
     /tmp/ccCwMAmf.s:98652  .debug_str:0000000000027ed8 .LASF5306
     /tmp/ccCwMAmf.s:107828  .debug_str:000000000004dd5a .LASF5307
     /tmp/ccCwMAmf.s:104098  .debug_str:000000000003e090 .LASF5308
     /tmp/ccCwMAmf.s:90314  .debug_str:0000000000005db4 .LASF5309
     /tmp/ccCwMAmf.s:94308  .debug_str:0000000000015d0f .LASF5310
     /tmp/ccCwMAmf.s:99502  .debug_str:000000000002b715 .LASF5311
     /tmp/ccCwMAmf.s:90140  .debug_str:000000000000520e .LASF5312
     /tmp/ccCwMAmf.s:97048  .debug_str:00000000000218d6 .LASF5313
     /tmp/ccCwMAmf.s:95162  .debug_str:0000000000019500 .LASF5314
     /tmp/ccCwMAmf.s:93370  .debug_str:000000000001211f .LASF5315
     /tmp/ccCwMAmf.s:97658  .debug_str:00000000000242a9 .LASF5316
     /tmp/ccCwMAmf.s:100054  .debug_str:000000000002d824 .LASF5317
     /tmp/ccCwMAmf.s:107150  .debug_str:000000000004ad84 .LASF5318
     /tmp/ccCwMAmf.s:105102  .debug_str:000000000004267a .LASF5319
     /tmp/ccCwMAmf.s:91452  .debug_str:000000000000aaf9 .LASF5320
     /tmp/ccCwMAmf.s:99056  .debug_str:00000000000299e0 .LASF5321
     /tmp/ccCwMAmf.s:106974  .debug_str:000000000004a112 .LASF5322
     /tmp/ccCwMAmf.s:97242  .debug_str:000000000002260a .LASF5323
     /tmp/ccCwMAmf.s:94478  .debug_str:0000000000016753 .LASF5324
     /tmp/ccCwMAmf.s:93512  .debug_str:0000000000012a60 .LASF5325
     /tmp/ccCwMAmf.s:103056  .debug_str:0000000000039a0a .LASF5326
     /tmp/ccCwMAmf.s:105786  .debug_str:0000000000045371 .LASF5327
     /tmp/ccCwMAmf.s:105340  .debug_str:000000000004364b .LASF5328
     /tmp/ccCwMAmf.s:103534  .debug_str:000000000003b96f .LASF5329
     /tmp/ccCwMAmf.s:106150  .debug_str:0000000000046b00 .LASF5330
     /tmp/ccCwMAmf.s:101818  .debug_str:0000000000034cae .LASF5331
     /tmp/ccCwMAmf.s:93790  .debug_str:0000000000013d04 .LASF5332
     /tmp/ccCwMAmf.s:91224  .debug_str:0000000000009c0c .LASF5333
     /tmp/ccCwMAmf.s:106148  .debug_str:0000000000046ad9 .LASF5334
     /tmp/ccCwMAmf.s:104620  .debug_str:00000000000400a3 .LASF5335
     /tmp/ccCwMAmf.s:101192  .debug_str:0000000000032284 .LASF5336
     /tmp/ccCwMAmf.s:91278  .debug_str:0000000000009f24 .LASF5337
     /tmp/ccCwMAmf.s:100542  .debug_str:000000000002f94a .LASF5338
     /tmp/ccCwMAmf.s:104094  .debug_str:000000000003e052 .LASF5339
     /tmp/ccCwMAmf.s:106958  .debug_str:000000000004a06f .LASF5340
     /tmp/ccCwMAmf.s:102974  .debug_str:0000000000039548 .LASF5341
     /tmp/ccCwMAmf.s:93156  .debug_str:000000000001134b .LASF5342
     /tmp/ccCwMAmf.s:97718  .debug_str:00000000000246a8 .LASF5343
     /tmp/ccCwMAmf.s:95652  .debug_str:000000000001b69a .LASF5344
     /tmp/ccCwMAmf.s:97388  .debug_str:0000000000022f9a .LASF5345
     /tmp/ccCwMAmf.s:90902  .debug_str:00000000000085ab .LASF5346
     /tmp/ccCwMAmf.s:91902  .debug_str:000000000000ca53 .LASF5347
     /tmp/ccCwMAmf.s:91764  .debug_str:000000000000c155 .LASF5348
     /tmp/ccCwMAmf.s:106446  .debug_str:0000000000047f2b .LASF5349
     /tmp/ccCwMAmf.s:97994  .debug_str:0000000000025672 .LASF5350
     /tmp/ccCwMAmf.s:97056  .debug_str:00000000000219a8 .LASF5351
     /tmp/ccCwMAmf.s:93350  .debug_str:0000000000011f7a .LASF5352
     /tmp/ccCwMAmf.s:103282  .debug_str:000000000003a808 .LASF5353
     /tmp/ccCwMAmf.s:100150  .debug_str:000000000002de87 .LASF5354
     /tmp/ccCwMAmf.s:103398  .debug_str:000000000003b05a .LASF5355
     /tmp/ccCwMAmf.s:107822  .debug_str:000000000004dced .LASF5356
     /tmp/ccCwMAmf.s:100854  .debug_str:0000000000030d55 .LASF5357
     /tmp/ccCwMAmf.s:91596  .debug_str:000000000000b539 .LASF5358
     /tmp/ccCwMAmf.s:106956  .debug_str:000000000004a04a .LASF5359
     /tmp/ccCwMAmf.s:105644  .debug_str:0000000000044a35 .LASF5360
     /tmp/ccCwMAmf.s:107176  .debug_str:000000000004af86 .LASF5361
     /tmp/ccCwMAmf.s:96670  .debug_str:000000000001ff1d .LASF5362
     /tmp/ccCwMAmf.s:105010  .debug_str:0000000000041fa5 .LASF5363
     /tmp/ccCwMAmf.s:94872  .debug_str:00000000000181fe .LASF5364
     /tmp/ccCwMAmf.s:102460  .debug_str:00000000000378ad .LASF5365
     /tmp/ccCwMAmf.s:91686  .debug_str:000000000000bba6 .LASF5366
     /tmp/ccCwMAmf.s:90574  .debug_str:000000000000703f .LASF5367
     /tmp/ccCwMAmf.s:97082  .debug_str:0000000000021b8c .LASF5368
     /tmp/ccCwMAmf.s:102052  .debug_str:0000000000035dde .LASF5369
     /tmp/ccCwMAmf.s:93496  .debug_str:0000000000012911 .LASF5370
     /tmp/ccCwMAmf.s:102944  .debug_str:00000000000393c4 .LASF5371
     /tmp/ccCwMAmf.s:99166  .debug_str:000000000002a140 .LASF5372
     /tmp/ccCwMAmf.s:103606  .debug_str:000000000003bebb .LASF5373
     /tmp/ccCwMAmf.s:99112  .debug_str:0000000000029d72 .LASF5374
     /tmp/ccCwMAmf.s:100924  .debug_str:0000000000031181 .LASF5375
     /tmp/ccCwMAmf.s:91206  .debug_str:0000000000009a5a .LASF5376
     /tmp/ccCwMAmf.s:93532  .debug_str:0000000000012bb4 .LASF5377
     /tmp/ccCwMAmf.s:99608  .debug_str:000000000002bd21 .LASF5378
     /tmp/ccCwMAmf.s:104944  .debug_str:000000000004189a .LASF5379
     /tmp/ccCwMAmf.s:92224  .debug_str:000000000000ddc6 .LASF5380
     /tmp/ccCwMAmf.s:98356  .debug_str:0000000000026b7f .LASF5381
     /tmp/ccCwMAmf.s:102128  .debug_str:00000000000362cc .LASF5382
     /tmp/ccCwMAmf.s:90894  .debug_str:0000000000008527 .LASF5383
     /tmp/ccCwMAmf.s:92576  .debug_str:000000000000f126 .LASF5384
     /tmp/ccCwMAmf.s:90862  .debug_str:00000000000082c5 .LASF5385
     /tmp/ccCwMAmf.s:93600  .debug_str:0000000000013085 .LASF5386
     /tmp/ccCwMAmf.s:95822  .debug_str:000000000001c2a6 .LASF5387
     /tmp/ccCwMAmf.s:97592  .debug_str:0000000000023de4 .LASF5388
     /tmp/ccCwMAmf.s:89792  .debug_str:0000000000003a27 .LASF5389
     /tmp/ccCwMAmf.s:101724  .debug_str:0000000000034564 .LASF5390
     /tmp/ccCwMAmf.s:106512  .debug_str:000000000004836c .LASF5391
     /tmp/ccCwMAmf.s:107864  .debug_str:000000000004df89 .LASF5392
     /tmp/ccCwMAmf.s:107416  .debug_str:000000000004bfde .LASF5393
     /tmp/ccCwMAmf.s:89906  .debug_str:0000000000004230 .LASF5394
     /tmp/ccCwMAmf.s:90474  .debug_str:000000000000685b .LASF5395
     /tmp/ccCwMAmf.s:103862  .debug_str:000000000003d00a .LASF5396
     /tmp/ccCwMAmf.s:101230  .debug_str:0000000000032585 .LASF5397
     /tmp/ccCwMAmf.s:99184  .debug_str:000000000002a2bb .LASF5398
     /tmp/ccCwMAmf.s:97880  .debug_str:000000000002503e .LASF5399
     /tmp/ccCwMAmf.s:89724  .debug_str:0000000000003595 .LASF5400
     /tmp/ccCwMAmf.s:93620  .debug_str:000000000001322d .LASF5401
     /tmp/ccCwMAmf.s:99924  .debug_str:000000000002d03c .LASF5402
     /tmp/ccCwMAmf.s:93836  .debug_str:0000000000013fb0 .LASF5403
     /tmp/ccCwMAmf.s:94516  .debug_str:00000000000169f8 .LASF5404
     /tmp/ccCwMAmf.s:94434  .debug_str:00000000000164bb .LASF5405
     /tmp/ccCwMAmf.s:95590  .debug_str:000000000001b299 .LASF5406
     /tmp/ccCwMAmf.s:99832  .debug_str:000000000002ca8a .LASF5407
     /tmp/ccCwMAmf.s:98642  .debug_str:0000000000027dfd .LASF5408
     /tmp/ccCwMAmf.s:93754  .debug_str:0000000000013ad3 .LASF5409
     /tmp/ccCwMAmf.s:101828  .debug_str:0000000000034d2c .LASF5410
     /tmp/ccCwMAmf.s:102936  .debug_str:000000000003933d .LASF5411
     /tmp/ccCwMAmf.s:97826  .debug_str:0000000000024d4d .LASF5412
     /tmp/ccCwMAmf.s:100660  .debug_str:00000000000300ba .LASF5413
     /tmp/ccCwMAmf.s:90468  .debug_str:000000000000680b .LASF5414
     /tmp/ccCwMAmf.s:101692  .debug_str:00000000000343ae .LASF5415
     /tmp/ccCwMAmf.s:90194  .debug_str:00000000000055c4 .LASF5416
     /tmp/ccCwMAmf.s:96250  .debug_str:000000000001e140 .LASF5417
     /tmp/ccCwMAmf.s:106466  .debug_str:0000000000048089 .LASF5418
     /tmp/ccCwMAmf.s:103938  .debug_str:000000000003d4c5 .LASF5419
     /tmp/ccCwMAmf.s:95866  .debug_str:000000000001c641 .LASF5420
     /tmp/ccCwMAmf.s:94496  .debug_str:00000000000168a8 .LASF5421
     /tmp/ccCwMAmf.s:102348  .debug_str:0000000000037157 .LASF5422
     /tmp/ccCwMAmf.s:106408  .debug_str:0000000000047cb2 .LASF5423
     /tmp/ccCwMAmf.s:91648  .debug_str:000000000000b8f1 .LASF5424
     /tmp/ccCwMAmf.s:100632  .debug_str:000000000002ff1a .LASF5425
     /tmp/ccCwMAmf.s:89156  .debug_str:0000000000000dfd .LASF5426
     /tmp/ccCwMAmf.s:107406  .debug_str:000000000004bf32 .LASF5427
     /tmp/ccCwMAmf.s:93056  .debug_str:0000000000010ce9 .LASF5428
     /tmp/ccCwMAmf.s:91730  .debug_str:000000000000bf15 .LASF5429
     /tmp/ccCwMAmf.s:98508  .debug_str:00000000000274f5 .LASF5430
     /tmp/ccCwMAmf.s:94720  .debug_str:0000000000017842 .LASF5431
     /tmp/ccCwMAmf.s:90052  .debug_str:0000000000004c7b .LASF5432
     /tmp/ccCwMAmf.s:90036  .debug_str:0000000000004b86 .LASF5433
     /tmp/ccCwMAmf.s:95968  .debug_str:000000000001cdc5 .LASF5434
     /tmp/ccCwMAmf.s:101506  .debug_str:00000000000337e0 .LASF5435
     /tmp/ccCwMAmf.s:105922  .debug_str:0000000000045c87 .LASF5436
     /tmp/ccCwMAmf.s:96486  .debug_str:000000000001f163 .LASF5437
     /tmp/ccCwMAmf.s:94156  .debug_str:0000000000015336 .LASF5438
     /tmp/ccCwMAmf.s:99030  .debug_str:000000000002987a .LASF5439
     /tmp/ccCwMAmf.s:94724  .debug_str:00000000000178a3 .LASF5440
     /tmp/ccCwMAmf.s:103250  .debug_str:000000000003a581 .LASF5441
     /tmp/ccCwMAmf.s:107016  .debug_str:000000000004a3a9 .LASF5442
     /tmp/ccCwMAmf.s:105524  .debug_str:0000000000044225 .LASF5443
     /tmp/ccCwMAmf.s:98522  .debug_str:00000000000275ad .LASF5444
     /tmp/ccCwMAmf.s:95876  .debug_str:000000000001c705 .LASF5445
     /tmp/ccCwMAmf.s:101952  .debug_str:0000000000035683 .LASF5446
     /tmp/ccCwMAmf.s:106686  .debug_str:0000000000048e86 .LASF5447
     /tmp/ccCwMAmf.s:107546  .debug_str:000000000004c8a0 .LASF5448
     /tmp/ccCwMAmf.s:96650  .debug_str:000000000001fd37 .LASF5449
     /tmp/ccCwMAmf.s:102720  .debug_str:0000000000038842 .LASF5450
     /tmp/ccCwMAmf.s:97598  .debug_str:0000000000023e40 .LASF5451
     /tmp/ccCwMAmf.s:96162  .debug_str:000000000001db0e .LASF5452
     /tmp/ccCwMAmf.s:107204  .debug_str:000000000004b185 .LASF5453
     /tmp/ccCwMAmf.s:107886  .debug_str:000000000004e143 .LASF5454
     /tmp/ccCwMAmf.s:107834  .debug_str:000000000004ddac .LASF5455
     /tmp/ccCwMAmf.s:98940  .debug_str:000000000002931b .LASF5456
     /tmp/ccCwMAmf.s:98724  .debug_str:0000000000028340 .LASF5457
     /tmp/ccCwMAmf.s:99176  .debug_str:000000000002a1e1 .LASF5458
     /tmp/ccCwMAmf.s:107768  .debug_str:000000000004d88a .LASF5459
     /tmp/ccCwMAmf.s:95998  .debug_str:000000000001cfca .LASF5460
     /tmp/ccCwMAmf.s:96924  .debug_str:000000000002103a .LASF5461
     /tmp/ccCwMAmf.s:97788  .debug_str:0000000000024a09 .LASF5462
     /tmp/ccCwMAmf.s:101856  .debug_str:0000000000034f0d .LASF5463
     /tmp/ccCwMAmf.s:99512  .debug_str:000000000002b7ba .LASF5464
     /tmp/ccCwMAmf.s:95132  .debug_str:0000000000019242 .LASF5465
     /tmp/ccCwMAmf.s:100228  .debug_str:000000000002e399 .LASF5466
     /tmp/ccCwMAmf.s:97376  .debug_str:0000000000022ef6 .LASF5467
     /tmp/ccCwMAmf.s:104458  .debug_str:000000000003f6ed .LASF5468
     /tmp/ccCwMAmf.s:103972  .debug_str:000000000003d724 .LASF5469
     /tmp/ccCwMAmf.s:93062  .debug_str:0000000000010d8f .LASF5470
     /tmp/ccCwMAmf.s:91680  .debug_str:000000000000bb33 .LASF5471
     /tmp/ccCwMAmf.s:103676  .debug_str:000000000003c465 .LASF5472
     /tmp/ccCwMAmf.s:93852  .debug_str:00000000000140ac .LASF5473
     /tmp/ccCwMAmf.s:100780  .debug_str:000000000003089b .LASF5474
     /tmp/ccCwMAmf.s:99306  .debug_str:000000000002aa17 .LASF5475
     /tmp/ccCwMAmf.s:104016  .debug_str:000000000003da63 .LASF5476
     /tmp/ccCwMAmf.s:102334  .debug_str:0000000000037040 .LASF5477
     /tmp/ccCwMAmf.s:102506  .debug_str:0000000000037ace .LASF5478
     /tmp/ccCwMAmf.s:99650  .debug_str:000000000002c044 .LASF5479
     /tmp/ccCwMAmf.s:105558  .debug_str:000000000004449e .LASF5480
     /tmp/ccCwMAmf.s:106222  .debug_str:0000000000046fcb .LASF5481
     /tmp/ccCwMAmf.s:101348  .debug_str:0000000000032d5b .LASF5482
     /tmp/ccCwMAmf.s:92648  .debug_str:000000000000f5ba .LASF5483
     /tmp/ccCwMAmf.s:104924  .debug_str:0000000000041724 .LASF5484
     /tmp/ccCwMAmf.s:107536  .debug_str:000000000004c7ec .LASF5485
     /tmp/ccCwMAmf.s:98308  .debug_str:0000000000026881 .LASF5486
     /tmp/ccCwMAmf.s:95096  .debug_str:0000000000019019 .LASF5487
     /tmp/ccCwMAmf.s:103030  .debug_str:000000000003980e .LASF5488
     /tmp/ccCwMAmf.s:107484  .debug_str:000000000004c430 .LASF5489
     /tmp/ccCwMAmf.s:100026  .debug_str:000000000002d650 .LASF5490
     /tmp/ccCwMAmf.s:92510  .debug_str:000000000000ecfa .LASF5491
     /tmp/ccCwMAmf.s:98780  .debug_str:0000000000028798 .LASF5492
     /tmp/ccCwMAmf.s:107930  .debug_str:000000000004e484 .LASF5493
     /tmp/ccCwMAmf.s:90742  .debug_str:0000000000007b23 .LASF5494
     /tmp/ccCwMAmf.s:101088  .debug_str:0000000000031ba6 .LASF5495
     /tmp/ccCwMAmf.s:89856  .debug_str:0000000000003e65 .LASF5496
     /tmp/ccCwMAmf.s:100276  .debug_str:000000000002e740 .LASF5497
     /tmp/ccCwMAmf.s:105238  .debug_str:0000000000042f2f .LASF5498
     /tmp/ccCwMAmf.s:105438  .debug_str:0000000000043c9d .LASF5499
     /tmp/ccCwMAmf.s:104680  .debug_str:0000000000040469 .LASF5500
     /tmp/ccCwMAmf.s:91184  .debug_str:0000000000009882 .LASF5501
     /tmp/ccCwMAmf.s:89356  .debug_str:0000000000001cce .LASF5502
     /tmp/ccCwMAmf.s:95784  .debug_str:000000000001c064 .LASF5503
     /tmp/ccCwMAmf.s:107814  .debug_str:000000000004dc4d .LASF5504
     /tmp/ccCwMAmf.s:102550  .debug_str:0000000000037e90 .LASF5505
     /tmp/ccCwMAmf.s:98486  .debug_str:0000000000027335 .LASF5506
     /tmp/ccCwMAmf.s:104594  .debug_str:000000000003fefd .LASF5507
     /tmp/ccCwMAmf.s:89886  .debug_str:00000000000040af .LASF5508
     /tmp/ccCwMAmf.s:105000  .debug_str:0000000000041f21 .LASF5509
     /tmp/ccCwMAmf.s:96958  .debug_str:0000000000021296 .LASF5510
     /tmp/ccCwMAmf.s:96662  .debug_str:000000000001fe6f .LASF5511
     /tmp/ccCwMAmf.s:104462  .debug_str:000000000003f740 .LASF5512
     /tmp/ccCwMAmf.s:101244  .debug_str:0000000000032675 .LASF5513
     /tmp/ccCwMAmf.s:106076  .debug_str:000000000004662f .LASF5514
     /tmp/ccCwMAmf.s:92118  .debug_str:000000000000d871 .LASF5515
     /tmp/ccCwMAmf.s:102818  .debug_str:0000000000038d98 .LASF5516
     /tmp/ccCwMAmf.s:102006  .debug_str:0000000000035a1d .LASF5517
     /tmp/ccCwMAmf.s:95482  .debug_str:000000000001abe7 .LASF5518
     /tmp/ccCwMAmf.s:92786  .debug_str:000000000000fe47 .LASF5519
     /tmp/ccCwMAmf.s:93628  .debug_str:0000000000013323 .LASF5520
     /tmp/ccCwMAmf.s:102512  .debug_str:0000000000037b5d .LASF5521
     /tmp/ccCwMAmf.s:92068  .debug_str:000000000000d55e .LASF5522
     /tmp/ccCwMAmf.s:92894  .debug_str:00000000000103ef .LASF5523
     /tmp/ccCwMAmf.s:97076  .debug_str:0000000000021af9 .LASF5524
     /tmp/ccCwMAmf.s:94918  .debug_str:0000000000018517 .LASF5525
     /tmp/ccCwMAmf.s:95178  .debug_str:0000000000019602 .LASF5526
     /tmp/ccCwMAmf.s:102032  .debug_str:0000000000035c71 .LASF5527
     /tmp/ccCwMAmf.s:105744  .debug_str:000000000004508e .LASF5528
     /tmp/ccCwMAmf.s:106706  .debug_str:0000000000048fdf .LASF5529
     /tmp/ccCwMAmf.s:95280  .debug_str:0000000000019cfe .LASF5530
     /tmp/ccCwMAmf.s:98976  .debug_str:00000000000294bc .LASF5531
     /tmp/ccCwMAmf.s:98310  .debug_str:00000000000268ad .LASF5532
     /tmp/ccCwMAmf.s:106954  .debug_str:000000000004a035 .LASF5533
     /tmp/ccCwMAmf.s:101756  .debug_str:0000000000034807 .LASF5534
     /tmp/ccCwMAmf.s:107136  .debug_str:000000000004ac36 .LASF5535
     /tmp/ccCwMAmf.s:99332  .debug_str:000000000002ab6d .LASF5536
     /tmp/ccCwMAmf.s:97198  .debug_str:00000000000223e3 .LASF5537
     /tmp/ccCwMAmf.s:105856  .debug_str:000000000004586f .LASF5538
     /tmp/ccCwMAmf.s:97246  .debug_str:000000000002264b .LASF5539
     /tmp/ccCwMAmf.s:101498  .debug_str:0000000000033763 .LASF5540
     /tmp/ccCwMAmf.s:101890  .debug_str:00000000000351e0 .LASF5541
     /tmp/ccCwMAmf.s:92024  .debug_str:000000000000d2e9 .LASF5542
     /tmp/ccCwMAmf.s:108076  .debug_str:000000000004ee04 .LASF5544
     /tmp/ccCwMAmf.s:91912  .debug_str:000000000000cb6e .LASF5545
     /tmp/ccCwMAmf.s:96820  .debug_str:0000000000020a02 .LASF5546
     /tmp/ccCwMAmf.s:92040  .debug_str:000000000000d3c7 .LASF5547
     /tmp/ccCwMAmf.s:99422  .debug_str:000000000002b158 .LASF5548
     /tmp/ccCwMAmf.s:99904  .debug_str:000000000002cf2c .LASF5549
     /tmp/ccCwMAmf.s:94058  .debug_str:0000000000014d0e .LASF5550
     /tmp/ccCwMAmf.s:92818  .debug_str:0000000000010035 .LASF5551
     /tmp/ccCwMAmf.s:98566  .debug_str:00000000000278f1 .LASF5552
     /tmp/ccCwMAmf.s:104316  .debug_str:000000000003edcc .LASF5553
     /tmp/ccCwMAmf.s:100328  .debug_str:000000000002eb0e .LASF5554
     /tmp/ccCwMAmf.s:95176  .debug_str:00000000000195e9 .LASF5555
     /tmp/ccCwMAmf.s:104284  .debug_str:000000000003ebf3 .LASF5556
     /tmp/ccCwMAmf.s:96082  .debug_str:000000000001d515 .LASF5557
     /tmp/ccCwMAmf.s:102060  .debug_str:0000000000035e75 .LASF5558
     /tmp/ccCwMAmf.s:98846  .debug_str:0000000000028c34 .LASF5559
     /tmp/ccCwMAmf.s:107058  .debug_str:000000000004a772 .LASF5560
     /tmp/ccCwMAmf.s:94698  .debug_str:00000000000176ca .LASF5561
     /tmp/ccCwMAmf.s:106350  .debug_str:000000000004788d .LASF5562
     /tmp/ccCwMAmf.s:91830  .debug_str:000000000000c569 .LASF5563
     /tmp/ccCwMAmf.s:89008  .debug_str:000000000000041f .LASF5564
     /tmp/ccCwMAmf.s:95954  .debug_str:000000000001ccdb .LASF5565
     /tmp/ccCwMAmf.s:107660  .debug_str:000000000004d089 .LASF5566
     /tmp/ccCwMAmf.s:103656  .debug_str:000000000003c294 .LASF5567
     /tmp/ccCwMAmf.s:104894  .debug_str:0000000000041573 .LASF5568
     /tmp/ccCwMAmf.s:95952  .debug_str:000000000001ccbb .LASF5569
     /tmp/ccCwMAmf.s:89914  .debug_str:00000000000042ca .LASF5570
     /tmp/ccCwMAmf.s:96810  .debug_str:0000000000020957 .LASF5571
     /tmp/ccCwMAmf.s:102542  .debug_str:0000000000037dd7 .LASF5572
     /tmp/ccCwMAmf.s:103486  .debug_str:000000000003b673 .LASF5573
     /tmp/ccCwMAmf.s:92872  .debug_str:000000000001029f .LASF5574
     /tmp/ccCwMAmf.s:91258  .debug_str:0000000000009e54 .LASF5575
     /tmp/ccCwMAmf.s:102958  .debug_str:000000000003948a .LASF5576
     /tmp/ccCwMAmf.s:104590  .debug_str:000000000003fec4 .LASF5577
     /tmp/ccCwMAmf.s:101384  .debug_str:0000000000032f93 .LASF5578
     /tmp/ccCwMAmf.s:99690  .debug_str:000000000002c28e .LASF5579
     /tmp/ccCwMAmf.s:105230  .debug_str:0000000000042eb4 .LASF5580
     /tmp/ccCwMAmf.s:104240  .debug_str:000000000003ea24 .LASF5581
     /tmp/ccCwMAmf.s:107534  .debug_str:000000000004c7d0 .LASF5582
     /tmp/ccCwMAmf.s:95678  .debug_str:000000000001b884 .LASF5583
     /tmp/ccCwMAmf.s:93672  .debug_str:000000000001364a .LASF5584
     /tmp/ccCwMAmf.s:90074  .debug_str:0000000000004e4f .LASF5585
     /tmp/ccCwMAmf.s:99932  .debug_str:000000000002d0ce .LASF5586
     /tmp/ccCwMAmf.s:101500  .debug_str:0000000000033787 .LASF5587
     /tmp/ccCwMAmf.s:92246  .debug_str:000000000000df5b .LASF5588
     /tmp/ccCwMAmf.s:97430  .debug_str:000000000002326b .LASF5589
     /tmp/ccCwMAmf.s:99730  .debug_str:000000000002c496 .LASF5590
     /tmp/ccCwMAmf.s:104836  .debug_str:0000000000041155 .LASF5591
     /tmp/ccCwMAmf.s:91166  .debug_str:0000000000009765 .LASF5592
     /tmp/ccCwMAmf.s:103336  .debug_str:000000000003abe2 .LASF5593
     /tmp/ccCwMAmf.s:96922  .debug_str:0000000000021019 .LASF5594
     /tmp/ccCwMAmf.s:91008  .debug_str:0000000000008cc2 .LASF5595
     /tmp/ccCwMAmf.s:107552  .debug_str:000000000004c927 .LASF5596
     /tmp/ccCwMAmf.s:103110  .debug_str:0000000000039cac .LASF5597
     /tmp/ccCwMAmf.s:95450  .debug_str:000000000001a92e .LASF5598
     /tmp/ccCwMAmf.s:102326  .debug_str:0000000000036fb8 .LASF5599
     /tmp/ccCwMAmf.s:91082  .debug_str:00000000000091e6 .LASF5600
     /tmp/ccCwMAmf.s:88960  .debug_str:00000000000000af .LASF5601
     /tmp/ccCwMAmf.s:101406  .debug_str:00000000000330fd .LASF5602
     /tmp/ccCwMAmf.s:93450  .debug_str:0000000000012632 .LASF5603
     /tmp/ccCwMAmf.s:96720  .debug_str:0000000000020295 .LASF5604
     /tmp/ccCwMAmf.s:98770  .debug_str:00000000000286e2 .LASF5605
     /tmp/ccCwMAmf.s:106510  .debug_str:000000000004832e .LASF5606
     /tmp/ccCwMAmf.s:107348  .debug_str:000000000004bb6b .LASF5607
     /tmp/ccCwMAmf.s:100062  .debug_str:000000000002d899 .LASF5608
     /tmp/ccCwMAmf.s:90534  .debug_str:0000000000006c8b .LASF5609
     /tmp/ccCwMAmf.s:101672  .debug_str:00000000000342ad .LASF5610
     /tmp/ccCwMAmf.s:92718  .debug_str:000000000000f9b0 .LASF5611
     /tmp/ccCwMAmf.s:107158  .debug_str:000000000004ae56 .LASF5612
     /tmp/ccCwMAmf.s:91100  .debug_str:00000000000092d5 .LASF5613
     /tmp/ccCwMAmf.s:89642  .debug_str:00000000000030af .LASF5614
     /tmp/ccCwMAmf.s:89088  .debug_str:00000000000009b1 .LASF5615
     /tmp/ccCwMAmf.s:100162  .debug_str:000000000002df5f .LASF5616
     /tmp/ccCwMAmf.s:91236  .debug_str:0000000000009cf7 .LASF5617
     /tmp/ccCwMAmf.s:97304  .debug_str:0000000000022a17 .LASF5618
     /tmp/ccCwMAmf.s:91454  .debug_str:000000000000ab27 .LASF5619
     /tmp/ccCwMAmf.s:99960  .debug_str:000000000002d28e .LASF5620
     /tmp/ccCwMAmf.s:104434  .debug_str:000000000003f500 .LASF5621
     /tmp/ccCwMAmf.s:90650  .debug_str:0000000000007526 .LASF5622
     /tmp/ccCwMAmf.s:95874  .debug_str:000000000001c6ef .LASF5623
     /tmp/ccCwMAmf.s:91826  .debug_str:000000000000c4f8 .LASF5624
     /tmp/ccCwMAmf.s:99596  .debug_str:000000000002bbe8 .LASF5625
     /tmp/ccCwMAmf.s:105328  .debug_str:0000000000043564 .LASF5626
     /tmp/ccCwMAmf.s:95428  .debug_str:000000000001a723 .LASF5627
     /tmp/ccCwMAmf.s:107090  .debug_str:000000000004a95d .LASF5628
     /tmp/ccCwMAmf.s:98880  .debug_str:0000000000028e9f .LASF5629
     /tmp/ccCwMAmf.s:92360  .debug_str:000000000000e64f .LASF5630
     /tmp/ccCwMAmf.s:101466  .debug_str:0000000000033561 .LASF5631
     /tmp/ccCwMAmf.s:101548  .debug_str:0000000000033ac8 .LASF5632
     /tmp/ccCwMAmf.s:99704  .debug_str:000000000002c330 .LASF5633
     /tmp/ccCwMAmf.s:97916  .debug_str:0000000000025238 .LASF5634
     /tmp/ccCwMAmf.s:99930  .debug_str:000000000002d0a2 .LASF5635
     /tmp/ccCwMAmf.s:107330  .debug_str:000000000004ba2b .LASF5636
     /tmp/ccCwMAmf.s:98842  .debug_str:0000000000028bde .LASF5637
     /tmp/ccCwMAmf.s:104360  .debug_str:000000000003f099 .LASF5638
     /tmp/ccCwMAmf.s:103840  .debug_str:000000000003cea8 .LASF5639
     /tmp/ccCwMAmf.s:102148  .debug_str:0000000000036401 .LASF5640
     /tmp/ccCwMAmf.s:96740  .debug_str:0000000000020412 .LASF5641
     /tmp/ccCwMAmf.s:99006  .debug_str:000000000002969a .LASF5642
     /tmp/ccCwMAmf.s:97456  .debug_str:0000000000023445 .LASF5643
     /tmp/ccCwMAmf.s:90436  .debug_str:00000000000065b6 .LASF5644
     /tmp/ccCwMAmf.s:105160  .debug_str:0000000000042a61 .LASF5645
     /tmp/ccCwMAmf.s:89488  .debug_str:00000000000025e8 .LASF5646
     /tmp/ccCwMAmf.s:97064  .debug_str:0000000000021a2d .LASF5647
     /tmp/ccCwMAmf.s:89080  .debug_str:0000000000000936 .LASF5648
     /tmp/ccCwMAmf.s:93506  .debug_str:00000000000129e7 .LASF5649
     /tmp/ccCwMAmf.s:91412  .debug_str:000000000000a896 .LASF5650
     /tmp/ccCwMAmf.s:105712  .debug_str:0000000000044eeb .LASF5651
     /tmp/ccCwMAmf.s:107094  .debug_str:000000000004a9d6 .LASF5652
     /tmp/ccCwMAmf.s:95616  .debug_str:000000000001b45c .LASF5653
     /tmp/ccCwMAmf.s:101954  .debug_str:00000000000356bc .LASF5654
     /tmp/ccCwMAmf.s:96676  .debug_str:000000000001ffa4 .LASF5655
     /tmp/ccCwMAmf.s:97428  .debug_str:000000000002323f .LASF5656
     /tmp/ccCwMAmf.s:104340  .debug_str:000000000003ef81 .LASF5657
     /tmp/ccCwMAmf.s:90386  .debug_str:0000000000006268 .LASF5658
     /tmp/ccCwMAmf.s:97484  .debug_str:00000000000236d1 .LASF5659
     /tmp/ccCwMAmf.s:104550  .debug_str:000000000003fc5e .LASF5660
     /tmp/ccCwMAmf.s:91996  .debug_str:000000000000d0e4 .LASF5661
     /tmp/ccCwMAmf.s:94392  .debug_str:0000000000016194 .LASF5662
     /tmp/ccCwMAmf.s:93298  .debug_str:0000000000011c3b .LASF5663
     /tmp/ccCwMAmf.s:98582  .debug_str:0000000000027a03 .LASF5664
     /tmp/ccCwMAmf.s:93356  .debug_str:0000000000011ffc .LASF5665
     /tmp/ccCwMAmf.s:94750  .debug_str:0000000000017a5f .LASF5666
     /tmp/ccCwMAmf.s:99206  .debug_str:000000000002a413 .LASF5667
     /tmp/ccCwMAmf.s:89776  .debug_str:000000000000393b .LASF5668
     /tmp/ccCwMAmf.s:103254  .debug_str:000000000003a5c6 .LASF5669
     /tmp/ccCwMAmf.s:92720  .debug_str:000000000000f9d1 .LASF5670
     /tmp/ccCwMAmf.s:91556  .debug_str:000000000000b276 .LASF5671
     /tmp/ccCwMAmf.s:97748  .debug_str:0000000000024864 .LASF5672
     /tmp/ccCwMAmf.s:91244  .debug_str:0000000000009d79 .LASF5673
     /tmp/ccCwMAmf.s:93988  .debug_str:0000000000014990 .LASF5674
     /tmp/ccCwMAmf.s:107766  .debug_str:000000000004d86d .LASF5675
     /tmp/ccCwMAmf.s:104582  .debug_str:000000000003fe57 .LASF5676
     /tmp/ccCwMAmf.s:91832  .debug_str:000000000000c5a4 .LASF5677
     /tmp/ccCwMAmf.s:91410  .debug_str:000000000000a887 .LASF5678
     /tmp/ccCwMAmf.s:97174  .debug_str:0000000000022165 .LASF5679
     /tmp/ccCwMAmf.s:91158  .debug_str:00000000000096fd .LASF5680
     /tmp/ccCwMAmf.s:91324  .debug_str:000000000000a2a5 .LASF5681
     /tmp/ccCwMAmf.s:97590  .debug_str:0000000000023dc3 .LASF5682
     /tmp/ccCwMAmf.s:89206  .debug_str:000000000000118d .LASF5683
     /tmp/ccCwMAmf.s:93210  .debug_str:0000000000011624 .LASF5684
     /tmp/ccCwMAmf.s:96240  .debug_str:000000000001e0c1 .LASF5685
     /tmp/ccCwMAmf.s:102308  .debug_str:0000000000036e7c .LASF5686
     /tmp/ccCwMAmf.s:95110  .debug_str:00000000000190de .LASF5687
     /tmp/ccCwMAmf.s:96430  .debug_str:000000000001ed48 .LASF5688
     /tmp/ccCwMAmf.s:95916  .debug_str:000000000001ca32 .LASF5689
     /tmp/ccCwMAmf.s:104196  .debug_str:000000000003e70a .LASF5690
     /tmp/ccCwMAmf.s:89772  .debug_str:00000000000038df .LASF5691
     /tmp/ccCwMAmf.s:90354  .debug_str:000000000000605b .LASF5692
     /tmp/ccCwMAmf.s:107236  .debug_str:000000000004b3e2 .LASF5693
     /tmp/ccCwMAmf.s:91030  .debug_str:0000000000008e7c .LASF5694
     /tmp/ccCwMAmf.s:101802  .debug_str:0000000000034c27 .LASF5695
     /tmp/ccCwMAmf.s:93700  .debug_str:0000000000013770 .LASF5696
     /tmp/ccCwMAmf.s:101556  .debug_str:0000000000033b46 .LASF5697
     /tmp/ccCwMAmf.s:99488  .debug_str:000000000002b621 .LASF5699
     /tmp/ccCwMAmf.s:93946  .debug_str:00000000000146c6 .LASF5700
     /tmp/ccCwMAmf.s:102322  .debug_str:0000000000036f79 .LASF5701
     /tmp/ccCwMAmf.s:91360  .debug_str:000000000000a47b .LASF5702
     /tmp/ccCwMAmf.s:95742  .debug_str:000000000001bd2f .LASF5703
     /tmp/ccCwMAmf.s:95612  .debug_str:000000000001b42a .LASF5704
     /tmp/ccCwMAmf.s:100404  .debug_str:000000000002ef57 .LASF5705
     /tmp/ccCwMAmf.s:96962  .debug_str:00000000000212d0 .LASF5706
     /tmp/ccCwMAmf.s:104774  .debug_str:0000000000040c62 .LASF5707
     /tmp/ccCwMAmf.s:89312  .debug_str:00000000000019a4 .LASF5708
     /tmp/ccCwMAmf.s:98638  .debug_str:0000000000027dcc .LASF5709
     /tmp/ccCwMAmf.s:95006  .debug_str:0000000000018a1e .LASF5710
     /tmp/ccCwMAmf.s:104654  .debug_str:000000000004028e .LASF5711
     /tmp/ccCwMAmf.s:103366  .debug_str:000000000003ade8 .LASF5712
     /tmp/ccCwMAmf.s:103912  .debug_str:000000000003d2e0 .LASF5713
     /tmp/ccCwMAmf.s:100236  .debug_str:000000000002e43e .LASF5714
     /tmp/ccCwMAmf.s:99790  .debug_str:000000000002c7e8 .LASF5715
     /tmp/ccCwMAmf.s:103982  .debug_str:000000000003d7be .LASF5716
     /tmp/ccCwMAmf.s:94006  .debug_str:0000000000014aa6 .LASF5717
     /tmp/ccCwMAmf.s:96482  .debug_str:000000000001f104 .LASF5718
     /tmp/ccCwMAmf.s:102786  .debug_str:0000000000038bbd .LASF5719
     /tmp/ccCwMAmf.s:89514  .debug_str:00000000000027b2 .LASF5720
     /tmp/ccCwMAmf.s:95796  .debug_str:000000000001c123 .LASF5721
     /tmp/ccCwMAmf.s:102058  .debug_str:0000000000035e59 .LASF5722
     /tmp/ccCwMAmf.s:94650  .debug_str:0000000000017316 .LASF5723
     /tmp/ccCwMAmf.s:101994  .debug_str:0000000000035934 .LASF5724
     /tmp/ccCwMAmf.s:104178  .debug_str:000000000003e5a8 .LASF5725
     /tmp/ccCwMAmf.s:92528  .debug_str:000000000000eddf .LASF5726
     /tmp/ccCwMAmf.s:106884  .debug_str:0000000000049bbf .LASF5727
     /tmp/ccCwMAmf.s:91304  .debug_str:000000000000a10e .LASF5728
     /tmp/ccCwMAmf.s:106626  .debug_str:0000000000048a8d .LASF5729
     /tmp/ccCwMAmf.s:104368  .debug_str:000000000003f173 .LASF5730
     /tmp/ccCwMAmf.s:91738  .debug_str:000000000000bfc8 .LASF5731
     /tmp/ccCwMAmf.s:94604  .debug_str:0000000000016fcf .LASF5732
     /tmp/ccCwMAmf.s:98016  .debug_str:00000000000257ed .LASF5733
     /tmp/ccCwMAmf.s:105458  .debug_str:0000000000043e65 .LASF5734
     /tmp/ccCwMAmf.s:107984  .debug_str:000000000004e7f4 .LASF5735
     /tmp/ccCwMAmf.s:96440  .debug_str:000000000001edfe .LASF5736
     /tmp/ccCwMAmf.s:100766  .debug_str:00000000000307f7 .LASF5737
     /tmp/ccCwMAmf.s:98888  .debug_str:0000000000028f6f .LASF5738
     /tmp/ccCwMAmf.s:98172  .debug_str:0000000000025fcc .LASF5739
     /tmp/ccCwMAmf.s:96098  .debug_str:000000000001d643 .LASF5740
     /tmp/ccCwMAmf.s:93838  .debug_str:0000000000013fda .LASF5741
     /tmp/ccCwMAmf.s:91654  .debug_str:000000000000b955 .LASF5742
     /tmp/ccCwMAmf.s:99728  .debug_str:000000000002c47d .LASF5743
     /tmp/ccCwMAmf.s:106856  .debug_str:0000000000049a1c .LASF5744
     /tmp/ccCwMAmf.s:101402  .debug_str:00000000000330a9 .LASF5745
     /tmp/ccCwMAmf.s:101238  .debug_str:0000000000032628 .LASF5746
     /tmp/ccCwMAmf.s:94218  .debug_str:0000000000015738 .LASF5747
     /tmp/ccCwMAmf.s:93888  .debug_str:00000000000142d8 .LASF5748
     /tmp/ccCwMAmf.s:94244  .debug_str:00000000000158df .LASF5749
     /tmp/ccCwMAmf.s:106978  .debug_str:000000000004a14f .LASF5750
     /tmp/ccCwMAmf.s:107096  .debug_str:000000000004aa04 .LASF5751
     /tmp/ccCwMAmf.s:105318  .debug_str:0000000000043490 .LASF5752
     /tmp/ccCwMAmf.s:90418  .debug_str:00000000000064cd .LASF5753
     /tmp/ccCwMAmf.s:98608  .debug_str:0000000000027c2c .LASF5754
     /tmp/ccCwMAmf.s:98678  .debug_str:0000000000028093 .LASF5755
     /tmp/ccCwMAmf.s:96846  .debug_str:0000000000020bae .LASF5756
     /tmp/ccCwMAmf.s:105120  .debug_str:00000000000427ff .LASF5757
     /tmp/ccCwMAmf.s:103156  .debug_str:0000000000039eed .LASF5758
     /tmp/ccCwMAmf.s:92652  .debug_str:000000000000f628 .LASF5759
     /tmp/ccCwMAmf.s:98744  .debug_str:00000000000284e9 .LASF5760
     /tmp/ccCwMAmf.s:107038  .debug_str:000000000004a577 .LASF5761
     /tmp/ccCwMAmf.s:96728  .debug_str:000000000002036f .LASF5762
     /tmp/ccCwMAmf.s:103318  .debug_str:000000000003aab0 .LASF5763
     /tmp/ccCwMAmf.s:106426  .debug_str:0000000000047e1c .LASF5764
     /tmp/ccCwMAmf.s:103440  .debug_str:000000000003b32f .LASF5765
     /tmp/ccCwMAmf.s:97716  .debug_str:000000000002468b .LASF5766
     /tmp/ccCwMAmf.s:108306  .debug_str:000000000004fd7f .LASF5767
     /tmp/ccCwMAmf.s:94476  .debug_str:0000000000016738 .LASF5768
     /tmp/ccCwMAmf.s:107544  .debug_str:000000000004c886 .LASF5769
     /tmp/ccCwMAmf.s:93348  .debug_str:0000000000011f5d .LASF5770
     /tmp/ccCwMAmf.s:99912  .debug_str:000000000002cfaa .LASF5771
     /tmp/ccCwMAmf.s:89004  .debug_str:00000000000003ef .LASF5772
     /tmp/ccCwMAmf.s:106316  .debug_str:0000000000047642 .LASF5773
     /tmp/ccCwMAmf.s:90916  .debug_str:00000000000086d2 .LASF5774
     /tmp/ccCwMAmf.s:103210  .debug_str:000000000003a2d4 .LASF5775
     /tmp/ccCwMAmf.s:98664  .debug_str:0000000000027f88 .LASF5776
     /tmp/ccCwMAmf.s:95932  .debug_str:000000000001cb6f .LASF5777
     /tmp/ccCwMAmf.s:100572  .debug_str:000000000002fafb .LASF5778
     /tmp/ccCwMAmf.s:98082  .debug_str:0000000000025b4e .LASF5779
     /tmp/ccCwMAmf.s:96180  .debug_str:000000000001dc7f .LASF5780
     /tmp/ccCwMAmf.s:101036  .debug_str:00000000000318cc .LASF5781
     /tmp/ccCwMAmf.s:106646  .debug_str:0000000000048bf6 .LASF5782
     /tmp/ccCwMAmf.s:103144  .debug_str:0000000000039e4f .LASF5783
     /tmp/ccCwMAmf.s:95180  .debug_str:000000000001962c .LASF5784
     /tmp/ccCwMAmf.s:98776  .debug_str:0000000000028740 .LASF5785
     /tmp/ccCwMAmf.s:97190  .debug_str:0000000000022334 .LASF5786
     /tmp/ccCwMAmf.s:101684  .debug_str:0000000000034376 .LASF5787
     /tmp/ccCwMAmf.s:91628  .debug_str:000000000000b7c9 .LASF5788
     /tmp/ccCwMAmf.s:99742  .debug_str:000000000002c559 .LASF5789
     /tmp/ccCwMAmf.s:106816  .debug_str:00000000000496cd .LASF5790
     /tmp/ccCwMAmf.s:104136  .debug_str:000000000003e317 .LASF5791
     /tmp/ccCwMAmf.s:93326  .debug_str:0000000000011e24 .LASF5792
     /tmp/ccCwMAmf.s:105944  .debug_str:0000000000045e12 .LASF5793
     /tmp/ccCwMAmf.s:88972  .debug_str:0000000000000196 .LASF5794
     /tmp/ccCwMAmf.s:106300  .debug_str:0000000000047544 .LASF5795
     /tmp/ccCwMAmf.s:94214  .debug_str:00000000000156d8 .LASF5796
     /tmp/ccCwMAmf.s:102048  .debug_str:0000000000035dbb .LASF5797
     /tmp/ccCwMAmf.s:93472  .debug_str:0000000000012735 .LASF5798
     /tmp/ccCwMAmf.s:106644  .debug_str:0000000000048bdd .LASF5799
     /tmp/ccCwMAmf.s:89102  .debug_str:0000000000000ad5 .LASF5800
     /tmp/ccCwMAmf.s:106422  .debug_str:0000000000047dcb .LASF5801
     /tmp/ccCwMAmf.s:102854  .debug_str:0000000000038f0d .LASF5802
     /tmp/ccCwMAmf.s:93426  .debug_str:000000000001247e .LASF5803
     /tmp/ccCwMAmf.s:97118  .debug_str:0000000000021e54 .LASF5804
     /tmp/ccCwMAmf.s:97810  .debug_str:0000000000024c5a .LASF5805
     /tmp/ccCwMAmf.s:95788  .debug_str:000000000001c0b8 .LASF5806
     /tmp/ccCwMAmf.s:93516  .debug_str:0000000000012a98 .LASF5807
     /tmp/ccCwMAmf.s:104538  .debug_str:000000000003fbc1 .LASF5808
     /tmp/ccCwMAmf.s:102358  .debug_str:0000000000037240 .LASF5809
     /tmp/ccCwMAmf.s:107776  .debug_str:000000000004d93f .LASF5810
     /tmp/ccCwMAmf.s:89202  .debug_str:0000000000001165 .LASF5811
     /tmp/ccCwMAmf.s:97996  .debug_str:00000000000256a1 .LASF5812
     /tmp/ccCwMAmf.s:106654  .debug_str:0000000000048c5f .LASF5813
     /tmp/ccCwMAmf.s:95136  .debug_str:00000000000192a4 .LASF5814
     /tmp/ccCwMAmf.s:94170  .debug_str:0000000000015436 .LASF5815
     /tmp/ccCwMAmf.s:93330  .debug_str:0000000000011e4a .LASF5816
     /tmp/ccCwMAmf.s:107340  .debug_str:000000000004bacd .LASF5817
     /tmp/ccCwMAmf.s:93160  .debug_str:000000000001138c .LASF5818
     /tmp/ccCwMAmf.s:100044  .debug_str:000000000002d78d .LASF5819
     /tmp/ccCwMAmf.s:93900  .debug_str:00000000000143c6 .LASF5820
     /tmp/ccCwMAmf.s:93232  .debug_str:0000000000011795 .LASF5821
     /tmp/ccCwMAmf.s:98294  .debug_str:0000000000026744 .LASF5822
     /tmp/ccCwMAmf.s:92708  .debug_str:000000000000f8ea .LASF5823
     /tmp/ccCwMAmf.s:99308  .debug_str:000000000002aa40 .LASF5824
     /tmp/ccCwMAmf.s:92398  .debug_str:000000000000e7a8 .LASF5825
     /tmp/ccCwMAmf.s:96608  .debug_str:000000000001fa30 .LASF5826
     /tmp/ccCwMAmf.s:90504  .debug_str:0000000000006a92 .LASF5827
     /tmp/ccCwMAmf.s:89840  .debug_str:0000000000003d7d .LASF5828
     /tmp/ccCwMAmf.s:102716  .debug_str:0000000000038811 .LASF5829
     /tmp/ccCwMAmf.s:103362  .debug_str:000000000003adaa .LASF5830
     /tmp/ccCwMAmf.s:98648  .debug_str:0000000000027e8a .LASF5831
     /tmp/ccCwMAmf.s:105224  .debug_str:0000000000042e53 .LASF5832
     /tmp/ccCwMAmf.s:107960  .debug_str:000000000004e656 .LASF5833
     /tmp/ccCwMAmf.s:106864  .debug_str:0000000000049a91 .LASF5834
     /tmp/ccCwMAmf.s:104692  .debug_str:0000000000040547 .LASF5835
     /tmp/ccCwMAmf.s:89192  .debug_str:00000000000010b9 .LASF5836
     /tmp/ccCwMAmf.s:103022  .debug_str:0000000000039783 .LASF5837
     /tmp/ccCwMAmf.s:97898  .debug_str:000000000002513d .LASF5838
     /tmp/ccCwMAmf.s:105684  .debug_str:0000000000044d33 .LASF5839
     /tmp/ccCwMAmf.s:100058  .debug_str:000000000002d872 .LASF5840
     /tmp/ccCwMAmf.s:89048  .debug_str:0000000000000712 .LASF5841
     /tmp/ccCwMAmf.s:101896  .debug_str:000000000003523b .LASF5842
     /tmp/ccCwMAmf.s:100908  .debug_str:0000000000031092 .LASF5843
     /tmp/ccCwMAmf.s:103472  .debug_str:000000000003b5e7 .LASF5844
     /tmp/ccCwMAmf.s:89038  .debug_str:000000000000066e .LASF5845
     /tmp/ccCwMAmf.s:107008  .debug_str:000000000004a338 .LASF5846
     /tmp/ccCwMAmf.s:101378  .debug_str:0000000000032f06 .LASF5847
     /tmp/ccCwMAmf.s:103550  .debug_str:000000000003baa0 .LASF5848
     /tmp/ccCwMAmf.s:104768  .debug_str:0000000000040c0d .LASF5849
     /tmp/ccCwMAmf.s:100648  .debug_str:000000000002ffe4 .LASF5850
     /tmp/ccCwMAmf.s:106780  .debug_str:00000000000494ba .LASF5851
     /tmp/ccCwMAmf.s:107838  .debug_str:000000000004de1c .LASF5852
     /tmp/ccCwMAmf.s:98984  .debug_str:000000000002951a .LASF5853
     /tmp/ccCwMAmf.s:93766  .debug_str:0000000000013bae .LASF5855
     /tmp/ccCwMAmf.s:103854  .debug_str:000000000003cf8c .LASF5856
     /tmp/ccCwMAmf.s:104834  .debug_str:0000000000041137 .LASF5857
     /tmp/ccCwMAmf.s:99720  .debug_str:000000000002c402 .LASF5858
     /tmp/ccCwMAmf.s:105466  .debug_str:0000000000043ed2 .LASF5859
     /tmp/ccCwMAmf.s:102092  .debug_str:0000000000036030 .LASF5860
     /tmp/ccCwMAmf.s:100558  .debug_str:000000000002fa37 .LASF5861
     /tmp/ccCwMAmf.s:97706  .debug_str:00000000000245f2 .LASF5862
     /tmp/ccCwMAmf.s:89370  .debug_str:0000000000001dc2 .LASF5863
     /tmp/ccCwMAmf.s:93102  .debug_str:0000000000010f68 .LASF5864
     /tmp/ccCwMAmf.s:96788  .debug_str:000000000002085d .LASF5865
     /tmp/ccCwMAmf.s:98936  .debug_str:00000000000292f6 .LASF5866
     /tmp/ccCwMAmf.s:105650  .debug_str:0000000000044ac1 .LASF5867
     /tmp/ccCwMAmf.s:100848  .debug_str:0000000000030cfc .LASF5868
     /tmp/ccCwMAmf.s:105872  .debug_str:000000000004598e .LASF5869
     /tmp/ccCwMAmf.s:104390  .debug_str:000000000003f28f .LASF5870
     /tmp/ccCwMAmf.s:107644  .debug_str:000000000004cfb3 .LASF5871
     /tmp/ccCwMAmf.s:107564  .debug_str:000000000004ca1b .LASF5872
     /tmp/ccCwMAmf.s:104048  .debug_str:000000000003dcfa .LASF5873
     /tmp/ccCwMAmf.s:96046  .debug_str:000000000001d296 .LASF5874
     /tmp/ccCwMAmf.s:89492  .debug_str:000000000000266d .LASF5875
     /tmp/ccCwMAmf.s:91110  .debug_str:0000000000009403 .LASF5877
     /tmp/ccCwMAmf.s:100964  .debug_str:000000000003139c .LASF5878
     /tmp/ccCwMAmf.s:95438  .debug_str:000000000001a82c .LASF5879
     /tmp/ccCwMAmf.s:98710  .debug_str:0000000000028245 .LASF5880
     /tmp/ccCwMAmf.s:103510  .debug_str:000000000003b7e0 .LASF5881
     /tmp/ccCwMAmf.s:100820  .debug_str:0000000000030b3c .LASF5882
     /tmp/ccCwMAmf.s:96006  .debug_str:000000000001d02b .LASF5883
     /tmp/ccCwMAmf.s:89802  .debug_str:0000000000003b15 .LASF5884
     /tmp/ccCwMAmf.s:93990  .debug_str:00000000000149a4 .LASF5885
     /tmp/ccCwMAmf.s:96980  .debug_str:00000000000213fb .LASF5886
     /tmp/ccCwMAmf.s:104422  .debug_str:000000000003f48b .LASF5887
     /tmp/ccCwMAmf.s:103894  .debug_str:000000000003d1d9 .LASF5888
     /tmp/ccCwMAmf.s:94130  .debug_str:0000000000015188 .LASF5889
     /tmp/ccCwMAmf.s:106794  .debug_str:000000000004953b .LASF5890
     /tmp/ccCwMAmf.s:108188  .debug_str:000000000004f54c .LASF5891
     /tmp/ccCwMAmf.s:101338  .debug_str:0000000000032cd4 .LASF5892
     /tmp/ccCwMAmf.s:99172  .debug_str:000000000002a19a .LASF5893
     /tmp/ccCwMAmf.s:106802  .debug_str:00000000000495db .LASF5894
     /tmp/ccCwMAmf.s:92446  .debug_str:000000000000ea96 .LASF5895
     /tmp/ccCwMAmf.s:105476  .debug_str:0000000000043f51 .LASF5896
     /tmp/ccCwMAmf.s:89556  .debug_str:0000000000002aef .LASF5897
     /tmp/ccCwMAmf.s:91474  .debug_str:000000000000ac40 .LASF5898
     /tmp/ccCwMAmf.s:108142  .debug_str:000000000004f207 .LASF5899
     /tmp/ccCwMAmf.s:107746  .debug_str:000000000004d68a .LASF5900
     /tmp/ccCwMAmf.s:102802  .debug_str:0000000000038cd5 .LASF5902
     /tmp/ccCwMAmf.s:97404  .debug_str:000000000002309f .LASF5903
     /tmp/ccCwMAmf.s:102384  .debug_str:00000000000373b9 .LASF5904
     /tmp/ccCwMAmf.s:95380  .debug_str:000000000001a429 .LASF5905
     /tmp/ccCwMAmf.s:90628  .debug_str:000000000000741b .LASF5906
     /tmp/ccCwMAmf.s:97354  .debug_str:0000000000022da6 .LASF5907
     /tmp/ccCwMAmf.s:102342  .debug_str:00000000000370ff .LASF5908
     /tmp/ccCwMAmf.s:106412  .debug_str:0000000000047d17 .LASF5909
     /tmp/ccCwMAmf.s:93546  .debug_str:0000000000012cb7 .LASF5910
     /tmp/ccCwMAmf.s:102770  .debug_str:0000000000038acf .LASF5911
     /tmp/ccCwMAmf.s:97278  .debug_str:000000000002284b .LASF5912
     /tmp/ccCwMAmf.s:93732  .debug_str:00000000000139ae .LASF5913
     /tmp/ccCwMAmf.s:106756  .debug_str:000000000004936c .LASF5914
     /tmp/ccCwMAmf.s:106928  .debug_str:0000000000049e9c .LASF5915
     /tmp/ccCwMAmf.s:90394  .debug_str:000000000000630b .LASF5916
     /tmp/ccCwMAmf.s:100330  .debug_str:000000000002eb22 .LASF5917
     /tmp/ccCwMAmf.s:93886  .debug_str:00000000000142cc .LASF5918
     /tmp/ccCwMAmf.s:92614  .debug_str:000000000000f2d8 .LASF5919
     /tmp/ccCwMAmf.s:105426  .debug_str:0000000000043bf6 .LASF5920
     /tmp/ccCwMAmf.s:101764  .debug_str:00000000000348a6 .LASF5922
     /tmp/ccCwMAmf.s:91538  .debug_str:000000000000b125 .LASF5923
     /tmp/ccCwMAmf.s:104636  .debug_str:00000000000401c4 .LASF5924
     /tmp/ccCwMAmf.s:89676  .debug_str:00000000000032ae .LASF5925
     /tmp/ccCwMAmf.s:103034  .debug_str:0000000000039849 .LASF5926
     /tmp/ccCwMAmf.s:95502  .debug_str:000000000001ace6 .LASF5927
     /tmp/ccCwMAmf.s:95410  .debug_str:000000000001a624 .LASF5928
     /tmp/ccCwMAmf.s:106144  .debug_str:0000000000046a8b .LASF5929
     /tmp/ccCwMAmf.s:97982  .debug_str:0000000000025596 .LASF5930
     /tmp/ccCwMAmf.s:90014  .debug_str:0000000000004a20 .LASF5931
     /tmp/ccCwMAmf.s:94312  .debug_str:0000000000015d67 .LASF5932
     /tmp/ccCwMAmf.s:104700  .debug_str:00000000000405da .LASF5933
     /tmp/ccCwMAmf.s:96920  .debug_str:0000000000021003 .LASF5934
     /tmp/ccCwMAmf.s:93502  .debug_str:0000000000012970 .LASF5935
     /tmp/ccCwMAmf.s:90146  .debug_str:0000000000005270 .LASF5936
     /tmp/ccCwMAmf.s:93392  .debug_str:00000000000122ac .LASF5937
     /tmp/ccCwMAmf.s:101352  .debug_str:0000000000032db2 .LASF5938
     /tmp/ccCwMAmf.s:94858  .debug_str:00000000000180d7 .LASF5939
     /tmp/ccCwMAmf.s:94000  .debug_str:0000000000014a43 .LASF5940
     /tmp/ccCwMAmf.s:95040  .debug_str:0000000000018bbf .LASF5941
     /tmp/ccCwMAmf.s:104488  .debug_str:000000000003f8ca .LASF5942
     /tmp/ccCwMAmf.s:105844  .debug_str:00000000000457cc .LASF5943
     /tmp/ccCwMAmf.s:91376  .debug_str:000000000000a5e9 .LASF5944
     /tmp/ccCwMAmf.s:92712  .debug_str:000000000000f943 .LASF5945
     /tmp/ccCwMAmf.s:98610  .debug_str:0000000000027c45 .LASF5946
     /tmp/ccCwMAmf.s:97144  .debug_str:0000000000021f84 .LASF5947
     /tmp/ccCwMAmf.s:105502  .debug_str:00000000000440c4 .LASF5948
     /tmp/ccCwMAmf.s:105618  .debug_str:000000000004483e .LASF5949
     /tmp/ccCwMAmf.s:100182  .debug_str:000000000002e0d6 .LASF5950
     /tmp/ccCwMAmf.s:106910  .debug_str:0000000000049d30 .LASF5951
     /tmp/ccCwMAmf.s:94688  .debug_str:00000000000175e8 .LASF5952
     /tmp/ccCwMAmf.s:92704  .debug_str:000000000000f8a1 .LASF5953
     /tmp/ccCwMAmf.s:96894  .debug_str:0000000000020e32 .LASF5954
     /tmp/ccCwMAmf.s:101648  .debug_str:0000000000034103 .LASF5955
     /tmp/ccCwMAmf.s:99396  .debug_str:000000000002b025 .LASF5956
     /tmp/ccCwMAmf.s:92840  .debug_str:00000000000101ac .LASF5957
     /tmp/ccCwMAmf.s:90064  .debug_str:0000000000004db6 .LASF5958
     /tmp/ccCwMAmf.s:104152  .debug_str:000000000003e419 .LASF5959
     /tmp/ccCwMAmf.s:92824  .debug_str:0000000000010092 .LASF5960
     /tmp/ccCwMAmf.s:90558  .debug_str:0000000000006ee3 .LASF5961
     /tmp/ccCwMAmf.s:100638  .debug_str:000000000002ff5b .LASF5962
     /tmp/ccCwMAmf.s:95242  .debug_str:0000000000019a58 .LASF5963
     /tmp/ccCwMAmf.s:92086  .debug_str:000000000000d6a5 .LASF5964
     /tmp/ccCwMAmf.s:89536  .debug_str:000000000000295a .LASF5965
     /tmp/ccCwMAmf.s:94356  .debug_str:0000000000015f78 .LASF5966
     /tmp/ccCwMAmf.s:105004  .debug_str:0000000000041f4a .LASF5967
     /tmp/ccCwMAmf.s:106502  .debug_str:00000000000482c2 .LASF5968
     /tmp/ccCwMAmf.s:100352  .debug_str:000000000002ec6a .LASF5969
     /tmp/ccCwMAmf.s:89390  .debug_str:0000000000001f5d .LASF5970
     /tmp/ccCwMAmf.s:89758  .debug_str:00000000000037cc .LASF5971
     /tmp/ccCwMAmf.s:100916  .debug_str:0000000000031102 .LASF5972
     /tmp/ccCwMAmf.s:91786  .debug_str:000000000000c29d .LASF5973
     /tmp/ccCwMAmf.s:98540  .debug_str:0000000000027744 .LASF5974
     /tmp/ccCwMAmf.s:99656  .debug_str:000000000002c0a1 .LASF5975
     /tmp/ccCwMAmf.s:104432  .debug_str:000000000003f4e5 .LASF5976
     /tmp/ccCwMAmf.s:96256  .debug_str:000000000001e1df .LASF5977
     /tmp/ccCwMAmf.s:101522  .debug_str:0000000000033908 .LASF5978
     /tmp/ccCwMAmf.s:97454  .debug_str:0000000000023429 .LASF5979
     /tmp/ccCwMAmf.s:91282  .debug_str:0000000000009f79 .LASF5980
     /tmp/ccCwMAmf.s:106468  .debug_str:00000000000480b7 .LASF5981
     /tmp/ccCwMAmf.s:92782  .debug_str:000000000000fded .LASF5982
     /tmp/ccCwMAmf.s:104876  .debug_str:0000000000041433 .LASF5983
     /tmp/ccCwMAmf.s:95900  .debug_str:000000000001c8d9 .LASF5984
     /tmp/ccCwMAmf.s:100194  .debug_str:000000000002e1aa .LASF5985
     /tmp/ccCwMAmf.s:103546  .debug_str:000000000003ba37 .LASF5986
     /tmp/ccCwMAmf.s:106896  .debug_str:0000000000049c49 .LASF5987
     /tmp/ccCwMAmf.s:96452  .debug_str:000000000001eeb0 .LASF5988
     /tmp/ccCwMAmf.s:94580  .debug_str:0000000000016e53 .LASF5989
     /tmp/ccCwMAmf.s:106192  .debug_str:0000000000046e49 .LASF5990
     /tmp/ccCwMAmf.s:104298  .debug_str:000000000003ecc3 .LASF5991
     /tmp/ccCwMAmf.s:95166  .debug_str:000000000001952f .LASF5992
     /tmp/ccCwMAmf.s:92046  .debug_str:000000000000d436 .LASF5993
     /tmp/ccCwMAmf.s:97568  .debug_str:0000000000023c44 .LASF5994
     /tmp/ccCwMAmf.s:91428  .debug_str:000000000000a96e .LASF5995
     /tmp/ccCwMAmf.s:99788  .debug_str:000000000002c7d2 .LASF5996
     /tmp/ccCwMAmf.s:91172  .debug_str:00000000000097ed .LASF5997
     /tmp/ccCwMAmf.s:94248  .debug_str:0000000000015918 .LASF5998
     /tmp/ccCwMAmf.s:99884  .debug_str:000000000002cdfa .LASF5999
     /tmp/ccCwMAmf.s:90422  .debug_str:000000000000650c .LASF6000
     /tmp/ccCwMAmf.s:100370  .debug_str:000000000002eda7 .LASF6001
     /tmp/ccCwMAmf.s:105698  .debug_str:0000000000044e0b .LASF6002
     /tmp/ccCwMAmf.s:91476  .debug_str:000000000000acab .LASF6003
     /tmp/ccCwMAmf.s:90448  .debug_str:00000000000066d7 .LASF6004
     /tmp/ccCwMAmf.s:91778  .debug_str:000000000000c204 .LASF6005
     /tmp/ccCwMAmf.s:92112  .debug_str:000000000000d80a .LASF6006
     /tmp/ccCwMAmf.s:104030  .debug_str:000000000003db9e .LASF6007
     /tmp/ccCwMAmf.s:89920  .debug_str:000000000000434d .LASF6008
     /tmp/ccCwMAmf.s:103200  .debug_str:000000000003a216 .LASF6009
     /tmp/ccCwMAmf.s:105846  .debug_str:00000000000457df .LASF6010
     /tmp/ccCwMAmf.s:98956  .debug_str:0000000000029419 .LASF6011
     /tmp/ccCwMAmf.s:103270  .debug_str:000000000003a733 .LASF6012
     /tmp/ccCwMAmf.s:97924  .debug_str:00000000000252ab .LASF6013
     /tmp/ccCwMAmf.s:93238  .debug_str:000000000001183d .LASF6014
     /tmp/ccCwMAmf.s:99296  .debug_str:000000000002a968 .LASF6015
     /tmp/ccCwMAmf.s:105196  .debug_str:0000000000042c5e .LASF6016
     /tmp/ccCwMAmf.s:91674  .debug_str:000000000000baf5 .LASF6017
     /tmp/ccCwMAmf.s:90990  .debug_str:0000000000008bf0 .LASF6018
     /tmp/ccCwMAmf.s:98948  .debug_str:00000000000293b3 .LASF6019
     /tmp/ccCwMAmf.s:99614  .debug_str:000000000002bda8 .LASF6020
     /tmp/ccCwMAmf.s:92692  .debug_str:000000000000f7af .LASF6021
     /tmp/ccCwMAmf.s:104710  .debug_str:0000000000040680 .LASF6022
     /tmp/ccCwMAmf.s:100178  .debug_str:000000000002e083 .LASF6023
                           .group:0000000000000000 wm4.0.2cde0bba310258ac5fb120644dc52a54
                           .group:0000000000000000 wm4._newlib_version.h.4.9ba035841e762c3308916a0ce96032e7
                           .group:0000000000000000 wm4.newlib.h.24.c310527e65dab9224e8fef4278ad2129
                           .group:0000000000000000 wm4.ieeefp.h.195.a810689bf65b84f4ad2c33b483468c94
                           .group:0000000000000000 wm4.features.h.22.fad1cec3bc7ff06488171438dbdcfd02
                           .group:0000000000000000 wm4.config.h.83.0359905d884ebfe41c79e1d7c780ef62
                           .group:0000000000000000 wm4._ansi.h.31.de524f58584151836e90d8620a16f8e8
                           .group:0000000000000000 wm4.stdio.h.31.7c0e28c411445f3f9c5b11accf882760
                           .group:0000000000000000 wm4._default_types.h.6.74c1620e62c751216328238764a7f2e5
                           .group:0000000000000000 wm4.stddef.h.187.2ff233552538c6ff9b8575ca8ea52cb3
                           .group:0000000000000000 wm4.cdefs.h.49.6260d97adb8d27534cbdc0f868b8ea87
                           .group:0000000000000000 wm4.stddef.h.39.ec95e8feac892e292b69dc7ae75b0d64
                           .group:0000000000000000 wm4.stdarg.h.34.3a23a216c0c293b3d2ea2e89281481e6
                           .group:0000000000000000 wm4._types.h.20.dd0d04dca3800a0d2a6129b87f3adbb2
                           .group:0000000000000000 wm4.stddef.h.161.5349cb105733e8777bfb0cf53c4e3f34
                           .group:0000000000000000 wm4._types.h.127.c5cfac939eadb83d223592dbacad7524
                           .group:0000000000000000 wm4.reent.h.17.487f8c1f76499d088b190f62530a0034
                           .group:0000000000000000 wm4.lock.h.2.c0958401bd0ce484d507ee19aacab817
                           .group:0000000000000000 wm4.reent.h.77.1187f1075ff88452c642b29ed9a9030d
                           .group:0000000000000000 wm4.types.h.40.8b6acba56cefbb11746718204edc8f5e
                           .group:0000000000000000 wm4._stdint.h.10.c24fa3af3bc1706662bb5593a907e841
                           .group:0000000000000000 wm4._endian.h.18.1bf9649e8e5bbc91042012680270b9ed
                           .group:0000000000000000 wm4.endian.h.9.49f3a4695c1b61e8a0808de3c4a106cb
                           .group:0000000000000000 wm4._timeval.h.30.0e8bfd94e85db17dda3286ee81496fe6
                           .group:0000000000000000 wm4.timespec.h.41.d855182eb0e690443ab8651bcedca6e1
                           .group:0000000000000000 wm4.select.h.19.97ca6fd0c752a0f3b6719fd314d361e6
                           .group:0000000000000000 wm4.types.h.51.5571ec98f267d17d3c670b7a3ba33afa
                           .group:0000000000000000 wm4.sched.h.22.c60982713a5c428609783c78f9c78d95
                           .group:0000000000000000 wm4._pthreadtypes.h.36.fcee9961c35163dde6267ef772ad1972
                           .group:0000000000000000 wm4.stdio.h.2.4aa87247282eca6c8f36f9de33d8df1a
                           .group:0000000000000000 wm4.stdio.h.81.60a2ded7dae310b81f9d6907fe5e3dbf
                           .group:0000000000000000 wm4.string.h.8.c4b8571ce60dff2817f43fec8b86aecd
                           .group:0000000000000000 wm4.stddef.h.161.19e15733342b50ead2919490b095303e
                           .group:0000000000000000 wm4.stdbool.h.29.07dce69c3b78884144b7f7bd19483461
                           .group:0000000000000000 wm4._intsup.h.10.b28b45fc63caeb010c3f7ee592257700
                           .group:0000000000000000 wm4.stdint.h.23.d53047a68f4a85177f80b422d52785ed
                           .group:0000000000000000 wm4.mss_assert.h.10.09559128d1f6dbd833ab24347e71c76c
                           .group:0000000000000000 wm4.mss_legacy_defines.h.20.594d5f03b0f5314e3b2e801d98173479
                           .group:0000000000000000 wm4.mss_ddr_defs.h.18.58f9a87b5146acaefd5d9382d54140ba
                           .group:0000000000000000 wm4.mss_sysreg.h.19.614456a035a0cca3fd9d4348b0740228
                           .group:0000000000000000 wm4.mss_ddr_sgmii_regs.h.5543.4c565db9c25f7d4b45bd9b264c475c73
                           .group:0000000000000000 wm4.mss_io_config.h.18.b70207dea5a59bac7da73ad6eee375d0
                           .group:0000000000000000 wm4.mss_pll.h.192.d6d9146a5a36ce9e7f6a5ae2e7816970
                           .group:0000000000000000 wm4.mss_scb_nwc_regs.h.19.92192026ece1a0bf26c7a7af9a56e40a
                           .group:0000000000000000 wm4.mss_sw_config.h.37.2f79a8233593e640cb9660b9e2020907
                           .group:0000000000000000 wm4.atomic.h.33.7c17fdf64e267483cec1d3aead0473f4
                           .group:0000000000000000 wm4.bits.h.32.2ced66ae3bdb7651edf1ccfb67de7b38
                           .group:0000000000000000 wm4.encoding.h.34.68f898bac6356b153788044b6c29d177
                           .group:0000000000000000 wm4.fpga_design_config.h.28.572b3893a09debe9cb72c1441369aee0
                           .group:0000000000000000 wm4.hw_memory.h.28.20599cf485f90ffaa97f313798a86238
                           .group:0000000000000000 wm4.hw_apb_split.h.28.a2537f445f7a8784a4f064a3a60be381
                           .group:0000000000000000 wm4.hw_cache.h.28.aa59d0803f1283c480a862ba52ff4d4f
                           .group:0000000000000000 wm4.hw_pmp_hart0.h.28.354eeff78ff2eb91d2783e01dbe4e5a4
                           .group:0000000000000000 wm4.hw_pmp_hart1.h.28.0ab9e64d9d5e4b3cdd2ef9fae2ec18f2
                           .group:0000000000000000 wm4.hw_pmp_hart2.h.28.361fe83e7fd64067a0988f3e9bcd6e5d
                           .group:0000000000000000 wm4.hw_pmp_hart3.h.28.8c3eca8078d58a4979d23ae7fc3ceb35
                           .group:0000000000000000 wm4.hw_pmp_hart4.h.28.f8bf6b50f09effab3f4dfc16a44d5d0e
                           .group:0000000000000000 wm4.hw_mpu_fic0.h.28.3a719367ee0b56c20c7541cca5239296
                           .group:0000000000000000 wm4.hw_mpu_fic1.h.28.35d3b72b131707dc62529924d8a0d281
                           .group:0000000000000000 wm4.hw_mpu_fic2.h.28.88b1cd488fc04fd09199876067a670cb
                           .group:0000000000000000 wm4.hw_mpu_crypto.h.28.45628d14bd81b7ae15853711bd55f118
                           .group:0000000000000000 wm4.hw_mpu_gem0.h.28.e88b73a77e588162ac08b038acfe3e30
                           .group:0000000000000000 wm4.hw_mpu_gem1.h.28.dadc3a640dcfb61a8f24791560fa3605
                           .group:0000000000000000 wm4.hw_mpu_usb.h.28.0b0c25c65da87670d72dffa8e9b51ad6
                           .group:0000000000000000 wm4.hw_mpu_mmc.h.28.a5df85f7a87dfaafd939c0c9743b44a9
                           .group:0000000000000000 wm4.hw_mpu_scb.h.28.2b778d620a29a13b1a33733b3fefaf3e
                           .group:0000000000000000 wm4.hw_mpu_trace.h.28.dbb150e27983d45d78ea646dfe7486fe
                           .group:0000000000000000 wm4.hw_mssio_mux.h.28.b18396e0f5e6c83835b3b8e1dfadc1b4
                           .group:0000000000000000 wm4.hw_hsio_mux.h.28.924a66a0f83f27c24767fbfdaffeb21f
                           .group:0000000000000000 wm4.hw_sgmii_tip.h.28.c2c656c87ab558ebf9f510f55b530997
                           .group:0000000000000000 wm4.hw_ddr_options.h.28.583107ebf3250a7e99a4e34ca34040f9
                           .group:0000000000000000 wm4.hw_ddr_io_bank.h.28.09e373f4be71534c2b0bf629a50788a8
                           .group:0000000000000000 wm4.hw_ddr_mode.h.28.3ecff7868bb6c2027433e8aaf3a6e9d0
                           .group:0000000000000000 wm4.hw_ddr_off_mode.h.28.c8f0d4bcf68d083d8ff0335e558930e9
                           .group:0000000000000000 wm4.hw_ddr_segs.h.28.93c530a254cc8a9c015d0bae044125b2
                           .group:0000000000000000 wm4.hw_ddrc.h.28.d858943fbdd3e7761d52c974b21ea425
                           .group:0000000000000000 wm4.hw_mss_clks.h.28.53b1f012440894624f35e610477ed6d8
                           .group:0000000000000000 wm4.hw_clk_sysreg.h.28.adf2eb2b08eeb2ee56f6129328388395
                           .group:0000000000000000 wm4.hw_clk_mss_pll.h.28.f255323a7f4276a824501e07bd0f464a
                           .group:0000000000000000 wm4.hw_clk_sgmii_pll.h.28.b1aefe04f9cda949aee4586f0025e039
                           .group:0000000000000000 wm4.hw_clk_ddr_pll.h.28.8f0ed359dbfb59ae6f0aa1f29002d60d
                           .group:0000000000000000 wm4.hw_clk_mss_cfm.h.28.365f11189fcbf1e2f08db25b2ea1557a
                           .group:0000000000000000 wm4.hw_clk_sgmii_cfm.h.28.f59fda78ad3b4981ccbc9fbc0d90ca0a
                           .group:0000000000000000 wm4.hw_gen_peripherals.h.28.67a363af3ea61147ac365f904e7b6183
                           .group:0000000000000000 wm4.mss_ddr.h.335.a7fe38050b0f6ce3ee0df6f9cb324a9e
                           .group:0000000000000000 wm4.mss_clint.h.28.3d2c636f4c8175d64797a2e961db02ff
                           .group:0000000000000000 wm4.mss_h2f.h.21.7086260854010c63b41a469cd9f7486d
                           .group:0000000000000000 wm4.mss_hart_ints.h.20.df914e6570bee6a0a5e5635d9329f21b
                           .group:0000000000000000 wm4.mss_mpu.h.20.dd1fa2a8702d0e819fbbb263dc6428d1
                           .group:0000000000000000 wm4.mss_pmp.h.19.8f83d750289fe5e95625891444a65774
                           .group:0000000000000000 wm4.mss_plic.h.38.63bddd8b7aeec5445a0ab9c829719734
                           .group:0000000000000000 wm4.mss_seg.h.38.d7fedb2c993ff2eb58c3c1c5f57af66f
                           .group:0000000000000000 wm4.mss_util.h.31.57922375d48cf596b0783b975bb89aba
                           .group:0000000000000000 wm4.mss_mtrap.h.32.75bfcc4d9a15120a34cb2ee456cde55a
                           .group:0000000000000000 wm4.mss_l2_cache.h.430.934410ee5d62996f3b8869a34907e316
                           .group:0000000000000000 wm4.mss_axiswitch.h.110.fc13072c0144cbd8e516d1d4f8c599b2
                           .group:0000000000000000 wm4.mss_peripherals.h.19.9837bc1f8d1c62dfd266b4590a8830b2
                           .group:0000000000000000 wm4.mss_cfm.h.20.474baf099ef6f60b14912c934c5e47c6
                           .group:0000000000000000 wm4.mss_sgmii.h.18.7850ab5b5e05dabb42db8143f362bae8
                           .group:0000000000000000 wm4.system_startup.h.17.372727b49fdab2e286123d13f6b6542a
                           .group:0000000000000000 wm4.mss_ddr_debug.h.40.79a83a45aea2f09f97e5663e254e5e65

UNDEFINED SYMBOLS
config_64_copy
