   1              		.file	"mss_clint.c"
   2              		.option nopic
   3              		.attribute arch, "rv64i2p0_m2p0_a2p0_f2p0_d2p0_c2p0"
   4              		.attribute unaligned_access, 0
   5              		.attribute stack_align, 16
   6              		.text
   7              	.Ltext0:
   8              		.cfi_sections	.debug_frame
   9              		.section	.text.clear_soft_interrupt,"ax",@progbits
  10              		.align	1
  12              	clear_soft_interrupt:
  13              	.LFB1:
  14              		.file 1 "/home/vinay/Desktop/softconsole_watershed/Water-shed/src/platform/mpfs_hal/common/mss_cli
   1:/home/vinay/Desktop/softconsole_watershed/Water-shed/src/platform/mpfs_hal/common/mss_clint.h **** /*******************************************************************************
   2:/home/vinay/Desktop/softconsole_watershed/Water-shed/src/platform/mpfs_hal/common/mss_clint.h ****  * Copyright 2019-2022 Microchip FPGA Embedded Systems Solutions.
   3:/home/vinay/Desktop/softconsole_watershed/Water-shed/src/platform/mpfs_hal/common/mss_clint.h ****  *
   4:/home/vinay/Desktop/softconsole_watershed/Water-shed/src/platform/mpfs_hal/common/mss_clint.h ****  * SPDX-License-Identifier: MIT
   5:/home/vinay/Desktop/softconsole_watershed/Water-shed/src/platform/mpfs_hal/common/mss_clint.h ****  *
   6:/home/vinay/Desktop/softconsole_watershed/Water-shed/src/platform/mpfs_hal/common/mss_clint.h ****  * MPFS HAL Embedded Software
   7:/home/vinay/Desktop/softconsole_watershed/Water-shed/src/platform/mpfs_hal/common/mss_clint.h ****  *
   8:/home/vinay/Desktop/softconsole_watershed/Water-shed/src/platform/mpfs_hal/common/mss_clint.h ****  */
   9:/home/vinay/Desktop/softconsole_watershed/Water-shed/src/platform/mpfs_hal/common/mss_clint.h **** 
  10:/home/vinay/Desktop/softconsole_watershed/Water-shed/src/platform/mpfs_hal/common/mss_clint.h **** /*******************************************************************************
  11:/home/vinay/Desktop/softconsole_watershed/Water-shed/src/platform/mpfs_hal/common/mss_clint.h ****  *
  12:/home/vinay/Desktop/softconsole_watershed/Water-shed/src/platform/mpfs_hal/common/mss_clint.h ****  * @file mss_clint.h
  13:/home/vinay/Desktop/softconsole_watershed/Water-shed/src/platform/mpfs_hal/common/mss_clint.h ****  * @author Microchip-FPGA Embedded Systems Solutions
  14:/home/vinay/Desktop/softconsole_watershed/Water-shed/src/platform/mpfs_hal/common/mss_clint.h ****  * @brief CLINT access data structures and functions.
  15:/home/vinay/Desktop/softconsole_watershed/Water-shed/src/platform/mpfs_hal/common/mss_clint.h ****  *
  16:/home/vinay/Desktop/softconsole_watershed/Water-shed/src/platform/mpfs_hal/common/mss_clint.h ****  */
  17:/home/vinay/Desktop/softconsole_watershed/Water-shed/src/platform/mpfs_hal/common/mss_clint.h **** #ifndef MSS_CLINT_H
  18:/home/vinay/Desktop/softconsole_watershed/Water-shed/src/platform/mpfs_hal/common/mss_clint.h **** #define MSS_CLINT_H
  19:/home/vinay/Desktop/softconsole_watershed/Water-shed/src/platform/mpfs_hal/common/mss_clint.h **** 
  20:/home/vinay/Desktop/softconsole_watershed/Water-shed/src/platform/mpfs_hal/common/mss_clint.h **** #include <stdint.h>
  21:/home/vinay/Desktop/softconsole_watershed/Water-shed/src/platform/mpfs_hal/common/mss_clint.h **** #include "encoding.h"
  22:/home/vinay/Desktop/softconsole_watershed/Water-shed/src/platform/mpfs_hal/common/mss_clint.h **** #include "atomic.h"
  23:/home/vinay/Desktop/softconsole_watershed/Water-shed/src/platform/mpfs_hal/common/mss_clint.h **** 
  24:/home/vinay/Desktop/softconsole_watershed/Water-shed/src/platform/mpfs_hal/common/mss_clint.h **** #ifdef __cplusplus
  25:/home/vinay/Desktop/softconsole_watershed/Water-shed/src/platform/mpfs_hal/common/mss_clint.h **** extern "C" {
  26:/home/vinay/Desktop/softconsole_watershed/Water-shed/src/platform/mpfs_hal/common/mss_clint.h **** #endif
  27:/home/vinay/Desktop/softconsole_watershed/Water-shed/src/platform/mpfs_hal/common/mss_clint.h **** 
  28:/home/vinay/Desktop/softconsole_watershed/Water-shed/src/platform/mpfs_hal/common/mss_clint.h **** #define RTC_PRESCALER 100U
  29:/home/vinay/Desktop/softconsole_watershed/Water-shed/src/platform/mpfs_hal/common/mss_clint.h **** #define SUCCESS 0U
  30:/home/vinay/Desktop/softconsole_watershed/Water-shed/src/platform/mpfs_hal/common/mss_clint.h **** #define ERROR   1U
  31:/home/vinay/Desktop/softconsole_watershed/Water-shed/src/platform/mpfs_hal/common/mss_clint.h **** 
  32:/home/vinay/Desktop/softconsole_watershed/Water-shed/src/platform/mpfs_hal/common/mss_clint.h **** 
  33:/home/vinay/Desktop/softconsole_watershed/Water-shed/src/platform/mpfs_hal/common/mss_clint.h **** /*==============================================================================
  34:/home/vinay/Desktop/softconsole_watershed/Water-shed/src/platform/mpfs_hal/common/mss_clint.h ****  * CLINT: Core Local Interrupter
  35:/home/vinay/Desktop/softconsole_watershed/Water-shed/src/platform/mpfs_hal/common/mss_clint.h ****  */
  36:/home/vinay/Desktop/softconsole_watershed/Water-shed/src/platform/mpfs_hal/common/mss_clint.h **** typedef struct CLINT_Type_t
  37:/home/vinay/Desktop/softconsole_watershed/Water-shed/src/platform/mpfs_hal/common/mss_clint.h **** {
  38:/home/vinay/Desktop/softconsole_watershed/Water-shed/src/platform/mpfs_hal/common/mss_clint.h ****     volatile uint32_t MSIP[5];
  39:/home/vinay/Desktop/softconsole_watershed/Water-shed/src/platform/mpfs_hal/common/mss_clint.h ****     volatile uint32_t reserved1[(0x4000U - 0x14U)/4U];
  40:/home/vinay/Desktop/softconsole_watershed/Water-shed/src/platform/mpfs_hal/common/mss_clint.h ****     volatile uint64_t MTIMECMP[5];  /* mtime compare value for each hart. When mtime equals this va
  41:/home/vinay/Desktop/softconsole_watershed/Water-shed/src/platform/mpfs_hal/common/mss_clint.h ****     volatile uint32_t reserved2[((0xbff8U - 0x4028U)/4U)];
  42:/home/vinay/Desktop/softconsole_watershed/Water-shed/src/platform/mpfs_hal/common/mss_clint.h ****     volatile uint64_t MTIME;    /* contains the current mtime value */
  43:/home/vinay/Desktop/softconsole_watershed/Water-shed/src/platform/mpfs_hal/common/mss_clint.h **** } CLINT_Type;
  44:/home/vinay/Desktop/softconsole_watershed/Water-shed/src/platform/mpfs_hal/common/mss_clint.h **** 
  45:/home/vinay/Desktop/softconsole_watershed/Water-shed/src/platform/mpfs_hal/common/mss_clint.h **** #define CLINT    ((CLINT_Type *)CLINT_BASE)
  46:/home/vinay/Desktop/softconsole_watershed/Water-shed/src/platform/mpfs_hal/common/mss_clint.h **** 
  47:/home/vinay/Desktop/softconsole_watershed/Water-shed/src/platform/mpfs_hal/common/mss_clint.h **** 
  48:/home/vinay/Desktop/softconsole_watershed/Water-shed/src/platform/mpfs_hal/common/mss_clint.h **** /*==============================================================================
  49:/home/vinay/Desktop/softconsole_watershed/Water-shed/src/platform/mpfs_hal/common/mss_clint.h ****  * The function raise_soft_interrupt() raises a synchronous software interrupt by
  50:/home/vinay/Desktop/softconsole_watershed/Water-shed/src/platform/mpfs_hal/common/mss_clint.h ****  * writing into the MSIP register.
  51:/home/vinay/Desktop/softconsole_watershed/Water-shed/src/platform/mpfs_hal/common/mss_clint.h ****  */
  52:/home/vinay/Desktop/softconsole_watershed/Water-shed/src/platform/mpfs_hal/common/mss_clint.h **** static inline void raise_soft_interrupt(unsigned long hart_id)
  53:/home/vinay/Desktop/softconsole_watershed/Water-shed/src/platform/mpfs_hal/common/mss_clint.h **** {
  54:/home/vinay/Desktop/softconsole_watershed/Water-shed/src/platform/mpfs_hal/common/mss_clint.h ****     /*You need to make sure that the global interrupt is enabled*/
  55:/home/vinay/Desktop/softconsole_watershed/Water-shed/src/platform/mpfs_hal/common/mss_clint.h ****     /*Note:  set_csr(mie, MIP_MSIP) needs to be set on hart you are setting sw interrupt */
  56:/home/vinay/Desktop/softconsole_watershed/Water-shed/src/platform/mpfs_hal/common/mss_clint.h ****     CLINT->MSIP[hart_id] = 0x01U;   /*raise soft interrupt for hart(x) where x== hart ID*/
  57:/home/vinay/Desktop/softconsole_watershed/Water-shed/src/platform/mpfs_hal/common/mss_clint.h ****     mb();
  58:/home/vinay/Desktop/softconsole_watershed/Water-shed/src/platform/mpfs_hal/common/mss_clint.h **** }
  59:/home/vinay/Desktop/softconsole_watershed/Water-shed/src/platform/mpfs_hal/common/mss_clint.h **** 
  60:/home/vinay/Desktop/softconsole_watershed/Water-shed/src/platform/mpfs_hal/common/mss_clint.h **** /*==============================================================================
  61:/home/vinay/Desktop/softconsole_watershed/Water-shed/src/platform/mpfs_hal/common/mss_clint.h ****  * The function clear_soft_interrupt() clears a synchronous software interrupt by
  62:/home/vinay/Desktop/softconsole_watershed/Water-shed/src/platform/mpfs_hal/common/mss_clint.h ****  * clearing the MSIP register.
  63:/home/vinay/Desktop/softconsole_watershed/Water-shed/src/platform/mpfs_hal/common/mss_clint.h ****  */
  64:/home/vinay/Desktop/softconsole_watershed/Water-shed/src/platform/mpfs_hal/common/mss_clint.h **** static inline void clear_soft_interrupt(void)
  65:/home/vinay/Desktop/softconsole_watershed/Water-shed/src/platform/mpfs_hal/common/mss_clint.h **** {
  15              		.loc 1 65 1
  16              		.cfi_startproc
  17 0000 7971     		addi	sp,sp,-48
  18              		.cfi_def_cfa_offset 48
  19 0002 22F4     		sd	s0,40(sp)
  20              		.cfi_offset 8, -8
  21 0004 0018     		addi	s0,sp,48
  22              		.cfi_def_cfa 8, 0
  23              	.LBB2:
  66:/home/vinay/Desktop/softconsole_watershed/Water-shed/src/platform/mpfs_hal/common/mss_clint.h ****     volatile uint32_t reg;
  67:/home/vinay/Desktop/softconsole_watershed/Water-shed/src/platform/mpfs_hal/common/mss_clint.h ****     uint64_t hart_id = read_csr(mhartid);
  24              		.loc 1 67 24
  25              	 #APP
  26              	# 67 "/home/vinay/Desktop/softconsole_watershed/Water-shed/src/platform/mpfs_hal/common/mss_clint.h
  68              	    CLINT->MSIP[hart_id] = 0x00U;   /*clear soft interrupt for hart0*/
  27              		csrr a5, mhartid
  28              	# 0 "" 2
  29              	 #NO_APP
  30 000a 2334F4FE 		sd	a5,-24(s0)
  31 000e 833784FE 		ld	a5,-24(s0)
  32              	.LBE2:
  67:/home/vinay/Desktop/softconsole_watershed/Water-shed/src/platform/mpfs_hal/common/mss_clint.h ****     uint64_t hart_id = read_csr(mhartid);
  33              		.loc 1 67 14
  34 0012 2330F4FE 		sd	a5,-32(s0)
  35              		.loc 1 68 10
  36 0016 37070002 		li	a4,33554432
  37              		.loc 1 68 26
  38 001a 833704FE 		ld	a5,-32(s0)
  39 001e 8A07     		slli	a5,a5,2
  40 0020 BA97     		add	a5,a4,a5
  41 0022 23A00700 		sw	zero,0(a5)
  69:/home/vinay/Desktop/softconsole_watershed/Water-shed/src/platform/mpfs_hal/common/mss_clint.h ****     reg = CLINT->MSIP[hart_id];     /* we read back to make sure it has been written before moving 
  42              		.loc 1 69 16
  43 0026 37070002 		li	a4,33554432
  44              		.loc 1 69 22
  45 002a 833704FE 		ld	a5,-32(s0)
  46 002e 8A07     		slli	a5,a5,2
  47 0030 BA97     		add	a5,a4,a5
  48 0032 9C43     		lw	a5,0(a5)
  49 0034 8127     		sext.w	a5,a5
  50              		.loc 1 69 9
  51 0036 232EF4FC 		sw	a5,-36(s0)
  70:/home/vinay/Desktop/softconsole_watershed/Water-shed/src/platform/mpfs_hal/common/mss_clint.h ****                                     /* todo: verify line above guaranteed and best way to achieve r
  71:/home/vinay/Desktop/softconsole_watershed/Water-shed/src/platform/mpfs_hal/common/mss_clint.h ****     (void)reg;                      /* use reg to avoid compiler warning */
  52              		.loc 1 71 5
  53 003a 8327C4FD 		lw	a5,-36(s0)
  72:/home/vinay/Desktop/softconsole_watershed/Water-shed/src/platform/mpfs_hal/common/mss_clint.h **** }
  54              		.loc 1 72 1
  55 003e 0100     		nop
  56 0040 2274     		ld	s0,40(sp)
  57              		.cfi_restore 8
  58              		.cfi_def_cfa 2, 48
  59 0042 4561     		addi	sp,sp,48
  60              		.cfi_def_cfa_offset 0
  61 0044 8280     		jr	ra
  62              		.cfi_endproc
  63              	.LFE1:
  65              		.section	.bss.g_systick_increment,"aw",@nobits
  66              		.align	3
  69              	g_systick_increment:
  70 0000 00000000 		.zero	40
  70      00000000 
  70      00000000 
  70      00000000 
  70      00000000 
  71              		.section	.text.reset_mtime,"ax",@progbits
  72              		.align	1
  73              		.globl	reset_mtime
  75              	reset_mtime:
  76              	.LFB19:
  77              		.file 2 "../src/platform/mpfs_hal/common/mss_clint.c"
   1:../src/platform/mpfs_hal/common/mss_clint.c **** /*******************************************************************************
   2:../src/platform/mpfs_hal/common/mss_clint.c ****  * Copyright 2019-2022 Microchip FPGA Embedded Systems Solutions.
   3:../src/platform/mpfs_hal/common/mss_clint.c ****  *
   4:../src/platform/mpfs_hal/common/mss_clint.c ****  * SPDX-License-Identifier: MIT
   5:../src/platform/mpfs_hal/common/mss_clint.c ****  *
   6:../src/platform/mpfs_hal/common/mss_clint.c ****  * MPFS HAL Embedded Software
   7:../src/platform/mpfs_hal/common/mss_clint.c ****  *
   8:../src/platform/mpfs_hal/common/mss_clint.c ****  */
   9:../src/platform/mpfs_hal/common/mss_clint.c **** 
  10:../src/platform/mpfs_hal/common/mss_clint.c **** /*******************************************************************************
  11:../src/platform/mpfs_hal/common/mss_clint.c ****  *
  12:../src/platform/mpfs_hal/common/mss_clint.c ****  * @file mss_clint.c
  13:../src/platform/mpfs_hal/common/mss_clint.c ****  * @author Microchip-FPGA Embedded Systems Solutions
  14:../src/platform/mpfs_hal/common/mss_clint.c ****  * @brief CLINT access data structures and functions.
  15:../src/platform/mpfs_hal/common/mss_clint.c ****  *
  16:../src/platform/mpfs_hal/common/mss_clint.c ****  */
  17:../src/platform/mpfs_hal/common/mss_clint.c **** #include <stdint.h>
  18:../src/platform/mpfs_hal/common/mss_clint.c **** #include "mpfs_hal/mss_hal.h"
  19:../src/platform/mpfs_hal/common/mss_clint.c **** 
  20:../src/platform/mpfs_hal/common/mss_clint.c **** static uint64_t g_systick_increment[5] = {0ULL,0ULL,0ULL,0ULL,0ULL};
  21:../src/platform/mpfs_hal/common/mss_clint.c **** 
  22:../src/platform/mpfs_hal/common/mss_clint.c **** /**
  23:../src/platform/mpfs_hal/common/mss_clint.c ****  * call once at startup
  24:../src/platform/mpfs_hal/common/mss_clint.c ****  * @return
  25:../src/platform/mpfs_hal/common/mss_clint.c ****  */
  26:../src/platform/mpfs_hal/common/mss_clint.c **** void reset_mtime(void)
  27:../src/platform/mpfs_hal/common/mss_clint.c **** {
  78              		.loc 2 27 1
  79              		.cfi_startproc
  80 0000 4111     		addi	sp,sp,-16
  81              		.cfi_def_cfa_offset 16
  82 0002 22E4     		sd	s0,8(sp)
  83              		.cfi_offset 8, -8
  84 0004 0008     		addi	s0,sp,16
  85              		.cfi_def_cfa 8, 0
  28:../src/platform/mpfs_hal/common/mss_clint.c **** #if ROLLOVER_TEST
  29:../src/platform/mpfs_hal/common/mss_clint.c ****     CLINT->MTIME = 0xFFFFFFFFFFFFF000ULL;
  30:../src/platform/mpfs_hal/common/mss_clint.c **** #else
  31:../src/platform/mpfs_hal/common/mss_clint.c ****     CLINT->MTIME = 0ULL;
  86              		.loc 2 31 10
  87 0006 37070002 		li	a4,33554432
  88              		.loc 2 31 18
  89 000a B167     		li	a5,49152
  90 000c BA97     		add	a5,a4,a5
  91 000e 23BC07FE 		sd	zero,-8(a5)
  32:../src/platform/mpfs_hal/common/mss_clint.c **** #endif
  33:../src/platform/mpfs_hal/common/mss_clint.c **** }
  92              		.loc 2 33 1
  93 0012 0100     		nop
  94 0014 2264     		ld	s0,8(sp)
  95              		.cfi_restore 8
  96              		.cfi_def_cfa 2, 16
  97 0016 4101     		addi	sp,sp,16
  98              		.cfi_def_cfa_offset 0
  99 0018 8280     		jr	ra
 100              		.cfi_endproc
 101              	.LFE19:
 103              		.section	.text.readmtime,"ax",@progbits
 104              		.align	1
 105              		.globl	readmtime
 107              	readmtime:
 108              	.LFB20:
  34:../src/platform/mpfs_hal/common/mss_clint.c **** 
  35:../src/platform/mpfs_hal/common/mss_clint.c **** /**
  36:../src/platform/mpfs_hal/common/mss_clint.c ****  * readmtime
  37:../src/platform/mpfs_hal/common/mss_clint.c ****  * @return mtime
  38:../src/platform/mpfs_hal/common/mss_clint.c ****  */
  39:../src/platform/mpfs_hal/common/mss_clint.c **** uint64_t readmtime(void)
  40:../src/platform/mpfs_hal/common/mss_clint.c **** {
 109              		.loc 2 40 1
 110              		.cfi_startproc
 111 0000 4111     		addi	sp,sp,-16
 112              		.cfi_def_cfa_offset 16
 113 0002 22E4     		sd	s0,8(sp)
 114              		.cfi_offset 8, -8
 115 0004 0008     		addi	s0,sp,16
 116              		.cfi_def_cfa 8, 0
  41:../src/platform/mpfs_hal/common/mss_clint.c ****     return (CLINT->MTIME);
 117              		.loc 2 41 18
 118 0006 37070002 		li	a4,33554432
 119 000a B167     		li	a5,49152
 120 000c BA97     		add	a5,a4,a5
 121 000e 83B787FF 		ld	a5,-8(a5)
  42:../src/platform/mpfs_hal/common/mss_clint.c **** }
 122              		.loc 2 42 1
 123 0012 3E85     		mv	a0,a5
 124 0014 2264     		ld	s0,8(sp)
 125              		.cfi_restore 8
 126              		.cfi_def_cfa 2, 16
 127 0016 4101     		addi	sp,sp,16
 128              		.cfi_def_cfa_offset 0
 129 0018 8280     		jr	ra
 130              		.cfi_endproc
 131              	.LFE20:
 133              		.section	.rodata
 134              		.align	3
 135              	.LC0:
 136 0000 05000000 		.word	5
 137 0004 64000000 		.word	100
 138 0008 05000000 		.word	5
 139 000c 05000000 		.word	5
 140 0010 05000000 		.word	5
 141              		.section	.text.SysTick_Config,"ax",@progbits
 142              		.align	1
 143              		.globl	SysTick_Config
 145              	SysTick_Config:
 146              	.LFB21:
  43:../src/platform/mpfs_hal/common/mss_clint.c **** 
  44:../src/platform/mpfs_hal/common/mss_clint.c **** /**
  45:../src/platform/mpfs_hal/common/mss_clint.c ****  * Configure system tick
  46:../src/platform/mpfs_hal/common/mss_clint.c ****  * @return SUCCESS or FAIL
  47:../src/platform/mpfs_hal/common/mss_clint.c ****  */
  48:../src/platform/mpfs_hal/common/mss_clint.c **** uint32_t SysTick_Config(void)
  49:../src/platform/mpfs_hal/common/mss_clint.c **** {
 147              		.loc 2 49 1
 148              		.cfi_startproc
 149 0000 5D71     		addi	sp,sp,-80
 150              		.cfi_def_cfa_offset 80
 151 0002 86E4     		sd	ra,72(sp)
 152 0004 A2E0     		sd	s0,64(sp)
 153              		.cfi_offset 1, -8
 154              		.cfi_offset 8, -16
 155 0006 8008     		addi	s0,sp,80
 156              		.cfi_def_cfa 8, 0
  50:../src/platform/mpfs_hal/common/mss_clint.c ****     const uint32_t tick_rate[5] = {HART0_TICK_RATE_MS,    HART1_TICK_RATE_MS    ,HART2_TICK_RATE_MS
 157              		.loc 2 50 20
 158 0008 97070000 		lla	a5,.LC0
 158      93870700 
 159 0010 9863     		ld	a4,0(a5)
 160 0012 2330E4FC 		sd	a4,-64(s0)
 161 0016 9867     		ld	a4,8(a5)
 162 0018 2334E4FC 		sd	a4,-56(s0)
 163 001c 9C4B     		lw	a5,16(a5)
 164 001e 2328F4FC 		sw	a5,-48(s0)
  51:../src/platform/mpfs_hal/common/mss_clint.c ****     volatile uint32_t ret_val = ERROR;
 165              		.loc 2 51 23
 166 0022 8547     		li	a5,1
 167 0024 232EF4FA 		sw	a5,-68(s0)
 168              	.LBB3:
  52:../src/platform/mpfs_hal/common/mss_clint.c **** 
  53:../src/platform/mpfs_hal/common/mss_clint.c ****     uint64_t mhart_id = read_csr(mhartid);
 169              		.loc 2 53 25
 170              	 #APP
 171              	# 53 "../src/platform/mpfs_hal/common/mss_clint.c" 1
  54              	
 172              		csrr a5, mhartid
 173              	# 0 "" 2
 174              	 #NO_APP
 175 002c 2334F4FE 		sd	a5,-24(s0)
 176 0030 833784FE 		ld	a5,-24(s0)
 177              	.LBE3:
  53:../src/platform/mpfs_hal/common/mss_clint.c ****     uint64_t mhart_id = read_csr(mhartid);
 178              		.loc 2 53 14
 179 0034 2330F4FE 		sd	a5,-32(s0)
  55:../src/platform/mpfs_hal/common/mss_clint.c ****     /*
  56:../src/platform/mpfs_hal/common/mss_clint.c ****      * We are assuming the tick rate is in milli-seconds
  57:../src/platform/mpfs_hal/common/mss_clint.c ****      *
  58:../src/platform/mpfs_hal/common/mss_clint.c ****      * convert RTC frequency into milliseconds and multiple by the tick rate
  59:../src/platform/mpfs_hal/common/mss_clint.c ****      *
  60:../src/platform/mpfs_hal/common/mss_clint.c ****      */
  61:../src/platform/mpfs_hal/common/mss_clint.c **** 
  62:../src/platform/mpfs_hal/common/mss_clint.c ****     g_systick_increment[mhart_id] = ((LIBERO_SETTING_MSS_RTC_TOGGLE_CLK/1000U)  * tick_rate[mhart_i
 180              		.loc 2 62 92
 181 0038 833704FE 		ld	a5,-32(s0)
 182 003c 8A07     		slli	a5,a5,2
 183 003e 130704FF 		addi	a4,s0,-16
 184 0042 BA97     		add	a5,a4,a5
 185 0044 03A707FD 		lw	a4,-48(a5)
 186              		.loc 2 62 81
 187 0048 9307803E 		li	a5,1000
 188 004c BB07F702 		mulw	a5,a4,a5
 189 0050 8127     		sext.w	a5,a5
 190 0052 13970702 		slli	a4,a5,32
 191 0056 0193     		srli	a4,a4,32
 192              		.loc 2 62 35
 193 0058 97060000 		lla	a3,g_systick_increment
 193      93860600 
 194 0060 833704FE 		ld	a5,-32(s0)
 195 0064 8E07     		slli	a5,a5,3
 196 0066 B697     		add	a5,a3,a5
 197 0068 98E3     		sd	a4,0(a5)
  63:../src/platform/mpfs_hal/common/mss_clint.c **** 
  64:../src/platform/mpfs_hal/common/mss_clint.c ****     if (g_systick_increment[mhart_id] > 0ULL)
 198              		.loc 2 64 28
 199 006a 17070000 		lla	a4,g_systick_increment
 199      13070700 
 200 0072 833704FE 		ld	a5,-32(s0)
 201 0076 8E07     		slli	a5,a5,3
 202 0078 BA97     		add	a5,a4,a5
 203 007a 9C63     		ld	a5,0(a5)
 204              		.loc 2 64 8
 205 007c A1CB     		beq	a5,zero,.L6
  65:../src/platform/mpfs_hal/common/mss_clint.c ****     {
  66:../src/platform/mpfs_hal/common/mss_clint.c **** 
  67:../src/platform/mpfs_hal/common/mss_clint.c ****         CLINT->MTIMECMP[mhart_id] = CLINT->MTIME + g_systick_increment[mhart_id];
 206              		.loc 2 67 42
 207 007e 37070002 		li	a4,33554432
 208 0082 B167     		li	a5,49152
 209 0084 BA97     		add	a5,a4,a5
 210 0086 03B787FF 		ld	a4,-8(a5)
 211              		.loc 2 67 71
 212 008a 97060000 		lla	a3,g_systick_increment
 212      93860600 
 213 0092 833704FE 		ld	a5,-32(s0)
 214 0096 8E07     		slli	a5,a5,3
 215 0098 B697     		add	a5,a3,a5
 216 009a 9C63     		ld	a5,0(a5)
 217              		.loc 2 67 14
 218 009c B7060002 		li	a3,33554432
 219              		.loc 2 67 50
 220 00a0 3E97     		add	a4,a4,a5
 221              		.loc 2 67 35
 222 00a2 033604FE 		ld	a2,-32(s0)
 223 00a6 8567     		li	a5,4096
 224 00a8 93870780 		addi	a5,a5,-2048
 225 00ac B297     		add	a5,a2,a5
 226 00ae 8E07     		slli	a5,a5,3
 227 00b0 B697     		add	a5,a3,a5
 228 00b2 98E3     		sd	a4,0(a5)
 229              	.LBB4:
  68:../src/platform/mpfs_hal/common/mss_clint.c **** 
  69:../src/platform/mpfs_hal/common/mss_clint.c ****         set_csr(mie, MIP_MTIP);   /* mie Register - Machine Timer Interrupt Enable */
 230              		.loc 2 69 9
 231 00b4 93070008 		li	a5,128
 232              	 #APP
 233              	# 69 "../src/platform/mpfs_hal/common/mss_clint.c" 1
  70              	
 234              		csrrs a5, mie, a5
 235              	# 0 "" 2
 236              	 #NO_APP
 237 00bc 233CF4FC 		sd	a5,-40(s0)
 238              	.LBE4:
  71:../src/platform/mpfs_hal/common/mss_clint.c ****         __enable_irq();
 239              		.loc 2 71 9
 240 00c0 97000000 		call	__enable_irq
 240      E7800000 
  72:../src/platform/mpfs_hal/common/mss_clint.c **** 
  73:../src/platform/mpfs_hal/common/mss_clint.c ****         ret_val = SUCCESS;
 241              		.loc 2 73 17
 242 00c8 232E04FA 		sw	zero,-68(s0)
 243              	.L6:
  74:../src/platform/mpfs_hal/common/mss_clint.c ****     }
  75:../src/platform/mpfs_hal/common/mss_clint.c **** 
  76:../src/platform/mpfs_hal/common/mss_clint.c ****     return (ret_val);
 244              		.loc 2 76 12
 245 00cc 8327C4FB 		lw	a5,-68(s0)
 246 00d0 8127     		sext.w	a5,a5
  77:../src/platform/mpfs_hal/common/mss_clint.c **** }
 247              		.loc 2 77 1
 248 00d2 3E85     		mv	a0,a5
 249 00d4 A660     		ld	ra,72(sp)
 250              		.cfi_restore 1
 251 00d6 0664     		ld	s0,64(sp)
 252              		.cfi_restore 8
 253              		.cfi_def_cfa 2, 80
 254 00d8 6161     		addi	sp,sp,80
 255              		.cfi_def_cfa_offset 0
 256 00da 8280     		jr	ra
 257              		.cfi_endproc
 258              	.LFE21:
 260              		.section	.text.disable_systick,"ax",@progbits
 261              		.align	1
 262              		.globl	disable_systick
 264              	disable_systick:
 265              	.LFB22:
  78:../src/platform/mpfs_hal/common/mss_clint.c **** 
  79:../src/platform/mpfs_hal/common/mss_clint.c **** /**
  80:../src/platform/mpfs_hal/common/mss_clint.c ****  * Disable system tick interrupt
  81:../src/platform/mpfs_hal/common/mss_clint.c ****  */
  82:../src/platform/mpfs_hal/common/mss_clint.c **** void disable_systick(void)
  83:../src/platform/mpfs_hal/common/mss_clint.c **** {
 266              		.loc 2 83 1
 267              		.cfi_startproc
 268 0000 0111     		addi	sp,sp,-32
 269              		.cfi_def_cfa_offset 32
 270 0002 22EC     		sd	s0,24(sp)
 271              		.cfi_offset 8, -8
 272 0004 0010     		addi	s0,sp,32
 273              		.cfi_def_cfa 8, 0
 274              	.LBB5:
  84:../src/platform/mpfs_hal/common/mss_clint.c ****     clear_csr(mie, MIP_MTIP);   /* mie Register - Machine Timer Interrupt Enable */
 275              		.loc 2 84 5
 276 0006 93070008 		li	a5,128
 277              	 #APP
 278              	# 84 "../src/platform/mpfs_hal/common/mss_clint.c" 1
  85              	    return;
 279              		csrrc a5, mie, a5
 280              	# 0 "" 2
 281              	 #NO_APP
 282 000e 2334F4FE 		sd	a5,-24(s0)
 283              	.LBE5:
 284              		.loc 2 85 5
 285 0012 0100     		nop
  86:../src/platform/mpfs_hal/common/mss_clint.c **** }
 286              		.loc 2 86 1
 287 0014 6264     		ld	s0,24(sp)
 288              		.cfi_restore 8
 289              		.cfi_def_cfa 2, 32
 290 0016 0561     		addi	sp,sp,32
 291              		.cfi_def_cfa_offset 0
 292 0018 8280     		jr	ra
 293              		.cfi_endproc
 294              	.LFE22:
 296              		.section	.text.handle_m_timer_interrupt,"ax",@progbits
 297              		.align	1
 298              		.globl	handle_m_timer_interrupt
 300              	handle_m_timer_interrupt:
 301              	.LFB23:
  87:../src/platform/mpfs_hal/common/mss_clint.c **** 
  88:../src/platform/mpfs_hal/common/mss_clint.c **** 
  89:../src/platform/mpfs_hal/common/mss_clint.c **** /*------------------------------------------------------------------------------
  90:../src/platform/mpfs_hal/common/mss_clint.c ****  * RISC-V interrupt handler for machine timer interrupts.
  91:../src/platform/mpfs_hal/common/mss_clint.c ****  */
  92:../src/platform/mpfs_hal/common/mss_clint.c **** void handle_m_timer_interrupt(void)
  93:../src/platform/mpfs_hal/common/mss_clint.c **** {
 302              		.loc 2 93 1
 303              		.cfi_startproc
 304 0000 3971     		addi	sp,sp,-64
 305              		.cfi_def_cfa_offset 64
 306 0002 06FC     		sd	ra,56(sp)
 307 0004 22F8     		sd	s0,48(sp)
 308              		.cfi_offset 1, -8
 309              		.cfi_offset 8, -16
 310 0006 8000     		addi	s0,sp,64
 311              		.cfi_def_cfa 8, 0
 312              	.LBB6:
  94:../src/platform/mpfs_hal/common/mss_clint.c **** 
  95:../src/platform/mpfs_hal/common/mss_clint.c ****     volatile uint64_t hart_id = read_csr(mhartid);
 313              		.loc 2 95 33
 314              	 #APP
 315              	# 95 "../src/platform/mpfs_hal/common/mss_clint.c" 1
  96              	    volatile uint32_t error_loop;
 316              		csrr a5, mhartid
 317              	# 0 "" 2
 318              	 #NO_APP
 319 000c 2334F4FE 		sd	a5,-24(s0)
 320 0010 833784FE 		ld	a5,-24(s0)
 321              	.LBE6:
  95:../src/platform/mpfs_hal/common/mss_clint.c ****     volatile uint64_t hart_id = read_csr(mhartid);
 322              		.loc 2 95 23
 323 0014 2334F4FC 		sd	a5,-56(s0)
 324              	.LBB7:
  97:../src/platform/mpfs_hal/common/mss_clint.c ****     clear_csr(mie, MIP_MTIP);
 325              		.loc 2 97 5
 326 0018 93070008 		li	a5,128
 327              	 #APP
 328              	# 97 "../src/platform/mpfs_hal/common/mss_clint.c" 1
  98              	
 329              		csrrc a5, mie, a5
 330              	# 0 "" 2
 331              	 #NO_APP
 332 0020 2330F4FE 		sd	a5,-32(s0)
 333              	.LBE7:
  99:../src/platform/mpfs_hal/common/mss_clint.c ****     switch(hart_id)
 334              		.loc 2 99 5
 335 0024 833784FC 		ld	a5,-56(s0)
 336 0028 1147     		li	a4,4
 337 002a 6362F706 		bgtu	a5,a4,.L19
 338 002e 13972700 		slli	a4,a5,2
 339 0032 97070000 		lla	a5,.L13
 339      93870700 
 340 003a BA97     		add	a5,a4,a5
 341 003c 9C43     		lw	a5,0(a5)
 342 003e 1B870700 		sext.w	a4,a5
 343 0042 97070000 		lla	a5,.L13
 343      93870700 
 344 004a BA97     		add	a5,a4,a5
 345 004c 8287     		jr	a5
 346              		.section	.rodata.handle_m_timer_interrupt,"a",@progbits
 347              		.align	2
 348              		.align	2
 349              	.L13:
 350 0000 00000000 		.word	.L17-.L13
 351 0004 00000000 		.word	.L16-.L13
 352 0008 00000000 		.word	.L15-.L13
 353 000c 00000000 		.word	.L14-.L13
 354 0010 00000000 		.word	.L12-.L13
 355              		.section	.text.handle_m_timer_interrupt
 356              	.L17:
 100:../src/platform/mpfs_hal/common/mss_clint.c ****     {
 101:../src/platform/mpfs_hal/common/mss_clint.c ****         case 0U:
 102:../src/platform/mpfs_hal/common/mss_clint.c ****             E51_sysTick_IRQHandler();
 357              		.loc 2 102 13
 358 004e 97000000 		call	E51_sysTick_IRQHandler
 358      E7800000 
 103:../src/platform/mpfs_hal/common/mss_clint.c ****             break;
 359              		.loc 2 103 13
 360 0056 81A0     		j	.L18
 361              	.L16:
 104:../src/platform/mpfs_hal/common/mss_clint.c ****         case 1U:
 105:../src/platform/mpfs_hal/common/mss_clint.c ****             U54_1_sysTick_IRQHandler();
 362              		.loc 2 105 13
 363 0058 97000000 		call	U54_1_sysTick_IRQHandler
 363      E7800000 
 106:../src/platform/mpfs_hal/common/mss_clint.c ****             break;
 364              		.loc 2 106 13
 365 0060 1DA8     		j	.L18
 366              	.L15:
 107:../src/platform/mpfs_hal/common/mss_clint.c ****         case 2U:
 108:../src/platform/mpfs_hal/common/mss_clint.c ****             U54_2_sysTick_IRQHandler();
 367              		.loc 2 108 13
 368 0062 97000000 		call	U54_2_sysTick_IRQHandler
 368      E7800000 
 109:../src/platform/mpfs_hal/common/mss_clint.c ****             break;
 369              		.loc 2 109 13
 370 006a 35A0     		j	.L18
 371              	.L14:
 110:../src/platform/mpfs_hal/common/mss_clint.c ****         case 3U:
 111:../src/platform/mpfs_hal/common/mss_clint.c ****             U54_3_sysTick_IRQHandler();
 372              		.loc 2 111 13
 373 006c 97000000 		call	U54_3_sysTick_IRQHandler
 373      E7800000 
 112:../src/platform/mpfs_hal/common/mss_clint.c ****             break;
 374              		.loc 2 112 13
 375 0074 0DA0     		j	.L18
 376              	.L12:
 113:../src/platform/mpfs_hal/common/mss_clint.c ****         case 4U:
 114:../src/platform/mpfs_hal/common/mss_clint.c ****             U54_4_sysTick_IRQHandler();
 377              		.loc 2 114 13
 378 0076 97000000 		call	U54_4_sysTick_IRQHandler
 378      E7800000 
 115:../src/platform/mpfs_hal/common/mss_clint.c ****             break;
 379              		.loc 2 115 13
 380 007e 21A8     		j	.L18
 381              	.L20:
 116:../src/platform/mpfs_hal/common/mss_clint.c ****         default:
 117:../src/platform/mpfs_hal/common/mss_clint.c ****             while (hart_id != 0U)
 118:../src/platform/mpfs_hal/common/mss_clint.c ****              {
 119:../src/platform/mpfs_hal/common/mss_clint.c ****                  error_loop++;
 382              		.loc 2 119 28
 383 0080 832744FC 		lw	a5,-60(s0)
 384 0084 8127     		sext.w	a5,a5
 385 0086 8527     		addiw	a5,a5,1
 386 0088 8127     		sext.w	a5,a5
 387 008a 2322F4FC 		sw	a5,-60(s0)
 388              	.L19:
 117:../src/platform/mpfs_hal/common/mss_clint.c ****              {
 389              		.loc 2 117 28
 390 008e 833784FC 		ld	a5,-56(s0)
 117:../src/platform/mpfs_hal/common/mss_clint.c ****              {
 391              		.loc 2 117 19
 392 0092 FDF7     		bne	a5,zero,.L20
 120:../src/platform/mpfs_hal/common/mss_clint.c ****              }
 121:../src/platform/mpfs_hal/common/mss_clint.c ****             break;
 393              		.loc 2 121 13
 394 0094 0100     		nop
 395              	.L18:
 122:../src/platform/mpfs_hal/common/mss_clint.c ****     }
 123:../src/platform/mpfs_hal/common/mss_clint.c **** 
 124:../src/platform/mpfs_hal/common/mss_clint.c ****     CLINT->MTIMECMP[read_csr(mhartid)] = CLINT->MTIME + g_systick_increment[hart_id];
 396              		.loc 2 124 47
 397 0096 37070002 		li	a4,33554432
 398 009a B167     		li	a5,49152
 399 009c BA97     		add	a5,a4,a5
 400 009e 03B787FF 		ld	a4,-8(a5)
 401              		.loc 2 124 76
 402 00a2 833784FC 		ld	a5,-56(s0)
 403 00a6 97060000 		lla	a3,g_systick_increment
 403      93860600 
 404 00ae 8E07     		slli	a5,a5,3
 405 00b0 B697     		add	a5,a3,a5
 406 00b2 9C63     		ld	a5,0(a5)
 407              		.loc 2 124 10
 408 00b4 B7060002 		li	a3,33554432
 409              	.LBB8:
 410              		.loc 2 124 21
 411              	 #APP
 412              	# 124 "../src/platform/mpfs_hal/common/mss_clint.c" 1
 125              	
 413              		csrr a2, mhartid
 414              	# 0 "" 2
 415              	 #NO_APP
 416 00bc 233CC4FC 		sd	a2,-40(s0)
 417 00c0 033684FD 		ld	a2,-40(s0)
 418              	.LBE8:
 124:../src/platform/mpfs_hal/common/mss_clint.c ****     CLINT->MTIMECMP[read_csr(mhartid)] = CLINT->MTIME + g_systick_increment[hart_id];
 419              		.loc 2 124 55
 420 00c4 3E97     		add	a4,a4,a5
 124:../src/platform/mpfs_hal/common/mss_clint.c ****     CLINT->MTIMECMP[read_csr(mhartid)] = CLINT->MTIME + g_systick_increment[hart_id];
 421              		.loc 2 124 40
 422 00c6 8567     		li	a5,4096
 423 00c8 93870780 		addi	a5,a5,-2048
 424 00cc B297     		add	a5,a2,a5
 425 00ce 8E07     		slli	a5,a5,3
 426 00d0 B697     		add	a5,a3,a5
 427 00d2 98E3     		sd	a4,0(a5)
 428              	.LBB9:
 126:../src/platform/mpfs_hal/common/mss_clint.c ****     set_csr(mie, MIP_MTIP);
 429              		.loc 2 126 5
 430 00d4 93070008 		li	a5,128
 431              	 #APP
 432              	# 126 "../src/platform/mpfs_hal/common/mss_clint.c" 1
 127              	
 433              		csrrs a5, mie, a5
 434              	# 0 "" 2
 435              	 #NO_APP
 436 00dc 2338F4FC 		sd	a5,-48(s0)
 437              	.LBE9:
 128:../src/platform/mpfs_hal/common/mss_clint.c **** }
 438              		.loc 2 128 1
 439 00e0 0100     		nop
 440 00e2 E270     		ld	ra,56(sp)
 441              		.cfi_restore 1
 442 00e4 4274     		ld	s0,48(sp)
 443              		.cfi_restore 8
 444              		.cfi_def_cfa 2, 64
 445 00e6 2161     		addi	sp,sp,64
 446              		.cfi_def_cfa_offset 0
 447 00e8 8280     		jr	ra
 448              		.cfi_endproc
 449              	.LFE23:
 451              		.section	.text.handle_m_soft_interrupt,"ax",@progbits
 452              		.align	1
 453              		.globl	handle_m_soft_interrupt
 455              	handle_m_soft_interrupt:
 456              	.LFB24:
 129:../src/platform/mpfs_hal/common/mss_clint.c **** 
 130:../src/platform/mpfs_hal/common/mss_clint.c **** 
 131:../src/platform/mpfs_hal/common/mss_clint.c **** /**
 132:../src/platform/mpfs_hal/common/mss_clint.c ****  *
 133:../src/platform/mpfs_hal/common/mss_clint.c ****  */
 134:../src/platform/mpfs_hal/common/mss_clint.c **** void handle_m_soft_interrupt(void)
 135:../src/platform/mpfs_hal/common/mss_clint.c **** {
 457              		.loc 2 135 1
 458              		.cfi_startproc
 459 0000 7971     		addi	sp,sp,-48
 460              		.cfi_def_cfa_offset 48
 461 0002 06F4     		sd	ra,40(sp)
 462 0004 22F0     		sd	s0,32(sp)
 463              		.cfi_offset 1, -8
 464              		.cfi_offset 8, -16
 465 0006 0018     		addi	s0,sp,48
 466              		.cfi_def_cfa 8, 0
 467              	.LBB10:
 136:../src/platform/mpfs_hal/common/mss_clint.c ****     volatile uint64_t hart_id = read_csr(mhartid);
 468              		.loc 2 136 33
 469              	 #APP
 470              	# 136 "../src/platform/mpfs_hal/common/mss_clint.c" 1
 137              	    volatile uint32_t error_loop;
 471              		csrr a5, mhartid
 472              	# 0 "" 2
 473              	 #NO_APP
 474 000c 2334F4FE 		sd	a5,-24(s0)
 475 0010 833784FE 		ld	a5,-24(s0)
 476              	.LBE10:
 136:../src/platform/mpfs_hal/common/mss_clint.c ****     volatile uint64_t hart_id = read_csr(mhartid);
 477              		.loc 2 136 23
 478 0014 2330F4FE 		sd	a5,-32(s0)
 138:../src/platform/mpfs_hal/common/mss_clint.c **** 
 139:../src/platform/mpfs_hal/common/mss_clint.c ****     switch(hart_id)
 479              		.loc 2 139 5
 480 0018 833704FE 		ld	a5,-32(s0)
 481 001c 1147     		li	a4,4
 482 001e 6362F706 		bgtu	a5,a4,.L30
 483 0022 13972700 		slli	a4,a5,2
 484 0026 97070000 		lla	a5,.L24
 484      93870700 
 485 002e BA97     		add	a5,a4,a5
 486 0030 9C43     		lw	a5,0(a5)
 487 0032 1B870700 		sext.w	a4,a5
 488 0036 97070000 		lla	a5,.L24
 488      93870700 
 489 003e BA97     		add	a5,a4,a5
 490 0040 8287     		jr	a5
 491              		.section	.rodata.handle_m_soft_interrupt,"a",@progbits
 492              		.align	2
 493              		.align	2
 494              	.L24:
 495 0000 00000000 		.word	.L28-.L24
 496 0004 00000000 		.word	.L27-.L24
 497 0008 00000000 		.word	.L26-.L24
 498 000c 00000000 		.word	.L25-.L24
 499 0010 00000000 		.word	.L23-.L24
 500              		.section	.text.handle_m_soft_interrupt
 501              	.L28:
 140:../src/platform/mpfs_hal/common/mss_clint.c ****     {
 141:../src/platform/mpfs_hal/common/mss_clint.c ****         case 0U:
 142:../src/platform/mpfs_hal/common/mss_clint.c ****             E51_software_IRQHandler();
 502              		.loc 2 142 13
 503 0042 97000000 		call	E51_software_IRQHandler
 503      E7800000 
 143:../src/platform/mpfs_hal/common/mss_clint.c ****             break;
 504              		.loc 2 143 13
 505 004a 81A0     		j	.L29
 506              	.L27:
 144:../src/platform/mpfs_hal/common/mss_clint.c ****         case 1U:
 145:../src/platform/mpfs_hal/common/mss_clint.c ****             U54_1_software_IRQHandler();
 507              		.loc 2 145 13
 508 004c 97000000 		call	U54_1_software_IRQHandler
 508      E7800000 
 146:../src/platform/mpfs_hal/common/mss_clint.c ****             break;
 509              		.loc 2 146 13
 510 0054 1DA8     		j	.L29
 511              	.L26:
 147:../src/platform/mpfs_hal/common/mss_clint.c ****         case 2U:
 148:../src/platform/mpfs_hal/common/mss_clint.c ****             U54_2_software_IRQHandler();
 512              		.loc 2 148 13
 513 0056 97000000 		call	U54_2_software_IRQHandler
 513      E7800000 
 149:../src/platform/mpfs_hal/common/mss_clint.c ****             break;
 514              		.loc 2 149 13
 515 005e 35A0     		j	.L29
 516              	.L25:
 150:../src/platform/mpfs_hal/common/mss_clint.c ****         case 3U:
 151:../src/platform/mpfs_hal/common/mss_clint.c ****             U54_3_software_IRQHandler();
 517              		.loc 2 151 13
 518 0060 97000000 		call	U54_3_software_IRQHandler
 518      E7800000 
 152:../src/platform/mpfs_hal/common/mss_clint.c ****             break;
 519              		.loc 2 152 13
 520 0068 0DA0     		j	.L29
 521              	.L23:
 153:../src/platform/mpfs_hal/common/mss_clint.c ****         case 4U:
 154:../src/platform/mpfs_hal/common/mss_clint.c ****             U54_4_software_IRQHandler();
 522              		.loc 2 154 13
 523 006a 97000000 		call	U54_4_software_IRQHandler
 523      E7800000 
 155:../src/platform/mpfs_hal/common/mss_clint.c ****             break;
 524              		.loc 2 155 13
 525 0072 21A8     		j	.L29
 526              	.L31:
 156:../src/platform/mpfs_hal/common/mss_clint.c ****         default:
 157:../src/platform/mpfs_hal/common/mss_clint.c ****             while (hart_id != 0U)
 158:../src/platform/mpfs_hal/common/mss_clint.c ****             {
 159:../src/platform/mpfs_hal/common/mss_clint.c ****                 error_loop++;
 527              		.loc 2 159 27
 528 0074 8327C4FD 		lw	a5,-36(s0)
 529 0078 8127     		sext.w	a5,a5
 530 007a 8527     		addiw	a5,a5,1
 531 007c 8127     		sext.w	a5,a5
 532 007e 232EF4FC 		sw	a5,-36(s0)
 533              	.L30:
 157:../src/platform/mpfs_hal/common/mss_clint.c ****             {
 534              		.loc 2 157 28
 535 0082 833704FE 		ld	a5,-32(s0)
 157:../src/platform/mpfs_hal/common/mss_clint.c ****             {
 536              		.loc 2 157 19
 537 0086 FDF7     		bne	a5,zero,.L31
 160:../src/platform/mpfs_hal/common/mss_clint.c ****             }
 161:../src/platform/mpfs_hal/common/mss_clint.c ****             break;
 538              		.loc 2 161 13
 539 0088 0100     		nop
 540              	.L29:
 162:../src/platform/mpfs_hal/common/mss_clint.c ****     }
 163:../src/platform/mpfs_hal/common/mss_clint.c **** 
 164:../src/platform/mpfs_hal/common/mss_clint.c ****     /*Clear software interrupt*/
 165:../src/platform/mpfs_hal/common/mss_clint.c ****     clear_soft_interrupt();
 541              		.loc 2 165 5
 542 008a 97000000 		call	clear_soft_interrupt
 542      E7800000 
 166:../src/platform/mpfs_hal/common/mss_clint.c **** }
 543              		.loc 2 166 1
 544 0092 0100     		nop
 545 0094 A270     		ld	ra,40(sp)
 546              		.cfi_restore 1
 547 0096 0274     		ld	s0,32(sp)
 548              		.cfi_restore 8
 549              		.cfi_def_cfa 2, 48
 550 0098 4561     		addi	sp,sp,48
 551              		.cfi_def_cfa_offset 0
 552 009a 8280     		jr	ra
 553              		.cfi_endproc
 554              	.LFE24:
 556              		.text
 557              	.Letext0:
 558              		.file 3 "/home/vinay/Desktop/soft_console/SoftConsole-v2022.2-RISC-V-747/riscv-unknown-elf-gcc/ris
 559              		.file 4 "/home/vinay/Desktop/soft_console/SoftConsole-v2022.2-RISC-V-747/riscv-unknown-elf-gcc/ris
 560              		.file 5 "/home/vinay/Desktop/softconsole_watershed/Water-shed/src/platform/mpfs_hal/common/nwc/mss
 561              		.file 6 "/home/vinay/Desktop/softconsole_watershed/Water-shed/src/platform/mpfs_hal/common/nwc/mss
 562              		.file 7 "/home/vinay/Desktop/softconsole_watershed/Water-shed/src/platform/mpfs_hal/common/nwc/mss
 563              		.file 8 "/home/vinay/Desktop/softconsole_watershed/Water-shed/src/platform/mpfs_hal/common/mss_mpu
 564              		.file 9 "/home/vinay/Desktop/softconsole_watershed/Water-shed/src/platform/mpfs_hal/common/mss_pli
 565              		.file 10 "/home/vinay/Desktop/softconsole_watershed/Water-shed/src/platform/mpfs_hal/startup_gcc/s