   1              		.file	"mss_h2f.c"
   2              		.option nopic
   3              		.attribute arch, "rv64i2p0_m2p0_a2p0_f2p0_d2p0_c2p0"
   4              		.attribute unaligned_access, 0
   5              		.attribute stack_align, 16
   6              		.text
   7              	.Ltext0:
   8              		.cfi_sections	.debug_frame
   9              		.globl	M2F_int_mapping
  10              		.section	.rodata.M2F_int_mapping,"a"
  11              		.align	3
  14              	M2F_int_mapping:
  15 0000 FF       		.byte	-1
  16 0001 FF       		.byte	-1
  17 0002 FF       		.byte	-1
  18 0003 FF       		.byte	-1
  19 0004 FF       		.byte	-1
  20 0005 FF       		.byte	-1
  21 0006 FF       		.byte	-1
  22 0007 FF       		.byte	-1
  23 0008 FF       		.byte	-1
  24 0009 FF       		.byte	-1
  25 000a FF       		.byte	-1
  26 000b FF       		.byte	-1
  27 000c FF       		.byte	-1
  28 000d 00       		.byte	0
  29 000e 00       		.byte	0
  30 000f 00       		.byte	0
  31 0010 00       		.byte	0
  32 0011 00       		.byte	0
  33 0012 00       		.byte	0
  34 0013 00       		.byte	0
  35 0014 00       		.byte	0
  36 0015 00       		.byte	0
  37 0016 00       		.byte	0
  38 0017 00       		.byte	0
  39 0018 00       		.byte	0
  40 0019 00       		.byte	0
  41 001a 00       		.byte	0
  42 001b 00       		.byte	0
  43 001c 00       		.byte	0
  44 001d 00       		.byte	0
  45 001e 00       		.byte	0
  46 001f 00       		.byte	0
  47 0020 00       		.byte	0
  48 0021 00       		.byte	0
  49 0022 00       		.byte	0
  50 0023 00       		.byte	0
  51 0024 00       		.byte	0
  52 0025 00       		.byte	0
  53 0026 00       		.byte	0
  54 0027 00       		.byte	0
  55 0028 00       		.byte	0
  56 0029 00       		.byte	0
  57 002a 00       		.byte	0
  58 002b 00       		.byte	0
  59 002c 00       		.byte	0
  60 002d 00       		.byte	0
  61 002e 00       		.byte	0
  62 002f 00       		.byte	0
  63 0030 00       		.byte	0
  64 0031 00       		.byte	0
  65 0032 00       		.byte	0
  66 0033 00       		.byte	0
  67 0034 00       		.byte	0
  68 0035 00       		.byte	0
  69 0036 01       		.byte	1
  70 0037 01       		.byte	1
  71 0038 01       		.byte	1
  72 0039 01       		.byte	1
  73 003a 02       		.byte	2
  74 003b 02       		.byte	2
  75 003c 02       		.byte	2
  76 003d 02       		.byte	2
  77 003e 02       		.byte	2
  78 003f 02       		.byte	2
  79 0040 03       		.byte	3
  80 0041 03       		.byte	3
  81 0042 03       		.byte	3
  82 0043 03       		.byte	3
  83 0044 03       		.byte	3
  84 0045 03       		.byte	3
  85 0046 04       		.byte	4
  86 0047 04       		.byte	4
  87 0048 04       		.byte	4
  88 0049 04       		.byte	4
  89 004a 04       		.byte	4
  90 004b 04       		.byte	4
  91 004c 09       		.byte	9
  92 004d 07       		.byte	7
  93 004e 06       		.byte	6
  94 004f 06       		.byte	6
  95 0050 0B       		.byte	11
  96 0051 0B       		.byte	11
  97 0052 0C       		.byte	12
  98 0053 0C       		.byte	12
  99 0054 0D       		.byte	13
 100 0055 0D       		.byte	13
 101 0056 0E       		.byte	14
 102 0057 0E       		.byte	14
 103 0058 0F       		.byte	15
 104 0059 0F       		.byte	15
 105 005a 01       		.byte	1
 106 005b 01       		.byte	1
 107 005c 01       		.byte	1
 108 005d 01       		.byte	1
 109 005e 01       		.byte	1
 110 005f 0A       		.byte	10
 111 0060 08       		.byte	8
 112 0061 0B       		.byte	11
 113 0062 0B       		.byte	11
 114 0063 06       		.byte	6
 115 0064 05       		.byte	5
 116 0065 05       		.byte	5
 117 0066 05       		.byte	5
 118 0067 05       		.byte	5
 119 0068 05       		.byte	5
 120 0069 05       		.byte	5
 121 006a 05       		.byte	5
 122 006b 05       		.byte	5
 123 006c 05       		.byte	5
 124 006d 05       		.byte	5
 125 006e 0D       		.byte	13
 126 006f FF       		.byte	-1
 127 0070 FF       		.byte	-1
 128 0071 FF       		.byte	-1
 129 0072 FF       		.byte	-1
 130 0073 0B       		.byte	11
 131 0074 0B       		.byte	11
 132 0075 FF       		.byte	-1
 133 0076 FF       		.byte	-1
 134 0077 FF       		.byte	-1
 135 0078 FF       		.byte	-1
 136 0079 FF       		.byte	-1
 137 007a FF       		.byte	-1
 138 007b FF       		.byte	-1
 139 007c FF       		.byte	-1
 140 007d FF       		.byte	-1
 141 007e FF       		.byte	-1
 142 007f FF       		.byte	-1
 143 0080 FF       		.byte	-1
 144 0081 FF       		.byte	-1
 145 0082 FF       		.byte	-1
 146 0083 FF       		.byte	-1
 147 0084 FF       		.byte	-1
 148 0085 FF       		.byte	-1
 149 0086 FF       		.byte	-1
 150 0087 FF       		.byte	-1
 151 0088 FF       		.byte	-1
 152 0089 FF       		.byte	-1
 153 008a FF       		.byte	-1
 154 008b FF       		.byte	-1
 155 008c FF       		.byte	-1
 156 008d FF       		.byte	-1
 157 008e FF       		.byte	-1
 158 008f FF       		.byte	-1
 159 0090 FF       		.byte	-1
 160 0091 FF       		.byte	-1
 161 0092 FF       		.byte	-1
 162 0093 FF       		.byte	-1
 163 0094 FF       		.byte	-1
 164 0095 FF       		.byte	-1
 165 0096 FF       		.byte	-1
 166 0097 FF       		.byte	-1
 167 0098 FF       		.byte	-1
 168 0099 FF       		.byte	-1
 169 009a FF       		.byte	-1
 170 009b FF       		.byte	-1
 171 009c FF       		.byte	-1
 172 009d FF       		.byte	-1
 173 009e FF       		.byte	-1
 174 009f FF       		.byte	-1
 175 00a0 FF       		.byte	-1
 176 00a1 FF       		.byte	-1
 177 00a2 FF       		.byte	-1
 178 00a3 FF       		.byte	-1
 179 00a4 FF       		.byte	-1
 180 00a5 FF       		.byte	-1
 181 00a6 FF       		.byte	-1
 182 00a7 FF       		.byte	-1
 183 00a8 FF       		.byte	-1
 184 00a9 FF       		.byte	-1
 185 00aa FF       		.byte	-1
 186 00ab FF       		.byte	-1
 187 00ac FF       		.byte	-1
 188 00ad FF       		.byte	-1
 189 00ae FF       		.byte	-1
 190 00af FF       		.byte	-1
 191 00b0 FF       		.byte	-1
 192 00b1 FF       		.byte	-1
 193 00b2 FF       		.byte	-1
 194 00b3 FF       		.byte	-1
 195 00b4 FF       		.byte	-1
 196 00b5 FF       		.byte	-1
 197 00b6 FF       		.byte	-1
 198 00b7 FF       		.byte	-1
 199 00b8 FF       		.byte	-1
 200 00b9 FF       		.byte	-1
 201              		.section	.text.get_corresponding_m2f_output,"ax",@progbits
 202              		.align	1
 204              	get_corresponding_m2f_output:
 205              	.LFB11:
 206              		.file 1 "../src/platform/mpfs_hal/common/mss_h2f.c"
   1:../src/platform/mpfs_hal/common/mss_h2f.c **** /*******************************************************************************
   2:../src/platform/mpfs_hal/common/mss_h2f.c ****  * Copyright 2019-2022 Microchip FPGA Embedded Systems Solutions.
   3:../src/platform/mpfs_hal/common/mss_h2f.c ****  *
   4:../src/platform/mpfs_hal/common/mss_h2f.c ****  * SPDX-License-Identifier: MIT
   5:../src/platform/mpfs_hal/common/mss_h2f.c ****  *
   6:../src/platform/mpfs_hal/common/mss_h2f.c ****  * MPFS HAL Embedded Software
   7:../src/platform/mpfs_hal/common/mss_h2f.c ****  *
   8:../src/platform/mpfs_hal/common/mss_h2f.c ****  */
   9:../src/platform/mpfs_hal/common/mss_h2f.c **** 
  10:../src/platform/mpfs_hal/common/mss_h2f.c **** /*******************************************************************************
  11:../src/platform/mpfs_hal/common/mss_h2f.c ****  *
  12:../src/platform/mpfs_hal/common/mss_h2f.c ****  * @file mss_m2f.c
  13:../src/platform/mpfs_hal/common/mss_h2f.c ****  * @author Microchip-FPGA Embedded Systems Solutions
  14:../src/platform/mpfs_hal/common/mss_h2f.c ****  * @brief M2F access data structures and functions.
  15:../src/platform/mpfs_hal/common/mss_h2f.c ****  *
  16:../src/platform/mpfs_hal/common/mss_h2f.c ****  */
  17:../src/platform/mpfs_hal/common/mss_h2f.c **** #include "mss_plic.h"
  18:../src/platform/mpfs_hal/common/mss_h2f.c **** #include "mss_h2f.h"
  19:../src/platform/mpfs_hal/common/mss_h2f.c **** 
  20:../src/platform/mpfs_hal/common/mss_h2f.c **** #ifdef __cplusplus
  21:../src/platform/mpfs_hal/common/mss_h2f.c **** extern "C" {
  22:../src/platform/mpfs_hal/common/mss_h2f.c **** #endif
  23:../src/platform/mpfs_hal/common/mss_h2f.c **** 
  24:../src/platform/mpfs_hal/common/mss_h2f.c **** #define M2F_MAPPING_INVALID 255U
  25:../src/platform/mpfs_hal/common/mss_h2f.c **** 
  26:../src/platform/mpfs_hal/common/mss_h2f.c **** /*==============================================================================
  27:../src/platform/mpfs_hal/common/mss_h2f.c ****  * M2F_int_mapping, source to M2F output lines
  28:../src/platform/mpfs_hal/common/mss_h2f.c ****  * The internal interrupt are multiplexed to fabric I/O lines.
  29:../src/platform/mpfs_hal/common/mss_h2f.c ****  * That is, each line will contain several interrupts.
  30:../src/platform/mpfs_hal/common/mss_h2f.c ****  */
  31:../src/platform/mpfs_hal/common/mss_h2f.c **** 
  32:../src/platform/mpfs_hal/common/mss_h2f.c **** const uint8_t M2F_int_mapping[PLIC_U54_4_BUS_ERROR_UNIT_OFFSET]= { \
  33:../src/platform/mpfs_hal/common/mss_h2f.c **** 
  34:../src/platform/mpfs_hal/common/mss_h2f.c ****     M2F_MAPPING_INVALID /*INVALID_IRQn              = 0*/, \
  35:../src/platform/mpfs_hal/common/mss_h2f.c ****     M2F_MAPPING_INVALID /*L2_METADATA_CORR_IRQn     = 1*/, \
  36:../src/platform/mpfs_hal/common/mss_h2f.c ****     M2F_MAPPING_INVALID /*L2_METADAT_UNCORR_IRQn    = 2*/, \
  37:../src/platform/mpfs_hal/common/mss_h2f.c ****     M2F_MAPPING_INVALID /*L2_DATA_CORR_IRQn         = 3*/, \
  38:../src/platform/mpfs_hal/common/mss_h2f.c ****     M2F_MAPPING_INVALID /*L2_DATA_UNCORR_IRQn       = 4*/, \
  39:../src/platform/mpfs_hal/common/mss_h2f.c ****     M2F_MAPPING_INVALID /*DMA_CH0_DONE_IRQn         = 5*/, \
  40:../src/platform/mpfs_hal/common/mss_h2f.c ****     M2F_MAPPING_INVALID /*DMA_CH0_ERR_IRQn          = 6*/, \
  41:../src/platform/mpfs_hal/common/mss_h2f.c ****     M2F_MAPPING_INVALID /*DMA_CH1_DONE_IRQn         = 7*/, \
  42:../src/platform/mpfs_hal/common/mss_h2f.c ****     M2F_MAPPING_INVALID /*DMA_CH1_ERR_IRQn          = 8*/, \
  43:../src/platform/mpfs_hal/common/mss_h2f.c ****     M2F_MAPPING_INVALID /*DMA_CH2_DONE_IRQn         = 9*/, \
  44:../src/platform/mpfs_hal/common/mss_h2f.c ****     M2F_MAPPING_INVALID /*DMA_CH2_ERR_IRQn          = 10*/, \
  45:../src/platform/mpfs_hal/common/mss_h2f.c ****     M2F_MAPPING_INVALID /*DMA_CH3_DONE_IRQn         = 11*/, \
  46:../src/platform/mpfs_hal/common/mss_h2f.c ****     M2F_MAPPING_INVALID /*DMA_CH3_ERR_IRQn          = 12*/, \
  47:../src/platform/mpfs_hal/common/mss_h2f.c **** 
  48:../src/platform/mpfs_hal/common/mss_h2f.c ****     0x00U /*GPIO0_BIT0_or_GPIO2_BIT0_PLIC_0          = 0 + OFFSET_TO_MSS_GLOBAL_INTS*/, \
  49:../src/platform/mpfs_hal/common/mss_h2f.c ****     0x00U /*GPIO0_BIT1_or_GPIO2_BIT1_PLIC_1          = 1 + OFFSET_TO_MSS_GLOBAL_INTS*/, \
  50:../src/platform/mpfs_hal/common/mss_h2f.c ****     0x00U /*GPIO0_BIT2_or_GPIO2_BIT2_PLIC_2          = 2 + OFFSET_TO_MSS_GLOBAL_INTS*/, \
  51:../src/platform/mpfs_hal/common/mss_h2f.c ****     0x00U /*GPIO0_BIT3_or_GPIO2_BIT3_PLIC_3          = 3 + OFFSET_TO_MSS_GLOBAL_INTS*/, \
  52:../src/platform/mpfs_hal/common/mss_h2f.c ****     0x00U /*GPIO0_BIT4_or_GPIO2_BIT4_PLIC_4          = 4 + OFFSET_TO_MSS_GLOBAL_INTS*/, \
  53:../src/platform/mpfs_hal/common/mss_h2f.c ****     0x00U /*GPIO0_BIT5_or_GPIO2_BIT5_PLIC_5          = 5 + OFFSET_TO_MSS_GLOBAL_INTS*/, \
  54:../src/platform/mpfs_hal/common/mss_h2f.c ****     0x00U /*GPIO0_BIT6_or_GPIO2_BIT6_PLIC_6          = 6 + OFFSET_TO_MSS_GLOBAL_INTS*/, \
  55:../src/platform/mpfs_hal/common/mss_h2f.c ****     0x00U /*GPIO0_BIT7_or_GPIO2_BIT7_PLIC_7          = 7 + OFFSET_TO_MSS_GLOBAL_INTS*/, \
  56:../src/platform/mpfs_hal/common/mss_h2f.c ****     0x00U /*GPIO0_BIT8_or_GPIO2_BIT8_PLIC_8          = 8 + OFFSET_TO_MSS_GLOBAL_INTS*/, \
  57:../src/platform/mpfs_hal/common/mss_h2f.c ****     0x00U /*GPIO0_BIT9_or_GPIO2_BIT9_PLIC_9          = 9 + OFFSET_TO_MSS_GLOBAL_INTS*/, \
  58:../src/platform/mpfs_hal/common/mss_h2f.c ****     0x00U /*GPIO0_BIT10_or_GPIO2_BIT10_PLIC_10       = 10 + OFFSET_TO_MSS_GLOBAL_INTS*/, \
  59:../src/platform/mpfs_hal/common/mss_h2f.c ****     0x00U /*GPIO0_BIT11_or_GPIO2_BIT11_PLIC_11       = 11 + OFFSET_TO_MSS_GLOBAL_INTS*/, \
  60:../src/platform/mpfs_hal/common/mss_h2f.c ****     0x00U /*GPIO0_BIT12_or_GPIO2_BIT12_PLIC_12       = 12 + OFFSET_TO_MSS_GLOBAL_INTS*/, \
  61:../src/platform/mpfs_hal/common/mss_h2f.c **** 
  62:../src/platform/mpfs_hal/common/mss_h2f.c ****     0x00U /*GPIO0_BIT14_or_GPIO2_BIT13_PLIC_13       = 13 + OFFSET_TO_MSS_GLOBAL_INTS*/, \
  63:../src/platform/mpfs_hal/common/mss_h2f.c ****     0x00U /*GPIO1_BIT0_or_GPIO2_BIT14_PLIC_14        = 14 + OFFSET_TO_MSS_GLOBAL_INTS*/, \
  64:../src/platform/mpfs_hal/common/mss_h2f.c ****     0x00U /*GPIO1_BIT1_or_GPIO2_BIT15_PLIC_15        = 15 + OFFSET_TO_MSS_GLOBAL_INTS*/, \
  65:../src/platform/mpfs_hal/common/mss_h2f.c ****     0x00U /*GPIO1_BIT2_or_GPIO2_BIT16_PLIC_16        = 16 + OFFSET_TO_MSS_GLOBAL_INTS*/, \
  66:../src/platform/mpfs_hal/common/mss_h2f.c ****     0x00U /*GPIO1_BIT3_or_GPIO2_BIT17_PLIC_17        = 17 + OFFSET_TO_MSS_GLOBAL_INTS*/, \
  67:../src/platform/mpfs_hal/common/mss_h2f.c ****     0x00U /*GPIO1_BIT4_or_GPIO2_BIT18_PLIC_18        = 18 + OFFSET_TO_MSS_GLOBAL_INTS*/, \
  68:../src/platform/mpfs_hal/common/mss_h2f.c ****     0x00U /*GPIO1_BIT5_or_GPIO2_BIT19_PLIC_19        = 19 + OFFSET_TO_MSS_GLOBAL_INTS*/, \
  69:../src/platform/mpfs_hal/common/mss_h2f.c ****     0x00U /*GPIO1_BIT6_or_GPIO2_BIT20_PLIC_20        = 20 + OFFSET_TO_MSS_GLOBAL_INTS*/, \
  70:../src/platform/mpfs_hal/common/mss_h2f.c ****     0x00U /*GPIO1_BIT7_or_GPIO2_BIT21_PLIC_21        = 21 + OFFSET_TO_MSS_GLOBAL_INTS*/, \
  71:../src/platform/mpfs_hal/common/mss_h2f.c ****     0x00U /*GPIO1_BIT8_or_GPIO2_BIT22_PLIC_22        = 22 + OFFSET_TO_MSS_GLOBAL_INTS*/, \
  72:../src/platform/mpfs_hal/common/mss_h2f.c ****     0x00U /*GPIO1_BIT9_or_GPIO2_BIT23_PLIC_23        = 23 + OFFSET_TO_MSS_GLOBAL_INTS*/, \
  73:../src/platform/mpfs_hal/common/mss_h2f.c ****     0x00U /*GPIO1_BIT10_or_GPIO2_BIT24_PLIC_24       = 24 + OFFSET_TO_MSS_GLOBAL_INTS*/, \
  74:../src/platform/mpfs_hal/common/mss_h2f.c ****     0x00U /*GPIO1_BIT11_or_GPIO2_BIT25_PLIC_25       = 25 + OFFSET_TO_MSS_GLOBAL_INTS*/, \
  75:../src/platform/mpfs_hal/common/mss_h2f.c ****     0x00U /*GPIO1_BIT12_or_GPIO2_BIT26_PLIC_26       = 26 + OFFSET_TO_MSS_GLOBAL_INTS*/, \
  76:../src/platform/mpfs_hal/common/mss_h2f.c ****     0x00U /*GPIO1_BIT13_or_GPIO2_BIT27_PLIC_27       = 27 + OFFSET_TO_MSS_GLOBAL_INTS*/, \
  77:../src/platform/mpfs_hal/common/mss_h2f.c **** 
  78:../src/platform/mpfs_hal/common/mss_h2f.c ****     0x00U /*GPIO1_BIT14_or_GPIO2_BIT28_PLIC_28       = 28 + OFFSET_TO_MSS_GLOBAL_INTS*/, \
  79:../src/platform/mpfs_hal/common/mss_h2f.c ****     0x00U /*GPIO1_BIT15_or_GPIO2_BIT29_PLIC_29       = 29 + OFFSET_TO_MSS_GLOBAL_INTS*/, \
  80:../src/platform/mpfs_hal/common/mss_h2f.c ****     0x00U /*GPIO1_BIT16_or_GPIO2_BIT30_PLIC_30       = 30 + OFFSET_TO_MSS_GLOBAL_INTS*/, \
  81:../src/platform/mpfs_hal/common/mss_h2f.c ****     0x00U /*GPIO1_BIT17_or_GPIO2_BIT31_PLIC_31       = 31 + OFFSET_TO_MSS_GLOBAL_INTS*/, \
  82:../src/platform/mpfs_hal/common/mss_h2f.c **** 
  83:../src/platform/mpfs_hal/common/mss_h2f.c ****     0x00U /*GPIO1_BIT18_PLIC_32 = 32 + OFFSET_TO_MSS_GLOBAL_INTS*/, \
  84:../src/platform/mpfs_hal/common/mss_h2f.c ****     0x00U /*GPIO1_BIT19_PLIC_33                      = 33 + OFFSET_TO_MSS_GLOBAL_INTS*/, \
  85:../src/platform/mpfs_hal/common/mss_h2f.c ****     0x00U /*GPIO1_BIT20_PLIC_34                      = 34 + OFFSET_TO_MSS_GLOBAL_INTS*/, \
  86:../src/platform/mpfs_hal/common/mss_h2f.c ****     0x00U /*GPIO1_BIT21_PLIC_35                      = 35 + OFFSET_TO_MSS_GLOBAL_INTS*/, \
  87:../src/platform/mpfs_hal/common/mss_h2f.c ****     0x00U /*GPIO1_BIT22_PLIC_36                      = 36 + OFFSET_TO_MSS_GLOBAL_INTS*/, \
  88:../src/platform/mpfs_hal/common/mss_h2f.c ****     0x00U /*GPIO1_BIT23_PLIC_37                      = 37 + OFFSET_TO_MSS_GLOBAL_INTS*/, \
  89:../src/platform/mpfs_hal/common/mss_h2f.c **** 
  90:../src/platform/mpfs_hal/common/mss_h2f.c ****     0x00U /*GPIO0_NON_DIRECT_PLI                     =38 + OFFSET_TO_MSS_GLOBAL_INTS*/, \
  91:../src/platform/mpfs_hal/common/mss_h2f.c ****     0x00U /*GPIO1_NON_DIRECT_PLIC                    =39 + OFFSET_TO_MSS_GLOBAL_INTS*/, \
  92:../src/platform/mpfs_hal/common/mss_h2f.c ****     0x00U /*GPIO2_NON_DIRECT_PLIC                    =40 + OFFSET_TO_MSS_GLOBAL_INTS*/, \
  93:../src/platform/mpfs_hal/common/mss_h2f.c **** 
  94:../src/platform/mpfs_hal/common/mss_h2f.c ****     0x01U /*SPI0_PLIC                                =41 + OFFSET_TO_MSS_GLOBAL_INTS*/, \
  95:../src/platform/mpfs_hal/common/mss_h2f.c ****     0x01U /*SPI1_PLIC                                =42 + OFFSET_TO_MSS_GLOBAL_INTS*/, \
  96:../src/platform/mpfs_hal/common/mss_h2f.c ****     0x01U /*CAN0_PLIC                                =43 + OFFSET_TO_MSS_GLOBAL_INTS*/, \
  97:../src/platform/mpfs_hal/common/mss_h2f.c ****     0x01U /*CAN1_PLIC                                =44 + OFFSET_TO_MSS_GLOBAL_INTS*/, \
  98:../src/platform/mpfs_hal/common/mss_h2f.c ****     0x02U /*I2C0_MAIN_PLIC                           =45 + OFFSET_TO_MSS_GLOBAL_INTS*/, \
  99:../src/platform/mpfs_hal/common/mss_h2f.c ****     0x02U /*I2C0_ALERT_PLIC                          =46 + OFFSET_TO_MSS_GLOBAL_INTS*/, \
 100:../src/platform/mpfs_hal/common/mss_h2f.c ****     0x02U /*I2C0_SUS_PLIC                            =47 + OFFSET_TO_MSS_GLOBAL_INTS*/, \
 101:../src/platform/mpfs_hal/common/mss_h2f.c ****     0x02U /*I2C1_MAIN_PLIC                           =48 + OFFSET_TO_MSS_GLOBAL_INTS*/, \
 102:../src/platform/mpfs_hal/common/mss_h2f.c ****     0x02U /*I2C1_ALERT_PLIC                          =49 + OFFSET_TO_MSS_GLOBAL_INTS*/, \
 103:../src/platform/mpfs_hal/common/mss_h2f.c ****     0x02U /*I2C1_SUS_PLIC                            =50 + OFFSET_TO_MSS_GLOBAL_INTS*/, \
 104:../src/platform/mpfs_hal/common/mss_h2f.c ****     0x03U /*MAC0_INT_PLIC                            =51 + OFFSET_TO_MSS_GLOBAL_INTS*/, \
 105:../src/platform/mpfs_hal/common/mss_h2f.c ****     0x03U /*MAC0_QUEUE1_PLIC                         =52 + OFFSET_TO_MSS_GLOBAL_INTS*/, \
 106:../src/platform/mpfs_hal/common/mss_h2f.c ****     0x03U /*MAC0_QUEUE2_PLIC                         =53 + OFFSET_TO_MSS_GLOBAL_INTS*/, \
 107:../src/platform/mpfs_hal/common/mss_h2f.c ****     0x03U /*MAC0_QUEUE3_PLIC                         =54 + OFFSET_TO_MSS_GLOBAL_INTS*/, \
 108:../src/platform/mpfs_hal/common/mss_h2f.c ****     0x03U /*MAC0_eMAC_PLIC                           =55 + OFFSET_TO_MSS_GLOBAL_INTS*/, \
 109:../src/platform/mpfs_hal/common/mss_h2f.c ****     0x03U /*MAC0_MMSL_PLIC                           =56 + OFFSET_TO_MSS_GLOBAL_INTS*/, \
 110:../src/platform/mpfs_hal/common/mss_h2f.c ****     0x04U /*MAC1_int_PLIC                            =57 + OFFSET_TO_MSS_GLOBAL_INTS*/, \
 111:../src/platform/mpfs_hal/common/mss_h2f.c ****     0x04U /*MAC1_QUEUE1_PLIC                         =58 + OFFSET_TO_MSS_GLOBAL_INTS*/, \
 112:../src/platform/mpfs_hal/common/mss_h2f.c ****     0x04U /*MAC1_QUEUE2_PLIC                         =59 + OFFSET_TO_MSS_GLOBAL_INTS*/, \
 113:../src/platform/mpfs_hal/common/mss_h2f.c ****     0x04U /*MAC1_QUEUE3_PLIC                         =60 + OFFSET_TO_MSS_GLOBAL_INTS*/, \
 114:../src/platform/mpfs_hal/common/mss_h2f.c ****     0x04U /*MAC1_EMAC_PLIC                           =61 + OFFSET_TO_MSS_GLOBAL_INTS*/, \
 115:../src/platform/mpfs_hal/common/mss_h2f.c ****     0x04U /*MAC1_MMSL_PLIC                           =62 + OFFSET_TO_MSS_GLOBAL_INTS*/, \
 116:../src/platform/mpfs_hal/common/mss_h2f.c ****     0x09U /*DDRC_TRAIN_PLIC                          =63 + OFFSET_TO_MSS_GLOBAL_INTS*/, \
 117:../src/platform/mpfs_hal/common/mss_h2f.c ****     0x07U /*SCB_INTERRUPT_PLIC                       =64 + OFFSET_TO_MSS_GLOBAL_INTS*/, \
 118:../src/platform/mpfs_hal/common/mss_h2f.c ****     0x06U /*ECC_ERROR_PLIC                           =65 + OFFSET_TO_MSS_GLOBAL_INTS*/, \
 119:../src/platform/mpfs_hal/common/mss_h2f.c ****     0x06U /*ECC_CORRECT_PLIC                         =66 + OFFSET_TO_MSS_GLOBAL_INTS*/, \
 120:../src/platform/mpfs_hal/common/mss_h2f.c ****     0x0BU /*RTC_WAKEUP_PLIC                          =67 + OFFSET_TO_MSS_GLOBAL_INTS*/, \
 121:../src/platform/mpfs_hal/common/mss_h2f.c ****     0x0BU /*RTC_MATCH_PLIC                           =68 + OFFSET_TO_MSS_GLOBAL_INTS*/, \
 122:../src/platform/mpfs_hal/common/mss_h2f.c ****     0x0CU /*TIMER1_PLIC                              =69 + OFFSET_TO_MSS_GLOBAL_INTS*/, \
 123:../src/platform/mpfs_hal/common/mss_h2f.c ****     0x0CU /*TIMER2_PLIC                              =70 + OFFSET_TO_MSS_GLOBAL_INTS*/, \
 124:../src/platform/mpfs_hal/common/mss_h2f.c ****     0x0DU /*ENVM_PLIC                                =71 + OFFSET_TO_MSS_GLOBAL_INTS*/, \
 125:../src/platform/mpfs_hal/common/mss_h2f.c ****     0x0DU /*QSPI_PLIC                                =72 + OFFSET_TO_MSS_GLOBAL_INTS*/, \
 126:../src/platform/mpfs_hal/common/mss_h2f.c ****     0x0EU /*USB_DMA_PLIC                             =73 + OFFSET_TO_MSS_GLOBAL_INTS*/, \
 127:../src/platform/mpfs_hal/common/mss_h2f.c ****     0x0EU /*USB_MC_PLIC                              =74 + OFFSET_TO_MSS_GLOBAL_INTS*/, \
 128:../src/platform/mpfs_hal/common/mss_h2f.c ****     0x0FU /*MMC_main_PLIC                            =75 + OFFSET_TO_MSS_GLOBAL_INTS*/, \
 129:../src/platform/mpfs_hal/common/mss_h2f.c ****     0x0FU /*MMC_wakeup_PLIC                          =76 + OFFSET_TO_MSS_GLOBAL_INTS*/, \
 130:../src/platform/mpfs_hal/common/mss_h2f.c ****     0x01U /*MMUART0_PLIC_77                          =77 + OFFSET_TO_MSS_GLOBAL_INTS*/, \
 131:../src/platform/mpfs_hal/common/mss_h2f.c ****     0x01U /*MMUART1_PLIC                             =78 + OFFSET_TO_MSS_GLOBAL_INTS*/, \
 132:../src/platform/mpfs_hal/common/mss_h2f.c ****     0x01U /*MMUART2_PLIC                             =79 + OFFSET_TO_MSS_GLOBAL_INTS*/, \
 133:../src/platform/mpfs_hal/common/mss_h2f.c ****     0x01U /*MMUART3_PLIC                             =80 + OFFSET_TO_MSS_GLOBAL_INTS*/, \
 134:../src/platform/mpfs_hal/common/mss_h2f.c ****     0x01U /*MMUART4_PLIC                             =81 + OFFSET_TO_MSS_GLOBAL_INTS*/, \
 135:../src/platform/mpfs_hal/common/mss_h2f.c ****     0x0AU /*G5C_DEVRST_PLIC                          =82 + OFFSET_TO_MSS_GLOBAL_INTS*/, \
 136:../src/platform/mpfs_hal/common/mss_h2f.c ****     0x08U /*g5c_MESSAGE_PLIC                         =83 + OFFSET_TO_MSS_GLOBAL_INTS*/, \
 137:../src/platform/mpfs_hal/common/mss_h2f.c ****     0x0BU /*USOC_VC_INTERRUPT_PLIC                   =84 + OFFSET_TO_MSS_GLOBAL_INTS*/, \
 138:../src/platform/mpfs_hal/common/mss_h2f.c ****     0x0BU /*USOC_SMB_INTERRUPT_PLIC                  =85 + OFFSET_TO_MSS_GLOBAL_INTS*/, \
 139:../src/platform/mpfs_hal/common/mss_h2f.c ****     0x06U /*E51_0_MAINTENACE_PLIC                    =86 + OFFSET_TO_MSS_GLOBAL_INTS*/, \
 140:../src/platform/mpfs_hal/common/mss_h2f.c ****     0x05U /*WDOG0_MRVP_PLIC                          =87 + OFFSET_TO_MSS_GLOBAL_INTS*/, \
 141:../src/platform/mpfs_hal/common/mss_h2f.c ****     0x05U /*WDOG1_MRVP_PLIC                          =88 + OFFSET_TO_MSS_GLOBAL_INTS*/, \
 142:../src/platform/mpfs_hal/common/mss_h2f.c ****     0x05U /*WDOG2_MRVP_PLIC                          =89 + OFFSET_TO_MSS_GLOBAL_INTS*/, \
 143:../src/platform/mpfs_hal/common/mss_h2f.c ****     0x05U /*WDOG3_MRVP_PLIC                          =90 + OFFSET_TO_MSS_GLOBAL_INTS*/, \
 144:../src/platform/mpfs_hal/common/mss_h2f.c ****     0x05U /*WDOG4_MRVP_PLIC                          =91 + OFFSET_TO_MSS_GLOBAL_INTS*/, \
 145:../src/platform/mpfs_hal/common/mss_h2f.c ****     0x05U /*WDOG0_TOUT_PLIC                          =92 + OFFSET_TO_MSS_GLOBAL_INTS*/, \
 146:../src/platform/mpfs_hal/common/mss_h2f.c ****     0x05U /*WDOG1_TOUT_PLIC                          =93 + OFFSET_TO_MSS_GLOBAL_INTS*/, \
 147:../src/platform/mpfs_hal/common/mss_h2f.c ****     0x05U /*WDOG2_TOUT_PLIC                          =94 + OFFSET_TO_MSS_GLOBAL_INTS*/, \
 148:../src/platform/mpfs_hal/common/mss_h2f.c ****     0x05U /*WDOG3_TOUT_PLIC                          =95 + OFFSET_TO_MSS_GLOBAL_INTS*/, \
 149:../src/platform/mpfs_hal/common/mss_h2f.c ****     0x05U /*WDOG4_TOUT_PLIC                          =96 + OFFSET_TO_MSS_GLOBAL_INTS*/, \
 150:../src/platform/mpfs_hal/common/mss_h2f.c ****     0x0DU /*G5C_MSS_SPI_PLIC                         =97 + OFFSET_TO_MSS_GLOBAL_INTS*/, \
 151:../src/platform/mpfs_hal/common/mss_h2f.c ****     M2F_MAPPING_INVALID /*VOLT_TEMP_ALARM_PLIC      =98 + OFFSET_TO_MSS_GLOBAL_INTS*/, \
 152:../src/platform/mpfs_hal/common/mss_h2f.c ****     M2F_MAPPING_INVALID /*ATHENA_COMPLETE_PLIC      =99 + OFFSET_TO_MSS_GLOBAL_INTS*/, \
 153:../src/platform/mpfs_hal/common/mss_h2f.c ****     M2F_MAPPING_INVALID /*ATHENA_ALARM_PLIC         =100 + OFFSET_TO_MSS_GLOBAL_INTS*/, \
 154:../src/platform/mpfs_hal/common/mss_h2f.c ****     M2F_MAPPING_INVALID /*ATHENA_BUS_ERROR_PLIC     =101 + OFFSET_TO_MSS_GLOBAL_INTS*/, \
 155:../src/platform/mpfs_hal/common/mss_h2f.c ****     0x0BU /*USOC_AXIC_US_PLIC                        =102 + OFFSET_TO_MSS_GLOBAL_INTS*/, \
 156:../src/platform/mpfs_hal/common/mss_h2f.c ****     0x0BU /*USOC_AXIC_DS_PLIC                        =103 + OFFSET_TO_MSS_GLOBAL_INTS*/, \
 157:../src/platform/mpfs_hal/common/mss_h2f.c **** 
 158:../src/platform/mpfs_hal/common/mss_h2f.c ****     M2F_MAPPING_INVALID /*MSS_INT_F2M_0_PLIC        = 105 + OFFSET_TO_MSS_GLOBAL_INTS*/, \
 159:../src/platform/mpfs_hal/common/mss_h2f.c ****     M2F_MAPPING_INVALID /*MSS_INT_F2M_1_PLIC        = 106 + OFFSET_TO_MSS_GLOBAL_INTS*/, \
 160:../src/platform/mpfs_hal/common/mss_h2f.c ****     M2F_MAPPING_INVALID /*MSS_INT_F2M_2_PLIC        = 107 + OFFSET_TO_MSS_GLOBAL_INTS*/, \
 161:../src/platform/mpfs_hal/common/mss_h2f.c ****     M2F_MAPPING_INVALID /*MSS_INT_F2M_3_PLIC        = 108 + OFFSET_TO_MSS_GLOBAL_INTS*/, \
 162:../src/platform/mpfs_hal/common/mss_h2f.c ****     M2F_MAPPING_INVALID /*MSS_INT_F2M_4_PLIC        = 109 + OFFSET_TO_MSS_GLOBAL_INTS*/, \
 163:../src/platform/mpfs_hal/common/mss_h2f.c ****     M2F_MAPPING_INVALID /*MSS_INT_F2M_5_PLIC        = 110 + OFFSET_TO_MSS_GLOBAL_INTS*/, \
 164:../src/platform/mpfs_hal/common/mss_h2f.c ****     M2F_MAPPING_INVALID /*MSS_INT_F2M_6_PLIC        = 111 + OFFSET_TO_MSS_GLOBAL_INTS*/, \
 165:../src/platform/mpfs_hal/common/mss_h2f.c ****     M2F_MAPPING_INVALID /*MSS_INT_F2M_7_PLIC        = 112 + OFFSET_TO_MSS_GLOBAL_INTS*/, \
 166:../src/platform/mpfs_hal/common/mss_h2f.c ****     M2F_MAPPING_INVALID /*MSS_INT_F2M_8_PLIC        = 113 + OFFSET_TO_MSS_GLOBAL_INTS*/, \
 167:../src/platform/mpfs_hal/common/mss_h2f.c ****     M2F_MAPPING_INVALID /*MSS_INT_F2M_9_PLIC        = 114 + OFFSET_TO_MSS_GLOBAL_INTS*/, \
 168:../src/platform/mpfs_hal/common/mss_h2f.c **** 
 169:../src/platform/mpfs_hal/common/mss_h2f.c ****     M2F_MAPPING_INVALID /*MSS_INT_F2M_10_PLIC        = 115 + OFFSET_TO_MSS_GLOBAL_INTS*/, \
 170:../src/platform/mpfs_hal/common/mss_h2f.c ****     M2F_MAPPING_INVALID /*MSS_INT_F2M_11_PLIC        = 116 + OFFSET_TO_MSS_GLOBAL_INTS*/, \
 171:../src/platform/mpfs_hal/common/mss_h2f.c ****     M2F_MAPPING_INVALID /*MSS_INT_F2M_12_PLIC        = 117 + OFFSET_TO_MSS_GLOBAL_INTS*/, \
 172:../src/platform/mpfs_hal/common/mss_h2f.c ****     M2F_MAPPING_INVALID /*MSS_INT_F2M_13_PLIC        = 118 + OFFSET_TO_MSS_GLOBAL_INTS*/, \
 173:../src/platform/mpfs_hal/common/mss_h2f.c ****     M2F_MAPPING_INVALID /*MSS_INT_F2M_14_PLIC        = 119 + OFFSET_TO_MSS_GLOBAL_INTS*/, \
 174:../src/platform/mpfs_hal/common/mss_h2f.c ****     M2F_MAPPING_INVALID /*MSS_INT_F2M_15_PLIC        = 120 + OFFSET_TO_MSS_GLOBAL_INTS*/, \
 175:../src/platform/mpfs_hal/common/mss_h2f.c ****     M2F_MAPPING_INVALID /*MSS_INT_F2M_16_PLIC        = 121 + OFFSET_TO_MSS_GLOBAL_INTS*/, \
 176:../src/platform/mpfs_hal/common/mss_h2f.c ****     M2F_MAPPING_INVALID /*MSS_INT_F2M_17_PLIC        = 122 + OFFSET_TO_MSS_GLOBAL_INTS*/, \
 177:../src/platform/mpfs_hal/common/mss_h2f.c ****     M2F_MAPPING_INVALID /*MSS_INT_F2M_18_PLIC        = 123 + OFFSET_TO_MSS_GLOBAL_INTS*/, \
 178:../src/platform/mpfs_hal/common/mss_h2f.c ****     M2F_MAPPING_INVALID /*MSS_INT_F2M_19_PLIC        = 124 + OFFSET_TO_MSS_GLOBAL_INTS*/, \
 179:../src/platform/mpfs_hal/common/mss_h2f.c **** 
 180:../src/platform/mpfs_hal/common/mss_h2f.c ****     M2F_MAPPING_INVALID /*MSS_INT_F2M_20_PLIC        = 125 + OFFSET_TO_MSS_GLOBAL_INTS*/, \
 181:../src/platform/mpfs_hal/common/mss_h2f.c ****     M2F_MAPPING_INVALID /*MSS_INT_F2M_21_PLIC        = 126 + OFFSET_TO_MSS_GLOBAL_INTS*/, \
 182:../src/platform/mpfs_hal/common/mss_h2f.c ****     M2F_MAPPING_INVALID /*MSS_INT_F2M_22_PLIC        = 127 + OFFSET_TO_MSS_GLOBAL_INTS*/, \
 183:../src/platform/mpfs_hal/common/mss_h2f.c ****     M2F_MAPPING_INVALID /*MSS_INT_F2M_23_PLIC        = 128 + OFFSET_TO_MSS_GLOBAL_INTS*/, \
 184:../src/platform/mpfs_hal/common/mss_h2f.c ****     M2F_MAPPING_INVALID /*MSS_INT_F2M_24_PLIC        = 129 + OFFSET_TO_MSS_GLOBAL_INTS*/, \
 185:../src/platform/mpfs_hal/common/mss_h2f.c ****     M2F_MAPPING_INVALID /*MSS_INT_F2M_25_PLIC        = 130 + OFFSET_TO_MSS_GLOBAL_INTS*/, \
 186:../src/platform/mpfs_hal/common/mss_h2f.c ****     M2F_MAPPING_INVALID /*MSS_INT_F2M_26_PLIC        = 131 + OFFSET_TO_MSS_GLOBAL_INTS*/, \
 187:../src/platform/mpfs_hal/common/mss_h2f.c ****     M2F_MAPPING_INVALID /*MSS_INT_F2M_27_PLIC        = 132 + OFFSET_TO_MSS_GLOBAL_INTS*/, \
 188:../src/platform/mpfs_hal/common/mss_h2f.c ****     M2F_MAPPING_INVALID /*MSS_INT_F2M_28_PLIC        = 133 + OFFSET_TO_MSS_GLOBAL_INTS*/, \
 189:../src/platform/mpfs_hal/common/mss_h2f.c ****     M2F_MAPPING_INVALID /*MSS_INT_F2M_29_PLIC        = 134 + OFFSET_TO_MSS_GLOBAL_INTS*/, \
 190:../src/platform/mpfs_hal/common/mss_h2f.c **** 
 191:../src/platform/mpfs_hal/common/mss_h2f.c ****     M2F_MAPPING_INVALID /*MSS_INT_F2M_30_PLIC        = 135 + OFFSET_TO_MSS_GLOBAL_INTS*/, \
 192:../src/platform/mpfs_hal/common/mss_h2f.c ****     M2F_MAPPING_INVALID /*MSS_INT_F2M_31_PLIC        = 136 + OFFSET_TO_MSS_GLOBAL_INTS*/, \
 193:../src/platform/mpfs_hal/common/mss_h2f.c **** 
 194:../src/platform/mpfs_hal/common/mss_h2f.c ****     M2F_MAPPING_INVALID /*MSS_INT_F2M_32_PLIC        = 137 + OFFSET_TO_MSS_GLOBAL_INTS*/, \
 195:../src/platform/mpfs_hal/common/mss_h2f.c ****     M2F_MAPPING_INVALID /*MSS_INT_F2M_33_PLIC        = 138 + OFFSET_TO_MSS_GLOBAL_INTS*/, \
 196:../src/platform/mpfs_hal/common/mss_h2f.c ****     M2F_MAPPING_INVALID /*MSS_INT_F2M_34_PLIC        = 139 + OFFSET_TO_MSS_GLOBAL_INTS*/, \
 197:../src/platform/mpfs_hal/common/mss_h2f.c ****     M2F_MAPPING_INVALID /*MSS_INT_F2M_35_PLIC        = 140 + OFFSET_TO_MSS_GLOBAL_INTS*/, \
 198:../src/platform/mpfs_hal/common/mss_h2f.c ****     M2F_MAPPING_INVALID /*MSS_INT_F2M_36_PLIC        = 141 + OFFSET_TO_MSS_GLOBAL_INTS*/, \
 199:../src/platform/mpfs_hal/common/mss_h2f.c ****     M2F_MAPPING_INVALID /*MSS_INT_F2M_37_PLIC        = 142 + OFFSET_TO_MSS_GLOBAL_INTS*/, \
 200:../src/platform/mpfs_hal/common/mss_h2f.c ****     M2F_MAPPING_INVALID /*MSS_INT_F2M_38_PLIC        = 143 + OFFSET_TO_MSS_GLOBAL_INTS*/, \
 201:../src/platform/mpfs_hal/common/mss_h2f.c ****     M2F_MAPPING_INVALID /*MSS_INT_F2M_39_PLIC        = 144 + OFFSET_TO_MSS_GLOBAL_INTS*/, \
 202:../src/platform/mpfs_hal/common/mss_h2f.c ****     M2F_MAPPING_INVALID /*MSS_INT_F2M_40_PLIC        = 145 + OFFSET_TO_MSS_GLOBAL_INTS*/, \
 203:../src/platform/mpfs_hal/common/mss_h2f.c ****     M2F_MAPPING_INVALID /*MSS_INT_F2M_41_PLIC        = 146 + OFFSET_TO_MSS_GLOBAL_INTS*/, \
 204:../src/platform/mpfs_hal/common/mss_h2f.c **** 
 205:../src/platform/mpfs_hal/common/mss_h2f.c ****     M2F_MAPPING_INVALID /*MSS_INT_F2M_42_PLIC        = 147 + OFFSET_TO_MSS_GLOBAL_INTS*/, \
 206:../src/platform/mpfs_hal/common/mss_h2f.c ****     M2F_MAPPING_INVALID /*MSS_INT_F2M_43_PLIC        = 148 + OFFSET_TO_MSS_GLOBAL_INTS*/, \
 207:../src/platform/mpfs_hal/common/mss_h2f.c ****     M2F_MAPPING_INVALID /*MSS_INT_F2M_44_PLIC        = 149 + OFFSET_TO_MSS_GLOBAL_INTS*/, \
 208:../src/platform/mpfs_hal/common/mss_h2f.c ****     M2F_MAPPING_INVALID /*MSS_INT_F2M_45_PLIC        = 150 + OFFSET_TO_MSS_GLOBAL_INTS*/, \
 209:../src/platform/mpfs_hal/common/mss_h2f.c ****     M2F_MAPPING_INVALID /*MSS_INT_F2M_46_PLIC        = 151 + OFFSET_TO_MSS_GLOBAL_INTS*/, \
 210:../src/platform/mpfs_hal/common/mss_h2f.c ****     M2F_MAPPING_INVALID /*MSS_INT_F2M_47_PLIC        = 152 + OFFSET_TO_MSS_GLOBAL_INTS*/, \
 211:../src/platform/mpfs_hal/common/mss_h2f.c ****     M2F_MAPPING_INVALID /*MSS_INT_F2M_48_PLIC        = 153 + OFFSET_TO_MSS_GLOBAL_INTS*/, \
 212:../src/platform/mpfs_hal/common/mss_h2f.c ****     M2F_MAPPING_INVALID /*MSS_INT_F2M_49_PLIC        = 154 + OFFSET_TO_MSS_GLOBAL_INTS*/, \
 213:../src/platform/mpfs_hal/common/mss_h2f.c ****     M2F_MAPPING_INVALID /*MSS_INT_F2M_50_PLIC        = 155 + OFFSET_TO_MSS_GLOBAL_INTS*/, \
 214:../src/platform/mpfs_hal/common/mss_h2f.c ****     M2F_MAPPING_INVALID /*MSS_INT_F2M_51_PLIC        = 156 + OFFSET_TO_MSS_GLOBAL_INTS*/, \
 215:../src/platform/mpfs_hal/common/mss_h2f.c **** 
 216:../src/platform/mpfs_hal/common/mss_h2f.c ****     M2F_MAPPING_INVALID /*MSS_INT_F2M_52_PLIC        = 157 + OFFSET_TO_MSS_GLOBAL_INTS*/, \
 217:../src/platform/mpfs_hal/common/mss_h2f.c ****     M2F_MAPPING_INVALID /*MSS_INT_F2M_53_PLIC        = 158 + OFFSET_TO_MSS_GLOBAL_INTS*/, \
 218:../src/platform/mpfs_hal/common/mss_h2f.c ****     M2F_MAPPING_INVALID /*MSS_INT_F2M_54_PLIC        = 159 + OFFSET_TO_MSS_GLOBAL_INTS*/, \
 219:../src/platform/mpfs_hal/common/mss_h2f.c ****     M2F_MAPPING_INVALID /*MSS_INT_F2M_55_PLIC        = 160 + OFFSET_TO_MSS_GLOBAL_INTS*/, \
 220:../src/platform/mpfs_hal/common/mss_h2f.c ****     M2F_MAPPING_INVALID /*MSS_INT_F2M_56_PLIC        = 161 + OFFSET_TO_MSS_GLOBAL_INTS*/, \
 221:../src/platform/mpfs_hal/common/mss_h2f.c ****     M2F_MAPPING_INVALID /*MSS_INT_F2M_57_PLIC        = 162 + OFFSET_TO_MSS_GLOBAL_INTS*/, \
 222:../src/platform/mpfs_hal/common/mss_h2f.c ****     M2F_MAPPING_INVALID /*MSS_INT_F2M_58_PLIC        = 163 + OFFSET_TO_MSS_GLOBAL_INTS*/, \
 223:../src/platform/mpfs_hal/common/mss_h2f.c ****     M2F_MAPPING_INVALID /*MSS_INT_F2M_59_PLIC        = 164 + OFFSET_TO_MSS_GLOBAL_INTS*/, \
 224:../src/platform/mpfs_hal/common/mss_h2f.c ****     M2F_MAPPING_INVALID /*MSS_INT_F2M_60_PLIC        = 165 + OFFSET_TO_MSS_GLOBAL_INTS*/, \
 225:../src/platform/mpfs_hal/common/mss_h2f.c ****     M2F_MAPPING_INVALID /*MSS_INT_F2M_61_PLIC        = 166 + OFFSET_TO_MSS_GLOBAL_INTS*/, \
 226:../src/platform/mpfs_hal/common/mss_h2f.c **** 
 227:../src/platform/mpfs_hal/common/mss_h2f.c ****     M2F_MAPPING_INVALID /*MSS_INT_F2M_62_PLIC        = 167 + OFFSET_TO_MSS_GLOBAL_INTS*/, \
 228:../src/platform/mpfs_hal/common/mss_h2f.c ****     M2F_MAPPING_INVALID /*MSS_INT_F2M_63_PLIC        = 168 + OFFSET_TO_MSS_GLOBAL_INTS*/, \
 229:../src/platform/mpfs_hal/common/mss_h2f.c **** 
 230:../src/platform/mpfs_hal/common/mss_h2f.c ****     M2F_MAPPING_INVALID /*BUS_ERROR_UNIT_HART_0    = 182*/, \
 231:../src/platform/mpfs_hal/common/mss_h2f.c ****     M2F_MAPPING_INVALID /*BUS_ERROR_UNIT_HART_1    = 183*/, \
 232:../src/platform/mpfs_hal/common/mss_h2f.c ****     M2F_MAPPING_INVALID /*BUS_ERROR_UNIT_HART_2    = 184*/, \
 233:../src/platform/mpfs_hal/common/mss_h2f.c ****     M2F_MAPPING_INVALID /*BUS_ERROR_UNIT_HART_3    = 185*/, \
 234:../src/platform/mpfs_hal/common/mss_h2f.c ****     M2F_MAPPING_INVALID /*BUS_ERROR_UNIT_HART_4    = 186 */
 235:../src/platform/mpfs_hal/common/mss_h2f.c **** 
 236:../src/platform/mpfs_hal/common/mss_h2f.c **** };
 237:../src/platform/mpfs_hal/common/mss_h2f.c **** 
 238:../src/platform/mpfs_hal/common/mss_h2f.c **** 
 239:../src/platform/mpfs_hal/common/mss_h2f.c **** /**
 240:../src/platform/mpfs_hal/common/mss_h2f.c ****  * get source to fabric signal mapping
 241:../src/platform/mpfs_hal/common/mss_h2f.c ****  * @param source_int
 242:../src/platform/mpfs_hal/common/mss_h2f.c ****  * @return
 243:../src/platform/mpfs_hal/common/mss_h2f.c ****  */
 244:../src/platform/mpfs_hal/common/mss_h2f.c **** static uint32_t get_corresponding_m2f_output(uint32_t source_int)
 245:../src/platform/mpfs_hal/common/mss_h2f.c **** {
 207              		.loc 1 245 1
 208              		.cfi_startproc
 209 0000 7971     		addi	sp,sp,-48
 210              		.cfi_def_cfa_offset 48
 211 0002 22F4     		sd	s0,40(sp)
 212              		.cfi_offset 8, -8
 213 0004 0018     		addi	s0,sp,48
 214              		.cfi_def_cfa 8, 0
 215 0006 AA87     		mv	a5,a0
 216 0008 232EF4FC 		sw	a5,-36(s0)
 246:../src/platform/mpfs_hal/common/mss_h2f.c ****     uint32_t m2f_line = M2F_int_mapping[source_int];
 217              		.loc 1 246 40
 218 000c 17070000 		lla	a4,M2F_int_mapping
 218      13070700 
 219 0014 8367C4FD 		lwu	a5,-36(s0)
 220 0018 BA97     		add	a5,a4,a5
 221 001a 83C70700 		lbu	a5,0(a5)
 222              		.loc 1 246 14
 223 001e 2326F4FE 		sw	a5,-20(s0)
 247:../src/platform/mpfs_hal/common/mss_h2f.c **** 
 248:../src/platform/mpfs_hal/common/mss_h2f.c ****     if(m2f_line < M2F_MAPPING_INVALID) /* if no error */
 224              		.loc 1 248 7
 225 0022 8327C4FE 		lw	a5,-20(s0)
 226 0026 1B870700 		sext.w	a4,a5
 227 002a 9307E00F 		li	a5,254
 228 002e 63E9E700 		bgtu	a4,a5,.L2
 249:../src/platform/mpfs_hal/common/mss_h2f.c ****     {
 250:../src/platform/mpfs_hal/common/mss_h2f.c ****         return(0x01U << m2f_line);
 229              		.loc 1 250 22
 230 0032 8327C4FE 		lw	a5,-20(s0)
 231 0036 0547     		li	a4,1
 232 0038 BB17F700 		sllw	a5,a4,a5
 233 003c 8127     		sext.w	a5,a5
 234 003e 19A0     		j	.L3
 235              	.L2:
 251:../src/platform/mpfs_hal/common/mss_h2f.c ****     }
 252:../src/platform/mpfs_hal/common/mss_h2f.c **** 
 253:../src/platform/mpfs_hal/common/mss_h2f.c ****     return(m2f_line);
 236              		.loc 1 253 11
 237 0040 8327C4FE 		lw	a5,-20(s0)
 238              	.L3:
 254:../src/platform/mpfs_hal/common/mss_h2f.c **** 
 255:../src/platform/mpfs_hal/common/mss_h2f.c **** }
 239              		.loc 1 255 1
 240 0044 3E85     		mv	a0,a5
 241 0046 2274     		ld	s0,40(sp)
 242              		.cfi_restore 8
 243              		.cfi_def_cfa 2, 48
 244 0048 4561     		addi	sp,sp,48
 245              		.cfi_def_cfa_offset 0
 246 004a 8280     		jr	ra
 247              		.cfi_endproc
 248              	.LFE11:
 250              		.section	.text.reset_m2f,"ax",@progbits
 251              		.align	1
 252              		.globl	reset_m2f
 254              	reset_m2f:
 255              	.LFB12:
 256:../src/platform/mpfs_hal/common/mss_h2f.c **** 
 257:../src/platform/mpfs_hal/common/mss_h2f.c **** /**
 258:../src/platform/mpfs_hal/common/mss_h2f.c ****  * set M2F controller to reset to defaults- disabled
 259:../src/platform/mpfs_hal/common/mss_h2f.c ****  */
 260:../src/platform/mpfs_hal/common/mss_h2f.c **** void reset_m2f(void)
 261:../src/platform/mpfs_hal/common/mss_h2f.c **** {
 256              		.loc 1 261 1
 257              		.cfi_startproc
 258 0000 0111     		addi	sp,sp,-32
 259              		.cfi_def_cfa_offset 32
 260 0002 22EC     		sd	s0,24(sp)
 261              		.cfi_offset 8, -8
 262 0004 0010     		addi	s0,sp,32
 263              		.cfi_def_cfa 8, 0
 262:../src/platform/mpfs_hal/common/mss_h2f.c ****     uint8_t index = 0U;
 264              		.loc 1 262 13
 265 0006 A30704FE 		sb	zero,-17(s0)
 263:../src/platform/mpfs_hal/common/mss_h2f.c ****     M2F_CONTROLLER->ENABLE = 0U;
 266              		.loc 1 263 19
 267 000a B7671220 		li	a5,538075136
 268              		.loc 1 263 28
 269 000e 23A00700 		sw	zero,0(a5)
 264:../src/platform/mpfs_hal/common/mss_h2f.c ****     while(index < 4U)
 270              		.loc 1 264 10
 271 0012 05A0     		j	.L5
 272              	.L6:
 265:../src/platform/mpfs_hal/common/mss_h2f.c ****     {
 266:../src/platform/mpfs_hal/common/mss_h2f.c ****         M2F_CONTROLLER->PLENABLE[index] = 0U;
 273              		.loc 1 266 23
 274 0014 37671220 		li	a4,538075136
 275              		.loc 1 266 33
 276 0018 8347F4FE 		lbu	a5,-17(s0)
 277 001c 8127     		sext.w	a5,a5
 278              		.loc 1 266 41
 279 001e A107     		addi	a5,a5,8
 280 0020 8A07     		slli	a5,a5,2
 281 0022 BA97     		add	a5,a4,a5
 282 0024 23A00700 		sw	zero,0(a5)
 267:../src/platform/mpfs_hal/common/mss_h2f.c ****         index++;
 283              		.loc 1 267 14
 284 0028 8347F4FE 		lbu	a5,-17(s0)
 285 002c 8527     		addiw	a5,a5,1
 286 002e A307F4FE 		sb	a5,-17(s0)
 287              	.L5:
 264:../src/platform/mpfs_hal/common/mss_h2f.c ****     while(index < 4U)
 288              		.loc 1 264 10
 289 0032 8347F4FE 		lbu	a5,-17(s0)
 290 0036 13F7F70F 		andi	a4,a5,0xff
 291 003a 8D47     		li	a5,3
 292 003c E3FCE7FC 		bleu	a4,a5,.L6
 268:../src/platform/mpfs_hal/common/mss_h2f.c ****     }
 269:../src/platform/mpfs_hal/common/mss_h2f.c **** }
 293              		.loc 1 269 1
 294 0040 0100     		nop
 295 0042 6264     		ld	s0,24(sp)
 296              		.cfi_restore 8
 297              		.cfi_def_cfa 2, 32
 298 0044 0561     		addi	sp,sp,32
 299              		.cfi_def_cfa_offset 0
 300 0046 8280     		jr	ra
 301              		.cfi_endproc
 302              	.LFE12:
 304              		.section	.text.enable_m2f_int_output,"ax",@progbits
 305              		.align	1
 306              		.globl	enable_m2f_int_output
 308              	enable_m2f_int_output:
 309              	.LFB13:
 270:../src/platform/mpfs_hal/common/mss_h2f.c **** 
 271:../src/platform/mpfs_hal/common/mss_h2f.c **** /**
 272:../src/platform/mpfs_hal/common/mss_h2f.c ****  * enables output which will mirror PLIC input. PLIC mapping given above for reference
 273:../src/platform/mpfs_hal/common/mss_h2f.c ****  * @param source_int
 274:../src/platform/mpfs_hal/common/mss_h2f.c ****  */
 275:../src/platform/mpfs_hal/common/mss_h2f.c **** void enable_m2f_int_output(uint32_t source_int)
 276:../src/platform/mpfs_hal/common/mss_h2f.c **** {
 310              		.loc 1 276 1
 311              		.cfi_startproc
 312 0000 7971     		addi	sp,sp,-48
 313              		.cfi_def_cfa_offset 48
 314 0002 06F4     		sd	ra,40(sp)
 315 0004 22F0     		sd	s0,32(sp)
 316              		.cfi_offset 1, -8
 317              		.cfi_offset 8, -16
 318 0006 0018     		addi	s0,sp,48
 319              		.cfi_def_cfa 8, 0
 320 0008 AA87     		mv	a5,a0
 321 000a 232EF4FC 		sw	a5,-36(s0)
 277:../src/platform/mpfs_hal/common/mss_h2f.c **** 
 278:../src/platform/mpfs_hal/common/mss_h2f.c ****     uint32_t output_signal = get_corresponding_m2f_output(source_int);
 322              		.loc 1 278 30
 323 000e 8327C4FD 		lw	a5,-36(s0)
 324 0012 3E85     		mv	a0,a5
 325 0014 97000000 		call	get_corresponding_m2f_output
 325      E7800000 
 326 001c AA87     		mv	a5,a0
 327 001e 2326F4FE 		sw	a5,-20(s0)
 279:../src/platform/mpfs_hal/common/mss_h2f.c **** 
 280:../src/platform/mpfs_hal/common/mss_h2f.c ****     if(output_signal != M2F_MAPPING_INVALID)
 328              		.loc 1 280 7
 329 0022 8327C4FE 		lw	a5,-20(s0)
 330 0026 1B870700 		sext.w	a4,a5
 331 002a 9307F00F 		li	a5,255
 332 002e 6300F708 		beq	a4,a5,.L9
 281:../src/platform/mpfs_hal/common/mss_h2f.c ****     {
 282:../src/platform/mpfs_hal/common/mss_h2f.c ****         source_int -= OFFSET_TO_MSS_GLOBAL_INTS;
 333              		.loc 1 282 20
 334 0032 8327C4FD 		lw	a5,-36(s0)
 335 0036 CD37     		addiw	a5,a5,-13
 336 0038 232EF4FC 		sw	a5,-36(s0)
 283:../src/platform/mpfs_hal/common/mss_h2f.c **** 
 284:../src/platform/mpfs_hal/common/mss_h2f.c ****         /* enable the input */
 285:../src/platform/mpfs_hal/common/mss_h2f.c ****         M2F_CONTROLLER->PLENABLE[source_int/32U] |= (0x01U << (source_int % 32U));
 337              		.loc 1 285 50
 338 003c 37671220 		li	a4,538075136
 339              		.loc 1 285 44
 340 0040 8327C4FD 		lw	a5,-36(s0)
 341 0044 9BD75700 		srliw	a5,a5,5
 342 0048 1B860700 		sext.w	a2,a5
 343              		.loc 1 285 50
 344 004c 93170602 		slli	a5,a2,32
 345 0050 8193     		srli	a5,a5,32
 346 0052 A107     		addi	a5,a5,8
 347 0054 8A07     		slli	a5,a5,2
 348 0056 BA97     		add	a5,a4,a5
 349 0058 9C43     		lw	a5,0(a5)
 350 005a 1B870700 		sext.w	a4,a5
 351              		.loc 1 285 75
 352 005e 8327C4FD 		lw	a5,-36(s0)
 353 0062 FD8B     		andi	a5,a5,31
 354 0064 8127     		sext.w	a5,a5
 355              		.loc 1 285 60
 356 0066 BE86     		mv	a3,a5
 357 0068 8547     		li	a5,1
 358 006a BB97D700 		sllw	a5,a5,a3
 359 006e 8127     		sext.w	a5,a5
 360              		.loc 1 285 50
 361 0070 B7661220 		li	a3,538075136
 362 0074 D98F     		or	a5,a4,a5
 363 0076 1B870700 		sext.w	a4,a5
 364 007a 93170602 		slli	a5,a2,32
 365 007e 8193     		srli	a5,a5,32
 366 0080 A107     		addi	a5,a5,8
 367 0082 8A07     		slli	a5,a5,2
 368 0084 B697     		add	a5,a3,a5
 369 0086 98C3     		sw	a4,0(a5)
 286:../src/platform/mpfs_hal/common/mss_h2f.c **** 
 287:../src/platform/mpfs_hal/common/mss_h2f.c ****         /* enable the output */
 288:../src/platform/mpfs_hal/common/mss_h2f.c ****         M2F_CONTROLLER->ENABLE |= ((output_signal<<16U) | 0x01U);
 370              		.loc 1 288 32
 371 0088 B7671220 		li	a5,538075136
 372 008c 9C43     		lw	a5,0(a5)
 373 008e 1B870700 		sext.w	a4,a5
 374              		.loc 1 288 50
 375 0092 8327C4FE 		lw	a5,-20(s0)
 376 0096 9B970701 		slliw	a5,a5,16
 377 009a 8127     		sext.w	a5,a5
 378              		.loc 1 288 32
 379 009c D98F     		or	a5,a4,a5
 380 009e 1B870700 		sext.w	a4,a5
 381 00a2 B7671220 		li	a5,538075136
 382 00a6 13671700 		ori	a4,a4,1
 383 00aa 0127     		sext.w	a4,a4
 384 00ac 98C3     		sw	a4,0(a5)
 385              	.L9:
 289:../src/platform/mpfs_hal/common/mss_h2f.c ****     }
 290:../src/platform/mpfs_hal/common/mss_h2f.c **** }
 386              		.loc 1 290 1
 387 00ae 0100     		nop
 388 00b0 A270     		ld	ra,40(sp)
 389              		.cfi_restore 1
 390 00b2 0274     		ld	s0,32(sp)
 391              		.cfi_restore 8
 392              		.cfi_def_cfa 2, 48
 393 00b4 4561     		addi	sp,sp,48
 394              		.cfi_def_cfa_offset 0
 395 00b6 8280     		jr	ra
 396              		.cfi_endproc
 397              	.LFE13:
 399              		.section	.text.disable_m2f_int_output,"ax",@progbits
 400              		.align	1
 401              		.globl	disable_m2f_int_output
 403              	disable_m2f_int_output:
 404              	.LFB14:
 291:../src/platform/mpfs_hal/common/mss_h2f.c **** 
 292:../src/platform/mpfs_hal/common/mss_h2f.c **** 
 293:../src/platform/mpfs_hal/common/mss_h2f.c **** /**
 294:../src/platform/mpfs_hal/common/mss_h2f.c ****  * enables output which will mirror PLIC input. PLIC mapping given above for reference
 295:../src/platform/mpfs_hal/common/mss_h2f.c ****  * @param source_int
 296:../src/platform/mpfs_hal/common/mss_h2f.c ****  */
 297:../src/platform/mpfs_hal/common/mss_h2f.c **** void disable_m2f_int_output(uint32_t source_int)
 298:../src/platform/mpfs_hal/common/mss_h2f.c **** {
 405              		.loc 1 298 1
 406              		.cfi_startproc
 407 0000 7971     		addi	sp,sp,-48
 408              		.cfi_def_cfa_offset 48
 409 0002 06F4     		sd	ra,40(sp)
 410 0004 22F0     		sd	s0,32(sp)
 411              		.cfi_offset 1, -8
 412              		.cfi_offset 8, -16
 413 0006 0018     		addi	s0,sp,48
 414              		.cfi_def_cfa 8, 0
 415 0008 AA87     		mv	a5,a0
 416 000a 232EF4FC 		sw	a5,-36(s0)
 299:../src/platform/mpfs_hal/common/mss_h2f.c ****     uint32_t output_signal = get_corresponding_m2f_output(source_int);
 417              		.loc 1 299 30
 418 000e 8327C4FD 		lw	a5,-36(s0)
 419 0012 3E85     		mv	a0,a5
 420 0014 97000000 		call	get_corresponding_m2f_output
 420      E7800000 
 421 001c AA87     		mv	a5,a0
 422 001e 2326F4FE 		sw	a5,-20(s0)
 300:../src/platform/mpfs_hal/common/mss_h2f.c **** 
 301:../src/platform/mpfs_hal/common/mss_h2f.c ****     if(output_signal != M2F_MAPPING_INVALID)
 423              		.loc 1 301 7
 424 0022 8327C4FE 		lw	a5,-20(s0)
 425 0026 1B870700 		sext.w	a4,a5
 426 002a 9307F00F 		li	a5,255
 427 002e 6309F706 		beq	a4,a5,.L12
 302:../src/platform/mpfs_hal/common/mss_h2f.c ****     {
 303:../src/platform/mpfs_hal/common/mss_h2f.c ****         /* enable the input */
 304:../src/platform/mpfs_hal/common/mss_h2f.c ****         M2F_CONTROLLER->PLENABLE[source_int/32U] &= ~(source_int % 32U);
 428              		.loc 1 304 50
 429 0032 37671220 		li	a4,538075136
 430              		.loc 1 304 44
 431 0036 8327C4FD 		lw	a5,-36(s0)
 432 003a 9BD75700 		srliw	a5,a5,5
 433 003e 1B860700 		sext.w	a2,a5
 434              		.loc 1 304 50
 435 0042 93170602 		slli	a5,a2,32
 436 0046 8193     		srli	a5,a5,32
 437 0048 A107     		addi	a5,a5,8
 438 004a 8A07     		slli	a5,a5,2
 439 004c BA97     		add	a5,a4,a5
 440 004e 9C43     		lw	a5,0(a5)
 441 0050 1B870700 		sext.w	a4,a5
 442              		.loc 1 304 66
 443 0054 8327C4FD 		lw	a5,-36(s0)
 444 0058 FD8B     		andi	a5,a5,31
 445 005a 8127     		sext.w	a5,a5
 446              		.loc 1 304 53
 447 005c 93C7F7FF 		not	a5,a5
 448 0060 8127     		sext.w	a5,a5
 449              		.loc 1 304 50
 450 0062 B7661220 		li	a3,538075136
 451 0066 F98F     		and	a5,a4,a5
 452 0068 1B870700 		sext.w	a4,a5
 453 006c 93170602 		slli	a5,a2,32
 454 0070 8193     		srli	a5,a5,32
 455 0072 A107     		addi	a5,a5,8
 456 0074 8A07     		slli	a5,a5,2
 457 0076 B697     		add	a5,a3,a5
 458 0078 98C3     		sw	a4,0(a5)
 305:../src/platform/mpfs_hal/common/mss_h2f.c ****         /* enable the output */
 306:../src/platform/mpfs_hal/common/mss_h2f.c ****         M2F_CONTROLLER->ENABLE &= ~(((output_signal<<16U)));
 459              		.loc 1 306 32
 460 007a B7671220 		li	a5,538075136
 461 007e 9C43     		lw	a5,0(a5)
 462 0080 9B860700 		sext.w	a3,a5
 463              		.loc 1 306 52
 464 0084 8327C4FE 		lw	a5,-20(s0)
 465 0088 9B970701 		slliw	a5,a5,16
 466 008c 8127     		sext.w	a5,a5
 467              		.loc 1 306 35
 468 008e 93C7F7FF 		not	a5,a5
 469 0092 1B870700 		sext.w	a4,a5
 470              		.loc 1 306 32
 471 0096 B7671220 		li	a5,538075136
 472 009a 758F     		and	a4,a3,a4
 473 009c 0127     		sext.w	a4,a4
 474 009e 98C3     		sw	a4,0(a5)
 475              	.L12:
 307:../src/platform/mpfs_hal/common/mss_h2f.c ****     }
 308:../src/platform/mpfs_hal/common/mss_h2f.c **** }
 476              		.loc 1 308 1
 477 00a0 0100     		nop
 478 00a2 A270     		ld	ra,40(sp)
 479              		.cfi_restore 1
 480 00a4 0274     		ld	s0,32(sp)
 481              		.cfi_restore 8
 482              		.cfi_def_cfa 2, 48
 483 00a6 4561     		addi	sp,sp,48
 484              		.cfi_def_cfa_offset 0
 485 00a8 8280     		jr	ra
 486              		.cfi_endproc
 487              	.LFE14:
 489              		.text
 490              	.Letext0:
 491              		.file 2 "/home/vinay/Desktop/soft_console/SoftConsole-v2022.2-RISC-V-747/riscv-unknown-elf-gcc/ris
 492              		.file 3 "/home/vinay/Desktop/soft_console/SoftConsole-v2022.2-RISC-V-747/riscv-unknown-elf-gcc/ris
 493              		.file 4 "../src/platform/mpfs_hal/common/mss_h2f.h"
 494              		.file 5 "../src/platform/mpfs_hal/common/mss_plic.h"