   1              		.file	"mss_irq_handler_stubs.c"
   2              		.option nopic
   3              		.attribute arch, "rv64i2p0_m2p0_a2p0_f2p0_d2p0_c2p0"
   4              		.attribute unaligned_access, 0
   5              		.attribute stack_align, 16
   6              		.text
   7              	.Ltext0:
   8              		.cfi_sections	.debug_frame
   9              		.section	.text.handle_m_ext_interrupt,"ax",@progbits
  10              		.align	1
  11              		.weak	handle_m_ext_interrupt
  13              	handle_m_ext_interrupt:
  14              	.LFB19:
  15              		.file 1 "../src/platform/mpfs_hal/common/mss_irq_handler_stubs.c"
   1:../src/platform/mpfs_hal/common/mss_irq_handler_stubs.c **** /*******************************************************************************
   2:../src/platform/mpfs_hal/common/mss_irq_handler_stubs.c ****  * Copyright 2019-2022 Microchip FPGA Embedded Systems Solutions.
   3:../src/platform/mpfs_hal/common/mss_irq_handler_stubs.c ****  *
   4:../src/platform/mpfs_hal/common/mss_irq_handler_stubs.c ****  * SPDX-License-Identifier: MIT
   5:../src/platform/mpfs_hal/common/mss_irq_handler_stubs.c ****  *
   6:../src/platform/mpfs_hal/common/mss_irq_handler_stubs.c ****  * MPFS HAL Embedded Software
   7:../src/platform/mpfs_hal/common/mss_irq_handler_stubs.c ****  *
   8:../src/platform/mpfs_hal/common/mss_irq_handler_stubs.c ****  */
   9:../src/platform/mpfs_hal/common/mss_irq_handler_stubs.c **** 
  10:../src/platform/mpfs_hal/common/mss_irq_handler_stubs.c **** /*******************************************************************************
  11:../src/platform/mpfs_hal/common/mss_irq_handler_stubs.c ****  *
  12:../src/platform/mpfs_hal/common/mss_irq_handler_stubs.c ****  * @file mss_irq_handler_stubs.c
  13:../src/platform/mpfs_hal/common/mss_irq_handler_stubs.c ****  * @author Microchip-FPGA Embedded Systems Solutions
  14:../src/platform/mpfs_hal/common/mss_irq_handler_stubs.c ****  * @brief MPFS MSS Interrupt Function stubs.
  15:../src/platform/mpfs_hal/common/mss_irq_handler_stubs.c ****  *
  16:../src/platform/mpfs_hal/common/mss_irq_handler_stubs.c ****  * The functions below will only be linked with the application code if the user
  17:../src/platform/mpfs_hal/common/mss_irq_handler_stubs.c ****  * does not provide an implementation for these functions. These functions are
  18:../src/platform/mpfs_hal/common/mss_irq_handler_stubs.c ****  * defined with weak linking so that they can be overridden by a function with
  19:../src/platform/mpfs_hal/common/mss_irq_handler_stubs.c ****  * same prototype in the user's application code.
  20:../src/platform/mpfs_hal/common/mss_irq_handler_stubs.c ****  *
  21:../src/platform/mpfs_hal/common/mss_irq_handler_stubs.c ****  */
  22:../src/platform/mpfs_hal/common/mss_irq_handler_stubs.c **** #include <stdint.h>
  23:../src/platform/mpfs_hal/common/mss_irq_handler_stubs.c **** #include "mpfs_hal/mss_hal.h"
  24:../src/platform/mpfs_hal/common/mss_irq_handler_stubs.c **** 
  25:../src/platform/mpfs_hal/common/mss_irq_handler_stubs.c **** 
  26:../src/platform/mpfs_hal/common/mss_irq_handler_stubs.c **** __attribute__((weak)) void handle_m_ext_interrupt(void)
  27:../src/platform/mpfs_hal/common/mss_irq_handler_stubs.c **** {
  16              		.loc 1 27 1
  17              		.cfi_startproc
  18 0000 4111     		addi	sp,sp,-16
  19              		.cfi_def_cfa_offset 16
  20 0002 22E4     		sd	s0,8(sp)
  21              		.cfi_offset 8, -8
  22 0004 0008     		addi	s0,sp,16
  23              		.cfi_def_cfa 8, 0
  28:../src/platform/mpfs_hal/common/mss_irq_handler_stubs.c **** 
  29:../src/platform/mpfs_hal/common/mss_irq_handler_stubs.c **** }
  24              		.loc 1 29 1
  25 0006 0100     		nop
  26 0008 2264     		ld	s0,8(sp)
  27              		.cfi_restore 8
  28              		.cfi_def_cfa 2, 16
  29 000a 4101     		addi	sp,sp,16
  30              		.cfi_def_cfa_offset 0
  31 000c 8280     		jr	ra
  32              		.cfi_endproc
  33              	.LFE19:
  35              		.section	.text.E51_software_IRQHandler,"ax",@progbits
  36              		.align	1
  37              		.weak	E51_software_IRQHandler
  39              	E51_software_IRQHandler:
  40              	.LFB20:
  30:../src/platform/mpfs_hal/common/mss_irq_handler_stubs.c **** 
  31:../src/platform/mpfs_hal/common/mss_irq_handler_stubs.c **** __attribute__((weak)) void E51_software_IRQHandler(void)
  32:../src/platform/mpfs_hal/common/mss_irq_handler_stubs.c **** {
  41              		.loc 1 32 1
  42              		.cfi_startproc
  43 0000 4111     		addi	sp,sp,-16
  44              		.cfi_def_cfa_offset 16
  45 0002 22E4     		sd	s0,8(sp)
  46              		.cfi_offset 8, -8
  47 0004 0008     		addi	s0,sp,16
  48              		.cfi_def_cfa 8, 0
  33:../src/platform/mpfs_hal/common/mss_irq_handler_stubs.c **** 
  34:../src/platform/mpfs_hal/common/mss_irq_handler_stubs.c **** }
  49              		.loc 1 34 1
  50 0006 0100     		nop
  51 0008 2264     		ld	s0,8(sp)
  52              		.cfi_restore 8
  53              		.cfi_def_cfa 2, 16
  54 000a 4101     		addi	sp,sp,16
  55              		.cfi_def_cfa_offset 0
  56 000c 8280     		jr	ra
  57              		.cfi_endproc
  58              	.LFE20:
  60              		.section	.text.U54_1_software_IRQHandler,"ax",@progbits
  61              		.align	1
  62              		.weak	U54_1_software_IRQHandler
  64              	U54_1_software_IRQHandler:
  65              	.LFB21:
  35:../src/platform/mpfs_hal/common/mss_irq_handler_stubs.c **** 
  36:../src/platform/mpfs_hal/common/mss_irq_handler_stubs.c **** __attribute__((weak)) void U54_1_software_IRQHandler(void)
  37:../src/platform/mpfs_hal/common/mss_irq_handler_stubs.c **** {
  66              		.loc 1 37 1
  67              		.cfi_startproc
  68 0000 4111     		addi	sp,sp,-16
  69              		.cfi_def_cfa_offset 16
  70 0002 22E4     		sd	s0,8(sp)
  71              		.cfi_offset 8, -8
  72 0004 0008     		addi	s0,sp,16
  73              		.cfi_def_cfa 8, 0
  38:../src/platform/mpfs_hal/common/mss_irq_handler_stubs.c **** 
  39:../src/platform/mpfs_hal/common/mss_irq_handler_stubs.c **** }
  74              		.loc 1 39 1
  75 0006 0100     		nop
  76 0008 2264     		ld	s0,8(sp)
  77              		.cfi_restore 8
  78              		.cfi_def_cfa 2, 16
  79 000a 4101     		addi	sp,sp,16
  80              		.cfi_def_cfa_offset 0
  81 000c 8280     		jr	ra
  82              		.cfi_endproc
  83              	.LFE21:
  85              		.section	.text.U54_2_software_IRQHandler,"ax",@progbits
  86              		.align	1
  87              		.weak	U54_2_software_IRQHandler
  89              	U54_2_software_IRQHandler:
  90              	.LFB22:
  40:../src/platform/mpfs_hal/common/mss_irq_handler_stubs.c **** 
  41:../src/platform/mpfs_hal/common/mss_irq_handler_stubs.c **** __attribute__((weak)) void U54_2_software_IRQHandler(void)
  42:../src/platform/mpfs_hal/common/mss_irq_handler_stubs.c **** {
  91              		.loc 1 42 1
  92              		.cfi_startproc
  93 0000 4111     		addi	sp,sp,-16
  94              		.cfi_def_cfa_offset 16
  95 0002 22E4     		sd	s0,8(sp)
  96              		.cfi_offset 8, -8
  97 0004 0008     		addi	s0,sp,16
  98              		.cfi_def_cfa 8, 0
  43:../src/platform/mpfs_hal/common/mss_irq_handler_stubs.c **** 
  44:../src/platform/mpfs_hal/common/mss_irq_handler_stubs.c **** }
  99              		.loc 1 44 1
 100 0006 0100     		nop
 101 0008 2264     		ld	s0,8(sp)
 102              		.cfi_restore 8
 103              		.cfi_def_cfa 2, 16
 104 000a 4101     		addi	sp,sp,16
 105              		.cfi_def_cfa_offset 0
 106 000c 8280     		jr	ra
 107              		.cfi_endproc
 108              	.LFE22:
 110              		.section	.text.U54_3_software_IRQHandler,"ax",@progbits
 111              		.align	1
 112              		.weak	U54_3_software_IRQHandler
 114              	U54_3_software_IRQHandler:
 115              	.LFB23:
  45:../src/platform/mpfs_hal/common/mss_irq_handler_stubs.c **** 
  46:../src/platform/mpfs_hal/common/mss_irq_handler_stubs.c **** __attribute__((weak)) void U54_3_software_IRQHandler(void)
  47:../src/platform/mpfs_hal/common/mss_irq_handler_stubs.c **** {
 116              		.loc 1 47 1
 117              		.cfi_startproc
 118 0000 4111     		addi	sp,sp,-16
 119              		.cfi_def_cfa_offset 16
 120 0002 22E4     		sd	s0,8(sp)
 121              		.cfi_offset 8, -8
 122 0004 0008     		addi	s0,sp,16
 123              		.cfi_def_cfa 8, 0
  48:../src/platform/mpfs_hal/common/mss_irq_handler_stubs.c **** 
  49:../src/platform/mpfs_hal/common/mss_irq_handler_stubs.c **** }
 124              		.loc 1 49 1
 125 0006 0100     		nop
 126 0008 2264     		ld	s0,8(sp)
 127              		.cfi_restore 8
 128              		.cfi_def_cfa 2, 16
 129 000a 4101     		addi	sp,sp,16
 130              		.cfi_def_cfa_offset 0
 131 000c 8280     		jr	ra
 132              		.cfi_endproc
 133              	.LFE23:
 135              		.section	.text.U54_4_software_IRQHandler,"ax",@progbits
 136              		.align	1
 137              		.weak	U54_4_software_IRQHandler
 139              	U54_4_software_IRQHandler:
 140              	.LFB24:
  50:../src/platform/mpfs_hal/common/mss_irq_handler_stubs.c **** 
  51:../src/platform/mpfs_hal/common/mss_irq_handler_stubs.c **** __attribute__((weak)) void U54_4_software_IRQHandler(void)
  52:../src/platform/mpfs_hal/common/mss_irq_handler_stubs.c **** {
 141              		.loc 1 52 1
 142              		.cfi_startproc
 143 0000 4111     		addi	sp,sp,-16
 144              		.cfi_def_cfa_offset 16
 145 0002 22E4     		sd	s0,8(sp)
 146              		.cfi_offset 8, -8
 147 0004 0008     		addi	s0,sp,16
 148              		.cfi_def_cfa 8, 0
  53:../src/platform/mpfs_hal/common/mss_irq_handler_stubs.c **** 
  54:../src/platform/mpfs_hal/common/mss_irq_handler_stubs.c **** }
 149              		.loc 1 54 1
 150 0006 0100     		nop
 151 0008 2264     		ld	s0,8(sp)
 152              		.cfi_restore 8
 153              		.cfi_def_cfa 2, 16
 154 000a 4101     		addi	sp,sp,16
 155              		.cfi_def_cfa_offset 0
 156 000c 8280     		jr	ra
 157              		.cfi_endproc
 158              	.LFE24:
 160              		.section	.text.E51_sysTick_IRQHandler,"ax",@progbits
 161              		.align	1
 162              		.weak	E51_sysTick_IRQHandler
 164              	E51_sysTick_IRQHandler:
 165              	.LFB25:
  55:../src/platform/mpfs_hal/common/mss_irq_handler_stubs.c **** 
  56:../src/platform/mpfs_hal/common/mss_irq_handler_stubs.c **** __attribute__((weak)) void E51_sysTick_IRQHandler(void)
  57:../src/platform/mpfs_hal/common/mss_irq_handler_stubs.c **** {
 166              		.loc 1 57 1
 167              		.cfi_startproc
 168 0000 4111     		addi	sp,sp,-16
 169              		.cfi_def_cfa_offset 16
 170 0002 22E4     		sd	s0,8(sp)
 171              		.cfi_offset 8, -8
 172 0004 0008     		addi	s0,sp,16
 173              		.cfi_def_cfa 8, 0
  58:../src/platform/mpfs_hal/common/mss_irq_handler_stubs.c **** 
  59:../src/platform/mpfs_hal/common/mss_irq_handler_stubs.c **** }
 174              		.loc 1 59 1
 175 0006 0100     		nop
 176 0008 2264     		ld	s0,8(sp)
 177              		.cfi_restore 8
 178              		.cfi_def_cfa 2, 16
 179 000a 4101     		addi	sp,sp,16
 180              		.cfi_def_cfa_offset 0
 181 000c 8280     		jr	ra
 182              		.cfi_endproc
 183              	.LFE25:
 185              		.section	.text.U54_1_sysTick_IRQHandler,"ax",@progbits
 186              		.align	1
 187              		.weak	U54_1_sysTick_IRQHandler
 189              	U54_1_sysTick_IRQHandler:
 190              	.LFB26:
  60:../src/platform/mpfs_hal/common/mss_irq_handler_stubs.c **** 
  61:../src/platform/mpfs_hal/common/mss_irq_handler_stubs.c **** __attribute__((weak)) void U54_1_sysTick_IRQHandler(void)
  62:../src/platform/mpfs_hal/common/mss_irq_handler_stubs.c **** {
 191              		.loc 1 62 1
 192              		.cfi_startproc
 193 0000 4111     		addi	sp,sp,-16
 194              		.cfi_def_cfa_offset 16
 195 0002 22E4     		sd	s0,8(sp)
 196              		.cfi_offset 8, -8
 197 0004 0008     		addi	s0,sp,16
 198              		.cfi_def_cfa 8, 0
  63:../src/platform/mpfs_hal/common/mss_irq_handler_stubs.c **** 
  64:../src/platform/mpfs_hal/common/mss_irq_handler_stubs.c **** }
 199              		.loc 1 64 1
 200 0006 0100     		nop
 201 0008 2264     		ld	s0,8(sp)
 202              		.cfi_restore 8
 203              		.cfi_def_cfa 2, 16
 204 000a 4101     		addi	sp,sp,16
 205              		.cfi_def_cfa_offset 0
 206 000c 8280     		jr	ra
 207              		.cfi_endproc
 208              	.LFE26:
 210              		.section	.text.U54_2_sysTick_IRQHandler,"ax",@progbits
 211              		.align	1
 212              		.weak	U54_2_sysTick_IRQHandler
 214              	U54_2_sysTick_IRQHandler:
 215              	.LFB27:
  65:../src/platform/mpfs_hal/common/mss_irq_handler_stubs.c **** 
  66:../src/platform/mpfs_hal/common/mss_irq_handler_stubs.c **** __attribute__((weak)) void U54_2_sysTick_IRQHandler(void)
  67:../src/platform/mpfs_hal/common/mss_irq_handler_stubs.c **** {
 216              		.loc 1 67 1
 217              		.cfi_startproc
 218 0000 4111     		addi	sp,sp,-16
 219              		.cfi_def_cfa_offset 16
 220 0002 22E4     		sd	s0,8(sp)
 221              		.cfi_offset 8, -8
 222 0004 0008     		addi	s0,sp,16
 223              		.cfi_def_cfa 8, 0
  68:../src/platform/mpfs_hal/common/mss_irq_handler_stubs.c **** 
  69:../src/platform/mpfs_hal/common/mss_irq_handler_stubs.c **** }
 224              		.loc 1 69 1
 225 0006 0100     		nop
 226 0008 2264     		ld	s0,8(sp)
 227              		.cfi_restore 8
 228              		.cfi_def_cfa 2, 16
 229 000a 4101     		addi	sp,sp,16
 230              		.cfi_def_cfa_offset 0
 231 000c 8280     		jr	ra
 232              		.cfi_endproc
 233              	.LFE27:
 235              		.section	.text.U54_3_sysTick_IRQHandler,"ax",@progbits
 236              		.align	1
 237              		.weak	U54_3_sysTick_IRQHandler
 239              	U54_3_sysTick_IRQHandler:
 240              	.LFB28:
  70:../src/platform/mpfs_hal/common/mss_irq_handler_stubs.c **** 
  71:../src/platform/mpfs_hal/common/mss_irq_handler_stubs.c **** __attribute__((weak)) void U54_3_sysTick_IRQHandler(void)
  72:../src/platform/mpfs_hal/common/mss_irq_handler_stubs.c **** {
 241              		.loc 1 72 1
 242              		.cfi_startproc
 243 0000 4111     		addi	sp,sp,-16
 244              		.cfi_def_cfa_offset 16
 245 0002 22E4     		sd	s0,8(sp)
 246              		.cfi_offset 8, -8
 247 0004 0008     		addi	s0,sp,16
 248              		.cfi_def_cfa 8, 0
  73:../src/platform/mpfs_hal/common/mss_irq_handler_stubs.c **** 
  74:../src/platform/mpfs_hal/common/mss_irq_handler_stubs.c **** }
 249              		.loc 1 74 1
 250 0006 0100     		nop
 251 0008 2264     		ld	s0,8(sp)
 252              		.cfi_restore 8
 253              		.cfi_def_cfa 2, 16
 254 000a 4101     		addi	sp,sp,16
 255              		.cfi_def_cfa_offset 0
 256 000c 8280     		jr	ra
 257              		.cfi_endproc
 258              	.LFE28:
 260              		.section	.text.U54_4_sysTick_IRQHandler,"ax",@progbits
 261              		.align	1
 262              		.weak	U54_4_sysTick_IRQHandler
 264              	U54_4_sysTick_IRQHandler:
 265              	.LFB29:
  75:../src/platform/mpfs_hal/common/mss_irq_handler_stubs.c **** 
  76:../src/platform/mpfs_hal/common/mss_irq_handler_stubs.c **** __attribute__((weak)) void U54_4_sysTick_IRQHandler(void)
  77:../src/platform/mpfs_hal/common/mss_irq_handler_stubs.c **** {
 266              		.loc 1 77 1
 267              		.cfi_startproc
 268 0000 4111     		addi	sp,sp,-16
 269              		.cfi_def_cfa_offset 16
 270 0002 22E4     		sd	s0,8(sp)
 271              		.cfi_offset 8, -8
 272 0004 0008     		addi	s0,sp,16
 273              		.cfi_def_cfa 8, 0
  78:../src/platform/mpfs_hal/common/mss_irq_handler_stubs.c **** 
  79:../src/platform/mpfs_hal/common/mss_irq_handler_stubs.c **** }
 274              		.loc 1 79 1
 275 0006 0100     		nop
 276 0008 2264     		ld	s0,8(sp)
 277              		.cfi_restore 8
 278              		.cfi_def_cfa 2, 16
 279 000a 4101     		addi	sp,sp,16
 280              		.cfi_def_cfa_offset 0
 281 000c 8280     		jr	ra
 282              		.cfi_endproc
 283              	.LFE29:
 285              		.section	.text.PLIC_Invalid_IRQHandler,"ax",@progbits
 286              		.align	1
 287              		.weak	PLIC_Invalid_IRQHandler
 289              	PLIC_Invalid_IRQHandler:
 290              	.LFB30:
  80:../src/platform/mpfs_hal/common/mss_irq_handler_stubs.c **** 
  81:../src/platform/mpfs_hal/common/mss_irq_handler_stubs.c **** __attribute__((weak))  uint8_t PLIC_Invalid_IRQHandler(void)
  82:../src/platform/mpfs_hal/common/mss_irq_handler_stubs.c **** {
 291              		.loc 1 82 1
 292              		.cfi_startproc
 293 0000 4111     		addi	sp,sp,-16
 294              		.cfi_def_cfa_offset 16
 295 0002 22E4     		sd	s0,8(sp)
 296              		.cfi_offset 8, -8
 297 0004 0008     		addi	s0,sp,16
 298              		.cfi_def_cfa 8, 0
  83:../src/platform/mpfs_hal/common/mss_irq_handler_stubs.c ****     return(0U);
 299              		.loc 1 83 11
 300 0006 8147     		li	a5,0
  84:../src/platform/mpfs_hal/common/mss_irq_handler_stubs.c **** }
 301              		.loc 1 84 1
 302 0008 3E85     		mv	a0,a5
 303 000a 2264     		ld	s0,8(sp)
 304              		.cfi_restore 8
 305              		.cfi_def_cfa 2, 16
 306 000c 4101     		addi	sp,sp,16
 307              		.cfi_def_cfa_offset 0
 308 000e 8280     		jr	ra
 309              		.cfi_endproc
 310              	.LFE30:
 312              		.section	.text.PLIC_dma_ch0_DONE_IRQHandler,"ax",@progbits
 313              		.align	1
 314              		.weak	PLIC_dma_ch0_DONE_IRQHandler
 316              	PLIC_dma_ch0_DONE_IRQHandler:
 317              	.LFB31:
  85:../src/platform/mpfs_hal/common/mss_irq_handler_stubs.c **** 
  86:../src/platform/mpfs_hal/common/mss_irq_handler_stubs.c **** __attribute__((weak))  uint8_t PLIC_dma_ch0_DONE_IRQHandler(void)
  87:../src/platform/mpfs_hal/common/mss_irq_handler_stubs.c **** {
 318              		.loc 1 87 1
 319              		.cfi_startproc
 320 0000 4111     		addi	sp,sp,-16
 321              		.cfi_def_cfa_offset 16
 322 0002 22E4     		sd	s0,8(sp)
 323              		.cfi_offset 8, -8
 324 0004 0008     		addi	s0,sp,16
 325              		.cfi_def_cfa 8, 0
  88:../src/platform/mpfs_hal/common/mss_irq_handler_stubs.c ****     return(0U);
 326              		.loc 1 88 11
 327 0006 8147     		li	a5,0
  89:../src/platform/mpfs_hal/common/mss_irq_handler_stubs.c **** }
 328              		.loc 1 89 1
 329 0008 3E85     		mv	a0,a5
 330 000a 2264     		ld	s0,8(sp)
 331              		.cfi_restore 8
 332              		.cfi_def_cfa 2, 16
 333 000c 4101     		addi	sp,sp,16
 334              		.cfi_def_cfa_offset 0
 335 000e 8280     		jr	ra
 336              		.cfi_endproc
 337              	.LFE31:
 339              		.section	.text.PLIC_dma_ch0_ERR_IRQHandler,"ax",@progbits
 340              		.align	1
 341              		.weak	PLIC_dma_ch0_ERR_IRQHandler
 343              	PLIC_dma_ch0_ERR_IRQHandler:
 344              	.LFB32:
  90:../src/platform/mpfs_hal/common/mss_irq_handler_stubs.c **** 
  91:../src/platform/mpfs_hal/common/mss_irq_handler_stubs.c **** __attribute__((weak))  uint8_t PLIC_dma_ch0_ERR_IRQHandler(void)
  92:../src/platform/mpfs_hal/common/mss_irq_handler_stubs.c **** {
 345              		.loc 1 92 1
 346              		.cfi_startproc
 347 0000 4111     		addi	sp,sp,-16
 348              		.cfi_def_cfa_offset 16
 349 0002 22E4     		sd	s0,8(sp)
 350              		.cfi_offset 8, -8
 351 0004 0008     		addi	s0,sp,16
 352              		.cfi_def_cfa 8, 0
  93:../src/platform/mpfs_hal/common/mss_irq_handler_stubs.c ****     return(0U);
 353              		.loc 1 93 11
 354 0006 8147     		li	a5,0
  94:../src/platform/mpfs_hal/common/mss_irq_handler_stubs.c **** }
 355              		.loc 1 94 1
 356 0008 3E85     		mv	a0,a5
 357 000a 2264     		ld	s0,8(sp)
 358              		.cfi_restore 8
 359              		.cfi_def_cfa 2, 16
 360 000c 4101     		addi	sp,sp,16
 361              		.cfi_def_cfa_offset 0
 362 000e 8280     		jr	ra
 363              		.cfi_endproc
 364              	.LFE32:
 366              		.section	.text.PLIC_dma_ch1_DONE_IRQHandler,"ax",@progbits
 367              		.align	1
 368              		.weak	PLIC_dma_ch1_DONE_IRQHandler
 370              	PLIC_dma_ch1_DONE_IRQHandler:
 371              	.LFB33:
  95:../src/platform/mpfs_hal/common/mss_irq_handler_stubs.c **** 
  96:../src/platform/mpfs_hal/common/mss_irq_handler_stubs.c **** __attribute__((weak))  uint8_t PLIC_dma_ch1_DONE_IRQHandler(void)
  97:../src/platform/mpfs_hal/common/mss_irq_handler_stubs.c **** {
 372              		.loc 1 97 1
 373              		.cfi_startproc
 374 0000 4111     		addi	sp,sp,-16
 375              		.cfi_def_cfa_offset 16
 376 0002 22E4     		sd	s0,8(sp)
 377              		.cfi_offset 8, -8
 378 0004 0008     		addi	s0,sp,16
 379              		.cfi_def_cfa 8, 0
  98:../src/platform/mpfs_hal/common/mss_irq_handler_stubs.c ****     return(0U);
 380              		.loc 1 98 11
 381 0006 8147     		li	a5,0
  99:../src/platform/mpfs_hal/common/mss_irq_handler_stubs.c **** }
 382              		.loc 1 99 1
 383 0008 3E85     		mv	a0,a5
 384 000a 2264     		ld	s0,8(sp)
 385              		.cfi_restore 8
 386              		.cfi_def_cfa 2, 16
 387 000c 4101     		addi	sp,sp,16
 388              		.cfi_def_cfa_offset 0
 389 000e 8280     		jr	ra
 390              		.cfi_endproc
 391              	.LFE33:
 393              		.section	.text.PLIC_dma_ch1_ERR_IRQHandler,"ax",@progbits
 394              		.align	1
 395              		.weak	PLIC_dma_ch1_ERR_IRQHandler
 397              	PLIC_dma_ch1_ERR_IRQHandler:
 398              	.LFB34:
 100:../src/platform/mpfs_hal/common/mss_irq_handler_stubs.c **** 
 101:../src/platform/mpfs_hal/common/mss_irq_handler_stubs.c **** __attribute__((weak))  uint8_t PLIC_dma_ch1_ERR_IRQHandler(void)
 102:../src/platform/mpfs_hal/common/mss_irq_handler_stubs.c **** {
 399              		.loc 1 102 1
 400              		.cfi_startproc
 401 0000 4111     		addi	sp,sp,-16
 402              		.cfi_def_cfa_offset 16
 403 0002 22E4     		sd	s0,8(sp)
 404              		.cfi_offset 8, -8
 405 0004 0008     		addi	s0,sp,16
 406              		.cfi_def_cfa 8, 0
 103:../src/platform/mpfs_hal/common/mss_irq_handler_stubs.c ****     return(0U);
 407              		.loc 1 103 11
 408 0006 8147     		li	a5,0
 104:../src/platform/mpfs_hal/common/mss_irq_handler_stubs.c **** }
 409              		.loc 1 104 1
 410 0008 3E85     		mv	a0,a5
 411 000a 2264     		ld	s0,8(sp)
 412              		.cfi_restore 8
 413              		.cfi_def_cfa 2, 16
 414 000c 4101     		addi	sp,sp,16
 415              		.cfi_def_cfa_offset 0
 416 000e 8280     		jr	ra
 417              		.cfi_endproc
 418              	.LFE34:
 420              		.section	.text.PLIC_dma_ch2_DONE_IRQHandler,"ax",@progbits
 421              		.align	1
 422              		.weak	PLIC_dma_ch2_DONE_IRQHandler
 424              	PLIC_dma_ch2_DONE_IRQHandler:
 425              	.LFB35:
 105:../src/platform/mpfs_hal/common/mss_irq_handler_stubs.c **** 
 106:../src/platform/mpfs_hal/common/mss_irq_handler_stubs.c **** __attribute__((weak))  uint8_t PLIC_dma_ch2_DONE_IRQHandler(void)
 107:../src/platform/mpfs_hal/common/mss_irq_handler_stubs.c **** {
 426              		.loc 1 107 1
 427              		.cfi_startproc
 428 0000 4111     		addi	sp,sp,-16
 429              		.cfi_def_cfa_offset 16
 430 0002 22E4     		sd	s0,8(sp)
 431              		.cfi_offset 8, -8
 432 0004 0008     		addi	s0,sp,16
 433              		.cfi_def_cfa 8, 0
 108:../src/platform/mpfs_hal/common/mss_irq_handler_stubs.c ****     return(0U);
 434              		.loc 1 108 11
 435 0006 8147     		li	a5,0
 109:../src/platform/mpfs_hal/common/mss_irq_handler_stubs.c **** }
 436              		.loc 1 109 1
 437 0008 3E85     		mv	a0,a5
 438 000a 2264     		ld	s0,8(sp)
 439              		.cfi_restore 8
 440              		.cfi_def_cfa 2, 16
 441 000c 4101     		addi	sp,sp,16
 442              		.cfi_def_cfa_offset 0
 443 000e 8280     		jr	ra
 444              		.cfi_endproc
 445              	.LFE35:
 447              		.section	.text.PLIC_dma_ch2_ERR_IRQHandler,"ax",@progbits
 448              		.align	1
 449              		.weak	PLIC_dma_ch2_ERR_IRQHandler
 451              	PLIC_dma_ch2_ERR_IRQHandler:
 452              	.LFB36:
 110:../src/platform/mpfs_hal/common/mss_irq_handler_stubs.c **** 
 111:../src/platform/mpfs_hal/common/mss_irq_handler_stubs.c **** __attribute__((weak))  uint8_t PLIC_dma_ch2_ERR_IRQHandler(void)
 112:../src/platform/mpfs_hal/common/mss_irq_handler_stubs.c **** {
 453              		.loc 1 112 1
 454              		.cfi_startproc
 455 0000 4111     		addi	sp,sp,-16
 456              		.cfi_def_cfa_offset 16
 457 0002 22E4     		sd	s0,8(sp)
 458              		.cfi_offset 8, -8
 459 0004 0008     		addi	s0,sp,16
 460              		.cfi_def_cfa 8, 0
 113:../src/platform/mpfs_hal/common/mss_irq_handler_stubs.c ****     return(0U);
 461              		.loc 1 113 11
 462 0006 8147     		li	a5,0
 114:../src/platform/mpfs_hal/common/mss_irq_handler_stubs.c **** }
 463              		.loc 1 114 1
 464 0008 3E85     		mv	a0,a5
 465 000a 2264     		ld	s0,8(sp)
 466              		.cfi_restore 8
 467              		.cfi_def_cfa 2, 16
 468 000c 4101     		addi	sp,sp,16
 469              		.cfi_def_cfa_offset 0
 470 000e 8280     		jr	ra
 471              		.cfi_endproc
 472              	.LFE36:
 474              		.section	.text.PLIC_dma_ch3_DONE_IRQHandler,"ax",@progbits
 475              		.align	1
 476              		.weak	PLIC_dma_ch3_DONE_IRQHandler
 478              	PLIC_dma_ch3_DONE_IRQHandler:
 479              	.LFB37:
 115:../src/platform/mpfs_hal/common/mss_irq_handler_stubs.c **** 
 116:../src/platform/mpfs_hal/common/mss_irq_handler_stubs.c **** __attribute__((weak))  uint8_t PLIC_dma_ch3_DONE_IRQHandler(void)
 117:../src/platform/mpfs_hal/common/mss_irq_handler_stubs.c **** {
 480              		.loc 1 117 1
 481              		.cfi_startproc
 482 0000 4111     		addi	sp,sp,-16
 483              		.cfi_def_cfa_offset 16
 484 0002 22E4     		sd	s0,8(sp)
 485              		.cfi_offset 8, -8
 486 0004 0008     		addi	s0,sp,16
 487              		.cfi_def_cfa 8, 0
 118:../src/platform/mpfs_hal/common/mss_irq_handler_stubs.c ****     return(0U);
 488              		.loc 1 118 11
 489 0006 8147     		li	a5,0
 119:../src/platform/mpfs_hal/common/mss_irq_handler_stubs.c **** }
 490              		.loc 1 119 1
 491 0008 3E85     		mv	a0,a5
 492 000a 2264     		ld	s0,8(sp)
 493              		.cfi_restore 8
 494              		.cfi_def_cfa 2, 16
 495 000c 4101     		addi	sp,sp,16
 496              		.cfi_def_cfa_offset 0
 497 000e 8280     		jr	ra
 498              		.cfi_endproc
 499              	.LFE37:
 501              		.section	.text.PLIC_dma_ch3_ERR_IRQHandler,"ax",@progbits
 502              		.align	1
 503              		.weak	PLIC_dma_ch3_ERR_IRQHandler
 505              	PLIC_dma_ch3_ERR_IRQHandler:
 506              	.LFB38:
 120:../src/platform/mpfs_hal/common/mss_irq_handler_stubs.c **** 
 121:../src/platform/mpfs_hal/common/mss_irq_handler_stubs.c **** __attribute__((weak))  uint8_t PLIC_dma_ch3_ERR_IRQHandler(void)
 122:../src/platform/mpfs_hal/common/mss_irq_handler_stubs.c **** {
 507              		.loc 1 122 1
 508              		.cfi_startproc
 509 0000 4111     		addi	sp,sp,-16
 510              		.cfi_def_cfa_offset 16
 511 0002 22E4     		sd	s0,8(sp)
 512              		.cfi_offset 8, -8
 513 0004 0008     		addi	s0,sp,16
 514              		.cfi_def_cfa 8, 0
 123:../src/platform/mpfs_hal/common/mss_irq_handler_stubs.c ****     return(0U);
 515              		.loc 1 123 11
 516 0006 8147     		li	a5,0
 124:../src/platform/mpfs_hal/common/mss_irq_handler_stubs.c **** }
 517              		.loc 1 124 1
 518 0008 3E85     		mv	a0,a5
 519 000a 2264     		ld	s0,8(sp)
 520              		.cfi_restore 8
 521              		.cfi_def_cfa 2, 16
 522 000c 4101     		addi	sp,sp,16
 523              		.cfi_def_cfa_offset 0
 524 000e 8280     		jr	ra
 525              		.cfi_endproc
 526              	.LFE38:
 528              		.section	.text.PLIC_l2_metadata_corr_IRQHandler,"ax",@progbits
 529              		.align	1
 530              		.weak	PLIC_l2_metadata_corr_IRQHandler
 532              	PLIC_l2_metadata_corr_IRQHandler:
 533              	.LFB39:
 125:../src/platform/mpfs_hal/common/mss_irq_handler_stubs.c **** 
 126:../src/platform/mpfs_hal/common/mss_irq_handler_stubs.c **** __attribute__((weak))  uint8_t  PLIC_l2_metadata_corr_IRQHandler(void)
 127:../src/platform/mpfs_hal/common/mss_irq_handler_stubs.c **** {
 534              		.loc 1 127 1
 535              		.cfi_startproc
 536 0000 4111     		addi	sp,sp,-16
 537              		.cfi_def_cfa_offset 16
 538 0002 22E4     		sd	s0,8(sp)
 539              		.cfi_offset 8, -8
 540 0004 0008     		addi	s0,sp,16
 541              		.cfi_def_cfa 8, 0
 128:../src/platform/mpfs_hal/common/mss_irq_handler_stubs.c ****     return(0U);
 542              		.loc 1 128 11
 543 0006 8147     		li	a5,0
 129:../src/platform/mpfs_hal/common/mss_irq_handler_stubs.c **** }
 544              		.loc 1 129 1
 545 0008 3E85     		mv	a0,a5
 546 000a 2264     		ld	s0,8(sp)
 547              		.cfi_restore 8
 548              		.cfi_def_cfa 2, 16
 549 000c 4101     		addi	sp,sp,16
 550              		.cfi_def_cfa_offset 0
 551 000e 8280     		jr	ra
 552              		.cfi_endproc
 553              	.LFE39:
 555              		.section	.text.PLIC_l2_metadata_uncorr_IRQHandler,"ax",@progbits
 556              		.align	1
 557              		.weak	PLIC_l2_metadata_uncorr_IRQHandler
 559              	PLIC_l2_metadata_uncorr_IRQHandler:
 560              	.LFB40:
 130:../src/platform/mpfs_hal/common/mss_irq_handler_stubs.c **** 
 131:../src/platform/mpfs_hal/common/mss_irq_handler_stubs.c **** __attribute__((weak))  uint8_t  PLIC_l2_metadata_uncorr_IRQHandler(void)
 132:../src/platform/mpfs_hal/common/mss_irq_handler_stubs.c **** {
 561              		.loc 1 132 1
 562              		.cfi_startproc
 563 0000 4111     		addi	sp,sp,-16
 564              		.cfi_def_cfa_offset 16
 565 0002 22E4     		sd	s0,8(sp)
 566              		.cfi_offset 8, -8
 567 0004 0008     		addi	s0,sp,16
 568              		.cfi_def_cfa 8, 0
 133:../src/platform/mpfs_hal/common/mss_irq_handler_stubs.c ****     return(0U);
 569              		.loc 1 133 11
 570 0006 8147     		li	a5,0
 134:../src/platform/mpfs_hal/common/mss_irq_handler_stubs.c **** }
 571              		.loc 1 134 1
 572 0008 3E85     		mv	a0,a5
 573 000a 2264     		ld	s0,8(sp)
 574              		.cfi_restore 8
 575              		.cfi_def_cfa 2, 16
 576 000c 4101     		addi	sp,sp,16
 577              		.cfi_def_cfa_offset 0
 578 000e 8280     		jr	ra
 579              		.cfi_endproc
 580              	.LFE40:
 582              		.section	.text.PLIC_l2_data_corr_IRQHandler,"ax",@progbits
 583              		.align	1
 584              		.weak	PLIC_l2_data_corr_IRQHandler
 586              	PLIC_l2_data_corr_IRQHandler:
 587              	.LFB41:
 135:../src/platform/mpfs_hal/common/mss_irq_handler_stubs.c **** 
 136:../src/platform/mpfs_hal/common/mss_irq_handler_stubs.c **** __attribute__((weak))  uint8_t  PLIC_l2_data_corr_IRQHandler(void)
 137:../src/platform/mpfs_hal/common/mss_irq_handler_stubs.c **** {
 588              		.loc 1 137 1
 589              		.cfi_startproc
 590 0000 4111     		addi	sp,sp,-16
 591              		.cfi_def_cfa_offset 16
 592 0002 22E4     		sd	s0,8(sp)
 593              		.cfi_offset 8, -8
 594 0004 0008     		addi	s0,sp,16
 595              		.cfi_def_cfa 8, 0
 138:../src/platform/mpfs_hal/common/mss_irq_handler_stubs.c ****     return(0U);
 596              		.loc 1 138 11
 597 0006 8147     		li	a5,0
 139:../src/platform/mpfs_hal/common/mss_irq_handler_stubs.c **** }
 598              		.loc 1 139 1
 599 0008 3E85     		mv	a0,a5
 600 000a 2264     		ld	s0,8(sp)
 601              		.cfi_restore 8
 602              		.cfi_def_cfa 2, 16
 603 000c 4101     		addi	sp,sp,16
 604              		.cfi_def_cfa_offset 0
 605 000e 8280     		jr	ra
 606              		.cfi_endproc
 607              	.LFE41:
 609              		.section	.text.PLIC_l2_data_uncorr_IRQHandler,"ax",@progbits
 610              		.align	1
 611              		.weak	PLIC_l2_data_uncorr_IRQHandler
 613              	PLIC_l2_data_uncorr_IRQHandler:
 614              	.LFB42:
 140:../src/platform/mpfs_hal/common/mss_irq_handler_stubs.c **** 
 141:../src/platform/mpfs_hal/common/mss_irq_handler_stubs.c **** __attribute__((weak))  uint8_t  PLIC_l2_data_uncorr_IRQHandler(void)
 142:../src/platform/mpfs_hal/common/mss_irq_handler_stubs.c **** {
 615              		.loc 1 142 1
 616              		.cfi_startproc
 617 0000 4111     		addi	sp,sp,-16
 618              		.cfi_def_cfa_offset 16
 619 0002 22E4     		sd	s0,8(sp)
 620              		.cfi_offset 8, -8
 621 0004 0008     		addi	s0,sp,16
 622              		.cfi_def_cfa 8, 0
 143:../src/platform/mpfs_hal/common/mss_irq_handler_stubs.c ****     return(0U);
 623              		.loc 1 143 11
 624 0006 8147     		li	a5,0
 144:../src/platform/mpfs_hal/common/mss_irq_handler_stubs.c **** }
 625              		.loc 1 144 1
 626 0008 3E85     		mv	a0,a5
 627 000a 2264     		ld	s0,8(sp)
 628              		.cfi_restore 8
 629              		.cfi_def_cfa 2, 16
 630 000c 4101     		addi	sp,sp,16
 631              		.cfi_def_cfa_offset 0
 632 000e 8280     		jr	ra
 633              		.cfi_endproc
 634              	.LFE42:
 636              		.section	.text.PLIC_gpio0_bit0_or_gpio2_bit13_IRQHandler,"ax",@progbits
 637              		.align	1
 638              		.weak	PLIC_gpio0_bit0_or_gpio2_bit13_IRQHandler
 640              	PLIC_gpio0_bit0_or_gpio2_bit13_IRQHandler:
 641              	.LFB43:
 145:../src/platform/mpfs_hal/common/mss_irq_handler_stubs.c **** 
 146:../src/platform/mpfs_hal/common/mss_irq_handler_stubs.c **** __attribute__((weak))  uint8_t PLIC_gpio0_bit0_or_gpio2_bit13_IRQHandler(void)
 147:../src/platform/mpfs_hal/common/mss_irq_handler_stubs.c **** {
 642              		.loc 1 147 1
 643              		.cfi_startproc
 644 0000 4111     		addi	sp,sp,-16
 645              		.cfi_def_cfa_offset 16
 646 0002 22E4     		sd	s0,8(sp)
 647              		.cfi_offset 8, -8
 648 0004 0008     		addi	s0,sp,16
 649              		.cfi_def_cfa 8, 0
 148:../src/platform/mpfs_hal/common/mss_irq_handler_stubs.c ****     return(0U);
 650              		.loc 1 148 11
 651 0006 8147     		li	a5,0
 149:../src/platform/mpfs_hal/common/mss_irq_handler_stubs.c **** }
 652              		.loc 1 149 1
 653 0008 3E85     		mv	a0,a5
 654 000a 2264     		ld	s0,8(sp)
 655              		.cfi_restore 8
 656              		.cfi_def_cfa 2, 16
 657 000c 4101     		addi	sp,sp,16
 658              		.cfi_def_cfa_offset 0
 659 000e 8280     		jr	ra
 660              		.cfi_endproc
 661              	.LFE43:
 663              		.section	.text.PLIC_gpio0_bit1_or_gpio2_bit13_IRQHandler,"ax",@progbits
 664              		.align	1
 665              		.weak	PLIC_gpio0_bit1_or_gpio2_bit13_IRQHandler
 667              	PLIC_gpio0_bit1_or_gpio2_bit13_IRQHandler:
 668              	.LFB44:
 150:../src/platform/mpfs_hal/common/mss_irq_handler_stubs.c **** 
 151:../src/platform/mpfs_hal/common/mss_irq_handler_stubs.c **** __attribute__((weak))  uint8_t PLIC_gpio0_bit1_or_gpio2_bit13_IRQHandler(void)
 152:../src/platform/mpfs_hal/common/mss_irq_handler_stubs.c ****         {
 669              		.loc 1 152 9
 670              		.cfi_startproc
 671 0000 4111     		addi	sp,sp,-16
 672              		.cfi_def_cfa_offset 16
 673 0002 22E4     		sd	s0,8(sp)
 674              		.cfi_offset 8, -8
 675 0004 0008     		addi	s0,sp,16
 676              		.cfi_def_cfa 8, 0
 153:../src/platform/mpfs_hal/common/mss_irq_handler_stubs.c ****             return(0U);
 677              		.loc 1 153 19
 678 0006 8147     		li	a5,0
 154:../src/platform/mpfs_hal/common/mss_irq_handler_stubs.c ****         }
 679              		.loc 1 154 9
 680 0008 3E85     		mv	a0,a5
 681 000a 2264     		ld	s0,8(sp)
 682              		.cfi_restore 8
 683              		.cfi_def_cfa 2, 16
 684 000c 4101     		addi	sp,sp,16
 685              		.cfi_def_cfa_offset 0
 686 000e 8280     		jr	ra
 687              		.cfi_endproc
 688              	.LFE44:
 690              		.section	.text.PLIC_gpio0_bit2_or_gpio2_bit13_IRQHandler,"ax",@progbits
 691              		.align	1
 692              		.weak	PLIC_gpio0_bit2_or_gpio2_bit13_IRQHandler
 694              	PLIC_gpio0_bit2_or_gpio2_bit13_IRQHandler:
 695              	.LFB45:
 155:../src/platform/mpfs_hal/common/mss_irq_handler_stubs.c **** 
 156:../src/platform/mpfs_hal/common/mss_irq_handler_stubs.c **** __attribute__((weak))  uint8_t  PLIC_gpio0_bit2_or_gpio2_bit13_IRQHandler(void)
 157:../src/platform/mpfs_hal/common/mss_irq_handler_stubs.c **** {
 696              		.loc 1 157 1
 697              		.cfi_startproc
 698 0000 4111     		addi	sp,sp,-16
 699              		.cfi_def_cfa_offset 16
 700 0002 22E4     		sd	s0,8(sp)
 701              		.cfi_offset 8, -8
 702 0004 0008     		addi	s0,sp,16
 703              		.cfi_def_cfa 8, 0
 158:../src/platform/mpfs_hal/common/mss_irq_handler_stubs.c ****     return(0U);
 704              		.loc 1 158 11
 705 0006 8147     		li	a5,0
 159:../src/platform/mpfs_hal/common/mss_irq_handler_stubs.c **** }
 706              		.loc 1 159 1
 707 0008 3E85     		mv	a0,a5
 708 000a 2264     		ld	s0,8(sp)
 709              		.cfi_restore 8
 710              		.cfi_def_cfa 2, 16
 711 000c 4101     		addi	sp,sp,16
 712              		.cfi_def_cfa_offset 0
 713 000e 8280     		jr	ra
 714              		.cfi_endproc
 715              	.LFE45:
 717              		.section	.text.PLIC_gpio0_bit3_or_gpio2_bit13_IRQHandler,"ax",@progbits
 718              		.align	1
 719              		.weak	PLIC_gpio0_bit3_or_gpio2_bit13_IRQHandler
 721              	PLIC_gpio0_bit3_or_gpio2_bit13_IRQHandler:
 722              	.LFB46:
 160:../src/platform/mpfs_hal/common/mss_irq_handler_stubs.c **** 
 161:../src/platform/mpfs_hal/common/mss_irq_handler_stubs.c **** __attribute__((weak))  uint8_t  PLIC_gpio0_bit3_or_gpio2_bit13_IRQHandler(void)
 162:../src/platform/mpfs_hal/common/mss_irq_handler_stubs.c **** {
 723              		.loc 1 162 1
 724              		.cfi_startproc
 725 0000 4111     		addi	sp,sp,-16
 726              		.cfi_def_cfa_offset 16
 727 0002 22E4     		sd	s0,8(sp)
 728              		.cfi_offset 8, -8
 729 0004 0008     		addi	s0,sp,16
 730              		.cfi_def_cfa 8, 0
 163:../src/platform/mpfs_hal/common/mss_irq_handler_stubs.c ****     return(0U);
 731              		.loc 1 163 11
 732 0006 8147     		li	a5,0
 164:../src/platform/mpfs_hal/common/mss_irq_handler_stubs.c **** }
 733              		.loc 1 164 1
 734 0008 3E85     		mv	a0,a5
 735 000a 2264     		ld	s0,8(sp)
 736              		.cfi_restore 8
 737              		.cfi_def_cfa 2, 16
 738 000c 4101     		addi	sp,sp,16
 739              		.cfi_def_cfa_offset 0
 740 000e 8280     		jr	ra
 741              		.cfi_endproc
 742              	.LFE46:
 744              		.section	.text.PLIC_gpio0_bit4_or_gpio2_bit13_IRQHandler,"ax",@progbits
 745              		.align	1
 746              		.weak	PLIC_gpio0_bit4_or_gpio2_bit13_IRQHandler
 748              	PLIC_gpio0_bit4_or_gpio2_bit13_IRQHandler:
 749              	.LFB47:
 165:../src/platform/mpfs_hal/common/mss_irq_handler_stubs.c **** 
 166:../src/platform/mpfs_hal/common/mss_irq_handler_stubs.c **** __attribute__((weak))  uint8_t  PLIC_gpio0_bit4_or_gpio2_bit13_IRQHandler(void)
 167:../src/platform/mpfs_hal/common/mss_irq_handler_stubs.c **** {
 750              		.loc 1 167 1
 751              		.cfi_startproc
 752 0000 4111     		addi	sp,sp,-16
 753              		.cfi_def_cfa_offset 16
 754 0002 22E4     		sd	s0,8(sp)
 755              		.cfi_offset 8, -8
 756 0004 0008     		addi	s0,sp,16
 757              		.cfi_def_cfa 8, 0
 168:../src/platform/mpfs_hal/common/mss_irq_handler_stubs.c ****     return(0U);
 758              		.loc 1 168 11
 759 0006 8147     		li	a5,0
 169:../src/platform/mpfs_hal/common/mss_irq_handler_stubs.c **** }
 760              		.loc 1 169 1
 761 0008 3E85     		mv	a0,a5
 762 000a 2264     		ld	s0,8(sp)
 763              		.cfi_restore 8
 764              		.cfi_def_cfa 2, 16
 765 000c 4101     		addi	sp,sp,16
 766              		.cfi_def_cfa_offset 0
 767 000e 8280     		jr	ra
 768              		.cfi_endproc
 769              	.LFE47:
 771              		.section	.text.PLIC_gpio0_bit5_or_gpio2_bit13_IRQHandler,"ax",@progbits
 772              		.align	1
 773              		.weak	PLIC_gpio0_bit5_or_gpio2_bit13_IRQHandler
 775              	PLIC_gpio0_bit5_or_gpio2_bit13_IRQHandler:
 776              	.LFB48:
 170:../src/platform/mpfs_hal/common/mss_irq_handler_stubs.c **** 
 171:../src/platform/mpfs_hal/common/mss_irq_handler_stubs.c **** __attribute__((weak))  uint8_t  PLIC_gpio0_bit5_or_gpio2_bit13_IRQHandler(void)
 172:../src/platform/mpfs_hal/common/mss_irq_handler_stubs.c **** {
 777              		.loc 1 172 1
 778              		.cfi_startproc
 779 0000 4111     		addi	sp,sp,-16
 780              		.cfi_def_cfa_offset 16
 781 0002 22E4     		sd	s0,8(sp)
 782              		.cfi_offset 8, -8
 783 0004 0008     		addi	s0,sp,16
 784              		.cfi_def_cfa 8, 0
 173:../src/platform/mpfs_hal/common/mss_irq_handler_stubs.c ****     return(0U);
 785              		.loc 1 173 11
 786 0006 8147     		li	a5,0
 174:../src/platform/mpfs_hal/common/mss_irq_handler_stubs.c **** }
 787              		.loc 1 174 1
 788 0008 3E85     		mv	a0,a5
 789 000a 2264     		ld	s0,8(sp)
 790              		.cfi_restore 8
 791              		.cfi_def_cfa 2, 16
 792 000c 4101     		addi	sp,sp,16
 793              		.cfi_def_cfa_offset 0
 794 000e 8280     		jr	ra
 795              		.cfi_endproc
 796              	.LFE48:
 798              		.section	.text.PLIC_gpio0_bit6_or_gpio2_bit13_IRQHandler,"ax",@progbits
 799              		.align	1
 800              		.weak	PLIC_gpio0_bit6_or_gpio2_bit13_IRQHandler
 802              	PLIC_gpio0_bit6_or_gpio2_bit13_IRQHandler:
 803              	.LFB49:
 175:../src/platform/mpfs_hal/common/mss_irq_handler_stubs.c **** 
 176:../src/platform/mpfs_hal/common/mss_irq_handler_stubs.c **** __attribute__((weak))  uint8_t  PLIC_gpio0_bit6_or_gpio2_bit13_IRQHandler(void)
 177:../src/platform/mpfs_hal/common/mss_irq_handler_stubs.c **** {
 804              		.loc 1 177 1
 805              		.cfi_startproc
 806 0000 4111     		addi	sp,sp,-16
 807              		.cfi_def_cfa_offset 16
 808 0002 22E4     		sd	s0,8(sp)
 809              		.cfi_offset 8, -8
 810 0004 0008     		addi	s0,sp,16
 811              		.cfi_def_cfa 8, 0
 178:../src/platform/mpfs_hal/common/mss_irq_handler_stubs.c ****     return(0U);
 812              		.loc 1 178 11
 813 0006 8147     		li	a5,0
 179:../src/platform/mpfs_hal/common/mss_irq_handler_stubs.c **** }
 814              		.loc 1 179 1
 815 0008 3E85     		mv	a0,a5
 816 000a 2264     		ld	s0,8(sp)
 817              		.cfi_restore 8
 818              		.cfi_def_cfa 2, 16
 819 000c 4101     		addi	sp,sp,16
 820              		.cfi_def_cfa_offset 0
 821 000e 8280     		jr	ra
 822              		.cfi_endproc
 823              	.LFE49:
 825              		.section	.text.PLIC_gpio0_bit7_or_gpio2_bit13_IRQHandler,"ax",@progbits
 826              		.align	1
 827              		.weak	PLIC_gpio0_bit7_or_gpio2_bit13_IRQHandler
 829              	PLIC_gpio0_bit7_or_gpio2_bit13_IRQHandler:
 830              	.LFB50:
 180:../src/platform/mpfs_hal/common/mss_irq_handler_stubs.c **** 
 181:../src/platform/mpfs_hal/common/mss_irq_handler_stubs.c **** __attribute__((weak))  uint8_t  PLIC_gpio0_bit7_or_gpio2_bit13_IRQHandler(void)
 182:../src/platform/mpfs_hal/common/mss_irq_handler_stubs.c **** {
 831              		.loc 1 182 1
 832              		.cfi_startproc
 833 0000 4111     		addi	sp,sp,-16
 834              		.cfi_def_cfa_offset 16
 835 0002 22E4     		sd	s0,8(sp)
 836              		.cfi_offset 8, -8
 837 0004 0008     		addi	s0,sp,16
 838              		.cfi_def_cfa 8, 0
 183:../src/platform/mpfs_hal/common/mss_irq_handler_stubs.c ****     return(0U);
 839              		.loc 1 183 11
 840 0006 8147     		li	a5,0
 184:../src/platform/mpfs_hal/common/mss_irq_handler_stubs.c **** }
 841              		.loc 1 184 1
 842 0008 3E85     		mv	a0,a5
 843 000a 2264     		ld	s0,8(sp)
 844              		.cfi_restore 8
 845              		.cfi_def_cfa 2, 16
 846 000c 4101     		addi	sp,sp,16
 847              		.cfi_def_cfa_offset 0
 848 000e 8280     		jr	ra
 849              		.cfi_endproc
 850              	.LFE50:
 852              		.section	.text.PLIC_gpio0_bit8_or_gpio2_bit13_IRQHandler,"ax",@progbits
 853              		.align	1
 854              		.weak	PLIC_gpio0_bit8_or_gpio2_bit13_IRQHandler
 856              	PLIC_gpio0_bit8_or_gpio2_bit13_IRQHandler:
 857              	.LFB51:
 185:../src/platform/mpfs_hal/common/mss_irq_handler_stubs.c **** 
 186:../src/platform/mpfs_hal/common/mss_irq_handler_stubs.c **** __attribute__((weak))  uint8_t  PLIC_gpio0_bit8_or_gpio2_bit13_IRQHandler(void)
 187:../src/platform/mpfs_hal/common/mss_irq_handler_stubs.c **** {
 858              		.loc 1 187 1
 859              		.cfi_startproc
 860 0000 4111     		addi	sp,sp,-16
 861              		.cfi_def_cfa_offset 16
 862 0002 22E4     		sd	s0,8(sp)
 863              		.cfi_offset 8, -8
 864 0004 0008     		addi	s0,sp,16
 865              		.cfi_def_cfa 8, 0
 188:../src/platform/mpfs_hal/common/mss_irq_handler_stubs.c ****     return(0U);
 866              		.loc 1 188 11
 867 0006 8147     		li	a5,0
 189:../src/platform/mpfs_hal/common/mss_irq_handler_stubs.c **** }
 868              		.loc 1 189 1
 869 0008 3E85     		mv	a0,a5
 870 000a 2264     		ld	s0,8(sp)
 871              		.cfi_restore 8
 872              		.cfi_def_cfa 2, 16
 873 000c 4101     		addi	sp,sp,16
 874              		.cfi_def_cfa_offset 0
 875 000e 8280     		jr	ra
 876              		.cfi_endproc
 877              	.LFE51:
 879              		.section	.text.PLIC_gpio0_bit9_or_gpio2_bit13_IRQHandler,"ax",@progbits
 880              		.align	1
 881              		.weak	PLIC_gpio0_bit9_or_gpio2_bit13_IRQHandler
 883              	PLIC_gpio0_bit9_or_gpio2_bit13_IRQHandler:
 884              	.LFB52:
 190:../src/platform/mpfs_hal/common/mss_irq_handler_stubs.c **** 
 191:../src/platform/mpfs_hal/common/mss_irq_handler_stubs.c **** __attribute__((weak))  uint8_t  PLIC_gpio0_bit9_or_gpio2_bit13_IRQHandler(void)
 192:../src/platform/mpfs_hal/common/mss_irq_handler_stubs.c **** {
 885              		.loc 1 192 1
 886              		.cfi_startproc
 887 0000 4111     		addi	sp,sp,-16
 888              		.cfi_def_cfa_offset 16
 889 0002 22E4     		sd	s0,8(sp)
 890              		.cfi_offset 8, -8
 891 0004 0008     		addi	s0,sp,16
 892              		.cfi_def_cfa 8, 0
 193:../src/platform/mpfs_hal/common/mss_irq_handler_stubs.c ****     return(0U);
 893              		.loc 1 193 11
 894 0006 8147     		li	a5,0
 194:../src/platform/mpfs_hal/common/mss_irq_handler_stubs.c **** }
 895              		.loc 1 194 1
 896 0008 3E85     		mv	a0,a5
 897 000a 2264     		ld	s0,8(sp)
 898              		.cfi_restore 8
 899              		.cfi_def_cfa 2, 16
 900 000c 4101     		addi	sp,sp,16
 901              		.cfi_def_cfa_offset 0
 902 000e 8280     		jr	ra
 903              		.cfi_endproc
 904              	.LFE52:
 906              		.section	.text.PLIC_gpio0_bit10_or_gpio2_bit13_IRQHandler,"ax",@progbits
 907              		.align	1
 908              		.weak	PLIC_gpio0_bit10_or_gpio2_bit13_IRQHandler
 910              	PLIC_gpio0_bit10_or_gpio2_bit13_IRQHandler:
 911              	.LFB53:
 195:../src/platform/mpfs_hal/common/mss_irq_handler_stubs.c **** 
 196:../src/platform/mpfs_hal/common/mss_irq_handler_stubs.c **** __attribute__((weak))  uint8_t  PLIC_gpio0_bit10_or_gpio2_bit13_IRQHandler(void)
 197:../src/platform/mpfs_hal/common/mss_irq_handler_stubs.c **** {
 912              		.loc 1 197 1
 913              		.cfi_startproc
 914 0000 4111     		addi	sp,sp,-16
 915              		.cfi_def_cfa_offset 16
 916 0002 22E4     		sd	s0,8(sp)
 917              		.cfi_offset 8, -8
 918 0004 0008     		addi	s0,sp,16
 919              		.cfi_def_cfa 8, 0
 198:../src/platform/mpfs_hal/common/mss_irq_handler_stubs.c ****     return(0U);
 920              		.loc 1 198 11
 921 0006 8147     		li	a5,0
 199:../src/platform/mpfs_hal/common/mss_irq_handler_stubs.c **** }
 922              		.loc 1 199 1
 923 0008 3E85     		mv	a0,a5
 924 000a 2264     		ld	s0,8(sp)
 925              		.cfi_restore 8
 926              		.cfi_def_cfa 2, 16
 927 000c 4101     		addi	sp,sp,16
 928              		.cfi_def_cfa_offset 0
 929 000e 8280     		jr	ra
 930              		.cfi_endproc
 931              	.LFE53:
 933              		.section	.text.PLIC_gpio0_bit11_or_gpio2_bit13_IRQHandler,"ax",@progbits
 934              		.align	1
 935              		.weak	PLIC_gpio0_bit11_or_gpio2_bit13_IRQHandler
 937              	PLIC_gpio0_bit11_or_gpio2_bit13_IRQHandler:
 938              	.LFB54:
 200:../src/platform/mpfs_hal/common/mss_irq_handler_stubs.c **** 
 201:../src/platform/mpfs_hal/common/mss_irq_handler_stubs.c **** __attribute__((weak))  uint8_t  PLIC_gpio0_bit11_or_gpio2_bit13_IRQHandler(void)
 202:../src/platform/mpfs_hal/common/mss_irq_handler_stubs.c **** {
 939              		.loc 1 202 1
 940              		.cfi_startproc
 941 0000 4111     		addi	sp,sp,-16
 942              		.cfi_def_cfa_offset 16
 943 0002 22E4     		sd	s0,8(sp)
 944              		.cfi_offset 8, -8
 945 0004 0008     		addi	s0,sp,16
 946              		.cfi_def_cfa 8, 0
 203:../src/platform/mpfs_hal/common/mss_irq_handler_stubs.c ****     return(0U);
 947              		.loc 1 203 11
 948 0006 8147     		li	a5,0
 204:../src/platform/mpfs_hal/common/mss_irq_handler_stubs.c **** }
 949              		.loc 1 204 1
 950 0008 3E85     		mv	a0,a5
 951 000a 2264     		ld	s0,8(sp)
 952              		.cfi_restore 8
 953              		.cfi_def_cfa 2, 16
 954 000c 4101     		addi	sp,sp,16
 955              		.cfi_def_cfa_offset 0
 956 000e 8280     		jr	ra
 957              		.cfi_endproc
 958              	.LFE54:
 960              		.section	.text.PLIC_gpio0_bit12_or_gpio2_bit13_IRQHandler,"ax",@progbits
 961              		.align	1
 962              		.weak	PLIC_gpio0_bit12_or_gpio2_bit13_IRQHandler
 964              	PLIC_gpio0_bit12_or_gpio2_bit13_IRQHandler:
 965              	.LFB55:
 205:../src/platform/mpfs_hal/common/mss_irq_handler_stubs.c **** 
 206:../src/platform/mpfs_hal/common/mss_irq_handler_stubs.c **** __attribute__((weak))  uint8_t  PLIC_gpio0_bit12_or_gpio2_bit13_IRQHandler(void)
 207:../src/platform/mpfs_hal/common/mss_irq_handler_stubs.c **** {
 966              		.loc 1 207 1
 967              		.cfi_startproc
 968 0000 4111     		addi	sp,sp,-16
 969              		.cfi_def_cfa_offset 16
 970 0002 22E4     		sd	s0,8(sp)
 971              		.cfi_offset 8, -8
 972 0004 0008     		addi	s0,sp,16
 973              		.cfi_def_cfa 8, 0
 208:../src/platform/mpfs_hal/common/mss_irq_handler_stubs.c ****     return(0U);
 974              		.loc 1 208 11
 975 0006 8147     		li	a5,0
 209:../src/platform/mpfs_hal/common/mss_irq_handler_stubs.c **** }
 976              		.loc 1 209 1
 977 0008 3E85     		mv	a0,a5
 978 000a 2264     		ld	s0,8(sp)
 979              		.cfi_restore 8
 980              		.cfi_def_cfa 2, 16
 981 000c 4101     		addi	sp,sp,16
 982              		.cfi_def_cfa_offset 0
 983 000e 8280     		jr	ra
 984              		.cfi_endproc
 985              	.LFE55:
 987              		.section	.text.PLIC_gpio0_bit13_or_gpio2_bit13_IRQHandler,"ax",@progbits
 988              		.align	1
 989              		.weak	PLIC_gpio0_bit13_or_gpio2_bit13_IRQHandler
 991              	PLIC_gpio0_bit13_or_gpio2_bit13_IRQHandler:
 992              	.LFB56:
 210:../src/platform/mpfs_hal/common/mss_irq_handler_stubs.c **** 
 211:../src/platform/mpfs_hal/common/mss_irq_handler_stubs.c **** 
 212:../src/platform/mpfs_hal/common/mss_irq_handler_stubs.c **** __attribute__((weak))  uint8_t  PLIC_gpio0_bit13_or_gpio2_bit13_IRQHandler(void)
 213:../src/platform/mpfs_hal/common/mss_irq_handler_stubs.c **** {
 993              		.loc 1 213 1
 994              		.cfi_startproc
 995 0000 4111     		addi	sp,sp,-16
 996              		.cfi_def_cfa_offset 16
 997 0002 22E4     		sd	s0,8(sp)
 998              		.cfi_offset 8, -8
 999 0004 0008     		addi	s0,sp,16
 1000              		.cfi_def_cfa 8, 0
 214:../src/platform/mpfs_hal/common/mss_irq_handler_stubs.c ****     return(0U);
 1001              		.loc 1 214 11
 1002 0006 8147     		li	a5,0
 215:../src/platform/mpfs_hal/common/mss_irq_handler_stubs.c **** }
 1003              		.loc 1 215 1
 1004 0008 3E85     		mv	a0,a5
 1005 000a 2264     		ld	s0,8(sp)
 1006              		.cfi_restore 8
 1007              		.cfi_def_cfa 2, 16
 1008 000c 4101     		addi	sp,sp,16
 1009              		.cfi_def_cfa_offset 0
 1010 000e 8280     		jr	ra
 1011              		.cfi_endproc
 1012              	.LFE56:
 1014              		.section	.text.PLIC_gpio1_bit0_or_gpio2_bit14_IRQHandler,"ax",@progbits
 1015              		.align	1
 1016              		.weak	PLIC_gpio1_bit0_or_gpio2_bit14_IRQHandler
 1018              	PLIC_gpio1_bit0_or_gpio2_bit14_IRQHandler:
 1019              	.LFB57:
 216:../src/platform/mpfs_hal/common/mss_irq_handler_stubs.c **** 
 217:../src/platform/mpfs_hal/common/mss_irq_handler_stubs.c **** __attribute__((weak))  uint8_t  PLIC_gpio1_bit0_or_gpio2_bit14_IRQHandler(void)
 218:../src/platform/mpfs_hal/common/mss_irq_handler_stubs.c **** {
 1020              		.loc 1 218 1
 1021              		.cfi_startproc
 1022 0000 4111     		addi	sp,sp,-16
 1023              		.cfi_def_cfa_offset 16
 1024 0002 22E4     		sd	s0,8(sp)
 1025              		.cfi_offset 8, -8
 1026 0004 0008     		addi	s0,sp,16
 1027              		.cfi_def_cfa 8, 0
 219:../src/platform/mpfs_hal/common/mss_irq_handler_stubs.c ****     return(0U);
 1028              		.loc 1 219 11
 1029 0006 8147     		li	a5,0
 220:../src/platform/mpfs_hal/common/mss_irq_handler_stubs.c **** }
 1030              		.loc 1 220 1
 1031 0008 3E85     		mv	a0,a5
 1032 000a 2264     		ld	s0,8(sp)
 1033              		.cfi_restore 8
 1034              		.cfi_def_cfa 2, 16
 1035 000c 4101     		addi	sp,sp,16
 1036              		.cfi_def_cfa_offset 0
 1037 000e 8280     		jr	ra
 1038              		.cfi_endproc
 1039              	.LFE57:
 1041              		.section	.text.PLIC_gpio1_bit1_or_gpio2_bit15_IRQHandler,"ax",@progbits
 1042              		.align	1
 1043              		.weak	PLIC_gpio1_bit1_or_gpio2_bit15_IRQHandler
 1045              	PLIC_gpio1_bit1_or_gpio2_bit15_IRQHandler:
 1046              	.LFB58:
 221:../src/platform/mpfs_hal/common/mss_irq_handler_stubs.c **** 
 222:../src/platform/mpfs_hal/common/mss_irq_handler_stubs.c **** __attribute__((weak))  uint8_t  PLIC_gpio1_bit1_or_gpio2_bit15_IRQHandler(void)
 223:../src/platform/mpfs_hal/common/mss_irq_handler_stubs.c **** {
 1047              		.loc 1 223 1
 1048              		.cfi_startproc
 1049 0000 4111     		addi	sp,sp,-16
 1050              		.cfi_def_cfa_offset 16
 1051 0002 22E4     		sd	s0,8(sp)
 1052              		.cfi_offset 8, -8
 1053 0004 0008     		addi	s0,sp,16
 1054              		.cfi_def_cfa 8, 0
 224:../src/platform/mpfs_hal/common/mss_irq_handler_stubs.c ****     return(0U);
 1055              		.loc 1 224 11
 1056 0006 8147     		li	a5,0
 225:../src/platform/mpfs_hal/common/mss_irq_handler_stubs.c **** }
 1057              		.loc 1 225 1
 1058 0008 3E85     		mv	a0,a5
 1059 000a 2264     		ld	s0,8(sp)
 1060              		.cfi_restore 8
 1061              		.cfi_def_cfa 2, 16
 1062 000c 4101     		addi	sp,sp,16
 1063              		.cfi_def_cfa_offset 0
 1064 000e 8280     		jr	ra
 1065              		.cfi_endproc
 1066              	.LFE58:
 1068              		.section	.text.PLIC_gpio1_bit2_or_gpio2_bit16_IRQHandler,"ax",@progbits
 1069              		.align	1
 1070              		.weak	PLIC_gpio1_bit2_or_gpio2_bit16_IRQHandler
 1072              	PLIC_gpio1_bit2_or_gpio2_bit16_IRQHandler:
 1073              	.LFB59:
 226:../src/platform/mpfs_hal/common/mss_irq_handler_stubs.c **** 
 227:../src/platform/mpfs_hal/common/mss_irq_handler_stubs.c **** __attribute__((weak))  uint8_t  PLIC_gpio1_bit2_or_gpio2_bit16_IRQHandler(void)
 228:../src/platform/mpfs_hal/common/mss_irq_handler_stubs.c **** {
 1074              		.loc 1 228 1
 1075              		.cfi_startproc
 1076 0000 4111     		addi	sp,sp,-16
 1077              		.cfi_def_cfa_offset 16
 1078 0002 22E4     		sd	s0,8(sp)
 1079              		.cfi_offset 8, -8
 1080 0004 0008     		addi	s0,sp,16
 1081              		.cfi_def_cfa 8, 0
 229:../src/platform/mpfs_hal/common/mss_irq_handler_stubs.c ****     return(0U);
 1082              		.loc 1 229 11
 1083 0006 8147     		li	a5,0
 230:../src/platform/mpfs_hal/common/mss_irq_handler_stubs.c **** }
 1084              		.loc 1 230 1
 1085 0008 3E85     		mv	a0,a5
 1086 000a 2264     		ld	s0,8(sp)
 1087              		.cfi_restore 8
 1088              		.cfi_def_cfa 2, 16
 1089 000c 4101     		addi	sp,sp,16
 1090              		.cfi_def_cfa_offset 0
 1091 000e 8280     		jr	ra
 1092              		.cfi_endproc
 1093              	.LFE59:
 1095              		.section	.text.PLIC_gpio1_bit3_or_gpio2_bit17_IRQHandler,"ax",@progbits
 1096              		.align	1
 1097              		.weak	PLIC_gpio1_bit3_or_gpio2_bit17_IRQHandler
 1099              	PLIC_gpio1_bit3_or_gpio2_bit17_IRQHandler:
 1100              	.LFB60:
 231:../src/platform/mpfs_hal/common/mss_irq_handler_stubs.c **** 
 232:../src/platform/mpfs_hal/common/mss_irq_handler_stubs.c **** __attribute__((weak))  uint8_t  PLIC_gpio1_bit3_or_gpio2_bit17_IRQHandler(void)
 233:../src/platform/mpfs_hal/common/mss_irq_handler_stubs.c **** {
 1101              		.loc 1 233 1
 1102              		.cfi_startproc
 1103 0000 4111     		addi	sp,sp,-16
 1104              		.cfi_def_cfa_offset 16
 1105 0002 22E4     		sd	s0,8(sp)
 1106              		.cfi_offset 8, -8
 1107 0004 0008     		addi	s0,sp,16
 1108              		.cfi_def_cfa 8, 0
 234:../src/platform/mpfs_hal/common/mss_irq_handler_stubs.c ****     return(0U);
 1109              		.loc 1 234 11
 1110 0006 8147     		li	a5,0
 235:../src/platform/mpfs_hal/common/mss_irq_handler_stubs.c **** }
 1111              		.loc 1 235 1
 1112 0008 3E85     		mv	a0,a5
 1113 000a 2264     		ld	s0,8(sp)
 1114              		.cfi_restore 8
 1115              		.cfi_def_cfa 2, 16
 1116 000c 4101     		addi	sp,sp,16
 1117              		.cfi_def_cfa_offset 0
 1118 000e 8280     		jr	ra
 1119              		.cfi_endproc
 1120              	.LFE60:
 1122              		.section	.text.PLIC_gpio1_bit4_or_gpio2_bit18_IRQHandler,"ax",@progbits
 1123              		.align	1
 1124              		.weak	PLIC_gpio1_bit4_or_gpio2_bit18_IRQHandler
 1126              	PLIC_gpio1_bit4_or_gpio2_bit18_IRQHandler:
 1127              	.LFB61:
 236:../src/platform/mpfs_hal/common/mss_irq_handler_stubs.c **** 
 237:../src/platform/mpfs_hal/common/mss_irq_handler_stubs.c **** __attribute__((weak))  uint8_t  PLIC_gpio1_bit4_or_gpio2_bit18_IRQHandler(void)
 238:../src/platform/mpfs_hal/common/mss_irq_handler_stubs.c **** {
 1128              		.loc 1 238 1
 1129              		.cfi_startproc
 1130 0000 4111     		addi	sp,sp,-16
 1131              		.cfi_def_cfa_offset 16
 1132 0002 22E4     		sd	s0,8(sp)
 1133              		.cfi_offset 8, -8
 1134 0004 0008     		addi	s0,sp,16
 1135              		.cfi_def_cfa 8, 0
 239:../src/platform/mpfs_hal/common/mss_irq_handler_stubs.c ****     return(0U);
 1136              		.loc 1 239 11
 1137 0006 8147     		li	a5,0
 240:../src/platform/mpfs_hal/common/mss_irq_handler_stubs.c **** }
 1138              		.loc 1 240 1
 1139 0008 3E85     		mv	a0,a5
 1140 000a 2264     		ld	s0,8(sp)
 1141              		.cfi_restore 8
 1142              		.cfi_def_cfa 2, 16
 1143 000c 4101     		addi	sp,sp,16
 1144              		.cfi_def_cfa_offset 0
 1145 000e 8280     		jr	ra
 1146              		.cfi_endproc
 1147              	.LFE61:
 1149              		.section	.text.PLIC_gpio1_bit5_or_gpio2_bit19_IRQHandler,"ax",@progbits
 1150              		.align	1
 1151              		.weak	PLIC_gpio1_bit5_or_gpio2_bit19_IRQHandler
 1153              	PLIC_gpio1_bit5_or_gpio2_bit19_IRQHandler:
 1154              	.LFB62:
 241:../src/platform/mpfs_hal/common/mss_irq_handler_stubs.c **** 
 242:../src/platform/mpfs_hal/common/mss_irq_handler_stubs.c **** __attribute__((weak))  uint8_t  PLIC_gpio1_bit5_or_gpio2_bit19_IRQHandler(void)
 243:../src/platform/mpfs_hal/common/mss_irq_handler_stubs.c **** {
 1155              		.loc 1 243 1
 1156              		.cfi_startproc
 1157 0000 4111     		addi	sp,sp,-16
 1158              		.cfi_def_cfa_offset 16
 1159 0002 22E4     		sd	s0,8(sp)
 1160              		.cfi_offset 8, -8
 1161 0004 0008     		addi	s0,sp,16
 1162              		.cfi_def_cfa 8, 0
 244:../src/platform/mpfs_hal/common/mss_irq_handler_stubs.c ****     return(0U);
 1163              		.loc 1 244 11
 1164 0006 8147     		li	a5,0
 245:../src/platform/mpfs_hal/common/mss_irq_handler_stubs.c **** }
 1165              		.loc 1 245 1
 1166 0008 3E85     		mv	a0,a5
 1167 000a 2264     		ld	s0,8(sp)
 1168              		.cfi_restore 8
 1169              		.cfi_def_cfa 2, 16
 1170 000c 4101     		addi	sp,sp,16
 1171              		.cfi_def_cfa_offset 0
 1172 000e 8280     		jr	ra
 1173              		.cfi_endproc
 1174              	.LFE62:
 1176              		.section	.text.PLIC_gpio1_bit6_or_gpio2_bit20_IRQHandler,"ax",@progbits
 1177              		.align	1
 1178              		.weak	PLIC_gpio1_bit6_or_gpio2_bit20_IRQHandler
 1180              	PLIC_gpio1_bit6_or_gpio2_bit20_IRQHandler:
 1181              	.LFB63:
 246:../src/platform/mpfs_hal/common/mss_irq_handler_stubs.c **** 
 247:../src/platform/mpfs_hal/common/mss_irq_handler_stubs.c **** __attribute__((weak))  uint8_t  PLIC_gpio1_bit6_or_gpio2_bit20_IRQHandler(void)
 248:../src/platform/mpfs_hal/common/mss_irq_handler_stubs.c **** {
 1182              		.loc 1 248 1
 1183              		.cfi_startproc
 1184 0000 4111     		addi	sp,sp,-16
 1185              		.cfi_def_cfa_offset 16
 1186 0002 22E4     		sd	s0,8(sp)
 1187              		.cfi_offset 8, -8
 1188 0004 0008     		addi	s0,sp,16
 1189              		.cfi_def_cfa 8, 0
 249:../src/platform/mpfs_hal/common/mss_irq_handler_stubs.c ****     return(0U);
 1190              		.loc 1 249 11
 1191 0006 8147     		li	a5,0
 250:../src/platform/mpfs_hal/common/mss_irq_handler_stubs.c **** }
 1192              		.loc 1 250 1
 1193 0008 3E85     		mv	a0,a5
 1194 000a 2264     		ld	s0,8(sp)
 1195              		.cfi_restore 8
 1196              		.cfi_def_cfa 2, 16
 1197 000c 4101     		addi	sp,sp,16
 1198              		.cfi_def_cfa_offset 0
 1199 000e 8280     		jr	ra
 1200              		.cfi_endproc
 1201              	.LFE63:
 1203              		.section	.text.PLIC_gpio1_bit7_or_gpio2_bit21_IRQHandler,"ax",@progbits
 1204              		.align	1
 1205              		.weak	PLIC_gpio1_bit7_or_gpio2_bit21_IRQHandler
 1207              	PLIC_gpio1_bit7_or_gpio2_bit21_IRQHandler:
 1208              	.LFB64:
 251:../src/platform/mpfs_hal/common/mss_irq_handler_stubs.c **** 
 252:../src/platform/mpfs_hal/common/mss_irq_handler_stubs.c **** __attribute__((weak))  uint8_t  PLIC_gpio1_bit7_or_gpio2_bit21_IRQHandler(void)
 253:../src/platform/mpfs_hal/common/mss_irq_handler_stubs.c **** {
 1209              		.loc 1 253 1
 1210              		.cfi_startproc
 1211 0000 4111     		addi	sp,sp,-16
 1212              		.cfi_def_cfa_offset 16
 1213 0002 22E4     		sd	s0,8(sp)
 1214              		.cfi_offset 8, -8
 1215 0004 0008     		addi	s0,sp,16
 1216              		.cfi_def_cfa 8, 0
 254:../src/platform/mpfs_hal/common/mss_irq_handler_stubs.c ****     return(0U);
 1217              		.loc 1 254 11
 1218 0006 8147     		li	a5,0
 255:../src/platform/mpfs_hal/common/mss_irq_handler_stubs.c **** }
 1219              		.loc 1 255 1
 1220 0008 3E85     		mv	a0,a5
 1221 000a 2264     		ld	s0,8(sp)
 1222              		.cfi_restore 8
 1223              		.cfi_def_cfa 2, 16
 1224 000c 4101     		addi	sp,sp,16
 1225              		.cfi_def_cfa_offset 0
 1226 000e 8280     		jr	ra
 1227              		.cfi_endproc
 1228              	.LFE64:
 1230              		.section	.text.PLIC_gpio1_bit8_or_gpio2_bit22_IRQHandler,"ax",@progbits
 1231              		.align	1
 1232              		.weak	PLIC_gpio1_bit8_or_gpio2_bit22_IRQHandler
 1234              	PLIC_gpio1_bit8_or_gpio2_bit22_IRQHandler:
 1235              	.LFB65:
 256:../src/platform/mpfs_hal/common/mss_irq_handler_stubs.c **** 
 257:../src/platform/mpfs_hal/common/mss_irq_handler_stubs.c **** __attribute__((weak))  uint8_t  PLIC_gpio1_bit8_or_gpio2_bit22_IRQHandler(void)
 258:../src/platform/mpfs_hal/common/mss_irq_handler_stubs.c **** {
 1236              		.loc 1 258 1
 1237              		.cfi_startproc
 1238 0000 4111     		addi	sp,sp,-16
 1239              		.cfi_def_cfa_offset 16
 1240 0002 22E4     		sd	s0,8(sp)
 1241              		.cfi_offset 8, -8
 1242 0004 0008     		addi	s0,sp,16
 1243              		.cfi_def_cfa 8, 0
 259:../src/platform/mpfs_hal/common/mss_irq_handler_stubs.c ****     return(0U);
 1244              		.loc 1 259 11
 1245 0006 8147     		li	a5,0
 260:../src/platform/mpfs_hal/common/mss_irq_handler_stubs.c **** }
 1246              		.loc 1 260 1
 1247 0008 3E85     		mv	a0,a5
 1248 000a 2264     		ld	s0,8(sp)
 1249              		.cfi_restore 8
 1250              		.cfi_def_cfa 2, 16
 1251 000c 4101     		addi	sp,sp,16
 1252              		.cfi_def_cfa_offset 0
 1253 000e 8280     		jr	ra
 1254              		.cfi_endproc
 1255              	.LFE65:
 1257              		.section	.text.PLIC_gpio1_bit9_or_gpio2_bit23_IRQHandler,"ax",@progbits
 1258              		.align	1
 1259              		.weak	PLIC_gpio1_bit9_or_gpio2_bit23_IRQHandler
 1261              	PLIC_gpio1_bit9_or_gpio2_bit23_IRQHandler:
 1262              	.LFB66:
 261:../src/platform/mpfs_hal/common/mss_irq_handler_stubs.c **** 
 262:../src/platform/mpfs_hal/common/mss_irq_handler_stubs.c **** __attribute__((weak))  uint8_t  PLIC_gpio1_bit9_or_gpio2_bit23_IRQHandler(void)
 263:../src/platform/mpfs_hal/common/mss_irq_handler_stubs.c **** {
 1263              		.loc 1 263 1
 1264              		.cfi_startproc
 1265 0000 4111     		addi	sp,sp,-16
 1266              		.cfi_def_cfa_offset 16
 1267 0002 22E4     		sd	s0,8(sp)
 1268              		.cfi_offset 8, -8
 1269 0004 0008     		addi	s0,sp,16
 1270              		.cfi_def_cfa 8, 0
 264:../src/platform/mpfs_hal/common/mss_irq_handler_stubs.c ****     return(0U);
 1271              		.loc 1 264 11
 1272 0006 8147     		li	a5,0
 265:../src/platform/mpfs_hal/common/mss_irq_handler_stubs.c **** }
 1273              		.loc 1 265 1
 1274 0008 3E85     		mv	a0,a5
 1275 000a 2264     		ld	s0,8(sp)
 1276              		.cfi_restore 8
 1277              		.cfi_def_cfa 2, 16
 1278 000c 4101     		addi	sp,sp,16
 1279              		.cfi_def_cfa_offset 0
 1280 000e 8280     		jr	ra
 1281              		.cfi_endproc
 1282              	.LFE66:
 1284              		.section	.text.PLIC_gpio1_bit10_or_gpio2_bit24_IRQHandler,"ax",@progbits
 1285              		.align	1
 1286              		.weak	PLIC_gpio1_bit10_or_gpio2_bit24_IRQHandler
 1288              	PLIC_gpio1_bit10_or_gpio2_bit24_IRQHandler:
 1289              	.LFB67:
 266:../src/platform/mpfs_hal/common/mss_irq_handler_stubs.c **** 
 267:../src/platform/mpfs_hal/common/mss_irq_handler_stubs.c **** __attribute__((weak))  uint8_t  PLIC_gpio1_bit10_or_gpio2_bit24_IRQHandler(void)
 268:../src/platform/mpfs_hal/common/mss_irq_handler_stubs.c **** {
 1290              		.loc 1 268 1
 1291              		.cfi_startproc
 1292 0000 4111     		addi	sp,sp,-16
 1293              		.cfi_def_cfa_offset 16
 1294 0002 22E4     		sd	s0,8(sp)
 1295              		.cfi_offset 8, -8
 1296 0004 0008     		addi	s0,sp,16
 1297              		.cfi_def_cfa 8, 0
 269:../src/platform/mpfs_hal/common/mss_irq_handler_stubs.c ****     return(0U);
 1298              		.loc 1 269 11
 1299 0006 8147     		li	a5,0
 270:../src/platform/mpfs_hal/common/mss_irq_handler_stubs.c **** }
 1300              		.loc 1 270 1
 1301 0008 3E85     		mv	a0,a5
 1302 000a 2264     		ld	s0,8(sp)
 1303              		.cfi_restore 8
 1304              		.cfi_def_cfa 2, 16
 1305 000c 4101     		addi	sp,sp,16
 1306              		.cfi_def_cfa_offset 0
 1307 000e 8280     		jr	ra
 1308              		.cfi_endproc
 1309              	.LFE67:
 1311              		.section	.text.PLIC_gpio1_bit11_or_gpio2_bit25_IRQHandler,"ax",@progbits
 1312              		.align	1
 1313              		.weak	PLIC_gpio1_bit11_or_gpio2_bit25_IRQHandler
 1315              	PLIC_gpio1_bit11_or_gpio2_bit25_IRQHandler:
 1316              	.LFB68:
 271:../src/platform/mpfs_hal/common/mss_irq_handler_stubs.c **** 
 272:../src/platform/mpfs_hal/common/mss_irq_handler_stubs.c **** __attribute__((weak))  uint8_t  PLIC_gpio1_bit11_or_gpio2_bit25_IRQHandler(void)
 273:../src/platform/mpfs_hal/common/mss_irq_handler_stubs.c **** {
 1317              		.loc 1 273 1
 1318              		.cfi_startproc
 1319 0000 4111     		addi	sp,sp,-16
 1320              		.cfi_def_cfa_offset 16
 1321 0002 22E4     		sd	s0,8(sp)
 1322              		.cfi_offset 8, -8
 1323 0004 0008     		addi	s0,sp,16
 1324              		.cfi_def_cfa 8, 0
 274:../src/platform/mpfs_hal/common/mss_irq_handler_stubs.c ****     return(0U);
 1325              		.loc 1 274 11
 1326 0006 8147     		li	a5,0
 275:../src/platform/mpfs_hal/common/mss_irq_handler_stubs.c **** }
 1327              		.loc 1 275 1
 1328 0008 3E85     		mv	a0,a5
 1329 000a 2264     		ld	s0,8(sp)
 1330              		.cfi_restore 8
 1331              		.cfi_def_cfa 2, 16
 1332 000c 4101     		addi	sp,sp,16
 1333              		.cfi_def_cfa_offset 0
 1334 000e 8280     		jr	ra
 1335              		.cfi_endproc
 1336              	.LFE68:
 1338              		.section	.text.PLIC_gpio1_bit12_or_gpio2_bit26_IRQHandler,"ax",@progbits
 1339              		.align	1
 1340              		.weak	PLIC_gpio1_bit12_or_gpio2_bit26_IRQHandler
 1342              	PLIC_gpio1_bit12_or_gpio2_bit26_IRQHandler:
 1343              	.LFB69:
 276:../src/platform/mpfs_hal/common/mss_irq_handler_stubs.c **** 
 277:../src/platform/mpfs_hal/common/mss_irq_handler_stubs.c **** __attribute__((weak))  uint8_t  PLIC_gpio1_bit12_or_gpio2_bit26_IRQHandler(void)
 278:../src/platform/mpfs_hal/common/mss_irq_handler_stubs.c **** {
 1344              		.loc 1 278 1
 1345              		.cfi_startproc
 1346 0000 4111     		addi	sp,sp,-16
 1347              		.cfi_def_cfa_offset 16
 1348 0002 22E4     		sd	s0,8(sp)
 1349              		.cfi_offset 8, -8
 1350 0004 0008     		addi	s0,sp,16
 1351              		.cfi_def_cfa 8, 0
 279:../src/platform/mpfs_hal/common/mss_irq_handler_stubs.c ****     return(0U);
 1352              		.loc 1 279 11
 1353 0006 8147     		li	a5,0
 280:../src/platform/mpfs_hal/common/mss_irq_handler_stubs.c **** }
 1354              		.loc 1 280 1
 1355 0008 3E85     		mv	a0,a5
 1356 000a 2264     		ld	s0,8(sp)
 1357              		.cfi_restore 8
 1358              		.cfi_def_cfa 2, 16
 1359 000c 4101     		addi	sp,sp,16
 1360              		.cfi_def_cfa_offset 0
 1361 000e 8280     		jr	ra
 1362              		.cfi_endproc
 1363              	.LFE69:
 1365              		.section	.text.PLIC_gpio1_bit13_or_gpio2_bit27_IRQHandler,"ax",@progbits
 1366              		.align	1
 1367              		.weak	PLIC_gpio1_bit13_or_gpio2_bit27_IRQHandler
 1369              	PLIC_gpio1_bit13_or_gpio2_bit27_IRQHandler:
 1370              	.LFB70:
 281:../src/platform/mpfs_hal/common/mss_irq_handler_stubs.c **** 
 282:../src/platform/mpfs_hal/common/mss_irq_handler_stubs.c **** __attribute__((weak))  uint8_t  PLIC_gpio1_bit13_or_gpio2_bit27_IRQHandler(void)
 283:../src/platform/mpfs_hal/common/mss_irq_handler_stubs.c **** {
 1371              		.loc 1 283 1
 1372              		.cfi_startproc
 1373 0000 4111     		addi	sp,sp,-16
 1374              		.cfi_def_cfa_offset 16
 1375 0002 22E4     		sd	s0,8(sp)
 1376              		.cfi_offset 8, -8
 1377 0004 0008     		addi	s0,sp,16
 1378              		.cfi_def_cfa 8, 0
 284:../src/platform/mpfs_hal/common/mss_irq_handler_stubs.c ****     return(0U);
 1379              		.loc 1 284 11
 1380 0006 8147     		li	a5,0
 285:../src/platform/mpfs_hal/common/mss_irq_handler_stubs.c **** }
 1381              		.loc 1 285 1
 1382 0008 3E85     		mv	a0,a5
 1383 000a 2264     		ld	s0,8(sp)
 1384              		.cfi_restore 8
 1385              		.cfi_def_cfa 2, 16
 1386 000c 4101     		addi	sp,sp,16
 1387              		.cfi_def_cfa_offset 0
 1388 000e 8280     		jr	ra
 1389              		.cfi_endproc
 1390              	.LFE70:
 1392              		.section	.text.PLIC_gpio1_bit14_or_gpio2_bit28_IRQHandler,"ax",@progbits
 1393              		.align	1
 1394              		.weak	PLIC_gpio1_bit14_or_gpio2_bit28_IRQHandler
 1396              	PLIC_gpio1_bit14_or_gpio2_bit28_IRQHandler:
 1397              	.LFB71:
 286:../src/platform/mpfs_hal/common/mss_irq_handler_stubs.c **** 
 287:../src/platform/mpfs_hal/common/mss_irq_handler_stubs.c **** 
 288:../src/platform/mpfs_hal/common/mss_irq_handler_stubs.c **** __attribute__((weak))  uint8_t  PLIC_gpio1_bit14_or_gpio2_bit28_IRQHandler(void)
 289:../src/platform/mpfs_hal/common/mss_irq_handler_stubs.c **** {
 1398              		.loc 1 289 1
 1399              		.cfi_startproc
 1400 0000 4111     		addi	sp,sp,-16
 1401              		.cfi_def_cfa_offset 16
 1402 0002 22E4     		sd	s0,8(sp)
 1403              		.cfi_offset 8, -8
 1404 0004 0008     		addi	s0,sp,16
 1405              		.cfi_def_cfa 8, 0
 290:../src/platform/mpfs_hal/common/mss_irq_handler_stubs.c ****     return(0U);
 1406              		.loc 1 290 11
 1407 0006 8147     		li	a5,0
 291:../src/platform/mpfs_hal/common/mss_irq_handler_stubs.c **** }
 1408              		.loc 1 291 1
 1409 0008 3E85     		mv	a0,a5
 1410 000a 2264     		ld	s0,8(sp)
 1411              		.cfi_restore 8
 1412              		.cfi_def_cfa 2, 16
 1413 000c 4101     		addi	sp,sp,16
 1414              		.cfi_def_cfa_offset 0
 1415 000e 8280     		jr	ra
 1416              		.cfi_endproc
 1417              	.LFE71:
 1419              		.section	.text.PLIC_gpio1_bit15_or_gpio2_bit29_IRQHandler,"ax",@progbits
 1420              		.align	1
 1421              		.weak	PLIC_gpio1_bit15_or_gpio2_bit29_IRQHandler
 1423              	PLIC_gpio1_bit15_or_gpio2_bit29_IRQHandler:
 1424              	.LFB72:
 292:../src/platform/mpfs_hal/common/mss_irq_handler_stubs.c **** 
 293:../src/platform/mpfs_hal/common/mss_irq_handler_stubs.c **** __attribute__((weak))  uint8_t  PLIC_gpio1_bit15_or_gpio2_bit29_IRQHandler(void)
 294:../src/platform/mpfs_hal/common/mss_irq_handler_stubs.c **** {
 1425              		.loc 1 294 1
 1426              		.cfi_startproc
 1427 0000 4111     		addi	sp,sp,-16
 1428              		.cfi_def_cfa_offset 16
 1429 0002 22E4     		sd	s0,8(sp)
 1430              		.cfi_offset 8, -8
 1431 0004 0008     		addi	s0,sp,16
 1432              		.cfi_def_cfa 8, 0
 295:../src/platform/mpfs_hal/common/mss_irq_handler_stubs.c ****     return(0U);
 1433              		.loc 1 295 11
 1434 0006 8147     		li	a5,0
 296:../src/platform/mpfs_hal/common/mss_irq_handler_stubs.c **** }
 1435              		.loc 1 296 1
 1436 0008 3E85     		mv	a0,a5
 1437 000a 2264     		ld	s0,8(sp)
 1438              		.cfi_restore 8
 1439              		.cfi_def_cfa 2, 16
 1440 000c 4101     		addi	sp,sp,16
 1441              		.cfi_def_cfa_offset 0
 1442 000e 8280     		jr	ra
 1443              		.cfi_endproc
 1444              	.LFE72:
 1446              		.section	.text.PLIC_gpio1_bit16_or_gpio2_bit30_IRQHandler,"ax",@progbits
 1447              		.align	1
 1448              		.weak	PLIC_gpio1_bit16_or_gpio2_bit30_IRQHandler
 1450              	PLIC_gpio1_bit16_or_gpio2_bit30_IRQHandler:
 1451              	.LFB73:
 297:../src/platform/mpfs_hal/common/mss_irq_handler_stubs.c **** 
 298:../src/platform/mpfs_hal/common/mss_irq_handler_stubs.c **** __attribute__((weak))  uint8_t  PLIC_gpio1_bit16_or_gpio2_bit30_IRQHandler(void)
 299:../src/platform/mpfs_hal/common/mss_irq_handler_stubs.c **** {
 1452              		.loc 1 299 1
 1453              		.cfi_startproc
 1454 0000 4111     		addi	sp,sp,-16
 1455              		.cfi_def_cfa_offset 16
 1456 0002 22E4     		sd	s0,8(sp)
 1457              		.cfi_offset 8, -8
 1458 0004 0008     		addi	s0,sp,16
 1459              		.cfi_def_cfa 8, 0
 300:../src/platform/mpfs_hal/common/mss_irq_handler_stubs.c ****     return(0U);
 1460              		.loc 1 300 11
 1461 0006 8147     		li	a5,0
 301:../src/platform/mpfs_hal/common/mss_irq_handler_stubs.c **** }
 1462              		.loc 1 301 1
 1463 0008 3E85     		mv	a0,a5
 1464 000a 2264     		ld	s0,8(sp)
 1465              		.cfi_restore 8
 1466              		.cfi_def_cfa 2, 16
 1467 000c 4101     		addi	sp,sp,16
 1468              		.cfi_def_cfa_offset 0
 1469 000e 8280     		jr	ra
 1470              		.cfi_endproc
 1471              	.LFE73:
 1473              		.section	.text.PLIC_gpio1_bit17_or_gpio2_bit31_IRQHandler,"ax",@progbits
 1474              		.align	1
 1475              		.weak	PLIC_gpio1_bit17_or_gpio2_bit31_IRQHandler
 1477              	PLIC_gpio1_bit17_or_gpio2_bit31_IRQHandler:
 1478              	.LFB74:
 302:../src/platform/mpfs_hal/common/mss_irq_handler_stubs.c **** 
 303:../src/platform/mpfs_hal/common/mss_irq_handler_stubs.c **** __attribute__((weak))  uint8_t  PLIC_gpio1_bit17_or_gpio2_bit31_IRQHandler(void)
 304:../src/platform/mpfs_hal/common/mss_irq_handler_stubs.c **** {
 1479              		.loc 1 304 1
 1480              		.cfi_startproc
 1481 0000 4111     		addi	sp,sp,-16
 1482              		.cfi_def_cfa_offset 16
 1483 0002 22E4     		sd	s0,8(sp)
 1484              		.cfi_offset 8, -8
 1485 0004 0008     		addi	s0,sp,16
 1486              		.cfi_def_cfa 8, 0
 305:../src/platform/mpfs_hal/common/mss_irq_handler_stubs.c ****     return(0U);
 1487              		.loc 1 305 11
 1488 0006 8147     		li	a5,0
 306:../src/platform/mpfs_hal/common/mss_irq_handler_stubs.c **** }
 1489              		.loc 1 306 1
 1490 0008 3E85     		mv	a0,a5
 1491 000a 2264     		ld	s0,8(sp)
 1492              		.cfi_restore 8
 1493              		.cfi_def_cfa 2, 16
 1494 000c 4101     		addi	sp,sp,16
 1495              		.cfi_def_cfa_offset 0
 1496 000e 8280     		jr	ra
 1497              		.cfi_endproc
 1498              	.LFE74:
 1500              		.section	.text.PLIC_gpio1_bit18_IRQHandler,"ax",@progbits
 1501              		.align	1
 1502              		.weak	PLIC_gpio1_bit18_IRQHandler
 1504              	PLIC_gpio1_bit18_IRQHandler:
 1505              	.LFB75:
 307:../src/platform/mpfs_hal/common/mss_irq_handler_stubs.c **** 
 308:../src/platform/mpfs_hal/common/mss_irq_handler_stubs.c **** 
 309:../src/platform/mpfs_hal/common/mss_irq_handler_stubs.c **** __attribute__((weak))  uint8_t  PLIC_gpio1_bit18_IRQHandler(void)
 310:../src/platform/mpfs_hal/common/mss_irq_handler_stubs.c **** {
 1506              		.loc 1 310 1
 1507              		.cfi_startproc
 1508 0000 4111     		addi	sp,sp,-16
 1509              		.cfi_def_cfa_offset 16
 1510 0002 22E4     		sd	s0,8(sp)
 1511              		.cfi_offset 8, -8
 1512 0004 0008     		addi	s0,sp,16
 1513              		.cfi_def_cfa 8, 0
 311:../src/platform/mpfs_hal/common/mss_irq_handler_stubs.c ****     return(0U);
 1514              		.loc 1 311 11
 1515 0006 8147     		li	a5,0
 312:../src/platform/mpfs_hal/common/mss_irq_handler_stubs.c **** }
 1516              		.loc 1 312 1
 1517 0008 3E85     		mv	a0,a5
 1518 000a 2264     		ld	s0,8(sp)
 1519              		.cfi_restore 8
 1520              		.cfi_def_cfa 2, 16
 1521 000c 4101     		addi	sp,sp,16
 1522              		.cfi_def_cfa_offset 0
 1523 000e 8280     		jr	ra
 1524              		.cfi_endproc
 1525              	.LFE75:
 1527              		.section	.text.PLIC_gpio1_bit19_IRQHandler,"ax",@progbits
 1528              		.align	1
 1529              		.weak	PLIC_gpio1_bit19_IRQHandler
 1531              	PLIC_gpio1_bit19_IRQHandler:
 1532              	.LFB76:
 313:../src/platform/mpfs_hal/common/mss_irq_handler_stubs.c **** 
 314:../src/platform/mpfs_hal/common/mss_irq_handler_stubs.c **** __attribute__((weak))  uint8_t  PLIC_gpio1_bit19_IRQHandler(void)
 315:../src/platform/mpfs_hal/common/mss_irq_handler_stubs.c **** {
 1533              		.loc 1 315 1
 1534              		.cfi_startproc
 1535 0000 4111     		addi	sp,sp,-16
 1536              		.cfi_def_cfa_offset 16
 1537 0002 22E4     		sd	s0,8(sp)
 1538              		.cfi_offset 8, -8
 1539 0004 0008     		addi	s0,sp,16
 1540              		.cfi_def_cfa 8, 0
 316:../src/platform/mpfs_hal/common/mss_irq_handler_stubs.c ****     return(0U);
 1541              		.loc 1 316 11
 1542 0006 8147     		li	a5,0
 317:../src/platform/mpfs_hal/common/mss_irq_handler_stubs.c **** }
 1543              		.loc 1 317 1
 1544 0008 3E85     		mv	a0,a5
 1545 000a 2264     		ld	s0,8(sp)
 1546              		.cfi_restore 8
 1547              		.cfi_def_cfa 2, 16
 1548 000c 4101     		addi	sp,sp,16
 1549              		.cfi_def_cfa_offset 0
 1550 000e 8280     		jr	ra
 1551              		.cfi_endproc
 1552              	.LFE76:
 1554              		.section	.text.PLIC_gpio1_bit20_IRQHandler,"ax",@progbits
 1555              		.align	1
 1556              		.weak	PLIC_gpio1_bit20_IRQHandler
 1558              	PLIC_gpio1_bit20_IRQHandler:
 1559              	.LFB77:
 318:../src/platform/mpfs_hal/common/mss_irq_handler_stubs.c **** 
 319:../src/platform/mpfs_hal/common/mss_irq_handler_stubs.c **** __attribute__((weak))  uint8_t  PLIC_gpio1_bit20_IRQHandler(void)
 320:../src/platform/mpfs_hal/common/mss_irq_handler_stubs.c **** {
 1560              		.loc 1 320 1
 1561              		.cfi_startproc
 1562 0000 4111     		addi	sp,sp,-16
 1563              		.cfi_def_cfa_offset 16
 1564 0002 22E4     		sd	s0,8(sp)
 1565              		.cfi_offset 8, -8
 1566 0004 0008     		addi	s0,sp,16
 1567              		.cfi_def_cfa 8, 0
 321:../src/platform/mpfs_hal/common/mss_irq_handler_stubs.c ****     return(0U);
 1568              		.loc 1 321 11
 1569 0006 8147     		li	a5,0
 322:../src/platform/mpfs_hal/common/mss_irq_handler_stubs.c **** }
 1570              		.loc 1 322 1
 1571 0008 3E85     		mv	a0,a5
 1572 000a 2264     		ld	s0,8(sp)
 1573              		.cfi_restore 8
 1574              		.cfi_def_cfa 2, 16
 1575 000c 4101     		addi	sp,sp,16
 1576              		.cfi_def_cfa_offset 0
 1577 000e 8280     		jr	ra
 1578              		.cfi_endproc
 1579              	.LFE77:
 1581              		.section	.text.PLIC_gpio1_bit21_IRQHandler,"ax",@progbits
 1582              		.align	1
 1583              		.weak	PLIC_gpio1_bit21_IRQHandler
 1585              	PLIC_gpio1_bit21_IRQHandler:
 1586              	.LFB78:
 323:../src/platform/mpfs_hal/common/mss_irq_handler_stubs.c **** 
 324:../src/platform/mpfs_hal/common/mss_irq_handler_stubs.c **** __attribute__((weak))  uint8_t  PLIC_gpio1_bit21_IRQHandler(void)
 325:../src/platform/mpfs_hal/common/mss_irq_handler_stubs.c **** {
 1587              		.loc 1 325 1
 1588              		.cfi_startproc
 1589 0000 4111     		addi	sp,sp,-16
 1590              		.cfi_def_cfa_offset 16
 1591 0002 22E4     		sd	s0,8(sp)
 1592              		.cfi_offset 8, -8
 1593 0004 0008     		addi	s0,sp,16
 1594              		.cfi_def_cfa 8, 0
 326:../src/platform/mpfs_hal/common/mss_irq_handler_stubs.c ****     return(0U);
 1595              		.loc 1 326 11
 1596 0006 8147     		li	a5,0
 327:../src/platform/mpfs_hal/common/mss_irq_handler_stubs.c **** }
 1597              		.loc 1 327 1
 1598 0008 3E85     		mv	a0,a5
 1599 000a 2264     		ld	s0,8(sp)
 1600              		.cfi_restore 8
 1601              		.cfi_def_cfa 2, 16
 1602 000c 4101     		addi	sp,sp,16
 1603              		.cfi_def_cfa_offset 0
 1604 000e 8280     		jr	ra
 1605              		.cfi_endproc
 1606              	.LFE78:
 1608              		.section	.text.PLIC_gpio1_bit22_IRQHandler,"ax",@progbits
 1609              		.align	1
 1610              		.weak	PLIC_gpio1_bit22_IRQHandler
 1612              	PLIC_gpio1_bit22_IRQHandler:
 1613              	.LFB79:
 328:../src/platform/mpfs_hal/common/mss_irq_handler_stubs.c **** 
 329:../src/platform/mpfs_hal/common/mss_irq_handler_stubs.c **** __attribute__((weak))  uint8_t  PLIC_gpio1_bit22_IRQHandler(void)
 330:../src/platform/mpfs_hal/common/mss_irq_handler_stubs.c **** {
 1614              		.loc 1 330 1
 1615              		.cfi_startproc
 1616 0000 4111     		addi	sp,sp,-16
 1617              		.cfi_def_cfa_offset 16
 1618 0002 22E4     		sd	s0,8(sp)
 1619              		.cfi_offset 8, -8
 1620 0004 0008     		addi	s0,sp,16
 1621              		.cfi_def_cfa 8, 0
 331:../src/platform/mpfs_hal/common/mss_irq_handler_stubs.c ****     return(0U);
 1622              		.loc 1 331 11
 1623 0006 8147     		li	a5,0
 332:../src/platform/mpfs_hal/common/mss_irq_handler_stubs.c **** }
 1624              		.loc 1 332 1
 1625 0008 3E85     		mv	a0,a5
 1626 000a 2264     		ld	s0,8(sp)
 1627              		.cfi_restore 8
 1628              		.cfi_def_cfa 2, 16
 1629 000c 4101     		addi	sp,sp,16
 1630              		.cfi_def_cfa_offset 0
 1631 000e 8280     		jr	ra
 1632              		.cfi_endproc
 1633              	.LFE79:
 1635              		.section	.text.PLIC_gpio1_bit23_IRQHandler,"ax",@progbits
 1636              		.align	1
 1637              		.weak	PLIC_gpio1_bit23_IRQHandler
 1639              	PLIC_gpio1_bit23_IRQHandler:
 1640              	.LFB80:
 333:../src/platform/mpfs_hal/common/mss_irq_handler_stubs.c **** 
 334:../src/platform/mpfs_hal/common/mss_irq_handler_stubs.c **** __attribute__((weak))  uint8_t  PLIC_gpio1_bit23_IRQHandler(void)
 335:../src/platform/mpfs_hal/common/mss_irq_handler_stubs.c **** {
 1641              		.loc 1 335 1
 1642              		.cfi_startproc
 1643 0000 4111     		addi	sp,sp,-16
 1644              		.cfi_def_cfa_offset 16
 1645 0002 22E4     		sd	s0,8(sp)
 1646              		.cfi_offset 8, -8
 1647 0004 0008     		addi	s0,sp,16
 1648              		.cfi_def_cfa 8, 0
 336:../src/platform/mpfs_hal/common/mss_irq_handler_stubs.c ****     return(0U);
 1649              		.loc 1 336 11
 1650 0006 8147     		li	a5,0
 337:../src/platform/mpfs_hal/common/mss_irq_handler_stubs.c **** }
 1651              		.loc 1 337 1
 1652 0008 3E85     		mv	a0,a5
 1653 000a 2264     		ld	s0,8(sp)
 1654              		.cfi_restore 8
 1655              		.cfi_def_cfa 2, 16
 1656 000c 4101     		addi	sp,sp,16
 1657              		.cfi_def_cfa_offset 0
 1658 000e 8280     		jr	ra
 1659              		.cfi_endproc
 1660              	.LFE80:
 1662              		.section	.text.PLIC_gpio0_non_direct_IRQHandler,"ax",@progbits
 1663              		.align	1
 1664              		.weak	PLIC_gpio0_non_direct_IRQHandler
 1666              	PLIC_gpio0_non_direct_IRQHandler:
 1667              	.LFB81:
 338:../src/platform/mpfs_hal/common/mss_irq_handler_stubs.c **** 
 339:../src/platform/mpfs_hal/common/mss_irq_handler_stubs.c **** 
 340:../src/platform/mpfs_hal/common/mss_irq_handler_stubs.c **** __attribute__((weak))  uint8_t  PLIC_gpio0_non_direct_IRQHandler(void)
 341:../src/platform/mpfs_hal/common/mss_irq_handler_stubs.c **** {
 1668              		.loc 1 341 1
 1669              		.cfi_startproc
 1670 0000 4111     		addi	sp,sp,-16
 1671              		.cfi_def_cfa_offset 16
 1672 0002 22E4     		sd	s0,8(sp)
 1673              		.cfi_offset 8, -8
 1674 0004 0008     		addi	s0,sp,16
 1675              		.cfi_def_cfa 8, 0
 342:../src/platform/mpfs_hal/common/mss_irq_handler_stubs.c ****     return(0U);
 1676              		.loc 1 342 11
 1677 0006 8147     		li	a5,0
 343:../src/platform/mpfs_hal/common/mss_irq_handler_stubs.c **** }
 1678              		.loc 1 343 1
 1679 0008 3E85     		mv	a0,a5
 1680 000a 2264     		ld	s0,8(sp)
 1681              		.cfi_restore 8
 1682              		.cfi_def_cfa 2, 16
 1683 000c 4101     		addi	sp,sp,16
 1684              		.cfi_def_cfa_offset 0
 1685 000e 8280     		jr	ra
 1686              		.cfi_endproc
 1687              	.LFE81:
 1689              		.section	.text.PLIC_gpio1_non_direct_IRQHandler,"ax",@progbits
 1690              		.align	1
 1691              		.weak	PLIC_gpio1_non_direct_IRQHandler
 1693              	PLIC_gpio1_non_direct_IRQHandler:
 1694              	.LFB82:
 344:../src/platform/mpfs_hal/common/mss_irq_handler_stubs.c **** 
 345:../src/platform/mpfs_hal/common/mss_irq_handler_stubs.c **** __attribute__((weak))  uint8_t  PLIC_gpio1_non_direct_IRQHandler(void)
 346:../src/platform/mpfs_hal/common/mss_irq_handler_stubs.c **** {
 1695              		.loc 1 346 1
 1696              		.cfi_startproc
 1697 0000 4111     		addi	sp,sp,-16
 1698              		.cfi_def_cfa_offset 16
 1699 0002 22E4     		sd	s0,8(sp)
 1700              		.cfi_offset 8, -8
 1701 0004 0008     		addi	s0,sp,16
 1702              		.cfi_def_cfa 8, 0
 347:../src/platform/mpfs_hal/common/mss_irq_handler_stubs.c ****     return(0U);
 1703              		.loc 1 347 11
 1704 0006 8147     		li	a5,0
 348:../src/platform/mpfs_hal/common/mss_irq_handler_stubs.c **** }
 1705              		.loc 1 348 1
 1706 0008 3E85     		mv	a0,a5
 1707 000a 2264     		ld	s0,8(sp)
 1708              		.cfi_restore 8
 1709              		.cfi_def_cfa 2, 16
 1710 000c 4101     		addi	sp,sp,16
 1711              		.cfi_def_cfa_offset 0
 1712 000e 8280     		jr	ra
 1713              		.cfi_endproc
 1714              	.LFE82:
 1716              		.section	.text.PLIC_gpio2_non_direct_IRQHandler,"ax",@progbits
 1717              		.align	1
 1718              		.weak	PLIC_gpio2_non_direct_IRQHandler
 1720              	PLIC_gpio2_non_direct_IRQHandler:
 1721              	.LFB83:
 349:../src/platform/mpfs_hal/common/mss_irq_handler_stubs.c **** 
 350:../src/platform/mpfs_hal/common/mss_irq_handler_stubs.c **** __attribute__((weak))  uint8_t  PLIC_gpio2_non_direct_IRQHandler(void)
 351:../src/platform/mpfs_hal/common/mss_irq_handler_stubs.c **** {
 1722              		.loc 1 351 1
 1723              		.cfi_startproc
 1724 0000 4111     		addi	sp,sp,-16
 1725              		.cfi_def_cfa_offset 16
 1726 0002 22E4     		sd	s0,8(sp)
 1727              		.cfi_offset 8, -8
 1728 0004 0008     		addi	s0,sp,16
 1729              		.cfi_def_cfa 8, 0
 352:../src/platform/mpfs_hal/common/mss_irq_handler_stubs.c ****     return(0U);
 1730              		.loc 1 352 11
 1731 0006 8147     		li	a5,0
 353:../src/platform/mpfs_hal/common/mss_irq_handler_stubs.c **** }
 1732              		.loc 1 353 1
 1733 0008 3E85     		mv	a0,a5
 1734 000a 2264     		ld	s0,8(sp)
 1735              		.cfi_restore 8
 1736              		.cfi_def_cfa 2, 16
 1737 000c 4101     		addi	sp,sp,16
 1738              		.cfi_def_cfa_offset 0
 1739 000e 8280     		jr	ra
 1740              		.cfi_endproc
 1741              	.LFE83:
 1743              		.section	.text.PLIC_spi0_IRQHandler,"ax",@progbits
 1744              		.align	1
 1745              		.weak	PLIC_spi0_IRQHandler
 1747              	PLIC_spi0_IRQHandler:
 1748              	.LFB84:
 354:../src/platform/mpfs_hal/common/mss_irq_handler_stubs.c **** 
 355:../src/platform/mpfs_hal/common/mss_irq_handler_stubs.c **** 
 356:../src/platform/mpfs_hal/common/mss_irq_handler_stubs.c **** __attribute__((weak))  uint8_t  PLIC_spi0_IRQHandler(void)
 357:../src/platform/mpfs_hal/common/mss_irq_handler_stubs.c **** {
 1749              		.loc 1 357 1
 1750              		.cfi_startproc
 1751 0000 4111     		addi	sp,sp,-16
 1752              		.cfi_def_cfa_offset 16
 1753 0002 22E4     		sd	s0,8(sp)
 1754              		.cfi_offset 8, -8
 1755 0004 0008     		addi	s0,sp,16
 1756              		.cfi_def_cfa 8, 0
 358:../src/platform/mpfs_hal/common/mss_irq_handler_stubs.c ****     return(0U);
 1757              		.loc 1 358 11
 1758 0006 8147     		li	a5,0
 359:../src/platform/mpfs_hal/common/mss_irq_handler_stubs.c **** }
 1759              		.loc 1 359 1
 1760 0008 3E85     		mv	a0,a5
 1761 000a 2264     		ld	s0,8(sp)
 1762              		.cfi_restore 8
 1763              		.cfi_def_cfa 2, 16
 1764 000c 4101     		addi	sp,sp,16
 1765              		.cfi_def_cfa_offset 0
 1766 000e 8280     		jr	ra
 1767              		.cfi_endproc
 1768              	.LFE84:
 1770              		.section	.text.PLIC_spi1_IRQHandler,"ax",@progbits
 1771              		.align	1
 1772              		.weak	PLIC_spi1_IRQHandler
 1774              	PLIC_spi1_IRQHandler:
 1775              	.LFB85:
 360:../src/platform/mpfs_hal/common/mss_irq_handler_stubs.c **** 
 361:../src/platform/mpfs_hal/common/mss_irq_handler_stubs.c **** __attribute__((weak))  uint8_t  PLIC_spi1_IRQHandler(void)
 362:../src/platform/mpfs_hal/common/mss_irq_handler_stubs.c **** {
 1776              		.loc 1 362 1
 1777              		.cfi_startproc
 1778 0000 4111     		addi	sp,sp,-16
 1779              		.cfi_def_cfa_offset 16
 1780 0002 22E4     		sd	s0,8(sp)
 1781              		.cfi_offset 8, -8
 1782 0004 0008     		addi	s0,sp,16
 1783              		.cfi_def_cfa 8, 0
 363:../src/platform/mpfs_hal/common/mss_irq_handler_stubs.c ****     return(0U);
 1784              		.loc 1 363 11
 1785 0006 8147     		li	a5,0
 364:../src/platform/mpfs_hal/common/mss_irq_handler_stubs.c **** }
 1786              		.loc 1 364 1
 1787 0008 3E85     		mv	a0,a5
 1788 000a 2264     		ld	s0,8(sp)
 1789              		.cfi_restore 8
 1790              		.cfi_def_cfa 2, 16
 1791 000c 4101     		addi	sp,sp,16
 1792              		.cfi_def_cfa_offset 0
 1793 000e 8280     		jr	ra
 1794              		.cfi_endproc
 1795              	.LFE85:
 1797              		.section	.text.PLIC_external_can0_IRQHandler,"ax",@progbits
 1798              		.align	1
 1799              		.weak	PLIC_external_can0_IRQHandler
 1801              	PLIC_external_can0_IRQHandler:
 1802              	.LFB86:
 365:../src/platform/mpfs_hal/common/mss_irq_handler_stubs.c **** 
 366:../src/platform/mpfs_hal/common/mss_irq_handler_stubs.c **** __attribute__((weak))  uint8_t  PLIC_external_can0_IRQHandler(void)
 367:../src/platform/mpfs_hal/common/mss_irq_handler_stubs.c **** {
 1803              		.loc 1 367 1
 1804              		.cfi_startproc
 1805 0000 4111     		addi	sp,sp,-16
 1806              		.cfi_def_cfa_offset 16
 1807 0002 22E4     		sd	s0,8(sp)
 1808              		.cfi_offset 8, -8
 1809 0004 0008     		addi	s0,sp,16
 1810              		.cfi_def_cfa 8, 0
 368:../src/platform/mpfs_hal/common/mss_irq_handler_stubs.c ****     return(0U);
 1811              		.loc 1 368 11
 1812 0006 8147     		li	a5,0
 369:../src/platform/mpfs_hal/common/mss_irq_handler_stubs.c **** }
 1813              		.loc 1 369 1
 1814 0008 3E85     		mv	a0,a5
 1815 000a 2264     		ld	s0,8(sp)
 1816              		.cfi_restore 8
 1817              		.cfi_def_cfa 2, 16
 1818 000c 4101     		addi	sp,sp,16
 1819              		.cfi_def_cfa_offset 0
 1820 000e 8280     		jr	ra
 1821              		.cfi_endproc
 1822              	.LFE86:
 1824              		.section	.text.PLIC_can1_IRQHandler,"ax",@progbits
 1825              		.align	1
 1826              		.weak	PLIC_can1_IRQHandler
 1828              	PLIC_can1_IRQHandler:
 1829              	.LFB87:
 370:../src/platform/mpfs_hal/common/mss_irq_handler_stubs.c **** 
 371:../src/platform/mpfs_hal/common/mss_irq_handler_stubs.c **** __attribute__((weak))  uint8_t  PLIC_can1_IRQHandler(void)
 372:../src/platform/mpfs_hal/common/mss_irq_handler_stubs.c **** {
 1830              		.loc 1 372 1
 1831              		.cfi_startproc
 1832 0000 4111     		addi	sp,sp,-16
 1833              		.cfi_def_cfa_offset 16
 1834 0002 22E4     		sd	s0,8(sp)
 1835              		.cfi_offset 8, -8
 1836 0004 0008     		addi	s0,sp,16
 1837              		.cfi_def_cfa 8, 0
 373:../src/platform/mpfs_hal/common/mss_irq_handler_stubs.c ****     return(0U);
 1838              		.loc 1 373 11
 1839 0006 8147     		li	a5,0
 374:../src/platform/mpfs_hal/common/mss_irq_handler_stubs.c **** }
 1840              		.loc 1 374 1
 1841 0008 3E85     		mv	a0,a5
 1842 000a 2264     		ld	s0,8(sp)
 1843              		.cfi_restore 8
 1844              		.cfi_def_cfa 2, 16
 1845 000c 4101     		addi	sp,sp,16
 1846              		.cfi_def_cfa_offset 0
 1847 000e 8280     		jr	ra
 1848              		.cfi_endproc
 1849              	.LFE87:
 1851              		.section	.text.PLIC_External_i2c0_main_IRQHandler,"ax",@progbits
 1852              		.align	1
 1853              		.weak	PLIC_External_i2c0_main_IRQHandler
 1855              	PLIC_External_i2c0_main_IRQHandler:
 1856              	.LFB88:
 375:../src/platform/mpfs_hal/common/mss_irq_handler_stubs.c **** 
 376:../src/platform/mpfs_hal/common/mss_irq_handler_stubs.c **** __attribute__((weak))  uint8_t  PLIC_External_i2c0_main_IRQHandler(void)
 377:../src/platform/mpfs_hal/common/mss_irq_handler_stubs.c **** {
 1857              		.loc 1 377 1
 1858              		.cfi_startproc
 1859 0000 4111     		addi	sp,sp,-16
 1860              		.cfi_def_cfa_offset 16
 1861 0002 22E4     		sd	s0,8(sp)
 1862              		.cfi_offset 8, -8
 1863 0004 0008     		addi	s0,sp,16
 1864              		.cfi_def_cfa 8, 0
 378:../src/platform/mpfs_hal/common/mss_irq_handler_stubs.c ****     return(0U);
 1865              		.loc 1 378 11
 1866 0006 8147     		li	a5,0
 379:../src/platform/mpfs_hal/common/mss_irq_handler_stubs.c **** }
 1867              		.loc 1 379 1
 1868 0008 3E85     		mv	a0,a5
 1869 000a 2264     		ld	s0,8(sp)
 1870              		.cfi_restore 8
 1871              		.cfi_def_cfa 2, 16
 1872 000c 4101     		addi	sp,sp,16
 1873              		.cfi_def_cfa_offset 0
 1874 000e 8280     		jr	ra
 1875              		.cfi_endproc
 1876              	.LFE88:
 1878              		.section	.text.PLIC_External_i2c0_alert_IRQHandler,"ax",@progbits
 1879              		.align	1
 1880              		.weak	PLIC_External_i2c0_alert_IRQHandler
 1882              	PLIC_External_i2c0_alert_IRQHandler:
 1883              	.LFB89:
 380:../src/platform/mpfs_hal/common/mss_irq_handler_stubs.c **** 
 381:../src/platform/mpfs_hal/common/mss_irq_handler_stubs.c **** __attribute__((weak))  uint8_t  PLIC_External_i2c0_alert_IRQHandler(void)
 382:../src/platform/mpfs_hal/common/mss_irq_handler_stubs.c **** {
 1884              		.loc 1 382 1
 1885              		.cfi_startproc
 1886 0000 4111     		addi	sp,sp,-16
 1887              		.cfi_def_cfa_offset 16
 1888 0002 22E4     		sd	s0,8(sp)
 1889              		.cfi_offset 8, -8
 1890 0004 0008     		addi	s0,sp,16
 1891              		.cfi_def_cfa 8, 0
 383:../src/platform/mpfs_hal/common/mss_irq_handler_stubs.c ****     return(0U);
 1892              		.loc 1 383 11
 1893 0006 8147     		li	a5,0
 384:../src/platform/mpfs_hal/common/mss_irq_handler_stubs.c **** }
 1894              		.loc 1 384 1
 1895 0008 3E85     		mv	a0,a5
 1896 000a 2264     		ld	s0,8(sp)
 1897              		.cfi_restore 8
 1898              		.cfi_def_cfa 2, 16
 1899 000c 4101     		addi	sp,sp,16
 1900              		.cfi_def_cfa_offset 0
 1901 000e 8280     		jr	ra
 1902              		.cfi_endproc
 1903              	.LFE89:
 1905              		.section	.text.PLIC_i2c0_sus_IRQHandler,"ax",@progbits
 1906              		.align	1
 1907              		.weak	PLIC_i2c0_sus_IRQHandler
 1909              	PLIC_i2c0_sus_IRQHandler:
 1910              	.LFB90:
 385:../src/platform/mpfs_hal/common/mss_irq_handler_stubs.c **** 
 386:../src/platform/mpfs_hal/common/mss_irq_handler_stubs.c **** __attribute__((weak))  uint8_t  PLIC_i2c0_sus_IRQHandler(void)
 387:../src/platform/mpfs_hal/common/mss_irq_handler_stubs.c **** {
 1911              		.loc 1 387 1
 1912              		.cfi_startproc
 1913 0000 4111     		addi	sp,sp,-16
 1914              		.cfi_def_cfa_offset 16
 1915 0002 22E4     		sd	s0,8(sp)
 1916              		.cfi_offset 8, -8
 1917 0004 0008     		addi	s0,sp,16
 1918              		.cfi_def_cfa 8, 0
 388:../src/platform/mpfs_hal/common/mss_irq_handler_stubs.c ****     return(0U);
 1919              		.loc 1 388 11
 1920 0006 8147     		li	a5,0
 389:../src/platform/mpfs_hal/common/mss_irq_handler_stubs.c **** }
 1921              		.loc 1 389 1
 1922 0008 3E85     		mv	a0,a5
 1923 000a 2264     		ld	s0,8(sp)
 1924              		.cfi_restore 8
 1925              		.cfi_def_cfa 2, 16
 1926 000c 4101     		addi	sp,sp,16
 1927              		.cfi_def_cfa_offset 0
 1928 000e 8280     		jr	ra
 1929              		.cfi_endproc
 1930              	.LFE90:
 1932              		.section	.text.PLIC_i2c1_main_IRQHandler,"ax",@progbits
 1933              		.align	1
 1934              		.weak	PLIC_i2c1_main_IRQHandler
 1936              	PLIC_i2c1_main_IRQHandler:
 1937              	.LFB91:
 390:../src/platform/mpfs_hal/common/mss_irq_handler_stubs.c **** 
 391:../src/platform/mpfs_hal/common/mss_irq_handler_stubs.c **** __attribute__((weak))  uint8_t  PLIC_i2c1_main_IRQHandler(void)
 392:../src/platform/mpfs_hal/common/mss_irq_handler_stubs.c **** {
 1938              		.loc 1 392 1
 1939              		.cfi_startproc
 1940 0000 4111     		addi	sp,sp,-16
 1941              		.cfi_def_cfa_offset 16
 1942 0002 22E4     		sd	s0,8(sp)
 1943              		.cfi_offset 8, -8
 1944 0004 0008     		addi	s0,sp,16
 1945              		.cfi_def_cfa 8, 0
 393:../src/platform/mpfs_hal/common/mss_irq_handler_stubs.c ****     return(0U);
 1946              		.loc 1 393 11
 1947 0006 8147     		li	a5,0
 394:../src/platform/mpfs_hal/common/mss_irq_handler_stubs.c **** }
 1948              		.loc 1 394 1
 1949 0008 3E85     		mv	a0,a5
 1950 000a 2264     		ld	s0,8(sp)
 1951              		.cfi_restore 8
 1952              		.cfi_def_cfa 2, 16
 1953 000c 4101     		addi	sp,sp,16
 1954              		.cfi_def_cfa_offset 0
 1955 000e 8280     		jr	ra
 1956              		.cfi_endproc
 1957              	.LFE91:
 1959              		.section	.text.PLIC_i2c1_alert_IRQHandler,"ax",@progbits
 1960              		.align	1
 1961              		.weak	PLIC_i2c1_alert_IRQHandler
 1963              	PLIC_i2c1_alert_IRQHandler:
 1964              	.LFB92:
 395:../src/platform/mpfs_hal/common/mss_irq_handler_stubs.c **** 
 396:../src/platform/mpfs_hal/common/mss_irq_handler_stubs.c **** __attribute__((weak))  uint8_t  PLIC_i2c1_alert_IRQHandler(void)
 397:../src/platform/mpfs_hal/common/mss_irq_handler_stubs.c **** {
 1965              		.loc 1 397 1
 1966              		.cfi_startproc
 1967 0000 4111     		addi	sp,sp,-16
 1968              		.cfi_def_cfa_offset 16
 1969 0002 22E4     		sd	s0,8(sp)
 1970              		.cfi_offset 8, -8
 1971 0004 0008     		addi	s0,sp,16
 1972              		.cfi_def_cfa 8, 0
 398:../src/platform/mpfs_hal/common/mss_irq_handler_stubs.c ****     return(0U);
 1973              		.loc 1 398 11
 1974 0006 8147     		li	a5,0
 399:../src/platform/mpfs_hal/common/mss_irq_handler_stubs.c **** }
 1975              		.loc 1 399 1
 1976 0008 3E85     		mv	a0,a5
 1977 000a 2264     		ld	s0,8(sp)
 1978              		.cfi_restore 8
 1979              		.cfi_def_cfa 2, 16
 1980 000c 4101     		addi	sp,sp,16
 1981              		.cfi_def_cfa_offset 0
 1982 000e 8280     		jr	ra
 1983              		.cfi_endproc
 1984              	.LFE92:
 1986              		.section	.text.PLIC_i2c1_sus_IRQHandler,"ax",@progbits
 1987              		.align	1
 1988              		.weak	PLIC_i2c1_sus_IRQHandler
 1990              	PLIC_i2c1_sus_IRQHandler:
 1991              	.LFB93:
 400:../src/platform/mpfs_hal/common/mss_irq_handler_stubs.c **** 
 401:../src/platform/mpfs_hal/common/mss_irq_handler_stubs.c **** __attribute__((weak))  uint8_t  PLIC_i2c1_sus_IRQHandler(void)
 402:../src/platform/mpfs_hal/common/mss_irq_handler_stubs.c **** {
 1992              		.loc 1 402 1
 1993              		.cfi_startproc
 1994 0000 4111     		addi	sp,sp,-16
 1995              		.cfi_def_cfa_offset 16
 1996 0002 22E4     		sd	s0,8(sp)
 1997              		.cfi_offset 8, -8
 1998 0004 0008     		addi	s0,sp,16
 1999              		.cfi_def_cfa 8, 0
 403:../src/platform/mpfs_hal/common/mss_irq_handler_stubs.c ****     return(0U);
 2000              		.loc 1 403 11
 2001 0006 8147     		li	a5,0
 404:../src/platform/mpfs_hal/common/mss_irq_handler_stubs.c **** }
 2002              		.loc 1 404 1
 2003 0008 3E85     		mv	a0,a5
 2004 000a 2264     		ld	s0,8(sp)
 2005              		.cfi_restore 8
 2006              		.cfi_def_cfa 2, 16
 2007 000c 4101     		addi	sp,sp,16
 2008              		.cfi_def_cfa_offset 0
 2009 000e 8280     		jr	ra
 2010              		.cfi_endproc
 2011              	.LFE93:
 2013              		.section	.text.PLIC_mac0_int_IRQHandler,"ax",@progbits
 2014              		.align	1
 2015              		.weak	PLIC_mac0_int_IRQHandler
 2017              	PLIC_mac0_int_IRQHandler:
 2018              	.LFB94:
 405:../src/platform/mpfs_hal/common/mss_irq_handler_stubs.c **** 
 406:../src/platform/mpfs_hal/common/mss_irq_handler_stubs.c **** __attribute__((weak))  uint8_t  PLIC_mac0_int_IRQHandler(void)
 407:../src/platform/mpfs_hal/common/mss_irq_handler_stubs.c **** {
 2019              		.loc 1 407 1
 2020              		.cfi_startproc
 2021 0000 4111     		addi	sp,sp,-16
 2022              		.cfi_def_cfa_offset 16
 2023 0002 22E4     		sd	s0,8(sp)
 2024              		.cfi_offset 8, -8
 2025 0004 0008     		addi	s0,sp,16
 2026              		.cfi_def_cfa 8, 0
 408:../src/platform/mpfs_hal/common/mss_irq_handler_stubs.c ****     return(0U);
 2027              		.loc 1 408 11
 2028 0006 8147     		li	a5,0
 409:../src/platform/mpfs_hal/common/mss_irq_handler_stubs.c **** }
 2029              		.loc 1 409 1
 2030 0008 3E85     		mv	a0,a5
 2031 000a 2264     		ld	s0,8(sp)
 2032              		.cfi_restore 8
 2033              		.cfi_def_cfa 2, 16
 2034 000c 4101     		addi	sp,sp,16
 2035              		.cfi_def_cfa_offset 0
 2036 000e 8280     		jr	ra
 2037              		.cfi_endproc
 2038              	.LFE94:
 2040              		.section	.text.PLIC_mac0_queue1_IRQHandler,"ax",@progbits
 2041              		.align	1
 2042              		.weak	PLIC_mac0_queue1_IRQHandler
 2044              	PLIC_mac0_queue1_IRQHandler:
 2045              	.LFB95:
 410:../src/platform/mpfs_hal/common/mss_irq_handler_stubs.c **** 
 411:../src/platform/mpfs_hal/common/mss_irq_handler_stubs.c **** __attribute__((weak))  uint8_t  PLIC_mac0_queue1_IRQHandler(void)
 412:../src/platform/mpfs_hal/common/mss_irq_handler_stubs.c **** {
 2046              		.loc 1 412 1
 2047              		.cfi_startproc
 2048 0000 4111     		addi	sp,sp,-16
 2049              		.cfi_def_cfa_offset 16
 2050 0002 22E4     		sd	s0,8(sp)
 2051              		.cfi_offset 8, -8
 2052 0004 0008     		addi	s0,sp,16
 2053              		.cfi_def_cfa 8, 0
 413:../src/platform/mpfs_hal/common/mss_irq_handler_stubs.c ****     return(0U);
 2054              		.loc 1 413 11
 2055 0006 8147     		li	a5,0
 414:../src/platform/mpfs_hal/common/mss_irq_handler_stubs.c **** }
 2056              		.loc 1 414 1
 2057 0008 3E85     		mv	a0,a5
 2058 000a 2264     		ld	s0,8(sp)
 2059              		.cfi_restore 8
 2060              		.cfi_def_cfa 2, 16
 2061 000c 4101     		addi	sp,sp,16
 2062              		.cfi_def_cfa_offset 0
 2063 000e 8280     		jr	ra
 2064              		.cfi_endproc
 2065              	.LFE95:
 2067              		.section	.text.PLIC_mac0_queue2_IRQHandler,"ax",@progbits
 2068              		.align	1
 2069              		.weak	PLIC_mac0_queue2_IRQHandler
 2071              	PLIC_mac0_queue2_IRQHandler:
 2072              	.LFB96:
 415:../src/platform/mpfs_hal/common/mss_irq_handler_stubs.c **** 
 416:../src/platform/mpfs_hal/common/mss_irq_handler_stubs.c **** __attribute__((weak))  uint8_t  PLIC_mac0_queue2_IRQHandler(void)
 417:../src/platform/mpfs_hal/common/mss_irq_handler_stubs.c **** {
 2073              		.loc 1 417 1
 2074              		.cfi_startproc
 2075 0000 4111     		addi	sp,sp,-16
 2076              		.cfi_def_cfa_offset 16
 2077 0002 22E4     		sd	s0,8(sp)
 2078              		.cfi_offset 8, -8
 2079 0004 0008     		addi	s0,sp,16
 2080              		.cfi_def_cfa 8, 0
 418:../src/platform/mpfs_hal/common/mss_irq_handler_stubs.c ****     return(0U);
 2081              		.loc 1 418 11
 2082 0006 8147     		li	a5,0
 419:../src/platform/mpfs_hal/common/mss_irq_handler_stubs.c **** }
 2083              		.loc 1 419 1
 2084 0008 3E85     		mv	a0,a5
 2085 000a 2264     		ld	s0,8(sp)
 2086              		.cfi_restore 8
 2087              		.cfi_def_cfa 2, 16
 2088 000c 4101     		addi	sp,sp,16
 2089              		.cfi_def_cfa_offset 0
 2090 000e 8280     		jr	ra
 2091              		.cfi_endproc
 2092              	.LFE96:
 2094              		.section	.text.PLIC_mac0_queue3_IRQHandler,"ax",@progbits
 2095              		.align	1
 2096              		.weak	PLIC_mac0_queue3_IRQHandler
 2098              	PLIC_mac0_queue3_IRQHandler:
 2099              	.LFB97:
 420:../src/platform/mpfs_hal/common/mss_irq_handler_stubs.c **** 
 421:../src/platform/mpfs_hal/common/mss_irq_handler_stubs.c **** __attribute__((weak))  uint8_t  PLIC_mac0_queue3_IRQHandler(void)
 422:../src/platform/mpfs_hal/common/mss_irq_handler_stubs.c **** {
 2100              		.loc 1 422 1
 2101              		.cfi_startproc
 2102 0000 4111     		addi	sp,sp,-16
 2103              		.cfi_def_cfa_offset 16
 2104 0002 22E4     		sd	s0,8(sp)
 2105              		.cfi_offset 8, -8
 2106 0004 0008     		addi	s0,sp,16
 2107              		.cfi_def_cfa 8, 0
 423:../src/platform/mpfs_hal/common/mss_irq_handler_stubs.c ****     return(0U);
 2108              		.loc 1 423 11
 2109 0006 8147     		li	a5,0
 424:../src/platform/mpfs_hal/common/mss_irq_handler_stubs.c **** }
 2110              		.loc 1 424 1
 2111 0008 3E85     		mv	a0,a5
 2112 000a 2264     		ld	s0,8(sp)
 2113              		.cfi_restore 8
 2114              		.cfi_def_cfa 2, 16
 2115 000c 4101     		addi	sp,sp,16
 2116              		.cfi_def_cfa_offset 0
 2117 000e 8280     		jr	ra
 2118              		.cfi_endproc
 2119              	.LFE97:
 2121              		.section	.text.PLIC_mac0_emac_IRQHandler,"ax",@progbits
 2122              		.align	1
 2123              		.weak	PLIC_mac0_emac_IRQHandler
 2125              	PLIC_mac0_emac_IRQHandler:
 2126              	.LFB98:
 425:../src/platform/mpfs_hal/common/mss_irq_handler_stubs.c **** 
 426:../src/platform/mpfs_hal/common/mss_irq_handler_stubs.c **** __attribute__((weak))  uint8_t  PLIC_mac0_emac_IRQHandler(void)
 427:../src/platform/mpfs_hal/common/mss_irq_handler_stubs.c **** {
 2127              		.loc 1 427 1
 2128              		.cfi_startproc
 2129 0000 4111     		addi	sp,sp,-16
 2130              		.cfi_def_cfa_offset 16
 2131 0002 22E4     		sd	s0,8(sp)
 2132              		.cfi_offset 8, -8
 2133 0004 0008     		addi	s0,sp,16
 2134              		.cfi_def_cfa 8, 0
 428:../src/platform/mpfs_hal/common/mss_irq_handler_stubs.c ****     return(0U);
 2135              		.loc 1 428 11
 2136 0006 8147     		li	a5,0
 429:../src/platform/mpfs_hal/common/mss_irq_handler_stubs.c **** }
 2137              		.loc 1 429 1
 2138 0008 3E85     		mv	a0,a5
 2139 000a 2264     		ld	s0,8(sp)
 2140              		.cfi_restore 8
 2141              		.cfi_def_cfa 2, 16
 2142 000c 4101     		addi	sp,sp,16
 2143              		.cfi_def_cfa_offset 0
 2144 000e 8280     		jr	ra
 2145              		.cfi_endproc
 2146              	.LFE98:
 2148              		.section	.text.PLIC_mac0_mmsl_IRQHandler,"ax",@progbits
 2149              		.align	1
 2150              		.weak	PLIC_mac0_mmsl_IRQHandler
 2152              	PLIC_mac0_mmsl_IRQHandler:
 2153              	.LFB99:
 430:../src/platform/mpfs_hal/common/mss_irq_handler_stubs.c **** 
 431:../src/platform/mpfs_hal/common/mss_irq_handler_stubs.c **** __attribute__((weak))  uint8_t  PLIC_mac0_mmsl_IRQHandler(void)
 432:../src/platform/mpfs_hal/common/mss_irq_handler_stubs.c **** {
 2154              		.loc 1 432 1
 2155              		.cfi_startproc
 2156 0000 4111     		addi	sp,sp,-16
 2157              		.cfi_def_cfa_offset 16
 2158 0002 22E4     		sd	s0,8(sp)
 2159              		.cfi_offset 8, -8
 2160 0004 0008     		addi	s0,sp,16
 2161              		.cfi_def_cfa 8, 0
 433:../src/platform/mpfs_hal/common/mss_irq_handler_stubs.c ****     return(0U);
 2162              		.loc 1 433 11
 2163 0006 8147     		li	a5,0
 434:../src/platform/mpfs_hal/common/mss_irq_handler_stubs.c **** }
 2164              		.loc 1 434 1
 2165 0008 3E85     		mv	a0,a5
 2166 000a 2264     		ld	s0,8(sp)
 2167              		.cfi_restore 8
 2168              		.cfi_def_cfa 2, 16
 2169 000c 4101     		addi	sp,sp,16
 2170              		.cfi_def_cfa_offset 0
 2171 000e 8280     		jr	ra
 2172              		.cfi_endproc
 2173              	.LFE99:
 2175              		.section	.text.PLIC_mac1_int_IRQHandler,"ax",@progbits
 2176              		.align	1
 2177              		.weak	PLIC_mac1_int_IRQHandler
 2179              	PLIC_mac1_int_IRQHandler:
 2180              	.LFB100:
 435:../src/platform/mpfs_hal/common/mss_irq_handler_stubs.c **** 
 436:../src/platform/mpfs_hal/common/mss_irq_handler_stubs.c **** __attribute__((weak))  uint8_t  PLIC_mac1_int_IRQHandler(void)
 437:../src/platform/mpfs_hal/common/mss_irq_handler_stubs.c **** {
 2181              		.loc 1 437 1
 2182              		.cfi_startproc
 2183 0000 4111     		addi	sp,sp,-16
 2184              		.cfi_def_cfa_offset 16
 2185 0002 22E4     		sd	s0,8(sp)
 2186              		.cfi_offset 8, -8
 2187 0004 0008     		addi	s0,sp,16
 2188              		.cfi_def_cfa 8, 0
 438:../src/platform/mpfs_hal/common/mss_irq_handler_stubs.c ****     return(0U);
 2189              		.loc 1 438 11
 2190 0006 8147     		li	a5,0
 439:../src/platform/mpfs_hal/common/mss_irq_handler_stubs.c **** }
 2191              		.loc 1 439 1
 2192 0008 3E85     		mv	a0,a5
 2193 000a 2264     		ld	s0,8(sp)
 2194              		.cfi_restore 8
 2195              		.cfi_def_cfa 2, 16
 2196 000c 4101     		addi	sp,sp,16
 2197              		.cfi_def_cfa_offset 0
 2198 000e 8280     		jr	ra
 2199              		.cfi_endproc
 2200              	.LFE100:
 2202              		.section	.text.PLIC_mac1_queue1_IRQHandler,"ax",@progbits
 2203              		.align	1
 2204              		.weak	PLIC_mac1_queue1_IRQHandler
 2206              	PLIC_mac1_queue1_IRQHandler:
 2207              	.LFB101:
 440:../src/platform/mpfs_hal/common/mss_irq_handler_stubs.c **** 
 441:../src/platform/mpfs_hal/common/mss_irq_handler_stubs.c **** __attribute__((weak))  uint8_t  PLIC_mac1_queue1_IRQHandler(void)
 442:../src/platform/mpfs_hal/common/mss_irq_handler_stubs.c **** {
 2208              		.loc 1 442 1
 2209              		.cfi_startproc
 2210 0000 4111     		addi	sp,sp,-16
 2211              		.cfi_def_cfa_offset 16
 2212 0002 22E4     		sd	s0,8(sp)
 2213              		.cfi_offset 8, -8
 2214 0004 0008     		addi	s0,sp,16
 2215              		.cfi_def_cfa 8, 0
 443:../src/platform/mpfs_hal/common/mss_irq_handler_stubs.c ****     return(0U);
 2216              		.loc 1 443 11
 2217 0006 8147     		li	a5,0
 444:../src/platform/mpfs_hal/common/mss_irq_handler_stubs.c **** }
 2218              		.loc 1 444 1
 2219 0008 3E85     		mv	a0,a5
 2220 000a 2264     		ld	s0,8(sp)
 2221              		.cfi_restore 8
 2222              		.cfi_def_cfa 2, 16
 2223 000c 4101     		addi	sp,sp,16
 2224              		.cfi_def_cfa_offset 0
 2225 000e 8280     		jr	ra
 2226              		.cfi_endproc
 2227              	.LFE101:
 2229              		.section	.text.PLIC_mac1_queue2_IRQHandler,"ax",@progbits
 2230              		.align	1
 2231              		.weak	PLIC_mac1_queue2_IRQHandler
 2233              	PLIC_mac1_queue2_IRQHandler:
 2234              	.LFB102:
 445:../src/platform/mpfs_hal/common/mss_irq_handler_stubs.c **** 
 446:../src/platform/mpfs_hal/common/mss_irq_handler_stubs.c **** __attribute__((weak))  uint8_t  PLIC_mac1_queue2_IRQHandler(void)
 447:../src/platform/mpfs_hal/common/mss_irq_handler_stubs.c **** {
 2235              		.loc 1 447 1
 2236              		.cfi_startproc
 2237 0000 4111     		addi	sp,sp,-16
 2238              		.cfi_def_cfa_offset 16
 2239 0002 22E4     		sd	s0,8(sp)
 2240              		.cfi_offset 8, -8
 2241 0004 0008     		addi	s0,sp,16
 2242              		.cfi_def_cfa 8, 0
 448:../src/platform/mpfs_hal/common/mss_irq_handler_stubs.c ****     return(0U);
 2243              		.loc 1 448 11
 2244 0006 8147     		li	a5,0
 449:../src/platform/mpfs_hal/common/mss_irq_handler_stubs.c **** }
 2245              		.loc 1 449 1
 2246 0008 3E85     		mv	a0,a5
 2247 000a 2264     		ld	s0,8(sp)
 2248              		.cfi_restore 8
 2249              		.cfi_def_cfa 2, 16
 2250 000c 4101     		addi	sp,sp,16
 2251              		.cfi_def_cfa_offset 0
 2252 000e 8280     		jr	ra
 2253              		.cfi_endproc
 2254              	.LFE102:
 2256              		.section	.text.PLIC_mac1_queue3_IRQHandler,"ax",@progbits
 2257              		.align	1
 2258              		.weak	PLIC_mac1_queue3_IRQHandler
 2260              	PLIC_mac1_queue3_IRQHandler:
 2261              	.LFB103:
 450:../src/platform/mpfs_hal/common/mss_irq_handler_stubs.c **** 
 451:../src/platform/mpfs_hal/common/mss_irq_handler_stubs.c **** __attribute__((weak))  uint8_t  PLIC_mac1_queue3_IRQHandler(void)
 452:../src/platform/mpfs_hal/common/mss_irq_handler_stubs.c **** {
 2262              		.loc 1 452 1
 2263              		.cfi_startproc
 2264 0000 4111     		addi	sp,sp,-16
 2265              		.cfi_def_cfa_offset 16
 2266 0002 22E4     		sd	s0,8(sp)
 2267              		.cfi_offset 8, -8
 2268 0004 0008     		addi	s0,sp,16
 2269              		.cfi_def_cfa 8, 0
 453:../src/platform/mpfs_hal/common/mss_irq_handler_stubs.c ****     return(0U);
 2270              		.loc 1 453 11
 2271 0006 8147     		li	a5,0
 454:../src/platform/mpfs_hal/common/mss_irq_handler_stubs.c **** }
 2272              		.loc 1 454 1
 2273 0008 3E85     		mv	a0,a5
 2274 000a 2264     		ld	s0,8(sp)
 2275              		.cfi_restore 8
 2276              		.cfi_def_cfa 2, 16
 2277 000c 4101     		addi	sp,sp,16
 2278              		.cfi_def_cfa_offset 0
 2279 000e 8280     		jr	ra
 2280              		.cfi_endproc
 2281              	.LFE103:
 2283              		.section	.text.PLIC_mac1_emac_IRQHandler,"ax",@progbits
 2284              		.align	1
 2285              		.weak	PLIC_mac1_emac_IRQHandler
 2287              	PLIC_mac1_emac_IRQHandler:
 2288              	.LFB104:
 455:../src/platform/mpfs_hal/common/mss_irq_handler_stubs.c **** 
 456:../src/platform/mpfs_hal/common/mss_irq_handler_stubs.c **** __attribute__((weak))  uint8_t  PLIC_mac1_emac_IRQHandler(void)
 457:../src/platform/mpfs_hal/common/mss_irq_handler_stubs.c **** {
 2289              		.loc 1 457 1
 2290              		.cfi_startproc
 2291 0000 4111     		addi	sp,sp,-16
 2292              		.cfi_def_cfa_offset 16
 2293 0002 22E4     		sd	s0,8(sp)
 2294              		.cfi_offset 8, -8
 2295 0004 0008     		addi	s0,sp,16
 2296              		.cfi_def_cfa 8, 0
 458:../src/platform/mpfs_hal/common/mss_irq_handler_stubs.c ****     return(0U);
 2297              		.loc 1 458 11
 2298 0006 8147     		li	a5,0
 459:../src/platform/mpfs_hal/common/mss_irq_handler_stubs.c **** }
 2299              		.loc 1 459 1
 2300 0008 3E85     		mv	a0,a5
 2301 000a 2264     		ld	s0,8(sp)
 2302              		.cfi_restore 8
 2303              		.cfi_def_cfa 2, 16
 2304 000c 4101     		addi	sp,sp,16
 2305              		.cfi_def_cfa_offset 0
 2306 000e 8280     		jr	ra
 2307              		.cfi_endproc
 2308              	.LFE104:
 2310              		.section	.text.PLIC_mac1_mmsl_IRQHandler,"ax",@progbits
 2311              		.align	1
 2312              		.weak	PLIC_mac1_mmsl_IRQHandler
 2314              	PLIC_mac1_mmsl_IRQHandler:
 2315              	.LFB105:
 460:../src/platform/mpfs_hal/common/mss_irq_handler_stubs.c **** 
 461:../src/platform/mpfs_hal/common/mss_irq_handler_stubs.c **** __attribute__((weak))  uint8_t  PLIC_mac1_mmsl_IRQHandler(void)
 462:../src/platform/mpfs_hal/common/mss_irq_handler_stubs.c **** {
 2316              		.loc 1 462 1
 2317              		.cfi_startproc
 2318 0000 4111     		addi	sp,sp,-16
 2319              		.cfi_def_cfa_offset 16
 2320 0002 22E4     		sd	s0,8(sp)
 2321              		.cfi_offset 8, -8
 2322 0004 0008     		addi	s0,sp,16
 2323              		.cfi_def_cfa 8, 0
 463:../src/platform/mpfs_hal/common/mss_irq_handler_stubs.c ****     return(0U);
 2324              		.loc 1 463 11
 2325 0006 8147     		li	a5,0
 464:../src/platform/mpfs_hal/common/mss_irq_handler_stubs.c **** }
 2326              		.loc 1 464 1
 2327 0008 3E85     		mv	a0,a5
 2328 000a 2264     		ld	s0,8(sp)
 2329              		.cfi_restore 8
 2330              		.cfi_def_cfa 2, 16
 2331 000c 4101     		addi	sp,sp,16
 2332              		.cfi_def_cfa_offset 0
 2333 000e 8280     		jr	ra
 2334              		.cfi_endproc
 2335              	.LFE105:
 2337              		.section	.text.PLIC_ddrc_train_IRQHandler,"ax",@progbits
 2338              		.align	1
 2339              		.weak	PLIC_ddrc_train_IRQHandler
 2341              	PLIC_ddrc_train_IRQHandler:
 2342              	.LFB106:
 465:../src/platform/mpfs_hal/common/mss_irq_handler_stubs.c **** 
 466:../src/platform/mpfs_hal/common/mss_irq_handler_stubs.c **** __attribute__((weak))  uint8_t  PLIC_ddrc_train_IRQHandler(void)
 467:../src/platform/mpfs_hal/common/mss_irq_handler_stubs.c **** {
 2343              		.loc 1 467 1
 2344              		.cfi_startproc
 2345 0000 4111     		addi	sp,sp,-16
 2346              		.cfi_def_cfa_offset 16
 2347 0002 22E4     		sd	s0,8(sp)
 2348              		.cfi_offset 8, -8
 2349 0004 0008     		addi	s0,sp,16
 2350              		.cfi_def_cfa 8, 0
 468:../src/platform/mpfs_hal/common/mss_irq_handler_stubs.c ****     return(0U);
 2351              		.loc 1 468 11
 2352 0006 8147     		li	a5,0
 469:../src/platform/mpfs_hal/common/mss_irq_handler_stubs.c **** }
 2353              		.loc 1 469 1
 2354 0008 3E85     		mv	a0,a5
 2355 000a 2264     		ld	s0,8(sp)
 2356              		.cfi_restore 8
 2357              		.cfi_def_cfa 2, 16
 2358 000c 4101     		addi	sp,sp,16
 2359              		.cfi_def_cfa_offset 0
 2360 000e 8280     		jr	ra
 2361              		.cfi_endproc
 2362              	.LFE106:
 2364              		.section	.text.PLIC_scb_interrupt_IRQHandler,"ax",@progbits
 2365              		.align	1
 2366              		.weak	PLIC_scb_interrupt_IRQHandler
 2368              	PLIC_scb_interrupt_IRQHandler:
 2369              	.LFB107:
 470:../src/platform/mpfs_hal/common/mss_irq_handler_stubs.c **** 
 471:../src/platform/mpfs_hal/common/mss_irq_handler_stubs.c **** __attribute__((weak))  uint8_t  PLIC_scb_interrupt_IRQHandler(void)
 472:../src/platform/mpfs_hal/common/mss_irq_handler_stubs.c **** {
 2370              		.loc 1 472 1
 2371              		.cfi_startproc
 2372 0000 4111     		addi	sp,sp,-16
 2373              		.cfi_def_cfa_offset 16
 2374 0002 22E4     		sd	s0,8(sp)
 2375              		.cfi_offset 8, -8
 2376 0004 0008     		addi	s0,sp,16
 2377              		.cfi_def_cfa 8, 0
 473:../src/platform/mpfs_hal/common/mss_irq_handler_stubs.c ****     return(0U);
 2378              		.loc 1 473 11
 2379 0006 8147     		li	a5,0
 474:../src/platform/mpfs_hal/common/mss_irq_handler_stubs.c **** }
 2380              		.loc 1 474 1
 2381 0008 3E85     		mv	a0,a5
 2382 000a 2264     		ld	s0,8(sp)
 2383              		.cfi_restore 8
 2384              		.cfi_def_cfa 2, 16
 2385 000c 4101     		addi	sp,sp,16
 2386              		.cfi_def_cfa_offset 0
 2387 000e 8280     		jr	ra
 2388              		.cfi_endproc
 2389              	.LFE107:
 2391              		.section	.text.PLIC_ecc_error_IRQHandler,"ax",@progbits
 2392              		.align	1
 2393              		.weak	PLIC_ecc_error_IRQHandler
 2395              	PLIC_ecc_error_IRQHandler:
 2396              	.LFB108:
 475:../src/platform/mpfs_hal/common/mss_irq_handler_stubs.c **** 
 476:../src/platform/mpfs_hal/common/mss_irq_handler_stubs.c **** __attribute__((weak))  uint8_t  PLIC_ecc_error_IRQHandler(void)
 477:../src/platform/mpfs_hal/common/mss_irq_handler_stubs.c **** {
 2397              		.loc 1 477 1
 2398              		.cfi_startproc
 2399 0000 4111     		addi	sp,sp,-16
 2400              		.cfi_def_cfa_offset 16
 2401 0002 22E4     		sd	s0,8(sp)
 2402              		.cfi_offset 8, -8
 2403 0004 0008     		addi	s0,sp,16
 2404              		.cfi_def_cfa 8, 0
 478:../src/platform/mpfs_hal/common/mss_irq_handler_stubs.c ****     return(0U);
 2405              		.loc 1 478 11
 2406 0006 8147     		li	a5,0
 479:../src/platform/mpfs_hal/common/mss_irq_handler_stubs.c **** }
 2407              		.loc 1 479 1
 2408 0008 3E85     		mv	a0,a5
 2409 000a 2264     		ld	s0,8(sp)
 2410              		.cfi_restore 8
 2411              		.cfi_def_cfa 2, 16
 2412 000c 4101     		addi	sp,sp,16
 2413              		.cfi_def_cfa_offset 0
 2414 000e 8280     		jr	ra
 2415              		.cfi_endproc
 2416              	.LFE108:
 2418              		.section	.text.PLIC_ecc_correct_IRQHandler,"ax",@progbits
 2419              		.align	1
 2420              		.weak	PLIC_ecc_correct_IRQHandler
 2422              	PLIC_ecc_correct_IRQHandler:
 2423              	.LFB109:
 480:../src/platform/mpfs_hal/common/mss_irq_handler_stubs.c **** 
 481:../src/platform/mpfs_hal/common/mss_irq_handler_stubs.c **** __attribute__((weak))  uint8_t  PLIC_ecc_correct_IRQHandler(void)
 482:../src/platform/mpfs_hal/common/mss_irq_handler_stubs.c **** {
 2424              		.loc 1 482 1
 2425              		.cfi_startproc
 2426 0000 4111     		addi	sp,sp,-16
 2427              		.cfi_def_cfa_offset 16
 2428 0002 22E4     		sd	s0,8(sp)
 2429              		.cfi_offset 8, -8
 2430 0004 0008     		addi	s0,sp,16
 2431              		.cfi_def_cfa 8, 0
 483:../src/platform/mpfs_hal/common/mss_irq_handler_stubs.c ****     return(0U);
 2432              		.loc 1 483 11
 2433 0006 8147     		li	a5,0
 484:../src/platform/mpfs_hal/common/mss_irq_handler_stubs.c **** }
 2434              		.loc 1 484 1
 2435 0008 3E85     		mv	a0,a5
 2436 000a 2264     		ld	s0,8(sp)
 2437              		.cfi_restore 8
 2438              		.cfi_def_cfa 2, 16
 2439 000c 4101     		addi	sp,sp,16
 2440              		.cfi_def_cfa_offset 0
 2441 000e 8280     		jr	ra
 2442              		.cfi_endproc
 2443              	.LFE109:
 2445              		.section	.text.PLIC_rtc_wakeup_IRQHandler,"ax",@progbits
 2446              		.align	1
 2447              		.weak	PLIC_rtc_wakeup_IRQHandler
 2449              	PLIC_rtc_wakeup_IRQHandler:
 2450              	.LFB110:
 485:../src/platform/mpfs_hal/common/mss_irq_handler_stubs.c **** 
 486:../src/platform/mpfs_hal/common/mss_irq_handler_stubs.c **** __attribute__((weak))  uint8_t  PLIC_rtc_wakeup_IRQHandler(void)
 487:../src/platform/mpfs_hal/common/mss_irq_handler_stubs.c **** {
 2451              		.loc 1 487 1
 2452              		.cfi_startproc
 2453 0000 4111     		addi	sp,sp,-16
 2454              		.cfi_def_cfa_offset 16
 2455 0002 22E4     		sd	s0,8(sp)
 2456              		.cfi_offset 8, -8
 2457 0004 0008     		addi	s0,sp,16
 2458              		.cfi_def_cfa 8, 0
 488:../src/platform/mpfs_hal/common/mss_irq_handler_stubs.c ****     return(0U);
 2459              		.loc 1 488 11
 2460 0006 8147     		li	a5,0
 489:../src/platform/mpfs_hal/common/mss_irq_handler_stubs.c **** }
 2461              		.loc 1 489 1
 2462 0008 3E85     		mv	a0,a5
 2463 000a 2264     		ld	s0,8(sp)
 2464              		.cfi_restore 8
 2465              		.cfi_def_cfa 2, 16
 2466 000c 4101     		addi	sp,sp,16
 2467              		.cfi_def_cfa_offset 0
 2468 000e 8280     		jr	ra
 2469              		.cfi_endproc
 2470              	.LFE110:
 2472              		.section	.text.PLIC_rtc_match_IRQHandler,"ax",@progbits
 2473              		.align	1
 2474              		.weak	PLIC_rtc_match_IRQHandler
 2476              	PLIC_rtc_match_IRQHandler:
 2477              	.LFB111:
 490:../src/platform/mpfs_hal/common/mss_irq_handler_stubs.c **** 
 491:../src/platform/mpfs_hal/common/mss_irq_handler_stubs.c **** __attribute__((weak))  uint8_t  PLIC_rtc_match_IRQHandler(void)
 492:../src/platform/mpfs_hal/common/mss_irq_handler_stubs.c **** {
 2478              		.loc 1 492 1
 2479              		.cfi_startproc
 2480 0000 4111     		addi	sp,sp,-16
 2481              		.cfi_def_cfa_offset 16
 2482 0002 22E4     		sd	s0,8(sp)
 2483              		.cfi_offset 8, -8
 2484 0004 0008     		addi	s0,sp,16
 2485              		.cfi_def_cfa 8, 0
 493:../src/platform/mpfs_hal/common/mss_irq_handler_stubs.c ****     return(0U);
 2486              		.loc 1 493 11
 2487 0006 8147     		li	a5,0
 494:../src/platform/mpfs_hal/common/mss_irq_handler_stubs.c **** }
 2488              		.loc 1 494 1
 2489 0008 3E85     		mv	a0,a5
 2490 000a 2264     		ld	s0,8(sp)
 2491              		.cfi_restore 8
 2492              		.cfi_def_cfa 2, 16
 2493 000c 4101     		addi	sp,sp,16
 2494              		.cfi_def_cfa_offset 0
 2495 000e 8280     		jr	ra
 2496              		.cfi_endproc
 2497              	.LFE111:
 2499              		.section	.text.PLIC_timer1_IRQHandler,"ax",@progbits
 2500              		.align	1
 2501              		.weak	PLIC_timer1_IRQHandler
 2503              	PLIC_timer1_IRQHandler:
 2504              	.LFB112:
 495:../src/platform/mpfs_hal/common/mss_irq_handler_stubs.c **** 
 496:../src/platform/mpfs_hal/common/mss_irq_handler_stubs.c **** __attribute__((weak))  uint8_t  PLIC_timer1_IRQHandler(void)
 497:../src/platform/mpfs_hal/common/mss_irq_handler_stubs.c **** {
 2505              		.loc 1 497 1
 2506              		.cfi_startproc
 2507 0000 4111     		addi	sp,sp,-16
 2508              		.cfi_def_cfa_offset 16
 2509 0002 22E4     		sd	s0,8(sp)
 2510              		.cfi_offset 8, -8
 2511 0004 0008     		addi	s0,sp,16
 2512              		.cfi_def_cfa 8, 0
 498:../src/platform/mpfs_hal/common/mss_irq_handler_stubs.c ****     return(0U);
 2513              		.loc 1 498 11
 2514 0006 8147     		li	a5,0
 499:../src/platform/mpfs_hal/common/mss_irq_handler_stubs.c **** }
 2515              		.loc 1 499 1
 2516 0008 3E85     		mv	a0,a5
 2517 000a 2264     		ld	s0,8(sp)
 2518              		.cfi_restore 8
 2519              		.cfi_def_cfa 2, 16
 2520 000c 4101     		addi	sp,sp,16
 2521              		.cfi_def_cfa_offset 0
 2522 000e 8280     		jr	ra
 2523              		.cfi_endproc
 2524              	.LFE112:
 2526              		.section	.text.PLIC_timer2_IRQHandler,"ax",@progbits
 2527              		.align	1
 2528              		.weak	PLIC_timer2_IRQHandler
 2530              	PLIC_timer2_IRQHandler:
 2531              	.LFB113:
 500:../src/platform/mpfs_hal/common/mss_irq_handler_stubs.c **** 
 501:../src/platform/mpfs_hal/common/mss_irq_handler_stubs.c **** __attribute__((weak))  uint8_t  PLIC_timer2_IRQHandler(void)
 502:../src/platform/mpfs_hal/common/mss_irq_handler_stubs.c **** {
 2532              		.loc 1 502 1
 2533              		.cfi_startproc
 2534 0000 4111     		addi	sp,sp,-16
 2535              		.cfi_def_cfa_offset 16
 2536 0002 22E4     		sd	s0,8(sp)
 2537              		.cfi_offset 8, -8
 2538 0004 0008     		addi	s0,sp,16
 2539              		.cfi_def_cfa 8, 0
 503:../src/platform/mpfs_hal/common/mss_irq_handler_stubs.c ****     return(0U);
 2540              		.loc 1 503 11
 2541 0006 8147     		li	a5,0
 504:../src/platform/mpfs_hal/common/mss_irq_handler_stubs.c **** }
 2542              		.loc 1 504 1
 2543 0008 3E85     		mv	a0,a5
 2544 000a 2264     		ld	s0,8(sp)
 2545              		.cfi_restore 8
 2546              		.cfi_def_cfa 2, 16
 2547 000c 4101     		addi	sp,sp,16
 2548              		.cfi_def_cfa_offset 0
 2549 000e 8280     		jr	ra
 2550              		.cfi_endproc
 2551              	.LFE113:
 2553              		.section	.text.PLIC_envm_IRQHandler,"ax",@progbits
 2554              		.align	1
 2555              		.weak	PLIC_envm_IRQHandler
 2557              	PLIC_envm_IRQHandler:
 2558              	.LFB114:
 505:../src/platform/mpfs_hal/common/mss_irq_handler_stubs.c **** 
 506:../src/platform/mpfs_hal/common/mss_irq_handler_stubs.c **** __attribute__((weak))  uint8_t  PLIC_envm_IRQHandler(void)
 507:../src/platform/mpfs_hal/common/mss_irq_handler_stubs.c **** {
 2559              		.loc 1 507 1
 2560              		.cfi_startproc
 2561 0000 4111     		addi	sp,sp,-16
 2562              		.cfi_def_cfa_offset 16
 2563 0002 22E4     		sd	s0,8(sp)
 2564              		.cfi_offset 8, -8
 2565 0004 0008     		addi	s0,sp,16
 2566              		.cfi_def_cfa 8, 0
 508:../src/platform/mpfs_hal/common/mss_irq_handler_stubs.c ****     return(0U);
 2567              		.loc 1 508 11
 2568 0006 8147     		li	a5,0
 509:../src/platform/mpfs_hal/common/mss_irq_handler_stubs.c **** }
 2569              		.loc 1 509 1
 2570 0008 3E85     		mv	a0,a5
 2571 000a 2264     		ld	s0,8(sp)
 2572              		.cfi_restore 8
 2573              		.cfi_def_cfa 2, 16
 2574 000c 4101     		addi	sp,sp,16
 2575              		.cfi_def_cfa_offset 0
 2576 000e 8280     		jr	ra
 2577              		.cfi_endproc
 2578              	.LFE114:
 2580              		.section	.text.PLIC_qspi_IRQHandler,"ax",@progbits
 2581              		.align	1
 2582              		.weak	PLIC_qspi_IRQHandler
 2584              	PLIC_qspi_IRQHandler:
 2585              	.LFB115:
 510:../src/platform/mpfs_hal/common/mss_irq_handler_stubs.c **** 
 511:../src/platform/mpfs_hal/common/mss_irq_handler_stubs.c **** __attribute__((weak))  uint8_t  PLIC_qspi_IRQHandler(void)
 512:../src/platform/mpfs_hal/common/mss_irq_handler_stubs.c **** {
 2586              		.loc 1 512 1
 2587              		.cfi_startproc
 2588 0000 4111     		addi	sp,sp,-16
 2589              		.cfi_def_cfa_offset 16
 2590 0002 22E4     		sd	s0,8(sp)
 2591              		.cfi_offset 8, -8
 2592 0004 0008     		addi	s0,sp,16
 2593              		.cfi_def_cfa 8, 0
 513:../src/platform/mpfs_hal/common/mss_irq_handler_stubs.c ****     return(0U);
 2594              		.loc 1 513 11
 2595 0006 8147     		li	a5,0
 514:../src/platform/mpfs_hal/common/mss_irq_handler_stubs.c **** }
 2596              		.loc 1 514 1
 2597 0008 3E85     		mv	a0,a5
 2598 000a 2264     		ld	s0,8(sp)
 2599              		.cfi_restore 8
 2600              		.cfi_def_cfa 2, 16
 2601 000c 4101     		addi	sp,sp,16
 2602              		.cfi_def_cfa_offset 0
 2603 000e 8280     		jr	ra
 2604              		.cfi_endproc
 2605              	.LFE115:
 2607              		.section	.text.PLIC_usb_dma_IRQHandler,"ax",@progbits
 2608              		.align	1
 2609              		.weak	PLIC_usb_dma_IRQHandler
 2611              	PLIC_usb_dma_IRQHandler:
 2612              	.LFB116:
 515:../src/platform/mpfs_hal/common/mss_irq_handler_stubs.c **** 
 516:../src/platform/mpfs_hal/common/mss_irq_handler_stubs.c **** __attribute__((weak))  uint8_t  PLIC_usb_dma_IRQHandler(void)
 517:../src/platform/mpfs_hal/common/mss_irq_handler_stubs.c **** {
 2613              		.loc 1 517 1
 2614              		.cfi_startproc
 2615 0000 4111     		addi	sp,sp,-16
 2616              		.cfi_def_cfa_offset 16
 2617 0002 22E4     		sd	s0,8(sp)
 2618              		.cfi_offset 8, -8
 2619 0004 0008     		addi	s0,sp,16
 2620              		.cfi_def_cfa 8, 0
 518:../src/platform/mpfs_hal/common/mss_irq_handler_stubs.c ****     return(0U);
 2621              		.loc 1 518 11
 2622 0006 8147     		li	a5,0
 519:../src/platform/mpfs_hal/common/mss_irq_handler_stubs.c **** }
 2623              		.loc 1 519 1
 2624 0008 3E85     		mv	a0,a5
 2625 000a 2264     		ld	s0,8(sp)
 2626              		.cfi_restore 8
 2627              		.cfi_def_cfa 2, 16
 2628 000c 4101     		addi	sp,sp,16
 2629              		.cfi_def_cfa_offset 0
 2630 000e 8280     		jr	ra
 2631              		.cfi_endproc
 2632              	.LFE116:
 2634              		.section	.text.PLIC_usb_mc_IRQHandler,"ax",@progbits
 2635              		.align	1
 2636              		.weak	PLIC_usb_mc_IRQHandler
 2638              	PLIC_usb_mc_IRQHandler:
 2639              	.LFB117:
 520:../src/platform/mpfs_hal/common/mss_irq_handler_stubs.c **** 
 521:../src/platform/mpfs_hal/common/mss_irq_handler_stubs.c **** __attribute__((weak))  uint8_t  PLIC_usb_mc_IRQHandler(void)
 522:../src/platform/mpfs_hal/common/mss_irq_handler_stubs.c **** {
 2640              		.loc 1 522 1
 2641              		.cfi_startproc
 2642 0000 4111     		addi	sp,sp,-16
 2643              		.cfi_def_cfa_offset 16
 2644 0002 22E4     		sd	s0,8(sp)
 2645              		.cfi_offset 8, -8
 2646 0004 0008     		addi	s0,sp,16
 2647              		.cfi_def_cfa 8, 0
 523:../src/platform/mpfs_hal/common/mss_irq_handler_stubs.c ****     return(0U);
 2648              		.loc 1 523 11
 2649 0006 8147     		li	a5,0
 524:../src/platform/mpfs_hal/common/mss_irq_handler_stubs.c **** }
 2650              		.loc 1 524 1
 2651 0008 3E85     		mv	a0,a5
 2652 000a 2264     		ld	s0,8(sp)
 2653              		.cfi_restore 8
 2654              		.cfi_def_cfa 2, 16
 2655 000c 4101     		addi	sp,sp,16
 2656              		.cfi_def_cfa_offset 0
 2657 000e 8280     		jr	ra
 2658              		.cfi_endproc
 2659              	.LFE117:
 2661              		.section	.text.PLIC_mmc_main_IRQHandler,"ax",@progbits
 2662              		.align	1
 2663              		.weak	PLIC_mmc_main_IRQHandler
 2665              	PLIC_mmc_main_IRQHandler:
 2666              	.LFB118:
 525:../src/platform/mpfs_hal/common/mss_irq_handler_stubs.c **** 
 526:../src/platform/mpfs_hal/common/mss_irq_handler_stubs.c **** __attribute__((weak))  uint8_t  PLIC_mmc_main_IRQHandler(void)
 527:../src/platform/mpfs_hal/common/mss_irq_handler_stubs.c **** {
 2667              		.loc 1 527 1
 2668              		.cfi_startproc
 2669 0000 4111     		addi	sp,sp,-16
 2670              		.cfi_def_cfa_offset 16
 2671 0002 22E4     		sd	s0,8(sp)
 2672              		.cfi_offset 8, -8
 2673 0004 0008     		addi	s0,sp,16
 2674              		.cfi_def_cfa 8, 0
 528:../src/platform/mpfs_hal/common/mss_irq_handler_stubs.c ****     return(0U);
 2675              		.loc 1 528 11
 2676 0006 8147     		li	a5,0
 529:../src/platform/mpfs_hal/common/mss_irq_handler_stubs.c **** }
 2677              		.loc 1 529 1
 2678 0008 3E85     		mv	a0,a5
 2679 000a 2264     		ld	s0,8(sp)
 2680              		.cfi_restore 8
 2681              		.cfi_def_cfa 2, 16
 2682 000c 4101     		addi	sp,sp,16
 2683              		.cfi_def_cfa_offset 0
 2684 000e 8280     		jr	ra
 2685              		.cfi_endproc
 2686              	.LFE118:
 2688              		.section	.text.PLIC_mmc_wakeup_IRQHandler,"ax",@progbits
 2689              		.align	1
 2690              		.weak	PLIC_mmc_wakeup_IRQHandler
 2692              	PLIC_mmc_wakeup_IRQHandler:
 2693              	.LFB119:
 530:../src/platform/mpfs_hal/common/mss_irq_handler_stubs.c **** 
 531:../src/platform/mpfs_hal/common/mss_irq_handler_stubs.c **** __attribute__((weak))  uint8_t  PLIC_mmc_wakeup_IRQHandler(void)
 532:../src/platform/mpfs_hal/common/mss_irq_handler_stubs.c **** {
 2694              		.loc 1 532 1
 2695              		.cfi_startproc
 2696 0000 4111     		addi	sp,sp,-16
 2697              		.cfi_def_cfa_offset 16
 2698 0002 22E4     		sd	s0,8(sp)
 2699              		.cfi_offset 8, -8
 2700 0004 0008     		addi	s0,sp,16
 2701              		.cfi_def_cfa 8, 0
 533:../src/platform/mpfs_hal/common/mss_irq_handler_stubs.c ****     return(0U);
 2702              		.loc 1 533 11
 2703 0006 8147     		li	a5,0
 534:../src/platform/mpfs_hal/common/mss_irq_handler_stubs.c **** }
 2704              		.loc 1 534 1
 2705 0008 3E85     		mv	a0,a5
 2706 000a 2264     		ld	s0,8(sp)
 2707              		.cfi_restore 8
 2708              		.cfi_def_cfa 2, 16
 2709 000c 4101     		addi	sp,sp,16
 2710              		.cfi_def_cfa_offset 0
 2711 000e 8280     		jr	ra
 2712              		.cfi_endproc
 2713              	.LFE119:
 2715              		.section	.text.PLIC_mmuart0_IRQHandler,"ax",@progbits
 2716              		.align	1
 2717              		.weak	PLIC_mmuart0_IRQHandler
 2719              	PLIC_mmuart0_IRQHandler:
 2720              	.LFB120:
 535:../src/platform/mpfs_hal/common/mss_irq_handler_stubs.c **** 
 536:../src/platform/mpfs_hal/common/mss_irq_handler_stubs.c **** __attribute__((weak))  uint8_t  PLIC_mmuart0_IRQHandler(void)
 537:../src/platform/mpfs_hal/common/mss_irq_handler_stubs.c **** {
 2721              		.loc 1 537 1
 2722              		.cfi_startproc
 2723 0000 4111     		addi	sp,sp,-16
 2724              		.cfi_def_cfa_offset 16
 2725 0002 22E4     		sd	s0,8(sp)
 2726              		.cfi_offset 8, -8
 2727 0004 0008     		addi	s0,sp,16
 2728              		.cfi_def_cfa 8, 0
 538:../src/platform/mpfs_hal/common/mss_irq_handler_stubs.c ****     return(0U);
 2729              		.loc 1 538 11
 2730 0006 8147     		li	a5,0
 539:../src/platform/mpfs_hal/common/mss_irq_handler_stubs.c **** }
 2731              		.loc 1 539 1
 2732 0008 3E85     		mv	a0,a5
 2733 000a 2264     		ld	s0,8(sp)
 2734              		.cfi_restore 8
 2735              		.cfi_def_cfa 2, 16
 2736 000c 4101     		addi	sp,sp,16
 2737              		.cfi_def_cfa_offset 0
 2738 000e 8280     		jr	ra
 2739              		.cfi_endproc
 2740              	.LFE120:
 2742              		.section	.text.PLIC_mmuart1_IRQHandler,"ax",@progbits
 2743              		.align	1
 2744              		.weak	PLIC_mmuart1_IRQHandler
 2746              	PLIC_mmuart1_IRQHandler:
 2747              	.LFB121:
 540:../src/platform/mpfs_hal/common/mss_irq_handler_stubs.c **** 
 541:../src/platform/mpfs_hal/common/mss_irq_handler_stubs.c **** __attribute__((weak))  uint8_t  PLIC_mmuart1_IRQHandler(void)
 542:../src/platform/mpfs_hal/common/mss_irq_handler_stubs.c **** {
 2748              		.loc 1 542 1
 2749              		.cfi_startproc
 2750 0000 4111     		addi	sp,sp,-16
 2751              		.cfi_def_cfa_offset 16
 2752 0002 22E4     		sd	s0,8(sp)
 2753              		.cfi_offset 8, -8
 2754 0004 0008     		addi	s0,sp,16
 2755              		.cfi_def_cfa 8, 0
 543:../src/platform/mpfs_hal/common/mss_irq_handler_stubs.c ****     return(0U);
 2756              		.loc 1 543 11
 2757 0006 8147     		li	a5,0
 544:../src/platform/mpfs_hal/common/mss_irq_handler_stubs.c **** }
 2758              		.loc 1 544 1
 2759 0008 3E85     		mv	a0,a5
 2760 000a 2264     		ld	s0,8(sp)
 2761              		.cfi_restore 8
 2762              		.cfi_def_cfa 2, 16
 2763 000c 4101     		addi	sp,sp,16
 2764              		.cfi_def_cfa_offset 0
 2765 000e 8280     		jr	ra
 2766              		.cfi_endproc
 2767              	.LFE121:
 2769              		.section	.text.PLIC_mmuart2_IRQHandler,"ax",@progbits
 2770              		.align	1
 2771              		.weak	PLIC_mmuart2_IRQHandler
 2773              	PLIC_mmuart2_IRQHandler:
 2774              	.LFB122:
 545:../src/platform/mpfs_hal/common/mss_irq_handler_stubs.c **** 
 546:../src/platform/mpfs_hal/common/mss_irq_handler_stubs.c **** __attribute__((weak))  uint8_t  PLIC_mmuart2_IRQHandler(void)
 547:../src/platform/mpfs_hal/common/mss_irq_handler_stubs.c **** {
 2775              		.loc 1 547 1
 2776              		.cfi_startproc
 2777 0000 4111     		addi	sp,sp,-16
 2778              		.cfi_def_cfa_offset 16
 2779 0002 22E4     		sd	s0,8(sp)
 2780              		.cfi_offset 8, -8
 2781 0004 0008     		addi	s0,sp,16
 2782              		.cfi_def_cfa 8, 0
 548:../src/platform/mpfs_hal/common/mss_irq_handler_stubs.c ****     return(0U);
 2783              		.loc 1 548 11
 2784 0006 8147     		li	a5,0
 549:../src/platform/mpfs_hal/common/mss_irq_handler_stubs.c **** }
 2785              		.loc 1 549 1
 2786 0008 3E85     		mv	a0,a5
 2787 000a 2264     		ld	s0,8(sp)
 2788              		.cfi_restore 8
 2789              		.cfi_def_cfa 2, 16
 2790 000c 4101     		addi	sp,sp,16
 2791              		.cfi_def_cfa_offset 0
 2792 000e 8280     		jr	ra
 2793              		.cfi_endproc
 2794              	.LFE122:
 2796              		.section	.text.PLIC_mmuart3_IRQHandler,"ax",@progbits
 2797              		.align	1
 2798              		.weak	PLIC_mmuart3_IRQHandler
 2800              	PLIC_mmuart3_IRQHandler:
 2801              	.LFB123:
 550:../src/platform/mpfs_hal/common/mss_irq_handler_stubs.c **** 
 551:../src/platform/mpfs_hal/common/mss_irq_handler_stubs.c **** __attribute__((weak))  uint8_t  PLIC_mmuart3_IRQHandler(void)
 552:../src/platform/mpfs_hal/common/mss_irq_handler_stubs.c **** {
 2802              		.loc 1 552 1
 2803              		.cfi_startproc
 2804 0000 4111     		addi	sp,sp,-16
 2805              		.cfi_def_cfa_offset 16
 2806 0002 22E4     		sd	s0,8(sp)
 2807              		.cfi_offset 8, -8
 2808 0004 0008     		addi	s0,sp,16
 2809              		.cfi_def_cfa 8, 0
 553:../src/platform/mpfs_hal/common/mss_irq_handler_stubs.c ****     return(0U);
 2810              		.loc 1 553 11
 2811 0006 8147     		li	a5,0
 554:../src/platform/mpfs_hal/common/mss_irq_handler_stubs.c **** }
 2812              		.loc 1 554 1
 2813 0008 3E85     		mv	a0,a5
 2814 000a 2264     		ld	s0,8(sp)
 2815              		.cfi_restore 8
 2816              		.cfi_def_cfa 2, 16
 2817 000c 4101     		addi	sp,sp,16
 2818              		.cfi_def_cfa_offset 0
 2819 000e 8280     		jr	ra
 2820              		.cfi_endproc
 2821              	.LFE123:
 2823              		.section	.text.PLIC_mmuart4_IRQHandler,"ax",@progbits
 2824              		.align	1
 2825              		.weak	PLIC_mmuart4_IRQHandler
 2827              	PLIC_mmuart4_IRQHandler:
 2828              	.LFB124:
 555:../src/platform/mpfs_hal/common/mss_irq_handler_stubs.c **** 
 556:../src/platform/mpfs_hal/common/mss_irq_handler_stubs.c **** __attribute__((weak))  uint8_t  PLIC_mmuart4_IRQHandler(void)
 557:../src/platform/mpfs_hal/common/mss_irq_handler_stubs.c **** {
 2829              		.loc 1 557 1
 2830              		.cfi_startproc
 2831 0000 4111     		addi	sp,sp,-16
 2832              		.cfi_def_cfa_offset 16
 2833 0002 22E4     		sd	s0,8(sp)
 2834              		.cfi_offset 8, -8
 2835 0004 0008     		addi	s0,sp,16
 2836              		.cfi_def_cfa 8, 0
 558:../src/platform/mpfs_hal/common/mss_irq_handler_stubs.c ****     return(0U);
 2837              		.loc 1 558 11
 2838 0006 8147     		li	a5,0
 559:../src/platform/mpfs_hal/common/mss_irq_handler_stubs.c **** }
 2839              		.loc 1 559 1
 2840 0008 3E85     		mv	a0,a5
 2841 000a 2264     		ld	s0,8(sp)
 2842              		.cfi_restore 8
 2843              		.cfi_def_cfa 2, 16
 2844 000c 4101     		addi	sp,sp,16
 2845              		.cfi_def_cfa_offset 0
 2846 000e 8280     		jr	ra
 2847              		.cfi_endproc
 2848              	.LFE124:
 2850              		.section	.text.PLIC_devrst_IRQHandler,"ax",@progbits
 2851              		.align	1
 2852              		.weak	PLIC_devrst_IRQHandler
 2854              	PLIC_devrst_IRQHandler:
 2855              	.LFB125:
 560:../src/platform/mpfs_hal/common/mss_irq_handler_stubs.c **** 
 561:../src/platform/mpfs_hal/common/mss_irq_handler_stubs.c **** __attribute__((weak))  uint8_t  PLIC_devrst_IRQHandler(void)
 562:../src/platform/mpfs_hal/common/mss_irq_handler_stubs.c **** {
 2856              		.loc 1 562 1
 2857              		.cfi_startproc
 2858 0000 4111     		addi	sp,sp,-16
 2859              		.cfi_def_cfa_offset 16
 2860 0002 22E4     		sd	s0,8(sp)
 2861              		.cfi_offset 8, -8
 2862 0004 0008     		addi	s0,sp,16
 2863              		.cfi_def_cfa 8, 0
 563:../src/platform/mpfs_hal/common/mss_irq_handler_stubs.c ****     return(0U);
 2864              		.loc 1 563 11
 2865 0006 8147     		li	a5,0
 564:../src/platform/mpfs_hal/common/mss_irq_handler_stubs.c **** }
 2866              		.loc 1 564 1
 2867 0008 3E85     		mv	a0,a5
 2868 000a 2264     		ld	s0,8(sp)
 2869              		.cfi_restore 8
 2870              		.cfi_def_cfa 2, 16
 2871 000c 4101     		addi	sp,sp,16
 2872              		.cfi_def_cfa_offset 0
 2873 000e 8280     		jr	ra
 2874              		.cfi_endproc
 2875              	.LFE125:
 2877              		.section	.text.PLIC_g5c_message_IRQHandler,"ax",@progbits
 2878              		.align	1
 2879              		.weak	PLIC_g5c_message_IRQHandler
 2881              	PLIC_g5c_message_IRQHandler:
 2882              	.LFB126:
 565:../src/platform/mpfs_hal/common/mss_irq_handler_stubs.c **** __attribute__((weak))  uint8_t  PLIC_g5c_message_IRQHandler(void)
 566:../src/platform/mpfs_hal/common/mss_irq_handler_stubs.c **** {
 2883              		.loc 1 566 1
 2884              		.cfi_startproc
 2885 0000 4111     		addi	sp,sp,-16
 2886              		.cfi_def_cfa_offset 16
 2887 0002 22E4     		sd	s0,8(sp)
 2888              		.cfi_offset 8, -8
 2889 0004 0008     		addi	s0,sp,16
 2890              		.cfi_def_cfa 8, 0
 567:../src/platform/mpfs_hal/common/mss_irq_handler_stubs.c ****     return(0U);
 2891              		.loc 1 567 11
 2892 0006 8147     		li	a5,0
 568:../src/platform/mpfs_hal/common/mss_irq_handler_stubs.c **** }
 2893              		.loc 1 568 1
 2894 0008 3E85     		mv	a0,a5
 2895 000a 2264     		ld	s0,8(sp)
 2896              		.cfi_restore 8
 2897              		.cfi_def_cfa 2, 16
 2898 000c 4101     		addi	sp,sp,16
 2899              		.cfi_def_cfa_offset 0
 2900 000e 8280     		jr	ra
 2901              		.cfi_endproc
 2902              	.LFE126:
 2904              		.section	.text.PLIC_usoc_vc_interrupt_IRQHandler,"ax",@progbits
 2905              		.align	1
 2906              		.weak	PLIC_usoc_vc_interrupt_IRQHandler
 2908              	PLIC_usoc_vc_interrupt_IRQHandler:
 2909              	.LFB127:
 569:../src/platform/mpfs_hal/common/mss_irq_handler_stubs.c **** 
 570:../src/platform/mpfs_hal/common/mss_irq_handler_stubs.c **** __attribute__((weak))  uint8_t  PLIC_usoc_vc_interrupt_IRQHandler(void)
 571:../src/platform/mpfs_hal/common/mss_irq_handler_stubs.c **** {
 2910              		.loc 1 571 1
 2911              		.cfi_startproc
 2912 0000 4111     		addi	sp,sp,-16
 2913              		.cfi_def_cfa_offset 16
 2914 0002 22E4     		sd	s0,8(sp)
 2915              		.cfi_offset 8, -8
 2916 0004 0008     		addi	s0,sp,16
 2917              		.cfi_def_cfa 8, 0
 572:../src/platform/mpfs_hal/common/mss_irq_handler_stubs.c ****     return(0U);
 2918              		.loc 1 572 11
 2919 0006 8147     		li	a5,0
 573:../src/platform/mpfs_hal/common/mss_irq_handler_stubs.c **** }
 2920              		.loc 1 573 1
 2921 0008 3E85     		mv	a0,a5
 2922 000a 2264     		ld	s0,8(sp)
 2923              		.cfi_restore 8
 2924              		.cfi_def_cfa 2, 16
 2925 000c 4101     		addi	sp,sp,16
 2926              		.cfi_def_cfa_offset 0
 2927 000e 8280     		jr	ra
 2928              		.cfi_endproc
 2929              	.LFE127:
 2931              		.section	.text.PLIC_usoc_smb_interrupt_IRQHandler,"ax",@progbits
 2932              		.align	1
 2933              		.weak	PLIC_usoc_smb_interrupt_IRQHandler
 2935              	PLIC_usoc_smb_interrupt_IRQHandler:
 2936              	.LFB128:
 574:../src/platform/mpfs_hal/common/mss_irq_handler_stubs.c **** 
 575:../src/platform/mpfs_hal/common/mss_irq_handler_stubs.c **** __attribute__((weak))  uint8_t  PLIC_usoc_smb_interrupt_IRQHandler(void)
 576:../src/platform/mpfs_hal/common/mss_irq_handler_stubs.c **** {
 2937              		.loc 1 576 1
 2938              		.cfi_startproc
 2939 0000 4111     		addi	sp,sp,-16
 2940              		.cfi_def_cfa_offset 16
 2941 0002 22E4     		sd	s0,8(sp)
 2942              		.cfi_offset 8, -8
 2943 0004 0008     		addi	s0,sp,16
 2944              		.cfi_def_cfa 8, 0
 577:../src/platform/mpfs_hal/common/mss_irq_handler_stubs.c ****     return(0U);
 2945              		.loc 1 577 11
 2946 0006 8147     		li	a5,0
 578:../src/platform/mpfs_hal/common/mss_irq_handler_stubs.c **** }
 2947              		.loc 1 578 1
 2948 0008 3E85     		mv	a0,a5
 2949 000a 2264     		ld	s0,8(sp)
 2950              		.cfi_restore 8
 2951              		.cfi_def_cfa 2, 16
 2952 000c 4101     		addi	sp,sp,16
 2953              		.cfi_def_cfa_offset 0
 2954 000e 8280     		jr	ra
 2955              		.cfi_endproc
 2956              	.LFE128:
 2958              		.section	.text.PLIC_E51_Maintence_IRQHandler,"ax",@progbits
 2959              		.align	1
 2960              		.weak	PLIC_E51_Maintence_IRQHandler
 2962              	PLIC_E51_Maintence_IRQHandler:
 2963              	.LFB129:
 579:../src/platform/mpfs_hal/common/mss_irq_handler_stubs.c **** 
 580:../src/platform/mpfs_hal/common/mss_irq_handler_stubs.c **** __attribute__((weak)) uint8_t  PLIC_E51_Maintence_IRQHandler(void)
 581:../src/platform/mpfs_hal/common/mss_irq_handler_stubs.c **** {
 2964              		.loc 1 581 1
 2965              		.cfi_startproc
 2966 0000 4111     		addi	sp,sp,-16
 2967              		.cfi_def_cfa_offset 16
 2968 0002 22E4     		sd	s0,8(sp)
 2969              		.cfi_offset 8, -8
 2970 0004 0008     		addi	s0,sp,16
 2971              		.cfi_def_cfa 8, 0
 582:../src/platform/mpfs_hal/common/mss_irq_handler_stubs.c ****     return(0U);
 2972              		.loc 1 582 11
 2973 0006 8147     		li	a5,0
 583:../src/platform/mpfs_hal/common/mss_irq_handler_stubs.c **** }
 2974              		.loc 1 583 1
 2975 0008 3E85     		mv	a0,a5
 2976 000a 2264     		ld	s0,8(sp)
 2977              		.cfi_restore 8
 2978              		.cfi_def_cfa 2, 16
 2979 000c 4101     		addi	sp,sp,16
 2980              		.cfi_def_cfa_offset 0
 2981 000e 8280     		jr	ra
 2982              		.cfi_endproc
 2983              	.LFE129:
 2985              		.section	.text.PLIC_wdog0_mvrp_IRQHandler,"ax",@progbits
 2986              		.align	1
 2987              		.weak	PLIC_wdog0_mvrp_IRQHandler
 2989              	PLIC_wdog0_mvrp_IRQHandler:
 2990              	.LFB130:
 584:../src/platform/mpfs_hal/common/mss_irq_handler_stubs.c **** 
 585:../src/platform/mpfs_hal/common/mss_irq_handler_stubs.c **** 
 586:../src/platform/mpfs_hal/common/mss_irq_handler_stubs.c **** __attribute__((weak)) uint8_t  PLIC_wdog0_mvrp_IRQHandler(void)
 587:../src/platform/mpfs_hal/common/mss_irq_handler_stubs.c **** {
 2991              		.loc 1 587 1
 2992              		.cfi_startproc
 2993 0000 4111     		addi	sp,sp,-16
 2994              		.cfi_def_cfa_offset 16
 2995 0002 22E4     		sd	s0,8(sp)
 2996              		.cfi_offset 8, -8
 2997 0004 0008     		addi	s0,sp,16
 2998              		.cfi_def_cfa 8, 0
 588:../src/platform/mpfs_hal/common/mss_irq_handler_stubs.c ****     return(0U);
 2999              		.loc 1 588 11
 3000 0006 8147     		li	a5,0
 589:../src/platform/mpfs_hal/common/mss_irq_handler_stubs.c **** }
 3001              		.loc 1 589 1
 3002 0008 3E85     		mv	a0,a5
 3003 000a 2264     		ld	s0,8(sp)
 3004              		.cfi_restore 8
 3005              		.cfi_def_cfa 2, 16
 3006 000c 4101     		addi	sp,sp,16
 3007              		.cfi_def_cfa_offset 0
 3008 000e 8280     		jr	ra
 3009              		.cfi_endproc
 3010              	.LFE130:
 3012              		.section	.text.PLIC_wdog1_mvrp_IRQHandler,"ax",@progbits
 3013              		.align	1
 3014              		.weak	PLIC_wdog1_mvrp_IRQHandler
 3016              	PLIC_wdog1_mvrp_IRQHandler:
 3017              	.LFB131:
 590:../src/platform/mpfs_hal/common/mss_irq_handler_stubs.c **** __attribute__((weak)) uint8_t  PLIC_wdog1_mvrp_IRQHandler(void)
 591:../src/platform/mpfs_hal/common/mss_irq_handler_stubs.c **** {
 3018              		.loc 1 591 1
 3019              		.cfi_startproc
 3020 0000 4111     		addi	sp,sp,-16
 3021              		.cfi_def_cfa_offset 16
 3022 0002 22E4     		sd	s0,8(sp)
 3023              		.cfi_offset 8, -8
 3024 0004 0008     		addi	s0,sp,16
 3025              		.cfi_def_cfa 8, 0
 592:../src/platform/mpfs_hal/common/mss_irq_handler_stubs.c ****     return(0U);
 3026              		.loc 1 592 11
 3027 0006 8147     		li	a5,0
 593:../src/platform/mpfs_hal/common/mss_irq_handler_stubs.c **** }
 3028              		.loc 1 593 1
 3029 0008 3E85     		mv	a0,a5
 3030 000a 2264     		ld	s0,8(sp)
 3031              		.cfi_restore 8
 3032              		.cfi_def_cfa 2, 16
 3033 000c 4101     		addi	sp,sp,16
 3034              		.cfi_def_cfa_offset 0
 3035 000e 8280     		jr	ra
 3036              		.cfi_endproc
 3037              	.LFE131:
 3039              		.section	.text.PLIC_wdog2_mvrp_IRQHandler,"ax",@progbits
 3040              		.align	1
 3041              		.weak	PLIC_wdog2_mvrp_IRQHandler
 3043              	PLIC_wdog2_mvrp_IRQHandler:
 3044              	.LFB132:
 594:../src/platform/mpfs_hal/common/mss_irq_handler_stubs.c **** __attribute__((weak)) uint8_t  PLIC_wdog2_mvrp_IRQHandler(void)
 595:../src/platform/mpfs_hal/common/mss_irq_handler_stubs.c **** {
 3045              		.loc 1 595 1
 3046              		.cfi_startproc
 3047 0000 4111     		addi	sp,sp,-16
 3048              		.cfi_def_cfa_offset 16
 3049 0002 22E4     		sd	s0,8(sp)
 3050              		.cfi_offset 8, -8
 3051 0004 0008     		addi	s0,sp,16
 3052              		.cfi_def_cfa 8, 0
 596:../src/platform/mpfs_hal/common/mss_irq_handler_stubs.c ****     return(0U);
 3053              		.loc 1 596 11
 3054 0006 8147     		li	a5,0
 597:../src/platform/mpfs_hal/common/mss_irq_handler_stubs.c **** }
 3055              		.loc 1 597 1
 3056 0008 3E85     		mv	a0,a5
 3057 000a 2264     		ld	s0,8(sp)
 3058              		.cfi_restore 8
 3059              		.cfi_def_cfa 2, 16
 3060 000c 4101     		addi	sp,sp,16
 3061              		.cfi_def_cfa_offset 0
 3062 000e 8280     		jr	ra
 3063              		.cfi_endproc
 3064              	.LFE132:
 3066              		.section	.text.PLIC_wdog3_mvrp_IRQHandler,"ax",@progbits
 3067              		.align	1
 3068              		.weak	PLIC_wdog3_mvrp_IRQHandler
 3070              	PLIC_wdog3_mvrp_IRQHandler:
 3071              	.LFB133:
 598:../src/platform/mpfs_hal/common/mss_irq_handler_stubs.c **** __attribute__((weak)) uint8_t  PLIC_wdog3_mvrp_IRQHandler(void)
 599:../src/platform/mpfs_hal/common/mss_irq_handler_stubs.c **** {
 3072              		.loc 1 599 1
 3073              		.cfi_startproc
 3074 0000 4111     		addi	sp,sp,-16
 3075              		.cfi_def_cfa_offset 16
 3076 0002 22E4     		sd	s0,8(sp)
 3077              		.cfi_offset 8, -8
 3078 0004 0008     		addi	s0,sp,16
 3079              		.cfi_def_cfa 8, 0
 600:../src/platform/mpfs_hal/common/mss_irq_handler_stubs.c ****     return(0U);
 3080              		.loc 1 600 11
 3081 0006 8147     		li	a5,0
 601:../src/platform/mpfs_hal/common/mss_irq_handler_stubs.c **** }
 3082              		.loc 1 601 1
 3083 0008 3E85     		mv	a0,a5
 3084 000a 2264     		ld	s0,8(sp)
 3085              		.cfi_restore 8
 3086              		.cfi_def_cfa 2, 16
 3087 000c 4101     		addi	sp,sp,16
 3088              		.cfi_def_cfa_offset 0
 3089 000e 8280     		jr	ra
 3090              		.cfi_endproc
 3091              	.LFE133:
 3093              		.section	.text.PLIC_wdog4_mvrp_IRQHandler,"ax",@progbits
 3094              		.align	1
 3095              		.weak	PLIC_wdog4_mvrp_IRQHandler
 3097              	PLIC_wdog4_mvrp_IRQHandler:
 3098              	.LFB134:
 602:../src/platform/mpfs_hal/common/mss_irq_handler_stubs.c **** __attribute__((weak)) uint8_t  PLIC_wdog4_mvrp_IRQHandler(void)
 603:../src/platform/mpfs_hal/common/mss_irq_handler_stubs.c **** {
 3099              		.loc 1 603 1
 3100              		.cfi_startproc
 3101 0000 4111     		addi	sp,sp,-16
 3102              		.cfi_def_cfa_offset 16
 3103 0002 22E4     		sd	s0,8(sp)
 3104              		.cfi_offset 8, -8
 3105 0004 0008     		addi	s0,sp,16
 3106              		.cfi_def_cfa 8, 0
 604:../src/platform/mpfs_hal/common/mss_irq_handler_stubs.c ****     return(0U);
 3107              		.loc 1 604 11
 3108 0006 8147     		li	a5,0
 605:../src/platform/mpfs_hal/common/mss_irq_handler_stubs.c **** }
 3109              		.loc 1 605 1
 3110 0008 3E85     		mv	a0,a5
 3111 000a 2264     		ld	s0,8(sp)
 3112              		.cfi_restore 8
 3113              		.cfi_def_cfa 2, 16
 3114 000c 4101     		addi	sp,sp,16
 3115              		.cfi_def_cfa_offset 0
 3116 000e 8280     		jr	ra
 3117              		.cfi_endproc
 3118              	.LFE134:
 3120              		.section	.text.PLIC_wdog0_tout_IRQHandler,"ax",@progbits
 3121              		.align	1
 3122              		.weak	PLIC_wdog0_tout_IRQHandler
 3124              	PLIC_wdog0_tout_IRQHandler:
 3125              	.LFB135:
 606:../src/platform/mpfs_hal/common/mss_irq_handler_stubs.c **** __attribute__((weak)) uint8_t  PLIC_wdog0_tout_IRQHandler(void)
 607:../src/platform/mpfs_hal/common/mss_irq_handler_stubs.c **** {
 3126              		.loc 1 607 1
 3127              		.cfi_startproc
 3128 0000 4111     		addi	sp,sp,-16
 3129              		.cfi_def_cfa_offset 16
 3130 0002 22E4     		sd	s0,8(sp)
 3131              		.cfi_offset 8, -8
 3132 0004 0008     		addi	s0,sp,16
 3133              		.cfi_def_cfa 8, 0
 608:../src/platform/mpfs_hal/common/mss_irq_handler_stubs.c ****     return(0U);
 3134              		.loc 1 608 11
 3135 0006 8147     		li	a5,0
 609:../src/platform/mpfs_hal/common/mss_irq_handler_stubs.c **** }
 3136              		.loc 1 609 1
 3137 0008 3E85     		mv	a0,a5
 3138 000a 2264     		ld	s0,8(sp)
 3139              		.cfi_restore 8
 3140              		.cfi_def_cfa 2, 16
 3141 000c 4101     		addi	sp,sp,16
 3142              		.cfi_def_cfa_offset 0
 3143 000e 8280     		jr	ra
 3144              		.cfi_endproc
 3145              	.LFE135:
 3147              		.section	.text.PLIC_wdog1_tout_IRQHandler,"ax",@progbits
 3148              		.align	1
 3149              		.weak	PLIC_wdog1_tout_IRQHandler
 3151              	PLIC_wdog1_tout_IRQHandler:
 3152              	.LFB136:
 610:../src/platform/mpfs_hal/common/mss_irq_handler_stubs.c **** __attribute__((weak)) uint8_t  PLIC_wdog1_tout_IRQHandler(void)
 611:../src/platform/mpfs_hal/common/mss_irq_handler_stubs.c **** {
 3153              		.loc 1 611 1
 3154              		.cfi_startproc
 3155 0000 4111     		addi	sp,sp,-16
 3156              		.cfi_def_cfa_offset 16
 3157 0002 22E4     		sd	s0,8(sp)
 3158              		.cfi_offset 8, -8
 3159 0004 0008     		addi	s0,sp,16
 3160              		.cfi_def_cfa 8, 0
 612:../src/platform/mpfs_hal/common/mss_irq_handler_stubs.c ****     return(0U);
 3161              		.loc 1 612 11
 3162 0006 8147     		li	a5,0
 613:../src/platform/mpfs_hal/common/mss_irq_handler_stubs.c **** }
 3163              		.loc 1 613 1
 3164 0008 3E85     		mv	a0,a5
 3165 000a 2264     		ld	s0,8(sp)
 3166              		.cfi_restore 8
 3167              		.cfi_def_cfa 2, 16
 3168 000c 4101     		addi	sp,sp,16
 3169              		.cfi_def_cfa_offset 0
 3170 000e 8280     		jr	ra
 3171              		.cfi_endproc
 3172              	.LFE136:
 3174              		.section	.text.PLIC_wdog2_tout_IRQHandler,"ax",@progbits
 3175              		.align	1
 3176              		.weak	PLIC_wdog2_tout_IRQHandler
 3178              	PLIC_wdog2_tout_IRQHandler:
 3179              	.LFB137:
 614:../src/platform/mpfs_hal/common/mss_irq_handler_stubs.c **** __attribute__((weak)) uint8_t  PLIC_wdog2_tout_IRQHandler(void)
 615:../src/platform/mpfs_hal/common/mss_irq_handler_stubs.c **** {
 3180              		.loc 1 615 1
 3181              		.cfi_startproc
 3182 0000 4111     		addi	sp,sp,-16
 3183              		.cfi_def_cfa_offset 16
 3184 0002 22E4     		sd	s0,8(sp)
 3185              		.cfi_offset 8, -8
 3186 0004 0008     		addi	s0,sp,16
 3187              		.cfi_def_cfa 8, 0
 616:../src/platform/mpfs_hal/common/mss_irq_handler_stubs.c ****     return(0U);
 3188              		.loc 1 616 11
 3189 0006 8147     		li	a5,0
 617:../src/platform/mpfs_hal/common/mss_irq_handler_stubs.c **** }
 3190              		.loc 1 617 1
 3191 0008 3E85     		mv	a0,a5
 3192 000a 2264     		ld	s0,8(sp)
 3193              		.cfi_restore 8
 3194              		.cfi_def_cfa 2, 16
 3195 000c 4101     		addi	sp,sp,16
 3196              		.cfi_def_cfa_offset 0
 3197 000e 8280     		jr	ra
 3198              		.cfi_endproc
 3199              	.LFE137:
 3201              		.section	.text.PLIC_wdog3_tout_IRQHandler,"ax",@progbits
 3202              		.align	1
 3203              		.weak	PLIC_wdog3_tout_IRQHandler
 3205              	PLIC_wdog3_tout_IRQHandler:
 3206              	.LFB138:
 618:../src/platform/mpfs_hal/common/mss_irq_handler_stubs.c **** __attribute__((weak)) uint8_t  PLIC_wdog3_tout_IRQHandler(void)
 619:../src/platform/mpfs_hal/common/mss_irq_handler_stubs.c **** {
 3207              		.loc 1 619 1
 3208              		.cfi_startproc
 3209 0000 4111     		addi	sp,sp,-16
 3210              		.cfi_def_cfa_offset 16
 3211 0002 22E4     		sd	s0,8(sp)
 3212              		.cfi_offset 8, -8
 3213 0004 0008     		addi	s0,sp,16
 3214              		.cfi_def_cfa 8, 0
 620:../src/platform/mpfs_hal/common/mss_irq_handler_stubs.c ****     return(0U);
 3215              		.loc 1 620 11
 3216 0006 8147     		li	a5,0
 621:../src/platform/mpfs_hal/common/mss_irq_handler_stubs.c **** }
 3217              		.loc 1 621 1
 3218 0008 3E85     		mv	a0,a5
 3219 000a 2264     		ld	s0,8(sp)
 3220              		.cfi_restore 8
 3221              		.cfi_def_cfa 2, 16
 3222 000c 4101     		addi	sp,sp,16
 3223              		.cfi_def_cfa_offset 0
 3224 000e 8280     		jr	ra
 3225              		.cfi_endproc
 3226              	.LFE138:
 3228              		.section	.text.PLIC_wdog4_tout_IRQHandler,"ax",@progbits
 3229              		.align	1
 3230              		.weak	PLIC_wdog4_tout_IRQHandler
 3232              	PLIC_wdog4_tout_IRQHandler:
 3233              	.LFB139:
 622:../src/platform/mpfs_hal/common/mss_irq_handler_stubs.c **** __attribute__((weak)) uint8_t  PLIC_wdog4_tout_IRQHandler(void)
 623:../src/platform/mpfs_hal/common/mss_irq_handler_stubs.c **** {
 3234              		.loc 1 623 1
 3235              		.cfi_startproc
 3236 0000 4111     		addi	sp,sp,-16
 3237              		.cfi_def_cfa_offset 16
 3238 0002 22E4     		sd	s0,8(sp)
 3239              		.cfi_offset 8, -8
 3240 0004 0008     		addi	s0,sp,16
 3241              		.cfi_def_cfa 8, 0
 624:../src/platform/mpfs_hal/common/mss_irq_handler_stubs.c ****     return(0U);
 3242              		.loc 1 624 11
 3243 0006 8147     		li	a5,0
 625:../src/platform/mpfs_hal/common/mss_irq_handler_stubs.c **** }
 3244              		.loc 1 625 1
 3245 0008 3E85     		mv	a0,a5
 3246 000a 2264     		ld	s0,8(sp)
 3247              		.cfi_restore 8
 3248              		.cfi_def_cfa 2, 16
 3249 000c 4101     		addi	sp,sp,16
 3250              		.cfi_def_cfa_offset 0
 3251 000e 8280     		jr	ra
 3252              		.cfi_endproc
 3253              	.LFE139:
 3255              		.section	.text.PLIC_g5c_mss_spi_IRQHandler,"ax",@progbits
 3256              		.align	1
 3257              		.weak	PLIC_g5c_mss_spi_IRQHandler
 3259              	PLIC_g5c_mss_spi_IRQHandler:
 3260              	.LFB140:
 626:../src/platform/mpfs_hal/common/mss_irq_handler_stubs.c **** __attribute__((weak)) uint8_t  PLIC_g5c_mss_spi_IRQHandler(void)
 627:../src/platform/mpfs_hal/common/mss_irq_handler_stubs.c **** {
 3261              		.loc 1 627 1
 3262              		.cfi_startproc
 3263 0000 4111     		addi	sp,sp,-16
 3264              		.cfi_def_cfa_offset 16
 3265 0002 22E4     		sd	s0,8(sp)
 3266              		.cfi_offset 8, -8
 3267 0004 0008     		addi	s0,sp,16
 3268              		.cfi_def_cfa 8, 0
 628:../src/platform/mpfs_hal/common/mss_irq_handler_stubs.c ****     return(0U);
 3269              		.loc 1 628 11
 3270 0006 8147     		li	a5,0
 629:../src/platform/mpfs_hal/common/mss_irq_handler_stubs.c **** }
 3271              		.loc 1 629 1
 3272 0008 3E85     		mv	a0,a5
 3273 000a 2264     		ld	s0,8(sp)
 3274              		.cfi_restore 8
 3275              		.cfi_def_cfa 2, 16
 3276 000c 4101     		addi	sp,sp,16
 3277              		.cfi_def_cfa_offset 0
 3278 000e 8280     		jr	ra
 3279              		.cfi_endproc
 3280              	.LFE140:
 3282              		.section	.text.PLIC_volt_temp_alarm_IRQHandler,"ax",@progbits
 3283              		.align	1
 3284              		.weak	PLIC_volt_temp_alarm_IRQHandler
 3286              	PLIC_volt_temp_alarm_IRQHandler:
 3287              	.LFB141:
 630:../src/platform/mpfs_hal/common/mss_irq_handler_stubs.c **** __attribute__((weak)) uint8_t  PLIC_volt_temp_alarm_IRQHandler(void)
 631:../src/platform/mpfs_hal/common/mss_irq_handler_stubs.c **** {
 3288              		.loc 1 631 1
 3289              		.cfi_startproc
 3290 0000 4111     		addi	sp,sp,-16
 3291              		.cfi_def_cfa_offset 16
 3292 0002 22E4     		sd	s0,8(sp)
 3293              		.cfi_offset 8, -8
 3294 0004 0008     		addi	s0,sp,16
 3295              		.cfi_def_cfa 8, 0
 632:../src/platform/mpfs_hal/common/mss_irq_handler_stubs.c ****     return(0U);
 3296              		.loc 1 632 11
 3297 0006 8147     		li	a5,0
 633:../src/platform/mpfs_hal/common/mss_irq_handler_stubs.c **** }
 3298              		.loc 1 633 1
 3299 0008 3E85     		mv	a0,a5
 3300 000a 2264     		ld	s0,8(sp)
 3301              		.cfi_restore 8
 3302              		.cfi_def_cfa 2, 16
 3303 000c 4101     		addi	sp,sp,16
 3304              		.cfi_def_cfa_offset 0
 3305 000e 8280     		jr	ra
 3306              		.cfi_endproc
 3307              	.LFE141:
 3309              		.section	.text.PLIC_athena_complete_IRQHandler,"ax",@progbits
 3310              		.align	1
 3311              		.weak	PLIC_athena_complete_IRQHandler
 3313              	PLIC_athena_complete_IRQHandler:
 3314              	.LFB142:
 634:../src/platform/mpfs_hal/common/mss_irq_handler_stubs.c **** __attribute__((weak))  uint8_t  PLIC_athena_complete_IRQHandler(void)
 635:../src/platform/mpfs_hal/common/mss_irq_handler_stubs.c **** {
 3315              		.loc 1 635 1
 3316              		.cfi_startproc
 3317 0000 4111     		addi	sp,sp,-16
 3318              		.cfi_def_cfa_offset 16
 3319 0002 22E4     		sd	s0,8(sp)
 3320              		.cfi_offset 8, -8
 3321 0004 0008     		addi	s0,sp,16
 3322              		.cfi_def_cfa 8, 0
 636:../src/platform/mpfs_hal/common/mss_irq_handler_stubs.c ****     return(0U);
 3323              		.loc 1 636 11
 3324 0006 8147     		li	a5,0
 637:../src/platform/mpfs_hal/common/mss_irq_handler_stubs.c **** }
 3325              		.loc 1 637 1
 3326 0008 3E85     		mv	a0,a5
 3327 000a 2264     		ld	s0,8(sp)
 3328              		.cfi_restore 8
 3329              		.cfi_def_cfa 2, 16
 3330 000c 4101     		addi	sp,sp,16
 3331              		.cfi_def_cfa_offset 0
 3332 000e 8280     		jr	ra
 3333              		.cfi_endproc
 3334              	.LFE142:
 3336              		.section	.text.PLIC_athena_alarm_IRQHandler,"ax",@progbits
 3337              		.align	1
 3338              		.weak	PLIC_athena_alarm_IRQHandler
 3340              	PLIC_athena_alarm_IRQHandler:
 3341              	.LFB143:
 638:../src/platform/mpfs_hal/common/mss_irq_handler_stubs.c **** __attribute__((weak))  uint8_t  PLIC_athena_alarm_IRQHandler(void)
 639:../src/platform/mpfs_hal/common/mss_irq_handler_stubs.c **** {
 3342              		.loc 1 639 1
 3343              		.cfi_startproc
 3344 0000 4111     		addi	sp,sp,-16
 3345              		.cfi_def_cfa_offset 16
 3346 0002 22E4     		sd	s0,8(sp)
 3347              		.cfi_offset 8, -8
 3348 0004 0008     		addi	s0,sp,16
 3349              		.cfi_def_cfa 8, 0
 640:../src/platform/mpfs_hal/common/mss_irq_handler_stubs.c ****     return(0U);
 3350              		.loc 1 640 11
 3351 0006 8147     		li	a5,0
 641:../src/platform/mpfs_hal/common/mss_irq_handler_stubs.c **** }
 3352              		.loc 1 641 1
 3353 0008 3E85     		mv	a0,a5
 3354 000a 2264     		ld	s0,8(sp)
 3355              		.cfi_restore 8
 3356              		.cfi_def_cfa 2, 16
 3357 000c 4101     		addi	sp,sp,16
 3358              		.cfi_def_cfa_offset 0
 3359 000e 8280     		jr	ra
 3360              		.cfi_endproc
 3361              	.LFE143:
 3363              		.section	.text.PLIC_athena_bus_error_IRQHandler,"ax",@progbits
 3364              		.align	1
 3365              		.weak	PLIC_athena_bus_error_IRQHandler
 3367              	PLIC_athena_bus_error_IRQHandler:
 3368              	.LFB144:
 642:../src/platform/mpfs_hal/common/mss_irq_handler_stubs.c **** __attribute__((weak))  uint8_t  PLIC_athena_bus_error_IRQHandler(void)
 643:../src/platform/mpfs_hal/common/mss_irq_handler_stubs.c **** {
 3369              		.loc 1 643 1
 3370              		.cfi_startproc
 3371 0000 4111     		addi	sp,sp,-16
 3372              		.cfi_def_cfa_offset 16
 3373 0002 22E4     		sd	s0,8(sp)
 3374              		.cfi_offset 8, -8
 3375 0004 0008     		addi	s0,sp,16
 3376              		.cfi_def_cfa 8, 0
 644:../src/platform/mpfs_hal/common/mss_irq_handler_stubs.c ****     return(0U);
 3377              		.loc 1 644 11
 3378 0006 8147     		li	a5,0
 645:../src/platform/mpfs_hal/common/mss_irq_handler_stubs.c **** }
 3379              		.loc 1 645 1
 3380 0008 3E85     		mv	a0,a5
 3381 000a 2264     		ld	s0,8(sp)
 3382              		.cfi_restore 8
 3383              		.cfi_def_cfa 2, 16
 3384 000c 4101     		addi	sp,sp,16
 3385              		.cfi_def_cfa_offset 0
 3386 000e 8280     		jr	ra
 3387              		.cfi_endproc
 3388              	.LFE144:
 3390              		.section	.text.PLIC_usoc_axic_us_IRQHandler,"ax",@progbits
 3391              		.align	1
 3392              		.weak	PLIC_usoc_axic_us_IRQHandler
 3394              	PLIC_usoc_axic_us_IRQHandler:
 3395              	.LFB145:
 646:../src/platform/mpfs_hal/common/mss_irq_handler_stubs.c **** __attribute__((weak))  uint8_t  PLIC_usoc_axic_us_IRQHandler(void)
 647:../src/platform/mpfs_hal/common/mss_irq_handler_stubs.c **** {
 3396              		.loc 1 647 1
 3397              		.cfi_startproc
 3398 0000 4111     		addi	sp,sp,-16
 3399              		.cfi_def_cfa_offset 16
 3400 0002 22E4     		sd	s0,8(sp)
 3401              		.cfi_offset 8, -8
 3402 0004 0008     		addi	s0,sp,16
 3403              		.cfi_def_cfa 8, 0
 648:../src/platform/mpfs_hal/common/mss_irq_handler_stubs.c ****     return(0U);
 3404              		.loc 1 648 11
 3405 0006 8147     		li	a5,0
 649:../src/platform/mpfs_hal/common/mss_irq_handler_stubs.c **** }
 3406              		.loc 1 649 1
 3407 0008 3E85     		mv	a0,a5
 3408 000a 2264     		ld	s0,8(sp)
 3409              		.cfi_restore 8
 3410              		.cfi_def_cfa 2, 16
 3411 000c 4101     		addi	sp,sp,16
 3412              		.cfi_def_cfa_offset 0
 3413 000e 8280     		jr	ra
 3414              		.cfi_endproc
 3415              	.LFE145:
 3417              		.section	.text.PLIC_usoc_axic_ds_IRQHandler,"ax",@progbits
 3418              		.align	1
 3419              		.weak	PLIC_usoc_axic_ds_IRQHandler
 3421              	PLIC_usoc_axic_ds_IRQHandler:
 3422              	.LFB146:
 650:../src/platform/mpfs_hal/common/mss_irq_handler_stubs.c **** __attribute__((weak))  uint8_t  PLIC_usoc_axic_ds_IRQHandler(void)
 651:../src/platform/mpfs_hal/common/mss_irq_handler_stubs.c **** {
 3423              		.loc 1 651 1
 3424              		.cfi_startproc
 3425 0000 4111     		addi	sp,sp,-16
 3426              		.cfi_def_cfa_offset 16
 3427 0002 22E4     		sd	s0,8(sp)
 3428              		.cfi_offset 8, -8
 3429 0004 0008     		addi	s0,sp,16
 3430              		.cfi_def_cfa 8, 0
 652:../src/platform/mpfs_hal/common/mss_irq_handler_stubs.c ****     return(0U);
 3431              		.loc 1 652 11
 3432 0006 8147     		li	a5,0
 653:../src/platform/mpfs_hal/common/mss_irq_handler_stubs.c **** }
 3433              		.loc 1 653 1
 3434 0008 3E85     		mv	a0,a5
 3435 000a 2264     		ld	s0,8(sp)
 3436              		.cfi_restore 8
 3437              		.cfi_def_cfa 2, 16
 3438 000c 4101     		addi	sp,sp,16
 3439              		.cfi_def_cfa_offset 0
 3440 000e 8280     		jr	ra
 3441              		.cfi_endproc
 3442              	.LFE146:
 3444              		.section	.text.PLIC_reserved_104_IRQHandler,"ax",@progbits
 3445              		.align	1
 3446              		.weak	PLIC_reserved_104_IRQHandler
 3448              	PLIC_reserved_104_IRQHandler:
 3449              	.LFB147:
 654:../src/platform/mpfs_hal/common/mss_irq_handler_stubs.c **** __attribute__((weak))  uint8_t  PLIC_reserved_104_IRQHandler(void)
 655:../src/platform/mpfs_hal/common/mss_irq_handler_stubs.c **** {
 3450              		.loc 1 655 1
 3451              		.cfi_startproc
 3452 0000 4111     		addi	sp,sp,-16
 3453              		.cfi_def_cfa_offset 16
 3454 0002 22E4     		sd	s0,8(sp)
 3455              		.cfi_offset 8, -8
 3456 0004 0008     		addi	s0,sp,16
 3457              		.cfi_def_cfa 8, 0
 656:../src/platform/mpfs_hal/common/mss_irq_handler_stubs.c ****     return(0U);
 3458              		.loc 1 656 11
 3459 0006 8147     		li	a5,0
 657:../src/platform/mpfs_hal/common/mss_irq_handler_stubs.c **** }
 3460              		.loc 1 657 1
 3461 0008 3E85     		mv	a0,a5
 3462 000a 2264     		ld	s0,8(sp)
 3463              		.cfi_restore 8
 3464              		.cfi_def_cfa 2, 16
 3465 000c 4101     		addi	sp,sp,16
 3466              		.cfi_def_cfa_offset 0
 3467 000e 8280     		jr	ra
 3468              		.cfi_endproc
 3469              	.LFE147:
 3471              		.section	.text.PLIC_f2m_0_IRQHandler,"ax",@progbits
 3472              		.align	1
 3473              		.weak	PLIC_f2m_0_IRQHandler
 3475              	PLIC_f2m_0_IRQHandler:
 3476              	.LFB148:
 658:../src/platform/mpfs_hal/common/mss_irq_handler_stubs.c **** 
 659:../src/platform/mpfs_hal/common/mss_irq_handler_stubs.c **** 
 660:../src/platform/mpfs_hal/common/mss_irq_handler_stubs.c **** 
 661:../src/platform/mpfs_hal/common/mss_irq_handler_stubs.c **** __attribute__((weak))  uint8_t  PLIC_f2m_0_IRQHandler(void)
 662:../src/platform/mpfs_hal/common/mss_irq_handler_stubs.c **** {
 3477              		.loc 1 662 1
 3478              		.cfi_startproc
 3479 0000 4111     		addi	sp,sp,-16
 3480              		.cfi_def_cfa_offset 16
 3481 0002 22E4     		sd	s0,8(sp)
 3482              		.cfi_offset 8, -8
 3483 0004 0008     		addi	s0,sp,16
 3484              		.cfi_def_cfa 8, 0
 663:../src/platform/mpfs_hal/common/mss_irq_handler_stubs.c ****     return(0U);
 3485              		.loc 1 663 11
 3486 0006 8147     		li	a5,0
 664:../src/platform/mpfs_hal/common/mss_irq_handler_stubs.c **** }
 3487              		.loc 1 664 1
 3488 0008 3E85     		mv	a0,a5
 3489 000a 2264     		ld	s0,8(sp)
 3490              		.cfi_restore 8
 3491              		.cfi_def_cfa 2, 16
 3492 000c 4101     		addi	sp,sp,16
 3493              		.cfi_def_cfa_offset 0
 3494 000e 8280     		jr	ra
 3495              		.cfi_endproc
 3496              	.LFE148:
 3498              		.section	.text.PLIC_f2m_1_IRQHandler,"ax",@progbits
 3499              		.align	1
 3500              		.weak	PLIC_f2m_1_IRQHandler
 3502              	PLIC_f2m_1_IRQHandler:
 3503              	.LFB149:
 665:../src/platform/mpfs_hal/common/mss_irq_handler_stubs.c **** 
 666:../src/platform/mpfs_hal/common/mss_irq_handler_stubs.c **** __attribute__((weak))  uint8_t  PLIC_f2m_1_IRQHandler(void)
 667:../src/platform/mpfs_hal/common/mss_irq_handler_stubs.c **** {
 3504              		.loc 1 667 1
 3505              		.cfi_startproc
 3506 0000 4111     		addi	sp,sp,-16
 3507              		.cfi_def_cfa_offset 16
 3508 0002 22E4     		sd	s0,8(sp)
 3509              		.cfi_offset 8, -8
 3510 0004 0008     		addi	s0,sp,16
 3511              		.cfi_def_cfa 8, 0
 668:../src/platform/mpfs_hal/common/mss_irq_handler_stubs.c ****     return(0U);
 3512              		.loc 1 668 11
 3513 0006 8147     		li	a5,0
 669:../src/platform/mpfs_hal/common/mss_irq_handler_stubs.c **** }
 3514              		.loc 1 669 1
 3515 0008 3E85     		mv	a0,a5
 3516 000a 2264     		ld	s0,8(sp)
 3517              		.cfi_restore 8
 3518              		.cfi_def_cfa 2, 16
 3519 000c 4101     		addi	sp,sp,16
 3520              		.cfi_def_cfa_offset 0
 3521 000e 8280     		jr	ra
 3522              		.cfi_endproc
 3523              	.LFE149:
 3525              		.section	.text.PLIC_f2m_2_IRQHandler,"ax",@progbits
 3526              		.align	1
 3527              		.weak	PLIC_f2m_2_IRQHandler
 3529              	PLIC_f2m_2_IRQHandler:
 3530              	.LFB150:
 670:../src/platform/mpfs_hal/common/mss_irq_handler_stubs.c **** 
 671:../src/platform/mpfs_hal/common/mss_irq_handler_stubs.c **** __attribute__((weak))  uint8_t  PLIC_f2m_2_IRQHandler(void)
 672:../src/platform/mpfs_hal/common/mss_irq_handler_stubs.c **** {
 3531              		.loc 1 672 1
 3532              		.cfi_startproc
 3533 0000 4111     		addi	sp,sp,-16
 3534              		.cfi_def_cfa_offset 16
 3535 0002 22E4     		sd	s0,8(sp)
 3536              		.cfi_offset 8, -8
 3537 0004 0008     		addi	s0,sp,16
 3538              		.cfi_def_cfa 8, 0
 673:../src/platform/mpfs_hal/common/mss_irq_handler_stubs.c ****     return(0U);
 3539              		.loc 1 673 11
 3540 0006 8147     		li	a5,0
 674:../src/platform/mpfs_hal/common/mss_irq_handler_stubs.c **** }
 3541              		.loc 1 674 1
 3542 0008 3E85     		mv	a0,a5
 3543 000a 2264     		ld	s0,8(sp)
 3544              		.cfi_restore 8
 3545              		.cfi_def_cfa 2, 16
 3546 000c 4101     		addi	sp,sp,16
 3547              		.cfi_def_cfa_offset 0
 3548 000e 8280     		jr	ra
 3549              		.cfi_endproc
 3550              	.LFE150:
 3552              		.section	.text.PLIC_f2m_3_IRQHandler,"ax",@progbits
 3553              		.align	1
 3554              		.weak	PLIC_f2m_3_IRQHandler
 3556              	PLIC_f2m_3_IRQHandler:
 3557              	.LFB151:
 675:../src/platform/mpfs_hal/common/mss_irq_handler_stubs.c **** 
 676:../src/platform/mpfs_hal/common/mss_irq_handler_stubs.c **** __attribute__((weak))  uint8_t  PLIC_f2m_3_IRQHandler(void)
 677:../src/platform/mpfs_hal/common/mss_irq_handler_stubs.c **** {
 3558              		.loc 1 677 1
 3559              		.cfi_startproc
 3560 0000 4111     		addi	sp,sp,-16
 3561              		.cfi_def_cfa_offset 16
 3562 0002 22E4     		sd	s0,8(sp)
 3563              		.cfi_offset 8, -8
 3564 0004 0008     		addi	s0,sp,16
 3565              		.cfi_def_cfa 8, 0
 678:../src/platform/mpfs_hal/common/mss_irq_handler_stubs.c ****     return(0U);
 3566              		.loc 1 678 11
 3567 0006 8147     		li	a5,0
 679:../src/platform/mpfs_hal/common/mss_irq_handler_stubs.c **** }
 3568              		.loc 1 679 1
 3569 0008 3E85     		mv	a0,a5
 3570 000a 2264     		ld	s0,8(sp)
 3571              		.cfi_restore 8
 3572              		.cfi_def_cfa 2, 16
 3573 000c 4101     		addi	sp,sp,16
 3574              		.cfi_def_cfa_offset 0
 3575 000e 8280     		jr	ra
 3576              		.cfi_endproc
 3577              	.LFE151:
 3579              		.section	.text.PLIC_f2m_4_IRQHandler,"ax",@progbits
 3580              		.align	1
 3581              		.weak	PLIC_f2m_4_IRQHandler
 3583              	PLIC_f2m_4_IRQHandler:
 3584              	.LFB152:
 680:../src/platform/mpfs_hal/common/mss_irq_handler_stubs.c **** 
 681:../src/platform/mpfs_hal/common/mss_irq_handler_stubs.c **** __attribute__((weak))  uint8_t  PLIC_f2m_4_IRQHandler(void)
 682:../src/platform/mpfs_hal/common/mss_irq_handler_stubs.c **** {
 3585              		.loc 1 682 1
 3586              		.cfi_startproc
 3587 0000 4111     		addi	sp,sp,-16
 3588              		.cfi_def_cfa_offset 16
 3589 0002 22E4     		sd	s0,8(sp)
 3590              		.cfi_offset 8, -8
 3591 0004 0008     		addi	s0,sp,16
 3592              		.cfi_def_cfa 8, 0
 683:../src/platform/mpfs_hal/common/mss_irq_handler_stubs.c ****     return(0U);
 3593              		.loc 1 683 11
 3594 0006 8147     		li	a5,0
 684:../src/platform/mpfs_hal/common/mss_irq_handler_stubs.c **** }
 3595              		.loc 1 684 1
 3596 0008 3E85     		mv	a0,a5
 3597 000a 2264     		ld	s0,8(sp)
 3598              		.cfi_restore 8
 3599              		.cfi_def_cfa 2, 16
 3600 000c 4101     		addi	sp,sp,16
 3601              		.cfi_def_cfa_offset 0
 3602 000e 8280     		jr	ra
 3603              		.cfi_endproc
 3604              	.LFE152:
 3606              		.section	.text.PLIC_f2m_5_IRQHandler,"ax",@progbits
 3607              		.align	1
 3608              		.weak	PLIC_f2m_5_IRQHandler
 3610              	PLIC_f2m_5_IRQHandler:
 3611              	.LFB153:
 685:../src/platform/mpfs_hal/common/mss_irq_handler_stubs.c **** 
 686:../src/platform/mpfs_hal/common/mss_irq_handler_stubs.c **** __attribute__((weak))  uint8_t  PLIC_f2m_5_IRQHandler(void)
 687:../src/platform/mpfs_hal/common/mss_irq_handler_stubs.c **** {
 3612              		.loc 1 687 1
 3613              		.cfi_startproc
 3614 0000 4111     		addi	sp,sp,-16
 3615              		.cfi_def_cfa_offset 16
 3616 0002 22E4     		sd	s0,8(sp)
 3617              		.cfi_offset 8, -8
 3618 0004 0008     		addi	s0,sp,16
 3619              		.cfi_def_cfa 8, 0
 688:../src/platform/mpfs_hal/common/mss_irq_handler_stubs.c ****     return(0U);
 3620              		.loc 1 688 11
 3621 0006 8147     		li	a5,0
 689:../src/platform/mpfs_hal/common/mss_irq_handler_stubs.c **** }
 3622              		.loc 1 689 1
 3623 0008 3E85     		mv	a0,a5
 3624 000a 2264     		ld	s0,8(sp)
 3625              		.cfi_restore 8
 3626              		.cfi_def_cfa 2, 16
 3627 000c 4101     		addi	sp,sp,16
 3628              		.cfi_def_cfa_offset 0
 3629 000e 8280     		jr	ra
 3630              		.cfi_endproc
 3631              	.LFE153:
 3633              		.section	.text.PLIC_f2m_6_IRQHandler,"ax",@progbits
 3634              		.align	1
 3635              		.weak	PLIC_f2m_6_IRQHandler
 3637              	PLIC_f2m_6_IRQHandler:
 3638              	.LFB154:
 690:../src/platform/mpfs_hal/common/mss_irq_handler_stubs.c **** 
 691:../src/platform/mpfs_hal/common/mss_irq_handler_stubs.c **** __attribute__((weak))  uint8_t  PLIC_f2m_6_IRQHandler(void)
 692:../src/platform/mpfs_hal/common/mss_irq_handler_stubs.c **** {
 3639              		.loc 1 692 1
 3640              		.cfi_startproc
 3641 0000 4111     		addi	sp,sp,-16
 3642              		.cfi_def_cfa_offset 16
 3643 0002 22E4     		sd	s0,8(sp)
 3644              		.cfi_offset 8, -8
 3645 0004 0008     		addi	s0,sp,16
 3646              		.cfi_def_cfa 8, 0
 693:../src/platform/mpfs_hal/common/mss_irq_handler_stubs.c ****     return(0U);
 3647              		.loc 1 693 11
 3648 0006 8147     		li	a5,0
 694:../src/platform/mpfs_hal/common/mss_irq_handler_stubs.c **** }
 3649              		.loc 1 694 1
 3650 0008 3E85     		mv	a0,a5
 3651 000a 2264     		ld	s0,8(sp)
 3652              		.cfi_restore 8
 3653              		.cfi_def_cfa 2, 16
 3654 000c 4101     		addi	sp,sp,16
 3655              		.cfi_def_cfa_offset 0
 3656 000e 8280     		jr	ra
 3657              		.cfi_endproc
 3658              	.LFE154:
 3660              		.section	.text.PLIC_f2m_7_IRQHandler,"ax",@progbits
 3661              		.align	1
 3662              		.weak	PLIC_f2m_7_IRQHandler
 3664              	PLIC_f2m_7_IRQHandler:
 3665              	.LFB155:
 695:../src/platform/mpfs_hal/common/mss_irq_handler_stubs.c **** 
 696:../src/platform/mpfs_hal/common/mss_irq_handler_stubs.c **** __attribute__((weak))  uint8_t  PLIC_f2m_7_IRQHandler(void)
 697:../src/platform/mpfs_hal/common/mss_irq_handler_stubs.c **** {
 3666              		.loc 1 697 1
 3667              		.cfi_startproc
 3668 0000 4111     		addi	sp,sp,-16
 3669              		.cfi_def_cfa_offset 16
 3670 0002 22E4     		sd	s0,8(sp)
 3671              		.cfi_offset 8, -8
 3672 0004 0008     		addi	s0,sp,16
 3673              		.cfi_def_cfa 8, 0
 698:../src/platform/mpfs_hal/common/mss_irq_handler_stubs.c ****     return(0U);
 3674              		.loc 1 698 11
 3675 0006 8147     		li	a5,0
 699:../src/platform/mpfs_hal/common/mss_irq_handler_stubs.c **** }
 3676              		.loc 1 699 1
 3677 0008 3E85     		mv	a0,a5
 3678 000a 2264     		ld	s0,8(sp)
 3679              		.cfi_restore 8
 3680              		.cfi_def_cfa 2, 16
 3681 000c 4101     		addi	sp,sp,16
 3682              		.cfi_def_cfa_offset 0
 3683 000e 8280     		jr	ra
 3684              		.cfi_endproc
 3685              	.LFE155:
 3687              		.section	.text.PLIC_f2m_8_IRQHandler,"ax",@progbits
 3688              		.align	1
 3689              		.weak	PLIC_f2m_8_IRQHandler
 3691              	PLIC_f2m_8_IRQHandler:
 3692              	.LFB156:
 700:../src/platform/mpfs_hal/common/mss_irq_handler_stubs.c **** 
 701:../src/platform/mpfs_hal/common/mss_irq_handler_stubs.c **** __attribute__((weak))  uint8_t  PLIC_f2m_8_IRQHandler(void)
 702:../src/platform/mpfs_hal/common/mss_irq_handler_stubs.c **** {
 3693              		.loc 1 702 1
 3694              		.cfi_startproc
 3695 0000 4111     		addi	sp,sp,-16
 3696              		.cfi_def_cfa_offset 16
 3697 0002 22E4     		sd	s0,8(sp)
 3698              		.cfi_offset 8, -8
 3699 0004 0008     		addi	s0,sp,16
 3700              		.cfi_def_cfa 8, 0
 703:../src/platform/mpfs_hal/common/mss_irq_handler_stubs.c ****     return(0U);
 3701              		.loc 1 703 11
 3702 0006 8147     		li	a5,0
 704:../src/platform/mpfs_hal/common/mss_irq_handler_stubs.c **** }
 3703              		.loc 1 704 1
 3704 0008 3E85     		mv	a0,a5
 3705 000a 2264     		ld	s0,8(sp)
 3706              		.cfi_restore 8
 3707              		.cfi_def_cfa 2, 16
 3708 000c 4101     		addi	sp,sp,16
 3709              		.cfi_def_cfa_offset 0
 3710 000e 8280     		jr	ra
 3711              		.cfi_endproc
 3712              	.LFE156:
 3714              		.section	.text.PLIC_f2m_9_IRQHandler,"ax",@progbits
 3715              		.align	1
 3716              		.weak	PLIC_f2m_9_IRQHandler
 3718              	PLIC_f2m_9_IRQHandler:
 3719              	.LFB157:
 705:../src/platform/mpfs_hal/common/mss_irq_handler_stubs.c **** 
 706:../src/platform/mpfs_hal/common/mss_irq_handler_stubs.c **** __attribute__((weak))  uint8_t  PLIC_f2m_9_IRQHandler(void)
 707:../src/platform/mpfs_hal/common/mss_irq_handler_stubs.c **** {
 3720              		.loc 1 707 1
 3721              		.cfi_startproc
 3722 0000 4111     		addi	sp,sp,-16
 3723              		.cfi_def_cfa_offset 16
 3724 0002 22E4     		sd	s0,8(sp)
 3725              		.cfi_offset 8, -8
 3726 0004 0008     		addi	s0,sp,16
 3727              		.cfi_def_cfa 8, 0
 708:../src/platform/mpfs_hal/common/mss_irq_handler_stubs.c ****     return(0U);
 3728              		.loc 1 708 11
 3729 0006 8147     		li	a5,0
 709:../src/platform/mpfs_hal/common/mss_irq_handler_stubs.c **** }
 3730              		.loc 1 709 1
 3731 0008 3E85     		mv	a0,a5
 3732 000a 2264     		ld	s0,8(sp)
 3733              		.cfi_restore 8
 3734              		.cfi_def_cfa 2, 16
 3735 000c 4101     		addi	sp,sp,16
 3736              		.cfi_def_cfa_offset 0
 3737 000e 8280     		jr	ra
 3738              		.cfi_endproc
 3739              	.LFE157:
 3741              		.section	.text.PLIC_f2m_10_IRQHandler,"ax",@progbits
 3742              		.align	1
 3743              		.weak	PLIC_f2m_10_IRQHandler
 3745              	PLIC_f2m_10_IRQHandler:
 3746              	.LFB158:
 710:../src/platform/mpfs_hal/common/mss_irq_handler_stubs.c **** 
 711:../src/platform/mpfs_hal/common/mss_irq_handler_stubs.c **** 
 712:../src/platform/mpfs_hal/common/mss_irq_handler_stubs.c **** __attribute__((weak))  uint8_t  PLIC_f2m_10_IRQHandler(void)
 713:../src/platform/mpfs_hal/common/mss_irq_handler_stubs.c **** {
 3747              		.loc 1 713 1
 3748              		.cfi_startproc
 3749 0000 4111     		addi	sp,sp,-16
 3750              		.cfi_def_cfa_offset 16
 3751 0002 22E4     		sd	s0,8(sp)
 3752              		.cfi_offset 8, -8
 3753 0004 0008     		addi	s0,sp,16
 3754              		.cfi_def_cfa 8, 0
 714:../src/platform/mpfs_hal/common/mss_irq_handler_stubs.c ****     return(0U);
 3755              		.loc 1 714 11
 3756 0006 8147     		li	a5,0
 715:../src/platform/mpfs_hal/common/mss_irq_handler_stubs.c **** }
 3757              		.loc 1 715 1
 3758 0008 3E85     		mv	a0,a5
 3759 000a 2264     		ld	s0,8(sp)
 3760              		.cfi_restore 8
 3761              		.cfi_def_cfa 2, 16
 3762 000c 4101     		addi	sp,sp,16
 3763              		.cfi_def_cfa_offset 0
 3764 000e 8280     		jr	ra
 3765              		.cfi_endproc
 3766              	.LFE158:
 3768              		.section	.text.PLIC_f2m_11_IRQHandler,"ax",@progbits
 3769              		.align	1
 3770              		.weak	PLIC_f2m_11_IRQHandler
 3772              	PLIC_f2m_11_IRQHandler:
 3773              	.LFB159:
 716:../src/platform/mpfs_hal/common/mss_irq_handler_stubs.c **** 
 717:../src/platform/mpfs_hal/common/mss_irq_handler_stubs.c **** __attribute__((weak))  uint8_t  PLIC_f2m_11_IRQHandler(void)
 718:../src/platform/mpfs_hal/common/mss_irq_handler_stubs.c **** {
 3774              		.loc 1 718 1
 3775              		.cfi_startproc
 3776 0000 4111     		addi	sp,sp,-16
 3777              		.cfi_def_cfa_offset 16
 3778 0002 22E4     		sd	s0,8(sp)
 3779              		.cfi_offset 8, -8
 3780 0004 0008     		addi	s0,sp,16
 3781              		.cfi_def_cfa 8, 0
 719:../src/platform/mpfs_hal/common/mss_irq_handler_stubs.c ****     return(0U);
 3782              		.loc 1 719 11
 3783 0006 8147     		li	a5,0
 720:../src/platform/mpfs_hal/common/mss_irq_handler_stubs.c **** }
 3784              		.loc 1 720 1
 3785 0008 3E85     		mv	a0,a5
 3786 000a 2264     		ld	s0,8(sp)
 3787              		.cfi_restore 8
 3788              		.cfi_def_cfa 2, 16
 3789 000c 4101     		addi	sp,sp,16
 3790              		.cfi_def_cfa_offset 0
 3791 000e 8280     		jr	ra
 3792              		.cfi_endproc
 3793              	.LFE159:
 3795              		.section	.text.PLIC_f2m_12_IRQHandler,"ax",@progbits
 3796              		.align	1
 3797              		.weak	PLIC_f2m_12_IRQHandler
 3799              	PLIC_f2m_12_IRQHandler:
 3800              	.LFB160:
 721:../src/platform/mpfs_hal/common/mss_irq_handler_stubs.c **** 
 722:../src/platform/mpfs_hal/common/mss_irq_handler_stubs.c **** __attribute__((weak))  uint8_t  PLIC_f2m_12_IRQHandler(void)
 723:../src/platform/mpfs_hal/common/mss_irq_handler_stubs.c **** {
 3801              		.loc 1 723 1
 3802              		.cfi_startproc
 3803 0000 4111     		addi	sp,sp,-16
 3804              		.cfi_def_cfa_offset 16
 3805 0002 22E4     		sd	s0,8(sp)
 3806              		.cfi_offset 8, -8
 3807 0004 0008     		addi	s0,sp,16
 3808              		.cfi_def_cfa 8, 0
 724:../src/platform/mpfs_hal/common/mss_irq_handler_stubs.c ****     return(0U);
 3809              		.loc 1 724 11
 3810 0006 8147     		li	a5,0
 725:../src/platform/mpfs_hal/common/mss_irq_handler_stubs.c **** }
 3811              		.loc 1 725 1
 3812 0008 3E85     		mv	a0,a5
 3813 000a 2264     		ld	s0,8(sp)
 3814              		.cfi_restore 8
 3815              		.cfi_def_cfa 2, 16
 3816 000c 4101     		addi	sp,sp,16
 3817              		.cfi_def_cfa_offset 0
 3818 000e 8280     		jr	ra
 3819              		.cfi_endproc
 3820              	.LFE160:
 3822              		.section	.text.PLIC_f2m_13_IRQHandler,"ax",@progbits
 3823              		.align	1
 3824              		.weak	PLIC_f2m_13_IRQHandler
 3826              	PLIC_f2m_13_IRQHandler:
 3827              	.LFB161:
 726:../src/platform/mpfs_hal/common/mss_irq_handler_stubs.c **** 
 727:../src/platform/mpfs_hal/common/mss_irq_handler_stubs.c **** __attribute__((weak))  uint8_t  PLIC_f2m_13_IRQHandler(void)
 728:../src/platform/mpfs_hal/common/mss_irq_handler_stubs.c **** {
 3828              		.loc 1 728 1
 3829              		.cfi_startproc
 3830 0000 4111     		addi	sp,sp,-16
 3831              		.cfi_def_cfa_offset 16
 3832 0002 22E4     		sd	s0,8(sp)
 3833              		.cfi_offset 8, -8
 3834 0004 0008     		addi	s0,sp,16
 3835              		.cfi_def_cfa 8, 0
 729:../src/platform/mpfs_hal/common/mss_irq_handler_stubs.c ****     return(0U);
 3836              		.loc 1 729 11
 3837 0006 8147     		li	a5,0
 730:../src/platform/mpfs_hal/common/mss_irq_handler_stubs.c **** }
 3838              		.loc 1 730 1
 3839 0008 3E85     		mv	a0,a5
 3840 000a 2264     		ld	s0,8(sp)
 3841              		.cfi_restore 8
 3842              		.cfi_def_cfa 2, 16
 3843 000c 4101     		addi	sp,sp,16
 3844              		.cfi_def_cfa_offset 0
 3845 000e 8280     		jr	ra
 3846              		.cfi_endproc
 3847              	.LFE161:
 3849              		.section	.text.PLIC_f2m_14_IRQHandler,"ax",@progbits
 3850              		.align	1
 3851              		.weak	PLIC_f2m_14_IRQHandler
 3853              	PLIC_f2m_14_IRQHandler:
 3854              	.LFB162:
 731:../src/platform/mpfs_hal/common/mss_irq_handler_stubs.c **** 
 732:../src/platform/mpfs_hal/common/mss_irq_handler_stubs.c **** __attribute__((weak))  uint8_t  PLIC_f2m_14_IRQHandler(void)
 733:../src/platform/mpfs_hal/common/mss_irq_handler_stubs.c **** {
 3855              		.loc 1 733 1
 3856              		.cfi_startproc
 3857 0000 4111     		addi	sp,sp,-16
 3858              		.cfi_def_cfa_offset 16
 3859 0002 22E4     		sd	s0,8(sp)
 3860              		.cfi_offset 8, -8
 3861 0004 0008     		addi	s0,sp,16
 3862              		.cfi_def_cfa 8, 0
 734:../src/platform/mpfs_hal/common/mss_irq_handler_stubs.c ****     return(0U);
 3863              		.loc 1 734 11
 3864 0006 8147     		li	a5,0
 735:../src/platform/mpfs_hal/common/mss_irq_handler_stubs.c **** }
 3865              		.loc 1 735 1
 3866 0008 3E85     		mv	a0,a5
 3867 000a 2264     		ld	s0,8(sp)
 3868              		.cfi_restore 8
 3869              		.cfi_def_cfa 2, 16
 3870 000c 4101     		addi	sp,sp,16
 3871              		.cfi_def_cfa_offset 0
 3872 000e 8280     		jr	ra
 3873              		.cfi_endproc
 3874              	.LFE162:
 3876              		.section	.text.PLIC_f2m_15_IRQHandler,"ax",@progbits
 3877              		.align	1
 3878              		.weak	PLIC_f2m_15_IRQHandler
 3880              	PLIC_f2m_15_IRQHandler:
 3881              	.LFB163:
 736:../src/platform/mpfs_hal/common/mss_irq_handler_stubs.c **** 
 737:../src/platform/mpfs_hal/common/mss_irq_handler_stubs.c **** __attribute__((weak))  uint8_t  PLIC_f2m_15_IRQHandler(void)
 738:../src/platform/mpfs_hal/common/mss_irq_handler_stubs.c **** {
 3882              		.loc 1 738 1
 3883              		.cfi_startproc
 3884 0000 4111     		addi	sp,sp,-16
 3885              		.cfi_def_cfa_offset 16
 3886 0002 22E4     		sd	s0,8(sp)
 3887              		.cfi_offset 8, -8
 3888 0004 0008     		addi	s0,sp,16
 3889              		.cfi_def_cfa 8, 0
 739:../src/platform/mpfs_hal/common/mss_irq_handler_stubs.c ****     return(0U);
 3890              		.loc 1 739 11
 3891 0006 8147     		li	a5,0
 740:../src/platform/mpfs_hal/common/mss_irq_handler_stubs.c **** }
 3892              		.loc 1 740 1
 3893 0008 3E85     		mv	a0,a5
 3894 000a 2264     		ld	s0,8(sp)
 3895              		.cfi_restore 8
 3896              		.cfi_def_cfa 2, 16
 3897 000c 4101     		addi	sp,sp,16
 3898              		.cfi_def_cfa_offset 0
 3899 000e 8280     		jr	ra
 3900              		.cfi_endproc
 3901              	.LFE163:
 3903              		.section	.text.PLIC_f2m_16_IRQHandler,"ax",@progbits
 3904              		.align	1
 3905              		.weak	PLIC_f2m_16_IRQHandler
 3907              	PLIC_f2m_16_IRQHandler:
 3908              	.LFB164:
 741:../src/platform/mpfs_hal/common/mss_irq_handler_stubs.c **** 
 742:../src/platform/mpfs_hal/common/mss_irq_handler_stubs.c **** __attribute__((weak))  uint8_t  PLIC_f2m_16_IRQHandler(void)
 743:../src/platform/mpfs_hal/common/mss_irq_handler_stubs.c **** {
 3909              		.loc 1 743 1
 3910              		.cfi_startproc
 3911 0000 4111     		addi	sp,sp,-16
 3912              		.cfi_def_cfa_offset 16
 3913 0002 22E4     		sd	s0,8(sp)
 3914              		.cfi_offset 8, -8
 3915 0004 0008     		addi	s0,sp,16
 3916              		.cfi_def_cfa 8, 0
 744:../src/platform/mpfs_hal/common/mss_irq_handler_stubs.c ****     return(0U);
 3917              		.loc 1 744 11
 3918 0006 8147     		li	a5,0
 745:../src/platform/mpfs_hal/common/mss_irq_handler_stubs.c **** }
 3919              		.loc 1 745 1
 3920 0008 3E85     		mv	a0,a5
 3921 000a 2264     		ld	s0,8(sp)
 3922              		.cfi_restore 8
 3923              		.cfi_def_cfa 2, 16
 3924 000c 4101     		addi	sp,sp,16
 3925              		.cfi_def_cfa_offset 0
 3926 000e 8280     		jr	ra
 3927              		.cfi_endproc
 3928              	.LFE164:
 3930              		.section	.text.PLIC_f2m_17_IRQHandler,"ax",@progbits
 3931              		.align	1
 3932              		.weak	PLIC_f2m_17_IRQHandler
 3934              	PLIC_f2m_17_IRQHandler:
 3935              	.LFB165:
 746:../src/platform/mpfs_hal/common/mss_irq_handler_stubs.c **** 
 747:../src/platform/mpfs_hal/common/mss_irq_handler_stubs.c **** __attribute__((weak))  uint8_t  PLIC_f2m_17_IRQHandler(void)
 748:../src/platform/mpfs_hal/common/mss_irq_handler_stubs.c **** {
 3936              		.loc 1 748 1
 3937              		.cfi_startproc
 3938 0000 4111     		addi	sp,sp,-16
 3939              		.cfi_def_cfa_offset 16
 3940 0002 22E4     		sd	s0,8(sp)
 3941              		.cfi_offset 8, -8
 3942 0004 0008     		addi	s0,sp,16
 3943              		.cfi_def_cfa 8, 0
 749:../src/platform/mpfs_hal/common/mss_irq_handler_stubs.c ****     return(0U);
 3944              		.loc 1 749 11
 3945 0006 8147     		li	a5,0
 750:../src/platform/mpfs_hal/common/mss_irq_handler_stubs.c **** }
 3946              		.loc 1 750 1
 3947 0008 3E85     		mv	a0,a5
 3948 000a 2264     		ld	s0,8(sp)
 3949              		.cfi_restore 8
 3950              		.cfi_def_cfa 2, 16
 3951 000c 4101     		addi	sp,sp,16
 3952              		.cfi_def_cfa_offset 0
 3953 000e 8280     		jr	ra
 3954              		.cfi_endproc
 3955              	.LFE165:
 3957              		.section	.text.PLIC_f2m_18_IRQHandler,"ax",@progbits
 3958              		.align	1
 3959              		.weak	PLIC_f2m_18_IRQHandler
 3961              	PLIC_f2m_18_IRQHandler:
 3962              	.LFB166:
 751:../src/platform/mpfs_hal/common/mss_irq_handler_stubs.c **** 
 752:../src/platform/mpfs_hal/common/mss_irq_handler_stubs.c **** __attribute__((weak))  uint8_t  PLIC_f2m_18_IRQHandler(void)
 753:../src/platform/mpfs_hal/common/mss_irq_handler_stubs.c **** {
 3963              		.loc 1 753 1
 3964              		.cfi_startproc
 3965 0000 4111     		addi	sp,sp,-16
 3966              		.cfi_def_cfa_offset 16
 3967 0002 22E4     		sd	s0,8(sp)
 3968              		.cfi_offset 8, -8
 3969 0004 0008     		addi	s0,sp,16
 3970              		.cfi_def_cfa 8, 0
 754:../src/platform/mpfs_hal/common/mss_irq_handler_stubs.c ****     return(0U);
 3971              		.loc 1 754 11
 3972 0006 8147     		li	a5,0
 755:../src/platform/mpfs_hal/common/mss_irq_handler_stubs.c **** }
 3973              		.loc 1 755 1
 3974 0008 3E85     		mv	a0,a5
 3975 000a 2264     		ld	s0,8(sp)
 3976              		.cfi_restore 8
 3977              		.cfi_def_cfa 2, 16
 3978 000c 4101     		addi	sp,sp,16
 3979              		.cfi_def_cfa_offset 0
 3980 000e 8280     		jr	ra
 3981              		.cfi_endproc
 3982              	.LFE166:
 3984              		.section	.text.PLIC_f2m_19_IRQHandler,"ax",@progbits
 3985              		.align	1
 3986              		.weak	PLIC_f2m_19_IRQHandler
 3988              	PLIC_f2m_19_IRQHandler:
 3989              	.LFB167:
 756:../src/platform/mpfs_hal/common/mss_irq_handler_stubs.c **** 
 757:../src/platform/mpfs_hal/common/mss_irq_handler_stubs.c **** __attribute__((weak))  uint8_t  PLIC_f2m_19_IRQHandler(void)
 758:../src/platform/mpfs_hal/common/mss_irq_handler_stubs.c **** {
 3990              		.loc 1 758 1
 3991              		.cfi_startproc
 3992 0000 4111     		addi	sp,sp,-16
 3993              		.cfi_def_cfa_offset 16
 3994 0002 22E4     		sd	s0,8(sp)
 3995              		.cfi_offset 8, -8
 3996 0004 0008     		addi	s0,sp,16
 3997              		.cfi_def_cfa 8, 0
 759:../src/platform/mpfs_hal/common/mss_irq_handler_stubs.c ****     return(0U);
 3998              		.loc 1 759 11
 3999 0006 8147     		li	a5,0
 760:../src/platform/mpfs_hal/common/mss_irq_handler_stubs.c **** }
 4000              		.loc 1 760 1
 4001 0008 3E85     		mv	a0,a5
 4002 000a 2264     		ld	s0,8(sp)
 4003              		.cfi_restore 8
 4004              		.cfi_def_cfa 2, 16
 4005 000c 4101     		addi	sp,sp,16
 4006              		.cfi_def_cfa_offset 0
 4007 000e 8280     		jr	ra
 4008              		.cfi_endproc
 4009              	.LFE167:
 4011              		.section	.text.PLIC_f2m_20_IRQHandler,"ax",@progbits
 4012              		.align	1
 4013              		.weak	PLIC_f2m_20_IRQHandler
 4015              	PLIC_f2m_20_IRQHandler:
 4016              	.LFB168:
 761:../src/platform/mpfs_hal/common/mss_irq_handler_stubs.c **** 
 762:../src/platform/mpfs_hal/common/mss_irq_handler_stubs.c **** 
 763:../src/platform/mpfs_hal/common/mss_irq_handler_stubs.c **** __attribute__((weak))  uint8_t  PLIC_f2m_20_IRQHandler(void)
 764:../src/platform/mpfs_hal/common/mss_irq_handler_stubs.c **** {
 4017              		.loc 1 764 1
 4018              		.cfi_startproc
 4019 0000 4111     		addi	sp,sp,-16
 4020              		.cfi_def_cfa_offset 16
 4021 0002 22E4     		sd	s0,8(sp)
 4022              		.cfi_offset 8, -8
 4023 0004 0008     		addi	s0,sp,16
 4024              		.cfi_def_cfa 8, 0
 765:../src/platform/mpfs_hal/common/mss_irq_handler_stubs.c ****     return(0U);
 4025              		.loc 1 765 11
 4026 0006 8147     		li	a5,0
 766:../src/platform/mpfs_hal/common/mss_irq_handler_stubs.c **** }
 4027              		.loc 1 766 1
 4028 0008 3E85     		mv	a0,a5
 4029 000a 2264     		ld	s0,8(sp)
 4030              		.cfi_restore 8
 4031              		.cfi_def_cfa 2, 16
 4032 000c 4101     		addi	sp,sp,16
 4033              		.cfi_def_cfa_offset 0
 4034 000e 8280     		jr	ra
 4035              		.cfi_endproc
 4036              	.LFE168:
 4038              		.section	.text.PLIC_f2m_21_IRQHandler,"ax",@progbits
 4039              		.align	1
 4040              		.weak	PLIC_f2m_21_IRQHandler
 4042              	PLIC_f2m_21_IRQHandler:
 4043              	.LFB169:
 767:../src/platform/mpfs_hal/common/mss_irq_handler_stubs.c **** 
 768:../src/platform/mpfs_hal/common/mss_irq_handler_stubs.c **** __attribute__((weak))  uint8_t  PLIC_f2m_21_IRQHandler(void)
 769:../src/platform/mpfs_hal/common/mss_irq_handler_stubs.c **** {
 4044              		.loc 1 769 1
 4045              		.cfi_startproc
 4046 0000 4111     		addi	sp,sp,-16
 4047              		.cfi_def_cfa_offset 16
 4048 0002 22E4     		sd	s0,8(sp)
 4049              		.cfi_offset 8, -8
 4050 0004 0008     		addi	s0,sp,16
 4051              		.cfi_def_cfa 8, 0
 770:../src/platform/mpfs_hal/common/mss_irq_handler_stubs.c ****     return(0U);
 4052              		.loc 1 770 11
 4053 0006 8147     		li	a5,0
 771:../src/platform/mpfs_hal/common/mss_irq_handler_stubs.c **** }
 4054              		.loc 1 771 1
 4055 0008 3E85     		mv	a0,a5
 4056 000a 2264     		ld	s0,8(sp)
 4057              		.cfi_restore 8
 4058              		.cfi_def_cfa 2, 16
 4059 000c 4101     		addi	sp,sp,16
 4060              		.cfi_def_cfa_offset 0
 4061 000e 8280     		jr	ra
 4062              		.cfi_endproc
 4063              	.LFE169:
 4065              		.section	.text.PLIC_f2m_22_IRQHandler,"ax",@progbits
 4066              		.align	1
 4067              		.weak	PLIC_f2m_22_IRQHandler
 4069              	PLIC_f2m_22_IRQHandler:
 4070              	.LFB170:
 772:../src/platform/mpfs_hal/common/mss_irq_handler_stubs.c **** 
 773:../src/platform/mpfs_hal/common/mss_irq_handler_stubs.c **** __attribute__((weak))  uint8_t  PLIC_f2m_22_IRQHandler(void)
 774:../src/platform/mpfs_hal/common/mss_irq_handler_stubs.c **** {
 4071              		.loc 1 774 1
 4072              		.cfi_startproc
 4073 0000 4111     		addi	sp,sp,-16
 4074              		.cfi_def_cfa_offset 16
 4075 0002 22E4     		sd	s0,8(sp)
 4076              		.cfi_offset 8, -8
 4077 0004 0008     		addi	s0,sp,16
 4078              		.cfi_def_cfa 8, 0
 775:../src/platform/mpfs_hal/common/mss_irq_handler_stubs.c ****     return(0U);
 4079              		.loc 1 775 11
 4080 0006 8147     		li	a5,0
 776:../src/platform/mpfs_hal/common/mss_irq_handler_stubs.c **** }
 4081              		.loc 1 776 1
 4082 0008 3E85     		mv	a0,a5
 4083 000a 2264     		ld	s0,8(sp)
 4084              		.cfi_restore 8
 4085              		.cfi_def_cfa 2, 16
 4086 000c 4101     		addi	sp,sp,16
 4087              		.cfi_def_cfa_offset 0
 4088 000e 8280     		jr	ra
 4089              		.cfi_endproc
 4090              	.LFE170:
 4092              		.section	.text.PLIC_f2m_23_IRQHandler,"ax",@progbits
 4093              		.align	1
 4094              		.weak	PLIC_f2m_23_IRQHandler
 4096              	PLIC_f2m_23_IRQHandler:
 4097              	.LFB171:
 777:../src/platform/mpfs_hal/common/mss_irq_handler_stubs.c **** 
 778:../src/platform/mpfs_hal/common/mss_irq_handler_stubs.c **** __attribute__((weak))  uint8_t  PLIC_f2m_23_IRQHandler(void)
 779:../src/platform/mpfs_hal/common/mss_irq_handler_stubs.c **** {
 4098              		.loc 1 779 1
 4099              		.cfi_startproc
 4100 0000 4111     		addi	sp,sp,-16
 4101              		.cfi_def_cfa_offset 16
 4102 0002 22E4     		sd	s0,8(sp)
 4103              		.cfi_offset 8, -8
 4104 0004 0008     		addi	s0,sp,16
 4105              		.cfi_def_cfa 8, 0
 780:../src/platform/mpfs_hal/common/mss_irq_handler_stubs.c ****     return(0U);
 4106              		.loc 1 780 11
 4107 0006 8147     		li	a5,0
 781:../src/platform/mpfs_hal/common/mss_irq_handler_stubs.c **** }
 4108              		.loc 1 781 1
 4109 0008 3E85     		mv	a0,a5
 4110 000a 2264     		ld	s0,8(sp)
 4111              		.cfi_restore 8
 4112              		.cfi_def_cfa 2, 16
 4113 000c 4101     		addi	sp,sp,16
 4114              		.cfi_def_cfa_offset 0
 4115 000e 8280     		jr	ra
 4116              		.cfi_endproc
 4117              	.LFE171:
 4119              		.section	.text.PLIC_f2m_24_IRQHandler,"ax",@progbits
 4120              		.align	1
 4121              		.weak	PLIC_f2m_24_IRQHandler
 4123              	PLIC_f2m_24_IRQHandler:
 4124              	.LFB172:
 782:../src/platform/mpfs_hal/common/mss_irq_handler_stubs.c **** 
 783:../src/platform/mpfs_hal/common/mss_irq_handler_stubs.c **** __attribute__((weak))  uint8_t  PLIC_f2m_24_IRQHandler(void)
 784:../src/platform/mpfs_hal/common/mss_irq_handler_stubs.c **** {
 4125              		.loc 1 784 1
 4126              		.cfi_startproc
 4127 0000 4111     		addi	sp,sp,-16
 4128              		.cfi_def_cfa_offset 16
 4129 0002 22E4     		sd	s0,8(sp)
 4130              		.cfi_offset 8, -8
 4131 0004 0008     		addi	s0,sp,16
 4132              		.cfi_def_cfa 8, 0
 785:../src/platform/mpfs_hal/common/mss_irq_handler_stubs.c ****     return(0U);
 4133              		.loc 1 785 11
 4134 0006 8147     		li	a5,0
 786:../src/platform/mpfs_hal/common/mss_irq_handler_stubs.c **** }
 4135              		.loc 1 786 1
 4136 0008 3E85     		mv	a0,a5
 4137 000a 2264     		ld	s0,8(sp)
 4138              		.cfi_restore 8
 4139              		.cfi_def_cfa 2, 16
 4140 000c 4101     		addi	sp,sp,16
 4141              		.cfi_def_cfa_offset 0
 4142 000e 8280     		jr	ra
 4143              		.cfi_endproc
 4144              	.LFE172:
 4146              		.section	.text.PLIC_f2m_25_IRQHandler,"ax",@progbits
 4147              		.align	1
 4148              		.weak	PLIC_f2m_25_IRQHandler
 4150              	PLIC_f2m_25_IRQHandler:
 4151              	.LFB173:
 787:../src/platform/mpfs_hal/common/mss_irq_handler_stubs.c **** 
 788:../src/platform/mpfs_hal/common/mss_irq_handler_stubs.c **** __attribute__((weak))  uint8_t  PLIC_f2m_25_IRQHandler(void)
 789:../src/platform/mpfs_hal/common/mss_irq_handler_stubs.c **** {
 4152              		.loc 1 789 1
 4153              		.cfi_startproc
 4154 0000 4111     		addi	sp,sp,-16
 4155              		.cfi_def_cfa_offset 16
 4156 0002 22E4     		sd	s0,8(sp)
 4157              		.cfi_offset 8, -8
 4158 0004 0008     		addi	s0,sp,16
 4159              		.cfi_def_cfa 8, 0
 790:../src/platform/mpfs_hal/common/mss_irq_handler_stubs.c ****     return(0U);
 4160              		.loc 1 790 11
 4161 0006 8147     		li	a5,0
 791:../src/platform/mpfs_hal/common/mss_irq_handler_stubs.c **** }
 4162              		.loc 1 791 1
 4163 0008 3E85     		mv	a0,a5
 4164 000a 2264     		ld	s0,8(sp)
 4165              		.cfi_restore 8
 4166              		.cfi_def_cfa 2, 16
 4167 000c 4101     		addi	sp,sp,16
 4168              		.cfi_def_cfa_offset 0
 4169 000e 8280     		jr	ra
 4170              		.cfi_endproc
 4171              	.LFE173:
 4173              		.section	.text.PLIC_f2m_26_IRQHandler,"ax",@progbits
 4174              		.align	1
 4175              		.weak	PLIC_f2m_26_IRQHandler
 4177              	PLIC_f2m_26_IRQHandler:
 4178              	.LFB174:
 792:../src/platform/mpfs_hal/common/mss_irq_handler_stubs.c **** 
 793:../src/platform/mpfs_hal/common/mss_irq_handler_stubs.c **** __attribute__((weak))  uint8_t  PLIC_f2m_26_IRQHandler(void)
 794:../src/platform/mpfs_hal/common/mss_irq_handler_stubs.c **** {
 4179              		.loc 1 794 1
 4180              		.cfi_startproc
 4181 0000 4111     		addi	sp,sp,-16
 4182              		.cfi_def_cfa_offset 16
 4183 0002 22E4     		sd	s0,8(sp)
 4184              		.cfi_offset 8, -8
 4185 0004 0008     		addi	s0,sp,16
 4186              		.cfi_def_cfa 8, 0
 795:../src/platform/mpfs_hal/common/mss_irq_handler_stubs.c ****     return(0U);
 4187              		.loc 1 795 11
 4188 0006 8147     		li	a5,0
 796:../src/platform/mpfs_hal/common/mss_irq_handler_stubs.c **** }
 4189              		.loc 1 796 1
 4190 0008 3E85     		mv	a0,a5
 4191 000a 2264     		ld	s0,8(sp)
 4192              		.cfi_restore 8
 4193              		.cfi_def_cfa 2, 16
 4194 000c 4101     		addi	sp,sp,16
 4195              		.cfi_def_cfa_offset 0
 4196 000e 8280     		jr	ra
 4197              		.cfi_endproc
 4198              	.LFE174:
 4200              		.section	.text.PLIC_f2m_27_IRQHandler,"ax",@progbits
 4201              		.align	1
 4202              		.weak	PLIC_f2m_27_IRQHandler
 4204              	PLIC_f2m_27_IRQHandler:
 4205              	.LFB175:
 797:../src/platform/mpfs_hal/common/mss_irq_handler_stubs.c **** 
 798:../src/platform/mpfs_hal/common/mss_irq_handler_stubs.c **** __attribute__((weak))  uint8_t  PLIC_f2m_27_IRQHandler(void)
 799:../src/platform/mpfs_hal/common/mss_irq_handler_stubs.c **** {
 4206              		.loc 1 799 1
 4207              		.cfi_startproc
 4208 0000 4111     		addi	sp,sp,-16
 4209              		.cfi_def_cfa_offset 16
 4210 0002 22E4     		sd	s0,8(sp)
 4211              		.cfi_offset 8, -8
 4212 0004 0008     		addi	s0,sp,16
 4213              		.cfi_def_cfa 8, 0
 800:../src/platform/mpfs_hal/common/mss_irq_handler_stubs.c ****     return(0U);
 4214              		.loc 1 800 11
 4215 0006 8147     		li	a5,0
 801:../src/platform/mpfs_hal/common/mss_irq_handler_stubs.c **** }
 4216              		.loc 1 801 1
 4217 0008 3E85     		mv	a0,a5
 4218 000a 2264     		ld	s0,8(sp)
 4219              		.cfi_restore 8
 4220              		.cfi_def_cfa 2, 16
 4221 000c 4101     		addi	sp,sp,16
 4222              		.cfi_def_cfa_offset 0
 4223 000e 8280     		jr	ra
 4224              		.cfi_endproc
 4225              	.LFE175:
 4227              		.section	.text.PLIC_f2m_28_IRQHandler,"ax",@progbits
 4228              		.align	1
 4229              		.weak	PLIC_f2m_28_IRQHandler
 4231              	PLIC_f2m_28_IRQHandler:
 4232              	.LFB176:
 802:../src/platform/mpfs_hal/common/mss_irq_handler_stubs.c **** 
 803:../src/platform/mpfs_hal/common/mss_irq_handler_stubs.c **** __attribute__((weak))  uint8_t  PLIC_f2m_28_IRQHandler(void)
 804:../src/platform/mpfs_hal/common/mss_irq_handler_stubs.c **** {
 4233              		.loc 1 804 1
 4234              		.cfi_startproc
 4235 0000 4111     		addi	sp,sp,-16
 4236              		.cfi_def_cfa_offset 16
 4237 0002 22E4     		sd	s0,8(sp)
 4238              		.cfi_offset 8, -8
 4239 0004 0008     		addi	s0,sp,16
 4240              		.cfi_def_cfa 8, 0
 805:../src/platform/mpfs_hal/common/mss_irq_handler_stubs.c ****     return(0U);
 4241              		.loc 1 805 11
 4242 0006 8147     		li	a5,0
 806:../src/platform/mpfs_hal/common/mss_irq_handler_stubs.c **** }
 4243              		.loc 1 806 1
 4244 0008 3E85     		mv	a0,a5
 4245 000a 2264     		ld	s0,8(sp)
 4246              		.cfi_restore 8
 4247              		.cfi_def_cfa 2, 16
 4248 000c 4101     		addi	sp,sp,16
 4249              		.cfi_def_cfa_offset 0
 4250 000e 8280     		jr	ra
 4251              		.cfi_endproc
 4252              	.LFE176:
 4254              		.section	.text.PLIC_f2m_29_IRQHandler,"ax",@progbits
 4255              		.align	1
 4256              		.weak	PLIC_f2m_29_IRQHandler
 4258              	PLIC_f2m_29_IRQHandler:
 4259              	.LFB177:
 807:../src/platform/mpfs_hal/common/mss_irq_handler_stubs.c **** 
 808:../src/platform/mpfs_hal/common/mss_irq_handler_stubs.c **** __attribute__((weak))  uint8_t  PLIC_f2m_29_IRQHandler(void)
 809:../src/platform/mpfs_hal/common/mss_irq_handler_stubs.c **** {
 4260              		.loc 1 809 1
 4261              		.cfi_startproc
 4262 0000 4111     		addi	sp,sp,-16
 4263              		.cfi_def_cfa_offset 16
 4264 0002 22E4     		sd	s0,8(sp)
 4265              		.cfi_offset 8, -8
 4266 0004 0008     		addi	s0,sp,16
 4267              		.cfi_def_cfa 8, 0
 810:../src/platform/mpfs_hal/common/mss_irq_handler_stubs.c ****     return(0U);
 4268              		.loc 1 810 11
 4269 0006 8147     		li	a5,0
 811:../src/platform/mpfs_hal/common/mss_irq_handler_stubs.c **** }
 4270              		.loc 1 811 1
 4271 0008 3E85     		mv	a0,a5
 4272 000a 2264     		ld	s0,8(sp)
 4273              		.cfi_restore 8
 4274              		.cfi_def_cfa 2, 16
 4275 000c 4101     		addi	sp,sp,16
 4276              		.cfi_def_cfa_offset 0
 4277 000e 8280     		jr	ra
 4278              		.cfi_endproc
 4279              	.LFE177:
 4281              		.section	.text.PLIC_f2m_30_IRQHandler,"ax",@progbits
 4282              		.align	1
 4283              		.weak	PLIC_f2m_30_IRQHandler
 4285              	PLIC_f2m_30_IRQHandler:
 4286              	.LFB178:
 812:../src/platform/mpfs_hal/common/mss_irq_handler_stubs.c **** 
 813:../src/platform/mpfs_hal/common/mss_irq_handler_stubs.c **** 
 814:../src/platform/mpfs_hal/common/mss_irq_handler_stubs.c **** __attribute__((weak))  uint8_t  PLIC_f2m_30_IRQHandler(void)
 815:../src/platform/mpfs_hal/common/mss_irq_handler_stubs.c **** {
 4287              		.loc 1 815 1
 4288              		.cfi_startproc
 4289 0000 4111     		addi	sp,sp,-16
 4290              		.cfi_def_cfa_offset 16
 4291 0002 22E4     		sd	s0,8(sp)
 4292              		.cfi_offset 8, -8
 4293 0004 0008     		addi	s0,sp,16
 4294              		.cfi_def_cfa 8, 0
 816:../src/platform/mpfs_hal/common/mss_irq_handler_stubs.c ****     return(0U);
 4295              		.loc 1 816 11
 4296 0006 8147     		li	a5,0
 817:../src/platform/mpfs_hal/common/mss_irq_handler_stubs.c **** }
 4297              		.loc 1 817 1
 4298 0008 3E85     		mv	a0,a5
 4299 000a 2264     		ld	s0,8(sp)
 4300              		.cfi_restore 8
 4301              		.cfi_def_cfa 2, 16
 4302 000c 4101     		addi	sp,sp,16
 4303              		.cfi_def_cfa_offset 0
 4304 000e 8280     		jr	ra
 4305              		.cfi_endproc
 4306              	.LFE178:
 4308              		.section	.text.PLIC_f2m_31_IRQHandler,"ax",@progbits
 4309              		.align	1
 4310              		.weak	PLIC_f2m_31_IRQHandler
 4312              	PLIC_f2m_31_IRQHandler:
 4313              	.LFB179:
 818:../src/platform/mpfs_hal/common/mss_irq_handler_stubs.c **** 
 819:../src/platform/mpfs_hal/common/mss_irq_handler_stubs.c **** __attribute__((weak))  uint8_t  PLIC_f2m_31_IRQHandler(void)
 820:../src/platform/mpfs_hal/common/mss_irq_handler_stubs.c **** {
 4314              		.loc 1 820 1
 4315              		.cfi_startproc
 4316 0000 4111     		addi	sp,sp,-16
 4317              		.cfi_def_cfa_offset 16
 4318 0002 22E4     		sd	s0,8(sp)
 4319              		.cfi_offset 8, -8
 4320 0004 0008     		addi	s0,sp,16
 4321              		.cfi_def_cfa 8, 0
 821:../src/platform/mpfs_hal/common/mss_irq_handler_stubs.c ****     return(0U);
 4322              		.loc 1 821 11
 4323 0006 8147     		li	a5,0
 822:../src/platform/mpfs_hal/common/mss_irq_handler_stubs.c **** }
 4324              		.loc 1 822 1
 4325 0008 3E85     		mv	a0,a5
 4326 000a 2264     		ld	s0,8(sp)
 4327              		.cfi_restore 8
 4328              		.cfi_def_cfa 2, 16
 4329 000c 4101     		addi	sp,sp,16
 4330              		.cfi_def_cfa_offset 0
 4331 000e 8280     		jr	ra
 4332              		.cfi_endproc
 4333              	.LFE179:
 4335              		.section	.text.PLIC_f2m_32_IRQHandler,"ax",@progbits
 4336              		.align	1
 4337              		.weak	PLIC_f2m_32_IRQHandler
 4339              	PLIC_f2m_32_IRQHandler:
 4340              	.LFB180:
 823:../src/platform/mpfs_hal/common/mss_irq_handler_stubs.c **** 
 824:../src/platform/mpfs_hal/common/mss_irq_handler_stubs.c **** 
 825:../src/platform/mpfs_hal/common/mss_irq_handler_stubs.c **** __attribute__((weak))  uint8_t  PLIC_f2m_32_IRQHandler(void)
 826:../src/platform/mpfs_hal/common/mss_irq_handler_stubs.c **** {
 4341              		.loc 1 826 1
 4342              		.cfi_startproc
 4343 0000 4111     		addi	sp,sp,-16
 4344              		.cfi_def_cfa_offset 16
 4345 0002 22E4     		sd	s0,8(sp)
 4346              		.cfi_offset 8, -8
 4347 0004 0008     		addi	s0,sp,16
 4348              		.cfi_def_cfa 8, 0
 827:../src/platform/mpfs_hal/common/mss_irq_handler_stubs.c ****     return(0U);
 4349              		.loc 1 827 11
 4350 0006 8147     		li	a5,0
 828:../src/platform/mpfs_hal/common/mss_irq_handler_stubs.c **** }
 4351              		.loc 1 828 1
 4352 0008 3E85     		mv	a0,a5
 4353 000a 2264     		ld	s0,8(sp)
 4354              		.cfi_restore 8
 4355              		.cfi_def_cfa 2, 16
 4356 000c 4101     		addi	sp,sp,16
 4357              		.cfi_def_cfa_offset 0
 4358 000e 8280     		jr	ra
 4359              		.cfi_endproc
 4360              	.LFE180:
 4362              		.section	.text.PLIC_f2m_33_IRQHandler,"ax",@progbits
 4363              		.align	1
 4364              		.weak	PLIC_f2m_33_IRQHandler
 4366              	PLIC_f2m_33_IRQHandler:
 4367              	.LFB181:
 829:../src/platform/mpfs_hal/common/mss_irq_handler_stubs.c **** 
 830:../src/platform/mpfs_hal/common/mss_irq_handler_stubs.c **** __attribute__((weak))  uint8_t  PLIC_f2m_33_IRQHandler(void)
 831:../src/platform/mpfs_hal/common/mss_irq_handler_stubs.c **** {
 4368              		.loc 1 831 1
 4369              		.cfi_startproc
 4370 0000 4111     		addi	sp,sp,-16
 4371              		.cfi_def_cfa_offset 16
 4372 0002 22E4     		sd	s0,8(sp)
 4373              		.cfi_offset 8, -8
 4374 0004 0008     		addi	s0,sp,16
 4375              		.cfi_def_cfa 8, 0
 832:../src/platform/mpfs_hal/common/mss_irq_handler_stubs.c ****     return(0U);
 4376              		.loc 1 832 11
 4377 0006 8147     		li	a5,0
 833:../src/platform/mpfs_hal/common/mss_irq_handler_stubs.c **** }
 4378              		.loc 1 833 1
 4379 0008 3E85     		mv	a0,a5
 4380 000a 2264     		ld	s0,8(sp)
 4381              		.cfi_restore 8
 4382              		.cfi_def_cfa 2, 16
 4383 000c 4101     		addi	sp,sp,16
 4384              		.cfi_def_cfa_offset 0
 4385 000e 8280     		jr	ra
 4386              		.cfi_endproc
 4387              	.LFE181:
 4389              		.section	.text.PLIC_f2m_34_IRQHandler,"ax",@progbits
 4390              		.align	1
 4391              		.weak	PLIC_f2m_34_IRQHandler
 4393              	PLIC_f2m_34_IRQHandler:
 4394              	.LFB182:
 834:../src/platform/mpfs_hal/common/mss_irq_handler_stubs.c **** 
 835:../src/platform/mpfs_hal/common/mss_irq_handler_stubs.c **** __attribute__((weak))  uint8_t  PLIC_f2m_34_IRQHandler(void)
 836:../src/platform/mpfs_hal/common/mss_irq_handler_stubs.c **** {
 4395              		.loc 1 836 1
 4396              		.cfi_startproc
 4397 0000 4111     		addi	sp,sp,-16
 4398              		.cfi_def_cfa_offset 16
 4399 0002 22E4     		sd	s0,8(sp)
 4400              		.cfi_offset 8, -8
 4401 0004 0008     		addi	s0,sp,16
 4402              		.cfi_def_cfa 8, 0
 837:../src/platform/mpfs_hal/common/mss_irq_handler_stubs.c ****     return(0U);
 4403              		.loc 1 837 11
 4404 0006 8147     		li	a5,0
 838:../src/platform/mpfs_hal/common/mss_irq_handler_stubs.c **** }
 4405              		.loc 1 838 1
 4406 0008 3E85     		mv	a0,a5
 4407 000a 2264     		ld	s0,8(sp)
 4408              		.cfi_restore 8
 4409              		.cfi_def_cfa 2, 16
 4410 000c 4101     		addi	sp,sp,16
 4411              		.cfi_def_cfa_offset 0
 4412 000e 8280     		jr	ra
 4413              		.cfi_endproc
 4414              	.LFE182:
 4416              		.section	.text.PLIC_f2m_35_IRQHandler,"ax",@progbits
 4417              		.align	1
 4418              		.weak	PLIC_f2m_35_IRQHandler
 4420              	PLIC_f2m_35_IRQHandler:
 4421              	.LFB183:
 839:../src/platform/mpfs_hal/common/mss_irq_handler_stubs.c **** 
 840:../src/platform/mpfs_hal/common/mss_irq_handler_stubs.c **** __attribute__((weak))  uint8_t  PLIC_f2m_35_IRQHandler(void)
 841:../src/platform/mpfs_hal/common/mss_irq_handler_stubs.c **** {
 4422              		.loc 1 841 1
 4423              		.cfi_startproc
 4424 0000 4111     		addi	sp,sp,-16
 4425              		.cfi_def_cfa_offset 16
 4426 0002 22E4     		sd	s0,8(sp)
 4427              		.cfi_offset 8, -8
 4428 0004 0008     		addi	s0,sp,16
 4429              		.cfi_def_cfa 8, 0
 842:../src/platform/mpfs_hal/common/mss_irq_handler_stubs.c ****     return(0U);
 4430              		.loc 1 842 11
 4431 0006 8147     		li	a5,0
 843:../src/platform/mpfs_hal/common/mss_irq_handler_stubs.c **** }
 4432              		.loc 1 843 1
 4433 0008 3E85     		mv	a0,a5
 4434 000a 2264     		ld	s0,8(sp)
 4435              		.cfi_restore 8
 4436              		.cfi_def_cfa 2, 16
 4437 000c 4101     		addi	sp,sp,16
 4438              		.cfi_def_cfa_offset 0
 4439 000e 8280     		jr	ra
 4440              		.cfi_endproc
 4441              	.LFE183:
 4443              		.section	.text.PLIC_f2m_36_IRQHandler,"ax",@progbits
 4444              		.align	1
 4445              		.weak	PLIC_f2m_36_IRQHandler
 4447              	PLIC_f2m_36_IRQHandler:
 4448              	.LFB184:
 844:../src/platform/mpfs_hal/common/mss_irq_handler_stubs.c **** 
 845:../src/platform/mpfs_hal/common/mss_irq_handler_stubs.c **** __attribute__((weak))  uint8_t  PLIC_f2m_36_IRQHandler(void)
 846:../src/platform/mpfs_hal/common/mss_irq_handler_stubs.c **** {
 4449              		.loc 1 846 1
 4450              		.cfi_startproc
 4451 0000 4111     		addi	sp,sp,-16
 4452              		.cfi_def_cfa_offset 16
 4453 0002 22E4     		sd	s0,8(sp)
 4454              		.cfi_offset 8, -8
 4455 0004 0008     		addi	s0,sp,16
 4456              		.cfi_def_cfa 8, 0
 847:../src/platform/mpfs_hal/common/mss_irq_handler_stubs.c ****     return(0U);
 4457              		.loc 1 847 11
 4458 0006 8147     		li	a5,0
 848:../src/platform/mpfs_hal/common/mss_irq_handler_stubs.c **** }
 4459              		.loc 1 848 1
 4460 0008 3E85     		mv	a0,a5
 4461 000a 2264     		ld	s0,8(sp)
 4462              		.cfi_restore 8
 4463              		.cfi_def_cfa 2, 16
 4464 000c 4101     		addi	sp,sp,16
 4465              		.cfi_def_cfa_offset 0
 4466 000e 8280     		jr	ra
 4467              		.cfi_endproc
 4468              	.LFE184:
 4470              		.section	.text.PLIC_f2m_37_IRQHandler,"ax",@progbits
 4471              		.align	1
 4472              		.weak	PLIC_f2m_37_IRQHandler
 4474              	PLIC_f2m_37_IRQHandler:
 4475              	.LFB185:
 849:../src/platform/mpfs_hal/common/mss_irq_handler_stubs.c **** 
 850:../src/platform/mpfs_hal/common/mss_irq_handler_stubs.c **** __attribute__((weak))  uint8_t  PLIC_f2m_37_IRQHandler(void)
 851:../src/platform/mpfs_hal/common/mss_irq_handler_stubs.c **** {
 4476              		.loc 1 851 1
 4477              		.cfi_startproc
 4478 0000 4111     		addi	sp,sp,-16
 4479              		.cfi_def_cfa_offset 16
 4480 0002 22E4     		sd	s0,8(sp)
 4481              		.cfi_offset 8, -8
 4482 0004 0008     		addi	s0,sp,16
 4483              		.cfi_def_cfa 8, 0
 852:../src/platform/mpfs_hal/common/mss_irq_handler_stubs.c ****     return(0U);
 4484              		.loc 1 852 11
 4485 0006 8147     		li	a5,0
 853:../src/platform/mpfs_hal/common/mss_irq_handler_stubs.c **** }
 4486              		.loc 1 853 1
 4487 0008 3E85     		mv	a0,a5
 4488 000a 2264     		ld	s0,8(sp)
 4489              		.cfi_restore 8
 4490              		.cfi_def_cfa 2, 16
 4491 000c 4101     		addi	sp,sp,16
 4492              		.cfi_def_cfa_offset 0
 4493 000e 8280     		jr	ra
 4494              		.cfi_endproc
 4495              	.LFE185:
 4497              		.section	.text.PLIC_f2m_38_IRQHandler,"ax",@progbits
 4498              		.align	1
 4499              		.weak	PLIC_f2m_38_IRQHandler
 4501              	PLIC_f2m_38_IRQHandler:
 4502              	.LFB186:
 854:../src/platform/mpfs_hal/common/mss_irq_handler_stubs.c **** 
 855:../src/platform/mpfs_hal/common/mss_irq_handler_stubs.c **** __attribute__((weak))  uint8_t  PLIC_f2m_38_IRQHandler(void)
 856:../src/platform/mpfs_hal/common/mss_irq_handler_stubs.c **** {
 4503              		.loc 1 856 1
 4504              		.cfi_startproc
 4505 0000 4111     		addi	sp,sp,-16
 4506              		.cfi_def_cfa_offset 16
 4507 0002 22E4     		sd	s0,8(sp)
 4508              		.cfi_offset 8, -8
 4509 0004 0008     		addi	s0,sp,16
 4510              		.cfi_def_cfa 8, 0
 857:../src/platform/mpfs_hal/common/mss_irq_handler_stubs.c ****     return(0U);
 4511              		.loc 1 857 11
 4512 0006 8147     		li	a5,0
 858:../src/platform/mpfs_hal/common/mss_irq_handler_stubs.c **** }
 4513              		.loc 1 858 1
 4514 0008 3E85     		mv	a0,a5
 4515 000a 2264     		ld	s0,8(sp)
 4516              		.cfi_restore 8
 4517              		.cfi_def_cfa 2, 16
 4518 000c 4101     		addi	sp,sp,16
 4519              		.cfi_def_cfa_offset 0
 4520 000e 8280     		jr	ra
 4521              		.cfi_endproc
 4522              	.LFE186:
 4524              		.section	.text.PLIC_f2m_39_IRQHandler,"ax",@progbits
 4525              		.align	1
 4526              		.weak	PLIC_f2m_39_IRQHandler
 4528              	PLIC_f2m_39_IRQHandler:
 4529              	.LFB187:
 859:../src/platform/mpfs_hal/common/mss_irq_handler_stubs.c **** 
 860:../src/platform/mpfs_hal/common/mss_irq_handler_stubs.c **** __attribute__((weak))  uint8_t  PLIC_f2m_39_IRQHandler(void)
 861:../src/platform/mpfs_hal/common/mss_irq_handler_stubs.c **** {
 4530              		.loc 1 861 1
 4531              		.cfi_startproc
 4532 0000 4111     		addi	sp,sp,-16
 4533              		.cfi_def_cfa_offset 16
 4534 0002 22E4     		sd	s0,8(sp)
 4535              		.cfi_offset 8, -8
 4536 0004 0008     		addi	s0,sp,16
 4537              		.cfi_def_cfa 8, 0
 862:../src/platform/mpfs_hal/common/mss_irq_handler_stubs.c ****     return(0U);
 4538              		.loc 1 862 11
 4539 0006 8147     		li	a5,0
 863:../src/platform/mpfs_hal/common/mss_irq_handler_stubs.c **** }
 4540              		.loc 1 863 1
 4541 0008 3E85     		mv	a0,a5
 4542 000a 2264     		ld	s0,8(sp)
 4543              		.cfi_restore 8
 4544              		.cfi_def_cfa 2, 16
 4545 000c 4101     		addi	sp,sp,16
 4546              		.cfi_def_cfa_offset 0
 4547 000e 8280     		jr	ra
 4548              		.cfi_endproc
 4549              	.LFE187:
 4551              		.section	.text.PLIC_f2m_40_IRQHandler,"ax",@progbits
 4552              		.align	1
 4553              		.weak	PLIC_f2m_40_IRQHandler
 4555              	PLIC_f2m_40_IRQHandler:
 4556              	.LFB188:
 864:../src/platform/mpfs_hal/common/mss_irq_handler_stubs.c **** 
 865:../src/platform/mpfs_hal/common/mss_irq_handler_stubs.c **** __attribute__((weak))  uint8_t  PLIC_f2m_40_IRQHandler(void)
 866:../src/platform/mpfs_hal/common/mss_irq_handler_stubs.c **** {
 4557              		.loc 1 866 1
 4558              		.cfi_startproc
 4559 0000 4111     		addi	sp,sp,-16
 4560              		.cfi_def_cfa_offset 16
 4561 0002 22E4     		sd	s0,8(sp)
 4562              		.cfi_offset 8, -8
 4563 0004 0008     		addi	s0,sp,16
 4564              		.cfi_def_cfa 8, 0
 867:../src/platform/mpfs_hal/common/mss_irq_handler_stubs.c ****     return(0U);
 4565              		.loc 1 867 11
 4566 0006 8147     		li	a5,0
 868:../src/platform/mpfs_hal/common/mss_irq_handler_stubs.c **** }
 4567              		.loc 1 868 1
 4568 0008 3E85     		mv	a0,a5
 4569 000a 2264     		ld	s0,8(sp)
 4570              		.cfi_restore 8
 4571              		.cfi_def_cfa 2, 16
 4572 000c 4101     		addi	sp,sp,16
 4573              		.cfi_def_cfa_offset 0
 4574 000e 8280     		jr	ra
 4575              		.cfi_endproc
 4576              	.LFE188:
 4578              		.section	.text.PLIC_f2m_41_IRQHandler,"ax",@progbits
 4579              		.align	1
 4580              		.weak	PLIC_f2m_41_IRQHandler
 4582              	PLIC_f2m_41_IRQHandler:
 4583              	.LFB189:
 869:../src/platform/mpfs_hal/common/mss_irq_handler_stubs.c **** 
 870:../src/platform/mpfs_hal/common/mss_irq_handler_stubs.c **** __attribute__((weak))  uint8_t  PLIC_f2m_41_IRQHandler(void)
 871:../src/platform/mpfs_hal/common/mss_irq_handler_stubs.c **** {
 4584              		.loc 1 871 1
 4585              		.cfi_startproc
 4586 0000 4111     		addi	sp,sp,-16
 4587              		.cfi_def_cfa_offset 16
 4588 0002 22E4     		sd	s0,8(sp)
 4589              		.cfi_offset 8, -8
 4590 0004 0008     		addi	s0,sp,16
 4591              		.cfi_def_cfa 8, 0
 872:../src/platform/mpfs_hal/common/mss_irq_handler_stubs.c ****     return(0U);
 4592              		.loc 1 872 11
 4593 0006 8147     		li	a5,0
 873:../src/platform/mpfs_hal/common/mss_irq_handler_stubs.c **** }
 4594              		.loc 1 873 1
 4595 0008 3E85     		mv	a0,a5
 4596 000a 2264     		ld	s0,8(sp)
 4597              		.cfi_restore 8
 4598              		.cfi_def_cfa 2, 16
 4599 000c 4101     		addi	sp,sp,16
 4600              		.cfi_def_cfa_offset 0
 4601 000e 8280     		jr	ra
 4602              		.cfi_endproc
 4603              	.LFE189:
 4605              		.section	.text.PLIC_f2m_42_IRQHandler,"ax",@progbits
 4606              		.align	1
 4607              		.weak	PLIC_f2m_42_IRQHandler
 4609              	PLIC_f2m_42_IRQHandler:
 4610              	.LFB190:
 874:../src/platform/mpfs_hal/common/mss_irq_handler_stubs.c **** 
 875:../src/platform/mpfs_hal/common/mss_irq_handler_stubs.c **** 
 876:../src/platform/mpfs_hal/common/mss_irq_handler_stubs.c **** __attribute__((weak))  uint8_t PLIC_f2m_42_IRQHandler(void)
 877:../src/platform/mpfs_hal/common/mss_irq_handler_stubs.c **** {
 4611              		.loc 1 877 1
 4612              		.cfi_startproc
 4613 0000 4111     		addi	sp,sp,-16
 4614              		.cfi_def_cfa_offset 16
 4615 0002 22E4     		sd	s0,8(sp)
 4616              		.cfi_offset 8, -8
 4617 0004 0008     		addi	s0,sp,16
 4618              		.cfi_def_cfa 8, 0
 878:../src/platform/mpfs_hal/common/mss_irq_handler_stubs.c ****     return(0U);
 4619              		.loc 1 878 11
 4620 0006 8147     		li	a5,0
 879:../src/platform/mpfs_hal/common/mss_irq_handler_stubs.c **** }
 4621              		.loc 1 879 1
 4622 0008 3E85     		mv	a0,a5
 4623 000a 2264     		ld	s0,8(sp)
 4624              		.cfi_restore 8
 4625              		.cfi_def_cfa 2, 16
 4626 000c 4101     		addi	sp,sp,16
 4627              		.cfi_def_cfa_offset 0
 4628 000e 8280     		jr	ra
 4629              		.cfi_endproc
 4630              	.LFE190:
 4632              		.section	.text.PLIC_f2m_43_IRQHandler,"ax",@progbits
 4633              		.align	1
 4634              		.weak	PLIC_f2m_43_IRQHandler
 4636              	PLIC_f2m_43_IRQHandler:
 4637              	.LFB191:
 880:../src/platform/mpfs_hal/common/mss_irq_handler_stubs.c **** 
 881:../src/platform/mpfs_hal/common/mss_irq_handler_stubs.c **** __attribute__((weak))  uint8_t PLIC_f2m_43_IRQHandler(void)
 882:../src/platform/mpfs_hal/common/mss_irq_handler_stubs.c **** {
 4638              		.loc 1 882 1
 4639              		.cfi_startproc
 4640 0000 4111     		addi	sp,sp,-16
 4641              		.cfi_def_cfa_offset 16
 4642 0002 22E4     		sd	s0,8(sp)
 4643              		.cfi_offset 8, -8
 4644 0004 0008     		addi	s0,sp,16
 4645              		.cfi_def_cfa 8, 0
 883:../src/platform/mpfs_hal/common/mss_irq_handler_stubs.c ****     return(0U);
 4646              		.loc 1 883 11
 4647 0006 8147     		li	a5,0
 884:../src/platform/mpfs_hal/common/mss_irq_handler_stubs.c **** }
 4648              		.loc 1 884 1
 4649 0008 3E85     		mv	a0,a5
 4650 000a 2264     		ld	s0,8(sp)
 4651              		.cfi_restore 8
 4652              		.cfi_def_cfa 2, 16
 4653 000c 4101     		addi	sp,sp,16
 4654              		.cfi_def_cfa_offset 0
 4655 000e 8280     		jr	ra
 4656              		.cfi_endproc
 4657              	.LFE191:
 4659              		.section	.text.PLIC_f2m_44_IRQHandler,"ax",@progbits
 4660              		.align	1
 4661              		.weak	PLIC_f2m_44_IRQHandler
 4663              	PLIC_f2m_44_IRQHandler:
 4664              	.LFB192:
 885:../src/platform/mpfs_hal/common/mss_irq_handler_stubs.c **** 
 886:../src/platform/mpfs_hal/common/mss_irq_handler_stubs.c **** __attribute__((weak))  uint8_t PLIC_f2m_44_IRQHandler(void)
 887:../src/platform/mpfs_hal/common/mss_irq_handler_stubs.c **** {
 4665              		.loc 1 887 1
 4666              		.cfi_startproc
 4667 0000 4111     		addi	sp,sp,-16
 4668              		.cfi_def_cfa_offset 16
 4669 0002 22E4     		sd	s0,8(sp)
 4670              		.cfi_offset 8, -8
 4671 0004 0008     		addi	s0,sp,16
 4672              		.cfi_def_cfa 8, 0
 888:../src/platform/mpfs_hal/common/mss_irq_handler_stubs.c ****     return(0U);
 4673              		.loc 1 888 11
 4674 0006 8147     		li	a5,0
 889:../src/platform/mpfs_hal/common/mss_irq_handler_stubs.c **** }
 4675              		.loc 1 889 1
 4676 0008 3E85     		mv	a0,a5
 4677 000a 2264     		ld	s0,8(sp)
 4678              		.cfi_restore 8
 4679              		.cfi_def_cfa 2, 16
 4680 000c 4101     		addi	sp,sp,16
 4681              		.cfi_def_cfa_offset 0
 4682 000e 8280     		jr	ra
 4683              		.cfi_endproc
 4684              	.LFE192:
 4686              		.section	.text.PLIC_f2m_45_IRQHandler,"ax",@progbits
 4687              		.align	1
 4688              		.weak	PLIC_f2m_45_IRQHandler
 4690              	PLIC_f2m_45_IRQHandler:
 4691              	.LFB193:
 890:../src/platform/mpfs_hal/common/mss_irq_handler_stubs.c **** 
 891:../src/platform/mpfs_hal/common/mss_irq_handler_stubs.c **** __attribute__((weak))  uint8_t PLIC_f2m_45_IRQHandler(void)
 892:../src/platform/mpfs_hal/common/mss_irq_handler_stubs.c **** {
 4692              		.loc 1 892 1
 4693              		.cfi_startproc
 4694 0000 4111     		addi	sp,sp,-16
 4695              		.cfi_def_cfa_offset 16
 4696 0002 22E4     		sd	s0,8(sp)
 4697              		.cfi_offset 8, -8
 4698 0004 0008     		addi	s0,sp,16
 4699              		.cfi_def_cfa 8, 0
 893:../src/platform/mpfs_hal/common/mss_irq_handler_stubs.c ****     return(0U);
 4700              		.loc 1 893 11
 4701 0006 8147     		li	a5,0
 894:../src/platform/mpfs_hal/common/mss_irq_handler_stubs.c **** }
 4702              		.loc 1 894 1
 4703 0008 3E85     		mv	a0,a5
 4704 000a 2264     		ld	s0,8(sp)
 4705              		.cfi_restore 8
 4706              		.cfi_def_cfa 2, 16
 4707 000c 4101     		addi	sp,sp,16
 4708              		.cfi_def_cfa_offset 0
 4709 000e 8280     		jr	ra
 4710              		.cfi_endproc
 4711              	.LFE193:
 4713              		.section	.text.PLIC_f2m_46_IRQHandler,"ax",@progbits
 4714              		.align	1
 4715              		.weak	PLIC_f2m_46_IRQHandler
 4717              	PLIC_f2m_46_IRQHandler:
 4718              	.LFB194:
 895:../src/platform/mpfs_hal/common/mss_irq_handler_stubs.c **** 
 896:../src/platform/mpfs_hal/common/mss_irq_handler_stubs.c **** __attribute__((weak))  uint8_t PLIC_f2m_46_IRQHandler(void)
 897:../src/platform/mpfs_hal/common/mss_irq_handler_stubs.c **** {
 4719              		.loc 1 897 1
 4720              		.cfi_startproc
 4721 0000 4111     		addi	sp,sp,-16
 4722              		.cfi_def_cfa_offset 16
 4723 0002 22E4     		sd	s0,8(sp)
 4724              		.cfi_offset 8, -8
 4725 0004 0008     		addi	s0,sp,16
 4726              		.cfi_def_cfa 8, 0
 898:../src/platform/mpfs_hal/common/mss_irq_handler_stubs.c ****     return(0U);
 4727              		.loc 1 898 11
 4728 0006 8147     		li	a5,0
 899:../src/platform/mpfs_hal/common/mss_irq_handler_stubs.c **** }
 4729              		.loc 1 899 1
 4730 0008 3E85     		mv	a0,a5
 4731 000a 2264     		ld	s0,8(sp)
 4732              		.cfi_restore 8
 4733              		.cfi_def_cfa 2, 16
 4734 000c 4101     		addi	sp,sp,16
 4735              		.cfi_def_cfa_offset 0
 4736 000e 8280     		jr	ra
 4737              		.cfi_endproc
 4738              	.LFE194:
 4740              		.section	.text.PLIC_f2m_47_IRQHandler,"ax",@progbits
 4741              		.align	1
 4742              		.weak	PLIC_f2m_47_IRQHandler
 4744              	PLIC_f2m_47_IRQHandler:
 4745              	.LFB195:
 900:../src/platform/mpfs_hal/common/mss_irq_handler_stubs.c **** 
 901:../src/platform/mpfs_hal/common/mss_irq_handler_stubs.c **** __attribute__((weak))  uint8_t PLIC_f2m_47_IRQHandler(void)
 902:../src/platform/mpfs_hal/common/mss_irq_handler_stubs.c **** {
 4746              		.loc 1 902 1
 4747              		.cfi_startproc
 4748 0000 4111     		addi	sp,sp,-16
 4749              		.cfi_def_cfa_offset 16
 4750 0002 22E4     		sd	s0,8(sp)
 4751              		.cfi_offset 8, -8
 4752 0004 0008     		addi	s0,sp,16
 4753              		.cfi_def_cfa 8, 0
 903:../src/platform/mpfs_hal/common/mss_irq_handler_stubs.c ****     return(0U);
 4754              		.loc 1 903 11
 4755 0006 8147     		li	a5,0
 904:../src/platform/mpfs_hal/common/mss_irq_handler_stubs.c **** }
 4756              		.loc 1 904 1
 4757 0008 3E85     		mv	a0,a5
 4758 000a 2264     		ld	s0,8(sp)
 4759              		.cfi_restore 8
 4760              		.cfi_def_cfa 2, 16
 4761 000c 4101     		addi	sp,sp,16
 4762              		.cfi_def_cfa_offset 0
 4763 000e 8280     		jr	ra
 4764              		.cfi_endproc
 4765              	.LFE195:
 4767              		.section	.text.PLIC_f2m_48_IRQHandler,"ax",@progbits
 4768              		.align	1
 4769              		.weak	PLIC_f2m_48_IRQHandler
 4771              	PLIC_f2m_48_IRQHandler:
 4772              	.LFB196:
 905:../src/platform/mpfs_hal/common/mss_irq_handler_stubs.c **** 
 906:../src/platform/mpfs_hal/common/mss_irq_handler_stubs.c **** __attribute__((weak))  uint8_t PLIC_f2m_48_IRQHandler(void)
 907:../src/platform/mpfs_hal/common/mss_irq_handler_stubs.c **** {
 4773              		.loc 1 907 1
 4774              		.cfi_startproc
 4775 0000 4111     		addi	sp,sp,-16
 4776              		.cfi_def_cfa_offset 16
 4777 0002 22E4     		sd	s0,8(sp)
 4778              		.cfi_offset 8, -8
 4779 0004 0008     		addi	s0,sp,16
 4780              		.cfi_def_cfa 8, 0
 908:../src/platform/mpfs_hal/common/mss_irq_handler_stubs.c ****     return(0U);
 4781              		.loc 1 908 11
 4782 0006 8147     		li	a5,0
 909:../src/platform/mpfs_hal/common/mss_irq_handler_stubs.c **** }
 4783              		.loc 1 909 1
 4784 0008 3E85     		mv	a0,a5
 4785 000a 2264     		ld	s0,8(sp)
 4786              		.cfi_restore 8
 4787              		.cfi_def_cfa 2, 16
 4788 000c 4101     		addi	sp,sp,16
 4789              		.cfi_def_cfa_offset 0
 4790 000e 8280     		jr	ra
 4791              		.cfi_endproc
 4792              	.LFE196:
 4794              		.section	.text.PLIC_f2m_49_IRQHandler,"ax",@progbits
 4795              		.align	1
 4796              		.weak	PLIC_f2m_49_IRQHandler
 4798              	PLIC_f2m_49_IRQHandler:
 4799              	.LFB197:
 910:../src/platform/mpfs_hal/common/mss_irq_handler_stubs.c **** 
 911:../src/platform/mpfs_hal/common/mss_irq_handler_stubs.c **** __attribute__((weak))  uint8_t PLIC_f2m_49_IRQHandler(void)
 912:../src/platform/mpfs_hal/common/mss_irq_handler_stubs.c **** {
 4800              		.loc 1 912 1
 4801              		.cfi_startproc
 4802 0000 4111     		addi	sp,sp,-16
 4803              		.cfi_def_cfa_offset 16
 4804 0002 22E4     		sd	s0,8(sp)
 4805              		.cfi_offset 8, -8
 4806 0004 0008     		addi	s0,sp,16
 4807              		.cfi_def_cfa 8, 0
 913:../src/platform/mpfs_hal/common/mss_irq_handler_stubs.c ****     return(0U);
 4808              		.loc 1 913 11
 4809 0006 8147     		li	a5,0
 914:../src/platform/mpfs_hal/common/mss_irq_handler_stubs.c **** }
 4810              		.loc 1 914 1
 4811 0008 3E85     		mv	a0,a5
 4812 000a 2264     		ld	s0,8(sp)
 4813              		.cfi_restore 8
 4814              		.cfi_def_cfa 2, 16
 4815 000c 4101     		addi	sp,sp,16
 4816              		.cfi_def_cfa_offset 0
 4817 000e 8280     		jr	ra
 4818              		.cfi_endproc
 4819              	.LFE197:
 4821              		.section	.text.PLIC_f2m_50_IRQHandler,"ax",@progbits
 4822              		.align	1
 4823              		.weak	PLIC_f2m_50_IRQHandler
 4825              	PLIC_f2m_50_IRQHandler:
 4826              	.LFB198:
 915:../src/platform/mpfs_hal/common/mss_irq_handler_stubs.c **** 
 916:../src/platform/mpfs_hal/common/mss_irq_handler_stubs.c **** __attribute__((weak))  uint8_t PLIC_f2m_50_IRQHandler(void)
 917:../src/platform/mpfs_hal/common/mss_irq_handler_stubs.c **** {
 4827              		.loc 1 917 1
 4828              		.cfi_startproc
 4829 0000 4111     		addi	sp,sp,-16
 4830              		.cfi_def_cfa_offset 16
 4831 0002 22E4     		sd	s0,8(sp)
 4832              		.cfi_offset 8, -8
 4833 0004 0008     		addi	s0,sp,16
 4834              		.cfi_def_cfa 8, 0
 918:../src/platform/mpfs_hal/common/mss_irq_handler_stubs.c ****     return(0U);
 4835              		.loc 1 918 11
 4836 0006 8147     		li	a5,0
 919:../src/platform/mpfs_hal/common/mss_irq_handler_stubs.c **** }
 4837              		.loc 1 919 1
 4838 0008 3E85     		mv	a0,a5
 4839 000a 2264     		ld	s0,8(sp)
 4840              		.cfi_restore 8
 4841              		.cfi_def_cfa 2, 16
 4842 000c 4101     		addi	sp,sp,16
 4843              		.cfi_def_cfa_offset 0
 4844 000e 8280     		jr	ra
 4845              		.cfi_endproc
 4846              	.LFE198:
 4848              		.section	.text.PLIC_f2m_51_IRQHandler,"ax",@progbits
 4849              		.align	1
 4850              		.weak	PLIC_f2m_51_IRQHandler
 4852              	PLIC_f2m_51_IRQHandler:
 4853              	.LFB199:
 920:../src/platform/mpfs_hal/common/mss_irq_handler_stubs.c **** 
 921:../src/platform/mpfs_hal/common/mss_irq_handler_stubs.c **** __attribute__((weak))  uint8_t PLIC_f2m_51_IRQHandler(void)
 922:../src/platform/mpfs_hal/common/mss_irq_handler_stubs.c **** {
 4854              		.loc 1 922 1
 4855              		.cfi_startproc
 4856 0000 4111     		addi	sp,sp,-16
 4857              		.cfi_def_cfa_offset 16
 4858 0002 22E4     		sd	s0,8(sp)
 4859              		.cfi_offset 8, -8
 4860 0004 0008     		addi	s0,sp,16
 4861              		.cfi_def_cfa 8, 0
 923:../src/platform/mpfs_hal/common/mss_irq_handler_stubs.c ****     return(0U);
 4862              		.loc 1 923 11
 4863 0006 8147     		li	a5,0
 924:../src/platform/mpfs_hal/common/mss_irq_handler_stubs.c **** }
 4864              		.loc 1 924 1
 4865 0008 3E85     		mv	a0,a5
 4866 000a 2264     		ld	s0,8(sp)
 4867              		.cfi_restore 8
 4868              		.cfi_def_cfa 2, 16
 4869 000c 4101     		addi	sp,sp,16
 4870              		.cfi_def_cfa_offset 0
 4871 000e 8280     		jr	ra
 4872              		.cfi_endproc
 4873              	.LFE199:
 4875              		.section	.text.PLIC_f2m_52_IRQHandler,"ax",@progbits
 4876              		.align	1
 4877              		.weak	PLIC_f2m_52_IRQHandler
 4879              	PLIC_f2m_52_IRQHandler:
 4880              	.LFB200:
 925:../src/platform/mpfs_hal/common/mss_irq_handler_stubs.c **** 
 926:../src/platform/mpfs_hal/common/mss_irq_handler_stubs.c **** 
 927:../src/platform/mpfs_hal/common/mss_irq_handler_stubs.c **** __attribute__((weak))  uint8_t PLIC_f2m_52_IRQHandler(void)
 928:../src/platform/mpfs_hal/common/mss_irq_handler_stubs.c **** {
 4881              		.loc 1 928 1
 4882              		.cfi_startproc
 4883 0000 4111     		addi	sp,sp,-16
 4884              		.cfi_def_cfa_offset 16
 4885 0002 22E4     		sd	s0,8(sp)
 4886              		.cfi_offset 8, -8
 4887 0004 0008     		addi	s0,sp,16
 4888              		.cfi_def_cfa 8, 0
 929:../src/platform/mpfs_hal/common/mss_irq_handler_stubs.c ****     return(0U);
 4889              		.loc 1 929 11
 4890 0006 8147     		li	a5,0
 930:../src/platform/mpfs_hal/common/mss_irq_handler_stubs.c **** }
 4891              		.loc 1 930 1
 4892 0008 3E85     		mv	a0,a5
 4893 000a 2264     		ld	s0,8(sp)
 4894              		.cfi_restore 8
 4895              		.cfi_def_cfa 2, 16
 4896 000c 4101     		addi	sp,sp,16
 4897              		.cfi_def_cfa_offset 0
 4898 000e 8280     		jr	ra
 4899              		.cfi_endproc
 4900              	.LFE200:
 4902              		.section	.text.PLIC_f2m_53_IRQHandler,"ax",@progbits
 4903              		.align	1
