   1              		.file	"mss_util.c"
   2              		.option nopic
   3              		.attribute arch, "rv64i2p0_m2p0_a2p0_f2p0_d2p0_c2p0"
   4              		.attribute unaligned_access, 0
   5              		.attribute stack_align, 16
   6              		.text
   7              	.Ltext0:
   8              		.cfi_sections	.debug_frame
   9              		.section	.text.enable_interrupts,"ax",@progbits
  10              		.align	1
  11              		.globl	enable_interrupts
  13              	enable_interrupts:
  14              	.LFB19:
  15              		.file 1 "../src/platform/mpfs_hal/common/mss_util.c"
   1:../src/platform/mpfs_hal/common/mss_util.c **** /*******************************************************************************
   2:../src/platform/mpfs_hal/common/mss_util.c ****  * Copyright 2019-2022 Microchip FPGA Embedded Systems Solutions.
   3:../src/platform/mpfs_hal/common/mss_util.c ****  *
   4:../src/platform/mpfs_hal/common/mss_util.c ****  * SPDX-License-Identifier: MIT
   5:../src/platform/mpfs_hal/common/mss_util.c ****  *
   6:../src/platform/mpfs_hal/common/mss_util.c ****  * MPFS HAL Embedded Software
   7:../src/platform/mpfs_hal/common/mss_util.c ****  *
   8:../src/platform/mpfs_hal/common/mss_util.c ****  */
   9:../src/platform/mpfs_hal/common/mss_util.c **** 
  10:../src/platform/mpfs_hal/common/mss_util.c **** /***************************************************************************
  11:../src/platform/mpfs_hal/common/mss_util.c ****  * @file mss_util.c
  12:../src/platform/mpfs_hal/common/mss_util.c ****  * @author Microchip-FPGA Embedded Systems Solutions
  13:../src/platform/mpfs_hal/common/mss_util.c ****  * @brief Utility functions
  14:../src/platform/mpfs_hal/common/mss_util.c ****  *
  15:../src/platform/mpfs_hal/common/mss_util.c ****  */
  16:../src/platform/mpfs_hal/common/mss_util.c **** #include <stddef.h>
  17:../src/platform/mpfs_hal/common/mss_util.c **** #include <stdbool.h>
  18:../src/platform/mpfs_hal/common/mss_util.c **** #include "mpfs_hal/mss_hal.h"
  19:../src/platform/mpfs_hal/common/mss_util.c **** 
  20:../src/platform/mpfs_hal/common/mss_util.c **** #ifdef __cplusplus
  21:../src/platform/mpfs_hal/common/mss_util.c **** extern "C" {
  22:../src/platform/mpfs_hal/common/mss_util.c **** #endif
  23:../src/platform/mpfs_hal/common/mss_util.c **** 
  24:../src/platform/mpfs_hal/common/mss_util.c **** /*------------------------------------------------------------------------------
  25:../src/platform/mpfs_hal/common/mss_util.c ****  *
  26:../src/platform/mpfs_hal/common/mss_util.c ****  */
  27:../src/platform/mpfs_hal/common/mss_util.c **** void enable_interrupts(void) {
  16              		.loc 1 27 30
  17              		.cfi_startproc
  28:../src/platform/mpfs_hal/common/mss_util.c ****     __enable_irq();
  18              		.loc 1 28 5
  29:../src/platform/mpfs_hal/common/mss_util.c **** }
  30:../src/platform/mpfs_hal/common/mss_util.c **** 
  31:../src/platform/mpfs_hal/common/mss_util.c **** /*------------------------------------------------------------------------------
  32:../src/platform/mpfs_hal/common/mss_util.c ****  *
  33:../src/platform/mpfs_hal/common/mss_util.c ****  */
  34:../src/platform/mpfs_hal/common/mss_util.c **** uint64_t disable_interrupts(void) {
  35:../src/platform/mpfs_hal/common/mss_util.c ****     uint64_t psr;
  36:../src/platform/mpfs_hal/common/mss_util.c ****     psr = read_csr(mstatus);
  37:../src/platform/mpfs_hal/common/mss_util.c ****     __disable_irq();
  38:../src/platform/mpfs_hal/common/mss_util.c ****     return(psr);
  39:../src/platform/mpfs_hal/common/mss_util.c **** }
  40:../src/platform/mpfs_hal/common/mss_util.c **** 
  41:../src/platform/mpfs_hal/common/mss_util.c **** /*------------------------------------------------------------------------------
  42:../src/platform/mpfs_hal/common/mss_util.c ****  *
  43:../src/platform/mpfs_hal/common/mss_util.c ****  */
  44:../src/platform/mpfs_hal/common/mss_util.c **** void restore_interrupts(uint64_t saved_psr) {
  45:../src/platform/mpfs_hal/common/mss_util.c ****     write_csr(mstatus, saved_psr);
  46:../src/platform/mpfs_hal/common/mss_util.c **** }
  47:../src/platform/mpfs_hal/common/mss_util.c **** 
  48:../src/platform/mpfs_hal/common/mss_util.c **** /*------------------------------------------------------------------------------
  49:../src/platform/mpfs_hal/common/mss_util.c ****  * Disable all interrupts.
  50:../src/platform/mpfs_hal/common/mss_util.c ****  */
  51:../src/platform/mpfs_hal/common/mss_util.c **** void __disable_irq(void)
  52:../src/platform/mpfs_hal/common/mss_util.c **** {
  53:../src/platform/mpfs_hal/common/mss_util.c ****     clear_csr(mstatus, MSTATUS_MIE);
  54:../src/platform/mpfs_hal/common/mss_util.c ****     clear_csr(mstatus, MSTATUS_MPIE);
  55:../src/platform/mpfs_hal/common/mss_util.c **** }
  56:../src/platform/mpfs_hal/common/mss_util.c **** 
  57:../src/platform/mpfs_hal/common/mss_util.c **** void __disable_all_irqs(void)
  58:../src/platform/mpfs_hal/common/mss_util.c **** {
  59:../src/platform/mpfs_hal/common/mss_util.c ****     __disable_irq();
  60:../src/platform/mpfs_hal/common/mss_util.c ****     write_csr(mie, 0x00U);
  61:../src/platform/mpfs_hal/common/mss_util.c ****     write_csr(mip, 0x00);
  62:../src/platform/mpfs_hal/common/mss_util.c **** }
  63:../src/platform/mpfs_hal/common/mss_util.c **** 
  64:../src/platform/mpfs_hal/common/mss_util.c **** /*------------------------------------------------------------------------------
  65:../src/platform/mpfs_hal/common/mss_util.c ****  * Enable all interrupts.
  66:../src/platform/mpfs_hal/common/mss_util.c ****  */
  67:../src/platform/mpfs_hal/common/mss_util.c **** void __enable_irq(void)
  68:../src/platform/mpfs_hal/common/mss_util.c **** {
  69:../src/platform/mpfs_hal/common/mss_util.c ****     set_csr(mstatus, MSTATUS_MIE);  /* mstatus Register- Machine Interrupt Enable */
  19              		.loc 1 69 5
  20              	.LBB13:
  21              	.LBB14:
  22              		.loc 1 69 5
  23              		.loc 1 69 5
  24              	 #APP
  25              	# 69 "../src/platform/mpfs_hal/common/mss_util.c" 1
  70              	}
  26              		csrrs a5, mstatus, 8
  27              	# 0 "" 2
  28              	.LVL0:
  69:../src/platform/mpfs_hal/common/mss_util.c ****     set_csr(mstatus, MSTATUS_MIE);  /* mstatus Register- Machine Interrupt Enable */
  29              		.loc 1 69 5
  30              	 #NO_APP
  31              	.LBE14:
  32              	.LBE13:
  29:../src/platform/mpfs_hal/common/mss_util.c **** }
  33              		.loc 1 29 1 is_stmt 0
  34 0004 8280     		ret
  35              		.cfi_endproc
  36              	.LFE19:
  38              		.section	.text.restore_interrupts,"ax",@progbits
  39              		.align	1
  40              		.globl	restore_interrupts
  42              	restore_interrupts:
  43              	.LFB21:
  44:../src/platform/mpfs_hal/common/mss_util.c ****     write_csr(mstatus, saved_psr);
  44              		.loc 1 44 45 is_stmt 1
  45              		.cfi_startproc
  46              	.LVL1:
  45:../src/platform/mpfs_hal/common/mss_util.c **** }
  47              		.loc 1 45 5
  48              	 #APP
  49              	# 45 "../src/platform/mpfs_hal/common/mss_util.c" 1
  46:../src/platform/mpfs_hal/common/mss_util.c **** 
  50              		csrw mstatus, a0
  51              	# 0 "" 2
  52              		.loc 1 46 1 is_stmt 0
  53              	 #NO_APP
  54 0004 8280     		ret
  55              		.cfi_endproc
  56              	.LFE21:
  58              		.section	.text.__disable_irq,"ax",@progbits
  59              		.align	1
  60              		.globl	__disable_irq
  62              	__disable_irq:
  63              	.LFB22:
  52:../src/platform/mpfs_hal/common/mss_util.c ****     clear_csr(mstatus, MSTATUS_MIE);
  64              		.loc 1 52 1 is_stmt 1
  65              		.cfi_startproc
  53:../src/platform/mpfs_hal/common/mss_util.c ****     clear_csr(mstatus, MSTATUS_MPIE);
  66              		.loc 1 53 5
  67              	.LBB15:
  53:../src/platform/mpfs_hal/common/mss_util.c ****     clear_csr(mstatus, MSTATUS_MPIE);
  68              		.loc 1 53 5
  53:../src/platform/mpfs_hal/common/mss_util.c ****     clear_csr(mstatus, MSTATUS_MPIE);
  69              		.loc 1 53 5
  70              	 #APP
  71              	# 53 "../src/platform/mpfs_hal/common/mss_util.c" 1
  72              		csrrc a5, mstatus, 8
  73              	# 0 "" 2
  74              	.LVL2:
  53:../src/platform/mpfs_hal/common/mss_util.c ****     clear_csr(mstatus, MSTATUS_MPIE);
  75              		.loc 1 53 5
  76              	 #NO_APP
  77              	.LBE15:
  54:../src/platform/mpfs_hal/common/mss_util.c **** }
  78              		.loc 1 54 5
  79              	.LBB16:
  54:../src/platform/mpfs_hal/common/mss_util.c **** }
  80              		.loc 1 54 5
  54:../src/platform/mpfs_hal/common/mss_util.c **** }
  81              		.loc 1 54 5
  82 0004 93070008 		li	a5,128
  83              	 #APP
  84              	# 54 "../src/platform/mpfs_hal/common/mss_util.c" 1
  85              		csrrc a5, mstatus, a5
  86              	# 0 "" 2
  87              	.LVL3:
  54:../src/platform/mpfs_hal/common/mss_util.c **** }
  88              		.loc 1 54 5
  89              	 #NO_APP
  90              	.LBE16:
  55:../src/platform/mpfs_hal/common/mss_util.c **** 
  91              		.loc 1 55 1 is_stmt 0
  92 000c 8280     		ret
  93              		.cfi_endproc
  94              	.LFE22:
  96              		.section	.text.disable_interrupts,"ax",@progbits
  97              		.align	1
  98              		.globl	disable_interrupts
 100              	disable_interrupts:
 101              	.LFB20:
  34:../src/platform/mpfs_hal/common/mss_util.c ****     uint64_t psr;
 102              		.loc 1 34 35 is_stmt 1
 103              		.cfi_startproc
  35:../src/platform/mpfs_hal/common/mss_util.c ****     psr = read_csr(mstatus);
 104              		.loc 1 35 5
  36:../src/platform/mpfs_hal/common/mss_util.c ****     __disable_irq();
 105              		.loc 1 36 5
 106              	.LBB17:
  36:../src/platform/mpfs_hal/common/mss_util.c ****     __disable_irq();
 107              		.loc 1 36 11
  36:../src/platform/mpfs_hal/common/mss_util.c ****     __disable_irq();
 108              		.loc 1 36 11
 109              	.LBE17:
  34:../src/platform/mpfs_hal/common/mss_util.c ****     uint64_t psr;
 110              		.loc 1 34 35 is_stmt 0
 111 0000 0111     		addi	sp,sp,-32
 112              		.cfi_def_cfa_offset 32
 113 0002 06EC     		sd	ra,24(sp)
 114              		.cfi_offset 1, -8
 115              	.LBB18:
  36:../src/platform/mpfs_hal/common/mss_util.c ****     __disable_irq();
 116              		.loc 1 36 11
 117              	 #APP
 118              	# 36 "../src/platform/mpfs_hal/common/mss_util.c" 1
 119              		csrr a0, mstatus
 120              	# 0 "" 2
 121              	 #NO_APP
 122 0008 2AE4     		sd	a0,8(sp)
 123              	.LVL4:
  36:../src/platform/mpfs_hal/common/mss_util.c ****     __disable_irq();
 124              		.loc 1 36 11 is_stmt 1
 125              	.LBE18:
  37:../src/platform/mpfs_hal/common/mss_util.c ****     return(psr);
 126              		.loc 1 37 5
 127 000a 97000000 		call	__disable_irq
 127      E7800000 
 128              	.LVL5:
  38:../src/platform/mpfs_hal/common/mss_util.c **** }
 129              		.loc 1 38 5
  39:../src/platform/mpfs_hal/common/mss_util.c **** 
 130              		.loc 1 39 1 is_stmt 0
 131 0012 E260     		ld	ra,24(sp)
 132              		.cfi_restore 1
 133 0014 2265     		ld	a0,8(sp)
 134 0016 0561     		addi	sp,sp,32
 135              		.cfi_def_cfa_offset 0
 136              	.LVL6:
 137 0018 8280     		jr	ra
 138              		.cfi_endproc
 139              	.LFE20:
 141              		.section	.text.__disable_all_irqs,"ax",@progbits
 142              		.align	1
 143              		.globl	__disable_all_irqs
 145              	__disable_all_irqs:
 146              	.LFB23:
  58:../src/platform/mpfs_hal/common/mss_util.c ****     __disable_irq();
 147              		.loc 1 58 1 is_stmt 1
 148              		.cfi_startproc
  59:../src/platform/mpfs_hal/common/mss_util.c ****     write_csr(mie, 0x00U);
 149              		.loc 1 59 5
  58:../src/platform/mpfs_hal/common/mss_util.c ****     __disable_irq();
 150              		.loc 1 58 1 is_stmt 0
 151 0000 4111     		addi	sp,sp,-16
 152              		.cfi_def_cfa_offset 16
 153 0002 06E4     		sd	ra,8(sp)
 154              		.cfi_offset 1, -8
  59:../src/platform/mpfs_hal/common/mss_util.c ****     write_csr(mie, 0x00U);
 155              		.loc 1 59 5
 156 0004 97000000 		call	__disable_irq
 156      E7800000 
 157              	.LVL7:
  60:../src/platform/mpfs_hal/common/mss_util.c ****     write_csr(mip, 0x00);
 158              		.loc 1 60 5 is_stmt 1
 159              	 #APP
 160              	# 60 "../src/platform/mpfs_hal/common/mss_util.c" 1
  61:../src/platform/mpfs_hal/common/mss_util.c **** }
 161              		csrw mie, 0
 162              	# 0 "" 2
 163              		.loc 1 61 5
 164              	# 61 "../src/platform/mpfs_hal/common/mss_util.c" 1
  62:../src/platform/mpfs_hal/common/mss_util.c **** 
 165              		csrw mip, 0
 166              	# 0 "" 2
 167              		.loc 1 62 1 is_stmt 0
 168              	 #NO_APP
 169 0014 A260     		ld	ra,8(sp)
 170              		.cfi_restore 1
 171 0016 4101     		addi	sp,sp,16
 172              		.cfi_def_cfa_offset 0
 173 0018 8280     		jr	ra
 174              		.cfi_endproc
 175              	.LFE23:
 177              		.section	.text.__enable_irq,"ax",@progbits
 178              		.align	1
 179              		.globl	__enable_irq
 181              	__enable_irq:
 182              	.LFB36:
 183              		.cfi_startproc
 184              	 #APP
 185              	# 69 "../src/platform/mpfs_hal/common/mss_util.c" 1
 186              		csrrs a5, mstatus, 8
 187              	# 0 "" 2
 188              	 #NO_APP
 189 0004 8280     		ret
 190              		.cfi_endproc
 191              	.LFE36:
 193              		.section	.text.__enable_local_irq,"ax",@progbits
 194              		.align	1
 195              		.globl	__enable_local_irq
 197              	__enable_local_irq:
 198              	.LFB25:
  71:../src/platform/mpfs_hal/common/mss_util.c **** 
  72:../src/platform/mpfs_hal/common/mss_util.c **** /*------------------------------------------------------------------------------
  73:../src/platform/mpfs_hal/common/mss_util.c ****  * Enable particular local interrupt
  74:../src/platform/mpfs_hal/common/mss_util.c ****  */
  75:../src/platform/mpfs_hal/common/mss_util.c **** void __enable_local_irq(uint8_t local_interrupt)
  76:../src/platform/mpfs_hal/common/mss_util.c **** {
 199              		.loc 1 76 1 is_stmt 1
 200              		.cfi_startproc
 201              	.LVL8:
  77:../src/platform/mpfs_hal/common/mss_util.c ****     ASSERT(local_interrupt > (int8_t)0);
 202              		.loc 1 77 5
 203              		.loc 1 77 5
 204 0000 19E1     		bne	a0,zero,.L10
 205              	.L16:
  78:../src/platform/mpfs_hal/common/mss_util.c ****     ASSERT( (local_interrupt <= LOCAL_INT_MAX));
 206              		.loc 1 78 5 discriminator 1
 207              	 #APP
 208              	# 78 "../src/platform/mpfs_hal/common/mss_util.c" 1
  79              	
 209              		ebreak
 210              	# 0 "" 2
 211              	 #NO_APP
 212 0004 29A0     		j	.L11
 213              	.L10:
  77:../src/platform/mpfs_hal/common/mss_util.c ****     ASSERT(local_interrupt > (int8_t)0);
 214              		.loc 1 77 40 discriminator 3
  78:../src/platform/mpfs_hal/common/mss_util.c ****     ASSERT( (local_interrupt <= LOCAL_INT_MAX));
 215              		.loc 1 78 5 discriminator 3
  78:../src/platform/mpfs_hal/common/mss_util.c ****     ASSERT( (local_interrupt <= LOCAL_INT_MAX));
 216              		.loc 1 78 5 discriminator 3
 217 0006 9307F002 		li	a5,47
 218 000a E3ECA7FE 		bgtu	a0,a5,.L16
 219              	.L11:
  78:../src/platform/mpfs_hal/common/mss_util.c ****     ASSERT( (local_interrupt <= LOCAL_INT_MAX));
 220              		.loc 1 78 48 discriminator 3
  80:../src/platform/mpfs_hal/common/mss_util.c ****     uint8_t mhart_id = (uint8_t)read_csr(mhartid);
 221              		.loc 1 80 5 discriminator 3
 222              	.LBB19:
 223              		.loc 1 80 33 discriminator 3
 224              		.loc 1 80 33 discriminator 3
 225              	 #APP
 226              	# 80 "../src/platform/mpfs_hal/common/mss_util.c" 1
  81              	
 227              		csrr a5, mhartid
 228              	# 0 "" 2
 229              	.LVL9:
  80:../src/platform/mpfs_hal/common/mss_util.c ****     uint8_t mhart_id = (uint8_t)read_csr(mhartid);
 230              		.loc 1 80 33 discriminator 3
 231              	 #NO_APP
 232              	.LBE19:
  82:../src/platform/mpfs_hal/common/mss_util.c ****     if((local_interrupt > (int8_t)0) && (local_interrupt <= LOCAL_INT_MAX))
 233              		.loc 1 82 5 discriminator 3
 234              		.loc 1 82 38 is_stmt 0 discriminator 3
 235 0012 1B07F5FF 		addiw	a4,a0,-1
 236              		.loc 1 82 7 discriminator 3
 237 0016 1377F70F 		andi	a4,a4,0xff
 238 001a 9306E002 		li	a3,46
 239 001e 63E4E608 		bgtu	a4,a3,.L9
  83:../src/platform/mpfs_hal/common/mss_util.c ****     {
  84:../src/platform/mpfs_hal/common/mss_util.c **** 
  85:../src/platform/mpfs_hal/common/mss_util.c ****         set_csr(mie, (0x1LLU << (int8_t)(local_interrupt + LOCAL_INT_OFFSET_IN_MIE)));  /* mie Regi
 240              		.loc 1 85 9 is_stmt 1
 241              	.LBB20:
 242              		.loc 1 85 9
 243              		.loc 1 85 9
 244 0022 1B070501 		addiw	a4,a0,16
 245 0026 8546     		li	a3,1
 246 0028 3397E600 		sll	a4,a3,a4
 247              	 #APP
 248              	# 85 "../src/platform/mpfs_hal/common/mss_util.c" 1
  86              	
 249              		csrrs a4, mie, a4
 250              	# 0 "" 2
 251              	.LVL10:
  85:../src/platform/mpfs_hal/common/mss_util.c ****         set_csr(mie, (0x1LLU << (int8_t)(local_interrupt + LOCAL_INT_OFFSET_IN_MIE)));  /* mie Regi
 252              		.loc 1 85 9
 253              	 #NO_APP
 254              	.LBE20:
  87:../src/platform/mpfs_hal/common/mss_util.c ****         /* Enable F2M interrupts as local instead of PLIC interrupts */
  88:../src/platform/mpfs_hal/common/mss_util.c ****         if (local_interrupt >= LOCAL_INT_F2M_OFFSET)
 255              		.loc 1 88 9
 256              		.loc 1 88 12 is_stmt 0
 257 0030 3D47     		li	a4,15
 258 0032 637AA706 		bleu	a0,a4,.L9
  80:../src/platform/mpfs_hal/common/mss_util.c **** 
 259              		.loc 1 80 13
 260 0036 93F7F70F 		andi	a5,a5,0xff
 261              	.LVL11:
  89:../src/platform/mpfs_hal/common/mss_util.c ****         {
  90:../src/platform/mpfs_hal/common/mss_util.c ****             if (mhart_id == 1)
 262              		.loc 1 90 13 is_stmt 1
 263              		.loc 1 90 16 is_stmt 0
 264 003a 639DD700 		bne	a5,a3,.L13
  91:../src/platform/mpfs_hal/common/mss_util.c ****             {
  92:../src/platform/mpfs_hal/common/mss_util.c ****                 SYSREG->FAB_INTEN_U54_1 |= (1u << (local_interrupt - LOCAL_INT_F2M_OFFSET));
 265              		.loc 1 92 17 is_stmt 1
 266              		.loc 1 92 41 is_stmt 0
 267 003e B7260020 		li	a3,536879104
 268 0042 BC42     		lw	a5,64(a3)
 269              	.LVL12:
 270              		.loc 1 92 68
 271 0044 4135     		addiw	a0,a0,-16
 272              	.LVL13:
 273              		.loc 1 92 48
 274 0046 0547     		li	a4,1
 275 0048 3B15A700 		sllw	a0,a4,a0
 276              		.loc 1 92 41
 277 004c C98F     		or	a5,a5,a0
 278 004e 8127     		sext.w	a5,a5
 279 0050 BCC2     		sw	a5,64(a3)
 280 0052 8280     		ret
 281              	.LVL14:
 282              	.L13:
  93:../src/platform/mpfs_hal/common/mss_util.c ****             }
  94:../src/platform/mpfs_hal/common/mss_util.c ****             else if (mhart_id == 2)
 283              		.loc 1 94 18 is_stmt 1
 284              		.loc 1 94 21 is_stmt 0
 285 0054 0947     		li	a4,2
 286 0056 639DE700 		bne	a5,a4,.L14
  95:../src/platform/mpfs_hal/common/mss_util.c ****             {
  96:../src/platform/mpfs_hal/common/mss_util.c ****                 SYSREG->FAB_INTEN_U54_2 |= (1u << (local_interrupt - LOCAL_INT_F2M_OFFSET));
 287              		.loc 1 96 17 is_stmt 1
 288              		.loc 1 96 41 is_stmt 0
 289 005a B7260020 		li	a3,536879104
 290 005e FC42     		lw	a5,68(a3)
 291              	.LVL15:
 292              		.loc 1 96 68
 293 0060 4135     		addiw	a0,a0,-16
 294              	.LVL16:
 295              		.loc 1 96 48
 296 0062 0547     		li	a4,1
 297 0064 3B15A700 		sllw	a0,a4,a0
 298              		.loc 1 96 41
 299 0068 C98F     		or	a5,a5,a0
 300 006a 8127     		sext.w	a5,a5
 301 006c FCC2     		sw	a5,68(a3)
 302 006e 8280     		ret
 303              	.LVL17:
 304              	.L14:
  97:../src/platform/mpfs_hal/common/mss_util.c ****             }
  98:../src/platform/mpfs_hal/common/mss_util.c ****             else if (mhart_id == 3)
 305              		.loc 1 98 18 is_stmt 1
 306              		.loc 1 98 21 is_stmt 0
 307 0070 0D47     		li	a4,3
 308 0072 639DE700 		bne	a5,a4,.L15
  99:../src/platform/mpfs_hal/common/mss_util.c ****             {
 100:../src/platform/mpfs_hal/common/mss_util.c ****                 SYSREG->FAB_INTEN_U54_3 |= (1u << (local_interrupt - LOCAL_INT_F2M_OFFSET));
 309              		.loc 1 100 17 is_stmt 1
 310              		.loc 1 100 41 is_stmt 0
 311 0076 B7260020 		li	a3,536879104
 312 007a BC46     		lw	a5,72(a3)
 313              	.LVL18:
 314              		.loc 1 100 68
 315 007c 4135     		addiw	a0,a0,-16
 316              	.LVL19:
 317              		.loc 1 100 48
 318 007e 0547     		li	a4,1
 319 0080 3B15A700 		sllw	a0,a4,a0
 320              		.loc 1 100 41
 321 0084 C98F     		or	a5,a5,a0
 322 0086 8127     		sext.w	a5,a5
 323 0088 BCC6     		sw	a5,72(a3)
 324 008a 8280     		ret
 325              	.LVL20:
 326              	.L15:
 101:../src/platform/mpfs_hal/common/mss_util.c ****             }
 102:../src/platform/mpfs_hal/common/mss_util.c ****             else if (mhart_id == 4)
 327              		.loc 1 102 18 is_stmt 1
 328              		.loc 1 102 21 is_stmt 0
 329 008c 1147     		li	a4,4
 330 008e 639CE700 		bne	a5,a4,.L9
 103:../src/platform/mpfs_hal/common/mss_util.c ****             {
 104:../src/platform/mpfs_hal/common/mss_util.c ****                 SYSREG->FAB_INTEN_U54_4 |= (1u << (local_interrupt - LOCAL_INT_F2M_OFFSET));
 331              		.loc 1 104 17 is_stmt 1
 332              		.loc 1 104 41 is_stmt 0
 333 0092 B7260020 		li	a3,536879104
 334 0096 FC46     		lw	a5,76(a3)
 335              	.LVL21:
 336              		.loc 1 104 68
 337 0098 4135     		addiw	a0,a0,-16
 338              	.LVL22:
 339              		.loc 1 104 48
 340 009a 0547     		li	a4,1
 341 009c 3B15A700 		sllw	a0,a4,a0
 342              		.loc 1 104 41
 343 00a0 C98F     		or	a5,a5,a0
 344 00a2 8127     		sext.w	a5,a5
 345 00a4 FCC6     		sw	a5,76(a3)
 346              	.L9:
 105:../src/platform/mpfs_hal/common/mss_util.c ****             }
 106:../src/platform/mpfs_hal/common/mss_util.c ****         }
 107:../src/platform/mpfs_hal/common/mss_util.c ****     }
 108:../src/platform/mpfs_hal/common/mss_util.c **** }
 347              		.loc 1 108 1
 348 00a6 8280     		ret
 349              		.cfi_endproc
 350              	.LFE25:
 352              		.section	.text.__disable_local_irq,"ax",@progbits
 353              		.align	1
 354              		.globl	__disable_local_irq
 356              	__disable_local_irq:
 357              	.LFB26:
 109:../src/platform/mpfs_hal/common/mss_util.c **** 
 110:../src/platform/mpfs_hal/common/mss_util.c **** /*------------------------------------------------------------------------------
 111:../src/platform/mpfs_hal/common/mss_util.c ****  * Disable particular local interrupt
 112:../src/platform/mpfs_hal/common/mss_util.c ****  */
 113:../src/platform/mpfs_hal/common/mss_util.c **** void __disable_local_irq(uint8_t local_interrupt)
 114:../src/platform/mpfs_hal/common/mss_util.c **** {
 358              		.loc 1 114 1 is_stmt 1
 359              		.cfi_startproc
 360              	.LVL23:
 115:../src/platform/mpfs_hal/common/mss_util.c ****     ASSERT(local_interrupt > (int8_t)0);
 361              		.loc 1 115 5
 362              		.loc 1 115 5
 363 0000 19E1     		bne	a0,zero,.L18
 364              	.L22:
 116:../src/platform/mpfs_hal/common/mss_util.c ****     ASSERT( (local_interrupt <= LOCAL_INT_MAX));
 365              		.loc 1 116 5 discriminator 1
 366              	 #APP
 367              	# 116 "../src/platform/mpfs_hal/common/mss_util.c" 1
 117              	
 368              		ebreak
 369              	# 0 "" 2
 370              	 #NO_APP
 371 0004 8280     		ret
 372              	.L18:
 115:../src/platform/mpfs_hal/common/mss_util.c ****     ASSERT(local_interrupt > (int8_t)0);
 373              		.loc 1 115 40 discriminator 3
 116:../src/platform/mpfs_hal/common/mss_util.c ****     ASSERT( (local_interrupt <= LOCAL_INT_MAX));
 374              		.loc 1 116 5 discriminator 3
 116:../src/platform/mpfs_hal/common/mss_util.c ****     ASSERT( (local_interrupt <= LOCAL_INT_MAX));
 375              		.loc 1 116 5 discriminator 3
 376 0006 9307F002 		li	a5,47
 377 000a E3ECA7FE 		bgtu	a0,a5,.L22
 116:../src/platform/mpfs_hal/common/mss_util.c ****     ASSERT( (local_interrupt <= LOCAL_INT_MAX));
 378              		.loc 1 116 48 discriminator 3
 118:../src/platform/mpfs_hal/common/mss_util.c ****     if((local_interrupt > (int8_t)0) && (local_interrupt <= LOCAL_INT_MAX))
 379              		.loc 1 118 5 discriminator 3
 119:../src/platform/mpfs_hal/common/mss_util.c ****     {
 120:../src/platform/mpfs_hal/common/mss_util.c ****         clear_csr(mie, (0x1LLU << (int8_t)(local_interrupt + LOCAL_INT_OFFSET_IN_MIE)));  /* mie Re
 380              		.loc 1 120 9 discriminator 3
 381              	.LBB21:
 382              		.loc 1 120 9 discriminator 3
 383              		.loc 1 120 9 discriminator 3
 384 000e 8547     		li	a5,1
 385 0010 4125     		addiw	a0,a0,16
 386              	.LVL24:
 387 0012 3395A700 		sll	a0,a5,a0
 388              	 #APP
 389              	# 120 "../src/platform/mpfs_hal/common/mss_util.c" 1
 121              	    }
 390              		csrrc a0, mie, a0
 391              	# 0 "" 2
 392              	.LVL25:
 120:../src/platform/mpfs_hal/common/mss_util.c ****         clear_csr(mie, (0x1LLU << (int8_t)(local_interrupt + LOCAL_INT_OFFSET_IN_MIE)));  /* mie Re
 393              		.loc 1 120 9 discriminator 3
 394              	 #NO_APP
 395              	.LBE21:
 122:../src/platform/mpfs_hal/common/mss_util.c **** }
 396              		.loc 1 122 1 is_stmt 0 discriminator 3
 397 001a 8280     		ret
 398              		.cfi_endproc
 399              	.LFE26:
 401              		.section	.text.readmcycle,"ax",@progbits
 402              		.align	1
 403              		.globl	readmcycle
 405              	readmcycle:
 406              	.LFB27:
 123:../src/platform/mpfs_hal/common/mss_util.c **** 
 124:../src/platform/mpfs_hal/common/mss_util.c **** /**
 125:../src/platform/mpfs_hal/common/mss_util.c ****  * readmcycle(void)
 126:../src/platform/mpfs_hal/common/mss_util.c ****  * @return returns the mcycle count from hart CSR
 127:../src/platform/mpfs_hal/common/mss_util.c ****  */
 128:../src/platform/mpfs_hal/common/mss_util.c **** uint64_t readmcycle(void)
 129:../src/platform/mpfs_hal/common/mss_util.c **** {
 407              		.loc 1 129 1 is_stmt 1
 408              		.cfi_startproc
 130:../src/platform/mpfs_hal/common/mss_util.c ****     return (read_csr(mcycle));
 409              		.loc 1 130 5
 410              	.LBB22:
 411              		.loc 1 130 13
 412              		.loc 1 130 13
 413              	 #APP
 414              	# 130 "../src/platform/mpfs_hal/common/mss_util.c" 1
 131              	}
 415              		csrr a0, mcycle
 416              	# 0 "" 2
 417              	.LVL26:
 130:../src/platform/mpfs_hal/common/mss_util.c ****     return (read_csr(mcycle));
 418              		.loc 1 130 13
 419              	 #NO_APP
 420              	.LBE22:
 421              		.loc 1 131 1 is_stmt 0
 422 0004 8280     		ret
 423              		.cfi_endproc
 424              	.LFE27:
 426              		.section	.text.sleep_ms,"ax",@progbits
 427              		.align	1
 428              		.globl	sleep_ms
 430              	sleep_ms:
 431              	.LFB28:
 132:../src/platform/mpfs_hal/common/mss_util.c **** 
 133:../src/platform/mpfs_hal/common/mss_util.c **** void sleep_ms(uint64_t msecs)
 134:../src/platform/mpfs_hal/common/mss_util.c **** {
 432              		.loc 1 134 1 is_stmt 1
 433              		.cfi_startproc
 434              	.LVL27:
 135:../src/platform/mpfs_hal/common/mss_util.c ****     uint64_t starttime = readmtime();
 435              		.loc 1 135 5
 134:../src/platform/mpfs_hal/common/mss_util.c ****     uint64_t starttime = readmtime();
 436              		.loc 1 134 1 is_stmt 0
 437 0000 0111     		addi	sp,sp,-32
 438              		.cfi_def_cfa_offset 32
 439 0002 22E8     		sd	s0,16(sp)
 440 0004 06EC     		sd	ra,24(sp)
 441              		.cfi_offset 8, -16
 442              		.cfi_offset 1, -8
 134:../src/platform/mpfs_hal/common/mss_util.c ****     uint64_t starttime = readmtime();
 443              		.loc 1 134 1
 444 0006 2A84     		mv	s0,a0
 445              		.loc 1 135 26
 446 0008 97000000 		call	readmtime
 446      E7800000 
 447              	.LVL28:
 136:../src/platform/mpfs_hal/common/mss_util.c ****     volatile uint64_t endtime = 0U;
 448              		.loc 1 136 5 is_stmt 1
 137:../src/platform/mpfs_hal/common/mss_util.c **** 
 138:../src/platform/mpfs_hal/common/mss_util.c ****     while(endtime < (starttime+msecs)) {
 449              		.loc 1 138 31 is_stmt 0
 450 0010 2A94     		add	s0,a0,s0
 451              	.LVL29:
 136:../src/platform/mpfs_hal/common/mss_util.c ****     volatile uint64_t endtime = 0U;
 452              		.loc 1 136 23
 453 0012 02E4     		sd	zero,8(sp)
 454              		.loc 1 138 5 is_stmt 1
 455              	.LVL30:
 456              	.L25:
 457              		.loc 1 138 19 is_stmt 0
 458 0014 A267     		ld	a5,8(sp)
 459              		.loc 1 138 10
 460 0016 63E68700 		bgtu	s0,a5,.L26
 139:../src/platform/mpfs_hal/common/mss_util.c ****         endtime = readmtime();
 140:../src/platform/mpfs_hal/common/mss_util.c ****     }
 141:../src/platform/mpfs_hal/common/mss_util.c **** }
 461              		.loc 1 141 1
 462 001a E260     		ld	ra,24(sp)
 463              		.cfi_remember_state
 464              		.cfi_restore 1
 465 001c 4264     		ld	s0,16(sp)
 466              		.cfi_restore 8
 467 001e 0561     		addi	sp,sp,32
 468              		.cfi_def_cfa_offset 0
 469 0020 8280     		jr	ra
 470              	.L26:
 471              		.cfi_restore_state
 139:../src/platform/mpfs_hal/common/mss_util.c ****         endtime = readmtime();
 472              		.loc 1 139 9 is_stmt 1
 139:../src/platform/mpfs_hal/common/mss_util.c ****         endtime = readmtime();
 473              		.loc 1 139 19 is_stmt 0
 474 0022 97000000 		call	readmtime
 474      E7800000 
 475              	.LVL31:
 139:../src/platform/mpfs_hal/common/mss_util.c ****         endtime = readmtime();
 476              		.loc 1 139 17
 477 002a 2AE4     		sd	a0,8(sp)
 478 002c E5B7     		j	.L25
 479              		.cfi_endproc
 480              	.LFE28:
 482              		.section	.text.sleep_cycles,"ax",@progbits
 483              		.align	1
 484              		.globl	sleep_cycles
 486              	sleep_cycles:
 487              	.LFB29:
 142:../src/platform/mpfs_hal/common/mss_util.c **** 
 143:../src/platform/mpfs_hal/common/mss_util.c **** /**
 144:../src/platform/mpfs_hal/common/mss_util.c ****  * sleep_cycles(uint64_t ncycles)
 145:../src/platform/mpfs_hal/common/mss_util.c ****  * @param number of cycles to sleep
 146:../src/platform/mpfs_hal/common/mss_util.c ****  */
 147:../src/platform/mpfs_hal/common/mss_util.c **** void sleep_cycles(uint64_t ncycles)
 148:../src/platform/mpfs_hal/common/mss_util.c **** {
 488              		.loc 1 148 1 is_stmt 1
 489              		.cfi_startproc
 490              	.LVL32:
 149:../src/platform/mpfs_hal/common/mss_util.c ****     uint64_t starttime = readmcycle();
 491              		.loc 1 149 5
 130:../src/platform/mpfs_hal/common/mss_util.c **** }
 492              		.loc 1 130 5
 493              	.LBB23:
 494              	.LBB24:
 130:../src/platform/mpfs_hal/common/mss_util.c **** }
 495              		.loc 1 130 13
 130:../src/platform/mpfs_hal/common/mss_util.c **** }
 496              		.loc 1 130 13
 497              	.LBE24:
 498              	.LBE23:
 148:../src/platform/mpfs_hal/common/mss_util.c ****     uint64_t starttime = readmcycle();
 499              		.loc 1 148 1 is_stmt 0
 500 0000 4111     		addi	sp,sp,-16
 501              		.cfi_def_cfa_offset 16
 502              	.LBB26:
 503              	.LBB25:
 130:../src/platform/mpfs_hal/common/mss_util.c **** }
 504              		.loc 1 130 13
 505              	 #APP
 506              	# 130 "../src/platform/mpfs_hal/common/mss_util.c" 1
 507              		csrr a5, mcycle
 508              	# 0 "" 2
 509              	.LVL33:
 130:../src/platform/mpfs_hal/common/mss_util.c **** }
 510              		.loc 1 130 13 is_stmt 1
 511              	 #NO_APP
 512              	.LBE25:
 513              	.LBE26:
 150:../src/platform/mpfs_hal/common/mss_util.c ****     volatile uint64_t endtime = 0U;
 514              		.loc 1 150 5
 515              		.loc 1 150 23 is_stmt 0
 516 0006 02E4     		sd	zero,8(sp)
 151:../src/platform/mpfs_hal/common/mss_util.c **** 
 152:../src/platform/mpfs_hal/common/mss_util.c ****     while(endtime < (starttime + ncycles)) {
 517              		.loc 1 152 5 is_stmt 1
 518              		.loc 1 152 32 is_stmt 0
 519 0008 3E95     		add	a0,a0,a5
 520              	.LVL34:
 521              	.L29:
 522              		.loc 1 152 19
 523 000a A267     		ld	a5,8(sp)
 524              		.loc 1 152 10
 525 000c 63E4A700 		bgtu	a0,a5,.L30
 153:../src/platform/mpfs_hal/common/mss_util.c ****         endtime = readmcycle();
 154:../src/platform/mpfs_hal/common/mss_util.c ****     }
 155:../src/platform/mpfs_hal/common/mss_util.c **** }
 526              		.loc 1 155 1
 527 0010 4101     		addi	sp,sp,16
 528              		.cfi_remember_state
 529              		.cfi_def_cfa_offset 0
 530 0012 8280     		jr	ra
 531              	.L30:
 532              		.cfi_restore_state
 153:../src/platform/mpfs_hal/common/mss_util.c ****         endtime = readmcycle();
 533              		.loc 1 153 9 is_stmt 1
 130:../src/platform/mpfs_hal/common/mss_util.c **** }
 534              		.loc 1 130 5
 535              	.LBB27:
 536              	.LBB28:
 130:../src/platform/mpfs_hal/common/mss_util.c **** }
 537              		.loc 1 130 13
 130:../src/platform/mpfs_hal/common/mss_util.c **** }
 538              		.loc 1 130 13
 539              	 #APP
 540              	# 130 "../src/platform/mpfs_hal/common/mss_util.c" 1
 541              		csrr a5, mcycle
 542              	# 0 "" 2
 543              	.LVL35:
 130:../src/platform/mpfs_hal/common/mss_util.c **** }
 544              		.loc 1 130 13
 545              	 #NO_APP
 546              	.LBE28:
 547              	.LBE27:
 153:../src/platform/mpfs_hal/common/mss_util.c ****         endtime = readmcycle();
 548              		.loc 1 153 17 is_stmt 0
 549 0018 3EE4     		sd	a5,8(sp)
 550 001a C5BF     		j	.L29
 551              		.cfi_endproc
 552              	.LFE29:
 554              		.section	.text.get_program_counter,"ax",@progbits
 555 0000 01001300 		.align	4
 555      00001300 
 555      00001300 
 555      0000
 556              		.globl	get_program_counter
 558              	get_program_counter:
 559              	.LFB30:
 156:../src/platform/mpfs_hal/common/mss_util.c **** 
 157:../src/platform/mpfs_hal/common/mss_util.c **** /**
 158:../src/platform/mpfs_hal/common/mss_util.c ****  * get_program_counter(void)
 159:../src/platform/mpfs_hal/common/mss_util.c ****  * @return returns the program counter
 160:../src/platform/mpfs_hal/common/mss_util.c ****  */
 161:../src/platform/mpfs_hal/common/mss_util.c **** __attribute__((aligned(16))) uint64_t get_program_counter(void)
 162:../src/platform/mpfs_hal/common/mss_util.c **** {
 560              		.loc 1 162 1 is_stmt 1
 561              		.cfi_startproc
 163:../src/platform/mpfs_hal/common/mss_util.c ****     uint64_t prog_counter;
 562              		.loc 1 163 5
 164:../src/platform/mpfs_hal/common/mss_util.c ****     asm volatile ("auipc %0, 0" : "=r"(prog_counter));
 563              		.loc 1 164 5
 564              	 #APP
 565              	# 164 "../src/platform/mpfs_hal/common/mss_util.c" 1
 165              	    return (prog_counter);
 566              		auipc a0, 0
 567              	# 0 "" 2
 568              	.LVL36:
 569              		.loc 1 165 5
 166:../src/platform/mpfs_hal/common/mss_util.c **** }
 570              		.loc 1 166 1 is_stmt 0
 571              	 #NO_APP
 572 0012 8280     		ret
 573              		.cfi_endproc
 574              	.LFE30:
 576 0014 00000000 		.section	.text.get_stack_pointer,"ax",@progbits
 576      00000000 
 576      00000000 
 577              		.align	1
 578              		.globl	get_stack_pointer
 580              	get_stack_pointer:
 581              	.LFB31:
 167:../src/platform/mpfs_hal/common/mss_util.c **** 
 168:../src/platform/mpfs_hal/common/mss_util.c **** /**
 169:../src/platform/mpfs_hal/common/mss_util.c ****  * get_stack_pointer(void)
 170:../src/platform/mpfs_hal/common/mss_util.c ****  * @return Return the stack pointer
 171:../src/platform/mpfs_hal/common/mss_util.c ****  */
 172:../src/platform/mpfs_hal/common/mss_util.c **** uint64_t get_stack_pointer(void)
 173:../src/platform/mpfs_hal/common/mss_util.c **** {
 582              		.loc 1 173 1 is_stmt 1
 583              		.cfi_startproc
 174:../src/platform/mpfs_hal/common/mss_util.c ****     uint64_t stack_pointer;
 584              		.loc 1 174 5
 175:../src/platform/mpfs_hal/common/mss_util.c ****     asm volatile ("addi %0, sp, 0" : "=r"(stack_pointer));
 585              		.loc 1 175 5
 586              	 #APP
 587              	# 175 "../src/platform/mpfs_hal/common/mss_util.c" 1
 176              	    return (stack_pointer);
 588              		addi a0, sp, 0
 589              	# 0 "" 2
 590              	.LVL37:
 591              		.loc 1 176 5
 177:../src/platform/mpfs_hal/common/mss_util.c **** }
 592              		.loc 1 177 1 is_stmt 0
 593              	 #NO_APP
 594 0004 8280     		ret
 595              		.cfi_endproc
 596              	.LFE31:
 598              		.section	.text.get_tp_reg,"ax",@progbits
 599              		.align	1
 600              		.globl	get_tp_reg
 602              	get_tp_reg:
 603              	.LFB32:
 178:../src/platform/mpfs_hal/common/mss_util.c **** 
 179:../src/platform/mpfs_hal/common/mss_util.c **** /**
 180:../src/platform/mpfs_hal/common/mss_util.c ****  * Return the tp register
 181:../src/platform/mpfs_hal/common/mss_util.c ****  * The tp register holds the value of the Hart Common memory HLS once not in an
 182:../src/platform/mpfs_hal/common/mss_util.c ****  * interrupt. If the tp value is used in an interrupt, it is saved first and
 183:../src/platform/mpfs_hal/common/mss_util.c ****  * restored on exit. This conforms to OpenSBI implementation.
 184:../src/platform/mpfs_hal/common/mss_util.c ****  *
 185:../src/platform/mpfs_hal/common/mss_util.c ****  * @return returns the tp register value
 186:../src/platform/mpfs_hal/common/mss_util.c ****  */
 187:../src/platform/mpfs_hal/common/mss_util.c **** uint64_t get_tp_reg(void)
 188:../src/platform/mpfs_hal/common/mss_util.c **** {
 604              		.loc 1 188 1 is_stmt 1
 605              		.cfi_startproc
 189:../src/platform/mpfs_hal/common/mss_util.c ****     uint64_t tp_reg_val;
 606              		.loc 1 189 5
 190:../src/platform/mpfs_hal/common/mss_util.c ****     asm volatile ("addi %0, tp, 0" : "=r"(tp_reg_val));
 607              		.loc 1 190 5
 608              	 #APP
 609              	# 190 "../src/platform/mpfs_hal/common/mss_util.c" 1
 191              	    return (tp_reg_val);
 610              		addi a0, tp, 0
 611              	# 0 "" 2
 612              	.LVL38:
 613              		.loc 1 191 5
 192:../src/platform/mpfs_hal/common/mss_util.c **** }
 614              		.loc 1 192 1 is_stmt 0
 615              	 #NO_APP
 616 0004 8280     		ret
 617              		.cfi_endproc
 618              	.LFE32:
 620              		.section	.text.disable_branch_prediction,"ax",@progbits
 621              		.align	1
 622              		.globl	disable_branch_prediction
 624              	disable_branch_prediction:
 625              	.LFB33:
 193:../src/platform/mpfs_hal/common/mss_util.c **** 
 194:../src/platform/mpfs_hal/common/mss_util.c **** #ifdef PRINTF_DEBUG_SUPPORTED
 195:../src/platform/mpfs_hal/common/mss_util.c **** void display_address_of_interest(uint64_t * address_of_interest, int nb_locations) {
 196:../src/platform/mpfs_hal/common/mss_util.c ****   uint64_t * p_addr_of_interest = address_of_interest;
 197:../src/platform/mpfs_hal/common/mss_util.c ****   int inc;
 198:../src/platform/mpfs_hal/common/mss_util.c ****   mpfs_printf(" Displaying address of interest: 0x%lx\n", p_addr_of_interest);
 199:../src/platform/mpfs_hal/common/mss_util.c **** 
 200:../src/platform/mpfs_hal/common/mss_util.c ****   for (inc = 0U; inc < nb_locations; ++inc) {
 201:../src/platform/mpfs_hal/common/mss_util.c ****     mpfs_printf("  address of interest: 0x%lx: 0x%lx\n", p_addr_of_interest, *p_addr_of_interest);
 202:../src/platform/mpfs_hal/common/mss_util.c ****     p_addr_of_interest = p_addr_of_interest + 8;
 203:../src/platform/mpfs_hal/common/mss_util.c ****   }
 204:../src/platform/mpfs_hal/common/mss_util.c **** }
 205:../src/platform/mpfs_hal/common/mss_util.c **** #endif
 206:../src/platform/mpfs_hal/common/mss_util.c **** 
 207:../src/platform/mpfs_hal/common/mss_util.c **** /*------------------------------------------------------------------------------
 208:../src/platform/mpfs_hal/common/mss_util.c ****  * This function disables dynamic branch prediction on the hart from which it
 209:../src/platform/mpfs_hal/common/mss_util.c ****  * executes. It is enabled by default.
 210:../src/platform/mpfs_hal/common/mss_util.c ****  */
 211:../src/platform/mpfs_hal/common/mss_util.c **** void disable_branch_prediction(void)
 212:../src/platform/mpfs_hal/common/mss_util.c **** {
 626              		.loc 1 212 1 is_stmt 1
 627              		.cfi_startproc
 213:../src/platform/mpfs_hal/common/mss_util.c ****     write_csr(0x7C0, 0x1u);
 628              		.loc 1 213 5
 629              	 #APP
 630              	# 213 "../src/platform/mpfs_hal/common/mss_util.c" 1
 214              	}
 631              		csrw 0x7C0, 1
 632              	# 0 "" 2
 633              		.loc 1 214 1 is_stmt 0
 634              	 #NO_APP
 635 0004 8280     		ret
 636              		.cfi_endproc
 637              	.LFE33:
 639              		.section	.text.enable_branch_prediction,"ax",@progbits
 640              		.align	1
 641              		.globl	enable_branch_prediction
 643              	enable_branch_prediction:
 644              	.LFB34:
 215:../src/platform/mpfs_hal/common/mss_util.c **** 
 216:../src/platform/mpfs_hal/common/mss_util.c **** /*------------------------------------------------------------------------------
 217:../src/platform/mpfs_hal/common/mss_util.c ****  * This function enables dynamic branch prediction on the hart from which it
 218:../src/platform/mpfs_hal/common/mss_util.c ****  * executes.
 219:../src/platform/mpfs_hal/common/mss_util.c ****  */
 220:../src/platform/mpfs_hal/common/mss_util.c **** void enable_branch_prediction(void)
 221:../src/platform/mpfs_hal/common/mss_util.c **** {
 645              		.loc 1 221 1 is_stmt 1
 646              		.cfi_startproc
 222:../src/platform/mpfs_hal/common/mss_util.c ****     write_csr(0x7C0, 0x0u);
 647              		.loc 1 222 5
 648              	 #APP
 649              	# 222 "../src/platform/mpfs_hal/common/mss_util.c" 1
 223              	}
 650              		csrw 0x7C0, 0
 651              	# 0 "" 2
 652              		.loc 1 223 1 is_stmt 0
 653              	 #NO_APP
 654 0004 8280     		ret
 655              		.cfi_endproc
 656              	.LFE34:
 658              		.text
 659              	.Letext0:
 660              		.file 2 "/home/vinay/Desktop/soft_console/SoftConsole-v2022.2-RISC-V-747/riscv-unknown-elf-gcc/ris
 661              		.file 3 "/home/vinay/Desktop/soft_console/SoftConsole-v2022.2-RISC-V-747/riscv-unknown-elf-gcc/ris
 662              		.file 4 "/home/vinay/Desktop/softconsole_watershed/Water-shed/src/platform/mpfs_hal/common/nwc/../
 663              		.file 5 "/home/vinay/Desktop/softconsole_watershed/Water-shed/src/platform/mpfs_hal/common/nwc/mss
 664              		.file 6 "/home/vinay/Desktop/softconsole_watershed/Water-shed/src/platform/mpfs_hal/common/nwc/mss
 665              		.file 7 "/home/vinay/Desktop/softconsole_watershed/Water-shed/src/platform/mpfs_hal/common/nwc/mss
 666              		.file 8 "/home/vinay/Desktop/softconsole_watershed/Water-shed/src/platform/mpfs_hal/common/mss_mpu
 667              		.file 9 "/home/vinay/Desktop/softconsole_watershed/Water-shed/src/platform/mpfs_hal/common/mss_pli
 668              		.file 10 "/home/vinay/Desktop/softconsole_watershed/Water-shed/src/platform/mpfs_hal/startup_gcc/s
 669              		.file 11 "/home/vinay/Desktop/softconsole_watershed/Water-shed/src/platform/mpfs_hal/common/mss_cl