   1              		.file	"mss_clint.c"
   2              		.option nopic
   3              		.attribute arch, "rv64i2p0_m2p0_a2p0_f2p0_d2p0_c2p0"
   4              		.attribute unaligned_access, 0
   5              		.attribute stack_align, 16
   6              		.text
   7              	.Ltext0:
   8              		.cfi_sections	.debug_frame
   9              		.section	.text.reset_mtime,"ax",@progbits
  10              		.align	1
  11              		.globl	reset_mtime
  13              	reset_mtime:
  14              	.LFB19:
  15              		.file 1 "../src/platform/mpfs_hal/common/mss_clint.c"
   1:../src/platform/mpfs_hal/common/mss_clint.c **** /*******************************************************************************
   2:../src/platform/mpfs_hal/common/mss_clint.c ****  * Copyright 2019-2022 Microchip FPGA Embedded Systems Solutions.
   3:../src/platform/mpfs_hal/common/mss_clint.c ****  *
   4:../src/platform/mpfs_hal/common/mss_clint.c ****  * SPDX-License-Identifier: MIT
   5:../src/platform/mpfs_hal/common/mss_clint.c ****  *
   6:../src/platform/mpfs_hal/common/mss_clint.c ****  * MPFS HAL Embedded Software
   7:../src/platform/mpfs_hal/common/mss_clint.c ****  *
   8:../src/platform/mpfs_hal/common/mss_clint.c ****  */
   9:../src/platform/mpfs_hal/common/mss_clint.c **** 
  10:../src/platform/mpfs_hal/common/mss_clint.c **** /*******************************************************************************
  11:../src/platform/mpfs_hal/common/mss_clint.c ****  *
  12:../src/platform/mpfs_hal/common/mss_clint.c ****  * @file mss_clint.c
  13:../src/platform/mpfs_hal/common/mss_clint.c ****  * @author Microchip-FPGA Embedded Systems Solutions
  14:../src/platform/mpfs_hal/common/mss_clint.c ****  * @brief CLINT access data structures and functions.
  15:../src/platform/mpfs_hal/common/mss_clint.c ****  *
  16:../src/platform/mpfs_hal/common/mss_clint.c ****  */
  17:../src/platform/mpfs_hal/common/mss_clint.c **** #include <stdint.h>
  18:../src/platform/mpfs_hal/common/mss_clint.c **** #include "mpfs_hal/mss_hal.h"
  19:../src/platform/mpfs_hal/common/mss_clint.c **** 
  20:../src/platform/mpfs_hal/common/mss_clint.c **** static uint64_t g_systick_increment[5] = {0ULL,0ULL,0ULL,0ULL,0ULL};
  21:../src/platform/mpfs_hal/common/mss_clint.c **** 
  22:../src/platform/mpfs_hal/common/mss_clint.c **** /**
  23:../src/platform/mpfs_hal/common/mss_clint.c ****  * call once at startup
  24:../src/platform/mpfs_hal/common/mss_clint.c ****  * @return
  25:../src/platform/mpfs_hal/common/mss_clint.c ****  */
  26:../src/platform/mpfs_hal/common/mss_clint.c **** void reset_mtime(void)
  27:../src/platform/mpfs_hal/common/mss_clint.c **** {
  16              		.loc 1 27 1
  17              		.cfi_startproc
  28:../src/platform/mpfs_hal/common/mss_clint.c **** #if ROLLOVER_TEST
  29:../src/platform/mpfs_hal/common/mss_clint.c ****     CLINT->MTIME = 0xFFFFFFFFFFFFF000ULL;
  30:../src/platform/mpfs_hal/common/mss_clint.c **** #else
  31:../src/platform/mpfs_hal/common/mss_clint.c ****     CLINT->MTIME = 0ULL;
  18              		.loc 1 31 5
  19              		.loc 1 31 18 is_stmt 0
  20 0000 B7C70002 		li	a5,33603584
  21 0004 23BC07FE 		sd	zero,-8(a5)
  32:../src/platform/mpfs_hal/common/mss_clint.c **** #endif
  33:../src/platform/mpfs_hal/common/mss_clint.c **** }
  22              		.loc 1 33 1
  23 0008 8280     		ret
  24              		.cfi_endproc
  25              	.LFE19:
  27              		.section	.text.readmtime,"ax",@progbits
  28              		.align	1
  29              		.globl	readmtime
  31              	readmtime:
  32              	.LFB20:
  34:../src/platform/mpfs_hal/common/mss_clint.c **** 
  35:../src/platform/mpfs_hal/common/mss_clint.c **** /**
  36:../src/platform/mpfs_hal/common/mss_clint.c ****  * readmtime
  37:../src/platform/mpfs_hal/common/mss_clint.c ****  * @return mtime
  38:../src/platform/mpfs_hal/common/mss_clint.c ****  */
  39:../src/platform/mpfs_hal/common/mss_clint.c **** uint64_t readmtime(void)
  40:../src/platform/mpfs_hal/common/mss_clint.c **** {
  33              		.loc 1 40 1 is_stmt 1
  34              		.cfi_startproc
  41:../src/platform/mpfs_hal/common/mss_clint.c ****     return (CLINT->MTIME);
  35              		.loc 1 41 5
  36              		.loc 1 41 18 is_stmt 0
  37 0000 B7C70002 		li	a5,33603584
  38 0004 03B587FF 		ld	a0,-8(a5)
  42:../src/platform/mpfs_hal/common/mss_clint.c **** }
  39              		.loc 1 42 1
  40 0008 8280     		ret
  41              		.cfi_endproc
  42              	.LFE20:
  44              		.section	.text.SysTick_Config,"ax",@progbits
  45              		.align	1
  46              		.globl	SysTick_Config
  48              	SysTick_Config:
  49              	.LFB21:
  43:../src/platform/mpfs_hal/common/mss_clint.c **** 
  44:../src/platform/mpfs_hal/common/mss_clint.c **** /**
  45:../src/platform/mpfs_hal/common/mss_clint.c ****  * Configure system tick
  46:../src/platform/mpfs_hal/common/mss_clint.c ****  * @return SUCCESS or FAIL
  47:../src/platform/mpfs_hal/common/mss_clint.c ****  */
  48:../src/platform/mpfs_hal/common/mss_clint.c **** uint32_t SysTick_Config(void)
  49:../src/platform/mpfs_hal/common/mss_clint.c **** {
  50              		.loc 1 49 1 is_stmt 1
  51              		.cfi_startproc
  50:../src/platform/mpfs_hal/common/mss_clint.c ****     const uint32_t tick_rate[5] = {HART0_TICK_RATE_MS,    HART1_TICK_RATE_MS    ,HART2_TICK_RATE_MS
  52              		.loc 1 50 5
  53              		.loc 1 50 20 is_stmt 0
  54 0000 E547     		li	a5,25
  55 0002 8A17     		slli	a5,a5,34
  49:../src/platform/mpfs_hal/common/mss_clint.c ****     const uint32_t tick_rate[5] = {HART0_TICK_RATE_MS,    HART1_TICK_RATE_MS    ,HART2_TICK_RATE_MS
  56              		.loc 1 49 1
  57 0004 7971     		addi	sp,sp,-48
  58              		.cfi_def_cfa_offset 48
  59              		.loc 1 50 20
  60 0006 1547     		li	a4,5
  61 0008 9507     		addi	a5,a5,5
  62 000a 3EE4     		sd	a5,8(sp)
  63 000c 93170702 		slli	a5,a4,32
  64 0010 9507     		addi	a5,a5,5
  65 0012 3EE8     		sd	a5,16(sp)
  51:../src/platform/mpfs_hal/common/mss_clint.c ****     volatile uint32_t ret_val = ERROR;
  66              		.loc 1 51 23
  67 0014 8547     		li	a5,1
  49:../src/platform/mpfs_hal/common/mss_clint.c ****     const uint32_t tick_rate[5] = {HART0_TICK_RATE_MS,    HART1_TICK_RATE_MS    ,HART2_TICK_RATE_MS
  68              		.loc 1 49 1
  69 0016 06F4     		sd	ra,40(sp)
  70              		.cfi_offset 1, -8
  50:../src/platform/mpfs_hal/common/mss_clint.c ****     const uint32_t tick_rate[5] = {HART0_TICK_RATE_MS,    HART1_TICK_RATE_MS    ,HART2_TICK_RATE_MS
  71              		.loc 1 50 20
  72 0018 3ACC     		sw	a4,24(sp)
  73              		.loc 1 51 5 is_stmt 1
  74              		.loc 1 51 23 is_stmt 0
  75 001a 3EC2     		sw	a5,4(sp)
  52:../src/platform/mpfs_hal/common/mss_clint.c **** 
  53:../src/platform/mpfs_hal/common/mss_clint.c ****     uint64_t mhart_id = read_csr(mhartid);
  76              		.loc 1 53 5 is_stmt 1
  77              	.LBB2:
  78              		.loc 1 53 25
  79              		.loc 1 53 25
  80              	 #APP
  81              	# 53 "../src/platform/mpfs_hal/common/mss_clint.c" 1
  54              	
  82              		csrr a4, mhartid
  83              	# 0 "" 2
  84              	.LVL0:
  53:../src/platform/mpfs_hal/common/mss_clint.c ****     uint64_t mhart_id = read_csr(mhartid);
  85              		.loc 1 53 25
  86              	 #NO_APP
  87              	.LBE2:
  55:../src/platform/mpfs_hal/common/mss_clint.c ****     /*
  56:../src/platform/mpfs_hal/common/mss_clint.c ****      * We are assuming the tick rate is in milli-seconds
  57:../src/platform/mpfs_hal/common/mss_clint.c ****      *
  58:../src/platform/mpfs_hal/common/mss_clint.c ****      * convert RTC frequency into milliseconds and multiple by the tick rate
  59:../src/platform/mpfs_hal/common/mss_clint.c ****      *
  60:../src/platform/mpfs_hal/common/mss_clint.c ****      */
  61:../src/platform/mpfs_hal/common/mss_clint.c **** 
  62:../src/platform/mpfs_hal/common/mss_clint.c ****     g_systick_increment[mhart_id] = ((LIBERO_SETTING_MSS_RTC_TOGGLE_CLK/1000U)  * tick_rate[mhart_i
  88              		.loc 1 62 5
  89              		.loc 1 62 92 is_stmt 0
  90 0020 1410     		addi	a3,sp,32
  91 0022 93172700 		slli	a5,a4,2
  92 0026 B697     		add	a5,a3,a5
  93              		.loc 1 62 81
  94 0028 83A687FE 		lw	a3,-24(a5)
  95 002c 9307803E 		li	a5,1000
  96              		.loc 1 62 35
  97 0030 93153700 		slli	a1,a4,3
  98              		.loc 1 62 81
  99 0034 BB87D702 		mulw	a5,a5,a3
 100              		.loc 1 62 35
 101 0038 97060000 		lla	a3,.LANCHOR0
 101      93860600 
 102 0040 AE96     		add	a3,a3,a1
 103              		.loc 1 62 81
 104 0042 1B860700 		sext.w	a2,a5
 105 0046 8217     		slli	a5,a5,32
 106 0048 8193     		srli	a5,a5,32
 107              		.loc 1 62 35
 108 004a 9CE2     		sd	a5,0(a3)
  63:../src/platform/mpfs_hal/common/mss_clint.c **** 
  64:../src/platform/mpfs_hal/common/mss_clint.c ****     if (g_systick_increment[mhart_id] > 0ULL)
 109              		.loc 1 64 5 is_stmt 1
 110              		.loc 1 64 8 is_stmt 0
 111 004c 05CA     		beq	a2,zero,.L4
  65:../src/platform/mpfs_hal/common/mss_clint.c ****     {
  66:../src/platform/mpfs_hal/common/mss_clint.c **** 
  67:../src/platform/mpfs_hal/common/mss_clint.c ****         CLINT->MTIMECMP[mhart_id] = CLINT->MTIME + g_systick_increment[mhart_id];
 112              		.loc 1 67 9 is_stmt 1
 113              		.loc 1 67 42 is_stmt 0
 114 004e B7C60002 		li	a3,33603584
 115 0052 83B686FF 		ld	a3,-8(a3)
 116              		.loc 1 67 50
 117 0056 B697     		add	a5,a5,a3
 118              		.loc 1 67 35
 119 0058 8566     		li	a3,4096
 120 005a 93860680 		addi	a3,a3,-2048
 121 005e 3697     		add	a4,a4,a3
 122              	.LVL1:
 123 0060 0E07     		slli	a4,a4,3
 124              	.LVL2:
 125 0062 B7060002 		li	a3,33554432
 126 0066 3697     		add	a4,a3,a4
 127 0068 1CE3     		sd	a5,0(a4)
  68:../src/platform/mpfs_hal/common/mss_clint.c **** 
  69:../src/platform/mpfs_hal/common/mss_clint.c ****         set_csr(mie, MIP_MTIP);   /* mie Register - Machine Timer Interrupt Enable */
 128              		.loc 1 69 9 is_stmt 1
 129              	.LBB3:
 130              		.loc 1 69 9
 131              		.loc 1 69 9
 132 006a 93070008 		li	a5,128
 133              	 #APP
 134              	# 69 "../src/platform/mpfs_hal/common/mss_clint.c" 1
  70              	
 135              		csrrs a5, mie, a5
 136              	# 0 "" 2
 137              	.LVL3:
  69:../src/platform/mpfs_hal/common/mss_clint.c ****         set_csr(mie, MIP_MTIP);   /* mie Register - Machine Timer Interrupt Enable */
 138              		.loc 1 69 9
 139              	 #NO_APP
 140              	.LBE3:
  71:../src/platform/mpfs_hal/common/mss_clint.c ****         __enable_irq();
 141              		.loc 1 71 9
 142 0072 97000000 		call	__enable_irq
 142      E7800000 
 143              	.LVL4:
  72:../src/platform/mpfs_hal/common/mss_clint.c **** 
  73:../src/platform/mpfs_hal/common/mss_clint.c ****         ret_val = SUCCESS;
 144              		.loc 1 73 9
 145              		.loc 1 73 17 is_stmt 0
 146 007a 02C2     		sw	zero,4(sp)
 147              	.L4:
  74:../src/platform/mpfs_hal/common/mss_clint.c ****     }
  75:../src/platform/mpfs_hal/common/mss_clint.c **** 
  76:../src/platform/mpfs_hal/common/mss_clint.c ****     return (ret_val);
 148              		.loc 1 76 5 is_stmt 1
 149              		.loc 1 76 12 is_stmt 0
 150 007c 1245     		lw	a0,4(sp)
  77:../src/platform/mpfs_hal/common/mss_clint.c **** }
 151              		.loc 1 77 1
 152 007e A270     		ld	ra,40(sp)
 153              		.cfi_restore 1
 154 0080 0125     		sext.w	a0,a0
 155 0082 4561     		addi	sp,sp,48
 156              		.cfi_def_cfa_offset 0
 157 0084 8280     		jr	ra
 158              		.cfi_endproc
 159              	.LFE21:
 161              		.section	.text.disable_systick,"ax",@progbits
 162              		.align	1
 163              		.globl	disable_systick
 165              	disable_systick:
 166              	.LFB22:
  78:../src/platform/mpfs_hal/common/mss_clint.c **** 
  79:../src/platform/mpfs_hal/common/mss_clint.c **** /**
  80:../src/platform/mpfs_hal/common/mss_clint.c ****  * Disable system tick interrupt
  81:../src/platform/mpfs_hal/common/mss_clint.c ****  */
  82:../src/platform/mpfs_hal/common/mss_clint.c **** void disable_systick(void)
  83:../src/platform/mpfs_hal/common/mss_clint.c **** {
 167              		.loc 1 83 1 is_stmt 1
 168              		.cfi_startproc
  84:../src/platform/mpfs_hal/common/mss_clint.c ****     clear_csr(mie, MIP_MTIP);   /* mie Register - Machine Timer Interrupt Enable */
 169              		.loc 1 84 5
 170              	.LBB4:
 171              		.loc 1 84 5
 172              		.loc 1 84 5
 173 0000 93070008 		li	a5,128
 174              	 #APP
 175              	# 84 "../src/platform/mpfs_hal/common/mss_clint.c" 1
  85              	    return;
 176              		csrrc a5, mie, a5
 177              	# 0 "" 2
 178              	.LVL5:
  84:../src/platform/mpfs_hal/common/mss_clint.c ****     clear_csr(mie, MIP_MTIP);   /* mie Register - Machine Timer Interrupt Enable */
 179              		.loc 1 84 5
 180              	 #NO_APP
 181              	.LBE4:
 182              		.loc 1 85 5
  86:../src/platform/mpfs_hal/common/mss_clint.c **** }
 183              		.loc 1 86 1 is_stmt 0
 184 0008 8280     		ret
 185              		.cfi_endproc
 186              	.LFE22:
 188              		.section	.text.handle_m_timer_interrupt,"ax",@progbits
 189              		.align	1
 190              		.globl	handle_m_timer_interrupt
 192              	handle_m_timer_interrupt:
 193              	.LFB23:
  87:../src/platform/mpfs_hal/common/mss_clint.c **** 
  88:../src/platform/mpfs_hal/common/mss_clint.c **** 
  89:../src/platform/mpfs_hal/common/mss_clint.c **** /*------------------------------------------------------------------------------
  90:../src/platform/mpfs_hal/common/mss_clint.c ****  * RISC-V interrupt handler for machine timer interrupts.
  91:../src/platform/mpfs_hal/common/mss_clint.c ****  */
  92:../src/platform/mpfs_hal/common/mss_clint.c **** void handle_m_timer_interrupt(void)
  93:../src/platform/mpfs_hal/common/mss_clint.c **** {
 194              		.loc 1 93 1 is_stmt 1
 195              		.cfi_startproc
  94:../src/platform/mpfs_hal/common/mss_clint.c **** 
  95:../src/platform/mpfs_hal/common/mss_clint.c ****     volatile uint64_t hart_id = read_csr(mhartid);
 196              		.loc 1 95 5
 197              	.LBB5:
 198              		.loc 1 95 33
 199              		.loc 1 95 33
 200              	.LBE5:
  93:../src/platform/mpfs_hal/common/mss_clint.c **** 
 201              		.loc 1 93 1 is_stmt 0
 202 0000 0111     		addi	sp,sp,-32
 203              		.cfi_def_cfa_offset 32
 204 0002 06EC     		sd	ra,24(sp)
 205              		.cfi_offset 1, -8
 206              	.LBB6:
 207              		.loc 1 95 33
 208              	 #APP
 209              	# 95 "../src/platform/mpfs_hal/common/mss_clint.c" 1
  96              	    volatile uint32_t error_loop;
 210              		csrr a5, mhartid
 211              	# 0 "" 2
 212              	.LVL6:
  95:../src/platform/mpfs_hal/common/mss_clint.c ****     volatile uint32_t error_loop;
 213              		.loc 1 95 33 is_stmt 1
 214              	 #NO_APP
 215              	.LBE6:
  95:../src/platform/mpfs_hal/common/mss_clint.c ****     volatile uint32_t error_loop;
 216              		.loc 1 95 23 is_stmt 0
 217 0008 3EE4     		sd	a5,8(sp)
 218              		.loc 1 96 5 is_stmt 1
  97:../src/platform/mpfs_hal/common/mss_clint.c ****     clear_csr(mie, MIP_MTIP);
 219              		.loc 1 97 5
 220              	.LBB7:
 221              		.loc 1 97 5
 222              		.loc 1 97 5
 223 000a 93070008 		li	a5,128
 224              	.LVL7:
 225              	 #APP
 226              	# 97 "../src/platform/mpfs_hal/common/mss_clint.c" 1
  98              	
 227              		csrrc a5, mie, a5
 228              	# 0 "" 2
 229              	.LVL8:
  97:../src/platform/mpfs_hal/common/mss_clint.c ****     clear_csr(mie, MIP_MTIP);
 230              		.loc 1 97 5
 231              	 #NO_APP
 232              	.LBE7:
  99:../src/platform/mpfs_hal/common/mss_clint.c ****     switch(hart_id)
 233              		.loc 1 99 5
 234 0012 A267     		ld	a5,8(sp)
 235 0014 1147     		li	a4,4
 236 0016 6366F708 		bgtu	a5,a4,.L11
 237 001a 17070000 		lla	a4,.L13
 237      13070700 
 238 0022 8A07     		slli	a5,a5,2
 239 0024 BA97     		add	a5,a5,a4
 240 0026 9C43     		lw	a5,0(a5)
 241 0028 BA97     		add	a5,a5,a4
 242 002a 8287     		jr	a5
 243              		.section	.rodata.handle_m_timer_interrupt,"a",@progbits
 244              		.align	2
 245              		.align	2
 246              	.L13:
 247 0000 00000000 		.word	.L17-.L13
 248 0004 00000000 		.word	.L16-.L13
 249 0008 00000000 		.word	.L15-.L13
 250 000c 00000000 		.word	.L14-.L13
 251 0010 00000000 		.word	.L12-.L13
 252              		.section	.text.handle_m_timer_interrupt
 253              	.L17:
 100:../src/platform/mpfs_hal/common/mss_clint.c ****     {
 101:../src/platform/mpfs_hal/common/mss_clint.c ****         case 0U:
 102:../src/platform/mpfs_hal/common/mss_clint.c ****             E51_sysTick_IRQHandler();
 254              		.loc 1 102 13
 255 002c 97000000 		call	E51_sysTick_IRQHandler
 255      E7800000 
 256              	.LVL9:
 103:../src/platform/mpfs_hal/common/mss_clint.c ****             break;
 257              		.loc 1 103 13
 258              	.L18:
 104:../src/platform/mpfs_hal/common/mss_clint.c ****         case 1U:
 105:../src/platform/mpfs_hal/common/mss_clint.c ****             U54_1_sysTick_IRQHandler();
 106:../src/platform/mpfs_hal/common/mss_clint.c ****             break;
 107:../src/platform/mpfs_hal/common/mss_clint.c ****         case 2U:
 108:../src/platform/mpfs_hal/common/mss_clint.c ****             U54_2_sysTick_IRQHandler();
 109:../src/platform/mpfs_hal/common/mss_clint.c ****             break;
 110:../src/platform/mpfs_hal/common/mss_clint.c ****         case 3U:
 111:../src/platform/mpfs_hal/common/mss_clint.c ****             U54_3_sysTick_IRQHandler();
 112:../src/platform/mpfs_hal/common/mss_clint.c ****             break;
 113:../src/platform/mpfs_hal/common/mss_clint.c ****         case 4U:
 114:../src/platform/mpfs_hal/common/mss_clint.c ****             U54_4_sysTick_IRQHandler();
 115:../src/platform/mpfs_hal/common/mss_clint.c ****             break;
 116:../src/platform/mpfs_hal/common/mss_clint.c ****         default:
 117:../src/platform/mpfs_hal/common/mss_clint.c ****             while (hart_id != 0U)
 118:../src/platform/mpfs_hal/common/mss_clint.c ****              {
 119:../src/platform/mpfs_hal/common/mss_clint.c ****                  error_loop++;
 120:../src/platform/mpfs_hal/common/mss_clint.c ****              }
 121:../src/platform/mpfs_hal/common/mss_clint.c ****             break;
 122:../src/platform/mpfs_hal/common/mss_clint.c ****     }
 123:../src/platform/mpfs_hal/common/mss_clint.c **** 
 124:../src/platform/mpfs_hal/common/mss_clint.c ****     CLINT->MTIMECMP[read_csr(mhartid)] = CLINT->MTIME + g_systick_increment[hart_id];
 259              		.loc 1 124 5
 260              		.loc 1 124 47 is_stmt 0
 261 0034 B7C70002 		li	a5,33603584
 262 0038 83B687FF 		ld	a3,-8(a5)
 263              		.loc 1 124 76
 264 003c 2267     		ld	a4,8(sp)
 265              	.LBB8:
 266              		.loc 1 124 21 is_stmt 1
 267              		.loc 1 124 21
 268              	 #APP
 269              	# 124 "../src/platform/mpfs_hal/common/mss_clint.c" 1
 125              	
 270              		csrr a5, mhartid
 271              	# 0 "" 2
 272              	.LVL10:
 124:../src/platform/mpfs_hal/common/mss_clint.c ****     CLINT->MTIMECMP[read_csr(mhartid)] = CLINT->MTIME + g_systick_increment[hart_id];
 273              		.loc 1 124 21
 274              	 #NO_APP
 275              	.LBE8:
 124:../src/platform/mpfs_hal/common/mss_clint.c ****     CLINT->MTIMECMP[read_csr(mhartid)] = CLINT->MTIME + g_systick_increment[hart_id];
 276              		.loc 1 124 76 is_stmt 0
 277 0042 13163700 		slli	a2,a4,3
 278 0046 17070000 		lla	a4,.LANCHOR0
 278      13070700 
 279 004e 3297     		add	a4,a4,a2
 124:../src/platform/mpfs_hal/common/mss_clint.c ****     CLINT->MTIMECMP[read_csr(mhartid)] = CLINT->MTIME + g_systick_increment[hart_id];
 280              		.loc 1 124 55
 281 0050 1863     		ld	a4,0(a4)
 282 0052 BA96     		add	a3,a3,a4
 124:../src/platform/mpfs_hal/common/mss_clint.c ****     CLINT->MTIMECMP[read_csr(mhartid)] = CLINT->MTIME + g_systick_increment[hart_id];
 283              		.loc 1 124 40
 284 0054 0567     		li	a4,4096
 285 0056 13070780 		addi	a4,a4,-2048
 286 005a BA97     		add	a5,a5,a4
 287              	.LVL11:
 288 005c 8E07     		slli	a5,a5,3
 289              	.LVL12:
 290 005e 37070002 		li	a4,33554432
 291 0062 BA97     		add	a5,a4,a5
 292 0064 94E3     		sd	a3,0(a5)
 126:../src/platform/mpfs_hal/common/mss_clint.c ****     set_csr(mie, MIP_MTIP);
 293              		.loc 1 126 5 is_stmt 1
 294              	.LBB9:
 295              		.loc 1 126 5
 296              		.loc 1 126 5
 297 0066 93070008 		li	a5,128
 298              	 #APP
 299              	# 126 "../src/platform/mpfs_hal/common/mss_clint.c" 1
 127              	
 300              		csrrs a5, mie, a5
 301              	# 0 "" 2
 302              	.LVL13:
 126:../src/platform/mpfs_hal/common/mss_clint.c ****     set_csr(mie, MIP_MTIP);
 303              		.loc 1 126 5
 304              	 #NO_APP
 305              	.LBE9:
 128:../src/platform/mpfs_hal/common/mss_clint.c **** }
 306              		.loc 1 128 1 is_stmt 0
 307 006e E260     		ld	ra,24(sp)
 308              		.cfi_remember_state
 309              		.cfi_restore 1
 310 0070 0561     		addi	sp,sp,32
 311              		.cfi_def_cfa_offset 0
 312 0072 8280     		jr	ra
 313              	.LVL14:
 314              	.L16:
 315              		.cfi_restore_state
 105:../src/platform/mpfs_hal/common/mss_clint.c ****             break;
 316              		.loc 1 105 13 is_stmt 1
 317 0074 97000000 		call	U54_1_sysTick_IRQHandler
 317      E7800000 
 318              	.LVL15:
 106:../src/platform/mpfs_hal/common/mss_clint.c ****         case 2U:
 319              		.loc 1 106 13
 320 007c 65BF     		j	.L18
 321              	.L15:
 108:../src/platform/mpfs_hal/common/mss_clint.c ****             break;
 322              		.loc 1 108 13
 323 007e 97000000 		call	U54_2_sysTick_IRQHandler
 323      E7800000 
 324              	.LVL16:
 109:../src/platform/mpfs_hal/common/mss_clint.c ****         case 3U:
 325              		.loc 1 109 13
 326 0086 7DB7     		j	.L18
 327              	.L14:
 111:../src/platform/mpfs_hal/common/mss_clint.c ****             break;
 328              		.loc 1 111 13
 329 0088 97000000 		call	U54_3_sysTick_IRQHandler
 329      E7800000 
 330              	.LVL17:
 112:../src/platform/mpfs_hal/common/mss_clint.c ****         case 4U:
 331              		.loc 1 112 13
 332 0090 55B7     		j	.L18
 333              	.L12:
 114:../src/platform/mpfs_hal/common/mss_clint.c ****             break;
 334              		.loc 1 114 13
 335 0092 97000000 		call	U54_4_sysTick_IRQHandler
 335      E7800000 
 336              	.LVL18:
 115:../src/platform/mpfs_hal/common/mss_clint.c ****         default:
 337              		.loc 1 115 13
 338 009a 69BF     		j	.L18
 339              	.LVL19:
 340              	.L19:
 119:../src/platform/mpfs_hal/common/mss_clint.c ****              }
 341              		.loc 1 119 18
 119:../src/platform/mpfs_hal/common/mss_clint.c ****              }
 342              		.loc 1 119 28 is_stmt 0
 343 009c 9247     		lw	a5,4(sp)
 344 009e 8527     		addiw	a5,a5,1
 345 00a0 3EC2     		sw	a5,4(sp)
 346              	.L11:
 117:../src/platform/mpfs_hal/common/mss_clint.c ****              {
 347              		.loc 1 117 28
 348 00a2 A267     		ld	a5,8(sp)
 117:../src/platform/mpfs_hal/common/mss_clint.c ****              {
 349              		.loc 1 117 19
 350 00a4 E5FF     		bne	a5,zero,.L19
 351 00a6 79B7     		j	.L18
 352              		.cfi_endproc
 353              	.LFE23:
 355              		.section	.text.handle_m_soft_interrupt,"ax",@progbits
 356              		.align	1
 357              		.globl	handle_m_soft_interrupt
 359              	handle_m_soft_interrupt:
 360              	.LFB24:
 129:../src/platform/mpfs_hal/common/mss_clint.c **** 
 130:../src/platform/mpfs_hal/common/mss_clint.c **** 
 131:../src/platform/mpfs_hal/common/mss_clint.c **** /**
 132:../src/platform/mpfs_hal/common/mss_clint.c ****  *
 133:../src/platform/mpfs_hal/common/mss_clint.c ****  */
 134:../src/platform/mpfs_hal/common/mss_clint.c **** void handle_m_soft_interrupt(void)
 135:../src/platform/mpfs_hal/common/mss_clint.c **** {
 361              		.loc 1 135 1 is_stmt 1
 362              		.cfi_startproc
 136:../src/platform/mpfs_hal/common/mss_clint.c ****     volatile uint64_t hart_id = read_csr(mhartid);
 363              		.loc 1 136 5
 364              	.LBB14:
 365              		.loc 1 136 33
 366              		.loc 1 136 33
 367              	.LBE14:
 135:../src/platform/mpfs_hal/common/mss_clint.c ****     volatile uint64_t hart_id = read_csr(mhartid);
 368              		.loc 1 135 1 is_stmt 0
 369 0000 0111     		addi	sp,sp,-32
 370              		.cfi_def_cfa_offset 32
 371 0002 06EC     		sd	ra,24(sp)
 372              		.cfi_offset 1, -8
 373              	.LBB15:
 374              		.loc 1 136 33
 375              	 #APP
 376              	# 136 "../src/platform/mpfs_hal/common/mss_clint.c" 1
 137              	    volatile uint32_t error_loop;
 377              		csrr a5, mhartid
 378              	# 0 "" 2
 379              	.LVL20:
 136:../src/platform/mpfs_hal/common/mss_clint.c ****     volatile uint64_t hart_id = read_csr(mhartid);
 380              		.loc 1 136 33 is_stmt 1
 381              	 #NO_APP
 382              	.LBE15:
 136:../src/platform/mpfs_hal/common/mss_clint.c ****     volatile uint64_t hart_id = read_csr(mhartid);
 383              		.loc 1 136 23 is_stmt 0
 384 0008 3EE4     		sd	a5,8(sp)
 385              		.loc 1 137 5 is_stmt 1
 138:../src/platform/mpfs_hal/common/mss_clint.c **** 
 139:../src/platform/mpfs_hal/common/mss_clint.c ****     switch(hart_id)
 386              		.loc 1 139 5
 387 000a A267     		ld	a5,8(sp)
 388              	.LVL21:
 389 000c 1147     		li	a4,4
 390 000e 6366F706 		bgtu	a5,a4,.L23
 391 0012 17070000 		lla	a4,.L25
 391      13070700 
 392 001a 8A07     		slli	a5,a5,2
 393 001c BA97     		add	a5,a5,a4
 394 001e 9C43     		lw	a5,0(a5)
 395 0020 BA97     		add	a5,a5,a4
 396 0022 8287     		jr	a5
 397              		.section	.rodata.handle_m_soft_interrupt,"a",@progbits
 398              		.align	2
 399              		.align	2
 400              	.L25:
 401 0000 00000000 		.word	.L29-.L25
 402 0004 00000000 		.word	.L28-.L25
 403 0008 00000000 		.word	.L27-.L25
 404 000c 00000000 		.word	.L26-.L25
 405 0010 00000000 		.word	.L24-.L25
 406              		.section	.text.handle_m_soft_interrupt
 407              	.L29:
 140:../src/platform/mpfs_hal/common/mss_clint.c ****     {
 141:../src/platform/mpfs_hal/common/mss_clint.c ****         case 0U:
 142:../src/platform/mpfs_hal/common/mss_clint.c ****             E51_software_IRQHandler();
 408              		.loc 1 142 13
 409 0024 97000000 		call	E51_software_IRQHandler
 409      E7800000 
 410              	.LVL22:
 143:../src/platform/mpfs_hal/common/mss_clint.c ****             break;
 411              		.loc 1 143 13
 412              	.L30:
 144:../src/platform/mpfs_hal/common/mss_clint.c ****         case 1U:
 145:../src/platform/mpfs_hal/common/mss_clint.c ****             U54_1_software_IRQHandler();
 146:../src/platform/mpfs_hal/common/mss_clint.c ****             break;
 147:../src/platform/mpfs_hal/common/mss_clint.c ****         case 2U:
 148:../src/platform/mpfs_hal/common/mss_clint.c ****             U54_2_software_IRQHandler();
 149:../src/platform/mpfs_hal/common/mss_clint.c ****             break;
 150:../src/platform/mpfs_hal/common/mss_clint.c ****         case 3U:
 151:../src/platform/mpfs_hal/common/mss_clint.c ****             U54_3_software_IRQHandler();
 152:../src/platform/mpfs_hal/common/mss_clint.c ****             break;
 153:../src/platform/mpfs_hal/common/mss_clint.c ****         case 4U:
 154:../src/platform/mpfs_hal/common/mss_clint.c ****             U54_4_software_IRQHandler();
 155:../src/platform/mpfs_hal/common/mss_clint.c ****             break;
 156:../src/platform/mpfs_hal/common/mss_clint.c ****         default:
 157:../src/platform/mpfs_hal/common/mss_clint.c ****             while (hart_id != 0U)
 158:../src/platform/mpfs_hal/common/mss_clint.c ****             {
 159:../src/platform/mpfs_hal/common/mss_clint.c ****                 error_loop++;
 160:../src/platform/mpfs_hal/common/mss_clint.c ****             }
 161:../src/platform/mpfs_hal/common/mss_clint.c ****             break;
 162:../src/platform/mpfs_hal/common/mss_clint.c ****     }
 163:../src/platform/mpfs_hal/common/mss_clint.c **** 
 164:../src/platform/mpfs_hal/common/mss_clint.c ****     /*Clear software interrupt*/
 165:../src/platform/mpfs_hal/common/mss_clint.c ****     clear_soft_interrupt();
 413              		.loc 1 165 5
 414              	.LBB16:
 415              	.LBB17:
 416              		.file 2 "/home/vinay/Desktop/softconsole_watershed/Water-shed/src/platform/mpfs_hal/common/mss_cli
   1:/home/vinay/Desktop/softconsole_watershed/Water-shed/src/platform/mpfs_hal/common/mss_clint.h **** /*******************************************************************************
   2:/home/vinay/Desktop/softconsole_watershed/Water-shed/src/platform/mpfs_hal/common/mss_clint.h ****  * Copyright 2019-2022 Microchip FPGA Embedded Systems Solutions.
   3:/home/vinay/Desktop/softconsole_watershed/Water-shed/src/platform/mpfs_hal/common/mss_clint.h ****  *
   4:/home/vinay/Desktop/softconsole_watershed/Water-shed/src/platform/mpfs_hal/common/mss_clint.h ****  * SPDX-License-Identifier: MIT
   5:/home/vinay/Desktop/softconsole_watershed/Water-shed/src/platform/mpfs_hal/common/mss_clint.h ****  *
   6:/home/vinay/Desktop/softconsole_watershed/Water-shed/src/platform/mpfs_hal/common/mss_clint.h ****  * MPFS HAL Embedded Software
   7:/home/vinay/Desktop/softconsole_watershed/Water-shed/src/platform/mpfs_hal/common/mss_clint.h ****  *
   8:/home/vinay/Desktop/softconsole_watershed/Water-shed/src/platform/mpfs_hal/common/mss_clint.h ****  */
   9:/home/vinay/Desktop/softconsole_watershed/Water-shed/src/platform/mpfs_hal/common/mss_clint.h **** 
  10:/home/vinay/Desktop/softconsole_watershed/Water-shed/src/platform/mpfs_hal/common/mss_clint.h **** /*******************************************************************************
  11:/home/vinay/Desktop/softconsole_watershed/Water-shed/src/platform/mpfs_hal/common/mss_clint.h ****  *
  12:/home/vinay/Desktop/softconsole_watershed/Water-shed/src/platform/mpfs_hal/common/mss_clint.h ****  * @file mss_clint.h
  13:/home/vinay/Desktop/softconsole_watershed/Water-shed/src/platform/mpfs_hal/common/mss_clint.h ****  * @author Microchip-FPGA Embedded Systems Solutions
  14:/home/vinay/Desktop/softconsole_watershed/Water-shed/src/platform/mpfs_hal/common/mss_clint.h ****  * @brief CLINT access data structures and functions.
  15:/home/vinay/Desktop/softconsole_watershed/Water-shed/src/platform/mpfs_hal/common/mss_clint.h ****  *
  16:/home/vinay/Desktop/softconsole_watershed/Water-shed/src/platform/mpfs_hal/common/mss_clint.h ****  */
  17:/home/vinay/Desktop/softconsole_watershed/Water-shed/src/platform/mpfs_hal/common/mss_clint.h **** #ifndef MSS_CLINT_H
  18:/home/vinay/Desktop/softconsole_watershed/Water-shed/src/platform/mpfs_hal/common/mss_clint.h **** #define MSS_CLINT_H
  19:/home/vinay/Desktop/softconsole_watershed/Water-shed/src/platform/mpfs_hal/common/mss_clint.h **** 
  20:/home/vinay/Desktop/softconsole_watershed/Water-shed/src/platform/mpfs_hal/common/mss_clint.h **** #include <stdint.h>
  21:/home/vinay/Desktop/softconsole_watershed/Water-shed/src/platform/mpfs_hal/common/mss_clint.h **** #include "encoding.h"
  22:/home/vinay/Desktop/softconsole_watershed/Water-shed/src/platform/mpfs_hal/common/mss_clint.h **** #include "atomic.h"
  23:/home/vinay/Desktop/softconsole_watershed/Water-shed/src/platform/mpfs_hal/common/mss_clint.h **** 
  24:/home/vinay/Desktop/softconsole_watershed/Water-shed/src/platform/mpfs_hal/common/mss_clint.h **** #ifdef __cplusplus
  25:/home/vinay/Desktop/softconsole_watershed/Water-shed/src/platform/mpfs_hal/common/mss_clint.h **** extern "C" {
  26:/home/vinay/Desktop/softconsole_watershed/Water-shed/src/platform/mpfs_hal/common/mss_clint.h **** #endif
  27:/home/vinay/Desktop/softconsole_watershed/Water-shed/src/platform/mpfs_hal/common/mss_clint.h **** 
  28:/home/vinay/Desktop/softconsole_watershed/Water-shed/src/platform/mpfs_hal/common/mss_clint.h **** #define RTC_PRESCALER 100U
  29:/home/vinay/Desktop/softconsole_watershed/Water-shed/src/platform/mpfs_hal/common/mss_clint.h **** #define SUCCESS 0U
  30:/home/vinay/Desktop/softconsole_watershed/Water-shed/src/platform/mpfs_hal/common/mss_clint.h **** #define ERROR   1U
  31:/home/vinay/Desktop/softconsole_watershed/Water-shed/src/platform/mpfs_hal/common/mss_clint.h **** 
  32:/home/vinay/Desktop/softconsole_watershed/Water-shed/src/platform/mpfs_hal/common/mss_clint.h **** 
  33:/home/vinay/Desktop/softconsole_watershed/Water-shed/src/platform/mpfs_hal/common/mss_clint.h **** /*==============================================================================
  34:/home/vinay/Desktop/softconsole_watershed/Water-shed/src/platform/mpfs_hal/common/mss_clint.h ****  * CLINT: Core Local Interrupter
  35:/home/vinay/Desktop/softconsole_watershed/Water-shed/src/platform/mpfs_hal/common/mss_clint.h ****  */
  36:/home/vinay/Desktop/softconsole_watershed/Water-shed/src/platform/mpfs_hal/common/mss_clint.h **** typedef struct CLINT_Type_t
  37:/home/vinay/Desktop/softconsole_watershed/Water-shed/src/platform/mpfs_hal/common/mss_clint.h **** {
  38:/home/vinay/Desktop/softconsole_watershed/Water-shed/src/platform/mpfs_hal/common/mss_clint.h ****     volatile uint32_t MSIP[5];
  39:/home/vinay/Desktop/softconsole_watershed/Water-shed/src/platform/mpfs_hal/common/mss_clint.h ****     volatile uint32_t reserved1[(0x4000U - 0x14U)/4U];
  40:/home/vinay/Desktop/softconsole_watershed/Water-shed/src/platform/mpfs_hal/common/mss_clint.h ****     volatile uint64_t MTIMECMP[5];  /* mtime compare value for each hart. When mtime equals this va
  41:/home/vinay/Desktop/softconsole_watershed/Water-shed/src/platform/mpfs_hal/common/mss_clint.h ****     volatile uint32_t reserved2[((0xbff8U - 0x4028U)/4U)];
  42:/home/vinay/Desktop/softconsole_watershed/Water-shed/src/platform/mpfs_hal/common/mss_clint.h ****     volatile uint64_t MTIME;    /* contains the current mtime value */
  43:/home/vinay/Desktop/softconsole_watershed/Water-shed/src/platform/mpfs_hal/common/mss_clint.h **** } CLINT_Type;
  44:/home/vinay/Desktop/softconsole_watershed/Water-shed/src/platform/mpfs_hal/common/mss_clint.h **** 
  45:/home/vinay/Desktop/softconsole_watershed/Water-shed/src/platform/mpfs_hal/common/mss_clint.h **** #define CLINT    ((CLINT_Type *)CLINT_BASE)
  46:/home/vinay/Desktop/softconsole_watershed/Water-shed/src/platform/mpfs_hal/common/mss_clint.h **** 
  47:/home/vinay/Desktop/softconsole_watershed/Water-shed/src/platform/mpfs_hal/common/mss_clint.h **** 
  48:/home/vinay/Desktop/softconsole_watershed/Water-shed/src/platform/mpfs_hal/common/mss_clint.h **** /*==============================================================================
  49:/home/vinay/Desktop/softconsole_watershed/Water-shed/src/platform/mpfs_hal/common/mss_clint.h ****  * The function raise_soft_interrupt() raises a synchronous software interrupt by
  50:/home/vinay/Desktop/softconsole_watershed/Water-shed/src/platform/mpfs_hal/common/mss_clint.h ****  * writing into the MSIP register.
  51:/home/vinay/Desktop/softconsole_watershed/Water-shed/src/platform/mpfs_hal/common/mss_clint.h ****  */
  52:/home/vinay/Desktop/softconsole_watershed/Water-shed/src/platform/mpfs_hal/common/mss_clint.h **** static inline void raise_soft_interrupt(unsigned long hart_id)
  53:/home/vinay/Desktop/softconsole_watershed/Water-shed/src/platform/mpfs_hal/common/mss_clint.h **** {
  54:/home/vinay/Desktop/softconsole_watershed/Water-shed/src/platform/mpfs_hal/common/mss_clint.h ****     /*You need to make sure that the global interrupt is enabled*/
  55:/home/vinay/Desktop/softconsole_watershed/Water-shed/src/platform/mpfs_hal/common/mss_clint.h ****     /*Note:  set_csr(mie, MIP_MSIP) needs to be set on hart you are setting sw interrupt */
  56:/home/vinay/Desktop/softconsole_watershed/Water-shed/src/platform/mpfs_hal/common/mss_clint.h ****     CLINT->MSIP[hart_id] = 0x01U;   /*raise soft interrupt for hart(x) where x== hart ID*/
  57:/home/vinay/Desktop/softconsole_watershed/Water-shed/src/platform/mpfs_hal/common/mss_clint.h ****     mb();
  58:/home/vinay/Desktop/softconsole_watershed/Water-shed/src/platform/mpfs_hal/common/mss_clint.h **** }
  59:/home/vinay/Desktop/softconsole_watershed/Water-shed/src/platform/mpfs_hal/common/mss_clint.h **** 
  60:/home/vinay/Desktop/softconsole_watershed/Water-shed/src/platform/mpfs_hal/common/mss_clint.h **** /*==============================================================================
  61:/home/vinay/Desktop/softconsole_watershed/Water-shed/src/platform/mpfs_hal/common/mss_clint.h ****  * The function clear_soft_interrupt() clears a synchronous software interrupt by
  62:/home/vinay/Desktop/softconsole_watershed/Water-shed/src/platform/mpfs_hal/common/mss_clint.h ****  * clearing the MSIP register.
  63:/home/vinay/Desktop/softconsole_watershed/Water-shed/src/platform/mpfs_hal/common/mss_clint.h ****  */
  64:/home/vinay/Desktop/softconsole_watershed/Water-shed/src/platform/mpfs_hal/common/mss_clint.h **** static inline void clear_soft_interrupt(void)
  65:/home/vinay/Desktop/softconsole_watershed/Water-shed/src/platform/mpfs_hal/common/mss_clint.h **** {
  66:/home/vinay/Desktop/softconsole_watershed/Water-shed/src/platform/mpfs_hal/common/mss_clint.h ****     volatile uint32_t reg;
 417              		.loc 2 66 5
  67:/home/vinay/Desktop/softconsole_watershed/Water-shed/src/platform/mpfs_hal/common/mss_clint.h ****     uint64_t hart_id = read_csr(mhartid);
 418              		.loc 2 67 5
 419              	.LBB18:
 420              		.loc 2 67 24
 421              		.loc 2 67 24
 422              	 #APP
 423              	# 67 "/home/vinay/Desktop/softconsole_watershed/Water-shed/src/platform/mpfs_hal/common/mss_clint.h
  68              	    CLINT->MSIP[hart_id] = 0x00U;   /*clear soft interrupt for hart0*/
 424              		csrr a5, mhartid
 425              	# 0 "" 2
 426              	.LVL23:
  67:/home/vinay/Desktop/softconsole_watershed/Water-shed/src/platform/mpfs_hal/common/mss_clint.h ****     uint64_t hart_id = read_csr(mhartid);
 427              		.loc 2 67 24
 428              	 #NO_APP
 429              	.LBE18:
 430              		.loc 2 68 5
 431 0030 13972700 		slli	a4,a5,2
 432 0034 B7070002 		li	a5,33554432
 433              	.LVL24:
 434 0038 BA97     		add	a5,a5,a4
 435              		.loc 2 68 26 is_stmt 0
 436 003a 23A00700 		sw	zero,0(a5)
  69:/home/vinay/Desktop/softconsole_watershed/Water-shed/src/platform/mpfs_hal/common/mss_clint.h ****     reg = CLINT->MSIP[hart_id];     /* we read back to make sure it has been written before moving 
 437              		.loc 2 69 5 is_stmt 1
 438              		.loc 2 69 22 is_stmt 0
 439 003e 9C43     		lw	a5,0(a5)
 440              	.LBE17:
 441              	.LBE16:
 166:../src/platform/mpfs_hal/common/mss_clint.c **** }
 442              		.loc 1 166 1
 443 0040 E260     		ld	ra,24(sp)
 444              		.cfi_remember_state
 445              		.cfi_restore 1
 446              	.LBB20:
 447              	.LBB19:
 448              		.loc 2 69 22
 449 0042 8127     		sext.w	a5,a5
 450              		.loc 2 69 9
 451 0044 3EC2     		sw	a5,4(sp)
  70:/home/vinay/Desktop/softconsole_watershed/Water-shed/src/platform/mpfs_hal/common/mss_clint.h ****                                     /* todo: verify line above guaranteed and best way to achieve r
  71:/home/vinay/Desktop/softconsole_watershed/Water-shed/src/platform/mpfs_hal/common/mss_clint.h ****     (void)reg;                      /* use reg to avoid compiler warning */
 452              		.loc 2 71 5 is_stmt 1
 453 0046 9247     		lw	a5,4(sp)
 454              	.LBE19:
 455              	.LBE20:
 456              		.loc 1 166 1 is_stmt 0
 457 0048 0561     		addi	sp,sp,32
 458              		.cfi_def_cfa_offset 0
 459 004a 8280     		jr	ra
 460              	.LVL25:
 461              	.L28:
 462              		.cfi_restore_state
 145:../src/platform/mpfs_hal/common/mss_clint.c ****             break;
 463              		.loc 1 145 13 is_stmt 1
 464 004c 97000000 		call	U54_1_software_IRQHandler
 464      E7800000 
 465              	.LVL26:
 146:../src/platform/mpfs_hal/common/mss_clint.c ****         case 2U:
 466              		.loc 1 146 13
 467 0054 E1BF     		j	.L30
 468              	.L27:
 148:../src/platform/mpfs_hal/common/mss_clint.c ****             break;
 469              		.loc 1 148 13
 470 0056 97000000 		call	U54_2_software_IRQHandler
 470      E7800000 
 471              	.LVL27:
 149:../src/platform/mpfs_hal/common/mss_clint.c ****         case 3U:
 472              		.loc 1 149 13
 473 005e F9B7     		j	.L30
 474              	.L26:
 151:../src/platform/mpfs_hal/common/mss_clint.c ****             break;
 475              		.loc 1 151 13
 476 0060 97000000 		call	U54_3_software_IRQHandler
 476      E7800000 
 477              	.LVL28:
 152:../src/platform/mpfs_hal/common/mss_clint.c ****         case 4U:
 478              		.loc 1 152 13
 479 0068 D1B7     		j	.L30
 480              	.L24:
 154:../src/platform/mpfs_hal/common/mss_clint.c ****             break;
 481              		.loc 1 154 13
 482 006a 97000000 		call	U54_4_software_IRQHandler
 482      E7800000 
 483              	.LVL29:
 155:../src/platform/mpfs_hal/common/mss_clint.c ****         default:
 484              		.loc 1 155 13
 485 0072 6DBF     		j	.L30
 486              	.LVL30:
 487              	.L31:
 159:../src/platform/mpfs_hal/common/mss_clint.c ****             }
 488              		.loc 1 159 17
 159:../src/platform/mpfs_hal/common/mss_clint.c ****             }
 489              		.loc 1 159 27 is_stmt 0
 490 0074 8247     		lw	a5,0(sp)
 491 0076 8527     		addiw	a5,a5,1
 492 0078 3EC0     		sw	a5,0(sp)
 493              	.L23:
 157:../src/platform/mpfs_hal/common/mss_clint.c ****             {
 494              		.loc 1 157 28
 495 007a A267     		ld	a5,8(sp)
 157:../src/platform/mpfs_hal/common/mss_clint.c ****             {
 496              		.loc 1 157 19
 497 007c E5FF     		bne	a5,zero,.L31
 498 007e 7DB7     		j	.L30
 499              		.cfi_endproc
 500              	.LFE24:
 502              		.section	.bss.g_systick_increment,"aw",@nobits
 503              		.align	3
 504              		.set	.LANCHOR0,. + 0
 507              	g_systick_increment:
 508 0000 00000000 		.zero	40
 508      00000000 
 508      00000000 
 508      00000000 
 508      00000000 
 509              		.text
 510              	.Letext0:
 511              		.file 3 "/home/vinay/Desktop/soft_console/SoftConsole-v2022.2-RISC-V-747/riscv-unknown-elf-gcc/ris
 512              		.file 4 "/home/vinay/Desktop/soft_console/SoftConsole-v2022.2-RISC-V-747/riscv-unknown-elf-gcc/ris
 513              		.file 5 "/home/vinay/Desktop/softconsole_watershed/Water-shed/src/platform/mpfs_hal/common/nwc/mss
 514              		.file 6 "/home/vinay/Desktop/softconsole_watershed/Water-shed/src/platform/mpfs_hal/common/nwc/mss
 515              		.file 7 "/home/vinay/Desktop/softconsole_watershed/Water-shed/src/platform/mpfs_hal/common/nwc/mss
 516              		.file 8 "/home/vinay/Desktop/softconsole_watershed/Water-shed/src/platform/mpfs_hal/common/mss_mpu
 517              		.file 9 "/home/vinay/Desktop/softconsole_watershed/Water-shed/src/platform/mpfs_hal/common/mss_pli
 518              		.file 10 "/home/vinay/Desktop/softconsole_watershed/Water-shed/src/platform/mpfs_hal/startup_gcc/s
 519              		.file 11 "/home/vinay/Desktop/softconsole_watershed/Water-shed/src/platform/mpfs_hal/common/mss_ha
 520              		.file 12 "/home/vinay/Desktop/softconsole_watershed/Water-shed/src/platform/mpfs_hal/common/mss_ut