   1              		.file	"mss_mpu.c"
   2              		.option nopic
   3              		.attribute arch, "rv64i2p0_m2p0_a2p0_f2p0_d2p0_c2p0"
   4              		.attribute unaligned_access, 0
   5              		.attribute stack_align, 16
   6              		.text
   7              	.Ltext0:
   8              		.cfi_sections	.debug_frame
   9              		.section	.text.mpu_configure,"ax",@progbits
  10              		.align	1
  11              		.globl	mpu_configure
  13              	mpu_configure:
  14              	.LFB23:
  15              		.file 1 "../src/platform/mpfs_hal/common/mss_mpu.c"
   1:../src/platform/mpfs_hal/common/mss_mpu.c **** /*******************************************************************************
   2:../src/platform/mpfs_hal/common/mss_mpu.c ****  * Copyright 2019-2022 Microchip FPGA Embedded Systems Solutions.
   3:../src/platform/mpfs_hal/common/mss_mpu.c ****  *
   4:../src/platform/mpfs_hal/common/mss_mpu.c ****  * SPDX-License-Identifier: MIT
   5:../src/platform/mpfs_hal/common/mss_mpu.c ****  *
   6:../src/platform/mpfs_hal/common/mss_mpu.c ****  * MPFS HAL Embedded Software
   7:../src/platform/mpfs_hal/common/mss_mpu.c ****  *
   8:../src/platform/mpfs_hal/common/mss_mpu.c ****  */
   9:../src/platform/mpfs_hal/common/mss_mpu.c **** /*******************************************************************************
  10:../src/platform/mpfs_hal/common/mss_mpu.c ****  * @file mss_mpu.c
  11:../src/platform/mpfs_hal/common/mss_mpu.c ****  * @author Microchip-FPGA Embedded Systems Solutions
  12:../src/platform/mpfs_hal/common/mss_mpu.c ****  * @brief PolarFire SoC MSS MPU driver for configuring access regions for the
  13:../src/platform/mpfs_hal/common/mss_mpu.c ****  * external masters.
  14:../src/platform/mpfs_hal/common/mss_mpu.c ****  *
  15:../src/platform/mpfs_hal/common/mss_mpu.c ****  */
  16:../src/platform/mpfs_hal/common/mss_mpu.c **** /*=========================================================================*//**
  17:../src/platform/mpfs_hal/common/mss_mpu.c **** 
  18:../src/platform/mpfs_hal/common/mss_mpu.c ****  *//*=========================================================================*/
  19:../src/platform/mpfs_hal/common/mss_mpu.c **** #include <stdio.h>
  20:../src/platform/mpfs_hal/common/mss_mpu.c **** #include <string.h>
  21:../src/platform/mpfs_hal/common/mss_mpu.c **** #include "mpfs_hal/mss_hal.h"
  22:../src/platform/mpfs_hal/common/mss_mpu.c **** 
  23:../src/platform/mpfs_hal/common/mss_mpu.c **** static uint64_t pmp_get_napot_base_and_range(uint64_t reg, uint64_t *range);
  24:../src/platform/mpfs_hal/common/mss_mpu.c **** 
  25:../src/platform/mpfs_hal/common/mss_mpu.c **** uint8_t num_pmp_lut[10U] = {16U,16U,8U,4U,8U,8U,4U,4U,8U,2U};
  26:../src/platform/mpfs_hal/common/mss_mpu.c **** 
  27:../src/platform/mpfs_hal/common/mss_mpu.c **** /**
  28:../src/platform/mpfs_hal/common/mss_mpu.c ****  * \brief MPU configuration from Libero for FIC0
  29:../src/platform/mpfs_hal/common/mss_mpu.c ****  *
  30:../src/platform/mpfs_hal/common/mss_mpu.c ****  */
  31:../src/platform/mpfs_hal/common/mss_mpu.c **** const uint64_t    mpu_fic0_values[] = {
  32:../src/platform/mpfs_hal/common/mss_mpu.c ****     LIBERO_SETTING_FIC0_MPU_CFG_PMP0,
  33:../src/platform/mpfs_hal/common/mss_mpu.c ****     LIBERO_SETTING_FIC0_MPU_CFG_PMP1,
  34:../src/platform/mpfs_hal/common/mss_mpu.c ****     LIBERO_SETTING_FIC0_MPU_CFG_PMP2,
  35:../src/platform/mpfs_hal/common/mss_mpu.c ****     LIBERO_SETTING_FIC0_MPU_CFG_PMP3,
  36:../src/platform/mpfs_hal/common/mss_mpu.c ****     LIBERO_SETTING_FIC0_MPU_CFG_PMP4,
  37:../src/platform/mpfs_hal/common/mss_mpu.c ****     LIBERO_SETTING_FIC0_MPU_CFG_PMP5,
  38:../src/platform/mpfs_hal/common/mss_mpu.c ****     LIBERO_SETTING_FIC0_MPU_CFG_PMP6,
  39:../src/platform/mpfs_hal/common/mss_mpu.c ****     LIBERO_SETTING_FIC0_MPU_CFG_PMP7,
  40:../src/platform/mpfs_hal/common/mss_mpu.c ****     LIBERO_SETTING_FIC0_MPU_CFG_PMP8,
  41:../src/platform/mpfs_hal/common/mss_mpu.c ****     LIBERO_SETTING_FIC0_MPU_CFG_PMP9,
  42:../src/platform/mpfs_hal/common/mss_mpu.c ****     LIBERO_SETTING_FIC0_MPU_CFG_PMP10,
  43:../src/platform/mpfs_hal/common/mss_mpu.c ****     LIBERO_SETTING_FIC0_MPU_CFG_PMP11,
  44:../src/platform/mpfs_hal/common/mss_mpu.c ****     LIBERO_SETTING_FIC0_MPU_CFG_PMP12,
  45:../src/platform/mpfs_hal/common/mss_mpu.c ****     LIBERO_SETTING_FIC0_MPU_CFG_PMP13,
  46:../src/platform/mpfs_hal/common/mss_mpu.c ****     LIBERO_SETTING_FIC0_MPU_CFG_PMP14,
  47:../src/platform/mpfs_hal/common/mss_mpu.c ****     LIBERO_SETTING_FIC0_MPU_CFG_PMP15
  48:../src/platform/mpfs_hal/common/mss_mpu.c **** };
  49:../src/platform/mpfs_hal/common/mss_mpu.c **** 
  50:../src/platform/mpfs_hal/common/mss_mpu.c **** /**
  51:../src/platform/mpfs_hal/common/mss_mpu.c ****  * \brief MPU configuration from Libero for FIC1
  52:../src/platform/mpfs_hal/common/mss_mpu.c ****  *
  53:../src/platform/mpfs_hal/common/mss_mpu.c ****  */
  54:../src/platform/mpfs_hal/common/mss_mpu.c **** const uint64_t    mpu_fic1_values[] = {
  55:../src/platform/mpfs_hal/common/mss_mpu.c ****     LIBERO_SETTING_FIC1_MPU_CFG_PMP0,
  56:../src/platform/mpfs_hal/common/mss_mpu.c ****     LIBERO_SETTING_FIC1_MPU_CFG_PMP1,
  57:../src/platform/mpfs_hal/common/mss_mpu.c ****     LIBERO_SETTING_FIC1_MPU_CFG_PMP2,
  58:../src/platform/mpfs_hal/common/mss_mpu.c ****     LIBERO_SETTING_FIC1_MPU_CFG_PMP3,
  59:../src/platform/mpfs_hal/common/mss_mpu.c ****     LIBERO_SETTING_FIC1_MPU_CFG_PMP4,
  60:../src/platform/mpfs_hal/common/mss_mpu.c ****     LIBERO_SETTING_FIC1_MPU_CFG_PMP5,
  61:../src/platform/mpfs_hal/common/mss_mpu.c ****     LIBERO_SETTING_FIC1_MPU_CFG_PMP6,
  62:../src/platform/mpfs_hal/common/mss_mpu.c ****     LIBERO_SETTING_FIC1_MPU_CFG_PMP7,
  63:../src/platform/mpfs_hal/common/mss_mpu.c ****     LIBERO_SETTING_FIC1_MPU_CFG_PMP8,
  64:../src/platform/mpfs_hal/common/mss_mpu.c ****     LIBERO_SETTING_FIC1_MPU_CFG_PMP9,
  65:../src/platform/mpfs_hal/common/mss_mpu.c ****     LIBERO_SETTING_FIC1_MPU_CFG_PMP10,
  66:../src/platform/mpfs_hal/common/mss_mpu.c ****     LIBERO_SETTING_FIC1_MPU_CFG_PMP11,
  67:../src/platform/mpfs_hal/common/mss_mpu.c ****     LIBERO_SETTING_FIC1_MPU_CFG_PMP12,
  68:../src/platform/mpfs_hal/common/mss_mpu.c ****     LIBERO_SETTING_FIC1_MPU_CFG_PMP13,
  69:../src/platform/mpfs_hal/common/mss_mpu.c ****     LIBERO_SETTING_FIC1_MPU_CFG_PMP14,
  70:../src/platform/mpfs_hal/common/mss_mpu.c ****     LIBERO_SETTING_FIC1_MPU_CFG_PMP15
  71:../src/platform/mpfs_hal/common/mss_mpu.c **** };
  72:../src/platform/mpfs_hal/common/mss_mpu.c **** 
  73:../src/platform/mpfs_hal/common/mss_mpu.c **** /**
  74:../src/platform/mpfs_hal/common/mss_mpu.c ****  * \brief MPU configuration from Libero for FIC2
  75:../src/platform/mpfs_hal/common/mss_mpu.c ****  *
  76:../src/platform/mpfs_hal/common/mss_mpu.c ****  */
  77:../src/platform/mpfs_hal/common/mss_mpu.c **** const uint64_t    mpu_fic2_values[] = {
  78:../src/platform/mpfs_hal/common/mss_mpu.c ****     LIBERO_SETTING_FIC2_MPU_CFG_PMP0,
  79:../src/platform/mpfs_hal/common/mss_mpu.c ****     LIBERO_SETTING_FIC2_MPU_CFG_PMP1,
  80:../src/platform/mpfs_hal/common/mss_mpu.c ****     LIBERO_SETTING_FIC2_MPU_CFG_PMP2,
  81:../src/platform/mpfs_hal/common/mss_mpu.c ****     LIBERO_SETTING_FIC2_MPU_CFG_PMP3,
  82:../src/platform/mpfs_hal/common/mss_mpu.c ****     LIBERO_SETTING_FIC2_MPU_CFG_PMP4,
  83:../src/platform/mpfs_hal/common/mss_mpu.c ****     LIBERO_SETTING_FIC2_MPU_CFG_PMP5,
  84:../src/platform/mpfs_hal/common/mss_mpu.c ****     LIBERO_SETTING_FIC2_MPU_CFG_PMP6,
  85:../src/platform/mpfs_hal/common/mss_mpu.c ****     LIBERO_SETTING_FIC2_MPU_CFG_PMP7,
  86:../src/platform/mpfs_hal/common/mss_mpu.c **** };
  87:../src/platform/mpfs_hal/common/mss_mpu.c **** 
  88:../src/platform/mpfs_hal/common/mss_mpu.c **** /**
  89:../src/platform/mpfs_hal/common/mss_mpu.c ****  * \brief MPU configuration from Libero for ATHENA
  90:../src/platform/mpfs_hal/common/mss_mpu.c ****  *
  91:../src/platform/mpfs_hal/common/mss_mpu.c ****  */
  92:../src/platform/mpfs_hal/common/mss_mpu.c **** const uint64_t    mpu_crypto_values[] = {
  93:../src/platform/mpfs_hal/common/mss_mpu.c ****     LIBERO_SETTING_CRYPTO_MPU_CFG_PMP0,
  94:../src/platform/mpfs_hal/common/mss_mpu.c ****     LIBERO_SETTING_CRYPTO_MPU_CFG_PMP1,
  95:../src/platform/mpfs_hal/common/mss_mpu.c ****     LIBERO_SETTING_CRYPTO_MPU_CFG_PMP2,
  96:../src/platform/mpfs_hal/common/mss_mpu.c ****     LIBERO_SETTING_CRYPTO_MPU_CFG_PMP3,
  97:../src/platform/mpfs_hal/common/mss_mpu.c **** };
  98:../src/platform/mpfs_hal/common/mss_mpu.c **** 
  99:../src/platform/mpfs_hal/common/mss_mpu.c **** /**
 100:../src/platform/mpfs_hal/common/mss_mpu.c ****  * \brief MPU configuration from Libero for GEM0
 101:../src/platform/mpfs_hal/common/mss_mpu.c ****  *
 102:../src/platform/mpfs_hal/common/mss_mpu.c ****  */
 103:../src/platform/mpfs_hal/common/mss_mpu.c **** const uint64_t    mpu_gem0_values[] = {
 104:../src/platform/mpfs_hal/common/mss_mpu.c ****     LIBERO_SETTING_GEM0_MPU_CFG_PMP0,
 105:../src/platform/mpfs_hal/common/mss_mpu.c ****     LIBERO_SETTING_GEM0_MPU_CFG_PMP1,
 106:../src/platform/mpfs_hal/common/mss_mpu.c ****     LIBERO_SETTING_GEM0_MPU_CFG_PMP2,
 107:../src/platform/mpfs_hal/common/mss_mpu.c ****     LIBERO_SETTING_GEM0_MPU_CFG_PMP3,
 108:../src/platform/mpfs_hal/common/mss_mpu.c ****     LIBERO_SETTING_GEM0_MPU_CFG_PMP4,
 109:../src/platform/mpfs_hal/common/mss_mpu.c ****     LIBERO_SETTING_GEM0_MPU_CFG_PMP5,
 110:../src/platform/mpfs_hal/common/mss_mpu.c ****     LIBERO_SETTING_GEM0_MPU_CFG_PMP6,
 111:../src/platform/mpfs_hal/common/mss_mpu.c ****     LIBERO_SETTING_GEM0_MPU_CFG_PMP7,
 112:../src/platform/mpfs_hal/common/mss_mpu.c **** };
 113:../src/platform/mpfs_hal/common/mss_mpu.c **** 
 114:../src/platform/mpfs_hal/common/mss_mpu.c **** /**
 115:../src/platform/mpfs_hal/common/mss_mpu.c ****  * \brief MPU configuration from Libero for GEM1
 116:../src/platform/mpfs_hal/common/mss_mpu.c ****  *
 117:../src/platform/mpfs_hal/common/mss_mpu.c ****  */
 118:../src/platform/mpfs_hal/common/mss_mpu.c **** const uint64_t    mpu_gem1_values[] = {
 119:../src/platform/mpfs_hal/common/mss_mpu.c ****     LIBERO_SETTING_GEM1_MPU_CFG_PMP0,
 120:../src/platform/mpfs_hal/common/mss_mpu.c ****     LIBERO_SETTING_GEM1_MPU_CFG_PMP1,
 121:../src/platform/mpfs_hal/common/mss_mpu.c ****     LIBERO_SETTING_GEM1_MPU_CFG_PMP2,
 122:../src/platform/mpfs_hal/common/mss_mpu.c ****     LIBERO_SETTING_GEM1_MPU_CFG_PMP3,
 123:../src/platform/mpfs_hal/common/mss_mpu.c ****     LIBERO_SETTING_GEM1_MPU_CFG_PMP4,
 124:../src/platform/mpfs_hal/common/mss_mpu.c ****     LIBERO_SETTING_GEM1_MPU_CFG_PMP5,
 125:../src/platform/mpfs_hal/common/mss_mpu.c ****     LIBERO_SETTING_GEM1_MPU_CFG_PMP6,
 126:../src/platform/mpfs_hal/common/mss_mpu.c ****     LIBERO_SETTING_GEM1_MPU_CFG_PMP7,
 127:../src/platform/mpfs_hal/common/mss_mpu.c **** };
 128:../src/platform/mpfs_hal/common/mss_mpu.c **** 
 129:../src/platform/mpfs_hal/common/mss_mpu.c **** /**
 130:../src/platform/mpfs_hal/common/mss_mpu.c ****  * \brief MPU configuration from Libero for MMC
 131:../src/platform/mpfs_hal/common/mss_mpu.c ****  *
 132:../src/platform/mpfs_hal/common/mss_mpu.c ****  */
 133:../src/platform/mpfs_hal/common/mss_mpu.c **** const uint64_t    mpu_mmc_values[] = {
 134:../src/platform/mpfs_hal/common/mss_mpu.c ****     LIBERO_SETTING_MMC_MPU_CFG_PMP0,
 135:../src/platform/mpfs_hal/common/mss_mpu.c ****     LIBERO_SETTING_MMC_MPU_CFG_PMP1,
 136:../src/platform/mpfs_hal/common/mss_mpu.c ****     LIBERO_SETTING_MMC_MPU_CFG_PMP2,
 137:../src/platform/mpfs_hal/common/mss_mpu.c ****     LIBERO_SETTING_MMC_MPU_CFG_PMP3,
 138:../src/platform/mpfs_hal/common/mss_mpu.c **** };
 139:../src/platform/mpfs_hal/common/mss_mpu.c **** 
 140:../src/platform/mpfs_hal/common/mss_mpu.c **** /**
 141:../src/platform/mpfs_hal/common/mss_mpu.c ****  * \brief MPU configuration from Libero for SCB
 142:../src/platform/mpfs_hal/common/mss_mpu.c ****  *
 143:../src/platform/mpfs_hal/common/mss_mpu.c ****  */
 144:../src/platform/mpfs_hal/common/mss_mpu.c **** const uint64_t    mpu_scb_values[] = {
 145:../src/platform/mpfs_hal/common/mss_mpu.c ****     LIBERO_SETTING_SCB_MPU_CFG_PMP0,
 146:../src/platform/mpfs_hal/common/mss_mpu.c ****     LIBERO_SETTING_SCB_MPU_CFG_PMP1,
 147:../src/platform/mpfs_hal/common/mss_mpu.c ****     LIBERO_SETTING_SCB_MPU_CFG_PMP2,
 148:../src/platform/mpfs_hal/common/mss_mpu.c ****     LIBERO_SETTING_SCB_MPU_CFG_PMP3,
 149:../src/platform/mpfs_hal/common/mss_mpu.c ****     LIBERO_SETTING_SCB_MPU_CFG_PMP4,
 150:../src/platform/mpfs_hal/common/mss_mpu.c ****     LIBERO_SETTING_SCB_MPU_CFG_PMP5,
 151:../src/platform/mpfs_hal/common/mss_mpu.c ****     LIBERO_SETTING_SCB_MPU_CFG_PMP6,
 152:../src/platform/mpfs_hal/common/mss_mpu.c ****     LIBERO_SETTING_SCB_MPU_CFG_PMP7,
 153:../src/platform/mpfs_hal/common/mss_mpu.c **** };
 154:../src/platform/mpfs_hal/common/mss_mpu.c **** 
 155:../src/platform/mpfs_hal/common/mss_mpu.c **** /**
 156:../src/platform/mpfs_hal/common/mss_mpu.c ****  * \brief MPU configuration from Libero for USB
 157:../src/platform/mpfs_hal/common/mss_mpu.c ****  *
 158:../src/platform/mpfs_hal/common/mss_mpu.c ****  */
 159:../src/platform/mpfs_hal/common/mss_mpu.c **** const uint64_t    mpu_usb_values[] = {
 160:../src/platform/mpfs_hal/common/mss_mpu.c ****     LIBERO_SETTING_USB_MPU_CFG_PMP0,
 161:../src/platform/mpfs_hal/common/mss_mpu.c ****     LIBERO_SETTING_USB_MPU_CFG_PMP1,
 162:../src/platform/mpfs_hal/common/mss_mpu.c ****     LIBERO_SETTING_USB_MPU_CFG_PMP2,
 163:../src/platform/mpfs_hal/common/mss_mpu.c ****     LIBERO_SETTING_USB_MPU_CFG_PMP3,
 164:../src/platform/mpfs_hal/common/mss_mpu.c **** };
 165:../src/platform/mpfs_hal/common/mss_mpu.c **** 
 166:../src/platform/mpfs_hal/common/mss_mpu.c **** /**
 167:../src/platform/mpfs_hal/common/mss_mpu.c ****  * \brief MPU configuration from Libero for TRACE
 168:../src/platform/mpfs_hal/common/mss_mpu.c ****  *
 169:../src/platform/mpfs_hal/common/mss_mpu.c ****  */
 170:../src/platform/mpfs_hal/common/mss_mpu.c **** const uint64_t    mpu_trace_values[] = {
 171:../src/platform/mpfs_hal/common/mss_mpu.c ****     LIBERO_SETTING_TRACE_MPU_CFG_PMP0,
 172:../src/platform/mpfs_hal/common/mss_mpu.c ****     LIBERO_SETTING_TRACE_MPU_CFG_PMP1,
 173:../src/platform/mpfs_hal/common/mss_mpu.c **** };
 174:../src/platform/mpfs_hal/common/mss_mpu.c **** 
 175:../src/platform/mpfs_hal/common/mss_mpu.c **** 
 176:../src/platform/mpfs_hal/common/mss_mpu.c **** /***************************************************************************//**
 177:../src/platform/mpfs_hal/common/mss_mpu.c ****  * MSS_MPU_auto_configure()
 178:../src/platform/mpfs_hal/common/mss_mpu.c ****  * Set MPU's up with configuration from Libero
 179:../src/platform/mpfs_hal/common/mss_mpu.c ****  *
 180:../src/platform/mpfs_hal/common/mss_mpu.c ****  *
 181:../src/platform/mpfs_hal/common/mss_mpu.c ****  * @return
 182:../src/platform/mpfs_hal/common/mss_mpu.c ****  */
 183:../src/platform/mpfs_hal/common/mss_mpu.c **** uint8_t mpu_configure(void)
 184:../src/platform/mpfs_hal/common/mss_mpu.c **** {
  16              		.loc 1 184 1
  17              		.cfi_startproc
 185:../src/platform/mpfs_hal/common/mss_mpu.c ****     config_64_copy((void *)(&(MSS_MPU(MSS_MPU_FIC0)->PMPCFG)),
  18              		.loc 1 185 5
 184:../src/platform/mpfs_hal/common/mss_mpu.c ****     config_64_copy((void *)(&(MSS_MPU(MSS_MPU_FIC0)->PMPCFG)),
  19              		.loc 1 184 1 is_stmt 0
  20 0000 4111     		addi	sp,sp,-16
  21              		.cfi_def_cfa_offset 16
  22              		.loc 1 185 5
  23 0002 13060008 		li	a2,128
  24 0006 97050000 		lla	a1,.LANCHOR0
  24      93850500 
  25 000e 37550020 		li	a0,536891392
 184:../src/platform/mpfs_hal/common/mss_mpu.c ****     config_64_copy((void *)(&(MSS_MPU(MSS_MPU_FIC0)->PMPCFG)),
  26              		.loc 1 184 1
  27 0012 06E4     		sd	ra,8(sp)
  28 0014 22E0     		sd	s0,0(sp)
  29              		.cfi_offset 1, -8
  30              		.cfi_offset 8, -16
 186:../src/platform/mpfs_hal/common/mss_mpu.c ****                  &(mpu_fic0_values),
 187:../src/platform/mpfs_hal/common/mss_mpu.c ****                  sizeof(mpu_fic0_values));
 188:../src/platform/mpfs_hal/common/mss_mpu.c **** 
 189:../src/platform/mpfs_hal/common/mss_mpu.c ****     config_64_copy((void *)(&(MSS_MPU(MSS_MPU_FIC1)->PMPCFG)),
  31              		.loc 1 189 5
  32 0016 37540020 		li	s0,536891392
 185:../src/platform/mpfs_hal/common/mss_mpu.c ****                  &(mpu_fic0_values),
  33              		.loc 1 185 5
  34 001a 97000000 		call	config_64_copy
  34      E7800000 
  35              	.LVL0:
  36              		.loc 1 189 5 is_stmt 1
  37 0022 13060008 		li	a2,128
  38 0026 97050000 		lla	a1,.LANCHOR1
  38      93850500 
  39 002e 13050410 		addi	a0,s0,256
  40 0032 97000000 		call	config_64_copy
  40      E7800000 
  41              	.LVL1:
 190:../src/platform/mpfs_hal/common/mss_mpu.c ****                 &(mpu_fic1_values),
 191:../src/platform/mpfs_hal/common/mss_mpu.c ****                 sizeof(mpu_fic1_values));
 192:../src/platform/mpfs_hal/common/mss_mpu.c **** 
 193:../src/platform/mpfs_hal/common/mss_mpu.c ****     config_64_copy((void *)(&(MSS_MPU(MSS_MPU_FIC2)->PMPCFG)),
  42              		.loc 1 193 5
  43 003a 13060004 		li	a2,64
  44 003e 97050000 		lla	a1,.LANCHOR2
  44      93850500 
  45 0046 13050420 		addi	a0,s0,512
  46 004a 97000000 		call	config_64_copy
  46      E7800000 
  47              	.LVL2:
 194:../src/platform/mpfs_hal/common/mss_mpu.c ****                 &(mpu_fic2_values),
 195:../src/platform/mpfs_hal/common/mss_mpu.c ****                 sizeof(mpu_fic2_values));
 196:../src/platform/mpfs_hal/common/mss_mpu.c **** 
 197:../src/platform/mpfs_hal/common/mss_mpu.c ****     config_64_copy((void *)(&(MSS_MPU(MSS_MPU_CRYPTO)->PMPCFG)),
  48              		.loc 1 197 5
  49 0052 13060002 		li	a2,32
  50 0056 97050000 		lla	a1,.LANCHOR3
  50      93850500 
  51 005e 13050430 		addi	a0,s0,768
  52 0062 97000000 		call	config_64_copy
  52      E7800000 
  53              	.LVL3:
 198:../src/platform/mpfs_hal/common/mss_mpu.c ****                 &(mpu_crypto_values),
 199:../src/platform/mpfs_hal/common/mss_mpu.c ****                 sizeof(mpu_crypto_values));
 200:../src/platform/mpfs_hal/common/mss_mpu.c **** 
 201:../src/platform/mpfs_hal/common/mss_mpu.c ****     config_64_copy((void *)(&(MSS_MPU(MSS_MPU_GEM0)->PMPCFG)),
  54              		.loc 1 201 5
  55 006a 13060004 		li	a2,64
  56 006e 97050000 		lla	a1,.LANCHOR4
  56      93850500 
  57 0076 13050440 		addi	a0,s0,1024
  58 007a 97000000 		call	config_64_copy
  58      E7800000 
  59              	.LVL4:
 202:../src/platform/mpfs_hal/common/mss_mpu.c ****                 &(mpu_gem0_values),
 203:../src/platform/mpfs_hal/common/mss_mpu.c ****                 sizeof(mpu_gem0_values));
 204:../src/platform/mpfs_hal/common/mss_mpu.c **** 
 205:../src/platform/mpfs_hal/common/mss_mpu.c ****     config_64_copy((void *)(&(MSS_MPU(MSS_MPU_GEM1)->PMPCFG)),
  60              		.loc 1 205 5
  61 0082 13060004 		li	a2,64
  62 0086 97050000 		lla	a1,.LANCHOR5
  62      93850500 
  63 008e 13050450 		addi	a0,s0,1280
  64 0092 97000000 		call	config_64_copy
  64      E7800000 
  65              	.LVL5:
 206:../src/platform/mpfs_hal/common/mss_mpu.c ****                 &(mpu_gem1_values),
 207:../src/platform/mpfs_hal/common/mss_mpu.c ****                 sizeof(mpu_gem1_values));
 208:../src/platform/mpfs_hal/common/mss_mpu.c **** 
 209:../src/platform/mpfs_hal/common/mss_mpu.c ****     config_64_copy((void *)(&(MSS_MPU(MSS_MPU_USB)->PMPCFG)),
  66              		.loc 1 209 5
  67 009a 13060002 		li	a2,32
  68 009e 97050000 		lla	a1,.LANCHOR6
  68      93850500 
  69 00a6 13050460 		addi	a0,s0,1536
  70 00aa 97000000 		call	config_64_copy
  70      E7800000 
  71              	.LVL6:
 210:../src/platform/mpfs_hal/common/mss_mpu.c ****                 &(mpu_usb_values),
 211:../src/platform/mpfs_hal/common/mss_mpu.c ****                 sizeof(mpu_usb_values));
 212:../src/platform/mpfs_hal/common/mss_mpu.c **** 
 213:../src/platform/mpfs_hal/common/mss_mpu.c ****     config_64_copy((void *)(&(MSS_MPU(MSS_MPU_MMC)->PMPCFG)),
  72              		.loc 1 213 5
  73 00b2 13060002 		li	a2,32
  74 00b6 97050000 		lla	a1,.LANCHOR7
  74      93850500 
  75 00be 13050470 		addi	a0,s0,1792
  76 00c2 97000000 		call	config_64_copy
  76      E7800000 
  77              	.LVL7:
 214:../src/platform/mpfs_hal/common/mss_mpu.c ****                 &(mpu_mmc_values),
 215:../src/platform/mpfs_hal/common/mss_mpu.c ****                 sizeof(mpu_mmc_values));
 216:../src/platform/mpfs_hal/common/mss_mpu.c **** 
 217:../src/platform/mpfs_hal/common/mss_mpu.c ****     config_64_copy((void *)(&(MSS_MPU(MSS_MPU_SCB)->PMPCFG)),
  78              		.loc 1 217 5
  79 00ca 37640020 		li	s0,536895488
  80 00ce 13060004 		li	a2,64
  81 00d2 97050000 		lla	a1,.LANCHOR8
  81      93850500 
  82 00da 13050480 		addi	a0,s0,-2048
  83 00de 97000000 		call	config_64_copy
  83      E7800000 
  84              	.LVL8:
 218:../src/platform/mpfs_hal/common/mss_mpu.c ****                 &(mpu_scb_values),
 219:../src/platform/mpfs_hal/common/mss_mpu.c ****                 sizeof(mpu_scb_values));
 220:../src/platform/mpfs_hal/common/mss_mpu.c **** 
 221:../src/platform/mpfs_hal/common/mss_mpu.c ****     config_64_copy((void *)(&(MSS_MPU(MSS_MPU_TRACE)->PMPCFG)),
  85              		.loc 1 221 5
  86 00e6 13050490 		addi	a0,s0,-1792
  87 00ea 4146     		li	a2,16
  88 00ec 97050000 		lla	a1,.LANCHOR9
  88      93850500 
  89 00f4 97000000 		call	config_64_copy
  89      E7800000 
  90              	.LVL9:
 222:../src/platform/mpfs_hal/common/mss_mpu.c ****                 &(mpu_trace_values),
 223:../src/platform/mpfs_hal/common/mss_mpu.c ****                 sizeof(mpu_trace_values));
 224:../src/platform/mpfs_hal/common/mss_mpu.c **** 
 225:../src/platform/mpfs_hal/common/mss_mpu.c ****     return(0);
  91              		.loc 1 225 5
 226:../src/platform/mpfs_hal/common/mss_mpu.c **** }
  92              		.loc 1 226 1 is_stmt 0
  93 00fc A260     		ld	ra,8(sp)
  94              		.cfi_restore 1
  95 00fe 0264     		ld	s0,0(sp)
  96              		.cfi_restore 8
  97 0100 0145     		li	a0,0
  98 0102 4101     		addi	sp,sp,16
  99              		.cfi_def_cfa_offset 0
 100 0104 8280     		jr	ra
 101              		.cfi_endproc
 102              	.LFE23:
 104              		.section	.text.MSS_MPU_configure,"ax",@progbits
 105              		.align	1
 106              		.globl	MSS_MPU_configure
 108              	MSS_MPU_configure:
 109              	.LFB24:
 227:../src/platform/mpfs_hal/common/mss_mpu.c **** 
 228:../src/platform/mpfs_hal/common/mss_mpu.c **** 
 229:../src/platform/mpfs_hal/common/mss_mpu.c **** 
 230:../src/platform/mpfs_hal/common/mss_mpu.c **** 
 231:../src/platform/mpfs_hal/common/mss_mpu.c **** 
 232:../src/platform/mpfs_hal/common/mss_mpu.c **** /***************************************************************************//**
 233:../src/platform/mpfs_hal/common/mss_mpu.c **** */
 234:../src/platform/mpfs_hal/common/mss_mpu.c **** uint8_t MSS_MPU_configure(mss_mpu_mport_t master_port,
 235:../src/platform/mpfs_hal/common/mss_mpu.c ****                                         mss_mpu_pmp_region_t pmp_region,
 236:../src/platform/mpfs_hal/common/mss_mpu.c ****                                         uint64_t base,
 237:../src/platform/mpfs_hal/common/mss_mpu.c ****                                         uint64_t size,
 238:../src/platform/mpfs_hal/common/mss_mpu.c ****                                         uint8_t permission,
 239:../src/platform/mpfs_hal/common/mss_mpu.c ****                                         mss_mpu_addrm_t matching_mode,
 240:../src/platform/mpfs_hal/common/mss_mpu.c ****                                         uint8_t lock_en)
 241:../src/platform/mpfs_hal/common/mss_mpu.c **** {
 110              		.loc 1 241 1 is_stmt 1
 111              		.cfi_startproc
 112              	.LVL10:
 242:../src/platform/mpfs_hal/common/mss_mpu.c ****     uint64_t temp = size, cnt=0ULL;
 113              		.loc 1 242 5
 243:../src/platform/mpfs_hal/common/mss_mpu.c ****     uint64_t range;
 114              		.loc 1 243 5
 244:../src/platform/mpfs_hal/common/mss_mpu.c **** 
 245:../src/platform/mpfs_hal/common/mss_mpu.c ****     /*size must be minimum 4k
 246:../src/platform/mpfs_hal/common/mss_mpu.c ****       Size must be power of 2
 247:../src/platform/mpfs_hal/common/mss_mpu.c ****       different masters have different number of regions*/
 248:../src/platform/mpfs_hal/common/mss_mpu.c ****     if((size >= 4096ULL) && (0U == (size & (size - 1U))) && (pmp_region < num_pmp_lut[master_port])
 115              		.loc 1 248 5
 116              		.loc 1 248 7 is_stmt 0
 117 0000 8568     		li	a7,4096
 118 0002 63E61603 		bltu	a3,a7,.L7
 119              		.loc 1 248 50 discriminator 1
 120 0006 9388F6FF 		addi	a7,a3,-1
 121              		.loc 1 248 42 discriminator 1
 122 000a B3F8D800 		and	a7,a7,a3
 249:../src/platform/mpfs_hal/common/mss_mpu.c ****     {
 250:../src/platform/mpfs_hal/common/mss_mpu.c ****         while((0 == (temp & 0x01U)))
 251:../src/platform/mpfs_hal/common/mss_mpu.c ****         {
 252:../src/platform/mpfs_hal/common/mss_mpu.c ****             cnt++;
 253:../src/platform/mpfs_hal/common/mss_mpu.c ****             temp >>= 1U;
 254:../src/platform/mpfs_hal/common/mss_mpu.c ****         }
 255:../src/platform/mpfs_hal/common/mss_mpu.c **** 
 256:../src/platform/mpfs_hal/common/mss_mpu.c ****         range = (1ULL << (cnt-1U))-1U;
 257:../src/platform/mpfs_hal/common/mss_mpu.c **** 
 258:../src/platform/mpfs_hal/common/mss_mpu.c ****         MSS_MPU(master_port)->PMPCFG[pmp_region].raw = (base | range) >> 2U;
 259:../src/platform/mpfs_hal/common/mss_mpu.c **** 
 260:../src/platform/mpfs_hal/common/mss_mpu.c ****         MSS_MPU(master_port)->PMPCFG[pmp_region].MPUCFG_TypeDef.mode = (uint8_t)(permission |
 261:../src/platform/mpfs_hal/common/mss_mpu.c ****                                               (uint8_t)(matching_mode << 3U) |
 262:../src/platform/mpfs_hal/common/mss_mpu.c ****                                                         (lock_en << 0x7U));
 263:../src/platform/mpfs_hal/common/mss_mpu.c **** 
 264:../src/platform/mpfs_hal/common/mss_mpu.c ****         return ((uint8_t)0);
 265:../src/platform/mpfs_hal/common/mss_mpu.c ****     }
 266:../src/platform/mpfs_hal/common/mss_mpu.c ****     else
 267:../src/platform/mpfs_hal/common/mss_mpu.c ****     {
 268:../src/platform/mpfs_hal/common/mss_mpu.c ****         return ((uint8_t)1);
 123              		.loc 1 268 16 discriminator 1
 124 000e 0543     		li	t1,1
 248:../src/platform/mpfs_hal/common/mss_mpu.c ****     {
 125              		.loc 1 248 26 discriminator 1
 126 0010 63930806 		bne	a7,zero,.L4
 248:../src/platform/mpfs_hal/common/mss_mpu.c ****     {
 127              		.loc 1 248 86 discriminator 2
 128 0014 131E0502 		slli	t3,a0,32
 129 0018 135E0E02 		srli	t3,t3,32
 130 001c 17030000 		lla	t1,.LANCHOR10
 130      13030300 
 131 0024 7293     		add	t1,t1,t3
 248:../src/platform/mpfs_hal/common/mss_mpu.c ****     {
 132              		.loc 1 248 58 discriminator 2
 133 0026 03430300 		lbu	t1,0(t1)
 134 002a 63E66500 		bgtu	t1,a1,.L5
 135              	.L7:
 136              		.loc 1 268 16
 137 002e 0543     		li	t1,1
 138 0030 99A0     		j	.L4
 139              	.LVL11:
 140              	.L6:
 252:../src/platform/mpfs_hal/common/mss_mpu.c ****             temp >>= 1U;
 141              		.loc 1 252 13 is_stmt 1
 252:../src/platform/mpfs_hal/common/mss_mpu.c ****             temp >>= 1U;
 142              		.loc 1 252 16 is_stmt 0
 143 0032 8508     		addi	a7,a7,1
 144              	.LVL12:
 253:../src/platform/mpfs_hal/common/mss_mpu.c ****         }
 145              		.loc 1 253 13 is_stmt 1
 253:../src/platform/mpfs_hal/common/mss_mpu.c ****         }
 146              		.loc 1 253 18 is_stmt 0
 147 0034 8582     		srli	a3,a3,1
 148              	.LVL13:
 149              	.L5:
 250:../src/platform/mpfs_hal/common/mss_mpu.c ****         {
 150              		.loc 1 250 27
 151 0036 13F31600 		andi	t1,a3,1
 250:../src/platform/mpfs_hal/common/mss_mpu.c ****         {
 152              		.loc 1 250 14
 153 003a E30C03FE 		beq	t1,zero,.L6
 256:../src/platform/mpfs_hal/common/mss_mpu.c **** 
 154              		.loc 1 256 9 is_stmt 1
 155              	.LVL14:
 258:../src/platform/mpfs_hal/common/mss_mpu.c **** 
 156              		.loc 1 258 9
 157 003e 1B158500 		slliw	a0,a0,8
 158              	.LVL15:
 159 0042 0215     		slli	a0,a0,32
 160 0044 B7560020 		li	a3,536891392
 161              	.LVL16:
 162 0048 0191     		srli	a0,a0,32
 163 004a 3695     		add	a0,a0,a3
 256:../src/platform/mpfs_hal/common/mss_mpu.c **** 
 164              		.loc 1 256 30 is_stmt 0
 165 004c FD38     		addiw	a7,a7,-1
 166              	.LVL17:
 256:../src/platform/mpfs_hal/common/mss_mpu.c **** 
 167              		.loc 1 256 23
 168 004e 8546     		li	a3,1
 169 0050 B3961601 		sll	a3,a3,a7
 170 0054 8215     		slli	a1,a1,32
 171              	.LVL18:
 256:../src/platform/mpfs_hal/common/mss_mpu.c **** 
 172              		.loc 1 256 15
 173 0056 FD16     		addi	a3,a3,-1
 261:../src/platform/mpfs_hal/common/mss_mpu.c ****                                                         (lock_en << 0x7U));
 174              		.loc 1 261 78
 175 0058 8E07     		slli	a5,a5,3
 176              	.LVL19:
 177 005a F581     		srli	a1,a1,29
 258:../src/platform/mpfs_hal/common/mss_mpu.c **** 
 178              		.loc 1 258 62
 179 005c D18E     		or	a3,a3,a2
 261:../src/platform/mpfs_hal/common/mss_mpu.c ****                                                         (lock_en << 0x7U));
 180              		.loc 1 261 78
 181 005e 5D8F     		or	a4,a4,a5
 182              	.LVL20:
 183 0060 1E08     		slli	a6,a6,7
 184              	.LVL21:
 185 0062 AA95     		add	a1,a0,a1
 258:../src/platform/mpfs_hal/common/mss_mpu.c **** 
 186              		.loc 1 258 71
 187 0064 8982     		srli	a3,a3,2
 261:../src/platform/mpfs_hal/common/mss_mpu.c ****                                                         (lock_en << 0x7U));
 188              		.loc 1 261 78
 189 0066 33670701 		or	a4,a4,a6
 258:../src/platform/mpfs_hal/common/mss_mpu.c **** 
 190              		.loc 1 258 54
 191 006a 94E1     		sd	a3,0(a1)
 260:../src/platform/mpfs_hal/common/mss_mpu.c ****                                               (uint8_t)(matching_mode << 3U) |
 192              		.loc 1 260 9 is_stmt 1
 260:../src/platform/mpfs_hal/common/mss_mpu.c ****                                               (uint8_t)(matching_mode << 3U) |
 193              		.loc 1 260 72 is_stmt 0
 194 006c 1377F70F 		andi	a4,a4,0xff
 260:../src/platform/mpfs_hal/common/mss_mpu.c ****                                               (uint8_t)(matching_mode << 3U) |
 195              		.loc 1 260 70
 196 0070 A383E500 		sb	a4,7(a1)
 264:../src/platform/mpfs_hal/common/mss_mpu.c ****     }
 197              		.loc 1 264 9 is_stmt 1
 264:../src/platform/mpfs_hal/common/mss_mpu.c ****     }
 198              		.loc 1 264 16 is_stmt 0
 199 0074 0143     		li	t1,0
 200              	.LVL22:
 201              	.L4:
 269:../src/platform/mpfs_hal/common/mss_mpu.c ****     }
 270:../src/platform/mpfs_hal/common/mss_mpu.c **** }
 202              		.loc 1 270 1
 203 0076 1A85     		mv	a0,t1
 204 0078 8280     		ret
 205              		.cfi_endproc
 206              	.LFE24:
 208              		.section	.text.MSS_MPU_get_config,"ax",@progbits
 209              		.align	1
 210              		.globl	MSS_MPU_get_config
 212              	MSS_MPU_get_config:
 213              	.LFB25:
 271:../src/platform/mpfs_hal/common/mss_mpu.c **** 
 272:../src/platform/mpfs_hal/common/mss_mpu.c **** uint8_t MSS_MPU_get_config(mss_mpu_mport_t master_port,
 273:../src/platform/mpfs_hal/common/mss_mpu.c ****                            mss_mpu_pmp_region_t pmp_region,
 274:../src/platform/mpfs_hal/common/mss_mpu.c ****                            uint64_t* base,
 275:../src/platform/mpfs_hal/common/mss_mpu.c ****                            uint64_t* size,
 276:../src/platform/mpfs_hal/common/mss_mpu.c ****                            uint8_t* permission,
 277:../src/platform/mpfs_hal/common/mss_mpu.c ****                            mss_mpu_addrm_t* matching_mode,
 278:../src/platform/mpfs_hal/common/mss_mpu.c ****                            uint8_t* lock_en)
 279:../src/platform/mpfs_hal/common/mss_mpu.c **** {
 214              		.loc 1 279 1 is_stmt 1
 215              		.cfi_startproc
 216              	.LVL23:
 280:../src/platform/mpfs_hal/common/mss_mpu.c ****     uint64_t reg;
 217              		.loc 1 280 5
 281:../src/platform/mpfs_hal/common/mss_mpu.c **** 
 282:../src/platform/mpfs_hal/common/mss_mpu.c ****     /*All AXI external masters dont have same number of PMP regions*/
 283:../src/platform/mpfs_hal/common/mss_mpu.c ****     if(pmp_region < num_pmp_lut[master_port])
 218              		.loc 1 283 5
 219              		.loc 1 283 32 is_stmt 0
 220 0000 13130502 		slli	t1,a0,32
 221 0004 13530302 		srli	t1,t1,32
 222 0008 97080000 		lla	a7,.LANCHOR10
 222      93880800 
 223 0010 9A98     		add	a7,a7,t1
 224              		.loc 1 283 7
 225 0012 83C80800 		lbu	a7,0(a7)
 226 0016 63F21509 		bleu	a7,a1,.L15
 284:../src/platform/mpfs_hal/common/mss_mpu.c ****     {
 285:../src/platform/mpfs_hal/common/mss_mpu.c ****         reg = MSS_MPU(master_port)->PMPCFG[pmp_region].MPUCFG_TypeDef.pmp;
 227              		.loc 1 285 9 is_stmt 1
 228              		.loc 1 285 15 is_stmt 0
 229 001a 1B158500 		slliw	a0,a0,8
 230              	.LVL24:
 231 001e 0215     		slli	a0,a0,32
 232              		.loc 1 285 70
 233 0020 8215     		slli	a1,a1,32
 234              	.LVL25:
 235              		.loc 1 285 15
 236 0022 B7580020 		li	a7,536891392
 237 0026 0191     		srli	a0,a0,32
 238              		.loc 1 285 70
 239 0028 8191     		srli	a1,a1,32
 240              		.loc 1 285 15
 241 002a 4695     		add	a0,a0,a7
 242              		.loc 1 285 70
 243 002c 93983500 		slli	a7,a1,3
 244 0030 AA98     		add	a7,a0,a7
 245 0032 03B30800 		ld	t1,0(a7)
 246 0036 FD58     		li	a7,-1
 247 0038 13DEA801 		srli	t3,a7,26
 248 003c 3373C301 		and	t1,t1,t3
 249              	.LVL26:
 286:../src/platform/mpfs_hal/common/mss_mpu.c ****         *base = pmp_get_napot_base_and_range(reg, size);
 250              		.loc 1 286 9 is_stmt 1
 251              	.LBB4:
 252              	.LBB5:
 287:../src/platform/mpfs_hal/common/mss_mpu.c **** 
 288:../src/platform/mpfs_hal/common/mss_mpu.c ****         reg = MSS_MPU(master_port)->PMPCFG[pmp_region].MPUCFG_TypeDef.mode;
 289:../src/platform/mpfs_hal/common/mss_mpu.c ****         *lock_en = ( reg >> 0x7U) & 0x1U;
 290:../src/platform/mpfs_hal/common/mss_mpu.c ****         *matching_mode = (mss_mpu_addrm_t)( (reg >> 3ULL) & 0x3U);
 291:../src/platform/mpfs_hal/common/mss_mpu.c ****         *permission = reg & 0x7U;
 292:../src/platform/mpfs_hal/common/mss_mpu.c **** 
 293:../src/platform/mpfs_hal/common/mss_mpu.c ****         return ((uint8_t)0);
 294:../src/platform/mpfs_hal/common/mss_mpu.c ****     }
 295:../src/platform/mpfs_hal/common/mss_mpu.c ****     else
 296:../src/platform/mpfs_hal/common/mss_mpu.c ****     {
 297:../src/platform/mpfs_hal/common/mss_mpu.c ****         return ((uint8_t)1);
 298:../src/platform/mpfs_hal/common/mss_mpu.c ****     }
 299:../src/platform/mpfs_hal/common/mss_mpu.c **** }
 300:../src/platform/mpfs_hal/common/mss_mpu.c **** 
 301:../src/platform/mpfs_hal/common/mss_mpu.c **** static uint64_t pmp_get_napot_base_and_range(uint64_t reg, uint64_t *range)
 302:../src/platform/mpfs_hal/common/mss_mpu.c **** {
 303:../src/platform/mpfs_hal/common/mss_mpu.c ****     /* construct a mask of all bits bar the top bit */
 304:../src/platform/mpfs_hal/common/mss_mpu.c ****     uint64_t mask = 0U;
 253              		.loc 1 304 5
 305:../src/platform/mpfs_hal/common/mss_mpu.c ****     uint64_t base = reg;
 254              		.loc 1 305 5
 306:../src/platform/mpfs_hal/common/mss_mpu.c ****     uint64_t numbits = (sizeof(uint64_t) * 8U) + 2U;
 255              		.loc 1 306 5
 307:../src/platform/mpfs_hal/common/mss_mpu.c ****     mask = (mask - 1U) >> 1U;
 256              		.loc 1 307 5
 308:../src/platform/mpfs_hal/common/mss_mpu.c **** 
 309:../src/platform/mpfs_hal/common/mss_mpu.c ****     while (mask)
 257              		.loc 1 309 5
 310:../src/platform/mpfs_hal/common/mss_mpu.c ****     {
 311:../src/platform/mpfs_hal/common/mss_mpu.c ****         if ((reg & mask) == mask)
 258              		.loc 1 311 9
 307:../src/platform/mpfs_hal/common/mss_mpu.c **** 
 259              		.loc 1 307 10 is_stmt 0
 260 0040 93D81800 		srli	a7,a7,1
 306:../src/platform/mpfs_hal/common/mss_mpu.c ****     mask = (mask - 1U) >> 1U;
 261              		.loc 1 306 14
 262 0044 130E2004 		li	t3,66
 309:../src/platform/mpfs_hal/common/mss_mpu.c ****     {
 263              		.loc 1 309 11
 264 0048 8D4E     		li	t4,3
 265              	.LVL27:
 266              	.L12:
 312:../src/platform/mpfs_hal/common/mss_mpu.c ****         {
 313:../src/platform/mpfs_hal/common/mss_mpu.c ****             /* this is the mask to use */
 314:../src/platform/mpfs_hal/common/mss_mpu.c ****             base = reg & ~mask;
 315:../src/platform/mpfs_hal/common/mss_mpu.c ****             break;
 316:../src/platform/mpfs_hal/common/mss_mpu.c ****         }
 317:../src/platform/mpfs_hal/common/mss_mpu.c ****         mask >>= 1U;
 267              		.loc 1 317 9 is_stmt 1
 318:../src/platform/mpfs_hal/common/mss_mpu.c ****         numbits--;
 268              		.loc 1 318 16 is_stmt 0
 269 004a 7D1E     		addi	t3,t3,-1
 270              	.LVL28:
 317:../src/platform/mpfs_hal/common/mss_mpu.c ****         numbits--;
 271              		.loc 1 317 14
 272 004c 93D81800 		srli	a7,a7,1
 273              	.LVL29:
 274              		.loc 1 318 9 is_stmt 1
 309:../src/platform/mpfs_hal/common/mss_mpu.c ****     {
 275              		.loc 1 309 11 is_stmt 0
 276 0050 630ADE01 		beq	t3,t4,.L13
 311:../src/platform/mpfs_hal/common/mss_mpu.c ****         {
 277              		.loc 1 311 9 is_stmt 1
 311:../src/platform/mpfs_hal/common/mss_mpu.c ****         {
 278              		.loc 1 311 18 is_stmt 0
 279 0054 337F1301 		and	t5,t1,a7
 311:../src/platform/mpfs_hal/common/mss_mpu.c ****         {
 280              		.loc 1 311 12
 281 0058 E3191FFF 		bne	t5,a7,.L12
 314:../src/platform/mpfs_hal/common/mss_mpu.c ****             break;
 282              		.loc 1 314 13 is_stmt 1
 314:../src/platform/mpfs_hal/common/mss_mpu.c ****             break;
 283              		.loc 1 314 26 is_stmt 0
 284 005c 93C8F8FF 		not	a7,a7
 285              	.LVL30:
 314:../src/platform/mpfs_hal/common/mss_mpu.c ****             break;
 286              		.loc 1 314 18
 287 0060 33731301 		and	t1,t1,a7
 288              	.LVL31:
 315:../src/platform/mpfs_hal/common/mss_mpu.c ****         }
 289              		.loc 1 315 13 is_stmt 1
 290              	.L13:
 319:../src/platform/mpfs_hal/common/mss_mpu.c ****     }
 320:../src/platform/mpfs_hal/common/mss_mpu.c **** 
 321:../src/platform/mpfs_hal/common/mss_mpu.c ****     *range = (1LU << numbits);
 291              		.loc 1 321 5
 292              		.loc 1 321 19 is_stmt 0
 293 0064 8548     		li	a7,1
 294 0066 339EC801 		sll	t3,a7,t3
 295              	.LVL32:
 296              		.loc 1 321 12
 297 006a 23B0C601 		sd	t3,0(a3)
 322:../src/platform/mpfs_hal/common/mss_mpu.c ****     return (base << 2U);
 298              		.loc 1 322 5 is_stmt 1
 299              	.LVL33:
 300              		.loc 1 322 18 is_stmt 0
 301 006e 0A03     		slli	t1,t1,2
 302              	.LBE5:
 303              	.LBE4:
 288:../src/platform/mpfs_hal/common/mss_mpu.c ****         *lock_en = ( reg >> 0x7U) & 0x1U;
 304              		.loc 1 288 70
 305 0070 8E05     		slli	a1,a1,3
 286:../src/platform/mpfs_hal/common/mss_mpu.c **** 
 306              		.loc 1 286 15
 307 0072 23306600 		sd	t1,0(a2)
 288:../src/platform/mpfs_hal/common/mss_mpu.c ****         *lock_en = ( reg >> 0x7U) & 0x1U;
 308              		.loc 1 288 9 is_stmt 1
 288:../src/platform/mpfs_hal/common/mss_mpu.c ****         *lock_en = ( reg >> 0x7U) & 0x1U;
 309              		.loc 1 288 70 is_stmt 0
 310 0076 2E95     		add	a0,a0,a1
 311 0078 83467500 		lbu	a3,7(a0)
 312              	.LVL34:
 293:../src/platform/mpfs_hal/common/mss_mpu.c ****     }
 313              		.loc 1 293 16
 314 007c 0145     		li	a0,0
 288:../src/platform/mpfs_hal/common/mss_mpu.c ****         *lock_en = ( reg >> 0x7U) & 0x1U;
 315              		.loc 1 288 70
 316 007e 93F6F60F 		andi	a3,a3,0xff
 317              	.LVL35:
 289:../src/platform/mpfs_hal/common/mss_mpu.c ****         *matching_mode = (mss_mpu_addrm_t)( (reg >> 3ULL) & 0x3U);
 318              		.loc 1 289 9 is_stmt 1
 289:../src/platform/mpfs_hal/common/mss_mpu.c ****         *matching_mode = (mss_mpu_addrm_t)( (reg >> 3ULL) & 0x3U);
 319              		.loc 1 289 26 is_stmt 0
 320 0082 13D67600 		srli	a2,a3,7
 321              	.LVL36:
 289:../src/platform/mpfs_hal/common/mss_mpu.c ****         *matching_mode = (mss_mpu_addrm_t)( (reg >> 3ULL) & 0x3U);
 322              		.loc 1 289 35
 323 0086 2300C800 		sb	a2,0(a6)
 290:../src/platform/mpfs_hal/common/mss_mpu.c ****         *permission = reg & 0x7U;
 324              		.loc 1 290 9 is_stmt 1
 290:../src/platform/mpfs_hal/common/mss_mpu.c ****         *permission = reg & 0x7U;
 325              		.loc 1 290 50 is_stmt 0
 326 008a 13D63600 		srli	a2,a3,3
 290:../src/platform/mpfs_hal/common/mss_mpu.c ****         *permission = reg & 0x7U;
 327              		.loc 1 290 59
 328 008e 0D8A     		andi	a2,a2,3
 290:../src/platform/mpfs_hal/common/mss_mpu.c ****         *permission = reg & 0x7U;
 329              		.loc 1 290 24
 330 0090 90C3     		sw	a2,0(a5)
 291:../src/platform/mpfs_hal/common/mss_mpu.c **** 
 331              		.loc 1 291 9 is_stmt 1
 291:../src/platform/mpfs_hal/common/mss_mpu.c **** 
 332              		.loc 1 291 27 is_stmt 0
 333 0092 9D8A     		andi	a3,a3,7
 334              	.LVL37:
 291:../src/platform/mpfs_hal/common/mss_mpu.c **** 
 335              		.loc 1 291 21
 336 0094 2300D700 		sb	a3,0(a4)
 293:../src/platform/mpfs_hal/common/mss_mpu.c ****     }
 337              		.loc 1 293 9 is_stmt 1
 293:../src/platform/mpfs_hal/common/mss_mpu.c ****     }
 338              		.loc 1 293 16 is_stmt 0
 339 0098 8280     		ret
 340              	.LVL38:
 341              	.L15:
 297:../src/platform/mpfs_hal/common/mss_mpu.c ****     }
 342              		.loc 1 297 16
 343 009a 0545     		li	a0,1
 344              	.LVL39:
 299:../src/platform/mpfs_hal/common/mss_mpu.c **** 
 345              		.loc 1 299 1
 346 009c 8280     		ret
 347              		.cfi_endproc
 348              	.LFE25:
 350              		.globl	mpu_trace_values
 351              		.globl	mpu_usb_values
 352              		.globl	mpu_scb_values
 353              		.globl	mpu_mmc_values
 354              		.globl	mpu_gem1_values
 355              		.globl	mpu_gem0_values
 356              		.globl	mpu_crypto_values
 357              		.globl	mpu_fic2_values
 358              		.globl	mpu_fic1_values
 359              		.globl	mpu_fic0_values
 360              		.globl	num_pmp_lut
 361              		.section	.data.num_pmp_lut,"aw"
 362              		.align	3
 363              		.set	.LANCHOR10,. + 0
 366              	num_pmp_lut:
 367 0000 10       		.byte	16
 368 0001 10       		.byte	16
 369 0002 08       		.byte	8
 370 0003 04       		.byte	4
 371 0004 08       		.byte	8
 372 0005 08       		.byte	8
 373 0006 04       		.byte	4
 374 0007 04       		.byte	4
 375 0008 08       		.byte	8
 376 0009 02       		.byte	2
 377              		.section	.rodata.mpu_crypto_values,"a"
 378              		.align	3
 379              		.set	.LANCHOR3,. + 0
 382              	mpu_crypto_values:
 383 0000 FFFFFFFF 		.dword	2233785483895242751
 383      0F00001F 
 384 0008 FFFFFFFF 		.dword	2233785483895242751
 384      0F00001F 
 385 0010 FFFFFFFF 		.dword	2233785483895242751
 385      0F00001F 
 386 0018 FFFFFFFF 		.dword	2233785483895242751
 386      0F00001F 
 387              		.section	.rodata.mpu_fic0_values,"a"
 388              		.align	3
 389              		.set	.LANCHOR0,. + 0
 392              	mpu_fic0_values:
 393 0000 FFFFFFFF 		.dword	2233785483895242751
 393      0F00001F 
 394 0008 FFFFFFFF 		.dword	2233785483895242751
 394      0F00001F 
 395 0010 FFFFFFFF 		.dword	2233785483895242751
 395      0F00001F 
 396 0018 FFFFFFFF 		.dword	2233785483895242751
 396      0F00001F 
 397 0020 FFFFFFFF 		.dword	2233785483895242751
 397      0F00001F 
 398 0028 FFFFFFFF 		.dword	2233785483895242751
 398      0F00001F 
 399 0030 FFFFFFFF 		.dword	2233785483895242751
 399      0F00001F 
 400 0038 FFFFFFFF 		.dword	2233785483895242751
 400      0F00001F 
 401 0040 FFFFFFFF 		.dword	2233785483895242751
 401      0F00001F 
 402 0048 FFFFFFFF 		.dword	2233785483895242751
 402      0F00001F 
 403 0050 FFFFFFFF 		.dword	2233785483895242751
 403      0F00001F 
 404 0058 FFFFFFFF 		.dword	2233785483895242751
 404      0F00001F 
 405 0060 FFFFFFFF 		.dword	2233785483895242751
 405      0F00001F 
 406 0068 FFFFFFFF 		.dword	2233785483895242751
 406      0F00001F 
 407 0070 FFFFFFFF 		.dword	2233785483895242751
 407      0F00001F 
 408 0078 FFFFFFFF 		.dword	2233785483895242751
 408      0F00001F 
 409              		.section	.rodata.mpu_fic1_values,"a"
 410              		.align	3
 411              		.set	.LANCHOR1,. + 0
 414              	mpu_fic1_values:
 415 0000 FFFFFFFF 		.dword	2233785483895242751
 415      0F00001F 
 416 0008 FFFFFFFF 		.dword	2233785483895242751
 416      0F00001F 
 417 0010 FFFFFFFF 		.dword	2233785483895242751
 417      0F00001F 
 418 0018 FFFFFFFF 		.dword	2233785483895242751
 418      0F00001F 
 419 0020 FFFFFFFF 		.dword	2233785483895242751
 419      0F00001F 
 420 0028 FFFFFFFF 		.dword	2233785483895242751
 420      0F00001F 
 421 0030 FFFFFFFF 		.dword	2233785483895242751
 421      0F00001F 
 422 0038 FFFFFFFF 		.dword	2233785483895242751
 422      0F00001F 
 423 0040 FFFFFFFF 		.dword	2233785483895242751
 423      0F00001F 
 424 0048 FFFFFFFF 		.dword	2233785483895242751
 424      0F00001F 
 425 0050 FFFFFFFF 		.dword	2233785483895242751
 425      0F00001F 
 426 0058 FFFFFFFF 		.dword	2233785483895242751
 426      0F00001F 
 427 0060 FFFFFFFF 		.dword	2233785483895242751
 427      0F00001F 
 428 0068 FFFFFFFF 		.dword	2233785483895242751
 428      0F00001F 
 429 0070 FFFFFFFF 		.dword	2233785483895242751
 429      0F00001F 
 430 0078 FFFFFFFF 		.dword	2233785483895242751
 430      0F00001F 
 431              		.section	.rodata.mpu_fic2_values,"a"
 432              		.align	3
 433              		.set	.LANCHOR2,. + 0
 436              	mpu_fic2_values:
 437 0000 FFFFFFFF 		.dword	2233785483895242751
 437      0F00001F 
 438 0008 FFFFFFFF 		.dword	2233785483895242751
 438      0F00001F 
 439 0010 FFFFFFFF 		.dword	2233785483895242751
 439      0F00001F 
 440 0018 FFFFFFFF 		.dword	2233785483895242751
 440      0F00001F 
 441 0020 FFFFFFFF 		.dword	2233785483895242751
 441      0F00001F 
 442 0028 FFFFFFFF 		.dword	2233785483895242751
 442      0F00001F 
 443 0030 FFFFFFFF 		.dword	2233785483895242751
 443      0F00001F 
 444 0038 FFFFFFFF 		.dword	2233785483895242751
 444      0F00001F 
 445              		.section	.rodata.mpu_gem0_values,"a"
 446              		.align	3
 447              		.set	.LANCHOR4,. + 0
 450              	mpu_gem0_values:
 451 0000 FFFFFFFF 		.dword	2233785483895242751
 451      0F00001F 
 452 0008 FFFFFFFF 		.dword	2233785483895242751
 452      0F00001F 
 453 0010 FFFFFFFF 		.dword	2233785483895242751
 453      0F00001F 
 454 0018 FFFFFFFF 		.dword	2233785483895242751
 454      0F00001F 
 455 0020 FFFFFFFF 		.dword	2233785483895242751
 455      0F00001F 
 456 0028 FFFFFFFF 		.dword	2233785483895242751
 456      0F00001F 
 457 0030 FFFFFFFF 		.dword	2233785483895242751
 457      0F00001F 
 458 0038 FFFFFFFF 		.dword	2233785483895242751
 458      0F00001F 
 459              		.section	.rodata.mpu_gem1_values,"a"
 460              		.align	3
 461              		.set	.LANCHOR5,. + 0
 464              	mpu_gem1_values:
 465 0000 FFFFFFFF 		.dword	2233785483895242751
 465      0F00001F 
 466 0008 FFFFFFFF 		.dword	2233785483895242751
 466      0F00001F 
 467 0010 FFFFFFFF 		.dword	2233785483895242751
 467      0F00001F 
 468 0018 FFFFFFFF 		.dword	2233785483895242751
 468      0F00001F 
 469 0020 FFFFFFFF 		.dword	2233785483895242751
 469      0F00001F 
 470 0028 FFFFFFFF 		.dword	2233785483895242751
 470      0F00001F 
 471 0030 FFFFFFFF 		.dword	2233785483895242751
 471      0F00001F 
 472 0038 FFFFFFFF 		.dword	2233785483895242751
 472      0F00001F 
 473              		.section	.rodata.mpu_mmc_values,"a"
 474              		.align	3
 475              		.set	.LANCHOR7,. + 0
 478              	mpu_mmc_values:
 479 0000 FFFFFFFF 		.dword	2233785483895242751
 479      0F00001F 
 480 0008 FFFFFFFF 		.dword	2233785483895242751
 480      0F00001F 
 481 0010 FFFFFFFF 		.dword	2233785483895242751
 481      0F00001F 
 482 0018 FFFFFFFF 		.dword	2233785483895242751
 482      0F00001F 
 483              		.section	.rodata.mpu_scb_values,"a"
 484              		.align	3
 485              		.set	.LANCHOR8,. + 0
 488              	mpu_scb_values:
 489 0000 FFFFFFFF 		.dword	2233785483895242751
 489      0F00001F 
 490 0008 FFFFFFFF 		.dword	2233785483895242751
 490      0F00001F 
 491 0010 FFFFFFFF 		.dword	2233785483895242751
 491      0F00001F 
 492 0018 FFFFFFFF 		.dword	2233785483895242751
 492      0F00001F 
 493 0020 FFFFFFFF 		.dword	2233785483895242751
 493      0F00001F 
 494 0028 FFFFFFFF 		.dword	2233785483895242751
 494      0F00001F 
 495 0030 FFFFFFFF 		.dword	2233785483895242751
 495      0F00001F 
 496 0038 FFFFFFFF 		.dword	2233785483895242751
 496      0F00001F 
 497              		.section	.rodata.mpu_trace_values,"a"
 498              		.align	3
 499              		.set	.LANCHOR9,. + 0
 502              	mpu_trace_values:
 503 0000 FFFFFFFF 		.dword	2233785483895242751
 503      0F00001F 
 504 0008 FFFFFFFF 		.dword	2233785483895242751
 504      0F00001F 
 505              		.section	.rodata.mpu_usb_values,"a"
 506              		.align	3
 507              		.set	.LANCHOR6,. + 0
 510              	mpu_usb_values:
 511 0000 FFFFFFFF 		.dword	2233785483895242751
 511      0F00001F 
 512 0008 FFFFFFFF 		.dword	2233785483895242751
 512      0F00001F 
 513 0010 FFFFFFFF 		.dword	2233785483895242751
 513      0F00001F 
 514 0018 FFFFFFFF 		.dword	2233785483895242751
 514      0F00001F 
 515              		.text
 516              	.Letext0:
 517              		.file 2 "/home/vinay/Desktop/soft_console/SoftConsole-v2022.2-RISC-V-747/riscv-unknown-elf-gcc/ris
 518              		.file 3 "/home/vinay/Desktop/soft_console/SoftConsole-v2022.2-RISC-V-747/riscv-unknown-elf-gcc/lib
 519              		.file 4 "/home/vinay/Desktop/soft_console/SoftConsole-v2022.2-RISC-V-747/riscv-unknown-elf-gcc/ris
 520              		.file 5 "/home/vinay/Desktop/soft_console/SoftConsole-v2022.2-RISC-V-747/riscv-unknown-elf-gcc/ris
 521              		.file 6 "/home/vinay/Desktop/soft_console/SoftConsole-v2022.2-RISC-V-747/riscv-unknown-elf-gcc/ris
 522              		.file 7 "/home/vinay/Desktop/soft_console/SoftConsole-v2022.2-RISC-V-747/riscv-unknown-elf-gcc/ris
 523              		.file 8 "/home/vinay/Desktop/softconsole_watershed/Water-shed/src/platform/mpfs_hal/common/nwc/mss
 524              		.file 9 "/home/vinay/Desktop/softconsole_watershed/Water-shed/src/platform/mpfs_hal/common/nwc/mss
 525              		.file 10 "/home/vinay/Desktop/softconsole_watershed/Water-shed/src/platform/mpfs_hal/common/nwc/ms
 526              		.file 11 "/home/vinay/Desktop/softconsole_watershed/Water-shed/src/platform/mpfs_hal/common/mss_mp
 527              		.file 12 "/home/vinay/Desktop/softconsole_watershed/Water-shed/src/platform/mpfs_hal/common/mss_pl
 528              		.file 13 "/home/vinay/Desktop/softconsole_watershed/Water-shed/src/platform/mpfs_hal/startup_gcc/s