   1              		.file	"mss_sgmii.c"
   2              		.option nopic
   3              		.attribute arch, "rv64i2p0_m2p0_a2p0_f2p0_d2p0_c2p0"
   4              		.attribute unaligned_access, 0
   5              		.attribute stack_align, 16
   6              		.text
   7              	.Ltext0:
   8              		.cfi_sections	.debug_frame
   9              		.section	.text.setup_sgmii_rpc_per_config,"ax",@progbits
  10              		.align	1
  12              	setup_sgmii_rpc_per_config:
  13              	.LFB25:
  14              		.file 1 "../src/platform/mpfs_hal/common/nwc/mss_sgmii.c"
   1:../src/platform/mpfs_hal/common/nwc/mss_sgmii.c **** /*******************************************************************************
   2:../src/platform/mpfs_hal/common/nwc/mss_sgmii.c ****  * Copyright 2019-2022 Microchip FPGA Embedded Systems Solutions.
   3:../src/platform/mpfs_hal/common/nwc/mss_sgmii.c ****  *
   4:../src/platform/mpfs_hal/common/nwc/mss_sgmii.c ****  * SPDX-License-Identifier: MIT
   5:../src/platform/mpfs_hal/common/nwc/mss_sgmii.c ****  *
   6:../src/platform/mpfs_hal/common/nwc/mss_sgmii.c ****  * MPFS HAL Embedded Software
   7:../src/platform/mpfs_hal/common/nwc/mss_sgmii.c ****  *
   8:../src/platform/mpfs_hal/common/nwc/mss_sgmii.c ****  */
   9:../src/platform/mpfs_hal/common/nwc/mss_sgmii.c **** 
  10:../src/platform/mpfs_hal/common/nwc/mss_sgmii.c **** /*******************************************************************************
  11:../src/platform/mpfs_hal/common/nwc/mss_sgmii.c ****  * @file mss_sgmii.c
  12:../src/platform/mpfs_hal/common/nwc/mss_sgmii.c ****  * @author Microchip-FPGA Embedded Systems Solutions
  13:../src/platform/mpfs_hal/common/nwc/mss_sgmii.c ****  * @brief sgmii related functions
  14:../src/platform/mpfs_hal/common/nwc/mss_sgmii.c ****  *
  15:../src/platform/mpfs_hal/common/nwc/mss_sgmii.c ****  */
  16:../src/platform/mpfs_hal/common/nwc/mss_sgmii.c **** 
  17:../src/platform/mpfs_hal/common/nwc/mss_sgmii.c **** #include <string.h>
  18:../src/platform/mpfs_hal/common/nwc/mss_sgmii.c **** #include <stdio.h>
  19:../src/platform/mpfs_hal/common/nwc/mss_sgmii.c **** #include "mpfs_hal/mss_hal.h"
  20:../src/platform/mpfs_hal/common/nwc/mss_sgmii.c **** #include "simulation.h"
  21:../src/platform/mpfs_hal/common/nwc/mss_sgmii.c **** 
  22:../src/platform/mpfs_hal/common/nwc/mss_sgmii.c **** #ifdef  MPFS_HAL_HW_CONFIG
  23:../src/platform/mpfs_hal/common/nwc/mss_sgmii.c **** 
  24:../src/platform/mpfs_hal/common/nwc/mss_sgmii.c **** static PART_TYPE silicon_variant = PART_NOT_DETERMINED;
  25:../src/platform/mpfs_hal/common/nwc/mss_sgmii.c **** 
  26:../src/platform/mpfs_hal/common/nwc/mss_sgmii.c **** /*
  27:../src/platform/mpfs_hal/common/nwc/mss_sgmii.c ****  * local functions
  28:../src/platform/mpfs_hal/common/nwc/mss_sgmii.c ****  */
  29:../src/platform/mpfs_hal/common/nwc/mss_sgmii.c **** static void setup_sgmii_rpc_per_config(void);
  30:../src/platform/mpfs_hal/common/nwc/mss_sgmii.c **** #ifdef SGMII_SUPPORT
  31:../src/platform/mpfs_hal/common/nwc/mss_sgmii.c **** static uint32_t sgmii_channel_setup(void);
  32:../src/platform/mpfs_hal/common/nwc/mss_sgmii.c **** #endif
  33:../src/platform/mpfs_hal/common/nwc/mss_sgmii.c **** 
  34:../src/platform/mpfs_hal/common/nwc/mss_sgmii.c **** /*
  35:../src/platform/mpfs_hal/common/nwc/mss_sgmii.c ****  * local variable
  36:../src/platform/mpfs_hal/common/nwc/mss_sgmii.c ****  */
  37:../src/platform/mpfs_hal/common/nwc/mss_sgmii.c **** static uint32_t sro_dll_90_code;
  38:../src/platform/mpfs_hal/common/nwc/mss_sgmii.c **** 
  39:../src/platform/mpfs_hal/common/nwc/mss_sgmii.c **** /*
  40:../src/platform/mpfs_hal/common/nwc/mss_sgmii.c ****  * local functions
  41:../src/platform/mpfs_hal/common/nwc/mss_sgmii.c ****  */
  42:../src/platform/mpfs_hal/common/nwc/mss_sgmii.c **** static void set_early_late_thresholds(uint8_t n_late_threshold, uint8_t p_early_threshold);
  43:../src/platform/mpfs_hal/common/nwc/mss_sgmii.c **** 
  44:../src/platform/mpfs_hal/common/nwc/mss_sgmii.c **** /*
  45:../src/platform/mpfs_hal/common/nwc/mss_sgmii.c ****  * extern functions
  46:../src/platform/mpfs_hal/common/nwc/mss_sgmii.c ****  */
  47:../src/platform/mpfs_hal/common/nwc/mss_sgmii.c **** extern void sgmii_mux_config(uint8_t option);
  48:../src/platform/mpfs_hal/common/nwc/mss_sgmii.c **** 
  49:../src/platform/mpfs_hal/common/nwc/mss_sgmii.c **** 
  50:../src/platform/mpfs_hal/common/nwc/mss_sgmii.c **** uint32_t sgmii_setup(void)
  51:../src/platform/mpfs_hal/common/nwc/mss_sgmii.c **** {
  52:../src/platform/mpfs_hal/common/nwc/mss_sgmii.c **** #ifdef SGMII_SUPPORT
  53:../src/platform/mpfs_hal/common/nwc/mss_sgmii.c ****     /*
  54:../src/platform/mpfs_hal/common/nwc/mss_sgmii.c ****      * Check if any tx/Rx channels enabled
  55:../src/platform/mpfs_hal/common/nwc/mss_sgmii.c ****      */
  56:../src/platform/mpfs_hal/common/nwc/mss_sgmii.c ****     if((LIBERO_SETTING_SGMII_MODE & (TX_RX_CH_EN_MASK<<TX_RX_CH_EN_OFFSET)) != 0U)
  57:../src/platform/mpfs_hal/common/nwc/mss_sgmii.c ****     {
  58:../src/platform/mpfs_hal/common/nwc/mss_sgmii.c ****         while (sgmii_channel_setup() != 0)
  59:../src/platform/mpfs_hal/common/nwc/mss_sgmii.c ****         {
  60:../src/platform/mpfs_hal/common/nwc/mss_sgmii.c **** 
  61:../src/platform/mpfs_hal/common/nwc/mss_sgmii.c ****         }
  62:../src/platform/mpfs_hal/common/nwc/mss_sgmii.c ****     }
  63:../src/platform/mpfs_hal/common/nwc/mss_sgmii.c ****     else
  64:../src/platform/mpfs_hal/common/nwc/mss_sgmii.c ****     {
  65:../src/platform/mpfs_hal/common/nwc/mss_sgmii.c ****         sgmii_off_mode();
  66:../src/platform/mpfs_hal/common/nwc/mss_sgmii.c ****         sgmii_mux_config(RPC_REG_UPDATE);
  67:../src/platform/mpfs_hal/common/nwc/mss_sgmii.c ****     }
  68:../src/platform/mpfs_hal/common/nwc/mss_sgmii.c **** #else
  69:../src/platform/mpfs_hal/common/nwc/mss_sgmii.c ****     {
  70:../src/platform/mpfs_hal/common/nwc/mss_sgmii.c ****         sgmii_off_mode();
  71:../src/platform/mpfs_hal/common/nwc/mss_sgmii.c ****         sgmii_mux_config(RPC_REG_UPDATE);
  72:../src/platform/mpfs_hal/common/nwc/mss_sgmii.c ****     }
  73:../src/platform/mpfs_hal/common/nwc/mss_sgmii.c **** #endif
  74:../src/platform/mpfs_hal/common/nwc/mss_sgmii.c ****     return(0UL);
  75:../src/platform/mpfs_hal/common/nwc/mss_sgmii.c **** }
  76:../src/platform/mpfs_hal/common/nwc/mss_sgmii.c **** 
  77:../src/platform/mpfs_hal/common/nwc/mss_sgmii.c **** 
  78:../src/platform/mpfs_hal/common/nwc/mss_sgmii.c **** /**
  79:../src/platform/mpfs_hal/common/nwc/mss_sgmii.c ****  *
  80:../src/platform/mpfs_hal/common/nwc/mss_sgmii.c ****  * @param sgmii_instruction
  81:../src/platform/mpfs_hal/common/nwc/mss_sgmii.c ****  * @return
  82:../src/platform/mpfs_hal/common/nwc/mss_sgmii.c ****  */
  83:../src/platform/mpfs_hal/common/nwc/mss_sgmii.c **** #ifdef SGMII_SUPPORT
  84:../src/platform/mpfs_hal/common/nwc/mss_sgmii.c **** static uint32_t sgmii_channel_setup(void)
  85:../src/platform/mpfs_hal/common/nwc/mss_sgmii.c **** {
  86:../src/platform/mpfs_hal/common/nwc/mss_sgmii.c ****     static SGMII_TRAINING_SM sgmii_training_state = SGMII_SETUP_INIT;
  87:../src/platform/mpfs_hal/common/nwc/mss_sgmii.c ****     static uint32_t status = SGMII_IN_SETUP;
  88:../src/platform/mpfs_hal/common/nwc/mss_sgmii.c ****     static uint32_t timer_out;
  89:../src/platform/mpfs_hal/common/nwc/mss_sgmii.c **** 
  90:../src/platform/mpfs_hal/common/nwc/mss_sgmii.c ****     /*
  91:../src/platform/mpfs_hal/common/nwc/mss_sgmii.c ****      * Initialise NWC
  92:../src/platform/mpfs_hal/common/nwc/mss_sgmii.c ****      *      Clocks
  93:../src/platform/mpfs_hal/common/nwc/mss_sgmii.c ****      *      SGMII
  94:../src/platform/mpfs_hal/common/nwc/mss_sgmii.c ****      *      DDR
  95:../src/platform/mpfs_hal/common/nwc/mss_sgmii.c ****      *      IOMUX
  96:../src/platform/mpfs_hal/common/nwc/mss_sgmii.c ****      */
  97:../src/platform/mpfs_hal/common/nwc/mss_sgmii.c **** 
  98:../src/platform/mpfs_hal/common/nwc/mss_sgmii.c ****     switch(sgmii_training_state)
  99:../src/platform/mpfs_hal/common/nwc/mss_sgmii.c ****     {
 100:../src/platform/mpfs_hal/common/nwc/mss_sgmii.c ****         case SGMII_SETUP_INIT:
 101:../src/platform/mpfs_hal/common/nwc/mss_sgmii.c ****             status = SGMII_IN_SETUP;
 102:../src/platform/mpfs_hal/common/nwc/mss_sgmii.c ****             CFG_DDR_SGMII_PHY->SOFT_RESET_SGMII.SOFT_RESET_SGMII = \
 103:../src/platform/mpfs_hal/common/nwc/mss_sgmii.c ****                     (0x01 << 8U) | 1U; /* PERIPH   soft reset */
 104:../src/platform/mpfs_hal/common/nwc/mss_sgmii.c ****             CFG_DDR_SGMII_PHY->SOFT_RESET_SGMII.SOFT_RESET_SGMII = 1U;
 105:../src/platform/mpfs_hal/common/nwc/mss_sgmii.c ****             setup_sgmii_rpc_per_config();         /* load RPC SGMII_MODE register ext */
 106:../src/platform/mpfs_hal/common/nwc/mss_sgmii.c **** 
 107:../src/platform/mpfs_hal/common/nwc/mss_sgmii.c ****             /* Enable the Bank controller */
 108:../src/platform/mpfs_hal/common/nwc/mss_sgmii.c ****             /*
 109:../src/platform/mpfs_hal/common/nwc/mss_sgmii.c ****              * Set soft reset on IP to load RPC to SCB regs (dynamic mode)
 110:../src/platform/mpfs_hal/common/nwc/mss_sgmii.c ****              * Bring the sgmii bank controller out of reset =- ioscb_bank_ctrl_sgmii
 111:../src/platform/mpfs_hal/common/nwc/mss_sgmii.c ****              */
 112:../src/platform/mpfs_hal/common/nwc/mss_sgmii.c ****             IOSCB_BANK_CNTL_SGMII->soft_reset = 1U;  /* DPC_BITS NV_MAP  reset */
 113:../src/platform/mpfs_hal/common/nwc/mss_sgmii.c ****             sgmii_training_state = SGMII_IO_EN;
 114:../src/platform/mpfs_hal/common/nwc/mss_sgmii.c ****             break;
 115:../src/platform/mpfs_hal/common/nwc/mss_sgmii.c **** 
 116:../src/platform/mpfs_hal/common/nwc/mss_sgmii.c ****         case SGMII_IO_EN:
 117:../src/platform/mpfs_hal/common/nwc/mss_sgmii.c ****             /*
 118:../src/platform/mpfs_hal/common/nwc/mss_sgmii.c ****              * Check the IO_EN signal here.
 119:../src/platform/mpfs_hal/common/nwc/mss_sgmii.c ****              * This is an output from the bank controller power detector, which are
 120:../src/platform/mpfs_hal/common/nwc/mss_sgmii.c ****              * turned on using MSS_IO_EN
 121:../src/platform/mpfs_hal/common/nwc/mss_sgmii.c ****              */
 122:../src/platform/mpfs_hal/common/nwc/mss_sgmii.c ****             /* aro_ioen_bnk  - PVT calibrator IOEN  */
 123:../src/platform/mpfs_hal/common/nwc/mss_sgmii.c ****             timer_out++;
 124:../src/platform/mpfs_hal/common/nwc/mss_sgmii.c ****             if((CFG_DDR_SGMII_PHY->PVT_STAT.PVT_STAT & (0x01U<<6U)) != 0U)
 125:../src/platform/mpfs_hal/common/nwc/mss_sgmii.c ****             {
 126:../src/platform/mpfs_hal/common/nwc/mss_sgmii.c ****                 timer_out=0U;
 127:../src/platform/mpfs_hal/common/nwc/mss_sgmii.c ****                 sgmii_training_state = SGMII_RAMP_TIMER;
 128:../src/platform/mpfs_hal/common/nwc/mss_sgmii.c ****             }
 129:../src/platform/mpfs_hal/common/nwc/mss_sgmii.c ****             break;
 130:../src/platform/mpfs_hal/common/nwc/mss_sgmii.c **** 
 131:../src/platform/mpfs_hal/common/nwc/mss_sgmii.c ****         case SGMII_RAMP_TIMER:
 132:../src/platform/mpfs_hal/common/nwc/mss_sgmii.c ****             /*
 133:../src/platform/mpfs_hal/common/nwc/mss_sgmii.c ****              * IO power ramp wait time
 134:../src/platform/mpfs_hal/common/nwc/mss_sgmii.c ****              * After IOEN is received from power detectors DDR and SGMii, extra time
 135:../src/platform/mpfs_hal/common/nwc/mss_sgmii.c ****              * required for voltage to ramp.
 136:../src/platform/mpfs_hal/common/nwc/mss_sgmii.c ****              * This time will come from the user- Dependent on ramp time of power
 137:../src/platform/mpfs_hal/common/nwc/mss_sgmii.c ****              * supply
 138:../src/platform/mpfs_hal/common/nwc/mss_sgmii.c ****              * Approximately - Bank power timer (from ioen_in to ioen_out = 10uS)?
 139:../src/platform/mpfs_hal/common/nwc/mss_sgmii.c ****              *
 140:../src/platform/mpfs_hal/common/nwc/mss_sgmii.c ****              */
 141:../src/platform/mpfs_hal/common/nwc/mss_sgmii.c ****             timer_out++;
 142:../src/platform/mpfs_hal/common/nwc/mss_sgmii.c ****             if(timer_out >= 0xFU)
 143:../src/platform/mpfs_hal/common/nwc/mss_sgmii.c ****             {
 144:../src/platform/mpfs_hal/common/nwc/mss_sgmii.c ****                 timer_out=0U;
 145:../src/platform/mpfs_hal/common/nwc/mss_sgmii.c ****                 sgmii_training_state = SGMII_IO_SETUP;
 146:../src/platform/mpfs_hal/common/nwc/mss_sgmii.c ****             }
 147:../src/platform/mpfs_hal/common/nwc/mss_sgmii.c ****             break;
 148:../src/platform/mpfs_hal/common/nwc/mss_sgmii.c **** 
 149:../src/platform/mpfs_hal/common/nwc/mss_sgmii.c ****         case SGMII_IO_SETUP:
 150:../src/platform/mpfs_hal/common/nwc/mss_sgmii.c ****             /*
 151:../src/platform/mpfs_hal/common/nwc/mss_sgmii.c ****              * fixme- not sure if we should be setting this register
 152:../src/platform/mpfs_hal/common/nwc/mss_sgmii.c ****              * From regmap detail:
 153:../src/platform/mpfs_hal/common/nwc/mss_sgmii.c ****              * bit 8 of MSS_RESET_CR
 154:../src/platform/mpfs_hal/common/nwc/mss_sgmii.c ****              * Asserts a reset the SGMII block containing the MSS reference clock
 155:../src/platform/mpfs_hal/common/nwc/mss_sgmii.c ****              * input.
 156:../src/platform/mpfs_hal/common/nwc/mss_sgmii.c ****              * Warning that setting this bit causes the external reference clock
 157:../src/platform/mpfs_hal/common/nwc/mss_sgmii.c ****              * input to the
 158:../src/platform/mpfs_hal/common/nwc/mss_sgmii.c ****              * MSS PLL to disappear.
 159:../src/platform/mpfs_hal/common/nwc/mss_sgmii.c ****              * It is advisable to use the SGMII channel soft resets in the PHY
 160:../src/platform/mpfs_hal/common/nwc/mss_sgmii.c ****              * instead of this bit.
 161:../src/platform/mpfs_hal/common/nwc/mss_sgmii.c ****              * However if E51 software wants to set this bit, the MSS clock source
 162:../src/platform/mpfs_hal/common/nwc/mss_sgmii.c ****              * should be switched over to the standby source in advance.
 163:../src/platform/mpfs_hal/common/nwc/mss_sgmii.c ****              */
 164:../src/platform/mpfs_hal/common/nwc/mss_sgmii.c ****             SCB_REGS->MSS_RESET_CR.MSS_RESET_CR = 0;
 165:../src/platform/mpfs_hal/common/nwc/mss_sgmii.c **** 
 166:../src/platform/mpfs_hal/common/nwc/mss_sgmii.c ****             /*
 167:../src/platform/mpfs_hal/common/nwc/mss_sgmii.c ****              * I ran the sim past the place where we set the nvmap_reset in the
 168:../src/platform/mpfs_hal/common/nwc/mss_sgmii.c ****              * SOFT_RESET_SGMII register and it did not result in any
 169:../src/platform/mpfs_hal/common/nwc/mss_sgmii.c ****              * change from the DLL default bits.
 170:../src/platform/mpfs_hal/common/nwc/mss_sgmii.c ****              * But I traced the 'flashing' signal on one of these regs back to
 171:../src/platform/mpfs_hal/common/nwc/mss_sgmii.c ****              * 'dll0_soft_reset_nv_map' (not 'pll0_soft_reset_periph').
 172:../src/platform/mpfs_hal/common/nwc/mss_sgmii.c ****              * Now the only place I can find 'dll0_soft_reset_nv_map' is in SCB
 173:../src/platform/mpfs_hal/common/nwc/mss_sgmii.c ****              * space...ie 0x3e10_0000 SOFT_RESET register.
 174:../src/platform/mpfs_hal/common/nwc/mss_sgmii.c ****              *
 175:../src/platform/mpfs_hal/common/nwc/mss_sgmii.c ****              */
 176:../src/platform/mpfs_hal/common/nwc/mss_sgmii.c ****             /*
 177:../src/platform/mpfs_hal/common/nwc/mss_sgmii.c ****              * so we have to use scb register to reset as no APB register available
 178:../src/platform/mpfs_hal/common/nwc/mss_sgmii.c ****              * to soft reset the IP
 179:../src/platform/mpfs_hal/common/nwc/mss_sgmii.c ****              * ioscb_dll_sgmii
 180:../src/platform/mpfs_hal/common/nwc/mss_sgmii.c ****              * */
 181:../src/platform/mpfs_hal/common/nwc/mss_sgmii.c ****             IOSCB_DLL_SGMII->soft_reset = (0x01U << 0x00U);  /*  reset sgmii DLL */
 182:../src/platform/mpfs_hal/common/nwc/mss_sgmii.c **** 
 183:../src/platform/mpfs_hal/common/nwc/mss_sgmii.c ****             /*
 184:../src/platform/mpfs_hal/common/nwc/mss_sgmii.c ****               * I have discovered the problem with the tx channels (soft reset issue)
 185:../src/platform/mpfs_hal/common/nwc/mss_sgmii.c ****               * So we require the:
 186:../src/platform/mpfs_hal/common/nwc/mss_sgmii.c ****               *
 187:../src/platform/mpfs_hal/common/nwc/mss_sgmii.c ****               * sgmiiphy_lane 01 soft-reset register (0x3650_0000) to be written to
 188:../src/platform/mpfs_hal/common/nwc/mss_sgmii.c ****               * with 0x1 (to set the nv_map bit[0] =1 (self clears))
 189:../src/platform/mpfs_hal/common/nwc/mss_sgmii.c ****               * same for sgmiiphy_lane 23 soft-reset register (0x3651_0000).
 190:../src/platform/mpfs_hal/common/nwc/mss_sgmii.c ****               *
 191:../src/platform/mpfs_hal/common/nwc/mss_sgmii.c ****               * This will result in the rpc bits for the Lane controls to get loaded.
 192:../src/platform/mpfs_hal/common/nwc/mss_sgmii.c ****               * Not happening currently.
 193:../src/platform/mpfs_hal/common/nwc/mss_sgmii.c ****               *
 194:../src/platform/mpfs_hal/common/nwc/mss_sgmii.c ****               * The soft_reset_sgmii occurs in the mss_ddr.c line 436, so I suppose
 195:../src/platform/mpfs_hal/common/nwc/mss_sgmii.c ****               * we put the 2 new soft reset writes after that.
 196:../src/platform/mpfs_hal/common/nwc/mss_sgmii.c ****               *
 197:../src/platform/mpfs_hal/common/nwc/mss_sgmii.c ****               */
 198:../src/platform/mpfs_hal/common/nwc/mss_sgmii.c ****             {
 199:../src/platform/mpfs_hal/common/nwc/mss_sgmii.c ****                 /* sgmiiphy_lane 01 soft-reset register (0x3650_0000) */
 200:../src/platform/mpfs_hal/common/nwc/mss_sgmii.c ****                 SGMIIPHY_LANE01->soft_reset = 0x000000001U;
 201:../src/platform/mpfs_hal/common/nwc/mss_sgmii.c ****                 /* sgmiiphy_lane 23 soft-reset register (0x3650_0000) */
 202:../src/platform/mpfs_hal/common/nwc/mss_sgmii.c ****                 SGMIIPHY_LANE23->soft_reset = 0x000000001U;
 203:../src/platform/mpfs_hal/common/nwc/mss_sgmii.c ****             }
 204:../src/platform/mpfs_hal/common/nwc/mss_sgmii.c **** 
 205:../src/platform/mpfs_hal/common/nwc/mss_sgmii.c ****             /*
 206:../src/platform/mpfs_hal/common/nwc/mss_sgmii.c ****              * Kick-off calibration, by taking calibration IP out of reset
 207:../src/platform/mpfs_hal/common/nwc/mss_sgmii.c ****              */
 208:../src/platform/mpfs_hal/common/nwc/mss_sgmii.c ****             /*
 209:../src/platform/mpfs_hal/common/nwc/mss_sgmii.c ****              * Soft reset
 210:../src/platform/mpfs_hal/common/nwc/mss_sgmii.c ****              */
 211:../src/platform/mpfs_hal/common/nwc/mss_sgmii.c ****             {
 212:../src/platform/mpfs_hal/common/nwc/mss_sgmii.c ****                 /* PVT soft reset - APB*/
 213:../src/platform/mpfs_hal/common/nwc/mss_sgmii.c ****                 /* reg_pvt_soft_reset_periph  */
 214:../src/platform/mpfs_hal/common/nwc/mss_sgmii.c ****                 CFG_DDR_SGMII_PHY->DYN_CNTL.DYN_CNTL        = (0x01U<< 10U) | (0x7FU<<0U);
 215:../src/platform/mpfs_hal/common/nwc/mss_sgmii.c ****                 /* reg_pvt_soft_reset_periph  */
 216:../src/platform/mpfs_hal/common/nwc/mss_sgmii.c ****                 CFG_DDR_SGMII_PHY->DYN_CNTL.DYN_CNTL        = (0x7FU<<0U);
 217:../src/platform/mpfs_hal/common/nwc/mss_sgmii.c ****                 /* PVT soft reset - SCB */
 218:../src/platform/mpfs_hal/common/nwc/mss_sgmii.c ****                 /* make sure out of reset */
 219:../src/platform/mpfs_hal/common/nwc/mss_sgmii.c ****                 IOSCB_IO_CALIB_SGMII->SOFT_RESET_IOCALIB    = 0x1U;
 220:../src/platform/mpfs_hal/common/nwc/mss_sgmii.c ****                 /* make sure out of reset */
 221:../src/platform/mpfs_hal/common/nwc/mss_sgmii.c ****                 IOSCB_IO_CALIB_SGMII->SOFT_RESET_IOCALIB    = 0x0U;
 222:../src/platform/mpfs_hal/common/nwc/mss_sgmii.c ****             }
 223:../src/platform/mpfs_hal/common/nwc/mss_sgmii.c ****             sgmii_training_state = SGMII_WAIT_FOR_CALIB_COMPLETE;
 224:../src/platform/mpfs_hal/common/nwc/mss_sgmii.c ****             break;
 225:../src/platform/mpfs_hal/common/nwc/mss_sgmii.c **** 
 226:../src/platform/mpfs_hal/common/nwc/mss_sgmii.c ****         case SGMII_WAIT_FOR_CALIB_COMPLETE:
 227:../src/platform/mpfs_hal/common/nwc/mss_sgmii.c ****             /*
 228:../src/platform/mpfs_hal/common/nwc/mss_sgmii.c ****              * Verify calibration
 229:../src/platform/mpfs_hal/common/nwc/mss_sgmii.c ****              * Bank 5 PVT calibrator can be controlled by MSS firmware through APB
 230:../src/platform/mpfs_hal/common/nwc/mss_sgmii.c ****              * registers to do initial calibration and re-calibration. During startup,
 231:../src/platform/mpfs_hal/common/nwc/mss_sgmii.c ****              * the initial calibration can be started by default when MSS releases SGMII
 232:../src/platform/mpfs_hal/common/nwc/mss_sgmii.c ****              * reset. Re-calibration is enabled by default with reg_pvt_calib_start/lock
 233:../src/platform/mpfs_hal/common/nwc/mss_sgmii.c ****              * bits being set to 1 before startup, and MSS firmware can start
 234:../src/platform/mpfs_hal/common/nwc/mss_sgmii.c ****              * re-calibration after startup by toggling  pvt_calib_start/lock bits per
 235:../src/platform/mpfs_hal/common/nwc/mss_sgmii.c ****              * PVT calibrator spec.
 236:../src/platform/mpfs_hal/common/nwc/mss_sgmii.c ****              *
 237:../src/platform/mpfs_hal/common/nwc/mss_sgmii.c ****              */
 238:../src/platform/mpfs_hal/common/nwc/mss_sgmii.c ****             if((CFG_DDR_SGMII_PHY->PVT_STAT.PVT_STAT & (1U << 14U)) == (1U << 14U))
 239:../src/platform/mpfs_hal/common/nwc/mss_sgmii.c ****             {
 240:../src/platform/mpfs_hal/common/nwc/mss_sgmii.c ****                 sgmii_training_state = SGMII_ASSERT_CALIB_LOCK;
 241:../src/platform/mpfs_hal/common/nwc/mss_sgmii.c ****             }
 242:../src/platform/mpfs_hal/common/nwc/mss_sgmii.c ****             break;
 243:../src/platform/mpfs_hal/common/nwc/mss_sgmii.c **** 
 244:../src/platform/mpfs_hal/common/nwc/mss_sgmii.c ****         case SGMII_ASSERT_CALIB_LOCK:
 245:../src/platform/mpfs_hal/common/nwc/mss_sgmii.c ****             /*
 246:../src/platform/mpfs_hal/common/nwc/mss_sgmii.c ****              * now assert calib lock
 247:../src/platform/mpfs_hal/common/nwc/mss_sgmii.c ****              *    calibrated pcode and ncode will be written.
 248:../src/platform/mpfs_hal/common/nwc/mss_sgmii.c ****              * */
 249:../src/platform/mpfs_hal/common/nwc/mss_sgmii.c **** 
 250:../src/platform/mpfs_hal/common/nwc/mss_sgmii.c ****             CFG_DDR_SGMII_PHY->PVT_STAT.PVT_STAT |= 0x40000000UL;
 251:../src/platform/mpfs_hal/common/nwc/mss_sgmii.c ****             IOSCB_IO_CALIB_SGMII->IOC_REG0       |= (0x01U<<14U);
 252:../src/platform/mpfs_hal/common/nwc/mss_sgmii.c ****             sgmii_training_state = SGMII_SET_UP_PLL;
 253:../src/platform/mpfs_hal/common/nwc/mss_sgmii.c ****             break;
 254:../src/platform/mpfs_hal/common/nwc/mss_sgmii.c **** 
 255:../src/platform/mpfs_hal/common/nwc/mss_sgmii.c ****         case SGMII_SET_UP_PLL:
 256:../src/platform/mpfs_hal/common/nwc/mss_sgmii.c ****             /*
 257:../src/platform/mpfs_hal/common/nwc/mss_sgmii.c ****               * SGMii Step 3)   Wait for PLL and DLL lock
 258:../src/platform/mpfs_hal/common/nwc/mss_sgmii.c ****               * Delay codes generated
 259:../src/platform/mpfs_hal/common/nwc/mss_sgmii.c ****               */
 260:../src/platform/mpfs_hal/common/nwc/mss_sgmii.c **** 
 261:../src/platform/mpfs_hal/common/nwc/mss_sgmii.c ****             /* 0U => configure using scb, 1U => NVMAP reset */
 262:../src/platform/mpfs_hal/common/nwc/mss_sgmii.c ****             sgmii_mux_config(RPC_REG_UPDATE);
 263:../src/platform/mpfs_hal/common/nwc/mss_sgmii.c ****             /* 0U => configure using scb, 1U => NVMAP reset */
 264:../src/platform/mpfs_hal/common/nwc/mss_sgmii.c ****             sgmii_pll_config_scb(RPC_REG_UPDATE);
 265:../src/platform/mpfs_hal/common/nwc/mss_sgmii.c **** 
 266:../src/platform/mpfs_hal/common/nwc/mss_sgmii.c ****             timer_out=0U;
 267:../src/platform/mpfs_hal/common/nwc/mss_sgmii.c ****             sgmii_training_state = SGMII_WAIT_FOR_MSS_LOCK;
 268:../src/platform/mpfs_hal/common/nwc/mss_sgmii.c ****             break;
 269:../src/platform/mpfs_hal/common/nwc/mss_sgmii.c **** 
 270:../src/platform/mpfs_hal/common/nwc/mss_sgmii.c ****         case SGMII_WAIT_FOR_MSS_LOCK:
 271:../src/platform/mpfs_hal/common/nwc/mss_sgmii.c ****             if (CFG_DDR_SGMII_PHY->PLL_CNTL.PLL_CNTL & (1U<<7U))
 272:../src/platform/mpfs_hal/common/nwc/mss_sgmii.c ****             {
 273:../src/platform/mpfs_hal/common/nwc/mss_sgmii.c ****                 sgmii_training_state = SGMII_WAIT_FOR_DLL_LOCK;
 274:../src/platform/mpfs_hal/common/nwc/mss_sgmii.c ****             }
 275:../src/platform/mpfs_hal/common/nwc/mss_sgmii.c ****             break;
 276:../src/platform/mpfs_hal/common/nwc/mss_sgmii.c **** 
 277:../src/platform/mpfs_hal/common/nwc/mss_sgmii.c ****         case SGMII_WAIT_FOR_DLL_LOCK:
 278:../src/platform/mpfs_hal/common/nwc/mss_sgmii.c ****             if (CFG_DDR_SGMII_PHY->RECAL_CNTL.RECAL_CNTL & (1U<<23U))
 279:../src/platform/mpfs_hal/common/nwc/mss_sgmii.c ****             {
 280:../src/platform/mpfs_hal/common/nwc/mss_sgmii.c ****                 sgmii_training_state = SGMII_TURN_ON_MACS;
 281:../src/platform/mpfs_hal/common/nwc/mss_sgmii.c ****             }
 282:../src/platform/mpfs_hal/common/nwc/mss_sgmii.c ****             break;
 283:../src/platform/mpfs_hal/common/nwc/mss_sgmii.c **** 
 284:../src/platform/mpfs_hal/common/nwc/mss_sgmii.c ****         case SGMII_TURN_ON_MACS:
 285:../src/platform/mpfs_hal/common/nwc/mss_sgmii.c ****             /*
 286:../src/platform/mpfs_hal/common/nwc/mss_sgmii.c ****              * Provide mac clocks
 287:../src/platform/mpfs_hal/common/nwc/mss_sgmii.c ****              * The nw_config register for mac0 (0x2011_0004): I am forcing 'gigabit' and
 288:../src/platform/mpfs_hal/common/nwc/mss_sgmii.c ****              * 'tbi' bits = 11.
 289:../src/platform/mpfs_hal/common/nwc/mss_sgmii.c ****              * The same for Mac1.
 290:../src/platform/mpfs_hal/common/nwc/mss_sgmii.c ****              * This starts up the tx_mac_clocks for the 2 macs.
 291:../src/platform/mpfs_hal/common/nwc/mss_sgmii.c ****              *
 292:../src/platform/mpfs_hal/common/nwc/mss_sgmii.c ****              */
 293:../src/platform/mpfs_hal/common/nwc/mss_sgmii.c ****             /* the mac clocks need to be turned on when setting up the sgmii */
 294:../src/platform/mpfs_hal/common/nwc/mss_sgmii.c ****             (void)mss_config_clk_rst(MSS_PERIPH_MAC0, (uint8_t) MPFS_HAL_FIRST_HART, PERIPHERAL_ON)
 295:../src/platform/mpfs_hal/common/nwc/mss_sgmii.c ****             (void)mss_config_clk_rst(MSS_PERIPH_MAC0, (uint8_t) MPFS_HAL_FIRST_HART, PERIPHERAL_ON)
 296:../src/platform/mpfs_hal/common/nwc/mss_sgmii.c ****             GEM_A_LO->network_config |= (0x01U << 10U) | (0x01U << 11U);   /* GEM0 */
 297:../src/platform/mpfs_hal/common/nwc/mss_sgmii.c ****             GEM_B_LO->network_config |= (0x01U << 10U) | (0x01U << 11U);   /* GEM1 */
 298:../src/platform/mpfs_hal/common/nwc/mss_sgmii.c ****             sgmii_training_state = SGMII_DETERMINE_SILICON_VARIANT;
 299:../src/platform/mpfs_hal/common/nwc/mss_sgmii.c ****             break;
 300:../src/platform/mpfs_hal/common/nwc/mss_sgmii.c **** 
 301:../src/platform/mpfs_hal/common/nwc/mss_sgmii.c ****         case SGMII_DETERMINE_SILICON_VARIANT:
 302:../src/platform/mpfs_hal/common/nwc/mss_sgmii.c ****             /*
 303:../src/platform/mpfs_hal/common/nwc/mss_sgmii.c ****              * Determine Silicon variant from generated dll generated sro_dll_90_code
 304:../src/platform/mpfs_hal/common/nwc/mss_sgmii.c ****              */
 305:../src/platform/mpfs_hal/common/nwc/mss_sgmii.c ****             sro_dll_90_code = ((CFG_DDR_SGMII_PHY->RECAL_CNTL.RECAL_CNTL >> 16U) & 0x7FU);
 306:../src/platform/mpfs_hal/common/nwc/mss_sgmii.c **** 
 307:../src/platform/mpfs_hal/common/nwc/mss_sgmii.c ****             if(CFG_DDR_SGMII_PHY->SPARE_STAT.SPARE_STAT & (01U<<31U)) /* bit31 == 1 => post rev B s
 308:../src/platform/mpfs_hal/common/nwc/mss_sgmii.c ****             {
 309:../src/platform/mpfs_hal/common/nwc/mss_sgmii.c ****                 silicon_variant = PART_REVC_OR_LATER;
 310:../src/platform/mpfs_hal/common/nwc/mss_sgmii.c ****                 set_early_late_thresholds(LATE_EYE_WIDTH_PART_REVC_OR_LATER_PRE_TEST, EARLY_EYE_WID
 311:../src/platform/mpfs_hal/common/nwc/mss_sgmii.c ****             }
 312:../src/platform/mpfs_hal/common/nwc/mss_sgmii.c ****             else
 313:../src/platform/mpfs_hal/common/nwc/mss_sgmii.c ****             {
 314:../src/platform/mpfs_hal/common/nwc/mss_sgmii.c ****                 /*
 315:../src/platform/mpfs_hal/common/nwc/mss_sgmii.c ****                  * SS  part expect  < 13
 316:../src/platform/mpfs_hal/common/nwc/mss_sgmii.c ****                  * typical-typical  or FF expect  > 13
 317:../src/platform/mpfs_hal/common/nwc/mss_sgmii.c ****                  */
 318:../src/platform/mpfs_hal/common/nwc/mss_sgmii.c ****                 if(sro_dll_90_code < MIN_DLL_90_CODE_VALUE_INDICATING_TT_PART_REVB) /* SS part */
 319:../src/platform/mpfs_hal/common/nwc/mss_sgmii.c ****                 {
 320:../src/platform/mpfs_hal/common/nwc/mss_sgmii.c ****                     silicon_variant = SS_PART_REVB;
 321:../src/platform/mpfs_hal/common/nwc/mss_sgmii.c ****                     set_early_late_thresholds(LATE_EYE_WIDTH_SS_PART_REVB, EARLY_EYE_WIDTH_SS_PART_
 322:../src/platform/mpfs_hal/common/nwc/mss_sgmii.c ****                 }
 323:../src/platform/mpfs_hal/common/nwc/mss_sgmii.c ****                 else
 324:../src/platform/mpfs_hal/common/nwc/mss_sgmii.c ****                 {
 325:../src/platform/mpfs_hal/common/nwc/mss_sgmii.c ****                     silicon_variant = TT_PART_REVB;
 326:../src/platform/mpfs_hal/common/nwc/mss_sgmii.c ****                     set_early_late_thresholds(LATE_TT_PART_REVB, EARLY_TT_PART_REVB);
 327:../src/platform/mpfs_hal/common/nwc/mss_sgmii.c ****                 }
 328:../src/platform/mpfs_hal/common/nwc/mss_sgmii.c ****             }
 329:../src/platform/mpfs_hal/common/nwc/mss_sgmii.c ****             sgmii_training_state = SGMII_RESET_CHANNELS;
 330:../src/platform/mpfs_hal/common/nwc/mss_sgmii.c ****             break;
 331:../src/platform/mpfs_hal/common/nwc/mss_sgmii.c **** 
 332:../src/platform/mpfs_hal/common/nwc/mss_sgmii.c ****         case SGMII_RESET_CHANNELS:
 333:../src/platform/mpfs_hal/common/nwc/mss_sgmii.c ****             /*
 334:../src/platform/mpfs_hal/common/nwc/mss_sgmii.c ****              * DLL soft reset                   - Already configured
 335:../src/platform/mpfs_hal/common/nwc/mss_sgmii.c ****              * PVT soft reset                   - Already configured
 336:../src/platform/mpfs_hal/common/nwc/mss_sgmii.c ****              * Bank controller soft reset       - Already configured
 337:../src/platform/mpfs_hal/common/nwc/mss_sgmii.c ****              * CLKMUX soft reset                - Already configured
 338:../src/platform/mpfs_hal/common/nwc/mss_sgmii.c ****              * Lane0 soft reset                 - must be soft reset here
 339:../src/platform/mpfs_hal/common/nwc/mss_sgmii.c ****              * Lane1 soft reset                 - must be soft reset here
 340:../src/platform/mpfs_hal/common/nwc/mss_sgmii.c ****              *
 341:../src/platform/mpfs_hal/common/nwc/mss_sgmii.c ****              *      __IO  uint32_t               reg_lane0_soft_reset_periph :1;  bit 13
 342:../src/platform/mpfs_hal/common/nwc/mss_sgmii.c ****              *      __IO  uint32_t               reg_lane1_soft_reset_periph :1;  bit 14
 343:../src/platform/mpfs_hal/common/nwc/mss_sgmii.c ****              */
 344:../src/platform/mpfs_hal/common/nwc/mss_sgmii.c ****             CFG_DDR_SGMII_PHY->DYN_CNTL.DYN_CNTL  = (1U << 14U)|(1U << 13U)|(0x7FU<<0U);
 345:../src/platform/mpfs_hal/common/nwc/mss_sgmii.c ****             CFG_DDR_SGMII_PHY->DYN_CNTL.DYN_CNTL  = (0U << 14U)|(0U << 13U)|(0x7FU<<0U);
 346:../src/platform/mpfs_hal/common/nwc/mss_sgmii.c ****             if(silicon_variant == PART_REVC_OR_LATER)
 347:../src/platform/mpfs_hal/common/nwc/mss_sgmii.c ****             {
 348:../src/platform/mpfs_hal/common/nwc/mss_sgmii.c ****                 timer_out=0U;
 349:../src/platform/mpfs_hal/common/nwc/mss_sgmii.c ****                 sgmii_training_state = SGMII_WAIT_10MS;
 350:../src/platform/mpfs_hal/common/nwc/mss_sgmii.c ****             }
 351:../src/platform/mpfs_hal/common/nwc/mss_sgmii.c ****             else
 352:../src/platform/mpfs_hal/common/nwc/mss_sgmii.c ****             {
 353:../src/platform/mpfs_hal/common/nwc/mss_sgmii.c ****                 sgmii_training_state = SGMII_CHANNELS_UP;
 354:../src/platform/mpfs_hal/common/nwc/mss_sgmii.c ****             }
 355:../src/platform/mpfs_hal/common/nwc/mss_sgmii.c ****             break;
 356:../src/platform/mpfs_hal/common/nwc/mss_sgmii.c **** 
 357:../src/platform/mpfs_hal/common/nwc/mss_sgmii.c ****         case SGMII_WAIT_10MS:
 358:../src/platform/mpfs_hal/common/nwc/mss_sgmii.c ****             timer_out++;
 359:../src/platform/mpfs_hal/common/nwc/mss_sgmii.c ****             if(timer_out >= 0xFFFU)
 360:../src/platform/mpfs_hal/common/nwc/mss_sgmii.c ****             {
 361:../src/platform/mpfs_hal/common/nwc/mss_sgmii.c ****                 timer_out=0U;
 362:../src/platform/mpfs_hal/common/nwc/mss_sgmii.c ****                 sgmii_training_state = SGMII_CHECK_REVC_RESULT;
 363:../src/platform/mpfs_hal/common/nwc/mss_sgmii.c ****             }
 364:../src/platform/mpfs_hal/common/nwc/mss_sgmii.c ****             break;
 365:../src/platform/mpfs_hal/common/nwc/mss_sgmii.c **** 
 366:../src/platform/mpfs_hal/common/nwc/mss_sgmii.c ****         case SGMII_CHECK_REVC_RESULT:
 367:../src/platform/mpfs_hal/common/nwc/mss_sgmii.c ****             if ( (CFG_DDR_SGMII_PHY->SPARE_STAT.SPARE_STAT & ARO_REF_PCODE_MASK) > ARO_REF_PCODE_RE
 368:../src/platform/mpfs_hal/common/nwc/mss_sgmii.c ****             {
 369:../src/platform/mpfs_hal/common/nwc/mss_sgmii.c ****                 /* OK, we are good */
 370:../src/platform/mpfs_hal/common/nwc/mss_sgmii.c ****                 sgmii_training_state = SGMII_CHANNELS_UP;
 371:../src/platform/mpfs_hal/common/nwc/mss_sgmii.c ****             }
 372:../src/platform/mpfs_hal/common/nwc/mss_sgmii.c ****             else
 373:../src/platform/mpfs_hal/common/nwc/mss_sgmii.c ****             {
 374:../src/platform/mpfs_hal/common/nwc/mss_sgmii.c ****                 /* need to adjust eye values */
 375:../src/platform/mpfs_hal/common/nwc/mss_sgmii.c ****                 set_early_late_thresholds(LATE_EYE_WIDTH_PART_REVC_OR_LATER, EARLY_EYE_WIDTH_PART_R
 376:../src/platform/mpfs_hal/common/nwc/mss_sgmii.c ****                 /*
 377:../src/platform/mpfs_hal/common/nwc/mss_sgmii.c ****                  * Now reset the channels
 378:../src/platform/mpfs_hal/common/nwc/mss_sgmii.c ****                  */
 379:../src/platform/mpfs_hal/common/nwc/mss_sgmii.c ****                 CFG_DDR_SGMII_PHY->DYN_CNTL.DYN_CNTL  = (1U << 14U)|(1U << 13U)|(0x7FU<<0U);
 380:../src/platform/mpfs_hal/common/nwc/mss_sgmii.c ****                 CFG_DDR_SGMII_PHY->DYN_CNTL.DYN_CNTL  = (0U << 14U)|(0U << 13U)|(0x7FU<<0U);
 381:../src/platform/mpfs_hal/common/nwc/mss_sgmii.c ****                 /* OK, we are good */
 382:../src/platform/mpfs_hal/common/nwc/mss_sgmii.c ****                 sgmii_training_state = SGMII_CHANNELS_UP;
 383:../src/platform/mpfs_hal/common/nwc/mss_sgmii.c ****             }
 384:../src/platform/mpfs_hal/common/nwc/mss_sgmii.c ****             break;
 385:../src/platform/mpfs_hal/common/nwc/mss_sgmii.c **** 
 386:../src/platform/mpfs_hal/common/nwc/mss_sgmii.c ****         case SGMII_CHANNELS_UP:
 387:../src/platform/mpfs_hal/common/nwc/mss_sgmii.c ****             /*
 388:../src/platform/mpfs_hal/common/nwc/mss_sgmii.c ****              * SGMii Step 4)    Monitor the DLL codes for Voltage and Temp variation
 389:../src/platform/mpfs_hal/common/nwc/mss_sgmii.c ****              * MSS E51 software sets the magnitude value of variation to flag.
 390:../src/platform/mpfs_hal/common/nwc/mss_sgmii.c ****              * MSS E51 software can poll this flag.
 391:../src/platform/mpfs_hal/common/nwc/mss_sgmii.c ****              * Re-calibration, if needed, is controlled by E51 software if needed.
 392:../src/platform/mpfs_hal/common/nwc/mss_sgmii.c ****              * ML step 4- This is a monitoring step- to be run constantly in the back
 393:../src/platform/mpfs_hal/common/nwc/mss_sgmii.c ****              * ground
 394:../src/platform/mpfs_hal/common/nwc/mss_sgmii.c ****              */
 395:../src/platform/mpfs_hal/common/nwc/mss_sgmii.c ****             status = SGMII_FINISHED_SETUP;
 396:../src/platform/mpfs_hal/common/nwc/mss_sgmii.c ****             break;
 397:../src/platform/mpfs_hal/common/nwc/mss_sgmii.c ****     } /* end of switch statement */
 398:../src/platform/mpfs_hal/common/nwc/mss_sgmii.c **** 
 399:../src/platform/mpfs_hal/common/nwc/mss_sgmii.c ****     return(status);
 400:../src/platform/mpfs_hal/common/nwc/mss_sgmii.c **** }
 401:../src/platform/mpfs_hal/common/nwc/mss_sgmii.c **** #endif
 402:../src/platform/mpfs_hal/common/nwc/mss_sgmii.c **** 
 403:../src/platform/mpfs_hal/common/nwc/mss_sgmii.c **** /**
 404:../src/platform/mpfs_hal/common/nwc/mss_sgmii.c ****  * setup_sgmii_rpc_per_config
 405:../src/platform/mpfs_hal/common/nwc/mss_sgmii.c ****  * Configures SGMII RPC TIP registers
 406:../src/platform/mpfs_hal/common/nwc/mss_sgmii.c ****  */
 407:../src/platform/mpfs_hal/common/nwc/mss_sgmii.c **** static void setup_sgmii_rpc_per_config(void)
 408:../src/platform/mpfs_hal/common/nwc/mss_sgmii.c **** {
  15              		.loc 1 408 1
  16              		.cfi_startproc
 409:../src/platform/mpfs_hal/common/nwc/mss_sgmii.c ****     CFG_DDR_SGMII_PHY->SGMII_MODE.SGMII_MODE    = (LIBERO_SETTING_SGMII_MODE & ~REG_CDR_MOVE_STEP);
  17              		.loc 1 409 5
  18              		.loc 1 409 22 is_stmt 0
  19 0000 97070000 		lla	a5,CFG_DDR_SGMII_PHY
  19      93870700 
  20 0008 9C63     		ld	a5,0(a5)
  21              		.loc 1 409 49
  22 000a 0567     		li	a4,4096
  23 000c BA97     		add	a5,a5,a4
  24 000e 37F78008 		li	a4,142667776
  25 0012 1307F72F 		addi	a4,a4,767
  26 0016 23A2E7C0 		sw	a4,-1020(a5)
 410:../src/platform/mpfs_hal/common/nwc/mss_sgmii.c ****     CFG_DDR_SGMII_PHY->CH0_CNTL.CH0_CNTL        = LIBERO_SETTING_CH0_CNTL;
  27              		.loc 1 410 5 is_stmt 1
  28              		.loc 1 410 49 is_stmt 0
  29 001a 3777F037 		li	a4,938504192
  30 001e 13070777 		addi	a4,a4,1904
  31 0022 23A6E7C0 		sw	a4,-1012(a5)
 411:../src/platform/mpfs_hal/common/nwc/mss_sgmii.c ****     CFG_DDR_SGMII_PHY->CH1_CNTL.CH1_CNTL        = LIBERO_SETTING_CH1_CNTL;
  32              		.loc 1 411 5 is_stmt 1
  33              		.loc 1 411 49 is_stmt 0
  34 0026 23A8E7C0 		sw	a4,-1008(a5)
 412:../src/platform/mpfs_hal/common/nwc/mss_sgmii.c ****     CFG_DDR_SGMII_PHY->RECAL_CNTL.RECAL_CNTL    = LIBERO_SETTING_RECAL_CNTL;
  35              		.loc 1 412 5 is_stmt 1
  36              		.loc 1 412 49 is_stmt 0
  37 002a 0967     		li	a4,8192
  38 002c 1307870C 		addi	a4,a4,200
  39 0030 23AAE7C0 		sw	a4,-1004(a5)
 413:../src/platform/mpfs_hal/common/nwc/mss_sgmii.c ****     CFG_DDR_SGMII_PHY->CLK_CNTL.CLK_CNTL        = LIBERO_SETTING_CLK_CNTL;
  40              		.loc 1 413 5 is_stmt 1
  41              		.loc 1 413 49 is_stmt 0
  42 0034 375700F0 		li	a4,-268414976
  43 0038 1307C70C 		addi	a4,a4,204
  44 003c 23ACE7C0 		sw	a4,-1000(a5)
 414:../src/platform/mpfs_hal/common/nwc/mss_sgmii.c ****     /* ibuffmx_p and _n rx1, bit 22 and 23 , rx0, bit 20 and 21 */
 415:../src/platform/mpfs_hal/common/nwc/mss_sgmii.c ****     CFG_DDR_SGMII_PHY->SPARE_CNTL.SPARE_CNTL    = LIBERO_SETTING_SPARE_CNTL;
  45              		.loc 1 415 5 is_stmt 1
  46              		.loc 1 415 49 is_stmt 0
  47 0040 370700FF 		li	a4,-16777216
  48 0044 23A2E7C2 		sw	a4,-988(a5)
 416:../src/platform/mpfs_hal/common/nwc/mss_sgmii.c ****     CFG_DDR_SGMII_PHY->PLL_CNTL.PLL_CNTL        = LIBERO_SETTING_PLL_CNTL;
  49              		.loc 1 416 5 is_stmt 1
  50              		.loc 1 416 49 is_stmt 0
  51 0048 37071480 		li	a4,-2146172928
  52 004c 13071710 		addi	a4,a4,257
  53 0050 23A4E7C0 		sw	a4,-1016(a5)
 417:../src/platform/mpfs_hal/common/nwc/mss_sgmii.c **** }
  54              		.loc 1 417 1
  55 0054 8280     		ret
  56              		.cfi_endproc
  57              	.LFE25:
  59              		.section	.text.sgmii_setup,"ax",@progbits
  60              		.align	1
  61              		.globl	sgmii_setup
  63              	sgmii_setup:
  64              	.LFB23:
  51:../src/platform/mpfs_hal/common/nwc/mss_sgmii.c **** #ifdef SGMII_SUPPORT
  65              		.loc 1 51 1 is_stmt 1
  66              		.cfi_startproc
  56:../src/platform/mpfs_hal/common/nwc/mss_sgmii.c ****     {
  67              		.loc 1 56 5
  58:../src/platform/mpfs_hal/common/nwc/mss_sgmii.c ****         {
  68              		.loc 1 58 9
  51:../src/platform/mpfs_hal/common/nwc/mss_sgmii.c **** #ifdef SGMII_SUPPORT
  69              		.loc 1 51 1 is_stmt 0
  70 0000 3971     		addi	sp,sp,-64
  71              		.cfi_def_cfa_offset 64
  72 0002 22F8     		sd	s0,48(sp)
  73 0004 26F4     		sd	s1,40(sp)
  74 0006 4AF0     		sd	s2,32(sp)
  75 0008 4EEC     		sd	s3,24(sp)
  76              		.cfi_offset 8, -16
  77              		.cfi_offset 9, -24
  78              		.cfi_offset 18, -32
  79              		.cfi_offset 19, -40
  80              	.LBB12:
  81              	.LBB13:
 367:../src/platform/mpfs_hal/common/nwc/mss_sgmii.c ****             {
  82              		.loc 1 367 48
  83 000a 0564     		li	s0,4096
  84              	.LBB14:
  85              	.LBB15:
 418:../src/platform/mpfs_hal/common/nwc/mss_sgmii.c **** 
 419:../src/platform/mpfs_hal/common/nwc/mss_sgmii.c **** /**
 420:../src/platform/mpfs_hal/common/nwc/mss_sgmii.c ****  * SGMII Off mode
 421:../src/platform/mpfs_hal/common/nwc/mss_sgmii.c ****  */
 422:../src/platform/mpfs_hal/common/nwc/mss_sgmii.c **** void sgmii_off_mode(void)
 423:../src/platform/mpfs_hal/common/nwc/mss_sgmii.c **** {
 424:../src/platform/mpfs_hal/common/nwc/mss_sgmii.c ****     /*
 425:../src/platform/mpfs_hal/common/nwc/mss_sgmii.c ****      * do soft reset of SGMII TIP
 426:../src/platform/mpfs_hal/common/nwc/mss_sgmii.c ****      */
 427:../src/platform/mpfs_hal/common/nwc/mss_sgmii.c ****     CFG_DDR_SGMII_PHY->SOFT_RESET_SGMII.SOFT_RESET_SGMII = (0x01 << 8U) | 1U;
 428:../src/platform/mpfs_hal/common/nwc/mss_sgmii.c ****     CFG_DDR_SGMII_PHY->SOFT_RESET_SGMII.SOFT_RESET_SGMII = 1U;
 429:../src/platform/mpfs_hal/common/nwc/mss_sgmii.c **** 
 430:../src/platform/mpfs_hal/common/nwc/mss_sgmii.c ****     /*
 431:../src/platform/mpfs_hal/common/nwc/mss_sgmii.c ****      *
 432:../src/platform/mpfs_hal/common/nwc/mss_sgmii.c ****      */
 433:../src/platform/mpfs_hal/common/nwc/mss_sgmii.c ****     setup_sgmii_rpc_per_config();
 434:../src/platform/mpfs_hal/common/nwc/mss_sgmii.c **** 
 435:../src/platform/mpfs_hal/common/nwc/mss_sgmii.c ****     /*
 436:../src/platform/mpfs_hal/common/nwc/mss_sgmii.c ****      * Resetting the SCB register only required in already in dynamic mode. If
 437:../src/platform/mpfs_hal/common/nwc/mss_sgmii.c ****      * not reset, IO will not be configured.
 438:../src/platform/mpfs_hal/common/nwc/mss_sgmii.c ****      */
 439:../src/platform/mpfs_hal/common/nwc/mss_sgmii.c ****     IOSCB_DLL_SGMII->soft_reset = (0x01U << 0x00U);         /*  reset sgmii */
 440:../src/platform/mpfs_hal/common/nwc/mss_sgmii.c **** 
 441:../src/platform/mpfs_hal/common/nwc/mss_sgmii.c **** }
 442:../src/platform/mpfs_hal/common/nwc/mss_sgmii.c **** 
 443:../src/platform/mpfs_hal/common/nwc/mss_sgmii.c **** /**
 444:../src/platform/mpfs_hal/common/nwc/mss_sgmii.c ****  *
 445:../src/platform/mpfs_hal/common/nwc/mss_sgmii.c ****  */
 446:../src/platform/mpfs_hal/common/nwc/mss_sgmii.c **** void ddr_pvt_calibration(void)
 447:../src/platform/mpfs_hal/common/nwc/mss_sgmii.c **** {
 448:../src/platform/mpfs_hal/common/nwc/mss_sgmii.c ****     /*
 449:../src/platform/mpfs_hal/common/nwc/mss_sgmii.c ****      * R3.1
 450:../src/platform/mpfs_hal/common/nwc/mss_sgmii.c ****      * PVT calibration
 451:../src/platform/mpfs_hal/common/nwc/mss_sgmii.c ****      * Wait for IOEN from power detectors DDR and SGMII - IO enable signal from
 452:../src/platform/mpfs_hal/common/nwc/mss_sgmii.c ****      * System Control powers on
 453:../src/platform/mpfs_hal/common/nwc/mss_sgmii.c ****      *
 454:../src/platform/mpfs_hal/common/nwc/mss_sgmii.c ****      * From DDR phy SAC spec:
 455:../src/platform/mpfs_hal/common/nwc/mss_sgmii.c ****      *      MSS processor releases dce bus to send RPC bits to IO buffer,
 456:../src/platform/mpfs_hal/common/nwc/mss_sgmii.c ****      *      setting each to it's programmed mode and then asserts
 457:../src/platform/mpfs_hal/common/nwc/mss_sgmii.c ****      *      ioen high at end of this state.
 458:../src/platform/mpfs_hal/common/nwc/mss_sgmii.c ****      *
 459:../src/platform/mpfs_hal/common/nwc/mss_sgmii.c ****      *
 460:../src/platform/mpfs_hal/common/nwc/mss_sgmii.c ****      *      Following verification required for MSS IO Calibration (DDRPHY,
 461:../src/platform/mpfs_hal/common/nwc/mss_sgmii.c ****      *      SGMII and MSSIO)
 462:../src/platform/mpfs_hal/common/nwc/mss_sgmii.c ****      *          Auto-calibration supply ramp time settings
 463:../src/platform/mpfs_hal/common/nwc/mss_sgmii.c ****      *          Calibration in reset until ioen_bnk goes high, timer complete
 464:../src/platform/mpfs_hal/common/nwc/mss_sgmii.c ****      *          and setup of bits complete
 465:../src/platform/mpfs_hal/common/nwc/mss_sgmii.c ****      *              scbclk divider setting (/1)
 466:../src/platform/mpfs_hal/common/nwc/mss_sgmii.c ****      *              calibration clkdiv setting
 467:../src/platform/mpfs_hal/common/nwc/mss_sgmii.c ****      *              VS bit settings
 468:../src/platform/mpfs_hal/common/nwc/mss_sgmii.c ****      *          Initial non-calibrated codes to IOs (functional max codes)
 469:../src/platform/mpfs_hal/common/nwc/mss_sgmii.c ****      *          Calibration signal transitions
 470:../src/platform/mpfs_hal/common/nwc/mss_sgmii.c ****      *              pvt_calib_status ,        r in reg     DYN_CNTL
 471:../src/platform/mpfs_hal/common/nwc/mss_sgmii.c ****      *              reg_calib_reset,        w/r in reg     IOC_REG6
 472:../src/platform/mpfs_hal/common/nwc/mss_sgmii.c ****      *              calib_clkdiv,           w/r in reg     IOC_REG6
 473:../src/platform/mpfs_hal/common/nwc/mss_sgmii.c ****      *              soft_reset_periph_b,
 474:../src/platform/mpfs_hal/common/nwc/mss_sgmii.c ****      *              calib_lock,             w/r in reg     IOC_REG0
 475:../src/platform/mpfs_hal/common/nwc/mss_sgmii.c ****      *              calib_start,            w/r in reg     IOC_REG0
 476:../src/platform/mpfs_hal/common/nwc/mss_sgmii.c ****      *              calib_intrpt              r in reg
 477:../src/platform/mpfs_hal/common/nwc/mss_sgmii.c ****      *          Final calibration codes
 478:../src/platform/mpfs_hal/common/nwc/mss_sgmii.c ****      *          Lane latching of codes
 479:../src/platform/mpfs_hal/common/nwc/mss_sgmii.c ****      *          IO Glitching
 480:../src/platform/mpfs_hal/common/nwc/mss_sgmii.c ****      */
 481:../src/platform/mpfs_hal/common/nwc/mss_sgmii.c ****     volatile uint32_t timer_out=0U;
 482:../src/platform/mpfs_hal/common/nwc/mss_sgmii.c **** 
 483:../src/platform/mpfs_hal/common/nwc/mss_sgmii.c ****     #ifndef RENODE_DEBUG
 484:../src/platform/mpfs_hal/common/nwc/mss_sgmii.c ****     /* sro_ioen_out  */
 485:../src/platform/mpfs_hal/common/nwc/mss_sgmii.c ****     while((CFG_DDR_SGMII_PHY->IOC_REG1.IOC_REG1 & (1U<<4U)) == 0U)
 486:../src/platform/mpfs_hal/common/nwc/mss_sgmii.c ****     {
 487:../src/platform/mpfs_hal/common/nwc/mss_sgmii.c ****         timer_out++;
 488:../src/platform/mpfs_hal/common/nwc/mss_sgmii.c ****         /*todo: add a fail break */
 489:../src/platform/mpfs_hal/common/nwc/mss_sgmii.c ****     }
 490:../src/platform/mpfs_hal/common/nwc/mss_sgmii.c ****     #endif
 491:../src/platform/mpfs_hal/common/nwc/mss_sgmii.c **** 
 492:../src/platform/mpfs_hal/common/nwc/mss_sgmii.c ****     /*
 493:../src/platform/mpfs_hal/common/nwc/mss_sgmii.c ****      * R3.2  Trigger timer and wait for completion
 494:../src/platform/mpfs_hal/common/nwc/mss_sgmii.c ****      * PVT calibration
 495:../src/platform/mpfs_hal/common/nwc/mss_sgmii.c ****      * After IOEN is received from power detectors DDR and SGMII, extra time
 496:../src/platform/mpfs_hal/common/nwc/mss_sgmii.c ****      * required for voltage to ramp.
 497:../src/platform/mpfs_hal/common/nwc/mss_sgmii.c ****      * This time will come from the user- Dependent on ramp time of power supply
 498:../src/platform/mpfs_hal/common/nwc/mss_sgmii.c ****      * Approximately - Bank power timer (from ioen_in to ioen_out = 10uS)?
 499:../src/platform/mpfs_hal/common/nwc/mss_sgmii.c ****      *
 500:../src/platform/mpfs_hal/common/nwc/mss_sgmii.c ****      */
 501:../src/platform/mpfs_hal/common/nwc/mss_sgmii.c ****     /*todo: implement proper timer- user will supply ramp time */
 502:../src/platform/mpfs_hal/common/nwc/mss_sgmii.c ****     timer_out=0U;
 503:../src/platform/mpfs_hal/common/nwc/mss_sgmii.c ****     while(timer_out < 0xFU)
 504:../src/platform/mpfs_hal/common/nwc/mss_sgmii.c ****     {
 505:../src/platform/mpfs_hal/common/nwc/mss_sgmii.c ****         timer_out++;
 506:../src/platform/mpfs_hal/common/nwc/mss_sgmii.c ****     }
 507:../src/platform/mpfs_hal/common/nwc/mss_sgmii.c **** 
 508:../src/platform/mpfs_hal/common/nwc/mss_sgmii.c ****     /*
 509:../src/platform/mpfs_hal/common/nwc/mss_sgmii.c ****      * R3.2 Initiate calibration:
 510:../src/platform/mpfs_hal/common/nwc/mss_sgmii.c ****      *
 511:../src/platform/mpfs_hal/common/nwc/mss_sgmii.c ****      * IOC_REG6
 512:../src/platform/mpfs_hal/common/nwc/mss_sgmii.c ****      *  bit 2:1 reg_calib_clkdiv
 513:../src/platform/mpfs_hal/common/nwc/mss_sgmii.c ****      *  bit 0  reg_calib_reset
 514:../src/platform/mpfs_hal/common/nwc/mss_sgmii.c ****      *
 515:../src/platform/mpfs_hal/common/nwc/mss_sgmii.c ****      *      DDRIO:  calib_reset: 1 -> 0
 516:../src/platform/mpfs_hal/common/nwc/mss_sgmii.c ****      *      mss_write(0x20007000 + 0x21C,0x00000004);
 517:../src/platform/mpfs_hal/common/nwc/mss_sgmii.c ****      *      DDRIO: calib_rst_b: 0 -> 1
 518:../src/platform/mpfs_hal/common/nwc/mss_sgmii.c ****      *      mss_write(0x20007000 + 0x220,0x00000000);
 519:../src/platform/mpfs_hal/common/nwc/mss_sgmii.c ****      *      SGMII: calib_rst_b: 0 -> 1
 520:../src/platform/mpfs_hal/common/nwc/mss_sgmii.c ****      *      mss_write(0x20007000 + 0xC1C,0x00000000);
 521:../src/platform/mpfs_hal/common/nwc/mss_sgmii.c ****      *
 522:../src/platform/mpfs_hal/common/nwc/mss_sgmii.c ****      */
 523:../src/platform/mpfs_hal/common/nwc/mss_sgmii.c ****     /*
 524:../src/platform/mpfs_hal/common/nwc/mss_sgmii.c ****      * Soft reset
 525:../src/platform/mpfs_hal/common/nwc/mss_sgmii.c ****      */
 526:../src/platform/mpfs_hal/common/nwc/mss_sgmii.c ****     /* PVT soft reset - APB*/
 527:../src/platform/mpfs_hal/common/nwc/mss_sgmii.c ****     /* DDRIO:  calib_reset: 1 -> 0, clk divider changed - from 2 - to 3 */
 528:../src/platform/mpfs_hal/common/nwc/mss_sgmii.c ****     CFG_DDR_SGMII_PHY->IOC_REG6.IOC_REG6               =    0x00000006U;
 529:../src/platform/mpfs_hal/common/nwc/mss_sgmii.c **** 
 530:../src/platform/mpfs_hal/common/nwc/mss_sgmii.c ****     /* PVT soft nv reset - SCB, should load from RPC */
 531:../src/platform/mpfs_hal/common/nwc/mss_sgmii.c ****     IOSCB_IO_CALIB_DDR->SOFT_RESET_IOCALIB       = 0x1U; /* make sure reset */
 532:../src/platform/mpfs_hal/common/nwc/mss_sgmii.c ****     IOSCB_IO_CALIB_DDR->SOFT_RESET_IOCALIB       = 0x0U; /* make sure reset */
 533:../src/platform/mpfs_hal/common/nwc/mss_sgmii.c **** 
 534:../src/platform/mpfs_hal/common/nwc/mss_sgmii.c ****     /*
 535:../src/platform/mpfs_hal/common/nwc/mss_sgmii.c ****      * R3.4 Wait for PVT calibration to complete
 536:../src/platform/mpfs_hal/common/nwc/mss_sgmii.c ****      * Check:
 537:../src/platform/mpfs_hal/common/nwc/mss_sgmii.c ****      * bit 2 sro_calib_status
 538:../src/platform/mpfs_hal/common/nwc/mss_sgmii.c ****      *
 539:../src/platform/mpfs_hal/common/nwc/mss_sgmii.c ****      * The G5 Memory controller needs to see that the IO calibration has
 540:../src/platform/mpfs_hal/common/nwc/mss_sgmii.c ****      * completed before kicking off DDR training.
 541:../src/platform/mpfs_hal/common/nwc/mss_sgmii.c ****      * It uses the calib_status signal as a flag for this.
 542:../src/platform/mpfs_hal/common/nwc/mss_sgmii.c ****      */
 543:../src/platform/mpfs_hal/common/nwc/mss_sgmii.c ****     timer_out=0U;
 544:../src/platform/mpfs_hal/common/nwc/mss_sgmii.c ****     #ifndef RENODE_DEBUG
 545:../src/platform/mpfs_hal/common/nwc/mss_sgmii.c ****     {
 546:../src/platform/mpfs_hal/common/nwc/mss_sgmii.c ****         /* PVT I/O - sro_calib_status -  wait for calibration to complete */
 547:../src/platform/mpfs_hal/common/nwc/mss_sgmii.c ****         while((IOSCB_IO_CALIB_DDR->IOC_REG1 & 0x00000004U) == 0U)
 548:../src/platform/mpfs_hal/common/nwc/mss_sgmii.c ****         {
 549:../src/platform/mpfs_hal/common/nwc/mss_sgmii.c ****             timer_out++;
 550:../src/platform/mpfs_hal/common/nwc/mss_sgmii.c ****         }
 551:../src/platform/mpfs_hal/common/nwc/mss_sgmii.c ****         /* PVT I/O - sro_calib_status -  wait for calibration to complete */
 552:../src/platform/mpfs_hal/common/nwc/mss_sgmii.c ****         while((CFG_DDR_SGMII_PHY->IOC_REG1.IOC_REG1 & 0x00000004U) == 0U)
 553:../src/platform/mpfs_hal/common/nwc/mss_sgmii.c ****         {
 554:../src/platform/mpfs_hal/common/nwc/mss_sgmii.c ****             timer_out++;
 555:../src/platform/mpfs_hal/common/nwc/mss_sgmii.c ****         }
 556:../src/platform/mpfs_hal/common/nwc/mss_sgmii.c ****     }
 557:../src/platform/mpfs_hal/common/nwc/mss_sgmii.c ****     #endif
 558:../src/platform/mpfs_hal/common/nwc/mss_sgmii.c ****     /*
 559:../src/platform/mpfs_hal/common/nwc/mss_sgmii.c ****      * now assert calib lock
 560:../src/platform/mpfs_hal/common/nwc/mss_sgmii.c ****      *
 561:../src/platform/mpfs_hal/common/nwc/mss_sgmii.c ****      * */
 562:../src/platform/mpfs_hal/common/nwc/mss_sgmii.c ****     {
 563:../src/platform/mpfs_hal/common/nwc/mss_sgmii.c ****         CFG_DDR_SGMII_PHY->IOC_REG0.IOC_REG0    &= ~(0x01U<<14U);
 564:../src/platform/mpfs_hal/common/nwc/mss_sgmii.c ****         IOSCB_IO_CALIB_DDR->IOC_REG0            &= ~(0x01U<<14U);
 565:../src/platform/mpfs_hal/common/nwc/mss_sgmii.c ****         CFG_DDR_SGMII_PHY->IOC_REG0.IOC_REG0    |= (0x01U<<14U);
 566:../src/platform/mpfs_hal/common/nwc/mss_sgmii.c ****         IOSCB_IO_CALIB_DDR->IOC_REG0            |= (0x01U<<14U);
 567:../src/platform/mpfs_hal/common/nwc/mss_sgmii.c ****     }
 568:../src/platform/mpfs_hal/common/nwc/mss_sgmii.c **** }
 569:../src/platform/mpfs_hal/common/nwc/mss_sgmii.c **** 
 570:../src/platform/mpfs_hal/common/nwc/mss_sgmii.c **** 
 571:../src/platform/mpfs_hal/common/nwc/mss_sgmii.c **** /**
 572:../src/platform/mpfs_hal/common/nwc/mss_sgmii.c ****  *
 573:../src/platform/mpfs_hal/common/nwc/mss_sgmii.c ****  */
 574:../src/platform/mpfs_hal/common/nwc/mss_sgmii.c **** void ddr_pvt_recalibration(void)
 575:../src/platform/mpfs_hal/common/nwc/mss_sgmii.c **** {
 576:../src/platform/mpfs_hal/common/nwc/mss_sgmii.c ****     volatile uint32_t timer_out=0U;
 577:../src/platform/mpfs_hal/common/nwc/mss_sgmii.c **** 
 578:../src/platform/mpfs_hal/common/nwc/mss_sgmii.c ****     /*
 579:../src/platform/mpfs_hal/common/nwc/mss_sgmii.c ****      * now assert calib start
 580:../src/platform/mpfs_hal/common/nwc/mss_sgmii.c ****      *
 581:../src/platform/mpfs_hal/common/nwc/mss_sgmii.c ****      * */
 582:../src/platform/mpfs_hal/common/nwc/mss_sgmii.c ****     {
 583:../src/platform/mpfs_hal/common/nwc/mss_sgmii.c ****         CFG_DDR_SGMII_PHY->IOC_REG0.IOC_REG0    &= ~(0x01U<<13U);
 584:../src/platform/mpfs_hal/common/nwc/mss_sgmii.c ****         IOSCB_IO_CALIB_DDR->IOC_REG0            &= ~(0x01U<<13U);
 585:../src/platform/mpfs_hal/common/nwc/mss_sgmii.c ****         CFG_DDR_SGMII_PHY->IOC_REG0.IOC_REG0    |= (0x01U<<13U);
 586:../src/platform/mpfs_hal/common/nwc/mss_sgmii.c ****         IOSCB_IO_CALIB_DDR->IOC_REG0            |= (0x01U<<13U);
 587:../src/platform/mpfs_hal/common/nwc/mss_sgmii.c ****     }
 588:../src/platform/mpfs_hal/common/nwc/mss_sgmii.c **** 
 589:../src/platform/mpfs_hal/common/nwc/mss_sgmii.c ****     /*
 590:../src/platform/mpfs_hal/common/nwc/mss_sgmii.c ****      * R3.4 Wait for PVT calibration to complete
 591:../src/platform/mpfs_hal/common/nwc/mss_sgmii.c ****      * Check:
 592:../src/platform/mpfs_hal/common/nwc/mss_sgmii.c ****      * bit 2 sro_calib_status
 593:../src/platform/mpfs_hal/common/nwc/mss_sgmii.c ****      *
 594:../src/platform/mpfs_hal/common/nwc/mss_sgmii.c ****      * The G5 Memory controller needs to see that the IO calibration has
 595:../src/platform/mpfs_hal/common/nwc/mss_sgmii.c ****      * completed before kicking off DDR training.
 596:../src/platform/mpfs_hal/common/nwc/mss_sgmii.c ****      * It uses the calib_status signal as a flag for this.
 597:../src/platform/mpfs_hal/common/nwc/mss_sgmii.c ****      */
 598:../src/platform/mpfs_hal/common/nwc/mss_sgmii.c ****     timer_out=0U;
 599:../src/platform/mpfs_hal/common/nwc/mss_sgmii.c ****     #ifndef RENODE_DEBUG
 600:../src/platform/mpfs_hal/common/nwc/mss_sgmii.c ****     {
 601:../src/platform/mpfs_hal/common/nwc/mss_sgmii.c ****         /* PVT I/O - sro_calib_status -  wait for calibration to complete */
 602:../src/platform/mpfs_hal/common/nwc/mss_sgmii.c ****         while((IOSCB_IO_CALIB_DDR->IOC_REG1 & 0x00000004U) == 0U)
 603:../src/platform/mpfs_hal/common/nwc/mss_sgmii.c ****         {
 604:../src/platform/mpfs_hal/common/nwc/mss_sgmii.c ****             timer_out++;
 605:../src/platform/mpfs_hal/common/nwc/mss_sgmii.c ****         }
 606:../src/platform/mpfs_hal/common/nwc/mss_sgmii.c ****         /* PVT I/O - sro_calib_status -  wait for calibration to complete */
 607:../src/platform/mpfs_hal/common/nwc/mss_sgmii.c ****         while((CFG_DDR_SGMII_PHY->IOC_REG1.IOC_REG1 & 0x00000004U) == 0U)
 608:../src/platform/mpfs_hal/common/nwc/mss_sgmii.c ****         {
 609:../src/platform/mpfs_hal/common/nwc/mss_sgmii.c ****             timer_out++;
 610:../src/platform/mpfs_hal/common/nwc/mss_sgmii.c ****         }
 611:../src/platform/mpfs_hal/common/nwc/mss_sgmii.c ****     }
 612:../src/platform/mpfs_hal/common/nwc/mss_sgmii.c ****     #endif
 613:../src/platform/mpfs_hal/common/nwc/mss_sgmii.c ****     /*
 614:../src/platform/mpfs_hal/common/nwc/mss_sgmii.c ****      * now assert calib lock
 615:../src/platform/mpfs_hal/common/nwc/mss_sgmii.c ****      *
 616:../src/platform/mpfs_hal/common/nwc/mss_sgmii.c ****      * */
 617:../src/platform/mpfs_hal/common/nwc/mss_sgmii.c ****     {
 618:../src/platform/mpfs_hal/common/nwc/mss_sgmii.c **** #if 0   /*
 619:../src/platform/mpfs_hal/common/nwc/mss_sgmii.c ****          * fixme: this appears to cause wite calibration to fail, investigating
 620:../src/platform/mpfs_hal/common/nwc/mss_sgmii.c ****          */
 621:../src/platform/mpfs_hal/common/nwc/mss_sgmii.c ****         CFG_DDR_SGMII_PHY->IOC_REG0.IOC_REG0    &= ~(0x01U<<14U);
 622:../src/platform/mpfs_hal/common/nwc/mss_sgmii.c ****         IOSCB_IO_CALIB_DDR->IOC_REG0            &= ~(0x01U<<14U);
 623:../src/platform/mpfs_hal/common/nwc/mss_sgmii.c ****         CFG_DDR_SGMII_PHY->IOC_REG0.IOC_REG0    |= (0x01U<<14U);
 624:../src/platform/mpfs_hal/common/nwc/mss_sgmii.c ****         IOSCB_IO_CALIB_DDR->IOC_REG0            |= (0x01U<<14U);
 625:../src/platform/mpfs_hal/common/nwc/mss_sgmii.c **** #endif
 626:../src/platform/mpfs_hal/common/nwc/mss_sgmii.c ****     }
 627:../src/platform/mpfs_hal/common/nwc/mss_sgmii.c **** }
 628:../src/platform/mpfs_hal/common/nwc/mss_sgmii.c **** 
 629:../src/platform/mpfs_hal/common/nwc/mss_sgmii.c **** /**
 630:../src/platform/mpfs_hal/common/nwc/mss_sgmii.c ****  * Set eye thresholds
 631:../src/platform/mpfs_hal/common/nwc/mss_sgmii.c ****  * @param n_late_threshold
 632:../src/platform/mpfs_hal/common/nwc/mss_sgmii.c ****  * @param p_early_threshold
 633:../src/platform/mpfs_hal/common/nwc/mss_sgmii.c ****  */
 634:../src/platform/mpfs_hal/common/nwc/mss_sgmii.c **** static void set_early_late_thresholds(uint8_t n_late_threshold, uint8_t p_early_threshold)
 635:../src/platform/mpfs_hal/common/nwc/mss_sgmii.c **** {
 636:../src/platform/mpfs_hal/common/nwc/mss_sgmii.c ****     uint32_t n_eye_values;
 637:../src/platform/mpfs_hal/common/nwc/mss_sgmii.c ****     uint32_t p_eye_value;
 638:../src/platform/mpfs_hal/common/nwc/mss_sgmii.c **** 
 639:../src/platform/mpfs_hal/common/nwc/mss_sgmii.c ****     /*
 640:../src/platform/mpfs_hal/common/nwc/mss_sgmii.c ****      * Set the N eye width value
 641:../src/platform/mpfs_hal/common/nwc/mss_sgmii.c ****      * bits 31:29 for CH1, bits 28:26  for CH0 in spare control (N eye width value)
 642:../src/platform/mpfs_hal/common/nwc/mss_sgmii.c ****      */
 643:../src/platform/mpfs_hal/common/nwc/mss_sgmii.c ****     n_eye_values = (uint32_t)(n_late_threshold << SHIFT_TO_CH0_N_EYE_VALUE);
 644:../src/platform/mpfs_hal/common/nwc/mss_sgmii.c ****     n_eye_values |= (uint32_t)(n_late_threshold << SHIFT_TO_CH1_N_EYE_VALUE);
 645:../src/platform/mpfs_hal/common/nwc/mss_sgmii.c **** 
 646:../src/platform/mpfs_hal/common/nwc/mss_sgmii.c ****     CFG_DDR_SGMII_PHY->SPARE_CNTL.SPARE_CNTL    = (LIBERO_SETTING_SPARE_CNTL & N_EYE_MASK) | n_eye_
 647:../src/platform/mpfs_hal/common/nwc/mss_sgmii.c **** 
 648:../src/platform/mpfs_hal/common/nwc/mss_sgmii.c ****     /*
 649:../src/platform/mpfs_hal/common/nwc/mss_sgmii.c ****      * Set P values
 650:../src/platform/mpfs_hal/common/nwc/mss_sgmii.c ****      */
 651:../src/platform/mpfs_hal/common/nwc/mss_sgmii.c ****     p_eye_value = (uint32_t)(p_early_threshold << SHIFT_TO_REG_RX0_EYEWIDTH);
 652:../src/platform/mpfs_hal/common/nwc/mss_sgmii.c ****     CFG_DDR_SGMII_PHY->CH0_CNTL.CH0_CNTL        = ((LIBERO_SETTING_CH0_CNTL & REG_RX0_EYEWIDTH_P_MA
  86              		.loc 1 652 49
  87 000c B774D0B7 		li	s1,-1211076608
  88              	.LBE15:
  89              	.LBE14:
 379:../src/platform/mpfs_hal/common/nwc/mss_sgmii.c ****                 CFG_DDR_SGMII_PHY->DYN_CNTL.DYN_CNTL  = (0U << 14U)|(0U << 13U)|(0x7FU<<0U);
  90              		.loc 1 379 55
  91 0010 1969     		li	s2,24576
  92              	.LBB18:
  93              	.LBB19:
  94              		.loc 1 652 49
  95 0012 B779B0B7 		li	s3,-1213173760
  96              	.LBE19:
  97              	.LBE18:
  98              	.LBE13:
  99              	.LBE12:
  51:../src/platform/mpfs_hal/common/nwc/mss_sgmii.c **** #ifdef SGMII_SUPPORT
 100              		.loc 1 51 1
 101 0016 52E8     		sd	s4,16(sp)
 102 0018 06FC     		sd	ra,56(sp)
 103 001a 56E4     		sd	s5,8(sp)
 104              		.cfi_offset 20, -48
 105              		.cfi_offset 1, -8
 106              		.cfi_offset 21, -56
 107              	.LBB33:
 108              	.LBB30:
 109              	.LBB22:
 110              	.LBB16:
 111              		.loc 1 652 49
 112 001c 93840477 		addi	s1,s1,1904
 113              	.LBE16:
 114              	.LBE22:
 379:../src/platform/mpfs_hal/common/nwc/mss_sgmii.c ****                 CFG_DDR_SGMII_PHY->DYN_CNTL.DYN_CNTL  = (0U << 14U)|(0U << 13U)|(0x7FU<<0U);
 115              		.loc 1 379 55
 116 0020 1309F907 		addi	s2,s2,127
 359:../src/platform/mpfs_hal/common/nwc/mss_sgmii.c ****             {
 117              		.loc 1 359 15
 118 0024 130AE4FF 		addi	s4,s0,-2
 119              	.LBB23:
 120              	.LBB20:
 121              		.loc 1 652 49
 122 0028 93890977 		addi	s3,s3,1904
 123              	.L28:
 124              	.LBE20:
 125              	.LBE23:
 126              	.LBE30:
 127              	.LBE33:
  61:../src/platform/mpfs_hal/common/nwc/mss_sgmii.c ****     }
 128              		.loc 1 61 9 is_stmt 1 discriminator 1
 129              	.LBB34:
 130              	.LBB31:
  86:../src/platform/mpfs_hal/common/nwc/mss_sgmii.c ****     static uint32_t status = SGMII_IN_SETUP;
 131              		.loc 1 86 5 discriminator 1
  87:../src/platform/mpfs_hal/common/nwc/mss_sgmii.c ****     static uint32_t timer_out;
 132              		.loc 1 87 5 discriminator 1
  88:../src/platform/mpfs_hal/common/nwc/mss_sgmii.c **** 
 133              		.loc 1 88 5 discriminator 1
  98:../src/platform/mpfs_hal/common/nwc/mss_sgmii.c ****     {
 134              		.loc 1 98 5 discriminator 1
 135 002c 97070000 		lla	a5,.LANCHOR0
 135      93870700 
 136 0034 9843     		lw	a4,0(a5)
 137 0036 B947     		li	a5,14
 138 0038 63ECE704 		bgtu	a4,a5,.L3
 139 003c 97070000 		lwu	a5,.LANCHOR0
 139      83E70700 
 140 0044 17070000 		lla	a4,.L5
 140      13070700 
 141 004c 8A07     		slli	a5,a5,2
 142 004e BA97     		add	a5,a5,a4
 143 0050 9C43     		lw	a5,0(a5)
 144 0052 BA97     		add	a5,a5,a4
 145 0054 8287     		jr	a5
 146              		.section	.rodata.sgmii_setup,"a",@progbits
 147              		.align	2
 148              		.align	2
 149              	.L5:
 150 0000 00000000 		.word	.L19-.L5
 151 0004 00000000 		.word	.L18-.L5
 152 0008 00000000 		.word	.L17-.L5
 153 000c 00000000 		.word	.L16-.L5
 154 0010 00000000 		.word	.L15-.L5
 155 0014 00000000 		.word	.L14-.L5
 156 0018 00000000 		.word	.L13-.L5
 157 001c 00000000 		.word	.L12-.L5
 158 0020 00000000 		.word	.L11-.L5
 159 0024 00000000 		.word	.L10-.L5
 160 0028 00000000 		.word	.L9-.L5
 161 002c 00000000 		.word	.L8-.L5
 162 0030 00000000 		.word	.L7-.L5
 163 0034 00000000 		.word	.L6-.L5
 164 0038 00000000 		.word	.L4-.L5
 165              		.section	.text.sgmii_setup
 166              	.L19:
 101:../src/platform/mpfs_hal/common/nwc/mss_sgmii.c ****             CFG_DDR_SGMII_PHY->SOFT_RESET_SGMII.SOFT_RESET_SGMII = \
 167              		.loc 1 101 13
 101:../src/platform/mpfs_hal/common/nwc/mss_sgmii.c ****             CFG_DDR_SGMII_PHY->SOFT_RESET_SGMII.SOFT_RESET_SGMII = \
 168              		.loc 1 101 20 is_stmt 0
 169 0056 854A     		li	s5,1
 170 0058 97070000 		sw	s5,.LANCHOR1,a5
 170      23A05701 
 102:../src/platform/mpfs_hal/common/nwc/mss_sgmii.c ****                     (0x01 << 8U) | 1U; /* PERIPH   soft reset */
 171              		.loc 1 102 13 is_stmt 1
 102:../src/platform/mpfs_hal/common/nwc/mss_sgmii.c ****                     (0x01 << 8U) | 1U; /* PERIPH   soft reset */
 172              		.loc 1 102 30 is_stmt 0
 173 0060 97070000 		lla	a5,CFG_DDR_SGMII_PHY
 173      93870700 
 174 0068 9C63     		ld	a5,0(a5)
 102:../src/platform/mpfs_hal/common/nwc/mss_sgmii.c ****                     (0x01 << 8U) | 1U; /* PERIPH   soft reset */
 175              		.loc 1 102 66
 176 006a 13071010 		li	a4,257
 177 006e A297     		add	a5,a5,s0
 178 0070 23A0E7C0 		sw	a4,-1024(a5)
 104:../src/platform/mpfs_hal/common/nwc/mss_sgmii.c ****             setup_sgmii_rpc_per_config();         /* load RPC SGMII_MODE register ext */
 179              		.loc 1 104 13 is_stmt 1
 104:../src/platform/mpfs_hal/common/nwc/mss_sgmii.c ****             setup_sgmii_rpc_per_config();         /* load RPC SGMII_MODE register ext */
 180              		.loc 1 104 66 is_stmt 0
 181 0074 23A057C1 		sw	s5,-1024(a5)
 105:../src/platform/mpfs_hal/common/nwc/mss_sgmii.c **** 
 182              		.loc 1 105 13 is_stmt 1
 183 0078 97000000 		call	setup_sgmii_rpc_per_config
 183      E7800000 
 184              	.LVL0:
 112:../src/platform/mpfs_hal/common/nwc/mss_sgmii.c ****             sgmii_training_state = SGMII_IO_EN;
 185              		.loc 1 112 13
 112:../src/platform/mpfs_hal/common/nwc/mss_sgmii.c ****             sgmii_training_state = SGMII_IO_EN;
 186              		.loc 1 112 47 is_stmt 0
 187 0080 B707403E 		li	a5,1044381696
 188 0084 23A05701 		sw	s5,0(a5)
 113:../src/platform/mpfs_hal/common/nwc/mss_sgmii.c ****             break;
 189              		.loc 1 113 13 is_stmt 1
 113:../src/platform/mpfs_hal/common/nwc/mss_sgmii.c ****             break;
 190              		.loc 1 113 34 is_stmt 0
 191 0088 97070000 		sw	s5,.LANCHOR0,a5
 191      23A05701 
 114:../src/platform/mpfs_hal/common/nwc/mss_sgmii.c **** 
 192              		.loc 1 114 13 is_stmt 1
 193              	.L3:
 399:../src/platform/mpfs_hal/common/nwc/mss_sgmii.c **** }
 194              		.loc 1 399 5
 195              	.LBE31:
 196              	.LBE34:
  58:../src/platform/mpfs_hal/common/nwc/mss_sgmii.c ****         {
 197              		.loc 1 58 15 is_stmt 0
 198 0090 97070000 		lla	a5,.LANCHOR1
 198      93870700 
 199 0098 9C43     		lw	a5,0(a5)
 200 009a C9FB     		bne	a5,zero,.L28
  74:../src/platform/mpfs_hal/common/nwc/mss_sgmii.c **** }
 201              		.loc 1 74 5 is_stmt 1
  75:../src/platform/mpfs_hal/common/nwc/mss_sgmii.c **** 
 202              		.loc 1 75 1 is_stmt 0
 203 009c E270     		ld	ra,56(sp)
 204              		.cfi_remember_state
 205              		.cfi_restore 1
 206 009e 4274     		ld	s0,48(sp)
 207              		.cfi_restore 8
 208 00a0 A274     		ld	s1,40(sp)
 209              		.cfi_restore 9
 210 00a2 0279     		ld	s2,32(sp)
 211              		.cfi_restore 18
 212 00a4 E269     		ld	s3,24(sp)
 213              		.cfi_restore 19
 214 00a6 426A     		ld	s4,16(sp)
 215              		.cfi_restore 20
 216 00a8 A26A     		ld	s5,8(sp)
 217              		.cfi_restore 21
 218 00aa 0145     		li	a0,0
 219 00ac 2161     		addi	sp,sp,64
 220              		.cfi_def_cfa_offset 0
 221 00ae 8280     		jr	ra
 222              	.L18:
 223              		.cfi_restore_state
 224              	.LBB35:
 225              	.LBB32:
 123:../src/platform/mpfs_hal/common/nwc/mss_sgmii.c ****             if((CFG_DDR_SGMII_PHY->PVT_STAT.PVT_STAT & (0x01U<<6U)) != 0U)
 226              		.loc 1 123 13 is_stmt 1
 123:../src/platform/mpfs_hal/common/nwc/mss_sgmii.c ****             if((CFG_DDR_SGMII_PHY->PVT_STAT.PVT_STAT & (0x01U<<6U)) != 0U)
 227              		.loc 1 123 22 is_stmt 0
 228 00b0 97070000 		lla	a5,.LANCHOR2
 228      93870700 
 229 00b8 9C43     		lw	a5,0(a5)
 230 00ba 8527     		addiw	a5,a5,1
 231 00bc 17070000 		sw	a5,.LANCHOR2,a4
 231      2320F700 
 124:../src/platform/mpfs_hal/common/nwc/mss_sgmii.c ****             {
 232              		.loc 1 124 13 is_stmt 1
 124:../src/platform/mpfs_hal/common/nwc/mss_sgmii.c ****             {
 233              		.loc 1 124 34 is_stmt 0
 234 00c4 97070000 		lla	a5,CFG_DDR_SGMII_PHY
 234      93870700 
 235 00cc 9C63     		ld	a5,0(a5)
 124:../src/platform/mpfs_hal/common/nwc/mss_sgmii.c ****             {
 236              		.loc 1 124 44
 237 00ce A297     		add	a5,a5,s0
 238 00d0 83A707C2 		lw	a5,-992(a5)
 124:../src/platform/mpfs_hal/common/nwc/mss_sgmii.c ****             {
 239              		.loc 1 124 54
 240 00d4 93F70704 		andi	a5,a5,64
 124:../src/platform/mpfs_hal/common/nwc/mss_sgmii.c ****             {
 241              		.loc 1 124 15
 242 00d8 C5DF     		beq	a5,zero,.L3
 126:../src/platform/mpfs_hal/common/nwc/mss_sgmii.c ****                 sgmii_training_state = SGMII_RAMP_TIMER;
 243              		.loc 1 126 17 is_stmt 1
 126:../src/platform/mpfs_hal/common/nwc/mss_sgmii.c ****                 sgmii_training_state = SGMII_RAMP_TIMER;
 244              		.loc 1 126 26 is_stmt 0
 245 00da 97070000 		sw	zero,.LANCHOR2,a5
 245      23A00700 
 127:../src/platform/mpfs_hal/common/nwc/mss_sgmii.c ****             }
 246              		.loc 1 127 17 is_stmt 1
 127:../src/platform/mpfs_hal/common/nwc/mss_sgmii.c ****             }
 247              		.loc 1 127 38 is_stmt 0
 248 00e2 8947     		li	a5,2
 249              	.L41:
 349:../src/platform/mpfs_hal/common/nwc/mss_sgmii.c ****             }
 250              		.loc 1 349 38
 251 00e4 17070000 		sw	a5,.LANCHOR0,a4
 251      2320F700 
 252 00ec 55B7     		j	.L3
 253              	.L17:
 141:../src/platform/mpfs_hal/common/nwc/mss_sgmii.c ****             if(timer_out >= 0xFU)
 254              		.loc 1 141 13 is_stmt 1
 141:../src/platform/mpfs_hal/common/nwc/mss_sgmii.c ****             if(timer_out >= 0xFU)
 255              		.loc 1 141 22 is_stmt 0
 256 00ee 97070000 		lla	a5,.LANCHOR2
 256      93870700 
 257 00f6 9C43     		lw	a5,0(a5)
 142:../src/platform/mpfs_hal/common/nwc/mss_sgmii.c ****             {
 258              		.loc 1 142 15
 259 00f8 3947     		li	a4,14
 141:../src/platform/mpfs_hal/common/nwc/mss_sgmii.c ****             if(timer_out >= 0xFU)
 260              		.loc 1 141 22
 261 00fa 9B861700 		addiw	a3,a5,1
 262 00fe B687     		mv	a5,a3
 142:../src/platform/mpfs_hal/common/nwc/mss_sgmii.c ****             {
 263              		.loc 1 142 13 is_stmt 1
 142:../src/platform/mpfs_hal/common/nwc/mss_sgmii.c ****             {
 264              		.loc 1 142 15 is_stmt 0
 265 0100 6367D700 		bgtu	a3,a4,.L21
 266              	.L42:
 358:../src/platform/mpfs_hal/common/nwc/mss_sgmii.c ****             if(timer_out >= 0xFFFU)
 267              		.loc 1 358 22
 268 0104 17070000 		sw	a5,.LANCHOR2,a4
 268      2320F700 
 269 010c 51B7     		j	.L3
 270              	.L21:
 144:../src/platform/mpfs_hal/common/nwc/mss_sgmii.c ****                 sgmii_training_state = SGMII_IO_SETUP;
 271              		.loc 1 144 17 is_stmt 1
 144:../src/platform/mpfs_hal/common/nwc/mss_sgmii.c ****                 sgmii_training_state = SGMII_IO_SETUP;
 272              		.loc 1 144 26 is_stmt 0
 273 010e 97070000 		sw	zero,.LANCHOR2,a5
 273      23A00700 
 145:../src/platform/mpfs_hal/common/nwc/mss_sgmii.c ****             }
 274              		.loc 1 145 17 is_stmt 1
 145:../src/platform/mpfs_hal/common/nwc/mss_sgmii.c ****             }
 275              		.loc 1 145 38 is_stmt 0
 276 0116 8D47     		li	a5,3
 277 0118 F1B7     		j	.L41
 278              	.L16:
 164:../src/platform/mpfs_hal/common/nwc/mss_sgmii.c **** 
 279              		.loc 1 164 13 is_stmt 1
 164:../src/platform/mpfs_hal/common/nwc/mss_sgmii.c **** 
 280              		.loc 1 164 21 is_stmt 0
 281 011a 97070000 		lla	a5,SCB_REGS
 281      93870700 
 282 0122 9C63     		ld	a5,0(a5)
 181:../src/platform/mpfs_hal/common/nwc/mss_sgmii.c **** 
 283              		.loc 1 181 41
 284 0124 3707103E 		li	a4,1041235968
 214:../src/platform/mpfs_hal/common/nwc/mss_sgmii.c ****                 /* reg_pvt_soft_reset_periph  */
 285              		.loc 1 214 61
 286 0128 9306F047 		li	a3,1151
 164:../src/platform/mpfs_hal/common/nwc/mss_sgmii.c **** 
 287              		.loc 1 164 49
 288 012c 23A00710 		sw	zero,256(a5)
 181:../src/platform/mpfs_hal/common/nwc/mss_sgmii.c **** 
 289              		.loc 1 181 13 is_stmt 1
 181:../src/platform/mpfs_hal/common/nwc/mss_sgmii.c **** 
 290              		.loc 1 181 41 is_stmt 0
 291 0130 8547     		li	a5,1
 292 0132 1CC3     		sw	a5,0(a4)
 200:../src/platform/mpfs_hal/common/nwc/mss_sgmii.c ****                 /* sgmiiphy_lane 23 soft-reset register (0x3650_0000) */
 293              		.loc 1 200 17 is_stmt 1
 200:../src/platform/mpfs_hal/common/nwc/mss_sgmii.c ****                 /* sgmiiphy_lane 23 soft-reset register (0x3650_0000) */
 294              		.loc 1 200 45 is_stmt 0
 295 0134 37075036 		li	a4,911212544
 296 0138 1CC3     		sw	a5,0(a4)
 202:../src/platform/mpfs_hal/common/nwc/mss_sgmii.c ****             }
 297              		.loc 1 202 17 is_stmt 1
 202:../src/platform/mpfs_hal/common/nwc/mss_sgmii.c ****             }
 298              		.loc 1 202 45 is_stmt 0
 299 013a 37075136 		li	a4,911278080
 300 013e 1CC3     		sw	a5,0(a4)
 214:../src/platform/mpfs_hal/common/nwc/mss_sgmii.c ****                 /* reg_pvt_soft_reset_periph  */
 301              		.loc 1 214 17 is_stmt 1
 214:../src/platform/mpfs_hal/common/nwc/mss_sgmii.c ****                 /* reg_pvt_soft_reset_periph  */
 302              		.loc 1 214 34 is_stmt 0
 303 0140 17070000 		lla	a4,CFG_DDR_SGMII_PHY
 303      13070700 
 304 0148 1863     		ld	a4,0(a4)
 214:../src/platform/mpfs_hal/common/nwc/mss_sgmii.c ****                 /* reg_pvt_soft_reset_periph  */
 305              		.loc 1 214 61
 306 014a 2297     		add	a4,a4,s0
 307 014c 232ED7C0 		sw	a3,-996(a4)
 216:../src/platform/mpfs_hal/common/nwc/mss_sgmii.c ****                 /* PVT soft reset - SCB */
 308              		.loc 1 216 17 is_stmt 1
 216:../src/platform/mpfs_hal/common/nwc/mss_sgmii.c ****                 /* PVT soft reset - SCB */
 309              		.loc 1 216 61 is_stmt 0
 310 0150 9306F007 		li	a3,127
 311 0154 232ED7C0 		sw	a3,-996(a4)
 219:../src/platform/mpfs_hal/common/nwc/mss_sgmii.c ****                 /* make sure out of reset */
 312              		.loc 1 219 17 is_stmt 1
 219:../src/platform/mpfs_hal/common/nwc/mss_sgmii.c ****                 /* make sure out of reset */
 313              		.loc 1 219 37 is_stmt 0
 314 0158 17070000 		lla	a4,IOSCB_IO_CALIB_SGMII
 314      13070700 
 315 0160 1863     		ld	a4,0(a4)
 219:../src/platform/mpfs_hal/common/nwc/mss_sgmii.c ****                 /* make sure out of reset */
 316              		.loc 1 219 61
 317 0162 1CC3     		sw	a5,0(a4)
 221:../src/platform/mpfs_hal/common/nwc/mss_sgmii.c ****             }
 318              		.loc 1 221 17 is_stmt 1
 221:../src/platform/mpfs_hal/common/nwc/mss_sgmii.c ****             }
 319              		.loc 1 221 61 is_stmt 0
 320 0164 23200700 		sw	zero,0(a4)
 223:../src/platform/mpfs_hal/common/nwc/mss_sgmii.c ****             break;
 321              		.loc 1 223 13 is_stmt 1
 223:../src/platform/mpfs_hal/common/nwc/mss_sgmii.c ****             break;
 322              		.loc 1 223 34 is_stmt 0
 323 0168 9147     		li	a5,4
 324 016a ADBF     		j	.L41
 325              	.L15:
 238:../src/platform/mpfs_hal/common/nwc/mss_sgmii.c ****             {
 326              		.loc 1 238 13 is_stmt 1
 238:../src/platform/mpfs_hal/common/nwc/mss_sgmii.c ****             {
 327              		.loc 1 238 34 is_stmt 0
 328 016c 97070000 		lla	a5,CFG_DDR_SGMII_PHY
 328      93870700 
 329 0174 9C63     		ld	a5,0(a5)
 238:../src/platform/mpfs_hal/common/nwc/mss_sgmii.c ****             {
 330              		.loc 1 238 44
 331 0176 A297     		add	a5,a5,s0
 332 0178 83A707C2 		lw	a5,-992(a5)
 238:../src/platform/mpfs_hal/common/nwc/mss_sgmii.c ****             {
 333              		.loc 1 238 15
 334 017c 13971703 		slli	a4,a5,49
 240:../src/platform/mpfs_hal/common/nwc/mss_sgmii.c ****             }
 335              		.loc 1 240 38
 336 0180 9547     		li	a5,5
 238:../src/platform/mpfs_hal/common/nwc/mss_sgmii.c ****             {
 337              		.loc 1 238 15
 338 0182 E34107F6 		blt	a4,zero,.L41
 339 0186 29B7     		j	.L3
 340              	.L14:
 250:../src/platform/mpfs_hal/common/nwc/mss_sgmii.c ****             IOSCB_IO_CALIB_SGMII->IOC_REG0       |= (0x01U<<14U);
 341              		.loc 1 250 13 is_stmt 1
 250:../src/platform/mpfs_hal/common/nwc/mss_sgmii.c ****             IOSCB_IO_CALIB_SGMII->IOC_REG0       |= (0x01U<<14U);
 342              		.loc 1 250 50 is_stmt 0
 343 0188 97070000 		lla	a5,CFG_DDR_SGMII_PHY
 343      93870700 
 344 0190 9863     		ld	a4,0(a5)
 345 0192 B7060040 		li	a3,1073741824
 346 0196 2297     		add	a4,a4,s0
 347 0198 832707C2 		lw	a5,-992(a4)
 348 019c 8127     		sext.w	a5,a5
 349 019e D58F     		or	a5,a5,a3
 350 01a0 2320F7C2 		sw	a5,-992(a4)
 251:../src/platform/mpfs_hal/common/nwc/mss_sgmii.c ****             sgmii_training_state = SGMII_SET_UP_PLL;
 351              		.loc 1 251 13 is_stmt 1
 251:../src/platform/mpfs_hal/common/nwc/mss_sgmii.c ****             sgmii_training_state = SGMII_SET_UP_PLL;
 352              		.loc 1 251 50 is_stmt 0
 353 01a4 97070000 		lla	a5,IOSCB_IO_CALIB_SGMII
 353      93870700 
 354 01ac 9863     		ld	a4,0(a5)
 355 01ae 9166     		li	a3,16384
 356 01b0 5C43     		lw	a5,4(a4)
 357 01b2 8127     		sext.w	a5,a5
 358 01b4 D58F     		or	a5,a5,a3
 359 01b6 5CC3     		sw	a5,4(a4)
 252:../src/platform/mpfs_hal/common/nwc/mss_sgmii.c ****             break;
 360              		.loc 1 252 13 is_stmt 1
 252:../src/platform/mpfs_hal/common/nwc/mss_sgmii.c ****             break;
 361              		.loc 1 252 34 is_stmt 0
 362 01b8 9947     		li	a5,6
 363 01ba 2DB7     		j	.L41
 364              	.L13:
 262:../src/platform/mpfs_hal/common/nwc/mss_sgmii.c ****             /* 0U => configure using scb, 1U => NVMAP reset */
 365              		.loc 1 262 13 is_stmt 1
 366 01bc 0545     		li	a0,1
 367 01be 97000000 		call	sgmii_mux_config
 367      E7800000 
 368              	.LVL1:
 264:../src/platform/mpfs_hal/common/nwc/mss_sgmii.c **** 
 369              		.loc 1 264 13
 370 01c6 0545     		li	a0,1
 371 01c8 97000000 		call	sgmii_pll_config_scb
 371      E7800000 
 372              	.LVL2:
 266:../src/platform/mpfs_hal/common/nwc/mss_sgmii.c ****             sgmii_training_state = SGMII_WAIT_FOR_MSS_LOCK;
 373              		.loc 1 266 13
 266:../src/platform/mpfs_hal/common/nwc/mss_sgmii.c ****             sgmii_training_state = SGMII_WAIT_FOR_MSS_LOCK;
 374              		.loc 1 266 22 is_stmt 0
 375 01d0 97070000 		sw	zero,.LANCHOR2,a5
 375      23A00700 
 267:../src/platform/mpfs_hal/common/nwc/mss_sgmii.c ****             break;
 376              		.loc 1 267 13 is_stmt 1
 267:../src/platform/mpfs_hal/common/nwc/mss_sgmii.c ****             break;
 377              		.loc 1 267 34 is_stmt 0
 378 01d8 9D47     		li	a5,7
 379 01da 29B7     		j	.L41
 380              	.L12:
 271:../src/platform/mpfs_hal/common/nwc/mss_sgmii.c ****             {
 381              		.loc 1 271 13 is_stmt 1
 271:../src/platform/mpfs_hal/common/nwc/mss_sgmii.c ****             {
 382              		.loc 1 271 34 is_stmt 0
 383 01dc 97070000 		lla	a5,CFG_DDR_SGMII_PHY
 383      93870700 
 384 01e4 9C63     		ld	a5,0(a5)
 271:../src/platform/mpfs_hal/common/nwc/mss_sgmii.c ****             {
 385              		.loc 1 271 44
 386 01e6 A297     		add	a5,a5,s0
 387 01e8 83A787C0 		lw	a5,-1016(a5)
 271:../src/platform/mpfs_hal/common/nwc/mss_sgmii.c ****             {
 388              		.loc 1 271 54
 389 01ec 93F70708 		andi	a5,a5,128
 271:../src/platform/mpfs_hal/common/nwc/mss_sgmii.c ****             {
 390              		.loc 1 271 16
 391 01f0 E38007EA 		beq	a5,zero,.L3
 273:../src/platform/mpfs_hal/common/nwc/mss_sgmii.c ****             }
 392              		.loc 1 273 17 is_stmt 1
 273:../src/platform/mpfs_hal/common/nwc/mss_sgmii.c ****             }
 393              		.loc 1 273 38 is_stmt 0
 394 01f4 A147     		li	a5,8
 395 01f6 FDB5     		j	.L41
 396              	.L11:
 278:../src/platform/mpfs_hal/common/nwc/mss_sgmii.c ****             {
 397              		.loc 1 278 13 is_stmt 1
 278:../src/platform/mpfs_hal/common/nwc/mss_sgmii.c ****             {
 398              		.loc 1 278 34 is_stmt 0
 399 01f8 97070000 		lla	a5,CFG_DDR_SGMII_PHY
 399      93870700 
 400 0200 9C63     		ld	a5,0(a5)
 278:../src/platform/mpfs_hal/common/nwc/mss_sgmii.c ****             {
 401              		.loc 1 278 46
 402 0202 A297     		add	a5,a5,s0
 403 0204 83A747C1 		lw	a5,-1004(a5)
 278:../src/platform/mpfs_hal/common/nwc/mss_sgmii.c ****             {
 404              		.loc 1 278 16
 405 0208 13978702 		slli	a4,a5,40
 280:../src/platform/mpfs_hal/common/nwc/mss_sgmii.c ****             }
 406              		.loc 1 280 38
 407 020c A547     		li	a5,9
 278:../src/platform/mpfs_hal/common/nwc/mss_sgmii.c ****             {
 408              		.loc 1 278 16
 409 020e E34B07EC 		blt	a4,zero,.L41
 410 0212 BDBD     		j	.L3
 411              	.L10:
 294:../src/platform/mpfs_hal/common/nwc/mss_sgmii.c ****             (void)mss_config_clk_rst(MSS_PERIPH_MAC0, (uint8_t) MPFS_HAL_FIRST_HART, PERIPHERAL_ON)
 412              		.loc 1 294 13 is_stmt 1
 294:../src/platform/mpfs_hal/common/nwc/mss_sgmii.c ****             (void)mss_config_clk_rst(MSS_PERIPH_MAC0, (uint8_t) MPFS_HAL_FIRST_HART, PERIPHERAL_ON)
 413              		.loc 1 294 19 is_stmt 0
 414 0214 0146     		li	a2,0
 415 0216 8145     		li	a1,0
 416 0218 4145     		li	a0,16
 417 021a 97000000 		call	mss_config_clk_rst
 417      E7800000 
 418              	.LVL3:
 295:../src/platform/mpfs_hal/common/nwc/mss_sgmii.c ****             GEM_A_LO->network_config |= (0x01U << 10U) | (0x01U << 11U);   /* GEM0 */
 419              		.loc 1 295 13 is_stmt 1
 295:../src/platform/mpfs_hal/common/nwc/mss_sgmii.c ****             GEM_A_LO->network_config |= (0x01U << 10U) | (0x01U << 11U);   /* GEM0 */
 420              		.loc 1 295 19 is_stmt 0
 421 0222 0146     		li	a2,0
 422 0224 8145     		li	a1,0
 423 0226 4145     		li	a0,16
 424 0228 97000000 		call	mss_config_clk_rst
 424      E7800000 
 425              	.LVL4:
 296:../src/platform/mpfs_hal/common/nwc/mss_sgmii.c ****             GEM_B_LO->network_config |= (0x01U << 10U) | (0x01U << 11U);   /* GEM1 */
 426              		.loc 1 296 13 is_stmt 1
 296:../src/platform/mpfs_hal/common/nwc/mss_sgmii.c ****             GEM_B_LO->network_config |= (0x01U << 10U) | (0x01U << 11U);   /* GEM1 */
 427              		.loc 1 296 38 is_stmt 0
 428 0230 B7061120 		li	a3,537985024
 429 0234 9846     		lw	a4,8(a3)
 430 0236 130604C0 		addi	a2,s0,-1024
 431 023a 0127     		sext.w	a4,a4
 432 023c 518F     		or	a4,a4,a2
 433 023e 98C6     		sw	a4,8(a3)
 297:../src/platform/mpfs_hal/common/nwc/mss_sgmii.c ****             sgmii_training_state = SGMII_DETERMINE_SILICON_VARIANT;
 434              		.loc 1 297 13 is_stmt 1
 297:../src/platform/mpfs_hal/common/nwc/mss_sgmii.c ****             sgmii_training_state = SGMII_DETERMINE_SILICON_VARIANT;
 435              		.loc 1 297 38 is_stmt 0
 436 0240 37271120 		li	a4,537993216
 437 0244 1C47     		lw	a5,8(a4)
 438 0246 8127     		sext.w	a5,a5
 439 0248 D18F     		or	a5,a5,a2
 440 024a 1CC7     		sw	a5,8(a4)
 298:../src/platform/mpfs_hal/common/nwc/mss_sgmii.c ****             break;
 441              		.loc 1 298 13 is_stmt 1
 298:../src/platform/mpfs_hal/common/nwc/mss_sgmii.c ****             break;
 442              		.loc 1 298 34 is_stmt 0
 443 024c A947     		li	a5,10
 444 024e 59BD     		j	.L41
 445              	.L9:
 305:../src/platform/mpfs_hal/common/nwc/mss_sgmii.c **** 
 446              		.loc 1 305 13 is_stmt 1
 305:../src/platform/mpfs_hal/common/nwc/mss_sgmii.c **** 
 447              		.loc 1 305 50 is_stmt 0
 448 0250 97070000 		lla	a5,CFG_DDR_SGMII_PHY
 448      93870700 
 449 0258 9C63     		ld	a5,0(a5)
 305:../src/platform/mpfs_hal/common/nwc/mss_sgmii.c **** 
 450              		.loc 1 305 62
 451 025a A297     		add	a5,a5,s0
 452 025c 03A747C1 		lw	a4,-1004(a5)
 307:../src/platform/mpfs_hal/common/nwc/mss_sgmii.c ****             {
 453              		.loc 1 307 45
 454 0260 83A687C2 		lw	a3,-984(a5)
 305:../src/platform/mpfs_hal/common/nwc/mss_sgmii.c **** 
 455              		.loc 1 305 62
 456 0264 0127     		sext.w	a4,a4
 307:../src/platform/mpfs_hal/common/nwc/mss_sgmii.c ****             {
 457              		.loc 1 307 13 is_stmt 1
 307:../src/platform/mpfs_hal/common/nwc/mss_sgmii.c ****             {
 458              		.loc 1 307 15 is_stmt 0
 459 0266 13960602 		slli	a2,a3,32
 460 026a 63550602 		bge	a2,zero,.L23
 309:../src/platform/mpfs_hal/common/nwc/mss_sgmii.c ****                 set_early_late_thresholds(LATE_EYE_WIDTH_PART_REVC_OR_LATER_PRE_TEST, EARLY_EYE_WID
 461              		.loc 1 309 17 is_stmt 1
 309:../src/platform/mpfs_hal/common/nwc/mss_sgmii.c ****                 set_early_late_thresholds(LATE_EYE_WIDTH_PART_REVC_OR_LATER_PRE_TEST, EARLY_EYE_WID
 462              		.loc 1 309 33 is_stmt 0
 463 026e 0547     		li	a4,1
 464 0270 97060000 		sw	a4,.LANCHOR3,a3
 464      23A0E600 
 310:../src/platform/mpfs_hal/common/nwc/mss_sgmii.c ****             }
 465              		.loc 1 310 17 is_stmt 1
 466              	.LVL5:
 467              	.LBB24:
 468              	.LBB25:
 636:../src/platform/mpfs_hal/common/nwc/mss_sgmii.c ****     uint32_t p_eye_value;
 469              		.loc 1 636 5
 637:../src/platform/mpfs_hal/common/nwc/mss_sgmii.c **** 
 470              		.loc 1 637 5
 643:../src/platform/mpfs_hal/common/nwc/mss_sgmii.c ****     n_eye_values |= (uint32_t)(n_late_threshold << SHIFT_TO_CH1_N_EYE_VALUE);
 471              		.loc 1 643 5
 644:../src/platform/mpfs_hal/common/nwc/mss_sgmii.c **** 
 472              		.loc 1 644 5
 646:../src/platform/mpfs_hal/common/nwc/mss_sgmii.c **** 
 473              		.loc 1 646 5
 646:../src/platform/mpfs_hal/common/nwc/mss_sgmii.c **** 
 474              		.loc 1 646 49 is_stmt 0
 475 0278 370700DB 		li	a4,-620756992
 476 027c 23A2E7C2 		sw	a4,-988(a5)
 651:../src/platform/mpfs_hal/common/nwc/mss_sgmii.c ****     CFG_DDR_SGMII_PHY->CH0_CNTL.CH0_CNTL        = ((LIBERO_SETTING_CH0_CNTL & REG_RX0_EYEWIDTH_P_MA
 477              		.loc 1 651 5 is_stmt 1
 478              	.LVL6:
 479              		.loc 1 652 5
 480              		.loc 1 652 49 is_stmt 0
 481 0280 3777F0B7 		li	a4,-1208979456
 482 0284 13070777 		addi	a4,a4,1904
 483 0288 23A6E7C0 		sw	a4,-1012(a5)
 653:../src/platform/mpfs_hal/common/nwc/mss_sgmii.c ****     CFG_DDR_SGMII_PHY->CH1_CNTL.CH1_CNTL        = ((LIBERO_SETTING_CH1_CNTL & REG_RX0_EYEWIDTH_P_MA
 484              		.loc 1 653 5 is_stmt 1
 485              		.loc 1 653 49 is_stmt 0
 486 028c 23A8E7C0 		sw	a4,-1008(a5)
 487              	.LVL7:
 488              	.L24:
 489              	.LBE25:
 490              	.LBE24:
 329:../src/platform/mpfs_hal/common/nwc/mss_sgmii.c ****             break;
 491              		.loc 1 329 13 is_stmt 1
 329:../src/platform/mpfs_hal/common/nwc/mss_sgmii.c ****             break;
 492              		.loc 1 329 34 is_stmt 0
 493 0290 AD47     		li	a5,11
 494 0292 89BD     		j	.L41
 495              	.L23:
 318:../src/platform/mpfs_hal/common/nwc/mss_sgmii.c ****                 {
 496              		.loc 1 318 17 is_stmt 1
 305:../src/platform/mpfs_hal/common/nwc/mss_sgmii.c **** 
 497              		.loc 1 305 74 is_stmt 0
 498 0294 1B570701 		srliw	a4,a4,16
 318:../src/platform/mpfs_hal/common/nwc/mss_sgmii.c ****                 {
 499              		.loc 1 318 19
 500 0298 1377F707 		andi	a4,a4,127
 501 029c B146     		li	a3,12
 502 029e 63E0E602 		bgtu	a4,a3,.L25
 320:../src/platform/mpfs_hal/common/nwc/mss_sgmii.c ****                     set_early_late_thresholds(LATE_EYE_WIDTH_SS_PART_REVB, EARLY_EYE_WIDTH_SS_PART_
 503              		.loc 1 320 21 is_stmt 1
 320:../src/platform/mpfs_hal/common/nwc/mss_sgmii.c ****                     set_early_late_thresholds(LATE_EYE_WIDTH_SS_PART_REVB, EARLY_EYE_WIDTH_SS_PART_
 504              		.loc 1 320 37 is_stmt 0
 505 02a2 0947     		li	a4,2
 506 02a4 97060000 		sw	a4,.LANCHOR3,a3
 506      23A0E600 
 321:../src/platform/mpfs_hal/common/nwc/mss_sgmii.c ****                 }
 507              		.loc 1 321 21 is_stmt 1
 508              	.LVL8:
 509              	.LBB26:
 510              	.LBB21:
 636:../src/platform/mpfs_hal/common/nwc/mss_sgmii.c ****     uint32_t p_eye_value;
 511              		.loc 1 636 5
 637:../src/platform/mpfs_hal/common/nwc/mss_sgmii.c **** 
 512              		.loc 1 637 5
 643:../src/platform/mpfs_hal/common/nwc/mss_sgmii.c ****     n_eye_values |= (uint32_t)(n_late_threshold << SHIFT_TO_CH1_N_EYE_VALUE);
 513              		.loc 1 643 5
 644:../src/platform/mpfs_hal/common/nwc/mss_sgmii.c **** 
 514              		.loc 1 644 5
 646:../src/platform/mpfs_hal/common/nwc/mss_sgmii.c **** 
 515              		.loc 1 646 5
 646:../src/platform/mpfs_hal/common/nwc/mss_sgmii.c **** 
 516              		.loc 1 646 49 is_stmt 0
 517 02ac 370700DB 		li	a4,-620756992
 518 02b0 23A2E7C2 		sw	a4,-988(a5)
 651:../src/platform/mpfs_hal/common/nwc/mss_sgmii.c ****     CFG_DDR_SGMII_PHY->CH0_CNTL.CH0_CNTL        = ((LIBERO_SETTING_CH0_CNTL & REG_RX0_EYEWIDTH_P_MA
 519              		.loc 1 651 5 is_stmt 1
 520              	.LVL9:
 652:../src/platform/mpfs_hal/common/nwc/mss_sgmii.c ****     CFG_DDR_SGMII_PHY->CH1_CNTL.CH1_CNTL        = ((LIBERO_SETTING_CH1_CNTL & REG_RX0_EYEWIDTH_P_MA
 521              		.loc 1 652 5
 652:../src/platform/mpfs_hal/common/nwc/mss_sgmii.c ****     CFG_DDR_SGMII_PHY->CH1_CNTL.CH1_CNTL        = ((LIBERO_SETTING_CH1_CNTL & REG_RX0_EYEWIDTH_P_MA
 522              		.loc 1 652 49 is_stmt 0
 523 02b4 23A637C1 		sw	s3,-1012(a5)
 524              		.loc 1 653 5 is_stmt 1
 525              		.loc 1 653 49 is_stmt 0
 526 02b8 23A837C1 		sw	s3,-1008(a5)
 527 02bc D1BF     		j	.L24
 528              	.LVL10:
 529              	.L25:
 530              	.LBE21:
 531              	.LBE26:
 325:../src/platform/mpfs_hal/common/nwc/mss_sgmii.c ****                     set_early_late_thresholds(LATE_TT_PART_REVB, EARLY_TT_PART_REVB);
 532              		.loc 1 325 21 is_stmt 1
 325:../src/platform/mpfs_hal/common/nwc/mss_sgmii.c ****                     set_early_late_thresholds(LATE_TT_PART_REVB, EARLY_TT_PART_REVB);
 533              		.loc 1 325 37 is_stmt 0
 534 02be 0D47     		li	a4,3
 535 02c0 97060000 		sw	a4,.LANCHOR3,a3
 535      23A0E600 
 326:../src/platform/mpfs_hal/common/nwc/mss_sgmii.c ****                 }
 536              		.loc 1 326 21 is_stmt 1
 537              	.LVL11:
 538              	.LBB27:
 539              	.LBB28:
 636:../src/platform/mpfs_hal/common/nwc/mss_sgmii.c ****     uint32_t p_eye_value;
 540              		.loc 1 636 5
 637:../src/platform/mpfs_hal/common/nwc/mss_sgmii.c **** 
 541              		.loc 1 637 5
 643:../src/platform/mpfs_hal/common/nwc/mss_sgmii.c ****     n_eye_values |= (uint32_t)(n_late_threshold << SHIFT_TO_CH1_N_EYE_VALUE);
 542              		.loc 1 643 5
 644:../src/platform/mpfs_hal/common/nwc/mss_sgmii.c **** 
 543              		.loc 1 644 5
 646:../src/platform/mpfs_hal/common/nwc/mss_sgmii.c **** 
 544              		.loc 1 646 5
 646:../src/platform/mpfs_hal/common/nwc/mss_sgmii.c **** 
 545              		.loc 1 646 49 is_stmt 0
 546 02c8 370700FF 		li	a4,-16777216
 547 02cc 23A2E7C2 		sw	a4,-988(a5)
 651:../src/platform/mpfs_hal/common/nwc/mss_sgmii.c ****     CFG_DDR_SGMII_PHY->CH0_CNTL.CH0_CNTL        = ((LIBERO_SETTING_CH0_CNTL & REG_RX0_EYEWIDTH_P_MA
 548              		.loc 1 651 5 is_stmt 1
 549              	.LVL12:
 652:../src/platform/mpfs_hal/common/nwc/mss_sgmii.c ****     CFG_DDR_SGMII_PHY->CH1_CNTL.CH1_CNTL        = ((LIBERO_SETTING_CH1_CNTL & REG_RX0_EYEWIDTH_P_MA
 550              		.loc 1 652 5
 652:../src/platform/mpfs_hal/common/nwc/mss_sgmii.c ****     CFG_DDR_SGMII_PHY->CH1_CNTL.CH1_CNTL        = ((LIBERO_SETTING_CH1_CNTL & REG_RX0_EYEWIDTH_P_MA
 551              		.loc 1 652 49 is_stmt 0
 552 02d0 23A697C0 		sw	s1,-1012(a5)
 553              		.loc 1 653 5 is_stmt 1
 554              		.loc 1 653 49 is_stmt 0
 555 02d4 23A897C0 		sw	s1,-1008(a5)
 556 02d8 65BF     		j	.L24
 557              	.LVL13:
 558              	.L8:
 559              	.LBE28:
 560              	.LBE27:
 344:../src/platform/mpfs_hal/common/nwc/mss_sgmii.c ****             CFG_DDR_SGMII_PHY->DYN_CNTL.DYN_CNTL  = (0U << 14U)|(0U << 13U)|(0x7FU<<0U);
 561              		.loc 1 344 13 is_stmt 1
 344:../src/platform/mpfs_hal/common/nwc/mss_sgmii.c ****             CFG_DDR_SGMII_PHY->DYN_CNTL.DYN_CNTL  = (0U << 14U)|(0U << 13U)|(0x7FU<<0U);
 562              		.loc 1 344 30 is_stmt 0
 563 02da 97070000 		lla	a5,CFG_DDR_SGMII_PHY
 563      93870700 
 564 02e2 9C63     		ld	a5,0(a5)
 345:../src/platform/mpfs_hal/common/nwc/mss_sgmii.c ****             if(silicon_variant == PART_REVC_OR_LATER)
 565              		.loc 1 345 51
 566 02e4 1307F007 		li	a4,127
 344:../src/platform/mpfs_hal/common/nwc/mss_sgmii.c ****             CFG_DDR_SGMII_PHY->DYN_CNTL.DYN_CNTL  = (0U << 14U)|(0U << 13U)|(0x7FU<<0U);
 567              		.loc 1 344 51
 568 02e8 A297     		add	a5,a5,s0
 569 02ea 23AE27C1 		sw	s2,-996(a5)
 345:../src/platform/mpfs_hal/common/nwc/mss_sgmii.c ****             if(silicon_variant == PART_REVC_OR_LATER)
 570              		.loc 1 345 13 is_stmt 1
 345:../src/platform/mpfs_hal/common/nwc/mss_sgmii.c ****             if(silicon_variant == PART_REVC_OR_LATER)
 571              		.loc 1 345 51 is_stmt 0
 572 02ee 23AEE7C0 		sw	a4,-996(a5)
 346:../src/platform/mpfs_hal/common/nwc/mss_sgmii.c ****             {
 573              		.loc 1 346 13 is_stmt 1
 346:../src/platform/mpfs_hal/common/nwc/mss_sgmii.c ****             {
 574              		.loc 1 346 15 is_stmt 0
 575 02f2 97070000 		lla	a5,.LANCHOR3
 575      93870700 
 576 02fa 9843     		lw	a4,0(a5)
 577 02fc 8547     		li	a5,1
 578 02fe 631EF704 		bne	a4,a5,.L43
 348:../src/platform/mpfs_hal/common/nwc/mss_sgmii.c ****                 sgmii_training_state = SGMII_WAIT_10MS;
 579              		.loc 1 348 17 is_stmt 1
 348:../src/platform/mpfs_hal/common/nwc/mss_sgmii.c ****                 sgmii_training_state = SGMII_WAIT_10MS;
 580              		.loc 1 348 26 is_stmt 0
 581 0302 97070000 		sw	zero,.LANCHOR2,a5
 581      23A00700 
 349:../src/platform/mpfs_hal/common/nwc/mss_sgmii.c ****             }
 582              		.loc 1 349 17 is_stmt 1
 349:../src/platform/mpfs_hal/common/nwc/mss_sgmii.c ****             }
 583              		.loc 1 349 38 is_stmt 0
 584 030a B147     		li	a5,12
 585 030c E1BB     		j	.L41
 586              	.L7:
 358:../src/platform/mpfs_hal/common/nwc/mss_sgmii.c ****             if(timer_out >= 0xFFFU)
 587              		.loc 1 358 13 is_stmt 1
 358:../src/platform/mpfs_hal/common/nwc/mss_sgmii.c ****             if(timer_out >= 0xFFFU)
 588              		.loc 1 358 22 is_stmt 0
 589 030e 97070000 		lla	a5,.LANCHOR2
 589      93870700 
 590 0316 9C43     		lw	a5,0(a5)
 591 0318 1B871700 		addiw	a4,a5,1
 592 031c BA87     		mv	a5,a4
 359:../src/platform/mpfs_hal/common/nwc/mss_sgmii.c ****             {
 593              		.loc 1 359 13 is_stmt 1
 359:../src/platform/mpfs_hal/common/nwc/mss_sgmii.c ****             {
 594              		.loc 1 359 15 is_stmt 0
 595 031e E373EADE 		bleu	a4,s4,.L42
 361:../src/platform/mpfs_hal/common/nwc/mss_sgmii.c ****                 sgmii_training_state = SGMII_CHECK_REVC_RESULT;
 596              		.loc 1 361 17 is_stmt 1
 361:../src/platform/mpfs_hal/common/nwc/mss_sgmii.c ****                 sgmii_training_state = SGMII_CHECK_REVC_RESULT;
 597              		.loc 1 361 26 is_stmt 0
 598 0322 97070000 		sw	zero,.LANCHOR2,a5
 598      23A00700 
 362:../src/platform/mpfs_hal/common/nwc/mss_sgmii.c ****             }
 599              		.loc 1 362 17 is_stmt 1
 362:../src/platform/mpfs_hal/common/nwc/mss_sgmii.c ****             }
 600              		.loc 1 362 38 is_stmt 0
 601 032a B547     		li	a5,13
 602 032c 65BB     		j	.L41
 603              	.L6:
 367:../src/platform/mpfs_hal/common/nwc/mss_sgmii.c ****             {
 604              		.loc 1 367 13 is_stmt 1
 367:../src/platform/mpfs_hal/common/nwc/mss_sgmii.c ****             {
 605              		.loc 1 367 36 is_stmt 0
 606 032e 97070000 		lla	a5,CFG_DDR_SGMII_PHY
 606      93870700 
 607 0336 9C63     		ld	a5,0(a5)
 367:../src/platform/mpfs_hal/common/nwc/mss_sgmii.c ****             {
 608              		.loc 1 367 48
 609 0338 A297     		add	a5,a5,s0
 610 033a 03A787C2 		lw	a4,-984(a5)
 375:../src/platform/mpfs_hal/common/nwc/mss_sgmii.c ****                 /*
 611              		.loc 1 375 17 is_stmt 1
 612              	.LVL14:
 613              	.LBB29:
 614              	.LBB17:
 636:../src/platform/mpfs_hal/common/nwc/mss_sgmii.c ****     uint32_t p_eye_value;
 615              		.loc 1 636 5
 637:../src/platform/mpfs_hal/common/nwc/mss_sgmii.c **** 
 616              		.loc 1 637 5
 643:../src/platform/mpfs_hal/common/nwc/mss_sgmii.c ****     n_eye_values |= (uint32_t)(n_late_threshold << SHIFT_TO_CH1_N_EYE_VALUE);
 617              		.loc 1 643 5
 644:../src/platform/mpfs_hal/common/nwc/mss_sgmii.c **** 
 618              		.loc 1 644 5
 646:../src/platform/mpfs_hal/common/nwc/mss_sgmii.c **** 
 619              		.loc 1 646 5
 646:../src/platform/mpfs_hal/common/nwc/mss_sgmii.c **** 
 620              		.loc 1 646 49 is_stmt 0
 621 033e 370700FF 		li	a4,-16777216
 622 0342 23A2E7C2 		sw	a4,-988(a5)
 651:../src/platform/mpfs_hal/common/nwc/mss_sgmii.c ****     CFG_DDR_SGMII_PHY->CH0_CNTL.CH0_CNTL        = ((LIBERO_SETTING_CH0_CNTL & REG_RX0_EYEWIDTH_P_MA
 623              		.loc 1 651 5 is_stmt 1
 624              	.LVL15:
 652:../src/platform/mpfs_hal/common/nwc/mss_sgmii.c ****     CFG_DDR_SGMII_PHY->CH1_CNTL.CH1_CNTL        = ((LIBERO_SETTING_CH1_CNTL & REG_RX0_EYEWIDTH_P_MA
 625              		.loc 1 652 5
 652:../src/platform/mpfs_hal/common/nwc/mss_sgmii.c ****     CFG_DDR_SGMII_PHY->CH1_CNTL.CH1_CNTL        = ((LIBERO_SETTING_CH1_CNTL & REG_RX0_EYEWIDTH_P_MA
 626              		.loc 1 652 49 is_stmt 0
 627 0346 23A697C0 		sw	s1,-1012(a5)
 628              		.loc 1 653 5 is_stmt 1
 629              		.loc 1 653 49 is_stmt 0
 630 034a 23A897C0 		sw	s1,-1008(a5)
 631              	.LVL16:
 632              	.LBE17:
 633              	.LBE29:
 379:../src/platform/mpfs_hal/common/nwc/mss_sgmii.c ****                 CFG_DDR_SGMII_PHY->DYN_CNTL.DYN_CNTL  = (0U << 14U)|(0U << 13U)|(0x7FU<<0U);
 634              		.loc 1 379 17 is_stmt 1
 379:../src/platform/mpfs_hal/common/nwc/mss_sgmii.c ****                 CFG_DDR_SGMII_PHY->DYN_CNTL.DYN_CNTL  = (0U << 14U)|(0U << 13U)|(0x7FU<<0U);
 635              		.loc 1 379 55 is_stmt 0
 636 034e 23AE27C1 		sw	s2,-996(a5)
 380:../src/platform/mpfs_hal/common/nwc/mss_sgmii.c ****                 /* OK, we are good */
 637              		.loc 1 380 17 is_stmt 1
 380:../src/platform/mpfs_hal/common/nwc/mss_sgmii.c ****                 /* OK, we are good */
 638              		.loc 1 380 55 is_stmt 0
 639 0352 1307F007 		li	a4,127
 640 0356 23AEE7C0 		sw	a4,-996(a5)
 641              	.L43:
 382:../src/platform/mpfs_hal/common/nwc/mss_sgmii.c ****             }
 642              		.loc 1 382 17 is_stmt 1
 382:../src/platform/mpfs_hal/common/nwc/mss_sgmii.c ****             }
 643              		.loc 1 382 38 is_stmt 0
 644 035a B947     		li	a5,14
 645 035c 61B3     		j	.L41
 646              	.L4:
 395:../src/platform/mpfs_hal/common/nwc/mss_sgmii.c ****             break;
 647              		.loc 1 395 13 is_stmt 1
 395:../src/platform/mpfs_hal/common/nwc/mss_sgmii.c ****             break;
 648              		.loc 1 395 20 is_stmt 0
 649 035e 97070000 		sw	zero,.LANCHOR1,a5
 649      23A00700 
 396:../src/platform/mpfs_hal/common/nwc/mss_sgmii.c ****     } /* end of switch statement */
 650              		.loc 1 396 13 is_stmt 1
 651 0366 2DB3     		j	.L3
 652              	.LBE32:
 653              	.LBE35:
 654              		.cfi_endproc
 655              	.LFE23:
 657              		.section	.text.sgmii_off_mode,"ax",@progbits
 658              		.align	1
 659              		.globl	sgmii_off_mode
 661              	sgmii_off_mode:
 662              	.LFB26:
 423:../src/platform/mpfs_hal/common/nwc/mss_sgmii.c ****     /*
 663              		.loc 1 423 1
 664              		.cfi_startproc
 427:../src/platform/mpfs_hal/common/nwc/mss_sgmii.c ****     CFG_DDR_SGMII_PHY->SOFT_RESET_SGMII.SOFT_RESET_SGMII = 1U;
 665              		.loc 1 427 5
 427:../src/platform/mpfs_hal/common/nwc/mss_sgmii.c ****     CFG_DDR_SGMII_PHY->SOFT_RESET_SGMII.SOFT_RESET_SGMII = 1U;
 666              		.loc 1 427 22 is_stmt 0
 667 0000 97070000 		lla	a5,CFG_DDR_SGMII_PHY
 667      93870700 
 668 0008 9C63     		ld	a5,0(a5)
 423:../src/platform/mpfs_hal/common/nwc/mss_sgmii.c ****     /*
 669              		.loc 1 423 1
 670 000a 4111     		addi	sp,sp,-16
 671              		.cfi_def_cfa_offset 16
 427:../src/platform/mpfs_hal/common/nwc/mss_sgmii.c ****     CFG_DDR_SGMII_PHY->SOFT_RESET_SGMII.SOFT_RESET_SGMII = 1U;
 672              		.loc 1 427 58
 673 000c 0567     		li	a4,4096
 423:../src/platform/mpfs_hal/common/nwc/mss_sgmii.c ****     /*
 674              		.loc 1 423 1
 675 000e 22E0     		sd	s0,0(sp)
 676 0010 06E4     		sd	ra,8(sp)
 677              		.cfi_offset 8, -16
 678              		.cfi_offset 1, -8
 427:../src/platform/mpfs_hal/common/nwc/mss_sgmii.c ****     CFG_DDR_SGMII_PHY->SOFT_RESET_SGMII.SOFT_RESET_SGMII = 1U;
 679              		.loc 1 427 58
 680 0012 BA97     		add	a5,a5,a4
 681 0014 13071010 		li	a4,257
 682 0018 23A0E7C0 		sw	a4,-1024(a5)
 428:../src/platform/mpfs_hal/common/nwc/mss_sgmii.c **** 
 683              		.loc 1 428 5 is_stmt 1
 428:../src/platform/mpfs_hal/common/nwc/mss_sgmii.c **** 
 684              		.loc 1 428 58 is_stmt 0
 685 001c 0544     		li	s0,1
 686 001e 23A087C0 		sw	s0,-1024(a5)
 433:../src/platform/mpfs_hal/common/nwc/mss_sgmii.c **** 
 687              		.loc 1 433 5 is_stmt 1
 688 0022 97000000 		call	setup_sgmii_rpc_per_config
 688      E7800000 
 689              	.LVL17:
 439:../src/platform/mpfs_hal/common/nwc/mss_sgmii.c **** 
 690              		.loc 1 439 5
 439:../src/platform/mpfs_hal/common/nwc/mss_sgmii.c **** 
 691              		.loc 1 439 33 is_stmt 0
 692 002a B707103E 		li	a5,1041235968
 693 002e 80C3     		sw	s0,0(a5)
 441:../src/platform/mpfs_hal/common/nwc/mss_sgmii.c **** 
 694              		.loc 1 441 1
 695 0030 A260     		ld	ra,8(sp)
 696              		.cfi_restore 1
 697 0032 0264     		ld	s0,0(sp)
 698              		.cfi_restore 8
 699 0034 4101     		addi	sp,sp,16
 700              		.cfi_def_cfa_offset 0
 701 0036 8280     		jr	ra
 702              		.cfi_endproc
 703              	.LFE26:
 705              		.section	.text.ddr_pvt_calibration,"ax",@progbits
 706              		.align	1
 707              		.globl	ddr_pvt_calibration
 709              	ddr_pvt_calibration:
 710              	.LFB27:
 447:../src/platform/mpfs_hal/common/nwc/mss_sgmii.c ****     /*
 711              		.loc 1 447 1 is_stmt 1
 712              		.cfi_startproc
 481:../src/platform/mpfs_hal/common/nwc/mss_sgmii.c **** 
 713              		.loc 1 481 5
 485:../src/platform/mpfs_hal/common/nwc/mss_sgmii.c ****     {
 714              		.loc 1 485 29 is_stmt 0
 715 0000 97070000 		lla	a5,CFG_DDR_SGMII_PHY
 715      93870700 
 716 0008 9863     		ld	a4,0(a5)
 447:../src/platform/mpfs_hal/common/nwc/mss_sgmii.c ****     /*
 717              		.loc 1 447 1
 718 000a 4111     		addi	sp,sp,-16
 719              		.cfi_def_cfa_offset 16
 481:../src/platform/mpfs_hal/common/nwc/mss_sgmii.c **** 
 720              		.loc 1 481 23
 721 000c 02C6     		sw	zero,12(sp)
 485:../src/platform/mpfs_hal/common/nwc/mss_sgmii.c ****     {
 722              		.loc 1 485 5 is_stmt 1
 723              	.L47:
 485:../src/platform/mpfs_hal/common/nwc/mss_sgmii.c ****     {
 724              		.loc 1 485 39 is_stmt 0
 725 000e 83278720 		lw	a5,520(a4)
 485:../src/platform/mpfs_hal/common/nwc/mss_sgmii.c ****     {
 726              		.loc 1 485 49
 727 0012 C18B     		andi	a5,a5,16
 485:../src/platform/mpfs_hal/common/nwc/mss_sgmii.c ****     {
 728              		.loc 1 485 10
 729 0014 ADC7     		beq	a5,zero,.L48
 502:../src/platform/mpfs_hal/common/nwc/mss_sgmii.c ****     while(timer_out < 0xFU)
 730              		.loc 1 502 5 is_stmt 1
 502:../src/platform/mpfs_hal/common/nwc/mss_sgmii.c ****     while(timer_out < 0xFU)
 731              		.loc 1 502 14 is_stmt 0
 732 0016 02C6     		sw	zero,12(sp)
 503:../src/platform/mpfs_hal/common/nwc/mss_sgmii.c ****     {
 733              		.loc 1 503 5 is_stmt 1
 503:../src/platform/mpfs_hal/common/nwc/mss_sgmii.c ****     {
 734              		.loc 1 503 10 is_stmt 0
 735 0018 B946     		li	a3,14
 736              	.L49:
 503:../src/platform/mpfs_hal/common/nwc/mss_sgmii.c ****     {
 737              		.loc 1 503 21
 738 001a B247     		lw	a5,12(sp)
 739 001c 8127     		sext.w	a5,a5
 503:../src/platform/mpfs_hal/common/nwc/mss_sgmii.c ****     {
 740              		.loc 1 503 10
 741 001e 63F4F606 		bleu	a5,a3,.L50
 528:../src/platform/mpfs_hal/common/nwc/mss_sgmii.c **** 
 742              		.loc 1 528 5 is_stmt 1
 528:../src/platform/mpfs_hal/common/nwc/mss_sgmii.c **** 
 743              		.loc 1 528 56 is_stmt 0
 744 0022 9947     		li	a5,6
 745 0024 232EF720 		sw	a5,540(a4)
 531:../src/platform/mpfs_hal/common/nwc/mss_sgmii.c ****     IOSCB_IO_CALIB_DDR->SOFT_RESET_IOCALIB       = 0x0U; /* make sure reset */
 746              		.loc 1 531 5 is_stmt 1
 531:../src/platform/mpfs_hal/common/nwc/mss_sgmii.c ****     IOSCB_IO_CALIB_DDR->SOFT_RESET_IOCALIB       = 0x0U; /* make sure reset */
 747              		.loc 1 531 23 is_stmt 0
 748 0028 97070000 		lla	a5,IOSCB_IO_CALIB_DDR
 748      93870700 
 749 0030 9C63     		ld	a5,0(a5)
 531:../src/platform/mpfs_hal/common/nwc/mss_sgmii.c ****     IOSCB_IO_CALIB_DDR->SOFT_RESET_IOCALIB       = 0x0U; /* make sure reset */
 750              		.loc 1 531 50
 751 0032 8546     		li	a3,1
 752 0034 94C3     		sw	a3,0(a5)
 532:../src/platform/mpfs_hal/common/nwc/mss_sgmii.c **** 
 753              		.loc 1 532 5 is_stmt 1
 532:../src/platform/mpfs_hal/common/nwc/mss_sgmii.c **** 
 754              		.loc 1 532 50 is_stmt 0
 755 0036 23A00700 		sw	zero,0(a5)
 543:../src/platform/mpfs_hal/common/nwc/mss_sgmii.c ****     #ifndef RENODE_DEBUG
 756              		.loc 1 543 5 is_stmt 1
 543:../src/platform/mpfs_hal/common/nwc/mss_sgmii.c ****     #ifndef RENODE_DEBUG
 757              		.loc 1 543 14 is_stmt 0
 758 003a 02C6     		sw	zero,12(sp)
 547:../src/platform/mpfs_hal/common/nwc/mss_sgmii.c ****         {
 759              		.loc 1 547 9 is_stmt 1
 760              	.L51:
 547:../src/platform/mpfs_hal/common/nwc/mss_sgmii.c ****         {
 761              		.loc 1 547 34 is_stmt 0
 762 003c 9447     		lw	a3,8(a5)
 547:../src/platform/mpfs_hal/common/nwc/mss_sgmii.c ****         {
 763              		.loc 1 547 45
 764 003e 918A     		andi	a3,a3,4
 547:../src/platform/mpfs_hal/common/nwc/mss_sgmii.c ****         {
 765              		.loc 1 547 14
 766 0040 B9C6     		beq	a3,zero,.L52
 767              	.L53:
 552:../src/platform/mpfs_hal/common/nwc/mss_sgmii.c ****         {
 768              		.loc 1 552 43
 769 0042 83268720 		lw	a3,520(a4)
 552:../src/platform/mpfs_hal/common/nwc/mss_sgmii.c ****         {
 770              		.loc 1 552 53
 771 0046 918A     		andi	a3,a3,4
 552:../src/platform/mpfs_hal/common/nwc/mss_sgmii.c ****         {
 772              		.loc 1 552 14
 773 0048 B9C6     		beq	a3,zero,.L54
 563:../src/platform/mpfs_hal/common/nwc/mss_sgmii.c ****         IOSCB_IO_CALIB_DDR->IOC_REG0            &= ~(0x01U<<14U);
 774              		.loc 1 563 9 is_stmt 1
 563:../src/platform/mpfs_hal/common/nwc/mss_sgmii.c ****         IOSCB_IO_CALIB_DDR->IOC_REG0            &= ~(0x01U<<14U);
 775              		.loc 1 563 49 is_stmt 0
 776 004a 03264720 		lw	a2,516(a4)
 777 004e F176     		li	a3,-16384
 778 0050 9385F6FF 		addi	a1,a3,-1
 779 0054 0126     		sext.w	a2,a2
 780 0056 6D8E     		and	a2,a2,a1
 781 0058 2322C720 		sw	a2,516(a4)
 564:../src/platform/mpfs_hal/common/nwc/mss_sgmii.c ****         CFG_DDR_SGMII_PHY->IOC_REG0.IOC_REG0    |= (0x01U<<14U);
 782              		.loc 1 564 9 is_stmt 1
 564:../src/platform/mpfs_hal/common/nwc/mss_sgmii.c ****         CFG_DDR_SGMII_PHY->IOC_REG0.IOC_REG0    |= (0x01U<<14U);
 783              		.loc 1 564 49 is_stmt 0
 784 005c D443     		lw	a3,4(a5)
 565:../src/platform/mpfs_hal/common/nwc/mss_sgmii.c ****         IOSCB_IO_CALIB_DDR->IOC_REG0            |= (0x01U<<14U);
 785              		.loc 1 565 49
 786 005e 1166     		li	a2,16384
 564:../src/platform/mpfs_hal/common/nwc/mss_sgmii.c ****         CFG_DDR_SGMII_PHY->IOC_REG0.IOC_REG0    |= (0x01U<<14U);
 787              		.loc 1 564 49
 788 0060 8126     		sext.w	a3,a3
 789 0062 ED8E     		and	a3,a3,a1
 790 0064 D4C3     		sw	a3,4(a5)
 565:../src/platform/mpfs_hal/common/nwc/mss_sgmii.c ****         IOSCB_IO_CALIB_DDR->IOC_REG0            |= (0x01U<<14U);
 791              		.loc 1 565 9 is_stmt 1
 565:../src/platform/mpfs_hal/common/nwc/mss_sgmii.c ****         IOSCB_IO_CALIB_DDR->IOC_REG0            |= (0x01U<<14U);
 792              		.loc 1 565 49 is_stmt 0
 793 0066 83264720 		lw	a3,516(a4)
 794 006a 8126     		sext.w	a3,a3
 795 006c D18E     		or	a3,a3,a2
 796 006e 2322D720 		sw	a3,516(a4)
 566:../src/platform/mpfs_hal/common/nwc/mss_sgmii.c ****     }
 797              		.loc 1 566 9 is_stmt 1
 566:../src/platform/mpfs_hal/common/nwc/mss_sgmii.c ****     }
 798              		.loc 1 566 49 is_stmt 0
 799 0072 D843     		lw	a4,4(a5)
 800 0074 0127     		sext.w	a4,a4
 801 0076 518F     		or	a4,a4,a2
 802 0078 D8C3     		sw	a4,4(a5)
 568:../src/platform/mpfs_hal/common/nwc/mss_sgmii.c **** 
 803              		.loc 1 568 1
 804 007a 4101     		addi	sp,sp,16
 805              		.cfi_remember_state
 806              		.cfi_def_cfa_offset 0
 807 007c 8280     		jr	ra
 808              	.L48:
 809              		.cfi_restore_state
 487:../src/platform/mpfs_hal/common/nwc/mss_sgmii.c ****         /*todo: add a fail break */
 810              		.loc 1 487 9 is_stmt 1
 487:../src/platform/mpfs_hal/common/nwc/mss_sgmii.c ****         /*todo: add a fail break */
 811              		.loc 1 487 18 is_stmt 0
 812 007e B247     		lw	a5,12(sp)
 813 0080 8527     		addiw	a5,a5,1
 814 0082 3EC6     		sw	a5,12(sp)
 815 0084 69B7     		j	.L47
 816              	.L50:
 505:../src/platform/mpfs_hal/common/nwc/mss_sgmii.c ****     }
 817              		.loc 1 505 9 is_stmt 1
 505:../src/platform/mpfs_hal/common/nwc/mss_sgmii.c ****     }
 818              		.loc 1 505 18 is_stmt 0
 819 0086 B247     		lw	a5,12(sp)
 820 0088 8527     		addiw	a5,a5,1
 821 008a 3EC6     		sw	a5,12(sp)
 822 008c 79B7     		j	.L49
 823              	.L52:
 549:../src/platform/mpfs_hal/common/nwc/mss_sgmii.c ****         }
 824              		.loc 1 549 13 is_stmt 1
 549:../src/platform/mpfs_hal/common/nwc/mss_sgmii.c ****         }
 825              		.loc 1 549 22 is_stmt 0
 826 008e B246     		lw	a3,12(sp)
 827 0090 8526     		addiw	a3,a3,1
 828 0092 36C6     		sw	a3,12(sp)
 829 0094 65B7     		j	.L51
 830              	.L54:
 554:../src/platform/mpfs_hal/common/nwc/mss_sgmii.c ****         }
 831              		.loc 1 554 13 is_stmt 1
 554:../src/platform/mpfs_hal/common/nwc/mss_sgmii.c ****         }
 832              		.loc 1 554 22 is_stmt 0
 833 0096 B246     		lw	a3,12(sp)
 834 0098 8526     		addiw	a3,a3,1
 835 009a 36C6     		sw	a3,12(sp)
 836 009c 5DB7     		j	.L53
 837              		.cfi_endproc
 838              	.LFE27:
 840              		.section	.text.ddr_pvt_recalibration,"ax",@progbits
 841              		.align	1
 842              		.globl	ddr_pvt_recalibration
 844              	ddr_pvt_recalibration:
 845              	.LFB28:
 575:../src/platform/mpfs_hal/common/nwc/mss_sgmii.c ****     volatile uint32_t timer_out=0U;
 846              		.loc 1 575 1 is_stmt 1
 847              		.cfi_startproc
 576:../src/platform/mpfs_hal/common/nwc/mss_sgmii.c **** 
 848              		.loc 1 576 5
 583:../src/platform/mpfs_hal/common/nwc/mss_sgmii.c ****         IOSCB_IO_CALIB_DDR->IOC_REG0            &= ~(0x01U<<13U);
 849              		.loc 1 583 49 is_stmt 0
 850 0000 97070000 		lla	a5,CFG_DDR_SGMII_PHY
 850      93870700 
 851 0008 9C63     		ld	a5,0(a5)
 575:../src/platform/mpfs_hal/common/nwc/mss_sgmii.c ****     volatile uint32_t timer_out=0U;
 852              		.loc 1 575 1
 853 000a 4111     		addi	sp,sp,-16
 854              		.cfi_def_cfa_offset 16
 576:../src/platform/mpfs_hal/common/nwc/mss_sgmii.c **** 
 855              		.loc 1 576 23
 856 000c 02C6     		sw	zero,12(sp)
 583:../src/platform/mpfs_hal/common/nwc/mss_sgmii.c ****         IOSCB_IO_CALIB_DDR->IOC_REG0            &= ~(0x01U<<13U);
 857              		.loc 1 583 9 is_stmt 1
 583:../src/platform/mpfs_hal/common/nwc/mss_sgmii.c ****         IOSCB_IO_CALIB_DDR->IOC_REG0            &= ~(0x01U<<13U);
 858              		.loc 1 583 49 is_stmt 0
 859 000e 03A74720 		lw	a4,516(a5)
 860 0012 F976     		li	a3,-8192
 861 0014 1386F6FF 		addi	a2,a3,-1
 862 0018 0127     		sext.w	a4,a4
 863 001a 718F     		and	a4,a4,a2
 864 001c 23A2E720 		sw	a4,516(a5)
 584:../src/platform/mpfs_hal/common/nwc/mss_sgmii.c ****         CFG_DDR_SGMII_PHY->IOC_REG0.IOC_REG0    |= (0x01U<<13U);
 865              		.loc 1 584 9 is_stmt 1
 584:../src/platform/mpfs_hal/common/nwc/mss_sgmii.c ****         CFG_DDR_SGMII_PHY->IOC_REG0.IOC_REG0    |= (0x01U<<13U);
 866              		.loc 1 584 49 is_stmt 0
 867 0020 17070000 		lla	a4,IOSCB_IO_CALIB_DDR
 867      13070700 
 868 0028 1863     		ld	a4,0(a4)
 585:../src/platform/mpfs_hal/common/nwc/mss_sgmii.c ****         IOSCB_IO_CALIB_DDR->IOC_REG0            |= (0x01U<<13U);
 869              		.loc 1 585 49
 870 002a 8965     		li	a1,8192
 584:../src/platform/mpfs_hal/common/nwc/mss_sgmii.c ****         CFG_DDR_SGMII_PHY->IOC_REG0.IOC_REG0    |= (0x01U<<13U);
 871              		.loc 1 584 49
 872 002c 5443     		lw	a3,4(a4)
 873 002e 8126     		sext.w	a3,a3
 874 0030 F18E     		and	a3,a3,a2
 875 0032 54C3     		sw	a3,4(a4)
 585:../src/platform/mpfs_hal/common/nwc/mss_sgmii.c ****         IOSCB_IO_CALIB_DDR->IOC_REG0            |= (0x01U<<13U);
 876              		.loc 1 585 9 is_stmt 1
 585:../src/platform/mpfs_hal/common/nwc/mss_sgmii.c ****         IOSCB_IO_CALIB_DDR->IOC_REG0            |= (0x01U<<13U);
 877              		.loc 1 585 49 is_stmt 0
 878 0034 03A64720 		lw	a2,516(a5)
 879 0038 0126     		sext.w	a2,a2
 880 003a 4D8E     		or	a2,a2,a1
 881 003c 23A2C720 		sw	a2,516(a5)
 586:../src/platform/mpfs_hal/common/nwc/mss_sgmii.c ****     }
 882              		.loc 1 586 9 is_stmt 1
 586:../src/platform/mpfs_hal/common/nwc/mss_sgmii.c ****     }
 883              		.loc 1 586 49 is_stmt 0
 884 0040 5443     		lw	a3,4(a4)
 885 0042 8126     		sext.w	a3,a3
 886 0044 CD8E     		or	a3,a3,a1
 887 0046 54C3     		sw	a3,4(a4)
 598:../src/platform/mpfs_hal/common/nwc/mss_sgmii.c ****     #ifndef RENODE_DEBUG
 888              		.loc 1 598 5 is_stmt 1
 598:../src/platform/mpfs_hal/common/nwc/mss_sgmii.c ****     #ifndef RENODE_DEBUG
 889              		.loc 1 598 14 is_stmt 0
 890 0048 02C6     		sw	zero,12(sp)
 602:../src/platform/mpfs_hal/common/nwc/mss_sgmii.c ****         {
 891              		.loc 1 602 9 is_stmt 1
 892              	.L57:
 602:../src/platform/mpfs_hal/common/nwc/mss_sgmii.c ****         {
 893              		.loc 1 602 34 is_stmt 0
 894 004a 1447     		lw	a3,8(a4)
 602:../src/platform/mpfs_hal/common/nwc/mss_sgmii.c ****         {
 895              		.loc 1 602 45
 896 004c 918A     		andi	a3,a3,4
 602:../src/platform/mpfs_hal/common/nwc/mss_sgmii.c ****         {
 897              		.loc 1 602 14
 898 004e 99C6     		beq	a3,zero,.L58
 899              	.L59:
 607:../src/platform/mpfs_hal/common/nwc/mss_sgmii.c ****         {
 900              		.loc 1 607 43
 901 0050 03A78720 		lw	a4,520(a5)
 607:../src/platform/mpfs_hal/common/nwc/mss_sgmii.c ****         {
 902              		.loc 1 607 53
 903 0054 118B     		andi	a4,a4,4
 607:../src/platform/mpfs_hal/common/nwc/mss_sgmii.c ****         {
 904              		.loc 1 607 14
 905 0056 19C7     		beq	a4,zero,.L60
 627:../src/platform/mpfs_hal/common/nwc/mss_sgmii.c **** 
 906              		.loc 1 627 1
 907 0058 4101     		addi	sp,sp,16
 908              		.cfi_remember_state
 909              		.cfi_def_cfa_offset 0
 910 005a 8280     		jr	ra
 911              	.L58:
 912              		.cfi_restore_state
 604:../src/platform/mpfs_hal/common/nwc/mss_sgmii.c ****         }
 913              		.loc 1 604 13 is_stmt 1
 604:../src/platform/mpfs_hal/common/nwc/mss_sgmii.c ****         }
 914              		.loc 1 604 22 is_stmt 0
 915 005c B246     		lw	a3,12(sp)
 916 005e 8526     		addiw	a3,a3,1
 917 0060 36C6     		sw	a3,12(sp)
 918 0062 E5B7     		j	.L57
 919              	.L60:
 609:../src/platform/mpfs_hal/common/nwc/mss_sgmii.c ****         }
 920              		.loc 1 609 13 is_stmt 1
 609:../src/platform/mpfs_hal/common/nwc/mss_sgmii.c ****         }
 921              		.loc 1 609 22 is_stmt 0
 922 0064 3247     		lw	a4,12(sp)
 923 0066 0527     		addiw	a4,a4,1
 924 0068 3AC6     		sw	a4,12(sp)
 925 006a DDB7     		j	.L59
 926              		.cfi_endproc
 927              	.LFE28:
 929              		.section	.sbss.sgmii_training_state.14156,"aw",@nobits
 930              		.align	2
 931              		.set	.LANCHOR0,. + 0
 934              	sgmii_training_state.14156:
 935 0000 00000000 		.zero	4
 936              		.section	.sbss.silicon_variant,"aw",@nobits
 937              		.align	2
 938              		.set	.LANCHOR3,. + 0
 941              	silicon_variant:
 942 0000 00000000 		.zero	4
 943              		.section	.sbss.timer_out.14158,"aw",@nobits
 944              		.align	2
 945              		.set	.LANCHOR2,. + 0
 948              	timer_out.14158:
 949 0000 00000000 		.zero	4
 950              		.section	.sdata.status.14157,"aw"
 951              		.align	2
 952              		.set	.LANCHOR1,. + 0
 955              	status.14157:
 956 0000 01000000 		.word	1
 957              		.text
 958              	.Letext0:
 959              		.file 2 "/home/vinay/Desktop/soft_console/SoftConsole-v2022.2-RISC-V-747/riscv-unknown-elf-gcc/lib
 960              		.file 3 "/home/vinay/Desktop/soft_console/SoftConsole-v2022.2-RISC-V-747/riscv-unknown-elf-gcc/ris
 961              		.file 4 "/home/vinay/Desktop/soft_console/SoftConsole-v2022.2-RISC-V-747/riscv-unknown-elf-gcc/ris
 962              		.file 5 "/home/vinay/Desktop/soft_console/SoftConsole-v2022.2-RISC-V-747/riscv-unknown-elf-gcc/ris
 963              		.file 6 "/home/vinay/Desktop/soft_console/SoftConsole-v2022.2-RISC-V-747/riscv-unknown-elf-gcc/ris
 964              		.file 7 "/home/vinay/Desktop/soft_console/SoftConsole-v2022.2-RISC-V-747/riscv-unknown-elf-gcc/ris
 965              		.file 8 "/home/vinay/Desktop/softconsole_watershed/Water-shed/src/platform/mpfs_hal/common/nwc/mss
 966              		.file 9 "/home/vinay/Desktop/softconsole_watershed/Water-shed/src/platform/mpfs_hal/common/nwc/mss
 967              		.file 10 "/home/vinay/Desktop/softconsole_watershed/Water-shed/src/platform/mpfs_hal/common/nwc/ms
 968              		.file 11 "/home/vinay/Desktop/softconsole_watershed/Water-shed/src/platform/mpfs_hal/common/mss_mp
 969              		.file 12 "/home/vinay/Desktop/softconsole_watershed/Water-shed/src/platform/mpfs_hal/common/mss_pl
 970              		.file 13 "/home/vinay/Desktop/softconsole_watershed/Water-shed/src/platform/mpfs_hal/common/nwc/ms
 971              		.file 14 "/home/vinay/Desktop/softconsole_watershed/Water-shed/src/platform/mpfs_hal/common/mss_pe
 972              		.file 15 "/home/vinay/Desktop/softconsole_watershed/Water-shed/src/platform/mpfs_hal/common/nwc/ms
 973              		.file 16 "/home/vinay/Desktop/softconsole_watershed/Water-shed/src/platform/mpfs_hal/startup_gcc/s