   1              		.file	"mss_ddr_debug.c"
   2              		.option nopic
   3              		.attribute arch, "rv64i2p0_m2p0_a2p0_f2p0_d2p0_c2p0"
   4              		.attribute unaligned_access, 0
   5              		.attribute stack_align, 16
   6              		.text
   7              	.Ltext0:
   8              		.cfi_sections	.debug_frame
   9              		.section	.text.ddr_write,"ax",@progbits
  10              		.align	1
  12              	ddr_write:
  13              	.LFB24:
  14              		.file 1 "../src/platform/mpfs_hal/common/nwc/mss_ddr_debug.c"
   1:../src/platform/mpfs_hal/common/nwc/mss_ddr_debug.c **** /*******************************************************************************
   2:../src/platform/mpfs_hal/common/nwc/mss_ddr_debug.c ****  * Copyright 2019-2022 Microchip FPGA Embedded Systems Solutions.
   3:../src/platform/mpfs_hal/common/nwc/mss_ddr_debug.c ****  *
   4:../src/platform/mpfs_hal/common/nwc/mss_ddr_debug.c ****  * SPDX-License-Identifier: MIT
   5:../src/platform/mpfs_hal/common/nwc/mss_ddr_debug.c ****  *
   6:../src/platform/mpfs_hal/common/nwc/mss_ddr_debug.c ****  * MPFS HAL Embedded Software
   7:../src/platform/mpfs_hal/common/nwc/mss_ddr_debug.c ****  *
   8:../src/platform/mpfs_hal/common/nwc/mss_ddr_debug.c ****  */
   9:../src/platform/mpfs_hal/common/nwc/mss_ddr_debug.c **** 
  10:../src/platform/mpfs_hal/common/nwc/mss_ddr_debug.c **** /*******************************************************************************
  11:../src/platform/mpfs_hal/common/nwc/mss_ddr_debug.c ****  * @file mss_ddr_debug.h
  12:../src/platform/mpfs_hal/common/nwc/mss_ddr_debug.c ****  * @author Microchip FPGA Embedded Systems Solutions
  13:../src/platform/mpfs_hal/common/nwc/mss_ddr_debug.c ****  * @brief DDR write and read test functions
  14:../src/platform/mpfs_hal/common/nwc/mss_ddr_debug.c ****  *
  15:../src/platform/mpfs_hal/common/nwc/mss_ddr_debug.c ****  */
  16:../src/platform/mpfs_hal/common/nwc/mss_ddr_debug.c **** 
  17:../src/platform/mpfs_hal/common/nwc/mss_ddr_debug.c **** #include <stdio.h>
  18:../src/platform/mpfs_hal/common/nwc/mss_ddr_debug.c **** #include <stdlib.h>
  19:../src/platform/mpfs_hal/common/nwc/mss_ddr_debug.c **** #include <string.h>
  20:../src/platform/mpfs_hal/common/nwc/mss_ddr_debug.c **** #include "mpfs_hal/mss_hal.h"
  21:../src/platform/mpfs_hal/common/nwc/mss_ddr_debug.c **** #include "mss_nwc_init.h"
  22:../src/platform/mpfs_hal/common/nwc/mss_ddr_debug.c **** 
  23:../src/platform/mpfs_hal/common/nwc/mss_ddr_debug.c **** /*******************************************************************************
  24:../src/platform/mpfs_hal/common/nwc/mss_ddr_debug.c ****  * Local Defines
  25:../src/platform/mpfs_hal/common/nwc/mss_ddr_debug.c ****  */
  26:../src/platform/mpfs_hal/common/nwc/mss_ddr_debug.c **** #define DDR_BASE            0x80000000u
  27:../src/platform/mpfs_hal/common/nwc/mss_ddr_debug.c **** #define DDR_SIZE            0x40000000u
  28:../src/platform/mpfs_hal/common/nwc/mss_ddr_debug.c **** 
  29:../src/platform/mpfs_hal/common/nwc/mss_ddr_debug.c **** #define PDMA_CHANNEL0_BASE_ADDRESS  0x3000000ULL
  30:../src/platform/mpfs_hal/common/nwc/mss_ddr_debug.c **** #define PDMA_CHANNEL1_BASE_ADDRESS  0x3001000ULL
  31:../src/platform/mpfs_hal/common/nwc/mss_ddr_debug.c **** #define PDMA_CHANNEL2_BASE_ADDRESS  0x3002000ULL
  32:../src/platform/mpfs_hal/common/nwc/mss_ddr_debug.c **** #define PDMA_CHANNEL3_BASE_ADDRESS  0x3003000ULL
  33:../src/platform/mpfs_hal/common/nwc/mss_ddr_debug.c **** 
  34:../src/platform/mpfs_hal/common/nwc/mss_ddr_debug.c **** const char *progress[3] = {"|\r", "/\r", "-\r"};
  35:../src/platform/mpfs_hal/common/nwc/mss_ddr_debug.c **** typedef void(*pattern_fct_t)(void);
  36:../src/platform/mpfs_hal/common/nwc/mss_ddr_debug.c **** static uint32_t g_test_buffer_cached[765];
  37:../src/platform/mpfs_hal/common/nwc/mss_ddr_debug.c **** static uint32_t g_test_buffer_not_cached[765];
  38:../src/platform/mpfs_hal/common/nwc/mss_ddr_debug.c **** 
  39:../src/platform/mpfs_hal/common/nwc/mss_ddr_debug.c **** /*******************************************************************************
  40:../src/platform/mpfs_hal/common/nwc/mss_ddr_debug.c ****  * External Defines
  41:../src/platform/mpfs_hal/common/nwc/mss_ddr_debug.c ****  */
  42:../src/platform/mpfs_hal/common/nwc/mss_ddr_debug.c **** extern const uint32_t ddr_test_pattern[768];
  43:../src/platform/mpfs_hal/common/nwc/mss_ddr_debug.c **** 
  44:../src/platform/mpfs_hal/common/nwc/mss_ddr_debug.c **** /*******************************************************************************
  45:../src/platform/mpfs_hal/common/nwc/mss_ddr_debug.c ****  * External function declarations
  46:../src/platform/mpfs_hal/common/nwc/mss_ddr_debug.c ****  */
  47:../src/platform/mpfs_hal/common/nwc/mss_ddr_debug.c **** extern void pdma_transfer(uint64_t destination, uint64_t source, uint64_t size_in_bytes, uint64_t b
  48:../src/platform/mpfs_hal/common/nwc/mss_ddr_debug.c **** extern void pdma_transfer_complete( uint64_t base_address);
  49:../src/platform/mpfs_hal/common/nwc/mss_ddr_debug.c **** 
  50:../src/platform/mpfs_hal/common/nwc/mss_ddr_debug.c **** /*******************************************************************************
  51:../src/platform/mpfs_hal/common/nwc/mss_ddr_debug.c ****  * Local data declarations
  52:../src/platform/mpfs_hal/common/nwc/mss_ddr_debug.c ****  */
  53:../src/platform/mpfs_hal/common/nwc/mss_ddr_debug.c **** #ifdef DEBUG_DDR_INIT
  54:../src/platform/mpfs_hal/common/nwc/mss_ddr_debug.c **** mss_uart_instance_t *g_debug_uart;
  55:../src/platform/mpfs_hal/common/nwc/mss_ddr_debug.c **** #endif
  56:../src/platform/mpfs_hal/common/nwc/mss_ddr_debug.c **** 
  57:../src/platform/mpfs_hal/common/nwc/mss_ddr_debug.c **** uint64_t ddr_test;
  58:../src/platform/mpfs_hal/common/nwc/mss_ddr_debug.c **** 
  59:../src/platform/mpfs_hal/common/nwc/mss_ddr_debug.c **** /*******************************************************************************
  60:../src/platform/mpfs_hal/common/nwc/mss_ddr_debug.c ****  * Local function declarations
  61:../src/platform/mpfs_hal/common/nwc/mss_ddr_debug.c ****  */
  62:../src/platform/mpfs_hal/common/nwc/mss_ddr_debug.c **** static uint32_t ddr_write ( volatile uint64_t *DDR_word_ptr,\
  63:../src/platform/mpfs_hal/common/nwc/mss_ddr_debug.c ****         uint32_t no_of_access, uint8_t data_ptrn, DDR_ACCESS_SIZE data_size );
  64:../src/platform/mpfs_hal/common/nwc/mss_ddr_debug.c **** static uint32_t ddr_read ( volatile uint64_t *DDR_word_ptr,\
  65:../src/platform/mpfs_hal/common/nwc/mss_ddr_debug.c ****         uint32_t no_of_access, uint8_t data_ptrn,  DDR_ACCESS_SIZE data_size );
  66:../src/platform/mpfs_hal/common/nwc/mss_ddr_debug.c **** static void load_test_buffers(uint32_t * p_cached_ddr,\
  67:../src/platform/mpfs_hal/common/nwc/mss_ddr_debug.c ****         uint32_t * p_not_cached_ddr, uint64_t length);
  68:../src/platform/mpfs_hal/common/nwc/mss_ddr_debug.c **** 
  69:../src/platform/mpfs_hal/common/nwc/mss_ddr_debug.c **** #ifdef HSS
  70:../src/platform/mpfs_hal/common/nwc/mss_ddr_debug.c **** __attribute__((weak)) int rand(void)
  71:../src/platform/mpfs_hal/common/nwc/mss_ddr_debug.c **** {
  72:../src/platform/mpfs_hal/common/nwc/mss_ddr_debug.c ****     return(0);
  73:../src/platform/mpfs_hal/common/nwc/mss_ddr_debug.c **** }
  74:../src/platform/mpfs_hal/common/nwc/mss_ddr_debug.c **** #endif
  75:../src/platform/mpfs_hal/common/nwc/mss_ddr_debug.c **** 
  76:../src/platform/mpfs_hal/common/nwc/mss_ddr_debug.c **** #ifdef DEBUG_DDR_INIT
  77:../src/platform/mpfs_hal/common/nwc/mss_ddr_debug.c **** /***************************************************************************//**
  78:../src/platform/mpfs_hal/common/nwc/mss_ddr_debug.c ****  * Setup serial port if DDR debug required during start-up
  79:../src/platform/mpfs_hal/common/nwc/mss_ddr_debug.c ****  * @param uart Ref to uart you want to use
  80:../src/platform/mpfs_hal/common/nwc/mss_ddr_debug.c ****  * @return
  81:../src/platform/mpfs_hal/common/nwc/mss_ddr_debug.c ****  */
  82:../src/platform/mpfs_hal/common/nwc/mss_ddr_debug.c **** 
  83:../src/platform/mpfs_hal/common/nwc/mss_ddr_debug.c **** __attribute__((weak))\
  84:../src/platform/mpfs_hal/common/nwc/mss_ddr_debug.c ****         uint32_t setup_ddr_debug_port(mss_uart_instance_t * uart)
  85:../src/platform/mpfs_hal/common/nwc/mss_ddr_debug.c **** {
  86:../src/platform/mpfs_hal/common/nwc/mss_ddr_debug.c **** #ifdef DEBUG_DDR_INIT
  87:../src/platform/mpfs_hal/common/nwc/mss_ddr_debug.c ****     /* Turn on UART0 clock */
  88:../src/platform/mpfs_hal/common/nwc/mss_ddr_debug.c ****     SYSREG->SUBBLK_CLOCK_CR |= (SUBBLK_CLOCK_CR_MMUART0_MASK);
  89:../src/platform/mpfs_hal/common/nwc/mss_ddr_debug.c ****     /* Remove soft reset */
  90:../src/platform/mpfs_hal/common/nwc/mss_ddr_debug.c ****     SYSREG->SOFT_RESET_CR   &= (uint32_t)(~SUBBLK_CLOCK_CR_MMUART0_MASK);
  91:../src/platform/mpfs_hal/common/nwc/mss_ddr_debug.c ****     MSS_UART_init( uart,
  92:../src/platform/mpfs_hal/common/nwc/mss_ddr_debug.c ****         MSS_UART_115200_BAUD,
  93:../src/platform/mpfs_hal/common/nwc/mss_ddr_debug.c ****             MSS_UART_DATA_8_BITS | MSS_UART_NO_PARITY | MSS_UART_ONE_STOP_BIT);
  94:../src/platform/mpfs_hal/common/nwc/mss_ddr_debug.c ****     return(0U);
  95:../src/platform/mpfs_hal/common/nwc/mss_ddr_debug.c **** #endif
  96:../src/platform/mpfs_hal/common/nwc/mss_ddr_debug.c **** }
  97:../src/platform/mpfs_hal/common/nwc/mss_ddr_debug.c **** 
  98:../src/platform/mpfs_hal/common/nwc/mss_ddr_debug.c **** 
  99:../src/platform/mpfs_hal/common/nwc/mss_ddr_debug.c **** /***************************************************************************//**
 100:../src/platform/mpfs_hal/common/nwc/mss_ddr_debug.c ****  * Print in number hex format
 101:../src/platform/mpfs_hal/common/nwc/mss_ddr_debug.c ****  * @param uart
 102:../src/platform/mpfs_hal/common/nwc/mss_ddr_debug.c ****  * @param b
 103:../src/platform/mpfs_hal/common/nwc/mss_ddr_debug.c ****  */
 104:../src/platform/mpfs_hal/common/nwc/mss_ddr_debug.c **** 
 105:../src/platform/mpfs_hal/common/nwc/mss_ddr_debug.c **** static void dumpbyte(mss_uart_instance_t * uart, uint8_t b)
 106:../src/platform/mpfs_hal/common/nwc/mss_ddr_debug.c **** {
 107:../src/platform/mpfs_hal/common/nwc/mss_ddr_debug.c **** #ifdef DEBUG_DDR_INIT
 108:../src/platform/mpfs_hal/common/nwc/mss_ddr_debug.c ****     const uint8_t hexchrs[] = { '0','1','2','3','4','5','6','7','8','9','A','B',\
 109:../src/platform/mpfs_hal/common/nwc/mss_ddr_debug.c ****             'C','D','E','F' };
 110:../src/platform/mpfs_hal/common/nwc/mss_ddr_debug.c ****     MSS_UART_polled_tx(uart, &hexchrs[b >> 4u] , 1);
 111:../src/platform/mpfs_hal/common/nwc/mss_ddr_debug.c ****     MSS_UART_polled_tx(uart, &hexchrs[b & 0x0fu] , 1);
 112:../src/platform/mpfs_hal/common/nwc/mss_ddr_debug.c **** #endif
 113:../src/platform/mpfs_hal/common/nwc/mss_ddr_debug.c **** }
 114:../src/platform/mpfs_hal/common/nwc/mss_ddr_debug.c **** 
 115:../src/platform/mpfs_hal/common/nwc/mss_ddr_debug.c **** /***************************************************************************//**
 116:../src/platform/mpfs_hal/common/nwc/mss_ddr_debug.c ****  *
 117:../src/platform/mpfs_hal/common/nwc/mss_ddr_debug.c ****  * @param uart
 118:../src/platform/mpfs_hal/common/nwc/mss_ddr_debug.c ****  * @param msg
 119:../src/platform/mpfs_hal/common/nwc/mss_ddr_debug.c ****  * @param d
 120:../src/platform/mpfs_hal/common/nwc/mss_ddr_debug.c ****  */
 121:../src/platform/mpfs_hal/common/nwc/mss_ddr_debug.c **** __attribute__((weak))\
 122:../src/platform/mpfs_hal/common/nwc/mss_ddr_debug.c ****         void uprint32(mss_uart_instance_t * uart, const char* msg, uint32_t d)
 123:../src/platform/mpfs_hal/common/nwc/mss_ddr_debug.c **** {
 124:../src/platform/mpfs_hal/common/nwc/mss_ddr_debug.c ****     MSS_UART_polled_tx_string(uart, (const uint8_t *)msg);
 125:../src/platform/mpfs_hal/common/nwc/mss_ddr_debug.c ****     for (unsigned i=0; i < 4; i++)
 126:../src/platform/mpfs_hal/common/nwc/mss_ddr_debug.c ****     {
 127:../src/platform/mpfs_hal/common/nwc/mss_ddr_debug.c ****         dumpbyte(uart, (d >> (8*(3-i))) & 0xffu);
 128:../src/platform/mpfs_hal/common/nwc/mss_ddr_debug.c ****     }
 129:../src/platform/mpfs_hal/common/nwc/mss_ddr_debug.c **** }
 130:../src/platform/mpfs_hal/common/nwc/mss_ddr_debug.c **** 
 131:../src/platform/mpfs_hal/common/nwc/mss_ddr_debug.c **** /***************************************************************************//**
 132:../src/platform/mpfs_hal/common/nwc/mss_ddr_debug.c ****  *
 133:../src/platform/mpfs_hal/common/nwc/mss_ddr_debug.c ****  * @param uart
 134:../src/platform/mpfs_hal/common/nwc/mss_ddr_debug.c ****  * @param msg
 135:../src/platform/mpfs_hal/common/nwc/mss_ddr_debug.c ****  * @param d
 136:../src/platform/mpfs_hal/common/nwc/mss_ddr_debug.c ****  */
 137:../src/platform/mpfs_hal/common/nwc/mss_ddr_debug.c **** __attribute__((weak))\
 138:../src/platform/mpfs_hal/common/nwc/mss_ddr_debug.c ****         void uprint64(mss_uart_instance_t * uart, const char* msg, uint64_t d)
 139:../src/platform/mpfs_hal/common/nwc/mss_ddr_debug.c **** {
 140:../src/platform/mpfs_hal/common/nwc/mss_ddr_debug.c ****     MSS_UART_polled_tx_string(uart, (const uint8_t *)msg);
 141:../src/platform/mpfs_hal/common/nwc/mss_ddr_debug.c ****     for (unsigned i=4; i < 8; i++)
 142:../src/platform/mpfs_hal/common/nwc/mss_ddr_debug.c ****     {
 143:../src/platform/mpfs_hal/common/nwc/mss_ddr_debug.c ****         dumpbyte(uart, (d >> (8*(3-i))) & 0xffu);
 144:../src/platform/mpfs_hal/common/nwc/mss_ddr_debug.c ****     }
 145:../src/platform/mpfs_hal/common/nwc/mss_ddr_debug.c ****     for (unsigned i=0; i < 4; i++)
 146:../src/platform/mpfs_hal/common/nwc/mss_ddr_debug.c ****     {
 147:../src/platform/mpfs_hal/common/nwc/mss_ddr_debug.c ****         dumpbyte(uart, (d >> (8*(3-i))) & 0xffu);
 148:../src/platform/mpfs_hal/common/nwc/mss_ddr_debug.c ****     }
 149:../src/platform/mpfs_hal/common/nwc/mss_ddr_debug.c **** }
 150:../src/platform/mpfs_hal/common/nwc/mss_ddr_debug.c **** 
 151:../src/platform/mpfs_hal/common/nwc/mss_ddr_debug.c **** /***************************************************************************//**
 152:../src/platform/mpfs_hal/common/nwc/mss_ddr_debug.c ****  *
 153:../src/platform/mpfs_hal/common/nwc/mss_ddr_debug.c ****  * @param uart
 154:../src/platform/mpfs_hal/common/nwc/mss_ddr_debug.c ****  * @param msg
 155:../src/platform/mpfs_hal/common/nwc/mss_ddr_debug.c ****  */
 156:../src/platform/mpfs_hal/common/nwc/mss_ddr_debug.c **** __attribute__((weak))\
 157:../src/platform/mpfs_hal/common/nwc/mss_ddr_debug.c ****         void uprint(mss_uart_instance_t * uart, const char* msg)
 158:../src/platform/mpfs_hal/common/nwc/mss_ddr_debug.c **** {
 159:../src/platform/mpfs_hal/common/nwc/mss_ddr_debug.c ****     MSS_UART_polled_tx_string(uart, (const uint8_t *)msg);
 160:../src/platform/mpfs_hal/common/nwc/mss_ddr_debug.c **** }
 161:../src/platform/mpfs_hal/common/nwc/mss_ddr_debug.c **** 
 162:../src/platform/mpfs_hal/common/nwc/mss_ddr_debug.c **** /***************************************************************************//**
 163:../src/platform/mpfs_hal/common/nwc/mss_ddr_debug.c ****  * dump a number of 32bit contiguous registers
 164:../src/platform/mpfs_hal/common/nwc/mss_ddr_debug.c ****  * @param uart
 165:../src/platform/mpfs_hal/common/nwc/mss_ddr_debug.c ****  * @param reg_pointer
 166:../src/platform/mpfs_hal/common/nwc/mss_ddr_debug.c ****  * @param no_of_regs
 167:../src/platform/mpfs_hal/common/nwc/mss_ddr_debug.c ****  */
 168:../src/platform/mpfs_hal/common/nwc/mss_ddr_debug.c **** void print_reg_array(mss_uart_instance_t * uart, uint32_t *reg_pointer,\
 169:../src/platform/mpfs_hal/common/nwc/mss_ddr_debug.c ****         uint32_t no_of_regs)
 170:../src/platform/mpfs_hal/common/nwc/mss_ddr_debug.c **** {
 171:../src/platform/mpfs_hal/common/nwc/mss_ddr_debug.c **** #ifdef DEBUG_DDR_INIT
 172:../src/platform/mpfs_hal/common/nwc/mss_ddr_debug.c ****     while(no_of_regs > 0U)
 173:../src/platform/mpfs_hal/common/nwc/mss_ddr_debug.c ****     {
 174:../src/platform/mpfs_hal/common/nwc/mss_ddr_debug.c ****         uprint64(uart, "\n\rRegister, 0x", (uint64_t)reg_pointer);
 175:../src/platform/mpfs_hal/common/nwc/mss_ddr_debug.c ****         uprint32(uart, "  ,Value, 0x", *reg_pointer);
 176:../src/platform/mpfs_hal/common/nwc/mss_ddr_debug.c ****         reg_pointer++;
 177:../src/platform/mpfs_hal/common/nwc/mss_ddr_debug.c ****         no_of_regs--;
 178:../src/platform/mpfs_hal/common/nwc/mss_ddr_debug.c ****     }
 179:../src/platform/mpfs_hal/common/nwc/mss_ddr_debug.c **** #endif
 180:../src/platform/mpfs_hal/common/nwc/mss_ddr_debug.c **** }
 181:../src/platform/mpfs_hal/common/nwc/mss_ddr_debug.c **** 
 182:../src/platform/mpfs_hal/common/nwc/mss_ddr_debug.c **** #endif
 183:../src/platform/mpfs_hal/common/nwc/mss_ddr_debug.c **** 
 184:../src/platform/mpfs_hal/common/nwc/mss_ddr_debug.c **** /***************************************************************************//**
 185:../src/platform/mpfs_hal/common/nwc/mss_ddr_debug.c ****  * Write data to DDR
 186:../src/platform/mpfs_hal/common/nwc/mss_ddr_debug.c ****  * @param DDR_word_ptr
 187:../src/platform/mpfs_hal/common/nwc/mss_ddr_debug.c ****  * @param no_of_access
 188:../src/platform/mpfs_hal/common/nwc/mss_ddr_debug.c ****  * @param data_ptrn
 189:../src/platform/mpfs_hal/common/nwc/mss_ddr_debug.c ****  * @return
 190:../src/platform/mpfs_hal/common/nwc/mss_ddr_debug.c ****  */
 191:../src/platform/mpfs_hal/common/nwc/mss_ddr_debug.c **** static uint32_t ddr_write
 192:../src/platform/mpfs_hal/common/nwc/mss_ddr_debug.c **** (
 193:../src/platform/mpfs_hal/common/nwc/mss_ddr_debug.c ****     volatile uint64_t *DDR_word_ptr,
 194:../src/platform/mpfs_hal/common/nwc/mss_ddr_debug.c ****     uint32_t no_of_access,
 195:../src/platform/mpfs_hal/common/nwc/mss_ddr_debug.c ****     uint8_t data_ptrn,
 196:../src/platform/mpfs_hal/common/nwc/mss_ddr_debug.c ****     DDR_ACCESS_SIZE data_size
 197:../src/platform/mpfs_hal/common/nwc/mss_ddr_debug.c **** )
 198:../src/platform/mpfs_hal/common/nwc/mss_ddr_debug.c **** {
  15              		.loc 1 198 1
  16              		.cfi_startproc
  17              	.LVL0:
 199:../src/platform/mpfs_hal/common/nwc/mss_ddr_debug.c ****     uint32_t i;
  18              		.loc 1 199 5
 200:../src/platform/mpfs_hal/common/nwc/mss_ddr_debug.c ****     uint64_t DATA;
  19              		.loc 1 200 5
 201:../src/platform/mpfs_hal/common/nwc/mss_ddr_debug.c ****     uint32_t error_count = 0U;
  20              		.loc 1 201 5
 202:../src/platform/mpfs_hal/common/nwc/mss_ddr_debug.c **** 
 203:../src/platform/mpfs_hal/common/nwc/mss_ddr_debug.c ****     uint32_t *DDR_32_ptr = (uint32_t *)DDR_word_ptr;
  21              		.loc 1 203 5
 198:../src/platform/mpfs_hal/common/nwc/mss_ddr_debug.c ****     uint32_t i;
  22              		.loc 1 198 1 is_stmt 0
  23 0000 5971     		addi	sp,sp,-112
  24              		.cfi_def_cfa_offset 112
  25 0002 A2F0     		sd	s0,96(sp)
  26 0004 A6EC     		sd	s1,88(sp)
  27 0006 62F0     		sd	s8,32(sp)
  28 0008 66EC     		sd	s9,24(sp)
  29 000a 86F4     		sd	ra,104(sp)
  30 000c CAE8     		sd	s2,80(sp)
  31 000e CEE4     		sd	s3,72(sp)
  32 0010 D2E0     		sd	s4,64(sp)
  33 0012 56FC     		sd	s5,56(sp)
  34 0014 5AF8     		sd	s6,48(sp)
  35 0016 5EF4     		sd	s7,40(sp)
  36 0018 6AE8     		sd	s10,16(sp)
  37 001a 6EE4     		sd	s11,8(sp)
  38              		.cfi_offset 8, -16
  39              		.cfi_offset 9, -24
  40              		.cfi_offset 24, -80
  41              		.cfi_offset 25, -88
  42              		.cfi_offset 1, -8
  43              		.cfi_offset 18, -32
  44              		.cfi_offset 19, -40
  45              		.cfi_offset 20, -48
  46              		.cfi_offset 21, -56
  47              		.cfi_offset 22, -64
  48              		.cfi_offset 23, -72
  49              		.cfi_offset 26, -96
  50              		.cfi_offset 27, -104
 204:../src/platform/mpfs_hal/common/nwc/mss_ddr_debug.c ****     uint16_t *DDR_16_ptr = (uint16_t *)DDR_word_ptr;
 205:../src/platform/mpfs_hal/common/nwc/mss_ddr_debug.c ****     uint8_t *DDR_8_ptr   = (uint8_t *)DDR_word_ptr;
 206:../src/platform/mpfs_hal/common/nwc/mss_ddr_debug.c **** 
 207:../src/platform/mpfs_hal/common/nwc/mss_ddr_debug.c ****     switch (data_ptrn)
  51              		.loc 1 207 5
  52 001c A147     		li	a5,8
 198:../src/platform/mpfs_hal/common/nwc/mss_ddr_debug.c ****     uint32_t i;
  53              		.loc 1 198 1
  54 001e AA84     		mv	s1,a0
  55              	.LVL1:
 204:../src/platform/mpfs_hal/common/nwc/mss_ddr_debug.c ****     uint16_t *DDR_16_ptr = (uint16_t *)DDR_word_ptr;
  56              		.loc 1 204 5 is_stmt 1
 205:../src/platform/mpfs_hal/common/nwc/mss_ddr_debug.c **** 
  57              		.loc 1 205 5
  58              		.loc 1 207 5
 198:../src/platform/mpfs_hal/common/nwc/mss_ddr_debug.c ****     uint32_t i;
  59              		.loc 1 198 1 is_stmt 0
  60 0020 2E8C     		mv	s8,a1
  61 0022 3284     		mv	s0,a2
  62 0024 B68C     		mv	s9,a3
  63              		.loc 1 207 5
  64 0026 630DF606 		beq	a2,a5,.L2
  65 002a 63EFC704 		bgtu	a2,a5,.L3
  66 002e 8947     		li	a5,2
 208:../src/platform/mpfs_hal/common/nwc/mss_ddr_debug.c ****     {
 209:../src/platform/mpfs_hal/common/nwc/mss_ddr_debug.c ****         case PATTERN_INCREMENTAL : DATA = 0x00000000; break;
 210:../src/platform/mpfs_hal/common/nwc/mss_ddr_debug.c ****         case PATTERN_WALKING_ONE : DATA = 0x00000001; break;
  67              		.loc 1 210 41
  68 0030 0545     		li	a0,1
  69              	.LVL2:
 207:../src/platform/mpfs_hal/common/nwc/mss_ddr_debug.c ****     {
  70              		.loc 1 207 5
  71 0032 6307F600 		beq	a2,a5,.L4
  72 0036 9147     		li	a5,4
 211:../src/platform/mpfs_hal/common/nwc/mss_ddr_debug.c ****         case PATTERN_WALKING_ZERO : DATA = 0x01;
 212:../src/platform/mpfs_hal/common/nwc/mss_ddr_debug.c ****                  DATA = ~ DATA; break;
  73              		.loc 1 212 23
  74 0038 7955     		li	a0,-2
 207:../src/platform/mpfs_hal/common/nwc/mss_ddr_debug.c ****     {
  75              		.loc 1 207 5
  76 003a 6303F600 		beq	a2,a5,.L4
  77              	.L26:
 209:../src/platform/mpfs_hal/common/nwc/mss_ddr_debug.c ****         case PATTERN_WALKING_ONE : DATA = 0x00000001; break;
  78              		.loc 1 209 41
  79 003e 0145     		li	a0,0
  80              	.LVL3:
  81              	.L4:
 213:../src/platform/mpfs_hal/common/nwc/mss_ddr_debug.c ****         case PATTERN_RANDOM :
 214:../src/platform/mpfs_hal/common/nwc/mss_ddr_debug.c ****             DATA = (uint64_t)rand ( );
 215:../src/platform/mpfs_hal/common/nwc/mss_ddr_debug.c ****             break;
 216:../src/platform/mpfs_hal/common/nwc/mss_ddr_debug.c ****         case PATTERN_0xCCCCCCCC :
 217:../src/platform/mpfs_hal/common/nwc/mss_ddr_debug.c ****             DATA = 0xCCCCCCCCCCCCCCCC;
 218:../src/platform/mpfs_hal/common/nwc/mss_ddr_debug.c ****             break;
 219:../src/platform/mpfs_hal/common/nwc/mss_ddr_debug.c ****         case PATTERN_0x55555555 :
 220:../src/platform/mpfs_hal/common/nwc/mss_ddr_debug.c ****             DATA = 0x5555555555555555;
 221:../src/platform/mpfs_hal/common/nwc/mss_ddr_debug.c ****             break;
 222:../src/platform/mpfs_hal/common/nwc/mss_ddr_debug.c ****         case PATTERN_ZEROS :
 223:../src/platform/mpfs_hal/common/nwc/mss_ddr_debug.c ****             DATA = 0x00000000;
 224:../src/platform/mpfs_hal/common/nwc/mss_ddr_debug.c ****             break;
 225:../src/platform/mpfs_hal/common/nwc/mss_ddr_debug.c ****         default :
 226:../src/platform/mpfs_hal/common/nwc/mss_ddr_debug.c ****             DATA = 0x00000000;
 227:../src/platform/mpfs_hal/common/nwc/mss_ddr_debug.c ****             break;
 228:../src/platform/mpfs_hal/common/nwc/mss_ddr_debug.c ****     }
 229:../src/platform/mpfs_hal/common/nwc/mss_ddr_debug.c **** 
 230:../src/platform/mpfs_hal/common/nwc/mss_ddr_debug.c ****     for( i = 0; i< (no_of_access); i++)
 231:../src/platform/mpfs_hal/common/nwc/mss_ddr_debug.c ****     {
 232:../src/platform/mpfs_hal/common/nwc/mss_ddr_debug.c ****         switch(data_size)
 233:../src/platform/mpfs_hal/common/nwc/mss_ddr_debug.c ****         {
 234:../src/platform/mpfs_hal/common/nwc/mss_ddr_debug.c ****             case DDR_8_BIT:
 235:../src/platform/mpfs_hal/common/nwc/mss_ddr_debug.c ****                 DATA &= 0xFFUL;
 236:../src/platform/mpfs_hal/common/nwc/mss_ddr_debug.c ****                 *DDR_8_ptr = (uint8_t)DATA;
 237:../src/platform/mpfs_hal/common/nwc/mss_ddr_debug.c ****                 DDR_8_ptr = DDR_8_ptr + 1;
 238:../src/platform/mpfs_hal/common/nwc/mss_ddr_debug.c ****                 break;
 239:../src/platform/mpfs_hal/common/nwc/mss_ddr_debug.c ****             case DDR_16_BIT:
 240:../src/platform/mpfs_hal/common/nwc/mss_ddr_debug.c ****                 DATA &= 0xFFFFUL;
 241:../src/platform/mpfs_hal/common/nwc/mss_ddr_debug.c ****                 *DDR_16_ptr = (uint16_t)DATA;
 242:../src/platform/mpfs_hal/common/nwc/mss_ddr_debug.c ****                 DDR_16_ptr = DDR_16_ptr + 1;
 243:../src/platform/mpfs_hal/common/nwc/mss_ddr_debug.c ****                 break;
 244:../src/platform/mpfs_hal/common/nwc/mss_ddr_debug.c ****             case DDR_32_BIT:
 245:../src/platform/mpfs_hal/common/nwc/mss_ddr_debug.c ****                 DATA &= 0xFFFFFFFFUL;
  82              		.loc 1 245 22 discriminator 1
  83 0040 7D5A     		li	s4,-1
 246:../src/platform/mpfs_hal/common/nwc/mss_ddr_debug.c ****                 *DDR_32_ptr = (uint32_t)DATA;
 247:../src/platform/mpfs_hal/common/nwc/mss_ddr_debug.c ****                 DDR_32_ptr = DDR_32_ptr + 1;
 248:../src/platform/mpfs_hal/common/nwc/mss_ddr_debug.c ****                 break;
 249:../src/platform/mpfs_hal/common/nwc/mss_ddr_debug.c ****             default:
 250:../src/platform/mpfs_hal/common/nwc/mss_ddr_debug.c ****             case DDR_64_BIT:
 251:../src/platform/mpfs_hal/common/nwc/mss_ddr_debug.c ****                 *DDR_word_ptr = DATA;
 252:../src/platform/mpfs_hal/common/nwc/mss_ddr_debug.c ****                 DDR_word_ptr = DDR_word_ptr + 1;
 253:../src/platform/mpfs_hal/common/nwc/mss_ddr_debug.c ****                 break;
 254:../src/platform/mpfs_hal/common/nwc/mss_ddr_debug.c ****         }
 255:../src/platform/mpfs_hal/common/nwc/mss_ddr_debug.c **** 
 256:../src/platform/mpfs_hal/common/nwc/mss_ddr_debug.c **** #ifdef DEBUG_DDR_INIT
 257:../src/platform/mpfs_hal/common/nwc/mss_ddr_debug.c ****         if((i%0x1000000UL) ==0UL)
 258:../src/platform/mpfs_hal/common/nwc/mss_ddr_debug.c ****         {
 259:../src/platform/mpfs_hal/common/nwc/mss_ddr_debug.c ****             MSS_UART_polled_tx(g_debug_uart, (const uint8_t*)"w", (uint32_t)1UL);
 260:../src/platform/mpfs_hal/common/nwc/mss_ddr_debug.c ****         }
 261:../src/platform/mpfs_hal/common/nwc/mss_ddr_debug.c **** #endif
 262:../src/platform/mpfs_hal/common/nwc/mss_ddr_debug.c ****         switch (data_ptrn)
 263:../src/platform/mpfs_hal/common/nwc/mss_ddr_debug.c ****         {
 264:../src/platform/mpfs_hal/common/nwc/mss_ddr_debug.c ****             case PATTERN_INCREMENTAL : DATA = DATA + 0x00000001; break;
 265:../src/platform/mpfs_hal/common/nwc/mss_ddr_debug.c ****             case PATTERN_WALKING_ONE :
 266:../src/platform/mpfs_hal/common/nwc/mss_ddr_debug.c ****                 if (DATA == 0x80000000)
  84              		.loc 1 266 20 discriminator 1
  85 0042 854B     		li	s7,1
 267:../src/platform/mpfs_hal/common/nwc/mss_ddr_debug.c ****                     DATA = 0x00000001;
  86              		.loc 1 267 26 discriminator 1
  87 0044 A689     		mv	s3,s1
  88 0046 0149     		li	s2,0
 232:../src/platform/mpfs_hal/common/nwc/mss_ddr_debug.c ****         {
  89              		.loc 1 232 9 discriminator 1
  90 0048 894A     		li	s5,2
 245:../src/platform/mpfs_hal/common/nwc/mss_ddr_debug.c ****                 *DDR_32_ptr = (uint32_t)DATA;
  91              		.loc 1 245 22 discriminator 1
  92 004a 135A0A02 		srli	s4,s4,32
 262:../src/platform/mpfs_hal/common/nwc/mss_ddr_debug.c ****         {
  93              		.loc 1 262 9 discriminator 1
  94 004e 214B     		li	s6,8
 268:../src/platform/mpfs_hal/common/nwc/mss_ddr_debug.c ****                 else
 269:../src/platform/mpfs_hal/common/nwc/mss_ddr_debug.c ****                     DATA = (DATA << 1);
 270:../src/platform/mpfs_hal/common/nwc/mss_ddr_debug.c ****                 break;
 271:../src/platform/mpfs_hal/common/nwc/mss_ddr_debug.c ****             case PATTERN_WALKING_ZERO :
 272:../src/platform/mpfs_hal/common/nwc/mss_ddr_debug.c ****                 DATA = ~DATA;
 273:../src/platform/mpfs_hal/common/nwc/mss_ddr_debug.c ****                 if (DATA == 0x80000000)
 274:../src/platform/mpfs_hal/common/nwc/mss_ddr_debug.c ****                     DATA = 0x00000001;
 275:../src/platform/mpfs_hal/common/nwc/mss_ddr_debug.c ****                 else
 276:../src/platform/mpfs_hal/common/nwc/mss_ddr_debug.c ****                 {
 277:../src/platform/mpfs_hal/common/nwc/mss_ddr_debug.c ****                     DATA = (DATA << 1);
 278:../src/platform/mpfs_hal/common/nwc/mss_ddr_debug.c ****                 }
 279:../src/platform/mpfs_hal/common/nwc/mss_ddr_debug.c ****                 DATA = ~DATA;
 280:../src/platform/mpfs_hal/common/nwc/mss_ddr_debug.c ****                 break;
 281:../src/platform/mpfs_hal/common/nwc/mss_ddr_debug.c ****             case PATTERN_RANDOM :
 282:../src/platform/mpfs_hal/common/nwc/mss_ddr_debug.c ****                 DATA = (uint64_t)rand ( );
 283:../src/platform/mpfs_hal/common/nwc/mss_ddr_debug.c ****                 break;
 284:../src/platform/mpfs_hal/common/nwc/mss_ddr_debug.c ****             case PATTERN_0xCCCCCCCC :
 285:../src/platform/mpfs_hal/common/nwc/mss_ddr_debug.c ****                 DATA = 0xCCCCCCCCCCCCCCCC;
 286:../src/platform/mpfs_hal/common/nwc/mss_ddr_debug.c ****                 break;
 287:../src/platform/mpfs_hal/common/nwc/mss_ddr_debug.c ****             case PATTERN_0x55555555 :
 288:../src/platform/mpfs_hal/common/nwc/mss_ddr_debug.c ****                 DATA = 0x5555555555555555;
  95              		.loc 1 288 22 discriminator 1
  96 0050 970D0000 		lla	s11,.LC0
  96      938D0D00 
 285:../src/platform/mpfs_hal/common/nwc/mss_ddr_debug.c ****                 break;
  97              		.loc 1 285 22 discriminator 1
  98 0058 17070000 		lla	a4,.LC1
  98      13070700 
 266:../src/platform/mpfs_hal/common/nwc/mss_ddr_debug.c ****                     DATA = 0x00000001;
  99              		.loc 1 266 20 discriminator 1
 100 0060 139DFB01 		slli	s10,s7,31
 101              	.LVL4:
 102              	.L5:
 230:../src/platform/mpfs_hal/common/nwc/mss_ddr_debug.c ****     {
 103              		.loc 1 230 5 discriminator 1
 104 0064 63198905 		bne	s2,s8,.L15
 289:../src/platform/mpfs_hal/common/nwc/mss_ddr_debug.c ****                 break;
 290:../src/platform/mpfs_hal/common/nwc/mss_ddr_debug.c ****             case PATTERN_ZEROS :
 291:../src/platform/mpfs_hal/common/nwc/mss_ddr_debug.c ****                 DATA = 0x00000000;
 292:../src/platform/mpfs_hal/common/nwc/mss_ddr_debug.c ****                 break;
 293:../src/platform/mpfs_hal/common/nwc/mss_ddr_debug.c ****             default :
 294:../src/platform/mpfs_hal/common/nwc/mss_ddr_debug.c ****                 break;
 295:../src/platform/mpfs_hal/common/nwc/mss_ddr_debug.c ****         }
 296:../src/platform/mpfs_hal/common/nwc/mss_ddr_debug.c ****     }
 297:../src/platform/mpfs_hal/common/nwc/mss_ddr_debug.c ****     return error_count;
 105              		.loc 1 297 5 is_stmt 1
 298:../src/platform/mpfs_hal/common/nwc/mss_ddr_debug.c **** }
 106              		.loc 1 298 1 is_stmt 0
 107 0068 A670     		ld	ra,104(sp)
 108              		.cfi_remember_state
 109              		.cfi_restore 1
 110 006a 0674     		ld	s0,96(sp)
 111              		.cfi_restore 8
 112 006c E664     		ld	s1,88(sp)
 113              		.cfi_restore 9
 114              	.LVL5:
 115 006e 4669     		ld	s2,80(sp)
 116              		.cfi_restore 18
 117              	.LVL6:
 118 0070 A669     		ld	s3,72(sp)
 119              		.cfi_restore 19
 120              	.LVL7:
 121 0072 066A     		ld	s4,64(sp)
 122              		.cfi_restore 20
 123 0074 E27A     		ld	s5,56(sp)
 124              		.cfi_restore 21
 125 0076 427B     		ld	s6,48(sp)
 126              		.cfi_restore 22
 127 0078 A27B     		ld	s7,40(sp)
 128              		.cfi_restore 23
 129 007a 027C     		ld	s8,32(sp)
 130              		.cfi_restore 24
 131 007c E26C     		ld	s9,24(sp)
 132              		.cfi_restore 25
 133 007e 426D     		ld	s10,16(sp)
 134              		.cfi_restore 26
 135 0080 A26D     		ld	s11,8(sp)
 136              		.cfi_restore 27
 137 0082 0145     		li	a0,0
 138              	.LVL8:
 139 0084 6561     		addi	sp,sp,112
 140              		.cfi_def_cfa_offset 0
 141 0086 8280     		jr	ra
 142              	.LVL9:
 143              	.L3:
 144              		.cfi_restore_state
 207:../src/platform/mpfs_hal/common/nwc/mss_ddr_debug.c ****     {
 145              		.loc 1 207 5
 146 0088 C147     		li	a5,16
 147 008a 6300F602 		beq	a2,a5,.L18
 148 008e 93070002 		li	a5,32
 149 0092 E316F6FA 		bne	a2,a5,.L26
 220:../src/platform/mpfs_hal/common/nwc/mss_ddr_debug.c ****             break;
 150              		.loc 1 220 18
 151 0096 97070000 		lla	a5,.LC0
 151      93870700 
 152 009e 11A8     		j	.L27
 153              	.L2:
 214:../src/platform/mpfs_hal/common/nwc/mss_ddr_debug.c ****             break;
 154              		.loc 1 214 13 is_stmt 1
 214:../src/platform/mpfs_hal/common/nwc/mss_ddr_debug.c ****             break;
 155              		.loc 1 214 30 is_stmt 0
 156 00a0 97000000 		call	rand
 156      E7800000 
 157              	.LVL10:
 215:../src/platform/mpfs_hal/common/nwc/mss_ddr_debug.c ****         case PATTERN_0xCCCCCCCC :
 158              		.loc 1 215 13 is_stmt 1
 159 00a8 61BF     		j	.L4
 160              	.LVL11:
 161              	.L18:
 217:../src/platform/mpfs_hal/common/nwc/mss_ddr_debug.c ****             break;
 162              		.loc 1 217 18 is_stmt 0
 163 00aa 97070000 		lla	a5,.LC1
 163      93870700 
 164              	.L27:
 220:../src/platform/mpfs_hal/common/nwc/mss_ddr_debug.c ****             break;
 165              		.loc 1 220 18
 166 00b2 8863     		ld	a0,0(a5)
 167 00b4 71B7     		j	.L4
 168              	.LVL12:
 169              	.L15:
 232:../src/platform/mpfs_hal/common/nwc/mss_ddr_debug.c ****         {
 170              		.loc 1 232 9 is_stmt 1
 171 00b6 63955C03 		bne	s9,s5,.L6
 245:../src/platform/mpfs_hal/common/nwc/mss_ddr_debug.c ****                 *DDR_32_ptr = (uint32_t)DATA;
 172              		.loc 1 245 17
 173              	.LVL13:
 246:../src/platform/mpfs_hal/common/nwc/mss_ddr_debug.c ****                 DDR_32_ptr = DDR_32_ptr + 1;
 174              		.loc 1 246 17
 246:../src/platform/mpfs_hal/common/nwc/mss_ddr_debug.c ****                 DDR_32_ptr = DDR_32_ptr + 1;
 175              		.loc 1 246 31 is_stmt 0
 176 00ba 23A0A900 		sw	a0,0(s3)
 247:../src/platform/mpfs_hal/common/nwc/mss_ddr_debug.c ****                 break;
 177              		.loc 1 247 17 is_stmt 1
 247:../src/platform/mpfs_hal/common/nwc/mss_ddr_debug.c ****                 break;
 178              		.loc 1 247 28 is_stmt 0
 179 00be 9109     		addi	s3,s3,4
 180              	.LVL14:
 248:../src/platform/mpfs_hal/common/nwc/mss_ddr_debug.c ****             default:
 181              		.loc 1 248 17 is_stmt 1
 245:../src/platform/mpfs_hal/common/nwc/mss_ddr_debug.c ****                 *DDR_32_ptr = (uint32_t)DATA;
 182              		.loc 1 245 22 is_stmt 0
 183 00c0 33754501 		and	a0,a0,s4
 184              	.LVL15:
 185              	.L7:
 262:../src/platform/mpfs_hal/common/nwc/mss_ddr_debug.c ****         {
 186              		.loc 1 262 9 is_stmt 1
 187 00c4 630C6405 		beq	s0,s6,.L8
 188 00c8 636F8B00 		bgtu	s0,s6,.L9
 189 00cc 630A5403 		beq	s0,s5,.L10
 190 00d0 9147     		li	a5,4
 191 00d2 630BF402 		beq	s0,a5,.L11
 192 00d6 63137401 		bne	s0,s7,.L13
 264:../src/platform/mpfs_hal/common/nwc/mss_ddr_debug.c ****             case PATTERN_WALKING_ONE :
 193              		.loc 1 264 40
 264:../src/platform/mpfs_hal/common/nwc/mss_ddr_debug.c ****             case PATTERN_WALKING_ONE :
 194              		.loc 1 264 45 is_stmt 0
 195 00da 0505     		addi	a0,a0,1
 196              	.LVL16:
 264:../src/platform/mpfs_hal/common/nwc/mss_ddr_debug.c ****             case PATTERN_WALKING_ONE :
 197              		.loc 1 264 66 is_stmt 1
 198              	.L13:
 230:../src/platform/mpfs_hal/common/nwc/mss_ddr_debug.c ****     {
 199              		.loc 1 230 37 is_stmt 0 discriminator 2
 200 00dc 0529     		addiw	s2,s2,1
 201              	.LVL17:
 202 00de 59B7     		j	.L5
 203              	.LVL18:
 204              	.L6:
 251:../src/platform/mpfs_hal/common/nwc/mss_ddr_debug.c ****                 DDR_word_ptr = DDR_word_ptr + 1;
 205              		.loc 1 251 17 is_stmt 1
 251:../src/platform/mpfs_hal/common/nwc/mss_ddr_debug.c ****                 DDR_word_ptr = DDR_word_ptr + 1;
 206              		.loc 1 251 31 is_stmt 0
 207 00e0 88E0     		sd	a0,0(s1)
 252:../src/platform/mpfs_hal/common/nwc/mss_ddr_debug.c ****                 break;
 208              		.loc 1 252 17 is_stmt 1
 252:../src/platform/mpfs_hal/common/nwc/mss_ddr_debug.c ****                 break;
 209              		.loc 1 252 30 is_stmt 0
 210 00e2 A104     		addi	s1,s1,8
 211              	.LVL19:
 253:../src/platform/mpfs_hal/common/nwc/mss_ddr_debug.c ****         }
 212              		.loc 1 253 17 is_stmt 1
 213 00e4 C5B7     		j	.L7
 214              	.L9:
 262:../src/platform/mpfs_hal/common/nwc/mss_ddr_debug.c ****         {
 215              		.loc 1 262 9 is_stmt 0
 216 00e6 93070002 		li	a5,32
 217 00ea 6302F404 		beq	s0,a5,.L20
 218 00ee 93070004 		li	a5,64
 219 00f2 6301F404 		beq	s0,a5,.L21
 220 00f6 C147     		li	a5,16
 221 00f8 E312F4FE 		bne	s0,a5,.L13
 285:../src/platform/mpfs_hal/common/nwc/mss_ddr_debug.c ****                 break;
 222              		.loc 1 285 22
 223 00fc 0863     		ld	a0,0(a4)
 224              	.LVL20:
 225 00fe F9BF     		j	.L13
 226              	.LVL21:
 227              	.L10:
 266:../src/platform/mpfs_hal/common/nwc/mss_ddr_debug.c ****                     DATA = 0x00000001;
 228              		.loc 1 266 17 is_stmt 1
 266:../src/platform/mpfs_hal/common/nwc/mss_ddr_debug.c ****                     DATA = 0x00000001;
 229              		.loc 1 266 20 is_stmt 0
 230 0100 630CA503 		beq	a0,s10,.L23
 269:../src/platform/mpfs_hal/common/nwc/mss_ddr_debug.c ****                 break;
 231              		.loc 1 269 21 is_stmt 1
 269:../src/platform/mpfs_hal/common/nwc/mss_ddr_debug.c ****                 break;
 232              		.loc 1 269 26 is_stmt 0
 233 0104 0605     		slli	a0,a0,1
 234              	.LVL22:
 235 0106 D9BF     		j	.L13
 236              	.L11:
 272:../src/platform/mpfs_hal/common/nwc/mss_ddr_debug.c ****                 if (DATA == 0x80000000)
 237              		.loc 1 272 17 is_stmt 1
 272:../src/platform/mpfs_hal/common/nwc/mss_ddr_debug.c ****                 if (DATA == 0x80000000)
 238              		.loc 1 272 22 is_stmt 0
 239 0108 9347F5FF 		not	a5,a0
 240              	.LVL23:
 273:../src/platform/mpfs_hal/common/nwc/mss_ddr_debug.c ****                     DATA = 0x00000001;
 241              		.loc 1 273 17 is_stmt 1
 274:../src/platform/mpfs_hal/common/nwc/mss_ddr_debug.c ****                 else
 242              		.loc 1 274 26 is_stmt 0
 243 010c 0545     		li	a0,1
 273:../src/platform/mpfs_hal/common/nwc/mss_ddr_debug.c ****                     DATA = 0x00000001;
 244              		.loc 1 273 20
 245 010e 6384A701 		beq	a5,s10,.L14
 277:../src/platform/mpfs_hal/common/nwc/mss_ddr_debug.c ****                 }
 246              		.loc 1 277 21 is_stmt 1
 277:../src/platform/mpfs_hal/common/nwc/mss_ddr_debug.c ****                 }
 247              		.loc 1 277 26 is_stmt 0
 248 0112 13951700 		slli	a0,a5,1
 249              	.LVL24:
 250              	.L14:
 279:../src/platform/mpfs_hal/common/nwc/mss_ddr_debug.c ****                 break;
 251              		.loc 1 279 17 is_stmt 1
 279:../src/platform/mpfs_hal/common/nwc/mss_ddr_debug.c ****                 break;
 252              		.loc 1 279 22 is_stmt 0
 253 0116 1345F5FF 		not	a0,a0
 254              	.LVL25:
 280:../src/platform/mpfs_hal/common/nwc/mss_ddr_debug.c ****             case PATTERN_RANDOM :
 255              		.loc 1 280 17 is_stmt 1
 256 011a C9B7     		j	.L13
 257              	.L8:
 282:../src/platform/mpfs_hal/common/nwc/mss_ddr_debug.c ****                 break;
 258              		.loc 1 282 17
 282:../src/platform/mpfs_hal/common/nwc/mss_ddr_debug.c ****                 break;
 259              		.loc 1 282 34 is_stmt 0
 260 011c 97000000 		call	rand
 260      E7800000 
 261              	.LVL26:
 283:../src/platform/mpfs_hal/common/nwc/mss_ddr_debug.c ****             case PATTERN_0xCCCCCCCC :
 262              		.loc 1 283 17 is_stmt 1
 263 0124 17070000 		lla	a4,.LC1
 263      13070700 
 264 012c 45BF     		j	.L13
 265              	.L20:
 288:../src/platform/mpfs_hal/common/nwc/mss_ddr_debug.c ****                 break;
 266              		.loc 1 288 22 is_stmt 0
 267 012e 03B50D00 		ld	a0,0(s11)
 268              	.LVL27:
 269 0132 6DB7     		j	.L13
 270              	.LVL28:
 271              	.L21:
 291:../src/platform/mpfs_hal/common/nwc/mss_ddr_debug.c ****                 break;
 272              		.loc 1 291 22
 273 0134 0145     		li	a0,0
 274              	.LVL29:
 275 0136 5DB7     		j	.L13
 276              	.LVL30:
 277              	.L23:
 267:../src/platform/mpfs_hal/common/nwc/mss_ddr_debug.c ****                 else
 278              		.loc 1 267 26
 279 0138 0545     		li	a0,1
 280              	.LVL31:
 281 013a 4DB7     		j	.L13
 282              		.cfi_endproc
 283              	.LFE24:
 285              		.section	.text.ddr_read,"ax",@progbits
 286              		.align	1
 288              	ddr_read:
 289              	.LFB25:
 299:../src/platform/mpfs_hal/common/nwc/mss_ddr_debug.c **** 
 300:../src/platform/mpfs_hal/common/nwc/mss_ddr_debug.c **** /***************************************************************************//**
 301:../src/platform/mpfs_hal/common/nwc/mss_ddr_debug.c ****  * Reads and compares with what was written
 302:../src/platform/mpfs_hal/common/nwc/mss_ddr_debug.c ****  * @param DDR_word_ptr
 303:../src/platform/mpfs_hal/common/nwc/mss_ddr_debug.c ****  * @param no_of_access
 304:../src/platform/mpfs_hal/common/nwc/mss_ddr_debug.c ****  * @param data_ptrn
 305:../src/platform/mpfs_hal/common/nwc/mss_ddr_debug.c ****  * @return 0 => read backs all expected value, otherwise error count
 306:../src/platform/mpfs_hal/common/nwc/mss_ddr_debug.c ****  */
 307:../src/platform/mpfs_hal/common/nwc/mss_ddr_debug.c **** uint32_t ddr_read
 308:../src/platform/mpfs_hal/common/nwc/mss_ddr_debug.c **** (
 309:../src/platform/mpfs_hal/common/nwc/mss_ddr_debug.c ****     volatile uint64_t *DDR_word_ptr,
 310:../src/platform/mpfs_hal/common/nwc/mss_ddr_debug.c ****     uint32_t no_of_access,
 311:../src/platform/mpfs_hal/common/nwc/mss_ddr_debug.c ****     uint8_t data_ptrn,
 312:../src/platform/mpfs_hal/common/nwc/mss_ddr_debug.c ****     DDR_ACCESS_SIZE data_size
 313:../src/platform/mpfs_hal/common/nwc/mss_ddr_debug.c **** )
 314:../src/platform/mpfs_hal/common/nwc/mss_ddr_debug.c **** {
 290              		.loc 1 314 1 is_stmt 1
 291              		.cfi_startproc
 292              	.LVL32:
 315:../src/platform/mpfs_hal/common/nwc/mss_ddr_debug.c ****     uint32_t i;
 293              		.loc 1 315 5
 316:../src/platform/mpfs_hal/common/nwc/mss_ddr_debug.c ****     uint64_t DATA;
 294              		.loc 1 316 5
 317:../src/platform/mpfs_hal/common/nwc/mss_ddr_debug.c ****     uint32_t err_cnt;
 295              		.loc 1 317 5
 318:../src/platform/mpfs_hal/common/nwc/mss_ddr_debug.c ****     volatile uint64_t ddr_data;
 296              		.loc 1 318 5
 319:../src/platform/mpfs_hal/common/nwc/mss_ddr_debug.c ****     volatile uint64_t *DDR_word_pt_t, *first_DDR_word_pt_t;
 297              		.loc 1 319 5
 320:../src/platform/mpfs_hal/common/nwc/mss_ddr_debug.c ****     uint32_t rand_addr_offset;
 298              		.loc 1 320 5
 321:../src/platform/mpfs_hal/common/nwc/mss_ddr_debug.c ****     uint8_t *DDR_8_pt_t;
 299              		.loc 1 321 5
 322:../src/platform/mpfs_hal/common/nwc/mss_ddr_debug.c ****     uint16_t *DDR_16_pt_t;
 300              		.loc 1 322 5
 323:../src/platform/mpfs_hal/common/nwc/mss_ddr_debug.c ****     uint32_t *DDR_32_pt_t;
 301              		.loc 1 323 5
 324:../src/platform/mpfs_hal/common/nwc/mss_ddr_debug.c **** 
 325:../src/platform/mpfs_hal/common/nwc/mss_ddr_debug.c ****     err_cnt = 0U;
 302              		.loc 1 325 5
 326:../src/platform/mpfs_hal/common/nwc/mss_ddr_debug.c ****     first_DDR_word_pt_t = DDR_word_ptr;
 303              		.loc 1 326 5
 314:../src/platform/mpfs_hal/common/nwc/mss_ddr_debug.c ****     uint32_t i;
 304              		.loc 1 314 1 is_stmt 0
 305 0000 1971     		addi	sp,sp,-128
 306              		.cfi_def_cfa_offset 128
 307 0002 A6F4     		sd	s1,104(sp)
 308 0004 CAF0     		sd	s2,96(sp)
 309 0006 CEEC     		sd	s3,88(sp)
 310 0008 D2E8     		sd	s4,80(sp)
 311 000a 86FC     		sd	ra,120(sp)
 312 000c A2F8     		sd	s0,112(sp)
 313 000e D6E4     		sd	s5,72(sp)
 314 0010 DAE0     		sd	s6,64(sp)
 315 0012 5EFC     		sd	s7,56(sp)
 316 0014 62F8     		sd	s8,48(sp)
 317 0016 66F4     		sd	s9,40(sp)
 318 0018 6AF0     		sd	s10,32(sp)
 319 001a 6EEC     		sd	s11,24(sp)
 320              		.cfi_offset 9, -24
 321              		.cfi_offset 18, -32
 322              		.cfi_offset 19, -40
 323              		.cfi_offset 20, -48
 324              		.cfi_offset 1, -8
 325              		.cfi_offset 8, -16
 326              		.cfi_offset 21, -56
 327              		.cfi_offset 22, -64
 328              		.cfi_offset 23, -72
 329              		.cfi_offset 24, -80
 330              		.cfi_offset 25, -88
 331              		.cfi_offset 26, -96
 332              		.cfi_offset 27, -104
 327:../src/platform/mpfs_hal/common/nwc/mss_ddr_debug.c ****     DDR_8_pt_t = (uint8_t *)DDR_word_ptr;
 328:../src/platform/mpfs_hal/common/nwc/mss_ddr_debug.c ****     DDR_16_pt_t = (uint16_t *)DDR_word_ptr;
 329:../src/platform/mpfs_hal/common/nwc/mss_ddr_debug.c ****     DDR_32_pt_t = (uint32_t *)DDR_word_ptr;
 330:../src/platform/mpfs_hal/common/nwc/mss_ddr_debug.c **** 
 331:../src/platform/mpfs_hal/common/nwc/mss_ddr_debug.c ****     switch (data_ptrn)
 333              		.loc 1 331 5
 334 001c A147     		li	a5,8
 314:../src/platform/mpfs_hal/common/nwc/mss_ddr_debug.c ****     uint32_t i;
 335              		.loc 1 314 1
 336 001e 2A89     		mv	s2,a0
 337              	.LVL33:
 327:../src/platform/mpfs_hal/common/nwc/mss_ddr_debug.c ****     DDR_8_pt_t = (uint8_t *)DDR_word_ptr;
 338              		.loc 1 327 5 is_stmt 1
 328:../src/platform/mpfs_hal/common/nwc/mss_ddr_debug.c ****     DDR_32_pt_t = (uint32_t *)DDR_word_ptr;
 339              		.loc 1 328 5
 329:../src/platform/mpfs_hal/common/nwc/mss_ddr_debug.c **** 
 340              		.loc 1 329 5
 341              		.loc 1 331 5
 314:../src/platform/mpfs_hal/common/nwc/mss_ddr_debug.c ****     uint32_t i;
 342              		.loc 1 314 1 is_stmt 0
 343 0020 AE89     		mv	s3,a1
 344 0022 B284     		mv	s1,a2
 345 0024 368A     		mv	s4,a3
 346              		.loc 1 331 5
 347 0026 630EF602 		beq	a2,a5,.L29
 348 002a 63E0C702 		bgtu	a2,a5,.L30
 349 002e 8947     		li	a5,2
 332:../src/platform/mpfs_hal/common/nwc/mss_ddr_debug.c ****     {
 333:../src/platform/mpfs_hal/common/nwc/mss_ddr_debug.c ****         case PATTERN_INCREMENTAL : DATA = 0x00000000; break;
 334:../src/platform/mpfs_hal/common/nwc/mss_ddr_debug.c ****         case PATTERN_WALKING_ONE : DATA = 0x00000001; break;
 350              		.loc 1 334 41
 351 0030 0544     		li	s0,1
 331:../src/platform/mpfs_hal/common/nwc/mss_ddr_debug.c ****     {
 352              		.loc 1 331 5
 353 0032 6301F604 		beq	a2,a5,.L31
 354 0036 9147     		li	a5,4
 335:../src/platform/mpfs_hal/common/nwc/mss_ddr_debug.c ****         case PATTERN_WALKING_ZERO : DATA = 0x01;
 336:../src/platform/mpfs_hal/common/nwc/mss_ddr_debug.c ****             DATA = ~ DATA; break;
 355              		.loc 1 336 18
 356 0038 7954     		li	s0,-2
 331:../src/platform/mpfs_hal/common/nwc/mss_ddr_debug.c ****     {
 357              		.loc 1 331 5
 358 003a 630DF602 		beq	a2,a5,.L31
 359              	.L32:
 360              	.LVL34:
 337:../src/platform/mpfs_hal/common/nwc/mss_ddr_debug.c ****         case PATTERN_RANDOM :
 338:../src/platform/mpfs_hal/common/nwc/mss_ddr_debug.c ****             DATA = (uint64_t)rand ( );
 339:../src/platform/mpfs_hal/common/nwc/mss_ddr_debug.c ****             *DDR_word_ptr = DATA;
 340:../src/platform/mpfs_hal/common/nwc/mss_ddr_debug.c ****             *DDR_8_pt_t =  (uint8_t)DATA;
 341:../src/platform/mpfs_hal/common/nwc/mss_ddr_debug.c ****             *DDR_16_pt_t = (uint16_t)DATA;
 342:../src/platform/mpfs_hal/common/nwc/mss_ddr_debug.c ****             *DDR_32_pt_t = (uint32_t)DATA;
 343:../src/platform/mpfs_hal/common/nwc/mss_ddr_debug.c ****             break;
 344:../src/platform/mpfs_hal/common/nwc/mss_ddr_debug.c ****         case PATTERN_0xCCCCCCCC :
 345:../src/platform/mpfs_hal/common/nwc/mss_ddr_debug.c ****             DATA = 0xCCCCCCCCCCCCCCCC;
 346:../src/platform/mpfs_hal/common/nwc/mss_ddr_debug.c ****             break;
 347:../src/platform/mpfs_hal/common/nwc/mss_ddr_debug.c ****         case PATTERN_0x55555555 :
 348:../src/platform/mpfs_hal/common/nwc/mss_ddr_debug.c ****             DATA = 0x5555555555555555;
 349:../src/platform/mpfs_hal/common/nwc/mss_ddr_debug.c ****             break;
 350:../src/platform/mpfs_hal/common/nwc/mss_ddr_debug.c ****         case PATTERN_ZEROS :
 351:../src/platform/mpfs_hal/common/nwc/mss_ddr_debug.c ****             DATA = 0x00000000;
 352:../src/platform/mpfs_hal/common/nwc/mss_ddr_debug.c ****         break;
 353:../src/platform/mpfs_hal/common/nwc/mss_ddr_debug.c ****         default :
 354:../src/platform/mpfs_hal/common/nwc/mss_ddr_debug.c ****            DATA = 0x00000000;
 355:../src/platform/mpfs_hal/common/nwc/mss_ddr_debug.c ****            break;
 356:../src/platform/mpfs_hal/common/nwc/mss_ddr_debug.c ****     }
 357:../src/platform/mpfs_hal/common/nwc/mss_ddr_debug.c ****     if (data_ptrn == '4')
 361              		.loc 1 357 5 is_stmt 1
 362              		.loc 1 357 8 is_stmt 0
 363 003e 93074003 		li	a5,52
 364 0042 6386F408 		beq	s1,a5,.L34
 365              	.L36:
 333:../src/platform/mpfs_hal/common/nwc/mss_ddr_debug.c ****         case PATTERN_WALKING_ONE : DATA = 0x00000001; break;
 366              		.loc 1 333 41
 367 0046 0144     		li	s0,0
 368 0048 35A0     		j	.L31
 369              	.LVL35:
 370              	.L30:
 331:../src/platform/mpfs_hal/common/nwc/mss_ddr_debug.c ****     {
 371              		.loc 1 331 5
 372 004a C147     		li	a5,16
 373 004c 630BF606 		beq	a2,a5,.L50
 374 0050 93070002 		li	a5,32
 375 0054 E315F6FE 		bne	a2,a5,.L32
 348:../src/platform/mpfs_hal/common/nwc/mss_ddr_debug.c ****             break;
 376              		.loc 1 348 18
 377 0058 97070000 		lla	a5,.LC0
 377      93870700 
 378 0060 ADA0     		j	.L59
 379              	.L29:
 338:../src/platform/mpfs_hal/common/nwc/mss_ddr_debug.c ****             *DDR_word_ptr = DATA;
 380              		.loc 1 338 13 is_stmt 1
 338:../src/platform/mpfs_hal/common/nwc/mss_ddr_debug.c ****             *DDR_word_ptr = DATA;
 381              		.loc 1 338 30 is_stmt 0
 382 0062 97000000 		call	rand
 382      E7800000 
 383              	.LVL36:
 339:../src/platform/mpfs_hal/common/nwc/mss_ddr_debug.c ****             *DDR_8_pt_t =  (uint8_t)DATA;
 384              		.loc 1 339 27
 385 006a 2330A900 		sd	a0,0(s2)
 338:../src/platform/mpfs_hal/common/nwc/mss_ddr_debug.c ****             *DDR_word_ptr = DATA;
 386              		.loc 1 338 30
 387 006e 2A84     		mv	s0,a0
 388              	.LVL37:
 339:../src/platform/mpfs_hal/common/nwc/mss_ddr_debug.c ****             *DDR_8_pt_t =  (uint8_t)DATA;
 389              		.loc 1 339 13 is_stmt 1
 340:../src/platform/mpfs_hal/common/nwc/mss_ddr_debug.c ****             *DDR_16_pt_t = (uint16_t)DATA;
 390              		.loc 1 340 13
 341:../src/platform/mpfs_hal/common/nwc/mss_ddr_debug.c ****             *DDR_32_pt_t = (uint32_t)DATA;
 391              		.loc 1 341 13
 342:../src/platform/mpfs_hal/common/nwc/mss_ddr_debug.c ****             break;
 392              		.loc 1 342 13
 342:../src/platform/mpfs_hal/common/nwc/mss_ddr_debug.c ****             break;
 393              		.loc 1 342 28 is_stmt 0
 394 0070 2320A900 		sw	a0,0(s2)
 343:../src/platform/mpfs_hal/common/nwc/mss_ddr_debug.c ****         case PATTERN_0xCCCCCCCC :
 395              		.loc 1 343 13 is_stmt 1
 396              	.LVL38:
 397              	.L31:
 358:../src/platform/mpfs_hal/common/nwc/mss_ddr_debug.c ****     {
 359:../src/platform/mpfs_hal/common/nwc/mss_ddr_debug.c ****         delay(DELAY_CYCLES_500_NS);
 360:../src/platform/mpfs_hal/common/nwc/mss_ddr_debug.c ****     }
 361:../src/platform/mpfs_hal/common/nwc/mss_ddr_debug.c ****     for( i = 0; i< (no_of_access); i++)
 362:../src/platform/mpfs_hal/common/nwc/mss_ddr_debug.c ****     {
 363:../src/platform/mpfs_hal/common/nwc/mss_ddr_debug.c ****         switch(data_size)
 364:../src/platform/mpfs_hal/common/nwc/mss_ddr_debug.c ****         {
 365:../src/platform/mpfs_hal/common/nwc/mss_ddr_debug.c ****             case DDR_8_BIT:
 366:../src/platform/mpfs_hal/common/nwc/mss_ddr_debug.c ****                 DATA &= 0xFFUL;
 367:../src/platform/mpfs_hal/common/nwc/mss_ddr_debug.c ****                 ddr_data = *DDR_8_pt_t;
 368:../src/platform/mpfs_hal/common/nwc/mss_ddr_debug.c ****                 break;
 369:../src/platform/mpfs_hal/common/nwc/mss_ddr_debug.c ****             case DDR_16_BIT:
 370:../src/platform/mpfs_hal/common/nwc/mss_ddr_debug.c ****                 DATA &= 0xFFFFUL;
 371:../src/platform/mpfs_hal/common/nwc/mss_ddr_debug.c ****                 ddr_data = *DDR_16_pt_t;
 372:../src/platform/mpfs_hal/common/nwc/mss_ddr_debug.c ****                 break;
 373:../src/platform/mpfs_hal/common/nwc/mss_ddr_debug.c ****             case DDR_32_BIT:
 374:../src/platform/mpfs_hal/common/nwc/mss_ddr_debug.c ****                 DATA &= 0xFFFFFFFFUL;
 398              		.loc 1 374 22 is_stmt 0 discriminator 1
 399 0074 FD5B     		li	s7,-1
 375:../src/platform/mpfs_hal/common/nwc/mss_ddr_debug.c ****                 ddr_data = *DDR_32_pt_t;
 376:../src/platform/mpfs_hal/common/nwc/mss_ddr_debug.c ****                 break;
 377:../src/platform/mpfs_hal/common/nwc/mss_ddr_debug.c ****             default:
 378:../src/platform/mpfs_hal/common/nwc/mss_ddr_debug.c ****             case DDR_64_BIT:
 379:../src/platform/mpfs_hal/common/nwc/mss_ddr_debug.c ****                 DDR_word_pt_t = DDR_word_ptr;
 380:../src/platform/mpfs_hal/common/nwc/mss_ddr_debug.c ****                 ddr_data = *DDR_word_pt_t;
 381:../src/platform/mpfs_hal/common/nwc/mss_ddr_debug.c ****                 break;
 382:../src/platform/mpfs_hal/common/nwc/mss_ddr_debug.c ****         }
 383:../src/platform/mpfs_hal/common/nwc/mss_ddr_debug.c **** 
 384:../src/platform/mpfs_hal/common/nwc/mss_ddr_debug.c **** #ifdef DEBUG_DDR_INIT
 385:../src/platform/mpfs_hal/common/nwc/mss_ddr_debug.c ****         if((i%0x1000000UL) ==0UL)
 386:../src/platform/mpfs_hal/common/nwc/mss_ddr_debug.c ****         {
 387:../src/platform/mpfs_hal/common/nwc/mss_ddr_debug.c ****             MSS_UART_polled_tx(g_debug_uart, (const uint8_t*)"r", (uint32_t)1UL);
 388:../src/platform/mpfs_hal/common/nwc/mss_ddr_debug.c ****         }
 389:../src/platform/mpfs_hal/common/nwc/mss_ddr_debug.c **** #endif
 390:../src/platform/mpfs_hal/common/nwc/mss_ddr_debug.c **** 
 391:../src/platform/mpfs_hal/common/nwc/mss_ddr_debug.c ****         if (ddr_data != DATA)
 392:../src/platform/mpfs_hal/common/nwc/mss_ddr_debug.c ****         {
 393:../src/platform/mpfs_hal/common/nwc/mss_ddr_debug.c **** #ifdef DEBUG_DDR_INIT
 394:../src/platform/mpfs_hal/common/nwc/mss_ddr_debug.c **** #ifdef DEBUG_DDR_RD_RW_FAIL
 395:../src/platform/mpfs_hal/common/nwc/mss_ddr_debug.c ****             if (err_cnt <=0xF)
 396:../src/platform/mpfs_hal/common/nwc/mss_ddr_debug.c ****             {
 397:../src/platform/mpfs_hal/common/nwc/mss_ddr_debug.c ****                 uprint64(g_debug_uart,\
 398:../src/platform/mpfs_hal/common/nwc/mss_ddr_debug.c ****                         "\n\r READ/ WRITE ACCESS FAILED AT ADDR: 0x ",\
 399:../src/platform/mpfs_hal/common/nwc/mss_ddr_debug.c ****                             (uintptr_t)DDR_word_ptr);
 400:../src/platform/mpfs_hal/common/nwc/mss_ddr_debug.c ****                 uprint64(g_debug_uart,"\t Expected Data 0x ", DATA);
 401:../src/platform/mpfs_hal/common/nwc/mss_ddr_debug.c ****                 uprint64(g_debug_uart,"\t READ DATA: 0x ", ddr_data);
 402:../src/platform/mpfs_hal/common/nwc/mss_ddr_debug.c ****                 uprint64(g_debug_uart,"\t READ DATA: 0x ", *DDR_word_ptr);
 403:../src/platform/mpfs_hal/common/nwc/mss_ddr_debug.c ****                 uprint64(g_debug_uart,"\t READ DATA: 0x ", *DDR_word_ptr);
 404:../src/platform/mpfs_hal/common/nwc/mss_ddr_debug.c ****             }
 405:../src/platform/mpfs_hal/common/nwc/mss_ddr_debug.c **** #endif
 406:../src/platform/mpfs_hal/common/nwc/mss_ddr_debug.c **** #endif
 407:../src/platform/mpfs_hal/common/nwc/mss_ddr_debug.c ****             err_cnt++;
 408:../src/platform/mpfs_hal/common/nwc/mss_ddr_debug.c ****         }
 409:../src/platform/mpfs_hal/common/nwc/mss_ddr_debug.c ****         else
 410:../src/platform/mpfs_hal/common/nwc/mss_ddr_debug.c ****         {
 411:../src/platform/mpfs_hal/common/nwc/mss_ddr_debug.c **** #ifdef DEBUG_DDR_RD_RW_PASS
 412:../src/platform/mpfs_hal/common/nwc/mss_ddr_debug.c ****             //printf("\n\r READ/ WRITE ACCESS passED AT ADDR: 0x%x expected data = 0x%x, Data read 
 413:../src/platform/mpfs_hal/common/nwc/mss_ddr_debug.c ****             uprint64(g_debug_uart, "\n\r READ/ WRITE ACCESS PASSED AT ADDR: 0x"\
 414:../src/platform/mpfs_hal/common/nwc/mss_ddr_debug.c ****                     , (uintptr_t)DDR_word_ptr);
 415:../src/platform/mpfs_hal/common/nwc/mss_ddr_debug.c ****             uprint64(g_debug_uart,"\t READ DATA: 0x", *DDR_word_ptr);
 416:../src/platform/mpfs_hal/common/nwc/mss_ddr_debug.c **** #endif
 417:../src/platform/mpfs_hal/common/nwc/mss_ddr_debug.c ****         }
 418:../src/platform/mpfs_hal/common/nwc/mss_ddr_debug.c ****         DDR_word_ptr = DDR_word_ptr + 1U;
 419:../src/platform/mpfs_hal/common/nwc/mss_ddr_debug.c ****         DDR_8_pt_t   = DDR_8_pt_t +1U;
 420:../src/platform/mpfs_hal/common/nwc/mss_ddr_debug.c ****         DDR_16_pt_t  = DDR_16_pt_t +1U;
 421:../src/platform/mpfs_hal/common/nwc/mss_ddr_debug.c ****         DDR_32_pt_t  = DDR_32_pt_t +1U;
 422:../src/platform/mpfs_hal/common/nwc/mss_ddr_debug.c ****         switch (data_ptrn)
 423:../src/platform/mpfs_hal/common/nwc/mss_ddr_debug.c ****         {
 424:../src/platform/mpfs_hal/common/nwc/mss_ddr_debug.c ****             case PATTERN_INCREMENTAL : DATA = DATA + 0x01; break;
 425:../src/platform/mpfs_hal/common/nwc/mss_ddr_debug.c ****             case PATTERN_WALKING_ONE :
 426:../src/platform/mpfs_hal/common/nwc/mss_ddr_debug.c ****                 if (DATA == 0x80000000)
 427:../src/platform/mpfs_hal/common/nwc/mss_ddr_debug.c ****                     DATA = 0x00000001;
 428:../src/platform/mpfs_hal/common/nwc/mss_ddr_debug.c ****                 else
 429:../src/platform/mpfs_hal/common/nwc/mss_ddr_debug.c ****                     DATA = (DATA << 1);
 430:../src/platform/mpfs_hal/common/nwc/mss_ddr_debug.c ****                 break;
 431:../src/platform/mpfs_hal/common/nwc/mss_ddr_debug.c ****             case PATTERN_WALKING_ZERO :
 432:../src/platform/mpfs_hal/common/nwc/mss_ddr_debug.c ****                 DATA = ~DATA;
 433:../src/platform/mpfs_hal/common/nwc/mss_ddr_debug.c ****                 if (DATA == 0x80000000)
 434:../src/platform/mpfs_hal/common/nwc/mss_ddr_debug.c ****                 {
 435:../src/platform/mpfs_hal/common/nwc/mss_ddr_debug.c ****                     DATA = 0x00000001;
 436:../src/platform/mpfs_hal/common/nwc/mss_ddr_debug.c ****                 }
 437:../src/platform/mpfs_hal/common/nwc/mss_ddr_debug.c ****                 else
 438:../src/platform/mpfs_hal/common/nwc/mss_ddr_debug.c ****                 {
 439:../src/platform/mpfs_hal/common/nwc/mss_ddr_debug.c ****                     DATA = (DATA << 1);
 440:../src/platform/mpfs_hal/common/nwc/mss_ddr_debug.c ****                 }
 441:../src/platform/mpfs_hal/common/nwc/mss_ddr_debug.c ****                 DATA = ~DATA;
 442:../src/platform/mpfs_hal/common/nwc/mss_ddr_debug.c ****                 break;
 443:../src/platform/mpfs_hal/common/nwc/mss_ddr_debug.c ****             case PATTERN_RANDOM :
 444:../src/platform/mpfs_hal/common/nwc/mss_ddr_debug.c ****                 DATA = (uint64_t)rand ( );
 445:../src/platform/mpfs_hal/common/nwc/mss_ddr_debug.c ****                 rand_addr_offset = (uint32_t)(rand() & 0xFFFFCUL);
 400              		.loc 1 445 34 discriminator 1
 401 0076 370C1000 		li	s8,1048576
 426:../src/platform/mpfs_hal/common/nwc/mss_ddr_debug.c ****                     DATA = 0x00000001;
 402              		.loc 1 426 20 discriminator 1
 403 007a 854C     		li	s9,1
 427:../src/platform/mpfs_hal/common/nwc/mss_ddr_debug.c ****                 else
 404              		.loc 1 427 26 discriminator 1
 405 007c CA87     		mv	a5,s2
 406 007e 4A85     		mv	a0,s2
 407 0080 814A     		li	s5,0
 408 0082 014B     		li	s6,0
 374:../src/platform/mpfs_hal/common/nwc/mss_ddr_debug.c ****                 ddr_data = *DDR_32_pt_t;
 409              		.loc 1 374 22 discriminator 1
 410 0084 93DB0B02 		srli	s7,s7,32
 411              		.loc 1 445 34 discriminator 1
 412 0088 711C     		addi	s8,s8,-4
 446:../src/platform/mpfs_hal/common/nwc/mss_ddr_debug.c ****                 DDR_word_ptr = first_DDR_word_pt_t + rand_addr_offset;
 447:../src/platform/mpfs_hal/common/nwc/mss_ddr_debug.c ****                 DDR_8_pt_t   = (uint8_t *)(first_DDR_word_pt_t + rand_addr_offset);
 448:../src/platform/mpfs_hal/common/nwc/mss_ddr_debug.c ****                 DDR_16_pt_t  = (uint16_t *)(first_DDR_word_pt_t + rand_addr_offset);
 449:../src/platform/mpfs_hal/common/nwc/mss_ddr_debug.c ****                 DDR_32_pt_t  = (uint32_t *)(first_DDR_word_pt_t + rand_addr_offset);
 450:../src/platform/mpfs_hal/common/nwc/mss_ddr_debug.c ****                 *DDR_word_ptr   = DATA;
 451:../src/platform/mpfs_hal/common/nwc/mss_ddr_debug.c ****                 *DDR_8_pt_t     = (uint8_t)DATA;
 452:../src/platform/mpfs_hal/common/nwc/mss_ddr_debug.c ****                 *DDR_16_pt_t    = (uint16_t)DATA;
 453:../src/platform/mpfs_hal/common/nwc/mss_ddr_debug.c ****                 *DDR_32_pt_t    = (uint32_t)DATA;
 454:../src/platform/mpfs_hal/common/nwc/mss_ddr_debug.c ****                 break;
 455:../src/platform/mpfs_hal/common/nwc/mss_ddr_debug.c ****             case PATTERN_0xCCCCCCCC :
 456:../src/platform/mpfs_hal/common/nwc/mss_ddr_debug.c ****                 DATA = 0xCCCCCCCCCCCCCCCC;
 457:../src/platform/mpfs_hal/common/nwc/mss_ddr_debug.c ****                 break;
 458:../src/platform/mpfs_hal/common/nwc/mss_ddr_debug.c ****             case PATTERN_0x55555555 :
 459:../src/platform/mpfs_hal/common/nwc/mss_ddr_debug.c ****                 DATA = 0x5555555555555555;
 413              		.loc 1 459 22 discriminator 1
 414 008a 970D0000 		lla	s11,.LC0
 414      938D0D00 
 456:../src/platform/mpfs_hal/common/nwc/mss_ddr_debug.c ****                 break;
 415              		.loc 1 456 22 discriminator 1
 416 0092 97060000 		lla	a3,.LC1
 416      93860600 
 426:../src/platform/mpfs_hal/common/nwc/mss_ddr_debug.c ****                     DATA = 0x00000001;
 417              		.loc 1 426 20 discriminator 1
 418 009a 139DFC01 		slli	s10,s9,31
 419              	.LVL39:
 420              	.L33:
 361:../src/platform/mpfs_hal/common/nwc/mss_ddr_debug.c ****     {
 421              		.loc 1 361 5 discriminator 1
 422 009e 63133B05 		bne	s6,s3,.L47
 460:../src/platform/mpfs_hal/common/nwc/mss_ddr_debug.c ****                 break;
 461:../src/platform/mpfs_hal/common/nwc/mss_ddr_debug.c ****             case PATTERN_ZEROS :
 462:../src/platform/mpfs_hal/common/nwc/mss_ddr_debug.c ****                 DATA = 0x00000000;
 463:../src/platform/mpfs_hal/common/nwc/mss_ddr_debug.c ****                 break;
 464:../src/platform/mpfs_hal/common/nwc/mss_ddr_debug.c ****             default :
 465:../src/platform/mpfs_hal/common/nwc/mss_ddr_debug.c ****                 break;
 466:../src/platform/mpfs_hal/common/nwc/mss_ddr_debug.c ****           }
 467:../src/platform/mpfs_hal/common/nwc/mss_ddr_debug.c ****     }
 468:../src/platform/mpfs_hal/common/nwc/mss_ddr_debug.c ****     return (err_cnt);
 423              		.loc 1 468 5 is_stmt 1
 469:../src/platform/mpfs_hal/common/nwc/mss_ddr_debug.c **** }
 424              		.loc 1 469 1 is_stmt 0
 425 00a2 E670     		ld	ra,120(sp)
 426              		.cfi_remember_state
 427              		.cfi_restore 1
 428 00a4 4674     		ld	s0,112(sp)
 429              		.cfi_restore 8
 430              	.LVL40:
 431 00a6 5685     		mv	a0,s5
 432              	.LVL41:
 433 00a8 A674     		ld	s1,104(sp)
 434              		.cfi_restore 9
 435 00aa 0679     		ld	s2,96(sp)
 436              		.cfi_restore 18
 437              	.LVL42:
 438 00ac E669     		ld	s3,88(sp)
 439              		.cfi_restore 19
 440 00ae 466A     		ld	s4,80(sp)
 441              		.cfi_restore 20
 442 00b0 A66A     		ld	s5,72(sp)
 443              		.cfi_restore 21
 444              	.LVL43:
 445 00b2 066B     		ld	s6,64(sp)
 446              		.cfi_restore 22
 447              	.LVL44:
 448 00b4 E27B     		ld	s7,56(sp)
 449              		.cfi_restore 23
 450 00b6 427C     		ld	s8,48(sp)
 451              		.cfi_restore 24
 452 00b8 A27C     		ld	s9,40(sp)
 453              		.cfi_restore 25
 454 00ba 027D     		ld	s10,32(sp)
 455              		.cfi_restore 26
 456 00bc E26D     		ld	s11,24(sp)
 457              		.cfi_restore 27
 458 00be 0961     		addi	sp,sp,128
 459              		.cfi_def_cfa_offset 0
 460 00c0 8280     		jr	ra
 461              	.LVL45:
 462              	.L50:
 463              		.cfi_restore_state
 345:../src/platform/mpfs_hal/common/nwc/mss_ddr_debug.c ****             break;
 464              		.loc 1 345 18
 465 00c2 97070000 		lla	a5,.LC1
 465      93870700 
 466              	.L59:
 348:../src/platform/mpfs_hal/common/nwc/mss_ddr_debug.c ****             break;
 467              		.loc 1 348 18
 468 00ca 8063     		ld	s0,0(a5)
 469 00cc 65B7     		j	.L31
 470              	.LVL46:
 471              	.L34:
 359:../src/platform/mpfs_hal/common/nwc/mss_ddr_debug.c ****     }
 472              		.loc 1 359 9 is_stmt 1
 473              	.LBB8:
 474              	.LBB9:
 475              		.file 2 "../src/platform/mpfs_hal/common/nwc/mss_nwc_init.h"
   1:../src/platform/mpfs_hal/common/nwc/mss_nwc_init.h **** /*******************************************************************************
   2:../src/platform/mpfs_hal/common/nwc/mss_nwc_init.h ****  * Copyright 2019-2022 Microchip FPGA Embedded Systems Solutions.
   3:../src/platform/mpfs_hal/common/nwc/mss_nwc_init.h ****  *
   4:../src/platform/mpfs_hal/common/nwc/mss_nwc_init.h ****  * SPDX-License-Identifier: MIT
   5:../src/platform/mpfs_hal/common/nwc/mss_nwc_init.h ****  *
   6:../src/platform/mpfs_hal/common/nwc/mss_nwc_init.h ****  * MPFS HAL Embedded Software
   7:../src/platform/mpfs_hal/common/nwc/mss_nwc_init.h ****  *
   8:../src/platform/mpfs_hal/common/nwc/mss_nwc_init.h ****  */
   9:../src/platform/mpfs_hal/common/nwc/mss_nwc_init.h **** 
  10:../src/platform/mpfs_hal/common/nwc/mss_nwc_init.h **** /*******************************************************************************
  11:../src/platform/mpfs_hal/common/nwc/mss_nwc_init.h ****  * @file mss_nwc_init.h
  12:../src/platform/mpfs_hal/common/nwc/mss_nwc_init.h ****  * @author Microchip-FPGA Embedded Systems Solutions
  13:../src/platform/mpfs_hal/common/nwc/mss_nwc_init.h ****  * @brief defines for mss_nwc_init.c
  14:../src/platform/mpfs_hal/common/nwc/mss_nwc_init.h ****  *
  15:../src/platform/mpfs_hal/common/nwc/mss_nwc_init.h ****  */
  16:../src/platform/mpfs_hal/common/nwc/mss_nwc_init.h **** 
  17:../src/platform/mpfs_hal/common/nwc/mss_nwc_init.h **** /*=========================================================================*//**
  18:../src/platform/mpfs_hal/common/nwc/mss_nwc_init.h ****   @page MPFS MSS NWC configuration
  19:../src/platform/mpfs_hal/common/nwc/mss_nwc_init.h ****   ==============================================================================
  20:../src/platform/mpfs_hal/common/nwc/mss_nwc_init.h ****   @section intro_sec Introduction
  21:../src/platform/mpfs_hal/common/nwc/mss_nwc_init.h ****   ==============================================================================
  22:../src/platform/mpfs_hal/common/nwc/mss_nwc_init.h ****   The MPFS microcontroller subsystem (MSS) includes a number of hard core
  23:../src/platform/mpfs_hal/common/nwc/mss_nwc_init.h ****   components physically located in the north west corner of the MSS on the die.
  24:../src/platform/mpfs_hal/common/nwc/mss_nwc_init.h **** 
  25:../src/platform/mpfs_hal/common/nwc/mss_nwc_init.h ****   ==============================================================================
  26:../src/platform/mpfs_hal/common/nwc/mss_nwc_init.h ****   @section Items located in the north west corner
  27:../src/platform/mpfs_hal/common/nwc/mss_nwc_init.h ****   ==============================================================================
  28:../src/platform/mpfs_hal/common/nwc/mss_nwc_init.h ****   MSS PLL
  29:../src/platform/mpfs_hal/common/nwc/mss_nwc_init.h ****   SGMII
  30:../src/platform/mpfs_hal/common/nwc/mss_nwc_init.h ****   DDR phy
  31:../src/platform/mpfs_hal/common/nwc/mss_nwc_init.h ****   MSSIO
  32:../src/platform/mpfs_hal/common/nwc/mss_nwc_init.h **** 
  33:../src/platform/mpfs_hal/common/nwc/mss_nwc_init.h ****   ==============================================================================
  34:../src/platform/mpfs_hal/common/nwc/mss_nwc_init.h ****   @section Flow diagram
  35:../src/platform/mpfs_hal/common/nwc/mss_nwc_init.h ****   ==============================================================================
  36:../src/platform/mpfs_hal/common/nwc/mss_nwc_init.h ****   todo: remove, added line here as test *****
  37:../src/platform/mpfs_hal/common/nwc/mss_nwc_init.h ****   Simplified flow diagram
  38:../src/platform/mpfs_hal/common/nwc/mss_nwc_init.h ****                               +-----------------+
  39:../src/platform/mpfs_hal/common/nwc/mss_nwc_init.h ****                               |     start       |
  40:../src/platform/mpfs_hal/common/nwc/mss_nwc_init.h ****                               |  NWC setup      |
  41:../src/platform/mpfs_hal/common/nwc/mss_nwc_init.h ****                               +-------+---------+
  42:../src/platform/mpfs_hal/common/nwc/mss_nwc_init.h ****                                       v
  43:../src/platform/mpfs_hal/common/nwc/mss_nwc_init.h ****                               +-----------------+
  44:../src/platform/mpfs_hal/common/nwc/mss_nwc_init.h ****                               |   set SCB access|
  45:../src/platform/mpfs_hal/common/nwc/mss_nwc_init.h ****                               |   Parameters    |
  46:../src/platform/mpfs_hal/common/nwc/mss_nwc_init.h ****                               +-------+---------+
  47:../src/platform/mpfs_hal/common/nwc/mss_nwc_init.h ****                                       |
  48:../src/platform/mpfs_hal/common/nwc/mss_nwc_init.h ****                               +-------v---------+
  49:../src/platform/mpfs_hal/common/nwc/mss_nwc_init.h ****                               | Release APB NWC |
  50:../src/platform/mpfs_hal/common/nwc/mss_nwc_init.h ****                               | Turn on APB clk |
  51:../src/platform/mpfs_hal/common/nwc/mss_nwc_init.h ****                               +-------+---------+
  52:../src/platform/mpfs_hal/common/nwc/mss_nwc_init.h ****                                       |
  53:../src/platform/mpfs_hal/common/nwc/mss_nwc_init.h ****                               +-------v---------+
  54:../src/platform/mpfs_hal/common/nwc/mss_nwc_init.h ****                               | Set Dynamic     |
  55:../src/platform/mpfs_hal/common/nwc/mss_nwc_init.h ****                               | enable bits     |
  56:../src/platform/mpfs_hal/common/nwc/mss_nwc_init.h ****                               +-------++--------+
  57:../src/platform/mpfs_hal/common/nwc/mss_nwc_init.h ****                                       |
  58:../src/platform/mpfs_hal/common/nwc/mss_nwc_init.h ****                               +-------v---------+
  59:../src/platform/mpfs_hal/common/nwc/mss_nwc_init.h ****                               | Setup signals   |
  60:../src/platform/mpfs_hal/common/nwc/mss_nwc_init.h ****                               | DCE,CORE_UP,    |
  61:../src/platform/mpfs_hal/common/nwc/mss_nwc_init.h ****                               | Flash_Valid,    |
  62:../src/platform/mpfs_hal/common/nwc/mss_nwc_init.h ****                               | MSS_IO_EN       |
  63:../src/platform/mpfs_hal/common/nwc/mss_nwc_init.h ****                               +-------+---------+
  64:../src/platform/mpfs_hal/common/nwc/mss_nwc_init.h ****                                       |
  65:../src/platform/mpfs_hal/common/nwc/mss_nwc_init.h ****                               +-------v---------+
  66:../src/platform/mpfs_hal/common/nwc/mss_nwc_init.h ****                               | Setup SGMII     |
  67:../src/platform/mpfs_hal/common/nwc/mss_nwc_init.h ****                               |                 |
  68:../src/platform/mpfs_hal/common/nwc/mss_nwc_init.h ****                               +-------+---------+
  69:../src/platform/mpfs_hal/common/nwc/mss_nwc_init.h ****                                       |
  70:../src/platform/mpfs_hal/common/nwc/mss_nwc_init.h ****                               +-------v---------+
  71:../src/platform/mpfs_hal/common/nwc/mss_nwc_init.h ****                               | Setup DDR       |
  72:../src/platform/mpfs_hal/common/nwc/mss_nwc_init.h ****                               |                 |
  73:../src/platform/mpfs_hal/common/nwc/mss_nwc_init.h ****                               +-------+---------+
  74:../src/platform/mpfs_hal/common/nwc/mss_nwc_init.h ****                                       |
  75:../src/platform/mpfs_hal/common/nwc/mss_nwc_init.h ****                               +-------v---------+
  76:../src/platform/mpfs_hal/common/nwc/mss_nwc_init.h ****                               | Setup MSSIO     |
  77:../src/platform/mpfs_hal/common/nwc/mss_nwc_init.h ****                               |                 |
  78:../src/platform/mpfs_hal/common/nwc/mss_nwc_init.h ****                               +-------+---------+
  79:../src/platform/mpfs_hal/common/nwc/mss_nwc_init.h ****                                       |
  80:../src/platform/mpfs_hal/common/nwc/mss_nwc_init.h ****                               +-------v---------+
  81:../src/platform/mpfs_hal/common/nwc/mss_nwc_init.h ****                               |    Finished     |
  82:../src/platform/mpfs_hal/common/nwc/mss_nwc_init.h ****                               +-----------------+
  83:../src/platform/mpfs_hal/common/nwc/mss_nwc_init.h **** 
  84:../src/platform/mpfs_hal/common/nwc/mss_nwc_init.h ****  *//*=========================================================================*/
  85:../src/platform/mpfs_hal/common/nwc/mss_nwc_init.h **** #ifndef __MSS_NWC_INIT_H_
  86:../src/platform/mpfs_hal/common/nwc/mss_nwc_init.h **** #define __MSS_NWC_INIT_H_ 1
  87:../src/platform/mpfs_hal/common/nwc/mss_nwc_init.h **** 
  88:../src/platform/mpfs_hal/common/nwc/mss_nwc_init.h **** 
  89:../src/platform/mpfs_hal/common/nwc/mss_nwc_init.h **** #include <stddef.h>
  90:../src/platform/mpfs_hal/common/nwc/mss_nwc_init.h **** #include <stdint.h>
  91:../src/platform/mpfs_hal/common/nwc/mss_nwc_init.h **** #include "../encoding.h"
  92:../src/platform/mpfs_hal/common/nwc/mss_nwc_init.h **** 
  93:../src/platform/mpfs_hal/common/nwc/mss_nwc_init.h **** #ifdef __cplusplus
  94:../src/platform/mpfs_hal/common/nwc/mss_nwc_init.h **** extern "C" {
  95:../src/platform/mpfs_hal/common/nwc/mss_nwc_init.h **** #endif
  96:../src/platform/mpfs_hal/common/nwc/mss_nwc_init.h **** 
  97:../src/platform/mpfs_hal/common/nwc/mss_nwc_init.h **** #define DELAY_CYCLES_500_NS            ((uint32_t)(0.0000005 * LIBERO_SETTING_MSS_COREPLEX_CPU_CLK)
  98:../src/platform/mpfs_hal/common/nwc/mss_nwc_init.h **** #define DELAY_CYCLES_1_MICRO           ((uint32_t)(DELAY_CYCLES_500_NS * 2U))
  99:../src/platform/mpfs_hal/common/nwc/mss_nwc_init.h **** #define DELAY_CYCLES_5_MICRO           ((uint32_t)(DELAY_CYCLES_500_NS * 10U))
 100:../src/platform/mpfs_hal/common/nwc/mss_nwc_init.h **** #define DELAY_CYCLES_50_MICRO          ((uint32_t)(DELAY_CYCLES_500_NS * 100U))
 101:../src/platform/mpfs_hal/common/nwc/mss_nwc_init.h **** #define DELAY_CYCLES_150_MICRO         ((uint32_t)(DELAY_CYCLES_500_NS * 300U))
 102:../src/platform/mpfs_hal/common/nwc/mss_nwc_init.h **** #define DELAY_CYCLES_250_MICRO         ((uint32_t)(DELAY_CYCLES_500_NS * 500U))
 103:../src/platform/mpfs_hal/common/nwc/mss_nwc_init.h **** #define DELAY_CYCLES_500_MICRO         ((uint32_t)(DELAY_CYCLES_500_NS * 1000U))
 104:../src/platform/mpfs_hal/common/nwc/mss_nwc_init.h **** #define DELAY_CYCLES_2MS               ((uint32_t)(DELAY_CYCLES_500_NS * 4000U))
 105:../src/platform/mpfs_hal/common/nwc/mss_nwc_init.h **** #define DELAY_CYCLES_100MS             ((uint32_t)(DELAY_CYCLES_2MS * 50U))
 106:../src/platform/mpfs_hal/common/nwc/mss_nwc_init.h **** 
 107:../src/platform/mpfs_hal/common/nwc/mss_nwc_init.h **** /***************************************************************************//**
 108:../src/platform/mpfs_hal/common/nwc/mss_nwc_init.h **** 
 109:../src/platform/mpfs_hal/common/nwc/mss_nwc_init.h ****  */
 110:../src/platform/mpfs_hal/common/nwc/mss_nwc_init.h **** typedef enum {
 111:../src/platform/mpfs_hal/common/nwc/mss_nwc_init.h ****     DDR_BOOT_PROGRESS      = 0x00      //!< DDR_BOOT_PROGRESS
 112:../src/platform/mpfs_hal/common/nwc/mss_nwc_init.h **** } MSS_REPORT_STATUS;
 113:../src/platform/mpfs_hal/common/nwc/mss_nwc_init.h **** 
 114:../src/platform/mpfs_hal/common/nwc/mss_nwc_init.h **** /*-------------------------------------------------------------------------*//**
 115:../src/platform/mpfs_hal/common/nwc/mss_nwc_init.h ****  * delay()
 116:../src/platform/mpfs_hal/common/nwc/mss_nwc_init.h ****  * Simple wait delay based on mcycles count
 117:../src/platform/mpfs_hal/common/nwc/mss_nwc_init.h ****  * @param n Number of mcycles to wait.
 118:../src/platform/mpfs_hal/common/nwc/mss_nwc_init.h ****  */
 119:../src/platform/mpfs_hal/common/nwc/mss_nwc_init.h **** static inline void delay(uint32_t n)
 120:../src/platform/mpfs_hal/common/nwc/mss_nwc_init.h **** {
 121:../src/platform/mpfs_hal/common/nwc/mss_nwc_init.h ****     volatile uint64_t cycles_end = rdcycle() + n ;
 476              		.loc 2 121 5
 477              	.LBB10:
 478              		.loc 2 121 36
 479              		.loc 2 121 36
 480              	 #APP
 481              	# 121 "../src/platform/mpfs_hal/common/nwc/mss_nwc_init.h" 1
 122              	    while (rdcycle() < cycles_end)
 482              		csrr a5, cycle
 483              	# 0 "" 2
 484              	.LVL47:
 121:../src/platform/mpfs_hal/common/nwc/mss_nwc_init.h ****     volatile uint64_t cycles_end = rdcycle() + n ;
 485              		.loc 2 121 36
 486              	 #NO_APP
 487              	.LBE10:
 121:../src/platform/mpfs_hal/common/nwc/mss_nwc_init.h ****     volatile uint64_t cycles_end = rdcycle() + n ;
 488              		.loc 2 121 46 is_stmt 0
 489 00d2 9387C712 		addi	a5,a5,300
 490              	.LVL48:
 121:../src/platform/mpfs_hal/common/nwc/mss_nwc_init.h ****     volatile uint64_t cycles_end = rdcycle() + n ;
 491              		.loc 2 121 23
 492 00d6 3EE4     		sd	a5,8(sp)
 493              		.loc 2 122 5 is_stmt 1
 494              	.LVL49:
 495              	.L35:
 123:../src/platform/mpfs_hal/common/nwc/mss_nwc_init.h ****     {
 124:../src/platform/mpfs_hal/common/nwc/mss_nwc_init.h **** 
 125:../src/platform/mpfs_hal/common/nwc/mss_nwc_init.h ****     }
 496              		.loc 2 125 5
 497              	.LBB11:
 122:../src/platform/mpfs_hal/common/nwc/mss_nwc_init.h ****     {
 498              		.loc 2 122 12
 122:../src/platform/mpfs_hal/common/nwc/mss_nwc_init.h ****     {
 499              		.loc 2 122 12
 500              	 #APP
 501              	# 122 "../src/platform/mpfs_hal/common/nwc/mss_nwc_init.h" 1
 502              		csrr a4, cycle
 503              	# 0 "" 2
 504              	.LVL50:
 122:../src/platform/mpfs_hal/common/nwc/mss_nwc_init.h ****     {
 505              		.loc 2 122 12
 506              	 #NO_APP
 507              	.LBE11:
 122:../src/platform/mpfs_hal/common/nwc/mss_nwc_init.h ****     {
 508              		.loc 2 122 22 is_stmt 0
 509 00dc A267     		ld	a5,8(sp)
 122:../src/platform/mpfs_hal/common/nwc/mss_nwc_init.h ****     {
 510              		.loc 2 122 11
 511 00de E36DF7FE 		bltu	a4,a5,.L35
 512 00e2 95B7     		j	.L36
 513              	.LVL51:
 514              	.L47:
 515              	.LBE9:
 516              	.LBE8:
 363:../src/platform/mpfs_hal/common/nwc/mss_ddr_debug.c ****         {
 517              		.loc 1 363 9 is_stmt 1
 518 00e4 0947     		li	a4,2
 519 00e6 631DEA02 		bne	s4,a4,.L37
 374:../src/platform/mpfs_hal/common/nwc/mss_ddr_debug.c ****                 ddr_data = *DDR_32_pt_t;
 520              		.loc 1 374 17
 375:../src/platform/mpfs_hal/common/nwc/mss_ddr_debug.c ****                 break;
 521              		.loc 1 375 28 is_stmt 0
 522 00ea 03E70700 		lwu	a4,0(a5)
 374:../src/platform/mpfs_hal/common/nwc/mss_ddr_debug.c ****                 ddr_data = *DDR_32_pt_t;
 523              		.loc 1 374 22
 524 00ee 33747401 		and	s0,s0,s7
 525              	.LVL52:
 375:../src/platform/mpfs_hal/common/nwc/mss_ddr_debug.c ****                 break;
 526              		.loc 1 375 17 is_stmt 1
 527              	.L60:
 380:../src/platform/mpfs_hal/common/nwc/mss_ddr_debug.c ****                 break;
 528              		.loc 1 380 26 is_stmt 0
 529 00f2 3AE0     		sd	a4,0(sp)
 381:../src/platform/mpfs_hal/common/nwc/mss_ddr_debug.c ****         }
 530              		.loc 1 381 17 is_stmt 1
 391:../src/platform/mpfs_hal/common/nwc/mss_ddr_debug.c ****         {
 531              		.loc 1 391 9
 391:../src/platform/mpfs_hal/common/nwc/mss_ddr_debug.c ****         {
 532              		.loc 1 391 22 is_stmt 0
 533 00f4 0267     		ld	a4,0(sp)
 391:../src/platform/mpfs_hal/common/nwc/mss_ddr_debug.c ****         {
 534              		.loc 1 391 12
 535 00f6 63038700 		beq	a4,s0,.L39
 407:../src/platform/mpfs_hal/common/nwc/mss_ddr_debug.c ****         }
 536              		.loc 1 407 13 is_stmt 1
 407:../src/platform/mpfs_hal/common/nwc/mss_ddr_debug.c ****         }
 537              		.loc 1 407 20 is_stmt 0
 538 00fa 852A     		addiw	s5,s5,1
 539              	.LVL53:
 540              	.L39:
 417:../src/platform/mpfs_hal/common/nwc/mss_ddr_debug.c ****         DDR_word_ptr = DDR_word_ptr + 1U;
 541              		.loc 1 417 9 is_stmt 1
 418:../src/platform/mpfs_hal/common/nwc/mss_ddr_debug.c ****         DDR_8_pt_t   = DDR_8_pt_t +1U;
 542              		.loc 1 418 9
 422:../src/platform/mpfs_hal/common/nwc/mss_ddr_debug.c ****         {
 543              		.loc 1 422 9 is_stmt 0
 544 00fc 2147     		li	a4,8
 418:../src/platform/mpfs_hal/common/nwc/mss_ddr_debug.c ****         DDR_8_pt_t   = DDR_8_pt_t +1U;
 545              		.loc 1 418 22
 546 00fe 2105     		addi	a0,a0,8
 547              	.LVL54:
 419:../src/platform/mpfs_hal/common/nwc/mss_ddr_debug.c ****         DDR_16_pt_t  = DDR_16_pt_t +1U;
 548              		.loc 1 419 9 is_stmt 1
 420:../src/platform/mpfs_hal/common/nwc/mss_ddr_debug.c ****         DDR_32_pt_t  = DDR_32_pt_t +1U;
 549              		.loc 1 420 9
 421:../src/platform/mpfs_hal/common/nwc/mss_ddr_debug.c ****         switch (data_ptrn)
 550              		.loc 1 421 9
 421:../src/platform/mpfs_hal/common/nwc/mss_ddr_debug.c ****         switch (data_ptrn)
 551              		.loc 1 421 22 is_stmt 0
 552 0100 9107     		addi	a5,a5,4
 553              	.LVL55:
 422:../src/platform/mpfs_hal/common/nwc/mss_ddr_debug.c ****         {
 554              		.loc 1 422 9 is_stmt 1
 555 0102 638CE404 		beq	s1,a4,.L40
 556 0106 636F9700 		bgtu	s1,a4,.L41
 557 010a 0947     		li	a4,2
 558 010c 6389E402 		beq	s1,a4,.L42
 559 0110 1147     		li	a4,4
 560 0112 638AE402 		beq	s1,a4,.L43
 561 0116 63939401 		bne	s1,s9,.L45
 424:../src/platform/mpfs_hal/common/nwc/mss_ddr_debug.c ****             case PATTERN_WALKING_ONE :
 562              		.loc 1 424 40
 424:../src/platform/mpfs_hal/common/nwc/mss_ddr_debug.c ****             case PATTERN_WALKING_ONE :
 563              		.loc 1 424 45 is_stmt 0
 564 011a 0504     		addi	s0,s0,1
 565              	.LVL56:
 424:../src/platform/mpfs_hal/common/nwc/mss_ddr_debug.c ****             case PATTERN_WALKING_ONE :
 566              		.loc 1 424 60 is_stmt 1
 567              	.L45:
 361:../src/platform/mpfs_hal/common/nwc/mss_ddr_debug.c ****     {
 568              		.loc 1 361 37 is_stmt 0 discriminator 2
 569 011c 052B     		addiw	s6,s6,1
 570              	.LVL57:
 571 011e 41B7     		j	.L33
 572              	.LVL58:
 573              	.L37:
 379:../src/platform/mpfs_hal/common/nwc/mss_ddr_debug.c ****                 ddr_data = *DDR_word_pt_t;
 574              		.loc 1 379 17 is_stmt 1
 380:../src/platform/mpfs_hal/common/nwc/mss_ddr_debug.c ****                 break;
 575              		.loc 1 380 17
 380:../src/platform/mpfs_hal/common/nwc/mss_ddr_debug.c ****                 break;
 576              		.loc 1 380 28 is_stmt 0
 577 0120 1861     		ld	a4,0(a0)
 578 0122 C1BF     		j	.L60
 579              	.LVL59:
 580              	.L41:
 422:../src/platform/mpfs_hal/common/nwc/mss_ddr_debug.c ****         {
 581              		.loc 1 422 9
 582 0124 13070002 		li	a4,32
 583 0128 638FE404 		beq	s1,a4,.L52
 584 012c 13070004 		li	a4,64
 585 0130 638EE404 		beq	s1,a4,.L53
 586 0134 4147     		li	a4,16
 587 0136 E393E4FE 		bne	s1,a4,.L45
 456:../src/platform/mpfs_hal/common/nwc/mss_ddr_debug.c ****                 break;
 588              		.loc 1 456 22
 589 013a 8062     		ld	s0,0(a3)
 590              	.LVL60:
 591 013c C5B7     		j	.L45
 592              	.LVL61:
 593              	.L42:
 426:../src/platform/mpfs_hal/common/nwc/mss_ddr_debug.c ****                     DATA = 0x00000001;
 594              		.loc 1 426 17 is_stmt 1
 426:../src/platform/mpfs_hal/common/nwc/mss_ddr_debug.c ****                     DATA = 0x00000001;
 595              		.loc 1 426 20 is_stmt 0
 596 013e 6309A405 		beq	s0,s10,.L55
 429:../src/platform/mpfs_hal/common/nwc/mss_ddr_debug.c ****                 break;
 597              		.loc 1 429 21 is_stmt 1
 429:../src/platform/mpfs_hal/common/nwc/mss_ddr_debug.c ****                 break;
 598              		.loc 1 429 26 is_stmt 0
 599 0142 0604     		slli	s0,s0,1
 600              	.LVL62:
 601 0144 E1BF     		j	.L45
 602              	.L43:
 432:../src/platform/mpfs_hal/common/nwc/mss_ddr_debug.c ****                 if (DATA == 0x80000000)
 603              		.loc 1 432 17 is_stmt 1
 432:../src/platform/mpfs_hal/common/nwc/mss_ddr_debug.c ****                 if (DATA == 0x80000000)
 604              		.loc 1 432 22 is_stmt 0
 605 0146 1347F4FF 		not	a4,s0
 606              	.LVL63:
 433:../src/platform/mpfs_hal/common/nwc/mss_ddr_debug.c ****                 {
 607              		.loc 1 433 17 is_stmt 1
 435:../src/platform/mpfs_hal/common/nwc/mss_ddr_debug.c ****                 }
 608              		.loc 1 435 26 is_stmt 0
 609 014a 0544     		li	s0,1
 433:../src/platform/mpfs_hal/common/nwc/mss_ddr_debug.c ****                 {
 610              		.loc 1 433 20
 611 014c 6304A701 		beq	a4,s10,.L46
 439:../src/platform/mpfs_hal/common/nwc/mss_ddr_debug.c ****                 }
 612              		.loc 1 439 21 is_stmt 1
 439:../src/platform/mpfs_hal/common/nwc/mss_ddr_debug.c ****                 }
 613              		.loc 1 439 26 is_stmt 0
 614 0150 13141700 		slli	s0,a4,1
 615              	.LVL64:
 616              	.L46:
 441:../src/platform/mpfs_hal/common/nwc/mss_ddr_debug.c ****                 break;
 617              		.loc 1 441 17 is_stmt 1
 441:../src/platform/mpfs_hal/common/nwc/mss_ddr_debug.c ****                 break;
 618              		.loc 1 441 22 is_stmt 0
 619 0154 1344F4FF 		not	s0,s0
 620              	.LVL65:
 442:../src/platform/mpfs_hal/common/nwc/mss_ddr_debug.c ****             case PATTERN_RANDOM :
 621              		.loc 1 442 17 is_stmt 1
 622 0158 D1B7     		j	.L45
 623              	.L40:
 444:../src/platform/mpfs_hal/common/nwc/mss_ddr_debug.c ****                 rand_addr_offset = (uint32_t)(rand() & 0xFFFFCUL);
 624              		.loc 1 444 17
 444:../src/platform/mpfs_hal/common/nwc/mss_ddr_debug.c ****                 rand_addr_offset = (uint32_t)(rand() & 0xFFFFCUL);
 625              		.loc 1 444 34 is_stmt 0
 626 015a 97000000 		call	rand
 626      E7800000 
 627              	.LVL66:
 628 0162 2A84     		mv	s0,a0
 629              	.LVL67:
 445:../src/platform/mpfs_hal/common/nwc/mss_ddr_debug.c ****                 DDR_word_ptr = first_DDR_word_pt_t + rand_addr_offset;
 630              		.loc 1 445 17 is_stmt 1
 445:../src/platform/mpfs_hal/common/nwc/mss_ddr_debug.c ****                 DDR_word_ptr = first_DDR_word_pt_t + rand_addr_offset;
 631              		.loc 1 445 47 is_stmt 0
 632 0164 97000000 		call	rand
 632      E7800000 
 633              	.LVL68:
 446:../src/platform/mpfs_hal/common/nwc/mss_ddr_debug.c ****                 DDR_8_pt_t   = (uint8_t *)(first_DDR_word_pt_t + rand_addr_offset);
 634              		.loc 1 446 17 is_stmt 1
 445:../src/platform/mpfs_hal/common/nwc/mss_ddr_debug.c ****                 DDR_word_ptr = first_DDR_word_pt_t + rand_addr_offset;
 635              		.loc 1 445 34 is_stmt 0
 636 016c 33758501 		and	a0,a0,s8
 637              	.LVL69:
 446:../src/platform/mpfs_hal/common/nwc/mss_ddr_debug.c ****                 DDR_8_pt_t   = (uint8_t *)(first_DDR_word_pt_t + rand_addr_offset);
 638              		.loc 1 446 52
 639 0170 0215     		slli	a0,a0,32
 640 0172 7581     		srli	a0,a0,29
 446:../src/platform/mpfs_hal/common/nwc/mss_ddr_debug.c ****                 DDR_8_pt_t   = (uint8_t *)(first_DDR_word_pt_t + rand_addr_offset);
 641              		.loc 1 446 30
 642 0174 4A95     		add	a0,s2,a0
 643              	.LVL70:
 447:../src/platform/mpfs_hal/common/nwc/mss_ddr_debug.c ****                 DDR_16_pt_t  = (uint16_t *)(first_DDR_word_pt_t + rand_addr_offset);
 644              		.loc 1 447 17 is_stmt 1
 448:../src/platform/mpfs_hal/common/nwc/mss_ddr_debug.c ****                 DDR_32_pt_t  = (uint32_t *)(first_DDR_word_pt_t + rand_addr_offset);
 645              		.loc 1 448 17
 449:../src/platform/mpfs_hal/common/nwc/mss_ddr_debug.c ****                 *DDR_word_ptr   = DATA;
 646              		.loc 1 449 17
 450:../src/platform/mpfs_hal/common/nwc/mss_ddr_debug.c ****                 *DDR_8_pt_t     = (uint8_t)DATA;
 647              		.loc 1 450 17
 450:../src/platform/mpfs_hal/common/nwc/mss_ddr_debug.c ****                 *DDR_8_pt_t     = (uint8_t)DATA;
 648              		.loc 1 450 33 is_stmt 0
 649 0176 00E1     		sd	s0,0(a0)
 451:../src/platform/mpfs_hal/common/nwc/mss_ddr_debug.c ****                 *DDR_16_pt_t    = (uint16_t)DATA;
 650              		.loc 1 451 17 is_stmt 1
 452:../src/platform/mpfs_hal/common/nwc/mss_ddr_debug.c ****                 *DDR_32_pt_t    = (uint32_t)DATA;
 651              		.loc 1 452 17
 453:../src/platform/mpfs_hal/common/nwc/mss_ddr_debug.c ****                 break;
 652              		.loc 1 453 17
 453:../src/platform/mpfs_hal/common/nwc/mss_ddr_debug.c ****                 break;
 653              		.loc 1 453 35 is_stmt 0
 654 0178 00C1     		sw	s0,0(a0)
 454:../src/platform/mpfs_hal/common/nwc/mss_ddr_debug.c ****             case PATTERN_0xCCCCCCCC :
 655              		.loc 1 454 17 is_stmt 1
 656 017a AA87     		mv	a5,a0
 657 017c 97060000 		lla	a3,.LC1
 657      93860600 
 658 0184 61BF     		j	.L45
 659              	.LVL71:
 660              	.L52:
 459:../src/platform/mpfs_hal/common/nwc/mss_ddr_debug.c ****                 break;
 661              		.loc 1 459 22 is_stmt 0
 662 0186 03B40D00 		ld	s0,0(s11)
 663              	.LVL72:
 664 018a 49BF     		j	.L45
 665              	.LVL73:
 666              	.L53:
 462:../src/platform/mpfs_hal/common/nwc/mss_ddr_debug.c ****                 break;
 667              		.loc 1 462 22
 668 018c 0144     		li	s0,0
 669              	.LVL74:
 670 018e 79B7     		j	.L45
 671              	.LVL75:
 672              	.L55:
 427:../src/platform/mpfs_hal/common/nwc/mss_ddr_debug.c ****                 else
 673              		.loc 1 427 26
 674 0190 0544     		li	s0,1
 675              	.LVL76:
 676 0192 69B7     		j	.L45
 677              		.cfi_endproc
 678              	.LFE25:
 680              		.section	.text.ddr_read_write_fn,"ax",@progbits
 681              		.align	1
 682              		.globl	ddr_read_write_fn
 684              	ddr_read_write_fn:
 685              	.LFB26:
 470:../src/platform/mpfs_hal/common/nwc/mss_ddr_debug.c **** 
 471:../src/platform/mpfs_hal/common/nwc/mss_ddr_debug.c **** /***************************************************************************//**
 472:../src/platform/mpfs_hal/common/nwc/mss_ddr_debug.c ****  *
 473:../src/platform/mpfs_hal/common/nwc/mss_ddr_debug.c ****  * @param DDR_word_ptr  Address
 474:../src/platform/mpfs_hal/common/nwc/mss_ddr_debug.c ****  * @param no_access  Number of addresses
 475:../src/platform/mpfs_hal/common/nwc/mss_ddr_debug.c ****  * @param pattern bit mask with patterns you want to test against
 476:../src/platform/mpfs_hal/common/nwc/mss_ddr_debug.c ****  * @return
 477:../src/platform/mpfs_hal/common/nwc/mss_ddr_debug.c ****  */
 478:../src/platform/mpfs_hal/common/nwc/mss_ddr_debug.c **** uint32_t ddr_read_write_fn (uint64_t* DDR_word_ptr, uint32_t no_access,\
 479:../src/platform/mpfs_hal/common/nwc/mss_ddr_debug.c ****                                                                uint32_t pattern)
 480:../src/platform/mpfs_hal/common/nwc/mss_ddr_debug.c **** {
 686              		.loc 1 480 1 is_stmt 1
 687              		.cfi_startproc
 688              	.LVL77:
 481:../src/platform/mpfs_hal/common/nwc/mss_ddr_debug.c ****     uint32_t error_cnt = 0U;
 689              		.loc 1 481 5
 482:../src/platform/mpfs_hal/common/nwc/mss_ddr_debug.c ****     uint8_t pattern_mask;
 690              		.loc 1 482 5
 483:../src/platform/mpfs_hal/common/nwc/mss_ddr_debug.c ****     for (unsigned i=0; i < 1; i++)
 691              		.loc 1 483 5
 692              	.LBB12:
 693              		.loc 1 483 10
 694              	.LBE12:
 480:../src/platform/mpfs_hal/common/nwc/mss_ddr_debug.c ****     uint32_t error_cnt = 0U;
 695              		.loc 1 480 1 is_stmt 0
 696 0000 5D71     		addi	sp,sp,-80
 697              		.cfi_def_cfa_offset 80
 698 0002 4EF8     		sd	s3,48(sp)
 699 0004 52F4     		sd	s4,40(sp)
 700 0006 56F0     		sd	s5,32(sp)
 701 0008 5AEC     		sd	s6,24(sp)
 702 000a 5EE8     		sd	s7,16(sp)
 703 000c 62E4     		sd	s8,8(sp)
 704 000e 66E0     		sd	s9,0(sp)
 705 0010 86E4     		sd	ra,72(sp)
 706 0012 A2E0     		sd	s0,64(sp)
 707 0014 4AFC     		sd	s2,56(sp)
 708              		.cfi_offset 19, -32
 709              		.cfi_offset 20, -40
 710              		.cfi_offset 21, -48
 711              		.cfi_offset 22, -56
 712              		.cfi_offset 23, -64
 713              		.cfi_offset 24, -72
 714              		.cfi_offset 25, -80
 715              		.cfi_offset 1, -8
 716              		.cfi_offset 8, -16
 717              		.cfi_offset 18, -24
 480:../src/platform/mpfs_hal/common/nwc/mss_ddr_debug.c ****     uint32_t error_cnt = 0U;
 718              		.loc 1 480 1
 719 0016 2A8A     		mv	s4,a0
 720 0018 AE8A     		mv	s5,a1
 721 001a 328C     		mv	s8,a2
 722 001c 8149     		li	s3,0
 723 001e 014B     		li	s6,0
 724              	.LBB14:
 725              	.LBB13:
 484:../src/platform/mpfs_hal/common/nwc/mss_ddr_debug.c ****     {
 485:../src/platform/mpfs_hal/common/nwc/mss_ddr_debug.c ****         for (uint32_t pattern_shift=0U; pattern_shift < MAX_NO_PATTERNS;\
 486:../src/platform/mpfs_hal/common/nwc/mss_ddr_debug.c ****                                                                 pattern_shift++)
 487:../src/platform/mpfs_hal/common/nwc/mss_ddr_debug.c ****         {
 488:../src/platform/mpfs_hal/common/nwc/mss_ddr_debug.c ****             pattern_mask = (uint8_t)(0x01U << pattern_shift);
 726              		.loc 1 488 44
 727 0020 854C     		li	s9,1
 485:../src/platform/mpfs_hal/common/nwc/mss_ddr_debug.c ****                                                                 pattern_shift++)
 728              		.loc 1 485 9
 729 0022 9D4B     		li	s7,7
 730              	.LVL78:
 731              	.L63:
 732              		.loc 1 488 13 is_stmt 1
 733              		.loc 1 488 44 is_stmt 0
 734 0024 BB973C01 		sllw	a5,s9,s3
 735 0028 1B890700 		sext.w	s2,a5
 736              	.LVL79:
 489:../src/platform/mpfs_hal/common/nwc/mss_ddr_debug.c ****             if(pattern & pattern_mask)
 737              		.loc 1 489 13 is_stmt 1
 738              		.loc 1 489 24 is_stmt 0
 739 002c B377FC00 		and	a5,s8,a5
 740              		.loc 1 489 15
 741 0030 8127     		sext.w	a5,a5
 742 0032 B9CB     		beq	a5,zero,.L62
 488:../src/platform/mpfs_hal/common/nwc/mss_ddr_debug.c ****             if(pattern & pattern_mask)
 743              		.loc 1 488 26
 744 0034 1379F90F 		andi	s2,s2,0xff
 490:../src/platform/mpfs_hal/common/nwc/mss_ddr_debug.c ****             {
 491:../src/platform/mpfs_hal/common/nwc/mss_ddr_debug.c **** #ifdef DEBUG_DDR_INIT
 492:../src/platform/mpfs_hal/common/nwc/mss_ddr_debug.c ****                 uprint32(g_debug_uart,"\n\r\t Pattern: 0x", pattern_shift);
 493:../src/platform/mpfs_hal/common/nwc/mss_ddr_debug.c **** #endif
 494:../src/platform/mpfs_hal/common/nwc/mss_ddr_debug.c **** 
 495:../src/platform/mpfs_hal/common/nwc/mss_ddr_debug.c **** #if TEST_64BIT_ACCESS == 1
 496:../src/platform/mpfs_hal/common/nwc/mss_ddr_debug.c ****                 /* write the pattern */
 497:../src/platform/mpfs_hal/common/nwc/mss_ddr_debug.c ****                 error_cnt += ddr_write ((uint64_t *)DDR_word_ptr,\
 745              		.loc 1 497 17 is_stmt 1
 746              		.loc 1 497 30 is_stmt 0
 747 0038 8D46     		li	a3,3
 748 003a 4A86     		mv	a2,s2
 749 003c D685     		mv	a1,s5
 750 003e 5285     		mv	a0,s4
 751 0040 97000000 		call	ddr_write
 751      E7800000 
 752              	.LVL80:
 753 0048 1B040500 		sext.w	s0,a0
 754              	.LVL81:
 498:../src/platform/mpfs_hal/common/nwc/mss_ddr_debug.c ****                         no_access, pattern_mask, DDR_64_BIT);
 499:../src/platform/mpfs_hal/common/nwc/mss_ddr_debug.c ****                 /* read back and verifies */
 500:../src/platform/mpfs_hal/common/nwc/mss_ddr_debug.c ****                 error_cnt += ddr_read ((uint64_t *)DDR_word_ptr, \
 755              		.loc 1 500 17 is_stmt 1
 756              		.loc 1 500 30 is_stmt 0
 757 004c 8D46     		li	a3,3
 758 004e 4A86     		mv	a2,s2
 759 0050 D685     		mv	a1,s5
 760 0052 5285     		mv	a0,s4
 761 0054 97000000 		call	ddr_read
 761      E7800000 
 762              	.LVL82:
 763              		.loc 1 500 27
 764 005c 299C     		addw	s0,a0,s0
 765              	.LVL83:
 501:../src/platform/mpfs_hal/common/nwc/mss_ddr_debug.c ****                         no_access, pattern_mask, DDR_64_BIT);
 502:../src/platform/mpfs_hal/common/nwc/mss_ddr_debug.c **** #endif
 503:../src/platform/mpfs_hal/common/nwc/mss_ddr_debug.c **** 
 504:../src/platform/mpfs_hal/common/nwc/mss_ddr_debug.c **** #if TEST_32BIT_ACCESS == 1
 505:../src/platform/mpfs_hal/common/nwc/mss_ddr_debug.c ****                 /* write the pattern */
 506:../src/platform/mpfs_hal/common/nwc/mss_ddr_debug.c ****                 error_cnt += ddr_write ((uint64_t *)DDR_word_ptr,\
 766              		.loc 1 506 30
 767 005e 8946     		li	a3,2
 768 0060 4A86     		mv	a2,s2
 769 0062 D685     		mv	a1,s5
 770 0064 5285     		mv	a0,s4
 771 0066 97000000 		call	ddr_write
 771      E7800000 
 772              	.LVL84:
 500:../src/platform/mpfs_hal/common/nwc/mss_ddr_debug.c ****                         no_access, pattern_mask, DDR_64_BIT);
 773              		.loc 1 500 27
 774 006e 3B046401 		addw	s0,s0,s6
 775              	.LVL85:
 776              		.loc 1 506 17 is_stmt 1
 777              		.loc 1 506 27 is_stmt 0
 778 0072 299C     		addw	s0,a0,s0
 779              	.LVL86:
 507:../src/platform/mpfs_hal/common/nwc/mss_ddr_debug.c ****                         no_access, pattern_mask, DDR_32_BIT);
 508:../src/platform/mpfs_hal/common/nwc/mss_ddr_debug.c ****                 /* read back and verifies */
 509:../src/platform/mpfs_hal/common/nwc/mss_ddr_debug.c ****                 error_cnt += ddr_read ((uint64_t *)DDR_word_ptr, \
 780              		.loc 1 509 17 is_stmt 1
 781              		.loc 1 509 30 is_stmt 0
 782 0074 8946     		li	a3,2
 783 0076 4A86     		mv	a2,s2
 784 0078 D685     		mv	a1,s5
 785 007a 5285     		mv	a0,s4
 786 007c 97000000 		call	ddr_read
 786      E7800000 
 787              	.LVL87:
 788              		.loc 1 509 27
 789 0084 3B0B8500 		addw	s6,a0,s0
 790              	.LVL88:
 791              	.L62:
 486:../src/platform/mpfs_hal/common/nwc/mss_ddr_debug.c ****         {
 792              		.loc 1 486 78
 793 0088 8529     		addiw	s3,s3,1
 794              	.LVL89:
 485:../src/platform/mpfs_hal/common/nwc/mss_ddr_debug.c ****                                                                 pattern_shift++)
 795              		.loc 1 485 9
 796 008a E39D79F9 		bne	s3,s7,.L63
 797              	.LBE13:
 510:../src/platform/mpfs_hal/common/nwc/mss_ddr_debug.c ****                         no_access, pattern_mask, DDR_32_BIT);
 511:../src/platform/mpfs_hal/common/nwc/mss_ddr_debug.c **** #endif
 512:../src/platform/mpfs_hal/common/nwc/mss_ddr_debug.c ****             }
 513:../src/platform/mpfs_hal/common/nwc/mss_ddr_debug.c ****         }
 514:../src/platform/mpfs_hal/common/nwc/mss_ddr_debug.c ****         DDR_word_ptr++; /* increment the address */
 798              		.loc 1 514 9 is_stmt 1 discriminator 2
 799              	.LVL90:
 800              	.LBE14:
 515:../src/platform/mpfs_hal/common/nwc/mss_ddr_debug.c ****     }
 516:../src/platform/mpfs_hal/common/nwc/mss_ddr_debug.c ****     return error_cnt;
 801              		.loc 1 516 5 discriminator 2
 517:../src/platform/mpfs_hal/common/nwc/mss_ddr_debug.c **** }
 802              		.loc 1 517 1 is_stmt 0 discriminator 2
 803 008e A660     		ld	ra,72(sp)
 804              		.cfi_restore 1
 805 0090 0664     		ld	s0,64(sp)
 806              		.cfi_restore 8
 807 0092 5A85     		mv	a0,s6
 808 0094 6279     		ld	s2,56(sp)
 809              		.cfi_restore 18
 810 0096 C279     		ld	s3,48(sp)
 811              		.cfi_restore 19
 812 0098 227A     		ld	s4,40(sp)
 813              		.cfi_restore 20
 814              	.LVL91:
 815 009a 827A     		ld	s5,32(sp)
 816              		.cfi_restore 21
 817 009c 626B     		ld	s6,24(sp)
 818              		.cfi_restore 22
 819              	.LVL92:
 820 009e C26B     		ld	s7,16(sp)
 821              		.cfi_restore 23
 822 00a0 226C     		ld	s8,8(sp)
 823              		.cfi_restore 24
 824 00a2 826C     		ld	s9,0(sp)
 825              		.cfi_restore 25
 826 00a4 6161     		addi	sp,sp,80
 827              		.cfi_def_cfa_offset 0
 828 00a6 8280     		jr	ra
 829              		.cfi_endproc
 830              	.LFE26:
 832              		.section	.text.load_ddr_pattern,"ax",@progbits
 833              		.align	1
 834              		.globl	load_ddr_pattern
 836              	load_ddr_pattern:
 837              	.LFB27:
 518:../src/platform/mpfs_hal/common/nwc/mss_ddr_debug.c **** 
 519:../src/platform/mpfs_hal/common/nwc/mss_ddr_debug.c **** 
 520:../src/platform/mpfs_hal/common/nwc/mss_ddr_debug.c **** /***************************************************************************//**
 521:../src/platform/mpfs_hal/common/nwc/mss_ddr_debug.c ****  *
 522:../src/platform/mpfs_hal/common/nwc/mss_ddr_debug.c ****  * @param error
 523:../src/platform/mpfs_hal/common/nwc/mss_ddr_debug.c ****  * @return
 524:../src/platform/mpfs_hal/common/nwc/mss_ddr_debug.c ****  */
 525:../src/platform/mpfs_hal/common/nwc/mss_ddr_debug.c **** #ifdef DEBUG_DDR_INIT
 526:../src/platform/mpfs_hal/common/nwc/mss_ddr_debug.c **** uint32_t error_status(mss_uart_instance_t *g_mss_uart_debug_pt, uint32_t error)
 527:../src/platform/mpfs_hal/common/nwc/mss_ddr_debug.c **** {
 528:../src/platform/mpfs_hal/common/nwc/mss_ddr_debug.c ****     uprint32(g_mss_uart_debug_pt,  "\n\r ERROR_RESULT: ", error);
 529:../src/platform/mpfs_hal/common/nwc/mss_ddr_debug.c ****     return (0U);
 530:../src/platform/mpfs_hal/common/nwc/mss_ddr_debug.c **** }
 531:../src/platform/mpfs_hal/common/nwc/mss_ddr_debug.c **** #endif
 532:../src/platform/mpfs_hal/common/nwc/mss_ddr_debug.c **** 
 533:../src/platform/mpfs_hal/common/nwc/mss_ddr_debug.c **** /***************************************************************************//**
 534:../src/platform/mpfs_hal/common/nwc/mss_ddr_debug.c ****  * Calibration status
 535:../src/platform/mpfs_hal/common/nwc/mss_ddr_debug.c ****  * @return
 536:../src/platform/mpfs_hal/common/nwc/mss_ddr_debug.c ****  */
 537:../src/platform/mpfs_hal/common/nwc/mss_ddr_debug.c **** #ifdef DEBUG_DDR_INIT
 538:../src/platform/mpfs_hal/common/nwc/mss_ddr_debug.c **** uint32_t wrcalib_status(mss_uart_instance_t *g_mss_uart_debug_pt)
 539:../src/platform/mpfs_hal/common/nwc/mss_ddr_debug.c **** {
 540:../src/platform/mpfs_hal/common/nwc/mss_ddr_debug.c ****     uprint32(g_mss_uart_debug_pt,  "\n\r WRCALIB_RESULT: ",\
 541:../src/platform/mpfs_hal/common/nwc/mss_ddr_debug.c ****             CFG_DDR_SGMII_PHY->expert_wrcalib.expert_wrcalib);
 542:../src/platform/mpfs_hal/common/nwc/mss_ddr_debug.c ****     return (0U);
 543:../src/platform/mpfs_hal/common/nwc/mss_ddr_debug.c **** }
 544:../src/platform/mpfs_hal/common/nwc/mss_ddr_debug.c **** #endif
 545:../src/platform/mpfs_hal/common/nwc/mss_ddr_debug.c **** 
 546:../src/platform/mpfs_hal/common/nwc/mss_ddr_debug.c **** #ifdef DEBUG_DDR_INIT
 547:../src/platform/mpfs_hal/common/nwc/mss_ddr_debug.c **** /***************************************************************************//**
 548:../src/platform/mpfs_hal/common/nwc/mss_ddr_debug.c ****  * Prints out DDR status
 549:../src/platform/mpfs_hal/common/nwc/mss_ddr_debug.c ****  * @return
 550:../src/platform/mpfs_hal/common/nwc/mss_ddr_debug.c ****  */
 551:../src/platform/mpfs_hal/common/nwc/mss_ddr_debug.c **** uint32_t tip_register_status (mss_uart_instance_t *g_mss_uart_debug_pt)
 552:../src/platform/mpfs_hal/common/nwc/mss_ddr_debug.c **** {
 553:../src/platform/mpfs_hal/common/nwc/mss_ddr_debug.c **** 
 554:../src/platform/mpfs_hal/common/nwc/mss_ddr_debug.c ****     uint32_t t_status = 0U;
 555:../src/platform/mpfs_hal/common/nwc/mss_ddr_debug.c ****     uint32_t MSS_DDR_APB_ADDR;
 556:../src/platform/mpfs_hal/common/nwc/mss_ddr_debug.c ****     uint32_t ddr_lane_sel;
 557:../src/platform/mpfs_hal/common/nwc/mss_ddr_debug.c ****     uint32_t rank_sel;
 558:../src/platform/mpfs_hal/common/nwc/mss_ddr_debug.c ****     uint32_t dq0_dly = 0U;
 559:../src/platform/mpfs_hal/common/nwc/mss_ddr_debug.c ****     uint32_t dq1_dly = 0U;
 560:../src/platform/mpfs_hal/common/nwc/mss_ddr_debug.c ****     uint32_t dq2_dly = 0U;
 561:../src/platform/mpfs_hal/common/nwc/mss_ddr_debug.c ****     uint32_t dq3_dly = 0U;
 562:../src/platform/mpfs_hal/common/nwc/mss_ddr_debug.c ****     uint32_t dq4_dly = 0U;
 563:../src/platform/mpfs_hal/common/nwc/mss_ddr_debug.c ****     uint32_t dq5_dly = 0U;
 564:../src/platform/mpfs_hal/common/nwc/mss_ddr_debug.c **** 
 565:../src/platform/mpfs_hal/common/nwc/mss_ddr_debug.c ****     /*  MSS_UART_polled_tx_string(g_mss_uart_debug_pt, "\n\n\r TIP register status \n");
 566:../src/platform/mpfs_hal/common/nwc/mss_ddr_debug.c ****     delay(DELAY_CYCLES_50_MICRO);*/
 567:../src/platform/mpfs_hal/common/nwc/mss_ddr_debug.c ****     uprint32(g_mss_uart_debug_pt,  "\n\r\n\r training status = ",\
 568:../src/platform/mpfs_hal/common/nwc/mss_ddr_debug.c ****                             CFG_DDR_SGMII_PHY->training_status.training_status);
 569:../src/platform/mpfs_hal/common/nwc/mss_ddr_debug.c ****     uprint32(g_mss_uart_debug_pt,  "\n\r PCODE = ",\
 570:../src/platform/mpfs_hal/common/nwc/mss_ddr_debug.c ****                                 (CFG_DDR_SGMII_PHY->IOC_REG2.IOC_REG2 & 0x7F));
 571:../src/platform/mpfs_hal/common/nwc/mss_ddr_debug.c ****     uprint32(g_mss_uart_debug_pt,  "\n\r NCODE = ",\
 572:../src/platform/mpfs_hal/common/nwc/mss_ddr_debug.c ****                         (((CFG_DDR_SGMII_PHY->IOC_REG2.IOC_REG2) >> 7) & 0x7F));
 573:../src/platform/mpfs_hal/common/nwc/mss_ddr_debug.c ****     uprint32(g_mss_uart_debug_pt,  "\n\r WRCALIB_RESULT: "\
 574:../src/platform/mpfs_hal/common/nwc/mss_ddr_debug.c ****                             , CFG_DDR_SGMII_PHY->expert_wrcalib.expert_wrcalib);
 575:../src/platform/mpfs_hal/common/nwc/mss_ddr_debug.c ****     uprint32(g_mss_uart_debug_pt,  "\n\r sro_ref_slewr  = ",\
 576:../src/platform/mpfs_hal/common/nwc/mss_ddr_debug.c ****                         (((CFG_DDR_SGMII_PHY->IOC_REG5.IOC_REG5) >> 0) & 0x3F));
 577:../src/platform/mpfs_hal/common/nwc/mss_ddr_debug.c ****     uprint32(g_mss_uart_debug_pt,  "\n\r sro_ref_slewf  = ",\
 578:../src/platform/mpfs_hal/common/nwc/mss_ddr_debug.c ****                        (((CFG_DDR_SGMII_PHY->IOC_REG5.IOC_REG5) >> 6) & 0xFFF));
 579:../src/platform/mpfs_hal/common/nwc/mss_ddr_debug.c ****     uprint32(g_mss_uart_debug_pt,  "\n\r sro_slewr  = ",\
 580:../src/platform/mpfs_hal/common/nwc/mss_ddr_debug.c ****                        (((CFG_DDR_SGMII_PHY->IOC_REG5.IOC_REG5) >> 18) & 0x3F));
 581:../src/platform/mpfs_hal/common/nwc/mss_ddr_debug.c ****     uprint32(g_mss_uart_debug_pt,  "\n\r sro_slewf  = ",\
 582:../src/platform/mpfs_hal/common/nwc/mss_ddr_debug.c ****             (((CFG_DDR_SGMII_PHY->IOC_REG5.IOC_REG5) >> 24) & 0x3F));
 583:../src/platform/mpfs_hal/common/nwc/mss_ddr_debug.c **** 
 584:../src/platform/mpfs_hal/common/nwc/mss_ddr_debug.c ****     for (rank_sel=0; rank_sel < LIBERO_SETTING_CFG_NUM_RANKS; rank_sel++)
 585:../src/platform/mpfs_hal/common/nwc/mss_ddr_debug.c ****     {
 586:../src/platform/mpfs_hal/common/nwc/mss_ddr_debug.c ****         CFG_DDR_SGMII_PHY->rank_select.rank_select=rank_sel;
 587:../src/platform/mpfs_hal/common/nwc/mss_ddr_debug.c ****         uprint32(g_mss_uart_debug_pt, "\n\r\n\r rank number", rank_sel);
 588:../src/platform/mpfs_hal/common/nwc/mss_ddr_debug.c ****         MSS_UART_polled_tx_string(g_mss_uart_debug_pt, \
 589:../src/platform/mpfs_hal/common/nwc/mss_ddr_debug.c ****                 (const uint8_t*)"\n\n\r lane_select \t gt_err_comb \t gt_txdly \t gt_steps_180 \t g
 590:../src/platform/mpfs_hal/common/nwc/mss_ddr_debug.c ****         for (ddr_lane_sel=0U; ddr_lane_sel < LIBERO_SETTING_DATA_LANES_USED; ddr_lane_sel++)
 591:../src/platform/mpfs_hal/common/nwc/mss_ddr_debug.c ****         {
 592:../src/platform/mpfs_hal/common/nwc/mss_ddr_debug.c ****             CFG_DDR_SGMII_PHY->lane_select.lane_select = ddr_lane_sel;
 593:../src/platform/mpfs_hal/common/nwc/mss_ddr_debug.c ****             uprint32(g_mss_uart_debug_pt, "\n\r ", CFG_DDR_SGMII_PHY->lane_select.lane_select);
 594:../src/platform/mpfs_hal/common/nwc/mss_ddr_debug.c ****             delay(DELAY_CYCLES_50_MICRO);
 595:../src/platform/mpfs_hal/common/nwc/mss_ddr_debug.c ****             MSS_DDR_APB_ADDR = CFG_DDR_SGMII_PHY->gt_err_comb.gt_err_comb;
 596:../src/platform/mpfs_hal/common/nwc/mss_ddr_debug.c ****             uprint32(g_mss_uart_debug_pt, "\t ", MSS_DDR_APB_ADDR);
 597:../src/platform/mpfs_hal/common/nwc/mss_ddr_debug.c ****             t_status = t_status | MSS_DDR_APB_ADDR;
 598:../src/platform/mpfs_hal/common/nwc/mss_ddr_debug.c **** 
 599:../src/platform/mpfs_hal/common/nwc/mss_ddr_debug.c ****             MSS_DDR_APB_ADDR = CFG_DDR_SGMII_PHY->gt_txdly.gt_txdly;
 600:../src/platform/mpfs_hal/common/nwc/mss_ddr_debug.c ****             uprint32(g_mss_uart_debug_pt, "\t ", MSS_DDR_APB_ADDR);
 601:../src/platform/mpfs_hal/common/nwc/mss_ddr_debug.c **** 
 602:../src/platform/mpfs_hal/common/nwc/mss_ddr_debug.c ****             if((MSS_DDR_APB_ADDR & 0xFF) == 0)    t_status = 1;
 603:../src/platform/mpfs_hal/common/nwc/mss_ddr_debug.c ****             if((MSS_DDR_APB_ADDR & 0xFF00) == 0)  t_status = 1;
 604:../src/platform/mpfs_hal/common/nwc/mss_ddr_debug.c ****             if((MSS_DDR_APB_ADDR & 0xFF0000) == 0) t_status = 1;
 605:../src/platform/mpfs_hal/common/nwc/mss_ddr_debug.c ****             if((MSS_DDR_APB_ADDR & 0xFF000000) == 0) t_status = 1;
 606:../src/platform/mpfs_hal/common/nwc/mss_ddr_debug.c **** 
 607:../src/platform/mpfs_hal/common/nwc/mss_ddr_debug.c ****             uprint32(g_mss_uart_debug_pt, "\t ",\
 608:../src/platform/mpfs_hal/common/nwc/mss_ddr_debug.c ****                     CFG_DDR_SGMII_PHY->gt_steps_180.gt_steps_180);
 609:../src/platform/mpfs_hal/common/nwc/mss_ddr_debug.c ****             uprint32(g_mss_uart_debug_pt, "\t ",\
 610:../src/platform/mpfs_hal/common/nwc/mss_ddr_debug.c ****                     CFG_DDR_SGMII_PHY->gt_state.gt_state);
 611:../src/platform/mpfs_hal/common/nwc/mss_ddr_debug.c ****             uprint32(g_mss_uart_debug_pt, "\t ",\
 612:../src/platform/mpfs_hal/common/nwc/mss_ddr_debug.c ****                     CFG_DDR_SGMII_PHY->wl_delay_0.wl_delay_0);
 613:../src/platform/mpfs_hal/common/nwc/mss_ddr_debug.c ****             uprint32(g_mss_uart_debug_pt, "\t ",\
 614:../src/platform/mpfs_hal/common/nwc/mss_ddr_debug.c ****                     CFG_DDR_SGMII_PHY->dq_dqs_err_done.dq_dqs_err_done);
 615:../src/platform/mpfs_hal/common/nwc/mss_ddr_debug.c ****             t_status = t_status | (MSS_DDR_APB_ADDR  != 8);
 616:../src/platform/mpfs_hal/common/nwc/mss_ddr_debug.c **** 
 617:../src/platform/mpfs_hal/common/nwc/mss_ddr_debug.c ****             uprint32(g_mss_uart_debug_pt, "\t\t ",\
 618:../src/platform/mpfs_hal/common/nwc/mss_ddr_debug.c ****                     CFG_DDR_SGMII_PHY->dqdqs_state.dqdqs_state);
 619:../src/platform/mpfs_hal/common/nwc/mss_ddr_debug.c ****             uprint32(g_mss_uart_debug_pt, "\t ",\
 620:../src/platform/mpfs_hal/common/nwc/mss_ddr_debug.c ****                     CFG_DDR_SGMII_PHY->delta0.delta0);
 621:../src/platform/mpfs_hal/common/nwc/mss_ddr_debug.c ****             dq0_dly = (MSS_DDR_APB_ADDR & 0xFF);
 622:../src/platform/mpfs_hal/common/nwc/mss_ddr_debug.c ****             dq1_dly = (MSS_DDR_APB_ADDR & 0xFF00) >> 8;
 623:../src/platform/mpfs_hal/common/nwc/mss_ddr_debug.c ****             dq2_dly = (MSS_DDR_APB_ADDR & 0xFF0000) >> 16;
 624:../src/platform/mpfs_hal/common/nwc/mss_ddr_debug.c ****             dq3_dly = (MSS_DDR_APB_ADDR & 0xFF000000) >> 24;
 625:../src/platform/mpfs_hal/common/nwc/mss_ddr_debug.c ****             uprint32(g_mss_uart_debug_pt, "\t ",\
 626:../src/platform/mpfs_hal/common/nwc/mss_ddr_debug.c ****                     CFG_DDR_SGMII_PHY->delta1.delta1);
 627:../src/platform/mpfs_hal/common/nwc/mss_ddr_debug.c ****             dq4_dly = (MSS_DDR_APB_ADDR & 0xFF);
 628:../src/platform/mpfs_hal/common/nwc/mss_ddr_debug.c ****             dq5_dly = (MSS_DDR_APB_ADDR & 0xFF00) >> 8;
 629:../src/platform/mpfs_hal/common/nwc/mss_ddr_debug.c ****             dq2_dly = (MSS_DDR_APB_ADDR & 0xFF0000) >> 16;
 630:../src/platform/mpfs_hal/common/nwc/mss_ddr_debug.c ****             dq3_dly = (MSS_DDR_APB_ADDR & 0xFF000000) >> 24;
 631:../src/platform/mpfs_hal/common/nwc/mss_ddr_debug.c ****         }
 632:../src/platform/mpfs_hal/common/nwc/mss_ddr_debug.c **** 
 633:../src/platform/mpfs_hal/common/nwc/mss_ddr_debug.c ****         MSS_UART_polled_tx_string(g_mss_uart_debug_pt, (const uint8_t*)"\n\r\n\r lane_select\t rdqd
 634:../src/platform/mpfs_hal/common/nwc/mss_ddr_debug.c ****         for (ddr_lane_sel=0U; ddr_lane_sel < LIBERO_SETTING_DATA_LANES_USED;\
 635:../src/platform/mpfs_hal/common/nwc/mss_ddr_debug.c ****                                                                     ddr_lane_sel++)
 636:../src/platform/mpfs_hal/common/nwc/mss_ddr_debug.c ****         {
 637:../src/platform/mpfs_hal/common/nwc/mss_ddr_debug.c ****             CFG_DDR_SGMII_PHY->lane_select.lane_select = ddr_lane_sel;
 638:../src/platform/mpfs_hal/common/nwc/mss_ddr_debug.c ****             uprint32(g_mss_uart_debug_pt, "\n\r ",\
 639:../src/platform/mpfs_hal/common/nwc/mss_ddr_debug.c ****                                         CFG_DDR_SGMII_PHY->lane_select.lane_select);
 640:../src/platform/mpfs_hal/common/nwc/mss_ddr_debug.c ****             delay(DELAY_CYCLES_50_MICRO);
 641:../src/platform/mpfs_hal/common/nwc/mss_ddr_debug.c **** 
 642:../src/platform/mpfs_hal/common/nwc/mss_ddr_debug.c ****             if(dq0_dly > 20) t_status = 1;
 643:../src/platform/mpfs_hal/common/nwc/mss_ddr_debug.c ****             if(dq1_dly > 20) t_status = 1;
 644:../src/platform/mpfs_hal/common/nwc/mss_ddr_debug.c ****             if(dq2_dly > 20) t_status = 1;
 645:../src/platform/mpfs_hal/common/nwc/mss_ddr_debug.c ****             if(dq3_dly > 20) t_status = 1;
 646:../src/platform/mpfs_hal/common/nwc/mss_ddr_debug.c ****             if(dq4_dly > 20) t_status = 1;
 647:../src/platform/mpfs_hal/common/nwc/mss_ddr_debug.c ****             if(dq5_dly > 20) t_status = 1;
 648:../src/platform/mpfs_hal/common/nwc/mss_ddr_debug.c **** 
 649:../src/platform/mpfs_hal/common/nwc/mss_ddr_debug.c ****             uprint32(g_mss_uart_debug_pt, "\t ",\
 650:../src/platform/mpfs_hal/common/nwc/mss_ddr_debug.c ****                     CFG_DDR_SGMII_PHY->dqdqs_status2.dqdqs_status2);
 651:../src/platform/mpfs_hal/common/nwc/mss_ddr_debug.c **** 
 652:../src/platform/mpfs_hal/common/nwc/mss_ddr_debug.c ****             uprint32(g_mss_uart_debug_pt, "\t ",\
 653:../src/platform/mpfs_hal/common/nwc/mss_ddr_debug.c ****                     CFG_DDR_SGMII_PHY->addcmd_status0.addcmd_status0);
 654:../src/platform/mpfs_hal/common/nwc/mss_ddr_debug.c ****             uprint32(g_mss_uart_debug_pt, "\t ",\
 655:../src/platform/mpfs_hal/common/nwc/mss_ddr_debug.c ****                     CFG_DDR_SGMII_PHY->addcmd_status1.addcmd_status1);
 656:../src/platform/mpfs_hal/common/nwc/mss_ddr_debug.c ****             uprint32(g_mss_uart_debug_pt, "\t ",\
 657:../src/platform/mpfs_hal/common/nwc/mss_ddr_debug.c ****                     CFG_DDR_SGMII_PHY->addcmd_answer.addcmd_answer);
 658:../src/platform/mpfs_hal/common/nwc/mss_ddr_debug.c ****             uprint32(g_mss_uart_debug_pt, "\t ",\
 659:../src/platform/mpfs_hal/common/nwc/mss_ddr_debug.c ****                     CFG_DDR_SGMII_PHY->dqdqs_status1.dqdqs_status1);
 660:../src/platform/mpfs_hal/common/nwc/mss_ddr_debug.c **** 
 661:../src/platform/mpfs_hal/common/nwc/mss_ddr_debug.c ****         }
 662:../src/platform/mpfs_hal/common/nwc/mss_ddr_debug.c ****     } /* end rank select */
 663:../src/platform/mpfs_hal/common/nwc/mss_ddr_debug.c ****     return(t_status);
 664:../src/platform/mpfs_hal/common/nwc/mss_ddr_debug.c **** }
 665:../src/platform/mpfs_hal/common/nwc/mss_ddr_debug.c **** #endif
 666:../src/platform/mpfs_hal/common/nwc/mss_ddr_debug.c **** 
 667:../src/platform/mpfs_hal/common/nwc/mss_ddr_debug.c **** /**
 668:../src/platform/mpfs_hal/common/nwc/mss_ddr_debug.c ****  * Load a pattern to DDR
 669:../src/platform/mpfs_hal/common/nwc/mss_ddr_debug.c ****  */
 670:../src/platform/mpfs_hal/common/nwc/mss_ddr_debug.c **** void load_ddr_pattern(uint64_t base, uint32_t size, uint8_t pattern_offset)
 671:../src/platform/mpfs_hal/common/nwc/mss_ddr_debug.c **** {
 838              		.loc 1 671 1 is_stmt 1
 839              		.cfi_startproc
 840              	.LVL93:
 672:../src/platform/mpfs_hal/common/nwc/mss_ddr_debug.c ****     int alive = 0;
 841              		.loc 1 672 5
 673:../src/platform/mpfs_hal/common/nwc/mss_ddr_debug.c **** 
 674:../src/platform/mpfs_hal/common/nwc/mss_ddr_debug.c ****     uint8_t *p_ddr = (uint8_t *)base;
 842              		.loc 1 674 5
 671:../src/platform/mpfs_hal/common/nwc/mss_ddr_debug.c ****     int alive = 0;
 843              		.loc 1 671 1 is_stmt 0
 844 0000 3971     		addi	sp,sp,-64
 845              		.cfi_def_cfa_offset 64
 846 0002 22F8     		sd	s0,48(sp)
 847              		.cfi_offset 8, -16
 675:../src/platform/mpfs_hal/common/nwc/mss_ddr_debug.c ****     uint32_t pattern_length = (uint32_t)(sizeof(ddr_test_pattern) - pattern_offset) ;
 848              		.loc 1 675 14
 849 0004 0564     		li	s0,4096
 850 0006 1B0404C0 		addiw	s0,s0,-1024
 851 000a 119C     		subw	s0,s0,a2
 676:../src/platform/mpfs_hal/common/nwc/mss_ddr_debug.c **** 
 677:../src/platform/mpfs_hal/common/nwc/mss_ddr_debug.c **** #ifdef DEBUG_DDR_INIT
 678:../src/platform/mpfs_hal/common/nwc/mss_ddr_debug.c ****     uprint(g_debug_uart, (const char*)(const uint8_t*)"\r\nLoading test pattern\r\n");
 679:../src/platform/mpfs_hal/common/nwc/mss_ddr_debug.c **** #endif
 680:../src/platform/mpfs_hal/common/nwc/mss_ddr_debug.c **** 
 681:../src/platform/mpfs_hal/common/nwc/mss_ddr_debug.c ****     while(((uint64_t)p_ddr + pattern_length) <  (base + size))
 852              		.loc 1 681 55
 853 000c 8215     		slli	a1,a1,32
 854              	.LVL94:
 855              		.loc 1 681 28
 856 000e 0214     		slli	s0,s0,32
 857              		.loc 1 681 55
 858 0010 8191     		srli	a1,a1,32
 671:../src/platform/mpfs_hal/common/nwc/mss_ddr_debug.c ****     int alive = 0;
 859              		.loc 1 671 1
 860 0012 26F4     		sd	s1,40(sp)
 861 0014 4AF0     		sd	s2,32(sp)
 862 0016 4EEC     		sd	s3,24(sp)
 863 0018 56E4     		sd	s5,8(sp)
 864 001a 5AE0     		sd	s6,0(sp)
 865 001c 06FC     		sd	ra,56(sp)
 866 001e 52E8     		sd	s4,16(sp)
 867              		.cfi_offset 9, -24
 868              		.cfi_offset 18, -32
 869              		.cfi_offset 19, -40
 870              		.cfi_offset 21, -56
 871              		.cfi_offset 22, -64
 872              		.cfi_offset 1, -8
 873              		.cfi_offset 20, -48
 674:../src/platform/mpfs_hal/common/nwc/mss_ddr_debug.c ****     uint32_t pattern_length = (uint32_t)(sizeof(ddr_test_pattern) - pattern_offset) ;
 874              		.loc 1 674 14
 875 0020 AA84     		mv	s1,a0
 876              	.LVL95:
 675:../src/platform/mpfs_hal/common/nwc/mss_ddr_debug.c **** 
 877              		.loc 1 675 5 is_stmt 1
 878              		.loc 1 681 5
 879              		.loc 1 681 28 is_stmt 0
 880 0022 0190     		srli	s0,s0,32
 881              		.loc 1 681 55
 882 0024 B389A500 		add	s3,a1,a0
 682:../src/platform/mpfs_hal/common/nwc/mss_ddr_debug.c ****     {
 683:../src/platform/mpfs_hal/common/nwc/mss_ddr_debug.c **** 
 684:../src/platform/mpfs_hal/common/nwc/mss_ddr_debug.c ****         switch ( ((uint64_t)p_ddr)%8U )
 883              		.loc 1 684 9
 884 0028 194B     		li	s6,6
 685:../src/platform/mpfs_hal/common/nwc/mss_ddr_debug.c ****         {
 686:../src/platform/mpfs_hal/common/nwc/mss_ddr_debug.c ****             case 0:
 687:../src/platform/mpfs_hal/common/nwc/mss_ddr_debug.c ****             case 4:
 688:../src/platform/mpfs_hal/common/nwc/mss_ddr_debug.c ****                 pdma_transfer_complete(PDMA_CHANNEL0_BASE_ADDRESS);
 689:../src/platform/mpfs_hal/common/nwc/mss_ddr_debug.c ****                 pdma_transfer((uint64_t)p_ddr, (uint64_t)ddr_test_pattern, pattern_length, PDMA_CHA
 885              		.loc 1 689 17
 886 002a 17090000 		lla	s2,ddr_test_pattern
 886      13090900 
 684:../src/platform/mpfs_hal/common/nwc/mss_ddr_debug.c ****         {
 887              		.loc 1 684 9
 888 0032 970A0000 		lla	s5,.L73
 888      938A0A00 
 889              	.LVL96:
 890              	.L70:
 681:../src/platform/mpfs_hal/common/nwc/mss_ddr_debug.c ****     {
 891              		.loc 1 681 10
 892 003a 338A8400 		add	s4,s1,s0
 893 003e 63633A05 		bltu	s4,s3,.L77
 690:../src/platform/mpfs_hal/common/nwc/mss_ddr_debug.c ****                 break;
 691:../src/platform/mpfs_hal/common/nwc/mss_ddr_debug.c ****             case 1:
 692:../src/platform/mpfs_hal/common/nwc/mss_ddr_debug.c ****             case 5:
 693:../src/platform/mpfs_hal/common/nwc/mss_ddr_debug.c ****                 pdma_transfer_complete(PDMA_CHANNEL1_BASE_ADDRESS);
 694:../src/platform/mpfs_hal/common/nwc/mss_ddr_debug.c ****                 pdma_transfer((uint64_t)p_ddr, (uint64_t)ddr_test_pattern, pattern_length, PDMA_CHA
 695:../src/platform/mpfs_hal/common/nwc/mss_ddr_debug.c ****                 break;
 696:../src/platform/mpfs_hal/common/nwc/mss_ddr_debug.c ****             case 2:
 697:../src/platform/mpfs_hal/common/nwc/mss_ddr_debug.c ****             case 6:
 698:../src/platform/mpfs_hal/common/nwc/mss_ddr_debug.c ****                 pdma_transfer_complete(PDMA_CHANNEL2_BASE_ADDRESS);
 699:../src/platform/mpfs_hal/common/nwc/mss_ddr_debug.c ****                 pdma_transfer((uint64_t)p_ddr, (uint64_t)ddr_test_pattern, pattern_length, PDMA_CHA
 700:../src/platform/mpfs_hal/common/nwc/mss_ddr_debug.c ****                 break;
 701:../src/platform/mpfs_hal/common/nwc/mss_ddr_debug.c ****             case 3:
 702:../src/platform/mpfs_hal/common/nwc/mss_ddr_debug.c ****             case 7:
 703:../src/platform/mpfs_hal/common/nwc/mss_ddr_debug.c ****                 pdma_transfer_complete(PDMA_CHANNEL3_BASE_ADDRESS);
 704:../src/platform/mpfs_hal/common/nwc/mss_ddr_debug.c ****                 pdma_transfer((uint64_t)p_ddr, (uint64_t)ddr_test_pattern, pattern_length, PDMA_CHA
 705:../src/platform/mpfs_hal/common/nwc/mss_ddr_debug.c ****                 break;
 706:../src/platform/mpfs_hal/common/nwc/mss_ddr_debug.c ****         }
 707:../src/platform/mpfs_hal/common/nwc/mss_ddr_debug.c **** 
 708:../src/platform/mpfs_hal/common/nwc/mss_ddr_debug.c ****         p_ddr = p_ddr + (pattern_length);
 709:../src/platform/mpfs_hal/common/nwc/mss_ddr_debug.c ****         alive++;
 710:../src/platform/mpfs_hal/common/nwc/mss_ddr_debug.c ****         if (alive > 1000)
 711:../src/platform/mpfs_hal/common/nwc/mss_ddr_debug.c ****         {
 712:../src/platform/mpfs_hal/common/nwc/mss_ddr_debug.c ****             alive = 0;
 713:../src/platform/mpfs_hal/common/nwc/mss_ddr_debug.c **** #ifdef DEBUG_DDR_INIT
 714:../src/platform/mpfs_hal/common/nwc/mss_ddr_debug.c ****             uprint(g_debug_uart, (const char*)".");
 715:../src/platform/mpfs_hal/common/nwc/mss_ddr_debug.c **** #endif
 716:../src/platform/mpfs_hal/common/nwc/mss_ddr_debug.c ****         }
 717:../src/platform/mpfs_hal/common/nwc/mss_ddr_debug.c ****     }
 718:../src/platform/mpfs_hal/common/nwc/mss_ddr_debug.c **** #ifdef DEBUG_DDR_INIT
 719:../src/platform/mpfs_hal/common/nwc/mss_ddr_debug.c ****     uprint(g_debug_uart, (const char*)"\r\nFinished loading test pattern\r\n");
 720:../src/platform/mpfs_hal/common/nwc/mss_ddr_debug.c **** #endif
 721:../src/platform/mpfs_hal/common/nwc/mss_ddr_debug.c **** 
 722:../src/platform/mpfs_hal/common/nwc/mss_ddr_debug.c ****     pdma_transfer_complete(PDMA_CHANNEL0_BASE_ADDRESS);
 894              		.loc 1 722 5 is_stmt 1
 895 0042 37050003 		li	a0,50331648
 896 0046 97000000 		call	pdma_transfer_complete
 896      E7800000 
 897              	.LVL97:
 723:../src/platform/mpfs_hal/common/nwc/mss_ddr_debug.c ****     pdma_transfer_complete(PDMA_CHANNEL1_BASE_ADDRESS);
 898              		.loc 1 723 5
 899 004e 37150003 		li	a0,50335744
 900 0052 97000000 		call	pdma_transfer_complete
 900      E7800000 
 901              	.LVL98:
 724:../src/platform/mpfs_hal/common/nwc/mss_ddr_debug.c ****     pdma_transfer_complete(PDMA_CHANNEL2_BASE_ADDRESS);
 902              		.loc 1 724 5
 903 005a 37250003 		li	a0,50339840
 904 005e 97000000 		call	pdma_transfer_complete
 904      E7800000 
 905              	.LVL99:
 725:../src/platform/mpfs_hal/common/nwc/mss_ddr_debug.c ****     pdma_transfer_complete(PDMA_CHANNEL3_BASE_ADDRESS);
 906              		.loc 1 725 5
 726:../src/platform/mpfs_hal/common/nwc/mss_ddr_debug.c **** 
 727:../src/platform/mpfs_hal/common/nwc/mss_ddr_debug.c **** }
 907              		.loc 1 727 1 is_stmt 0
 908 0066 4274     		ld	s0,48(sp)
 909              		.cfi_remember_state
 910              		.cfi_restore 8
 911 0068 E270     		ld	ra,56(sp)
 912              		.cfi_restore 1
 913 006a A274     		ld	s1,40(sp)
 914              		.cfi_restore 9
 915              	.LVL100:
 916 006c 0279     		ld	s2,32(sp)
 917              		.cfi_restore 18
 918 006e E269     		ld	s3,24(sp)
 919              		.cfi_restore 19
 920 0070 426A     		ld	s4,16(sp)
 921              		.cfi_restore 20
 922 0072 A26A     		ld	s5,8(sp)
 923              		.cfi_restore 21
 924 0074 026B     		ld	s6,0(sp)
 925              		.cfi_restore 22
 725:../src/platform/mpfs_hal/common/nwc/mss_ddr_debug.c ****     pdma_transfer_complete(PDMA_CHANNEL3_BASE_ADDRESS);
 926              		.loc 1 725 5
 927 0076 37350003 		li	a0,50343936
 928              		.loc 1 727 1
 929 007a 2161     		addi	sp,sp,64
 930              		.cfi_def_cfa_offset 0
 725:../src/platform/mpfs_hal/common/nwc/mss_ddr_debug.c ****     pdma_transfer_complete(PDMA_CHANNEL3_BASE_ADDRESS);
 931              		.loc 1 725 5
 932 007c 17030000 		tail	pdma_transfer_complete
 932      67000300 
 933              	.LVL101:
 934              	.L77:
 935              		.cfi_restore_state
 684:../src/platform/mpfs_hal/common/nwc/mss_ddr_debug.c ****         {
 936              		.loc 1 684 9 is_stmt 1
 684:../src/platform/mpfs_hal/common/nwc/mss_ddr_debug.c ****         {
 937              		.loc 1 684 35 is_stmt 0
 938 0084 93F77400 		andi	a5,s1,7
 684:../src/platform/mpfs_hal/common/nwc/mss_ddr_debug.c ****         {
 939              		.loc 1 684 9
 940 0088 FD17     		addi	a5,a5,-1
 941 008a 6367FB00 		bgtu	a5,s6,.L71
 942 008e 8A07     		slli	a5,a5,2
 943 0090 D697     		add	a5,a5,s5
 944 0092 9C43     		lw	a5,0(a5)
 945 0094 D697     		add	a5,a5,s5
 946 0096 8287     		jr	a5
 947              		.section	.rodata.load_ddr_pattern,"a",@progbits
 948              		.align	2
 949              		.align	2
 950              	.L73:
 951 0000 00000000 		.word	.L75-.L73
 952 0004 00000000 		.word	.L74-.L73
 953 0008 00000000 		.word	.L72-.L73
 954 000c 00000000 		.word	.L71-.L73
 955 0010 00000000 		.word	.L75-.L73
 956 0014 00000000 		.word	.L74-.L73
 957 0018 00000000 		.word	.L72-.L73
 958              		.section	.text.load_ddr_pattern
 959              	.L71:
 688:../src/platform/mpfs_hal/common/nwc/mss_ddr_debug.c ****                 pdma_transfer((uint64_t)p_ddr, (uint64_t)ddr_test_pattern, pattern_length, PDMA_CHA
 960              		.loc 1 688 17 is_stmt 1
 961 0098 37050003 		li	a0,50331648
 962 009c 97000000 		call	pdma_transfer_complete
 962      E7800000 
 963              	.LVL102:
 689:../src/platform/mpfs_hal/common/nwc/mss_ddr_debug.c ****                 break;
 964              		.loc 1 689 17
 965 00a4 B7060003 		li	a3,50331648
 966              	.L79:
 704:../src/platform/mpfs_hal/common/nwc/mss_ddr_debug.c ****                 break;
 967              		.loc 1 704 17 is_stmt 0
 968 00a8 2685     		mv	a0,s1
 969 00aa 2286     		mv	a2,s0
 970 00ac CA85     		mv	a1,s2
 971 00ae 97000000 		call	pdma_transfer
 971      E7800000 
 972              	.LVL103:
 705:../src/platform/mpfs_hal/common/nwc/mss_ddr_debug.c ****         }
 973              		.loc 1 705 17 is_stmt 1
 708:../src/platform/mpfs_hal/common/nwc/mss_ddr_debug.c ****         alive++;
 974              		.loc 1 708 9
 708:../src/platform/mpfs_hal/common/nwc/mss_ddr_debug.c ****         alive++;
 975              		.loc 1 708 15 is_stmt 0
 976 00b6 D284     		mv	s1,s4
 977              	.LVL104:
 709:../src/platform/mpfs_hal/common/nwc/mss_ddr_debug.c ****         if (alive > 1000)
 978              		.loc 1 709 9 is_stmt 1
 710:../src/platform/mpfs_hal/common/nwc/mss_ddr_debug.c ****         {
 979              		.loc 1 710 9
 980 00b8 49B7     		j	.L70
 981              	.L75:
 693:../src/platform/mpfs_hal/common/nwc/mss_ddr_debug.c ****                 pdma_transfer((uint64_t)p_ddr, (uint64_t)ddr_test_pattern, pattern_length, PDMA_CHA
 982              		.loc 1 693 17
 983 00ba 37150003 		li	a0,50335744
 984 00be 97000000 		call	pdma_transfer_complete
 984      E7800000 
 985              	.LVL105:
 694:../src/platform/mpfs_hal/common/nwc/mss_ddr_debug.c ****                 break;
 986              		.loc 1 694 17
 987 00c6 B7160003 		li	a3,50335744
 988 00ca F9BF     		j	.L79
 989              	.L74:
 698:../src/platform/mpfs_hal/common/nwc/mss_ddr_debug.c ****                 pdma_transfer((uint64_t)p_ddr, (uint64_t)ddr_test_pattern, pattern_length, PDMA_CHA
 990              		.loc 1 698 17
 991 00cc 37250003 		li	a0,50339840
 992 00d0 97000000 		call	pdma_transfer_complete
 992      E7800000 
 993              	.LVL106:
 699:../src/platform/mpfs_hal/common/nwc/mss_ddr_debug.c ****                 break;
 994              		.loc 1 699 17
 995 00d8 B7260003 		li	a3,50339840
 996 00dc F1B7     		j	.L79
 997              	.L72:
 703:../src/platform/mpfs_hal/common/nwc/mss_ddr_debug.c ****                 pdma_transfer((uint64_t)p_ddr, (uint64_t)ddr_test_pattern, pattern_length, PDMA_CHA
 998              		.loc 1 703 17
 999 00de 37350003 		li	a0,50343936
 1000 00e2 97000000 		call	pdma_transfer_complete
 1000      E7800000 
 1001              	.LVL107:
 704:../src/platform/mpfs_hal/common/nwc/mss_ddr_debug.c ****                 break;
 1002              		.loc 1 704 17
 1003 00ea B7360003 		li	a3,50343936
 1004 00ee 6DBF     		j	.L79
 1005              		.cfi_endproc
 1006              	.LFE27:
 1008              		.section	.text.execute_ddr_pattern,"ax",@progbits
 1009              		.align	1
 1010              		.globl	execute_ddr_pattern
 1012              	execute_ddr_pattern:
 1013              	.LFB28:
 728:../src/platform/mpfs_hal/common/nwc/mss_ddr_debug.c **** 
 729:../src/platform/mpfs_hal/common/nwc/mss_ddr_debug.c **** /**
 730:../src/platform/mpfs_hal/common/nwc/mss_ddr_debug.c ****  * Run from address
 731:../src/platform/mpfs_hal/common/nwc/mss_ddr_debug.c ****  * @param start_addr address to run from.
 732:../src/platform/mpfs_hal/common/nwc/mss_ddr_debug.c ****  */
 733:../src/platform/mpfs_hal/common/nwc/mss_ddr_debug.c **** void execute_ddr_pattern(uint64_t start_addr)
 734:../src/platform/mpfs_hal/common/nwc/mss_ddr_debug.c **** {
 1014              		.loc 1 734 1
 1015              		.cfi_startproc
 1016              	.LVL108:
 735:../src/platform/mpfs_hal/common/nwc/mss_ddr_debug.c ****     pattern_fct_t p_pattern_fct = (pattern_fct_t)start_addr;
 1017              		.loc 1 735 5
 736:../src/platform/mpfs_hal/common/nwc/mss_ddr_debug.c **** 
 737:../src/platform/mpfs_hal/common/nwc/mss_ddr_debug.c ****     (*p_pattern_fct)();
 1018              		.loc 1 737 5
 1019              		.loc 1 737 6 is_stmt 0
 1020 0000 2A83     		mv	t1,a0
 1021 0002 0283     		jr	t1
 1022              	.LVL109:
 1023              		.cfi_endproc
 1024              	.LFE28:
 1026              		.section	.text.test_ddr,"ax",@progbits
 1027              		.align	1
 1028              		.globl	test_ddr
 1030              	test_ddr:
 1031              	.LFB30:
 738:../src/platform/mpfs_hal/common/nwc/mss_ddr_debug.c **** }
 739:../src/platform/mpfs_hal/common/nwc/mss_ddr_debug.c **** 
 740:../src/platform/mpfs_hal/common/nwc/mss_ddr_debug.c **** /**
 741:../src/platform/mpfs_hal/common/nwc/mss_ddr_debug.c ****  * Loads DDR with a pattern that triggers read issues if not enough margin.
 742:../src/platform/mpfs_hal/common/nwc/mss_ddr_debug.c ****  * Used to verify training is successful.
 743:../src/platform/mpfs_hal/common/nwc/mss_ddr_debug.c ****  * @param p_cached_ddr
 744:../src/platform/mpfs_hal/common/nwc/mss_ddr_debug.c ****  * @param p_not_cached_ddr
 745:../src/platform/mpfs_hal/common/nwc/mss_ddr_debug.c ****  * @param length
 746:../src/platform/mpfs_hal/common/nwc/mss_ddr_debug.c ****  */
 747:../src/platform/mpfs_hal/common/nwc/mss_ddr_debug.c **** static void load_test_buffers(uint32_t * p_cached_ddr, uint32_t * p_not_cached_ddr, uint64_t length
 748:../src/platform/mpfs_hal/common/nwc/mss_ddr_debug.c **** {
 749:../src/platform/mpfs_hal/common/nwc/mss_ddr_debug.c ****     (void)length;
 750:../src/platform/mpfs_hal/common/nwc/mss_ddr_debug.c **** 
 751:../src/platform/mpfs_hal/common/nwc/mss_ddr_debug.c ****     pdma_transfer((uint64_t)g_test_buffer_cached, (uint64_t)p_cached_ddr, length,  PDMA_CHANNEL0_BA
 752:../src/platform/mpfs_hal/common/nwc/mss_ddr_debug.c ****     pdma_transfer((uint64_t)g_test_buffer_not_cached, (uint64_t)p_not_cached_ddr, length,  PDMA_CHA
 753:../src/platform/mpfs_hal/common/nwc/mss_ddr_debug.c ****     pdma_transfer_complete(PDMA_CHANNEL0_BASE_ADDRESS);
 754:../src/platform/mpfs_hal/common/nwc/mss_ddr_debug.c ****     pdma_transfer_complete(PDMA_CHANNEL1_BASE_ADDRESS);
 755:../src/platform/mpfs_hal/common/nwc/mss_ddr_debug.c **** }
 756:../src/platform/mpfs_hal/common/nwc/mss_ddr_debug.c **** 
 757:../src/platform/mpfs_hal/common/nwc/mss_ddr_debug.c **** /**
 758:../src/platform/mpfs_hal/common/nwc/mss_ddr_debug.c ****  * test_ddr reads from cached and non cached DDR and compares
 759:../src/platform/mpfs_hal/common/nwc/mss_ddr_debug.c ****  * @param no_of_iterations
 760:../src/platform/mpfs_hal/common/nwc/mss_ddr_debug.c ****  * @param size
 761:../src/platform/mpfs_hal/common/nwc/mss_ddr_debug.c ****  * @return returns 1 if compare fails
 762:../src/platform/mpfs_hal/common/nwc/mss_ddr_debug.c ****  */
 763:../src/platform/mpfs_hal/common/nwc/mss_ddr_debug.c **** uint32_t test_ddr(uint32_t no_of_iterations, uint32_t size)
 764:../src/platform/mpfs_hal/common/nwc/mss_ddr_debug.c **** {
 1032              		.loc 1 764 1 is_stmt 1
 1033              		.cfi_startproc
 1034              	.LVL110:
 765:../src/platform/mpfs_hal/common/nwc/mss_ddr_debug.c ****     uint32_t pattern_length = sizeof(ddr_test_pattern) - (3 * sizeof(uint32_t));
 1035              		.loc 1 765 5
 766:../src/platform/mpfs_hal/common/nwc/mss_ddr_debug.c ****     uint32_t * p_ddr_cached = (uint32_t *)0x80000000;
 1036              		.loc 1 766 5
 767:../src/platform/mpfs_hal/common/nwc/mss_ddr_debug.c ****     uint32_t * p_ddr_noncached = (uint32_t *)0x1400000000;
 1037              		.loc 1 767 5
 768:../src/platform/mpfs_hal/common/nwc/mss_ddr_debug.c ****     uint32_t word_offset;
 1038              		.loc 1 768 5
 769:../src/platform/mpfs_hal/common/nwc/mss_ddr_debug.c ****     uint32_t alive = 0;
 1039              		.loc 1 769 5
 770:../src/platform/mpfs_hal/common/nwc/mss_ddr_debug.c ****     uint32_t alive_idx = 0U;
 1040              		.loc 1 770 5
 771:../src/platform/mpfs_hal/common/nwc/mss_ddr_debug.c ****     uint32_t iteration = 0U;
 1041              		.loc 1 771 5
 772:../src/platform/mpfs_hal/common/nwc/mss_ddr_debug.c ****     uint32_t error = 0U;
 1042              		.loc 1 772 5
 773:../src/platform/mpfs_hal/common/nwc/mss_ddr_debug.c **** 
 774:../src/platform/mpfs_hal/common/nwc/mss_ddr_debug.c **** 
 775:../src/platform/mpfs_hal/common/nwc/mss_ddr_debug.c **** #ifdef DEBUG_DDR_INIT
 776:../src/platform/mpfs_hal/common/nwc/mss_ddr_debug.c ****     uprint(g_debug_uart, (const char*)"\r\nStarting ddr test\r\n");
 777:../src/platform/mpfs_hal/common/nwc/mss_ddr_debug.c **** #endif
 778:../src/platform/mpfs_hal/common/nwc/mss_ddr_debug.c ****     while(iteration < no_of_iterations)
 1043              		.loc 1 778 5
 764:../src/platform/mpfs_hal/common/nwc/mss_ddr_debug.c ****     uint32_t pattern_length = sizeof(ddr_test_pattern) - (3 * sizeof(uint32_t));
 1044              		.loc 1 764 1 is_stmt 0
 1045 0000 1D71     		addi	sp,sp,-96
 1046              		.cfi_def_cfa_offset 96
 1047 0002 4EFC     		sd	s3,56(sp)
 1048              		.cfi_offset 19, -40
 1049              	.LBB18:
 779:../src/platform/mpfs_hal/common/nwc/mss_ddr_debug.c ****     {
 780:../src/platform/mpfs_hal/common/nwc/mss_ddr_debug.c ****         int different = 0;
 781:../src/platform/mpfs_hal/common/nwc/mss_ddr_debug.c **** 
 782:../src/platform/mpfs_hal/common/nwc/mss_ddr_debug.c ****         load_test_buffers(p_ddr_cached, p_ddr_noncached, pattern_length);
 783:../src/platform/mpfs_hal/common/nwc/mss_ddr_debug.c **** 
 784:../src/platform/mpfs_hal/common/nwc/mss_ddr_debug.c ****         different = memcmp(g_test_buffer_cached, g_test_buffer_not_cached, pattern_length);
 785:../src/platform/mpfs_hal/common/nwc/mss_ddr_debug.c **** 
 786:../src/platform/mpfs_hal/common/nwc/mss_ddr_debug.c ****         if(different != 0)
 787:../src/platform/mpfs_hal/common/nwc/mss_ddr_debug.c ****         {
 788:../src/platform/mpfs_hal/common/nwc/mss_ddr_debug.c ****             for(word_offset = 0; word_offset < (pattern_length / sizeof(uint32_t)); word_offset++)
 789:../src/platform/mpfs_hal/common/nwc/mss_ddr_debug.c ****             {
 790:../src/platform/mpfs_hal/common/nwc/mss_ddr_debug.c ****                 if(g_test_buffer_cached[word_offset] != g_test_buffer_not_cached[word_offset])
 791:../src/platform/mpfs_hal/common/nwc/mss_ddr_debug.c ****                 {
 792:../src/platform/mpfs_hal/common/nwc/mss_ddr_debug.c **** #ifdef DEBUG_DDR_INIT
 793:../src/platform/mpfs_hal/common/nwc/mss_ddr_debug.c ****                     uprint64(g_debug_uart, "  Mismatch, 0x", (uint64_t)p_ddr_cached);
 794:../src/platform/mpfs_hal/common/nwc/mss_ddr_debug.c ****                     uprint32(g_debug_uart, "  offset:, 0x", (uint64_t)word_offset);
 795:../src/platform/mpfs_hal/common/nwc/mss_ddr_debug.c ****                     uprint64(g_debug_uart, "  address: 0x", (uint64_t)(p_ddr_cached + word_offset))
 796:../src/platform/mpfs_hal/common/nwc/mss_ddr_debug.c ****                     uprint32(g_debug_uart, "  expected (non-cached): 0x", g_test_buffer_not_cached[
 797:../src/platform/mpfs_hal/common/nwc/mss_ddr_debug.c ****                     uprint32(g_debug_uart, "  found  (cached): 0x", (uint64_t)g_test_buffer_cached[
 798:../src/platform/mpfs_hal/common/nwc/mss_ddr_debug.c ****                     uprint32(g_debug_uart, "  direct cached read: 0x", (uint32_t)*(p_ddr_cached + w
 799:../src/platform/mpfs_hal/common/nwc/mss_ddr_debug.c ****                     uprint32(g_debug_uart, "  direct non-cached read: 0x", (uint32_t)*(p_ddr_noncac
 800:../src/platform/mpfs_hal/common/nwc/mss_ddr_debug.c **** #endif
 801:../src/platform/mpfs_hal/common/nwc/mss_ddr_debug.c ****                     break;
 802:../src/platform/mpfs_hal/common/nwc/mss_ddr_debug.c ****                 }
 803:../src/platform/mpfs_hal/common/nwc/mss_ddr_debug.c ****             }
 804:../src/platform/mpfs_hal/common/nwc/mss_ddr_debug.c ****             error = 1U;
 805:../src/platform/mpfs_hal/common/nwc/mss_ddr_debug.c ****             return error;
 806:../src/platform/mpfs_hal/common/nwc/mss_ddr_debug.c ****         }
 807:../src/platform/mpfs_hal/common/nwc/mss_ddr_debug.c **** 
 808:../src/platform/mpfs_hal/common/nwc/mss_ddr_debug.c ****         if (((uint64_t)p_ddr_cached + ( 2 * pattern_length)) <  (LIBERO_SETTING_DDR_32_CACHE + size
 1050              		.loc 1 808 94
 1051 0004 B7090080 		li	s3,-2147483648
 1052 0008 BB89B900 		addw	s3,s3,a1
 1053              	.LBE18:
 764:../src/platform/mpfs_hal/common/nwc/mss_ddr_debug.c ****     uint32_t pattern_length = sizeof(ddr_test_pattern) - (3 * sizeof(uint32_t));
 1054              		.loc 1 764 1
 1055 000c A2E8     		sd	s0,80(sp)
 1056 000e A6E4     		sd	s1,72(sp)
 1057 0010 CAE0     		sd	s2,64(sp)
 1058 0012 5AF0     		sd	s6,32(sp)
 1059              		.cfi_offset 8, -16
 1060              		.cfi_offset 9, -24
 1061              		.cfi_offset 18, -32
 1062              		.cfi_offset 22, -64
 767:../src/platform/mpfs_hal/common/nwc/mss_ddr_debug.c ****     uint32_t word_offset;
 1063              		.loc 1 767 16
 1064 0014 9544     		li	s1,5
 766:../src/platform/mpfs_hal/common/nwc/mss_ddr_debug.c ****     uint32_t * p_ddr_noncached = (uint32_t *)0x1400000000;
 1065              		.loc 1 766 16
 1066 0016 0544     		li	s0,1
 1067              	.LBB23:
 1068              	.LBB19:
 1069              	.LBB20:
 751:../src/platform/mpfs_hal/common/nwc/mss_ddr_debug.c ****     pdma_transfer((uint64_t)g_test_buffer_not_cached, (uint64_t)p_not_cached_ddr, length,  PDMA_CHA
 1070              		.loc 1 751 5
 1071 0018 0569     		li	s2,4096
 1072              	.LBE20:
 1073              	.LBE19:
 1074              		.loc 1 808 94
 1075 001a 8219     		slli	s3,s3,32
 809:../src/platform/mpfs_hal/common/nwc/mss_ddr_debug.c ****         {
 810:../src/platform/mpfs_hal/common/nwc/mss_ddr_debug.c ****             p_ddr_cached += (pattern_length / sizeof(uint32_t));
 811:../src/platform/mpfs_hal/common/nwc/mss_ddr_debug.c ****             p_ddr_noncached += (pattern_length / sizeof(uint32_t));
 812:../src/platform/mpfs_hal/common/nwc/mss_ddr_debug.c ****         }
 813:../src/platform/mpfs_hal/common/nwc/mss_ddr_debug.c ****         else
 814:../src/platform/mpfs_hal/common/nwc/mss_ddr_debug.c ****         {
 815:../src/platform/mpfs_hal/common/nwc/mss_ddr_debug.c ****             p_ddr_cached = (uint32_t *)0x80000000;
 816:../src/platform/mpfs_hal/common/nwc/mss_ddr_debug.c ****             p_ddr_noncached = (uint32_t *)0x1400000000;
 817:../src/platform/mpfs_hal/common/nwc/mss_ddr_debug.c ****             iteration++;
 818:../src/platform/mpfs_hal/common/nwc/mss_ddr_debug.c **** #ifdef DEBUG_DDR_INIT
 819:../src/platform/mpfs_hal/common/nwc/mss_ddr_debug.c ****             uprint32(g_debug_uart, "  Iteration ", (uint64_t)(unsigned int)iteration);
 820:../src/platform/mpfs_hal/common/nwc/mss_ddr_debug.c **** #endif
 821:../src/platform/mpfs_hal/common/nwc/mss_ddr_debug.c ****         }
 822:../src/platform/mpfs_hal/common/nwc/mss_ddr_debug.c **** 
 823:../src/platform/mpfs_hal/common/nwc/mss_ddr_debug.c ****         alive++;
 824:../src/platform/mpfs_hal/common/nwc/mss_ddr_debug.c ****         if(alive > 10000U)
 1076              		.loc 1 824 11
 1077 001c 096B     		li	s6,8192
 1078              	.LBE23:
 764:../src/platform/mpfs_hal/common/nwc/mss_ddr_debug.c ****     uint32_t pattern_length = sizeof(ddr_test_pattern) - (3 * sizeof(uint32_t));
 1079              		.loc 1 764 1
 1080 001e 52F8     		sd	s4,48(sp)
 1081 0020 56F4     		sd	s5,40(sp)
 1082 0022 5EEC     		sd	s7,24(sp)
 1083 0024 62E8     		sd	s8,16(sp)
 1084 0026 66E4     		sd	s9,8(sp)
 1085 0028 86EC     		sd	ra,88(sp)
 1086              		.cfi_offset 20, -48
 1087              		.cfi_offset 21, -56
 1088              		.cfi_offset 23, -72
 1089              		.cfi_offset 24, -80
 1090              		.cfi_offset 25, -88
 1091              		.cfi_offset 1, -8
 764:../src/platform/mpfs_hal/common/nwc/mss_ddr_debug.c ****     uint32_t pattern_length = sizeof(ddr_test_pattern) - (3 * sizeof(uint32_t));
 1092              		.loc 1 764 1
 1093 002a AA8B     		mv	s7,a0
 771:../src/platform/mpfs_hal/common/nwc/mss_ddr_debug.c ****     uint32_t error = 0U;
 1094              		.loc 1 771 14
 1095 002c 814A     		li	s5,0
 769:../src/platform/mpfs_hal/common/nwc/mss_ddr_debug.c ****     uint32_t alive_idx = 0U;
 1096              		.loc 1 769 14
 1097 002e 014A     		li	s4,0
 767:../src/platform/mpfs_hal/common/nwc/mss_ddr_debug.c ****     uint32_t word_offset;
 1098              		.loc 1 767 16
 1099 0030 8A14     		slli	s1,s1,34
 766:../src/platform/mpfs_hal/common/nwc/mss_ddr_debug.c ****     uint32_t * p_ddr_noncached = (uint32_t *)0x1400000000;
 1100              		.loc 1 766 16
 1101 0032 7E04     		slli	s0,s0,31
 1102              	.LBB24:
 808:../src/platform/mpfs_hal/common/nwc/mss_ddr_debug.c ****         {
 1103              		.loc 1 808 37
 1104 0034 130C897E 		addi	s8,s2,2024
 808:../src/platform/mpfs_hal/common/nwc/mss_ddr_debug.c ****         {
 1105              		.loc 1 808 94
 1106 0038 93D90902 		srli	s3,s3,32
 1107              		.loc 1 824 11
 1108 003c 130B0B71 		addi	s6,s6,1808
 825:../src/platform/mpfs_hal/common/nwc/mss_ddr_debug.c ****         {
 826:../src/platform/mpfs_hal/common/nwc/mss_ddr_debug.c ****             alive = 0;
 827:../src/platform/mpfs_hal/common/nwc/mss_ddr_debug.c **** #ifdef DEBUG_DDR_INIT
 828:../src/platform/mpfs_hal/common/nwc/mss_ddr_debug.c ****             uprint(g_debug_uart, (const char*)"\r");
 829:../src/platform/mpfs_hal/common/nwc/mss_ddr_debug.c ****             uprint(g_debug_uart, (const char*)progress[alive_idx]);
 830:../src/platform/mpfs_hal/common/nwc/mss_ddr_debug.c **** #endif
 831:../src/platform/mpfs_hal/common/nwc/mss_ddr_debug.c ****             alive_idx++;
 832:../src/platform/mpfs_hal/common/nwc/mss_ddr_debug.c ****             if(alive_idx >= 3U)
 833:../src/platform/mpfs_hal/common/nwc/mss_ddr_debug.c ****             {
 834:../src/platform/mpfs_hal/common/nwc/mss_ddr_debug.c ****                 alive_idx = 0;
 835:../src/platform/mpfs_hal/common/nwc/mss_ddr_debug.c ****             }
 836:../src/platform/mpfs_hal/common/nwc/mss_ddr_debug.c ****             if(ddr_test == 2U)
 1109              		.loc 1 836 25
 1110 0040 970C0000 		lla	s9,ddr_test
 1110      938C0C00 
 1111              	.LVL111:
 1112              	.L82:
 1113              	.LBE24:
 778:../src/platform/mpfs_hal/common/nwc/mss_ddr_debug.c ****     {
 1114              		.loc 1 778 10
 1115 0048 63F77A09 		bgeu	s5,s7,.L88
 1116              	.LBB25:
 780:../src/platform/mpfs_hal/common/nwc/mss_ddr_debug.c **** 
 1117              		.loc 1 780 9 is_stmt 1
 1118              	.LVL112:
 782:../src/platform/mpfs_hal/common/nwc/mss_ddr_debug.c **** 
 1119              		.loc 1 782 9
 1120              	.LBB22:
 1121              	.LBB21:
 749:../src/platform/mpfs_hal/common/nwc/mss_ddr_debug.c **** 
 1122              		.loc 1 749 5
 751:../src/platform/mpfs_hal/common/nwc/mss_ddr_debug.c ****     pdma_transfer((uint64_t)g_test_buffer_not_cached, (uint64_t)p_not_cached_ddr, length,  PDMA_CHA
 1123              		.loc 1 751 5
 1124 004c B7060003 		li	a3,50331648
 1125 0050 130649BF 		addi	a2,s2,-1036
 1126 0054 A285     		mv	a1,s0
 1127 0056 17050000 		lla	a0,g_test_buffer_cached
 1127      13050500 
 1128 005e 97000000 		call	pdma_transfer
 1128      E7800000 
 1129              	.LVL113:
 752:../src/platform/mpfs_hal/common/nwc/mss_ddr_debug.c ****     pdma_transfer_complete(PDMA_CHANNEL0_BASE_ADDRESS);
 1130              		.loc 1 752 5
 1131 0066 130649BF 		addi	a2,s2,-1036
 1132 006a A685     		mv	a1,s1
 1133 006c B7160003 		li	a3,50335744
 1134 0070 17050000 		lla	a0,g_test_buffer_not_cached
 1134      13050500 
 1135 0078 97000000 		call	pdma_transfer
 1135      E7800000 
 1136              	.LVL114:
 753:../src/platform/mpfs_hal/common/nwc/mss_ddr_debug.c ****     pdma_transfer_complete(PDMA_CHANNEL1_BASE_ADDRESS);
 1137              		.loc 1 753 5
 1138 0080 37050003 		li	a0,50331648
 1139 0084 97000000 		call	pdma_transfer_complete
 1139      E7800000 
 1140              	.LVL115:
 754:../src/platform/mpfs_hal/common/nwc/mss_ddr_debug.c **** }
 1141              		.loc 1 754 5
 1142 008c 37150003 		li	a0,50335744
 1143 0090 97000000 		call	pdma_transfer_complete
 1143      E7800000 
 1144              	.LVL116:
 1145              	.LBE21:
 1146              	.LBE22:
 784:../src/platform/mpfs_hal/common/nwc/mss_ddr_debug.c **** 
 1147              		.loc 1 784 9
 784:../src/platform/mpfs_hal/common/nwc/mss_ddr_debug.c **** 
 1148              		.loc 1 784 21 is_stmt 0
 1149 0098 130649BF 		addi	a2,s2,-1036
 1150 009c 97050000 		lla	a1,g_test_buffer_not_cached
 1150      93850500 
 1151 00a4 17050000 		lla	a0,g_test_buffer_cached
 1151      13050500 
 1152 00ac 97000000 		call	memcmp
 1152      E7800000 
 1153              	.LVL117:
 786:../src/platform/mpfs_hal/common/nwc/mss_ddr_debug.c ****         {
 1154              		.loc 1 786 9 is_stmt 1
 786:../src/platform/mpfs_hal/common/nwc/mss_ddr_debug.c ****         {
 1155              		.loc 1 786 11 is_stmt 0
 1156 00b4 39E5     		bne	a0,zero,.L89
 808:../src/platform/mpfs_hal/common/nwc/mss_ddr_debug.c ****         {
 1157              		.loc 1 808 9 is_stmt 1
 808:../src/platform/mpfs_hal/common/nwc/mss_ddr_debug.c ****         {
 1158              		.loc 1 808 37 is_stmt 0
 1159 00b6 B3078401 		add	a5,s0,s8
 808:../src/platform/mpfs_hal/common/nwc/mss_ddr_debug.c ****         {
 1160              		.loc 1 808 12
 1161 00ba 63FC3703 		bgeu	a5,s3,.L84
 810:../src/platform/mpfs_hal/common/nwc/mss_ddr_debug.c ****             p_ddr_noncached += (pattern_length / sizeof(uint32_t));
 1162              		.loc 1 810 13 is_stmt 1
 810:../src/platform/mpfs_hal/common/nwc/mss_ddr_debug.c ****             p_ddr_noncached += (pattern_length / sizeof(uint32_t));
 1163              		.loc 1 810 26 is_stmt 0
 1164 00be 930749BF 		addi	a5,s2,-1036
 1165 00c2 3E94     		add	s0,s0,a5
 1166              	.LVL118:
 811:../src/platform/mpfs_hal/common/nwc/mss_ddr_debug.c ****         }
 1167              		.loc 1 811 13 is_stmt 1
 811:../src/platform/mpfs_hal/common/nwc/mss_ddr_debug.c ****         }
 1168              		.loc 1 811 29 is_stmt 0
 1169 00c4 BE94     		add	s1,s1,a5
 1170              	.LVL119:
 1171              	.L85:
 823:../src/platform/mpfs_hal/common/nwc/mss_ddr_debug.c ****         if(alive > 10000U)
 1172              		.loc 1 823 9 is_stmt 1
 823:../src/platform/mpfs_hal/common/nwc/mss_ddr_debug.c ****         if(alive > 10000U)
 1173              		.loc 1 823 14 is_stmt 0
 1174 00c6 052A     		addiw	s4,s4,1
 1175              	.LVL120:
 824:../src/platform/mpfs_hal/common/nwc/mss_ddr_debug.c ****         {
 1176              		.loc 1 824 9 is_stmt 1
 824:../src/platform/mpfs_hal/common/nwc/mss_ddr_debug.c ****         {
 1177              		.loc 1 824 11 is_stmt 0
 1178 00c8 E3704BF9 		bleu	s4,s6,.L82
 826:../src/platform/mpfs_hal/common/nwc/mss_ddr_debug.c **** #ifdef DEBUG_DDR_INIT
 1179              		.loc 1 826 13 is_stmt 1
 1180              	.LVL121:
 831:../src/platform/mpfs_hal/common/nwc/mss_ddr_debug.c ****             if(alive_idx >= 3U)
 1181              		.loc 1 831 13
 832:../src/platform/mpfs_hal/common/nwc/mss_ddr_debug.c ****             {
 1182              		.loc 1 832 13
 1183              		.loc 1 836 13
 1184              		.loc 1 836 15 is_stmt 0
 1185 00cc 03B70C00 		ld	a4,0(s9)
 1186 00d0 8947     		li	a5,2
 1187 00d2 6316F702 		bne	a4,a5,.L90
 1188              	.LVL122:
 1189              	.L88:
 837:../src/platform/mpfs_hal/common/nwc/mss_ddr_debug.c ****             {
 838:../src/platform/mpfs_hal/common/nwc/mss_ddr_debug.c **** #ifdef DEBUG_DDR_INIT
 839:../src/platform/mpfs_hal/common/nwc/mss_ddr_debug.c ****             uprint(g_debug_uart, (const char*)"\r\nEnding ddr test. Press 0 to display the menu\r\n
 840:../src/platform/mpfs_hal/common/nwc/mss_ddr_debug.c **** #endif
 841:../src/platform/mpfs_hal/common/nwc/mss_ddr_debug.c ****                 return error;
 1190              		.loc 1 841 24
 1191 00d6 0145     		li	a0,0
 1192              	.L83:
 1193              	.LBE25:
 842:../src/platform/mpfs_hal/common/nwc/mss_ddr_debug.c ****             }
 843:../src/platform/mpfs_hal/common/nwc/mss_ddr_debug.c ****         }
 844:../src/platform/mpfs_hal/common/nwc/mss_ddr_debug.c ****     }
 845:../src/platform/mpfs_hal/common/nwc/mss_ddr_debug.c ****     return error;
 846:../src/platform/mpfs_hal/common/nwc/mss_ddr_debug.c **** }
 1194              		.loc 1 846 1
 1195 00d8 E660     		ld	ra,88(sp)
 1196              		.cfi_remember_state
 1197              		.cfi_restore 1
 1198 00da 4664     		ld	s0,80(sp)
 1199              		.cfi_restore 8
 1200              	.LVL123:
 1201 00dc A664     		ld	s1,72(sp)
 1202              		.cfi_restore 9
 1203              	.LVL124:
 1204 00de 0669     		ld	s2,64(sp)
 1205              		.cfi_restore 18
 1206 00e0 E279     		ld	s3,56(sp)
 1207              		.cfi_restore 19
 1208 00e2 427A     		ld	s4,48(sp)
 1209              		.cfi_restore 20
 1210 00e4 A27A     		ld	s5,40(sp)
 1211              		.cfi_restore 21
 1212              	.LVL125:
 1213 00e6 027B     		ld	s6,32(sp)
 1214              		.cfi_restore 22
 1215 00e8 E26B     		ld	s7,24(sp)
 1216              		.cfi_restore 23
 1217 00ea 426C     		ld	s8,16(sp)
 1218              		.cfi_restore 24
 1219 00ec A26C     		ld	s9,8(sp)
 1220              		.cfi_restore 25
 1221 00ee 2561     		addi	sp,sp,96
 1222              		.cfi_def_cfa_offset 0
 1223 00f0 8280     		jr	ra
 1224              	.LVL126:
 1225              	.L84:
 1226              		.cfi_restore_state
 1227              	.LBB26:
 815:../src/platform/mpfs_hal/common/nwc/mss_ddr_debug.c ****             p_ddr_noncached = (uint32_t *)0x1400000000;
 1228              		.loc 1 815 13 is_stmt 1
 816:../src/platform/mpfs_hal/common/nwc/mss_ddr_debug.c ****             iteration++;
 1229              		.loc 1 816 13
 817:../src/platform/mpfs_hal/common/nwc/mss_ddr_debug.c **** #ifdef DEBUG_DDR_INIT
 1230              		.loc 1 817 13
 816:../src/platform/mpfs_hal/common/nwc/mss_ddr_debug.c ****             iteration++;
 1231              		.loc 1 816 29 is_stmt 0
 1232 00f2 9544     		li	s1,5
 815:../src/platform/mpfs_hal/common/nwc/mss_ddr_debug.c ****             p_ddr_noncached = (uint32_t *)0x1400000000;
 1233              		.loc 1 815 26
 1234 00f4 0544     		li	s0,1
 817:../src/platform/mpfs_hal/common/nwc/mss_ddr_debug.c **** #ifdef DEBUG_DDR_INIT
 1235              		.loc 1 817 22
 1236 00f6 852A     		addiw	s5,s5,1
 1237              	.LVL127:
 816:../src/platform/mpfs_hal/common/nwc/mss_ddr_debug.c ****             iteration++;
 1238              		.loc 1 816 29
 1239 00f8 8A14     		slli	s1,s1,34
 815:../src/platform/mpfs_hal/common/nwc/mss_ddr_debug.c ****             p_ddr_noncached = (uint32_t *)0x1400000000;
 1240              		.loc 1 815 26
 1241 00fa 7E04     		slli	s0,s0,31
 1242 00fc E9B7     		j	.L85
 1243              	.LVL128:
 1244              	.L90:
 826:../src/platform/mpfs_hal/common/nwc/mss_ddr_debug.c **** #ifdef DEBUG_DDR_INIT
 1245              		.loc 1 826 19
 1246 00fe 014A     		li	s4,0
 1247 0100 A1B7     		j	.L82
 1248              	.LVL129:
 1249              	.L89:
 805:../src/platform/mpfs_hal/common/nwc/mss_ddr_debug.c ****         }
 1250              		.loc 1 805 20
 1251 0102 0545     		li	a0,1
 1252              	.LVL130:
 1253 0104 D1BF     		j	.L83
 1254              	.LBE26:
 1255              		.cfi_endproc
 1256              	.LFE30:
 1258              		.comm	ddr_test,8,8
 1259              		.globl	progress
 1260              		.section	.bss.g_test_buffer_cached,"aw",@nobits
 1261              		.align	3
 1264              	g_test_buffer_cached:
 1265 0000 00000000 		.zero	3060
 1265      00000000 
 1265      00000000 
 1265      00000000 
 1265      00000000 
 1266              		.section	.bss.g_test_buffer_not_cached,"aw",@nobits
 1267              		.align	3
 1270              	g_test_buffer_not_cached:
 1271 0000 00000000 		.zero	3060
 1271      00000000 
 1271      00000000 
 1271      00000000 
 1271      00000000 
 1272              		.section	.data.progress,"aw"
 1273              		.align	3
 1276              	progress:
 1277 0000 00000000 		.dword	.LC2
 1277      00000000 
 1278 0008 00000000 		.dword	.LC3
 1278      00000000 
 1279 0010 00000000 		.dword	.LC4
 1279      00000000 
 1280              		.section	.rodata.ddr_write.cst8,"aM",@progbits,8
 1281              		.align	3
 1282              	.LC0:
 1283 0000 55555555 		.dword	6148914691236517205
 1283      55555555 
 1284              	.LC1:
 1285 0008 CCCCCCCC 		.dword	-3689348814741910324
 1285      CCCCCCCC 
 1286              		.section	.rodata.str1.8,"aMS",@progbits,1
 1287              		.align	3
 1288              	.LC2:
 1289 0000 7C0D00   		.string	"|\r"
 1290 0003 00000000 		.zero	5
 1290      00
 1291              	.LC3:
 1292 0008 2F0D00   		.string	"/\r"
 1293 000b 00000000 		.zero	5
 1293      00
 1294              	.LC4:
 1295 0010 2D0D00   		.string	"-\r"
 1296              		.text
 1297              	.Letext0:
 1298              		.file 3 "/home/vinay/Desktop/soft_console/SoftConsole-v2022.2-RISC-V-747/riscv-unknown-elf-gcc/ris
 1299              		.file 4 "/home/vinay/Desktop/soft_console/SoftConsole-v2022.2-RISC-V-747/riscv-unknown-elf-gcc/lib
 1300              		.file 5 "/home/vinay/Desktop/soft_console/SoftConsole-v2022.2-RISC-V-747/riscv-unknown-elf-gcc/ris
 1301              		.file 6 "/home/vinay/Desktop/soft_console/SoftConsole-v2022.2-RISC-V-747/riscv-unknown-elf-gcc/ris
 1302              		.file 7 "/home/vinay/Desktop/soft_console/SoftConsole-v2022.2-RISC-V-747/riscv-unknown-elf-gcc/ris
 1303              		.file 8 "/home/vinay/Desktop/soft_console/SoftConsole-v2022.2-RISC-V-747/riscv-unknown-elf-gcc/ris
 1304              		.file 9 "/home/vinay/Desktop/soft_console/SoftConsole-v2022.2-RISC-V-747/riscv-unknown-elf-gcc/ris
 1305              		.file 10 "/home/vinay/Desktop/softconsole_watershed/Water-shed/src/platform/mpfs_hal/common/nwc/ms
 1306              		.file 11 "/home/vinay/Desktop/softconsole_watershed/Water-shed/src/platform/mpfs_hal/common/nwc/ms
 1307              		.file 12 "/home/vinay/Desktop/softconsole_watershed/Water-shed/src/platform/mpfs_hal/common/nwc/ms
 1308              		.file 13 "/home/vinay/Desktop/softconsole_watershed/Water-shed/src/platform/mpfs_hal/common/mss_mp
 1309              		.file 14 "/home/vinay/Desktop/softconsole_watershed/Water-shed/src/platform/mpfs_hal/common/mss_pl
 1310              		.file 15 "/home/vinay/Desktop/softconsole_watershed/Water-shed/src/platform/mpfs_hal/startup_gcc/s
 1311              		.file 16 "/home/vinay/Desktop/softconsole_watershed/Water-shed/src/platform/mpfs_hal/common/nwc/ms
 1312              		.file 17 "/home/vinay/Desktop/soft_console/SoftConsole-v2022.2-RISC-V-747/riscv-unknown-elf-gcc/ri