   1              		.file	"mss_pll.c"
   2              		.option nopic
   3              		.attribute arch, "rv64i2p0_m2p0_a2p0_f2p0_d2p0_c2p0"
   4              		.attribute unaligned_access, 0
   5              		.attribute stack_align, 16
   6              		.text
   7              	.Ltext0:
   8              		.cfi_sections	.debug_frame
   9              		.section	.text.set_RTC_divisor,"ax",@progbits
  10              		.align	1
  11              		.globl	set_RTC_divisor
  13              	set_RTC_divisor:
  14              	.LFB19:
  15              		.file 1 "../src/platform/mpfs_hal/common/nwc/mss_pll.c"
   1:../src/platform/mpfs_hal/common/nwc/mss_pll.c **** /*******************************************************************************
   2:../src/platform/mpfs_hal/common/nwc/mss_pll.c ****  * Copyright 2019-2022 Microchip FPGA Embedded Systems Solutions.
   3:../src/platform/mpfs_hal/common/nwc/mss_pll.c ****  *
   4:../src/platform/mpfs_hal/common/nwc/mss_pll.c ****  * SPDX-License-Identifier: MIT
   5:../src/platform/mpfs_hal/common/nwc/mss_pll.c ****  *
   6:../src/platform/mpfs_hal/common/nwc/mss_pll.c ****  * MPFS HAL Embedded Software
   7:../src/platform/mpfs_hal/common/nwc/mss_pll.c ****  *
   8:../src/platform/mpfs_hal/common/nwc/mss_pll.c ****  */
   9:../src/platform/mpfs_hal/common/nwc/mss_pll.c **** 
  10:../src/platform/mpfs_hal/common/nwc/mss_pll.c **** /*******************************************************************************
  11:../src/platform/mpfs_hal/common/nwc/mss_pll.c ****  * @file mss_pll.c
  12:../src/platform/mpfs_hal/common/nwc/mss_pll.c ****  * @author Microchip-FPGA Embedded Systems Solutions
  13:../src/platform/mpfs_hal/common/nwc/mss_pll.c ****  * @brief MPSS PLL setup
  14:../src/platform/mpfs_hal/common/nwc/mss_pll.c ****  *
  15:../src/platform/mpfs_hal/common/nwc/mss_pll.c ****  */
  16:../src/platform/mpfs_hal/common/nwc/mss_pll.c **** 
  17:../src/platform/mpfs_hal/common/nwc/mss_pll.c **** #include "mpfs_hal/mss_hal.h"
  18:../src/platform/mpfs_hal/common/nwc/mss_pll.c **** #include "mss_pll.h"
  19:../src/platform/mpfs_hal/common/nwc/mss_pll.c **** 
  20:../src/platform/mpfs_hal/common/nwc/mss_pll.c **** /**
  21:../src/platform/mpfs_hal/common/nwc/mss_pll.c ****  * We do it this way to avoid multiple LDRA warnings
  22:../src/platform/mpfs_hal/common/nwc/mss_pll.c ****  * alternate it to
  23:../src/platform/mpfs_hal/common/nwc/mss_pll.c ****  * #define MSS_SCB_MSS_PLL      (IOSCB_CFM_MSS *) )x7xxxxxxx    The actual
  24:../src/platform/mpfs_hal/common/nwc/mss_pll.c ****  * address * but above results in error every time we use the function
  25:../src/platform/mpfs_hal/common/nwc/mss_pll.c ****  */
  26:../src/platform/mpfs_hal/common/nwc/mss_pll.c **** 
  27:../src/platform/mpfs_hal/common/nwc/mss_pll.c **** PLL_TypeDef * const MSS_SCB_MSS_PLL = ((PLL_TypeDef *) MSS_SCB_MSS_PLL_BASE);
  28:../src/platform/mpfs_hal/common/nwc/mss_pll.c **** PLL_TypeDef * const MSS_SCB_DDR_PLL = ((PLL_TypeDef *) MSS_SCB_DDR_PLL_BASE);
  29:../src/platform/mpfs_hal/common/nwc/mss_pll.c **** PLL_TypeDef * const MSS_SCB_SGMII_PLL = ((PLL_TypeDef *) MSS_SCB_SGMII_PLL_BASE);
  30:../src/platform/mpfs_hal/common/nwc/mss_pll.c **** IOSCB_CFM_MSS * const MSS_SCB_CFM_MSS_MUX          =\
  31:../src/platform/mpfs_hal/common/nwc/mss_pll.c ****         ((IOSCB_CFM_MSS *) MSS_SCB_MSS_MUX_BASE);
  32:../src/platform/mpfs_hal/common/nwc/mss_pll.c **** IOSCB_CFM_SGMII * const MSS_SCB_CFM_SGMII_MUX =\
  33:../src/platform/mpfs_hal/common/nwc/mss_pll.c ****         ((IOSCB_CFM_SGMII *) MSS_SCB_SGMII_MUX_BASE);
  34:../src/platform/mpfs_hal/common/nwc/mss_pll.c **** IOSCB_IO_CALIB_STRUCT * const IOSCB_IO_CALIB_SGMII =\
  35:../src/platform/mpfs_hal/common/nwc/mss_pll.c ****         (IOSCB_IO_CALIB_STRUCT *)IOSCB_IO_CALIB_SGMII_BASE;
  36:../src/platform/mpfs_hal/common/nwc/mss_pll.c **** IOSCB_IO_CALIB_STRUCT * const IOSCB_IO_CALIB_DDR   =\
  37:../src/platform/mpfs_hal/common/nwc/mss_pll.c ****         (IOSCB_IO_CALIB_STRUCT *)IOSCB_IO_CALIB_DDR_BASE;
  38:../src/platform/mpfs_hal/common/nwc/mss_pll.c **** 
  39:../src/platform/mpfs_hal/common/nwc/mss_pll.c **** 
  40:../src/platform/mpfs_hal/common/nwc/mss_pll.c **** /*******************************************************************************-
  41:../src/platform/mpfs_hal/common/nwc/mss_pll.c ****  * Symbols from the linker script used to locate the text, data and bss
  42:../src/platform/mpfs_hal/common/nwc/mss_pll.c ****  * sections.
  43:../src/platform/mpfs_hal/common/nwc/mss_pll.c ****  ******************************************************************************/
  44:../src/platform/mpfs_hal/common/nwc/mss_pll.c **** #ifndef  MPFS_HAL_HW_CONFIG
  45:../src/platform/mpfs_hal/common/nwc/mss_pll.c **** uint32_t __sc_load;
  46:../src/platform/mpfs_hal/common/nwc/mss_pll.c **** uint32_t __sc_start;
  47:../src/platform/mpfs_hal/common/nwc/mss_pll.c **** uint32_t __sc_end;
  48:../src/platform/mpfs_hal/common/nwc/mss_pll.c **** #else
  49:../src/platform/mpfs_hal/common/nwc/mss_pll.c **** extern uint32_t __sc_load;
  50:../src/platform/mpfs_hal/common/nwc/mss_pll.c **** extern uint32_t __sc_start;
  51:../src/platform/mpfs_hal/common/nwc/mss_pll.c **** extern uint32_t __sc_end;
  52:../src/platform/mpfs_hal/common/nwc/mss_pll.c **** 
  53:../src/platform/mpfs_hal/common/nwc/mss_pll.c **** /*******************************************************************************
  54:../src/platform/mpfs_hal/common/nwc/mss_pll.c ****  * Local Defines                                                               *
  55:../src/platform/mpfs_hal/common/nwc/mss_pll.c ****  ******************************************************************************/
  56:../src/platform/mpfs_hal/common/nwc/mss_pll.c **** 
  57:../src/platform/mpfs_hal/common/nwc/mss_pll.c **** /*******************************************************************************
  58:../src/platform/mpfs_hal/common/nwc/mss_pll.c ****  * Local function declarations
  59:../src/platform/mpfs_hal/common/nwc/mss_pll.c ****  */
  60:../src/platform/mpfs_hal/common/nwc/mss_pll.c **** __attribute__((weak)) void copy_switch_code(void);
  61:../src/platform/mpfs_hal/common/nwc/mss_pll.c **** 
  62:../src/platform/mpfs_hal/common/nwc/mss_pll.c **** 
  63:../src/platform/mpfs_hal/common/nwc/mss_pll.c **** /*******************************************************************************
  64:../src/platform/mpfs_hal/common/nwc/mss_pll.c ****  * Instance definitions                                                        *
  65:../src/platform/mpfs_hal/common/nwc/mss_pll.c ****  ******************************************************************************/
  66:../src/platform/mpfs_hal/common/nwc/mss_pll.c **** 
  67:../src/platform/mpfs_hal/common/nwc/mss_pll.c **** void sgmii_mux_config(uint8_t option);
  68:../src/platform/mpfs_hal/common/nwc/mss_pll.c **** 
  69:../src/platform/mpfs_hal/common/nwc/mss_pll.c **** /*******************************************************************************
  70:../src/platform/mpfs_hal/common/nwc/mss_pll.c ****  Local functions                                 *
  71:../src/platform/mpfs_hal/common/nwc/mss_pll.c **** *******************************************************************************/
  72:../src/platform/mpfs_hal/common/nwc/mss_pll.c **** 
  73:../src/platform/mpfs_hal/common/nwc/mss_pll.c **** 
  74:../src/platform/mpfs_hal/common/nwc/mss_pll.c **** /***************************************************************************//**
  75:../src/platform/mpfs_hal/common/nwc/mss_pll.c ****  * set_RTC_divisor()
  76:../src/platform/mpfs_hal/common/nwc/mss_pll.c ****  * Set the RTC divisor based on MSS Configurator setting
  77:../src/platform/mpfs_hal/common/nwc/mss_pll.c ****  * Note: This will always be calculated so RTC clock is 1MHz.
  78:../src/platform/mpfs_hal/common/nwc/mss_pll.c ****  */
  79:../src/platform/mpfs_hal/common/nwc/mss_pll.c **** void set_RTC_divisor(void)
  80:../src/platform/mpfs_hal/common/nwc/mss_pll.c **** {
  16              		.loc 1 80 1
  17              		.cfi_startproc
  81:../src/platform/mpfs_hal/common/nwc/mss_pll.c **** 
  82:../src/platform/mpfs_hal/common/nwc/mss_pll.c ****     SYSREG->RTC_CLOCK_CR &= ~(0x01U<<16); /* disable RTC clock */
  18              		.loc 1 82 5
  19              		.loc 1 82 26 is_stmt 0
  20 0000 B7270020 		li	a5,536879104
  21 0004 D847     		lw	a4,12(a5)
  22 0006 C176     		li	a3,-65536
  23 0008 FD16     		addi	a3,a3,-1
  24 000a 0127     		sext.w	a4,a4
  25 000c 758F     		and	a4,a4,a3
  26 000e D8C7     		sw	a4,12(a5)
  83:../src/platform/mpfs_hal/common/nwc/mss_pll.c **** 
  84:../src/platform/mpfs_hal/common/nwc/mss_pll.c ****     SYSREG->RTC_CLOCK_CR = (LIBERO_SETTING_MSS_EXT_SGMII_REF_CLK / \
  27              		.loc 1 84 5 is_stmt 1
  28              		.loc 1 84 26 is_stmt 0
  29 0010 1307D007 		li	a4,125
  30 0014 D8C7     		sw	a4,12(a5)
  85:../src/platform/mpfs_hal/common/nwc/mss_pll.c ****             LIBERO_SETTING_MSS_RTC_TOGGLE_CLK);
  86:../src/platform/mpfs_hal/common/nwc/mss_pll.c **** 
  87:../src/platform/mpfs_hal/common/nwc/mss_pll.c ****     SYSREG->RTC_CLOCK_CR |= (0x01U<<16); /* enable RTC clock */
  31              		.loc 1 87 5 is_stmt 1
  32              		.loc 1 87 26 is_stmt 0
  33 0016 D847     		lw	a4,12(a5)
  34 0018 C166     		li	a3,65536
  35 001a 0127     		sext.w	a4,a4
  36 001c 558F     		or	a4,a4,a3
  37 001e D8C7     		sw	a4,12(a5)
  88:../src/platform/mpfs_hal/common/nwc/mss_pll.c **** 
  89:../src/platform/mpfs_hal/common/nwc/mss_pll.c **** }
  38              		.loc 1 89 1
  39 0020 8280     		ret
  40              		.cfi_endproc
  41              	.LFE19:
  43              		.section	.text.sgmii_mux_config,"ax",@progbits
  44              		.align	1
  45              		.globl	sgmii_mux_config
  47              	sgmii_mux_config:
  48              	.LFB22:
  90:../src/platform/mpfs_hal/common/nwc/mss_pll.c **** 
  91:../src/platform/mpfs_hal/common/nwc/mss_pll.c **** 
  92:../src/platform/mpfs_hal/common/nwc/mss_pll.c **** /***************************************************************************//**
  93:../src/platform/mpfs_hal/common/nwc/mss_pll.c ****  * mss_mux_pre_mss_pll_config()
  94:../src/platform/mpfs_hal/common/nwc/mss_pll.c ****  *
  95:../src/platform/mpfs_hal/common/nwc/mss_pll.c ****  * Feed through required reference clks to PLL, configure PLL and wait for lock
  96:../src/platform/mpfs_hal/common/nwc/mss_pll.c ****  ******************************************************************************/
  97:../src/platform/mpfs_hal/common/nwc/mss_pll.c **** static void mss_mux_pre_mss_pll_config(void)
  98:../src/platform/mpfs_hal/common/nwc/mss_pll.c **** {
  99:../src/platform/mpfs_hal/common/nwc/mss_pll.c ****     /*
 100:../src/platform/mpfs_hal/common/nwc/mss_pll.c ****      * PLL RF clk mux selections
 101:../src/platform/mpfs_hal/common/nwc/mss_pll.c ****      *  [31:15] Reserved
 102:../src/platform/mpfs_hal/common/nwc/mss_pll.c ****      *  [14:10] pll1_fdr_sel
 103:../src/platform/mpfs_hal/common/nwc/mss_pll.c ****      *  [9:8]   pll1_rfclk1_sel
 104:../src/platform/mpfs_hal/common/nwc/mss_pll.c ****      *  [7:6]   pll1_rfclk0_sel
 105:../src/platform/mpfs_hal/common/nwc/mss_pll.c ****      *  [5:4]   pll0_rfclk1_sel
 106:../src/platform/mpfs_hal/common/nwc/mss_pll.c ****      *  [3:2]   pll0_rfclk0_sel
 107:../src/platform/mpfs_hal/common/nwc/mss_pll.c ****      *  [1:0]   clk_in_mac_tsu_sel
 108:../src/platform/mpfs_hal/common/nwc/mss_pll.c ****      *
 109:../src/platform/mpfs_hal/common/nwc/mss_pll.c ****      *  Each mux uses 2 configuration bits. These are decoded as follows:
 110:../src/platform/mpfs_hal/common/nwc/mss_pll.c ****      *  00  vss
 111:../src/platform/mpfs_hal/common/nwc/mss_pll.c ****      *  01  refclk_p,refclk_n
 112:../src/platform/mpfs_hal/common/nwc/mss_pll.c ****      *  10  scb_clk
 113:../src/platform/mpfs_hal/common/nwc/mss_pll.c ****      *  10  serdes_refclk_crn_mss<0>, serdes_refclk_crn_mss<1>
 114:../src/platform/mpfs_hal/common/nwc/mss_pll.c ****      *
 115:../src/platform/mpfs_hal/common/nwc/mss_pll.c ****      *  e.g.
 116:../src/platform/mpfs_hal/common/nwc/mss_pll.c ****      *  PLL_CKMUX = 0x00000154
 117:../src/platform/mpfs_hal/common/nwc/mss_pll.c ****      *    pll0_rfclk0_sel = 1 => refclk_p is used for pll0 ref0 and refclk_n is
 118:../src/platform/mpfs_hal/common/nwc/mss_pll.c ****      *    fed to MSS PLL ref1
 119:../src/platform/mpfs_hal/common/nwc/mss_pll.c ****      */
 120:../src/platform/mpfs_hal/common/nwc/mss_pll.c ****     /* CFM_MSS 0x3E002000   - 0x08 */
 121:../src/platform/mpfs_hal/common/nwc/mss_pll.c ****     MSS_SCB_CFM_MSS_MUX->PLL_CKMUX = LIBERO_SETTING_MSS_PLL_CKMUX;
 122:../src/platform/mpfs_hal/common/nwc/mss_pll.c ****     /*
 123:../src/platform/mpfs_hal/common/nwc/mss_pll.c ****      * MSS Clock mux selections
 124:../src/platform/mpfs_hal/common/nwc/mss_pll.c ****      *  [31:5]  Reserved
 125:../src/platform/mpfs_hal/common/nwc/mss_pll.c ****      *  [4]     clk_standby_sel
 126:../src/platform/mpfs_hal/common/nwc/mss_pll.c ****      *  [3:2]   mssclk_mux_md
 127:../src/platform/mpfs_hal/common/nwc/mss_pll.c ****      *  step 7: 7)  MSS Processor writes mssclk_mux_sel_int<0>=1 to select the
 128:../src/platform/mpfs_hal/common/nwc/mss_pll.c ****      *  MSS PLL clock.
 129:../src/platform/mpfs_hal/common/nwc/mss_pll.c ****      *  [1:0]   mssclk_mux_sel        MSS glitchless mux select
 130:../src/platform/mpfs_hal/common/nwc/mss_pll.c ****      *                                      00 - msspll_fdr_0=clk_standby
 131:../src/platform/mpfs_hal/common/nwc/mss_pll.c ****      *                                           msspll_fdr_1=clk_standby
 132:../src/platform/mpfs_hal/common/nwc/mss_pll.c ****      *                                      01 - msspll_fdr_0=pllout0
 133:../src/platform/mpfs_hal/common/nwc/mss_pll.c ****      *                                           msspll_fdr_1=clk_standby
 134:../src/platform/mpfs_hal/common/nwc/mss_pll.c ****      *                                      10 - msspll_fdr_0=clk_standby
 135:../src/platform/mpfs_hal/common/nwc/mss_pll.c ****      *                                           msspll_fdr_1=pllout1
 136:../src/platform/mpfs_hal/common/nwc/mss_pll.c ****      *                                      11 - msspll_fdr_0=pllout0
 137:../src/platform/mpfs_hal/common/nwc/mss_pll.c ****      *                                           msspll_fdr_1=pllout1
 138:../src/platform/mpfs_hal/common/nwc/mss_pll.c ****      *
 139:../src/platform/mpfs_hal/common/nwc/mss_pll.c ****      *
 140:../src/platform/mpfs_hal/common/nwc/mss_pll.c ****      */
 141:../src/platform/mpfs_hal/common/nwc/mss_pll.c ****     /*
 142:../src/platform/mpfs_hal/common/nwc/mss_pll.c ****      * We will not set as already set to 0, we feed through after we have setup
 143:../src/platform/mpfs_hal/common/nwc/mss_pll.c ****      * clock
 144:../src/platform/mpfs_hal/common/nwc/mss_pll.c ****      * MSS_SCB_CFM_MSS_MUX->MSSCLKMUX           = LIBERO_SETTING_MSS_MSSCLKMUX;
 145:../src/platform/mpfs_hal/common/nwc/mss_pll.c ****      */
 146:../src/platform/mpfs_hal/common/nwc/mss_pll.c **** 
 147:../src/platform/mpfs_hal/common/nwc/mss_pll.c ****     /*
 148:../src/platform/mpfs_hal/common/nwc/mss_pll.c ****      * Clock_Receiver
 149:../src/platform/mpfs_hal/common/nwc/mss_pll.c ****      *  [13]    en_rdiff
 150:../src/platform/mpfs_hal/common/nwc/mss_pll.c ****      *  [12]    clkbuf_en_pullup
 151:../src/platform/mpfs_hal/common/nwc/mss_pll.c ****      *  [11:10] en_rxmode_n
 152:../src/platform/mpfs_hal/common/nwc/mss_pll.c ****      *  [9:8]   en_term_n
 153:../src/platform/mpfs_hal/common/nwc/mss_pll.c ****      *  [7]     en_ins_hyst_n
 154:../src/platform/mpfs_hal/common/nwc/mss_pll.c ****      *  [6]     en_udrive_n
 155:../src/platform/mpfs_hal/common/nwc/mss_pll.c ****      *  [5:4]   en_rxmode_p
 156:../src/platform/mpfs_hal/common/nwc/mss_pll.c ****      *  [3:2]   en_term_p
 157:../src/platform/mpfs_hal/common/nwc/mss_pll.c ****      *  [1]     en_ins_hyst_p
 158:../src/platform/mpfs_hal/common/nwc/mss_pll.c ****      *  [0]     en_udrive_p
 159:../src/platform/mpfs_hal/common/nwc/mss_pll.c ****      */
 160:../src/platform/mpfs_hal/common/nwc/mss_pll.c ****     MSS_SCB_CFM_SGMII_MUX->CLK_XCVR         = LIBERO_SETTING_SGMII_CLK_XCVR;
 161:../src/platform/mpfs_hal/common/nwc/mss_pll.c **** 
 162:../src/platform/mpfs_hal/common/nwc/mss_pll.c ****     /*
 163:../src/platform/mpfs_hal/common/nwc/mss_pll.c ****      * 29:25    bclk5_sel
 164:../src/platform/mpfs_hal/common/nwc/mss_pll.c ****      * 24:20    bclk4_sel
 165:../src/platform/mpfs_hal/common/nwc/mss_pll.c ****      * 19:15    bclk3_sel
 166:../src/platform/mpfs_hal/common/nwc/mss_pll.c ****      * 14:10    bclk2_sel
 167:../src/platform/mpfs_hal/common/nwc/mss_pll.c ****      * 9:5  bclk1_sel
 168:../src/platform/mpfs_hal/common/nwc/mss_pll.c ****      * 4:0  bclk0_sel
 169:../src/platform/mpfs_hal/common/nwc/mss_pll.c ****      *
 170:../src/platform/mpfs_hal/common/nwc/mss_pll.c ****      * From SAC spec:
 171:../src/platform/mpfs_hal/common/nwc/mss_pll.c ****      * Table 9 1: Each gbim bank clock mux programming in MSS corner
 172:../src/platform/mpfs_hal/common/nwc/mss_pll.c ****      * The DDRPHY bank clocks bclk_horz<5:0> and bclk_vert<5:0> are driven
 173:../src/platform/mpfs_hal/common/nwc/mss_pll.c ****      * from mux's gbim<5:0> in the MSS corner. Each mux uses 5 configuration
 174:../src/platform/mpfs_hal/common/nwc/mss_pll.c ****      * bits.
 175:../src/platform/mpfs_hal/common/nwc/mss_pll.c ****      *
 176:../src/platform/mpfs_hal/common/nwc/mss_pll.c ****      * BCLK mux selections
 177:../src/platform/mpfs_hal/common/nwc/mss_pll.c ****      *  bclk0_sel=0x8 (pll0_out_1k<2> selected)
 178:../src/platform/mpfs_hal/common/nwc/mss_pll.c ****      *  bclk1_sel=0x10 (pll0_out_1k<3> selected)
 179:../src/platform/mpfs_hal/common/nwc/mss_pll.c ****      *  bclk2_sel=0x1 (vss selected)
 180:../src/platform/mpfs_hal/common/nwc/mss_pll.c ****      *  bclk3_sel=0x1 (vss selected)
 181:../src/platform/mpfs_hal/common/nwc/mss_pll.c ****      *  bclk4_sel=0x1 (vss selected)
 182:../src/platform/mpfs_hal/common/nwc/mss_pll.c ****      *  bclk5_sel=0x1 (vss selected)
 183:../src/platform/mpfs_hal/common/nwc/mss_pll.c ****      *
 184:../src/platform/mpfs_hal/common/nwc/mss_pll.c ****      */
 185:../src/platform/mpfs_hal/common/nwc/mss_pll.c ****     MSS_SCB_CFM_MSS_MUX->BCLKMUX        =   LIBERO_SETTING_MSS_BCLKMUX;
 186:../src/platform/mpfs_hal/common/nwc/mss_pll.c **** 
 187:../src/platform/mpfs_hal/common/nwc/mss_pll.c ****     /*  MSS_SCB_CFM_MSS_MUX->SPARE0         =   BCLKMUX_USER_CONFIG;       */
 188:../src/platform/mpfs_hal/common/nwc/mss_pll.c ****     MSS_SCB_CFM_MSS_MUX->FMETER_ADDR    =   LIBERO_SETTING_MSS_FMETER_ADDR;
 189:../src/platform/mpfs_hal/common/nwc/mss_pll.c **** 
 190:../src/platform/mpfs_hal/common/nwc/mss_pll.c ****     MSS_SCB_CFM_MSS_MUX->FMETER_DATAW   =   LIBERO_SETTING_MSS_FMETER_DATAW;
 191:../src/platform/mpfs_hal/common/nwc/mss_pll.c **** 
 192:../src/platform/mpfs_hal/common/nwc/mss_pll.c ****     MSS_SCB_CFM_MSS_MUX->FMETER_DATAR   =   LIBERO_SETTING_MSS_FMETER_DATAR;
 193:../src/platform/mpfs_hal/common/nwc/mss_pll.c **** 
 194:../src/platform/mpfs_hal/common/nwc/mss_pll.c ****     /*
 195:../src/platform/mpfs_hal/common/nwc/mss_pll.c ****      *
 196:../src/platform/mpfs_hal/common/nwc/mss_pll.c ****      */
 197:../src/platform/mpfs_hal/common/nwc/mss_pll.c ****     volatile uint32_t i;
 198:../src/platform/mpfs_hal/common/nwc/mss_pll.c ****     for(i = 0U; i < 400U; i++)
 199:../src/platform/mpfs_hal/common/nwc/mss_pll.c ****     {
 200:../src/platform/mpfs_hal/common/nwc/mss_pll.c ****         i++;
 201:../src/platform/mpfs_hal/common/nwc/mss_pll.c ****     }
 202:../src/platform/mpfs_hal/common/nwc/mss_pll.c **** }
 203:../src/platform/mpfs_hal/common/nwc/mss_pll.c **** 
 204:../src/platform/mpfs_hal/common/nwc/mss_pll.c **** 
 205:../src/platform/mpfs_hal/common/nwc/mss_pll.c **** /***************************************************************************//**
 206:../src/platform/mpfs_hal/common/nwc/mss_pll.c ****  * mss_mux_post_mss_pll_config(void)
 207:../src/platform/mpfs_hal/common/nwc/mss_pll.c ****  *
 208:../src/platform/mpfs_hal/common/nwc/mss_pll.c ****  * Once MSS locked, feed through to MSS
 209:../src/platform/mpfs_hal/common/nwc/mss_pll.c ****  * We must run this code from RAM, as we need to modify the clock of the eNVM
 210:../src/platform/mpfs_hal/common/nwc/mss_pll.c ****  * The first thing we do is change the eNVM clock, to prevent L1 cache accessing
 211:../src/platform/mpfs_hal/common/nwc/mss_pll.c ****  * eNVM as it will do as we approach the return instruction
 212:../src/platform/mpfs_hal/common/nwc/mss_pll.c ****  * The mb() makes sure order of processing is not changed by the compiler
 213:../src/platform/mpfs_hal/common/nwc/mss_pll.c ****  ******************************************************************************/
 214:../src/platform/mpfs_hal/common/nwc/mss_pll.c **** __attribute__((section(".ram_codetext"))) \
 215:../src/platform/mpfs_hal/common/nwc/mss_pll.c ****         static void mss_mux_post_mss_pll_config(void)
 216:../src/platform/mpfs_hal/common/nwc/mss_pll.c **** {
 217:../src/platform/mpfs_hal/common/nwc/mss_pll.c ****    /*
 218:../src/platform/mpfs_hal/common/nwc/mss_pll.c ****     * Modify the eNVM clock, so it now matches new MSS clock
 219:../src/platform/mpfs_hal/common/nwc/mss_pll.c ****     *
 220:../src/platform/mpfs_hal/common/nwc/mss_pll.c ****     * [5:0]
 221:../src/platform/mpfs_hal/common/nwc/mss_pll.c ****     * Sets the number of AHB cycles used to generate the PNVM clock,.
 222:../src/platform/mpfs_hal/common/nwc/mss_pll.c ****     * Clock period = (Value+1) * (1000/AHBFREQMHZ)
 223:../src/platform/mpfs_hal/common/nwc/mss_pll.c ****     * Value must be 1 to 63 (0 defaults to 15)
 224:../src/platform/mpfs_hal/common/nwc/mss_pll.c ****     * e.g.
 225:../src/platform/mpfs_hal/common/nwc/mss_pll.c ****     * 7 will generate a 40ns period 25MHz clock if the AHB clock is 200MHz
 226:../src/platform/mpfs_hal/common/nwc/mss_pll.c ****     * 11 will generate a 40ns period 25MHz clock if the AHB clock is 250MHz
 227:../src/platform/mpfs_hal/common/nwc/mss_pll.c ****     * 15 will generate a 40ns period 25MHz clock if the AHB clock is 400MHz
 228:../src/platform/mpfs_hal/common/nwc/mss_pll.c ****     *
 229:../src/platform/mpfs_hal/common/nwc/mss_pll.c ****     */
 230:../src/platform/mpfs_hal/common/nwc/mss_pll.c ****     SYSREG->ENVM_CR = LIBERO_SETTING_MSS_ENVM_CR;
 231:../src/platform/mpfs_hal/common/nwc/mss_pll.c **** 
 232:../src/platform/mpfs_hal/common/nwc/mss_pll.c ****     mb();  /* make sure we change clock in eNVM first so ready by the time we
 233:../src/platform/mpfs_hal/common/nwc/mss_pll.c ****              leave */
 234:../src/platform/mpfs_hal/common/nwc/mss_pll.c **** 
 235:../src/platform/mpfs_hal/common/nwc/mss_pll.c ****     /*
 236:../src/platform/mpfs_hal/common/nwc/mss_pll.c ****     * When you're changing the eNVM clock frequency, there is a bit
 237:../src/platform/mpfs_hal/common/nwc/mss_pll.c ****     * (ENVM_CR_clock_okay) in the eNVM_CR which can be polled to check that
 238:../src/platform/mpfs_hal/common/nwc/mss_pll.c ****     * the frequency change has happened before bumping up the AHB frequency.
 239:../src/platform/mpfs_hal/common/nwc/mss_pll.c ****     */
 240:../src/platform/mpfs_hal/common/nwc/mss_pll.c ****     volatile uint32_t wait_for_true = 0U;
 241:../src/platform/mpfs_hal/common/nwc/mss_pll.c ****     while ((SYSREG->ENVM_CR & ENVM_CR_CLOCK_OKAY_MASK) !=\
 242:../src/platform/mpfs_hal/common/nwc/mss_pll.c ****             ENVM_CR_CLOCK_OKAY_MASK)
 243:../src/platform/mpfs_hal/common/nwc/mss_pll.c ****     {
 244:../src/platform/mpfs_hal/common/nwc/mss_pll.c **** #ifdef RENODE_DEBUG
 245:../src/platform/mpfs_hal/common/nwc/mss_pll.c ****         break;
 246:../src/platform/mpfs_hal/common/nwc/mss_pll.c **** #endif
 247:../src/platform/mpfs_hal/common/nwc/mss_pll.c ****         wait_for_true++; /* need something here to stop debugger freezing */
 248:../src/platform/mpfs_hal/common/nwc/mss_pll.c ****     }
 249:../src/platform/mpfs_hal/common/nwc/mss_pll.c **** 
 250:../src/platform/mpfs_hal/common/nwc/mss_pll.c ****    /*
 251:../src/platform/mpfs_hal/common/nwc/mss_pll.c ****     * Change the MSS clock as required.
 252:../src/platform/mpfs_hal/common/nwc/mss_pll.c ****     *
 253:../src/platform/mpfs_hal/common/nwc/mss_pll.c ****     * CLOCK_CONFIG_CR
 254:../src/platform/mpfs_hal/common/nwc/mss_pll.c ****     * [5:0]
 255:../src/platform/mpfs_hal/common/nwc/mss_pll.c ****     * Sets the master synchronous clock divider
 256:../src/platform/mpfs_hal/common/nwc/mss_pll.c ****     * bits [1:0] CPU clock divider
 257:../src/platform/mpfs_hal/common/nwc/mss_pll.c ****     * bits [3:2] AXI clock divider
 258:../src/platform/mpfs_hal/common/nwc/mss_pll.c ****     * bits [5:4] AHB/APB clock divider
 259:../src/platform/mpfs_hal/common/nwc/mss_pll.c ****     * 00=/1 01=/2 10=/4 11=/8 (AHB/APB divider may not be set to /1)
 260:../src/platform/mpfs_hal/common/nwc/mss_pll.c ****     * Reset = 0x3F
 261:../src/platform/mpfs_hal/common/nwc/mss_pll.c ****     *
 262:../src/platform/mpfs_hal/common/nwc/mss_pll.c ****     * SYSREG->CLOCK_CONFIG_CR = (0x0U<<0U) | (0x1U<<2U) | (0x2U<<4U);
 263:../src/platform/mpfs_hal/common/nwc/mss_pll.c ****     * MSS clk= 80Mhz, implies CPU = 80Mhz, AXI = 40Mhz, AHB/APB = 20Mhz
 264:../src/platform/mpfs_hal/common/nwc/mss_pll.c ****     * Until we switch in MSS PLL clock (MSS_SCB_CFM_MSS_MUX->MSSCLKMUX = 0x01)
 265:../src/platform/mpfs_hal/common/nwc/mss_pll.c ****     * e.g. If MSS clk 800Mhz
 266:../src/platform/mpfs_hal/common/nwc/mss_pll.c ****     * MSS clk= 800Mhz, implies CPU = 800Mhz, AXI = 400Mhz, AHB/APB = 200Mhz
 267:../src/platform/mpfs_hal/common/nwc/mss_pll.c ****    */
 268:../src/platform/mpfs_hal/common/nwc/mss_pll.c ****   SYSREG->CLOCK_CONFIG_CR = LIBERO_SETTING_MSS_CLOCK_CONFIG_CR;
 269:../src/platform/mpfs_hal/common/nwc/mss_pll.c **** 
 270:../src/platform/mpfs_hal/common/nwc/mss_pll.c ****    /*
 271:../src/platform/mpfs_hal/common/nwc/mss_pll.c ****     * Feed clock from MSS PLL to MSS, using glitch-less mux
 272:../src/platform/mpfs_hal/common/nwc/mss_pll.c ****     *
 273:../src/platform/mpfs_hal/common/nwc/mss_pll.c ****     * MSS Clock mux selections
 274:../src/platform/mpfs_hal/common/nwc/mss_pll.c ****     *   [31:5]  Reserved
 275:../src/platform/mpfs_hal/common/nwc/mss_pll.c ****     *   [4]    clk_standby_sel
 276:../src/platform/mpfs_hal/common/nwc/mss_pll.c ****     *   [3:2]  mssclk_mux_md
 277:../src/platform/mpfs_hal/common/nwc/mss_pll.c ****     *   step 7: 7)  MSS Processor writes mssclk_mux_sel_int<0>=1 to select the
 278:../src/platform/mpfs_hal/common/nwc/mss_pll.c ****     *   MSS PLL clock.
 279:../src/platform/mpfs_hal/common/nwc/mss_pll.c ****     *   [1:0]  mssclk_mux_sel        MSS glitchless mux select
 280:../src/platform/mpfs_hal/common/nwc/mss_pll.c ****     *                    00 - msspll_fdr_0=clk_standby
 281:../src/platform/mpfs_hal/common/nwc/mss_pll.c ****     *                          msspll_fdr_1=clk_standby
 282:../src/platform/mpfs_hal/common/nwc/mss_pll.c ****     *                    01 - msspll_fdr_0=pllout0
 283:../src/platform/mpfs_hal/common/nwc/mss_pll.c ****     *                          msspll_fdr_1=clk_standby
 284:../src/platform/mpfs_hal/common/nwc/mss_pll.c ****     *                    10 - msspll_fdr_0=clk_standby
 285:../src/platform/mpfs_hal/common/nwc/mss_pll.c ****     *                           msspll_fdr_1=pllout1
 286:../src/platform/mpfs_hal/common/nwc/mss_pll.c ****     *                    11 - msspll_fdr_0=pllout0
 287:../src/platform/mpfs_hal/common/nwc/mss_pll.c ****     *                          msspll_fdr_1=pllout1
 288:../src/platform/mpfs_hal/common/nwc/mss_pll.c ****     *
 289:../src/platform/mpfs_hal/common/nwc/mss_pll.c ****     *
 290:../src/platform/mpfs_hal/common/nwc/mss_pll.c ****     */
 291:../src/platform/mpfs_hal/common/nwc/mss_pll.c ****     MSS_SCB_CFM_MSS_MUX->MSSCLKMUX   = LIBERO_SETTING_MSS_MSSCLKMUX;
 292:../src/platform/mpfs_hal/common/nwc/mss_pll.c **** 
 293:../src/platform/mpfs_hal/common/nwc/mss_pll.c ****    /*
 294:../src/platform/mpfs_hal/common/nwc/mss_pll.c ****     * Change the RTC clock divisor, so RTC clock is 1MHz
 295:../src/platform/mpfs_hal/common/nwc/mss_pll.c ****     */
 296:../src/platform/mpfs_hal/common/nwc/mss_pll.c ****     set_RTC_divisor();
 297:../src/platform/mpfs_hal/common/nwc/mss_pll.c **** }
 298:../src/platform/mpfs_hal/common/nwc/mss_pll.c **** 
 299:../src/platform/mpfs_hal/common/nwc/mss_pll.c **** /***************************************************************************//**
 300:../src/platform/mpfs_hal/common/nwc/mss_pll.c ****  * sgmii_mux_config(uint8_t option)
 301:../src/platform/mpfs_hal/common/nwc/mss_pll.c ****  * @param option 1 => soft reset, load RPC settings
 302:../src/platform/mpfs_hal/common/nwc/mss_pll.c ****  *               0 => write values using SCB
 303:../src/platform/mpfs_hal/common/nwc/mss_pll.c ****  ******************************************************************************/
 304:../src/platform/mpfs_hal/common/nwc/mss_pll.c **** void sgmii_mux_config(uint8_t option)
 305:../src/platform/mpfs_hal/common/nwc/mss_pll.c **** {
  49              		.loc 1 305 1 is_stmt 1
  50              		.cfi_startproc
  51              	.LVL0:
 306:../src/platform/mpfs_hal/common/nwc/mss_pll.c ****     switch(option)
  52              		.loc 1 306 5
  53 0000 8547     		li	a5,1
  54 0002 630CF500 		beq	a0,a5,.L3
 307:../src/platform/mpfs_hal/common/nwc/mss_pll.c ****     {
 308:../src/platform/mpfs_hal/common/nwc/mss_pll.c ****         default:
 309:../src/platform/mpfs_hal/common/nwc/mss_pll.c ****         case SCB_UPDATE:   /* write to   SCB register */
 310:../src/platform/mpfs_hal/common/nwc/mss_pll.c **** 
 311:../src/platform/mpfs_hal/common/nwc/mss_pll.c ****                 /*
 312:../src/platform/mpfs_hal/common/nwc/mss_pll.c ****                  * SCB address: 0x3E20 0008
 313:../src/platform/mpfs_hal/common/nwc/mss_pll.c ****                  * MSS Clock mux selections
 314:../src/platform/mpfs_hal/common/nwc/mss_pll.c ****                  *
 315:../src/platform/mpfs_hal/common/nwc/mss_pll.c ****                  * [31:0] SGMII_CLKMUX
 316:../src/platform/mpfs_hal/common/nwc/mss_pll.c ****                  */
 317:../src/platform/mpfs_hal/common/nwc/mss_pll.c ****                 /* CFM_ETH - 0x3E200000 - - 0x08 */
 318:../src/platform/mpfs_hal/common/nwc/mss_pll.c ****                 MSS_SCB_CFM_SGMII_MUX->SGMII_CLKMUX =\
  55              		.loc 1 318 17
  56              		.loc 1 318 53 is_stmt 0
  57 0006 B707203E 		li	a5,1042284544
  58 000a 9546     		li	a3,5
 319:../src/platform/mpfs_hal/common/nwc/mss_pll.c ****                     LIBERO_SETTING_SGMII_SGMII_CLKMUX;
 320:../src/platform/mpfs_hal/common/nwc/mss_pll.c ****                 /*
 321:../src/platform/mpfs_hal/common/nwc/mss_pll.c ****                  * SCB address: 0x3E20 0010
 322:../src/platform/mpfs_hal/common/nwc/mss_pll.c ****                  * Clock_Receiver
 323:../src/platform/mpfs_hal/common/nwc/mss_pll.c ****                  *
 324:../src/platform/mpfs_hal/common/nwc/mss_pll.c ****                  * [13]    en_rdiff
 325:../src/platform/mpfs_hal/common/nwc/mss_pll.c ****                  * [12]    clkbuf_en_pullup
 326:../src/platform/mpfs_hal/common/nwc/mss_pll.c ****                  * [11:10] en_rxmode_n
 327:../src/platform/mpfs_hal/common/nwc/mss_pll.c ****                  * [9:8]   en_term_n
 328:../src/platform/mpfs_hal/common/nwc/mss_pll.c ****                  * [7]     en_ins_hyst_n
 329:../src/platform/mpfs_hal/common/nwc/mss_pll.c ****                  * [6]     en_udrive_n
 330:../src/platform/mpfs_hal/common/nwc/mss_pll.c ****                  * [5:4]   en_rxmode_p
 331:../src/platform/mpfs_hal/common/nwc/mss_pll.c ****                  * [3:2]   en_term_p
 332:../src/platform/mpfs_hal/common/nwc/mss_pll.c ****                  * [1]     en_ins_hyst_p
 333:../src/platform/mpfs_hal/common/nwc/mss_pll.c ****                  * [0]     en_udrive_p
 334:../src/platform/mpfs_hal/common/nwc/mss_pll.c ****                  */
 335:../src/platform/mpfs_hal/common/nwc/mss_pll.c ****                 MSS_SCB_CFM_SGMII_MUX->CLK_XCVR =\
  59              		.loc 1 335 49
  60 000c 0D67     		li	a4,12288
 318:../src/platform/mpfs_hal/common/nwc/mss_pll.c ****                     LIBERO_SETTING_SGMII_SGMII_CLKMUX;
  61              		.loc 1 318 53
  62 000e 94C7     		sw	a3,8(a5)
  63              		.loc 1 335 17 is_stmt 1
  64              		.loc 1 335 49 is_stmt 0
  65 0010 130707C3 		addi	a4,a4,-976
  66 0014 98CB     		sw	a4,16(a5)
 336:../src/platform/mpfs_hal/common/nwc/mss_pll.c ****                         LIBERO_SETTING_SGMII_CLK_XCVR;   /* 0x2011 */
 337:../src/platform/mpfs_hal/common/nwc/mss_pll.c ****                 /*
 338:../src/platform/mpfs_hal/common/nwc/mss_pll.c ****                  * SCB address: 0x3E20 0004
 339:../src/platform/mpfs_hal/common/nwc/mss_pll.c ****                  * PLL RF clk mux selections
 340:../src/platform/mpfs_hal/common/nwc/mss_pll.c ****                  *
 341:../src/platform/mpfs_hal/common/nwc/mss_pll.c ****                  * [3:2] pll0_rfclk1_sel
 342:../src/platform/mpfs_hal/common/nwc/mss_pll.c ****                  *             00 => vss
 343:../src/platform/mpfs_hal/common/nwc/mss_pll.c ****                  *             01 => refclk_p muxed to DDR PLL
 344:../src/platform/mpfs_hal/common/nwc/mss_pll.c ****                  *                   and SGMII PLL ( see
 345:../src/platform/mpfs_hal/common/nwc/mss_pll.c ****                  *             10 => scb_clk
 346:../src/platform/mpfs_hal/common/nwc/mss_pll.c ****                  *             11 => serdes_refclk_crn_mss<1>
 347:../src/platform/mpfs_hal/common/nwc/mss_pll.c ****                  * [1:0] pll0_rfclk0_sel
 348:../src/platform/mpfs_hal/common/nwc/mss_pll.c ****                  *             00 => vss
 349:../src/platform/mpfs_hal/common/nwc/mss_pll.c ****                  *             01 => refclk_n muxed to DDR PLL
 350:../src/platform/mpfs_hal/common/nwc/mss_pll.c ****                  *                   and SGMII PLL
 351:../src/platform/mpfs_hal/common/nwc/mss_pll.c ****                  *             10 => scb_clk
 352:../src/platform/mpfs_hal/common/nwc/mss_pll.c ****                  *             11 => serdes_refclk_crn_mss<1>
 353:../src/platform/mpfs_hal/common/nwc/mss_pll.c ****                  *
 354:../src/platform/mpfs_hal/common/nwc/mss_pll.c ****                  *
 355:../src/platform/mpfs_hal/common/nwc/mss_pll.c ****                  */
 356:../src/platform/mpfs_hal/common/nwc/mss_pll.c ****                 /* 0x05 => ref to SGMII and DDR */
 357:../src/platform/mpfs_hal/common/nwc/mss_pll.c ****                 MSS_SCB_CFM_SGMII_MUX->RFCKMUX  =\
  67              		.loc 1 357 17 is_stmt 1
  68              		.loc 1 357 49 is_stmt 0
  69 0016 D4C3     		sw	a3,4(a5)
 358:../src/platform/mpfs_hal/common/nwc/mss_pll.c ****                         LIBERO_SETTING_SGMII_REFCLKMUX;
 359:../src/platform/mpfs_hal/common/nwc/mss_pll.c ****                 break;
  70              		.loc 1 359 17 is_stmt 1
  71 0018 8280     		ret
  72              	.L3:
 360:../src/platform/mpfs_hal/common/nwc/mss_pll.c **** 
 361:../src/platform/mpfs_hal/common/nwc/mss_pll.c ****         case RPC_REG_UPDATE:
 362:../src/platform/mpfs_hal/common/nwc/mss_pll.c ****             /*
 363:../src/platform/mpfs_hal/common/nwc/mss_pll.c ****              * set the NV map reset
 364:../src/platform/mpfs_hal/common/nwc/mss_pll.c ****              * This will load the APB registers, set via SGMII TIP.
 365:../src/platform/mpfs_hal/common/nwc/mss_pll.c ****              * */
 366:../src/platform/mpfs_hal/common/nwc/mss_pll.c ****             MSS_SCB_CFM_SGMII_MUX->SOFT_RESET = 1U;
  73              		.loc 1 366 13
  74              		.loc 1 366 47 is_stmt 0
  75 001a B707203E 		li	a5,1042284544
  76 001e 88C3     		sw	a0,0(a5)
 367:../src/platform/mpfs_hal/common/nwc/mss_pll.c ****             break;
  77              		.loc 1 367 13 is_stmt 1
 368:../src/platform/mpfs_hal/common/nwc/mss_pll.c ****     }
 369:../src/platform/mpfs_hal/common/nwc/mss_pll.c **** }
  78              		.loc 1 369 1 is_stmt 0
  79 0020 8280     		ret
  80              		.cfi_endproc
  81              	.LFE22:
  83              		.section	.text.flag_mss_pll_lock_error,"ax",@progbits
  84              		.align	1
  85              		.weak	flag_mss_pll_lock_error
  87              	flag_mss_pll_lock_error:
  88              	.LFB24:
 370:../src/platform/mpfs_hal/common/nwc/mss_pll.c **** 
 371:../src/platform/mpfs_hal/common/nwc/mss_pll.c **** /***************************************************************************//**
 372:../src/platform/mpfs_hal/common/nwc/mss_pll.c ****  *
 373:../src/platform/mpfs_hal/common/nwc/mss_pll.c ****  * On startup, MSS supplied with 80MHz SCB clock
 374:../src/platform/mpfs_hal/common/nwc/mss_pll.c **** 
 375:../src/platform/mpfs_hal/common/nwc/mss_pll.c ****   9.2  Power on procedure for the MSS PLL clock
 376:../src/platform/mpfs_hal/common/nwc/mss_pll.c **** 
 377:../src/platform/mpfs_hal/common/nwc/mss_pll.c ****   During POR:
 378:../src/platform/mpfs_hal/common/nwc/mss_pll.c ****   Keep PLL in power down mode. powerdown_int_b=0
 379:../src/platform/mpfs_hal/common/nwc/mss_pll.c **** 
 380:../src/platform/mpfs_hal/common/nwc/mss_pll.c ****   After POR, Power-On steps:
 381:../src/platform/mpfs_hal/common/nwc/mss_pll.c ****   1)  mssclk_mux_sel_int<0>=0 & powerdown_int_b=0 & clk_standby_sel=0
 382:../src/platform/mpfs_hal/common/nwc/mss_pll.c ****   MSS PLL is powered down and selects clk_standby=scb_clk
 383:../src/platform/mpfs_hal/common/nwc/mss_pll.c ****   2)  PFC Processor writes powerdown_int_b=1 & divq0_int_en=1
 384:../src/platform/mpfs_hal/common/nwc/mss_pll.c ****   MSS PLL powers up, then lock asserts when locked.
 385:../src/platform/mpfs_hal/common/nwc/mss_pll.c ****   3)  PFC Processor switches mssclk_mux_sel_int<0>=1
 386:../src/platform/mpfs_hal/common/nwc/mss_pll.c ****   MSS PLL clock is now sent to MSS.
 387:../src/platform/mpfs_hal/common/nwc/mss_pll.c ****   4)  When BOOT authentication is complete
 388:../src/platform/mpfs_hal/common/nwc/mss_pll.c ****   a.  PFC processor writes mssclk_mux_sel_int<0>=0 to select clk_standby.
 389:../src/platform/mpfs_hal/common/nwc/mss_pll.c ****   b.  PFC Processor writes powerdown_int_b=0 to power down the PLL
 390:../src/platform/mpfs_hal/common/nwc/mss_pll.c ****   >>>>>>>> G5 Soc User code >>>>>>>>>>>>>>
 391:../src/platform/mpfs_hal/common/nwc/mss_pll.c ****   c.  MSS Processor writes new parameters to the MSS PLL
 392:../src/platform/mpfs_hal/common/nwc/mss_pll.c ****   5)  MSS Processor writes powerdown_int_b=1
 393:../src/platform/mpfs_hal/common/nwc/mss_pll.c ****   Start up the PLL with NEW parameters.
 394:../src/platform/mpfs_hal/common/nwc/mss_pll.c ****   Wait for LOCK
 395:../src/platform/mpfs_hal/common/nwc/mss_pll.c ****   6)  MSS Processor enables all 4 PLL outputs.
 396:../src/platform/mpfs_hal/common/nwc/mss_pll.c ****   7)  MSS Processor writes mssclk_mux_sel_int<0>=1 to select the MSS PLL
 397:../src/platform/mpfs_hal/common/nwc/mss_pll.c ****       clock.
 398:../src/platform/mpfs_hal/common/nwc/mss_pll.c ****  *
 399:../src/platform/mpfs_hal/common/nwc/mss_pll.c ****  ******************************************************************************/
 400:../src/platform/mpfs_hal/common/nwc/mss_pll.c **** void mss_pll_config(void)
 401:../src/platform/mpfs_hal/common/nwc/mss_pll.c **** {
 402:../src/platform/mpfs_hal/common/nwc/mss_pll.c ****     
 403:../src/platform/mpfs_hal/common/nwc/mss_pll.c ****     copy_switch_code(); /* copy switch code to RAM */
 404:../src/platform/mpfs_hal/common/nwc/mss_pll.c **** 
 405:../src/platform/mpfs_hal/common/nwc/mss_pll.c ****     MSS_SCB_DDR_PLL->SOFT_RESET     = PLL_INIT_AND_OUT_OF_RESET;
 406:../src/platform/mpfs_hal/common/nwc/mss_pll.c ****     MSS_SCB_MSS_PLL->SOFT_RESET     = PLL_INIT_AND_OUT_OF_RESET;
 407:../src/platform/mpfs_hal/common/nwc/mss_pll.c **** 
 408:../src/platform/mpfs_hal/common/nwc/mss_pll.c ****     /*
 409:../src/platform/mpfs_hal/common/nwc/mss_pll.c ****         Enable the PLL by removing the reset-
 410:../src/platform/mpfs_hal/common/nwc/mss_pll.c ****         PERIPH / periph_reset_b  - This asserts the functional reset of the
 411:../src/platform/mpfs_hal/common/nwc/mss_pll.c ****             block.
 412:../src/platform/mpfs_hal/common/nwc/mss_pll.c ****         It is asserted at power up. When written is stays asserted until written
 413:../src/platform/mpfs_hal/common/nwc/mss_pll.c ****         to 0.
 414:../src/platform/mpfs_hal/common/nwc/mss_pll.c ****     */
 415:../src/platform/mpfs_hal/common/nwc/mss_pll.c ****     /*
 416:../src/platform/mpfs_hal/common/nwc/mss_pll.c ****      * 4. c.    MSS Processor writes new parameters to the MSS PLL
 417:../src/platform/mpfs_hal/common/nwc/mss_pll.c ****      */
 418:../src/platform/mpfs_hal/common/nwc/mss_pll.c ****     /*
 419:../src/platform/mpfs_hal/common/nwc/mss_pll.c ****      *  [0] REG_BYPASS_GO_B
 420:../src/platform/mpfs_hal/common/nwc/mss_pll.c ****      *  [0] BYPCK_SEL
 421:../src/platform/mpfs_hal/common/nwc/mss_pll.c ****      *  [0] RESETONLOCK
 422:../src/platform/mpfs_hal/common/nwc/mss_pll.c ****      *  [0] REG_RFCLK_SEL
 423:../src/platform/mpfs_hal/common/nwc/mss_pll.c ****      *  [0] REG_DIVQ3_EN
 424:../src/platform/mpfs_hal/common/nwc/mss_pll.c ****      *  [0] REG_DIVQ2_EN
 425:../src/platform/mpfs_hal/common/nwc/mss_pll.c ****      *  [0] REG_DIVQ1_EN
 426:../src/platform/mpfs_hal/common/nwc/mss_pll.c ****      *  [0] REG_DIVQ0_EN
 427:../src/platform/mpfs_hal/common/nwc/mss_pll.c ****      *  [0] REG_RFDIV_EN
 428:../src/platform/mpfs_hal/common/nwc/mss_pll.c ****      *  [0] REG_POWERDOWN_B
 429:../src/platform/mpfs_hal/common/nwc/mss_pll.c ****      */
 430:../src/platform/mpfs_hal/common/nwc/mss_pll.c **** 
 431:../src/platform/mpfs_hal/common/nwc/mss_pll.c ****     MSS_SCB_MSS_PLL->PLL_CTRL       = LIBERO_SETTING_MSS_PLL_CTRL & ~(PLL_CTRL_REG_POWERDOWN_B_MASK
 432:../src/platform/mpfs_hal/common/nwc/mss_pll.c **** 
 433:../src/platform/mpfs_hal/common/nwc/mss_pll.c ****     /*
 434:../src/platform/mpfs_hal/common/nwc/mss_pll.c ****      * PLL calibration register
 435:../src/platform/mpfs_hal/common/nwc/mss_pll.c ****      * This value is factory set, do not overwrite
 436:../src/platform/mpfs_hal/common/nwc/mss_pll.c ****      * MSS_SCB_MSS_PLL->PLL_CAL        = LIBERO_SETTING_MSS_PLL_CAL;
 437:../src/platform/mpfs_hal/common/nwc/mss_pll.c ****      *
 438:../src/platform/mpfs_hal/common/nwc/mss_pll.c ****      */
 439:../src/platform/mpfs_hal/common/nwc/mss_pll.c **** 
 440:../src/platform/mpfs_hal/common/nwc/mss_pll.c ****     MSS_SCB_MSS_PLL->PLL_REF_FB     = LIBERO_SETTING_MSS_PLL_REF_FB;
 441:../src/platform/mpfs_hal/common/nwc/mss_pll.c **** 
 442:../src/platform/mpfs_hal/common/nwc/mss_pll.c ****     MSS_SCB_MSS_PLL->PLL_DIV_0_1    = LIBERO_SETTING_MSS_PLL_DIV_0_1;
 443:../src/platform/mpfs_hal/common/nwc/mss_pll.c **** 
 444:../src/platform/mpfs_hal/common/nwc/mss_pll.c ****     MSS_SCB_MSS_PLL->PLL_DIV_2_3    = LIBERO_SETTING_MSS_PLL_DIV_2_3;
 445:../src/platform/mpfs_hal/common/nwc/mss_pll.c **** 
 446:../src/platform/mpfs_hal/common/nwc/mss_pll.c ****     MSS_SCB_MSS_PLL->PLL_CTRL2      = LIBERO_SETTING_MSS_PLL_CTRL2;
 447:../src/platform/mpfs_hal/common/nwc/mss_pll.c **** 
 448:../src/platform/mpfs_hal/common/nwc/mss_pll.c ****     MSS_SCB_MSS_PLL->PLL_FRACN      = LIBERO_SETTING_MSS_PLL_FRACN;
 449:../src/platform/mpfs_hal/common/nwc/mss_pll.c ****     MSS_SCB_MSS_PLL->SSCG_REG_0     = LIBERO_SETTING_MSS_SSCG_REG_0;
 450:../src/platform/mpfs_hal/common/nwc/mss_pll.c ****     MSS_SCB_MSS_PLL->SSCG_REG_1     = LIBERO_SETTING_MSS_SSCG_REG_1;
 451:../src/platform/mpfs_hal/common/nwc/mss_pll.c **** 
 452:../src/platform/mpfs_hal/common/nwc/mss_pll.c ****     MSS_SCB_MSS_PLL->SSCG_REG_2     = LIBERO_SETTING_MSS_SSCG_REG_2;
 453:../src/platform/mpfs_hal/common/nwc/mss_pll.c ****     MSS_SCB_MSS_PLL->SSCG_REG_3     = LIBERO_SETTING_MSS_SSCG_REG_3;
 454:../src/platform/mpfs_hal/common/nwc/mss_pll.c **** 
 455:../src/platform/mpfs_hal/common/nwc/mss_pll.c ****     /* PLL phase registers */
 456:../src/platform/mpfs_hal/common/nwc/mss_pll.c ****     MSS_SCB_MSS_PLL->PLL_PHADJ      = LIBERO_SETTING_MSS_PLL_PHADJ;
 457:../src/platform/mpfs_hal/common/nwc/mss_pll.c **** 
 458:../src/platform/mpfs_hal/common/nwc/mss_pll.c ****     /*
 459:../src/platform/mpfs_hal/common/nwc/mss_pll.c ****      * 5)   MSS Processor writes powerdown_int_b=1
 460:../src/platform/mpfs_hal/common/nwc/mss_pll.c ****      *      Start up the PLL with NEW parameters.
 461:../src/platform/mpfs_hal/common/nwc/mss_pll.c ****             Wait for LOCK
 462:../src/platform/mpfs_hal/common/nwc/mss_pll.c ****      */
 463:../src/platform/mpfs_hal/common/nwc/mss_pll.c ****     mss_mux_pre_mss_pll_config(); /* feed required inputs */
 464:../src/platform/mpfs_hal/common/nwc/mss_pll.c ****     /* bit 0 == REG_POWERDOWN_B */
 465:../src/platform/mpfs_hal/common/nwc/mss_pll.c ****     MSS_SCB_MSS_PLL->PLL_CTRL       = (LIBERO_SETTING_MSS_PLL_CTRL) | 0x01U;
 466:../src/platform/mpfs_hal/common/nwc/mss_pll.c ****     /*
 467:../src/platform/mpfs_hal/common/nwc/mss_pll.c ****      * Start up the PLL with NEW parameters.
 468:../src/platform/mpfs_hal/common/nwc/mss_pll.c ****      * Wait for LOCK
 469:../src/platform/mpfs_hal/common/nwc/mss_pll.c ****      *  todo: make wait clock based
 470:../src/platform/mpfs_hal/common/nwc/mss_pll.c ****      */
 471:../src/platform/mpfs_hal/common/nwc/mss_pll.c ****     volatile uint32_t timer_out=0x00FFFFFFU;
 472:../src/platform/mpfs_hal/common/nwc/mss_pll.c ****     while((MSS_SCB_MSS_PLL->PLL_CTRL & PLL_CTRL_LOCK_BIT) == 0U)
 473:../src/platform/mpfs_hal/common/nwc/mss_pll.c ****     {
 474:../src/platform/mpfs_hal/common/nwc/mss_pll.c **** #ifdef RENODE_DEBUG
 475:../src/platform/mpfs_hal/common/nwc/mss_pll.c ****         break;
 476:../src/platform/mpfs_hal/common/nwc/mss_pll.c **** #endif
 477:../src/platform/mpfs_hal/common/nwc/mss_pll.c ****         if (timer_out != 0U)
 478:../src/platform/mpfs_hal/common/nwc/mss_pll.c ****         {
 479:../src/platform/mpfs_hal/common/nwc/mss_pll.c ****             timer_out--;
 480:../src/platform/mpfs_hal/common/nwc/mss_pll.c ****         }
 481:../src/platform/mpfs_hal/common/nwc/mss_pll.c ****         else
 482:../src/platform/mpfs_hal/common/nwc/mss_pll.c ****         {
 483:../src/platform/mpfs_hal/common/nwc/mss_pll.c ****             timer_out=0x00FFFFFFU;
 484:../src/platform/mpfs_hal/common/nwc/mss_pll.c ****             flag_mss_pll_lock_error();
 485:../src/platform/mpfs_hal/common/nwc/mss_pll.c ****         }
 486:../src/platform/mpfs_hal/common/nwc/mss_pll.c ****     }
 487:../src/platform/mpfs_hal/common/nwc/mss_pll.c **** 
 488:../src/platform/mpfs_hal/common/nwc/mss_pll.c ****     /*
 489:../src/platform/mpfs_hal/common/nwc/mss_pll.c ****      * 6)   MSS Processor enables all 4 PLL outputs.
 490:../src/platform/mpfs_hal/common/nwc/mss_pll.c ****      * 7)   MSS Processor writes mssclk_mux_sel_int<0>=1 to select the MSS PLL
 491:../src/platform/mpfs_hal/common/nwc/mss_pll.c ****      *      clock.
 492:../src/platform/mpfs_hal/common/nwc/mss_pll.c ****      */
 493:../src/platform/mpfs_hal/common/nwc/mss_pll.c ****     mss_mux_post_mss_pll_config();
 494:../src/platform/mpfs_hal/common/nwc/mss_pll.c **** }
 495:../src/platform/mpfs_hal/common/nwc/mss_pll.c **** 
 496:../src/platform/mpfs_hal/common/nwc/mss_pll.c **** /**
 497:../src/platform/mpfs_hal/common/nwc/mss_pll.c ****  * flag_mss_pll_lock_error(void)
 498:../src/platform/mpfs_hal/common/nwc/mss_pll.c ****  *
 499:../src/platform/mpfs_hal/common/nwc/mss_pll.c ****  * Implement platform specific function for lock failure feedback
 500:../src/platform/mpfs_hal/common/nwc/mss_pll.c ****  *
 501:../src/platform/mpfs_hal/common/nwc/mss_pll.c ****  */
 502:../src/platform/mpfs_hal/common/nwc/mss_pll.c **** __attribute__((weak)) void flag_mss_pll_lock_error(void)
 503:../src/platform/mpfs_hal/common/nwc/mss_pll.c **** {
  89              		.loc 1 503 1 is_stmt 1
  90              		.cfi_startproc
 504:../src/platform/mpfs_hal/common/nwc/mss_pll.c ****     ASSERT(0U);
  91              		.loc 1 504 15
 505:../src/platform/mpfs_hal/common/nwc/mss_pll.c **** }
  92              		.loc 1 505 1 is_stmt 0
  93 0000 8280     		ret
  94              		.cfi_endproc
  95              	.LFE24:
  97              		.section	.text.ddr_pll_config,"ax",@progbits
  98              		.align	1
  99              		.globl	ddr_pll_config
 101              	ddr_pll_config:
 102              	.LFB25:
 506:../src/platform/mpfs_hal/common/nwc/mss_pll.c **** 
 507:../src/platform/mpfs_hal/common/nwc/mss_pll.c **** /**
 508:../src/platform/mpfs_hal/common/nwc/mss_pll.c ****  *
 509:../src/platform/mpfs_hal/common/nwc/mss_pll.c ****  * @param option choose between SCB or RPC and soft reset  update method.
 510:../src/platform/mpfs_hal/common/nwc/mss_pll.c ****  */
 511:../src/platform/mpfs_hal/common/nwc/mss_pll.c **** void ddr_pll_config(REG_LOAD_METHOD option)
 512:../src/platform/mpfs_hal/common/nwc/mss_pll.c **** {
 103              		.loc 1 512 1 is_stmt 1
 104              		.cfi_startproc
 105              	.LVL1:
 513:../src/platform/mpfs_hal/common/nwc/mss_pll.c **** 
 514:../src/platform/mpfs_hal/common/nwc/mss_pll.c ****     switch(option)
 106              		.loc 1 514 5
 107 0000 0546     		li	a2,1
 108 0002 630BC504 		beq	a0,a2,.L7
 515:../src/platform/mpfs_hal/common/nwc/mss_pll.c ****     {
 516:../src/platform/mpfs_hal/common/nwc/mss_pll.c ****         default:
 517:../src/platform/mpfs_hal/common/nwc/mss_pll.c ****         case SCB_UPDATE:   /* write to   SCB register */
 518:../src/platform/mpfs_hal/common/nwc/mss_pll.c ****             /* PERIPH / periph_reset_b  - This asserts the functional reset of
 519:../src/platform/mpfs_hal/common/nwc/mss_pll.c ****              * the block. It is asserted at power up. When written is stays
 520:../src/platform/mpfs_hal/common/nwc/mss_pll.c ****              * asserted until written to 0.
 521:../src/platform/mpfs_hal/common/nwc/mss_pll.c ****              * First set periph_reset_b, than remove reset. As may be called
 522:../src/platform/mpfs_hal/common/nwc/mss_pll.c ****              * more than one.
 523:../src/platform/mpfs_hal/common/nwc/mss_pll.c ****              * */
 524:../src/platform/mpfs_hal/common/nwc/mss_pll.c ****             MSS_SCB_DDR_PLL->SOFT_RESET       = PLL_INIT_AND_OUT_OF_RESET;
 109              		.loc 1 524 13
 110              		.loc 1 524 47 is_stmt 0
 111 0006 B707013E 		li	a5,1040252928
 112 000a 0D47     		li	a4,3
 113 000c 98C3     		sw	a4,0(a5)
 525:../src/platform/mpfs_hal/common/nwc/mss_pll.c **** 
 526:../src/platform/mpfs_hal/common/nwc/mss_pll.c ****             MSS_SCB_DDR_PLL->PLL_CTRL         = LIBERO_SETTING_DDR_PLL_CTRL & ~(PLL_CTRL_REG_POWERD
 114              		.loc 1 526 13 is_stmt 1
 115              		.loc 1 526 47 is_stmt 0
 116 000e 37070001 		li	a4,16777216
 117 0012 9306E703 		addi	a3,a4,62
 118 0016 D4C3     		sw	a3,4(a5)
 527:../src/platform/mpfs_hal/common/nwc/mss_pll.c ****             /* PLL calibration register */
 528:../src/platform/mpfs_hal/common/nwc/mss_pll.c **** 
 529:../src/platform/mpfs_hal/common/nwc/mss_pll.c ****             /*
 530:../src/platform/mpfs_hal/common/nwc/mss_pll.c ****              * PLL calibration register
 531:../src/platform/mpfs_hal/common/nwc/mss_pll.c ****              * This value is factory set, do not overwrite
 532:../src/platform/mpfs_hal/common/nwc/mss_pll.c ****              * MSS_SCB_DDR_PLL->PLL_CAL        = LIBERO_SETTING_MSS_PLL_CAL;
 533:../src/platform/mpfs_hal/common/nwc/mss_pll.c ****              *
 534:../src/platform/mpfs_hal/common/nwc/mss_pll.c ****              */
 535:../src/platform/mpfs_hal/common/nwc/mss_pll.c **** 
 536:../src/platform/mpfs_hal/common/nwc/mss_pll.c ****             MSS_SCB_DDR_PLL->PLL_REF_FB    = LIBERO_SETTING_DDR_PLL_REF_FB;
 119              		.loc 1 536 13 is_stmt 1
 120              		.loc 1 536 44 is_stmt 0
 121 0018 93060050 		li	a3,1280
 122 001c 94C7     		sw	a3,8(a5)
 537:../src/platform/mpfs_hal/common/nwc/mss_pll.c **** 
 538:../src/platform/mpfs_hal/common/nwc/mss_pll.c **** 
 539:../src/platform/mpfs_hal/common/nwc/mss_pll.c ****             MSS_SCB_DDR_PLL->PLL_DIV_0_1   = LIBERO_SETTING_DDR_PLL_DIV_0_1;
 123              		.loc 1 539 13 is_stmt 1
 124              		.loc 1 539 44 is_stmt 0
 125 001e B7060002 		li	a3,33554432
 126 0022 93860610 		addi	a3,a3,256
 127 0026 94CB     		sw	a3,16(a5)
 540:../src/platform/mpfs_hal/common/nwc/mss_pll.c **** 
 541:../src/platform/mpfs_hal/common/nwc/mss_pll.c ****             MSS_SCB_DDR_PLL->PLL_DIV_2_3   = LIBERO_SETTING_DDR_PLL_DIV_2_3;
 128              		.loc 1 541 13 is_stmt 1
 129              		.loc 1 541 44 is_stmt 0
 130 0028 93060710 		addi	a3,a4,256
 131 002c D4CB     		sw	a3,20(a5)
 542:../src/platform/mpfs_hal/common/nwc/mss_pll.c **** 
 543:../src/platform/mpfs_hal/common/nwc/mss_pll.c **** 
 544:../src/platform/mpfs_hal/common/nwc/mss_pll.c ****             MSS_SCB_DDR_PLL->PLL_CTRL2     = LIBERO_SETTING_DDR_PLL_CTRL2;
 132              		.loc 1 544 13 is_stmt 1
 133              		.loc 1 544 44 is_stmt 0
 134 002e 8566     		li	a3,4096
 135 0030 93860602 		addi	a3,a3,32
 136 0034 94CF     		sw	a3,24(a5)
 545:../src/platform/mpfs_hal/common/nwc/mss_pll.c **** 
 546:../src/platform/mpfs_hal/common/nwc/mss_pll.c ****             MSS_SCB_DDR_PLL->PLL_FRACN     = LIBERO_SETTING_DDR_PLL_FRACN;
 137              		.loc 1 546 13 is_stmt 1
 138              		.loc 1 546 44 is_stmt 0
 139 0036 23A60700 		sw	zero,12(a5)
 547:../src/platform/mpfs_hal/common/nwc/mss_pll.c ****             MSS_SCB_DDR_PLL->SSCG_REG_0    = LIBERO_SETTING_DDR_SSCG_REG_0;
 140              		.loc 1 547 13 is_stmt 1
 141              		.loc 1 547 44 is_stmt 0
 142 003a 23A20702 		sw	zero,36(a5)
 548:../src/platform/mpfs_hal/common/nwc/mss_pll.c ****             MSS_SCB_DDR_PLL->SSCG_REG_1    = LIBERO_SETTING_DDR_SSCG_REG_1;
 143              		.loc 1 548 13 is_stmt 1
 144              		.loc 1 548 44 is_stmt 0
 145 003e 23A40702 		sw	zero,40(a5)
 549:../src/platform/mpfs_hal/common/nwc/mss_pll.c **** 
 550:../src/platform/mpfs_hal/common/nwc/mss_pll.c ****             MSS_SCB_DDR_PLL->SSCG_REG_2    = LIBERO_SETTING_DDR_SSCG_REG_2;
 146              		.loc 1 550 13 is_stmt 1
 147              		.loc 1 550 44 is_stmt 0
 148 0042 93060008 		li	a3,128
 149 0046 D4D7     		sw	a3,44(a5)
 551:../src/platform/mpfs_hal/common/nwc/mss_pll.c ****             MSS_SCB_DDR_PLL->SSCG_REG_3    = LIBERO_SETTING_DDR_SSCG_REG_3;
 150              		.loc 1 551 13 is_stmt 1
 552:../src/platform/mpfs_hal/common/nwc/mss_pll.c **** 
 553:../src/platform/mpfs_hal/common/nwc/mss_pll.c ****             /* PLL phase registers */
 554:../src/platform/mpfs_hal/common/nwc/mss_pll.c **** 
 555:../src/platform/mpfs_hal/common/nwc/mss_pll.c ****             MSS_SCB_DDR_PLL->PLL_PHADJ     = LIBERO_SETTING_MSS_PLL_PHADJ;
 151              		.loc 1 555 44 is_stmt 0
 152 0048 9166     		li	a3,16384
 551:../src/platform/mpfs_hal/common/nwc/mss_pll.c ****             MSS_SCB_DDR_PLL->SSCG_REG_3    = LIBERO_SETTING_DDR_SSCG_REG_3;
 153              		.loc 1 551 44
 154 004a 90DB     		sw	a2,48(a5)
 155              		.loc 1 555 13 is_stmt 1
 156              		.loc 1 555 44 is_stmt 0
 157 004c 8D06     		addi	a3,a3,3
 158 004e 94D3     		sw	a3,32(a5)
 556:../src/platform/mpfs_hal/common/nwc/mss_pll.c **** 
 557:../src/platform/mpfs_hal/common/nwc/mss_pll.c ****             MSS_SCB_DDR_PLL->PLL_CTRL      = (LIBERO_SETTING_DDR_PLL_CTRL)\
 159              		.loc 1 557 13 is_stmt 1
 160              		.loc 1 557 44 is_stmt 0
 161 0050 1307F703 		addi	a4,a4,63
 162 0054 D8C3     		sw	a4,4(a5)
 558:../src/platform/mpfs_hal/common/nwc/mss_pll.c ****                     | 0x01U;  /* bit 0 == REG_POWERDOWN_B */
 559:../src/platform/mpfs_hal/common/nwc/mss_pll.c **** 
 560:../src/platform/mpfs_hal/common/nwc/mss_pll.c ****             break;
 163              		.loc 1 560 13 is_stmt 1
 164 0056 8280     		ret
 165              	.L7:
 561:../src/platform/mpfs_hal/common/nwc/mss_pll.c **** 
 562:../src/platform/mpfs_hal/common/nwc/mss_pll.c ****         case RPC_REG_UPDATE:
 563:../src/platform/mpfs_hal/common/nwc/mss_pll.c ****             /* CFG_DDR_SGMII_PHY->SOFT_RESET_MAIN_PLL; */
 564:../src/platform/mpfs_hal/common/nwc/mss_pll.c ****             CFG_DDR_SGMII_PHY->PLL_CTRL_MAIN.PLL_CTRL_MAIN        =\
 166              		.loc 1 564 13
 167              		.loc 1 564 30 is_stmt 0
 168 0058 97070000 		lla	a5,CFG_DDR_SGMII_PHY
 168      93870700 
 169 0060 9C63     		ld	a5,0(a5)
 170              		.loc 1 564 67
 171 0062 37070001 		li	a4,16777216
 172 0066 9306F703 		addi	a3,a4,63
 173 006a 23A2D708 		sw	a3,132(a5)
 565:../src/platform/mpfs_hal/common/nwc/mss_pll.c ****                                         LIBERO_SETTING_DDR_PLL_CTRL | 0x01U;
 566:../src/platform/mpfs_hal/common/nwc/mss_pll.c ****             CFG_DDR_SGMII_PHY->PLL_REF_FB_MAIN.PLL_REF_FB_MAIN      =\
 174              		.loc 1 566 13 is_stmt 1
 175              		.loc 1 566 69 is_stmt 0
 176 006e 93060050 		li	a3,1280
 177 0072 23A4D708 		sw	a3,136(a5)
 567:../src/platform/mpfs_hal/common/nwc/mss_pll.c ****                                                 LIBERO_SETTING_DDR_PLL_REF_FB;
 568:../src/platform/mpfs_hal/common/nwc/mss_pll.c ****             /* Read only in RPC
 569:../src/platform/mpfs_hal/common/nwc/mss_pll.c ****              * CFG_DDR_SGMII_PHY->PLL_FRACN_MAIN.PLL_FRACN_MAIN      =\
 570:../src/platform/mpfs_hal/common/nwc/mss_pll.c ****              *  LIBERO_SETTING_DDR_PLL_FRACN; */
 571:../src/platform/mpfs_hal/common/nwc/mss_pll.c ****             CFG_DDR_SGMII_PHY->PLL_DIV_0_1_MAIN.PLL_DIV_0_1_MAIN    =\
 178              		.loc 1 571 13 is_stmt 1
 179              		.loc 1 571 69 is_stmt 0
 180 0076 B7060002 		li	a3,33554432
 181 007a 93860610 		addi	a3,a3,256
 182 007e 23A8D708 		sw	a3,144(a5)
 572:../src/platform/mpfs_hal/common/nwc/mss_pll.c ****                                                 LIBERO_SETTING_DDR_PLL_DIV_0_1;
 573:../src/platform/mpfs_hal/common/nwc/mss_pll.c ****             CFG_DDR_SGMII_PHY->PLL_DIV_2_3_MAIN.PLL_DIV_2_3_MAIN  =\
 183              		.loc 1 573 13 is_stmt 1
 184              		.loc 1 573 67 is_stmt 0
 185 0082 13070710 		addi	a4,a4,256
 186 0086 23AAE708 		sw	a4,148(a5)
 574:../src/platform/mpfs_hal/common/nwc/mss_pll.c ****                                                 LIBERO_SETTING_DDR_PLL_DIV_2_3;
 575:../src/platform/mpfs_hal/common/nwc/mss_pll.c ****             CFG_DDR_SGMII_PHY->PLL_CTRL2_MAIN.PLL_CTRL2_MAIN      =\
 187              		.loc 1 575 13 is_stmt 1
 188              		.loc 1 575 67 is_stmt 0
 189 008a 0567     		li	a4,4096
 190 008c 13070702 		addi	a4,a4,32
 191 0090 23ACE708 		sw	a4,152(a5)
 576:../src/platform/mpfs_hal/common/nwc/mss_pll.c ****                                                    LIBERO_SETTING_DDR_PLL_CTRL2;
 577:../src/platform/mpfs_hal/common/nwc/mss_pll.c ****             /* Read only in RPC  todo: verify this is correct
 578:../src/platform/mpfs_hal/common/nwc/mss_pll.c ****              * CFG_DDR_SGMII_PHY->PLL_CAL_MAIN.PLL_CAL_MAIN  =\
 579:../src/platform/mpfs_hal/common/nwc/mss_pll.c ****              *                                   LIBERO_SETTING_DDR_PLL_CAL; */
 580:../src/platform/mpfs_hal/common/nwc/mss_pll.c ****             CFG_DDR_SGMII_PHY->PLL_PHADJ_MAIN.PLL_PHADJ_MAIN      =\
 192              		.loc 1 580 13 is_stmt 1
 193              		.loc 1 580 67 is_stmt 0
 194 0094 1567     		li	a4,20480
 195 0096 0D07     		addi	a4,a4,3
 196 0098 23A0E70A 		sw	a4,160(a5)
 581:../src/platform/mpfs_hal/common/nwc/mss_pll.c ****                                                    LIBERO_SETTING_DDR_PLL_PHADJ;
 582:../src/platform/mpfs_hal/common/nwc/mss_pll.c ****             /*__I  CFG_DDR_SGMII_PHY_SSCG_REG_0_MAIN_TypeDef SSCG_REG_0_MAIN; */
 583:../src/platform/mpfs_hal/common/nwc/mss_pll.c ****             /*__I  CFG_DDR_SGMII_PHY_SSCG_REG_1_MAIN_TypeDef SSCG_REG_1_MAIN; */
 584:../src/platform/mpfs_hal/common/nwc/mss_pll.c ****             CFG_DDR_SGMII_PHY->SSCG_REG_2_MAIN.SSCG_REG_2_MAIN       =\
 197              		.loc 1 584 13 is_stmt 1
 198              		.loc 1 584 70 is_stmt 0
 199 009c 13070008 		li	a4,128
 200 00a0 23A6E70A 		sw	a4,172(a5)
 585:../src/platform/mpfs_hal/common/nwc/mss_pll.c ****                                                 LIBERO_SETTING_DDR_SSCG_REG_2;
 586:../src/platform/mpfs_hal/common/nwc/mss_pll.c ****             /*__I  CFG_DDR_SGMII_PHY_SSCG_REG_3_MAIN_TypeDef SSCG_REG_3_MAIN; */
 587:../src/platform/mpfs_hal/common/nwc/mss_pll.c ****             /*
 588:../src/platform/mpfs_hal/common/nwc/mss_pll.c ****              * set the NV map reset
 589:../src/platform/mpfs_hal/common/nwc/mss_pll.c ****              * This will load the APB registers, set via SGMII TIP.
 590:../src/platform/mpfs_hal/common/nwc/mss_pll.c ****              * */
 591:../src/platform/mpfs_hal/common/nwc/mss_pll.c ****             /* bit 0 == REG_POWERDOWN_B */
 592:../src/platform/mpfs_hal/common/nwc/mss_pll.c ****             MSS_SCB_DDR_PLL->SOFT_RESET  = PLL_INIT_AND_OUT_OF_RESET;
 201              		.loc 1 592 13 is_stmt 1
 202              		.loc 1 592 42 is_stmt 0
 203 00a4 B707013E 		li	a5,1040252928
 204 00a8 0D47     		li	a4,3
 205 00aa 98C3     		sw	a4,0(a5)
 593:../src/platform/mpfs_hal/common/nwc/mss_pll.c ****             break;
 206              		.loc 1 593 13 is_stmt 1
 594:../src/platform/mpfs_hal/common/nwc/mss_pll.c ****     }
 595:../src/platform/mpfs_hal/common/nwc/mss_pll.c **** }
 207              		.loc 1 595 1 is_stmt 0
 208 00ac 8280     		ret
 209              		.cfi_endproc
 210              	.LFE25:
 212              		.section	.text.ddr_pll_lock_scb,"ax",@progbits
 213              		.align	1
 214              		.globl	ddr_pll_lock_scb
 216              	ddr_pll_lock_scb:
 217              	.LFB26:
 596:../src/platform/mpfs_hal/common/nwc/mss_pll.c **** 
 597:../src/platform/mpfs_hal/common/nwc/mss_pll.c **** /**
 598:../src/platform/mpfs_hal/common/nwc/mss_pll.c ****  * ddr_pll_lock_scb(void)
 599:../src/platform/mpfs_hal/common/nwc/mss_pll.c ****  * checks to see if lock has occurred
 600:../src/platform/mpfs_hal/common/nwc/mss_pll.c ****  * @return => lock has occurred, 1=> no lock
 601:../src/platform/mpfs_hal/common/nwc/mss_pll.c ****  */
 602:../src/platform/mpfs_hal/common/nwc/mss_pll.c **** uint8_t ddr_pll_lock_scb(void)
 603:../src/platform/mpfs_hal/common/nwc/mss_pll.c **** {
 218              		.loc 1 603 1 is_stmt 1
 219              		.cfi_startproc
 604:../src/platform/mpfs_hal/common/nwc/mss_pll.c ****     uint8_t result = 1U;
 220              		.loc 1 604 5
 221              	.LVL2:
 605:../src/platform/mpfs_hal/common/nwc/mss_pll.c **** #ifndef RENODE_DEBUG
 606:../src/platform/mpfs_hal/common/nwc/mss_pll.c ****     if((MSS_SCB_DDR_PLL->PLL_CTRL & PLL_CTRL_LOCK_BIT) == PLL_CTRL_LOCK_BIT)
 222              		.loc 1 606 5
 223              		.loc 1 606 24 is_stmt 0
 224 0000 B707013E 		li	a5,1040252928
 225 0004 C843     		lw	a0,4(a5)
 226 0006 0125     		sext.w	a0,a0
 227              	.LVL3:
 607:../src/platform/mpfs_hal/common/nwc/mss_pll.c ****     {
 608:../src/platform/mpfs_hal/common/nwc/mss_pll.c ****         result = 0U; /* PLL lock has occurred */
 609:../src/platform/mpfs_hal/common/nwc/mss_pll.c ****     }
 610:../src/platform/mpfs_hal/common/nwc/mss_pll.c **** #else
 611:../src/platform/mpfs_hal/common/nwc/mss_pll.c ****     result = 0U;
 612:../src/platform/mpfs_hal/common/nwc/mss_pll.c **** #endif
 613:../src/platform/mpfs_hal/common/nwc/mss_pll.c ****     return (result);
 228              		.loc 1 613 5 is_stmt 1
 606:../src/platform/mpfs_hal/common/nwc/mss_pll.c ****     {
 229              		.loc 1 606 7 is_stmt 0
 230 0008 1B559541 		sraiw	a0,a0,25
 231              	.LVL4:
 232 000c 13451500 		xori	a0,a0,1
 614:../src/platform/mpfs_hal/common/nwc/mss_pll.c **** }
 233              		.loc 1 614 1
 234 0010 0589     		andi	a0,a0,1
 235 0012 8280     		ret
 236              		.cfi_endproc
 237              	.LFE26:
 239              		.section	.text.ddr_pll_config_scb_turn_off,"ax",@progbits
 240              		.align	1
 241              		.globl	ddr_pll_config_scb_turn_off
 243              	ddr_pll_config_scb_turn_off:
 244              	.LFB27:
 615:../src/platform/mpfs_hal/common/nwc/mss_pll.c **** 
 616:../src/platform/mpfs_hal/common/nwc/mss_pll.c **** /***************************************************************************//**
 617:../src/platform/mpfs_hal/common/nwc/mss_pll.c ****  *
 618:../src/platform/mpfs_hal/common/nwc/mss_pll.c ****  ******************************************************************************/
 619:../src/platform/mpfs_hal/common/nwc/mss_pll.c **** void ddr_pll_config_scb_turn_off(void)
 620:../src/platform/mpfs_hal/common/nwc/mss_pll.c **** {
 245              		.loc 1 620 1 is_stmt 1
 246              		.cfi_startproc
 621:../src/platform/mpfs_hal/common/nwc/mss_pll.c ****     /* PERIPH / periph_reset_b */
 622:../src/platform/mpfs_hal/common/nwc/mss_pll.c ****     MSS_SCB_DDR_PLL->PLL_CTRL       &= (uint32_t)~0x00000001UL;
 247              		.loc 1 622 5
 248              		.loc 1 622 37 is_stmt 0
 249 0000 3707013E 		li	a4,1040252928
 250 0004 5C43     		lw	a5,4(a4)
 251 0006 8127     		sext.w	a5,a5
 252 0008 F99B     		andi	a5,a5,-2
 253 000a 5CC3     		sw	a5,4(a4)
 623:../src/platform/mpfs_hal/common/nwc/mss_pll.c **** }
 254              		.loc 1 623 1
 255 000c 8280     		ret
 256              		.cfi_endproc
 257              	.LFE27:
 259              		.section	.text.sgmii_pll_config_scb,"ax",@progbits
 260              		.align	1
 261              		.globl	sgmii_pll_config_scb
 263              	sgmii_pll_config_scb:
 264              	.LFB28:
 624:../src/platform/mpfs_hal/common/nwc/mss_pll.c **** 
 625:../src/platform/mpfs_hal/common/nwc/mss_pll.c **** 
 626:../src/platform/mpfs_hal/common/nwc/mss_pll.c **** /***************************************************************************//**
 627:../src/platform/mpfs_hal/common/nwc/mss_pll.c ****  * sgmii_pll_config_scb(uint8_t option)
 628:../src/platform/mpfs_hal/common/nwc/mss_pll.c ****  * @param option 1 => soft reset, load RPC settings
 629:../src/platform/mpfs_hal/common/nwc/mss_pll.c ****  *               0 => write values using SCB
 630:../src/platform/mpfs_hal/common/nwc/mss_pll.c ****  ******************************************************************************/
 631:../src/platform/mpfs_hal/common/nwc/mss_pll.c **** void sgmii_pll_config_scb(uint8_t option)
 632:../src/platform/mpfs_hal/common/nwc/mss_pll.c **** {
 265              		.loc 1 632 1 is_stmt 1
 266              		.cfi_startproc
 267              	.LVL5:
 633:../src/platform/mpfs_hal/common/nwc/mss_pll.c **** 
 634:../src/platform/mpfs_hal/common/nwc/mss_pll.c ****     switch(option)
 268              		.loc 1 634 5
 269 0000 0546     		li	a2,1
 635:../src/platform/mpfs_hal/common/nwc/mss_pll.c ****     {
 636:../src/platform/mpfs_hal/common/nwc/mss_pll.c ****         default:
 637:../src/platform/mpfs_hal/common/nwc/mss_pll.c ****         case SCB_UPDATE:   /* write to   SCB register */
 638:../src/platform/mpfs_hal/common/nwc/mss_pll.c ****             /* PERIPH / periph_reset_b  - This asserts the functional reset of
 639:../src/platform/mpfs_hal/common/nwc/mss_pll.c ****              * the block. It is asserted at power up. When written is stays
 640:../src/platform/mpfs_hal/common/nwc/mss_pll.c ****              * asserted until written to 0.
 641:../src/platform/mpfs_hal/common/nwc/mss_pll.c ****              * First set periph_reset_b, than remove reset. As may be called
 642:../src/platform/mpfs_hal/common/nwc/mss_pll.c ****              * more than one.
 643:../src/platform/mpfs_hal/common/nwc/mss_pll.c ****              * */
 644:../src/platform/mpfs_hal/common/nwc/mss_pll.c ****             MSS_SCB_SGMII_PLL->SOFT_RESET      = PLL_INIT_AND_OUT_OF_RESET;
 270              		.loc 1 644 48 is_stmt 0
 271 0002 B707083E 		li	a5,1040711680
 634:../src/platform/mpfs_hal/common/nwc/mss_pll.c ****     {
 272              		.loc 1 634 5
 273 0006 6305C504 		beq	a0,a2,.L12
 274              		.loc 1 644 13 is_stmt 1
 275              		.loc 1 644 48 is_stmt 0
 276 000a 0D47     		li	a4,3
 277 000c 98C3     		sw	a4,0(a5)
 645:../src/platform/mpfs_hal/common/nwc/mss_pll.c **** 
 646:../src/platform/mpfs_hal/common/nwc/mss_pll.c ****             MSS_SCB_SGMII_PLL->PLL_CTRL      = LIBERO_SETTING_SGMII_PLL_CTRL & ~(PLL_CTRL_REG_POWER
 278              		.loc 1 646 13 is_stmt 1
 279              		.loc 1 646 46 is_stmt 0
 280 000e 37070001 		li	a4,16777216
 281 0012 9306E703 		addi	a3,a4,62
 282 0016 D4C3     		sw	a3,4(a5)
 647:../src/platform/mpfs_hal/common/nwc/mss_pll.c ****             /* PLL calibration register */
 648:../src/platform/mpfs_hal/common/nwc/mss_pll.c **** 
 649:../src/platform/mpfs_hal/common/nwc/mss_pll.c ****             /*
 650:../src/platform/mpfs_hal/common/nwc/mss_pll.c ****              * PLL calibration register
 651:../src/platform/mpfs_hal/common/nwc/mss_pll.c ****              * This value is factory set, do not overwrite
 652:../src/platform/mpfs_hal/common/nwc/mss_pll.c ****              * MSS_SCB_SGMII_PLL->PLL_CAL        = LIBERO_SETTING_MSS_PLL_CAL;
 653:../src/platform/mpfs_hal/common/nwc/mss_pll.c ****              *
 654:../src/platform/mpfs_hal/common/nwc/mss_pll.c ****              */
 655:../src/platform/mpfs_hal/common/nwc/mss_pll.c **** 
 656:../src/platform/mpfs_hal/common/nwc/mss_pll.c ****             MSS_SCB_SGMII_PLL->PLL_REF_FB    = LIBERO_SETTING_SGMII_PLL_REF_FB;
 283              		.loc 1 656 13 is_stmt 1
 284              		.loc 1 656 46 is_stmt 0
 285 0018 93060010 		li	a3,256
 286 001c 94C7     		sw	a3,8(a5)
 657:../src/platform/mpfs_hal/common/nwc/mss_pll.c **** 
 658:../src/platform/mpfs_hal/common/nwc/mss_pll.c **** 
 659:../src/platform/mpfs_hal/common/nwc/mss_pll.c ****             MSS_SCB_SGMII_PLL->PLL_DIV_0_1   = LIBERO_SETTING_SGMII_PLL_DIV_0_1;
 287              		.loc 1 659 13 is_stmt 1
 288              		.loc 1 659 46 is_stmt 0
 289 001e 93060710 		addi	a3,a4,256
 290 0022 94CB     		sw	a3,16(a5)
 660:../src/platform/mpfs_hal/common/nwc/mss_pll.c **** 
 661:../src/platform/mpfs_hal/common/nwc/mss_pll.c ****             MSS_SCB_SGMII_PLL->PLL_DIV_2_3   = LIBERO_SETTING_SGMII_PLL_DIV_2_3;
 291              		.loc 1 661 13 is_stmt 1
 292              		.loc 1 661 46 is_stmt 0
 293 0024 D4CB     		sw	a3,20(a5)
 662:../src/platform/mpfs_hal/common/nwc/mss_pll.c **** 
 663:../src/platform/mpfs_hal/common/nwc/mss_pll.c **** 
 664:../src/platform/mpfs_hal/common/nwc/mss_pll.c ****             MSS_SCB_SGMII_PLL->PLL_CTRL2     = LIBERO_SETTING_SGMII_PLL_CTRL2;
 294              		.loc 1 664 13 is_stmt 1
 295              		.loc 1 664 46 is_stmt 0
 296 0026 8566     		li	a3,4096
 297 0028 93860602 		addi	a3,a3,32
 298 002c 94CF     		sw	a3,24(a5)
 665:../src/platform/mpfs_hal/common/nwc/mss_pll.c **** 
 666:../src/platform/mpfs_hal/common/nwc/mss_pll.c ****             MSS_SCB_SGMII_PLL->PLL_FRACN     = LIBERO_SETTING_SGMII_PLL_FRACN;
 299              		.loc 1 666 13 is_stmt 1
 300              		.loc 1 666 46 is_stmt 0
 301 002e 23A60700 		sw	zero,12(a5)
 667:../src/platform/mpfs_hal/common/nwc/mss_pll.c ****             MSS_SCB_SGMII_PLL->SSCG_REG_0    = LIBERO_SETTING_SGMII_SSCG_REG_0;
 302              		.loc 1 667 13 is_stmt 1
 303              		.loc 1 667 46 is_stmt 0
 304 0032 23A20702 		sw	zero,36(a5)
 668:../src/platform/mpfs_hal/common/nwc/mss_pll.c ****             MSS_SCB_SGMII_PLL->SSCG_REG_1    = LIBERO_SETTING_SGMII_SSCG_REG_1;
 305              		.loc 1 668 13 is_stmt 1
 306              		.loc 1 668 46 is_stmt 0
 307 0036 23A40702 		sw	zero,40(a5)
 669:../src/platform/mpfs_hal/common/nwc/mss_pll.c **** 
 670:../src/platform/mpfs_hal/common/nwc/mss_pll.c ****             MSS_SCB_SGMII_PLL->SSCG_REG_2    = LIBERO_SETTING_SGMII_SSCG_REG_2;
 308              		.loc 1 670 13 is_stmt 1
 309              		.loc 1 670 46 is_stmt 0
 310 003a D146     		li	a3,20
 311 003c D4D7     		sw	a3,44(a5)
 671:../src/platform/mpfs_hal/common/nwc/mss_pll.c ****             MSS_SCB_SGMII_PLL->SSCG_REG_3    = LIBERO_SETTING_SGMII_SSCG_REG_3;
 312              		.loc 1 671 13 is_stmt 1
 672:../src/platform/mpfs_hal/common/nwc/mss_pll.c **** 
 673:../src/platform/mpfs_hal/common/nwc/mss_pll.c ****             /* PLL phase registers */
 674:../src/platform/mpfs_hal/common/nwc/mss_pll.c **** 
 675:../src/platform/mpfs_hal/common/nwc/mss_pll.c ****             MSS_SCB_SGMII_PLL->PLL_PHADJ     = LIBERO_SETTING_SGMII_PLL_PHADJ;
 313              		.loc 1 675 46 is_stmt 0
 314 003e 9D66     		li	a3,28672
 671:../src/platform/mpfs_hal/common/nwc/mss_pll.c ****             MSS_SCB_SGMII_PLL->SSCG_REG_3    = LIBERO_SETTING_SGMII_SSCG_REG_3;
 315              		.loc 1 671 46
 316 0040 90DB     		sw	a2,48(a5)
 317              		.loc 1 675 13 is_stmt 1
 318              		.loc 1 675 46 is_stmt 0
 319 0042 93863644 		addi	a3,a3,1091
 320 0046 94D3     		sw	a3,32(a5)
 676:../src/platform/mpfs_hal/common/nwc/mss_pll.c **** 
 677:../src/platform/mpfs_hal/common/nwc/mss_pll.c ****             MSS_SCB_SGMII_PLL->PLL_CTRL      = (LIBERO_SETTING_SGMII_PLL_CTRL)\
 321              		.loc 1 677 13 is_stmt 1
 322              		.loc 1 677 46 is_stmt 0
 323 0048 1307F703 		addi	a4,a4,63
 324 004c D8C3     		sw	a4,4(a5)
 678:../src/platform/mpfs_hal/common/nwc/mss_pll.c ****                     | 0x01U;  /* bit 0 == REG_POWERDOWN_B */
 679:../src/platform/mpfs_hal/common/nwc/mss_pll.c **** 
 680:../src/platform/mpfs_hal/common/nwc/mss_pll.c ****             break;
 325              		.loc 1 680 13 is_stmt 1
 326 004e 8280     		ret
 327              	.L12:
 681:../src/platform/mpfs_hal/common/nwc/mss_pll.c **** 
 682:../src/platform/mpfs_hal/common/nwc/mss_pll.c ****         case RPC_REG_UPDATE:
 683:../src/platform/mpfs_hal/common/nwc/mss_pll.c ****             /*
 684:../src/platform/mpfs_hal/common/nwc/mss_pll.c ****              * set the NV map reset
 685:../src/platform/mpfs_hal/common/nwc/mss_pll.c ****              * This will load the APB registers, set via SGMII TIP.
 686:../src/platform/mpfs_hal/common/nwc/mss_pll.c ****              * */
 687:../src/platform/mpfs_hal/common/nwc/mss_pll.c ****             /* bit 0 == REG_POWERDOWN_B */
 688:../src/platform/mpfs_hal/common/nwc/mss_pll.c ****             MSS_SCB_SGMII_PLL->SOFT_RESET  = 0x01U;
 328              		.loc 1 688 13
 329              		.loc 1 688 44 is_stmt 0
 330 0050 88C3     		sw	a0,0(a5)
 689:../src/platform/mpfs_hal/common/nwc/mss_pll.c ****             break;
 331              		.loc 1 689 13 is_stmt 1
 690:../src/platform/mpfs_hal/common/nwc/mss_pll.c ****     }
 691:../src/platform/mpfs_hal/common/nwc/mss_pll.c **** }
 332              		.loc 1 691 1 is_stmt 0
 333 0052 8280     		ret
 334              		.cfi_endproc
 335              	.LFE28:
 337              		.section	.text.sgmii_pll_lock_scb,"ax",@progbits
 338              		.align	1
 339              		.globl	sgmii_pll_lock_scb
 341              	sgmii_pll_lock_scb:
 342              	.LFB29:
 692:../src/platform/mpfs_hal/common/nwc/mss_pll.c **** 
 693:../src/platform/mpfs_hal/common/nwc/mss_pll.c **** /**
 694:../src/platform/mpfs_hal/common/nwc/mss_pll.c ****  * sgmii_pll_lock_scb(void)
 695:../src/platform/mpfs_hal/common/nwc/mss_pll.c ****  * checks to see if lock has occurred
 696:../src/platform/mpfs_hal/common/nwc/mss_pll.c ****  * @return => lock has occurred, 1=> no lock
 697:../src/platform/mpfs_hal/common/nwc/mss_pll.c ****  */
 698:../src/platform/mpfs_hal/common/nwc/mss_pll.c **** uint8_t sgmii_pll_lock_scb(void)
 699:../src/platform/mpfs_hal/common/nwc/mss_pll.c **** {
 343              		.loc 1 699 1 is_stmt 1
 344              		.cfi_startproc
 700:../src/platform/mpfs_hal/common/nwc/mss_pll.c ****     uint8_t result = 1U;
 345              		.loc 1 700 5
 346              	.LVL6:
 701:../src/platform/mpfs_hal/common/nwc/mss_pll.c **** #ifndef RENODE_DEBUG
 702:../src/platform/mpfs_hal/common/nwc/mss_pll.c ****     if((MSS_SCB_SGMII_PLL->PLL_CTRL & PLL_CTRL_LOCK_BIT) == PLL_CTRL_LOCK_BIT)
 347              		.loc 1 702 5
 348              		.loc 1 702 26 is_stmt 0
 349 0000 B707083E 		li	a5,1040711680
 350 0004 C843     		lw	a0,4(a5)
 351 0006 0125     		sext.w	a0,a0
 352              	.LVL7:
 703:../src/platform/mpfs_hal/common/nwc/mss_pll.c ****     {
 704:../src/platform/mpfs_hal/common/nwc/mss_pll.c ****         result = 0U; /* PLL lock has occurred */
 705:../src/platform/mpfs_hal/common/nwc/mss_pll.c ****     }
 706:../src/platform/mpfs_hal/common/nwc/mss_pll.c **** #else
 707:../src/platform/mpfs_hal/common/nwc/mss_pll.c ****     result = 0U;
 708:../src/platform/mpfs_hal/common/nwc/mss_pll.c **** #endif
 709:../src/platform/mpfs_hal/common/nwc/mss_pll.c ****     return (result);
 353              		.loc 1 709 5 is_stmt 1
 702:../src/platform/mpfs_hal/common/nwc/mss_pll.c ****     {
 354              		.loc 1 702 7 is_stmt 0
 355 0008 1B559541 		sraiw	a0,a0,25
 356              	.LVL8:
 357 000c 13451500 		xori	a0,a0,1
 710:../src/platform/mpfs_hal/common/nwc/mss_pll.c **** }
 358              		.loc 1 710 1
 359 0010 0589     		andi	a0,a0,1
 360 0012 8280     		ret
 361              		.cfi_endproc
 362              	.LFE29:
 364              		.section	.text.copy_switch_code,"ax",@progbits
 365              		.align	1
 366              		.weak	copy_switch_code
 368              	copy_switch_code:
 369              	.LFB30:
 711:../src/platform/mpfs_hal/common/nwc/mss_pll.c **** 
 712:../src/platform/mpfs_hal/common/nwc/mss_pll.c **** 
 713:../src/platform/mpfs_hal/common/nwc/mss_pll.c **** /***************************************************************************//**
 714:../src/platform/mpfs_hal/common/nwc/mss_pll.c ****  * Copy switch code routine to RAM.
 715:../src/platform/mpfs_hal/common/nwc/mss_pll.c ****  * Copy locations have been defined in the linker script
 716:../src/platform/mpfs_hal/common/nwc/mss_pll.c ****  ******************************************************************************/
 717:../src/platform/mpfs_hal/common/nwc/mss_pll.c **** __attribute__((weak)) void copy_switch_code(void)
 718:../src/platform/mpfs_hal/common/nwc/mss_pll.c **** {
 370              		.loc 1 718 1 is_stmt 1
 371              		.cfi_startproc
 719:../src/platform/mpfs_hal/common/nwc/mss_pll.c ****     uint32_t * sc_lma = &__sc_load;
 372              		.loc 1 719 5
 373              	.LVL9:
 720:../src/platform/mpfs_hal/common/nwc/mss_pll.c ****     uint32_t * end_sc_vma = &__sc_end;
 374              		.loc 1 720 5
 721:../src/platform/mpfs_hal/common/nwc/mss_pll.c ****     uint32_t * sc_vma = &__sc_start;
 375              		.loc 1 721 5
 722:../src/platform/mpfs_hal/common/nwc/mss_pll.c **** 
 723:../src/platform/mpfs_hal/common/nwc/mss_pll.c ****     if ( sc_vma != sc_lma )
 376              		.loc 1 723 5
 377              		.loc 1 723 8 is_stmt 0
 378 0000 97070000 		lla	a5,__sc_start
 378      93870700 
 379 0008 17070000 		lla	a4,__sc_load
 379      13070700 
 380              	.LBB4:
 381              	.LBB5:
 724:../src/platform/mpfs_hal/common/nwc/mss_pll.c ****     {
 725:../src/platform/mpfs_hal/common/nwc/mss_pll.c ****         while ( sc_vma < end_sc_vma )
 382              		.loc 1 725 15
 383 0010 97060000 		lla	a3,__sc_end
 383      93860600 
 384              	.LBE5:
 385              	.LBE4:
 723:../src/platform/mpfs_hal/common/nwc/mss_pll.c ****     {
 386              		.loc 1 723 8
 387 0018 6398E700 		bne	a5,a4,.L16
 388 001c 8280     		ret
 389              	.LVL10:
 390              	.L17:
 391              	.LBB7:
 392              	.LBB6:
 726:../src/platform/mpfs_hal/common/nwc/mss_pll.c ****         {
 727:../src/platform/mpfs_hal/common/nwc/mss_pll.c ****             *sc_vma = *sc_lma;
 393              		.loc 1 727 13 is_stmt 1
 394              		.loc 1 727 21 is_stmt 0
 395 001e 1043     		lw	a2,0(a4)
 728:../src/platform/mpfs_hal/common/nwc/mss_pll.c ****             sc_vma++ ; sc_lma++;
 396              		.loc 1 728 19
 397 0020 9107     		addi	a5,a5,4
 398              	.LVL11:
 399              		.loc 1 728 30
 400 0022 1107     		addi	a4,a4,4
 401              	.LVL12:
 727:../src/platform/mpfs_hal/common/nwc/mss_pll.c ****             sc_vma++ ; sc_lma++;
 402              		.loc 1 727 21
 403 0024 23AEC7FE 		sw	a2,-4(a5)
 404              		.loc 1 728 13 is_stmt 1
 405              	.LVL13:
 406              		.loc 1 728 24
 407              	.L16:
 725:../src/platform/mpfs_hal/common/nwc/mss_pll.c ****         {
 408              		.loc 1 725 15 is_stmt 0
 409 0028 E3EBD7FE 		bltu	a5,a3,.L17
 410              	.LBE6:
 411              	.LBE7:
 729:../src/platform/mpfs_hal/common/nwc/mss_pll.c ****          }
 730:../src/platform/mpfs_hal/common/nwc/mss_pll.c ****     }
 731:../src/platform/mpfs_hal/common/nwc/mss_pll.c **** }
 412              		.loc 1 731 1
 413 002c 8280     		ret
 414              		.cfi_endproc
 415              	.LFE30:
 417              		.section	.text.mss_pll_config,"ax",@progbits
 418              		.align	1
 419              		.globl	mss_pll_config
 421              	mss_pll_config:
 422              	.LFB23:
 401:../src/platform/mpfs_hal/common/nwc/mss_pll.c ****     
 423              		.loc 1 401 1 is_stmt 1
 424              		.cfi_startproc
 403:../src/platform/mpfs_hal/common/nwc/mss_pll.c **** 
 425              		.loc 1 403 5
 401:../src/platform/mpfs_hal/common/nwc/mss_pll.c ****     
 426              		.loc 1 401 1 is_stmt 0
 427 0000 7971     		addi	sp,sp,-48
 428              		.cfi_def_cfa_offset 48
 429 0002 06F4     		sd	ra,40(sp)
 430 0004 22F0     		sd	s0,32(sp)
 431 0006 26EC     		sd	s1,24(sp)
 432 0008 4AE8     		sd	s2,16(sp)
 433              		.cfi_offset 1, -8
 434              		.cfi_offset 8, -16
 435              		.cfi_offset 9, -24
 436              		.cfi_offset 18, -32
 403:../src/platform/mpfs_hal/common/nwc/mss_pll.c **** 
 437              		.loc 1 403 5
 438 000a 97000000 		call	copy_switch_code
 438      E7800000 
 439              	.LVL14:
 405:../src/platform/mpfs_hal/common/nwc/mss_pll.c ****     MSS_SCB_MSS_PLL->SOFT_RESET     = PLL_INIT_AND_OUT_OF_RESET;
 440              		.loc 1 405 5 is_stmt 1
 405:../src/platform/mpfs_hal/common/nwc/mss_pll.c ****     MSS_SCB_MSS_PLL->SOFT_RESET     = PLL_INIT_AND_OUT_OF_RESET;
 441              		.loc 1 405 37 is_stmt 0
 442 0012 0D47     		li	a4,3
 443 0014 B707013E 		li	a5,1040252928
 444 0018 98C3     		sw	a4,0(a5)
 406:../src/platform/mpfs_hal/common/nwc/mss_pll.c **** 
 445              		.loc 1 406 5 is_stmt 1
 406:../src/platform/mpfs_hal/common/nwc/mss_pll.c **** 
 446              		.loc 1 406 37 is_stmt 0
 447 001a B717003E 		li	a5,1040191488
 448 001e 98C3     		sw	a4,0(a5)
 431:../src/platform/mpfs_hal/common/nwc/mss_pll.c **** 
 449              		.loc 1 431 5 is_stmt 1
 431:../src/platform/mpfs_hal/common/nwc/mss_pll.c **** 
 450              		.loc 1 431 37 is_stmt 0
 451 0020 37070001 		li	a4,16777216
 452 0024 93066703 		addi	a3,a4,54
 453 0028 D4C3     		sw	a3,4(a5)
 440:../src/platform/mpfs_hal/common/nwc/mss_pll.c **** 
 454              		.loc 1 440 5 is_stmt 1
 440:../src/platform/mpfs_hal/common/nwc/mss_pll.c **** 
 455              		.loc 1 440 37 is_stmt 0
 456 002a 93060050 		li	a3,1280
 457 002e 94C7     		sw	a3,8(a5)
 442:../src/platform/mpfs_hal/common/nwc/mss_pll.c **** 
 458              		.loc 1 442 5 is_stmt 1
 442:../src/platform/mpfs_hal/common/nwc/mss_pll.c **** 
 459              		.loc 1 442 37 is_stmt 0
 460 0030 13070710 		addi	a4,a4,256
 461 0034 98CB     		sw	a4,16(a5)
 444:../src/platform/mpfs_hal/common/nwc/mss_pll.c **** 
 462              		.loc 1 444 5 is_stmt 1
 444:../src/platform/mpfs_hal/common/nwc/mss_pll.c **** 
 463              		.loc 1 444 37 is_stmt 0
 464 0036 3707004B 		li	a4,1258291200
 465 003a 13070730 		addi	a4,a4,768
 466 003e D8CB     		sw	a4,20(a5)
 446:../src/platform/mpfs_hal/common/nwc/mss_pll.c **** 
 467              		.loc 1 446 5 is_stmt 1
 446:../src/platform/mpfs_hal/common/nwc/mss_pll.c **** 
 468              		.loc 1 446 37 is_stmt 0
 469 0040 0567     		li	a4,4096
 470 0042 13070702 		addi	a4,a4,32
 471 0046 98CF     		sw	a4,24(a5)
 448:../src/platform/mpfs_hal/common/nwc/mss_pll.c ****     MSS_SCB_MSS_PLL->SSCG_REG_0     = LIBERO_SETTING_MSS_SSCG_REG_0;
 472              		.loc 1 448 5 is_stmt 1
 448:../src/platform/mpfs_hal/common/nwc/mss_pll.c ****     MSS_SCB_MSS_PLL->SSCG_REG_0     = LIBERO_SETTING_MSS_SSCG_REG_0;
 473              		.loc 1 448 37 is_stmt 0
 474 0048 23A60700 		sw	zero,12(a5)
 449:../src/platform/mpfs_hal/common/nwc/mss_pll.c ****     MSS_SCB_MSS_PLL->SSCG_REG_1     = LIBERO_SETTING_MSS_SSCG_REG_1;
 475              		.loc 1 449 5 is_stmt 1
 449:../src/platform/mpfs_hal/common/nwc/mss_pll.c ****     MSS_SCB_MSS_PLL->SSCG_REG_1     = LIBERO_SETTING_MSS_SSCG_REG_1;
 476              		.loc 1 449 37 is_stmt 0
 477 004c 23A20702 		sw	zero,36(a5)
 450:../src/platform/mpfs_hal/common/nwc/mss_pll.c **** 
 478              		.loc 1 450 5 is_stmt 1
 450:../src/platform/mpfs_hal/common/nwc/mss_pll.c **** 
 479              		.loc 1 450 37 is_stmt 0
 480 0050 23A40702 		sw	zero,40(a5)
 452:../src/platform/mpfs_hal/common/nwc/mss_pll.c ****     MSS_SCB_MSS_PLL->SSCG_REG_3     = LIBERO_SETTING_MSS_SSCG_REG_3;
 481              		.loc 1 452 5 is_stmt 1
 452:../src/platform/mpfs_hal/common/nwc/mss_pll.c ****     MSS_SCB_MSS_PLL->SSCG_REG_3     = LIBERO_SETTING_MSS_SSCG_REG_3;
 482              		.loc 1 452 37 is_stmt 0
 483 0054 13070006 		li	a4,96
 484 0058 D8D7     		sw	a4,44(a5)
 453:../src/platform/mpfs_hal/common/nwc/mss_pll.c **** 
 485              		.loc 1 453 5 is_stmt 1
 453:../src/platform/mpfs_hal/common/nwc/mss_pll.c **** 
 486              		.loc 1 453 37 is_stmt 0
 487 005a 0547     		li	a4,1
 488 005c 98DB     		sw	a4,48(a5)
 456:../src/platform/mpfs_hal/common/nwc/mss_pll.c **** 
 489              		.loc 1 456 5 is_stmt 1
 456:../src/platform/mpfs_hal/common/nwc/mss_pll.c **** 
 490              		.loc 1 456 37 is_stmt 0
 491 005e 1167     		li	a4,16384
 492 0060 0D07     		addi	a4,a4,3
 493 0062 98D3     		sw	a4,32(a5)
 463:../src/platform/mpfs_hal/common/nwc/mss_pll.c ****     /* bit 0 == REG_POWERDOWN_B */
 494              		.loc 1 463 5 is_stmt 1
 495              	.LBB12:
 496              	.LBB13:
 121:../src/platform/mpfs_hal/common/nwc/mss_pll.c ****     /*
 497              		.loc 1 121 5
 121:../src/platform/mpfs_hal/common/nwc/mss_pll.c ****     /*
 498              		.loc 1 121 36 is_stmt 0
 499 0064 B727003E 		li	a5,1040195584
 500 0068 13075015 		li	a4,341
 501 006c 98C7     		sw	a4,8(a5)
 160:../src/platform/mpfs_hal/common/nwc/mss_pll.c **** 
 502              		.loc 1 160 5 is_stmt 1
 160:../src/platform/mpfs_hal/common/nwc/mss_pll.c **** 
 503              		.loc 1 160 45 is_stmt 0
 504 006e 0D67     		li	a4,12288
 505 0070 130707C3 		addi	a4,a4,-976
 506 0074 B706203E 		li	a3,1042284544
 507 0078 98CA     		sw	a4,16(a3)
 185:../src/platform/mpfs_hal/common/nwc/mss_pll.c **** 
 508              		.loc 1 185 5 is_stmt 1
 185:../src/platform/mpfs_hal/common/nwc/mss_pll.c **** 
 509              		.loc 1 185 41 is_stmt 0
 510 007a 13078020 		li	a4,520
 511 007e D8C3     		sw	a4,4(a5)
 188:../src/platform/mpfs_hal/common/nwc/mss_pll.c **** 
 512              		.loc 1 188 5 is_stmt 1
 188:../src/platform/mpfs_hal/common/nwc/mss_pll.c **** 
 513              		.loc 1 188 41 is_stmt 0
 514 0080 23AA0700 		sw	zero,20(a5)
 190:../src/platform/mpfs_hal/common/nwc/mss_pll.c **** 
 515              		.loc 1 190 5 is_stmt 1
 190:../src/platform/mpfs_hal/common/nwc/mss_pll.c **** 
 516              		.loc 1 190 41 is_stmt 0
 517 0084 23AC0700 		sw	zero,24(a5)
 192:../src/platform/mpfs_hal/common/nwc/mss_pll.c **** 
 518              		.loc 1 192 5 is_stmt 1
 192:../src/platform/mpfs_hal/common/nwc/mss_pll.c **** 
 519              		.loc 1 192 41 is_stmt 0
 520 0088 23AE0700 		sw	zero,28(a5)
 197:../src/platform/mpfs_hal/common/nwc/mss_pll.c ****     for(i = 0U; i < 400U; i++)
 521              		.loc 1 197 5 is_stmt 1
 198:../src/platform/mpfs_hal/common/nwc/mss_pll.c ****     {
 522              		.loc 1 198 5
 198:../src/platform/mpfs_hal/common/nwc/mss_pll.c ****     {
 523              		.loc 1 198 11 is_stmt 0
 524 008c 02C4     		sw	zero,8(sp)
 198:../src/platform/mpfs_hal/common/nwc/mss_pll.c ****     {
 525              		.loc 1 198 5
 526 008e 1307F018 		li	a4,399
 527              	.L21:
 198:../src/platform/mpfs_hal/common/nwc/mss_pll.c ****     {
 528              		.loc 1 198 19
 529 0092 A247     		lw	a5,8(sp)
 530 0094 8127     		sext.w	a5,a5
 198:../src/platform/mpfs_hal/common/nwc/mss_pll.c ****     {
 531              		.loc 1 198 5
 532 0096 6374F706 		bleu	a5,a4,.L22
 533              	.LBE13:
 534              	.LBE12:
 465:../src/platform/mpfs_hal/common/nwc/mss_pll.c ****     /*
 535              		.loc 1 465 5 is_stmt 1
 465:../src/platform/mpfs_hal/common/nwc/mss_pll.c ****     /*
 536              		.loc 1 465 37 is_stmt 0
 537 009a B7070001 		li	a5,16777216
 538 009e 93867703 		addi	a3,a5,55
 539 00a2 3717003E 		li	a4,1040191488
 471:../src/platform/mpfs_hal/common/nwc/mss_pll.c ****     while((MSS_SCB_MSS_PLL->PLL_CTRL & PLL_CTRL_LOCK_BIT) == 0U)
 540              		.loc 1 471 23
 541 00a6 FD17     		addi	a5,a5,-1
 465:../src/platform/mpfs_hal/common/nwc/mss_pll.c ****     /*
 542              		.loc 1 465 37
 543 00a8 54C3     		sw	a3,4(a4)
 471:../src/platform/mpfs_hal/common/nwc/mss_pll.c ****     while((MSS_SCB_MSS_PLL->PLL_CTRL & PLL_CTRL_LOCK_BIT) == 0U)
 544              		.loc 1 471 5 is_stmt 1
 471:../src/platform/mpfs_hal/common/nwc/mss_pll.c ****     while((MSS_SCB_MSS_PLL->PLL_CTRL & PLL_CTRL_LOCK_BIT) == 0U)
 545              		.loc 1 471 23 is_stmt 0
 546 00aa 3EC2     		sw	a5,4(sp)
 472:../src/platform/mpfs_hal/common/nwc/mss_pll.c ****     {
 547              		.loc 1 472 5 is_stmt 1
 472:../src/platform/mpfs_hal/common/nwc/mss_pll.c ****     {
 548              		.loc 1 472 27 is_stmt 0
 549 00ac 3719003E 		li	s2,1040191488
 472:../src/platform/mpfs_hal/common/nwc/mss_pll.c ****     {
 550              		.loc 1 472 38
 551 00b0 B7040002 		li	s1,33554432
 483:../src/platform/mpfs_hal/common/nwc/mss_pll.c ****             flag_mss_pll_lock_error();
 552              		.loc 1 483 22
 553 00b4 3E84     		mv	s0,a5
 554              	.L23:
 472:../src/platform/mpfs_hal/common/nwc/mss_pll.c ****     {
 555              		.loc 1 472 27
 556 00b6 83274900 		lw	a5,4(s2)
 557 00ba 8127     		sext.w	a5,a5
 472:../src/platform/mpfs_hal/common/nwc/mss_pll.c ****     {
 558              		.loc 1 472 10
 559 00bc E58F     		and	a5,a5,s1
 560 00be B9C7     		beq	a5,zero,.L26
 493:../src/platform/mpfs_hal/common/nwc/mss_pll.c **** }
 561              		.loc 1 493 5 is_stmt 1
 562              	.LBB15:
 563              	.LBB16:
 230:../src/platform/mpfs_hal/common/nwc/mss_pll.c **** 
 564              		.loc 1 230 5
 230:../src/platform/mpfs_hal/common/nwc/mss_pll.c **** 
 565              		.loc 1 230 21 is_stmt 0
 566 00c0 B7070540 		li	a5,1074069504
 567 00c4 37270020 		li	a4,536879104
 568 00c8 9507     		addi	a5,a5,5
 569 00ca 232CF70A 		sw	a5,184(a4)
 232:../src/platform/mpfs_hal/common/nwc/mss_pll.c ****              leave */
 570              		.loc 1 232 5 is_stmt 1
 571              	 #APP
 572              	# 232 "../src/platform/mpfs_hal/common/nwc/mss_pll.c" 1
 240:../src/platform/mpfs_hal/common/nwc/mss_pll.c ****     while ((SYSREG->ENVM_CR & ENVM_CR_CLOCK_OKAY_MASK) !=\
 573              		fence
 574              	# 0 "" 2
 575              		.loc 1 240 5
 240:../src/platform/mpfs_hal/common/nwc/mss_pll.c ****     while ((SYSREG->ENVM_CR & ENVM_CR_CLOCK_OKAY_MASK) !=\
 576              		.loc 1 240 23 is_stmt 0
 577              	 #NO_APP
 578 00d2 02C6     		sw	zero,12(sp)
 241:../src/platform/mpfs_hal/common/nwc/mss_pll.c ****             ENVM_CR_CLOCK_OKAY_MASK)
 579              		.loc 1 241 5 is_stmt 1
 580              	.L27:
 241:../src/platform/mpfs_hal/common/nwc/mss_pll.c ****             ENVM_CR_CLOCK_OKAY_MASK)
 581              		.loc 1 241 19 is_stmt 0
 582 00d4 8327870B 		lw	a5,184(a4)
 241:../src/platform/mpfs_hal/common/nwc/mss_pll.c ****             ENVM_CR_CLOCK_OKAY_MASK)
 583              		.loc 1 241 29
 584 00d8 93F70704 		andi	a5,a5,64
 241:../src/platform/mpfs_hal/common/nwc/mss_pll.c ****             ENVM_CR_CLOCK_OKAY_MASK)
 585              		.loc 1 241 11
 586 00dc A9C7     		beq	a5,zero,.L28
 268:../src/platform/mpfs_hal/common/nwc/mss_pll.c **** 
 587              		.loc 1 268 3 is_stmt 1
 268:../src/platform/mpfs_hal/common/nwc/mss_pll.c **** 
 588              		.loc 1 268 27 is_stmt 0
 589 00de 93074002 		li	a5,36
 590              	.LBE16:
 591              	.LBE15:
 494:../src/platform/mpfs_hal/common/nwc/mss_pll.c **** 
 592              		.loc 1 494 1
 593 00e2 0274     		ld	s0,32(sp)
 594              		.cfi_remember_state
 595              		.cfi_restore 8
 596              	.LBB21:
 597              	.LBB17:
 268:../src/platform/mpfs_hal/common/nwc/mss_pll.c **** 
 598              		.loc 1 268 27
 599 00e4 1CC7     		sw	a5,8(a4)
 291:../src/platform/mpfs_hal/common/nwc/mss_pll.c **** 
 600              		.loc 1 291 5 is_stmt 1
 601              	.LBE17:
 602              	.LBE21:
 494:../src/platform/mpfs_hal/common/nwc/mss_pll.c **** 
 603              		.loc 1 494 1 is_stmt 0
 604 00e6 A270     		ld	ra,40(sp)
 605              		.cfi_restore 1
 606 00e8 E264     		ld	s1,24(sp)
 607              		.cfi_restore 9
 608 00ea 4269     		ld	s2,16(sp)
 609              		.cfi_restore 18
 610              	.LBB22:
 611              	.LBB18:
 291:../src/platform/mpfs_hal/common/nwc/mss_pll.c **** 
 612              		.loc 1 291 38
 613 00ec B727003E 		li	a5,1040195584
 614 00f0 0D47     		li	a4,3
 615 00f2 D8C7     		sw	a4,12(a5)
 296:../src/platform/mpfs_hal/common/nwc/mss_pll.c **** }
 616              		.loc 1 296 5 is_stmt 1
 617              	.LBE18:
 618              	.LBE22:
 494:../src/platform/mpfs_hal/common/nwc/mss_pll.c **** 
 619              		.loc 1 494 1 is_stmt 0
 620 00f4 4561     		addi	sp,sp,48
 621              		.cfi_def_cfa_offset 0
 622              	.LBB23:
 623              	.LBB19:
 296:../src/platform/mpfs_hal/common/nwc/mss_pll.c **** }
 624              		.loc 1 296 5
 625 00f6 17030000 		tail	set_RTC_divisor
 625      67000300 
 626              	.LVL15:
 627              	.L22:
 628              		.cfi_restore_state
 629              	.LBE19:
 630              	.LBE23:
 631              	.LBB24:
 632              	.LBB14:
 200:../src/platform/mpfs_hal/common/nwc/mss_pll.c ****     }
 633              		.loc 1 200 9 is_stmt 1
 200:../src/platform/mpfs_hal/common/nwc/mss_pll.c ****     }
 634              		.loc 1 200 10 is_stmt 0
 635 00fe A247     		lw	a5,8(sp)
 636 0100 8527     		addiw	a5,a5,1
 637 0102 3EC4     		sw	a5,8(sp)
 198:../src/platform/mpfs_hal/common/nwc/mss_pll.c ****     {
 638              		.loc 1 198 28
 639 0104 A247     		lw	a5,8(sp)
 640 0106 8527     		addiw	a5,a5,1
 641 0108 3EC4     		sw	a5,8(sp)
 642 010a 61B7     		j	.L21
 643              	.L26:
 644              	.LBE14:
 645              	.LBE24:
 477:../src/platform/mpfs_hal/common/nwc/mss_pll.c ****         {
 646              		.loc 1 477 9 is_stmt 1
 477:../src/platform/mpfs_hal/common/nwc/mss_pll.c ****         {
 647              		.loc 1 477 23 is_stmt 0
 648 010c 9247     		lw	a5,4(sp)
 649 010e 8127     		sext.w	a5,a5
 477:../src/platform/mpfs_hal/common/nwc/mss_pll.c ****         {
 650              		.loc 1 477 12
 651 0110 89C7     		beq	a5,zero,.L24
 479:../src/platform/mpfs_hal/common/nwc/mss_pll.c ****         }
 652              		.loc 1 479 13 is_stmt 1
 479:../src/platform/mpfs_hal/common/nwc/mss_pll.c ****         }
 653              		.loc 1 479 22 is_stmt 0
 654 0112 9247     		lw	a5,4(sp)
 655 0114 FD37     		addiw	a5,a5,-1
 656 0116 3EC2     		sw	a5,4(sp)
 657 0118 79BF     		j	.L23
 658              	.L24:
 483:../src/platform/mpfs_hal/common/nwc/mss_pll.c ****             flag_mss_pll_lock_error();
 659              		.loc 1 483 13 is_stmt 1
 483:../src/platform/mpfs_hal/common/nwc/mss_pll.c ****             flag_mss_pll_lock_error();
 660              		.loc 1 483 22 is_stmt 0
 661 011a 22C2     		sw	s0,4(sp)
 484:../src/platform/mpfs_hal/common/nwc/mss_pll.c ****         }
 662              		.loc 1 484 13 is_stmt 1
 663 011c 97000000 		call	flag_mss_pll_lock_error
 663      E7800000 
 664              	.LVL16:
 665 0124 49BF     		j	.L23
 666              	.L28:
 667              	.LBB25:
 668              	.LBB20:
 247:../src/platform/mpfs_hal/common/nwc/mss_pll.c ****     }
 669              		.loc 1 247 9
 247:../src/platform/mpfs_hal/common/nwc/mss_pll.c ****     }
 670              		.loc 1 247 22 is_stmt 0
 671 0126 B247     		lw	a5,12(sp)
 672 0128 8527     		addiw	a5,a5,1
 673 012a 3EC6     		sw	a5,12(sp)
 674 012c 65B7     		j	.L27
 675              	.LBE20:
 676              	.LBE25:
 677              		.cfi_endproc
 678              	.LFE23:
 680              		.globl	IOSCB_IO_CALIB_DDR
 681              		.globl	IOSCB_IO_CALIB_SGMII
 682              		.globl	MSS_SCB_CFM_SGMII_MUX
 683              		.globl	MSS_SCB_CFM_MSS_MUX
 684              		.globl	MSS_SCB_SGMII_PLL
 685              		.globl	MSS_SCB_DDR_PLL
 686              		.globl	MSS_SCB_MSS_PLL
 687              		.section	.sdata2.IOSCB_IO_CALIB_DDR,"a"
 688              		.align	3
 691              	IOSCB_IO_CALIB_DDR:
 692 0000 0000043E 		.dword	1040449536
 692      00000000 
 693              		.section	.sdata2.IOSCB_IO_CALIB_SGMII,"a"
 694              		.align	3
 697              	IOSCB_IO_CALIB_SGMII:
 698 0000 0000803E 		.dword	1048576000
 698      00000000 
 699              		.section	.sdata2.MSS_SCB_CFM_MSS_MUX,"a"
 700              		.align	3
 703              	MSS_SCB_CFM_MSS_MUX:
 704 0000 0020003E 		.dword	1040195584
 704      00000000 
 705              		.section	.sdata2.MSS_SCB_CFM_SGMII_MUX,"a"
 706              		.align	3
 709              	MSS_SCB_CFM_SGMII_MUX:
 710 0000 0000203E 		.dword	1042284544
 710      00000000 
 711              		.section	.sdata2.MSS_SCB_DDR_PLL,"a"
 712              		.align	3
 715              	MSS_SCB_DDR_PLL:
 716 0000 0000013E 		.dword	1040252928
 716      00000000 
 717              		.section	.sdata2.MSS_SCB_MSS_PLL,"a"
 718              		.align	3
 721              	MSS_SCB_MSS_PLL:
 722 0000 0010003E 		.dword	1040191488
 722      00000000 
 723              		.section	.sdata2.MSS_SCB_SGMII_PLL,"a"
 724              		.align	3
 727              	MSS_SCB_SGMII_PLL:
 728 0000 0000083E 		.dword	1040711680
 728      00000000 
 729              		.text
 730              	.Letext0:
 731              		.file 2 "/home/vinay/Desktop/soft_console/SoftConsole-v2022.2-RISC-V-747/riscv-unknown-elf-gcc/ris
 732              		.file 3 "/home/vinay/Desktop/soft_console/SoftConsole-v2022.2-RISC-V-747/riscv-unknown-elf-gcc/ris
 733              		.file 4 "/home/vinay/Desktop/softconsole_watershed/Water-shed/src/platform/mpfs_hal/common/nwc/../
 734              		.file 5 "/home/vinay/Desktop/softconsole_watershed/Water-shed/src/platform/mpfs_hal/common/nwc/mss
 735              		.file 6 "/home/vinay/Desktop/softconsole_watershed/Water-shed/src/platform/mpfs_hal/common/nwc/mss
 736              		.file 7 "/home/vinay/Desktop/softconsole_watershed/Water-shed/src/platform/mpfs_hal/common/nwc/mss
 737              		.file 8 "/home/vinay/Desktop/softconsole_watershed/Water-shed/src/platform/mpfs_hal/common/nwc/mss
 738              		.file 9 "/home/vinay/Desktop/softconsole_watershed/Water-shed/src/platform/mpfs_hal/common/mss_mpu
 739              		.file 10 "/home/vinay/Desktop/softconsole_watershed/Water-shed/src/platform/mpfs_hal/common/mss_pl
 740              		.file 11 "/home/vinay/Desktop/softconsole_watershed/Water-shed/src/platform/mpfs_hal/startup_gcc/s