   1              		.file	"mss_nwc_init.c"
   2              		.option nopic
   3              		.attribute arch, "rv64i2p0_m2p0_a2p0_f2p0_d2p0_c2p0"
   4              		.attribute unaligned_access, 0
   5              		.attribute stack_align, 16
   6              		.text
   7              	.Ltext0:
   8              		.cfi_sections	.debug_frame
   9              		.section	.text.delay.constprop.1,"ax",@progbits
  10              		.align	1
  12              	delay.constprop.1:
  13              	.LFB29:
  14              		.file 1 "../src/platform/mpfs_hal/common/nwc/mss_nwc_init.h"
   1:../src/platform/mpfs_hal/common/nwc/mss_nwc_init.h **** /*******************************************************************************
   2:../src/platform/mpfs_hal/common/nwc/mss_nwc_init.h ****  * Copyright 2019-2022 Microchip FPGA Embedded Systems Solutions.
   3:../src/platform/mpfs_hal/common/nwc/mss_nwc_init.h ****  *
   4:../src/platform/mpfs_hal/common/nwc/mss_nwc_init.h ****  * SPDX-License-Identifier: MIT
   5:../src/platform/mpfs_hal/common/nwc/mss_nwc_init.h ****  *
   6:../src/platform/mpfs_hal/common/nwc/mss_nwc_init.h ****  * MPFS HAL Embedded Software
   7:../src/platform/mpfs_hal/common/nwc/mss_nwc_init.h ****  *
   8:../src/platform/mpfs_hal/common/nwc/mss_nwc_init.h ****  */
   9:../src/platform/mpfs_hal/common/nwc/mss_nwc_init.h **** 
  10:../src/platform/mpfs_hal/common/nwc/mss_nwc_init.h **** /*******************************************************************************
  11:../src/platform/mpfs_hal/common/nwc/mss_nwc_init.h ****  * @file mss_nwc_init.h
  12:../src/platform/mpfs_hal/common/nwc/mss_nwc_init.h ****  * @author Microchip-FPGA Embedded Systems Solutions
  13:../src/platform/mpfs_hal/common/nwc/mss_nwc_init.h ****  * @brief defines for mss_nwc_init.c
  14:../src/platform/mpfs_hal/common/nwc/mss_nwc_init.h ****  *
  15:../src/platform/mpfs_hal/common/nwc/mss_nwc_init.h ****  */
  16:../src/platform/mpfs_hal/common/nwc/mss_nwc_init.h **** 
  17:../src/platform/mpfs_hal/common/nwc/mss_nwc_init.h **** /*=========================================================================*//**
  18:../src/platform/mpfs_hal/common/nwc/mss_nwc_init.h ****   @page MPFS MSS NWC configuration
  19:../src/platform/mpfs_hal/common/nwc/mss_nwc_init.h ****   ==============================================================================
  20:../src/platform/mpfs_hal/common/nwc/mss_nwc_init.h ****   @section intro_sec Introduction
  21:../src/platform/mpfs_hal/common/nwc/mss_nwc_init.h ****   ==============================================================================
  22:../src/platform/mpfs_hal/common/nwc/mss_nwc_init.h ****   The MPFS microcontroller subsystem (MSS) includes a number of hard core
  23:../src/platform/mpfs_hal/common/nwc/mss_nwc_init.h ****   components physically located in the north west corner of the MSS on the die.
  24:../src/platform/mpfs_hal/common/nwc/mss_nwc_init.h **** 
  25:../src/platform/mpfs_hal/common/nwc/mss_nwc_init.h ****   ==============================================================================
  26:../src/platform/mpfs_hal/common/nwc/mss_nwc_init.h ****   @section Items located in the north west corner
  27:../src/platform/mpfs_hal/common/nwc/mss_nwc_init.h ****   ==============================================================================
  28:../src/platform/mpfs_hal/common/nwc/mss_nwc_init.h ****   MSS PLL
  29:../src/platform/mpfs_hal/common/nwc/mss_nwc_init.h ****   SGMII
  30:../src/platform/mpfs_hal/common/nwc/mss_nwc_init.h ****   DDR phy
  31:../src/platform/mpfs_hal/common/nwc/mss_nwc_init.h ****   MSSIO
  32:../src/platform/mpfs_hal/common/nwc/mss_nwc_init.h **** 
  33:../src/platform/mpfs_hal/common/nwc/mss_nwc_init.h ****   ==============================================================================
  34:../src/platform/mpfs_hal/common/nwc/mss_nwc_init.h ****   @section Flow diagram
  35:../src/platform/mpfs_hal/common/nwc/mss_nwc_init.h ****   ==============================================================================
  36:../src/platform/mpfs_hal/common/nwc/mss_nwc_init.h ****   todo: remove, added line here as test *****
  37:../src/platform/mpfs_hal/common/nwc/mss_nwc_init.h ****   Simplified flow diagram
  38:../src/platform/mpfs_hal/common/nwc/mss_nwc_init.h ****                               +-----------------+
  39:../src/platform/mpfs_hal/common/nwc/mss_nwc_init.h ****                               |     start       |
  40:../src/platform/mpfs_hal/common/nwc/mss_nwc_init.h ****                               |  NWC setup      |
  41:../src/platform/mpfs_hal/common/nwc/mss_nwc_init.h ****                               +-------+---------+
  42:../src/platform/mpfs_hal/common/nwc/mss_nwc_init.h ****                                       v
  43:../src/platform/mpfs_hal/common/nwc/mss_nwc_init.h ****                               +-----------------+
  44:../src/platform/mpfs_hal/common/nwc/mss_nwc_init.h ****                               |   set SCB access|
  45:../src/platform/mpfs_hal/common/nwc/mss_nwc_init.h ****                               |   Parameters    |
  46:../src/platform/mpfs_hal/common/nwc/mss_nwc_init.h ****                               +-------+---------+
  47:../src/platform/mpfs_hal/common/nwc/mss_nwc_init.h ****                                       |
  48:../src/platform/mpfs_hal/common/nwc/mss_nwc_init.h ****                               +-------v---------+
  49:../src/platform/mpfs_hal/common/nwc/mss_nwc_init.h ****                               | Release APB NWC |
  50:../src/platform/mpfs_hal/common/nwc/mss_nwc_init.h ****                               | Turn on APB clk |
  51:../src/platform/mpfs_hal/common/nwc/mss_nwc_init.h ****                               +-------+---------+
  52:../src/platform/mpfs_hal/common/nwc/mss_nwc_init.h ****                                       |
  53:../src/platform/mpfs_hal/common/nwc/mss_nwc_init.h ****                               +-------v---------+
  54:../src/platform/mpfs_hal/common/nwc/mss_nwc_init.h ****                               | Set Dynamic     |
  55:../src/platform/mpfs_hal/common/nwc/mss_nwc_init.h ****                               | enable bits     |
  56:../src/platform/mpfs_hal/common/nwc/mss_nwc_init.h ****                               +-------++--------+
  57:../src/platform/mpfs_hal/common/nwc/mss_nwc_init.h ****                                       |
  58:../src/platform/mpfs_hal/common/nwc/mss_nwc_init.h ****                               +-------v---------+
  59:../src/platform/mpfs_hal/common/nwc/mss_nwc_init.h ****                               | Setup signals   |
  60:../src/platform/mpfs_hal/common/nwc/mss_nwc_init.h ****                               | DCE,CORE_UP,    |
  61:../src/platform/mpfs_hal/common/nwc/mss_nwc_init.h ****                               | Flash_Valid,    |
  62:../src/platform/mpfs_hal/common/nwc/mss_nwc_init.h ****                               | MSS_IO_EN       |
  63:../src/platform/mpfs_hal/common/nwc/mss_nwc_init.h ****                               +-------+---------+
  64:../src/platform/mpfs_hal/common/nwc/mss_nwc_init.h ****                                       |
  65:../src/platform/mpfs_hal/common/nwc/mss_nwc_init.h ****                               +-------v---------+
  66:../src/platform/mpfs_hal/common/nwc/mss_nwc_init.h ****                               | Setup SGMII     |
  67:../src/platform/mpfs_hal/common/nwc/mss_nwc_init.h ****                               |                 |
  68:../src/platform/mpfs_hal/common/nwc/mss_nwc_init.h ****                               +-------+---------+
  69:../src/platform/mpfs_hal/common/nwc/mss_nwc_init.h ****                                       |
  70:../src/platform/mpfs_hal/common/nwc/mss_nwc_init.h ****                               +-------v---------+
  71:../src/platform/mpfs_hal/common/nwc/mss_nwc_init.h ****                               | Setup DDR       |
  72:../src/platform/mpfs_hal/common/nwc/mss_nwc_init.h ****                               |                 |
  73:../src/platform/mpfs_hal/common/nwc/mss_nwc_init.h ****                               +-------+---------+
  74:../src/platform/mpfs_hal/common/nwc/mss_nwc_init.h ****                                       |
  75:../src/platform/mpfs_hal/common/nwc/mss_nwc_init.h ****                               +-------v---------+
  76:../src/platform/mpfs_hal/common/nwc/mss_nwc_init.h ****                               | Setup MSSIO     |
  77:../src/platform/mpfs_hal/common/nwc/mss_nwc_init.h ****                               |                 |
  78:../src/platform/mpfs_hal/common/nwc/mss_nwc_init.h ****                               +-------+---------+
  79:../src/platform/mpfs_hal/common/nwc/mss_nwc_init.h ****                                       |
  80:../src/platform/mpfs_hal/common/nwc/mss_nwc_init.h ****                               +-------v---------+
  81:../src/platform/mpfs_hal/common/nwc/mss_nwc_init.h ****                               |    Finished     |
  82:../src/platform/mpfs_hal/common/nwc/mss_nwc_init.h ****                               +-----------------+
  83:../src/platform/mpfs_hal/common/nwc/mss_nwc_init.h **** 
  84:../src/platform/mpfs_hal/common/nwc/mss_nwc_init.h ****  *//*=========================================================================*/
  85:../src/platform/mpfs_hal/common/nwc/mss_nwc_init.h **** #ifndef __MSS_NWC_INIT_H_
  86:../src/platform/mpfs_hal/common/nwc/mss_nwc_init.h **** #define __MSS_NWC_INIT_H_ 1
  87:../src/platform/mpfs_hal/common/nwc/mss_nwc_init.h **** 
  88:../src/platform/mpfs_hal/common/nwc/mss_nwc_init.h **** 
  89:../src/platform/mpfs_hal/common/nwc/mss_nwc_init.h **** #include <stddef.h>
  90:../src/platform/mpfs_hal/common/nwc/mss_nwc_init.h **** #include <stdint.h>
  91:../src/platform/mpfs_hal/common/nwc/mss_nwc_init.h **** #include "../encoding.h"
  92:../src/platform/mpfs_hal/common/nwc/mss_nwc_init.h **** 
  93:../src/platform/mpfs_hal/common/nwc/mss_nwc_init.h **** #ifdef __cplusplus
  94:../src/platform/mpfs_hal/common/nwc/mss_nwc_init.h **** extern "C" {
  95:../src/platform/mpfs_hal/common/nwc/mss_nwc_init.h **** #endif
  96:../src/platform/mpfs_hal/common/nwc/mss_nwc_init.h **** 
  97:../src/platform/mpfs_hal/common/nwc/mss_nwc_init.h **** #define DELAY_CYCLES_500_NS            ((uint32_t)(0.0000005 * LIBERO_SETTING_MSS_COREPLEX_CPU_CLK)
  98:../src/platform/mpfs_hal/common/nwc/mss_nwc_init.h **** #define DELAY_CYCLES_1_MICRO           ((uint32_t)(DELAY_CYCLES_500_NS * 2U))
  99:../src/platform/mpfs_hal/common/nwc/mss_nwc_init.h **** #define DELAY_CYCLES_5_MICRO           ((uint32_t)(DELAY_CYCLES_500_NS * 10U))
 100:../src/platform/mpfs_hal/common/nwc/mss_nwc_init.h **** #define DELAY_CYCLES_50_MICRO          ((uint32_t)(DELAY_CYCLES_500_NS * 100U))
 101:../src/platform/mpfs_hal/common/nwc/mss_nwc_init.h **** #define DELAY_CYCLES_150_MICRO         ((uint32_t)(DELAY_CYCLES_500_NS * 300U))
 102:../src/platform/mpfs_hal/common/nwc/mss_nwc_init.h **** #define DELAY_CYCLES_250_MICRO         ((uint32_t)(DELAY_CYCLES_500_NS * 500U))
 103:../src/platform/mpfs_hal/common/nwc/mss_nwc_init.h **** #define DELAY_CYCLES_500_MICRO         ((uint32_t)(DELAY_CYCLES_500_NS * 1000U))
 104:../src/platform/mpfs_hal/common/nwc/mss_nwc_init.h **** #define DELAY_CYCLES_2MS               ((uint32_t)(DELAY_CYCLES_500_NS * 4000U))
 105:../src/platform/mpfs_hal/common/nwc/mss_nwc_init.h **** #define DELAY_CYCLES_100MS             ((uint32_t)(DELAY_CYCLES_2MS * 50U))
 106:../src/platform/mpfs_hal/common/nwc/mss_nwc_init.h **** 
 107:../src/platform/mpfs_hal/common/nwc/mss_nwc_init.h **** /***************************************************************************//**
 108:../src/platform/mpfs_hal/common/nwc/mss_nwc_init.h **** 
 109:../src/platform/mpfs_hal/common/nwc/mss_nwc_init.h ****  */
 110:../src/platform/mpfs_hal/common/nwc/mss_nwc_init.h **** typedef enum {
 111:../src/platform/mpfs_hal/common/nwc/mss_nwc_init.h ****     DDR_BOOT_PROGRESS      = 0x00      //!< DDR_BOOT_PROGRESS
 112:../src/platform/mpfs_hal/common/nwc/mss_nwc_init.h **** } MSS_REPORT_STATUS;
 113:../src/platform/mpfs_hal/common/nwc/mss_nwc_init.h **** 
 114:../src/platform/mpfs_hal/common/nwc/mss_nwc_init.h **** /*-------------------------------------------------------------------------*//**
 115:../src/platform/mpfs_hal/common/nwc/mss_nwc_init.h ****  * delay()
 116:../src/platform/mpfs_hal/common/nwc/mss_nwc_init.h ****  * Simple wait delay based on mcycles count
 117:../src/platform/mpfs_hal/common/nwc/mss_nwc_init.h ****  * @param n Number of mcycles to wait.
 118:../src/platform/mpfs_hal/common/nwc/mss_nwc_init.h ****  */
 119:../src/platform/mpfs_hal/common/nwc/mss_nwc_init.h **** static inline void delay(uint32_t n)
  15              		.loc 1 119 20
  16              		.cfi_startproc
  17              	.LVL0:
 120:../src/platform/mpfs_hal/common/nwc/mss_nwc_init.h **** {
 121:../src/platform/mpfs_hal/common/nwc/mss_nwc_init.h ****     volatile uint64_t cycles_end = rdcycle() + n ;
  18              		.loc 1 121 5
  19              	.LBB6:
  20              		.loc 1 121 36
  21              		.loc 1 121 36
  22              	.LBE6:
 119:../src/platform/mpfs_hal/common/nwc/mss_nwc_init.h **** {
  23              		.loc 1 119 20 is_stmt 0
  24 0000 4111     		addi	sp,sp,-16
  25              		.cfi_def_cfa_offset 16
  26              	.LBB7:
  27              		.loc 1 121 36
  28              	 #APP
  29              	# 121 "../src/platform/mpfs_hal/common/nwc/mss_nwc_init.h" 1
 122              	    while (rdcycle() < cycles_end)
  30              		csrr a5, cycle
  31              	# 0 "" 2
  32              	.LVL1:
 121:../src/platform/mpfs_hal/common/nwc/mss_nwc_init.h ****     while (rdcycle() < cycles_end)
  33              		.loc 1 121 36 is_stmt 1
  34              	 #NO_APP
  35              	.LBE7:
 121:../src/platform/mpfs_hal/common/nwc/mss_nwc_init.h ****     while (rdcycle() < cycles_end)
  36              		.loc 1 121 46 is_stmt 0
  37 0006 9387C712 		addi	a5,a5,300
  38              	.LVL2:
 121:../src/platform/mpfs_hal/common/nwc/mss_nwc_init.h ****     while (rdcycle() < cycles_end)
  39              		.loc 1 121 23
  40 000a 3EE4     		sd	a5,8(sp)
  41              		.loc 1 122 5 is_stmt 1
  42              	.LVL3:
  43              	.L2:
 123:../src/platform/mpfs_hal/common/nwc/mss_nwc_init.h ****     {
 124:../src/platform/mpfs_hal/common/nwc/mss_nwc_init.h **** 
 125:../src/platform/mpfs_hal/common/nwc/mss_nwc_init.h ****     }
  44              		.loc 1 125 5
  45              	.LBB8:
 122:../src/platform/mpfs_hal/common/nwc/mss_nwc_init.h ****     {
  46              		.loc 1 122 12
 122:../src/platform/mpfs_hal/common/nwc/mss_nwc_init.h ****     {
  47              		.loc 1 122 12
  48              	 #APP
  49              	# 122 "../src/platform/mpfs_hal/common/nwc/mss_nwc_init.h" 1
  50              		csrr a4, cycle
  51              	# 0 "" 2
  52              	.LVL4:
 122:../src/platform/mpfs_hal/common/nwc/mss_nwc_init.h ****     {
  53              		.loc 1 122 12
  54              	 #NO_APP
  55              	.LBE8:
 122:../src/platform/mpfs_hal/common/nwc/mss_nwc_init.h ****     {
  56              		.loc 1 122 22 is_stmt 0
  57 0010 A267     		ld	a5,8(sp)
 122:../src/platform/mpfs_hal/common/nwc/mss_nwc_init.h ****     {
  58              		.loc 1 122 11
  59 0012 E36DF7FE 		bltu	a4,a5,.L2
 126:../src/platform/mpfs_hal/common/nwc/mss_nwc_init.h **** }
  60              		.loc 1 126 1
  61 0016 4101     		addi	sp,sp,16
  62              		.cfi_def_cfa_offset 0
  63              	.LVL5:
  64 0018 8280     		jr	ra
  65              		.cfi_endproc
  66              	.LFE29:
  68              		.section	.text.mss_nwc_init,"ax",@progbits
  69              		.align	1
  70              		.globl	mss_nwc_init
  72              	mss_nwc_init:
  73              	.LFB24:
  74              		.file 2 "../src/platform/mpfs_hal/common/nwc/mss_nwc_init.c"
   1:../src/platform/mpfs_hal/common/nwc/mss_nwc_init.c **** /*******************************************************************************
   2:../src/platform/mpfs_hal/common/nwc/mss_nwc_init.c ****  * Copyright 2019-2022 Microchip FPGA Embedded Systems Solutions.
   3:../src/platform/mpfs_hal/common/nwc/mss_nwc_init.c ****  *
   4:../src/platform/mpfs_hal/common/nwc/mss_nwc_init.c ****  * SPDX-License-Identifier: MIT
   5:../src/platform/mpfs_hal/common/nwc/mss_nwc_init.c ****  *
   6:../src/platform/mpfs_hal/common/nwc/mss_nwc_init.c ****  * MPFS HAL Embedded Software
   7:../src/platform/mpfs_hal/common/nwc/mss_nwc_init.c ****  *
   8:../src/platform/mpfs_hal/common/nwc/mss_nwc_init.c ****  */
   9:../src/platform/mpfs_hal/common/nwc/mss_nwc_init.c **** 
  10:../src/platform/mpfs_hal/common/nwc/mss_nwc_init.c **** /*******************************************************************************
  11:../src/platform/mpfs_hal/common/nwc/mss_nwc_init.c ****  * @file mss_nwc_init.c
  12:../src/platform/mpfs_hal/common/nwc/mss_nwc_init.c ****  * @author Microchip-FPGA Embedded Systems Solutions
  13:../src/platform/mpfs_hal/common/nwc/mss_nwc_init.c ****  * @brief north west corner, calls required startup code
  14:../src/platform/mpfs_hal/common/nwc/mss_nwc_init.c ****  *
  15:../src/platform/mpfs_hal/common/nwc/mss_nwc_init.c ****  */
  16:../src/platform/mpfs_hal/common/nwc/mss_nwc_init.c **** 
  17:../src/platform/mpfs_hal/common/nwc/mss_nwc_init.c **** #include <string.h>
  18:../src/platform/mpfs_hal/common/nwc/mss_nwc_init.c **** #include <stdio.h>
  19:../src/platform/mpfs_hal/common/nwc/mss_nwc_init.c **** #include "mpfs_hal/mss_hal.h"
  20:../src/platform/mpfs_hal/common/nwc/mss_nwc_init.c **** #include "mss_nwc_init.h"
  21:../src/platform/mpfs_hal/common/nwc/mss_nwc_init.c **** #include "simulation.h"
  22:../src/platform/mpfs_hal/common/nwc/mss_nwc_init.c **** 
  23:../src/platform/mpfs_hal/common/nwc/mss_nwc_init.c **** #ifdef DEBUG_DDR_INIT
  24:../src/platform/mpfs_hal/common/nwc/mss_nwc_init.c **** #include "drivers/mss/mss_mmuart/mss_uart.h"
  25:../src/platform/mpfs_hal/common/nwc/mss_nwc_init.c **** extern mss_uart_instance_t *g_debug_uart ;
  26:../src/platform/mpfs_hal/common/nwc/mss_nwc_init.c **** #endif
  27:../src/platform/mpfs_hal/common/nwc/mss_nwc_init.c **** 
  28:../src/platform/mpfs_hal/common/nwc/mss_nwc_init.c **** /*******************************************************************************
  29:../src/platform/mpfs_hal/common/nwc/mss_nwc_init.c ****  * Local Defines
  30:../src/platform/mpfs_hal/common/nwc/mss_nwc_init.c ****  */
  31:../src/platform/mpfs_hal/common/nwc/mss_nwc_init.c **** CFG_DDR_SGMII_PHY_TypeDef       * const CFG_DDR_SGMII_PHY   =  ((CFG_DDR_SGMII_PHY_TypeDef *) CFG_D
  32:../src/platform/mpfs_hal/common/nwc/mss_nwc_init.c **** DDR_CSR_APB_TypeDef             * const DDRCFG              = ((DDR_CSR_APB_TypeDef *)       DDRCFG
  33:../src/platform/mpfs_hal/common/nwc/mss_nwc_init.c **** IOSCBCFG_TypeDef                * const SCBCFG_REGS         =  (IOSCBCFG_TypeDef            *)IOSCB
  34:../src/platform/mpfs_hal/common/nwc/mss_nwc_init.c **** g5_mss_top_scb_regs_TypeDef     * const SCB_REGS            = (g5_mss_top_scb_regs_TypeDef *) SYSRE
  35:../src/platform/mpfs_hal/common/nwc/mss_nwc_init.c **** 
  36:../src/platform/mpfs_hal/common/nwc/mss_nwc_init.c **** /*******************************************************************************
  37:../src/platform/mpfs_hal/common/nwc/mss_nwc_init.c ****  * Local functions
  38:../src/platform/mpfs_hal/common/nwc/mss_nwc_init.c ****  */
  39:../src/platform/mpfs_hal/common/nwc/mss_nwc_init.c **** static uint64_t report_status_functions(MSS_REPORT_STATUS report_status, uint64_t next_time);
  40:../src/platform/mpfs_hal/common/nwc/mss_nwc_init.c **** 
  41:../src/platform/mpfs_hal/common/nwc/mss_nwc_init.c **** /*******************************************************************************
  42:../src/platform/mpfs_hal/common/nwc/mss_nwc_init.c ****  * extern defined functions
  43:../src/platform/mpfs_hal/common/nwc/mss_nwc_init.c ****  */
  44:../src/platform/mpfs_hal/common/nwc/mss_nwc_init.c **** 
  45:../src/platform/mpfs_hal/common/nwc/mss_nwc_init.c **** /******************************************************************************
  46:../src/platform/mpfs_hal/common/nwc/mss_nwc_init.c ****  * Public Functions - API
  47:../src/platform/mpfs_hal/common/nwc/mss_nwc_init.c ****  ******************************************************************************/
  48:../src/platform/mpfs_hal/common/nwc/mss_nwc_init.c **** 
  49:../src/platform/mpfs_hal/common/nwc/mss_nwc_init.c **** /**
  50:../src/platform/mpfs_hal/common/nwc/mss_nwc_init.c ****  * mss_nwc_init(void)
  51:../src/platform/mpfs_hal/common/nwc/mss_nwc_init.c ****  * Init of MSS called after hard and soft boot
  52:../src/platform/mpfs_hal/common/nwc/mss_nwc_init.c ****  * Settings informed by MSS Configurator config.
  53:../src/platform/mpfs_hal/common/nwc/mss_nwc_init.c ****  *   - some registers set to required values
  54:../src/platform/mpfs_hal/common/nwc/mss_nwc_init.c ****  *   - PLL
  55:../src/platform/mpfs_hal/common/nwc/mss_nwc_init.c ****  *   - SGMII
  56:../src/platform/mpfs_hal/common/nwc/mss_nwc_init.c ****  *   - MSS IO
  57:../src/platform/mpfs_hal/common/nwc/mss_nwc_init.c ****  * @return
  58:../src/platform/mpfs_hal/common/nwc/mss_nwc_init.c ****  */
  59:../src/platform/mpfs_hal/common/nwc/mss_nwc_init.c **** uint8_t mss_nwc_init(void)
  60:../src/platform/mpfs_hal/common/nwc/mss_nwc_init.c **** {
  75              		.loc 2 60 1 is_stmt 1
  76              		.cfi_startproc
  61:../src/platform/mpfs_hal/common/nwc/mss_nwc_init.c ****     uint8_t error = 0U;
  77              		.loc 2 61 5
  78              	.LVL6:
  62:../src/platform/mpfs_hal/common/nwc/mss_nwc_init.c **** 
  63:../src/platform/mpfs_hal/common/nwc/mss_nwc_init.c ****     /*
  64:../src/platform/mpfs_hal/common/nwc/mss_nwc_init.c ****      * Assumptions:
  65:../src/platform/mpfs_hal/common/nwc/mss_nwc_init.c ****      *  1. We enter here shortly after start-up of E51 code by  the system
  66:../src/platform/mpfs_hal/common/nwc/mss_nwc_init.c ****      *  controller.
  67:../src/platform/mpfs_hal/common/nwc/mss_nwc_init.c ****      *  2. We are running on the E51 and all other cores  are in wfi.
  68:../src/platform/mpfs_hal/common/nwc/mss_nwc_init.c ****      *  3. The MSS PLL will be set to use default internal clock of 80MH
  69:../src/platform/mpfs_hal/common/nwc/mss_nwc_init.c ****      *  4. MSS peripherals including the I/O are in the default power on state
  70:../src/platform/mpfs_hal/common/nwc/mss_nwc_init.c ****      *
  71:../src/platform/mpfs_hal/common/nwc/mss_nwc_init.c ****      *
  72:../src/platform/mpfs_hal/common/nwc/mss_nwc_init.c ****      *   The following implements setting of
  73:../src/platform/mpfs_hal/common/nwc/mss_nwc_init.c ****      *          external clock reference
  74:../src/platform/mpfs_hal/common/nwc/mss_nwc_init.c ****      *          MSS PLL, SHMII PLL, SGMII PLL, MSS Mux's
  75:../src/platform/mpfs_hal/common/nwc/mss_nwc_init.c ****      *          IO settings and IO MUX
  76:../src/platform/mpfs_hal/common/nwc/mss_nwc_init.c ****      *          HSIO IO calibration options
  77:../src/platform/mpfs_hal/common/nwc/mss_nwc_init.c ****      *          SGMII configuration
  78:../src/platform/mpfs_hal/common/nwc/mss_nwc_init.c ****      *          DDR configuration
  79:../src/platform/mpfs_hal/common/nwc/mss_nwc_init.c ****      *              Including SEG regs
  80:../src/platform/mpfs_hal/common/nwc/mss_nwc_init.c ****      *          MPU setup
  81:../src/platform/mpfs_hal/common/nwc/mss_nwc_init.c ****      *          PMP setup
  82:../src/platform/mpfs_hal/common/nwc/mss_nwc_init.c ****      *          ABP Peripheral address setup (High/Low)
  83:../src/platform/mpfs_hal/common/nwc/mss_nwc_init.c ****      *
  84:../src/platform/mpfs_hal/common/nwc/mss_nwc_init.c ****      */
  85:../src/platform/mpfs_hal/common/nwc/mss_nwc_init.c **** 
  86:../src/platform/mpfs_hal/common/nwc/mss_nwc_init.c ****     /*
  87:../src/platform/mpfs_hal/common/nwc/mss_nwc_init.c ****      * Set based on reference clock
  88:../src/platform/mpfs_hal/common/nwc/mss_nwc_init.c ****      */
  89:../src/platform/mpfs_hal/common/nwc/mss_nwc_init.c ****     set_RTC_divisor();
  79              		.loc 2 89 5
  60:../src/platform/mpfs_hal/common/nwc/mss_nwc_init.c ****     uint8_t error = 0U;
  80              		.loc 2 60 1 is_stmt 0
  81 0000 0111     		addi	sp,sp,-32
  82              		.cfi_def_cfa_offset 32
  83 0002 06EC     		sd	ra,24(sp)
  84 0004 22E8     		sd	s0,16(sp)
  85 0006 26E4     		sd	s1,8(sp)
  86 0008 4AE0     		sd	s2,0(sp)
  87              		.cfi_offset 1, -8
  88              		.cfi_offset 8, -16
  89              		.cfi_offset 9, -24
  90              		.cfi_offset 18, -32
  91              		.loc 2 89 5
  92 000a 97000000 		call	set_RTC_divisor
  92      E7800000 
  93              	.LVL7:
  90:../src/platform/mpfs_hal/common/nwc/mss_nwc_init.c **** 
  91:../src/platform/mpfs_hal/common/nwc/mss_nwc_init.c ****     /*
  92:../src/platform/mpfs_hal/common/nwc/mss_nwc_init.c ****      * SCB access settings
  93:../src/platform/mpfs_hal/common/nwc/mss_nwc_init.c ****      */
  94:../src/platform/mpfs_hal/common/nwc/mss_nwc_init.c ****     SCBCFG_REGS->TIMER.TIMER = MSS_SCB_ACCESS_CONFIG;
  94              		.loc 2 94 5 is_stmt 1
  95              		.loc 2 94 30 is_stmt 0
  96 0012 B7A70800 		li	a5,565248
  97 0016 37070837 		li	a4,923271168
  98 001a 93870708 		addi	a5,a5,128
  99 001e 1CC7     		sw	a5,8(a4)
  95:../src/platform/mpfs_hal/common/nwc/mss_nwc_init.c **** 
  96:../src/platform/mpfs_hal/common/nwc/mss_nwc_init.c ****     /*
  97:../src/platform/mpfs_hal/common/nwc/mss_nwc_init.c ****      * Release APB reset & turn on dfi clock
  98:../src/platform/mpfs_hal/common/nwc/mss_nwc_init.c ****      *
  99:../src/platform/mpfs_hal/common/nwc/mss_nwc_init.c ****      * reserved bit 31:2
 100:../src/platform/mpfs_hal/common/nwc/mss_nwc_init.c ****      * reset    bit 1   Asserts the APB reset to the MSS corner, is asserted at
 101:../src/platform/mpfs_hal/common/nwc/mss_nwc_init.c ****      *                  MSS reset.
 102:../src/platform/mpfs_hal/common/nwc/mss_nwc_init.c ****      * clock_on bit 0   Turns on the APB clock to the MSS Corner, is off at
 103:../src/platform/mpfs_hal/common/nwc/mss_nwc_init.c ****      *                  reset. Once corner blocks is configured the firmware
 104:../src/platform/mpfs_hal/common/nwc/mss_nwc_init.c ****      *                  may turn off the clock, but periodically should turn
 105:../src/platform/mpfs_hal/common/nwc/mss_nwc_init.c ****      *                  back on to allow refresh of TMR registers inside
 106:../src/platform/mpfs_hal/common/nwc/mss_nwc_init.c ****      *                  the corner block.
 107:../src/platform/mpfs_hal/common/nwc/mss_nwc_init.c ****      *
 108:../src/platform/mpfs_hal/common/nwc/mss_nwc_init.c ****      */
 109:../src/platform/mpfs_hal/common/nwc/mss_nwc_init.c ****     SYSREG->DFIAPB_CR = 0x00000001U;
 100              		.loc 2 109 5 is_stmt 1
 101              		.loc 2 109 23 is_stmt 0
 102 0020 B7270020 		li	a5,536879104
 103 0024 0547     		li	a4,1
 104 0026 23ACE708 		sw	a4,152(a5)
 110:../src/platform/mpfs_hal/common/nwc/mss_nwc_init.c **** 
 111:../src/platform/mpfs_hal/common/nwc/mss_nwc_init.c ****     /*
 112:../src/platform/mpfs_hal/common/nwc/mss_nwc_init.c ****      * Dynamic APB enables for slaves
 113:../src/platform/mpfs_hal/common/nwc/mss_nwc_init.c ****      * APB  dynamic enables determine if we can write to the associated APB
 114:../src/platform/mpfs_hal/common/nwc/mss_nwc_init.c ****      * registers.
 115:../src/platform/mpfs_hal/common/nwc/mss_nwc_init.c ****      * ACB dynamic enables determine if we can write to the associated SCB
 116:../src/platform/mpfs_hal/common/nwc/mss_nwc_init.c ****      * registers.
 117:../src/platform/mpfs_hal/common/nwc/mss_nwc_init.c ****      *
 118:../src/platform/mpfs_hal/common/nwc/mss_nwc_init.c ****      * bit 31:22 Reserved
 119:../src/platform/mpfs_hal/common/nwc/mss_nwc_init.c ****      * bit 21   DYNEN_APB_DECODER_PRESETS
 120:../src/platform/mpfs_hal/common/nwc/mss_nwc_init.c ****      * bit 20   DYNEN_APB_BANKCNTL
 121:../src/platform/mpfs_hal/common/nwc/mss_nwc_init.c ****      * bit 19   DYNEN_APB_IO_CALIB
 122:../src/platform/mpfs_hal/common/nwc/mss_nwc_init.c ****      * bit 18   DYNEN_APB_CFM
 123:../src/platform/mpfs_hal/common/nwc/mss_nwc_init.c ****      * bit 17   DYNEN_APB_PLL1
 124:../src/platform/mpfs_hal/common/nwc/mss_nwc_init.c ****      * bit 16   DYNEN_APB_PLL0
 125:../src/platform/mpfs_hal/common/nwc/mss_nwc_init.c ****      * bit 15:13 Reserved
 126:../src/platform/mpfs_hal/common/nwc/mss_nwc_init.c ****      * bit 12   DYNEN_SCB_BANKCNTL
 127:../src/platform/mpfs_hal/common/nwc/mss_nwc_init.c ****      * bit 11   DYNEN_SCB_IO_CALIB
 128:../src/platform/mpfs_hal/common/nwc/mss_nwc_init.c ****      * bit 10   DYNEN_SCB_CFM
 129:../src/platform/mpfs_hal/common/nwc/mss_nwc_init.c ****      * bit 9    DYNEN_SCB_PLL1
 130:../src/platform/mpfs_hal/common/nwc/mss_nwc_init.c ****      * bit 8    DYNEN_SCB_PLL0
 131:../src/platform/mpfs_hal/common/nwc/mss_nwc_init.c ****      * bit 7:5 Reserved
 132:../src/platform/mpfs_hal/common/nwc/mss_nwc_init.c ****      * bit 4    Persist_DATA
 133:../src/platform/mpfs_hal/common/nwc/mss_nwc_init.c ****      * bit 3    CLKOUT
 134:../src/platform/mpfs_hal/common/nwc/mss_nwc_init.c ****      * bit 2    PERSIST_ADD_CMD
 135:../src/platform/mpfs_hal/common/nwc/mss_nwc_init.c ****      * bit 1    DATA_Lockdn
 136:../src/platform/mpfs_hal/common/nwc/mss_nwc_init.c ****      * bit 0    ADD_CMD_Lockdn
 137:../src/platform/mpfs_hal/common/nwc/mss_nwc_init.c ****      */
 138:../src/platform/mpfs_hal/common/nwc/mss_nwc_init.c ****     CFG_DDR_SGMII_PHY->DDRPHY_STARTUP.DDRPHY_STARTUP =\
 105              		.loc 2 138 5 is_stmt 1
 106              		.loc 2 138 54 is_stmt 0
 107 002a B7273F00 		li	a5,4136960
 108 002e 37770020 		li	a4,536899584
 109 0032 938707F0 		addi	a5,a5,-256
 110 0036 1CC7     		sw	a5,8(a4)
 139:../src/platform/mpfs_hal/common/nwc/mss_nwc_init.c ****             (0x3FU << 16U) | (0x1FU << 8U);
 140:../src/platform/mpfs_hal/common/nwc/mss_nwc_init.c ****     /* Enable all dynamic enables
 141:../src/platform/mpfs_hal/common/nwc/mss_nwc_init.c ****        When in dynamic enable more, this allows:
 142:../src/platform/mpfs_hal/common/nwc/mss_nwc_init.c ****        1. writing directly using SCB
 143:../src/platform/mpfs_hal/common/nwc/mss_nwc_init.c ****        2. setting using RPC on a soft reset
 144:../src/platform/mpfs_hal/common/nwc/mss_nwc_init.c ****      */
 145:../src/platform/mpfs_hal/common/nwc/mss_nwc_init.c ****     CFG_DDR_SGMII_PHY->DYN_CNTL.DYN_CNTL = (0x01U<< 10U) | (0x7FU<<0U);
 111              		.loc 2 145 5 is_stmt 1
 112              		.loc 2 145 42 is_stmt 0
 113 0038 1307F047 		li	a4,1151
 114 003c B7870020 		li	a5,536903680
 115 0040 23AEE7C0 		sw	a4,-996(a5)
 146:../src/platform/mpfs_hal/common/nwc/mss_nwc_init.c **** 
 147:../src/platform/mpfs_hal/common/nwc/mss_nwc_init.c ****     /*
 148:../src/platform/mpfs_hal/common/nwc/mss_nwc_init.c ****      * Configure IOMUX and I/O settings for bank 2 and 4
 149:../src/platform/mpfs_hal/common/nwc/mss_nwc_init.c ****      */
 150:../src/platform/mpfs_hal/common/nwc/mss_nwc_init.c ****     {
 151:../src/platform/mpfs_hal/common/nwc/mss_nwc_init.c **** #ifdef MSSIO_SUPPORT
 152:../src/platform/mpfs_hal/common/nwc/mss_nwc_init.c ****         error |= mssio_setup();
 116              		.loc 2 152 9 is_stmt 1
 117              		.loc 2 152 18 is_stmt 0
 118 0044 97000000 		call	mssio_setup
 118      E7800000 
 119              	.LVL8:
 145:../src/platform/mpfs_hal/common/nwc/mss_nwc_init.c **** 
 120              		.loc 2 145 42
 121 004c 8564     		li	s1,4096
 153:../src/platform/mpfs_hal/common/nwc/mss_nwc_init.c **** #endif
 154:../src/platform/mpfs_hal/common/nwc/mss_nwc_init.c ****     }
 155:../src/platform/mpfs_hal/common/nwc/mss_nwc_init.c **** 
 156:../src/platform/mpfs_hal/common/nwc/mss_nwc_init.c ****     /*************************************************************************/
 157:../src/platform/mpfs_hal/common/nwc/mss_nwc_init.c **** 
 158:../src/platform/mpfs_hal/common/nwc/mss_nwc_init.c ****     /*
 159:../src/platform/mpfs_hal/common/nwc/mss_nwc_init.c ****      *
 160:../src/platform/mpfs_hal/common/nwc/mss_nwc_init.c ****      *  In this step we enter Dynamic Enable mode.
 161:../src/platform/mpfs_hal/common/nwc/mss_nwc_init.c ****      *  This is done by using the following sequence:
 162:../src/platform/mpfs_hal/common/nwc/mss_nwc_init.c ****      *
 163:../src/platform/mpfs_hal/common/nwc/mss_nwc_init.c ****      *  Please note all dynamic enables must be enabled.
 164:../src/platform/mpfs_hal/common/nwc/mss_nwc_init.c ****      *  If dynamic enables are not enabled, when flash valid is asserted, value
 165:../src/platform/mpfs_hal/common/nwc/mss_nwc_init.c ****      *  of SCB registers will be immediately written to with default values
 166:../src/platform/mpfs_hal/common/nwc/mss_nwc_init.c ****      *  rather than the RPC values.
 167:../src/platform/mpfs_hal/common/nwc/mss_nwc_init.c ****      *
 168:../src/platform/mpfs_hal/common/nwc/mss_nwc_init.c ****      *  Dynamic Enable mode:
 169:../src/platform/mpfs_hal/common/nwc/mss_nwc_init.c ****      *      Step 1:
 170:../src/platform/mpfs_hal/common/nwc/mss_nwc_init.c ****      *          Make sure SCB dynamic enable bit is high
 171:../src/platform/mpfs_hal/common/nwc/mss_nwc_init.c ****      *      step 2: Assert MSS core_up
 172:../src/platform/mpfs_hal/common/nwc/mss_nwc_init.c ****      *          followed by delay
 173:../src/platform/mpfs_hal/common/nwc/mss_nwc_init.c ****      *      step 3: Change dce[0,1,2] to 0x00
 174:../src/platform/mpfs_hal/common/nwc/mss_nwc_init.c ****      *          followed by delay
 175:../src/platform/mpfs_hal/common/nwc/mss_nwc_init.c ****      *      step 4: Assert flash valid
 176:../src/platform/mpfs_hal/common/nwc/mss_nwc_init.c ****      *          followed by delay
 177:../src/platform/mpfs_hal/common/nwc/mss_nwc_init.c ****      *      step 5: make sure all RPC registers are set to desired values
 178:../src/platform/mpfs_hal/common/nwc/mss_nwc_init.c ****      *              (using mode and direct RPC writes to RPC)
 179:../src/platform/mpfs_hal/common/nwc/mss_nwc_init.c ****      *      step 6: soft reset IP so SCB registers are written with RPC values.
 180:../src/platform/mpfs_hal/common/nwc/mss_nwc_init.c ****      *          note: We will carry out step 5/6 later, once we have modified any
 181:../src/platform/mpfs_hal/common/nwc/mss_nwc_init.c ****      *          RPC registers directly that may need tweaking or are not
 182:../src/platform/mpfs_hal/common/nwc/mss_nwc_init.c ****      *          included in the mode write state machine, carried out in a
 183:../src/platform/mpfs_hal/common/nwc/mss_nwc_init.c ****      *          previous step.
 184:../src/platform/mpfs_hal/common/nwc/mss_nwc_init.c ****      *
 185:../src/platform/mpfs_hal/common/nwc/mss_nwc_init.c ****      *          Note 1: The SCB bus can be used to update/write new values to
 186:../src/platform/mpfs_hal/common/nwc/mss_nwc_init.c ****      *          the SCB registers through the SCB bus interface while in Dynamic
 187:../src/platform/mpfs_hal/common/nwc/mss_nwc_init.c ****      *          enable mode
 188:../src/platform/mpfs_hal/common/nwc/mss_nwc_init.c ****      *          Note 2: The MSS top block assertion of core_up and flash_valid
 189:../src/platform/mpfs_hal/common/nwc/mss_nwc_init.c ****      *          have no effect in themselves if MSS custom SCB register values
 190:../src/platform/mpfs_hal/common/nwc/mss_nwc_init.c ****      *          if the custom SCB slaves are not being reset at the same time.
 191:../src/platform/mpfs_hal/common/nwc/mss_nwc_init.c ****      *          If the custom SCB slaves are reset whilst core_up and
 192:../src/platform/mpfs_hal/common/nwc/mss_nwc_init.c ****      *          flash_valid are high, then the SCB registers get asynchronously
 193:../src/platform/mpfs_hal/common/nwc/mss_nwc_init.c ****      *          loaded with the values of their corresponding RPC bits. These
 194:../src/platform/mpfs_hal/common/nwc/mss_nwc_init.c ****      *          values remain even after negation of reset but may be
 195:../src/platform/mpfs_hal/common/nwc/mss_nwc_init.c ****      *          subsequently overwritten by SCB writes.
 196:../src/platform/mpfs_hal/common/nwc/mss_nwc_init.c ****      *
 197:../src/platform/mpfs_hal/common/nwc/mss_nwc_init.c ****      *  reg MSS_LOW_POWER_CR
 198:../src/platform/mpfs_hal/common/nwc/mss_nwc_init.c ****      *
 199:../src/platform/mpfs_hal/common/nwc/mss_nwc_init.c ****      *      bit 12 flash_valid          Sets the value driven out on
 200:../src/platform/mpfs_hal/common/nwc/mss_nwc_init.c ****      *                                  mss_flash_valid_out
 201:../src/platform/mpfs_hal/common/nwc/mss_nwc_init.c ****      *      bit 11 core_up              Sets the value driven out on
 202:../src/platform/mpfs_hal/common/nwc/mss_nwc_init.c ****      *                                  mss_core_up_out
 203:../src/platform/mpfs_hal/common/nwc/mss_nwc_init.c ****      *      bit 10:8  dce   S           Sets the value driven out on mss_dce_out
 204:../src/platform/mpfs_hal/common/nwc/mss_nwc_init.c ****      *                                  unless G5C asserts its overrides
 205:../src/platform/mpfs_hal/common/nwc/mss_nwc_init.c ****      *      bit 7 lp_stop_clocks_in     Read back of lp_stop_clocks input
 206:../src/platform/mpfs_hal/common/nwc/mss_nwc_init.c ****      *      bit 6 lp_stop_clocks_out    Direct control of MSS Corner LP state
 207:../src/platform/mpfs_hal/common/nwc/mss_nwc_init.c ****      *                                  control
 208:../src/platform/mpfs_hal/common/nwc/mss_nwc_init.c ****      *      bit 5 p_pll_locked          Direct control of MSS Corner
 209:../src/platform/mpfs_hal/common/nwc/mss_nwc_init.c ****      *                                  LP state control
 210:../src/platform/mpfs_hal/common/nwc/mss_nwc_init.c ****      *      bit 4 lp_state_bypass       Direct control of MSS Corner LP
 211:../src/platform/mpfs_hal/common/nwc/mss_nwc_init.c ****      *                                  state control
 212:../src/platform/mpfs_hal/common/nwc/mss_nwc_init.c ****      *      bit 3 lp_state_persist
 213:../src/platform/mpfs_hal/common/nwc/mss_nwc_init.c ****      *      bit 2 lp_state_op
 214:../src/platform/mpfs_hal/common/nwc/mss_nwc_init.c ****      *      bit 1 lp_state_ip
 215:../src/platform/mpfs_hal/common/nwc/mss_nwc_init.c ****      *      bit 0 lp_state_mss
 216:../src/platform/mpfs_hal/common/nwc/mss_nwc_init.c ****      *
 217:../src/platform/mpfs_hal/common/nwc/mss_nwc_init.c ****      *      In order to re-flash/update the APB RPC register values into the
 218:../src/platform/mpfs_hal/common/nwc/mss_nwc_init.c ****      *      registers of a specific SCB slave,the following sequence must be
 219:../src/platform/mpfs_hal/common/nwc/mss_nwc_init.c ****      *      followed:
 220:../src/platform/mpfs_hal/common/nwc/mss_nwc_init.c ****      *      1)  Embedded software running on E51 must force the mss_core_up and
 221:../src/platform/mpfs_hal/common/nwc/mss_nwc_init.c ****      *          mss_flash valid must be high
 222:../src/platform/mpfs_hal/common/nwc/mss_nwc_init.c ****      *      2)  Then do a soft reset of the specific SCB slave that will be
 223:../src/platform/mpfs_hal/common/nwc/mss_nwc_init.c ****      *          re-flashed/updated.
 224:../src/platform/mpfs_hal/common/nwc/mss_nwc_init.c ****      *
 225:../src/platform/mpfs_hal/common/nwc/mss_nwc_init.c ****      *      The APB RPC registers are used in the following ways to configure
 226:../src/platform/mpfs_hal/common/nwc/mss_nwc_init.c ****      *      the MSS periphery
 227:../src/platform/mpfs_hal/common/nwc/mss_nwc_init.c ****      *      1)  Load values to SCB registers.
 228:../src/platform/mpfs_hal/common/nwc/mss_nwc_init.c ****      *          core_up" and "flash_valid" determines if the SCB registers get
 229:../src/platform/mpfs_hal/common/nwc/mss_nwc_init.c ****      *          either:
 230:../src/platform/mpfs_hal/common/nwc/mss_nwc_init.c ****      *               a.  Reset to their hardware default
 231:../src/platform/mpfs_hal/common/nwc/mss_nwc_init.c ****      *                   (when core_up/flash_valis low)
 232:../src/platform/mpfs_hal/common/nwc/mss_nwc_init.c ****      *              b.  Loaded with the APB RPC register.
 233:../src/platform/mpfs_hal/common/nwc/mss_nwc_init.c ****      *                   (when core_up/flash_valid high)
 234:../src/platform/mpfs_hal/common/nwc/mss_nwc_init.c ****      *      2)  IO configuration settings
 235:../src/platform/mpfs_hal/common/nwc/mss_nwc_init.c ****      *          These are fed directly to the static configuration of IOA cells
 236:../src/platform/mpfs_hal/common/nwc/mss_nwc_init.c ****      *          within the IOG lanes of the DDR and SGMII PHYs, as long as
 237:../src/platform/mpfs_hal/common/nwc/mss_nwc_init.c ****      *          "core_up" and "flash_valid" are high.
 238:../src/platform/mpfs_hal/common/nwc/mss_nwc_init.c ****      *          a.  To avoid unwanted/intermediate states on IOs, the "core_up"
 239:../src/platform/mpfs_hal/common/nwc/mss_nwc_init.c ****      *          and "flash_valid" should be initially 0 on MSS reset. This will
 240:../src/platform/mpfs_hal/common/nwc/mss_nwc_init.c ****      *          select the safe hardware defaults. The RPC registers are written
 241:../src/platform/mpfs_hal/common/nwc/mss_nwc_init.c ****      *          in the background and then simultaneously "flashed" as the new
 242:../src/platform/mpfs_hal/common/nwc/mss_nwc_init.c ****      *          IO configuration by assertion of "core_up" and "flash_valid"
 243:../src/platform/mpfs_hal/common/nwc/mss_nwc_init.c ****      *          being asserted.
 244:../src/platform/mpfs_hal/common/nwc/mss_nwc_init.c ****      *      3)  Training IP settings
 245:../src/platform/mpfs_hal/common/nwc/mss_nwc_init.c ****      *          These allow the direct control of the training IP via the APB
 246:../src/platform/mpfs_hal/common/nwc/mss_nwc_init.c ****      *          registers.
 247:../src/platform/mpfs_hal/common/nwc/mss_nwc_init.c ****      *
 248:../src/platform/mpfs_hal/common/nwc/mss_nwc_init.c ****      *      Notes:
 249:../src/platform/mpfs_hal/common/nwc/mss_nwc_init.c ****      *      1)  When the MSS is reset, the SCB slaves won't take on the RPC
 250:../src/platform/mpfs_hal/common/nwc/mss_nwc_init.c ****      *      values. They will be reset to their hardware default values.
 251:../src/platform/mpfs_hal/common/nwc/mss_nwc_init.c ****      *
 252:../src/platform/mpfs_hal/common/nwc/mss_nwc_init.c ****      *      2)  Although RPC registers are writable in APB space,
 253:../src/platform/mpfs_hal/common/nwc/mss_nwc_init.c ****      *      they only take effect on the SCB registers whenever there is a
 254:../src/platform/mpfs_hal/common/nwc/mss_nwc_init.c ****      *      "virtual re-flash" operation, which involves performing
 255:../src/platform/mpfs_hal/common/nwc/mss_nwc_init.c ****      *      a soft reset of an SCB slave (i.e. writing to the NV_MAP register
 256:../src/platform/mpfs_hal/common/nwc/mss_nwc_init.c ****      *      bit in the SOFT_RESET register in the SCB slave).
 257:../src/platform/mpfs_hal/common/nwc/mss_nwc_init.c ****      *      This mechanism would only be used if a full new configuration is to
 258:../src/platform/mpfs_hal/common/nwc/mss_nwc_init.c ****      *      be applied to the full SCB slave and wouldn't be used, for example
 259:../src/platform/mpfs_hal/common/nwc/mss_nwc_init.c ****      *      to change just a clock mux configuration.
 260:../src/platform/mpfs_hal/common/nwc/mss_nwc_init.c ****      *
 261:../src/platform/mpfs_hal/common/nwc/mss_nwc_init.c ****      *      3)  To make configuration changes to individual registers, without
 262:../src/platform/mpfs_hal/common/nwc/mss_nwc_init.c ****      *      "re-flashing" all registers in an MSS custom SCB slave, it is
 263:../src/platform/mpfs_hal/common/nwc/mss_nwc_init.c ****      *      necessary to write directly to the SCB registers (via SCB space) in
 264:../src/platform/mpfs_hal/common/nwc/mss_nwc_init.c ****      *      that slave, rather than writing RPC registers via APB space
 265:../src/platform/mpfs_hal/common/nwc/mss_nwc_init.c ****      *
 266:../src/platform/mpfs_hal/common/nwc/mss_nwc_init.c ****      */
 267:../src/platform/mpfs_hal/common/nwc/mss_nwc_init.c **** 
 268:../src/platform/mpfs_hal/common/nwc/mss_nwc_init.c ****     /*
 269:../src/platform/mpfs_hal/common/nwc/mss_nwc_init.c ****        lp_state_mss         :1;
 270:../src/platform/mpfs_hal/common/nwc/mss_nwc_init.c ****        lp_state_ip_mss      :1;
 271:../src/platform/mpfs_hal/common/nwc/mss_nwc_init.c ****        lp_state_op_mss      :1;
 272:../src/platform/mpfs_hal/common/nwc/mss_nwc_init.c ****        lp_state_persist_mss :1;
 273:../src/platform/mpfs_hal/common/nwc/mss_nwc_init.c ****        lp_state_bypass_mss  :1;
 274:../src/platform/mpfs_hal/common/nwc/mss_nwc_init.c ****        lp_pll_locked_mss    :1;
 275:../src/platform/mpfs_hal/common/nwc/mss_nwc_init.c ****        lp_stop_clocks_out_mss :1;
 276:../src/platform/mpfs_hal/common/nwc/mss_nwc_init.c ****        lp_stop_clocks_in_mss :1;
 277:../src/platform/mpfs_hal/common/nwc/mss_nwc_init.c ****        mss_dce              :3;
 278:../src/platform/mpfs_hal/common/nwc/mss_nwc_init.c ****        mss_core_up          :1;
 279:../src/platform/mpfs_hal/common/nwc/mss_nwc_init.c ****        mss_flash_valid      :1;
 280:../src/platform/mpfs_hal/common/nwc/mss_nwc_init.c ****        mss_io_en            :1;
 281:../src/platform/mpfs_hal/common/nwc/mss_nwc_init.c ****     */
 282:../src/platform/mpfs_hal/common/nwc/mss_nwc_init.c ****      /* DCE:111, CORE_UP:1, FLASH_VALID:0, mss_io_en:0 */
 283:../src/platform/mpfs_hal/common/nwc/mss_nwc_init.c ****     SCB_REGS->MSSIO_CONTROL_CR.MSSIO_CONTROL_CR =\
 122              		.loc 2 283 49
 123 004e 37340020 		li	s0,536883200
 124 0052 938704F0 		addi	a5,s1,-256
 125 0056 232EF41A 		sw	a5,444(s0)
 284:../src/platform/mpfs_hal/common/nwc/mss_nwc_init.c ****             (0x07U<<8U)|(0x01U<<11U)|(0x00U<<12U)|(0x00U<<13U);
 285:../src/platform/mpfs_hal/common/nwc/mss_nwc_init.c ****     delay(DELAY_CYCLES_500_NS);
 286:../src/platform/mpfs_hal/common/nwc/mss_nwc_init.c ****     /* DCE:000, CORE_UP:1, FLASH_VALID:0, mss_io_en:0 */
 287:../src/platform/mpfs_hal/common/nwc/mss_nwc_init.c ****     SCB_REGS->MSSIO_CONTROL_CR.MSSIO_CONTROL_CR =\
 126              		.loc 2 287 49
 127 005a 93840480 		addi	s1,s1,-2048
 152:../src/platform/mpfs_hal/common/nwc/mss_nwc_init.c **** #endif
 128              		.loc 2 152 18
 129 005e 2A89     		mv	s2,a0
 130              	.LVL9:
 283:../src/platform/mpfs_hal/common/nwc/mss_nwc_init.c ****             (0x07U<<8U)|(0x01U<<11U)|(0x00U<<12U)|(0x00U<<13U);
 131              		.loc 2 283 5 is_stmt 1
 285:../src/platform/mpfs_hal/common/nwc/mss_nwc_init.c ****     /* DCE:000, CORE_UP:1, FLASH_VALID:0, mss_io_en:0 */
 132              		.loc 2 285 5
 133 0060 97000000 		call	delay.constprop.1
 133      E7800000 
 134              	.LVL10:
 135              		.loc 2 287 5
 136              		.loc 2 287 49 is_stmt 0
 137 0068 232E941A 		sw	s1,444(s0)
 288:../src/platform/mpfs_hal/common/nwc/mss_nwc_init.c ****             (0x00U<<8U)|(0x01U<<11U)|(0x00U<<12U)|(0x00U<<13U);
 289:../src/platform/mpfs_hal/common/nwc/mss_nwc_init.c ****     delay(DELAY_CYCLES_500_NS);
 138              		.loc 2 289 5 is_stmt 1
 139 006c 97000000 		call	delay.constprop.1
 139      E7800000 
 140              	.LVL11:
 290:../src/platform/mpfs_hal/common/nwc/mss_nwc_init.c ****     /* DCE:000, CORE_UP:1, FLASH_VALID:1, mss_io_en:0 */
 291:../src/platform/mpfs_hal/common/nwc/mss_nwc_init.c ****     SCB_REGS->MSSIO_CONTROL_CR.MSSIO_CONTROL_CR =\
 141              		.loc 2 291 5
 142              		.loc 2 291 49 is_stmt 0
 143 0074 8967     		li	a5,8192
 144 0076 93870780 		addi	a5,a5,-2048
 145 007a 232EF41A 		sw	a5,444(s0)
 292:../src/platform/mpfs_hal/common/nwc/mss_nwc_init.c ****             (0x00U<<8U)|(0x01U<<11U)|(0x01U<<12U)|(0x00U<<13U);
 293:../src/platform/mpfs_hal/common/nwc/mss_nwc_init.c ****     delay(DELAY_CYCLES_500_NS);
 146              		.loc 2 293 5 is_stmt 1
 147 007e 97000000 		call	delay.constprop.1
 147      E7800000 
 148              	.LVL12:
 294:../src/platform/mpfs_hal/common/nwc/mss_nwc_init.c ****     /* DCE:000, CORE_UP:1, FLASH_VALID:1, mss_io_en:1  */
 295:../src/platform/mpfs_hal/common/nwc/mss_nwc_init.c ****     SCB_REGS->MSSIO_CONTROL_CR.MSSIO_CONTROL_CR =\
 149              		.loc 2 295 5
 150              		.loc 2 295 49 is_stmt 0
 151 0086 9167     		li	a5,16384
 152 0088 93870780 		addi	a5,a5,-2048
 153 008c 232EF41A 		sw	a5,444(s0)
 296:../src/platform/mpfs_hal/common/nwc/mss_nwc_init.c ****             (0x00U<<8U)|(0x01U<<11U)|(0x01U<<12U)|(0x01U<<13U);
 297:../src/platform/mpfs_hal/common/nwc/mss_nwc_init.c **** 
 298:../src/platform/mpfs_hal/common/nwc/mss_nwc_init.c ****     /*
 299:../src/platform/mpfs_hal/common/nwc/mss_nwc_init.c ****      * Setup SGMII
 300:../src/platform/mpfs_hal/common/nwc/mss_nwc_init.c ****      * The SGMII set-upset configures the external clock reference so this must
 301:../src/platform/mpfs_hal/common/nwc/mss_nwc_init.c ****      * be called before configuring the MSS PLL
 302:../src/platform/mpfs_hal/common/nwc/mss_nwc_init.c ****      */
 303:../src/platform/mpfs_hal/common/nwc/mss_nwc_init.c ****     SIM_FEEDBACK0(2);
 154              		.loc 2 303 21 is_stmt 1
 304:../src/platform/mpfs_hal/common/nwc/mss_nwc_init.c ****     sgmii_setup();
 155              		.loc 2 304 5
 156 0090 97000000 		call	sgmii_setup
 156      E7800000 
 157              	.LVL13:
 305:../src/platform/mpfs_hal/common/nwc/mss_nwc_init.c **** 
 306:../src/platform/mpfs_hal/common/nwc/mss_nwc_init.c ****     /*
 307:../src/platform/mpfs_hal/common/nwc/mss_nwc_init.c ****      * Setup the MSS PLL
 308:../src/platform/mpfs_hal/common/nwc/mss_nwc_init.c ****      */
 309:../src/platform/mpfs_hal/common/nwc/mss_nwc_init.c ****     SIM_FEEDBACK0(3);
 158              		.loc 2 309 21
 310:../src/platform/mpfs_hal/common/nwc/mss_nwc_init.c ****     mss_pll_config();
 159              		.loc 2 310 5
 160 0098 97000000 		call	mss_pll_config
 160      E7800000 
 161              	.LVL14:
 311:../src/platform/mpfs_hal/common/nwc/mss_nwc_init.c **** 
 312:../src/platform/mpfs_hal/common/nwc/mss_nwc_init.c ****     return error;
 162              		.loc 2 312 5
 313:../src/platform/mpfs_hal/common/nwc/mss_nwc_init.c **** }
 163              		.loc 2 313 1 is_stmt 0
 164 00a0 E260     		ld	ra,24(sp)
 165              		.cfi_restore 1
 166 00a2 4264     		ld	s0,16(sp)
 167              		.cfi_restore 8
 168 00a4 4A85     		mv	a0,s2
 169 00a6 A264     		ld	s1,8(sp)
 170              		.cfi_restore 9
 171 00a8 0269     		ld	s2,0(sp)
 172              		.cfi_restore 18
 173              	.LVL15:
 174 00aa 0561     		addi	sp,sp,32
 175              		.cfi_def_cfa_offset 0
 176 00ac 8280     		jr	ra
 177              		.cfi_endproc
 178              	.LFE24:
 180              		.section	.text.ddr_report_progress,"ax",@progbits
 181              		.align	1
 182              		.weak	ddr_report_progress
 184              	ddr_report_progress:
 185              	.LFB27:
 314:../src/platform/mpfs_hal/common/nwc/mss_nwc_init.c **** 
 315:../src/platform/mpfs_hal/common/nwc/mss_nwc_init.c **** /**
 316:../src/platform/mpfs_hal/common/nwc/mss_nwc_init.c ****  *  mss_nwc_init_ddr(void)
 317:../src/platform/mpfs_hal/common/nwc/mss_nwc_init.c ****  *      Init the DDR
 318:../src/platform/mpfs_hal/common/nwc/mss_nwc_init.c ****  *
 319:../src/platform/mpfs_hal/common/nwc/mss_nwc_init.c ****  * @return error status, 0U => OK
 320:../src/platform/mpfs_hal/common/nwc/mss_nwc_init.c ****  */
 321:../src/platform/mpfs_hal/common/nwc/mss_nwc_init.c **** uint8_t mss_nwc_init_ddr(void)
 322:../src/platform/mpfs_hal/common/nwc/mss_nwc_init.c **** {
 323:../src/platform/mpfs_hal/common/nwc/mss_nwc_init.c ****     uint8_t error = 0U;
 324:../src/platform/mpfs_hal/common/nwc/mss_nwc_init.c **** #ifdef DDR_SUPPORT
 325:../src/platform/mpfs_hal/common/nwc/mss_nwc_init.c ****     uint64_t next_time;
 326:../src/platform/mpfs_hal/common/nwc/mss_nwc_init.c **** #ifdef DEBUG_DDR_INIT
 327:../src/platform/mpfs_hal/common/nwc/mss_nwc_init.c ****     if (g_debug_uart == NULL)
 328:../src/platform/mpfs_hal/common/nwc/mss_nwc_init.c ****     {
 329:../src/platform/mpfs_hal/common/nwc/mss_nwc_init.c ****         /*
 330:../src/platform/mpfs_hal/common/nwc/mss_nwc_init.c ****          * Defaults to UART0 if none selected by user boot code
 331:../src/platform/mpfs_hal/common/nwc/mss_nwc_init.c ****          */
 332:../src/platform/mpfs_hal/common/nwc/mss_nwc_init.c ****         g_debug_uart = &g_mss_uart0_lo;
 333:../src/platform/mpfs_hal/common/nwc/mss_nwc_init.c ****     }
 334:../src/platform/mpfs_hal/common/nwc/mss_nwc_init.c ****     (void)setup_ddr_debug_port(g_debug_uart);
 335:../src/platform/mpfs_hal/common/nwc/mss_nwc_init.c **** #endif
 336:../src/platform/mpfs_hal/common/nwc/mss_nwc_init.c **** 
 337:../src/platform/mpfs_hal/common/nwc/mss_nwc_init.c ****     uint32_t  ddr_status;
 338:../src/platform/mpfs_hal/common/nwc/mss_nwc_init.c ****     ddr_status = ddr_state_machine(DDR_SS__INIT);
 339:../src/platform/mpfs_hal/common/nwc/mss_nwc_init.c ****     next_time = 0U;
 340:../src/platform/mpfs_hal/common/nwc/mss_nwc_init.c ****     while((ddr_status & DDR_SETUP_DONE) != DDR_SETUP_DONE)
 341:../src/platform/mpfs_hal/common/nwc/mss_nwc_init.c ****     {
 342:../src/platform/mpfs_hal/common/nwc/mss_nwc_init.c ****         ddr_status = ddr_state_machine(DDR_SS_MONITOR);
 343:../src/platform/mpfs_hal/common/nwc/mss_nwc_init.c ****         next_time = report_status_functions(DDR_BOOT_PROGRESS, next_time);
 344:../src/platform/mpfs_hal/common/nwc/mss_nwc_init.c ****     }
 345:../src/platform/mpfs_hal/common/nwc/mss_nwc_init.c ****     if ((ddr_status & DDR_SETUP_FAIL) == DDR_SETUP_FAIL)
 346:../src/platform/mpfs_hal/common/nwc/mss_nwc_init.c ****     {
 347:../src/platform/mpfs_hal/common/nwc/mss_nwc_init.c ****         error |= (0x1U << 2U);
 348:../src/platform/mpfs_hal/common/nwc/mss_nwc_init.c ****     }
 349:../src/platform/mpfs_hal/common/nwc/mss_nwc_init.c **** #endif
 350:../src/platform/mpfs_hal/common/nwc/mss_nwc_init.c **** 
 351:../src/platform/mpfs_hal/common/nwc/mss_nwc_init.c ****     return error;
 352:../src/platform/mpfs_hal/common/nwc/mss_nwc_init.c **** }
 353:../src/platform/mpfs_hal/common/nwc/mss_nwc_init.c **** 
 354:../src/platform/mpfs_hal/common/nwc/mss_nwc_init.c **** /**
 355:../src/platform/mpfs_hal/common/nwc/mss_nwc_init.c ****  * report_status_functions()
 356:../src/platform/mpfs_hal/common/nwc/mss_nwc_init.c ****  * Used to call user boot functions for feedback during boot
 357:../src/platform/mpfs_hal/common/nwc/mss_nwc_init.c ****  * @param report_status
 358:../src/platform/mpfs_hal/common/nwc/mss_nwc_init.c ****  */
 359:../src/platform/mpfs_hal/common/nwc/mss_nwc_init.c **** static uint64_t report_status_functions(MSS_REPORT_STATUS report_status, uint64_t next_time)
 360:../src/platform/mpfs_hal/common/nwc/mss_nwc_init.c **** {
 361:../src/platform/mpfs_hal/common/nwc/mss_nwc_init.c ****     if (next_time >= rdcycle())
 362:../src/platform/mpfs_hal/common/nwc/mss_nwc_init.c ****     {
 363:../src/platform/mpfs_hal/common/nwc/mss_nwc_init.c ****         switch(report_status)
 364:../src/platform/mpfs_hal/common/nwc/mss_nwc_init.c ****         {
 365:../src/platform/mpfs_hal/common/nwc/mss_nwc_init.c ****             case DDR_BOOT_PROGRESS:
 366:../src/platform/mpfs_hal/common/nwc/mss_nwc_init.c ****                 ddr_report_progress();
 367:../src/platform/mpfs_hal/common/nwc/mss_nwc_init.c ****                 break;
 368:../src/platform/mpfs_hal/common/nwc/mss_nwc_init.c ****             default:
 369:../src/platform/mpfs_hal/common/nwc/mss_nwc_init.c ****                 break;
 370:../src/platform/mpfs_hal/common/nwc/mss_nwc_init.c ****         }
 371:../src/platform/mpfs_hal/common/nwc/mss_nwc_init.c ****         next_time = rdcycle() + DELAY_CYCLES_100MS;
 372:../src/platform/mpfs_hal/common/nwc/mss_nwc_init.c ****     }
 373:../src/platform/mpfs_hal/common/nwc/mss_nwc_init.c ****     return next_time;
 374:../src/platform/mpfs_hal/common/nwc/mss_nwc_init.c **** }
 375:../src/platform/mpfs_hal/common/nwc/mss_nwc_init.c **** 
 376:../src/platform/mpfs_hal/common/nwc/mss_nwc_init.c **** /**
 377:../src/platform/mpfs_hal/common/nwc/mss_nwc_init.c ****  *  Application can create own function to show progress
 378:../src/platform/mpfs_hal/common/nwc/mss_nwc_init.c ****  */
 379:../src/platform/mpfs_hal/common/nwc/mss_nwc_init.c **** __attribute__((weak))  void ddr_report_progress(void)
 380:../src/platform/mpfs_hal/common/nwc/mss_nwc_init.c **** {
 186              		.loc 2 380 1 is_stmt 1
 187              		.cfi_startproc
 381:../src/platform/mpfs_hal/common/nwc/mss_nwc_init.c ****     return;
 188              		.loc 2 381 5
 382:../src/platform/mpfs_hal/common/nwc/mss_nwc_init.c **** }
 189              		.loc 2 382 1 is_stmt 0
 190 0000 8280     		ret
 191              		.cfi_endproc
 192              	.LFE27:
 194              		.section	.text.mss_nwc_init_ddr,"ax",@progbits
 195              		.align	1
 196              		.globl	mss_nwc_init_ddr
 198              	mss_nwc_init_ddr:
 199              	.LFB25:
 322:../src/platform/mpfs_hal/common/nwc/mss_nwc_init.c ****     uint8_t error = 0U;
 200              		.loc 2 322 1 is_stmt 1
 201              		.cfi_startproc
 323:../src/platform/mpfs_hal/common/nwc/mss_nwc_init.c **** #ifdef DDR_SUPPORT
 202              		.loc 2 323 5
 203              	.LVL16:
 325:../src/platform/mpfs_hal/common/nwc/mss_nwc_init.c **** #ifdef DEBUG_DDR_INIT
 204              		.loc 2 325 5
 337:../src/platform/mpfs_hal/common/nwc/mss_nwc_init.c ****     ddr_status = ddr_state_machine(DDR_SS__INIT);
 205              		.loc 2 337 5
 338:../src/platform/mpfs_hal/common/nwc/mss_nwc_init.c ****     next_time = 0U;
 206              		.loc 2 338 5
 322:../src/platform/mpfs_hal/common/nwc/mss_nwc_init.c ****     uint8_t error = 0U;
 207              		.loc 2 322 1 is_stmt 0
 208 0000 0111     		addi	sp,sp,-32
 209              		.cfi_def_cfa_offset 32
 338:../src/platform/mpfs_hal/common/nwc/mss_nwc_init.c ****     next_time = 0U;
 210              		.loc 2 338 18
 211 0002 0145     		li	a0,0
 322:../src/platform/mpfs_hal/common/nwc/mss_nwc_init.c ****     uint8_t error = 0U;
 212              		.loc 2 322 1
 213 0004 22E8     		sd	s0,16(sp)
 214 0006 26E4     		sd	s1,8(sp)
 215 0008 4AE0     		sd	s2,0(sp)
 216 000a 06EC     		sd	ra,24(sp)
 217              		.cfi_offset 8, -16
 218              		.cfi_offset 9, -24
 219              		.cfi_offset 18, -32
 220              		.cfi_offset 1, -8
 221              	.LBB13:
 222              	.LBB14:
 371:../src/platform/mpfs_hal/common/nwc/mss_nwc_init.c ****     }
 223              		.loc 2 371 19
 224 000c 37899303 		li	s2,59998208
 225              	.LBE14:
 226              	.LBE13:
 338:../src/platform/mpfs_hal/common/nwc/mss_nwc_init.c ****     next_time = 0U;
 227              		.loc 2 338 18
 228 0010 97000000 		call	ddr_state_machine
 228      E7800000 
 229              	.LVL17:
 230 0018 1B040500 		sext.w	s0,a0
 231              	.LVL18:
 339:../src/platform/mpfs_hal/common/nwc/mss_nwc_init.c ****     while((ddr_status & DDR_SETUP_DONE) != DDR_SETUP_DONE)
 232              		.loc 2 339 5 is_stmt 1
 340:../src/platform/mpfs_hal/common/nwc/mss_nwc_init.c ****     {
 233              		.loc 2 340 5
 339:../src/platform/mpfs_hal/common/nwc/mss_nwc_init.c ****     while((ddr_status & DDR_SETUP_DONE) != DDR_SETUP_DONE)
 234              		.loc 2 339 15 is_stmt 0
 235 001c 8144     		li	s1,0
 236              	.LBB19:
 237              	.LBB17:
 371:../src/platform/mpfs_hal/common/nwc/mss_nwc_init.c ****     }
 238              		.loc 2 371 19
 239 001e 13090970 		addi	s2,s2,1792
 240              	.LVL19:
 241              	.L9:
 242              	.LBE17:
 243              	.LBE19:
 340:../src/platform/mpfs_hal/common/nwc/mss_nwc_init.c ****     {
 244              		.loc 2 340 23
 245 0022 A287     		mv	a5,s0
 340:../src/platform/mpfs_hal/common/nwc/mss_nwc_init.c ****     {
 246              		.loc 2 340 10
 247 0024 0588     		andi	s0,s0,1
 248              	.LVL20:
 249 0026 01CC     		beq	s0,zero,.L11
 345:../src/platform/mpfs_hal/common/nwc/mss_nwc_init.c ****     {
 250              		.loc 2 345 5 is_stmt 1
 352:../src/platform/mpfs_hal/common/nwc/mss_nwc_init.c **** 
 251              		.loc 2 352 1 is_stmt 0
 252 0028 E260     		ld	ra,24(sp)
 253              		.cfi_remember_state
 254              		.cfi_restore 1
 255 002a 4264     		ld	s0,16(sp)
 256              		.cfi_restore 8
 345:../src/platform/mpfs_hal/common/nwc/mss_nwc_init.c ****     {
 257              		.loc 2 345 21
 258 002c 13F52700 		andi	a0,a5,2
 347:../src/platform/mpfs_hal/common/nwc/mss_nwc_init.c ****     }
 259              		.loc 2 347 15
 260 0030 3335A000 		snez	a0,a0
 261              	.LVL21:
 351:../src/platform/mpfs_hal/common/nwc/mss_nwc_init.c **** }
 262              		.loc 2 351 5 is_stmt 1
 352:../src/platform/mpfs_hal/common/nwc/mss_nwc_init.c **** 
 263              		.loc 2 352 1 is_stmt 0
 264 0034 A264     		ld	s1,8(sp)
 265              		.cfi_restore 9
 266              	.LVL22:
 267 0036 0269     		ld	s2,0(sp)
 268              		.cfi_restore 18
 269 0038 0A05     		slli	a0,a0,2
 270              	.LVL23:
 271 003a 0561     		addi	sp,sp,32
 272              		.cfi_def_cfa_offset 0
 273 003c 8280     		jr	ra
 274              	.LVL24:
 275              	.L11:
 276              		.cfi_restore_state
 342:../src/platform/mpfs_hal/common/nwc/mss_nwc_init.c ****         next_time = report_status_functions(DDR_BOOT_PROGRESS, next_time);
 277              		.loc 2 342 9 is_stmt 1
 342:../src/platform/mpfs_hal/common/nwc/mss_nwc_init.c ****         next_time = report_status_functions(DDR_BOOT_PROGRESS, next_time);
 278              		.loc 2 342 22 is_stmt 0
 279 003e 0545     		li	a0,1
 280 0040 97000000 		call	ddr_state_machine
 280      E7800000 
 281              	.LVL25:
 282 0048 1B040500 		sext.w	s0,a0
 283              	.LVL26:
 343:../src/platform/mpfs_hal/common/nwc/mss_nwc_init.c ****     }
 284              		.loc 2 343 9 is_stmt 1
 285              	.LBB20:
 286              	.LBB18:
 361:../src/platform/mpfs_hal/common/nwc/mss_nwc_init.c ****     {
 287              		.loc 2 361 5
 288              	.LBB15:
 361:../src/platform/mpfs_hal/common/nwc/mss_nwc_init.c ****     {
 289              		.loc 2 361 22
 361:../src/platform/mpfs_hal/common/nwc/mss_nwc_init.c ****     {
 290              		.loc 2 361 22
 291              	 #APP
 292              	# 361 "../src/platform/mpfs_hal/common/nwc/mss_nwc_init.c" 1
 293              		csrr a5, cycle
 294              	# 0 "" 2
 295              	.LVL27:
 361:../src/platform/mpfs_hal/common/nwc/mss_nwc_init.c ****     {
 296              		.loc 2 361 22
 297              	 #NO_APP
 298              	.LBE15:
 361:../src/platform/mpfs_hal/common/nwc/mss_nwc_init.c ****     {
 299              		.loc 2 361 8 is_stmt 0
 300 0050 E3E9F4FC 		bltu	s1,a5,.L9
 363:../src/platform/mpfs_hal/common/nwc/mss_nwc_init.c ****         {
 301              		.loc 2 363 9 is_stmt 1
 366:../src/platform/mpfs_hal/common/nwc/mss_nwc_init.c ****                 break;
 302              		.loc 2 366 17
 303 0054 97000000 		call	ddr_report_progress
 303      E7800000 
 304              	.LVL28:
 367:../src/platform/mpfs_hal/common/nwc/mss_nwc_init.c ****             default:
 305              		.loc 2 367 17
 371:../src/platform/mpfs_hal/common/nwc/mss_nwc_init.c ****     }
 306              		.loc 2 371 9
 307              	.LBB16:
 371:../src/platform/mpfs_hal/common/nwc/mss_nwc_init.c ****     }
 308              		.loc 2 371 21
 371:../src/platform/mpfs_hal/common/nwc/mss_nwc_init.c ****     }
 309              		.loc 2 371 21
 310              	 #APP
 311              	# 371 "../src/platform/mpfs_hal/common/nwc/mss_nwc_init.c" 1
 312              		csrr s1, cycle
 313              	# 0 "" 2
 314              	.LVL29:
 371:../src/platform/mpfs_hal/common/nwc/mss_nwc_init.c ****     }
 315              		.loc 2 371 21
 316              	 #NO_APP
 317              	.LBE16:
 371:../src/platform/mpfs_hal/common/nwc/mss_nwc_init.c ****     }
 318              		.loc 2 371 19 is_stmt 0
 319 0060 CA94     		add	s1,s1,s2
 320              	.LVL30:
 321 0062 C1B7     		j	.L9
 322              	.LBE18:
 323              	.LBE20:
 324              		.cfi_endproc
 325              	.LFE25:
 327              		.section	.text.mtime_delay,"ax",@progbits
 328              		.align	1
 329              		.globl	mtime_delay
 331              	mtime_delay:
 332              	.LFB28:
 383:../src/platform/mpfs_hal/common/nwc/mss_nwc_init.c **** 
 384:../src/platform/mpfs_hal/common/nwc/mss_nwc_init.c **** /*-------------------------------------------------------------------------*//**
 385:../src/platform/mpfs_hal/common/nwc/mss_nwc_init.c ****  * mtime_delay()
 386:../src/platform/mpfs_hal/common/nwc/mss_nwc_init.c ****  * waits x microseconds
 387:../src/platform/mpfs_hal/common/nwc/mss_nwc_init.c ****  * Assumption 1 is we have ensured clock is 1MHz
 388:../src/platform/mpfs_hal/common/nwc/mss_nwc_init.c ****  * Assumption 2 is we have not setup tick timer when using this function. It is
 389:../src/platform/mpfs_hal/common/nwc/mss_nwc_init.c ****  * only used by the startup code
 390:../src/platform/mpfs_hal/common/nwc/mss_nwc_init.c ****  * @param microseconds microseconds to delay
 391:../src/platform/mpfs_hal/common/nwc/mss_nwc_init.c ****  */
 392:../src/platform/mpfs_hal/common/nwc/mss_nwc_init.c **** 
 393:../src/platform/mpfs_hal/common/nwc/mss_nwc_init.c **** void mtime_delay(uint32_t microseconds)
 394:../src/platform/mpfs_hal/common/nwc/mss_nwc_init.c **** {
 333              		.loc 2 394 1 is_stmt 1
 334              		.cfi_startproc
 335              	.LVL31:
 395:../src/platform/mpfs_hal/common/nwc/mss_nwc_init.c ****     CLINT->MTIME = 0ULL;
 336              		.loc 2 395 5
 337              		.loc 2 395 18 is_stmt 0
 338 0000 B7C70002 		li	a5,33603584
 394:../src/platform/mpfs_hal/common/nwc/mss_nwc_init.c ****     CLINT->MTIME = 0ULL;
 339              		.loc 2 394 1
 340 0004 4111     		addi	sp,sp,-16
 341              		.cfi_def_cfa_offset 16
 342              		.loc 2 395 18
 343 0006 23BC07FE 		sd	zero,-8(a5)
 396:../src/platform/mpfs_hal/common/nwc/mss_nwc_init.c ****     volatile uint32_t count = 0ULL;
 344              		.loc 2 396 5 is_stmt 1
 397:../src/platform/mpfs_hal/common/nwc/mss_nwc_init.c **** 
 398:../src/platform/mpfs_hal/common/nwc/mss_nwc_init.c ****     while(CLINT->MTIME < microseconds)
 345              		.loc 2 398 24 is_stmt 0
 346 000a 0215     		slli	a0,a0,32
 347              	.LVL32:
 396:../src/platform/mpfs_hal/common/nwc/mss_nwc_init.c ****     volatile uint32_t count = 0ULL;
 348              		.loc 2 396 23
 349 000c 02C6     		sw	zero,12(sp)
 350              		.loc 2 398 5 is_stmt 1
 351              		.loc 2 398 16 is_stmt 0
 352 000e 37C70002 		li	a4,33603584
 353              		.loc 2 398 24
 354 0012 0191     		srli	a0,a0,32
 355              	.L16:
 356              		.loc 2 398 16
 357 0014 833787FF 		ld	a5,-8(a4)
 358              		.loc 2 398 10
 359 0018 63E4A700 		bltu	a5,a0,.L17
 399:../src/platform/mpfs_hal/common/nwc/mss_nwc_init.c ****     {
 400:../src/platform/mpfs_hal/common/nwc/mss_nwc_init.c ****         count++;
 401:../src/platform/mpfs_hal/common/nwc/mss_nwc_init.c ****     }
 402:../src/platform/mpfs_hal/common/nwc/mss_nwc_init.c ****     return;
 403:../src/platform/mpfs_hal/common/nwc/mss_nwc_init.c **** }
 360              		.loc 2 403 1
 361 001c 4101     		addi	sp,sp,16
 362              		.cfi_remember_state
 363              		.cfi_def_cfa_offset 0
 364 001e 8280     		jr	ra
 365              	.L17:
 366              		.cfi_restore_state
 400:../src/platform/mpfs_hal/common/nwc/mss_nwc_init.c ****     }
 367              		.loc 2 400 9 is_stmt 1
 400:../src/platform/mpfs_hal/common/nwc/mss_nwc_init.c ****     }
 368              		.loc 2 400 14 is_stmt 0
 369 0020 B247     		lw	a5,12(sp)
 370 0022 8527     		addiw	a5,a5,1
 371 0024 3EC6     		sw	a5,12(sp)
 372 0026 FDB7     		j	.L16
 373              		.cfi_endproc
 374              	.LFE28:
 376              		.globl	SCB_REGS
 377              		.globl	SCBCFG_REGS
 378              		.globl	DDRCFG
 379              		.globl	CFG_DDR_SGMII_PHY
 380              		.section	.sdata2.CFG_DDR_SGMII_PHY,"a"
 381              		.align	3
 384              	CFG_DDR_SGMII_PHY:
 385 0000 00700020 		.dword	536899584
 385      00000000 
 386              		.section	.sdata2.DDRCFG,"a"
 387              		.align	3
 390              	DDRCFG:
 391 0000 00000820 		.dword	537395200
 391      00000000 
 392              		.section	.sdata2.SCBCFG_REGS,"a"
 393              		.align	3
 396              	SCBCFG_REGS:
 397 0000 00000837 		.dword	923271168
 397      00000000 
 398              		.section	.sdata2.SCB_REGS,"a"
 399              		.align	3
 402              	SCB_REGS:
 403 0000 00300020 		.dword	536883200
 403      00000000 
 404              		.text
 405              	.Letext0:
 406              		.file 3 "/home/vinay/Desktop/soft_console/SoftConsole-v2022.2-RISC-V-747/riscv-unknown-elf-gcc/lib
 407              		.file 4 "/home/vinay/Desktop/soft_console/SoftConsole-v2022.2-RISC-V-747/riscv-unknown-elf-gcc/ris
 408              		.file 5 "/home/vinay/Desktop/soft_console/SoftConsole-v2022.2-RISC-V-747/riscv-unknown-elf-gcc/ris
 409              		.file 6 "/home/vinay/Desktop/soft_console/SoftConsole-v2022.2-RISC-V-747/riscv-unknown-elf-gcc/ris
 410              		.file 7 "/home/vinay/Desktop/soft_console/SoftConsole-v2022.2-RISC-V-747/riscv-unknown-elf-gcc/ris
 411              		.file 8 "/home/vinay/Desktop/soft_console/SoftConsole-v2022.2-RISC-V-747/riscv-unknown-elf-gcc/ris
 412              		.file 9 "/home/vinay/Desktop/softconsole_watershed/Water-shed/src/platform/mpfs_hal/common/nwc/../
 413              		.file 10 "/home/vinay/Desktop/softconsole_watershed/Water-shed/src/platform/mpfs_hal/common/nwc/ms
 414              		.file 11 "/home/vinay/Desktop/softconsole_watershed/Water-shed/src/platform/mpfs_hal/common/nwc/ms
 415              		.file 12 "/home/vinay/Desktop/softconsole_watershed/Water-shed/src/platform/mpfs_hal/common/nwc/ms
 416              		.file 13 "/home/vinay/Desktop/softconsole_watershed/Water-shed/src/platform/mpfs_hal/common/nwc/ms
 417              		.file 14 "/home/vinay/Desktop/softconsole_watershed/Water-shed/src/platform/mpfs_hal/common/mss_cl
 418              		.file 15 "/home/vinay/Desktop/softconsole_watershed/Water-shed/src/platform/mpfs_hal/common/mss_mp
 419              		.file 16 "/home/vinay/Desktop/softconsole_watershed/Water-shed/src/platform/mpfs_hal/common/mss_pl
 420              		.file 17 "/home/vinay/Desktop/softconsole_watershed/Water-shed/src/platform/mpfs_hal/startup_gcc/s
 421              		.file 18 "/home/vinay/Desktop/softconsole_watershed/Water-shed/src/platform/mpfs_hal/common/nwc/ms
 422              		.file 19 "/home/vinay/Desktop/softconsole_watershed/Water-shed/src/platform/mpfs_hal/common/nwc/ms
 423              		.file 20 "/home/vinay/Desktop/softconsole_watershed/Water-shed/src/platform/mpfs_hal/common/nwc/ms