   1              		.file	"mss_uart.c"
   2              		.option nopic
   3              		.attribute arch, "rv64i2p0_m2p0_a2p0_f2p0_d2p0_c2p0"
   4              		.attribute unaligned_access, 0
   5              		.attribute stack_align, 16
   6              		.text
   7              	.Ltext0:
   8              		.cfi_sections	.debug_frame
   9              		.section	.text.global_init,"ax",@progbits
  10              		.align	1
  12              	global_init:
  13              	.LFB73:
  14              		.file 1 "../src/platform/drivers/mss/mss_mmuart/mss_uart.c"
   1:../src/platform/drivers/mss/mss_mmuart/mss_uart.c **** /*******************************************************************************
   2:../src/platform/drivers/mss/mss_mmuart/mss_uart.c ****  * Copyright 2019-2022 Microchip FPGA Embedded Systems Solutions.
   3:../src/platform/drivers/mss/mss_mmuart/mss_uart.c ****  *
   4:../src/platform/drivers/mss/mss_mmuart/mss_uart.c ****  * SPDX-License-Identifier: MIT
   5:../src/platform/drivers/mss/mss_mmuart/mss_uart.c ****  * 
   6:../src/platform/drivers/mss/mss_mmuart/mss_uart.c ****  * PolarFire SoC Microprocessor Subsystem MMUART bare metal software driver
   7:../src/platform/drivers/mss/mss_mmuart/mss_uart.c ****  * implementation.
   8:../src/platform/drivers/mss/mss_mmuart/mss_uart.c ****  *
   9:../src/platform/drivers/mss/mss_mmuart/mss_uart.c ****  */
  10:../src/platform/drivers/mss/mss_mmuart/mss_uart.c **** #include "mpfs_hal/mss_hal.h"
  11:../src/platform/drivers/mss/mss_mmuart/mss_uart.c **** #include "mss_uart_regs.h"
  12:../src/platform/drivers/mss/mss_mmuart/mss_uart.c **** #include "mss_uart.h"
  13:../src/platform/drivers/mss/mss_mmuart/mss_uart.c **** 
  14:../src/platform/drivers/mss/mss_mmuart/mss_uart.c **** #ifdef __cplusplus
  15:../src/platform/drivers/mss/mss_mmuart/mss_uart.c **** extern "C" {
  16:../src/platform/drivers/mss/mss_mmuart/mss_uart.c **** #endif
  17:../src/platform/drivers/mss/mss_mmuart/mss_uart.c **** 
  18:../src/platform/drivers/mss/mss_mmuart/mss_uart.c **** #define MSS_UART0_LO_BASE           (MSS_UART_TypeDef*)0x20000000UL
  19:../src/platform/drivers/mss/mss_mmuart/mss_uart.c **** #define MSS_UART1_LO_BASE           (MSS_UART_TypeDef*)0x20100000UL
  20:../src/platform/drivers/mss/mss_mmuart/mss_uart.c **** #define MSS_UART2_LO_BASE           (MSS_UART_TypeDef*)0x20102000UL
  21:../src/platform/drivers/mss/mss_mmuart/mss_uart.c **** #define MSS_UART3_LO_BASE           (MSS_UART_TypeDef*)0x20104000UL
  22:../src/platform/drivers/mss/mss_mmuart/mss_uart.c **** #define MSS_UART4_LO_BASE           (MSS_UART_TypeDef*)0x20106000UL
  23:../src/platform/drivers/mss/mss_mmuart/mss_uart.c **** 
  24:../src/platform/drivers/mss/mss_mmuart/mss_uart.c **** #define MSS_UART0_HI_BASE           (MSS_UART_TypeDef*)0x28000000UL
  25:../src/platform/drivers/mss/mss_mmuart/mss_uart.c **** #define MSS_UART1_HI_BASE           (MSS_UART_TypeDef*)0x28100000UL
  26:../src/platform/drivers/mss/mss_mmuart/mss_uart.c **** #define MSS_UART2_HI_BASE           (MSS_UART_TypeDef*)0x28102000UL
  27:../src/platform/drivers/mss/mss_mmuart/mss_uart.c **** #define MSS_UART3_HI_BASE           (MSS_UART_TypeDef*)0x28104000UL
  28:../src/platform/drivers/mss/mss_mmuart/mss_uart.c **** #define MSS_UART4_HI_BASE           (MSS_UART_TypeDef*)0x28106000UL
  29:../src/platform/drivers/mss/mss_mmuart/mss_uart.c **** 
  30:../src/platform/drivers/mss/mss_mmuart/mss_uart.c **** 
  31:../src/platform/drivers/mss/mss_mmuart/mss_uart.c **** mss_uart_instance_t g_mss_uart0_lo;
  32:../src/platform/drivers/mss/mss_mmuart/mss_uart.c **** mss_uart_instance_t g_mss_uart1_lo;
  33:../src/platform/drivers/mss/mss_mmuart/mss_uart.c **** mss_uart_instance_t g_mss_uart2_lo;
  34:../src/platform/drivers/mss/mss_mmuart/mss_uart.c **** mss_uart_instance_t g_mss_uart3_lo;
  35:../src/platform/drivers/mss/mss_mmuart/mss_uart.c **** mss_uart_instance_t g_mss_uart4_lo;
  36:../src/platform/drivers/mss/mss_mmuart/mss_uart.c **** 
  37:../src/platform/drivers/mss/mss_mmuart/mss_uart.c **** mss_uart_instance_t g_mss_uart0_hi;
  38:../src/platform/drivers/mss/mss_mmuart/mss_uart.c **** mss_uart_instance_t g_mss_uart1_hi;
  39:../src/platform/drivers/mss/mss_mmuart/mss_uart.c **** mss_uart_instance_t g_mss_uart2_hi;
  40:../src/platform/drivers/mss/mss_mmuart/mss_uart.c **** mss_uart_instance_t g_mss_uart3_hi;
  41:../src/platform/drivers/mss/mss_mmuart/mss_uart.c **** mss_uart_instance_t g_mss_uart4_hi;
  42:../src/platform/drivers/mss/mss_mmuart/mss_uart.c **** 
  43:../src/platform/drivers/mss/mss_mmuart/mss_uart.c **** /* This variable tracks if the UART peripheral is located on S5 or S6 on AXI
  44:../src/platform/drivers/mss/mss_mmuart/mss_uart.c ****  * switch. This will be used to determine which UART instance to be passed to
  45:../src/platform/drivers/mss/mss_mmuart/mss_uart.c ****  * UART interrupt handler. value 0 = S5(low). value 1 = S6(high)
  46:../src/platform/drivers/mss/mss_mmuart/mss_uart.c ****  * Bit positions:
  47:../src/platform/drivers/mss/mss_mmuart/mss_uart.c ****  * 0 ==> MMUART0
  48:../src/platform/drivers/mss/mss_mmuart/mss_uart.c ****  * 1 ==> MMUART1
  49:../src/platform/drivers/mss/mss_mmuart/mss_uart.c ****  * 2 ==> MMUART2
  50:../src/platform/drivers/mss/mss_mmuart/mss_uart.c ****  * 3 ==> MMUART3
  51:../src/platform/drivers/mss/mss_mmuart/mss_uart.c ****  * 4 ==> MMUART4
  52:../src/platform/drivers/mss/mss_mmuart/mss_uart.c **** 
  53:../src/platform/drivers/mss/mss_mmuart/mss_uart.c ****  */
  54:../src/platform/drivers/mss/mss_mmuart/mss_uart.c **** static uint32_t g_uart_axi_pos = 0x0u;
  55:../src/platform/drivers/mss/mss_mmuart/mss_uart.c **** 
  56:../src/platform/drivers/mss/mss_mmuart/mss_uart.c **** /*******************************************************************************
  57:../src/platform/drivers/mss/mss_mmuart/mss_uart.c ****  * Defines
  58:../src/platform/drivers/mss/mss_mmuart/mss_uart.c ****  */
  59:../src/platform/drivers/mss/mss_mmuart/mss_uart.c **** #define TX_COMPLETE                     0u
  60:../src/platform/drivers/mss/mss_mmuart/mss_uart.c **** #define TX_FIFO_SIZE                    16u
  61:../src/platform/drivers/mss/mss_mmuart/mss_uart.c **** 
  62:../src/platform/drivers/mss/mss_mmuart/mss_uart.c **** #define FCR_TRIG_LEVEL_MASK             0xC0u
  63:../src/platform/drivers/mss/mss_mmuart/mss_uart.c **** 
  64:../src/platform/drivers/mss/mss_mmuart/mss_uart.c **** #define IIRF_MASK                       0x0Fu
  65:../src/platform/drivers/mss/mss_mmuart/mss_uart.c **** #define IER_MASK                        0x0Du
  66:../src/platform/drivers/mss/mss_mmuart/mss_uart.c **** 
  67:../src/platform/drivers/mss/mss_mmuart/mss_uart.c **** #define INVALID_INTERRUPT               0u
  68:../src/platform/drivers/mss/mss_mmuart/mss_uart.c **** #define INVALID_IRQ_HANDLER             ((mss_uart_irq_handler_t) 0)
  69:../src/platform/drivers/mss/mss_mmuart/mss_uart.c **** #define NULL_HANDLER                    ((mss_uart_irq_handler_t) 0)
  70:../src/platform/drivers/mss/mss_mmuart/mss_uart.c **** 
  71:../src/platform/drivers/mss/mss_mmuart/mss_uart.c **** #define MSS_UART_DATA_READY             ((uint8_t) 0x01)
  72:../src/platform/drivers/mss/mss_mmuart/mss_uart.c **** 
  73:../src/platform/drivers/mss/mss_mmuart/mss_uart.c **** #define SYNC_ASYNC_MODE_MASK            (0x7u)
  74:../src/platform/drivers/mss/mss_mmuart/mss_uart.c **** 
  75:../src/platform/drivers/mss/mss_mmuart/mss_uart.c **** #define UART0_POSITION_MASK              0x01u
  76:../src/platform/drivers/mss/mss_mmuart/mss_uart.c **** #define UART1_POSITION_MASK              0x02u
  77:../src/platform/drivers/mss/mss_mmuart/mss_uart.c **** #define UART2_POSITION_MASK              0x04u
  78:../src/platform/drivers/mss/mss_mmuart/mss_uart.c **** #define UART3_POSITION_MASK              0x08u
  79:../src/platform/drivers/mss/mss_mmuart/mss_uart.c **** #define UART4_POSITION_MASK              0x10u
  80:../src/platform/drivers/mss/mss_mmuart/mss_uart.c **** 
  81:../src/platform/drivers/mss/mss_mmuart/mss_uart.c **** /*******************************************************************************
  82:../src/platform/drivers/mss/mss_mmuart/mss_uart.c ****  * Possible values for Interrupt Identification Register Field.
  83:../src/platform/drivers/mss/mss_mmuart/mss_uart.c ****  */
  84:../src/platform/drivers/mss/mss_mmuart/mss_uart.c **** #define IIRF_MODEM_STATUS               0x00u
  85:../src/platform/drivers/mss/mss_mmuart/mss_uart.c **** #define IIRF_THRE                       0x02u
  86:../src/platform/drivers/mss/mss_mmuart/mss_uart.c **** #define IIRF_MMI                        0x03u
  87:../src/platform/drivers/mss/mss_mmuart/mss_uart.c **** #define IIRF_RX_DATA                    0x04u
  88:../src/platform/drivers/mss/mss_mmuart/mss_uart.c **** #define IIRF_RX_LINE_STATUS             0x06u
  89:../src/platform/drivers/mss/mss_mmuart/mss_uart.c **** #define IIRF_DATA_TIMEOUT               0x0Cu
  90:../src/platform/drivers/mss/mss_mmuart/mss_uart.c **** 
  91:../src/platform/drivers/mss/mss_mmuart/mss_uart.c **** /*******************************************************************************
  92:../src/platform/drivers/mss/mss_mmuart/mss_uart.c ****  * Receiver error status mask.
  93:../src/platform/drivers/mss/mss_mmuart/mss_uart.c ****  */
  94:../src/platform/drivers/mss/mss_mmuart/mss_uart.c **** #define STATUS_ERROR_MASK    ( MSS_UART_OVERUN_ERROR | MSS_UART_PARITY_ERROR | \
  95:../src/platform/drivers/mss/mss_mmuart/mss_uart.c ****                                MSS_UART_FRAMING_ERROR  | MSS_UART_BREAK_ERROR | \
  96:../src/platform/drivers/mss/mss_mmuart/mss_uart.c ****                                MSS_UART_FIFO_ERROR)
  97:../src/platform/drivers/mss/mss_mmuart/mss_uart.c **** 
  98:../src/platform/drivers/mss/mss_mmuart/mss_uart.c **** /*******************************************************************************
  99:../src/platform/drivers/mss/mss_mmuart/mss_uart.c ****  * Local functions.
 100:../src/platform/drivers/mss/mss_mmuart/mss_uart.c ****  */
 101:../src/platform/drivers/mss/mss_mmuart/mss_uart.c **** static void global_init(mss_uart_instance_t * this_uart, uint32_t baud_rate, 
 102:../src/platform/drivers/mss/mss_mmuart/mss_uart.c ****                                                          uint8_t line_config);
 103:../src/platform/drivers/mss/mss_mmuart/mss_uart.c **** static void uart_isr(mss_uart_instance_t * this_uart);
 104:../src/platform/drivers/mss/mss_mmuart/mss_uart.c **** static void default_tx_handler(mss_uart_instance_t * this_uart);
 105:../src/platform/drivers/mss/mss_mmuart/mss_uart.c **** static void enable_irq(const mss_uart_instance_t * this_uart);
 106:../src/platform/drivers/mss/mss_mmuart/mss_uart.c **** static void disable_irq(const mss_uart_instance_t * this_uart);
 107:../src/platform/drivers/mss/mss_mmuart/mss_uart.c **** static void config_baud_divisors
 108:../src/platform/drivers/mss/mss_mmuart/mss_uart.c **** (
 109:../src/platform/drivers/mss/mss_mmuart/mss_uart.c ****     mss_uart_instance_t * this_uart,
 110:../src/platform/drivers/mss/mss_mmuart/mss_uart.c ****     uint32_t baudrate    
 111:../src/platform/drivers/mss/mss_mmuart/mss_uart.c **** );
 112:../src/platform/drivers/mss/mss_mmuart/mss_uart.c **** 
 113:../src/platform/drivers/mss/mss_mmuart/mss_uart.c **** /*******************************************************************************
 114:../src/platform/drivers/mss/mss_mmuart/mss_uart.c ****  * Public Functions
 115:../src/platform/drivers/mss/mss_mmuart/mss_uart.c ****  *******************************************************************************/
 116:../src/platform/drivers/mss/mss_mmuart/mss_uart.c **** /***************************************************************************//**
 117:../src/platform/drivers/mss/mss_mmuart/mss_uart.c ****  * See mss_uart.h for details of how to use this function.
 118:../src/platform/drivers/mss/mss_mmuart/mss_uart.c ****  */
 119:../src/platform/drivers/mss/mss_mmuart/mss_uart.c **** void 
 120:../src/platform/drivers/mss/mss_mmuart/mss_uart.c **** MSS_UART_init
 121:../src/platform/drivers/mss/mss_mmuart/mss_uart.c **** (
 122:../src/platform/drivers/mss/mss_mmuart/mss_uart.c ****     mss_uart_instance_t* this_uart, 
 123:../src/platform/drivers/mss/mss_mmuart/mss_uart.c ****     uint32_t baud_rate,
 124:../src/platform/drivers/mss/mss_mmuart/mss_uart.c ****     uint8_t line_config
 125:../src/platform/drivers/mss/mss_mmuart/mss_uart.c **** )
 126:../src/platform/drivers/mss/mss_mmuart/mss_uart.c **** {
 127:../src/platform/drivers/mss/mss_mmuart/mss_uart.c ****     /* Perform generic initialization */
 128:../src/platform/drivers/mss/mss_mmuart/mss_uart.c ****     global_init(this_uart, baud_rate, line_config);
 129:../src/platform/drivers/mss/mss_mmuart/mss_uart.c **** 
 130:../src/platform/drivers/mss/mss_mmuart/mss_uart.c ****     /* Disable LIN mode */
 131:../src/platform/drivers/mss/mss_mmuart/mss_uart.c ****     this_uart->hw_reg->MM0 &= ~ELIN_MASK;
 132:../src/platform/drivers/mss/mss_mmuart/mss_uart.c **** 
 133:../src/platform/drivers/mss/mss_mmuart/mss_uart.c ****     /* Disable IrDA mode */
 134:../src/platform/drivers/mss/mss_mmuart/mss_uart.c ****     this_uart->hw_reg->MM1 &= ~EIRD_MASK;
 135:../src/platform/drivers/mss/mss_mmuart/mss_uart.c **** 
 136:../src/platform/drivers/mss/mss_mmuart/mss_uart.c ****     /* Disable SmartCard Mode */
 137:../src/platform/drivers/mss/mss_mmuart/mss_uart.c ****     this_uart->hw_reg->MM2 &= ~EERR_MASK;
 138:../src/platform/drivers/mss/mss_mmuart/mss_uart.c **** 
 139:../src/platform/drivers/mss/mss_mmuart/mss_uart.c ****     /* set default tx handler for automated TX using interrupt in USART mode */
 140:../src/platform/drivers/mss/mss_mmuart/mss_uart.c ****     this_uart->tx_handler = default_tx_handler;
 141:../src/platform/drivers/mss/mss_mmuart/mss_uart.c **** }
 142:../src/platform/drivers/mss/mss_mmuart/mss_uart.c **** 
 143:../src/platform/drivers/mss/mss_mmuart/mss_uart.c **** /***************************************************************************//**
 144:../src/platform/drivers/mss/mss_mmuart/mss_uart.c ****  * See mss_uart.h for details of how to use this function.
 145:../src/platform/drivers/mss/mss_mmuart/mss_uart.c ****  */
 146:../src/platform/drivers/mss/mss_mmuart/mss_uart.c **** void MSS_UART_lin_init
 147:../src/platform/drivers/mss/mss_mmuart/mss_uart.c **** (
 148:../src/platform/drivers/mss/mss_mmuart/mss_uart.c ****     mss_uart_instance_t* this_uart, 
 149:../src/platform/drivers/mss/mss_mmuart/mss_uart.c ****     uint32_t baud_rate,
 150:../src/platform/drivers/mss/mss_mmuart/mss_uart.c ****     uint8_t line_config
 151:../src/platform/drivers/mss/mss_mmuart/mss_uart.c **** )
 152:../src/platform/drivers/mss/mss_mmuart/mss_uart.c **** {
 153:../src/platform/drivers/mss/mss_mmuart/mss_uart.c ****     /* Perform generic initialization */
 154:../src/platform/drivers/mss/mss_mmuart/mss_uart.c ****     global_init(this_uart, baud_rate, line_config);
 155:../src/platform/drivers/mss/mss_mmuart/mss_uart.c **** 
 156:../src/platform/drivers/mss/mss_mmuart/mss_uart.c ****      /* Enable LIN mode */
 157:../src/platform/drivers/mss/mss_mmuart/mss_uart.c ****     this_uart->hw_reg->MM0 |= ELIN_MASK;
 158:../src/platform/drivers/mss/mss_mmuart/mss_uart.c **** 
 159:../src/platform/drivers/mss/mss_mmuart/mss_uart.c ****     /* Disable IrDA mode */
 160:../src/platform/drivers/mss/mss_mmuart/mss_uart.c ****     this_uart->hw_reg->MM1 &= ~EIRD_MASK;
 161:../src/platform/drivers/mss/mss_mmuart/mss_uart.c **** 
 162:../src/platform/drivers/mss/mss_mmuart/mss_uart.c ****     /* Disable SmartCard Mode */
 163:../src/platform/drivers/mss/mss_mmuart/mss_uart.c ****     this_uart->hw_reg->MM2 &= ~EERR_MASK;
 164:../src/platform/drivers/mss/mss_mmuart/mss_uart.c **** }
 165:../src/platform/drivers/mss/mss_mmuart/mss_uart.c **** 
 166:../src/platform/drivers/mss/mss_mmuart/mss_uart.c **** /***************************************************************************//**
 167:../src/platform/drivers/mss/mss_mmuart/mss_uart.c ****  * See mss_uart.h for details of how to use this function.
 168:../src/platform/drivers/mss/mss_mmuart/mss_uart.c ****  */
 169:../src/platform/drivers/mss/mss_mmuart/mss_uart.c **** void 
 170:../src/platform/drivers/mss/mss_mmuart/mss_uart.c **** MSS_UART_irda_init
 171:../src/platform/drivers/mss/mss_mmuart/mss_uart.c **** (
 172:../src/platform/drivers/mss/mss_mmuart/mss_uart.c ****     mss_uart_instance_t* this_uart, 
 173:../src/platform/drivers/mss/mss_mmuart/mss_uart.c ****     uint32_t baud_rate,
 174:../src/platform/drivers/mss/mss_mmuart/mss_uart.c ****     uint8_t line_config,
 175:../src/platform/drivers/mss/mss_mmuart/mss_uart.c ****     mss_uart_rzi_polarity_t rxpol,
 176:../src/platform/drivers/mss/mss_mmuart/mss_uart.c ****     mss_uart_rzi_polarity_t txpol,
 177:../src/platform/drivers/mss/mss_mmuart/mss_uart.c ****     mss_uart_rzi_pulsewidth_t pw
 178:../src/platform/drivers/mss/mss_mmuart/mss_uart.c **** )
 179:../src/platform/drivers/mss/mss_mmuart/mss_uart.c **** {
 180:../src/platform/drivers/mss/mss_mmuart/mss_uart.c ****     /* Perform generic initialization */
 181:../src/platform/drivers/mss/mss_mmuart/mss_uart.c ****     global_init(this_uart, baud_rate, line_config);
 182:../src/platform/drivers/mss/mss_mmuart/mss_uart.c **** 
 183:../src/platform/drivers/mss/mss_mmuart/mss_uart.c ****      /* Enable LIN mode */
 184:../src/platform/drivers/mss/mss_mmuart/mss_uart.c ****     this_uart->hw_reg->MM0 &= ~ELIN_MASK;
 185:../src/platform/drivers/mss/mss_mmuart/mss_uart.c **** 
 186:../src/platform/drivers/mss/mss_mmuart/mss_uart.c ****     /* Disable IrDA mode */
 187:../src/platform/drivers/mss/mss_mmuart/mss_uart.c ****     this_uart->hw_reg->MM1 |= EIRD_MASK;
 188:../src/platform/drivers/mss/mss_mmuart/mss_uart.c **** 
 189:../src/platform/drivers/mss/mss_mmuart/mss_uart.c ****     ((rxpol == MSS_UART_ACTIVE_LOW) ? (this_uart->hw_reg->MM1 &= ~EIRX_MASK) :
 190:../src/platform/drivers/mss/mss_mmuart/mss_uart.c ****                                       (this_uart->hw_reg->MM1 |= EIRX_MASK));
 191:../src/platform/drivers/mss/mss_mmuart/mss_uart.c ****                                       
 192:../src/platform/drivers/mss/mss_mmuart/mss_uart.c ****     ((txpol == MSS_UART_ACTIVE_LOW) ? (this_uart->hw_reg->MM1 &= ~EITX_MASK) :
 193:../src/platform/drivers/mss/mss_mmuart/mss_uart.c ****                                       (this_uart->hw_reg->MM1 |= EITX_MASK));
 194:../src/platform/drivers/mss/mss_mmuart/mss_uart.c ****                                       
 195:../src/platform/drivers/mss/mss_mmuart/mss_uart.c ****     ((pw == MSS_UART_3_BY_16) ? (this_uart->hw_reg->MM1 &= ~EITP_MASK) :
 196:../src/platform/drivers/mss/mss_mmuart/mss_uart.c ****                                       (this_uart->hw_reg->MM1 |= EITP_MASK));
 197:../src/platform/drivers/mss/mss_mmuart/mss_uart.c ****     /* Disable SmartCard Mode */
 198:../src/platform/drivers/mss/mss_mmuart/mss_uart.c ****     this_uart->hw_reg->MM2 &= ~EERR_MASK;
 199:../src/platform/drivers/mss/mss_mmuart/mss_uart.c **** }
 200:../src/platform/drivers/mss/mss_mmuart/mss_uart.c **** 
 201:../src/platform/drivers/mss/mss_mmuart/mss_uart.c **** /***************************************************************************//**
 202:../src/platform/drivers/mss/mss_mmuart/mss_uart.c ****  * See mss_uart.h for details of how to use this function.
 203:../src/platform/drivers/mss/mss_mmuart/mss_uart.c ****  */
 204:../src/platform/drivers/mss/mss_mmuart/mss_uart.c **** void 
 205:../src/platform/drivers/mss/mss_mmuart/mss_uart.c **** MSS_UART_smartcard_init
 206:../src/platform/drivers/mss/mss_mmuart/mss_uart.c **** (
 207:../src/platform/drivers/mss/mss_mmuart/mss_uart.c ****     mss_uart_instance_t* this_uart, 
 208:../src/platform/drivers/mss/mss_mmuart/mss_uart.c ****     uint32_t baud_rate,
 209:../src/platform/drivers/mss/mss_mmuart/mss_uart.c ****     uint8_t line_config
 210:../src/platform/drivers/mss/mss_mmuart/mss_uart.c **** )
 211:../src/platform/drivers/mss/mss_mmuart/mss_uart.c **** {
 212:../src/platform/drivers/mss/mss_mmuart/mss_uart.c ****     /* Perform generic initialization */
 213:../src/platform/drivers/mss/mss_mmuart/mss_uart.c ****     global_init(this_uart, baud_rate, line_config);
 214:../src/platform/drivers/mss/mss_mmuart/mss_uart.c ****     
 215:../src/platform/drivers/mss/mss_mmuart/mss_uart.c ****     /* Disable LIN mode */
 216:../src/platform/drivers/mss/mss_mmuart/mss_uart.c ****     this_uart->hw_reg->MM0 &= ~ELIN_MASK;
 217:../src/platform/drivers/mss/mss_mmuart/mss_uart.c **** 
 218:../src/platform/drivers/mss/mss_mmuart/mss_uart.c ****     /* Disable IrDA mode */
 219:../src/platform/drivers/mss/mss_mmuart/mss_uart.c ****     this_uart->hw_reg->MM1 &= ~EIRD_MASK;
 220:../src/platform/drivers/mss/mss_mmuart/mss_uart.c **** 
 221:../src/platform/drivers/mss/mss_mmuart/mss_uart.c ****     /* Enable SmartCard Mode : Only when data is 8-bit and 2 stop bits */
 222:../src/platform/drivers/mss/mss_mmuart/mss_uart.c ****     if ((MSS_UART_DATA_8_BITS | MSS_UART_TWO_STOP_BITS) ==
 223:../src/platform/drivers/mss/mss_mmuart/mss_uart.c ****         (line_config & (MSS_UART_DATA_8_BITS | MSS_UART_TWO_STOP_BITS)))
 224:../src/platform/drivers/mss/mss_mmuart/mss_uart.c ****     {
 225:../src/platform/drivers/mss/mss_mmuart/mss_uart.c ****         this_uart->hw_reg->MM2 |= EERR_MASK;
 226:../src/platform/drivers/mss/mss_mmuart/mss_uart.c **** 
 227:../src/platform/drivers/mss/mss_mmuart/mss_uart.c ****         /* Enable single wire half-duplex mode */
 228:../src/platform/drivers/mss/mss_mmuart/mss_uart.c ****         this_uart->hw_reg->MM2 |= ESWM_MASK;
 229:../src/platform/drivers/mss/mss_mmuart/mss_uart.c ****     }
 230:../src/platform/drivers/mss/mss_mmuart/mss_uart.c **** }
 231:../src/platform/drivers/mss/mss_mmuart/mss_uart.c **** 
 232:../src/platform/drivers/mss/mss_mmuart/mss_uart.c **** /***************************************************************************//**
 233:../src/platform/drivers/mss/mss_mmuart/mss_uart.c ****  * See mss_uart.h for details of how to use this function.
 234:../src/platform/drivers/mss/mss_mmuart/mss_uart.c ****  */
 235:../src/platform/drivers/mss/mss_mmuart/mss_uart.c **** void
 236:../src/platform/drivers/mss/mss_mmuart/mss_uart.c **** MSS_UART_polled_tx
 237:../src/platform/drivers/mss/mss_mmuart/mss_uart.c **** (
 238:../src/platform/drivers/mss/mss_mmuart/mss_uart.c ****     mss_uart_instance_t * this_uart,
 239:../src/platform/drivers/mss/mss_mmuart/mss_uart.c ****     const uint8_t * pbuff,
 240:../src/platform/drivers/mss/mss_mmuart/mss_uart.c ****     uint32_t tx_size
 241:../src/platform/drivers/mss/mss_mmuart/mss_uart.c **** )
 242:../src/platform/drivers/mss/mss_mmuart/mss_uart.c **** {
 243:../src/platform/drivers/mss/mss_mmuart/mss_uart.c ****     uint32_t char_idx = 0u;
 244:../src/platform/drivers/mss/mss_mmuart/mss_uart.c ****     uint32_t size_sent;
 245:../src/platform/drivers/mss/mss_mmuart/mss_uart.c ****     uint8_t status;
 246:../src/platform/drivers/mss/mss_mmuart/mss_uart.c ****     uint32_t temp_tx_size = tx_size;
 247:../src/platform/drivers/mss/mss_mmuart/mss_uart.c **** 
 248:../src/platform/drivers/mss/mss_mmuart/mss_uart.c ****     ASSERT(pbuff != ( (uint8_t*)0));
 249:../src/platform/drivers/mss/mss_mmuart/mss_uart.c ****     ASSERT(tx_size > 0u);
 250:../src/platform/drivers/mss/mss_mmuart/mss_uart.c **** 
 251:../src/platform/drivers/mss/mss_mmuart/mss_uart.c ****     if ((pbuff != ((uint8_t*)0)) && (temp_tx_size > 0u))
 252:../src/platform/drivers/mss/mss_mmuart/mss_uart.c ****     {
 253:../src/platform/drivers/mss/mss_mmuart/mss_uart.c ****         /* Remain in this loop until the entire input buffer
 254:../src/platform/drivers/mss/mss_mmuart/mss_uart.c ****          * has been transferred to the UART.
 255:../src/platform/drivers/mss/mss_mmuart/mss_uart.c ****          */
 256:../src/platform/drivers/mss/mss_mmuart/mss_uart.c ****         do
 257:../src/platform/drivers/mss/mss_mmuart/mss_uart.c ****         {
 258:../src/platform/drivers/mss/mss_mmuart/mss_uart.c ****             /* Read the Line Status Register and update the sticky record */
 259:../src/platform/drivers/mss/mss_mmuart/mss_uart.c ****             status = this_uart->hw_reg->LSR;
 260:../src/platform/drivers/mss/mss_mmuart/mss_uart.c ****             this_uart->status |= status;
 261:../src/platform/drivers/mss/mss_mmuart/mss_uart.c **** 
 262:../src/platform/drivers/mss/mss_mmuart/mss_uart.c ****             /* Check if TX FIFO is empty. */
 263:../src/platform/drivers/mss/mss_mmuart/mss_uart.c ****             if (status & MSS_UART_THRE)
 264:../src/platform/drivers/mss/mss_mmuart/mss_uart.c ****             {
 265:../src/platform/drivers/mss/mss_mmuart/mss_uart.c ****                 uint32_t fill_size = TX_FIFO_SIZE;
 266:../src/platform/drivers/mss/mss_mmuart/mss_uart.c **** 
 267:../src/platform/drivers/mss/mss_mmuart/mss_uart.c ****                 /* Calculate the number of bytes to transmit. */
 268:../src/platform/drivers/mss/mss_mmuart/mss_uart.c ****                 if (temp_tx_size < TX_FIFO_SIZE)
 269:../src/platform/drivers/mss/mss_mmuart/mss_uart.c ****                 {
 270:../src/platform/drivers/mss/mss_mmuart/mss_uart.c ****                     fill_size = temp_tx_size;
 271:../src/platform/drivers/mss/mss_mmuart/mss_uart.c ****                 }
 272:../src/platform/drivers/mss/mss_mmuart/mss_uart.c **** 
 273:../src/platform/drivers/mss/mss_mmuart/mss_uart.c ****                 /* Fill the TX FIFO with the calculated the number of bytes. */
 274:../src/platform/drivers/mss/mss_mmuart/mss_uart.c ****                 for (size_sent = 0u; size_sent < fill_size; ++size_sent)
 275:../src/platform/drivers/mss/mss_mmuart/mss_uart.c ****                 {
 276:../src/platform/drivers/mss/mss_mmuart/mss_uart.c ****                     /* Send next character in the buffer. */
 277:../src/platform/drivers/mss/mss_mmuart/mss_uart.c ****                     this_uart->hw_reg->THR = pbuff[char_idx];
 278:../src/platform/drivers/mss/mss_mmuart/mss_uart.c ****                     char_idx++;
 279:../src/platform/drivers/mss/mss_mmuart/mss_uart.c ****                 }
 280:../src/platform/drivers/mss/mss_mmuart/mss_uart.c **** 
 281:../src/platform/drivers/mss/mss_mmuart/mss_uart.c ****                 /* find the number of bytes remaining(not transmitted yet) */
 282:../src/platform/drivers/mss/mss_mmuart/mss_uart.c ****                 temp_tx_size -= size_sent;
 283:../src/platform/drivers/mss/mss_mmuart/mss_uart.c ****             }
 284:../src/platform/drivers/mss/mss_mmuart/mss_uart.c ****         }while (temp_tx_size);
 285:../src/platform/drivers/mss/mss_mmuart/mss_uart.c ****     }
 286:../src/platform/drivers/mss/mss_mmuart/mss_uart.c **** }
 287:../src/platform/drivers/mss/mss_mmuart/mss_uart.c **** 
 288:../src/platform/drivers/mss/mss_mmuart/mss_uart.c **** /***************************************************************************//**
 289:../src/platform/drivers/mss/mss_mmuart/mss_uart.c ****  * See mss_uart.h for details of how to use this function.
 290:../src/platform/drivers/mss/mss_mmuart/mss_uart.c ****  */
 291:../src/platform/drivers/mss/mss_mmuart/mss_uart.c **** void
 292:../src/platform/drivers/mss/mss_mmuart/mss_uart.c **** MSS_UART_polled_tx_string
 293:../src/platform/drivers/mss/mss_mmuart/mss_uart.c **** (
 294:../src/platform/drivers/mss/mss_mmuart/mss_uart.c ****     mss_uart_instance_t * this_uart,
 295:../src/platform/drivers/mss/mss_mmuart/mss_uart.c ****     const uint8_t * p_sz_string
 296:../src/platform/drivers/mss/mss_mmuart/mss_uart.c **** )
 297:../src/platform/drivers/mss/mss_mmuart/mss_uart.c **** {
 298:../src/platform/drivers/mss/mss_mmuart/mss_uart.c ****     uint32_t char_idx = 0u;
 299:../src/platform/drivers/mss/mss_mmuart/mss_uart.c ****     uint32_t fill_size;
 300:../src/platform/drivers/mss/mss_mmuart/mss_uart.c ****     uint8_t data_byte;
 301:../src/platform/drivers/mss/mss_mmuart/mss_uart.c ****     uint8_t status;
 302:../src/platform/drivers/mss/mss_mmuart/mss_uart.c **** 
 303:../src/platform/drivers/mss/mss_mmuart/mss_uart.c ****     ASSERT(p_sz_string != ((uint8_t*)0));
 304:../src/platform/drivers/mss/mss_mmuart/mss_uart.c **** 
 305:../src/platform/drivers/mss/mss_mmuart/mss_uart.c ****     if (p_sz_string != ((uint8_t*)0))
 306:../src/platform/drivers/mss/mss_mmuart/mss_uart.c ****     {
 307:../src/platform/drivers/mss/mss_mmuart/mss_uart.c ****         /* Get the first data byte from the input buffer */
 308:../src/platform/drivers/mss/mss_mmuart/mss_uart.c ****         data_byte = p_sz_string[char_idx];
 309:../src/platform/drivers/mss/mss_mmuart/mss_uart.c **** 
 310:../src/platform/drivers/mss/mss_mmuart/mss_uart.c ****         /* First check for the NULL terminator byte.
 311:../src/platform/drivers/mss/mss_mmuart/mss_uart.c ****          * Then remain in this loop until the entire string in the input buffer
 312:../src/platform/drivers/mss/mss_mmuart/mss_uart.c ****          * has been transferred to the UART.
 313:../src/platform/drivers/mss/mss_mmuart/mss_uart.c ****          */
 314:../src/platform/drivers/mss/mss_mmuart/mss_uart.c ****         while (0u != data_byte)
 315:../src/platform/drivers/mss/mss_mmuart/mss_uart.c ****         {
 316:../src/platform/drivers/mss/mss_mmuart/mss_uart.c ****             /* Wait until TX FIFO is empty. */
 317:../src/platform/drivers/mss/mss_mmuart/mss_uart.c ****             do
 318:../src/platform/drivers/mss/mss_mmuart/mss_uart.c ****             {
 319:../src/platform/drivers/mss/mss_mmuart/mss_uart.c ****                 status = this_uart->hw_reg->LSR;
 320:../src/platform/drivers/mss/mss_mmuart/mss_uart.c ****                 this_uart->status |= status;
 321:../src/platform/drivers/mss/mss_mmuart/mss_uart.c ****             }while (0u == (status & MSS_UART_THRE));
 322:../src/platform/drivers/mss/mss_mmuart/mss_uart.c **** 
 323:../src/platform/drivers/mss/mss_mmuart/mss_uart.c ****             /* Send bytes from the input buffer until the TX FIFO is full
 324:../src/platform/drivers/mss/mss_mmuart/mss_uart.c ****              * or we reach the NULL terminator byte.
 325:../src/platform/drivers/mss/mss_mmuart/mss_uart.c ****              */
 326:../src/platform/drivers/mss/mss_mmuart/mss_uart.c ****             fill_size = 0u;
 327:../src/platform/drivers/mss/mss_mmuart/mss_uart.c **** 
 328:../src/platform/drivers/mss/mss_mmuart/mss_uart.c ****             while ((0u != data_byte) && (fill_size < TX_FIFO_SIZE))
 329:../src/platform/drivers/mss/mss_mmuart/mss_uart.c ****             {
 330:../src/platform/drivers/mss/mss_mmuart/mss_uart.c ****                 /* Send the data byte */
 331:../src/platform/drivers/mss/mss_mmuart/mss_uart.c ****                 this_uart->hw_reg->THR = data_byte;
 332:../src/platform/drivers/mss/mss_mmuart/mss_uart.c ****                 ++fill_size;
 333:../src/platform/drivers/mss/mss_mmuart/mss_uart.c ****                 char_idx++;
 334:../src/platform/drivers/mss/mss_mmuart/mss_uart.c ****                 /* Get the next data byte from the input buffer */
 335:../src/platform/drivers/mss/mss_mmuart/mss_uart.c ****                 data_byte = p_sz_string[char_idx];
 336:../src/platform/drivers/mss/mss_mmuart/mss_uart.c ****             }
 337:../src/platform/drivers/mss/mss_mmuart/mss_uart.c ****         }
 338:../src/platform/drivers/mss/mss_mmuart/mss_uart.c ****     }
 339:../src/platform/drivers/mss/mss_mmuart/mss_uart.c **** }
 340:../src/platform/drivers/mss/mss_mmuart/mss_uart.c **** 
 341:../src/platform/drivers/mss/mss_mmuart/mss_uart.c **** /***************************************************************************//**
 342:../src/platform/drivers/mss/mss_mmuart/mss_uart.c ****  * See mss_uart.h for details of how to use this function.
 343:../src/platform/drivers/mss/mss_mmuart/mss_uart.c ****  */
 344:../src/platform/drivers/mss/mss_mmuart/mss_uart.c **** void
 345:../src/platform/drivers/mss/mss_mmuart/mss_uart.c **** MSS_UART_irq_tx
 346:../src/platform/drivers/mss/mss_mmuart/mss_uart.c **** (
 347:../src/platform/drivers/mss/mss_mmuart/mss_uart.c ****     mss_uart_instance_t * this_uart,
 348:../src/platform/drivers/mss/mss_mmuart/mss_uart.c ****     const uint8_t * pbuff,
 349:../src/platform/drivers/mss/mss_mmuart/mss_uart.c ****     uint32_t tx_size
 350:../src/platform/drivers/mss/mss_mmuart/mss_uart.c **** )
 351:../src/platform/drivers/mss/mss_mmuart/mss_uart.c **** {
 352:../src/platform/drivers/mss/mss_mmuart/mss_uart.c ****     ASSERT(pbuff != ((uint8_t*)0));
 353:../src/platform/drivers/mss/mss_mmuart/mss_uart.c ****     ASSERT(tx_size > 0u);
 354:../src/platform/drivers/mss/mss_mmuart/mss_uart.c **** 
 355:../src/platform/drivers/mss/mss_mmuart/mss_uart.c ****     if ((tx_size > 0u) && (pbuff != ((uint8_t*)0)))
 356:../src/platform/drivers/mss/mss_mmuart/mss_uart.c ****     {
 357:../src/platform/drivers/mss/mss_mmuart/mss_uart.c ****         /* Initialize the transmit info for the UART instance with the
 358:../src/platform/drivers/mss/mss_mmuart/mss_uart.c ****          * arguments */
 359:../src/platform/drivers/mss/mss_mmuart/mss_uart.c ****         this_uart->tx_buffer = pbuff;
 360:../src/platform/drivers/mss/mss_mmuart/mss_uart.c ****         this_uart->tx_buff_size = tx_size;
 361:../src/platform/drivers/mss/mss_mmuart/mss_uart.c ****         this_uart->tx_idx = 0u;
 362:../src/platform/drivers/mss/mss_mmuart/mss_uart.c **** 
 363:../src/platform/drivers/mss/mss_mmuart/mss_uart.c ****         /* assign default handler for data transfer */
 364:../src/platform/drivers/mss/mss_mmuart/mss_uart.c ****         this_uart->tx_handler = default_tx_handler;
 365:../src/platform/drivers/mss/mss_mmuart/mss_uart.c **** 
 366:../src/platform/drivers/mss/mss_mmuart/mss_uart.c ****         /* enables TX interrupt */
 367:../src/platform/drivers/mss/mss_mmuart/mss_uart.c ****         this_uart->hw_reg->IER |= ETBEI_MASK;
 368:../src/platform/drivers/mss/mss_mmuart/mss_uart.c ****         enable_irq(this_uart);
 369:../src/platform/drivers/mss/mss_mmuart/mss_uart.c ****     }
 370:../src/platform/drivers/mss/mss_mmuart/mss_uart.c **** }
 371:../src/platform/drivers/mss/mss_mmuart/mss_uart.c **** 
 372:../src/platform/drivers/mss/mss_mmuart/mss_uart.c **** /***************************************************************************//**
 373:../src/platform/drivers/mss/mss_mmuart/mss_uart.c ****  * See mss_uart.h for details of how to use this function.
 374:../src/platform/drivers/mss/mss_mmuart/mss_uart.c ****  */
 375:../src/platform/drivers/mss/mss_mmuart/mss_uart.c **** int8_t
 376:../src/platform/drivers/mss/mss_mmuart/mss_uart.c **** MSS_UART_tx_complete
 377:../src/platform/drivers/mss/mss_mmuart/mss_uart.c **** (
 378:../src/platform/drivers/mss/mss_mmuart/mss_uart.c ****     mss_uart_instance_t * this_uart
 379:../src/platform/drivers/mss/mss_mmuart/mss_uart.c **** )
 380:../src/platform/drivers/mss/mss_mmuart/mss_uart.c **** {
 381:../src/platform/drivers/mss/mss_mmuart/mss_uart.c ****     int8_t ret_value = 0;
 382:../src/platform/drivers/mss/mss_mmuart/mss_uart.c ****     uint8_t status = 0u;
 383:../src/platform/drivers/mss/mss_mmuart/mss_uart.c **** 
 384:../src/platform/drivers/mss/mss_mmuart/mss_uart.c ****     /* Read the Line Status Register and update the sticky record. */
 385:../src/platform/drivers/mss/mss_mmuart/mss_uart.c ****     status = this_uart->hw_reg->LSR;
 386:../src/platform/drivers/mss/mss_mmuart/mss_uart.c ****     this_uart->status |= status;
 387:../src/platform/drivers/mss/mss_mmuart/mss_uart.c **** 
 388:../src/platform/drivers/mss/mss_mmuart/mss_uart.c ****     if ((TX_COMPLETE == this_uart->tx_buff_size) &&
 389:../src/platform/drivers/mss/mss_mmuart/mss_uart.c ****        ((status & MSS_UART_TEMT) != 0u))
 390:../src/platform/drivers/mss/mss_mmuart/mss_uart.c ****     {
 391:../src/platform/drivers/mss/mss_mmuart/mss_uart.c ****         ret_value = (int8_t)1;
 392:../src/platform/drivers/mss/mss_mmuart/mss_uart.c ****     }
 393:../src/platform/drivers/mss/mss_mmuart/mss_uart.c **** 
 394:../src/platform/drivers/mss/mss_mmuart/mss_uart.c ****     return ret_value;
 395:../src/platform/drivers/mss/mss_mmuart/mss_uart.c **** }
 396:../src/platform/drivers/mss/mss_mmuart/mss_uart.c **** 
 397:../src/platform/drivers/mss/mss_mmuart/mss_uart.c **** /***************************************************************************//**
 398:../src/platform/drivers/mss/mss_mmuart/mss_uart.c ****  * See mss_uart.h for details of how to use this function.
 399:../src/platform/drivers/mss/mss_mmuart/mss_uart.c ****  */
 400:../src/platform/drivers/mss/mss_mmuart/mss_uart.c **** size_t
 401:../src/platform/drivers/mss/mss_mmuart/mss_uart.c **** MSS_UART_get_rx
 402:../src/platform/drivers/mss/mss_mmuart/mss_uart.c **** (
 403:../src/platform/drivers/mss/mss_mmuart/mss_uart.c ****     mss_uart_instance_t * this_uart,
 404:../src/platform/drivers/mss/mss_mmuart/mss_uart.c ****     uint8_t * rx_buff,
 405:../src/platform/drivers/mss/mss_mmuart/mss_uart.c ****     size_t buff_size
 406:../src/platform/drivers/mss/mss_mmuart/mss_uart.c **** )
 407:../src/platform/drivers/mss/mss_mmuart/mss_uart.c **** {
 408:../src/platform/drivers/mss/mss_mmuart/mss_uart.c ****     size_t rx_size = 0u;
 409:../src/platform/drivers/mss/mss_mmuart/mss_uart.c ****     uint8_t status = 0u;
 410:../src/platform/drivers/mss/mss_mmuart/mss_uart.c **** 
 411:../src/platform/drivers/mss/mss_mmuart/mss_uart.c ****     ASSERT(rx_buff != ((uint8_t*)0));
 412:../src/platform/drivers/mss/mss_mmuart/mss_uart.c ****     ASSERT(buff_size > 0u);
 413:../src/platform/drivers/mss/mss_mmuart/mss_uart.c **** 
 414:../src/platform/drivers/mss/mss_mmuart/mss_uart.c ****     if ((rx_buff != (uint8_t*)0) && (buff_size > 0u))
 415:../src/platform/drivers/mss/mss_mmuart/mss_uart.c ****     {
 416:../src/platform/drivers/mss/mss_mmuart/mss_uart.c ****         status = this_uart->hw_reg->LSR;
 417:../src/platform/drivers/mss/mss_mmuart/mss_uart.c ****         this_uart->status |= status;
 418:../src/platform/drivers/mss/mss_mmuart/mss_uart.c **** 
 419:../src/platform/drivers/mss/mss_mmuart/mss_uart.c ****         while (((status & MSS_UART_DATA_READY) != 0u) && (rx_size < buff_size))
 420:../src/platform/drivers/mss/mss_mmuart/mss_uart.c ****         {
 421:../src/platform/drivers/mss/mss_mmuart/mss_uart.c ****             rx_buff[rx_size] = this_uart->hw_reg->RBR;
 422:../src/platform/drivers/mss/mss_mmuart/mss_uart.c ****             ++rx_size;
 423:../src/platform/drivers/mss/mss_mmuart/mss_uart.c ****             status = this_uart->hw_reg->LSR;
 424:../src/platform/drivers/mss/mss_mmuart/mss_uart.c ****             this_uart->status |= status;
 425:../src/platform/drivers/mss/mss_mmuart/mss_uart.c ****         }
 426:../src/platform/drivers/mss/mss_mmuart/mss_uart.c ****     }
 427:../src/platform/drivers/mss/mss_mmuart/mss_uart.c **** 
 428:../src/platform/drivers/mss/mss_mmuart/mss_uart.c ****     return rx_size;
 429:../src/platform/drivers/mss/mss_mmuart/mss_uart.c **** }
 430:../src/platform/drivers/mss/mss_mmuart/mss_uart.c **** 
 431:../src/platform/drivers/mss/mss_mmuart/mss_uart.c **** /***************************************************************************//**
 432:../src/platform/drivers/mss/mss_mmuart/mss_uart.c ****  * See mss_uart.h for details of how to use this function.
 433:../src/platform/drivers/mss/mss_mmuart/mss_uart.c ****  */
 434:../src/platform/drivers/mss/mss_mmuart/mss_uart.c **** void
 435:../src/platform/drivers/mss/mss_mmuart/mss_uart.c **** MSS_UART_enable_irq
 436:../src/platform/drivers/mss/mss_mmuart/mss_uart.c **** (
 437:../src/platform/drivers/mss/mss_mmuart/mss_uart.c ****     mss_uart_instance_t * this_uart,
 438:../src/platform/drivers/mss/mss_mmuart/mss_uart.c ****     mss_uart_irq_t irq_mask
 439:../src/platform/drivers/mss/mss_mmuart/mss_uart.c **** )
 440:../src/platform/drivers/mss/mss_mmuart/mss_uart.c **** {
 441:../src/platform/drivers/mss/mss_mmuart/mss_uart.c ****     ASSERT(MSS_UART_INVALID_IRQ > irq_mask);
 442:../src/platform/drivers/mss/mss_mmuart/mss_uart.c **** 
 443:../src/platform/drivers/mss/mss_mmuart/mss_uart.c ****     if (MSS_UART_INVALID_IRQ > irq_mask)
 444:../src/platform/drivers/mss/mss_mmuart/mss_uart.c ****     {
 445:../src/platform/drivers/mss/mss_mmuart/mss_uart.c ****         /* irq_mask encoding: 1- enable
 446:../src/platform/drivers/mss/mss_mmuart/mss_uart.c ****          * bit 0 - Receive Data Available Interrupt
 447:../src/platform/drivers/mss/mss_mmuart/mss_uart.c ****          * bit 1 - Transmitter Holding  Register Empty Interrupt
 448:../src/platform/drivers/mss/mss_mmuart/mss_uart.c ****          * bit 2 - Receiver Line Status Interrupt
 449:../src/platform/drivers/mss/mss_mmuart/mss_uart.c ****          * bit 3 - Modem Status Interrupt
 450:../src/platform/drivers/mss/mss_mmuart/mss_uart.c ****          * 
 451:../src/platform/drivers/mss/mss_mmuart/mss_uart.c ****          * The use of the IER_MASK macro is to prevent the THRE to be
 452:../src/platform/drivers/mss/mss_mmuart/mss_uart.c ****          * set at this point of the design flow and to lead to a break
 453:../src/platform/drivers/mss/mss_mmuart/mss_uart.c ****          * later on.
 454:../src/platform/drivers/mss/mss_mmuart/mss_uart.c ****          */
 455:../src/platform/drivers/mss/mss_mmuart/mss_uart.c ****         this_uart->hw_reg->IER |= ((uint8_t)(((uint32_t)irq_mask &
 456:../src/platform/drivers/mss/mss_mmuart/mss_uart.c ****                                                          (uint32_t)IER_MASK)));
 457:../src/platform/drivers/mss/mss_mmuart/mss_uart.c **** 
 458:../src/platform/drivers/mss/mss_mmuart/mss_uart.c ****         /* 
 459:../src/platform/drivers/mss/mss_mmuart/mss_uart.c ****          * bit 4 - Receiver time-out interrupt
 460:../src/platform/drivers/mss/mss_mmuart/mss_uart.c ****          * bit 5 - NACK / ERR signal interrupt
 461:../src/platform/drivers/mss/mss_mmuart/mss_uart.c ****          * bit 6 - PID parity error interrupt 
 462:../src/platform/drivers/mss/mss_mmuart/mss_uart.c ****          * bit 7 - LIN break detection interrupt
 463:../src/platform/drivers/mss/mss_mmuart/mss_uart.c ****          * bit 8 - LIN Sync detection interrupt
 464:../src/platform/drivers/mss/mss_mmuart/mss_uart.c ****          */
 465:../src/platform/drivers/mss/mss_mmuart/mss_uart.c ****         this_uart->hw_reg->IEM |= (uint8_t)(((uint32_t)irq_mask >> 4u) &
 466:../src/platform/drivers/mss/mss_mmuart/mss_uart.c ****                                                          ((uint32_t)IIRF_MASK));
 467:../src/platform/drivers/mss/mss_mmuart/mss_uart.c ****     }
 468:../src/platform/drivers/mss/mss_mmuart/mss_uart.c **** }
 469:../src/platform/drivers/mss/mss_mmuart/mss_uart.c **** 
 470:../src/platform/drivers/mss/mss_mmuart/mss_uart.c **** /***************************************************************************//**
 471:../src/platform/drivers/mss/mss_mmuart/mss_uart.c ****  * See mss_uart.h for details of how to use this function.
 472:../src/platform/drivers/mss/mss_mmuart/mss_uart.c ****  */
 473:../src/platform/drivers/mss/mss_mmuart/mss_uart.c **** void
 474:../src/platform/drivers/mss/mss_mmuart/mss_uart.c **** MSS_UART_disable_irq
 475:../src/platform/drivers/mss/mss_mmuart/mss_uart.c **** (
 476:../src/platform/drivers/mss/mss_mmuart/mss_uart.c ****     mss_uart_instance_t * this_uart,
 477:../src/platform/drivers/mss/mss_mmuart/mss_uart.c ****     mss_uart_irq_t irq_mask
 478:../src/platform/drivers/mss/mss_mmuart/mss_uart.c **** )
 479:../src/platform/drivers/mss/mss_mmuart/mss_uart.c **** {
 480:../src/platform/drivers/mss/mss_mmuart/mss_uart.c ****      /* irq_mask encoding: 1 - disable
 481:../src/platform/drivers/mss/mss_mmuart/mss_uart.c ****      * bit 0 - Receive Data Available Interrupt
 482:../src/platform/drivers/mss/mss_mmuart/mss_uart.c ****      * bit 1 - Transmitter Holding  Register Empty Interrupt
 483:../src/platform/drivers/mss/mss_mmuart/mss_uart.c ****      * bit 2 - Receiver Line Status Interrupt
 484:../src/platform/drivers/mss/mss_mmuart/mss_uart.c ****      * bit 3 - Modem Status Interrupt
 485:../src/platform/drivers/mss/mss_mmuart/mss_uart.c ****      */
 486:../src/platform/drivers/mss/mss_mmuart/mss_uart.c ****     this_uart->hw_reg->IER &= ((uint8_t)(~((uint32_t)irq_mask &
 487:../src/platform/drivers/mss/mss_mmuart/mss_uart.c ****                                                         (uint32_t)IIRF_MASK)));
 488:../src/platform/drivers/mss/mss_mmuart/mss_uart.c **** 
 489:../src/platform/drivers/mss/mss_mmuart/mss_uart.c ****     /*
 490:../src/platform/drivers/mss/mss_mmuart/mss_uart.c ****      * bit 4 - Receiver time-out interrupt
 491:../src/platform/drivers/mss/mss_mmuart/mss_uart.c ****      * bit 5 - NACK / ERR signal interrupt
 492:../src/platform/drivers/mss/mss_mmuart/mss_uart.c ****      * bit 6 - PID parity error interrupt
 493:../src/platform/drivers/mss/mss_mmuart/mss_uart.c ****      * bit 7 - LIN break detection interrupt
 494:../src/platform/drivers/mss/mss_mmuart/mss_uart.c ****      * bit 8 - LIN Sync detection interrupt
 495:../src/platform/drivers/mss/mss_mmuart/mss_uart.c ****      */
 496:../src/platform/drivers/mss/mss_mmuart/mss_uart.c ****     this_uart->hw_reg->IEM &= (uint8_t)(~(((uint32_t)irq_mask >> 4u) &
 497:../src/platform/drivers/mss/mss_mmuart/mss_uart.c ****                                                         ((uint32_t)IIRF_MASK)));
 498:../src/platform/drivers/mss/mss_mmuart/mss_uart.c **** 
 499:../src/platform/drivers/mss/mss_mmuart/mss_uart.c ****     if(1 == this_uart->local_irq_enabled)
 500:../src/platform/drivers/mss/mss_mmuart/mss_uart.c ****     {
 501:../src/platform/drivers/mss/mss_mmuart/mss_uart.c ****         __disable_local_irq((int8_t)MMUART0_E51_INT);
 502:../src/platform/drivers/mss/mss_mmuart/mss_uart.c ****     }
 503:../src/platform/drivers/mss/mss_mmuart/mss_uart.c ****     else
 504:../src/platform/drivers/mss/mss_mmuart/mss_uart.c ****     {
 505:../src/platform/drivers/mss/mss_mmuart/mss_uart.c ****         disable_irq(this_uart);
 506:../src/platform/drivers/mss/mss_mmuart/mss_uart.c ****     }
 507:../src/platform/drivers/mss/mss_mmuart/mss_uart.c **** }
 508:../src/platform/drivers/mss/mss_mmuart/mss_uart.c **** 
 509:../src/platform/drivers/mss/mss_mmuart/mss_uart.c **** /***************************************************************************//**
 510:../src/platform/drivers/mss/mss_mmuart/mss_uart.c ****  * See mss_uart.h for details of how to use this function.
 511:../src/platform/drivers/mss/mss_mmuart/mss_uart.c ****  */
 512:../src/platform/drivers/mss/mss_mmuart/mss_uart.c **** void
 513:../src/platform/drivers/mss/mss_mmuart/mss_uart.c **** MSS_UART_set_rx_handler
 514:../src/platform/drivers/mss/mss_mmuart/mss_uart.c **** (
 515:../src/platform/drivers/mss/mss_mmuart/mss_uart.c ****     mss_uart_instance_t *       this_uart,
 516:../src/platform/drivers/mss/mss_mmuart/mss_uart.c ****     mss_uart_irq_handler_t      handler,
 517:../src/platform/drivers/mss/mss_mmuart/mss_uart.c ****     mss_uart_rx_trig_level_t    trigger_level
 518:../src/platform/drivers/mss/mss_mmuart/mss_uart.c **** )
 519:../src/platform/drivers/mss/mss_mmuart/mss_uart.c **** {
 520:../src/platform/drivers/mss/mss_mmuart/mss_uart.c ****     ASSERT(handler != INVALID_IRQ_HANDLER );
 521:../src/platform/drivers/mss/mss_mmuart/mss_uart.c ****     ASSERT(trigger_level < MSS_UART_FIFO_INVALID_TRIG_LEVEL);
 522:../src/platform/drivers/mss/mss_mmuart/mss_uart.c **** 
 523:../src/platform/drivers/mss/mss_mmuart/mss_uart.c ****     if ((handler != INVALID_IRQ_HANDLER) &&
 524:../src/platform/drivers/mss/mss_mmuart/mss_uart.c ****        (trigger_level < MSS_UART_FIFO_INVALID_TRIG_LEVEL))
 525:../src/platform/drivers/mss/mss_mmuart/mss_uart.c ****     {
 526:../src/platform/drivers/mss/mss_mmuart/mss_uart.c ****         this_uart->rx_handler = handler;
 527:../src/platform/drivers/mss/mss_mmuart/mss_uart.c **** 
 528:../src/platform/drivers/mss/mss_mmuart/mss_uart.c ****         /* Set the receive interrupt trigger level. */
 529:../src/platform/drivers/mss/mss_mmuart/mss_uart.c ****         this_uart->hw_reg->FCR = (this_uart->hw_reg->FCR &
 530:../src/platform/drivers/mss/mss_mmuart/mss_uart.c ****                                  (uint8_t)(~((uint8_t)FCR_TRIG_LEVEL_MASK))) |
 531:../src/platform/drivers/mss/mss_mmuart/mss_uart.c ****                                  (uint8_t)trigger_level;
 532:../src/platform/drivers/mss/mss_mmuart/mss_uart.c **** 
 533:../src/platform/drivers/mss/mss_mmuart/mss_uart.c ****         /* Enable receive interrupt. */
 534:../src/platform/drivers/mss/mss_mmuart/mss_uart.c ****         this_uart->hw_reg->IER |= ERBFI_MASK;
 535:../src/platform/drivers/mss/mss_mmuart/mss_uart.c **** 
 536:../src/platform/drivers/mss/mss_mmuart/mss_uart.c ****         enable_irq(this_uart);
 537:../src/platform/drivers/mss/mss_mmuart/mss_uart.c ****     }
 538:../src/platform/drivers/mss/mss_mmuart/mss_uart.c **** }
 539:../src/platform/drivers/mss/mss_mmuart/mss_uart.c **** 
 540:../src/platform/drivers/mss/mss_mmuart/mss_uart.c **** /***************************************************************************//**
 541:../src/platform/drivers/mss/mss_mmuart/mss_uart.c ****  * See mss_uart.h for details of how to use this function.
 542:../src/platform/drivers/mss/mss_mmuart/mss_uart.c ****  */
 543:../src/platform/drivers/mss/mss_mmuart/mss_uart.c **** void
 544:../src/platform/drivers/mss/mss_mmuart/mss_uart.c **** MSS_UART_set_loopback
 545:../src/platform/drivers/mss/mss_mmuart/mss_uart.c **** (
 546:../src/platform/drivers/mss/mss_mmuart/mss_uart.c ****     mss_uart_instance_t *   this_uart,
 547:../src/platform/drivers/mss/mss_mmuart/mss_uart.c ****     mss_uart_loopback_t     loopback
 548:../src/platform/drivers/mss/mss_mmuart/mss_uart.c **** )
 549:../src/platform/drivers/mss/mss_mmuart/mss_uart.c **** {
 550:../src/platform/drivers/mss/mss_mmuart/mss_uart.c ****     ASSERT(MSS_UART_INVALID_LOOPBACK > loopback);
 551:../src/platform/drivers/mss/mss_mmuart/mss_uart.c **** 
 552:../src/platform/drivers/mss/mss_mmuart/mss_uart.c ****     if (MSS_UART_INVALID_LOOPBACK > loopback)
 553:../src/platform/drivers/mss/mss_mmuart/mss_uart.c ****     {
 554:../src/platform/drivers/mss/mss_mmuart/mss_uart.c ****         switch (loopback)
 555:../src/platform/drivers/mss/mss_mmuart/mss_uart.c ****         {
 556:../src/platform/drivers/mss/mss_mmuart/mss_uart.c ****             case MSS_UART_LOCAL_LOOPBACK_OFF:
 557:../src/platform/drivers/mss/mss_mmuart/mss_uart.c ****                 /* Disable local loopback */
 558:../src/platform/drivers/mss/mss_mmuart/mss_uart.c ****                 this_uart->hw_reg->MCR &= ~LOOP_MASK;
 559:../src/platform/drivers/mss/mss_mmuart/mss_uart.c ****             break;
 560:../src/platform/drivers/mss/mss_mmuart/mss_uart.c ****                 
 561:../src/platform/drivers/mss/mss_mmuart/mss_uart.c ****             case MSS_UART_LOCAL_LOOPBACK_ON:
 562:../src/platform/drivers/mss/mss_mmuart/mss_uart.c ****                 /* Enable local loopback */
 563:../src/platform/drivers/mss/mss_mmuart/mss_uart.c ****                 this_uart->hw_reg->MCR |= LOOP_MASK;
 564:../src/platform/drivers/mss/mss_mmuart/mss_uart.c ****             break;
 565:../src/platform/drivers/mss/mss_mmuart/mss_uart.c ****             
 566:../src/platform/drivers/mss/mss_mmuart/mss_uart.c ****             case MSS_UART_REMOTE_LOOPBACK_OFF:
 567:../src/platform/drivers/mss/mss_mmuart/mss_uart.c ****             case MSS_UART_AUTO_ECHO_OFF:
 568:../src/platform/drivers/mss/mss_mmuart/mss_uart.c ****                 /* Disable remote loopback & automatic echo */
 569:../src/platform/drivers/mss/mss_mmuart/mss_uart.c ****                 this_uart->hw_reg->MCR &= ~(RLOOP_MASK|ECHO_MASK);
 570:../src/platform/drivers/mss/mss_mmuart/mss_uart.c ****             break;
 571:../src/platform/drivers/mss/mss_mmuart/mss_uart.c ****             
 572:../src/platform/drivers/mss/mss_mmuart/mss_uart.c ****             case MSS_UART_REMOTE_LOOPBACK_ON:
 573:../src/platform/drivers/mss/mss_mmuart/mss_uart.c ****                 /* Enable remote loopback */
 574:../src/platform/drivers/mss/mss_mmuart/mss_uart.c ****                 this_uart->hw_reg->MCR |= (1u << RLOOP);
 575:../src/platform/drivers/mss/mss_mmuart/mss_uart.c ****                 break;
 576:../src/platform/drivers/mss/mss_mmuart/mss_uart.c ****                 
 577:../src/platform/drivers/mss/mss_mmuart/mss_uart.c ****             case MSS_UART_AUTO_ECHO_ON:
 578:../src/platform/drivers/mss/mss_mmuart/mss_uart.c ****                 /* Enable automatic echo */
 579:../src/platform/drivers/mss/mss_mmuart/mss_uart.c ****                 this_uart->hw_reg->MCR |= (1u << ECHO);
 580:../src/platform/drivers/mss/mss_mmuart/mss_uart.c ****             break;
 581:../src/platform/drivers/mss/mss_mmuart/mss_uart.c ****                 
 582:../src/platform/drivers/mss/mss_mmuart/mss_uart.c ****             case MSS_UART_INVALID_LOOPBACK:
 583:../src/platform/drivers/mss/mss_mmuart/mss_uart.c ****                 /* Fall through to default. */
 584:../src/platform/drivers/mss/mss_mmuart/mss_uart.c ****             default:
 585:../src/platform/drivers/mss/mss_mmuart/mss_uart.c ****                 ASSERT(0);
 586:../src/platform/drivers/mss/mss_mmuart/mss_uart.c ****             break;
 587:../src/platform/drivers/mss/mss_mmuart/mss_uart.c ****         }
 588:../src/platform/drivers/mss/mss_mmuart/mss_uart.c ****     }
 589:../src/platform/drivers/mss/mss_mmuart/mss_uart.c **** }
 590:../src/platform/drivers/mss/mss_mmuart/mss_uart.c **** 
 591:../src/platform/drivers/mss/mss_mmuart/mss_uart.c **** /***************************************************************************//**
 592:../src/platform/drivers/mss/mss_mmuart/mss_uart.c ****  * interrupt service routine.
 593:../src/platform/drivers/mss/mss_mmuart/mss_uart.c ****  */
 594:../src/platform/drivers/mss/mss_mmuart/mss_uart.c **** uint8_t mmuart0_plic_77_IRQHandler(void)
 595:../src/platform/drivers/mss/mss_mmuart/mss_uart.c **** {
 596:../src/platform/drivers/mss/mss_mmuart/mss_uart.c ****     if (g_uart_axi_pos & UART0_POSITION_MASK)
 597:../src/platform/drivers/mss/mss_mmuart/mss_uart.c ****     {
 598:../src/platform/drivers/mss/mss_mmuart/mss_uart.c ****         uart_isr(&g_mss_uart0_hi);
 599:../src/platform/drivers/mss/mss_mmuart/mss_uart.c ****     }
 600:../src/platform/drivers/mss/mss_mmuart/mss_uart.c ****     else
 601:../src/platform/drivers/mss/mss_mmuart/mss_uart.c ****     {
 602:../src/platform/drivers/mss/mss_mmuart/mss_uart.c ****         uart_isr(&g_mss_uart0_lo);
 603:../src/platform/drivers/mss/mss_mmuart/mss_uart.c ****     }
 604:../src/platform/drivers/mss/mss_mmuart/mss_uart.c **** 
 605:../src/platform/drivers/mss/mss_mmuart/mss_uart.c ****     return EXT_IRQ_KEEP_ENABLED;
 606:../src/platform/drivers/mss/mss_mmuart/mss_uart.c **** }
 607:../src/platform/drivers/mss/mss_mmuart/mss_uart.c **** 
 608:../src/platform/drivers/mss/mss_mmuart/mss_uart.c **** uint8_t mmuart1_plic_IRQHandler(void)
 609:../src/platform/drivers/mss/mss_mmuart/mss_uart.c **** {
 610:../src/platform/drivers/mss/mss_mmuart/mss_uart.c ****     if (g_uart_axi_pos & UART1_POSITION_MASK)
 611:../src/platform/drivers/mss/mss_mmuart/mss_uart.c ****     {
 612:../src/platform/drivers/mss/mss_mmuart/mss_uart.c ****         uart_isr(&g_mss_uart1_hi);
 613:../src/platform/drivers/mss/mss_mmuart/mss_uart.c ****     }
 614:../src/platform/drivers/mss/mss_mmuart/mss_uart.c ****     else
 615:../src/platform/drivers/mss/mss_mmuart/mss_uart.c ****     {
 616:../src/platform/drivers/mss/mss_mmuart/mss_uart.c ****         uart_isr(&g_mss_uart1_lo);
 617:../src/platform/drivers/mss/mss_mmuart/mss_uart.c ****     }
 618:../src/platform/drivers/mss/mss_mmuart/mss_uart.c **** 
 619:../src/platform/drivers/mss/mss_mmuart/mss_uart.c ****     return EXT_IRQ_KEEP_ENABLED;
 620:../src/platform/drivers/mss/mss_mmuart/mss_uart.c **** }
 621:../src/platform/drivers/mss/mss_mmuart/mss_uart.c **** 
 622:../src/platform/drivers/mss/mss_mmuart/mss_uart.c **** uint8_t mmuart2_plic_IRQHandler(void)
 623:../src/platform/drivers/mss/mss_mmuart/mss_uart.c **** {
 624:../src/platform/drivers/mss/mss_mmuart/mss_uart.c ****     if (g_uart_axi_pos & UART2_POSITION_MASK)
 625:../src/platform/drivers/mss/mss_mmuart/mss_uart.c ****     {
 626:../src/platform/drivers/mss/mss_mmuart/mss_uart.c ****         uart_isr(&g_mss_uart2_hi);
 627:../src/platform/drivers/mss/mss_mmuart/mss_uart.c ****     }
 628:../src/platform/drivers/mss/mss_mmuart/mss_uart.c ****     else
 629:../src/platform/drivers/mss/mss_mmuart/mss_uart.c ****     {
 630:../src/platform/drivers/mss/mss_mmuart/mss_uart.c ****         uart_isr(&g_mss_uart2_lo);
 631:../src/platform/drivers/mss/mss_mmuart/mss_uart.c ****     }
 632:../src/platform/drivers/mss/mss_mmuart/mss_uart.c **** 
 633:../src/platform/drivers/mss/mss_mmuart/mss_uart.c ****     return EXT_IRQ_KEEP_ENABLED;
 634:../src/platform/drivers/mss/mss_mmuart/mss_uart.c **** }
 635:../src/platform/drivers/mss/mss_mmuart/mss_uart.c **** 
 636:../src/platform/drivers/mss/mss_mmuart/mss_uart.c **** uint8_t mmuart3_plic_IRQHandler(void)
 637:../src/platform/drivers/mss/mss_mmuart/mss_uart.c **** {
 638:../src/platform/drivers/mss/mss_mmuart/mss_uart.c ****     if (g_uart_axi_pos & UART3_POSITION_MASK)
 639:../src/platform/drivers/mss/mss_mmuart/mss_uart.c ****     {
 640:../src/platform/drivers/mss/mss_mmuart/mss_uart.c ****         uart_isr(&g_mss_uart3_hi);
 641:../src/platform/drivers/mss/mss_mmuart/mss_uart.c ****     }
 642:../src/platform/drivers/mss/mss_mmuart/mss_uart.c ****     else
 643:../src/platform/drivers/mss/mss_mmuart/mss_uart.c ****     {
 644:../src/platform/drivers/mss/mss_mmuart/mss_uart.c ****         uart_isr(&g_mss_uart3_lo);
 645:../src/platform/drivers/mss/mss_mmuart/mss_uart.c ****     }
 646:../src/platform/drivers/mss/mss_mmuart/mss_uart.c **** 
 647:../src/platform/drivers/mss/mss_mmuart/mss_uart.c ****     return EXT_IRQ_KEEP_ENABLED;
 648:../src/platform/drivers/mss/mss_mmuart/mss_uart.c **** }
 649:../src/platform/drivers/mss/mss_mmuart/mss_uart.c **** 
 650:../src/platform/drivers/mss/mss_mmuart/mss_uart.c **** uint8_t mmuart4_plic_IRQHandler(void)
 651:../src/platform/drivers/mss/mss_mmuart/mss_uart.c **** {
 652:../src/platform/drivers/mss/mss_mmuart/mss_uart.c ****     if (g_uart_axi_pos & UART4_POSITION_MASK)
 653:../src/platform/drivers/mss/mss_mmuart/mss_uart.c ****     {
 654:../src/platform/drivers/mss/mss_mmuart/mss_uart.c ****         uart_isr(&g_mss_uart4_hi);
 655:../src/platform/drivers/mss/mss_mmuart/mss_uart.c ****     }
 656:../src/platform/drivers/mss/mss_mmuart/mss_uart.c ****     else
 657:../src/platform/drivers/mss/mss_mmuart/mss_uart.c ****     {
 658:../src/platform/drivers/mss/mss_mmuart/mss_uart.c ****         uart_isr(&g_mss_uart4_lo);
 659:../src/platform/drivers/mss/mss_mmuart/mss_uart.c ****     }
 660:../src/platform/drivers/mss/mss_mmuart/mss_uart.c **** 
 661:../src/platform/drivers/mss/mss_mmuart/mss_uart.c ****     return EXT_IRQ_KEEP_ENABLED;
 662:../src/platform/drivers/mss/mss_mmuart/mss_uart.c **** }
 663:../src/platform/drivers/mss/mss_mmuart/mss_uart.c **** 
 664:../src/platform/drivers/mss/mss_mmuart/mss_uart.c **** void mmuart0_e51_local_IRQHandler_11(void)
 665:../src/platform/drivers/mss/mss_mmuart/mss_uart.c **** {
 666:../src/platform/drivers/mss/mss_mmuart/mss_uart.c ****     if (g_uart_axi_pos & UART0_POSITION_MASK)
 667:../src/platform/drivers/mss/mss_mmuart/mss_uart.c ****     {
 668:../src/platform/drivers/mss/mss_mmuart/mss_uart.c ****         uart_isr(&g_mss_uart0_hi);
 669:../src/platform/drivers/mss/mss_mmuart/mss_uart.c ****     }
 670:../src/platform/drivers/mss/mss_mmuart/mss_uart.c ****     else
 671:../src/platform/drivers/mss/mss_mmuart/mss_uart.c ****     {
 672:../src/platform/drivers/mss/mss_mmuart/mss_uart.c ****         uart_isr(&g_mss_uart0_lo);
 673:../src/platform/drivers/mss/mss_mmuart/mss_uart.c ****     }
 674:../src/platform/drivers/mss/mss_mmuart/mss_uart.c **** }
 675:../src/platform/drivers/mss/mss_mmuart/mss_uart.c **** 
 676:../src/platform/drivers/mss/mss_mmuart/mss_uart.c **** void mmuart_u54_h1_local_IRQHandler_11(void)
 677:../src/platform/drivers/mss/mss_mmuart/mss_uart.c **** {
 678:../src/platform/drivers/mss/mss_mmuart/mss_uart.c ****     if (g_uart_axi_pos & UART1_POSITION_MASK)
 679:../src/platform/drivers/mss/mss_mmuart/mss_uart.c ****     {
 680:../src/platform/drivers/mss/mss_mmuart/mss_uart.c ****         uart_isr(&g_mss_uart1_hi);
 681:../src/platform/drivers/mss/mss_mmuart/mss_uart.c ****     }
 682:../src/platform/drivers/mss/mss_mmuart/mss_uart.c ****     else
 683:../src/platform/drivers/mss/mss_mmuart/mss_uart.c ****     {
 684:../src/platform/drivers/mss/mss_mmuart/mss_uart.c ****         uart_isr(&g_mss_uart1_lo);
 685:../src/platform/drivers/mss/mss_mmuart/mss_uart.c ****     }
 686:../src/platform/drivers/mss/mss_mmuart/mss_uart.c **** }
 687:../src/platform/drivers/mss/mss_mmuart/mss_uart.c **** 
 688:../src/platform/drivers/mss/mss_mmuart/mss_uart.c **** void mmuart_u54_h2_local_IRQHandler_11(void)
 689:../src/platform/drivers/mss/mss_mmuart/mss_uart.c **** {
 690:../src/platform/drivers/mss/mss_mmuart/mss_uart.c ****     if (g_uart_axi_pos & UART2_POSITION_MASK)
 691:../src/platform/drivers/mss/mss_mmuart/mss_uart.c ****     {
 692:../src/platform/drivers/mss/mss_mmuart/mss_uart.c ****         uart_isr(&g_mss_uart2_hi);
 693:../src/platform/drivers/mss/mss_mmuart/mss_uart.c ****     }
 694:../src/platform/drivers/mss/mss_mmuart/mss_uart.c ****     else
 695:../src/platform/drivers/mss/mss_mmuart/mss_uart.c ****     {
 696:../src/platform/drivers/mss/mss_mmuart/mss_uart.c ****         uart_isr(&g_mss_uart2_lo);
 697:../src/platform/drivers/mss/mss_mmuart/mss_uart.c ****     }
 698:../src/platform/drivers/mss/mss_mmuart/mss_uart.c **** }
 699:../src/platform/drivers/mss/mss_mmuart/mss_uart.c **** 
 700:../src/platform/drivers/mss/mss_mmuart/mss_uart.c **** void mmuart_u54_h3_local_IRQHandler_11(void)
 701:../src/platform/drivers/mss/mss_mmuart/mss_uart.c **** {
 702:../src/platform/drivers/mss/mss_mmuart/mss_uart.c ****     if (g_uart_axi_pos & UART3_POSITION_MASK)
 703:../src/platform/drivers/mss/mss_mmuart/mss_uart.c ****     {
 704:../src/platform/drivers/mss/mss_mmuart/mss_uart.c ****         uart_isr(&g_mss_uart3_hi);
 705:../src/platform/drivers/mss/mss_mmuart/mss_uart.c ****     }
 706:../src/platform/drivers/mss/mss_mmuart/mss_uart.c ****     else
 707:../src/platform/drivers/mss/mss_mmuart/mss_uart.c ****     {
 708:../src/platform/drivers/mss/mss_mmuart/mss_uart.c ****         uart_isr(&g_mss_uart3_lo);
 709:../src/platform/drivers/mss/mss_mmuart/mss_uart.c ****     }
 710:../src/platform/drivers/mss/mss_mmuart/mss_uart.c **** }
 711:../src/platform/drivers/mss/mss_mmuart/mss_uart.c **** 
 712:../src/platform/drivers/mss/mss_mmuart/mss_uart.c **** void mmuart_u54_h4_local_IRQHandler_11(void)
 713:../src/platform/drivers/mss/mss_mmuart/mss_uart.c **** {
 714:../src/platform/drivers/mss/mss_mmuart/mss_uart.c ****     if (g_uart_axi_pos & UART4_POSITION_MASK)
 715:../src/platform/drivers/mss/mss_mmuart/mss_uart.c ****     {
 716:../src/platform/drivers/mss/mss_mmuart/mss_uart.c ****         uart_isr(&g_mss_uart4_hi);
 717:../src/platform/drivers/mss/mss_mmuart/mss_uart.c ****     }
 718:../src/platform/drivers/mss/mss_mmuart/mss_uart.c ****     else
 719:../src/platform/drivers/mss/mss_mmuart/mss_uart.c ****     {
 720:../src/platform/drivers/mss/mss_mmuart/mss_uart.c ****         uart_isr(&g_mss_uart4_lo);
 721:../src/platform/drivers/mss/mss_mmuart/mss_uart.c ****     }
 722:../src/platform/drivers/mss/mss_mmuart/mss_uart.c **** }
 723:../src/platform/drivers/mss/mss_mmuart/mss_uart.c **** 
 724:../src/platform/drivers/mss/mss_mmuart/mss_uart.c **** /***************************************************************************//**
 725:../src/platform/drivers/mss/mss_mmuart/mss_uart.c ****  * See mss_uart.h for details of how to use this function.
 726:../src/platform/drivers/mss/mss_mmuart/mss_uart.c ****  */
 727:../src/platform/drivers/mss/mss_mmuart/mss_uart.c **** void
 728:../src/platform/drivers/mss/mss_mmuart/mss_uart.c **** MSS_UART_set_rxstatus_handler
 729:../src/platform/drivers/mss/mss_mmuart/mss_uart.c **** (
 730:../src/platform/drivers/mss/mss_mmuart/mss_uart.c ****     mss_uart_instance_t * this_uart,
 731:../src/platform/drivers/mss/mss_mmuart/mss_uart.c ****     mss_uart_irq_handler_t handler
 732:../src/platform/drivers/mss/mss_mmuart/mss_uart.c **** )
 733:../src/platform/drivers/mss/mss_mmuart/mss_uart.c **** {
 734:../src/platform/drivers/mss/mss_mmuart/mss_uart.c ****     ASSERT(handler != INVALID_IRQ_HANDLER);
 735:../src/platform/drivers/mss/mss_mmuart/mss_uart.c **** 
 736:../src/platform/drivers/mss/mss_mmuart/mss_uart.c ****     if (handler != INVALID_IRQ_HANDLER)
 737:../src/platform/drivers/mss/mss_mmuart/mss_uart.c ****     {
 738:../src/platform/drivers/mss/mss_mmuart/mss_uart.c ****         this_uart->linests_handler = handler;
 739:../src/platform/drivers/mss/mss_mmuart/mss_uart.c **** 
 740:../src/platform/drivers/mss/mss_mmuart/mss_uart.c ****         /* Enable receiver line status interrupt. */
 741:../src/platform/drivers/mss/mss_mmuart/mss_uart.c ****         this_uart->hw_reg->IER |= ELSI_MASK;
 742:../src/platform/drivers/mss/mss_mmuart/mss_uart.c **** 
 743:../src/platform/drivers/mss/mss_mmuart/mss_uart.c ****         enable_irq(this_uart);
 744:../src/platform/drivers/mss/mss_mmuart/mss_uart.c ****     }
 745:../src/platform/drivers/mss/mss_mmuart/mss_uart.c **** }
 746:../src/platform/drivers/mss/mss_mmuart/mss_uart.c **** 
 747:../src/platform/drivers/mss/mss_mmuart/mss_uart.c **** /***************************************************************************//**
 748:../src/platform/drivers/mss/mss_mmuart/mss_uart.c ****  * See mss_uart.h for details of how to use this function.
 749:../src/platform/drivers/mss/mss_mmuart/mss_uart.c ****  */
 750:../src/platform/drivers/mss/mss_mmuart/mss_uart.c **** void
 751:../src/platform/drivers/mss/mss_mmuart/mss_uart.c **** MSS_UART_set_tx_handler
 752:../src/platform/drivers/mss/mss_mmuart/mss_uart.c **** (
 753:../src/platform/drivers/mss/mss_mmuart/mss_uart.c ****     mss_uart_instance_t * this_uart,
 754:../src/platform/drivers/mss/mss_mmuart/mss_uart.c ****     mss_uart_irq_handler_t handler
 755:../src/platform/drivers/mss/mss_mmuart/mss_uart.c **** )
 756:../src/platform/drivers/mss/mss_mmuart/mss_uart.c **** {
 757:../src/platform/drivers/mss/mss_mmuart/mss_uart.c ****     ASSERT(handler != INVALID_IRQ_HANDLER);
 758:../src/platform/drivers/mss/mss_mmuart/mss_uart.c **** 
 759:../src/platform/drivers/mss/mss_mmuart/mss_uart.c ****     if (handler != INVALID_IRQ_HANDLER)
 760:../src/platform/drivers/mss/mss_mmuart/mss_uart.c ****     {
 761:../src/platform/drivers/mss/mss_mmuart/mss_uart.c ****         this_uart->tx_handler = handler;
 762:../src/platform/drivers/mss/mss_mmuart/mss_uart.c **** 
 763:../src/platform/drivers/mss/mss_mmuart/mss_uart.c ****         /* Make TX buffer info invalid */
 764:../src/platform/drivers/mss/mss_mmuart/mss_uart.c ****         this_uart->tx_buffer = (const uint8_t*)0;
 765:../src/platform/drivers/mss/mss_mmuart/mss_uart.c ****         this_uart->tx_buff_size = 0u;
 766:../src/platform/drivers/mss/mss_mmuart/mss_uart.c **** 
 767:../src/platform/drivers/mss/mss_mmuart/mss_uart.c ****         /* Enable transmitter holding register Empty interrupt. */
 768:../src/platform/drivers/mss/mss_mmuart/mss_uart.c ****         this_uart->hw_reg->IER |= ETBEI_MASK;
 769:../src/platform/drivers/mss/mss_mmuart/mss_uart.c ****         enable_irq(this_uart);
 770:../src/platform/drivers/mss/mss_mmuart/mss_uart.c ****     }
 771:../src/platform/drivers/mss/mss_mmuart/mss_uart.c **** }
 772:../src/platform/drivers/mss/mss_mmuart/mss_uart.c **** 
 773:../src/platform/drivers/mss/mss_mmuart/mss_uart.c **** /***************************************************************************//**
 774:../src/platform/drivers/mss/mss_mmuart/mss_uart.c ****  * See mss_uart.h for details of how to use this function.
 775:../src/platform/drivers/mss/mss_mmuart/mss_uart.c ****  */
 776:../src/platform/drivers/mss/mss_mmuart/mss_uart.c **** void
 777:../src/platform/drivers/mss/mss_mmuart/mss_uart.c **** MSS_UART_set_modemstatus_handler
 778:../src/platform/drivers/mss/mss_mmuart/mss_uart.c **** (
 779:../src/platform/drivers/mss/mss_mmuart/mss_uart.c ****     mss_uart_instance_t * this_uart,
 780:../src/platform/drivers/mss/mss_mmuart/mss_uart.c ****     mss_uart_irq_handler_t handler
 781:../src/platform/drivers/mss/mss_mmuart/mss_uart.c **** )
 782:../src/platform/drivers/mss/mss_mmuart/mss_uart.c **** {
 783:../src/platform/drivers/mss/mss_mmuart/mss_uart.c ****     ASSERT(handler != INVALID_IRQ_HANDLER);
 784:../src/platform/drivers/mss/mss_mmuart/mss_uart.c **** 
 785:../src/platform/drivers/mss/mss_mmuart/mss_uart.c ****     if (handler != INVALID_IRQ_HANDLER)
 786:../src/platform/drivers/mss/mss_mmuart/mss_uart.c ****     {
 787:../src/platform/drivers/mss/mss_mmuart/mss_uart.c ****         this_uart->modemsts_handler = handler;
 788:../src/platform/drivers/mss/mss_mmuart/mss_uart.c **** 
 789:../src/platform/drivers/mss/mss_mmuart/mss_uart.c ****         /* Enable modem status interrupt. */
 790:../src/platform/drivers/mss/mss_mmuart/mss_uart.c ****         this_uart->hw_reg->IER |= EDSSI_MASK;
 791:../src/platform/drivers/mss/mss_mmuart/mss_uart.c ****         enable_irq(this_uart);
 792:../src/platform/drivers/mss/mss_mmuart/mss_uart.c ****     }
 793:../src/platform/drivers/mss/mss_mmuart/mss_uart.c **** }
 794:../src/platform/drivers/mss/mss_mmuart/mss_uart.c **** 
 795:../src/platform/drivers/mss/mss_mmuart/mss_uart.c **** /***************************************************************************//**
 796:../src/platform/drivers/mss/mss_mmuart/mss_uart.c ****  * See mss_uart.h for details of how to use this function.
 797:../src/platform/drivers/mss/mss_mmuart/mss_uart.c ****  */
 798:../src/platform/drivers/mss/mss_mmuart/mss_uart.c **** size_t
 799:../src/platform/drivers/mss/mss_mmuart/mss_uart.c **** MSS_UART_fill_tx_fifo
 800:../src/platform/drivers/mss/mss_mmuart/mss_uart.c **** (
 801:../src/platform/drivers/mss/mss_mmuart/mss_uart.c ****     mss_uart_instance_t * this_uart,
 802:../src/platform/drivers/mss/mss_mmuart/mss_uart.c ****     const uint8_t * tx_buffer,
 803:../src/platform/drivers/mss/mss_mmuart/mss_uart.c ****     size_t tx_size
 804:../src/platform/drivers/mss/mss_mmuart/mss_uart.c **** )
 805:../src/platform/drivers/mss/mss_mmuart/mss_uart.c **** {
 806:../src/platform/drivers/mss/mss_mmuart/mss_uart.c ****     uint8_t status = 0u;
 807:../src/platform/drivers/mss/mss_mmuart/mss_uart.c ****     uint32_t size_sent = 0u;
 808:../src/platform/drivers/mss/mss_mmuart/mss_uart.c **** 
 809:../src/platform/drivers/mss/mss_mmuart/mss_uart.c ****     ASSERT(tx_buffer != ( (uint8_t*)0));
 810:../src/platform/drivers/mss/mss_mmuart/mss_uart.c ****     ASSERT(tx_size > 0);
 811:../src/platform/drivers/mss/mss_mmuart/mss_uart.c **** 
 812:../src/platform/drivers/mss/mss_mmuart/mss_uart.c ****     /* Fill the UART's Tx FIFO until the FIFO is full or the complete input
 813:../src/platform/drivers/mss/mss_mmuart/mss_uart.c ****      * buffer has been written. */
 814:../src/platform/drivers/mss/mss_mmuart/mss_uart.c ****     if ((tx_buffer != ((uint8_t*)0)) && (tx_size > 0u))
 815:../src/platform/drivers/mss/mss_mmuart/mss_uart.c ****     {
 816:../src/platform/drivers/mss/mss_mmuart/mss_uart.c ****         status = this_uart->hw_reg->LSR;
 817:../src/platform/drivers/mss/mss_mmuart/mss_uart.c ****         this_uart->status |= status;
 818:../src/platform/drivers/mss/mss_mmuart/mss_uart.c **** 
 819:../src/platform/drivers/mss/mss_mmuart/mss_uart.c ****         if (status & MSS_UART_THRE)
 820:../src/platform/drivers/mss/mss_mmuart/mss_uart.c ****         {
 821:../src/platform/drivers/mss/mss_mmuart/mss_uart.c ****             uint32_t fill_size = TX_FIFO_SIZE;
 822:../src/platform/drivers/mss/mss_mmuart/mss_uart.c **** 
 823:../src/platform/drivers/mss/mss_mmuart/mss_uart.c ****             if (tx_size < TX_FIFO_SIZE)
 824:../src/platform/drivers/mss/mss_mmuart/mss_uart.c ****             {
 825:../src/platform/drivers/mss/mss_mmuart/mss_uart.c ****                 fill_size = tx_size;
 826:../src/platform/drivers/mss/mss_mmuart/mss_uart.c ****             }
 827:../src/platform/drivers/mss/mss_mmuart/mss_uart.c **** 
 828:../src/platform/drivers/mss/mss_mmuart/mss_uart.c ****             /* Fill up FIFO */
 829:../src/platform/drivers/mss/mss_mmuart/mss_uart.c ****             for (size_sent = 0u; size_sent < fill_size; size_sent++)
 830:../src/platform/drivers/mss/mss_mmuart/mss_uart.c ****             {
 831:../src/platform/drivers/mss/mss_mmuart/mss_uart.c ****                 /* Send next character in the buffer. */
 832:../src/platform/drivers/mss/mss_mmuart/mss_uart.c ****                 this_uart->hw_reg->THR = tx_buffer[size_sent];
 833:../src/platform/drivers/mss/mss_mmuart/mss_uart.c ****             }
 834:../src/platform/drivers/mss/mss_mmuart/mss_uart.c ****         }
 835:../src/platform/drivers/mss/mss_mmuart/mss_uart.c ****     }
 836:../src/platform/drivers/mss/mss_mmuart/mss_uart.c **** 
 837:../src/platform/drivers/mss/mss_mmuart/mss_uart.c ****     return size_sent;
 838:../src/platform/drivers/mss/mss_mmuart/mss_uart.c **** }
 839:../src/platform/drivers/mss/mss_mmuart/mss_uart.c **** 
 840:../src/platform/drivers/mss/mss_mmuart/mss_uart.c **** /***************************************************************************//**
 841:../src/platform/drivers/mss/mss_mmuart/mss_uart.c ****  * See mss_uart.h for details of how to use this function.
 842:../src/platform/drivers/mss/mss_mmuart/mss_uart.c ****  */
 843:../src/platform/drivers/mss/mss_mmuart/mss_uart.c **** uint8_t
 844:../src/platform/drivers/mss/mss_mmuart/mss_uart.c **** MSS_UART_get_rx_status
 845:../src/platform/drivers/mss/mss_mmuart/mss_uart.c **** (
 846:../src/platform/drivers/mss/mss_mmuart/mss_uart.c ****     mss_uart_instance_t * this_uart
 847:../src/platform/drivers/mss/mss_mmuart/mss_uart.c **** )
 848:../src/platform/drivers/mss/mss_mmuart/mss_uart.c **** {
 849:../src/platform/drivers/mss/mss_mmuart/mss_uart.c ****     uint8_t status = MSS_UART_INVALID_PARAM;
 850:../src/platform/drivers/mss/mss_mmuart/mss_uart.c **** 
 851:../src/platform/drivers/mss/mss_mmuart/mss_uart.c ****     /*
 852:../src/platform/drivers/mss/mss_mmuart/mss_uart.c ****      * Extract UART receive error status.
 853:../src/platform/drivers/mss/mss_mmuart/mss_uart.c ****      * Bit 1 - Overflow error status
 854:../src/platform/drivers/mss/mss_mmuart/mss_uart.c ****      * Bit 2 - Parity error status
 855:../src/platform/drivers/mss/mss_mmuart/mss_uart.c ****      * Bit 3 - Frame error status
 856:../src/platform/drivers/mss/mss_mmuart/mss_uart.c ****      * Bit 4 - Break interrupt indicator
 857:../src/platform/drivers/mss/mss_mmuart/mss_uart.c ****      * Bit 7 - FIFO data error status
 858:../src/platform/drivers/mss/mss_mmuart/mss_uart.c ****      */
 859:../src/platform/drivers/mss/mss_mmuart/mss_uart.c ****     this_uart->status |= (this_uart->hw_reg->LSR);
 860:../src/platform/drivers/mss/mss_mmuart/mss_uart.c ****     status = (this_uart->status & STATUS_ERROR_MASK);
 861:../src/platform/drivers/mss/mss_mmuart/mss_uart.c ****     /* Clear the sticky status after reading */
 862:../src/platform/drivers/mss/mss_mmuart/mss_uart.c ****     this_uart->status = 0u;
 863:../src/platform/drivers/mss/mss_mmuart/mss_uart.c **** 
 864:../src/platform/drivers/mss/mss_mmuart/mss_uart.c ****     return status;
 865:../src/platform/drivers/mss/mss_mmuart/mss_uart.c **** }
 866:../src/platform/drivers/mss/mss_mmuart/mss_uart.c **** 
 867:../src/platform/drivers/mss/mss_mmuart/mss_uart.c **** /***************************************************************************//**
 868:../src/platform/drivers/mss/mss_mmuart/mss_uart.c ****  * See mss_uart.h for details of how to use this function.
 869:../src/platform/drivers/mss/mss_mmuart/mss_uart.c ****  */
 870:../src/platform/drivers/mss/mss_mmuart/mss_uart.c **** uint8_t
 871:../src/platform/drivers/mss/mss_mmuart/mss_uart.c **** MSS_UART_get_modem_status
 872:../src/platform/drivers/mss/mss_mmuart/mss_uart.c **** (
 873:../src/platform/drivers/mss/mss_mmuart/mss_uart.c ****     const mss_uart_instance_t * this_uart
 874:../src/platform/drivers/mss/mss_mmuart/mss_uart.c **** )
 875:../src/platform/drivers/mss/mss_mmuart/mss_uart.c **** {
 876:../src/platform/drivers/mss/mss_mmuart/mss_uart.c ****     uint8_t status = MSS_UART_INVALID_PARAM;
 877:../src/platform/drivers/mss/mss_mmuart/mss_uart.c **** 
 878:../src/platform/drivers/mss/mss_mmuart/mss_uart.c ****     /*
 879:../src/platform/drivers/mss/mss_mmuart/mss_uart.c ****      * Extract UART modem status and place in lower bits of "status".
 880:../src/platform/drivers/mss/mss_mmuart/mss_uart.c ****      * Bit 0 - Delta Clear to Send Indicator
 881:../src/platform/drivers/mss/mss_mmuart/mss_uart.c ****      * Bit 1 - Delta Clear to Receive Indicator
 882:../src/platform/drivers/mss/mss_mmuart/mss_uart.c ****      * Bit 2 - Trailing edge of Ring Indicator detector
 883:../src/platform/drivers/mss/mss_mmuart/mss_uart.c ****      * Bit 3 - Delta Data Carrier Detect indicator
 884:../src/platform/drivers/mss/mss_mmuart/mss_uart.c ****      * Bit 4 - Clear To Send
 885:../src/platform/drivers/mss/mss_mmuart/mss_uart.c ****      * Bit 5 - Data Set Ready
 886:../src/platform/drivers/mss/mss_mmuart/mss_uart.c ****      * Bit 6 - Ring Indicator
 887:../src/platform/drivers/mss/mss_mmuart/mss_uart.c ****      * Bit 7 - Data Carrier Detect
 888:../src/platform/drivers/mss/mss_mmuart/mss_uart.c ****      */
 889:../src/platform/drivers/mss/mss_mmuart/mss_uart.c ****     status = this_uart->hw_reg->MSR;
 890:../src/platform/drivers/mss/mss_mmuart/mss_uart.c **** 
 891:../src/platform/drivers/mss/mss_mmuart/mss_uart.c ****     return status;
 892:../src/platform/drivers/mss/mss_mmuart/mss_uart.c **** }
 893:../src/platform/drivers/mss/mss_mmuart/mss_uart.c **** 
 894:../src/platform/drivers/mss/mss_mmuart/mss_uart.c **** /***************************************************************************//**
 895:../src/platform/drivers/mss/mss_mmuart/mss_uart.c ****  * MSS_UART_get_tx_status.
 896:../src/platform/drivers/mss/mss_mmuart/mss_uart.c ****  * See mss_uart.h for details of how to use this function.
 897:../src/platform/drivers/mss/mss_mmuart/mss_uart.c ****  */
 898:../src/platform/drivers/mss/mss_mmuart/mss_uart.c **** uint8_t
 899:../src/platform/drivers/mss/mss_mmuart/mss_uart.c **** MSS_UART_get_tx_status
 900:../src/platform/drivers/mss/mss_mmuart/mss_uart.c **** (
 901:../src/platform/drivers/mss/mss_mmuart/mss_uart.c ****     mss_uart_instance_t * this_uart
 902:../src/platform/drivers/mss/mss_mmuart/mss_uart.c **** )
 903:../src/platform/drivers/mss/mss_mmuart/mss_uart.c **** {
 904:../src/platform/drivers/mss/mss_mmuart/mss_uart.c ****     uint8_t status = MSS_UART_TX_BUSY;
 905:../src/platform/drivers/mss/mss_mmuart/mss_uart.c **** 
 906:../src/platform/drivers/mss/mss_mmuart/mss_uart.c ****     /* Read the Line Status Register and update the sticky record. */
 907:../src/platform/drivers/mss/mss_mmuart/mss_uart.c ****     status = this_uart->hw_reg->LSR;
 908:../src/platform/drivers/mss/mss_mmuart/mss_uart.c ****     this_uart->status |= status;
 909:../src/platform/drivers/mss/mss_mmuart/mss_uart.c ****     
 910:../src/platform/drivers/mss/mss_mmuart/mss_uart.c ****     /*
 911:../src/platform/drivers/mss/mss_mmuart/mss_uart.c ****      * Extract the transmit status bits from the UART's Line Status Register.
 912:../src/platform/drivers/mss/mss_mmuart/mss_uart.c ****      * Bit 5 - Transmitter Holding Register/FIFO Empty (THRE) status. 
 913:../src/platform/drivers/mss/mss_mmuart/mss_uart.c ****                (If = 1, TX FIFO is empty)
 914:../src/platform/drivers/mss/mss_mmuart/mss_uart.c ****      * Bit 6 - Transmitter Empty (TEMT) status. 
 915:../src/platform/drivers/mss/mss_mmuart/mss_uart.c ****                (If = 1, both TX FIFO and shift register are empty)
 916:../src/platform/drivers/mss/mss_mmuart/mss_uart.c ****      */
 917:../src/platform/drivers/mss/mss_mmuart/mss_uart.c ****     status &= (MSS_UART_THRE | MSS_UART_TEMT);
 918:../src/platform/drivers/mss/mss_mmuart/mss_uart.c **** 
 919:../src/platform/drivers/mss/mss_mmuart/mss_uart.c ****     return status;
 920:../src/platform/drivers/mss/mss_mmuart/mss_uart.c **** }
 921:../src/platform/drivers/mss/mss_mmuart/mss_uart.c **** 
 922:../src/platform/drivers/mss/mss_mmuart/mss_uart.c **** /***************************************************************************//**
 923:../src/platform/drivers/mss/mss_mmuart/mss_uart.c ****  * See mss_uart.h for details of how to use this function.
 924:../src/platform/drivers/mss/mss_mmuart/mss_uart.c ****  */
 925:../src/platform/drivers/mss/mss_mmuart/mss_uart.c **** void
 926:../src/platform/drivers/mss/mss_mmuart/mss_uart.c **** MSS_UART_set_break
 927:../src/platform/drivers/mss/mss_mmuart/mss_uart.c **** (
 928:../src/platform/drivers/mss/mss_mmuart/mss_uart.c ****     mss_uart_instance_t * this_uart
 929:../src/platform/drivers/mss/mss_mmuart/mss_uart.c **** )
 930:../src/platform/drivers/mss/mss_mmuart/mss_uart.c **** {
 931:../src/platform/drivers/mss/mss_mmuart/mss_uart.c ****     /* set break character on Tx line */
 932:../src/platform/drivers/mss/mss_mmuart/mss_uart.c ****     this_uart->hw_reg->LCR |= SB_MASK;
 933:../src/platform/drivers/mss/mss_mmuart/mss_uart.c **** }
 934:../src/platform/drivers/mss/mss_mmuart/mss_uart.c **** 
 935:../src/platform/drivers/mss/mss_mmuart/mss_uart.c **** /***************************************************************************//**
 936:../src/platform/drivers/mss/mss_mmuart/mss_uart.c ****  * See mss_uart.h for details of how to use this function.
 937:../src/platform/drivers/mss/mss_mmuart/mss_uart.c ****  */
 938:../src/platform/drivers/mss/mss_mmuart/mss_uart.c **** void
 939:../src/platform/drivers/mss/mss_mmuart/mss_uart.c **** MSS_UART_clear_break
 940:../src/platform/drivers/mss/mss_mmuart/mss_uart.c **** (
 941:../src/platform/drivers/mss/mss_mmuart/mss_uart.c ****     mss_uart_instance_t * this_uart
 942:../src/platform/drivers/mss/mss_mmuart/mss_uart.c **** )
 943:../src/platform/drivers/mss/mss_mmuart/mss_uart.c **** {
 944:../src/platform/drivers/mss/mss_mmuart/mss_uart.c ****     /* remove break character from Tx line */
 945:../src/platform/drivers/mss/mss_mmuart/mss_uart.c ****     this_uart->hw_reg->LCR &= ~SB_MASK;
 946:../src/platform/drivers/mss/mss_mmuart/mss_uart.c **** }
 947:../src/platform/drivers/mss/mss_mmuart/mss_uart.c **** 
 948:../src/platform/drivers/mss/mss_mmuart/mss_uart.c **** /***************************************************************************//**
 949:../src/platform/drivers/mss/mss_mmuart/mss_uart.c ****  * See mss_uart.h for details of how to use this function.
 950:../src/platform/drivers/mss/mss_mmuart/mss_uart.c ****  */
 951:../src/platform/drivers/mss/mss_mmuart/mss_uart.c **** void
 952:../src/platform/drivers/mss/mss_mmuart/mss_uart.c **** MSS_UART_set_pidpei_handler
 953:../src/platform/drivers/mss/mss_mmuart/mss_uart.c **** (
 954:../src/platform/drivers/mss/mss_mmuart/mss_uart.c ****     mss_uart_instance_t * this_uart,
 955:../src/platform/drivers/mss/mss_mmuart/mss_uart.c ****     mss_uart_irq_handler_t handler
 956:../src/platform/drivers/mss/mss_mmuart/mss_uart.c **** )
 957:../src/platform/drivers/mss/mss_mmuart/mss_uart.c **** {
 958:../src/platform/drivers/mss/mss_mmuart/mss_uart.c ****     ASSERT(handler != INVALID_IRQ_HANDLER);
 959:../src/platform/drivers/mss/mss_mmuart/mss_uart.c **** 
 960:../src/platform/drivers/mss/mss_mmuart/mss_uart.c ****     if (handler != INVALID_IRQ_HANDLER)
 961:../src/platform/drivers/mss/mss_mmuart/mss_uart.c ****     {
 962:../src/platform/drivers/mss/mss_mmuart/mss_uart.c ****         this_uart->pid_pei_handler = handler;
 963:../src/platform/drivers/mss/mss_mmuart/mss_uart.c **** 
 964:../src/platform/drivers/mss/mss_mmuart/mss_uart.c ****         /* Enable PID parity error interrupt. */
 965:../src/platform/drivers/mss/mss_mmuart/mss_uart.c ****         this_uart->hw_reg->IEM |= EPID_PEI_MASK;
 966:../src/platform/drivers/mss/mss_mmuart/mss_uart.c ****         enable_irq(this_uart);
 967:../src/platform/drivers/mss/mss_mmuart/mss_uart.c ****     }
 968:../src/platform/drivers/mss/mss_mmuart/mss_uart.c **** }
 969:../src/platform/drivers/mss/mss_mmuart/mss_uart.c **** 
 970:../src/platform/drivers/mss/mss_mmuart/mss_uart.c **** /***************************************************************************//**
 971:../src/platform/drivers/mss/mss_mmuart/mss_uart.c ****  * See mss_uart.h for details of how to use this function.
 972:../src/platform/drivers/mss/mss_mmuart/mss_uart.c ****  */
 973:../src/platform/drivers/mss/mss_mmuart/mss_uart.c **** void
 974:../src/platform/drivers/mss/mss_mmuart/mss_uart.c **** MSS_UART_set_linbreak_handler
 975:../src/platform/drivers/mss/mss_mmuart/mss_uart.c **** (
 976:../src/platform/drivers/mss/mss_mmuart/mss_uart.c ****     mss_uart_instance_t * this_uart,
 977:../src/platform/drivers/mss/mss_mmuart/mss_uart.c ****     mss_uart_irq_handler_t handler
 978:../src/platform/drivers/mss/mss_mmuart/mss_uart.c **** )
 979:../src/platform/drivers/mss/mss_mmuart/mss_uart.c **** {
 980:../src/platform/drivers/mss/mss_mmuart/mss_uart.c ****     ASSERT(handler != INVALID_IRQ_HANDLER);
 981:../src/platform/drivers/mss/mss_mmuart/mss_uart.c **** 
 982:../src/platform/drivers/mss/mss_mmuart/mss_uart.c ****     if (handler != INVALID_IRQ_HANDLER)
 983:../src/platform/drivers/mss/mss_mmuart/mss_uart.c ****     {
 984:../src/platform/drivers/mss/mss_mmuart/mss_uart.c ****         this_uart->break_handler = handler;
 985:../src/platform/drivers/mss/mss_mmuart/mss_uart.c **** 
 986:../src/platform/drivers/mss/mss_mmuart/mss_uart.c ****         /* Enable LIN break detection interrupt. */
 987:../src/platform/drivers/mss/mss_mmuart/mss_uart.c ****         this_uart->hw_reg->IEM |= ELINBI_MASK;
 988:../src/platform/drivers/mss/mss_mmuart/mss_uart.c ****         enable_irq(this_uart);
 989:../src/platform/drivers/mss/mss_mmuart/mss_uart.c ****     }
 990:../src/platform/drivers/mss/mss_mmuart/mss_uart.c **** }
 991:../src/platform/drivers/mss/mss_mmuart/mss_uart.c **** 
 992:../src/platform/drivers/mss/mss_mmuart/mss_uart.c **** /***************************************************************************//**
 993:../src/platform/drivers/mss/mss_mmuart/mss_uart.c ****  * See mss_uart.h for details of how to use this function.
 994:../src/platform/drivers/mss/mss_mmuart/mss_uart.c ****  */
 995:../src/platform/drivers/mss/mss_mmuart/mss_uart.c **** void
 996:../src/platform/drivers/mss/mss_mmuart/mss_uart.c **** MSS_UART_set_linsync_handler
 997:../src/platform/drivers/mss/mss_mmuart/mss_uart.c **** (
 998:../src/platform/drivers/mss/mss_mmuart/mss_uart.c ****     mss_uart_instance_t * this_uart,
 999:../src/platform/drivers/mss/mss_mmuart/mss_uart.c ****     mss_uart_irq_handler_t handler
1000:../src/platform/drivers/mss/mss_mmuart/mss_uart.c **** )
1001:../src/platform/drivers/mss/mss_mmuart/mss_uart.c **** {
1002:../src/platform/drivers/mss/mss_mmuart/mss_uart.c ****     ASSERT(handler != INVALID_IRQ_HANDLER);
1003:../src/platform/drivers/mss/mss_mmuart/mss_uart.c **** 
1004:../src/platform/drivers/mss/mss_mmuart/mss_uart.c ****     if (handler != INVALID_IRQ_HANDLER)
1005:../src/platform/drivers/mss/mss_mmuart/mss_uart.c ****     {
1006:../src/platform/drivers/mss/mss_mmuart/mss_uart.c ****         this_uart->sync_handler = handler;
1007:../src/platform/drivers/mss/mss_mmuart/mss_uart.c **** 
1008:../src/platform/drivers/mss/mss_mmuart/mss_uart.c ****         /* Enable LIN sync detection interrupt. */
1009:../src/platform/drivers/mss/mss_mmuart/mss_uart.c ****         this_uart->hw_reg->IEM |= ELINSI_MASK;
1010:../src/platform/drivers/mss/mss_mmuart/mss_uart.c ****         enable_irq(this_uart);
1011:../src/platform/drivers/mss/mss_mmuart/mss_uart.c ****     }
1012:../src/platform/drivers/mss/mss_mmuart/mss_uart.c **** }
1013:../src/platform/drivers/mss/mss_mmuart/mss_uart.c **** 
1014:../src/platform/drivers/mss/mss_mmuart/mss_uart.c **** /***************************************************************************//**
1015:../src/platform/drivers/mss/mss_mmuart/mss_uart.c ****  * See mss_uart.h for details of how to use this function.
1016:../src/platform/drivers/mss/mss_mmuart/mss_uart.c ****  */
1017:../src/platform/drivers/mss/mss_mmuart/mss_uart.c **** void
1018:../src/platform/drivers/mss/mss_mmuart/mss_uart.c **** MSS_UART_set_nack_handler
1019:../src/platform/drivers/mss/mss_mmuart/mss_uart.c **** (
1020:../src/platform/drivers/mss/mss_mmuart/mss_uart.c ****     mss_uart_instance_t * this_uart,
1021:../src/platform/drivers/mss/mss_mmuart/mss_uart.c ****     mss_uart_irq_handler_t handler
1022:../src/platform/drivers/mss/mss_mmuart/mss_uart.c **** )
1023:../src/platform/drivers/mss/mss_mmuart/mss_uart.c **** {
1024:../src/platform/drivers/mss/mss_mmuart/mss_uart.c ****     ASSERT(handler != INVALID_IRQ_HANDLER);
1025:../src/platform/drivers/mss/mss_mmuart/mss_uart.c **** 
1026:../src/platform/drivers/mss/mss_mmuart/mss_uart.c ****     if (handler != INVALID_IRQ_HANDLER)
1027:../src/platform/drivers/mss/mss_mmuart/mss_uart.c ****     {
1028:../src/platform/drivers/mss/mss_mmuart/mss_uart.c ****         this_uart->nack_handler = handler;
1029:../src/platform/drivers/mss/mss_mmuart/mss_uart.c **** 
1030:../src/platform/drivers/mss/mss_mmuart/mss_uart.c ****         /* Enable LIN sync detection interrupt. */
1031:../src/platform/drivers/mss/mss_mmuart/mss_uart.c ****         this_uart->hw_reg->IEM |= ENACKI_MASK;
1032:../src/platform/drivers/mss/mss_mmuart/mss_uart.c ****         enable_irq(this_uart);
1033:../src/platform/drivers/mss/mss_mmuart/mss_uart.c ****     }
1034:../src/platform/drivers/mss/mss_mmuart/mss_uart.c **** }
1035:../src/platform/drivers/mss/mss_mmuart/mss_uart.c **** 
1036:../src/platform/drivers/mss/mss_mmuart/mss_uart.c **** /***************************************************************************//**
1037:../src/platform/drivers/mss/mss_mmuart/mss_uart.c ****  * See mss_uart.h for details of how to use this function.
1038:../src/platform/drivers/mss/mss_mmuart/mss_uart.c ****  */
1039:../src/platform/drivers/mss/mss_mmuart/mss_uart.c **** void
1040:../src/platform/drivers/mss/mss_mmuart/mss_uart.c **** MSS_UART_set_rx_timeout_handler
1041:../src/platform/drivers/mss/mss_mmuart/mss_uart.c **** (
1042:../src/platform/drivers/mss/mss_mmuart/mss_uart.c ****     mss_uart_instance_t * this_uart,
1043:../src/platform/drivers/mss/mss_mmuart/mss_uart.c ****     mss_uart_irq_handler_t handler
1044:../src/platform/drivers/mss/mss_mmuart/mss_uart.c **** )
1045:../src/platform/drivers/mss/mss_mmuart/mss_uart.c **** {
1046:../src/platform/drivers/mss/mss_mmuart/mss_uart.c ****     ASSERT(handler != INVALID_IRQ_HANDLER);
1047:../src/platform/drivers/mss/mss_mmuart/mss_uart.c **** 
1048:../src/platform/drivers/mss/mss_mmuart/mss_uart.c ****     if (handler != INVALID_IRQ_HANDLER)
1049:../src/platform/drivers/mss/mss_mmuart/mss_uart.c ****     {
1050:../src/platform/drivers/mss/mss_mmuart/mss_uart.c ****         this_uart->rto_handler = handler;
1051:../src/platform/drivers/mss/mss_mmuart/mss_uart.c **** 
1052:../src/platform/drivers/mss/mss_mmuart/mss_uart.c ****         /* Enable receiver timeout interrupt. */
1053:../src/platform/drivers/mss/mss_mmuart/mss_uart.c ****         this_uart->hw_reg->IEM |= ERTOI_MASK;
1054:../src/platform/drivers/mss/mss_mmuart/mss_uart.c ****         enable_irq(this_uart);
1055:../src/platform/drivers/mss/mss_mmuart/mss_uart.c ****     }
1056:../src/platform/drivers/mss/mss_mmuart/mss_uart.c **** }
1057:../src/platform/drivers/mss/mss_mmuart/mss_uart.c **** 
1058:../src/platform/drivers/mss/mss_mmuart/mss_uart.c **** /***************************************************************************//**
1059:../src/platform/drivers/mss/mss_mmuart/mss_uart.c ****  * See mss_uart.h for details of how to use this function.
1060:../src/platform/drivers/mss/mss_mmuart/mss_uart.c ****  */
1061:../src/platform/drivers/mss/mss_mmuart/mss_uart.c **** void 
1062:../src/platform/drivers/mss/mss_mmuart/mss_uart.c **** MSS_UART_enable_half_duplex
1063:../src/platform/drivers/mss/mss_mmuart/mss_uart.c **** (
1064:../src/platform/drivers/mss/mss_mmuart/mss_uart.c ****     mss_uart_instance_t * this_uart
1065:../src/platform/drivers/mss/mss_mmuart/mss_uart.c **** )
1066:../src/platform/drivers/mss/mss_mmuart/mss_uart.c **** {
1067:../src/platform/drivers/mss/mss_mmuart/mss_uart.c ****     /* enable single wire half-duplex mode */
1068:../src/platform/drivers/mss/mss_mmuart/mss_uart.c ****     this_uart->hw_reg->MM2 |= ESWM_MASK;
1069:../src/platform/drivers/mss/mss_mmuart/mss_uart.c **** }
1070:../src/platform/drivers/mss/mss_mmuart/mss_uart.c **** 
1071:../src/platform/drivers/mss/mss_mmuart/mss_uart.c **** /***************************************************************************//**
1072:../src/platform/drivers/mss/mss_mmuart/mss_uart.c ****  * See mss_uart.h for details of how to use this function.
1073:../src/platform/drivers/mss/mss_mmuart/mss_uart.c ****  */
1074:../src/platform/drivers/mss/mss_mmuart/mss_uart.c **** void 
1075:../src/platform/drivers/mss/mss_mmuart/mss_uart.c **** MSS_UART_disable_half_duplex
1076:../src/platform/drivers/mss/mss_mmuart/mss_uart.c **** (
1077:../src/platform/drivers/mss/mss_mmuart/mss_uart.c ****     mss_uart_instance_t * this_uart
1078:../src/platform/drivers/mss/mss_mmuart/mss_uart.c **** )
1079:../src/platform/drivers/mss/mss_mmuart/mss_uart.c **** {
1080:../src/platform/drivers/mss/mss_mmuart/mss_uart.c ****     /* enable single wire half-duplex mode */
1081:../src/platform/drivers/mss/mss_mmuart/mss_uart.c ****     this_uart->hw_reg->MM2 &= ~ESWM_MASK;
1082:../src/platform/drivers/mss/mss_mmuart/mss_uart.c **** }
1083:../src/platform/drivers/mss/mss_mmuart/mss_uart.c **** 
1084:../src/platform/drivers/mss/mss_mmuart/mss_uart.c **** /***************************************************************************//**
1085:../src/platform/drivers/mss/mss_mmuart/mss_uart.c ****  * See mss_uart.h for details of how to use this function.
1086:../src/platform/drivers/mss/mss_mmuart/mss_uart.c ****  */
1087:../src/platform/drivers/mss/mss_mmuart/mss_uart.c **** void
1088:../src/platform/drivers/mss/mss_mmuart/mss_uart.c **** MSS_UART_set_rx_endian
1089:../src/platform/drivers/mss/mss_mmuart/mss_uart.c **** (
1090:../src/platform/drivers/mss/mss_mmuart/mss_uart.c ****     mss_uart_instance_t * this_uart,
1091:../src/platform/drivers/mss/mss_mmuart/mss_uart.c ****     mss_uart_endian_t endian    
1092:../src/platform/drivers/mss/mss_mmuart/mss_uart.c **** )
1093:../src/platform/drivers/mss/mss_mmuart/mss_uart.c **** {
1094:../src/platform/drivers/mss/mss_mmuart/mss_uart.c ****     ASSERT(MSS_UART_INVALID_ENDIAN > endian);
1095:../src/platform/drivers/mss/mss_mmuart/mss_uart.c **** 
1096:../src/platform/drivers/mss/mss_mmuart/mss_uart.c ****     if (MSS_UART_INVALID_ENDIAN > endian)
1097:../src/platform/drivers/mss/mss_mmuart/mss_uart.c ****     {
1098:../src/platform/drivers/mss/mss_mmuart/mss_uart.c ****         /* Configure MSB first / LSB first for receiver */
1099:../src/platform/drivers/mss/mss_mmuart/mss_uart.c ****         ((MSS_UART_LITTLEEND == endian) ? (this_uart->hw_reg->MM1 &= ~E_MSB_RX_MASK) :
1100:../src/platform/drivers/mss/mss_mmuart/mss_uart.c ****                                      (this_uart->hw_reg->MM1 |= E_MSB_RX_MASK));
1101:../src/platform/drivers/mss/mss_mmuart/mss_uart.c ****     }
1102:../src/platform/drivers/mss/mss_mmuart/mss_uart.c **** }
1103:../src/platform/drivers/mss/mss_mmuart/mss_uart.c **** 
1104:../src/platform/drivers/mss/mss_mmuart/mss_uart.c **** /***************************************************************************//**
1105:../src/platform/drivers/mss/mss_mmuart/mss_uart.c ****  * See mss_uart.h for details of how to use this function.
1106:../src/platform/drivers/mss/mss_mmuart/mss_uart.c ****  */
1107:../src/platform/drivers/mss/mss_mmuart/mss_uart.c **** void
1108:../src/platform/drivers/mss/mss_mmuart/mss_uart.c **** MSS_UART_set_tx_endian
1109:../src/platform/drivers/mss/mss_mmuart/mss_uart.c **** (
1110:../src/platform/drivers/mss/mss_mmuart/mss_uart.c ****     mss_uart_instance_t * this_uart,
1111:../src/platform/drivers/mss/mss_mmuart/mss_uart.c ****     mss_uart_endian_t endian    
1112:../src/platform/drivers/mss/mss_mmuart/mss_uart.c **** )
1113:../src/platform/drivers/mss/mss_mmuart/mss_uart.c **** {
1114:../src/platform/drivers/mss/mss_mmuart/mss_uart.c ****     ASSERT(MSS_UART_INVALID_ENDIAN > endian);
1115:../src/platform/drivers/mss/mss_mmuart/mss_uart.c **** 
1116:../src/platform/drivers/mss/mss_mmuart/mss_uart.c ****     if (MSS_UART_INVALID_ENDIAN > endian)
1117:../src/platform/drivers/mss/mss_mmuart/mss_uart.c ****     {
1118:../src/platform/drivers/mss/mss_mmuart/mss_uart.c ****         /* Configure MSB first / LSB first for transmitter */
1119:../src/platform/drivers/mss/mss_mmuart/mss_uart.c ****         ((MSS_UART_LITTLEEND == endian) ? (this_uart->hw_reg->MM1 &= ~E_MSB_TX_MASK) :
1120:../src/platform/drivers/mss/mss_mmuart/mss_uart.c ****                                     (this_uart->hw_reg->MM1 |= E_MSB_TX_MASK));
1121:../src/platform/drivers/mss/mss_mmuart/mss_uart.c ****     }
1122:../src/platform/drivers/mss/mss_mmuart/mss_uart.c **** }
1123:../src/platform/drivers/mss/mss_mmuart/mss_uart.c **** 
1124:../src/platform/drivers/mss/mss_mmuart/mss_uart.c **** /***************************************************************************//**
1125:../src/platform/drivers/mss/mss_mmuart/mss_uart.c ****  * See mss_uart.h for details of how to use this function.
1126:../src/platform/drivers/mss/mss_mmuart/mss_uart.c ****  */
1127:../src/platform/drivers/mss/mss_mmuart/mss_uart.c **** void
1128:../src/platform/drivers/mss/mss_mmuart/mss_uart.c **** MSS_UART_set_filter_length
1129:../src/platform/drivers/mss/mss_mmuart/mss_uart.c **** (
1130:../src/platform/drivers/mss/mss_mmuart/mss_uart.c ****     mss_uart_instance_t * this_uart,
1131:../src/platform/drivers/mss/mss_mmuart/mss_uart.c ****     mss_uart_filter_length_t length
1132:../src/platform/drivers/mss/mss_mmuart/mss_uart.c **** )
1133:../src/platform/drivers/mss/mss_mmuart/mss_uart.c **** {
1134:../src/platform/drivers/mss/mss_mmuart/mss_uart.c ****     ASSERT(MSS_UART_INVALID_FILTER_LENGTH > length);
1135:../src/platform/drivers/mss/mss_mmuart/mss_uart.c ****     
1136:../src/platform/drivers/mss/mss_mmuart/mss_uart.c ****     if (MSS_UART_INVALID_FILTER_LENGTH > length)
1137:../src/platform/drivers/mss/mss_mmuart/mss_uart.c ****     {
1138:../src/platform/drivers/mss/mss_mmuart/mss_uart.c ****         /* Configure glitch filter length */
1139:../src/platform/drivers/mss/mss_mmuart/mss_uart.c ****         this_uart->hw_reg->GFR = (uint8_t)length;
1140:../src/platform/drivers/mss/mss_mmuart/mss_uart.c ****     }
1141:../src/platform/drivers/mss/mss_mmuart/mss_uart.c **** }
1142:../src/platform/drivers/mss/mss_mmuart/mss_uart.c **** 
1143:../src/platform/drivers/mss/mss_mmuart/mss_uart.c **** /***************************************************************************//**
1144:../src/platform/drivers/mss/mss_mmuart/mss_uart.c ****  * See mss_uart.h for details of how to use this function.
1145:../src/platform/drivers/mss/mss_mmuart/mss_uart.c ****  */
1146:../src/platform/drivers/mss/mss_mmuart/mss_uart.c **** void
1147:../src/platform/drivers/mss/mss_mmuart/mss_uart.c **** MSS_UART_enable_afm
1148:../src/platform/drivers/mss/mss_mmuart/mss_uart.c **** (
1149:../src/platform/drivers/mss/mss_mmuart/mss_uart.c ****      mss_uart_instance_t * this_uart
1150:../src/platform/drivers/mss/mss_mmuart/mss_uart.c **** )
1151:../src/platform/drivers/mss/mss_mmuart/mss_uart.c **** {
1152:../src/platform/drivers/mss/mss_mmuart/mss_uart.c ****     /* Disable RX FIFO till address flag with correct address is received */
1153:../src/platform/drivers/mss/mss_mmuart/mss_uart.c ****     this_uart->hw_reg->MM2 |= EAFM_MASK;
1154:../src/platform/drivers/mss/mss_mmuart/mss_uart.c **** }
1155:../src/platform/drivers/mss/mss_mmuart/mss_uart.c **** 
1156:../src/platform/drivers/mss/mss_mmuart/mss_uart.c **** /***************************************************************************//**
1157:../src/platform/drivers/mss/mss_mmuart/mss_uart.c ****  * See mss_uart.h for details of how to use this function.
1158:../src/platform/drivers/mss/mss_mmuart/mss_uart.c ****  */
1159:../src/platform/drivers/mss/mss_mmuart/mss_uart.c **** void
1160:../src/platform/drivers/mss/mss_mmuart/mss_uart.c **** MSS_UART_disable_afm
1161:../src/platform/drivers/mss/mss_mmuart/mss_uart.c **** (
1162:../src/platform/drivers/mss/mss_mmuart/mss_uart.c ****      mss_uart_instance_t * this_uart
1163:../src/platform/drivers/mss/mss_mmuart/mss_uart.c **** )
1164:../src/platform/drivers/mss/mss_mmuart/mss_uart.c **** {
1165:../src/platform/drivers/mss/mss_mmuart/mss_uart.c ****     /* Enable RX FIFO irrespective of address flag and
1166:../src/platform/drivers/mss/mss_mmuart/mss_uart.c ****        correct address is received */
1167:../src/platform/drivers/mss/mss_mmuart/mss_uart.c ****     this_uart->hw_reg->MM2 &= ~EAFM_MASK;
1168:../src/platform/drivers/mss/mss_mmuart/mss_uart.c **** }
1169:../src/platform/drivers/mss/mss_mmuart/mss_uart.c **** 
1170:../src/platform/drivers/mss/mss_mmuart/mss_uart.c **** /***************************************************************************//**
1171:../src/platform/drivers/mss/mss_mmuart/mss_uart.c ****  * See mss_uart.h for details of how to use this function.
1172:../src/platform/drivers/mss/mss_mmuart/mss_uart.c ****  */
1173:../src/platform/drivers/mss/mss_mmuart/mss_uart.c **** void
1174:../src/platform/drivers/mss/mss_mmuart/mss_uart.c **** MSS_UART_enable_afclear
1175:../src/platform/drivers/mss/mss_mmuart/mss_uart.c **** (
1176:../src/platform/drivers/mss/mss_mmuart/mss_uart.c ****      mss_uart_instance_t * this_uart
1177:../src/platform/drivers/mss/mss_mmuart/mss_uart.c **** )
1178:../src/platform/drivers/mss/mss_mmuart/mss_uart.c **** {
1179:../src/platform/drivers/mss/mss_mmuart/mss_uart.c ****     /* Enable address flag clearing */
1180:../src/platform/drivers/mss/mss_mmuart/mss_uart.c ****     /* Disable RX FIFO till another address flag with
1181:../src/platform/drivers/mss/mss_mmuart/mss_uart.c ****        correct address is received */
1182:../src/platform/drivers/mss/mss_mmuart/mss_uart.c ****     this_uart->hw_reg->MM2 |= EAFC_MASK;
1183:../src/platform/drivers/mss/mss_mmuart/mss_uart.c **** }
1184:../src/platform/drivers/mss/mss_mmuart/mss_uart.c **** 
1185:../src/platform/drivers/mss/mss_mmuart/mss_uart.c **** /***************************************************************************//**
1186:../src/platform/drivers/mss/mss_mmuart/mss_uart.c ****  * See mss_uart.h for details of how to use this function.
1187:../src/platform/drivers/mss/mss_mmuart/mss_uart.c ****  */
1188:../src/platform/drivers/mss/mss_mmuart/mss_uart.c **** void
1189:../src/platform/drivers/mss/mss_mmuart/mss_uart.c **** MSS_UART_disable_afclear
1190:../src/platform/drivers/mss/mss_mmuart/mss_uart.c **** (
1191:../src/platform/drivers/mss/mss_mmuart/mss_uart.c ****      mss_uart_instance_t * this_uart
1192:../src/platform/drivers/mss/mss_mmuart/mss_uart.c **** )
1193:../src/platform/drivers/mss/mss_mmuart/mss_uart.c **** {
1194:../src/platform/drivers/mss/mss_mmuart/mss_uart.c ****     /* Disable address flag clearing */
1195:../src/platform/drivers/mss/mss_mmuart/mss_uart.c ****     this_uart->hw_reg->MM2 &= ~EAFC_MASK;
1196:../src/platform/drivers/mss/mss_mmuart/mss_uart.c **** }
1197:../src/platform/drivers/mss/mss_mmuart/mss_uart.c **** 
1198:../src/platform/drivers/mss/mss_mmuart/mss_uart.c **** /***************************************************************************//**
1199:../src/platform/drivers/mss/mss_mmuart/mss_uart.c ****  * See mss_uart.h for details of how to use this function.
1200:../src/platform/drivers/mss/mss_mmuart/mss_uart.c ****  */
1201:../src/platform/drivers/mss/mss_mmuart/mss_uart.c **** void 
1202:../src/platform/drivers/mss/mss_mmuart/mss_uart.c **** MSS_UART_enable_rx_timeout
1203:../src/platform/drivers/mss/mss_mmuart/mss_uart.c **** (
1204:../src/platform/drivers/mss/mss_mmuart/mss_uart.c ****     mss_uart_instance_t * this_uart,
1205:../src/platform/drivers/mss/mss_mmuart/mss_uart.c ****     uint8_t timeout
1206:../src/platform/drivers/mss/mss_mmuart/mss_uart.c **** )
1207:../src/platform/drivers/mss/mss_mmuart/mss_uart.c **** {
1208:../src/platform/drivers/mss/mss_mmuart/mss_uart.c ****     /* Load the receive timeout value */
1209:../src/platform/drivers/mss/mss_mmuart/mss_uart.c ****     this_uart->hw_reg->RTO = timeout;
1210:../src/platform/drivers/mss/mss_mmuart/mss_uart.c **** 
1211:../src/platform/drivers/mss/mss_mmuart/mss_uart.c ****     /*Enable receiver time-out */
1212:../src/platform/drivers/mss/mss_mmuart/mss_uart.c ****     this_uart->hw_reg->MM0 |= ERTO_MASK;
1213:../src/platform/drivers/mss/mss_mmuart/mss_uart.c **** }
1214:../src/platform/drivers/mss/mss_mmuart/mss_uart.c **** 
1215:../src/platform/drivers/mss/mss_mmuart/mss_uart.c **** /***************************************************************************//**
1216:../src/platform/drivers/mss/mss_mmuart/mss_uart.c ****  * See mss_uart.h for details of how to use this function.
1217:../src/platform/drivers/mss/mss_mmuart/mss_uart.c ****  */
1218:../src/platform/drivers/mss/mss_mmuart/mss_uart.c **** void 
1219:../src/platform/drivers/mss/mss_mmuart/mss_uart.c **** MSS_UART_disable_rx_timeout
1220:../src/platform/drivers/mss/mss_mmuart/mss_uart.c **** (
1221:../src/platform/drivers/mss/mss_mmuart/mss_uart.c ****     mss_uart_instance_t * this_uart
1222:../src/platform/drivers/mss/mss_mmuart/mss_uart.c **** )
1223:../src/platform/drivers/mss/mss_mmuart/mss_uart.c **** {
1224:../src/platform/drivers/mss/mss_mmuart/mss_uart.c ****     /* Disable receiver time-out */
1225:../src/platform/drivers/mss/mss_mmuart/mss_uart.c ****     this_uart->hw_reg->MM0 &= ~ERTO_MASK;
1226:../src/platform/drivers/mss/mss_mmuart/mss_uart.c **** }
1227:../src/platform/drivers/mss/mss_mmuart/mss_uart.c **** 
1228:../src/platform/drivers/mss/mss_mmuart/mss_uart.c **** /***************************************************************************//**
1229:../src/platform/drivers/mss/mss_mmuart/mss_uart.c ****  * See mss_uart.h for details of how to use this function.
1230:../src/platform/drivers/mss/mss_mmuart/mss_uart.c ****  */
1231:../src/platform/drivers/mss/mss_mmuart/mss_uart.c **** void 
1232:../src/platform/drivers/mss/mss_mmuart/mss_uart.c **** MSS_UART_enable_tx_time_guard
1233:../src/platform/drivers/mss/mss_mmuart/mss_uart.c **** (
1234:../src/platform/drivers/mss/mss_mmuart/mss_uart.c ****     mss_uart_instance_t * this_uart,
1235:../src/platform/drivers/mss/mss_mmuart/mss_uart.c ****     uint8_t timeguard
1236:../src/platform/drivers/mss/mss_mmuart/mss_uart.c **** )
1237:../src/platform/drivers/mss/mss_mmuart/mss_uart.c **** {
1238:../src/platform/drivers/mss/mss_mmuart/mss_uart.c ****     /* Load the transmitter time guard value */
1239:../src/platform/drivers/mss/mss_mmuart/mss_uart.c ****     this_uart->hw_reg->TTG = timeguard;
1240:../src/platform/drivers/mss/mss_mmuart/mss_uart.c **** 
1241:../src/platform/drivers/mss/mss_mmuart/mss_uart.c ****     /* Enable transmitter time guard */
1242:../src/platform/drivers/mss/mss_mmuart/mss_uart.c ****     this_uart->hw_reg->MM0 |= ETTG_MASK;
1243:../src/platform/drivers/mss/mss_mmuart/mss_uart.c **** }
1244:../src/platform/drivers/mss/mss_mmuart/mss_uart.c **** 
1245:../src/platform/drivers/mss/mss_mmuart/mss_uart.c **** /***************************************************************************//**
1246:../src/platform/drivers/mss/mss_mmuart/mss_uart.c ****  * See mss_uart.h for details of how to use this function.
1247:../src/platform/drivers/mss/mss_mmuart/mss_uart.c ****  */
1248:../src/platform/drivers/mss/mss_mmuart/mss_uart.c **** void 
1249:../src/platform/drivers/mss/mss_mmuart/mss_uart.c **** MSS_UART_disable_tx_time_guard
1250:../src/platform/drivers/mss/mss_mmuart/mss_uart.c **** (
1251:../src/platform/drivers/mss/mss_mmuart/mss_uart.c ****     mss_uart_instance_t * this_uart
1252:../src/platform/drivers/mss/mss_mmuart/mss_uart.c **** )
1253:../src/platform/drivers/mss/mss_mmuart/mss_uart.c **** {
1254:../src/platform/drivers/mss/mss_mmuart/mss_uart.c ****     /* Disable transmitter time guard */
1255:../src/platform/drivers/mss/mss_mmuart/mss_uart.c ****     this_uart->hw_reg->MM0 &= ~ETTG_MASK;
1256:../src/platform/drivers/mss/mss_mmuart/mss_uart.c **** }
1257:../src/platform/drivers/mss/mss_mmuart/mss_uart.c **** 
1258:../src/platform/drivers/mss/mss_mmuart/mss_uart.c **** /***************************************************************************//**
1259:../src/platform/drivers/mss/mss_mmuart/mss_uart.c ****  * See mss_uart.h for details of how to use this function.
1260:../src/platform/drivers/mss/mss_mmuart/mss_uart.c ****  */
1261:../src/platform/drivers/mss/mss_mmuart/mss_uart.c **** void
1262:../src/platform/drivers/mss/mss_mmuart/mss_uart.c **** MSS_UART_set_address
1263:../src/platform/drivers/mss/mss_mmuart/mss_uart.c **** (
1264:../src/platform/drivers/mss/mss_mmuart/mss_uart.c ****     mss_uart_instance_t * this_uart,
1265:../src/platform/drivers/mss/mss_mmuart/mss_uart.c ****     uint8_t address
1266:../src/platform/drivers/mss/mss_mmuart/mss_uart.c **** )
1267:../src/platform/drivers/mss/mss_mmuart/mss_uart.c **** {
1268:../src/platform/drivers/mss/mss_mmuart/mss_uart.c ****     this_uart->hw_reg->ADR = address;
1269:../src/platform/drivers/mss/mss_mmuart/mss_uart.c **** }
1270:../src/platform/drivers/mss/mss_mmuart/mss_uart.c **** 
1271:../src/platform/drivers/mss/mss_mmuart/mss_uart.c **** /***************************************************************************//**
1272:../src/platform/drivers/mss/mss_mmuart/mss_uart.c ****  * See mss_uart.h for details of how to use this function.
1273:../src/platform/drivers/mss/mss_mmuart/mss_uart.c ****  */
1274:../src/platform/drivers/mss/mss_mmuart/mss_uart.c **** void 
1275:../src/platform/drivers/mss/mss_mmuart/mss_uart.c **** MSS_UART_set_ready_mode
1276:../src/platform/drivers/mss/mss_mmuart/mss_uart.c **** (
1277:../src/platform/drivers/mss/mss_mmuart/mss_uart.c ****     mss_uart_instance_t * this_uart,
1278:../src/platform/drivers/mss/mss_mmuart/mss_uart.c ****     mss_uart_ready_mode_t mode    
1279:../src/platform/drivers/mss/mss_mmuart/mss_uart.c **** )
1280:../src/platform/drivers/mss/mss_mmuart/mss_uart.c **** {
1281:../src/platform/drivers/mss/mss_mmuart/mss_uart.c ****     ASSERT(MSS_UART_INVALID_READY_MODE > mode);
1282:../src/platform/drivers/mss/mss_mmuart/mss_uart.c **** 
1283:../src/platform/drivers/mss/mss_mmuart/mss_uart.c ****     if (MSS_UART_INVALID_READY_MODE > mode )
1284:../src/platform/drivers/mss/mss_mmuart/mss_uart.c ****     {
1285:../src/platform/drivers/mss/mss_mmuart/mss_uart.c ****         /* Configure mode 0 or mode 1 for TXRDY and RXRDY */
1286:../src/platform/drivers/mss/mss_mmuart/mss_uart.c ****         ((MSS_UART_READY_MODE0 == mode) ? (this_uart->hw_reg->FCR &= ~RDYMODE_MASK) :
1287:../src/platform/drivers/mss/mss_mmuart/mss_uart.c ****                                      (this_uart->hw_reg->FCR |= RDYMODE_MASK) );
1288:../src/platform/drivers/mss/mss_mmuart/mss_uart.c ****     }
1289:../src/platform/drivers/mss/mss_mmuart/mss_uart.c **** }
1290:../src/platform/drivers/mss/mss_mmuart/mss_uart.c **** 
1291:../src/platform/drivers/mss/mss_mmuart/mss_uart.c **** /***************************************************************************//**
1292:../src/platform/drivers/mss/mss_mmuart/mss_uart.c ****  * See mss_uart.h for details of how to use this function.
1293:../src/platform/drivers/mss/mss_mmuart/mss_uart.c ****  */
1294:../src/platform/drivers/mss/mss_mmuart/mss_uart.c **** void 
1295:../src/platform/drivers/mss/mss_mmuart/mss_uart.c **** MSS_UART_set_usart_mode
1296:../src/platform/drivers/mss/mss_mmuart/mss_uart.c **** (
1297:../src/platform/drivers/mss/mss_mmuart/mss_uart.c ****     mss_uart_instance_t * this_uart,
1298:../src/platform/drivers/mss/mss_mmuart/mss_uart.c ****     mss_uart_usart_mode_t mode
1299:../src/platform/drivers/mss/mss_mmuart/mss_uart.c **** )
1300:../src/platform/drivers/mss/mss_mmuart/mss_uart.c **** {
1301:../src/platform/drivers/mss/mss_mmuart/mss_uart.c ****     ASSERT(MSS_UART_INVALID_SYNC_MODE > mode);
1302:../src/platform/drivers/mss/mss_mmuart/mss_uart.c **** 
1303:../src/platform/drivers/mss/mss_mmuart/mss_uart.c ****     if (MSS_UART_INVALID_SYNC_MODE > mode)
1304:../src/platform/drivers/mss/mss_mmuart/mss_uart.c ****     {
1305:../src/platform/drivers/mss/mss_mmuart/mss_uart.c ****         /* Nothing to do for the baudrate: 
1306:../src/platform/drivers/mss/mss_mmuart/mss_uart.c ****                                 operates at PCLK / 2 + glitch filter length */
1307:../src/platform/drivers/mss/mss_mmuart/mss_uart.c ****         /* Clear the ESYN bits 2:0 */
1308:../src/platform/drivers/mss/mss_mmuart/mss_uart.c ****         this_uart->hw_reg->MM0 &= ~SYNC_ASYNC_MODE_MASK;
1309:../src/platform/drivers/mss/mss_mmuart/mss_uart.c ****         this_uart->hw_reg->MM0 |= (uint8_t)mode;
1310:../src/platform/drivers/mss/mss_mmuart/mss_uart.c ****     }
1311:../src/platform/drivers/mss/mss_mmuart/mss_uart.c **** }
1312:../src/platform/drivers/mss/mss_mmuart/mss_uart.c **** 
1313:../src/platform/drivers/mss/mss_mmuart/mss_uart.c **** /***************************************************************************//**
1314:../src/platform/drivers/mss/mss_mmuart/mss_uart.c ****  * See mss_uart.h for details of how to use this function.
1315:../src/platform/drivers/mss/mss_mmuart/mss_uart.c ****  */
1316:../src/platform/drivers/mss/mss_mmuart/mss_uart.c **** void
1317:../src/platform/drivers/mss/mss_mmuart/mss_uart.c **** MSS_UART_enable_local_irq
1318:../src/platform/drivers/mss/mss_mmuart/mss_uart.c **** (
1319:../src/platform/drivers/mss/mss_mmuart/mss_uart.c ****     mss_uart_instance_t * this_uart
1320:../src/platform/drivers/mss/mss_mmuart/mss_uart.c **** )
1321:../src/platform/drivers/mss/mss_mmuart/mss_uart.c **** {
1322:../src/platform/drivers/mss/mss_mmuart/mss_uart.c ****     /* Make sure to disable interrupt on PLIC as it might have been enabled
1323:../src/platform/drivers/mss/mss_mmuart/mss_uart.c ****      * when application registered an interrupt handler function or
1324:../src/platform/drivers/mss/mss_mmuart/mss_uart.c ****      * used MSS_UART_enable_irq() to enable PLIC interrupt */
1325:../src/platform/drivers/mss/mss_mmuart/mss_uart.c ****     disable_irq(this_uart);
1326:../src/platform/drivers/mss/mss_mmuart/mss_uart.c **** 
1327:../src/platform/drivers/mss/mss_mmuart/mss_uart.c ****     this_uart->local_irq_enabled = 1u;
1328:../src/platform/drivers/mss/mss_mmuart/mss_uart.c **** 
1329:../src/platform/drivers/mss/mss_mmuart/mss_uart.c ****     /* Enable local interrupt UART instance.
1330:../src/platform/drivers/mss/mss_mmuart/mss_uart.c ****      * Local interrupt will be enabled on the HART on which the application
1331:../src/platform/drivers/mss/mss_mmuart/mss_uart.c ****      * calling this API is being executed*/
1332:../src/platform/drivers/mss/mss_mmuart/mss_uart.c ****     __enable_local_irq((int8_t)MMUART0_E51_INT);
1333:../src/platform/drivers/mss/mss_mmuart/mss_uart.c **** }
1334:../src/platform/drivers/mss/mss_mmuart/mss_uart.c **** 
1335:../src/platform/drivers/mss/mss_mmuart/mss_uart.c **** /*******************************************************************************
1336:../src/platform/drivers/mss/mss_mmuart/mss_uart.c ****  * Local Functions
1337:../src/platform/drivers/mss/mss_mmuart/mss_uart.c ****  ******************************************************************************/
1338:../src/platform/drivers/mss/mss_mmuart/mss_uart.c **** /*******************************************************************************
1339:../src/platform/drivers/mss/mss_mmuart/mss_uart.c ****  * Global initialization for all modes
1340:../src/platform/drivers/mss/mss_mmuart/mss_uart.c ****  */
1341:../src/platform/drivers/mss/mss_mmuart/mss_uart.c **** static void global_init
1342:../src/platform/drivers/mss/mss_mmuart/mss_uart.c **** (
1343:../src/platform/drivers/mss/mss_mmuart/mss_uart.c ****     mss_uart_instance_t * this_uart,
1344:../src/platform/drivers/mss/mss_mmuart/mss_uart.c ****     uint32_t baud_rate,
1345:../src/platform/drivers/mss/mss_mmuart/mss_uart.c ****     uint8_t line_config
1346:../src/platform/drivers/mss/mss_mmuart/mss_uart.c **** )
1347:../src/platform/drivers/mss/mss_mmuart/mss_uart.c **** {
  15              		.loc 1 1347 1
  16              		.cfi_startproc
  17              	.LVL0:
1348:../src/platform/drivers/mss/mss_mmuart/mss_uart.c ****     if ((&g_mss_uart0_lo == this_uart))
  18              		.loc 1 1348 5
  19              		.loc 1 1348 8 is_stmt 0
  20 0000 97070000 		lla	a5,g_mss_uart0_lo
  20      93870700 
  21 0008 6312F518 		bne	a0,a5,.L2
1349:../src/platform/drivers/mss/mss_mmuart/mss_uart.c ****     {
1350:../src/platform/drivers/mss/mss_mmuart/mss_uart.c ****         this_uart->hw_reg = MSS_UART0_LO_BASE;
  22              		.loc 1 1350 9 is_stmt 1
  23              		.loc 1 1350 27 is_stmt 0
  24 000c B7070020 		li	a5,536870912
  25 0010 1CE1     		sd	a5,0(a0)
1351:../src/platform/drivers/mss/mss_mmuart/mss_uart.c ****         g_uart_axi_pos &= ~0x01u;
  26              		.loc 1 1351 9 is_stmt 1
  27              		.loc 1 1351 24 is_stmt 0
  28 0012 97070000 		lla	a5,.LANCHOR0
  28      93870700 
  29 001a 9C43     		lw	a5,0(a5)
  30 001c F99B     		andi	a5,a5,-2
  31              	.L14:
1352:../src/platform/drivers/mss/mss_mmuart/mss_uart.c ****     }
1353:../src/platform/drivers/mss/mss_mmuart/mss_uart.c **** 
1354:../src/platform/drivers/mss/mss_mmuart/mss_uart.c ****     else if (&g_mss_uart1_lo == this_uart)
1355:../src/platform/drivers/mss/mss_mmuart/mss_uart.c ****     {
1356:../src/platform/drivers/mss/mss_mmuart/mss_uart.c **** 
1357:../src/platform/drivers/mss/mss_mmuart/mss_uart.c ****         this_uart->hw_reg = MSS_UART1_LO_BASE;
1358:../src/platform/drivers/mss/mss_mmuart/mss_uart.c ****         g_uart_axi_pos &= ~0x02u;
1359:../src/platform/drivers/mss/mss_mmuart/mss_uart.c ****     }
1360:../src/platform/drivers/mss/mss_mmuart/mss_uart.c **** 
1361:../src/platform/drivers/mss/mss_mmuart/mss_uart.c ****     else if (&g_mss_uart2_lo == this_uart)
1362:../src/platform/drivers/mss/mss_mmuart/mss_uart.c ****     {
1363:../src/platform/drivers/mss/mss_mmuart/mss_uart.c ****         this_uart->hw_reg = MSS_UART2_LO_BASE;
1364:../src/platform/drivers/mss/mss_mmuart/mss_uart.c ****         g_uart_axi_pos &= ~0x04u;
1365:../src/platform/drivers/mss/mss_mmuart/mss_uart.c ****     }
1366:../src/platform/drivers/mss/mss_mmuart/mss_uart.c **** 
1367:../src/platform/drivers/mss/mss_mmuart/mss_uart.c ****     else if (&g_mss_uart3_lo == this_uart)
1368:../src/platform/drivers/mss/mss_mmuart/mss_uart.c ****     {
1369:../src/platform/drivers/mss/mss_mmuart/mss_uart.c ****         this_uart->hw_reg = MSS_UART3_LO_BASE;
1370:../src/platform/drivers/mss/mss_mmuart/mss_uart.c ****         g_uart_axi_pos &= ~0x08u;
1371:../src/platform/drivers/mss/mss_mmuart/mss_uart.c ****     }
1372:../src/platform/drivers/mss/mss_mmuart/mss_uart.c **** 
1373:../src/platform/drivers/mss/mss_mmuart/mss_uart.c ****     else if (&g_mss_uart4_lo == this_uart)
1374:../src/platform/drivers/mss/mss_mmuart/mss_uart.c ****     {
1375:../src/platform/drivers/mss/mss_mmuart/mss_uart.c ****         this_uart->hw_reg = MSS_UART4_LO_BASE;
1376:../src/platform/drivers/mss/mss_mmuart/mss_uart.c ****         g_uart_axi_pos &= ~0x10u;
1377:../src/platform/drivers/mss/mss_mmuart/mss_uart.c ****     }
1378:../src/platform/drivers/mss/mss_mmuart/mss_uart.c **** 
1379:../src/platform/drivers/mss/mss_mmuart/mss_uart.c ****     else if ((&g_mss_uart0_hi == this_uart))
1380:../src/platform/drivers/mss/mss_mmuart/mss_uart.c ****     {
1381:../src/platform/drivers/mss/mss_mmuart/mss_uart.c ****         this_uart->hw_reg = MSS_UART0_HI_BASE;
1382:../src/platform/drivers/mss/mss_mmuart/mss_uart.c ****         g_uart_axi_pos |= 0x01u;
1383:../src/platform/drivers/mss/mss_mmuart/mss_uart.c ****     }
1384:../src/platform/drivers/mss/mss_mmuart/mss_uart.c **** 
1385:../src/platform/drivers/mss/mss_mmuart/mss_uart.c ****     else if (&g_mss_uart1_hi == this_uart)
1386:../src/platform/drivers/mss/mss_mmuart/mss_uart.c ****     {
1387:../src/platform/drivers/mss/mss_mmuart/mss_uart.c ****         this_uart->hw_reg = MSS_UART1_HI_BASE;
1388:../src/platform/drivers/mss/mss_mmuart/mss_uart.c ****         g_uart_axi_pos |= 0x02u;
1389:../src/platform/drivers/mss/mss_mmuart/mss_uart.c ****     }
1390:../src/platform/drivers/mss/mss_mmuart/mss_uart.c **** 
1391:../src/platform/drivers/mss/mss_mmuart/mss_uart.c ****     else if (&g_mss_uart2_hi == this_uart)
1392:../src/platform/drivers/mss/mss_mmuart/mss_uart.c ****     {
1393:../src/platform/drivers/mss/mss_mmuart/mss_uart.c ****         this_uart->hw_reg = MSS_UART2_HI_BASE;
1394:../src/platform/drivers/mss/mss_mmuart/mss_uart.c ****         g_uart_axi_pos |= 0x04u;
1395:../src/platform/drivers/mss/mss_mmuart/mss_uart.c ****     }
1396:../src/platform/drivers/mss/mss_mmuart/mss_uart.c **** 
1397:../src/platform/drivers/mss/mss_mmuart/mss_uart.c ****     else if (&g_mss_uart3_hi == this_uart)
1398:../src/platform/drivers/mss/mss_mmuart/mss_uart.c ****     {
1399:../src/platform/drivers/mss/mss_mmuart/mss_uart.c ****         this_uart->hw_reg = MSS_UART3_HI_BASE;
1400:../src/platform/drivers/mss/mss_mmuart/mss_uart.c ****         g_uart_axi_pos |= 0x08u;
1401:../src/platform/drivers/mss/mss_mmuart/mss_uart.c ****     }
1402:../src/platform/drivers/mss/mss_mmuart/mss_uart.c **** 
1403:../src/platform/drivers/mss/mss_mmuart/mss_uart.c ****     else if (&g_mss_uart4_hi == this_uart)
1404:../src/platform/drivers/mss/mss_mmuart/mss_uart.c ****     {
1405:../src/platform/drivers/mss/mss_mmuart/mss_uart.c ****         this_uart->hw_reg = MSS_UART4_HI_BASE;
1406:../src/platform/drivers/mss/mss_mmuart/mss_uart.c ****         g_uart_axi_pos |= 0x10u;
  32              		.loc 1 1406 24
  33 001e 17070000 		sw	a5,.LANCHOR0,a4
  33      2320F700 
  34              	.L3:
1407:../src/platform/drivers/mss/mss_mmuart/mss_uart.c ****     }
1408:../src/platform/drivers/mss/mss_mmuart/mss_uart.c ****     else
1409:../src/platform/drivers/mss/mss_mmuart/mss_uart.c ****     {
1410:../src/platform/drivers/mss/mss_mmuart/mss_uart.c ****         ASSERT(0); /* Comment to avoid LDRA warning */
  35              		.loc 1 1410 18 is_stmt 1
1411:../src/platform/drivers/mss/mss_mmuart/mss_uart.c ****     }
1412:../src/platform/drivers/mss/mss_mmuart/mss_uart.c **** 
1413:../src/platform/drivers/mss/mss_mmuart/mss_uart.c ****     /* disable interrupts */
1414:../src/platform/drivers/mss/mss_mmuart/mss_uart.c ****     this_uart->hw_reg->IER = 0u;
  36              		.loc 1 1414 5
  37              		.loc 1 1414 14 is_stmt 0
  38 0026 1C61     		ld	a5,0(a0)
  39              	.LBB4:
  40              	.LBB5:
1415:../src/platform/drivers/mss/mss_mmuart/mss_uart.c **** 
1416:../src/platform/drivers/mss/mss_mmuart/mss_uart.c ****     /* FIFO configuration */
1417:../src/platform/drivers/mss/mss_mmuart/mss_uart.c ****     this_uart->hw_reg->FCR = 0u;
1418:../src/platform/drivers/mss/mss_mmuart/mss_uart.c **** 
1419:../src/platform/drivers/mss/mss_mmuart/mss_uart.c ****     /* clear receiver FIFO */
1420:../src/platform/drivers/mss/mss_mmuart/mss_uart.c ****     this_uart->hw_reg->FCR |= CLEAR_RX_FIFO_MASK;
1421:../src/platform/drivers/mss/mss_mmuart/mss_uart.c **** 
1422:../src/platform/drivers/mss/mss_mmuart/mss_uart.c ****     /* clear transmitter FIFO */
1423:../src/platform/drivers/mss/mss_mmuart/mss_uart.c ****     this_uart->hw_reg->FCR |= CLEAR_TX_FIFO_MASK;
1424:../src/platform/drivers/mss/mss_mmuart/mss_uart.c **** 
1425:../src/platform/drivers/mss/mss_mmuart/mss_uart.c ****     /* set default READY mode : Mode 0*/
1426:../src/platform/drivers/mss/mss_mmuart/mss_uart.c ****     /* enable RXRDYN and TXRDYN pins. The earlier FCR write to set the TX FIFO
1427:../src/platform/drivers/mss/mss_mmuart/mss_uart.c ****      * trigger level inadvertently disabled the FCR_RXRDY_TXRDYN_EN bit. */
1428:../src/platform/drivers/mss/mss_mmuart/mss_uart.c ****     this_uart->hw_reg->FCR |= RXRDY_TXRDYN_EN_MASK;
1429:../src/platform/drivers/mss/mss_mmuart/mss_uart.c **** 
1430:../src/platform/drivers/mss/mss_mmuart/mss_uart.c ****     /* disable loopback : local * remote */
1431:../src/platform/drivers/mss/mss_mmuart/mss_uart.c ****     this_uart->hw_reg->MCR &= ~LOOP_MASK;
1432:../src/platform/drivers/mss/mss_mmuart/mss_uart.c **** 
1433:../src/platform/drivers/mss/mss_mmuart/mss_uart.c ****     this_uart->hw_reg->MCR &= ~RLOOP_MASK;
1434:../src/platform/drivers/mss/mss_mmuart/mss_uart.c **** 
1435:../src/platform/drivers/mss/mss_mmuart/mss_uart.c ****     /* set default TX endian */
1436:../src/platform/drivers/mss/mss_mmuart/mss_uart.c ****     this_uart->hw_reg->MM1 &= ~E_MSB_TX_MASK;
1437:../src/platform/drivers/mss/mss_mmuart/mss_uart.c **** 
1438:../src/platform/drivers/mss/mss_mmuart/mss_uart.c ****     /* set default RX endian */
1439:../src/platform/drivers/mss/mss_mmuart/mss_uart.c ****     this_uart->hw_reg->MM1 &= ~E_MSB_RX_MASK;
1440:../src/platform/drivers/mss/mss_mmuart/mss_uart.c **** 
1441:../src/platform/drivers/mss/mss_mmuart/mss_uart.c ****     /* default AFM : disabled */
1442:../src/platform/drivers/mss/mss_mmuart/mss_uart.c ****     this_uart->hw_reg->MM2 &= ~EAFM_MASK;
1443:../src/platform/drivers/mss/mss_mmuart/mss_uart.c **** 
1444:../src/platform/drivers/mss/mss_mmuart/mss_uart.c ****     /* disable TX time guard */
1445:../src/platform/drivers/mss/mss_mmuart/mss_uart.c ****     this_uart->hw_reg->MM0 &= ~ETTG_MASK;
1446:../src/platform/drivers/mss/mss_mmuart/mss_uart.c **** 
1447:../src/platform/drivers/mss/mss_mmuart/mss_uart.c ****     /* set default RX timeout */
1448:../src/platform/drivers/mss/mss_mmuart/mss_uart.c ****     this_uart->hw_reg->MM0 &= ~ERTO_MASK;
1449:../src/platform/drivers/mss/mss_mmuart/mss_uart.c **** 
1450:../src/platform/drivers/mss/mss_mmuart/mss_uart.c ****     /* disable fractional baud-rate */
1451:../src/platform/drivers/mss/mss_mmuart/mss_uart.c ****     this_uart->hw_reg->MM0 &= ~EFBR_MASK;
1452:../src/platform/drivers/mss/mss_mmuart/mss_uart.c **** 
1453:../src/platform/drivers/mss/mss_mmuart/mss_uart.c ****     /* disable single wire mode */
1454:../src/platform/drivers/mss/mss_mmuart/mss_uart.c ****     this_uart->hw_reg->MM2 &= ~ESWM_MASK;
1455:../src/platform/drivers/mss/mss_mmuart/mss_uart.c **** 
1456:../src/platform/drivers/mss/mss_mmuart/mss_uart.c ****     /* set filter to minimum value */
1457:../src/platform/drivers/mss/mss_mmuart/mss_uart.c ****     this_uart->hw_reg->GFR = 0u;
1458:../src/platform/drivers/mss/mss_mmuart/mss_uart.c **** 
1459:../src/platform/drivers/mss/mss_mmuart/mss_uart.c ****     /* set default TX time guard */
1460:../src/platform/drivers/mss/mss_mmuart/mss_uart.c ****     this_uart->hw_reg->TTG = 0u;
1461:../src/platform/drivers/mss/mss_mmuart/mss_uart.c **** 
1462:../src/platform/drivers/mss/mss_mmuart/mss_uart.c ****     /* set default RX timeout */
1463:../src/platform/drivers/mss/mss_mmuart/mss_uart.c ****     this_uart->hw_reg->RTO = 0u;
1464:../src/platform/drivers/mss/mss_mmuart/mss_uart.c ****     
1465:../src/platform/drivers/mss/mss_mmuart/mss_uart.c ****     /* 
1466:../src/platform/drivers/mss/mss_mmuart/mss_uart.c ****      * Configure baud rate divisors. This uses the fractional baud rate divisor
1467:../src/platform/drivers/mss/mss_mmuart/mss_uart.c ****      * where possible to provide the most accurate baud rat possible.
1468:../src/platform/drivers/mss/mss_mmuart/mss_uart.c ****      */
1469:../src/platform/drivers/mss/mss_mmuart/mss_uart.c ****     config_baud_divisors(this_uart, baud_rate);
1470:../src/platform/drivers/mss/mss_mmuart/mss_uart.c **** 
1471:../src/platform/drivers/mss/mss_mmuart/mss_uart.c ****     /* set the line control register (bit length, stop bits, parity) */
1472:../src/platform/drivers/mss/mss_mmuart/mss_uart.c ****     this_uart->hw_reg->LCR = line_config;
1473:../src/platform/drivers/mss/mss_mmuart/mss_uart.c **** 
1474:../src/platform/drivers/mss/mss_mmuart/mss_uart.c ****     /* Instance setup */
1475:../src/platform/drivers/mss/mss_mmuart/mss_uart.c ****     this_uart->baudrate = baud_rate;
1476:../src/platform/drivers/mss/mss_mmuart/mss_uart.c ****     this_uart->lineconfig = line_config;
1477:../src/platform/drivers/mss/mss_mmuart/mss_uart.c ****     this_uart->tx_buff_size = TX_COMPLETE;
1478:../src/platform/drivers/mss/mss_mmuart/mss_uart.c ****     this_uart->tx_buffer = (const uint8_t*)0;
1479:../src/platform/drivers/mss/mss_mmuart/mss_uart.c ****     this_uart->tx_idx = 0u;
1480:../src/platform/drivers/mss/mss_mmuart/mss_uart.c **** 
1481:../src/platform/drivers/mss/mss_mmuart/mss_uart.c ****     /* Default handlers for MSS UART interrupts */
1482:../src/platform/drivers/mss/mss_mmuart/mss_uart.c ****     this_uart->rx_handler       = NULL_HANDLER;
1483:../src/platform/drivers/mss/mss_mmuart/mss_uart.c ****     this_uart->tx_handler       = NULL_HANDLER;
1484:../src/platform/drivers/mss/mss_mmuart/mss_uart.c ****     this_uart->linests_handler  = NULL_HANDLER;
1485:../src/platform/drivers/mss/mss_mmuart/mss_uart.c ****     this_uart->modemsts_handler = NULL_HANDLER;
1486:../src/platform/drivers/mss/mss_mmuart/mss_uart.c ****     this_uart->rto_handler      = NULL_HANDLER;    
1487:../src/platform/drivers/mss/mss_mmuart/mss_uart.c ****     this_uart->nack_handler     = NULL_HANDLER;   
1488:../src/platform/drivers/mss/mss_mmuart/mss_uart.c ****     this_uart->pid_pei_handler  = NULL_HANDLER;
1489:../src/platform/drivers/mss/mss_mmuart/mss_uart.c ****     this_uart->break_handler    = NULL_HANDLER;    
1490:../src/platform/drivers/mss/mss_mmuart/mss_uart.c ****     this_uart->sync_handler     = NULL_HANDLER;   
1491:../src/platform/drivers/mss/mss_mmuart/mss_uart.c **** 
1492:../src/platform/drivers/mss/mss_mmuart/mss_uart.c ****     this_uart->local_irq_enabled = 0u;
1493:../src/platform/drivers/mss/mss_mmuart/mss_uart.c **** 
1494:../src/platform/drivers/mss/mss_mmuart/mss_uart.c ****     /* Initialize the sticky status */
1495:../src/platform/drivers/mss/mss_mmuart/mss_uart.c ****     this_uart->status = 0u;
1496:../src/platform/drivers/mss/mss_mmuart/mss_uart.c **** }
1497:../src/platform/drivers/mss/mss_mmuart/mss_uart.c **** 
1498:../src/platform/drivers/mss/mss_mmuart/mss_uart.c **** /***************************************************************************//**
1499:../src/platform/drivers/mss/mss_mmuart/mss_uart.c ****  * Configure baud divisors using fractional baud rate if possible.
1500:../src/platform/drivers/mss/mss_mmuart/mss_uart.c ****  */
1501:../src/platform/drivers/mss/mss_mmuart/mss_uart.c **** static void
1502:../src/platform/drivers/mss/mss_mmuart/mss_uart.c **** config_baud_divisors
1503:../src/platform/drivers/mss/mss_mmuart/mss_uart.c **** (
1504:../src/platform/drivers/mss/mss_mmuart/mss_uart.c ****     mss_uart_instance_t * this_uart,
1505:../src/platform/drivers/mss/mss_mmuart/mss_uart.c ****     uint32_t baudrate
1506:../src/platform/drivers/mss/mss_mmuart/mss_uart.c **** )
1507:../src/platform/drivers/mss/mss_mmuart/mss_uart.c **** {
1508:../src/platform/drivers/mss/mss_mmuart/mss_uart.c ****     uint32_t baud_value;
1509:../src/platform/drivers/mss/mss_mmuart/mss_uart.c ****     uint32_t baud_value_by_64;
1510:../src/platform/drivers/mss/mss_mmuart/mss_uart.c ****     uint32_t baud_value_by_128;
1511:../src/platform/drivers/mss/mss_mmuart/mss_uart.c ****     uint32_t fractional_baud_value;
1512:../src/platform/drivers/mss/mss_mmuart/mss_uart.c ****     uint64_t pclk_freq;
1513:../src/platform/drivers/mss/mss_mmuart/mss_uart.c **** 
1514:../src/platform/drivers/mss/mss_mmuart/mss_uart.c ****     this_uart->baudrate = baudrate;
1515:../src/platform/drivers/mss/mss_mmuart/mss_uart.c **** 
1516:../src/platform/drivers/mss/mss_mmuart/mss_uart.c ****     pclk_freq = LIBERO_SETTING_MSS_APB_AHB_CLK;
1517:../src/platform/drivers/mss/mss_mmuart/mss_uart.c **** 
1518:../src/platform/drivers/mss/mss_mmuart/mss_uart.c ****     /*
1519:../src/platform/drivers/mss/mss_mmuart/mss_uart.c ****      * Compute baud value based on requested baud rate and PCLK frequency.
1520:../src/platform/drivers/mss/mss_mmuart/mss_uart.c ****      * The baud value is computed using the following equation:
1521:../src/platform/drivers/mss/mss_mmuart/mss_uart.c ****      *      baud_value = PCLK_Frequency / (baud_rate * 16)
1522:../src/platform/drivers/mss/mss_mmuart/mss_uart.c ****      */
1523:../src/platform/drivers/mss/mss_mmuart/mss_uart.c ****     baud_value_by_128 = (uint32_t)((8UL * pclk_freq) / baudrate);
  41              		.loc 1 1523 54
  42 0028 93960502 		slli	a3,a1,32
  43 002c 8192     		srli	a3,a3,32
  44              	.LBE5:
  45              	.LBE4:
1414:../src/platform/drivers/mss/mss_mmuart/mss_uart.c **** 
  46              		.loc 1 1414 28
  47 002e 23820700 		sb	zero,4(a5)
1417:../src/platform/drivers/mss/mss_mmuart/mss_uart.c **** 
  48              		.loc 1 1417 5 is_stmt 1
1417:../src/platform/drivers/mss/mss_mmuart/mss_uart.c **** 
  49              		.loc 1 1417 28 is_stmt 0
  50 0032 23840700 		sb	zero,8(a5)
1420:../src/platform/drivers/mss/mss_mmuart/mss_uart.c **** 
  51              		.loc 1 1420 5 is_stmt 1
1420:../src/platform/drivers/mss/mss_mmuart/mss_uart.c **** 
  52              		.loc 1 1420 28 is_stmt 0
  53 0036 03C78700 		lbu	a4,8(a5)
  54 003a 13672700 		ori	a4,a4,2
  55 003e 2384E700 		sb	a4,8(a5)
1423:../src/platform/drivers/mss/mss_mmuart/mss_uart.c **** 
  56              		.loc 1 1423 5 is_stmt 1
1423:../src/platform/drivers/mss/mss_mmuart/mss_uart.c **** 
  57              		.loc 1 1423 28 is_stmt 0
  58 0042 03C78700 		lbu	a4,8(a5)
  59 0046 13674700 		ori	a4,a4,4
  60 004a 2384E700 		sb	a4,8(a5)
1428:../src/platform/drivers/mss/mss_mmuart/mss_uart.c **** 
  61              		.loc 1 1428 5 is_stmt 1
1428:../src/platform/drivers/mss/mss_mmuart/mss_uart.c **** 
  62              		.loc 1 1428 28 is_stmt 0
  63 004e 03C78700 		lbu	a4,8(a5)
  64 0052 13671700 		ori	a4,a4,1
  65 0056 2384E700 		sb	a4,8(a5)
1431:../src/platform/drivers/mss/mss_mmuart/mss_uart.c **** 
  66              		.loc 1 1431 5 is_stmt 1
1431:../src/platform/drivers/mss/mss_mmuart/mss_uart.c **** 
  67              		.loc 1 1431 28 is_stmt 0
  68 005a 03C70701 		lbu	a4,16(a5)
  69 005e 1377F70E 		andi	a4,a4,239
  70 0062 2388E700 		sb	a4,16(a5)
1433:../src/platform/drivers/mss/mss_mmuart/mss_uart.c **** 
  71              		.loc 1 1433 5 is_stmt 1
1433:../src/platform/drivers/mss/mss_mmuart/mss_uart.c **** 
  72              		.loc 1 1433 28 is_stmt 0
  73 0066 03C70701 		lbu	a4,16(a5)
  74 006a 1377F70D 		andi	a4,a4,223
  75 006e 2388E700 		sb	a4,16(a5)
1436:../src/platform/drivers/mss/mss_mmuart/mss_uart.c **** 
  76              		.loc 1 1436 5 is_stmt 1
1436:../src/platform/drivers/mss/mss_mmuart/mss_uart.c **** 
  77              		.loc 1 1436 28 is_stmt 0
  78 0072 03C74703 		lbu	a4,52(a5)
  79 0076 1377D70F 		andi	a4,a4,253
  80 007a 238AE702 		sb	a4,52(a5)
1439:../src/platform/drivers/mss/mss_mmuart/mss_uart.c **** 
  81              		.loc 1 1439 5 is_stmt 1
1439:../src/platform/drivers/mss/mss_mmuart/mss_uart.c **** 
  82              		.loc 1 1439 28 is_stmt 0
  83 007e 03C74703 		lbu	a4,52(a5)
  84 0082 1377E70F 		andi	a4,a4,254
  85 0086 238AE702 		sb	a4,52(a5)
1442:../src/platform/drivers/mss/mss_mmuart/mss_uart.c **** 
  86              		.loc 1 1442 5 is_stmt 1
1442:../src/platform/drivers/mss/mss_mmuart/mss_uart.c **** 
  87              		.loc 1 1442 28 is_stmt 0
  88 008a 03C78703 		lbu	a4,56(a5)
  89 008e 1377D70F 		andi	a4,a4,253
  90 0092 238CE702 		sb	a4,56(a5)
1445:../src/platform/drivers/mss/mss_mmuart/mss_uart.c **** 
  91              		.loc 1 1445 5 is_stmt 1
1445:../src/platform/drivers/mss/mss_mmuart/mss_uart.c **** 
  92              		.loc 1 1445 28 is_stmt 0
  93 0096 03C70703 		lbu	a4,48(a5)
  94 009a 1377F70D 		andi	a4,a4,223
  95 009e 2388E702 		sb	a4,48(a5)
1448:../src/platform/drivers/mss/mss_mmuart/mss_uart.c **** 
  96              		.loc 1 1448 5 is_stmt 1
1448:../src/platform/drivers/mss/mss_mmuart/mss_uart.c **** 
  97              		.loc 1 1448 28 is_stmt 0
  98 00a2 03C70703 		lbu	a4,48(a5)
  99 00a6 1377F70B 		andi	a4,a4,191
 100 00aa 2388E702 		sb	a4,48(a5)
1451:../src/platform/drivers/mss/mss_mmuart/mss_uart.c **** 
 101              		.loc 1 1451 5 is_stmt 1
1451:../src/platform/drivers/mss/mss_mmuart/mss_uart.c **** 
 102              		.loc 1 1451 28 is_stmt 0
 103 00ae 03C70703 		lbu	a4,48(a5)
 104 00b2 1377F707 		andi	a4,a4,127
 105 00b6 2388E702 		sb	a4,48(a5)
1454:../src/platform/drivers/mss/mss_mmuart/mss_uart.c **** 
 106              		.loc 1 1454 5 is_stmt 1
1454:../src/platform/drivers/mss/mss_mmuart/mss_uart.c **** 
 107              		.loc 1 1454 28 is_stmt 0
 108 00ba 03C78703 		lbu	a4,56(a5)
 109 00be 1377770F 		andi	a4,a4,247
 110 00c2 238CE702 		sb	a4,56(a5)
1457:../src/platform/drivers/mss/mss_mmuart/mss_uart.c **** 
 111              		.loc 1 1457 5 is_stmt 1
 112              	.LBB9:
 113              	.LBB6:
 114              		.loc 1 1523 54 is_stmt 0
 115 00c6 37978647 		li	a4,1200001024
 116 00ca 130707C0 		addi	a4,a4,-1024
 117 00ce B356D702 		divu	a3,a4,a3
 118              	.LBE6:
 119              	.LBE9:
1457:../src/platform/drivers/mss/mss_mmuart/mss_uart.c **** 
 120              		.loc 1 1457 28
 121 00d2 23820704 		sb	zero,68(a5)
1460:../src/platform/drivers/mss/mss_mmuart/mss_uart.c **** 
 122              		.loc 1 1460 5 is_stmt 1
1460:../src/platform/drivers/mss/mss_mmuart/mss_uart.c **** 
 123              		.loc 1 1460 28 is_stmt 0
 124 00d6 23840704 		sb	zero,72(a5)
1463:../src/platform/drivers/mss/mss_mmuart/mss_uart.c ****     
 125              		.loc 1 1463 5 is_stmt 1
1463:../src/platform/drivers/mss/mss_mmuart/mss_uart.c ****     
 126              		.loc 1 1463 28 is_stmt 0
 127 00da 23860704 		sb	zero,76(a5)
1469:../src/platform/drivers/mss/mss_mmuart/mss_uart.c **** 
 128              		.loc 1 1469 5 is_stmt 1
 129              	.LVL1:
 130              	.LBB10:
 131              	.LBB7:
1508:../src/platform/drivers/mss/mss_mmuart/mss_uart.c ****     uint32_t baud_value_by_64;
 132              		.loc 1 1508 5
1509:../src/platform/drivers/mss/mss_mmuart/mss_uart.c ****     uint32_t baud_value_by_128;
 133              		.loc 1 1509 5
1510:../src/platform/drivers/mss/mss_mmuart/mss_uart.c ****     uint32_t fractional_baud_value;
 134              		.loc 1 1510 5
1511:../src/platform/drivers/mss/mss_mmuart/mss_uart.c ****     uint64_t pclk_freq;
 135              		.loc 1 1511 5
1512:../src/platform/drivers/mss/mss_mmuart/mss_uart.c **** 
 136              		.loc 1 1512 5
1514:../src/platform/drivers/mss/mss_mmuart/mss_uart.c **** 
 137              		.loc 1 1514 5
1514:../src/platform/drivers/mss/mss_mmuart/mss_uart.c **** 
 138              		.loc 1 1514 25 is_stmt 0
 139 00de 0CC5     		sw	a1,8(a0)
1516:../src/platform/drivers/mss/mss_mmuart/mss_uart.c **** 
 140              		.loc 1 1516 5 is_stmt 1
 141              	.LVL2:
 142              		.loc 1 1523 5
1524:../src/platform/drivers/mss/mss_mmuart/mss_uart.c ****     baud_value_by_64 = baud_value_by_128 / 2u;
 143              		.loc 1 1524 5
1525:../src/platform/drivers/mss/mss_mmuart/mss_uart.c ****     baud_value = baud_value_by_64 / 64u;
 144              		.loc 1 1525 5
1526:../src/platform/drivers/mss/mss_mmuart/mss_uart.c ****     fractional_baud_value = baud_value_by_64 - (baud_value * 64u);
 145              		.loc 1 1526 5
1527:../src/platform/drivers/mss/mss_mmuart/mss_uart.c ****     fractional_baud_value += (baud_value_by_128 - (baud_value * 128u))
 146              		.loc 1 1527 5
1528:../src/platform/drivers/mss/mss_mmuart/mss_uart.c ****                              - (fractional_baud_value * 2u);
1529:../src/platform/drivers/mss/mss_mmuart/mss_uart.c **** 
1530:../src/platform/drivers/mss/mss_mmuart/mss_uart.c ****     /* Assert if integer baud value fits in 16-bit. */
1531:../src/platform/drivers/mss/mss_mmuart/mss_uart.c ****     ASSERT(baud_value <= UINT16_MAX);
 147              		.loc 1 1531 37
1532:../src/platform/drivers/mss/mss_mmuart/mss_uart.c **** 
1533:../src/platform/drivers/mss/mss_mmuart/mss_uart.c ****     if (baud_value <= (uint32_t)UINT16_MAX)
 148              		.loc 1 1533 5
 149              		.loc 1 1533 8 is_stmt 0
 150 00e0 37078000 		li	a4,8388608
 151 00e4 63F4E606 		bgeu	a3,a4,.L12
1534:../src/platform/drivers/mss/mss_mmuart/mss_uart.c ****     {
1535:../src/platform/drivers/mss/mss_mmuart/mss_uart.c ****         if (baud_value > 1u)
 152              		.loc 1 1535 9 is_stmt 1
1523:../src/platform/drivers/mss/mss_mmuart/mss_uart.c ****     baud_value_by_64 = baud_value_by_128 / 2u;
 153              		.loc 1 1523 23 is_stmt 0
 154 00e8 1B870600 		sext.w	a4,a3
1525:../src/platform/drivers/mss/mss_mmuart/mss_uart.c ****     fractional_baud_value = baud_value_by_64 - (baud_value * 64u);
 155              		.loc 1 1525 16
 156 00ec 9B587700 		srliw	a7,a4,7
 157 00f0 1B58F700 		srliw	a6,a4,15
 158              		.loc 1 1535 12
 159 00f4 130EF00F 		li	t3,255
 160 00f8 1378F80F 		andi	a6,a6,0xff
 161 00fc 13F3F80F 		andi	t1,a7,0xff
 162 0100 637EDE1A 		bleu	a3,t3,.L13
1524:../src/platform/drivers/mss/mss_mmuart/mss_uart.c ****     baud_value = baud_value_by_64 / 64u;
 163              		.loc 1 1524 22
 164 0104 9B561700 		srliw	a3,a4,1
 165              	.LVL3:
1526:../src/platform/drivers/mss/mss_mmuart/mss_uart.c ****     fractional_baud_value += (baud_value_by_128 - (baud_value * 128u))
 166              		.loc 1 1526 60
 167 0108 9B986800 		slliw	a7,a7,6
1526:../src/platform/drivers/mss/mss_mmuart/mss_uart.c ****     fractional_baud_value += (baud_value_by_128 - (baud_value * 128u))
 168              		.loc 1 1526 27
 169 010c BB881641 		subw	a7,a3,a7
1536:../src/platform/drivers/mss/mss_mmuart/mss_uart.c ****         {
1537:../src/platform/drivers/mss/mss_mmuart/mss_uart.c ****             /* Use Fractional baud rate divisors */
1538:../src/platform/drivers/mss/mss_mmuart/mss_uart.c ****             /* set divisor latch */
1539:../src/platform/drivers/mss/mss_mmuart/mss_uart.c ****             this_uart->hw_reg->LCR |= DLAB_MASK;
 170              		.loc 1 1539 13 is_stmt 1
 171              		.loc 1 1539 36 is_stmt 0
 172 0110 83C6C700 		lbu	a3,12(a5)
 173 0114 1377F707 		andi	a4,a4,127
 174              	.LVL4:
1527:../src/platform/drivers/mss/mss_mmuart/mss_uart.c ****                              - (fractional_baud_value * 2u);
 175              		.loc 1 1527 27
 176 0118 3B071741 		subw	a4,a4,a7
 177              		.loc 1 1539 36
 178 011c 93E60608 		ori	a3,a3,128
 179 0120 2386D700 		sb	a3,12(a5)
1540:../src/platform/drivers/mss/mss_mmuart/mss_uart.c **** 
1541:../src/platform/drivers/mss/mss_mmuart/mss_uart.c ****             /* MSB of baud value */
1542:../src/platform/drivers/mss/mss_mmuart/mss_uart.c ****             this_uart->hw_reg->DMR = (uint8_t)(baud_value >> 8);
 180              		.loc 1 1542 13 is_stmt 1
 181              		.loc 1 1542 36 is_stmt 0
 182 0124 23820701 		sb	a6,4(a5)
1543:../src/platform/drivers/mss/mss_mmuart/mss_uart.c **** 
1544:../src/platform/drivers/mss/mss_mmuart/mss_uart.c ****             /* LSB of baud value */
1545:../src/platform/drivers/mss/mss_mmuart/mss_uart.c ****             this_uart->hw_reg->DLR = (uint8_t)baud_value;
 183              		.loc 1 1545 13 is_stmt 1
 184              		.loc 1 1545 36 is_stmt 0
 185 0128 23806700 		sb	t1,0(a5)
1546:../src/platform/drivers/mss/mss_mmuart/mss_uart.c **** 
1547:../src/platform/drivers/mss/mss_mmuart/mss_uart.c ****             /* reset divisor latch */
1548:../src/platform/drivers/mss/mss_mmuart/mss_uart.c ****             this_uart->hw_reg->LCR &= ~DLAB_MASK;
 186              		.loc 1 1548 13 is_stmt 1
 187              		.loc 1 1548 36 is_stmt 0
 188 012c 83C6C700 		lbu	a3,12(a5)
1549:../src/platform/drivers/mss/mss_mmuart/mss_uart.c **** 
1550:../src/platform/drivers/mss/mss_mmuart/mss_uart.c ****             /* Enable Fractional baud rate */
1551:../src/platform/drivers/mss/mss_mmuart/mss_uart.c ****             this_uart->hw_reg->MM0 |= EFBR_MASK;
1552:../src/platform/drivers/mss/mss_mmuart/mss_uart.c **** 
1553:../src/platform/drivers/mss/mss_mmuart/mss_uart.c ****             /* Load the fractional baud rate register */
1554:../src/platform/drivers/mss/mss_mmuart/mss_uart.c ****             ASSERT(fractional_baud_value <= (uint32_t)UINT8_MAX);
1555:../src/platform/drivers/mss/mss_mmuart/mss_uart.c ****             this_uart->hw_reg->DFR = (uint8_t)fractional_baud_value;
 189              		.loc 1 1555 38
 190 0130 1377F70F 		andi	a4,a4,0xff
1548:../src/platform/drivers/mss/mss_mmuart/mss_uart.c **** 
 191              		.loc 1 1548 36
 192 0134 93F6F607 		andi	a3,a3,127
 193 0138 2386D700 		sb	a3,12(a5)
1551:../src/platform/drivers/mss/mss_mmuart/mss_uart.c **** 
 194              		.loc 1 1551 13 is_stmt 1
1551:../src/platform/drivers/mss/mss_mmuart/mss_uart.c **** 
 195              		.loc 1 1551 36 is_stmt 0
 196 013c 83C60703 		lbu	a3,48(a5)
 197 0140 93E60608 		ori	a3,a3,128
 198 0144 2388D702 		sb	a3,48(a5)
1554:../src/platform/drivers/mss/mss_mmuart/mss_uart.c ****             this_uart->hw_reg->DFR = (uint8_t)fractional_baud_value;
 199              		.loc 1 1554 65 is_stmt 1
 200              		.loc 1 1555 13
 201              		.loc 1 1555 36 is_stmt 0
 202 0148 238EE702 		sb	a4,60(a5)
 203              	.L12:
 204              	.LVL5:
 205              	.LBE7:
 206              	.LBE10:
1472:../src/platform/drivers/mss/mss_mmuart/mss_uart.c **** 
 207              		.loc 1 1472 5 is_stmt 1
1472:../src/platform/drivers/mss/mss_mmuart/mss_uart.c **** 
 208              		.loc 1 1472 28 is_stmt 0
 209 014c 2386C700 		sb	a2,12(a5)
1475:../src/platform/drivers/mss/mss_mmuart/mss_uart.c ****     this_uart->lineconfig = line_config;
 210              		.loc 1 1475 5 is_stmt 1
1475:../src/platform/drivers/mss/mss_mmuart/mss_uart.c ****     this_uart->lineconfig = line_config;
 211              		.loc 1 1475 25 is_stmt 0
 212 0150 0CC5     		sw	a1,8(a0)
1476:../src/platform/drivers/mss/mss_mmuart/mss_uart.c ****     this_uart->tx_buff_size = TX_COMPLETE;
 213              		.loc 1 1476 5 is_stmt 1
1476:../src/platform/drivers/mss/mss_mmuart/mss_uart.c ****     this_uart->tx_buff_size = TX_COMPLETE;
 214              		.loc 1 1476 27 is_stmt 0
 215 0152 2306C500 		sb	a2,12(a0)
1477:../src/platform/drivers/mss/mss_mmuart/mss_uart.c ****     this_uart->tx_buffer = (const uint8_t*)0;
 216              		.loc 1 1477 5 is_stmt 1
1478:../src/platform/drivers/mss/mss_mmuart/mss_uart.c ****     this_uart->tx_idx = 0u;
 217              		.loc 1 1478 5
1479:../src/platform/drivers/mss/mss_mmuart/mss_uart.c **** 
 218              		.loc 1 1479 5
1482:../src/platform/drivers/mss/mss_mmuart/mss_uart.c ****     this_uart->tx_handler       = NULL_HANDLER;
 219              		.loc 1 1482 5
1483:../src/platform/drivers/mss/mss_mmuart/mss_uart.c ****     this_uart->linests_handler  = NULL_HANDLER;
 220              		.loc 1 1483 5
1484:../src/platform/drivers/mss/mss_mmuart/mss_uart.c ****     this_uart->modemsts_handler = NULL_HANDLER;
 221              		.loc 1 1484 5
1485:../src/platform/drivers/mss/mss_mmuart/mss_uart.c ****     this_uart->rto_handler      = NULL_HANDLER;    
 222              		.loc 1 1485 5
1486:../src/platform/drivers/mss/mss_mmuart/mss_uart.c ****     this_uart->nack_handler     = NULL_HANDLER;   
 223              		.loc 1 1486 5
1487:../src/platform/drivers/mss/mss_mmuart/mss_uart.c ****     this_uart->pid_pei_handler  = NULL_HANDLER;
 224              		.loc 1 1487 5
1488:../src/platform/drivers/mss/mss_mmuart/mss_uart.c ****     this_uart->break_handler    = NULL_HANDLER;    
 225              		.loc 1 1488 5
1489:../src/platform/drivers/mss/mss_mmuart/mss_uart.c ****     this_uart->sync_handler     = NULL_HANDLER;   
 226              		.loc 1 1489 5
1490:../src/platform/drivers/mss/mss_mmuart/mss_uart.c **** 
 227              		.loc 1 1490 5
1492:../src/platform/drivers/mss/mss_mmuart/mss_uart.c **** 
 228              		.loc 1 1492 5
1478:../src/platform/drivers/mss/mss_mmuart/mss_uart.c ****     this_uart->tx_idx = 0u;
 229              		.loc 1 1478 26 is_stmt 0
 230 0156 23380500 		sd	zero,16(a0)
1477:../src/platform/drivers/mss/mss_mmuart/mss_uart.c ****     this_uart->tx_buffer = (const uint8_t*)0;
 231              		.loc 1 1477 29
 232 015a 233C0500 		sd	zero,24(a0)
1484:../src/platform/drivers/mss/mss_mmuart/mss_uart.c ****     this_uart->modemsts_handler = NULL_HANDLER;
 233              		.loc 1 1484 33
 234 015e 23300502 		sd	zero,32(a0)
1482:../src/platform/drivers/mss/mss_mmuart/mss_uart.c ****     this_uart->tx_handler       = NULL_HANDLER;
 235              		.loc 1 1482 33
 236 0162 23340502 		sd	zero,40(a0)
1483:../src/platform/drivers/mss/mss_mmuart/mss_uart.c ****     this_uart->linests_handler  = NULL_HANDLER;
 237              		.loc 1 1483 33
 238 0166 23380502 		sd	zero,48(a0)
1485:../src/platform/drivers/mss/mss_mmuart/mss_uart.c ****     this_uart->rto_handler      = NULL_HANDLER;    
 239              		.loc 1 1485 33
 240 016a 233C0502 		sd	zero,56(a0)
1486:../src/platform/drivers/mss/mss_mmuart/mss_uart.c ****     this_uart->nack_handler     = NULL_HANDLER;   
 241              		.loc 1 1486 33
 242 016e 23300504 		sd	zero,64(a0)
1487:../src/platform/drivers/mss/mss_mmuart/mss_uart.c ****     this_uart->pid_pei_handler  = NULL_HANDLER;
 243              		.loc 1 1487 33
 244 0172 23340504 		sd	zero,72(a0)
1488:../src/platform/drivers/mss/mss_mmuart/mss_uart.c ****     this_uart->break_handler    = NULL_HANDLER;    
 245              		.loc 1 1488 33
 246 0176 23380504 		sd	zero,80(a0)
1489:../src/platform/drivers/mss/mss_mmuart/mss_uart.c ****     this_uart->sync_handler     = NULL_HANDLER;   
 247              		.loc 1 1489 33
 248 017a 233C0504 		sd	zero,88(a0)
1490:../src/platform/drivers/mss/mss_mmuart/mss_uart.c **** 
 249              		.loc 1 1490 33
 250 017e 23300506 		sd	zero,96(a0)
1492:../src/platform/drivers/mss/mss_mmuart/mss_uart.c **** 
 251              		.loc 1 1492 34
 252 0182 23040506 		sb	zero,104(a0)
1495:../src/platform/drivers/mss/mss_mmuart/mss_uart.c **** }
 253              		.loc 1 1495 5 is_stmt 1
1495:../src/platform/drivers/mss/mss_mmuart/mss_uart.c **** }
 254              		.loc 1 1495 23 is_stmt 0
 255 0186 A3060500 		sb	zero,13(a0)
1496:../src/platform/drivers/mss/mss_mmuart/mss_uart.c **** 
 256              		.loc 1 1496 1
 257 018a 8280     		ret
 258              	.LVL6:
 259              	.L2:
1354:../src/platform/drivers/mss/mss_mmuart/mss_uart.c ****     {
 260              		.loc 1 1354 10 is_stmt 1
1354:../src/platform/drivers/mss/mss_mmuart/mss_uart.c ****     {
 261              		.loc 1 1354 13 is_stmt 0
 262 018c 97070000 		lla	a5,g_mss_uart1_lo
 262      93870700 
 263 0194 631CF500 		bne	a0,a5,.L4
1357:../src/platform/drivers/mss/mss_mmuart/mss_uart.c ****         g_uart_axi_pos &= ~0x02u;
 264              		.loc 1 1357 9 is_stmt 1
1357:../src/platform/drivers/mss/mss_mmuart/mss_uart.c ****         g_uart_axi_pos &= ~0x02u;
 265              		.loc 1 1357 27 is_stmt 0
 266 0198 B7071020 		li	a5,537919488
 267 019c 1CE1     		sd	a5,0(a0)
1358:../src/platform/drivers/mss/mss_mmuart/mss_uart.c ****     }
 268              		.loc 1 1358 9 is_stmt 1
1358:../src/platform/drivers/mss/mss_mmuart/mss_uart.c ****     }
 269              		.loc 1 1358 24 is_stmt 0
 270 019e 97070000 		lla	a5,.LANCHOR0
 270      93870700 
 271 01a6 9C43     		lw	a5,0(a5)
 272 01a8 F59B     		andi	a5,a5,-3
 273 01aa 95BD     		j	.L14
 274              	.L4:
1361:../src/platform/drivers/mss/mss_mmuart/mss_uart.c ****     {
 275              		.loc 1 1361 10 is_stmt 1
1361:../src/platform/drivers/mss/mss_mmuart/mss_uart.c ****     {
 276              		.loc 1 1361 13 is_stmt 0
 277 01ac 97070000 		lla	a5,g_mss_uart2_lo
 277      93870700 
 278 01b4 631CF500 		bne	a0,a5,.L5
1363:../src/platform/drivers/mss/mss_mmuart/mss_uart.c ****         g_uart_axi_pos &= ~0x04u;
 279              		.loc 1 1363 9 is_stmt 1
1363:../src/platform/drivers/mss/mss_mmuart/mss_uart.c ****         g_uart_axi_pos &= ~0x04u;
 280              		.loc 1 1363 27 is_stmt 0
 281 01b8 B7271020 		li	a5,537927680
 282 01bc 1CE1     		sd	a5,0(a0)
1364:../src/platform/drivers/mss/mss_mmuart/mss_uart.c ****     }
 283              		.loc 1 1364 9 is_stmt 1
1364:../src/platform/drivers/mss/mss_mmuart/mss_uart.c ****     }
 284              		.loc 1 1364 24 is_stmt 0
 285 01be 97070000 		lla	a5,.LANCHOR0
 285      93870700 
 286 01c6 9C43     		lw	a5,0(a5)
 287 01c8 ED9B     		andi	a5,a5,-5
 288 01ca 91BD     		j	.L14
 289              	.L5:
1367:../src/platform/drivers/mss/mss_mmuart/mss_uart.c ****     {
 290              		.loc 1 1367 10 is_stmt 1
1367:../src/platform/drivers/mss/mss_mmuart/mss_uart.c ****     {
 291              		.loc 1 1367 13 is_stmt 0
 292 01cc 97070000 		lla	a5,g_mss_uart3_lo
 292      93870700 
 293 01d4 631CF500 		bne	a0,a5,.L6
1369:../src/platform/drivers/mss/mss_mmuart/mss_uart.c ****         g_uart_axi_pos &= ~0x08u;
 294              		.loc 1 1369 9 is_stmt 1
1369:../src/platform/drivers/mss/mss_mmuart/mss_uart.c ****         g_uart_axi_pos &= ~0x08u;
 295              		.loc 1 1369 27 is_stmt 0
 296 01d8 B7471020 		li	a5,537935872
 297 01dc 1CE1     		sd	a5,0(a0)
1370:../src/platform/drivers/mss/mss_mmuart/mss_uart.c ****     }
 298              		.loc 1 1370 9 is_stmt 1
1370:../src/platform/drivers/mss/mss_mmuart/mss_uart.c ****     }
 299              		.loc 1 1370 24 is_stmt 0
 300 01de 97070000 		lla	a5,.LANCHOR0
 300      93870700 
 301 01e6 9C43     		lw	a5,0(a5)
 302 01e8 DD9B     		andi	a5,a5,-9
 303 01ea 15BD     		j	.L14
 304              	.L6:
1373:../src/platform/drivers/mss/mss_mmuart/mss_uart.c ****     {
 305              		.loc 1 1373 10 is_stmt 1
1373:../src/platform/drivers/mss/mss_mmuart/mss_uart.c ****     {
 306              		.loc 1 1373 13 is_stmt 0
 307 01ec 97070000 		lla	a5,g_mss_uart4_lo
 307      93870700 
 308 01f4 631CF500 		bne	a0,a5,.L7
1375:../src/platform/drivers/mss/mss_mmuart/mss_uart.c ****         g_uart_axi_pos &= ~0x10u;
 309              		.loc 1 1375 9 is_stmt 1
1375:../src/platform/drivers/mss/mss_mmuart/mss_uart.c ****         g_uart_axi_pos &= ~0x10u;
 310              		.loc 1 1375 27 is_stmt 0
 311 01f8 B7671020 		li	a5,537944064
 312 01fc 1CE1     		sd	a5,0(a0)
1376:../src/platform/drivers/mss/mss_mmuart/mss_uart.c ****     }
 313              		.loc 1 1376 9 is_stmt 1
1376:../src/platform/drivers/mss/mss_mmuart/mss_uart.c ****     }
 314              		.loc 1 1376 24 is_stmt 0
 315 01fe 97070000 		lla	a5,.LANCHOR0
 315      93870700 
 316 0206 9C43     		lw	a5,0(a5)
 317 0208 BD9B     		andi	a5,a5,-17
 318 020a 11BD     		j	.L14
 319              	.L7:
1379:../src/platform/drivers/mss/mss_mmuart/mss_uart.c ****     {
 320              		.loc 1 1379 10 is_stmt 1
1379:../src/platform/drivers/mss/mss_mmuart/mss_uart.c ****     {
 321              		.loc 1 1379 13 is_stmt 0
 322 020c 97070000 		lla	a5,g_mss_uart0_hi
 322      93870700 
 323 0214 631DF500 		bne	a0,a5,.L8
1381:../src/platform/drivers/mss/mss_mmuart/mss_uart.c ****         g_uart_axi_pos |= 0x01u;
 324              		.loc 1 1381 9 is_stmt 1
1381:../src/platform/drivers/mss/mss_mmuart/mss_uart.c ****         g_uart_axi_pos |= 0x01u;
 325              		.loc 1 1381 27 is_stmt 0
 326 0218 B7070028 		li	a5,671088640
 327 021c 1CE1     		sd	a5,0(a0)
1382:../src/platform/drivers/mss/mss_mmuart/mss_uart.c ****     }
 328              		.loc 1 1382 9 is_stmt 1
1382:../src/platform/drivers/mss/mss_mmuart/mss_uart.c ****     }
 329              		.loc 1 1382 24 is_stmt 0
 330 021e 97070000 		lla	a5,.LANCHOR0
 330      93870700 
 331 0226 9C43     		lw	a5,0(a5)
 332 0228 93E71700 		ori	a5,a5,1
 333 022c CDBB     		j	.L14
 334              	.L8:
1385:../src/platform/drivers/mss/mss_mmuart/mss_uart.c ****     {
 335              		.loc 1 1385 10 is_stmt 1
1385:../src/platform/drivers/mss/mss_mmuart/mss_uart.c ****     {
 336              		.loc 1 1385 13 is_stmt 0
 337 022e 97070000 		lla	a5,g_mss_uart1_hi
 337      93870700 
 338 0236 631DF500 		bne	a0,a5,.L9
1387:../src/platform/drivers/mss/mss_mmuart/mss_uart.c ****         g_uart_axi_pos |= 0x02u;
 339              		.loc 1 1387 9 is_stmt 1
1387:../src/platform/drivers/mss/mss_mmuart/mss_uart.c ****         g_uart_axi_pos |= 0x02u;
 340              		.loc 1 1387 27 is_stmt 0
 341 023a B7071028 		li	a5,672137216
 342 023e 1CE1     		sd	a5,0(a0)
1388:../src/platform/drivers/mss/mss_mmuart/mss_uart.c ****     }
 343              		.loc 1 1388 9 is_stmt 1
1388:../src/platform/drivers/mss/mss_mmuart/mss_uart.c ****     }
 344              		.loc 1 1388 24 is_stmt 0
 345 0240 97070000 		lla	a5,.LANCHOR0
 345      93870700 
 346 0248 9C43     		lw	a5,0(a5)
 347 024a 93E72700 		ori	a5,a5,2
 348 024e C1BB     		j	.L14
 349              	.L9:
1391:../src/platform/drivers/mss/mss_mmuart/mss_uart.c ****     {
 350              		.loc 1 1391 10 is_stmt 1
1391:../src/platform/drivers/mss/mss_mmuart/mss_uart.c ****     {
 351              		.loc 1 1391 13 is_stmt 0
 352 0250 97070000 		lla	a5,g_mss_uart2_hi
 352      93870700 
 353 0258 631DF500 		bne	a0,a5,.L10
1393:../src/platform/drivers/mss/mss_mmuart/mss_uart.c ****         g_uart_axi_pos |= 0x04u;
 354              		.loc 1 1393 9 is_stmt 1
1393:../src/platform/drivers/mss/mss_mmuart/mss_uart.c ****         g_uart_axi_pos |= 0x04u;
 355              		.loc 1 1393 27 is_stmt 0
 356 025c B7271028 		li	a5,672145408
 357 0260 1CE1     		sd	a5,0(a0)
1394:../src/platform/drivers/mss/mss_mmuart/mss_uart.c ****     }
 358              		.loc 1 1394 9 is_stmt 1
1394:../src/platform/drivers/mss/mss_mmuart/mss_uart.c ****     }
 359              		.loc 1 1394 24 is_stmt 0
 360 0262 97070000 		lla	a5,.LANCHOR0
 360      93870700 
 361 026a 9C43     		lw	a5,0(a5)
 362 026c 93E74700 		ori	a5,a5,4
 363 0270 7DB3     		j	.L14
 364              	.L10:
1397:../src/platform/drivers/mss/mss_mmuart/mss_uart.c ****     {
 365              		.loc 1 1397 10 is_stmt 1
1397:../src/platform/drivers/mss/mss_mmuart/mss_uart.c ****     {
 366              		.loc 1 1397 13 is_stmt 0
 367 0272 97070000 		lla	a5,g_mss_uart3_hi
 367      93870700 
 368 027a 631DF500 		bne	a0,a5,.L11
1399:../src/platform/drivers/mss/mss_mmuart/mss_uart.c ****         g_uart_axi_pos |= 0x08u;
 369              		.loc 1 1399 9 is_stmt 1
1399:../src/platform/drivers/mss/mss_mmuart/mss_uart.c ****         g_uart_axi_pos |= 0x08u;
 370              		.loc 1 1399 27 is_stmt 0
 371 027e B7471028 		li	a5,672153600
 372 0282 1CE1     		sd	a5,0(a0)
1400:../src/platform/drivers/mss/mss_mmuart/mss_uart.c ****     }
 373              		.loc 1 1400 9 is_stmt 1
1400:../src/platform/drivers/mss/mss_mmuart/mss_uart.c ****     }
 374              		.loc 1 1400 24 is_stmt 0
 375 0284 97070000 		lla	a5,.LANCHOR0
 375      93870700 
 376 028c 9C43     		lw	a5,0(a5)
 377 028e 93E78700 		ori	a5,a5,8
 378 0292 71B3     		j	.L14
 379              	.L11:
1403:../src/platform/drivers/mss/mss_mmuart/mss_uart.c ****     {
 380              		.loc 1 1403 10 is_stmt 1
1403:../src/platform/drivers/mss/mss_mmuart/mss_uart.c ****     {
 381              		.loc 1 1403 13 is_stmt 0
 382 0294 97070000 		lla	a5,g_mss_uart4_hi
 382      93870700 
 383 029c E315F5D8 		bne	a0,a5,.L3
1405:../src/platform/drivers/mss/mss_mmuart/mss_uart.c ****         g_uart_axi_pos |= 0x10u;
 384              		.loc 1 1405 9 is_stmt 1
1405:../src/platform/drivers/mss/mss_mmuart/mss_uart.c ****         g_uart_axi_pos |= 0x10u;
 385              		.loc 1 1405 27 is_stmt 0
 386 02a0 B7671028 		li	a5,672161792
 387 02a4 17070000 		sd	a5,g_mss_uart4_hi,a4
 387      2330F700 
1406:../src/platform/drivers/mss/mss_mmuart/mss_uart.c ****     }
 388              		.loc 1 1406 9 is_stmt 1
1406:../src/platform/drivers/mss/mss_mmuart/mss_uart.c ****     }
 389              		.loc 1 1406 24 is_stmt 0
 390 02ac 97070000 		lla	a5,.LANCHOR0
 390      93870700 
 391 02b4 9C43     		lw	a5,0(a5)
 392 02b6 93E70701 		ori	a5,a5,16
 393 02ba 95B3     		j	.L14
 394              	.LVL7:
 395              	.L13:
 396              	.LBB11:
 397              	.LBB8:
1556:../src/platform/drivers/mss/mss_mmuart/mss_uart.c ****         }
1557:../src/platform/drivers/mss/mss_mmuart/mss_uart.c ****         else
1558:../src/platform/drivers/mss/mss_mmuart/mss_uart.c ****         {
1559:../src/platform/drivers/mss/mss_mmuart/mss_uart.c ****             /* Do NOT use Fractional baud rate divisors. */
1560:../src/platform/drivers/mss/mss_mmuart/mss_uart.c ****             /* set divisor latch */
1561:../src/platform/drivers/mss/mss_mmuart/mss_uart.c ****             this_uart->hw_reg->LCR |= DLAB_MASK;
 398              		.loc 1 1561 13 is_stmt 1
 399              		.loc 1 1561 36 is_stmt 0
 400 02bc 03C7C700 		lbu	a4,12(a5)
 401 02c0 13670708 		ori	a4,a4,128
 402 02c4 2386E700 		sb	a4,12(a5)
1562:../src/platform/drivers/mss/mss_mmuart/mss_uart.c **** 
1563:../src/platform/drivers/mss/mss_mmuart/mss_uart.c ****             /* MSB of baud value */
1564:../src/platform/drivers/mss/mss_mmuart/mss_uart.c ****             this_uart->hw_reg->DMR = (uint8_t)(baud_value >> 8u);
 403              		.loc 1 1564 13 is_stmt 1
 404              		.loc 1 1564 36 is_stmt 0
 405 02c8 23820701 		sb	a6,4(a5)
1565:../src/platform/drivers/mss/mss_mmuart/mss_uart.c **** 
1566:../src/platform/drivers/mss/mss_mmuart/mss_uart.c ****             /* LSB of baud value */
1567:../src/platform/drivers/mss/mss_mmuart/mss_uart.c ****             this_uart->hw_reg->DLR = (uint8_t)baud_value;
 406              		.loc 1 1567 13 is_stmt 1
 407              		.loc 1 1567 36 is_stmt 0
 408 02cc 23806700 		sb	t1,0(a5)
1568:../src/platform/drivers/mss/mss_mmuart/mss_uart.c **** 
1569:../src/platform/drivers/mss/mss_mmuart/mss_uart.c ****             /* reset divisor latch */
1570:../src/platform/drivers/mss/mss_mmuart/mss_uart.c ****             this_uart->hw_reg->LCR &= ~DLAB_MASK;
 409              		.loc 1 1570 13 is_stmt 1
 410              		.loc 1 1570 36 is_stmt 0
 411 02d0 03C7C700 		lbu	a4,12(a5)
 412 02d4 1377F707 		andi	a4,a4,127
 413 02d8 2386E700 		sb	a4,12(a5)
1571:../src/platform/drivers/mss/mss_mmuart/mss_uart.c **** 
1572:../src/platform/drivers/mss/mss_mmuart/mss_uart.c ****             /* Disable Fractional baud rate */
1573:../src/platform/drivers/mss/mss_mmuart/mss_uart.c ****             this_uart->hw_reg->MM0 &= ~EFBR_MASK;
 414              		.loc 1 1573 13 is_stmt 1
 415              		.loc 1 1573 36 is_stmt 0
 416 02dc 03C70703 		lbu	a4,48(a5)
 417 02e0 1377F707 		andi	a4,a4,127
 418 02e4 2388E702 		sb	a4,48(a5)
 419 02e8 95B5     		j	.L12
 420              	.LBE8:
 421              	.LBE11:
 422              		.cfi_endproc
 423              	.LFE73:
 425              		.section	.text.uart_isr,"ax",@progbits
 426              		.align	1
 428              	uart_isr:
 429              	.LFB75:
1574:../src/platform/drivers/mss/mss_mmuart/mss_uart.c ****         }
1575:../src/platform/drivers/mss/mss_mmuart/mss_uart.c ****     }
1576:../src/platform/drivers/mss/mss_mmuart/mss_uart.c **** }
1577:../src/platform/drivers/mss/mss_mmuart/mss_uart.c **** 
1578:../src/platform/drivers/mss/mss_mmuart/mss_uart.c **** /***************************************************************************//**
1579:../src/platform/drivers/mss/mss_mmuart/mss_uart.c ****  * Interrupt service routine triggered by any MSS UART interrupt. This routine
1580:../src/platform/drivers/mss/mss_mmuart/mss_uart.c ****  * will call the handler function appropriate to the interrupt from the
1581:../src/platform/drivers/mss/mss_mmuart/mss_uart.c ****  * handlers previously registered with the driver through calls to the
1582:../src/platform/drivers/mss/mss_mmuart/mss_uart.c ****  * MSS_UART_set_*_handler() functions, or it will call the default_tx_handler()
1583:../src/platform/drivers/mss/mss_mmuart/mss_uart.c ****  * function in response to transmit interrupts if MSS_UART_irq_tx() is used to
1584:../src/platform/drivers/mss/mss_mmuart/mss_uart.c ****  * transmit data.
1585:../src/platform/drivers/mss/mss_mmuart/mss_uart.c ****  */
1586:../src/platform/drivers/mss/mss_mmuart/mss_uart.c **** static void
1587:../src/platform/drivers/mss/mss_mmuart/mss_uart.c **** uart_isr
1588:../src/platform/drivers/mss/mss_mmuart/mss_uart.c **** (
1589:../src/platform/drivers/mss/mss_mmuart/mss_uart.c ****     mss_uart_instance_t * this_uart
1590:../src/platform/drivers/mss/mss_mmuart/mss_uart.c **** )
1591:../src/platform/drivers/mss/mss_mmuart/mss_uart.c **** {
 430              		.loc 1 1591 1 is_stmt 1
 431              		.cfi_startproc
 432              	.LVL8:
1592:../src/platform/drivers/mss/mss_mmuart/mss_uart.c ****     uint8_t iirf;
 433              		.loc 1 1592 5
1593:../src/platform/drivers/mss/mss_mmuart/mss_uart.c **** 
1594:../src/platform/drivers/mss/mss_mmuart/mss_uart.c ****     iirf = this_uart->hw_reg->IIR & IIRF_MASK;
 434              		.loc 1 1594 5
 435              		.loc 1 1594 21 is_stmt 0
 436 0000 1861     		ld	a4,0(a0)
1595:../src/platform/drivers/mss/mss_mmuart/mss_uart.c **** 
1596:../src/platform/drivers/mss/mss_mmuart/mss_uart.c ****     switch (iirf)
 437              		.loc 1 1596 5
 438 0002 B146     		li	a3,12
1594:../src/platform/drivers/mss/mss_mmuart/mss_uart.c **** 
 439              		.loc 1 1594 29
 440 0004 83478700 		lbu	a5,8(a4)
 441              	.LVL9:
 442              		.loc 1 1596 5 is_stmt 1
 443 0008 BD8B     		andi	a5,a5,15
 444              	.LVL10:
 445 000a 63E1F60A 		bgtu	a5,a3,.L69
 446 000e 97060000 		lla	a3,.L18
 446      93860600 
 447 0016 8A07     		slli	a5,a5,2
 448 0018 B697     		add	a5,a5,a3
 449 001a 9C43     		lw	a5,0(a5)
 450 001c B697     		add	a5,a5,a3
 451 001e 8287     		jr	a5
 452              		.section	.rodata.uart_isr,"a",@progbits
 453              		.align	2
 454              		.align	2
 455              	.L18:
 456 0000 00000000 		.word	.L22-.L18
 457 0004 00000000 		.word	.L69-.L18
 458 0008 00000000 		.word	.L21-.L18
 459 000c 00000000 		.word	.L20-.L18
 460 0010 00000000 		.word	.L17-.L18
 461 0014 00000000 		.word	.L69-.L18
 462 0018 00000000 		.word	.L19-.L18
 463 001c 00000000 		.word	.L69-.L18
 464 0020 00000000 		.word	.L69-.L18
 465 0024 00000000 		.word	.L69-.L18
 466 0028 00000000 		.word	.L69-.L18
 467 002c 00000000 		.word	.L69-.L18
 468 0030 00000000 		.word	.L17-.L18
 469              		.section	.text.uart_isr
 470              	.L22:
1597:../src/platform/drivers/mss/mss_mmuart/mss_uart.c ****     {
1598:../src/platform/drivers/mss/mss_mmuart/mss_uart.c ****         case IIRF_MODEM_STATUS:  /* Modem status interrupt */
1599:../src/platform/drivers/mss/mss_mmuart/mss_uart.c ****         {
1600:../src/platform/drivers/mss/mss_mmuart/mss_uart.c ****             ASSERT(NULL_HANDLER != this_uart->modemsts_handler);
 471              		.loc 1 1600 64
1601:../src/platform/drivers/mss/mss_mmuart/mss_uart.c ****             if (NULL_HANDLER != this_uart->modemsts_handler)
 472              		.loc 1 1601 13
 473              		.loc 1 1601 42 is_stmt 0
 474 0020 03338503 		ld	t1,56(a0)
 475              	.L77:
1602:../src/platform/drivers/mss/mss_mmuart/mss_uart.c ****             {
1603:../src/platform/drivers/mss/mss_mmuart/mss_uart.c ****                (*(this_uart->modemsts_handler))(this_uart);
1604:../src/platform/drivers/mss/mss_mmuart/mss_uart.c ****             }
1605:../src/platform/drivers/mss/mss_mmuart/mss_uart.c ****         }
1606:../src/platform/drivers/mss/mss_mmuart/mss_uart.c ****         break;
1607:../src/platform/drivers/mss/mss_mmuart/mss_uart.c **** 
1608:../src/platform/drivers/mss/mss_mmuart/mss_uart.c ****         case IIRF_THRE: /* Transmitter Holding Register Empty */
1609:../src/platform/drivers/mss/mss_mmuart/mss_uart.c ****         {
1610:../src/platform/drivers/mss/mss_mmuart/mss_uart.c ****             ASSERT(NULL_HANDLER != this_uart->tx_handler);
1611:../src/platform/drivers/mss/mss_mmuart/mss_uart.c ****             if (NULL_HANDLER != this_uart->tx_handler)
1612:../src/platform/drivers/mss/mss_mmuart/mss_uart.c ****             {
1613:../src/platform/drivers/mss/mss_mmuart/mss_uart.c ****                 (*(this_uart->tx_handler))(this_uart);
1614:../src/platform/drivers/mss/mss_mmuart/mss_uart.c ****             }
1615:../src/platform/drivers/mss/mss_mmuart/mss_uart.c ****         }
1616:../src/platform/drivers/mss/mss_mmuart/mss_uart.c ****         break;
1617:../src/platform/drivers/mss/mss_mmuart/mss_uart.c **** 
1618:../src/platform/drivers/mss/mss_mmuart/mss_uart.c ****         case IIRF_RX_DATA:      /* Received Data Available */
1619:../src/platform/drivers/mss/mss_mmuart/mss_uart.c ****         case IIRF_DATA_TIMEOUT: /* Received Data Timed-out */
1620:../src/platform/drivers/mss/mss_mmuart/mss_uart.c ****         {
1621:../src/platform/drivers/mss/mss_mmuart/mss_uart.c ****             ASSERT(NULL_HANDLER != this_uart->rx_handler);
1622:../src/platform/drivers/mss/mss_mmuart/mss_uart.c ****             if (NULL_HANDLER != this_uart->rx_handler)
1623:../src/platform/drivers/mss/mss_mmuart/mss_uart.c ****             {
1624:../src/platform/drivers/mss/mss_mmuart/mss_uart.c ****                 (*(this_uart->rx_handler))(this_uart);
1625:../src/platform/drivers/mss/mss_mmuart/mss_uart.c ****             }
1626:../src/platform/drivers/mss/mss_mmuart/mss_uart.c ****         }
1627:../src/platform/drivers/mss/mss_mmuart/mss_uart.c ****         break;
1628:../src/platform/drivers/mss/mss_mmuart/mss_uart.c **** 
1629:../src/platform/drivers/mss/mss_mmuart/mss_uart.c ****         case IIRF_RX_LINE_STATUS:  /* Line Status Interrupt */
1630:../src/platform/drivers/mss/mss_mmuart/mss_uart.c ****         {
1631:../src/platform/drivers/mss/mss_mmuart/mss_uart.c ****             ASSERT(NULL_HANDLER != this_uart->linests_handler);
1632:../src/platform/drivers/mss/mss_mmuart/mss_uart.c ****             if (NULL_HANDLER != this_uart->linests_handler)
 476              		.loc 1 1632 16
 477 0024 63040308 		beq	t1,zero,.L69
 478              	.L71:
1633:../src/platform/drivers/mss/mss_mmuart/mss_uart.c ****             {
1634:../src/platform/drivers/mss/mss_mmuart/mss_uart.c ****                (*(this_uart->linests_handler))(this_uart);
1635:../src/platform/drivers/mss/mss_mmuart/mss_uart.c ****             }
1636:../src/platform/drivers/mss/mss_mmuart/mss_uart.c ****         }
1637:../src/platform/drivers/mss/mss_mmuart/mss_uart.c ****         break;
1638:../src/platform/drivers/mss/mss_mmuart/mss_uart.c **** 
1639:../src/platform/drivers/mss/mss_mmuart/mss_uart.c ****         case IIRF_MMI:
1640:../src/platform/drivers/mss/mss_mmuart/mss_uart.c ****         {
1641:../src/platform/drivers/mss/mss_mmuart/mss_uart.c ****             /* Identify multi-mode interrupts and handle */
1642:../src/platform/drivers/mss/mss_mmuart/mss_uart.c **** 
1643:../src/platform/drivers/mss/mss_mmuart/mss_uart.c ****             /* Receiver time-out interrupt */
1644:../src/platform/drivers/mss/mss_mmuart/mss_uart.c ****             if (this_uart->hw_reg->IIM & ERTOI_MASK)
1645:../src/platform/drivers/mss/mss_mmuart/mss_uart.c ****             {
1646:../src/platform/drivers/mss/mss_mmuart/mss_uart.c ****                 ASSERT(NULL_HANDLER != this_uart->rto_handler);
1647:../src/platform/drivers/mss/mss_mmuart/mss_uart.c **** 
1648:../src/platform/drivers/mss/mss_mmuart/mss_uart.c ****                 if (NULL_HANDLER != this_uart->rto_handler)
1649:../src/platform/drivers/mss/mss_mmuart/mss_uart.c ****                 {
1650:../src/platform/drivers/mss/mss_mmuart/mss_uart.c ****                     (*(this_uart->rto_handler))(this_uart);
1651:../src/platform/drivers/mss/mss_mmuart/mss_uart.c ****                 }
1652:../src/platform/drivers/mss/mss_mmuart/mss_uart.c ****             }
1653:../src/platform/drivers/mss/mss_mmuart/mss_uart.c **** 
1654:../src/platform/drivers/mss/mss_mmuart/mss_uart.c ****             /* NACK interrupt */
1655:../src/platform/drivers/mss/mss_mmuart/mss_uart.c ****             if (this_uart->hw_reg->IIM & ENACKI_MASK)
1656:../src/platform/drivers/mss/mss_mmuart/mss_uart.c ****             {
1657:../src/platform/drivers/mss/mss_mmuart/mss_uart.c ****                 ASSERT(NULL_HANDLER != this_uart->nack_handler);
1658:../src/platform/drivers/mss/mss_mmuart/mss_uart.c **** 
1659:../src/platform/drivers/mss/mss_mmuart/mss_uart.c ****                 if (NULL_HANDLER != this_uart->nack_handler)
1660:../src/platform/drivers/mss/mss_mmuart/mss_uart.c ****                 {
1661:../src/platform/drivers/mss/mss_mmuart/mss_uart.c ****                     (*(this_uart->nack_handler))(this_uart);
1662:../src/platform/drivers/mss/mss_mmuart/mss_uart.c ****                 }
1663:../src/platform/drivers/mss/mss_mmuart/mss_uart.c ****             }
1664:../src/platform/drivers/mss/mss_mmuart/mss_uart.c **** 
1665:../src/platform/drivers/mss/mss_mmuart/mss_uart.c ****             /* PID parity error interrupt */
1666:../src/platform/drivers/mss/mss_mmuart/mss_uart.c ****             if (this_uart->hw_reg->IIM & EPID_PEI_MASK)
1667:../src/platform/drivers/mss/mss_mmuart/mss_uart.c ****             {
1668:../src/platform/drivers/mss/mss_mmuart/mss_uart.c ****                 ASSERT(NULL_HANDLER != this_uart->pid_pei_handler);
1669:../src/platform/drivers/mss/mss_mmuart/mss_uart.c **** 
1670:../src/platform/drivers/mss/mss_mmuart/mss_uart.c ****                 if (NULL_HANDLER != this_uart->pid_pei_handler)
1671:../src/platform/drivers/mss/mss_mmuart/mss_uart.c ****                 {
1672:../src/platform/drivers/mss/mss_mmuart/mss_uart.c ****                     (*(this_uart->pid_pei_handler))(this_uart);
1673:../src/platform/drivers/mss/mss_mmuart/mss_uart.c ****                 }
1674:../src/platform/drivers/mss/mss_mmuart/mss_uart.c ****             }
1675:../src/platform/drivers/mss/mss_mmuart/mss_uart.c **** 
1676:../src/platform/drivers/mss/mss_mmuart/mss_uart.c ****             /* LIN break detection interrupt */
1677:../src/platform/drivers/mss/mss_mmuart/mss_uart.c ****             if (this_uart->hw_reg->IIM & ELINBI_MASK)
1678:../src/platform/drivers/mss/mss_mmuart/mss_uart.c ****             {
1679:../src/platform/drivers/mss/mss_mmuart/mss_uart.c ****                 ASSERT(NULL_HANDLER != this_uart->break_handler);
1680:../src/platform/drivers/mss/mss_mmuart/mss_uart.c **** 
1681:../src/platform/drivers/mss/mss_mmuart/mss_uart.c ****                 if (NULL_HANDLER != this_uart->break_handler)
1682:../src/platform/drivers/mss/mss_mmuart/mss_uart.c ****                 {
1683:../src/platform/drivers/mss/mss_mmuart/mss_uart.c ****                     (*(this_uart->break_handler))(this_uart);
1684:../src/platform/drivers/mss/mss_mmuart/mss_uart.c ****                 }
1685:../src/platform/drivers/mss/mss_mmuart/mss_uart.c ****             }
1686:../src/platform/drivers/mss/mss_mmuart/mss_uart.c **** 
1687:../src/platform/drivers/mss/mss_mmuart/mss_uart.c ****             /* LIN Sync detection interrupt */
1688:../src/platform/drivers/mss/mss_mmuart/mss_uart.c ****             if (this_uart->hw_reg->IIM & ELINSI_MASK)
1689:../src/platform/drivers/mss/mss_mmuart/mss_uart.c ****             {
1690:../src/platform/drivers/mss/mss_mmuart/mss_uart.c ****                 ASSERT(NULL_HANDLER != this_uart->sync_handler);
1691:../src/platform/drivers/mss/mss_mmuart/mss_uart.c **** 
1692:../src/platform/drivers/mss/mss_mmuart/mss_uart.c ****                 if (NULL_HANDLER != this_uart->sync_handler)
1693:../src/platform/drivers/mss/mss_mmuart/mss_uart.c ****                 {
1694:../src/platform/drivers/mss/mss_mmuart/mss_uart.c ****                     (*(this_uart->sync_handler))(this_uart);
 479              		.loc 1 1694 22
 480 0028 0283     		jr	t1
 481              	.LVL11:
 482              	.L21:
1610:../src/platform/drivers/mss/mss_mmuart/mss_uart.c ****             if (NULL_HANDLER != this_uart->tx_handler)
 483              		.loc 1 1610 58 is_stmt 1
1611:../src/platform/drivers/mss/mss_mmuart/mss_uart.c ****             {
 484              		.loc 1 1611 13
1611:../src/platform/drivers/mss/mss_mmuart/mss_uart.c ****             {
 485              		.loc 1 1611 42 is_stmt 0
 486 002a 03330503 		ld	t1,48(a0)
 487 002e DDBF     		j	.L77
 488              	.L17:
1621:../src/platform/drivers/mss/mss_mmuart/mss_uart.c ****             if (NULL_HANDLER != this_uart->rx_handler)
 489              		.loc 1 1621 58 is_stmt 1
1622:../src/platform/drivers/mss/mss_mmuart/mss_uart.c ****             {
 490              		.loc 1 1622 13
1622:../src/platform/drivers/mss/mss_mmuart/mss_uart.c ****             {
 491              		.loc 1 1622 42 is_stmt 0
 492 0030 03338502 		ld	t1,40(a0)
 493 0034 C5BF     		j	.L77
 494              	.L19:
1631:../src/platform/drivers/mss/mss_mmuart/mss_uart.c ****             if (NULL_HANDLER != this_uart->linests_handler)
 495              		.loc 1 1631 63 is_stmt 1
1632:../src/platform/drivers/mss/mss_mmuart/mss_uart.c ****             {
 496              		.loc 1 1632 13
1632:../src/platform/drivers/mss/mss_mmuart/mss_uart.c ****             {
 497              		.loc 1 1632 42 is_stmt 0
 498 0036 03330502 		ld	t1,32(a0)
 499 003a EDB7     		j	.L77
 500              	.L20:
1591:../src/platform/drivers/mss/mss_mmuart/mss_uart.c ****     uint8_t iirf;
 501              		.loc 1 1591 1
 502 003c 4111     		addi	sp,sp,-16
 503              		.cfi_def_cfa_offset 16
 504 003e 22E0     		sd	s0,0(sp)
 505 0040 06E4     		sd	ra,8(sp)
 506              		.cfi_offset 8, -16
 507              		.cfi_offset 1, -8
1644:../src/platform/drivers/mss/mss_mmuart/mss_uart.c ****             {
 508              		.loc 1 1644 34
 509 0042 83478702 		lbu	a5,40(a4)
 510 0046 2A84     		mv	s0,a0
1644:../src/platform/drivers/mss/mss_mmuart/mss_uart.c ****             {
 511              		.loc 1 1644 13 is_stmt 1
1644:../src/platform/drivers/mss/mss_mmuart/mss_uart.c ****             {
 512              		.loc 1 1644 16 is_stmt 0
 513 0048 858B     		andi	a5,a5,1
 514 004a 81C7     		beq	a5,zero,.L25
 515              	.LVL12:
1646:../src/platform/drivers/mss/mss_mmuart/mss_uart.c **** 
 516              		.loc 1 1646 63 is_stmt 1
1648:../src/platform/drivers/mss/mss_mmuart/mss_uart.c ****                 {
 517              		.loc 1 1648 17
1648:../src/platform/drivers/mss/mss_mmuart/mss_uart.c ****                 {
 518              		.loc 1 1648 46 is_stmt 0
 519 004c 3C61     		ld	a5,64(a0)
1648:../src/platform/drivers/mss/mss_mmuart/mss_uart.c ****                 {
 520              		.loc 1 1648 20
 521 004e 91C3     		beq	a5,zero,.L25
1650:../src/platform/drivers/mss/mss_mmuart/mss_uart.c ****                 }
 522              		.loc 1 1650 21 is_stmt 1
1650:../src/platform/drivers/mss/mss_mmuart/mss_uart.c ****                 }
 523              		.loc 1 1650 22 is_stmt 0
 524 0050 8297     		jalr	a5
 525              	.LVL13:
 526              	.L25:
1655:../src/platform/drivers/mss/mss_mmuart/mss_uart.c ****             {
 527              		.loc 1 1655 13 is_stmt 1
1655:../src/platform/drivers/mss/mss_mmuart/mss_uart.c ****             {
 528              		.loc 1 1655 26 is_stmt 0
 529 0052 1C60     		ld	a5,0(s0)
1655:../src/platform/drivers/mss/mss_mmuart/mss_uart.c ****             {
 530              		.loc 1 1655 34
 531 0054 83C78702 		lbu	a5,40(a5)
1655:../src/platform/drivers/mss/mss_mmuart/mss_uart.c ****             {
 532              		.loc 1 1655 16
 533 0058 898B     		andi	a5,a5,2
 534 005a 89C7     		beq	a5,zero,.L26
1657:../src/platform/drivers/mss/mss_mmuart/mss_uart.c **** 
 535              		.loc 1 1657 64 is_stmt 1
1659:../src/platform/drivers/mss/mss_mmuart/mss_uart.c ****                 {
 536              		.loc 1 1659 17
1659:../src/platform/drivers/mss/mss_mmuart/mss_uart.c ****                 {
 537              		.loc 1 1659 46 is_stmt 0
 538 005c 3C64     		ld	a5,72(s0)
1659:../src/platform/drivers/mss/mss_mmuart/mss_uart.c ****                 {
 539              		.loc 1 1659 20
 540 005e 99C3     		beq	a5,zero,.L26
1661:../src/platform/drivers/mss/mss_mmuart/mss_uart.c ****                 }
 541              		.loc 1 1661 21 is_stmt 1
1661:../src/platform/drivers/mss/mss_mmuart/mss_uart.c ****                 }
 542              		.loc 1 1661 22 is_stmt 0
 543 0060 2285     		mv	a0,s0
 544 0062 8297     		jalr	a5
 545              	.LVL14:
 546              	.L26:
1666:../src/platform/drivers/mss/mss_mmuart/mss_uart.c ****             {
 547              		.loc 1 1666 13 is_stmt 1
1666:../src/platform/drivers/mss/mss_mmuart/mss_uart.c ****             {
 548              		.loc 1 1666 26 is_stmt 0
 549 0064 1C60     		ld	a5,0(s0)
1666:../src/platform/drivers/mss/mss_mmuart/mss_uart.c ****             {
 550              		.loc 1 1666 34
 551 0066 83C78702 		lbu	a5,40(a5)
1666:../src/platform/drivers/mss/mss_mmuart/mss_uart.c ****             {
 552              		.loc 1 1666 16
 553 006a 918B     		andi	a5,a5,4
 554 006c 89C7     		beq	a5,zero,.L27
1668:../src/platform/drivers/mss/mss_mmuart/mss_uart.c **** 
 555              		.loc 1 1668 67 is_stmt 1
1670:../src/platform/drivers/mss/mss_mmuart/mss_uart.c ****                 {
 556              		.loc 1 1670 17
1670:../src/platform/drivers/mss/mss_mmuart/mss_uart.c ****                 {
 557              		.loc 1 1670 46 is_stmt 0
 558 006e 3C68     		ld	a5,80(s0)
1670:../src/platform/drivers/mss/mss_mmuart/mss_uart.c ****                 {
 559              		.loc 1 1670 20
 560 0070 99C3     		beq	a5,zero,.L27
1672:../src/platform/drivers/mss/mss_mmuart/mss_uart.c ****                 }
 561              		.loc 1 1672 21 is_stmt 1
1672:../src/platform/drivers/mss/mss_mmuart/mss_uart.c ****                 }
 562              		.loc 1 1672 22 is_stmt 0
 563 0072 2285     		mv	a0,s0
 564 0074 8297     		jalr	a5
 565              	.LVL15:
 566              	.L27:
1677:../src/platform/drivers/mss/mss_mmuart/mss_uart.c ****             {
 567              		.loc 1 1677 13 is_stmt 1
1677:../src/platform/drivers/mss/mss_mmuart/mss_uart.c ****             {
 568              		.loc 1 1677 26 is_stmt 0
 569 0076 1C60     		ld	a5,0(s0)
1677:../src/platform/drivers/mss/mss_mmuart/mss_uart.c ****             {
 570              		.loc 1 1677 34
 571 0078 83C78702 		lbu	a5,40(a5)
1677:../src/platform/drivers/mss/mss_mmuart/mss_uart.c ****             {
 572              		.loc 1 1677 16
 573 007c A18B     		andi	a5,a5,8
 574 007e 89C7     		beq	a5,zero,.L28
1679:../src/platform/drivers/mss/mss_mmuart/mss_uart.c **** 
 575              		.loc 1 1679 65 is_stmt 1
1681:../src/platform/drivers/mss/mss_mmuart/mss_uart.c ****                 {
 576              		.loc 1 1681 17
1681:../src/platform/drivers/mss/mss_mmuart/mss_uart.c ****                 {
 577              		.loc 1 1681 46 is_stmt 0
 578 0080 3C6C     		ld	a5,88(s0)
1681:../src/platform/drivers/mss/mss_mmuart/mss_uart.c ****                 {
 579              		.loc 1 1681 20
 580 0082 99C3     		beq	a5,zero,.L28
1683:../src/platform/drivers/mss/mss_mmuart/mss_uart.c ****                 }
 581              		.loc 1 1683 21 is_stmt 1
1683:../src/platform/drivers/mss/mss_mmuart/mss_uart.c ****                 }
 582              		.loc 1 1683 22 is_stmt 0
 583 0084 2285     		mv	a0,s0
 584 0086 8297     		jalr	a5
 585              	.LVL16:
 586              	.L28:
1688:../src/platform/drivers/mss/mss_mmuart/mss_uart.c ****             {
 587              		.loc 1 1688 13 is_stmt 1
1688:../src/platform/drivers/mss/mss_mmuart/mss_uart.c ****             {
 588              		.loc 1 1688 26 is_stmt 0
 589 0088 1C60     		ld	a5,0(s0)
1688:../src/platform/drivers/mss/mss_mmuart/mss_uart.c ****             {
 590              		.loc 1 1688 34
 591 008a 83C78702 		lbu	a5,40(a5)
1688:../src/platform/drivers/mss/mss_mmuart/mss_uart.c ****             {
 592              		.loc 1 1688 16
 593 008e C18B     		andi	a5,a5,16
 594 0090 91CB     		beq	a5,zero,.L15
1690:../src/platform/drivers/mss/mss_mmuart/mss_uart.c **** 
 595              		.loc 1 1690 64 is_stmt 1
1692:../src/platform/drivers/mss/mss_mmuart/mss_uart.c ****                 {
 596              		.loc 1 1692 17
1692:../src/platform/drivers/mss/mss_mmuart/mss_uart.c ****                 {
 597              		.loc 1 1692 46 is_stmt 0
 598 0092 03330406 		ld	t1,96(s0)
1692:../src/platform/drivers/mss/mss_mmuart/mss_uart.c ****                 {
 599              		.loc 1 1692 20
 600 0096 63070300 		beq	t1,zero,.L15
 601              		.loc 1 1694 21 is_stmt 1
 602              		.loc 1 1694 22 is_stmt 0
 603 009a 2285     		mv	a0,s0
1695:../src/platform/drivers/mss/mss_mmuart/mss_uart.c ****                 }
1696:../src/platform/drivers/mss/mss_mmuart/mss_uart.c ****             }
1697:../src/platform/drivers/mss/mss_mmuart/mss_uart.c ****             break;
1698:../src/platform/drivers/mss/mss_mmuart/mss_uart.c ****         }
1699:../src/platform/drivers/mss/mss_mmuart/mss_uart.c ****         default:
1700:../src/platform/drivers/mss/mss_mmuart/mss_uart.c ****         {
1701:../src/platform/drivers/mss/mss_mmuart/mss_uart.c ****             ASSERT(INVALID_INTERRUPT); /* Comment to avoid LDRA warning */
1702:../src/platform/drivers/mss/mss_mmuart/mss_uart.c ****         }
1703:../src/platform/drivers/mss/mss_mmuart/mss_uart.c ****         break;
1704:../src/platform/drivers/mss/mss_mmuart/mss_uart.c ****     }
1705:../src/platform/drivers/mss/mss_mmuart/mss_uart.c **** }
 604              		.loc 1 1705 1
 605 009c 0264     		ld	s0,0(sp)
 606              		.cfi_restore 8
 607              	.LVL17:
 608 009e A260     		ld	ra,8(sp)
 609              		.cfi_restore 1
 610 00a0 4101     		addi	sp,sp,16
 611              		.cfi_def_cfa_offset 0
 612 00a2 59B7     		j	.L71
 613              	.LVL18:
 614              	.L15:
 615              		.cfi_def_cfa_offset 16
 616              		.cfi_offset 1, -8
 617              		.cfi_offset 8, -16
 618 00a4 A260     		ld	ra,8(sp)
 619              		.cfi_restore 1
 620 00a6 0264     		ld	s0,0(sp)
 621              		.cfi_restore 8
 622              	.LVL19:
 623 00a8 4101     		addi	sp,sp,16
 624              		.cfi_def_cfa_offset 0
 625 00aa 8280     		jr	ra
 626              	.LVL20:
 627              	.L69:
 628 00ac 8280     		ret
 629              		.cfi_endproc
 630              	.LFE75:
 632              		.section	.text.default_tx_handler,"ax",@progbits
 633              		.align	1
 635              	default_tx_handler:
 636              	.LFB76:
1706:../src/platform/drivers/mss/mss_mmuart/mss_uart.c **** 
1707:../src/platform/drivers/mss/mss_mmuart/mss_uart.c **** /***************************************************************************//**
1708:../src/platform/drivers/mss/mss_mmuart/mss_uart.c ****  * See mss_uart.h for details of how to use this function.
1709:../src/platform/drivers/mss/mss_mmuart/mss_uart.c ****  */
1710:../src/platform/drivers/mss/mss_mmuart/mss_uart.c **** static void
1711:../src/platform/drivers/mss/mss_mmuart/mss_uart.c **** default_tx_handler
1712:../src/platform/drivers/mss/mss_mmuart/mss_uart.c **** (
1713:../src/platform/drivers/mss/mss_mmuart/mss_uart.c ****     mss_uart_instance_t * this_uart
1714:../src/platform/drivers/mss/mss_mmuart/mss_uart.c **** )
1715:../src/platform/drivers/mss/mss_mmuart/mss_uart.c **** {
 637              		.loc 1 1715 1 is_stmt 1
 638              		.cfi_startproc
 639              	.LVL21:
1716:../src/platform/drivers/mss/mss_mmuart/mss_uart.c ****     uint8_t status;
 640              		.loc 1 1716 5
1717:../src/platform/drivers/mss/mss_mmuart/mss_uart.c **** 
1718:../src/platform/drivers/mss/mss_mmuart/mss_uart.c ****     ASSERT(( (uint8_t*)0 ) != this_uart->tx_buffer);
 641              		.loc 1 1718 52
1719:../src/platform/drivers/mss/mss_mmuart/mss_uart.c ****     ASSERT(0u < this_uart->tx_buff_size);
 642              		.loc 1 1719 41
1720:../src/platform/drivers/mss/mss_mmuart/mss_uart.c **** 
1721:../src/platform/drivers/mss/mss_mmuart/mss_uart.c ****     if ((((uint8_t*)0 ) != this_uart->tx_buffer) &&
 643              		.loc 1 1721 5
 644              		.loc 1 1721 37 is_stmt 0
 645 0000 83380501 		ld	a7,16(a0)
 646              		.loc 1 1721 8
 647 0004 638C0802 		beq	a7,zero,.L78
1722:../src/platform/drivers/mss/mss_mmuart/mss_uart.c ****        (0u < this_uart->tx_buff_size))
 648              		.loc 1 1722 23 discriminator 1
 649 0008 104D     		lw	a2,24(a0)
1721:../src/platform/drivers/mss/mss_mmuart/mss_uart.c ****        (0u < this_uart->tx_buff_size))
 650              		.loc 1 1721 50 discriminator 1
 651 000a 0DCA     		beq	a2,zero,.L78
1723:../src/platform/drivers/mss/mss_mmuart/mss_uart.c ****     {
1724:../src/platform/drivers/mss/mss_mmuart/mss_uart.c ****         /* Read the Line Status Register and update the sticky record. */
1725:../src/platform/drivers/mss/mss_mmuart/mss_uart.c ****         status = this_uart->hw_reg->LSR;
 652              		.loc 1 1725 9 is_stmt 1
 653              		.loc 1 1725 27 is_stmt 0
 654 000c 1861     		ld	a4,0(a0)
1726:../src/platform/drivers/mss/mss_mmuart/mss_uart.c ****         this_uart->status |= status;
 655              		.loc 1 1726 27
 656 000e 8346D500 		lbu	a3,13(a0)
1725:../src/platform/drivers/mss/mss_mmuart/mss_uart.c ****         this_uart->status |= status;
 657              		.loc 1 1725 16
 658 0012 83474701 		lbu	a5,20(a4)
 659 0016 93F7F70F 		andi	a5,a5,0xff
 660              	.LVL22:
 661              		.loc 1 1726 9 is_stmt 1
 662              		.loc 1 1726 27 is_stmt 0
 663 001a DD8E     		or	a3,a5,a3
 664 001c A306D500 		sb	a3,13(a0)
1727:../src/platform/drivers/mss/mss_mmuart/mss_uart.c **** 
1728:../src/platform/drivers/mss/mss_mmuart/mss_uart.c ****         /*
1729:../src/platform/drivers/mss/mss_mmuart/mss_uart.c ****          * This function should only be called as a result of a THRE interrupt.
1730:../src/platform/drivers/mss/mss_mmuart/mss_uart.c ****          * Verify that this is true before proceeding to transmit data.
1731:../src/platform/drivers/mss/mss_mmuart/mss_uart.c ****          */
1732:../src/platform/drivers/mss/mss_mmuart/mss_uart.c ****         if (status & MSS_UART_THRE)
 665              		.loc 1 1732 9 is_stmt 1
 666              		.loc 1 1732 12 is_stmt 0
 667 0020 93F70702 		andi	a5,a5,32
 668              	.LVL23:
 669 0024 89EF     		bne	a5,zero,.L82
 670              	.L87:
1733:../src/platform/drivers/mss/mss_mmuart/mss_uart.c ****         {
1734:../src/platform/drivers/mss/mss_mmuart/mss_uart.c ****             uint32_t cnt;
1735:../src/platform/drivers/mss/mss_mmuart/mss_uart.c ****             uint32_t fill_size = TX_FIFO_SIZE;
1736:../src/platform/drivers/mss/mss_mmuart/mss_uart.c ****             uint32_t tx_remain = this_uart->tx_buff_size - this_uart->tx_idx;
1737:../src/platform/drivers/mss/mss_mmuart/mss_uart.c **** 
1738:../src/platform/drivers/mss/mss_mmuart/mss_uart.c ****             /* Calculate the number of bytes to transmit. */
1739:../src/platform/drivers/mss/mss_mmuart/mss_uart.c ****             if (tx_remain < TX_FIFO_SIZE)
1740:../src/platform/drivers/mss/mss_mmuart/mss_uart.c ****             {
1741:../src/platform/drivers/mss/mss_mmuart/mss_uart.c ****                 fill_size = tx_remain;
1742:../src/platform/drivers/mss/mss_mmuart/mss_uart.c ****             }
1743:../src/platform/drivers/mss/mss_mmuart/mss_uart.c **** 
1744:../src/platform/drivers/mss/mss_mmuart/mss_uart.c ****             /* Fill the TX FIFO with the calculated the number of bytes. */
1745:../src/platform/drivers/mss/mss_mmuart/mss_uart.c ****             for (cnt = 0u; cnt < fill_size; ++cnt)
1746:../src/platform/drivers/mss/mss_mmuart/mss_uart.c ****             {
1747:../src/platform/drivers/mss/mss_mmuart/mss_uart.c ****                 /* Send next character in the buffer. */
1748:../src/platform/drivers/mss/mss_mmuart/mss_uart.c ****                 this_uart->hw_reg->THR = this_uart->tx_buffer[this_uart->tx_idx];
1749:../src/platform/drivers/mss/mss_mmuart/mss_uart.c ****                 ++this_uart->tx_idx;
1750:../src/platform/drivers/mss/mss_mmuart/mss_uart.c ****             }
1751:../src/platform/drivers/mss/mss_mmuart/mss_uart.c ****         }
1752:../src/platform/drivers/mss/mss_mmuart/mss_uart.c **** 
1753:../src/platform/drivers/mss/mss_mmuart/mss_uart.c ****         /* Flag Tx as complete if all data has been pushed into the Tx FIFO. */
1754:../src/platform/drivers/mss/mss_mmuart/mss_uart.c ****         if (this_uart->tx_idx == this_uart->tx_buff_size)
 671              		.loc 1 1754 9 is_stmt 1
 672              		.loc 1 1754 12 is_stmt 0
 673 0026 5C4D     		lw	a5,28(a0)
 674 0028 639AC700 		bne	a5,a2,.L78
1755:../src/platform/drivers/mss/mss_mmuart/mss_uart.c ****         {
1756:../src/platform/drivers/mss/mss_mmuart/mss_uart.c ****             this_uart->tx_buff_size = TX_COMPLETE;
 675              		.loc 1 1756 13 is_stmt 1
1757:../src/platform/drivers/mss/mss_mmuart/mss_uart.c **** 
1758:../src/platform/drivers/mss/mss_mmuart/mss_uart.c ****             /* disables TX interrupt */
1759:../src/platform/drivers/mss/mss_mmuart/mss_uart.c ****             this_uart->hw_reg->IER &= ~ETBEI_MASK;
 676              		.loc 1 1759 36 is_stmt 0
 677 002c 83474700 		lbu	a5,4(a4)
1756:../src/platform/drivers/mss/mss_mmuart/mss_uart.c **** 
 678              		.loc 1 1756 37
 679 0030 232C0500 		sw	zero,24(a0)
 680              		.loc 1 1759 13 is_stmt 1
 681              		.loc 1 1759 36 is_stmt 0
 682 0034 93F7D70F 		andi	a5,a5,253
 683 0038 2302F700 		sb	a5,4(a4)
 684              	.L78:
1760:../src/platform/drivers/mss/mss_mmuart/mss_uart.c ****         }
1761:../src/platform/drivers/mss/mss_mmuart/mss_uart.c ****     }
1762:../src/platform/drivers/mss/mss_mmuart/mss_uart.c **** }
 685              		.loc 1 1762 1
 686 003c 8280     		ret
 687              	.L82:
 688              	.LBB12:
1734:../src/platform/drivers/mss/mss_mmuart/mss_uart.c ****             uint32_t fill_size = TX_FIFO_SIZE;
 689              		.loc 1 1734 13 is_stmt 1
1735:../src/platform/drivers/mss/mss_mmuart/mss_uart.c ****             uint32_t tx_remain = this_uart->tx_buff_size - this_uart->tx_idx;
 690              		.loc 1 1735 13
 691              	.LVL24:
1736:../src/platform/drivers/mss/mss_mmuart/mss_uart.c **** 
 692              		.loc 1 1736 13
1736:../src/platform/drivers/mss/mss_mmuart/mss_uart.c **** 
 693              		.loc 1 1736 22 is_stmt 0
 694 003e 5C4D     		lw	a5,28(a0)
1739:../src/platform/drivers/mss/mss_mmuart/mss_uart.c ****             {
 695              		.loc 1 1739 16
 696 0040 BD46     		li	a3,15
1736:../src/platform/drivers/mss/mss_mmuart/mss_uart.c **** 
 697              		.loc 1 1736 22
 698 0042 BB07F640 		subw	a5,a2,a5
 699              	.LVL25:
1739:../src/platform/drivers/mss/mss_mmuart/mss_uart.c ****             {
 700              		.loc 1 1739 13 is_stmt 1
1739:../src/platform/drivers/mss/mss_mmuart/mss_uart.c ****             {
 701              		.loc 1 1739 16 is_stmt 0
 702 0046 63F3F600 		bleu	a5,a3,.L84
1735:../src/platform/drivers/mss/mss_mmuart/mss_uart.c ****             uint32_t tx_remain = this_uart->tx_buff_size - this_uart->tx_idx;
 703              		.loc 1 1735 22
 704 004a C147     		li	a5,16
 705              	.L84:
 706              	.LVL26:
1745:../src/platform/drivers/mss/mss_mmuart/mss_uart.c ****             {
 707              		.loc 1 1745 13 is_stmt 1
1745:../src/platform/drivers/mss/mss_mmuart/mss_uart.c ****             {
 708              		.loc 1 1745 22 is_stmt 0
 709 004c 8145     		li	a1,0
 710              	.LVL27:
 711              	.L85:
 712 004e 544D     		lw	a3,28(a0)
1745:../src/platform/drivers/mss/mss_mmuart/mss_uart.c ****             {
 713              		.loc 1 1745 13 discriminator 1
 714 0050 E38BF5FC 		beq	a1,a5,.L87
1748:../src/platform/drivers/mss/mss_mmuart/mss_uart.c ****                 ++this_uart->tx_idx;
 715              		.loc 1 1748 17 is_stmt 1 discriminator 3
1748:../src/platform/drivers/mss/mss_mmuart/mss_uart.c ****                 ++this_uart->tx_idx;
 716              		.loc 1 1748 72 is_stmt 0 discriminator 3
 717 0054 13980602 		slli	a6,a3,32
 718 0058 13580802 		srli	a6,a6,32
1748:../src/platform/drivers/mss/mss_mmuart/mss_uart.c ****                 ++this_uart->tx_idx;
 719              		.loc 1 1748 62 discriminator 3
 720 005c 4698     		add	a6,a7,a6
 721 005e 03480800 		lbu	a6,0(a6)
1749:../src/platform/drivers/mss/mss_mmuart/mss_uart.c ****             }
 722              		.loc 1 1749 17 discriminator 3
 723 0062 8526     		addiw	a3,a3,1
1745:../src/platform/drivers/mss/mss_mmuart/mss_uart.c ****             {
 724              		.loc 1 1745 45 discriminator 3
 725 0064 8525     		addiw	a1,a1,1
 726              	.LVL28:
1748:../src/platform/drivers/mss/mss_mmuart/mss_uart.c ****                 ++this_uart->tx_idx;
 727              		.loc 1 1748 40 discriminator 3
 728 0066 23000701 		sb	a6,0(a4)
1749:../src/platform/drivers/mss/mss_mmuart/mss_uart.c ****             }
 729              		.loc 1 1749 17 is_stmt 1 discriminator 3
 730 006a 54CD     		sw	a3,28(a0)
 731 006c CDB7     		j	.L85
 732              	.LBE12:
 733              		.cfi_endproc
 734              	.LFE76:
 736              		.section	.text.disable_irq,"ax",@progbits
 737              		.align	1
 739              	disable_irq:
 740              	.LFB78:
1763:../src/platform/drivers/mss/mss_mmuart/mss_uart.c **** 
1764:../src/platform/drivers/mss/mss_mmuart/mss_uart.c **** static void
1765:../src/platform/drivers/mss/mss_mmuart/mss_uart.c **** enable_irq
1766:../src/platform/drivers/mss/mss_mmuart/mss_uart.c **** (
1767:../src/platform/drivers/mss/mss_mmuart/mss_uart.c ****     const mss_uart_instance_t * this_uart
1768:../src/platform/drivers/mss/mss_mmuart/mss_uart.c **** )
1769:../src/platform/drivers/mss/mss_mmuart/mss_uart.c **** {
1770:../src/platform/drivers/mss/mss_mmuart/mss_uart.c ****     PLIC_IRQn_Type plic_num = 0;
1771:../src/platform/drivers/mss/mss_mmuart/mss_uart.c **** 
1772:../src/platform/drivers/mss/mss_mmuart/mss_uart.c ****     if(0u == this_uart->local_irq_enabled)
1773:../src/platform/drivers/mss/mss_mmuart/mss_uart.c ****     {
1774:../src/platform/drivers/mss/mss_mmuart/mss_uart.c ****         if (((&g_mss_uart0_lo == this_uart)) || ((&g_mss_uart0_hi == this_uart)))
1775:../src/platform/drivers/mss/mss_mmuart/mss_uart.c ****         {
1776:../src/platform/drivers/mss/mss_mmuart/mss_uart.c ****             plic_num = MMUART0_PLIC_77;
1777:../src/platform/drivers/mss/mss_mmuart/mss_uart.c ****         }
1778:../src/platform/drivers/mss/mss_mmuart/mss_uart.c ****         else if (((&g_mss_uart1_lo == this_uart)) || ((&g_mss_uart1_hi == this_uart)))
1779:../src/platform/drivers/mss/mss_mmuart/mss_uart.c ****         {
1780:../src/platform/drivers/mss/mss_mmuart/mss_uart.c ****             plic_num = MMUART1_PLIC;
1781:../src/platform/drivers/mss/mss_mmuart/mss_uart.c ****         }
1782:../src/platform/drivers/mss/mss_mmuart/mss_uart.c ****         else if (((&g_mss_uart2_lo == this_uart)) || ((&g_mss_uart2_hi == this_uart)))
1783:../src/platform/drivers/mss/mss_mmuart/mss_uart.c ****         {
1784:../src/platform/drivers/mss/mss_mmuart/mss_uart.c ****             plic_num = MMUART2_PLIC;
1785:../src/platform/drivers/mss/mss_mmuart/mss_uart.c ****         }
1786:../src/platform/drivers/mss/mss_mmuart/mss_uart.c ****         else if (((&g_mss_uart3_lo == this_uart)) || ((&g_mss_uart3_hi == this_uart)))
1787:../src/platform/drivers/mss/mss_mmuart/mss_uart.c ****         {
1788:../src/platform/drivers/mss/mss_mmuart/mss_uart.c ****             plic_num = MMUART3_PLIC;
1789:../src/platform/drivers/mss/mss_mmuart/mss_uart.c ****         }
1790:../src/platform/drivers/mss/mss_mmuart/mss_uart.c ****         else if (((&g_mss_uart4_lo == this_uart)) || ((&g_mss_uart4_hi == this_uart)))
1791:../src/platform/drivers/mss/mss_mmuart/mss_uart.c ****         {
1792:../src/platform/drivers/mss/mss_mmuart/mss_uart.c ****             plic_num = MMUART4_PLIC;
1793:../src/platform/drivers/mss/mss_mmuart/mss_uart.c ****         }
1794:../src/platform/drivers/mss/mss_mmuart/mss_uart.c ****         else
1795:../src/platform/drivers/mss/mss_mmuart/mss_uart.c ****         {
1796:../src/platform/drivers/mss/mss_mmuart/mss_uart.c ****             ASSERT(0); /* Comment to avoid LDRA warning */
1797:../src/platform/drivers/mss/mss_mmuart/mss_uart.c ****         }
1798:../src/platform/drivers/mss/mss_mmuart/mss_uart.c **** 
1799:../src/platform/drivers/mss/mss_mmuart/mss_uart.c ****         /* Enable UART instance interrupt in PLIC. */
1800:../src/platform/drivers/mss/mss_mmuart/mss_uart.c ****         PLIC_EnableIRQ(plic_num);
1801:../src/platform/drivers/mss/mss_mmuart/mss_uart.c ****     }
1802:../src/platform/drivers/mss/mss_mmuart/mss_uart.c **** }
1803:../src/platform/drivers/mss/mss_mmuart/mss_uart.c **** 
1804:../src/platform/drivers/mss/mss_mmuart/mss_uart.c **** static void
1805:../src/platform/drivers/mss/mss_mmuart/mss_uart.c **** disable_irq
1806:../src/platform/drivers/mss/mss_mmuart/mss_uart.c **** (
1807:../src/platform/drivers/mss/mss_mmuart/mss_uart.c ****     const mss_uart_instance_t * this_uart
1808:../src/platform/drivers/mss/mss_mmuart/mss_uart.c **** )
1809:../src/platform/drivers/mss/mss_mmuart/mss_uart.c **** {
 741              		.loc 1 1809 1
 742              		.cfi_startproc
 743              	.LVL29:
1810:../src/platform/drivers/mss/mss_mmuart/mss_uart.c ****     PLIC_IRQn_Type plic_num = 0;
 744              		.loc 1 1810 5
1811:../src/platform/drivers/mss/mss_mmuart/mss_uart.c **** 
1812:../src/platform/drivers/mss/mss_mmuart/mss_uart.c ****     if (((&g_mss_uart0_lo == this_uart)) || ((&g_mss_uart0_hi == this_uart)))
 745              		.loc 1 1812 5
 746              		.loc 1 1812 8 is_stmt 0
 747 0000 97070000 		lla	a5,g_mss_uart0_lo
 747      93870700 
1813:../src/platform/drivers/mss/mss_mmuart/mss_uart.c ****     {
1814:../src/platform/drivers/mss/mss_mmuart/mss_uart.c ****         plic_num = MMUART0_PLIC_77;
 748              		.loc 1 1814 18
 749 0008 1307A005 		li	a4,90
1812:../src/platform/drivers/mss/mss_mmuart/mss_uart.c ****     {
 750              		.loc 1 1812 8
 751 000c 6301F508 		beq	a0,a5,.L93
1812:../src/platform/drivers/mss/mss_mmuart/mss_uart.c ****     {
 752              		.loc 1 1812 42 discriminator 1
 753 0010 97070000 		lla	a5,g_mss_uart0_hi
 753      93870700 
 754 0018 630BF506 		beq	a0,a5,.L93
1815:../src/platform/drivers/mss/mss_mmuart/mss_uart.c ****     }
1816:../src/platform/drivers/mss/mss_mmuart/mss_uart.c ****     else if (((&g_mss_uart1_lo == this_uart)) || ((&g_mss_uart1_hi == this_uart)))
 755              		.loc 1 1816 10 is_stmt 1
 756              		.loc 1 1816 13 is_stmt 0
 757 001c 97070000 		lla	a5,g_mss_uart1_lo
 757      93870700 
1817:../src/platform/drivers/mss/mss_mmuart/mss_uart.c ****     {
1818:../src/platform/drivers/mss/mss_mmuart/mss_uart.c ****         plic_num = MMUART1_PLIC;
 758              		.loc 1 1818 18
 759 0024 1307B005 		li	a4,91
1816:../src/platform/drivers/mss/mss_mmuart/mss_uart.c ****     {
 760              		.loc 1 1816 13
 761 0028 6303F506 		beq	a0,a5,.L93
1816:../src/platform/drivers/mss/mss_mmuart/mss_uart.c ****     {
 762              		.loc 1 1816 47 discriminator 1
 763 002c 97070000 		lla	a5,g_mss_uart1_hi
 763      93870700 
 764 0034 630DF504 		beq	a0,a5,.L93
1819:../src/platform/drivers/mss/mss_mmuart/mss_uart.c ****     }
1820:../src/platform/drivers/mss/mss_mmuart/mss_uart.c ****     else if (((&g_mss_uart2_lo == this_uart)) || ((&g_mss_uart2_hi == this_uart)))
 765              		.loc 1 1820 10 is_stmt 1
 766              		.loc 1 1820 13 is_stmt 0
 767 0038 97070000 		lla	a5,g_mss_uart2_lo
 767      93870700 
1821:../src/platform/drivers/mss/mss_mmuart/mss_uart.c ****     {
1822:../src/platform/drivers/mss/mss_mmuart/mss_uart.c ****         plic_num = MMUART2_PLIC;
 768              		.loc 1 1822 18
 769 0040 1307C005 		li	a4,92
1820:../src/platform/drivers/mss/mss_mmuart/mss_uart.c ****     {
 770              		.loc 1 1820 13
 771 0044 6305F504 		beq	a0,a5,.L93
1820:../src/platform/drivers/mss/mss_mmuart/mss_uart.c ****     {
 772              		.loc 1 1820 47 discriminator 1
 773 0048 97070000 		lla	a5,g_mss_uart2_hi
 773      93870700 
 774 0050 630FF502 		beq	a0,a5,.L93
1823:../src/platform/drivers/mss/mss_mmuart/mss_uart.c ****     }
1824:../src/platform/drivers/mss/mss_mmuart/mss_uart.c ****     else if (((&g_mss_uart3_lo == this_uart)) || ((&g_mss_uart3_hi == this_uart)))
 775              		.loc 1 1824 10 is_stmt 1
 776              		.loc 1 1824 13 is_stmt 0
 777 0054 97070000 		lla	a5,g_mss_uart3_lo
 777      93870700 
1825:../src/platform/drivers/mss/mss_mmuart/mss_uart.c ****     {
1826:../src/platform/drivers/mss/mss_mmuart/mss_uart.c ****         plic_num = MMUART3_PLIC;
 778              		.loc 1 1826 18
 779 005c 1307D005 		li	a4,93
1824:../src/platform/drivers/mss/mss_mmuart/mss_uart.c ****     {
 780              		.loc 1 1824 13
 781 0060 6307F502 		beq	a0,a5,.L93
1824:../src/platform/drivers/mss/mss_mmuart/mss_uart.c ****     {
 782              		.loc 1 1824 47 discriminator 1
 783 0064 97070000 		lla	a5,g_mss_uart3_hi
 783      93870700 
 784 006c 6301F502 		beq	a0,a5,.L93
1827:../src/platform/drivers/mss/mss_mmuart/mss_uart.c ****     }
1828:../src/platform/drivers/mss/mss_mmuart/mss_uart.c ****     else if (((&g_mss_uart4_lo == this_uart)) || ((&g_mss_uart4_hi == this_uart)))
 785              		.loc 1 1828 10 is_stmt 1
 786              		.loc 1 1828 13 is_stmt 0
 787 0070 97070000 		lla	a5,g_mss_uart4_lo
 787      93870700 
1829:../src/platform/drivers/mss/mss_mmuart/mss_uart.c ****     {
1830:../src/platform/drivers/mss/mss_mmuart/mss_uart.c ****         plic_num = MMUART4_PLIC;
 788              		.loc 1 1830 18
 789 0078 1307E005 		li	a4,94
1828:../src/platform/drivers/mss/mss_mmuart/mss_uart.c ****     {
 790              		.loc 1 1828 13
 791 007c 6309F500 		beq	a0,a5,.L93
1828:../src/platform/drivers/mss/mss_mmuart/mss_uart.c ****     {
 792              		.loc 1 1828 47 discriminator 1
 793 0080 97070000 		lla	a5,g_mss_uart4_hi
 793      93870700 
 794 0088 6303F500 		beq	a0,a5,.L93
1810:../src/platform/drivers/mss/mss_mmuart/mss_uart.c **** 
 795              		.loc 1 1810 20
 796 008c 0147     		li	a4,0
 797              	.L93:
 798              	.LVL30:
1831:../src/platform/drivers/mss/mss_mmuart/mss_uart.c ****     }
1832:../src/platform/drivers/mss/mss_mmuart/mss_uart.c ****     else
1833:../src/platform/drivers/mss/mss_mmuart/mss_uart.c ****     {
1834:../src/platform/drivers/mss/mss_mmuart/mss_uart.c ****         ASSERT(0); /* Comment to avoid LDRA warning */
1835:../src/platform/drivers/mss/mss_mmuart/mss_uart.c ****     }
1836:../src/platform/drivers/mss/mss_mmuart/mss_uart.c **** 
1837:../src/platform/drivers/mss/mss_mmuart/mss_uart.c ****     /* Disable UART instance interrupt in PLIC. */
1838:../src/platform/drivers/mss/mss_mmuart/mss_uart.c ****     PLIC_DisableIRQ(plic_num);
 799              		.loc 1 1838 5 is_stmt 1
 800              	.LBB16:
 801              	.LBB17:
 802              		.file 2 "/home/vinay/Desktop/softconsole_watershed/Water-shed/src/platform/mpfs_hal/common/mss_pli
   1:/home/vinay/Desktop/softconsole_watershed/Water-shed/src/platform/mpfs_hal/common/mss_plic.h **** /*******************************************************************************
   2:/home/vinay/Desktop/softconsole_watershed/Water-shed/src/platform/mpfs_hal/common/mss_plic.h ****  * Copyright 2019-2022 Microchip FPGA Embedded Systems Solutions.
   3:/home/vinay/Desktop/softconsole_watershed/Water-shed/src/platform/mpfs_hal/common/mss_plic.h ****  *
   4:/home/vinay/Desktop/softconsole_watershed/Water-shed/src/platform/mpfs_hal/common/mss_plic.h ****  * SPDX-License-Identifier: MIT
   5:/home/vinay/Desktop/softconsole_watershed/Water-shed/src/platform/mpfs_hal/common/mss_plic.h ****  *
   6:/home/vinay/Desktop/softconsole_watershed/Water-shed/src/platform/mpfs_hal/common/mss_plic.h ****  * MPFS HAL Embedded Software
   7:/home/vinay/Desktop/softconsole_watershed/Water-shed/src/platform/mpfs_hal/common/mss_plic.h ****  *
   8:/home/vinay/Desktop/softconsole_watershed/Water-shed/src/platform/mpfs_hal/common/mss_plic.h ****  */
   9:/home/vinay/Desktop/softconsole_watershed/Water-shed/src/platform/mpfs_hal/common/mss_plic.h **** 
  10:/home/vinay/Desktop/softconsole_watershed/Water-shed/src/platform/mpfs_hal/common/mss_plic.h **** /*******************************************************************************
  11:/home/vinay/Desktop/softconsole_watershed/Water-shed/src/platform/mpfs_hal/common/mss_plic.h ****  *
  12:/home/vinay/Desktop/softconsole_watershed/Water-shed/src/platform/mpfs_hal/common/mss_plic.h ****  * @file mss_plic.h
  13:/home/vinay/Desktop/softconsole_watershed/Water-shed/src/platform/mpfs_hal/common/mss_plic.h ****  * @author Microchip-FPGA Embedded Systems Solutions
  14:/home/vinay/Desktop/softconsole_watershed/Water-shed/src/platform/mpfs_hal/common/mss_plic.h ****  * @brief PolarFire SoC MSS PLIC and PRCI access data structures and functions.
  15:/home/vinay/Desktop/softconsole_watershed/Water-shed/src/platform/mpfs_hal/common/mss_plic.h ****  *
  16:/home/vinay/Desktop/softconsole_watershed/Water-shed/src/platform/mpfs_hal/common/mss_plic.h ****  * Definitions and functions associated with PLIC interrupts.
  17:/home/vinay/Desktop/softconsole_watershed/Water-shed/src/platform/mpfs_hal/common/mss_plic.h ****  *
  18:/home/vinay/Desktop/softconsole_watershed/Water-shed/src/platform/mpfs_hal/common/mss_plic.h ****  */
  19:/home/vinay/Desktop/softconsole_watershed/Water-shed/src/platform/mpfs_hal/common/mss_plic.h **** #ifndef MSS_PLIC_H
  20:/home/vinay/Desktop/softconsole_watershed/Water-shed/src/platform/mpfs_hal/common/mss_plic.h **** #define MSS_PLIC_H
  21:/home/vinay/Desktop/softconsole_watershed/Water-shed/src/platform/mpfs_hal/common/mss_plic.h **** 
  22:/home/vinay/Desktop/softconsole_watershed/Water-shed/src/platform/mpfs_hal/common/mss_plic.h **** #include <stdint.h>
  23:/home/vinay/Desktop/softconsole_watershed/Water-shed/src/platform/mpfs_hal/common/mss_plic.h **** #ifndef CONFIG_OPENSBI
  24:/home/vinay/Desktop/softconsole_watershed/Water-shed/src/platform/mpfs_hal/common/mss_plic.h **** #include "encoding.h"
  25:/home/vinay/Desktop/softconsole_watershed/Water-shed/src/platform/mpfs_hal/common/mss_plic.h **** #endif
  26:/home/vinay/Desktop/softconsole_watershed/Water-shed/src/platform/mpfs_hal/common/mss_plic.h **** 
  27:/home/vinay/Desktop/softconsole_watershed/Water-shed/src/platform/mpfs_hal/common/mss_plic.h **** #include "mss_legacy_defines.h"
  28:/home/vinay/Desktop/softconsole_watershed/Water-shed/src/platform/mpfs_hal/common/mss_plic.h **** #include "mss_assert.h"
  29:/home/vinay/Desktop/softconsole_watershed/Water-shed/src/platform/mpfs_hal/common/mss_plic.h **** 
  30:/home/vinay/Desktop/softconsole_watershed/Water-shed/src/platform/mpfs_hal/common/mss_plic.h **** #ifdef __cplusplus
  31:/home/vinay/Desktop/softconsole_watershed/Water-shed/src/platform/mpfs_hal/common/mss_plic.h **** extern "C" {
  32:/home/vinay/Desktop/softconsole_watershed/Water-shed/src/platform/mpfs_hal/common/mss_plic.h **** #endif
  33:/home/vinay/Desktop/softconsole_watershed/Water-shed/src/platform/mpfs_hal/common/mss_plic.h **** 
  34:/home/vinay/Desktop/softconsole_watershed/Water-shed/src/platform/mpfs_hal/common/mss_plic.h **** /*
  35:/home/vinay/Desktop/softconsole_watershed/Water-shed/src/platform/mpfs_hal/common/mss_plic.h ****  *Return value from External IRQ handler. This will be used to disable the
  36:/home/vinay/Desktop/softconsole_watershed/Water-shed/src/platform/mpfs_hal/common/mss_plic.h ****  *Return External interrupt.
  37:/home/vinay/Desktop/softconsole_watershed/Water-shed/src/platform/mpfs_hal/common/mss_plic.h ****  */
  38:/home/vinay/Desktop/softconsole_watershed/Water-shed/src/platform/mpfs_hal/common/mss_plic.h **** #define EXT_IRQ_KEEP_ENABLED                                0U
  39:/home/vinay/Desktop/softconsole_watershed/Water-shed/src/platform/mpfs_hal/common/mss_plic.h **** #define EXT_IRQ_DISABLE                                     1U
  40:/home/vinay/Desktop/softconsole_watershed/Water-shed/src/platform/mpfs_hal/common/mss_plic.h **** 
  41:/home/vinay/Desktop/softconsole_watershed/Water-shed/src/platform/mpfs_hal/common/mss_plic.h **** /*------------------------------------------------------------------------------
  42:/home/vinay/Desktop/softconsole_watershed/Water-shed/src/platform/mpfs_hal/common/mss_plic.h ****  *
  43:/home/vinay/Desktop/softconsole_watershed/Water-shed/src/platform/mpfs_hal/common/mss_plic.h ****  */
  44:/home/vinay/Desktop/softconsole_watershed/Water-shed/src/platform/mpfs_hal/common/mss_plic.h **** uint8_t  PLIC_Invalid_IRQHandler(void);
  45:/home/vinay/Desktop/softconsole_watershed/Water-shed/src/platform/mpfs_hal/common/mss_plic.h **** uint8_t  PLIC_l2_metadata_corr_IRQHandler(void);
  46:/home/vinay/Desktop/softconsole_watershed/Water-shed/src/platform/mpfs_hal/common/mss_plic.h **** uint8_t  PLIC_l2_metadata_uncorr_IRQHandler(void);
  47:/home/vinay/Desktop/softconsole_watershed/Water-shed/src/platform/mpfs_hal/common/mss_plic.h **** uint8_t  PLIC_l2_data_corr_IRQHandler(void);
  48:/home/vinay/Desktop/softconsole_watershed/Water-shed/src/platform/mpfs_hal/common/mss_plic.h **** uint8_t  PLIC_l2_data_uncorr_IRQHandler(void);
  49:/home/vinay/Desktop/softconsole_watershed/Water-shed/src/platform/mpfs_hal/common/mss_plic.h **** uint8_t  PLIC_dma_ch0_DONE_IRQHandler(void);
  50:/home/vinay/Desktop/softconsole_watershed/Water-shed/src/platform/mpfs_hal/common/mss_plic.h **** uint8_t  PLIC_dma_ch0_ERR_IRQHandler(void);
  51:/home/vinay/Desktop/softconsole_watershed/Water-shed/src/platform/mpfs_hal/common/mss_plic.h **** uint8_t  PLIC_dma_ch1_DONE_IRQHandler(void);
  52:/home/vinay/Desktop/softconsole_watershed/Water-shed/src/platform/mpfs_hal/common/mss_plic.h **** uint8_t  PLIC_dma_ch1_ERR_IRQHandler(void);
  53:/home/vinay/Desktop/softconsole_watershed/Water-shed/src/platform/mpfs_hal/common/mss_plic.h **** uint8_t  PLIC_dma_ch2_DONE_IRQHandler(void);
  54:/home/vinay/Desktop/softconsole_watershed/Water-shed/src/platform/mpfs_hal/common/mss_plic.h **** uint8_t  PLIC_dma_ch2_ERR_IRQHandler(void);
  55:/home/vinay/Desktop/softconsole_watershed/Water-shed/src/platform/mpfs_hal/common/mss_plic.h **** uint8_t  PLIC_dma_ch3_DONE_IRQHandler(void);
  56:/home/vinay/Desktop/softconsole_watershed/Water-shed/src/platform/mpfs_hal/common/mss_plic.h **** uint8_t  PLIC_dma_ch3_ERR_IRQHandler(void);
  57:/home/vinay/Desktop/softconsole_watershed/Water-shed/src/platform/mpfs_hal/common/mss_plic.h **** uint8_t  PLIC_gpio0_bit0_or_gpio2_bit13_IRQHandler(void);
  58:/home/vinay/Desktop/softconsole_watershed/Water-shed/src/platform/mpfs_hal/common/mss_plic.h **** uint8_t  PLIC_gpio0_bit1_or_gpio2_bit13_IRQHandler(void);
  59:/home/vinay/Desktop/softconsole_watershed/Water-shed/src/platform/mpfs_hal/common/mss_plic.h **** uint8_t  PLIC_gpio0_bit2_or_gpio2_bit13_IRQHandler(void);
  60:/home/vinay/Desktop/softconsole_watershed/Water-shed/src/platform/mpfs_hal/common/mss_plic.h **** uint8_t  PLIC_gpio0_bit3_or_gpio2_bit13_IRQHandler(void);
  61:/home/vinay/Desktop/softconsole_watershed/Water-shed/src/platform/mpfs_hal/common/mss_plic.h **** uint8_t  PLIC_gpio0_bit4_or_gpio2_bit13_IRQHandler(void);
  62:/home/vinay/Desktop/softconsole_watershed/Water-shed/src/platform/mpfs_hal/common/mss_plic.h **** uint8_t  PLIC_gpio0_bit5_or_gpio2_bit13_IRQHandler(void);
  63:/home/vinay/Desktop/softconsole_watershed/Water-shed/src/platform/mpfs_hal/common/mss_plic.h **** uint8_t  PLIC_gpio0_bit6_or_gpio2_bit13_IRQHandler(void);
  64:/home/vinay/Desktop/softconsole_watershed/Water-shed/src/platform/mpfs_hal/common/mss_plic.h **** uint8_t  PLIC_gpio0_bit7_or_gpio2_bit13_IRQHandler(void);
  65:/home/vinay/Desktop/softconsole_watershed/Water-shed/src/platform/mpfs_hal/common/mss_plic.h **** uint8_t  PLIC_gpio0_bit8_or_gpio2_bit13_IRQHandler(void);
  66:/home/vinay/Desktop/softconsole_watershed/Water-shed/src/platform/mpfs_hal/common/mss_plic.h **** uint8_t  PLIC_gpio0_bit9_or_gpio2_bit13_IRQHandler(void);
  67:/home/vinay/Desktop/softconsole_watershed/Water-shed/src/platform/mpfs_hal/common/mss_plic.h **** uint8_t  PLIC_gpio0_bit10_or_gpio2_bit13_IRQHandler(void);
  68:/home/vinay/Desktop/softconsole_watershed/Water-shed/src/platform/mpfs_hal/common/mss_plic.h **** uint8_t  PLIC_gpio0_bit11_or_gpio2_bit13_IRQHandler(void);
  69:/home/vinay/Desktop/softconsole_watershed/Water-shed/src/platform/mpfs_hal/common/mss_plic.h **** uint8_t  PLIC_gpio0_bit12_or_gpio2_bit13_IRQHandler(void);
  70:/home/vinay/Desktop/softconsole_watershed/Water-shed/src/platform/mpfs_hal/common/mss_plic.h **** 
  71:/home/vinay/Desktop/softconsole_watershed/Water-shed/src/platform/mpfs_hal/common/mss_plic.h **** uint8_t  PLIC_gpio0_bit13_or_gpio2_bit13_IRQHandler(void);
  72:/home/vinay/Desktop/softconsole_watershed/Water-shed/src/platform/mpfs_hal/common/mss_plic.h **** uint8_t  PLIC_gpio1_bit0_or_gpio2_bit14_IRQHandler(void);
  73:/home/vinay/Desktop/softconsole_watershed/Water-shed/src/platform/mpfs_hal/common/mss_plic.h **** uint8_t  PLIC_gpio1_bit1_or_gpio2_bit15_IRQHandler(void);
  74:/home/vinay/Desktop/softconsole_watershed/Water-shed/src/platform/mpfs_hal/common/mss_plic.h **** uint8_t  PLIC_gpio1_bit2_or_gpio2_bit16_IRQHandler(void);
  75:/home/vinay/Desktop/softconsole_watershed/Water-shed/src/platform/mpfs_hal/common/mss_plic.h **** uint8_t  PLIC_gpio1_bit3_or_gpio2_bit17_IRQHandler(void);
  76:/home/vinay/Desktop/softconsole_watershed/Water-shed/src/platform/mpfs_hal/common/mss_plic.h **** uint8_t  PLIC_gpio1_bit4_or_gpio2_bit18_IRQHandler(void);
  77:/home/vinay/Desktop/softconsole_watershed/Water-shed/src/platform/mpfs_hal/common/mss_plic.h **** uint8_t  PLIC_gpio1_bit5_or_gpio2_bit19_IRQHandler(void);
  78:/home/vinay/Desktop/softconsole_watershed/Water-shed/src/platform/mpfs_hal/common/mss_plic.h **** uint8_t  PLIC_gpio1_bit6_or_gpio2_bit20_IRQHandler(void);
  79:/home/vinay/Desktop/softconsole_watershed/Water-shed/src/platform/mpfs_hal/common/mss_plic.h **** uint8_t  PLIC_gpio1_bit7_or_gpio2_bit21_IRQHandler(void);
  80:/home/vinay/Desktop/softconsole_watershed/Water-shed/src/platform/mpfs_hal/common/mss_plic.h **** uint8_t  PLIC_gpio1_bit8_or_gpio2_bit22_IRQHandler(void);
  81:/home/vinay/Desktop/softconsole_watershed/Water-shed/src/platform/mpfs_hal/common/mss_plic.h **** uint8_t  PLIC_gpio1_bit9_or_gpio2_bit23_IRQHandler(void);
  82:/home/vinay/Desktop/softconsole_watershed/Water-shed/src/platform/mpfs_hal/common/mss_plic.h **** uint8_t  PLIC_gpio1_bit10_or_gpio2_bit24_IRQHandler(void);
  83:/home/vinay/Desktop/softconsole_watershed/Water-shed/src/platform/mpfs_hal/common/mss_plic.h **** uint8_t  PLIC_gpio1_bit11_or_gpio2_bit25_IRQHandler(void);
  84:/home/vinay/Desktop/softconsole_watershed/Water-shed/src/platform/mpfs_hal/common/mss_plic.h **** uint8_t  PLIC_gpio1_bit12_or_gpio2_bit26_IRQHandler(void);
  85:/home/vinay/Desktop/softconsole_watershed/Water-shed/src/platform/mpfs_hal/common/mss_plic.h **** uint8_t  PLIC_gpio1_bit13_or_gpio2_bit27_IRQHandler(void);
  86:/home/vinay/Desktop/softconsole_watershed/Water-shed/src/platform/mpfs_hal/common/mss_plic.h **** 
  87:/home/vinay/Desktop/softconsole_watershed/Water-shed/src/platform/mpfs_hal/common/mss_plic.h **** uint8_t  PLIC_gpio1_bit14_or_gpio2_bit28_IRQHandler(void);
  88:/home/vinay/Desktop/softconsole_watershed/Water-shed/src/platform/mpfs_hal/common/mss_plic.h **** uint8_t  PLIC_gpio1_bit15_or_gpio2_bit29_IRQHandler(void);
  89:/home/vinay/Desktop/softconsole_watershed/Water-shed/src/platform/mpfs_hal/common/mss_plic.h **** uint8_t  PLIC_gpio1_bit16_or_gpio2_bit30_IRQHandler(void);
  90:/home/vinay/Desktop/softconsole_watershed/Water-shed/src/platform/mpfs_hal/common/mss_plic.h **** uint8_t  PLIC_gpio1_bit17_or_gpio2_bit31_IRQHandler(void);
  91:/home/vinay/Desktop/softconsole_watershed/Water-shed/src/platform/mpfs_hal/common/mss_plic.h **** 
  92:/home/vinay/Desktop/softconsole_watershed/Water-shed/src/platform/mpfs_hal/common/mss_plic.h **** uint8_t  PLIC_gpio1_bit18_IRQHandler(void);
  93:/home/vinay/Desktop/softconsole_watershed/Water-shed/src/platform/mpfs_hal/common/mss_plic.h **** uint8_t  PLIC_gpio1_bit19_IRQHandler(void);
  94:/home/vinay/Desktop/softconsole_watershed/Water-shed/src/platform/mpfs_hal/common/mss_plic.h **** uint8_t  PLIC_gpio1_bit20_IRQHandler(void);
  95:/home/vinay/Desktop/softconsole_watershed/Water-shed/src/platform/mpfs_hal/common/mss_plic.h **** uint8_t  PLIC_gpio1_bit21_IRQHandler(void);
  96:/home/vinay/Desktop/softconsole_watershed/Water-shed/src/platform/mpfs_hal/common/mss_plic.h **** uint8_t  PLIC_gpio1_bit22_IRQHandler(void);
  97:/home/vinay/Desktop/softconsole_watershed/Water-shed/src/platform/mpfs_hal/common/mss_plic.h **** uint8_t  PLIC_gpio1_bit23_IRQHandler(void);
  98:/home/vinay/Desktop/softconsole_watershed/Water-shed/src/platform/mpfs_hal/common/mss_plic.h **** 
  99:/home/vinay/Desktop/softconsole_watershed/Water-shed/src/platform/mpfs_hal/common/mss_plic.h **** uint8_t  PLIC_gpio0_non_direct_IRQHandler(void);
 100:/home/vinay/Desktop/softconsole_watershed/Water-shed/src/platform/mpfs_hal/common/mss_plic.h **** uint8_t  PLIC_gpio1_non_direct_IRQHandler(void);
 101:/home/vinay/Desktop/softconsole_watershed/Water-shed/src/platform/mpfs_hal/common/mss_plic.h **** uint8_t  PLIC_gpio2_non_direct_IRQHandler(void);
 102:/home/vinay/Desktop/softconsole_watershed/Water-shed/src/platform/mpfs_hal/common/mss_plic.h **** 
 103:/home/vinay/Desktop/softconsole_watershed/Water-shed/src/platform/mpfs_hal/common/mss_plic.h **** uint8_t  PLIC_spi0_IRQHandler(void);
 104:/home/vinay/Desktop/softconsole_watershed/Water-shed/src/platform/mpfs_hal/common/mss_plic.h **** uint8_t  PLIC_spi1_IRQHandler(void);
 105:/home/vinay/Desktop/softconsole_watershed/Water-shed/src/platform/mpfs_hal/common/mss_plic.h **** uint8_t  PLIC_external_can0_IRQHandler(void);
 106:/home/vinay/Desktop/softconsole_watershed/Water-shed/src/platform/mpfs_hal/common/mss_plic.h **** uint8_t  PLIC_can1_IRQHandler(void);
 107:/home/vinay/Desktop/softconsole_watershed/Water-shed/src/platform/mpfs_hal/common/mss_plic.h **** uint8_t  PLIC_External_i2c0_main_IRQHandler(void);
 108:/home/vinay/Desktop/softconsole_watershed/Water-shed/src/platform/mpfs_hal/common/mss_plic.h **** uint8_t  PLIC_External_i2c0_alert_IRQHandler(void);
 109:/home/vinay/Desktop/softconsole_watershed/Water-shed/src/platform/mpfs_hal/common/mss_plic.h **** uint8_t  PLIC_i2c0_sus_IRQHandler(void);
 110:/home/vinay/Desktop/softconsole_watershed/Water-shed/src/platform/mpfs_hal/common/mss_plic.h **** uint8_t  PLIC_i2c1_main_IRQHandler(void);
 111:/home/vinay/Desktop/softconsole_watershed/Water-shed/src/platform/mpfs_hal/common/mss_plic.h **** uint8_t  PLIC_i2c1_alert_IRQHandler(void);
 112:/home/vinay/Desktop/softconsole_watershed/Water-shed/src/platform/mpfs_hal/common/mss_plic.h **** uint8_t  PLIC_i2c1_sus_IRQHandler(void);
 113:/home/vinay/Desktop/softconsole_watershed/Water-shed/src/platform/mpfs_hal/common/mss_plic.h **** uint8_t  PLIC_mac0_int_IRQHandler(void);
 114:/home/vinay/Desktop/softconsole_watershed/Water-shed/src/platform/mpfs_hal/common/mss_plic.h **** uint8_t  PLIC_mac0_queue1_IRQHandler(void);
 115:/home/vinay/Desktop/softconsole_watershed/Water-shed/src/platform/mpfs_hal/common/mss_plic.h **** uint8_t  PLIC_mac0_queue2_IRQHandler(void);
 116:/home/vinay/Desktop/softconsole_watershed/Water-shed/src/platform/mpfs_hal/common/mss_plic.h **** uint8_t  PLIC_mac0_queue3_IRQHandler(void);
 117:/home/vinay/Desktop/softconsole_watershed/Water-shed/src/platform/mpfs_hal/common/mss_plic.h **** uint8_t  PLIC_mac0_emac_IRQHandler(void);
 118:/home/vinay/Desktop/softconsole_watershed/Water-shed/src/platform/mpfs_hal/common/mss_plic.h **** uint8_t  PLIC_mac0_mmsl_IRQHandler(void);
 119:/home/vinay/Desktop/softconsole_watershed/Water-shed/src/platform/mpfs_hal/common/mss_plic.h **** uint8_t  PLIC_mac1_int_IRQHandler(void);
 120:/home/vinay/Desktop/softconsole_watershed/Water-shed/src/platform/mpfs_hal/common/mss_plic.h **** uint8_t  PLIC_mac1_queue1_IRQHandler(void);
 121:/home/vinay/Desktop/softconsole_watershed/Water-shed/src/platform/mpfs_hal/common/mss_plic.h **** uint8_t  PLIC_mac1_queue2_IRQHandler(void);
 122:/home/vinay/Desktop/softconsole_watershed/Water-shed/src/platform/mpfs_hal/common/mss_plic.h **** uint8_t  PLIC_mac1_queue3_IRQHandler(void);
 123:/home/vinay/Desktop/softconsole_watershed/Water-shed/src/platform/mpfs_hal/common/mss_plic.h **** uint8_t  PLIC_mac1_emac_IRQHandler(void);
 124:/home/vinay/Desktop/softconsole_watershed/Water-shed/src/platform/mpfs_hal/common/mss_plic.h **** uint8_t  PLIC_mac1_mmsl_IRQHandler(void);
 125:/home/vinay/Desktop/softconsole_watershed/Water-shed/src/platform/mpfs_hal/common/mss_plic.h **** uint8_t  PLIC_ddrc_train_IRQHandler(void);
 126:/home/vinay/Desktop/softconsole_watershed/Water-shed/src/platform/mpfs_hal/common/mss_plic.h **** uint8_t  PLIC_scb_interrupt_IRQHandler(void);
 127:/home/vinay/Desktop/softconsole_watershed/Water-shed/src/platform/mpfs_hal/common/mss_plic.h **** uint8_t  PLIC_ecc_error_IRQHandler(void);
 128:/home/vinay/Desktop/softconsole_watershed/Water-shed/src/platform/mpfs_hal/common/mss_plic.h **** uint8_t  PLIC_ecc_correct_IRQHandler(void);
 129:/home/vinay/Desktop/softconsole_watershed/Water-shed/src/platform/mpfs_hal/common/mss_plic.h **** uint8_t  PLIC_rtc_wakeup_IRQHandler(void);
 130:/home/vinay/Desktop/softconsole_watershed/Water-shed/src/platform/mpfs_hal/common/mss_plic.h **** uint8_t  PLIC_rtc_match_IRQHandler(void);
 131:/home/vinay/Desktop/softconsole_watershed/Water-shed/src/platform/mpfs_hal/common/mss_plic.h **** uint8_t  PLIC_timer1_IRQHandler(void);
 132:/home/vinay/Desktop/softconsole_watershed/Water-shed/src/platform/mpfs_hal/common/mss_plic.h **** uint8_t  PLIC_timer2_IRQHandler(void);
 133:/home/vinay/Desktop/softconsole_watershed/Water-shed/src/platform/mpfs_hal/common/mss_plic.h **** uint8_t  PLIC_envm_IRQHandler(void);
 134:/home/vinay/Desktop/softconsole_watershed/Water-shed/src/platform/mpfs_hal/common/mss_plic.h **** uint8_t  PLIC_qspi_IRQHandler(void);
 135:/home/vinay/Desktop/softconsole_watershed/Water-shed/src/platform/mpfs_hal/common/mss_plic.h **** uint8_t  PLIC_usb_dma_IRQHandler(void);
 136:/home/vinay/Desktop/softconsole_watershed/Water-shed/src/platform/mpfs_hal/common/mss_plic.h **** uint8_t  PLIC_usb_mc_IRQHandler(void);
 137:/home/vinay/Desktop/softconsole_watershed/Water-shed/src/platform/mpfs_hal/common/mss_plic.h **** uint8_t  PLIC_mmc_main_IRQHandler(void);
 138:/home/vinay/Desktop/softconsole_watershed/Water-shed/src/platform/mpfs_hal/common/mss_plic.h **** uint8_t  PLIC_mmc_wakeup_IRQHandler(void);
 139:/home/vinay/Desktop/softconsole_watershed/Water-shed/src/platform/mpfs_hal/common/mss_plic.h **** uint8_t  PLIC_mmuart0_IRQHandler(void);
 140:/home/vinay/Desktop/softconsole_watershed/Water-shed/src/platform/mpfs_hal/common/mss_plic.h **** uint8_t  PLIC_mmuart1_IRQHandler(void);
 141:/home/vinay/Desktop/softconsole_watershed/Water-shed/src/platform/mpfs_hal/common/mss_plic.h **** uint8_t  PLIC_mmuart2_IRQHandler(void);
 142:/home/vinay/Desktop/softconsole_watershed/Water-shed/src/platform/mpfs_hal/common/mss_plic.h **** uint8_t  PLIC_mmuart3_IRQHandler(void);
 143:/home/vinay/Desktop/softconsole_watershed/Water-shed/src/platform/mpfs_hal/common/mss_plic.h **** uint8_t  PLIC_mmuart4_IRQHandler(void);
 144:/home/vinay/Desktop/softconsole_watershed/Water-shed/src/platform/mpfs_hal/common/mss_plic.h **** uint8_t  PLIC_devrst_IRQHandler(void);
 145:/home/vinay/Desktop/softconsole_watershed/Water-shed/src/platform/mpfs_hal/common/mss_plic.h **** uint8_t  PLIC_g5c_message_IRQHandler(void);
 146:/home/vinay/Desktop/softconsole_watershed/Water-shed/src/platform/mpfs_hal/common/mss_plic.h **** uint8_t  PLIC_usoc_vc_interrupt_IRQHandler(void);
 147:/home/vinay/Desktop/softconsole_watershed/Water-shed/src/platform/mpfs_hal/common/mss_plic.h **** uint8_t  PLIC_usoc_smb_interrupt_IRQHandler(void);
 148:/home/vinay/Desktop/softconsole_watershed/Water-shed/src/platform/mpfs_hal/common/mss_plic.h **** uint8_t  PLIC_E51_Maintence_IRQHandler(void);
 149:/home/vinay/Desktop/softconsole_watershed/Water-shed/src/platform/mpfs_hal/common/mss_plic.h **** 
 150:/home/vinay/Desktop/softconsole_watershed/Water-shed/src/platform/mpfs_hal/common/mss_plic.h **** uint8_t  PLIC_wdog0_mvrp_IRQHandler(void);
 151:/home/vinay/Desktop/softconsole_watershed/Water-shed/src/platform/mpfs_hal/common/mss_plic.h **** uint8_t  PLIC_wdog1_mvrp_IRQHandler(void);
 152:/home/vinay/Desktop/softconsole_watershed/Water-shed/src/platform/mpfs_hal/common/mss_plic.h **** uint8_t  PLIC_wdog2_mvrp_IRQHandler(void);
 153:/home/vinay/Desktop/softconsole_watershed/Water-shed/src/platform/mpfs_hal/common/mss_plic.h **** uint8_t  PLIC_wdog3_mvrp_IRQHandler(void);
 154:/home/vinay/Desktop/softconsole_watershed/Water-shed/src/platform/mpfs_hal/common/mss_plic.h **** uint8_t  PLIC_wdog4_mvrp_IRQHandler(void);
 155:/home/vinay/Desktop/softconsole_watershed/Water-shed/src/platform/mpfs_hal/common/mss_plic.h **** uint8_t  PLIC_wdog0_tout_IRQHandler(void);
 156:/home/vinay/Desktop/softconsole_watershed/Water-shed/src/platform/mpfs_hal/common/mss_plic.h **** uint8_t  PLIC_wdog1_tout_IRQHandler(void);
 157:/home/vinay/Desktop/softconsole_watershed/Water-shed/src/platform/mpfs_hal/common/mss_plic.h **** uint8_t  PLIC_wdog2_tout_IRQHandler(void);
 158:/home/vinay/Desktop/softconsole_watershed/Water-shed/src/platform/mpfs_hal/common/mss_plic.h **** uint8_t  PLIC_wdog3_tout_IRQHandler(void);
 159:/home/vinay/Desktop/softconsole_watershed/Water-shed/src/platform/mpfs_hal/common/mss_plic.h **** uint8_t  PLIC_wdog4_tout_IRQHandler(void);
 160:/home/vinay/Desktop/softconsole_watershed/Water-shed/src/platform/mpfs_hal/common/mss_plic.h **** uint8_t  PLIC_g5c_mss_spi_IRQHandler(void);
 161:/home/vinay/Desktop/softconsole_watershed/Water-shed/src/platform/mpfs_hal/common/mss_plic.h **** uint8_t  PLIC_volt_temp_alarm_IRQHandler(void);
 162:/home/vinay/Desktop/softconsole_watershed/Water-shed/src/platform/mpfs_hal/common/mss_plic.h **** 
 163:/home/vinay/Desktop/softconsole_watershed/Water-shed/src/platform/mpfs_hal/common/mss_plic.h **** uint8_t  PLIC_athena_complete_IRQHandler(void);
 164:/home/vinay/Desktop/softconsole_watershed/Water-shed/src/platform/mpfs_hal/common/mss_plic.h **** uint8_t  PLIC_athena_alarm_IRQHandler(void);
 165:/home/vinay/Desktop/softconsole_watershed/Water-shed/src/platform/mpfs_hal/common/mss_plic.h **** uint8_t  PLIC_athena_bus_error_IRQHandler(void);
 166:/home/vinay/Desktop/softconsole_watershed/Water-shed/src/platform/mpfs_hal/common/mss_plic.h **** uint8_t  PLIC_usoc_axic_us_IRQHandler(void);
 167:/home/vinay/Desktop/softconsole_watershed/Water-shed/src/platform/mpfs_hal/common/mss_plic.h **** uint8_t  PLIC_usoc_axic_ds_IRQHandler(void);
 168:/home/vinay/Desktop/softconsole_watershed/Water-shed/src/platform/mpfs_hal/common/mss_plic.h **** 
 169:/home/vinay/Desktop/softconsole_watershed/Water-shed/src/platform/mpfs_hal/common/mss_plic.h **** uint8_t  PLIC_reserved_104_IRQHandler(void);
 170:/home/vinay/Desktop/softconsole_watershed/Water-shed/src/platform/mpfs_hal/common/mss_plic.h **** 
 171:/home/vinay/Desktop/softconsole_watershed/Water-shed/src/platform/mpfs_hal/common/mss_plic.h **** uint8_t  PLIC_f2m_0_IRQHandler(void);
 172:/home/vinay/Desktop/softconsole_watershed/Water-shed/src/platform/mpfs_hal/common/mss_plic.h **** uint8_t  PLIC_f2m_1_IRQHandler(void);
 173:/home/vinay/Desktop/softconsole_watershed/Water-shed/src/platform/mpfs_hal/common/mss_plic.h **** uint8_t  PLIC_f2m_2_IRQHandler(void);
 174:/home/vinay/Desktop/softconsole_watershed/Water-shed/src/platform/mpfs_hal/common/mss_plic.h **** uint8_t  PLIC_f2m_3_IRQHandler(void);
 175:/home/vinay/Desktop/softconsole_watershed/Water-shed/src/platform/mpfs_hal/common/mss_plic.h **** uint8_t  PLIC_f2m_4_IRQHandler(void);
 176:/home/vinay/Desktop/softconsole_watershed/Water-shed/src/platform/mpfs_hal/common/mss_plic.h **** uint8_t  PLIC_f2m_5_IRQHandler(void);
 177:/home/vinay/Desktop/softconsole_watershed/Water-shed/src/platform/mpfs_hal/common/mss_plic.h **** uint8_t  PLIC_f2m_6_IRQHandler(void);
 178:/home/vinay/Desktop/softconsole_watershed/Water-shed/src/platform/mpfs_hal/common/mss_plic.h **** uint8_t  PLIC_f2m_7_IRQHandler(void);
 179:/home/vinay/Desktop/softconsole_watershed/Water-shed/src/platform/mpfs_hal/common/mss_plic.h **** uint8_t  PLIC_f2m_8_IRQHandler(void);
 180:/home/vinay/Desktop/softconsole_watershed/Water-shed/src/platform/mpfs_hal/common/mss_plic.h **** uint8_t  PLIC_f2m_9_IRQHandler(void);
 181:/home/vinay/Desktop/softconsole_watershed/Water-shed/src/platform/mpfs_hal/common/mss_plic.h **** 
 182:/home/vinay/Desktop/softconsole_watershed/Water-shed/src/platform/mpfs_hal/common/mss_plic.h **** uint8_t  PLIC_f2m_10_IRQHandler(void);
 183:/home/vinay/Desktop/softconsole_watershed/Water-shed/src/platform/mpfs_hal/common/mss_plic.h **** uint8_t  PLIC_f2m_11_IRQHandler(void);
 184:/home/vinay/Desktop/softconsole_watershed/Water-shed/src/platform/mpfs_hal/common/mss_plic.h **** uint8_t  PLIC_f2m_12_IRQHandler(void);
 185:/home/vinay/Desktop/softconsole_watershed/Water-shed/src/platform/mpfs_hal/common/mss_plic.h **** uint8_t  PLIC_f2m_13_IRQHandler(void);
 186:/home/vinay/Desktop/softconsole_watershed/Water-shed/src/platform/mpfs_hal/common/mss_plic.h **** uint8_t  PLIC_f2m_14_IRQHandler(void);
 187:/home/vinay/Desktop/softconsole_watershed/Water-shed/src/platform/mpfs_hal/common/mss_plic.h **** uint8_t  PLIC_f2m_15_IRQHandler(void);
 188:/home/vinay/Desktop/softconsole_watershed/Water-shed/src/platform/mpfs_hal/common/mss_plic.h **** uint8_t  PLIC_f2m_16_IRQHandler(void);
 189:/home/vinay/Desktop/softconsole_watershed/Water-shed/src/platform/mpfs_hal/common/mss_plic.h **** uint8_t  PLIC_f2m_17_IRQHandler(void);
 190:/home/vinay/Desktop/softconsole_watershed/Water-shed/src/platform/mpfs_hal/common/mss_plic.h **** uint8_t  PLIC_f2m_18_IRQHandler(void);
 191:/home/vinay/Desktop/softconsole_watershed/Water-shed/src/platform/mpfs_hal/common/mss_plic.h **** uint8_t  PLIC_f2m_19_IRQHandler(void);
 192:/home/vinay/Desktop/softconsole_watershed/Water-shed/src/platform/mpfs_hal/common/mss_plic.h **** 
 193:/home/vinay/Desktop/softconsole_watershed/Water-shed/src/platform/mpfs_hal/common/mss_plic.h **** uint8_t  PLIC_f2m_20_IRQHandler(void);
 194:/home/vinay/Desktop/softconsole_watershed/Water-shed/src/platform/mpfs_hal/common/mss_plic.h **** uint8_t  PLIC_f2m_21_IRQHandler(void);
 195:/home/vinay/Desktop/softconsole_watershed/Water-shed/src/platform/mpfs_hal/common/mss_plic.h **** uint8_t  PLIC_f2m_22_IRQHandler(void);
 196:/home/vinay/Desktop/softconsole_watershed/Water-shed/src/platform/mpfs_hal/common/mss_plic.h **** uint8_t  PLIC_f2m_23_IRQHandler(void);
 197:/home/vinay/Desktop/softconsole_watershed/Water-shed/src/platform/mpfs_hal/common/mss_plic.h **** uint8_t  PLIC_f2m_24_IRQHandler(void);
 198:/home/vinay/Desktop/softconsole_watershed/Water-shed/src/platform/mpfs_hal/common/mss_plic.h **** uint8_t  PLIC_f2m_25_IRQHandler(void);
 199:/home/vinay/Desktop/softconsole_watershed/Water-shed/src/platform/mpfs_hal/common/mss_plic.h **** uint8_t  PLIC_f2m_26_IRQHandler(void);
 200:/home/vinay/Desktop/softconsole_watershed/Water-shed/src/platform/mpfs_hal/common/mss_plic.h **** uint8_t  PLIC_f2m_27_IRQHandler(void);
 201:/home/vinay/Desktop/softconsole_watershed/Water-shed/src/platform/mpfs_hal/common/mss_plic.h **** uint8_t  PLIC_f2m_28_IRQHandler(void);
 202:/home/vinay/Desktop/softconsole_watershed/Water-shed/src/platform/mpfs_hal/common/mss_plic.h **** uint8_t  PLIC_f2m_29_IRQHandler(void);
 203:/home/vinay/Desktop/softconsole_watershed/Water-shed/src/platform/mpfs_hal/common/mss_plic.h **** 
 204:/home/vinay/Desktop/softconsole_watershed/Water-shed/src/platform/mpfs_hal/common/mss_plic.h **** uint8_t  PLIC_f2m_30_IRQHandler(void);
 205:/home/vinay/Desktop/softconsole_watershed/Water-shed/src/platform/mpfs_hal/common/mss_plic.h **** uint8_t  PLIC_f2m_31_IRQHandler(void);
 206:/home/vinay/Desktop/softconsole_watershed/Water-shed/src/platform/mpfs_hal/common/mss_plic.h **** 
 207:/home/vinay/Desktop/softconsole_watershed/Water-shed/src/platform/mpfs_hal/common/mss_plic.h **** uint8_t  PLIC_f2m_32_IRQHandler(void);
 208:/home/vinay/Desktop/softconsole_watershed/Water-shed/src/platform/mpfs_hal/common/mss_plic.h **** uint8_t  PLIC_f2m_33_IRQHandler(void);
 209:/home/vinay/Desktop/softconsole_watershed/Water-shed/src/platform/mpfs_hal/common/mss_plic.h **** uint8_t  PLIC_f2m_34_IRQHandler(void);
 210:/home/vinay/Desktop/softconsole_watershed/Water-shed/src/platform/mpfs_hal/common/mss_plic.h **** uint8_t  PLIC_f2m_35_IRQHandler(void);
 211:/home/vinay/Desktop/softconsole_watershed/Water-shed/src/platform/mpfs_hal/common/mss_plic.h **** uint8_t  PLIC_f2m_36_IRQHandler(void);
 212:/home/vinay/Desktop/softconsole_watershed/Water-shed/src/platform/mpfs_hal/common/mss_plic.h **** uint8_t  PLIC_f2m_37_IRQHandler(void);
 213:/home/vinay/Desktop/softconsole_watershed/Water-shed/src/platform/mpfs_hal/common/mss_plic.h **** uint8_t  PLIC_f2m_38_IRQHandler(void);
 214:/home/vinay/Desktop/softconsole_watershed/Water-shed/src/platform/mpfs_hal/common/mss_plic.h **** uint8_t  PLIC_f2m_39_IRQHandler(void);
 215:/home/vinay/Desktop/softconsole_watershed/Water-shed/src/platform/mpfs_hal/common/mss_plic.h **** uint8_t  PLIC_f2m_40_IRQHandler(void);
 216:/home/vinay/Desktop/softconsole_watershed/Water-shed/src/platform/mpfs_hal/common/mss_plic.h **** uint8_t  PLIC_f2m_41_IRQHandler(void);
 217:/home/vinay/Desktop/softconsole_watershed/Water-shed/src/platform/mpfs_hal/common/mss_plic.h **** 
 218:/home/vinay/Desktop/softconsole_watershed/Water-shed/src/platform/mpfs_hal/common/mss_plic.h **** uint8_t PLIC_f2m_42_IRQHandler(void);
 219:/home/vinay/Desktop/softconsole_watershed/Water-shed/src/platform/mpfs_hal/common/mss_plic.h **** uint8_t PLIC_f2m_43_IRQHandler(void);
 220:/home/vinay/Desktop/softconsole_watershed/Water-shed/src/platform/mpfs_hal/common/mss_plic.h **** uint8_t PLIC_f2m_44_IRQHandler(void);
 221:/home/vinay/Desktop/softconsole_watershed/Water-shed/src/platform/mpfs_hal/common/mss_plic.h **** uint8_t PLIC_f2m_45_IRQHandler(void);
 222:/home/vinay/Desktop/softconsole_watershed/Water-shed/src/platform/mpfs_hal/common/mss_plic.h **** uint8_t PLIC_f2m_46_IRQHandler(void);
 223:/home/vinay/Desktop/softconsole_watershed/Water-shed/src/platform/mpfs_hal/common/mss_plic.h **** uint8_t PLIC_f2m_47_IRQHandler(void);
 224:/home/vinay/Desktop/softconsole_watershed/Water-shed/src/platform/mpfs_hal/common/mss_plic.h **** uint8_t PLIC_f2m_48_IRQHandler(void);
 225:/home/vinay/Desktop/softconsole_watershed/Water-shed/src/platform/mpfs_hal/common/mss_plic.h **** uint8_t PLIC_f2m_49_IRQHandler(void);
 226:/home/vinay/Desktop/softconsole_watershed/Water-shed/src/platform/mpfs_hal/common/mss_plic.h **** uint8_t PLIC_f2m_50_IRQHandler(void);
 227:/home/vinay/Desktop/softconsole_watershed/Water-shed/src/platform/mpfs_hal/common/mss_plic.h **** uint8_t PLIC_f2m_51_IRQHandler(void);
 228:/home/vinay/Desktop/softconsole_watershed/Water-shed/src/platform/mpfs_hal/common/mss_plic.h **** 
 229:/home/vinay/Desktop/softconsole_watershed/Water-shed/src/platform/mpfs_hal/common/mss_plic.h **** uint8_t PLIC_f2m_52_IRQHandler(void);
 230:/home/vinay/Desktop/softconsole_watershed/Water-shed/src/platform/mpfs_hal/common/mss_plic.h **** uint8_t PLIC_f2m_53_IRQHandler(void);
 231:/home/vinay/Desktop/softconsole_watershed/Water-shed/src/platform/mpfs_hal/common/mss_plic.h **** uint8_t PLIC_f2m_54_IRQHandler(void);
 232:/home/vinay/Desktop/softconsole_watershed/Water-shed/src/platform/mpfs_hal/common/mss_plic.h **** uint8_t PLIC_f2m_55_IRQHandler(void);
 233:/home/vinay/Desktop/softconsole_watershed/Water-shed/src/platform/mpfs_hal/common/mss_plic.h **** uint8_t PLIC_f2m_56_IRQHandler(void);
 234:/home/vinay/Desktop/softconsole_watershed/Water-shed/src/platform/mpfs_hal/common/mss_plic.h **** uint8_t PLIC_f2m_57_IRQHandler(void);
 235:/home/vinay/Desktop/softconsole_watershed/Water-shed/src/platform/mpfs_hal/common/mss_plic.h **** uint8_t PLIC_f2m_58_IRQHandler(void);
 236:/home/vinay/Desktop/softconsole_watershed/Water-shed/src/platform/mpfs_hal/common/mss_plic.h **** uint8_t PLIC_f2m_59_IRQHandler(void);
 237:/home/vinay/Desktop/softconsole_watershed/Water-shed/src/platform/mpfs_hal/common/mss_plic.h **** uint8_t PLIC_f2m_60_IRQHandler(void);
 238:/home/vinay/Desktop/softconsole_watershed/Water-shed/src/platform/mpfs_hal/common/mss_plic.h **** uint8_t PLIC_f2m_61_IRQHandler(void);
 239:/home/vinay/Desktop/softconsole_watershed/Water-shed/src/platform/mpfs_hal/common/mss_plic.h **** 
 240:/home/vinay/Desktop/softconsole_watershed/Water-shed/src/platform/mpfs_hal/common/mss_plic.h **** uint8_t PLIC_f2m_62_IRQHandler(void);
 241:/home/vinay/Desktop/softconsole_watershed/Water-shed/src/platform/mpfs_hal/common/mss_plic.h **** uint8_t PLIC_f2m_63_IRQHandler(void);
 242:/home/vinay/Desktop/softconsole_watershed/Water-shed/src/platform/mpfs_hal/common/mss_plic.h **** 
 243:/home/vinay/Desktop/softconsole_watershed/Water-shed/src/platform/mpfs_hal/common/mss_plic.h **** uint8_t PLIC_E51_bus_error_unit_IRQHandler(void);
 244:/home/vinay/Desktop/softconsole_watershed/Water-shed/src/platform/mpfs_hal/common/mss_plic.h **** uint8_t PLIC_U54_1_bus_error_unit_IRQHandler(void);
 245:/home/vinay/Desktop/softconsole_watershed/Water-shed/src/platform/mpfs_hal/common/mss_plic.h **** uint8_t PLIC_U54_2_bus_error_unit_IRQHandler(void);
 246:/home/vinay/Desktop/softconsole_watershed/Water-shed/src/platform/mpfs_hal/common/mss_plic.h **** uint8_t PLIC_U54_3_bus_error_unit_IRQHandler(void);
 247:/home/vinay/Desktop/softconsole_watershed/Water-shed/src/platform/mpfs_hal/common/mss_plic.h **** uint8_t PLIC_U54_4_bus_error_unit_IRQHandler(void);
 248:/home/vinay/Desktop/softconsole_watershed/Water-shed/src/platform/mpfs_hal/common/mss_plic.h **** 
 249:/home/vinay/Desktop/softconsole_watershed/Water-shed/src/platform/mpfs_hal/common/mss_plic.h **** /***************************************************************************//**
 250:/home/vinay/Desktop/softconsole_watershed/Water-shed/src/platform/mpfs_hal/common/mss_plic.h ****  * PLIC source Interrupt numbers:
 251:/home/vinay/Desktop/softconsole_watershed/Water-shed/src/platform/mpfs_hal/common/mss_plic.h ****  */
 252:/home/vinay/Desktop/softconsole_watershed/Water-shed/src/platform/mpfs_hal/common/mss_plic.h **** /* See section on PLIC Interrupt Sources in User Guide */
 253:/home/vinay/Desktop/softconsole_watershed/Water-shed/src/platform/mpfs_hal/common/mss_plic.h **** #define OFFSET_TO_MSS_GLOBAL_INTS 13U
 254:/home/vinay/Desktop/softconsole_watershed/Water-shed/src/platform/mpfs_hal/common/mss_plic.h **** typedef enum
 255:/home/vinay/Desktop/softconsole_watershed/Water-shed/src/platform/mpfs_hal/common/mss_plic.h **** {
 256:/home/vinay/Desktop/softconsole_watershed/Water-shed/src/platform/mpfs_hal/common/mss_plic.h ****     PLIC_INVALID_INT_OFFSET                 = 0,
 257:/home/vinay/Desktop/softconsole_watershed/Water-shed/src/platform/mpfs_hal/common/mss_plic.h ****     PLIC_L2_METADATA_CORR_INT_OFFSET        = 1,
 258:/home/vinay/Desktop/softconsole_watershed/Water-shed/src/platform/mpfs_hal/common/mss_plic.h ****     PLIC_L2_METADAT_UNCORR_INT_OFFSET       = 2,
 259:/home/vinay/Desktop/softconsole_watershed/Water-shed/src/platform/mpfs_hal/common/mss_plic.h ****     PLIC_L2_DATA_CORR_INT_OFFSET            = 3,
 260:/home/vinay/Desktop/softconsole_watershed/Water-shed/src/platform/mpfs_hal/common/mss_plic.h ****     PLIC_L2_DATA_UNCORR_INT_OFFSET          = 4,
 261:/home/vinay/Desktop/softconsole_watershed/Water-shed/src/platform/mpfs_hal/common/mss_plic.h ****     PLIC_DMA_CH0_DONE_INT_OFFSET            = 5,
 262:/home/vinay/Desktop/softconsole_watershed/Water-shed/src/platform/mpfs_hal/common/mss_plic.h ****     PLIC_DMA_CH0_ERR_INT_OFFSET             = 6,
 263:/home/vinay/Desktop/softconsole_watershed/Water-shed/src/platform/mpfs_hal/common/mss_plic.h ****     PLIC_DMA_CH1_DONE_INT_OFFSET            = 7,
 264:/home/vinay/Desktop/softconsole_watershed/Water-shed/src/platform/mpfs_hal/common/mss_plic.h ****     PLIC_DMA_CH1_ERR_INT_OFFSET             = 8,
 265:/home/vinay/Desktop/softconsole_watershed/Water-shed/src/platform/mpfs_hal/common/mss_plic.h ****     PLIC_DMA_CH2_DONE_INT_OFFSET            = 9,
 266:/home/vinay/Desktop/softconsole_watershed/Water-shed/src/platform/mpfs_hal/common/mss_plic.h ****     PLIC_DMA_CH2_ERR_INT_OFFSET             = 10,
 267:/home/vinay/Desktop/softconsole_watershed/Water-shed/src/platform/mpfs_hal/common/mss_plic.h ****     PLIC_DMA_CH3_DONE_INT_OFFSET            = 11,
 268:/home/vinay/Desktop/softconsole_watershed/Water-shed/src/platform/mpfs_hal/common/mss_plic.h ****     PLIC_DMA_CH3_ERR_INT_OFFSET             = 12,
 269:/home/vinay/Desktop/softconsole_watershed/Water-shed/src/platform/mpfs_hal/common/mss_plic.h ****     /* see PLIC_I2C Interrupt Multiplexing in the User Guide */
 270:/home/vinay/Desktop/softconsole_watershed/Water-shed/src/platform/mpfs_hal/common/mss_plic.h ****     PLIC_GPIO0_BIT0_or_GPIO2_BIT0_INT_OFFSET         = 0 + OFFSET_TO_MSS_GLOBAL_INTS,
 271:/home/vinay/Desktop/softconsole_watershed/Water-shed/src/platform/mpfs_hal/common/mss_plic.h ****     PLIC_GPIO0_BIT1_or_GPIO2_BIT1_INT_OFFSET         = 1 + OFFSET_TO_MSS_GLOBAL_INTS,
 272:/home/vinay/Desktop/softconsole_watershed/Water-shed/src/platform/mpfs_hal/common/mss_plic.h ****     PLIC_GPIO0_BIT2_or_GPIO2_BIT2_INT_OFFSET         = 2 + OFFSET_TO_MSS_GLOBAL_INTS,
 273:/home/vinay/Desktop/softconsole_watershed/Water-shed/src/platform/mpfs_hal/common/mss_plic.h ****     PLIC_GPIO0_BIT3_or_GPIO2_BIT3_INT_OFFSET         = 3 + OFFSET_TO_MSS_GLOBAL_INTS,
 274:/home/vinay/Desktop/softconsole_watershed/Water-shed/src/platform/mpfs_hal/common/mss_plic.h ****     PLIC_GPIO0_BIT4_or_GPIO2_BIT4_INT_OFFSET         = 4 + OFFSET_TO_MSS_GLOBAL_INTS,
 275:/home/vinay/Desktop/softconsole_watershed/Water-shed/src/platform/mpfs_hal/common/mss_plic.h ****     PLIC_GPIO0_BIT5_or_GPIO2_BIT5_INT_OFFSET         = 5 + OFFSET_TO_MSS_GLOBAL_INTS,
 276:/home/vinay/Desktop/softconsole_watershed/Water-shed/src/platform/mpfs_hal/common/mss_plic.h ****     PLIC_GPIO0_BIT6_or_GPIO2_BIT6_INT_OFFSET         = 6 + OFFSET_TO_MSS_GLOBAL_INTS,
 277:/home/vinay/Desktop/softconsole_watershed/Water-shed/src/platform/mpfs_hal/common/mss_plic.h ****     PLIC_GPIO0_BIT7_or_GPIO2_BIT7_INT_OFFSET         = 7 + OFFSET_TO_MSS_GLOBAL_INTS,
 278:/home/vinay/Desktop/softconsole_watershed/Water-shed/src/platform/mpfs_hal/common/mss_plic.h ****     PLIC_GPIO0_BIT8_or_GPIO2_BIT8_INT_OFFSET         = 8 + OFFSET_TO_MSS_GLOBAL_INTS,
 279:/home/vinay/Desktop/softconsole_watershed/Water-shed/src/platform/mpfs_hal/common/mss_plic.h ****     PLIC_GPIO0_BIT9_or_GPIO2_BIT9_INT_OFFSET         = 9 + OFFSET_TO_MSS_GLOBAL_INTS,
 280:/home/vinay/Desktop/softconsole_watershed/Water-shed/src/platform/mpfs_hal/common/mss_plic.h ****     PLIC_GPIO0_BIT10_or_GPIO2_BIT10_INT_OFFSET      = 10 + OFFSET_TO_MSS_GLOBAL_INTS,
 281:/home/vinay/Desktop/softconsole_watershed/Water-shed/src/platform/mpfs_hal/common/mss_plic.h ****     PLIC_GPIO0_BIT11_or_GPIO2_BIT11_INT_OFFSET      = 11 + OFFSET_TO_MSS_GLOBAL_INTS,
 282:/home/vinay/Desktop/softconsole_watershed/Water-shed/src/platform/mpfs_hal/common/mss_plic.h ****     PLIC_GPIO0_BIT12_or_GPIO2_BIT12_INT_OFFSET      = 12 + OFFSET_TO_MSS_GLOBAL_INTS,
 283:/home/vinay/Desktop/softconsole_watershed/Water-shed/src/platform/mpfs_hal/common/mss_plic.h **** 
 284:/home/vinay/Desktop/softconsole_watershed/Water-shed/src/platform/mpfs_hal/common/mss_plic.h ****     PLIC_GPIO0_BIT13_or_GPIO2_BIT13_INT_OFFSET      = 13 + OFFSET_TO_MSS_GLOBAL_INTS,
 285:/home/vinay/Desktop/softconsole_watershed/Water-shed/src/platform/mpfs_hal/common/mss_plic.h ****     PLIC_GPIO1_BIT0_or_GPIO2_BIT14_INT_OFFSET       = 14 + OFFSET_TO_MSS_GLOBAL_INTS,
 286:/home/vinay/Desktop/softconsole_watershed/Water-shed/src/platform/mpfs_hal/common/mss_plic.h ****     PLIC_GPIO1_BIT1_or_GPIO2_BIT15_INT_OFFSET       = 15 + OFFSET_TO_MSS_GLOBAL_INTS,
 287:/home/vinay/Desktop/softconsole_watershed/Water-shed/src/platform/mpfs_hal/common/mss_plic.h ****     PLIC_GPIO1_BIT2_or_GPIO2_BIT16_INT_OFFSET       = 16 + OFFSET_TO_MSS_GLOBAL_INTS,
 288:/home/vinay/Desktop/softconsole_watershed/Water-shed/src/platform/mpfs_hal/common/mss_plic.h ****     PLIC_GPIO1_BIT3_or_GPIO2_BIT17_INT_OFFSET       = 17 + OFFSET_TO_MSS_GLOBAL_INTS,
 289:/home/vinay/Desktop/softconsole_watershed/Water-shed/src/platform/mpfs_hal/common/mss_plic.h ****     PLIC_GPIO1_BIT4_or_GPIO2_BIT18_INT_OFFSET       = 18 + OFFSET_TO_MSS_GLOBAL_INTS,
 290:/home/vinay/Desktop/softconsole_watershed/Water-shed/src/platform/mpfs_hal/common/mss_plic.h ****     PLIC_GPIO1_BIT5_or_GPIO2_BIT19_INT_OFFSET       = 19 + OFFSET_TO_MSS_GLOBAL_INTS,
 291:/home/vinay/Desktop/softconsole_watershed/Water-shed/src/platform/mpfs_hal/common/mss_plic.h ****     PLIC_GPIO1_BIT6_or_GPIO2_BIT20_INT_OFFSET       = 20 + OFFSET_TO_MSS_GLOBAL_INTS,
 292:/home/vinay/Desktop/softconsole_watershed/Water-shed/src/platform/mpfs_hal/common/mss_plic.h ****     PLIC_GPIO1_BIT7_or_GPIO2_BIT21_INT_OFFSET       = 21 + OFFSET_TO_MSS_GLOBAL_INTS,
 293:/home/vinay/Desktop/softconsole_watershed/Water-shed/src/platform/mpfs_hal/common/mss_plic.h ****     PLIC_GPIO1_BIT8_or_GPIO2_BIT22_INT_OFFSET       = 22 + OFFSET_TO_MSS_GLOBAL_INTS,
 294:/home/vinay/Desktop/softconsole_watershed/Water-shed/src/platform/mpfs_hal/common/mss_plic.h ****     PLIC_GPIO1_BIT9_or_GPIO2_BIT23_INT_OFFSET       = 23 + OFFSET_TO_MSS_GLOBAL_INTS,
 295:/home/vinay/Desktop/softconsole_watershed/Water-shed/src/platform/mpfs_hal/common/mss_plic.h ****     PLIC_GPIO1_BIT10_or_GPIO2_BIT24_INT_OFFSET      = 24 + OFFSET_TO_MSS_GLOBAL_INTS,
 296:/home/vinay/Desktop/softconsole_watershed/Water-shed/src/platform/mpfs_hal/common/mss_plic.h ****     PLIC_GPIO1_BIT11_or_GPIO2_BIT25_INT_OFFSET      = 25 + OFFSET_TO_MSS_GLOBAL_INTS,
 297:/home/vinay/Desktop/softconsole_watershed/Water-shed/src/platform/mpfs_hal/common/mss_plic.h ****     PLIC_GPIO1_BIT12_or_GPIO2_BIT26_INT_OFFSET      = 26 + OFFSET_TO_MSS_GLOBAL_INTS,
 298:/home/vinay/Desktop/softconsole_watershed/Water-shed/src/platform/mpfs_hal/common/mss_plic.h ****     PLIC_GPIO1_BIT13_or_GPIO2_BIT27_INT_OFFSET      = 27 + OFFSET_TO_MSS_GLOBAL_INTS,
 299:/home/vinay/Desktop/softconsole_watershed/Water-shed/src/platform/mpfs_hal/common/mss_plic.h **** 
 300:/home/vinay/Desktop/softconsole_watershed/Water-shed/src/platform/mpfs_hal/common/mss_plic.h ****     PLIC_GPIO1_BIT14_or_GPIO2_BIT28_INT_OFFSET       = 28 + OFFSET_TO_MSS_GLOBAL_INTS,
 301:/home/vinay/Desktop/softconsole_watershed/Water-shed/src/platform/mpfs_hal/common/mss_plic.h ****     PLIC_GPIO1_BIT15_or_GPIO2_BIT29_INT_OFFSET       = 29 + OFFSET_TO_MSS_GLOBAL_INTS,
 302:/home/vinay/Desktop/softconsole_watershed/Water-shed/src/platform/mpfs_hal/common/mss_plic.h ****     PLIC_GPIO1_BIT16_or_GPIO2_BIT30_INT_OFFSET       = 30 + OFFSET_TO_MSS_GLOBAL_INTS,
 303:/home/vinay/Desktop/softconsole_watershed/Water-shed/src/platform/mpfs_hal/common/mss_plic.h ****     PLIC_GPIO1_BIT17_or_GPIO2_BIT31_INT_OFFSET       = 31 + OFFSET_TO_MSS_GLOBAL_INTS,
 304:/home/vinay/Desktop/softconsole_watershed/Water-shed/src/platform/mpfs_hal/common/mss_plic.h **** 
 305:/home/vinay/Desktop/softconsole_watershed/Water-shed/src/platform/mpfs_hal/common/mss_plic.h ****     PLIC_GPIO1_BIT18_INT_OFFSET           = 32 + OFFSET_TO_MSS_GLOBAL_INTS,
 306:/home/vinay/Desktop/softconsole_watershed/Water-shed/src/platform/mpfs_hal/common/mss_plic.h ****     PLIC_GPIO1_BIT19_INT_OFFSET           = 33 + OFFSET_TO_MSS_GLOBAL_INTS,
 307:/home/vinay/Desktop/softconsole_watershed/Water-shed/src/platform/mpfs_hal/common/mss_plic.h ****     PLIC_GPIO1_BIT20_INT_OFFSET           = 34 + OFFSET_TO_MSS_GLOBAL_INTS,
 308:/home/vinay/Desktop/softconsole_watershed/Water-shed/src/platform/mpfs_hal/common/mss_plic.h ****     PLIC_GPIO1_BIT21_INT_OFFSET           = 35 + OFFSET_TO_MSS_GLOBAL_INTS,
 309:/home/vinay/Desktop/softconsole_watershed/Water-shed/src/platform/mpfs_hal/common/mss_plic.h ****     PLIC_GPIO1_BIT22_INT_OFFSET           = 36 + OFFSET_TO_MSS_GLOBAL_INTS,
 310:/home/vinay/Desktop/softconsole_watershed/Water-shed/src/platform/mpfs_hal/common/mss_plic.h ****     PLIC_GPIO1_BIT23_INT_OFFSET           = 37 + OFFSET_TO_MSS_GLOBAL_INTS,
 311:/home/vinay/Desktop/softconsole_watershed/Water-shed/src/platform/mpfs_hal/common/mss_plic.h **** 
 312:/home/vinay/Desktop/softconsole_watershed/Water-shed/src/platform/mpfs_hal/common/mss_plic.h ****     PLIC_GPIO0_NON_DIRECT_INT_OFFSET         = 38 + OFFSET_TO_MSS_GLOBAL_INTS,
 313:/home/vinay/Desktop/softconsole_watershed/Water-shed/src/platform/mpfs_hal/common/mss_plic.h ****     PLIC_GPIO1_NON_DIRECT_INT_OFFSET         = 39 + OFFSET_TO_MSS_GLOBAL_INTS,
 314:/home/vinay/Desktop/softconsole_watershed/Water-shed/src/platform/mpfs_hal/common/mss_plic.h ****     PLIC_GPIO2_NON_DIRECT_INT_OFFSET         = 40 + OFFSET_TO_MSS_GLOBAL_INTS,
 315:/home/vinay/Desktop/softconsole_watershed/Water-shed/src/platform/mpfs_hal/common/mss_plic.h **** 
 316:/home/vinay/Desktop/softconsole_watershed/Water-shed/src/platform/mpfs_hal/common/mss_plic.h ****     PLIC_SPI0_INT_OFFSET                    = 41 + OFFSET_TO_MSS_GLOBAL_INTS,
 317:/home/vinay/Desktop/softconsole_watershed/Water-shed/src/platform/mpfs_hal/common/mss_plic.h ****     PLIC_SPI1_INT_OFFSET                    = 42 + OFFSET_TO_MSS_GLOBAL_INTS,
 318:/home/vinay/Desktop/softconsole_watershed/Water-shed/src/platform/mpfs_hal/common/mss_plic.h ****     PLIC_CAN0_INT_OFFSET                    = 43 + OFFSET_TO_MSS_GLOBAL_INTS,
 319:/home/vinay/Desktop/softconsole_watershed/Water-shed/src/platform/mpfs_hal/common/mss_plic.h ****     PLIC_CAN1_INT_OFFSET                    = 44 + OFFSET_TO_MSS_GLOBAL_INTS,
 320:/home/vinay/Desktop/softconsole_watershed/Water-shed/src/platform/mpfs_hal/common/mss_plic.h ****     PLIC_I2C0_MAIN_INT_OFFSET               = 45 + OFFSET_TO_MSS_GLOBAL_INTS,
 321:/home/vinay/Desktop/softconsole_watershed/Water-shed/src/platform/mpfs_hal/common/mss_plic.h ****     PLIC_I2C0_ALERT_INT_OFFSET              = 46 + OFFSET_TO_MSS_GLOBAL_INTS,
 322:/home/vinay/Desktop/softconsole_watershed/Water-shed/src/platform/mpfs_hal/common/mss_plic.h ****     PLIC_I2C0_SUS_INT_OFFSET                = 47 + OFFSET_TO_MSS_GLOBAL_INTS,
 323:/home/vinay/Desktop/softconsole_watershed/Water-shed/src/platform/mpfs_hal/common/mss_plic.h ****     PLIC_I2C1_MAIN_INT_OFFSET               = 48 + OFFSET_TO_MSS_GLOBAL_INTS,
 324:/home/vinay/Desktop/softconsole_watershed/Water-shed/src/platform/mpfs_hal/common/mss_plic.h ****     PLIC_I2C1_ALERT_INT_OFFSET              = 49 + OFFSET_TO_MSS_GLOBAL_INTS,
 325:/home/vinay/Desktop/softconsole_watershed/Water-shed/src/platform/mpfs_hal/common/mss_plic.h ****     PLIC_I2C1_SUS_INT_OFFSET                = 50 + OFFSET_TO_MSS_GLOBAL_INTS,
 326:/home/vinay/Desktop/softconsole_watershed/Water-shed/src/platform/mpfs_hal/common/mss_plic.h ****     PLIC_MAC0_INT_INT_OFFSET                = 51 + OFFSET_TO_MSS_GLOBAL_INTS,
 327:/home/vinay/Desktop/softconsole_watershed/Water-shed/src/platform/mpfs_hal/common/mss_plic.h ****     PLIC_MAC0_QUEUE1_INT_OFFSET             = 52 + OFFSET_TO_MSS_GLOBAL_INTS,
 328:/home/vinay/Desktop/softconsole_watershed/Water-shed/src/platform/mpfs_hal/common/mss_plic.h ****     PLIC_MAC0_QUEUE2_INT_OFFSET             = 53 + OFFSET_TO_MSS_GLOBAL_INTS,
 329:/home/vinay/Desktop/softconsole_watershed/Water-shed/src/platform/mpfs_hal/common/mss_plic.h ****     PLIC_MAC0_QUEUE3_INT_OFFSET             = 54 + OFFSET_TO_MSS_GLOBAL_INTS,
 330:/home/vinay/Desktop/softconsole_watershed/Water-shed/src/platform/mpfs_hal/common/mss_plic.h ****     PLIC_MAC0_EMAC_INT_OFFSET               = 55 + OFFSET_TO_MSS_GLOBAL_INTS,
 331:/home/vinay/Desktop/softconsole_watershed/Water-shed/src/platform/mpfs_hal/common/mss_plic.h ****     PLIC_MAC0_MMSL_INT_OFFSET               = 56 + OFFSET_TO_MSS_GLOBAL_INTS,
 332:/home/vinay/Desktop/softconsole_watershed/Water-shed/src/platform/mpfs_hal/common/mss_plic.h ****     PLIC_MAC1_INT_INT_OFFSET                = 57 + OFFSET_TO_MSS_GLOBAL_INTS,
 333:/home/vinay/Desktop/softconsole_watershed/Water-shed/src/platform/mpfs_hal/common/mss_plic.h ****     PLIC_MAC1_QUEUE1_INT_OFFSET             = 58 + OFFSET_TO_MSS_GLOBAL_INTS,
 334:/home/vinay/Desktop/softconsole_watershed/Water-shed/src/platform/mpfs_hal/common/mss_plic.h ****     PLIC_MAC1_QUEUE2_INT_OFFSET             = 59 + OFFSET_TO_MSS_GLOBAL_INTS,
 335:/home/vinay/Desktop/softconsole_watershed/Water-shed/src/platform/mpfs_hal/common/mss_plic.h ****     PLIC_MAC1_QUEUE3_INT_OFFSET             = 60 + OFFSET_TO_MSS_GLOBAL_INTS,
 336:/home/vinay/Desktop/softconsole_watershed/Water-shed/src/platform/mpfs_hal/common/mss_plic.h ****     PLIC_MAC1_EMAC_INT_OFFSET               = 61 + OFFSET_TO_MSS_GLOBAL_INTS,
 337:/home/vinay/Desktop/softconsole_watershed/Water-shed/src/platform/mpfs_hal/common/mss_plic.h ****     PLIC_MAC1_MMSL_INT_OFFSET               = 62 + OFFSET_TO_MSS_GLOBAL_INTS,
 338:/home/vinay/Desktop/softconsole_watershed/Water-shed/src/platform/mpfs_hal/common/mss_plic.h ****     PLIC_DDRC_TRAIN_INT_OFFSET              = 63 + OFFSET_TO_MSS_GLOBAL_INTS,
 339:/home/vinay/Desktop/softconsole_watershed/Water-shed/src/platform/mpfs_hal/common/mss_plic.h ****     PLIC_SCB_INTERRUPT_INT_OFFSET           = 64 + OFFSET_TO_MSS_GLOBAL_INTS,
 340:/home/vinay/Desktop/softconsole_watershed/Water-shed/src/platform/mpfs_hal/common/mss_plic.h ****     PLIC_ECC_ERROR_INT_OFFSET               = 65 + OFFSET_TO_MSS_GLOBAL_INTS,
 341:/home/vinay/Desktop/softconsole_watershed/Water-shed/src/platform/mpfs_hal/common/mss_plic.h ****     PLIC_ECC_CORRECT_INT_OFFSET             = 66 + OFFSET_TO_MSS_GLOBAL_INTS,
 342:/home/vinay/Desktop/softconsole_watershed/Water-shed/src/platform/mpfs_hal/common/mss_plic.h ****     PLIC_RTC_WAKEUP_INT_OFFSET              = 67 + OFFSET_TO_MSS_GLOBAL_INTS,
 343:/home/vinay/Desktop/softconsole_watershed/Water-shed/src/platform/mpfs_hal/common/mss_plic.h ****     PLIC_RTC_MATCH_INT_OFFSET               = 68 + OFFSET_TO_MSS_GLOBAL_INTS,
 344:/home/vinay/Desktop/softconsole_watershed/Water-shed/src/platform/mpfs_hal/common/mss_plic.h ****     PLIC_TIMER1_INT_OFFSET                  = 69 + OFFSET_TO_MSS_GLOBAL_INTS,
 345:/home/vinay/Desktop/softconsole_watershed/Water-shed/src/platform/mpfs_hal/common/mss_plic.h ****     PLIC_TIMER2_INT_OFFSET                  = 70 + OFFSET_TO_MSS_GLOBAL_INTS,
 346:/home/vinay/Desktop/softconsole_watershed/Water-shed/src/platform/mpfs_hal/common/mss_plic.h ****     PLIC_ENVM_INT_OFFSET                    = 71 + OFFSET_TO_MSS_GLOBAL_INTS,
 347:/home/vinay/Desktop/softconsole_watershed/Water-shed/src/platform/mpfs_hal/common/mss_plic.h ****     PLIC_QSPI_INT_OFFSET                    = 72 + OFFSET_TO_MSS_GLOBAL_INTS,
 348:/home/vinay/Desktop/softconsole_watershed/Water-shed/src/platform/mpfs_hal/common/mss_plic.h ****     PLIC_USB_DMA_INT_OFFSET                 = 73 + OFFSET_TO_MSS_GLOBAL_INTS,
 349:/home/vinay/Desktop/softconsole_watershed/Water-shed/src/platform/mpfs_hal/common/mss_plic.h ****     PLIC_USB_MC_INT_OFFSET                  = 74 + OFFSET_TO_MSS_GLOBAL_INTS,
 350:/home/vinay/Desktop/softconsole_watershed/Water-shed/src/platform/mpfs_hal/common/mss_plic.h ****     PLIC_MMC_main_INT_OFFSET                = 75 + OFFSET_TO_MSS_GLOBAL_INTS,
 351:/home/vinay/Desktop/softconsole_watershed/Water-shed/src/platform/mpfs_hal/common/mss_plic.h ****     PLIC_MMC_wakeup_INT_OFFSET              = 76 + OFFSET_TO_MSS_GLOBAL_INTS,
 352:/home/vinay/Desktop/softconsole_watershed/Water-shed/src/platform/mpfs_hal/common/mss_plic.h ****     PLIC_MMUART0_INT_OFFSET                 = 77 + OFFSET_TO_MSS_GLOBAL_INTS,
 353:/home/vinay/Desktop/softconsole_watershed/Water-shed/src/platform/mpfs_hal/common/mss_plic.h ****     PLIC_MMUART1_INT_OFFSET                 = 78 + OFFSET_TO_MSS_GLOBAL_INTS,
 354:/home/vinay/Desktop/softconsole_watershed/Water-shed/src/platform/mpfs_hal/common/mss_plic.h ****     PLIC_MMUART2_INT_OFFSET                 = 79 + OFFSET_TO_MSS_GLOBAL_INTS,
 355:/home/vinay/Desktop/softconsole_watershed/Water-shed/src/platform/mpfs_hal/common/mss_plic.h ****     PLIC_MMUART3_INT_OFFSET                 = 80 + OFFSET_TO_MSS_GLOBAL_INTS,
 356:/home/vinay/Desktop/softconsole_watershed/Water-shed/src/platform/mpfs_hal/common/mss_plic.h ****     PLIC_MMUART4_INT_OFFSET                 = 81 + OFFSET_TO_MSS_GLOBAL_INTS,
 357:/home/vinay/Desktop/softconsole_watershed/Water-shed/src/platform/mpfs_hal/common/mss_plic.h **** 
 358:/home/vinay/Desktop/softconsole_watershed/Water-shed/src/platform/mpfs_hal/common/mss_plic.h ****     G5C_DEVRST_INT_OFFSET              = 82 + OFFSET_TO_MSS_GLOBAL_INTS,
 359:/home/vinay/Desktop/softconsole_watershed/Water-shed/src/platform/mpfs_hal/common/mss_plic.h ****     g5c_MESSAGE_INT_OFFSET             = 83 + OFFSET_TO_MSS_GLOBAL_INTS,
 360:/home/vinay/Desktop/softconsole_watershed/Water-shed/src/platform/mpfs_hal/common/mss_plic.h ****     USOC_VC_INTERRUPT_INT_OFFSET       = 84 + OFFSET_TO_MSS_GLOBAL_INTS,
 361:/home/vinay/Desktop/softconsole_watershed/Water-shed/src/platform/mpfs_hal/common/mss_plic.h ****     USOC_SMB_INTERRUPT_INT_OFFSET      = 85 + OFFSET_TO_MSS_GLOBAL_INTS,
 362:/home/vinay/Desktop/softconsole_watershed/Water-shed/src/platform/mpfs_hal/common/mss_plic.h ****     /* contains multiple interrupts- */
 363:/home/vinay/Desktop/softconsole_watershed/Water-shed/src/platform/mpfs_hal/common/mss_plic.h ****     E51_0_MAINTENACE_INT_OFFSET        = 86 + OFFSET_TO_MSS_GLOBAL_INTS,
 364:/home/vinay/Desktop/softconsole_watershed/Water-shed/src/platform/mpfs_hal/common/mss_plic.h **** 
 365:/home/vinay/Desktop/softconsole_watershed/Water-shed/src/platform/mpfs_hal/common/mss_plic.h ****     PLIC_WDOG0_MRVP_INT_OFFSET              = 87 + OFFSET_TO_MSS_GLOBAL_INTS,
 366:/home/vinay/Desktop/softconsole_watershed/Water-shed/src/platform/mpfs_hal/common/mss_plic.h ****     PLIC_WDOG1_MRVP_INT_OFFSET              = 88 + OFFSET_TO_MSS_GLOBAL_INTS,
 367:/home/vinay/Desktop/softconsole_watershed/Water-shed/src/platform/mpfs_hal/common/mss_plic.h ****     PLIC_WDOG2_MRVP_INT_OFFSET              = 89 + OFFSET_TO_MSS_GLOBAL_INTS,
 368:/home/vinay/Desktop/softconsole_watershed/Water-shed/src/platform/mpfs_hal/common/mss_plic.h ****     PLIC_WDOG3_MRVP_INT_OFFSET              = 90 + OFFSET_TO_MSS_GLOBAL_INTS,
 369:/home/vinay/Desktop/softconsole_watershed/Water-shed/src/platform/mpfs_hal/common/mss_plic.h ****     PLIC_WDOG4_MRVP_INT_OFFSET              = 91 + OFFSET_TO_MSS_GLOBAL_INTS,
 370:/home/vinay/Desktop/softconsole_watershed/Water-shed/src/platform/mpfs_hal/common/mss_plic.h ****     PLIC_WDOG0_TOUT_INT_OFFSET              = 92 + OFFSET_TO_MSS_GLOBAL_INTS,
 371:/home/vinay/Desktop/softconsole_watershed/Water-shed/src/platform/mpfs_hal/common/mss_plic.h ****     PLIC_WDOG1_TOUT_INT_OFFSET              = 93 + OFFSET_TO_MSS_GLOBAL_INTS,
 372:/home/vinay/Desktop/softconsole_watershed/Water-shed/src/platform/mpfs_hal/common/mss_plic.h ****     PLIC_WDOG2_TOUT_INT_OFFSET              = 94 + OFFSET_TO_MSS_GLOBAL_INTS,
 373:/home/vinay/Desktop/softconsole_watershed/Water-shed/src/platform/mpfs_hal/common/mss_plic.h ****     PLIC_WDOG3_TOUT_INT_OFFSET              = 95 + OFFSET_TO_MSS_GLOBAL_INTS,
 374:/home/vinay/Desktop/softconsole_watershed/Water-shed/src/platform/mpfs_hal/common/mss_plic.h ****     PLIC_WDOG4_TOUT_INT_OFFSET              = 96 + OFFSET_TO_MSS_GLOBAL_INTS,
 375:/home/vinay/Desktop/softconsole_watershed/Water-shed/src/platform/mpfs_hal/common/mss_plic.h ****     G5C_MSS_SPI_INT_OFFSET             = 97 + OFFSET_TO_MSS_GLOBAL_INTS,
 376:/home/vinay/Desktop/softconsole_watershed/Water-shed/src/platform/mpfs_hal/common/mss_plic.h ****     VOLT_TEMP_ALARM_INT_OFFSET         = 98 + OFFSET_TO_MSS_GLOBAL_INTS,
 377:/home/vinay/Desktop/softconsole_watershed/Water-shed/src/platform/mpfs_hal/common/mss_plic.h ****     ATHENA_COMPLETE_INT_OFFSET         = 99 + OFFSET_TO_MSS_GLOBAL_INTS,
 378:/home/vinay/Desktop/softconsole_watershed/Water-shed/src/platform/mpfs_hal/common/mss_plic.h ****     ATHENA_ALARM_INT_OFFSET            = 100 + OFFSET_TO_MSS_GLOBAL_INTS,
 379:/home/vinay/Desktop/softconsole_watershed/Water-shed/src/platform/mpfs_hal/common/mss_plic.h ****     ATHENA_BUS_ERROR_INT_OFFSET        = 101 + OFFSET_TO_MSS_GLOBAL_INTS,
 380:/home/vinay/Desktop/softconsole_watershed/Water-shed/src/platform/mpfs_hal/common/mss_plic.h ****     USOC_AXIC_US_INT_OFFSET            = 102 + OFFSET_TO_MSS_GLOBAL_INTS,
 381:/home/vinay/Desktop/softconsole_watershed/Water-shed/src/platform/mpfs_hal/common/mss_plic.h ****     USOC_AXIC_DS_INT_OFFSET            = 103 + OFFSET_TO_MSS_GLOBAL_INTS,
 382:/home/vinay/Desktop/softconsole_watershed/Water-shed/src/platform/mpfs_hal/common/mss_plic.h **** 
 383:/home/vinay/Desktop/softconsole_watershed/Water-shed/src/platform/mpfs_hal/common/mss_plic.h ****     PLIC_F2M_0_INT_OFFSET            = 105 + OFFSET_TO_MSS_GLOBAL_INTS,
 384:/home/vinay/Desktop/softconsole_watershed/Water-shed/src/platform/mpfs_hal/common/mss_plic.h ****     PLIC_F2M_1_INT_OFFSET            = 106 + OFFSET_TO_MSS_GLOBAL_INTS,
 385:/home/vinay/Desktop/softconsole_watershed/Water-shed/src/platform/mpfs_hal/common/mss_plic.h ****     PLIC_F2M_2_INT_OFFSET            = 107 + OFFSET_TO_MSS_GLOBAL_INTS,
 386:/home/vinay/Desktop/softconsole_watershed/Water-shed/src/platform/mpfs_hal/common/mss_plic.h ****     PLIC_F2M_3_INT_OFFSET            = 108 + OFFSET_TO_MSS_GLOBAL_INTS,
 387:/home/vinay/Desktop/softconsole_watershed/Water-shed/src/platform/mpfs_hal/common/mss_plic.h ****     PLIC_F2M_4_INT_OFFSET            = 109 + OFFSET_TO_MSS_GLOBAL_INTS,
 388:/home/vinay/Desktop/softconsole_watershed/Water-shed/src/platform/mpfs_hal/common/mss_plic.h ****     PLIC_F2M_5_INT_OFFSET            = 110 + OFFSET_TO_MSS_GLOBAL_INTS,
 389:/home/vinay/Desktop/softconsole_watershed/Water-shed/src/platform/mpfs_hal/common/mss_plic.h ****     PLIC_F2M_6_INT_OFFSET            = 111 + OFFSET_TO_MSS_GLOBAL_INTS,
 390:/home/vinay/Desktop/softconsole_watershed/Water-shed/src/platform/mpfs_hal/common/mss_plic.h ****     PLIC_F2M_7_INT_OFFSET            = 112 + OFFSET_TO_MSS_GLOBAL_INTS,
 391:/home/vinay/Desktop/softconsole_watershed/Water-shed/src/platform/mpfs_hal/common/mss_plic.h ****     PLIC_F2M_8_INT_OFFSET            = 113 + OFFSET_TO_MSS_GLOBAL_INTS,
 392:/home/vinay/Desktop/softconsole_watershed/Water-shed/src/platform/mpfs_hal/common/mss_plic.h ****     PLIC_F2M_9_INT_OFFSET            = 114 + OFFSET_TO_MSS_GLOBAL_INTS,
 393:/home/vinay/Desktop/softconsole_watershed/Water-shed/src/platform/mpfs_hal/common/mss_plic.h **** 
 394:/home/vinay/Desktop/softconsole_watershed/Water-shed/src/platform/mpfs_hal/common/mss_plic.h ****     PLIC_F2M_10_INT_OFFSET           = 115 + OFFSET_TO_MSS_GLOBAL_INTS,
 395:/home/vinay/Desktop/softconsole_watershed/Water-shed/src/platform/mpfs_hal/common/mss_plic.h ****     PLIC_F2M_11_INT_OFFSET           = 116 + OFFSET_TO_MSS_GLOBAL_INTS,
 396:/home/vinay/Desktop/softconsole_watershed/Water-shed/src/platform/mpfs_hal/common/mss_plic.h ****     PLIC_F2M_12_INT_OFFSET           = 117 + OFFSET_TO_MSS_GLOBAL_INTS,
 397:/home/vinay/Desktop/softconsole_watershed/Water-shed/src/platform/mpfs_hal/common/mss_plic.h ****     PLIC_F2M_13_INT_OFFSET           = 118 + OFFSET_TO_MSS_GLOBAL_INTS,
 398:/home/vinay/Desktop/softconsole_watershed/Water-shed/src/platform/mpfs_hal/common/mss_plic.h ****     PLIC_F2M_14_INT_OFFSET           = 119 + OFFSET_TO_MSS_GLOBAL_INTS,
 399:/home/vinay/Desktop/softconsole_watershed/Water-shed/src/platform/mpfs_hal/common/mss_plic.h ****     PLIC_F2M_15_INT_OFFSET           = 120 + OFFSET_TO_MSS_GLOBAL_INTS,
 400:/home/vinay/Desktop/softconsole_watershed/Water-shed/src/platform/mpfs_hal/common/mss_plic.h ****     PLIC_F2M_16_INT_OFFSET           = 121 + OFFSET_TO_MSS_GLOBAL_INTS,
 401:/home/vinay/Desktop/softconsole_watershed/Water-shed/src/platform/mpfs_hal/common/mss_plic.h ****     PLIC_F2M_17_INT_OFFSET           = 122 + OFFSET_TO_MSS_GLOBAL_INTS,
 402:/home/vinay/Desktop/softconsole_watershed/Water-shed/src/platform/mpfs_hal/common/mss_plic.h ****     PLIC_F2M_18_INT_OFFSET           = 123 + OFFSET_TO_MSS_GLOBAL_INTS,
 403:/home/vinay/Desktop/softconsole_watershed/Water-shed/src/platform/mpfs_hal/common/mss_plic.h ****     PLIC_F2M_19_INT_OFFSET           = 124 + OFFSET_TO_MSS_GLOBAL_INTS,
 404:/home/vinay/Desktop/softconsole_watershed/Water-shed/src/platform/mpfs_hal/common/mss_plic.h **** 
 405:/home/vinay/Desktop/softconsole_watershed/Water-shed/src/platform/mpfs_hal/common/mss_plic.h ****     PLIC_F2M_20_INT_OFFSET           = 125 + OFFSET_TO_MSS_GLOBAL_INTS,
 406:/home/vinay/Desktop/softconsole_watershed/Water-shed/src/platform/mpfs_hal/common/mss_plic.h ****     PLIC_F2M_21_INT_OFFSET           = 126 + OFFSET_TO_MSS_GLOBAL_INTS,
 407:/home/vinay/Desktop/softconsole_watershed/Water-shed/src/platform/mpfs_hal/common/mss_plic.h ****     PLIC_F2M_22_INT_OFFSET           = 127 + OFFSET_TO_MSS_GLOBAL_INTS,
 408:/home/vinay/Desktop/softconsole_watershed/Water-shed/src/platform/mpfs_hal/common/mss_plic.h ****     PLIC_F2M_23_INT_OFFSET           = 128 + OFFSET_TO_MSS_GLOBAL_INTS,
 409:/home/vinay/Desktop/softconsole_watershed/Water-shed/src/platform/mpfs_hal/common/mss_plic.h ****     PLIC_F2M_24_INT_OFFSET           = 129 + OFFSET_TO_MSS_GLOBAL_INTS,
 410:/home/vinay/Desktop/softconsole_watershed/Water-shed/src/platform/mpfs_hal/common/mss_plic.h ****     PLIC_F2M_25_INT_OFFSET           = 130 + OFFSET_TO_MSS_GLOBAL_INTS,
 411:/home/vinay/Desktop/softconsole_watershed/Water-shed/src/platform/mpfs_hal/common/mss_plic.h ****     PLIC_F2M_26_INT_OFFSET           = 131 + OFFSET_TO_MSS_GLOBAL_INTS,
 412:/home/vinay/Desktop/softconsole_watershed/Water-shed/src/platform/mpfs_hal/common/mss_plic.h ****     PLIC_F2M_27_INT_OFFSET           = 132 + OFFSET_TO_MSS_GLOBAL_INTS,
 413:/home/vinay/Desktop/softconsole_watershed/Water-shed/src/platform/mpfs_hal/common/mss_plic.h ****     PLIC_F2M_28_INT_OFFSET           = 133 + OFFSET_TO_MSS_GLOBAL_INTS,
 414:/home/vinay/Desktop/softconsole_watershed/Water-shed/src/platform/mpfs_hal/common/mss_plic.h ****     PLIC_F2M_29_INT_OFFSET           = 134 + OFFSET_TO_MSS_GLOBAL_INTS,
 415:/home/vinay/Desktop/softconsole_watershed/Water-shed/src/platform/mpfs_hal/common/mss_plic.h **** 
 416:/home/vinay/Desktop/softconsole_watershed/Water-shed/src/platform/mpfs_hal/common/mss_plic.h ****     PLIC_F2M_30_INT_OFFSET           = 135 + OFFSET_TO_MSS_GLOBAL_INTS,
 417:/home/vinay/Desktop/softconsole_watershed/Water-shed/src/platform/mpfs_hal/common/mss_plic.h ****     PLIC_F2M_31_INT_OFFSET           = 136 + OFFSET_TO_MSS_GLOBAL_INTS,
 418:/home/vinay/Desktop/softconsole_watershed/Water-shed/src/platform/mpfs_hal/common/mss_plic.h **** 
 419:/home/vinay/Desktop/softconsole_watershed/Water-shed/src/platform/mpfs_hal/common/mss_plic.h ****     PLIC_F2M_32_INT_OFFSET           = 137 + OFFSET_TO_MSS_GLOBAL_INTS,
 420:/home/vinay/Desktop/softconsole_watershed/Water-shed/src/platform/mpfs_hal/common/mss_plic.h ****     PLIC_F2M_33_INT_OFFSET           = 138 + OFFSET_TO_MSS_GLOBAL_INTS,
 421:/home/vinay/Desktop/softconsole_watershed/Water-shed/src/platform/mpfs_hal/common/mss_plic.h ****     PLIC_F2M_34_INT_OFFSET           = 139 + OFFSET_TO_MSS_GLOBAL_INTS,
 422:/home/vinay/Desktop/softconsole_watershed/Water-shed/src/platform/mpfs_hal/common/mss_plic.h ****     PLIC_F2M_35_INT_OFFSET           = 140 + OFFSET_TO_MSS_GLOBAL_INTS,
 423:/home/vinay/Desktop/softconsole_watershed/Water-shed/src/platform/mpfs_hal/common/mss_plic.h ****     PLIC_F2M_36_INT_OFFSET           = 141 + OFFSET_TO_MSS_GLOBAL_INTS,
 424:/home/vinay/Desktop/softconsole_watershed/Water-shed/src/platform/mpfs_hal/common/mss_plic.h ****     PLIC_F2M_37_INT_OFFSET           = 142 + OFFSET_TO_MSS_GLOBAL_INTS,
 425:/home/vinay/Desktop/softconsole_watershed/Water-shed/src/platform/mpfs_hal/common/mss_plic.h ****     PLIC_F2M_38_INT_OFFSET           = 143 + OFFSET_TO_MSS_GLOBAL_INTS,
 426:/home/vinay/Desktop/softconsole_watershed/Water-shed/src/platform/mpfs_hal/common/mss_plic.h ****     PLIC_F2M_39_INT_OFFSET           = 144 + OFFSET_TO_MSS_GLOBAL_INTS,
 427:/home/vinay/Desktop/softconsole_watershed/Water-shed/src/platform/mpfs_hal/common/mss_plic.h ****     PLIC_F2M_40_INT_OFFSET           = 145 + OFFSET_TO_MSS_GLOBAL_INTS,
 428:/home/vinay/Desktop/softconsole_watershed/Water-shed/src/platform/mpfs_hal/common/mss_plic.h ****     PLIC_F2M_41_INT_OFFSET           = 146 + OFFSET_TO_MSS_GLOBAL_INTS,
 429:/home/vinay/Desktop/softconsole_watershed/Water-shed/src/platform/mpfs_hal/common/mss_plic.h **** 
 430:/home/vinay/Desktop/softconsole_watershed/Water-shed/src/platform/mpfs_hal/common/mss_plic.h ****     PLIC_F2M_42_INT_OFFSET           = 147 + OFFSET_TO_MSS_GLOBAL_INTS,
 431:/home/vinay/Desktop/softconsole_watershed/Water-shed/src/platform/mpfs_hal/common/mss_plic.h ****     PLIC_F2M_43_INT_OFFSET           = 148 + OFFSET_TO_MSS_GLOBAL_INTS,
 432:/home/vinay/Desktop/softconsole_watershed/Water-shed/src/platform/mpfs_hal/common/mss_plic.h ****     PLIC_F2M_44_INT_OFFSET           = 149 + OFFSET_TO_MSS_GLOBAL_INTS,
 433:/home/vinay/Desktop/softconsole_watershed/Water-shed/src/platform/mpfs_hal/common/mss_plic.h ****     PLIC_F2M_45_INT_OFFSET           = 150 + OFFSET_TO_MSS_GLOBAL_INTS,
 434:/home/vinay/Desktop/softconsole_watershed/Water-shed/src/platform/mpfs_hal/common/mss_plic.h ****     PLIC_F2M_46_INT_OFFSET           = 151 + OFFSET_TO_MSS_GLOBAL_INTS,
 435:/home/vinay/Desktop/softconsole_watershed/Water-shed/src/platform/mpfs_hal/common/mss_plic.h ****     PLIC_F2M_47_INT_OFFSET           = 152 + OFFSET_TO_MSS_GLOBAL_INTS,
 436:/home/vinay/Desktop/softconsole_watershed/Water-shed/src/platform/mpfs_hal/common/mss_plic.h ****     PLIC_F2M_48_INT_OFFSET           = 153 + OFFSET_TO_MSS_GLOBAL_INTS,
 437:/home/vinay/Desktop/softconsole_watershed/Water-shed/src/platform/mpfs_hal/common/mss_plic.h ****     PLIC_F2M_49_INT_OFFSET           = 154 + OFFSET_TO_MSS_GLOBAL_INTS,
 438:/home/vinay/Desktop/softconsole_watershed/Water-shed/src/platform/mpfs_hal/common/mss_plic.h ****     PLIC_F2M_50_INT_OFFSET           = 155 + OFFSET_TO_MSS_GLOBAL_INTS,
 439:/home/vinay/Desktop/softconsole_watershed/Water-shed/src/platform/mpfs_hal/common/mss_plic.h ****     PLIC_F2M_51_INT_OFFSET           = 156 + OFFSET_TO_MSS_GLOBAL_INTS,
 440:/home/vinay/Desktop/softconsole_watershed/Water-shed/src/platform/mpfs_hal/common/mss_plic.h **** 
 441:/home/vinay/Desktop/softconsole_watershed/Water-shed/src/platform/mpfs_hal/common/mss_plic.h ****     PLIC_F2M_52_INT_OFFSET           = 157 + OFFSET_TO_MSS_GLOBAL_INTS,
 442:/home/vinay/Desktop/softconsole_watershed/Water-shed/src/platform/mpfs_hal/common/mss_plic.h ****     PLIC_F2M_53_INT_OFFSET           = 158 + OFFSET_TO_MSS_GLOBAL_INTS,
 443:/home/vinay/Desktop/softconsole_watershed/Water-shed/src/platform/mpfs_hal/common/mss_plic.h ****     PLIC_F2M_54_INT_OFFSET           = 159 + OFFSET_TO_MSS_GLOBAL_INTS,
 444:/home/vinay/Desktop/softconsole_watershed/Water-shed/src/platform/mpfs_hal/common/mss_plic.h ****     PLIC_F2M_55_INT_OFFSET           = 160 + OFFSET_TO_MSS_GLOBAL_INTS,
 445:/home/vinay/Desktop/softconsole_watershed/Water-shed/src/platform/mpfs_hal/common/mss_plic.h ****     PLIC_F2M_56_INT_OFFSET           = 161 + OFFSET_TO_MSS_GLOBAL_INTS,
 446:/home/vinay/Desktop/softconsole_watershed/Water-shed/src/platform/mpfs_hal/common/mss_plic.h ****     PLIC_F2M_57_INT_OFFSET           = 162 + OFFSET_TO_MSS_GLOBAL_INTS,
 447:/home/vinay/Desktop/softconsole_watershed/Water-shed/src/platform/mpfs_hal/common/mss_plic.h ****     PLIC_F2M_58_INT_OFFSET           = 163 + OFFSET_TO_MSS_GLOBAL_INTS,
 448:/home/vinay/Desktop/softconsole_watershed/Water-shed/src/platform/mpfs_hal/common/mss_plic.h ****     PLIC_F2M_59_INT_OFFSET           = 164 + OFFSET_TO_MSS_GLOBAL_INTS,
 449:/home/vinay/Desktop/softconsole_watershed/Water-shed/src/platform/mpfs_hal/common/mss_plic.h ****     PLIC_F2M_60_INT_OFFSET           = 165 + OFFSET_TO_MSS_GLOBAL_INTS,
 450:/home/vinay/Desktop/softconsole_watershed/Water-shed/src/platform/mpfs_hal/common/mss_plic.h ****     PLIC_F2M_61_INT_OFFSET           = 166 + OFFSET_TO_MSS_GLOBAL_INTS,
 451:/home/vinay/Desktop/softconsole_watershed/Water-shed/src/platform/mpfs_hal/common/mss_plic.h **** 
 452:/home/vinay/Desktop/softconsole_watershed/Water-shed/src/platform/mpfs_hal/common/mss_plic.h ****     PLIC_F2M_62_INT_OFFSET           = 167 + OFFSET_TO_MSS_GLOBAL_INTS,
 453:/home/vinay/Desktop/softconsole_watershed/Water-shed/src/platform/mpfs_hal/common/mss_plic.h ****     PLIC_F2M_63_INT_OFFSET           = 168 + OFFSET_TO_MSS_GLOBAL_INTS,
 454:/home/vinay/Desktop/softconsole_watershed/Water-shed/src/platform/mpfs_hal/common/mss_plic.h **** 
 455:/home/vinay/Desktop/softconsole_watershed/Water-shed/src/platform/mpfs_hal/common/mss_plic.h ****     PLIC_E51_BUS_ERROR_UNIT_OFFSET        = 182,
 456:/home/vinay/Desktop/softconsole_watershed/Water-shed/src/platform/mpfs_hal/common/mss_plic.h ****     PLIC_U54_1_BUS_ERROR_UNIT_OFFSET      = 183,
 457:/home/vinay/Desktop/softconsole_watershed/Water-shed/src/platform/mpfs_hal/common/mss_plic.h ****     PLIC_U54_2_BUS_ERROR_UNIT_OFFSET      = 184,
 458:/home/vinay/Desktop/softconsole_watershed/Water-shed/src/platform/mpfs_hal/common/mss_plic.h ****     PLIC_U54_3_BUS_ERROR_UNIT_OFFSET      = 185,
 459:/home/vinay/Desktop/softconsole_watershed/Water-shed/src/platform/mpfs_hal/common/mss_plic.h ****     PLIC_U54_4_BUS_ERROR_UNIT_OFFSET      = 186
 460:/home/vinay/Desktop/softconsole_watershed/Water-shed/src/platform/mpfs_hal/common/mss_plic.h **** 
 461:/home/vinay/Desktop/softconsole_watershed/Water-shed/src/platform/mpfs_hal/common/mss_plic.h **** } PLIC_IRQn_Type;
 462:/home/vinay/Desktop/softconsole_watershed/Water-shed/src/platform/mpfs_hal/common/mss_plic.h **** 
 463:/home/vinay/Desktop/softconsole_watershed/Water-shed/src/platform/mpfs_hal/common/mss_plic.h **** #define MAX_PLIC_INT PLIC_U54_4_BUS_ERROR_UNIT_OFFSET
 464:/home/vinay/Desktop/softconsole_watershed/Water-shed/src/platform/mpfs_hal/common/mss_plic.h **** 
 465:/home/vinay/Desktop/softconsole_watershed/Water-shed/src/platform/mpfs_hal/common/mss_plic.h **** typedef struct
 466:/home/vinay/Desktop/softconsole_watershed/Water-shed/src/platform/mpfs_hal/common/mss_plic.h **** {
 467:/home/vinay/Desktop/softconsole_watershed/Water-shed/src/platform/mpfs_hal/common/mss_plic.h ****     volatile uint32_t PRIORITY_THRESHOLD;
 468:/home/vinay/Desktop/softconsole_watershed/Water-shed/src/platform/mpfs_hal/common/mss_plic.h ****     volatile uint32_t CLAIM_COMPLETE;
 469:/home/vinay/Desktop/softconsole_watershed/Water-shed/src/platform/mpfs_hal/common/mss_plic.h ****     volatile uint32_t reserved[(0x1000/4)-2];
 470:/home/vinay/Desktop/softconsole_watershed/Water-shed/src/platform/mpfs_hal/common/mss_plic.h **** } IRQ_Target_Type;
 471:/home/vinay/Desktop/softconsole_watershed/Water-shed/src/platform/mpfs_hal/common/mss_plic.h **** 
 472:/home/vinay/Desktop/softconsole_watershed/Water-shed/src/platform/mpfs_hal/common/mss_plic.h **** typedef struct
 473:/home/vinay/Desktop/softconsole_watershed/Water-shed/src/platform/mpfs_hal/common/mss_plic.h **** {
 474:/home/vinay/Desktop/softconsole_watershed/Water-shed/src/platform/mpfs_hal/common/mss_plic.h ****     volatile uint32_t ENABLES[32U];
 475:/home/vinay/Desktop/softconsole_watershed/Water-shed/src/platform/mpfs_hal/common/mss_plic.h **** } Target_Enables_Type;
 476:/home/vinay/Desktop/softconsole_watershed/Water-shed/src/platform/mpfs_hal/common/mss_plic.h **** 
 477:/home/vinay/Desktop/softconsole_watershed/Water-shed/src/platform/mpfs_hal/common/mss_plic.h **** 
 478:/home/vinay/Desktop/softconsole_watershed/Water-shed/src/platform/mpfs_hal/common/mss_plic.h **** #define PLIC_SET_UP_REGISTERS 6U
 479:/home/vinay/Desktop/softconsole_watershed/Water-shed/src/platform/mpfs_hal/common/mss_plic.h **** 
 480:/home/vinay/Desktop/softconsole_watershed/Water-shed/src/platform/mpfs_hal/common/mss_plic.h **** #define PLIC_NUM_SOURCES 187U
 481:/home/vinay/Desktop/softconsole_watershed/Water-shed/src/platform/mpfs_hal/common/mss_plic.h **** 
 482:/home/vinay/Desktop/softconsole_watershed/Water-shed/src/platform/mpfs_hal/common/mss_plic.h **** #define PLIC_NUM_PRIORITIES 7U
 483:/home/vinay/Desktop/softconsole_watershed/Water-shed/src/platform/mpfs_hal/common/mss_plic.h **** #define NUM_CLAIM_REGS      9U
 484:/home/vinay/Desktop/softconsole_watershed/Water-shed/src/platform/mpfs_hal/common/mss_plic.h **** 
 485:/home/vinay/Desktop/softconsole_watershed/Water-shed/src/platform/mpfs_hal/common/mss_plic.h **** 
 486:/home/vinay/Desktop/softconsole_watershed/Water-shed/src/platform/mpfs_hal/common/mss_plic.h **** /* The FU540-C000 has 53 interrupt sources. */
 487:/home/vinay/Desktop/softconsole_watershed/Water-shed/src/platform/mpfs_hal/common/mss_plic.h ****  typedef struct
 488:/home/vinay/Desktop/softconsole_watershed/Water-shed/src/platform/mpfs_hal/common/mss_plic.h **** {
 489:/home/vinay/Desktop/softconsole_watershed/Water-shed/src/platform/mpfs_hal/common/mss_plic.h ****     volatile uint32_t RESERVED0;
 490:/home/vinay/Desktop/softconsole_watershed/Water-shed/src/platform/mpfs_hal/common/mss_plic.h ****     /*-------------------- Source Priority --------------------*/
 491:/home/vinay/Desktop/softconsole_watershed/Water-shed/src/platform/mpfs_hal/common/mss_plic.h ****     volatile uint32_t SOURCE_PRIORITY[PLIC_NUM_SOURCES];
 492:/home/vinay/Desktop/softconsole_watershed/Water-shed/src/platform/mpfs_hal/common/mss_plic.h ****     volatile uint32_t RESERVED1[(0x1000 / 4) - (PLIC_NUM_SOURCES + 1)];
 493:/home/vinay/Desktop/softconsole_watershed/Water-shed/src/platform/mpfs_hal/common/mss_plic.h ****     /*-------------------- Pending array --------------------*/
 494:/home/vinay/Desktop/softconsole_watershed/Water-shed/src/platform/mpfs_hal/common/mss_plic.h ****     volatile const uint32_t PENDING_ARRAY[PLIC_SET_UP_REGISTERS];
 495:/home/vinay/Desktop/softconsole_watershed/Water-shed/src/platform/mpfs_hal/common/mss_plic.h ****     volatile uint32_t RESERVED2[(0x1000/4) - PLIC_SET_UP_REGISTERS];
 496:/home/vinay/Desktop/softconsole_watershed/Water-shed/src/platform/mpfs_hal/common/mss_plic.h **** 
 497:/home/vinay/Desktop/softconsole_watershed/Water-shed/src/platform/mpfs_hal/common/mss_plic.h ****     /*-----------------Hart0 Mode Enables--------------------*/
 498:/home/vinay/Desktop/softconsole_watershed/Water-shed/src/platform/mpfs_hal/common/mss_plic.h ****     volatile uint32_t HART0_MMODE_ENA[PLIC_SET_UP_REGISTERS];
 499:/home/vinay/Desktop/softconsole_watershed/Water-shed/src/platform/mpfs_hal/common/mss_plic.h ****     volatile uint32_t RESERVED3[(0x80/4) - PLIC_SET_UP_REGISTERS];
 500:/home/vinay/Desktop/softconsole_watershed/Water-shed/src/platform/mpfs_hal/common/mss_plic.h **** 
 501:/home/vinay/Desktop/softconsole_watershed/Water-shed/src/platform/mpfs_hal/common/mss_plic.h ****     /*-----------------Hart1 Mode Enables--------------------*/
 502:/home/vinay/Desktop/softconsole_watershed/Water-shed/src/platform/mpfs_hal/common/mss_plic.h ****     volatile uint32_t HART1_MMODE_ENA[PLIC_SET_UP_REGISTERS];
 503:/home/vinay/Desktop/softconsole_watershed/Water-shed/src/platform/mpfs_hal/common/mss_plic.h ****     volatile uint32_t RESERVED4a[(0x80/4) - PLIC_SET_UP_REGISTERS];
 504:/home/vinay/Desktop/softconsole_watershed/Water-shed/src/platform/mpfs_hal/common/mss_plic.h ****     volatile uint32_t HART1_SMODE_ENA[PLIC_SET_UP_REGISTERS];
 505:/home/vinay/Desktop/softconsole_watershed/Water-shed/src/platform/mpfs_hal/common/mss_plic.h ****     volatile uint32_t RESERVED4[(0x80/4) - PLIC_SET_UP_REGISTERS];
 506:/home/vinay/Desktop/softconsole_watershed/Water-shed/src/platform/mpfs_hal/common/mss_plic.h **** 
 507:/home/vinay/Desktop/softconsole_watershed/Water-shed/src/platform/mpfs_hal/common/mss_plic.h ****     /*-----------------Hart2 Mode Enables--------------------*/
 508:/home/vinay/Desktop/softconsole_watershed/Water-shed/src/platform/mpfs_hal/common/mss_plic.h ****     volatile uint32_t HART2_MMODE_ENA[PLIC_SET_UP_REGISTERS];
 509:/home/vinay/Desktop/softconsole_watershed/Water-shed/src/platform/mpfs_hal/common/mss_plic.h ****     volatile uint32_t RESERVED5a[(0x80/4) - PLIC_SET_UP_REGISTERS];
 510:/home/vinay/Desktop/softconsole_watershed/Water-shed/src/platform/mpfs_hal/common/mss_plic.h ****     volatile uint32_t HART2_SMODE_ENA[PLIC_SET_UP_REGISTERS];
 511:/home/vinay/Desktop/softconsole_watershed/Water-shed/src/platform/mpfs_hal/common/mss_plic.h ****     volatile uint32_t RESERVED5[(0x80/4) - PLIC_SET_UP_REGISTERS];
 512:/home/vinay/Desktop/softconsole_watershed/Water-shed/src/platform/mpfs_hal/common/mss_plic.h **** 
 513:/home/vinay/Desktop/softconsole_watershed/Water-shed/src/platform/mpfs_hal/common/mss_plic.h ****     /*-----------------Hart3 Mode Enables--------------------*/
 514:/home/vinay/Desktop/softconsole_watershed/Water-shed/src/platform/mpfs_hal/common/mss_plic.h ****     volatile uint32_t HART3_MMODE_ENA[PLIC_SET_UP_REGISTERS];
 515:/home/vinay/Desktop/softconsole_watershed/Water-shed/src/platform/mpfs_hal/common/mss_plic.h ****     volatile uint32_t RESERVED6a[(0x80/4) - PLIC_SET_UP_REGISTERS];
 516:/home/vinay/Desktop/softconsole_watershed/Water-shed/src/platform/mpfs_hal/common/mss_plic.h ****     volatile uint32_t HART3_SMODE_ENA[PLIC_SET_UP_REGISTERS];
 517:/home/vinay/Desktop/softconsole_watershed/Water-shed/src/platform/mpfs_hal/common/mss_plic.h ****     volatile uint32_t RESERVED6[(0x80/4) - PLIC_SET_UP_REGISTERS];
 518:/home/vinay/Desktop/softconsole_watershed/Water-shed/src/platform/mpfs_hal/common/mss_plic.h **** 
 519:/home/vinay/Desktop/softconsole_watershed/Water-shed/src/platform/mpfs_hal/common/mss_plic.h ****     /*-----------------Hart4 Mode Enables--------------------*/
 520:/home/vinay/Desktop/softconsole_watershed/Water-shed/src/platform/mpfs_hal/common/mss_plic.h ****     volatile uint32_t HART4_MMODE_ENA[PLIC_SET_UP_REGISTERS];
 521:/home/vinay/Desktop/softconsole_watershed/Water-shed/src/platform/mpfs_hal/common/mss_plic.h ****     volatile uint32_t RESERVED7a[(0x80/4) - PLIC_SET_UP_REGISTERS];
 522:/home/vinay/Desktop/softconsole_watershed/Water-shed/src/platform/mpfs_hal/common/mss_plic.h ****     volatile uint32_t HART4_SMODE_ENA[PLIC_SET_UP_REGISTERS];
 523:/home/vinay/Desktop/softconsole_watershed/Water-shed/src/platform/mpfs_hal/common/mss_plic.h ****     volatile uint32_t RESERVED7[(0x80/4) - PLIC_SET_UP_REGISTERS];
 524:/home/vinay/Desktop/softconsole_watershed/Water-shed/src/platform/mpfs_hal/common/mss_plic.h **** 
 525:/home/vinay/Desktop/softconsole_watershed/Water-shed/src/platform/mpfs_hal/common/mss_plic.h ****     volatile uint32_t RESERVED8[(0x0C200000 - 0x0C002480)/4];
 526:/home/vinay/Desktop/softconsole_watershed/Water-shed/src/platform/mpfs_hal/common/mss_plic.h **** 
 527:/home/vinay/Desktop/softconsole_watershed/Water-shed/src/platform/mpfs_hal/common/mss_plic.h ****     /*--- Target Priority threshold and claim/complete---------*/
 528:/home/vinay/Desktop/softconsole_watershed/Water-shed/src/platform/mpfs_hal/common/mss_plic.h ****     IRQ_Target_Type TARGET[NUM_CLAIM_REGS];   /* See PLIC Register Map or
 529:/home/vinay/Desktop/softconsole_watershed/Water-shed/src/platform/mpfs_hal/common/mss_plic.h ****                                                  TARGET_OFFSET defines below
 530:/home/vinay/Desktop/softconsole_watershed/Water-shed/src/platform/mpfs_hal/common/mss_plic.h ****                                                  for offset details */
 531:/home/vinay/Desktop/softconsole_watershed/Water-shed/src/platform/mpfs_hal/common/mss_plic.h **** 
 532:/home/vinay/Desktop/softconsole_watershed/Water-shed/src/platform/mpfs_hal/common/mss_plic.h **** } PLIC_Type;
 533:/home/vinay/Desktop/softconsole_watershed/Water-shed/src/platform/mpfs_hal/common/mss_plic.h **** 
 534:/home/vinay/Desktop/softconsole_watershed/Water-shed/src/platform/mpfs_hal/common/mss_plic.h **** #define TARGET_OFFSET_HART0_M 0U
 535:/home/vinay/Desktop/softconsole_watershed/Water-shed/src/platform/mpfs_hal/common/mss_plic.h **** #define TARGET_OFFSET_HART1_M 1U
 536:/home/vinay/Desktop/softconsole_watershed/Water-shed/src/platform/mpfs_hal/common/mss_plic.h **** #define TARGET_OFFSET_HART1_S 2U
 537:/home/vinay/Desktop/softconsole_watershed/Water-shed/src/platform/mpfs_hal/common/mss_plic.h **** #define TARGET_OFFSET_HART2_M 3U
 538:/home/vinay/Desktop/softconsole_watershed/Water-shed/src/platform/mpfs_hal/common/mss_plic.h **** #define TARGET_OFFSET_HART2_S 4U
 539:/home/vinay/Desktop/softconsole_watershed/Water-shed/src/platform/mpfs_hal/common/mss_plic.h **** #define TARGET_OFFSET_HART3_M 5U
 540:/home/vinay/Desktop/softconsole_watershed/Water-shed/src/platform/mpfs_hal/common/mss_plic.h **** #define TARGET_OFFSET_HART3_S 6U
 541:/home/vinay/Desktop/softconsole_watershed/Water-shed/src/platform/mpfs_hal/common/mss_plic.h **** #define TARGET_OFFSET_HART4_M 7U
 542:/home/vinay/Desktop/softconsole_watershed/Water-shed/src/platform/mpfs_hal/common/mss_plic.h **** #define TARGET_OFFSET_HART4_S 8U
 543:/home/vinay/Desktop/softconsole_watershed/Water-shed/src/platform/mpfs_hal/common/mss_plic.h **** 
 544:/home/vinay/Desktop/softconsole_watershed/Water-shed/src/platform/mpfs_hal/common/mss_plic.h **** extern const unsigned long plic_hart_lookup[5U];
 545:/home/vinay/Desktop/softconsole_watershed/Water-shed/src/platform/mpfs_hal/common/mss_plic.h **** 
 546:/home/vinay/Desktop/softconsole_watershed/Water-shed/src/platform/mpfs_hal/common/mss_plic.h **** /***************************************************************************//**
 547:/home/vinay/Desktop/softconsole_watershed/Water-shed/src/platform/mpfs_hal/common/mss_plic.h ****  * PLIC: Platform Level Interrupt Controller
 548:/home/vinay/Desktop/softconsole_watershed/Water-shed/src/platform/mpfs_hal/common/mss_plic.h ****  */
 549:/home/vinay/Desktop/softconsole_watershed/Water-shed/src/platform/mpfs_hal/common/mss_plic.h **** #define PLIC_BASE_ADDR 0x0C000000UL
 550:/home/vinay/Desktop/softconsole_watershed/Water-shed/src/platform/mpfs_hal/common/mss_plic.h **** 
 551:/home/vinay/Desktop/softconsole_watershed/Water-shed/src/platform/mpfs_hal/common/mss_plic.h **** #define PLIC    ((PLIC_Type * const)PLIC_BASE_ADDR)
 552:/home/vinay/Desktop/softconsole_watershed/Water-shed/src/platform/mpfs_hal/common/mss_plic.h **** 
 553:/home/vinay/Desktop/softconsole_watershed/Water-shed/src/platform/mpfs_hal/common/mss_plic.h **** /*-------------------------------------------------------------------------*//**
 554:/home/vinay/Desktop/softconsole_watershed/Water-shed/src/platform/mpfs_hal/common/mss_plic.h ****  * The function PLIC_init() initializes the PLIC controller and enables the
 555:/home/vinay/Desktop/softconsole_watershed/Water-shed/src/platform/mpfs_hal/common/mss_plic.h ****  * global external interrupt bit.
 556:/home/vinay/Desktop/softconsole_watershed/Water-shed/src/platform/mpfs_hal/common/mss_plic.h ****  */
 557:/home/vinay/Desktop/softconsole_watershed/Water-shed/src/platform/mpfs_hal/common/mss_plic.h **** 
 558:/home/vinay/Desktop/softconsole_watershed/Water-shed/src/platform/mpfs_hal/common/mss_plic.h **** /*-----------------Hart Mode Enables--------------------*/
 559:/home/vinay/Desktop/softconsole_watershed/Water-shed/src/platform/mpfs_hal/common/mss_plic.h **** 
 560:/home/vinay/Desktop/softconsole_watershed/Water-shed/src/platform/mpfs_hal/common/mss_plic.h **** static inline void PLIC_init(void)
 561:/home/vinay/Desktop/softconsole_watershed/Water-shed/src/platform/mpfs_hal/common/mss_plic.h **** {
 562:/home/vinay/Desktop/softconsole_watershed/Water-shed/src/platform/mpfs_hal/common/mss_plic.h ****     uint32_t inc;
 563:/home/vinay/Desktop/softconsole_watershed/Water-shed/src/platform/mpfs_hal/common/mss_plic.h ****     uint64_t hart_id  = read_csr(mhartid);
 564:/home/vinay/Desktop/softconsole_watershed/Water-shed/src/platform/mpfs_hal/common/mss_plic.h **** 
 565:/home/vinay/Desktop/softconsole_watershed/Water-shed/src/platform/mpfs_hal/common/mss_plic.h ****     /* Disable all interrupts for the current hart. */
 566:/home/vinay/Desktop/softconsole_watershed/Water-shed/src/platform/mpfs_hal/common/mss_plic.h ****     switch(hart_id)
 567:/home/vinay/Desktop/softconsole_watershed/Water-shed/src/platform/mpfs_hal/common/mss_plic.h ****     {
 568:/home/vinay/Desktop/softconsole_watershed/Water-shed/src/platform/mpfs_hal/common/mss_plic.h ****         case 0:
 569:/home/vinay/Desktop/softconsole_watershed/Water-shed/src/platform/mpfs_hal/common/mss_plic.h ****             for(inc = 0UL; inc < PLIC_SET_UP_REGISTERS; inc++)
 570:/home/vinay/Desktop/softconsole_watershed/Water-shed/src/platform/mpfs_hal/common/mss_plic.h ****             {
 571:/home/vinay/Desktop/softconsole_watershed/Water-shed/src/platform/mpfs_hal/common/mss_plic.h ****                 PLIC->HART0_MMODE_ENA[inc] = 0U;
 572:/home/vinay/Desktop/softconsole_watershed/Water-shed/src/platform/mpfs_hal/common/mss_plic.h ****             }
 573:/home/vinay/Desktop/softconsole_watershed/Water-shed/src/platform/mpfs_hal/common/mss_plic.h **** 
 574:/home/vinay/Desktop/softconsole_watershed/Water-shed/src/platform/mpfs_hal/common/mss_plic.h ****             /* Set the threshold to zero.
 575:/home/vinay/Desktop/softconsole_watershed/Water-shed/src/platform/mpfs_hal/common/mss_plic.h ****              * PLIC provides context based threshold register for the settings of a
 576:/home/vinay/Desktop/softconsole_watershed/Water-shed/src/platform/mpfs_hal/common/mss_plic.h ****              * interrupt priority threshold of each context. The threshold register
 577:/home/vinay/Desktop/softconsole_watershed/Water-shed/src/platform/mpfs_hal/common/mss_plic.h ****              * is a WARL field. The PLIC will mask all PLIC interrupts of a priority
 578:/home/vinay/Desktop/softconsole_watershed/Water-shed/src/platform/mpfs_hal/common/mss_plic.h ****              * less than or equal to threshold. For example, a threshold value of zero
 579:/home/vinay/Desktop/softconsole_watershed/Water-shed/src/platform/mpfs_hal/common/mss_plic.h ****              * permits all interrupts with non-zero priority.*/
 580:/home/vinay/Desktop/softconsole_watershed/Water-shed/src/platform/mpfs_hal/common/mss_plic.h **** 
 581:/home/vinay/Desktop/softconsole_watershed/Water-shed/src/platform/mpfs_hal/common/mss_plic.h ****             PLIC->TARGET[TARGET_OFFSET_HART0_M].PRIORITY_THRESHOLD  = 0U;
 582:/home/vinay/Desktop/softconsole_watershed/Water-shed/src/platform/mpfs_hal/common/mss_plic.h ****             break;
 583:/home/vinay/Desktop/softconsole_watershed/Water-shed/src/platform/mpfs_hal/common/mss_plic.h ****         case 1:
 584:/home/vinay/Desktop/softconsole_watershed/Water-shed/src/platform/mpfs_hal/common/mss_plic.h ****             for(inc = 0UL; inc < PLIC_SET_UP_REGISTERS; inc++)
 585:/home/vinay/Desktop/softconsole_watershed/Water-shed/src/platform/mpfs_hal/common/mss_plic.h ****             {
 586:/home/vinay/Desktop/softconsole_watershed/Water-shed/src/platform/mpfs_hal/common/mss_plic.h ****                 PLIC->HART1_MMODE_ENA[inc] = 0U;
 587:/home/vinay/Desktop/softconsole_watershed/Water-shed/src/platform/mpfs_hal/common/mss_plic.h ****                 PLIC->HART1_SMODE_ENA[inc] = 0U;
 588:/home/vinay/Desktop/softconsole_watershed/Water-shed/src/platform/mpfs_hal/common/mss_plic.h ****             }
 589:/home/vinay/Desktop/softconsole_watershed/Water-shed/src/platform/mpfs_hal/common/mss_plic.h **** 
 590:/home/vinay/Desktop/softconsole_watershed/Water-shed/src/platform/mpfs_hal/common/mss_plic.h ****             PLIC->TARGET[TARGET_OFFSET_HART1_M].PRIORITY_THRESHOLD  = 0U;
 591:/home/vinay/Desktop/softconsole_watershed/Water-shed/src/platform/mpfs_hal/common/mss_plic.h ****             /* Disable supervisor level */
 592:/home/vinay/Desktop/softconsole_watershed/Water-shed/src/platform/mpfs_hal/common/mss_plic.h ****             PLIC->TARGET[TARGET_OFFSET_HART1_S].PRIORITY_THRESHOLD  = 7U;
 593:/home/vinay/Desktop/softconsole_watershed/Water-shed/src/platform/mpfs_hal/common/mss_plic.h ****             break;
 594:/home/vinay/Desktop/softconsole_watershed/Water-shed/src/platform/mpfs_hal/common/mss_plic.h ****         case 2:
 595:/home/vinay/Desktop/softconsole_watershed/Water-shed/src/platform/mpfs_hal/common/mss_plic.h ****             for(inc = 0UL; inc < PLIC_SET_UP_REGISTERS; inc++)
 596:/home/vinay/Desktop/softconsole_watershed/Water-shed/src/platform/mpfs_hal/common/mss_plic.h ****             {
 597:/home/vinay/Desktop/softconsole_watershed/Water-shed/src/platform/mpfs_hal/common/mss_plic.h ****                 PLIC->HART2_MMODE_ENA[inc] = 0U;
 598:/home/vinay/Desktop/softconsole_watershed/Water-shed/src/platform/mpfs_hal/common/mss_plic.h ****                 PLIC->HART2_SMODE_ENA[inc] = 0U;
 599:/home/vinay/Desktop/softconsole_watershed/Water-shed/src/platform/mpfs_hal/common/mss_plic.h ****             }
 600:/home/vinay/Desktop/softconsole_watershed/Water-shed/src/platform/mpfs_hal/common/mss_plic.h **** 
 601:/home/vinay/Desktop/softconsole_watershed/Water-shed/src/platform/mpfs_hal/common/mss_plic.h ****             PLIC->TARGET[TARGET_OFFSET_HART2_M].PRIORITY_THRESHOLD  = 0U;
 602:/home/vinay/Desktop/softconsole_watershed/Water-shed/src/platform/mpfs_hal/common/mss_plic.h ****             /* Disable supervisor level */
 603:/home/vinay/Desktop/softconsole_watershed/Water-shed/src/platform/mpfs_hal/common/mss_plic.h ****             PLIC->TARGET[TARGET_OFFSET_HART2_S].PRIORITY_THRESHOLD  = 7U;
 604:/home/vinay/Desktop/softconsole_watershed/Water-shed/src/platform/mpfs_hal/common/mss_plic.h ****             break;
 605:/home/vinay/Desktop/softconsole_watershed/Water-shed/src/platform/mpfs_hal/common/mss_plic.h ****         case 3:
 606:/home/vinay/Desktop/softconsole_watershed/Water-shed/src/platform/mpfs_hal/common/mss_plic.h ****             for(inc = 0UL; inc < PLIC_SET_UP_REGISTERS; inc++)
 607:/home/vinay/Desktop/softconsole_watershed/Water-shed/src/platform/mpfs_hal/common/mss_plic.h ****             {
 608:/home/vinay/Desktop/softconsole_watershed/Water-shed/src/platform/mpfs_hal/common/mss_plic.h ****                 PLIC->HART3_MMODE_ENA[inc] = 0U;
 609:/home/vinay/Desktop/softconsole_watershed/Water-shed/src/platform/mpfs_hal/common/mss_plic.h ****                 PLIC->HART3_SMODE_ENA[inc] = 0U;
 610:/home/vinay/Desktop/softconsole_watershed/Water-shed/src/platform/mpfs_hal/common/mss_plic.h ****             }
 611:/home/vinay/Desktop/softconsole_watershed/Water-shed/src/platform/mpfs_hal/common/mss_plic.h **** 
 612:/home/vinay/Desktop/softconsole_watershed/Water-shed/src/platform/mpfs_hal/common/mss_plic.h ****             PLIC->TARGET[TARGET_OFFSET_HART3_M].PRIORITY_THRESHOLD  = 0U;
 613:/home/vinay/Desktop/softconsole_watershed/Water-shed/src/platform/mpfs_hal/common/mss_plic.h ****             /* Disable supervisor level */
 614:/home/vinay/Desktop/softconsole_watershed/Water-shed/src/platform/mpfs_hal/common/mss_plic.h ****             PLIC->TARGET[TARGET_OFFSET_HART3_S].PRIORITY_THRESHOLD  = 7U;
 615:/home/vinay/Desktop/softconsole_watershed/Water-shed/src/platform/mpfs_hal/common/mss_plic.h ****             break;
 616:/home/vinay/Desktop/softconsole_watershed/Water-shed/src/platform/mpfs_hal/common/mss_plic.h ****         case 4:
 617:/home/vinay/Desktop/softconsole_watershed/Water-shed/src/platform/mpfs_hal/common/mss_plic.h ****             for(inc = 0UL; inc < PLIC_SET_UP_REGISTERS; inc++)
 618:/home/vinay/Desktop/softconsole_watershed/Water-shed/src/platform/mpfs_hal/common/mss_plic.h ****             {
 619:/home/vinay/Desktop/softconsole_watershed/Water-shed/src/platform/mpfs_hal/common/mss_plic.h ****                 PLIC->HART4_MMODE_ENA[inc] = 0U;
 620:/home/vinay/Desktop/softconsole_watershed/Water-shed/src/platform/mpfs_hal/common/mss_plic.h ****                 PLIC->HART4_SMODE_ENA[inc] = 0U;
 621:/home/vinay/Desktop/softconsole_watershed/Water-shed/src/platform/mpfs_hal/common/mss_plic.h ****             }
 622:/home/vinay/Desktop/softconsole_watershed/Water-shed/src/platform/mpfs_hal/common/mss_plic.h **** 
 623:/home/vinay/Desktop/softconsole_watershed/Water-shed/src/platform/mpfs_hal/common/mss_plic.h ****             PLIC->TARGET[TARGET_OFFSET_HART4_M].PRIORITY_THRESHOLD  = 0U;
 624:/home/vinay/Desktop/softconsole_watershed/Water-shed/src/platform/mpfs_hal/common/mss_plic.h ****             /* Disable supervisor level */
 625:/home/vinay/Desktop/softconsole_watershed/Water-shed/src/platform/mpfs_hal/common/mss_plic.h ****             PLIC->TARGET[TARGET_OFFSET_HART4_S].PRIORITY_THRESHOLD  = 7U;
 626:/home/vinay/Desktop/softconsole_watershed/Water-shed/src/platform/mpfs_hal/common/mss_plic.h ****             break;
 627:/home/vinay/Desktop/softconsole_watershed/Water-shed/src/platform/mpfs_hal/common/mss_plic.h ****         default:
 628:/home/vinay/Desktop/softconsole_watershed/Water-shed/src/platform/mpfs_hal/common/mss_plic.h ****             break;
 629:/home/vinay/Desktop/softconsole_watershed/Water-shed/src/platform/mpfs_hal/common/mss_plic.h ****     }
 630:/home/vinay/Desktop/softconsole_watershed/Water-shed/src/platform/mpfs_hal/common/mss_plic.h **** 
 631:/home/vinay/Desktop/softconsole_watershed/Water-shed/src/platform/mpfs_hal/common/mss_plic.h ****     /* Enable  PLIC_MMUARTine external interrupts. */
 632:/home/vinay/Desktop/softconsole_watershed/Water-shed/src/platform/mpfs_hal/common/mss_plic.h ****     set_csr(mie, MIP_MEIP);
 633:/home/vinay/Desktop/softconsole_watershed/Water-shed/src/platform/mpfs_hal/common/mss_plic.h **** }
 634:/home/vinay/Desktop/softconsole_watershed/Water-shed/src/platform/mpfs_hal/common/mss_plic.h **** 
 635:/home/vinay/Desktop/softconsole_watershed/Water-shed/src/platform/mpfs_hal/common/mss_plic.h **** 
 636:/home/vinay/Desktop/softconsole_watershed/Water-shed/src/platform/mpfs_hal/common/mss_plic.h **** 
 637:/home/vinay/Desktop/softconsole_watershed/Water-shed/src/platform/mpfs_hal/common/mss_plic.h **** /***************************************************************************//**
 638:/home/vinay/Desktop/softconsole_watershed/Water-shed/src/platform/mpfs_hal/common/mss_plic.h ****  * The function PLIC_EnableIRQ() enables the external interrupt for the
 639:/home/vinay/Desktop/softconsole_watershed/Water-shed/src/platform/mpfs_hal/common/mss_plic.h ****  * interrupt number indicated by the parameter IRQn.
 640:/home/vinay/Desktop/softconsole_watershed/Water-shed/src/platform/mpfs_hal/common/mss_plic.h ****  */
 641:/home/vinay/Desktop/softconsole_watershed/Water-shed/src/platform/mpfs_hal/common/mss_plic.h **** static inline void PLIC_EnableIRQ(PLIC_IRQn_Type IRQn)
 642:/home/vinay/Desktop/softconsole_watershed/Water-shed/src/platform/mpfs_hal/common/mss_plic.h **** {
 643:/home/vinay/Desktop/softconsole_watershed/Water-shed/src/platform/mpfs_hal/common/mss_plic.h ****     uint32_t current;
 644:/home/vinay/Desktop/softconsole_watershed/Water-shed/src/platform/mpfs_hal/common/mss_plic.h ****     uint64_t hart_id  = read_csr(mhartid);
 645:/home/vinay/Desktop/softconsole_watershed/Water-shed/src/platform/mpfs_hal/common/mss_plic.h **** 
 646:/home/vinay/Desktop/softconsole_watershed/Water-shed/src/platform/mpfs_hal/common/mss_plic.h ****     switch(hart_id)
 647:/home/vinay/Desktop/softconsole_watershed/Water-shed/src/platform/mpfs_hal/common/mss_plic.h ****     {
 648:/home/vinay/Desktop/softconsole_watershed/Water-shed/src/platform/mpfs_hal/common/mss_plic.h ****         case 0:
 649:/home/vinay/Desktop/softconsole_watershed/Water-shed/src/platform/mpfs_hal/common/mss_plic.h ****             current  = PLIC->HART0_MMODE_ENA[IRQn / 32U];
 650:/home/vinay/Desktop/softconsole_watershed/Water-shed/src/platform/mpfs_hal/common/mss_plic.h ****             current |= (uint32_t)1 << (IRQn % 32U);
 651:/home/vinay/Desktop/softconsole_watershed/Water-shed/src/platform/mpfs_hal/common/mss_plic.h ****             PLIC->HART0_MMODE_ENA[IRQn / 32U]  = current;
 652:/home/vinay/Desktop/softconsole_watershed/Water-shed/src/platform/mpfs_hal/common/mss_plic.h ****             break;
 653:/home/vinay/Desktop/softconsole_watershed/Water-shed/src/platform/mpfs_hal/common/mss_plic.h ****         case 1:
 654:/home/vinay/Desktop/softconsole_watershed/Water-shed/src/platform/mpfs_hal/common/mss_plic.h ****             current  = PLIC->HART1_MMODE_ENA[IRQn / 32U];
 655:/home/vinay/Desktop/softconsole_watershed/Water-shed/src/platform/mpfs_hal/common/mss_plic.h ****             current |= (uint32_t)1 << (IRQn % 32U);
 656:/home/vinay/Desktop/softconsole_watershed/Water-shed/src/platform/mpfs_hal/common/mss_plic.h ****             PLIC->HART1_MMODE_ENA[IRQn / 32U]  = current;
 657:/home/vinay/Desktop/softconsole_watershed/Water-shed/src/platform/mpfs_hal/common/mss_plic.h ****             break;
 658:/home/vinay/Desktop/softconsole_watershed/Water-shed/src/platform/mpfs_hal/common/mss_plic.h ****         case 2:
 659:/home/vinay/Desktop/softconsole_watershed/Water-shed/src/platform/mpfs_hal/common/mss_plic.h ****             current  = PLIC->HART2_MMODE_ENA[IRQn / 32U];
 660:/home/vinay/Desktop/softconsole_watershed/Water-shed/src/platform/mpfs_hal/common/mss_plic.h ****             current |= (uint32_t)1 << (IRQn % 32U);
 661:/home/vinay/Desktop/softconsole_watershed/Water-shed/src/platform/mpfs_hal/common/mss_plic.h ****             PLIC->HART2_MMODE_ENA[IRQn / 32U]  = current;
 662:/home/vinay/Desktop/softconsole_watershed/Water-shed/src/platform/mpfs_hal/common/mss_plic.h ****             break;
 663:/home/vinay/Desktop/softconsole_watershed/Water-shed/src/platform/mpfs_hal/common/mss_plic.h ****         case 3:
 664:/home/vinay/Desktop/softconsole_watershed/Water-shed/src/platform/mpfs_hal/common/mss_plic.h ****             current  = PLIC->HART3_MMODE_ENA[IRQn / 32U];
 665:/home/vinay/Desktop/softconsole_watershed/Water-shed/src/platform/mpfs_hal/common/mss_plic.h ****             current |= (uint32_t)1 << (IRQn % 32U);
 666:/home/vinay/Desktop/softconsole_watershed/Water-shed/src/platform/mpfs_hal/common/mss_plic.h ****             PLIC->HART3_MMODE_ENA[IRQn / 32U]  = current;
 667:/home/vinay/Desktop/softconsole_watershed/Water-shed/src/platform/mpfs_hal/common/mss_plic.h ****             break;
 668:/home/vinay/Desktop/softconsole_watershed/Water-shed/src/platform/mpfs_hal/common/mss_plic.h ****         case 4:
 669:/home/vinay/Desktop/softconsole_watershed/Water-shed/src/platform/mpfs_hal/common/mss_plic.h ****             current  = PLIC->HART4_MMODE_ENA[IRQn / 32U];
 670:/home/vinay/Desktop/softconsole_watershed/Water-shed/src/platform/mpfs_hal/common/mss_plic.h ****             current |= (uint32_t)1 << (IRQn % 32U);
 671:/home/vinay/Desktop/softconsole_watershed/Water-shed/src/platform/mpfs_hal/common/mss_plic.h ****             PLIC->HART4_MMODE_ENA[IRQn / 32U]  = current;
 672:/home/vinay/Desktop/softconsole_watershed/Water-shed/src/platform/mpfs_hal/common/mss_plic.h ****             break;
 673:/home/vinay/Desktop/softconsole_watershed/Water-shed/src/platform/mpfs_hal/common/mss_plic.h ****         default:
 674:/home/vinay/Desktop/softconsole_watershed/Water-shed/src/platform/mpfs_hal/common/mss_plic.h ****             break;
 675:/home/vinay/Desktop/softconsole_watershed/Water-shed/src/platform/mpfs_hal/common/mss_plic.h ****     }
 676:/home/vinay/Desktop/softconsole_watershed/Water-shed/src/platform/mpfs_hal/common/mss_plic.h **** }
 677:/home/vinay/Desktop/softconsole_watershed/Water-shed/src/platform/mpfs_hal/common/mss_plic.h **** 
 678:/home/vinay/Desktop/softconsole_watershed/Water-shed/src/platform/mpfs_hal/common/mss_plic.h **** /***************************************************************************//**
 679:/home/vinay/Desktop/softconsole_watershed/Water-shed/src/platform/mpfs_hal/common/mss_plic.h ****  * The function PLIC_DisableIRQ() disables the external interrupt for the
 680:/home/vinay/Desktop/softconsole_watershed/Water-shed/src/platform/mpfs_hal/common/mss_plic.h ****  * interrupt number indicated by the parameter IRQn.
 681:/home/vinay/Desktop/softconsole_watershed/Water-shed/src/platform/mpfs_hal/common/mss_plic.h **** 
 682:/home/vinay/Desktop/softconsole_watershed/Water-shed/src/platform/mpfs_hal/common/mss_plic.h ****  * NOTE:
 683:/home/vinay/Desktop/softconsole_watershed/Water-shed/src/platform/mpfs_hal/common/mss_plic.h ****  *     This function can be used to disable the external interrupt from outside
 684:/home/vinay/Desktop/softconsole_watershed/Water-shed/src/platform/mpfs_hal/common/mss_plic.h ****  *     external interrupt handler function.
 685:/home/vinay/Desktop/softconsole_watershed/Water-shed/src/platform/mpfs_hal/common/mss_plic.h ****  *     This function MUST NOT be used from within the External Interrupt
 686:/home/vinay/Desktop/softconsole_watershed/Water-shed/src/platform/mpfs_hal/common/mss_plic.h ****  *     handler.
 687:/home/vinay/Desktop/softconsole_watershed/Water-shed/src/platform/mpfs_hal/common/mss_plic.h ****  *     If you wish to disable the external interrupt while the interrupt handler
 688:/home/vinay/Desktop/softconsole_watershed/Water-shed/src/platform/mpfs_hal/common/mss_plic.h ****  *     for that external interrupt is executing then you must use the return
 689:/home/vinay/Desktop/softconsole_watershed/Water-shed/src/platform/mpfs_hal/common/mss_plic.h ****  *     value EXT_IRQ_DISABLE to return from the extern interrupt handler.
 690:/home/vinay/Desktop/softconsole_watershed/Water-shed/src/platform/mpfs_hal/common/mss_plic.h ****  */
 691:/home/vinay/Desktop/softconsole_watershed/Water-shed/src/platform/mpfs_hal/common/mss_plic.h **** static inline void PLIC_DisableIRQ(PLIC_IRQn_Type IRQn)
 692:/home/vinay/Desktop/softconsole_watershed/Water-shed/src/platform/mpfs_hal/common/mss_plic.h **** {
 693:/home/vinay/Desktop/softconsole_watershed/Water-shed/src/platform/mpfs_hal/common/mss_plic.h ****     uint32_t current;
 803              		.loc 2 693 5
 694:/home/vinay/Desktop/softconsole_watershed/Water-shed/src/platform/mpfs_hal/common/mss_plic.h ****     uint64_t hart_id  = read_csr(mhartid);
 804              		.loc 2 694 5
 805              	.LBB18:
 806              		.loc 2 694 25
 807              		.loc 2 694 25
 808              	 #APP
 809              	# 694 "/home/vinay/Desktop/softconsole_watershed/Water-shed/src/platform/mpfs_hal/common/mss_plic.h
 695              	
 810              		csrr a5, mhartid
 811              	# 0 "" 2
 812              	.LVL31:
 694:/home/vinay/Desktop/softconsole_watershed/Water-shed/src/platform/mpfs_hal/common/mss_plic.h ****     uint64_t hart_id  = read_csr(mhartid);
 813              		.loc 2 694 25
 814              	 #NO_APP
 815              	.LBE18:
 696:/home/vinay/Desktop/softconsole_watershed/Water-shed/src/platform/mpfs_hal/common/mss_plic.h ****     switch(hart_id)
 816              		.loc 2 696 5
 817 0092 9146     		li	a3,4
 818 0094 63E7F60A 		bgtu	a5,a3,.L92
 819 0098 17060000 		lla	a2,.L96
 819      13060600 
 820 00a0 8A07     		slli	a5,a5,2
 821              	.LVL32:
 822 00a2 B297     		add	a5,a5,a2
 823 00a4 9443     		lw	a3,0(a5)
 824 00a6 9B575700 		srliw	a5,a4,5
 825 00aa 8A07     		slli	a5,a5,2
 826 00ac B296     		add	a3,a3,a2
 827 00ae 7D8B     		andi	a4,a4,31
 828              	.LVL33:
 829 00b0 8286     		jr	a3
 830              		.section	.rodata.disable_irq,"a",@progbits
 831              		.align	2
 832              		.align	2
 833              	.L96:
 834 0000 00000000 		.word	.L100-.L96
 835 0004 00000000 		.word	.L99-.L96
 836 0008 00000000 		.word	.L98-.L96
 837 000c 00000000 		.word	.L97-.L96
 838 0010 00000000 		.word	.L95-.L96
 839              		.section	.text.disable_irq
 840              	.L100:
 697:/home/vinay/Desktop/softconsole_watershed/Water-shed/src/platform/mpfs_hal/common/mss_plic.h ****     {
 698:/home/vinay/Desktop/softconsole_watershed/Water-shed/src/platform/mpfs_hal/common/mss_plic.h ****         case 0:
 699:/home/vinay/Desktop/softconsole_watershed/Water-shed/src/platform/mpfs_hal/common/mss_plic.h ****             current = PLIC->HART0_MMODE_ENA[IRQn / 32U];
 841              		.loc 2 699 13
 842              		.loc 2 699 21 is_stmt 0
 843 00b2 B726000C 		li	a3,201334784
 844 00b6 B697     		add	a5,a5,a3
 845 00b8 9043     		lw	a2,0(a5)
 846              	.LVL34:
 700:/home/vinay/Desktop/softconsole_watershed/Water-shed/src/platform/mpfs_hal/common/mss_plic.h ****             current &= ~((uint32_t)1 << (IRQn % 32U));
 847              		.loc 2 700 13 is_stmt 1
 848              		.loc 2 700 38 is_stmt 0
 849 00ba 8546     		li	a3,1
 850 00bc 3B97E600 		sllw	a4,a3,a4
 851              		.loc 2 700 24
 852 00c0 1347F7FF 		not	a4,a4
 853              		.loc 2 700 21
 854 00c4 718F     		and	a4,a4,a2
 855 00c6 0127     		sext.w	a4,a4
 856              	.LVL35:
 701:/home/vinay/Desktop/softconsole_watershed/Water-shed/src/platform/mpfs_hal/common/mss_plic.h ****             PLIC->HART0_MMODE_ENA[IRQn / 32U] = current;
 857              		.loc 2 701 13 is_stmt 1
 858              		.loc 2 701 47 is_stmt 0
 859 00c8 98C3     		sw	a4,0(a5)
 702:/home/vinay/Desktop/softconsole_watershed/Water-shed/src/platform/mpfs_hal/common/mss_plic.h ****             break;
 860              		.loc 2 702 13 is_stmt 1
 861 00ca 8280     		ret
 862              	.LVL36:
 863              	.L99:
 703:/home/vinay/Desktop/softconsole_watershed/Water-shed/src/platform/mpfs_hal/common/mss_plic.h ****         case 1:
 704:/home/vinay/Desktop/softconsole_watershed/Water-shed/src/platform/mpfs_hal/common/mss_plic.h ****             current = PLIC->HART1_MMODE_ENA[IRQn / 32U];
 864              		.loc 2 704 13
 865              		.loc 2 704 21 is_stmt 0
 866 00cc B726000C 		li	a3,201334784
 867 00d0 B697     		add	a5,a5,a3
 868 00d2 03A60708 		lw	a2,128(a5)
 869              	.LVL37:
 705:/home/vinay/Desktop/softconsole_watershed/Water-shed/src/platform/mpfs_hal/common/mss_plic.h ****             current &= ~((uint32_t)1 << (IRQn % 32U));
 870              		.loc 2 705 13 is_stmt 1
 871              		.loc 2 705 38 is_stmt 0
 872 00d6 8546     		li	a3,1
 873 00d8 3B97E600 		sllw	a4,a3,a4
 874              		.loc 2 705 24
 875 00dc 1347F7FF 		not	a4,a4
 876              		.loc 2 705 21
 877 00e0 718F     		and	a4,a4,a2
 878 00e2 0127     		sext.w	a4,a4
 879              	.LVL38:
 706:/home/vinay/Desktop/softconsole_watershed/Water-shed/src/platform/mpfs_hal/common/mss_plic.h ****             PLIC->HART1_MMODE_ENA[IRQn / 32U] = current;
 880              		.loc 2 706 13 is_stmt 1
 881              		.loc 2 706 47 is_stmt 0
 882 00e4 23A0E708 		sw	a4,128(a5)
 707:/home/vinay/Desktop/softconsole_watershed/Water-shed/src/platform/mpfs_hal/common/mss_plic.h ****             break;
 883              		.loc 2 707 13 is_stmt 1
 884 00e8 8280     		ret
 885              	.LVL39:
 886              	.L98:
 708:/home/vinay/Desktop/softconsole_watershed/Water-shed/src/platform/mpfs_hal/common/mss_plic.h ****         case 2:
 709:/home/vinay/Desktop/softconsole_watershed/Water-shed/src/platform/mpfs_hal/common/mss_plic.h ****             current = PLIC->HART2_MMODE_ENA[IRQn / 32U];
 887              		.loc 2 709 13
 888              		.loc 2 709 21 is_stmt 0
 889 00ea B726000C 		li	a3,201334784
 890 00ee B697     		add	a5,a5,a3
 891 00f0 03A60718 		lw	a2,384(a5)
 892              	.LVL40:
 710:/home/vinay/Desktop/softconsole_watershed/Water-shed/src/platform/mpfs_hal/common/mss_plic.h ****             current &= ~((uint32_t)1 << (IRQn % 32U));
 893              		.loc 2 710 13 is_stmt 1
 894              		.loc 2 710 38 is_stmt 0
 895 00f4 8546     		li	a3,1
 896 00f6 3B97E600 		sllw	a4,a3,a4
 897              		.loc 2 710 24
 898 00fa 1347F7FF 		not	a4,a4
 899              		.loc 2 710 21
 900 00fe 718F     		and	a4,a4,a2
 901 0100 0127     		sext.w	a4,a4
 902              	.LVL41:
 711:/home/vinay/Desktop/softconsole_watershed/Water-shed/src/platform/mpfs_hal/common/mss_plic.h ****             PLIC->HART2_MMODE_ENA[IRQn / 32U] = current;
 903              		.loc 2 711 13 is_stmt 1
 904              		.loc 2 711 47 is_stmt 0
 905 0102 23A0E718 		sw	a4,384(a5)
 712:/home/vinay/Desktop/softconsole_watershed/Water-shed/src/platform/mpfs_hal/common/mss_plic.h ****             break;
 906              		.loc 2 712 13 is_stmt 1
 907 0106 8280     		ret
 908              	.LVL42:
 909              	.L97:
 713:/home/vinay/Desktop/softconsole_watershed/Water-shed/src/platform/mpfs_hal/common/mss_plic.h ****         case 3:
 714:/home/vinay/Desktop/softconsole_watershed/Water-shed/src/platform/mpfs_hal/common/mss_plic.h ****             current = PLIC->HART3_MMODE_ENA[IRQn / 32U];
 910              		.loc 2 714 13
 911              		.loc 2 714 21 is_stmt 0
 912 0108 B726000C 		li	a3,201334784
 913 010c B697     		add	a5,a5,a3
 914 010e 03A60728 		lw	a2,640(a5)
 915              	.LVL43:
 715:/home/vinay/Desktop/softconsole_watershed/Water-shed/src/platform/mpfs_hal/common/mss_plic.h ****             current &= ~((uint32_t)1 << (IRQn % 32U));
 916              		.loc 2 715 13 is_stmt 1
 917              		.loc 2 715 38 is_stmt 0
 918 0112 8546     		li	a3,1
 919 0114 3B97E600 		sllw	a4,a3,a4
 920              		.loc 2 715 24
 921 0118 1347F7FF 		not	a4,a4
 922              		.loc 2 715 21
 923 011c 718F     		and	a4,a4,a2
 924 011e 0127     		sext.w	a4,a4
 925              	.LVL44:
 716:/home/vinay/Desktop/softconsole_watershed/Water-shed/src/platform/mpfs_hal/common/mss_plic.h ****             PLIC->HART3_MMODE_ENA[IRQn / 32U] = current;
 926              		.loc 2 716 13 is_stmt 1
 927              		.loc 2 716 47 is_stmt 0
 928 0120 23A0E728 		sw	a4,640(a5)
 717:/home/vinay/Desktop/softconsole_watershed/Water-shed/src/platform/mpfs_hal/common/mss_plic.h ****             break;
 929              		.loc 2 717 13 is_stmt 1
 930 0124 8280     		ret
 931              	.LVL45:
 932              	.L95:
 718:/home/vinay/Desktop/softconsole_watershed/Water-shed/src/platform/mpfs_hal/common/mss_plic.h ****         case 4:
 719:/home/vinay/Desktop/softconsole_watershed/Water-shed/src/platform/mpfs_hal/common/mss_plic.h ****             current = PLIC->HART4_MMODE_ENA[IRQn / 32U];
 933              		.loc 2 719 13
 934              		.loc 2 719 21 is_stmt 0
 935 0126 B726000C 		li	a3,201334784
 936 012a B697     		add	a5,a5,a3
 937 012c 03A60738 		lw	a2,896(a5)
 938              	.LVL46:
 720:/home/vinay/Desktop/softconsole_watershed/Water-shed/src/platform/mpfs_hal/common/mss_plic.h ****             current &= ~((uint32_t)1 << (IRQn % 32U));
 939              		.loc 2 720 13 is_stmt 1
 940              		.loc 2 720 38 is_stmt 0
 941 0130 8546     		li	a3,1
 942 0132 3B97E600 		sllw	a4,a3,a4
 943              		.loc 2 720 24
 944 0136 1347F7FF 		not	a4,a4
 945              		.loc 2 720 21
 946 013a 718F     		and	a4,a4,a2
 947 013c 0127     		sext.w	a4,a4
 948              	.LVL47:
 721:/home/vinay/Desktop/softconsole_watershed/Water-shed/src/platform/mpfs_hal/common/mss_plic.h ****             PLIC->HART4_MMODE_ENA[IRQn / 32U] = current;
 949              		.loc 2 721 13 is_stmt 1
 950              		.loc 2 721 47 is_stmt 0
 951 013e 23A0E738 		sw	a4,896(a5)
 722:/home/vinay/Desktop/softconsole_watershed/Water-shed/src/platform/mpfs_hal/common/mss_plic.h ****             break;
 952              		.loc 2 722 13 is_stmt 1
 953              	.LVL48:
 954              	.L92:
 955              	.LBE17:
 956              	.LBE16:
1839:../src/platform/drivers/mss/mss_mmuart/mss_uart.c **** }
 957              		.loc 1 1839 1 is_stmt 0
 958 0142 8280     		ret
 959              		.cfi_endproc
 960              	.LFE78:
 962              		.section	.text.enable_irq,"ax",@progbits
 963              		.align	1
 965              	enable_irq:
 966              	.LFB77:
1769:../src/platform/drivers/mss/mss_mmuart/mss_uart.c ****     PLIC_IRQn_Type plic_num = 0;
 967              		.loc 1 1769 1 is_stmt 1
 968              		.cfi_startproc
 969              	.LVL49:
1770:../src/platform/drivers/mss/mss_mmuart/mss_uart.c **** 
 970              		.loc 1 1770 5
1772:../src/platform/drivers/mss/mss_mmuart/mss_uart.c ****     {
 971              		.loc 1 1772 5
1772:../src/platform/drivers/mss/mss_mmuart/mss_uart.c ****     {
 972              		.loc 1 1772 7 is_stmt 0
 973 0000 83478506 		lbu	a5,104(a0)
 974 0004 63990712 		bne	a5,zero,.L111
 975              	.LVL50:
 976              	.LBB24:
 977              	.LBB25:
1774:../src/platform/drivers/mss/mss_mmuart/mss_uart.c ****         {
 978              		.loc 1 1774 9 is_stmt 1
1774:../src/platform/drivers/mss/mss_mmuart/mss_uart.c ****         {
 979              		.loc 1 1774 12 is_stmt 0
 980 0008 97070000 		lla	a5,g_mss_uart0_lo
 980      93870700 
1776:../src/platform/drivers/mss/mss_mmuart/mss_uart.c ****         }
 981              		.loc 1 1776 22
 982 0010 1307A005 		li	a4,90
1774:../src/platform/drivers/mss/mss_mmuart/mss_uart.c ****         {
 983              		.loc 1 1774 12
 984 0014 6301F508 		beq	a0,a5,.L113
1774:../src/platform/drivers/mss/mss_mmuart/mss_uart.c ****         {
 985              		.loc 1 1774 46
 986 0018 97070000 		lla	a5,g_mss_uart0_hi
 986      93870700 
 987 0020 630BF506 		beq	a0,a5,.L113
1778:../src/platform/drivers/mss/mss_mmuart/mss_uart.c ****         {
 988              		.loc 1 1778 14 is_stmt 1
1778:../src/platform/drivers/mss/mss_mmuart/mss_uart.c ****         {
 989              		.loc 1 1778 17 is_stmt 0
 990 0024 97070000 		lla	a5,g_mss_uart1_lo
 990      93870700 
1780:../src/platform/drivers/mss/mss_mmuart/mss_uart.c ****         }
 991              		.loc 1 1780 22
 992 002c 1307B005 		li	a4,91
1778:../src/platform/drivers/mss/mss_mmuart/mss_uart.c ****         {
 993              		.loc 1 1778 17
 994 0030 6303F506 		beq	a0,a5,.L113
1778:../src/platform/drivers/mss/mss_mmuart/mss_uart.c ****         {
 995              		.loc 1 1778 51
 996 0034 97070000 		lla	a5,g_mss_uart1_hi
 996      93870700 
 997 003c 630DF504 		beq	a0,a5,.L113
1782:../src/platform/drivers/mss/mss_mmuart/mss_uart.c ****         {
 998              		.loc 1 1782 14 is_stmt 1
1782:../src/platform/drivers/mss/mss_mmuart/mss_uart.c ****         {
 999              		.loc 1 1782 17 is_stmt 0
 1000 0040 97070000 		lla	a5,g_mss_uart2_lo
 1000      93870700 
1784:../src/platform/drivers/mss/mss_mmuart/mss_uart.c ****         }
 1001              		.loc 1 1784 22
 1002 0048 1307C005 		li	a4,92
1782:../src/platform/drivers/mss/mss_mmuart/mss_uart.c ****         {
 1003              		.loc 1 1782 17
 1004 004c 6305F504 		beq	a0,a5,.L113
1782:../src/platform/drivers/mss/mss_mmuart/mss_uart.c ****         {
 1005              		.loc 1 1782 51
 1006 0050 97070000 		lla	a5,g_mss_uart2_hi
 1006      93870700 
 1007 0058 630FF502 		beq	a0,a5,.L113
1786:../src/platform/drivers/mss/mss_mmuart/mss_uart.c ****         {
 1008              		.loc 1 1786 14 is_stmt 1
1786:../src/platform/drivers/mss/mss_mmuart/mss_uart.c ****         {
 1009              		.loc 1 1786 17 is_stmt 0
 1010 005c 97070000 		lla	a5,g_mss_uart3_lo
 1010      93870700 
1788:../src/platform/drivers/mss/mss_mmuart/mss_uart.c ****         }
 1011              		.loc 1 1788 22
 1012 0064 1307D005 		li	a4,93
1786:../src/platform/drivers/mss/mss_mmuart/mss_uart.c ****         {
 1013              		.loc 1 1786 17
 1014 0068 6307F502 		beq	a0,a5,.L113
1786:../src/platform/drivers/mss/mss_mmuart/mss_uart.c ****         {
 1015              		.loc 1 1786 51
 1016 006c 97070000 		lla	a5,g_mss_uart3_hi
 1016      93870700 
 1017 0074 6301F502 		beq	a0,a5,.L113
1790:../src/platform/drivers/mss/mss_mmuart/mss_uart.c ****         {
 1018              		.loc 1 1790 14 is_stmt 1
1790:../src/platform/drivers/mss/mss_mmuart/mss_uart.c ****         {
 1019              		.loc 1 1790 17 is_stmt 0
 1020 0078 97070000 		lla	a5,g_mss_uart4_lo
 1020      93870700 
1792:../src/platform/drivers/mss/mss_mmuart/mss_uart.c ****         }
 1021              		.loc 1 1792 22
 1022 0080 1307E005 		li	a4,94
1790:../src/platform/drivers/mss/mss_mmuart/mss_uart.c ****         {
 1023              		.loc 1 1790 17
 1024 0084 6309F500 		beq	a0,a5,.L113
1790:../src/platform/drivers/mss/mss_mmuart/mss_uart.c ****         {
 1025              		.loc 1 1790 51
 1026 0088 97070000 		lla	a5,g_mss_uart4_hi
 1026      93870700 
 1027 0090 6303F500 		beq	a0,a5,.L113
1770:../src/platform/drivers/mss/mss_mmuart/mss_uart.c **** 
 1028              		.loc 1 1770 20
 1029 0094 0147     		li	a4,0
 1030              	.L113:
 1031              	.LVL51:
1800:../src/platform/drivers/mss/mss_mmuart/mss_uart.c ****     }
 1032              		.loc 1 1800 9 is_stmt 1
 1033              	.LBB26:
 1034              	.LBB27:
 643:/home/vinay/Desktop/softconsole_watershed/Water-shed/src/platform/mpfs_hal/common/mss_plic.h ****     uint64_t hart_id  = read_csr(mhartid);
 1035              		.loc 2 643 5
 644:/home/vinay/Desktop/softconsole_watershed/Water-shed/src/platform/mpfs_hal/common/mss_plic.h **** 
 1036              		.loc 2 644 5
 1037              	.LBB28:
 644:/home/vinay/Desktop/softconsole_watershed/Water-shed/src/platform/mpfs_hal/common/mss_plic.h **** 
 1038              		.loc 2 644 25
 644:/home/vinay/Desktop/softconsole_watershed/Water-shed/src/platform/mpfs_hal/common/mss_plic.h **** 
 1039              		.loc 2 644 25
 1040              	 #APP
 1041              	# 644 "/home/vinay/Desktop/softconsole_watershed/Water-shed/src/platform/mpfs_hal/common/mss_plic.h
 1042              		csrr a5, mhartid
 1043              	# 0 "" 2
 1044              	.LVL52:
 644:/home/vinay/Desktop/softconsole_watershed/Water-shed/src/platform/mpfs_hal/common/mss_plic.h **** 
 1045              		.loc 2 644 25
 1046              	 #NO_APP
 1047              	.LBE28:
 646:/home/vinay/Desktop/softconsole_watershed/Water-shed/src/platform/mpfs_hal/common/mss_plic.h ****     {
 1048              		.loc 2 646 5
 1049 009a 9146     		li	a3,4
 1050 009c 63EDF608 		bgtu	a5,a3,.L111
 1051 00a0 17060000 		lla	a2,.L115
 1051      13060600 
 1052 00a8 8A07     		slli	a5,a5,2
 1053              	.LVL53:
 1054 00aa B297     		add	a5,a5,a2
 1055 00ac 9443     		lw	a3,0(a5)
 1056 00ae 9B575700 		srliw	a5,a4,5
 1057 00b2 8A07     		slli	a5,a5,2
 1058 00b4 B296     		add	a3,a3,a2
 1059 00b6 7D8B     		andi	a4,a4,31
 1060              	.LVL54:
 1061 00b8 8286     		jr	a3
 1062              		.section	.rodata.enable_irq,"a",@progbits
 1063              		.align	2
 1064              		.align	2
 1065              	.L115:
 1066 0000 00000000 		.word	.L119-.L115
 1067 0004 00000000 		.word	.L118-.L115
 1068 0008 00000000 		.word	.L117-.L115
 1069 000c 00000000 		.word	.L116-.L115
 1070 0010 00000000 		.word	.L114-.L115
 1071              		.section	.text.enable_irq
 1072              	.L119:
 649:/home/vinay/Desktop/softconsole_watershed/Water-shed/src/platform/mpfs_hal/common/mss_plic.h ****             current |= (uint32_t)1 << (IRQn % 32U);
 1073              		.loc 2 649 13
 649:/home/vinay/Desktop/softconsole_watershed/Water-shed/src/platform/mpfs_hal/common/mss_plic.h ****             current |= (uint32_t)1 << (IRQn % 32U);
 1074              		.loc 2 649 22 is_stmt 0
 1075 00ba B726000C 		li	a3,201334784
 1076 00be B697     		add	a5,a5,a3
 1077 00c0 9443     		lw	a3,0(a5)
 1078              	.LVL55:
 650:/home/vinay/Desktop/softconsole_watershed/Water-shed/src/platform/mpfs_hal/common/mss_plic.h ****             PLIC->HART0_MMODE_ENA[IRQn / 32U]  = current;
 1079              		.loc 2 650 13 is_stmt 1
 650:/home/vinay/Desktop/softconsole_watershed/Water-shed/src/platform/mpfs_hal/common/mss_plic.h ****             PLIC->HART0_MMODE_ENA[IRQn / 32U]  = current;
 1080              		.loc 2 650 36 is_stmt 0
 1081 00c2 0546     		li	a2,1
 1082 00c4 3B17E600 		sllw	a4,a2,a4
 650:/home/vinay/Desktop/softconsole_watershed/Water-shed/src/platform/mpfs_hal/common/mss_plic.h ****             PLIC->HART0_MMODE_ENA[IRQn / 32U]  = current;
 1083              		.loc 2 650 21
 1084 00c8 558F     		or	a4,a3,a4
 1085 00ca 0127     		sext.w	a4,a4
 1086              	.LVL56:
 651:/home/vinay/Desktop/softconsole_watershed/Water-shed/src/platform/mpfs_hal/common/mss_plic.h ****             break;
 1087              		.loc 2 651 13 is_stmt 1
 651:/home/vinay/Desktop/softconsole_watershed/Water-shed/src/platform/mpfs_hal/common/mss_plic.h ****             break;
 1088              		.loc 2 651 48 is_stmt 0
 1089 00cc 98C3     		sw	a4,0(a5)
 652:/home/vinay/Desktop/softconsole_watershed/Water-shed/src/platform/mpfs_hal/common/mss_plic.h ****         case 1:
 1090              		.loc 2 652 13 is_stmt 1
 1091 00ce 8280     		ret
 1092              	.LVL57:
 1093              	.L118:
 654:/home/vinay/Desktop/softconsole_watershed/Water-shed/src/platform/mpfs_hal/common/mss_plic.h ****             current |= (uint32_t)1 << (IRQn % 32U);
 1094              		.loc 2 654 13
 654:/home/vinay/Desktop/softconsole_watershed/Water-shed/src/platform/mpfs_hal/common/mss_plic.h ****             current |= (uint32_t)1 << (IRQn % 32U);
 1095              		.loc 2 654 22 is_stmt 0
 1096 00d0 B726000C 		li	a3,201334784
 1097 00d4 B697     		add	a5,a5,a3
 1098 00d6 83A60708 		lw	a3,128(a5)
 1099              	.LVL58:
 655:/home/vinay/Desktop/softconsole_watershed/Water-shed/src/platform/mpfs_hal/common/mss_plic.h ****             PLIC->HART1_MMODE_ENA[IRQn / 32U]  = current;
 1100              		.loc 2 655 13 is_stmt 1
 655:/home/vinay/Desktop/softconsole_watershed/Water-shed/src/platform/mpfs_hal/common/mss_plic.h ****             PLIC->HART1_MMODE_ENA[IRQn / 32U]  = current;
 1101              		.loc 2 655 36 is_stmt 0
 1102 00da 0546     		li	a2,1
 1103 00dc 3B17E600 		sllw	a4,a2,a4
 655:/home/vinay/Desktop/softconsole_watershed/Water-shed/src/platform/mpfs_hal/common/mss_plic.h ****             PLIC->HART1_MMODE_ENA[IRQn / 32U]  = current;
 1104              		.loc 2 655 21
 1105 00e0 558F     		or	a4,a3,a4
 1106 00e2 0127     		sext.w	a4,a4
 1107              	.LVL59:
 656:/home/vinay/Desktop/softconsole_watershed/Water-shed/src/platform/mpfs_hal/common/mss_plic.h ****             break;
 1108              		.loc 2 656 13 is_stmt 1
 656:/home/vinay/Desktop/softconsole_watershed/Water-shed/src/platform/mpfs_hal/common/mss_plic.h ****             break;
 1109              		.loc 2 656 48 is_stmt 0
 1110 00e4 23A0E708 		sw	a4,128(a5)
 657:/home/vinay/Desktop/softconsole_watershed/Water-shed/src/platform/mpfs_hal/common/mss_plic.h ****         case 2:
 1111              		.loc 2 657 13 is_stmt 1
 1112 00e8 8280     		ret
 1113              	.LVL60:
 1114              	.L117:
 659:/home/vinay/Desktop/softconsole_watershed/Water-shed/src/platform/mpfs_hal/common/mss_plic.h ****             current |= (uint32_t)1 << (IRQn % 32U);
 1115              		.loc 2 659 13
 659:/home/vinay/Desktop/softconsole_watershed/Water-shed/src/platform/mpfs_hal/common/mss_plic.h ****             current |= (uint32_t)1 << (IRQn % 32U);
 1116              		.loc 2 659 22 is_stmt 0
 1117 00ea B726000C 		li	a3,201334784
 1118 00ee B697     		add	a5,a5,a3
 1119 00f0 83A60718 		lw	a3,384(a5)
 1120              	.LVL61:
 660:/home/vinay/Desktop/softconsole_watershed/Water-shed/src/platform/mpfs_hal/common/mss_plic.h ****             PLIC->HART2_MMODE_ENA[IRQn / 32U]  = current;
 1121              		.loc 2 660 13 is_stmt 1
 660:/home/vinay/Desktop/softconsole_watershed/Water-shed/src/platform/mpfs_hal/common/mss_plic.h ****             PLIC->HART2_MMODE_ENA[IRQn / 32U]  = current;
 1122              		.loc 2 660 36 is_stmt 0
 1123 00f4 0546     		li	a2,1
 1124 00f6 3B17E600 		sllw	a4,a2,a4
 660:/home/vinay/Desktop/softconsole_watershed/Water-shed/src/platform/mpfs_hal/common/mss_plic.h ****             PLIC->HART2_MMODE_ENA[IRQn / 32U]  = current;
 1125              		.loc 2 660 21
 1126 00fa 558F     		or	a4,a3,a4
 1127 00fc 0127     		sext.w	a4,a4
 1128              	.LVL62:
 661:/home/vinay/Desktop/softconsole_watershed/Water-shed/src/platform/mpfs_hal/common/mss_plic.h ****             break;
 1129              		.loc 2 661 13 is_stmt 1
 661:/home/vinay/Desktop/softconsole_watershed/Water-shed/src/platform/mpfs_hal/common/mss_plic.h ****             break;
 1130              		.loc 2 661 48 is_stmt 0
 1131 00fe 23A0E718 		sw	a4,384(a5)
 662:/home/vinay/Desktop/softconsole_watershed/Water-shed/src/platform/mpfs_hal/common/mss_plic.h ****         case 3:
 1132              		.loc 2 662 13 is_stmt 1
 1133 0102 8280     		ret
 1134              	.LVL63:
 1135              	.L116:
 664:/home/vinay/Desktop/softconsole_watershed/Water-shed/src/platform/mpfs_hal/common/mss_plic.h ****             current |= (uint32_t)1 << (IRQn % 32U);
 1136              		.loc 2 664 13
 664:/home/vinay/Desktop/softconsole_watershed/Water-shed/src/platform/mpfs_hal/common/mss_plic.h ****             current |= (uint32_t)1 << (IRQn % 32U);
 1137              		.loc 2 664 22 is_stmt 0
 1138 0104 B726000C 		li	a3,201334784
 1139 0108 B697     		add	a5,a5,a3
 1140 010a 83A60728 		lw	a3,640(a5)
 1141              	.LVL64:
 665:/home/vinay/Desktop/softconsole_watershed/Water-shed/src/platform/mpfs_hal/common/mss_plic.h ****             PLIC->HART3_MMODE_ENA[IRQn / 32U]  = current;
 1142              		.loc 2 665 13 is_stmt 1
 665:/home/vinay/Desktop/softconsole_watershed/Water-shed/src/platform/mpfs_hal/common/mss_plic.h ****             PLIC->HART3_MMODE_ENA[IRQn / 32U]  = current;
 1143              		.loc 2 665 36 is_stmt 0
 1144 010e 0546     		li	a2,1
 1145 0110 3B17E600 		sllw	a4,a2,a4
 665:/home/vinay/Desktop/softconsole_watershed/Water-shed/src/platform/mpfs_hal/common/mss_plic.h ****             PLIC->HART3_MMODE_ENA[IRQn / 32U]  = current;
 1146              		.loc 2 665 21
 1147 0114 558F     		or	a4,a3,a4
 1148 0116 0127     		sext.w	a4,a4
 1149              	.LVL65:
 666:/home/vinay/Desktop/softconsole_watershed/Water-shed/src/platform/mpfs_hal/common/mss_plic.h ****             break;
 1150              		.loc 2 666 13 is_stmt 1
 666:/home/vinay/Desktop/softconsole_watershed/Water-shed/src/platform/mpfs_hal/common/mss_plic.h ****             break;
 1151              		.loc 2 666 48 is_stmt 0
 1152 0118 23A0E728 		sw	a4,640(a5)
 667:/home/vinay/Desktop/softconsole_watershed/Water-shed/src/platform/mpfs_hal/common/mss_plic.h ****         case 4:
 1153              		.loc 2 667 13 is_stmt 1
 1154 011c 8280     		ret
 1155              	.LVL66:
 1156              	.L114:
 669:/home/vinay/Desktop/softconsole_watershed/Water-shed/src/platform/mpfs_hal/common/mss_plic.h ****             current |= (uint32_t)1 << (IRQn % 32U);
 1157              		.loc 2 669 13
 669:/home/vinay/Desktop/softconsole_watershed/Water-shed/src/platform/mpfs_hal/common/mss_plic.h ****             current |= (uint32_t)1 << (IRQn % 32U);
 1158              		.loc 2 669 22 is_stmt 0
 1159 011e B726000C 		li	a3,201334784
 1160 0122 B697     		add	a5,a5,a3
 1161 0124 83A60738 		lw	a3,896(a5)
 1162              	.LVL67:
 670:/home/vinay/Desktop/softconsole_watershed/Water-shed/src/platform/mpfs_hal/common/mss_plic.h ****             PLIC->HART4_MMODE_ENA[IRQn / 32U]  = current;
 1163              		.loc 2 670 13 is_stmt 1
 670:/home/vinay/Desktop/softconsole_watershed/Water-shed/src/platform/mpfs_hal/common/mss_plic.h ****             PLIC->HART4_MMODE_ENA[IRQn / 32U]  = current;
 1164              		.loc 2 670 36 is_stmt 0
 1165 0128 0546     		li	a2,1
 1166 012a 3B17E600 		sllw	a4,a2,a4
 670:/home/vinay/Desktop/softconsole_watershed/Water-shed/src/platform/mpfs_hal/common/mss_plic.h ****             PLIC->HART4_MMODE_ENA[IRQn / 32U]  = current;
 1167              		.loc 2 670 21
 1168 012e 558F     		or	a4,a3,a4
 1169 0130 0127     		sext.w	a4,a4
 1170              	.LVL68:
 671:/home/vinay/Desktop/softconsole_watershed/Water-shed/src/platform/mpfs_hal/common/mss_plic.h ****             break;
 1171              		.loc 2 671 13 is_stmt 1
 671:/home/vinay/Desktop/softconsole_watershed/Water-shed/src/platform/mpfs_hal/common/mss_plic.h ****             break;
 1172              		.loc 2 671 48 is_stmt 0
 1173 0132 23A0E738 		sw	a4,896(a5)
 672:/home/vinay/Desktop/softconsole_watershed/Water-shed/src/platform/mpfs_hal/common/mss_plic.h ****         default:
 1174              		.loc 2 672 13 is_stmt 1
 1175              	.LVL69:
 1176              	.L111:
 1177              	.LBE27:
 1178              	.LBE26:
 1179              	.LBE25:
 1180              	.LBE24:
1802:../src/platform/drivers/mss/mss_mmuart/mss_uart.c **** 
 1181              		.loc 1 1802 1 is_stmt 0
 1182 0136 8280     		ret
 1183              		.cfi_endproc
 1184              	.LFE77:
 1186              		.section	.text.MSS_UART_init,"ax",@progbits
 1187              		.align	1
 1188              		.globl	MSS_UART_init
 1190              	MSS_UART_init:
 1191              	.LFB19:
 126:../src/platform/drivers/mss/mss_mmuart/mss_uart.c ****     /* Perform generic initialization */
 1192              		.loc 1 126 1 is_stmt 1
 1193              		.cfi_startproc
 1194              	.LVL70:
 128:../src/platform/drivers/mss/mss_mmuart/mss_uart.c **** 
 1195              		.loc 1 128 5
 126:../src/platform/drivers/mss/mss_mmuart/mss_uart.c ****     /* Perform generic initialization */
 1196              		.loc 1 126 1 is_stmt 0
 1197 0000 4111     		addi	sp,sp,-16
 1198              		.cfi_def_cfa_offset 16
 1199 0002 22E0     		sd	s0,0(sp)
 1200 0004 06E4     		sd	ra,8(sp)
 1201              		.cfi_offset 8, -16
 1202              		.cfi_offset 1, -8
 126:../src/platform/drivers/mss/mss_mmuart/mss_uart.c ****     /* Perform generic initialization */
 1203              		.loc 1 126 1
 1204 0006 2A84     		mv	s0,a0
 128:../src/platform/drivers/mss/mss_mmuart/mss_uart.c **** 
 1205              		.loc 1 128 5
 1206 0008 97000000 		call	global_init
 1206      E7800000 
 1207              	.LVL71:
 131:../src/platform/drivers/mss/mss_mmuart/mss_uart.c **** 
 1208              		.loc 1 131 5 is_stmt 1
 131:../src/platform/drivers/mss/mss_mmuart/mss_uart.c **** 
 1209              		.loc 1 131 14 is_stmt 0
 1210 0010 1C60     		ld	a5,0(s0)
 131:../src/platform/drivers/mss/mss_mmuart/mss_uart.c **** 
 1211              		.loc 1 131 28
 1212 0012 03C70703 		lbu	a4,48(a5)
 1213 0016 1377770F 		andi	a4,a4,247
 1214 001a 2388E702 		sb	a4,48(a5)
 134:../src/platform/drivers/mss/mss_mmuart/mss_uart.c **** 
 1215              		.loc 1 134 5 is_stmt 1
 134:../src/platform/drivers/mss/mss_mmuart/mss_uart.c **** 
 1216              		.loc 1 134 28 is_stmt 0
 1217 001e 03C74703 		lbu	a4,52(a5)
 1218 0022 1377B70F 		andi	a4,a4,251
 1219 0026 238AE702 		sb	a4,52(a5)
 137:../src/platform/drivers/mss/mss_mmuart/mss_uart.c **** 
 1220              		.loc 1 137 5 is_stmt 1
 137:../src/platform/drivers/mss/mss_mmuart/mss_uart.c **** 
 1221              		.loc 1 137 28 is_stmt 0
 1222 002a 03C78703 		lbu	a4,56(a5)
 1223 002e 1377E70F 		andi	a4,a4,254
 1224 0032 238CE702 		sb	a4,56(a5)
 140:../src/platform/drivers/mss/mss_mmuart/mss_uart.c **** }
 1225              		.loc 1 140 5 is_stmt 1
 140:../src/platform/drivers/mss/mss_mmuart/mss_uart.c **** }
 1226              		.loc 1 140 27 is_stmt 0
 1227 0036 97070000 		lla	a5,default_tx_handler
 1227      93870700 
 1228 003e 1CF8     		sd	a5,48(s0)
 141:../src/platform/drivers/mss/mss_mmuart/mss_uart.c **** 
 1229              		.loc 1 141 1
 1230 0040 A260     		ld	ra,8(sp)
 1231              		.cfi_restore 1
 1232 0042 0264     		ld	s0,0(sp)
 1233              		.cfi_restore 8
 1234              	.LVL72:
 1235 0044 4101     		addi	sp,sp,16
 1236              		.cfi_def_cfa_offset 0
 1237 0046 8280     		jr	ra
 1238              		.cfi_endproc
 1239              	.LFE19:
 1241              		.section	.text.MSS_UART_lin_init,"ax",@progbits
 1242              		.align	1
 1243              		.globl	MSS_UART_lin_init
 1245              	MSS_UART_lin_init:
 1246              	.LFB20:
 152:../src/platform/drivers/mss/mss_mmuart/mss_uart.c ****     /* Perform generic initialization */
 1247              		.loc 1 152 1 is_stmt 1
 1248              		.cfi_startproc
 1249              	.LVL73:
 154:../src/platform/drivers/mss/mss_mmuart/mss_uart.c **** 
 1250              		.loc 1 154 5
 152:../src/platform/drivers/mss/mss_mmuart/mss_uart.c ****     /* Perform generic initialization */
 1251              		.loc 1 152 1 is_stmt 0
 1252 0000 4111     		addi	sp,sp,-16
 1253              		.cfi_def_cfa_offset 16
 1254 0002 22E0     		sd	s0,0(sp)
 1255 0004 06E4     		sd	ra,8(sp)
 1256              		.cfi_offset 8, -16
 1257              		.cfi_offset 1, -8
 152:../src/platform/drivers/mss/mss_mmuart/mss_uart.c ****     /* Perform generic initialization */
 1258              		.loc 1 152 1
 1259 0006 2A84     		mv	s0,a0
 154:../src/platform/drivers/mss/mss_mmuart/mss_uart.c **** 
 1260              		.loc 1 154 5
 1261 0008 97000000 		call	global_init
 1261      E7800000 
 1262              	.LVL74:
 157:../src/platform/drivers/mss/mss_mmuart/mss_uart.c **** 
 1263              		.loc 1 157 5 is_stmt 1
 157:../src/platform/drivers/mss/mss_mmuart/mss_uart.c **** 
 1264              		.loc 1 157 14 is_stmt 0
 1265 0010 1C60     		ld	a5,0(s0)
 157:../src/platform/drivers/mss/mss_mmuart/mss_uart.c **** 
 1266              		.loc 1 157 28
 1267 0012 03C70703 		lbu	a4,48(a5)
 1268 0016 13678700 		ori	a4,a4,8
 1269 001a 2388E702 		sb	a4,48(a5)
 160:../src/platform/drivers/mss/mss_mmuart/mss_uart.c **** 
 1270              		.loc 1 160 5 is_stmt 1
 160:../src/platform/drivers/mss/mss_mmuart/mss_uart.c **** 
 1271              		.loc 1 160 28 is_stmt 0
 1272 001e 03C74703 		lbu	a4,52(a5)
 1273 0022 1377B70F 		andi	a4,a4,251
 1274 0026 238AE702 		sb	a4,52(a5)
 163:../src/platform/drivers/mss/mss_mmuart/mss_uart.c **** }
 1275              		.loc 1 163 5 is_stmt 1
 163:../src/platform/drivers/mss/mss_mmuart/mss_uart.c **** }
 1276              		.loc 1 163 28 is_stmt 0
 1277 002a 03C78703 		lbu	a4,56(a5)
 1278 002e 1377E70F 		andi	a4,a4,254
 1279 0032 238CE702 		sb	a4,56(a5)
 164:../src/platform/drivers/mss/mss_mmuart/mss_uart.c **** 
 1280              		.loc 1 164 1
 1281 0036 A260     		ld	ra,8(sp)
 1282              		.cfi_restore 1
 1283 0038 0264     		ld	s0,0(sp)
 1284              		.cfi_restore 8
 1285              	.LVL75:
 1286 003a 4101     		addi	sp,sp,16
 1287              		.cfi_def_cfa_offset 0
 1288 003c 8280     		jr	ra
 1289              		.cfi_endproc
 1290              	.LFE20:
 1292              		.section	.text.MSS_UART_irda_init,"ax",@progbits
 1293              		.align	1
 1294              		.globl	MSS_UART_irda_init
 1296              	MSS_UART_irda_init:
 1297              	.LFB21:
 179:../src/platform/drivers/mss/mss_mmuart/mss_uart.c ****     /* Perform generic initialization */
 1298              		.loc 1 179 1 is_stmt 1
 1299              		.cfi_startproc
 1300              	.LVL76:
 181:../src/platform/drivers/mss/mss_mmuart/mss_uart.c **** 
 1301              		.loc 1 181 5
 179:../src/platform/drivers/mss/mss_mmuart/mss_uart.c ****     /* Perform generic initialization */
 1302              		.loc 1 179 1 is_stmt 0
 1303 0000 7971     		addi	sp,sp,-48
 1304              		.cfi_def_cfa_offset 48
 1305 0002 22F0     		sd	s0,32(sp)
 1306 0004 36EC     		sd	a3,24(sp)
 1307              		.cfi_offset 8, -16
 1308 0006 2A84     		mv	s0,a0
 1309 0008 3AE8     		sd	a4,16(sp)
 1310 000a 3EE4     		sd	a5,8(sp)
 1311 000c 06F4     		sd	ra,40(sp)
 1312              		.cfi_offset 1, -8
 181:../src/platform/drivers/mss/mss_mmuart/mss_uart.c **** 
 1313              		.loc 1 181 5
 1314 000e 97000000 		call	global_init
 1314      E7800000 
 1315              	.LVL77:
 184:../src/platform/drivers/mss/mss_mmuart/mss_uart.c **** 
 1316              		.loc 1 184 5 is_stmt 1
 184:../src/platform/drivers/mss/mss_mmuart/mss_uart.c **** 
 1317              		.loc 1 184 14 is_stmt 0
 1318 0016 1060     		ld	a2,0(s0)
 189:../src/platform/drivers/mss/mss_mmuart/mss_uart.c ****                                       (this_uart->hw_reg->MM1 |= EIRX_MASK));
 1319              		.loc 1 189 78
 1320 0018 E266     		ld	a3,24(sp)
 1321 001a A267     		ld	a5,8(sp)
 184:../src/platform/drivers/mss/mss_mmuart/mss_uart.c **** 
 1322              		.loc 1 184 28
 1323 001c 83450603 		lbu	a1,48(a2)
 189:../src/platform/drivers/mss/mss_mmuart/mss_uart.c ****                                       (this_uart->hw_reg->MM1 |= EIRX_MASK));
 1324              		.loc 1 189 78
 1325 0020 4267     		ld	a4,16(sp)
 184:../src/platform/drivers/mss/mss_mmuart/mss_uart.c **** 
 1326              		.loc 1 184 28
 1327 0022 93F5750F 		andi	a1,a1,247
 1328 0026 2308B602 		sb	a1,48(a2)
 187:../src/platform/drivers/mss/mss_mmuart/mss_uart.c **** 
 1329              		.loc 1 187 5 is_stmt 1
 187:../src/platform/drivers/mss/mss_mmuart/mss_uart.c **** 
 1330              		.loc 1 187 28 is_stmt 0
 1331 002a 83454603 		lbu	a1,52(a2)
 1332 002e 93E54500 		ori	a1,a1,4
 1333 0032 230AB602 		sb	a1,52(a2)
 189:../src/platform/drivers/mss/mss_mmuart/mss_uart.c ****                                       (this_uart->hw_reg->MM1 |= EIRX_MASK));
 1334              		.loc 1 189 5 is_stmt 1
 189:../src/platform/drivers/mss/mss_mmuart/mss_uart.c ****                                       (this_uart->hw_reg->MM1 |= EIRX_MASK));
 1335              		.loc 1 189 78 is_stmt 0
 1336 0036 A1E2     		bne	a3,zero,.L135
 189:../src/platform/drivers/mss/mss_mmuart/mss_uart.c ****                                       (this_uart->hw_reg->MM1 |= EIRX_MASK));
 1337              		.loc 1 189 63 discriminator 1
 1338 0038 83464603 		lbu	a3,52(a2)
 1339 003c 93F6760F 		andi	a3,a3,247
 1340              	.L142:
 190:../src/platform/drivers/mss/mss_mmuart/mss_uart.c ****                                       
 1341              		.loc 1 190 63 discriminator 2
 1342 0040 230AD602 		sb	a3,52(a2)
 192:../src/platform/drivers/mss/mss_mmuart/mss_uart.c ****                                       (this_uart->hw_reg->MM1 |= EITX_MASK));
 1343              		.loc 1 192 5 is_stmt 1 discriminator 2
 192:../src/platform/drivers/mss/mss_mmuart/mss_uart.c ****                                       (this_uart->hw_reg->MM1 |= EITX_MASK));
 1344              		.loc 1 192 78 is_stmt 0 discriminator 2
 1345 0044 15EF     		bne	a4,zero,.L137
 192:../src/platform/drivers/mss/mss_mmuart/mss_uart.c ****                                       (this_uart->hw_reg->MM1 |= EITX_MASK));
 1346              		.loc 1 192 63 discriminator 1
 1347 0046 03474603 		lbu	a4,52(a2)
 1348 004a 1377F70E 		andi	a4,a4,239
 1349              	.L143:
 193:../src/platform/drivers/mss/mss_mmuart/mss_uart.c ****                                       
 1350              		.loc 1 193 63 discriminator 2
 1351 004e 230AE602 		sb	a4,52(a2)
 195:../src/platform/drivers/mss/mss_mmuart/mss_uart.c ****                                       (this_uart->hw_reg->MM1 |= EITP_MASK));
 1352              		.loc 1 195 5 is_stmt 1 discriminator 2
 195:../src/platform/drivers/mss/mss_mmuart/mss_uart.c ****                                       (this_uart->hw_reg->MM1 |= EITP_MASK));
 1353              		.loc 1 195 72 is_stmt 0 discriminator 2
 1354 0052 85EF     		bne	a5,zero,.L139
 195:../src/platform/drivers/mss/mss_mmuart/mss_uart.c ****                                       (this_uart->hw_reg->MM1 |= EITP_MASK));
 1355              		.loc 1 195 57 discriminator 1
 1356 0054 83474603 		lbu	a5,52(a2)
 1357 0058 93F7F70D 		andi	a5,a5,223
 1358              	.L144:
 196:../src/platform/drivers/mss/mss_mmuart/mss_uart.c ****     /* Disable SmartCard Mode */
 1359              		.loc 1 196 63 discriminator 2
 1360 005c 230AF602 		sb	a5,52(a2)
 198:../src/platform/drivers/mss/mss_mmuart/mss_uart.c **** }
 1361              		.loc 1 198 5 is_stmt 1 discriminator 2
 198:../src/platform/drivers/mss/mss_mmuart/mss_uart.c **** }
 1362              		.loc 1 198 14 is_stmt 0 discriminator 2
 1363 0060 1860     		ld	a4,0(s0)
 198:../src/platform/drivers/mss/mss_mmuart/mss_uart.c **** }
 1364              		.loc 1 198 28 discriminator 2
 1365 0062 83478703 		lbu	a5,56(a4)
 1366 0066 93F7E70F 		andi	a5,a5,254
 1367 006a 230CF702 		sb	a5,56(a4)
 199:../src/platform/drivers/mss/mss_mmuart/mss_uart.c **** 
 1368              		.loc 1 199 1 discriminator 2
 1369 006e A270     		ld	ra,40(sp)
 1370              		.cfi_remember_state
 1371              		.cfi_restore 1
 1372 0070 0274     		ld	s0,32(sp)
 1373              		.cfi_restore 8
 1374              	.LVL78:
 1375 0072 4561     		addi	sp,sp,48
 1376              		.cfi_def_cfa_offset 0
 1377 0074 8280     		jr	ra
 1378              	.LVL79:
 1379              	.L135:
 1380              		.cfi_restore_state
 190:../src/platform/drivers/mss/mss_mmuart/mss_uart.c ****                                       
 1381              		.loc 1 190 63 discriminator 2
 1382 0076 83464603 		lbu	a3,52(a2)
 1383 007a 93E68600 		ori	a3,a3,8
 1384 007e C9B7     		j	.L142
 1385              	.L137:
 193:../src/platform/drivers/mss/mss_mmuart/mss_uart.c ****                                       
 1386              		.loc 1 193 63 discriminator 2
 1387 0080 03474603 		lbu	a4,52(a2)
 1388 0084 13670701 		ori	a4,a4,16
 1389 0088 D9B7     		j	.L143
 1390              	.L139:
 196:../src/platform/drivers/mss/mss_mmuart/mss_uart.c ****     /* Disable SmartCard Mode */
 1391              		.loc 1 196 63 discriminator 2
 1392 008a 83474603 		lbu	a5,52(a2)
 1393 008e 93E70702 		ori	a5,a5,32
 1394 0092 E9B7     		j	.L144
 1395              		.cfi_endproc
 1396              	.LFE21:
 1398              		.section	.text.MSS_UART_smartcard_init,"ax",@progbits
 1399              		.align	1
 1400              		.globl	MSS_UART_smartcard_init
 1402              	MSS_UART_smartcard_init:
 1403              	.LFB22:
 211:../src/platform/drivers/mss/mss_mmuart/mss_uart.c ****     /* Perform generic initialization */
 1404              		.loc 1 211 1 is_stmt 1
 1405              		.cfi_startproc
 1406              	.LVL80:
 213:../src/platform/drivers/mss/mss_mmuart/mss_uart.c ****     
 1407              		.loc 1 213 5
 211:../src/platform/drivers/mss/mss_mmuart/mss_uart.c ****     /* Perform generic initialization */
 1408              		.loc 1 211 1 is_stmt 0
 1409 0000 0111     		addi	sp,sp,-32
 1410              		.cfi_def_cfa_offset 32
 1411 0002 22E8     		sd	s0,16(sp)
 1412 0004 26E4     		sd	s1,8(sp)
 1413              		.cfi_offset 8, -16
 1414              		.cfi_offset 9, -24
 1415 0006 3284     		mv	s0,a2
 1416 0008 AA84     		mv	s1,a0
 1417 000a 06EC     		sd	ra,24(sp)
 1418              		.cfi_offset 1, -8
 213:../src/platform/drivers/mss/mss_mmuart/mss_uart.c ****     
 1419              		.loc 1 213 5
 1420 000c 97000000 		call	global_init
 1420      E7800000 
 1421              	.LVL81:
 216:../src/platform/drivers/mss/mss_mmuart/mss_uart.c **** 
 1422              		.loc 1 216 5 is_stmt 1
 216:../src/platform/drivers/mss/mss_mmuart/mss_uart.c **** 
 1423              		.loc 1 216 14 is_stmt 0
 1424 0014 9C60     		ld	a5,0(s1)
 222:../src/platform/drivers/mss/mss_mmuart/mss_uart.c ****         (line_config & (MSS_UART_DATA_8_BITS | MSS_UART_TWO_STOP_BITS)))
 1425              		.loc 1 222 8
 1426 0016 1D88     		andi	s0,s0,7
 216:../src/platform/drivers/mss/mss_mmuart/mss_uart.c **** 
 1427              		.loc 1 216 28
 1428 0018 03C70703 		lbu	a4,48(a5)
 1429 001c 1377770F 		andi	a4,a4,247
 1430 0020 2388E702 		sb	a4,48(a5)
 219:../src/platform/drivers/mss/mss_mmuart/mss_uart.c **** 
 1431              		.loc 1 219 5 is_stmt 1
 219:../src/platform/drivers/mss/mss_mmuart/mss_uart.c **** 
 1432              		.loc 1 219 28 is_stmt 0
 1433 0024 03C74703 		lbu	a4,52(a5)
 1434 0028 1377B70F 		andi	a4,a4,251
 1435 002c 238AE702 		sb	a4,52(a5)
 222:../src/platform/drivers/mss/mss_mmuart/mss_uart.c ****         (line_config & (MSS_UART_DATA_8_BITS | MSS_UART_TWO_STOP_BITS)))
 1436              		.loc 1 222 5 is_stmt 1
 222:../src/platform/drivers/mss/mss_mmuart/mss_uart.c ****         (line_config & (MSS_UART_DATA_8_BITS | MSS_UART_TWO_STOP_BITS)))
 1437              		.loc 1 222 8 is_stmt 0
 1438 0030 1D47     		li	a4,7
 1439 0032 631EE400 		bne	s0,a4,.L145
 225:../src/platform/drivers/mss/mss_mmuart/mss_uart.c **** 
 1440              		.loc 1 225 9 is_stmt 1
 225:../src/platform/drivers/mss/mss_mmuart/mss_uart.c **** 
 1441              		.loc 1 225 32 is_stmt 0
 1442 0036 03C78703 		lbu	a4,56(a5)
 1443 003a 13671700 		ori	a4,a4,1
 1444 003e 238CE702 		sb	a4,56(a5)
 228:../src/platform/drivers/mss/mss_mmuart/mss_uart.c ****     }
 1445              		.loc 1 228 9 is_stmt 1
 228:../src/platform/drivers/mss/mss_mmuart/mss_uart.c ****     }
 1446              		.loc 1 228 32 is_stmt 0
 1447 0042 03C78703 		lbu	a4,56(a5)
 1448 0046 13678700 		ori	a4,a4,8
 1449 004a 238CE702 		sb	a4,56(a5)
 1450              	.L145:
 230:../src/platform/drivers/mss/mss_mmuart/mss_uart.c **** 
 1451              		.loc 1 230 1
 1452 004e E260     		ld	ra,24(sp)
 1453              		.cfi_restore 1
 1454 0050 4264     		ld	s0,16(sp)
 1455              		.cfi_restore 8
 1456 0052 A264     		ld	s1,8(sp)
 1457              		.cfi_restore 9
 1458              	.LVL82:
 1459 0054 0561     		addi	sp,sp,32
 1460              		.cfi_def_cfa_offset 0
 1461 0056 8280     		jr	ra
 1462              		.cfi_endproc
 1463              	.LFE22:
 1465              		.section	.text.MSS_UART_polled_tx,"ax",@progbits
 1466              		.align	1
 1467              		.globl	MSS_UART_polled_tx
 1469              	MSS_UART_polled_tx:
 1470              	.LFB23:
 242:../src/platform/drivers/mss/mss_mmuart/mss_uart.c ****     uint32_t char_idx = 0u;
 1471              		.loc 1 242 1 is_stmt 1
 1472              		.cfi_startproc
 1473              	.LVL83:
 243:../src/platform/drivers/mss/mss_mmuart/mss_uart.c ****     uint32_t size_sent;
 1474              		.loc 1 243 5
 244:../src/platform/drivers/mss/mss_mmuart/mss_uart.c ****     uint8_t status;
 1475              		.loc 1 244 5
 245:../src/platform/drivers/mss/mss_mmuart/mss_uart.c ****     uint32_t temp_tx_size = tx_size;
 1476              		.loc 1 245 5
 246:../src/platform/drivers/mss/mss_mmuart/mss_uart.c **** 
 1477              		.loc 1 246 5
 248:../src/platform/drivers/mss/mss_mmuart/mss_uart.c ****     ASSERT(tx_size > 0u);
 1478              		.loc 1 248 36
 249:../src/platform/drivers/mss/mss_mmuart/mss_uart.c **** 
 1479              		.loc 1 249 25
 251:../src/platform/drivers/mss/mss_mmuart/mss_uart.c ****     {
 1480              		.loc 1 251 5
 251:../src/platform/drivers/mss/mss_mmuart/mss_uart.c ****     {
 1481              		.loc 1 251 8 is_stmt 0
 1482 0000 B1C5     		beq	a1,zero,.L148
 251:../src/platform/drivers/mss/mss_mmuart/mss_uart.c ****     {
 1483              		.loc 1 251 34 discriminator 1
 1484 0002 29C6     		beq	a2,zero,.L148
 259:../src/platform/drivers/mss/mss_mmuart/mss_uart.c ****             this_uart->status |= status;
 1485              		.loc 1 259 31
 1486 0004 03380500 		ld	a6,0(a0)
 243:../src/platform/drivers/mss/mss_mmuart/mss_uart.c ****     uint32_t size_sent;
 1487              		.loc 1 243 14
 1488 0008 8147     		li	a5,0
 1489              	.LBB29:
 268:../src/platform/drivers/mss/mss_mmuart/mss_uart.c ****                 {
 1490              		.loc 1 268 20
 1491 000a BD48     		li	a7,15
 1492              	.LVL84:
 1493              	.L154:
 1494 000c 8346D500 		lbu	a3,13(a0)
 1495              	.L151:
 1496              	.LVL85:
 1497              	.LBE29:
 256:../src/platform/drivers/mss/mss_mmuart/mss_uart.c ****         {
 1498              		.loc 1 256 9 is_stmt 1
 259:../src/platform/drivers/mss/mss_mmuart/mss_uart.c ****             this_uart->status |= status;
 1499              		.loc 1 259 13
 259:../src/platform/drivers/mss/mss_mmuart/mss_uart.c ****             this_uart->status |= status;
 1500              		.loc 1 259 20 is_stmt 0
 1501 0010 03474801 		lbu	a4,20(a6)
 1502 0014 1377F70F 		andi	a4,a4,0xff
 1503              	.LVL86:
 260:../src/platform/drivers/mss/mss_mmuart/mss_uart.c **** 
 1504              		.loc 1 260 13 is_stmt 1
 260:../src/platform/drivers/mss/mss_mmuart/mss_uart.c **** 
 1505              		.loc 1 260 31 is_stmt 0
 1506 0018 D98E     		or	a3,a3,a4
 263:../src/platform/drivers/mss/mss_mmuart/mss_uart.c ****             {
 1507              		.loc 1 263 13 is_stmt 1
 263:../src/platform/drivers/mss/mss_mmuart/mss_uart.c ****             {
 1508              		.loc 1 263 16 is_stmt 0
 1509 001a 13770702 		andi	a4,a4,32
 1510              	.LVL87:
 1511 001e 6DDB     		beq	a4,zero,.L151
 1512 0020 A306D500 		sb	a3,13(a0)
 1513              	.LBB30:
 265:../src/platform/drivers/mss/mss_mmuart/mss_uart.c **** 
 1514              		.loc 1 265 17 is_stmt 1
 1515              	.LVL88:
 268:../src/platform/drivers/mss/mss_mmuart/mss_uart.c ****                 {
 1516              		.loc 1 268 17
 265:../src/platform/drivers/mss/mss_mmuart/mss_uart.c **** 
 1517              		.loc 1 265 26 is_stmt 0
 1518 0024 4147     		li	a4,16
 268:../src/platform/drivers/mss/mss_mmuart/mss_uart.c ****                 {
 1519              		.loc 1 268 20
 1520 0026 63E3C800 		bgtu	a2,a7,.L152
 1521 002a 3287     		mv	a4,a2
 1522              	.L152:
 1523              	.LVL89:
 274:../src/platform/drivers/mss/mss_mmuart/mss_uart.c ****                 {
 1524              		.loc 1 274 17 is_stmt 1
 1525 002c 3B83E700 		addw	t1,a5,a4
 1526              	.LVL90:
 1527              	.L153:
 277:../src/platform/drivers/mss/mss_mmuart/mss_uart.c ****                     char_idx++;
 1528              		.loc 1 277 21 discriminator 3
 277:../src/platform/drivers/mss/mss_mmuart/mss_uart.c ****                     char_idx++;
 1529              		.loc 1 277 51 is_stmt 0 discriminator 3
 1530 0030 93960702 		slli	a3,a5,32
 1531 0034 8192     		srli	a3,a3,32
 1532 0036 AE96     		add	a3,a1,a3
 1533 0038 83C60600 		lbu	a3,0(a3)
 278:../src/platform/drivers/mss/mss_mmuart/mss_uart.c ****                 }
 1534              		.loc 1 278 29 discriminator 3
 1535 003c 8527     		addiw	a5,a5,1
 1536              	.LVL91:
 277:../src/platform/drivers/mss/mss_mmuart/mss_uart.c ****                     char_idx++;
 1537              		.loc 1 277 44 discriminator 3
 1538 003e 2300D800 		sb	a3,0(a6)
 278:../src/platform/drivers/mss/mss_mmuart/mss_uart.c ****                 }
 1539              		.loc 1 278 21 is_stmt 1 discriminator 3
 274:../src/platform/drivers/mss/mss_mmuart/mss_uart.c ****                 {
 1540              		.loc 1 274 17 is_stmt 0 discriminator 3
 1541 0042 E39767FE 		bne	a5,t1,.L153
 282:../src/platform/drivers/mss/mss_mmuart/mss_uart.c ****             }
 1542              		.loc 1 282 17 is_stmt 1
 282:../src/platform/drivers/mss/mss_mmuart/mss_uart.c ****             }
 1543              		.loc 1 282 30 is_stmt 0
 1544 0046 199E     		subw	a2,a2,a4
 1545              	.LVL92:
 1546 0048 8127     		sext.w	a5,a5
 1547              	.LBE30:
 284:../src/platform/drivers/mss/mss_mmuart/mss_uart.c ****     }
 1548              		.loc 1 284 9
 1549 004a 69F2     		bne	a2,zero,.L154
 1550              	.LVL93:
 1551              	.L148:
 286:../src/platform/drivers/mss/mss_mmuart/mss_uart.c **** 
 1552              		.loc 1 286 1
 1553 004c 8280     		ret
 1554              		.cfi_endproc
 1555              	.LFE23:
 1557              		.section	.text.MSS_UART_polled_tx_string,"ax",@progbits
 1558              		.align	1
 1559              		.globl	MSS_UART_polled_tx_string
 1561              	MSS_UART_polled_tx_string:
 1562              	.LFB24:
 297:../src/platform/drivers/mss/mss_mmuart/mss_uart.c ****     uint32_t char_idx = 0u;
 1563              		.loc 1 297 1 is_stmt 1
 1564              		.cfi_startproc
 1565              	.LVL94:
 298:../src/platform/drivers/mss/mss_mmuart/mss_uart.c ****     uint32_t fill_size;
 1566              		.loc 1 298 5
 299:../src/platform/drivers/mss/mss_mmuart/mss_uart.c ****     uint8_t data_byte;
 1567              		.loc 1 299 5
 300:../src/platform/drivers/mss/mss_mmuart/mss_uart.c ****     uint8_t status;
 1568              		.loc 1 300 5
 301:../src/platform/drivers/mss/mss_mmuart/mss_uart.c **** 
 1569              		.loc 1 301 5
 303:../src/platform/drivers/mss/mss_mmuart/mss_uart.c **** 
 1570              		.loc 1 303 41
 305:../src/platform/drivers/mss/mss_mmuart/mss_uart.c ****     {
 1571              		.loc 1 305 5
 305:../src/platform/drivers/mss/mss_mmuart/mss_uart.c ****     {
 1572              		.loc 1 305 8 is_stmt 0
 1573 0000 A9C9     		beq	a1,zero,.L163
 308:../src/platform/drivers/mss/mss_mmuart/mss_uart.c **** 
 1574              		.loc 1 308 9 is_stmt 1
 308:../src/platform/drivers/mss/mss_mmuart/mss_uart.c **** 
 1575              		.loc 1 308 19 is_stmt 0
 1576 0002 83C60500 		lbu	a3,0(a1)
 1577              	.LVL95:
 314:../src/platform/drivers/mss/mss_mmuart/mss_uart.c ****         {
 1578              		.loc 1 314 9 is_stmt 1
 298:../src/platform/drivers/mss/mss_mmuart/mss_uart.c ****     uint32_t fill_size;
 1579              		.loc 1 298 14 is_stmt 0
 1580 0006 0147     		li	a4,0
 1581              	.LVL96:
 1582              	.L165:
 1583 0008 3A86     		mv	a2,a4
 1584 000a 99A0     		j	.L168
 1585              	.L169:
 319:../src/platform/drivers/mss/mss_mmuart/mss_uart.c ****                 this_uart->status |= status;
 1586              		.loc 1 319 35
 1587 000c 83380500 		ld	a7,0(a0)
 1588 0010 0347D500 		lbu	a4,13(a0)
 1589              	.L166:
 317:../src/platform/drivers/mss/mss_mmuart/mss_uart.c ****             {
 1590              		.loc 1 317 13 is_stmt 1 discriminator 1
 319:../src/platform/drivers/mss/mss_mmuart/mss_uart.c ****                 this_uart->status |= status;
 1591              		.loc 1 319 17 discriminator 1
 319:../src/platform/drivers/mss/mss_mmuart/mss_uart.c ****                 this_uart->status |= status;
 1592              		.loc 1 319 24 is_stmt 0 discriminator 1
 1593 0014 83C74801 		lbu	a5,20(a7)
 1594 0018 93F7F70F 		andi	a5,a5,0xff
 1595              	.LVL97:
 320:../src/platform/drivers/mss/mss_mmuart/mss_uart.c ****             }while (0u == (status & MSS_UART_THRE));
 1596              		.loc 1 320 17 is_stmt 1 discriminator 1
 320:../src/platform/drivers/mss/mss_mmuart/mss_uart.c ****             }while (0u == (status & MSS_UART_THRE));
 1597              		.loc 1 320 35 is_stmt 0 discriminator 1
 1598 001c 5D8F     		or	a4,a5,a4
 321:../src/platform/drivers/mss/mss_mmuart/mss_uart.c **** 
 1599              		.loc 1 321 13 discriminator 1
 1600 001e 93F70702 		andi	a5,a5,32
 1601              	.LVL98:
 1602 0022 EDDB     		beq	a5,zero,.L166
 1603 0024 1B080601 		addiw	a6,a2,16
 1604 0028 A306E500 		sb	a4,13(a0)
 1605 002c 1B030800 		sext.w	t1,a6
 321:../src/platform/drivers/mss/mss_mmuart/mss_uart.c **** 
 1606              		.loc 1 321 13
 1607 0030 3287     		mv	a4,a2
 1608              	.L167:
 1609              	.LVL99:
 331:../src/platform/drivers/mss/mss_mmuart/mss_uart.c ****                 ++fill_size;
 1610              		.loc 1 331 17 is_stmt 1
 333:../src/platform/drivers/mss/mss_mmuart/mss_uart.c ****                 /* Get the next data byte from the input buffer */
 1611              		.loc 1 333 25 is_stmt 0
 1612 0032 9B071700 		addiw	a5,a4,1
 1613 0036 1B870700 		sext.w	a4,a5
 1614              	.LVL100:
 335:../src/platform/drivers/mss/mss_mmuart/mss_uart.c ****             }
 1615              		.loc 1 335 40
 1616 003a 8217     		slli	a5,a5,32
 1617              	.LVL101:
 1618 003c 8193     		srli	a5,a5,32
 331:../src/platform/drivers/mss/mss_mmuart/mss_uart.c ****                 ++fill_size;
 1619              		.loc 1 331 40
 1620 003e 2380D800 		sb	a3,0(a7)
 332:../src/platform/drivers/mss/mss_mmuart/mss_uart.c ****                 char_idx++;
 1621              		.loc 1 332 17 is_stmt 1
 333:../src/platform/drivers/mss/mss_mmuart/mss_uart.c ****                 /* Get the next data byte from the input buffer */
 1622              		.loc 1 333 17
 1623              	.LVL102:
 335:../src/platform/drivers/mss/mss_mmuart/mss_uart.c ****             }
 1624              		.loc 1 335 17
 335:../src/platform/drivers/mss/mss_mmuart/mss_uart.c ****             }
 1625              		.loc 1 335 27 is_stmt 0
 1626 0042 AE97     		add	a5,a1,a5
 1627 0044 83C60700 		lbu	a3,0(a5)
 1628              	.LVL103:
 328:../src/platform/drivers/mss/mss_mmuart/mss_uart.c ****             {
 1629              		.loc 1 328 19
 1630 0048 E1D2     		beq	a3,zero,.L165
 1631 004a 1A86     		mv	a2,t1
 328:../src/platform/drivers/mss/mss_mmuart/mss_uart.c ****             {
 1632              		.loc 1 328 38 discriminator 1
 1633 004c E31307FF 		bne	a4,a6,.L167
 1634              	.L168:
 314:../src/platform/drivers/mss/mss_mmuart/mss_uart.c ****         {
 1635              		.loc 1 314 15
 1636 0050 D5FE     		bne	a3,zero,.L169
 1637              	.LVL104:
 1638              	.L163:
 339:../src/platform/drivers/mss/mss_mmuart/mss_uart.c **** 
 1639              		.loc 1 339 1
 1640 0052 8280     		ret
 1641              		.cfi_endproc
 1642              	.LFE24:
 1644              		.section	.text.MSS_UART_irq_tx,"ax",@progbits
 1645              		.align	1
 1646              		.globl	MSS_UART_irq_tx
 1648              	MSS_UART_irq_tx:
 1649              	.LFB25:
 351:../src/platform/drivers/mss/mss_mmuart/mss_uart.c ****     ASSERT(pbuff != ((uint8_t*)0));
 1650              		.loc 1 351 1 is_stmt 1
 1651              		.cfi_startproc
 1652              	.LVL105:
 352:../src/platform/drivers/mss/mss_mmuart/mss_uart.c ****     ASSERT(tx_size > 0u);
 1653              		.loc 1 352 35
 353:../src/platform/drivers/mss/mss_mmuart/mss_uart.c **** 
 1654              		.loc 1 353 25
 355:../src/platform/drivers/mss/mss_mmuart/mss_uart.c ****     {
 1655              		.loc 1 355 5
 355:../src/platform/drivers/mss/mss_mmuart/mss_uart.c ****     {
 1656              		.loc 1 355 8 is_stmt 0
 1657 0000 15C6     		beq	a2,zero,.L176
 355:../src/platform/drivers/mss/mss_mmuart/mss_uart.c ****     {
 1658              		.loc 1 355 24 discriminator 1
 1659 0002 8DC5     		beq	a1,zero,.L176
 359:../src/platform/drivers/mss/mss_mmuart/mss_uart.c ****         this_uart->tx_buff_size = tx_size;
 1660              		.loc 1 359 9 is_stmt 1
 364:../src/platform/drivers/mss/mss_mmuart/mss_uart.c **** 
 1661              		.loc 1 364 31 is_stmt 0
 1662 0004 17070000 		lla	a4,default_tx_handler
 1662      13070700 
 1663 000c 18F9     		sd	a4,48(a0)
 367:../src/platform/drivers/mss/mss_mmuart/mss_uart.c ****         enable_irq(this_uart);
 1664              		.loc 1 367 18
 1665 000e 1861     		ld	a4,0(a0)
 359:../src/platform/drivers/mss/mss_mmuart/mss_uart.c ****         this_uart->tx_buff_size = tx_size;
 1666              		.loc 1 359 30
 1667 0010 0CE9     		sd	a1,16(a0)
 360:../src/platform/drivers/mss/mss_mmuart/mss_uart.c ****         this_uart->tx_idx = 0u;
 1668              		.loc 1 360 9 is_stmt 1
 360:../src/platform/drivers/mss/mss_mmuart/mss_uart.c ****         this_uart->tx_idx = 0u;
 1669              		.loc 1 360 33 is_stmt 0
 1670 0012 10CD     		sw	a2,24(a0)
 361:../src/platform/drivers/mss/mss_mmuart/mss_uart.c **** 
 1671              		.loc 1 361 9 is_stmt 1
 367:../src/platform/drivers/mss/mss_mmuart/mss_uart.c ****         enable_irq(this_uart);
 1672              		.loc 1 367 32 is_stmt 0
 1673 0014 83474700 		lbu	a5,4(a4)
 361:../src/platform/drivers/mss/mss_mmuart/mss_uart.c **** 
 1674              		.loc 1 361 27
 1675 0018 232E0500 		sw	zero,28(a0)
 364:../src/platform/drivers/mss/mss_mmuart/mss_uart.c **** 
 1676              		.loc 1 364 9 is_stmt 1
 367:../src/platform/drivers/mss/mss_mmuart/mss_uart.c ****         enable_irq(this_uart);
 1677              		.loc 1 367 9
 367:../src/platform/drivers/mss/mss_mmuart/mss_uart.c ****         enable_irq(this_uart);
 1678              		.loc 1 367 32 is_stmt 0
 1679 001c 93E72700 		ori	a5,a5,2
 1680 0020 2302F700 		sb	a5,4(a4)
 368:../src/platform/drivers/mss/mss_mmuart/mss_uart.c ****     }
 1681              		.loc 1 368 9 is_stmt 1
 1682 0024 17030000 		tail	enable_irq
 1682      67000300 
 1683              	.LVL106:
 1684              	.L176:
 370:../src/platform/drivers/mss/mss_mmuart/mss_uart.c **** 
 1685              		.loc 1 370 1 is_stmt 0
 1686 002c 8280     		ret
 1687              		.cfi_endproc
 1688              	.LFE25:
 1690              		.section	.text.MSS_UART_tx_complete,"ax",@progbits
 1691              		.align	1
 1692              		.globl	MSS_UART_tx_complete
 1694              	MSS_UART_tx_complete:
 1695              	.LFB26:
 380:../src/platform/drivers/mss/mss_mmuart/mss_uart.c ****     int8_t ret_value = 0;
 1696              		.loc 1 380 1 is_stmt 1
 1697              		.cfi_startproc
 1698              	.LVL107:
 381:../src/platform/drivers/mss/mss_mmuart/mss_uart.c ****     uint8_t status = 0u;
 1699              		.loc 1 381 5
 382:../src/platform/drivers/mss/mss_mmuart/mss_uart.c **** 
 1700              		.loc 1 382 5
 385:../src/platform/drivers/mss/mss_mmuart/mss_uart.c ****     this_uart->status |= status;
 1701              		.loc 1 385 5
 385:../src/platform/drivers/mss/mss_mmuart/mss_uart.c ****     this_uart->status |= status;
 1702              		.loc 1 385 23 is_stmt 0
 1703 0000 1C61     		ld	a5,0(a0)
 386:../src/platform/drivers/mss/mss_mmuart/mss_uart.c **** 
 1704              		.loc 1 386 23
 1705 0002 0347D500 		lbu	a4,13(a0)
 385:../src/platform/drivers/mss/mss_mmuart/mss_uart.c ****     this_uart->status |= status;
 1706              		.loc 1 385 12
 1707 0006 83C74701 		lbu	a5,20(a5)
 1708 000a 93F7F70F 		andi	a5,a5,0xff
 1709              	.LVL108:
 386:../src/platform/drivers/mss/mss_mmuart/mss_uart.c **** 
 1710              		.loc 1 386 5 is_stmt 1
 386:../src/platform/drivers/mss/mss_mmuart/mss_uart.c **** 
 1711              		.loc 1 386 23 is_stmt 0
 1712 000e 5D8F     		or	a4,a5,a4
 1713 0010 A306E500 		sb	a4,13(a0)
 388:../src/platform/drivers/mss/mss_mmuart/mss_uart.c ****        ((status & MSS_UART_TEMT) != 0u))
 1714              		.loc 1 388 5 is_stmt 1
 388:../src/platform/drivers/mss/mss_mmuart/mss_uart.c ****        ((status & MSS_UART_TEMT) != 0u))
 1715              		.loc 1 388 8 is_stmt 0
 1716 0014 184D     		lw	a4,24(a0)
 1717 0016 09E7     		bne	a4,zero,.L186
 388:../src/platform/drivers/mss/mss_mmuart/mss_uart.c ****        ((status & MSS_UART_TEMT) != 0u))
 1718              		.loc 1 388 50 discriminator 1
 1719 0018 1BD56700 		srliw	a0,a5,6
 1720              	.LVL109:
 381:../src/platform/drivers/mss/mss_mmuart/mss_uart.c ****     uint8_t status = 0u;
 1721              		.loc 1 381 12 discriminator 1
 1722 001c 0589     		andi	a0,a0,1
 1723 001e 8280     		ret
 1724              	.LVL110:
 1725              	.L186:
 381:../src/platform/drivers/mss/mss_mmuart/mss_uart.c ****     uint8_t status = 0u;
 1726              		.loc 1 381 12
 1727 0020 0145     		li	a0,0
 1728              	.LVL111:
 394:../src/platform/drivers/mss/mss_mmuart/mss_uart.c **** }
 1729              		.loc 1 394 5 is_stmt 1
 395:../src/platform/drivers/mss/mss_mmuart/mss_uart.c **** 
 1730              		.loc 1 395 1 is_stmt 0
 1731 0022 8280     		ret
 1732              		.cfi_endproc
 1733              	.LFE26:
 1735              		.section	.text.MSS_UART_get_rx,"ax",@progbits
 1736              		.align	1
 1737              		.globl	MSS_UART_get_rx
 1739              	MSS_UART_get_rx:
 1740              	.LFB27:
 407:../src/platform/drivers/mss/mss_mmuart/mss_uart.c ****     size_t rx_size = 0u;
 1741              		.loc 1 407 1 is_stmt 1
 1742              		.cfi_startproc
 1743              	.LVL112:
 408:../src/platform/drivers/mss/mss_mmuart/mss_uart.c ****     uint8_t status = 0u;
 1744              		.loc 1 408 5
 409:../src/platform/drivers/mss/mss_mmuart/mss_uart.c **** 
 1745              		.loc 1 409 5
 411:../src/platform/drivers/mss/mss_mmuart/mss_uart.c ****     ASSERT(buff_size > 0u);
 1746              		.loc 1 411 37
 412:../src/platform/drivers/mss/mss_mmuart/mss_uart.c **** 
 1747              		.loc 1 412 27
 414:../src/platform/drivers/mss/mss_mmuart/mss_uart.c ****     {
 1748              		.loc 1 414 5
 407:../src/platform/drivers/mss/mss_mmuart/mss_uart.c ****     size_t rx_size = 0u;
 1749              		.loc 1 407 1 is_stmt 0
 1750 0000 2A87     		mv	a4,a0
 414:../src/platform/drivers/mss/mss_mmuart/mss_uart.c ****     {
 1751              		.loc 1 414 8
 1752 0002 B1C5     		beq	a1,zero,.L191
 414:../src/platform/drivers/mss/mss_mmuart/mss_uart.c ****     {
 1753              		.loc 1 414 34 discriminator 1
 1754 0004 05C2     		beq	a2,zero,.L188
 416:../src/platform/drivers/mss/mss_mmuart/mss_uart.c ****         this_uart->status |= status;
 1755              		.loc 1 416 9 is_stmt 1
 416:../src/platform/drivers/mss/mss_mmuart/mss_uart.c ****         this_uart->status |= status;
 1756              		.loc 1 416 27 is_stmt 0
 1757 0006 1C61     		ld	a5,0(a0)
 417:../src/platform/drivers/mss/mss_mmuart/mss_uart.c **** 
 1758              		.loc 1 417 27
 1759 0008 8346D500 		lbu	a3,13(a0)
 416:../src/platform/drivers/mss/mss_mmuart/mss_uart.c ****         this_uart->status |= status;
 1760              		.loc 1 416 16
 1761 000c 83C74701 		lbu	a5,20(a5)
 1762 0010 93F7F70F 		andi	a5,a5,0xff
 1763              	.LVL113:
 417:../src/platform/drivers/mss/mss_mmuart/mss_uart.c **** 
 1764              		.loc 1 417 9 is_stmt 1
 417:../src/platform/drivers/mss/mss_mmuart/mss_uart.c **** 
 1765              		.loc 1 417 27 is_stmt 0
 1766 0014 DD8E     		or	a3,a5,a3
 1767 0016 A306D500 		sb	a3,13(a0)
 419:../src/platform/drivers/mss/mss_mmuart/mss_uart.c ****         {
 1768              		.loc 1 419 9 is_stmt 1
 408:../src/platform/drivers/mss/mss_mmuart/mss_uart.c ****     uint8_t status = 0u;
 1769              		.loc 1 408 12 is_stmt 0
 1770 001a 8146     		li	a3,0
 1771              	.LVL114:
 1772              	.L189:
 419:../src/platform/drivers/mss/mss_mmuart/mss_uart.c ****         {
 1773              		.loc 1 419 15
 1774 001c 858B     		andi	a5,a5,1
 1775              	.LVL115:
 1776 001e 95CB     		beq	a5,zero,.L192
 419:../src/platform/drivers/mss/mss_mmuart/mss_uart.c ****         {
 1777              		.loc 1 419 55 discriminator 1
 1778 0020 6394C600 		bne	a3,a2,.L190
 1779              	.LVL116:
 1780              	.L188:
 428:../src/platform/drivers/mss/mss_mmuart/mss_uart.c **** }
 1781              		.loc 1 428 5 is_stmt 1
 429:../src/platform/drivers/mss/mss_mmuart/mss_uart.c **** 
 1782              		.loc 1 429 1 is_stmt 0
 1783 0024 3285     		mv	a0,a2
 1784 0026 8280     		ret
 1785              	.LVL117:
 1786              	.L190:
 421:../src/platform/drivers/mss/mss_mmuart/mss_uart.c ****             ++rx_size;
 1787              		.loc 1 421 13 is_stmt 1
 421:../src/platform/drivers/mss/mss_mmuart/mss_uart.c ****             ++rx_size;
 1788              		.loc 1 421 41 is_stmt 0
 1789 0028 1C63     		ld	a5,0(a4)
 421:../src/platform/drivers/mss/mss_mmuart/mss_uart.c ****             ++rx_size;
 1790              		.loc 1 421 49
 1791 002a 03C50700 		lbu	a0,0(a5)
 421:../src/platform/drivers/mss/mss_mmuart/mss_uart.c ****             ++rx_size;
 1792              		.loc 1 421 30
 1793 002e B387D500 		add	a5,a1,a3
 422:../src/platform/drivers/mss/mss_mmuart/mss_uart.c ****             status = this_uart->hw_reg->LSR;
 1794              		.loc 1 422 13
 1795 0032 8506     		addi	a3,a3,1
 1796              	.LVL118:
 421:../src/platform/drivers/mss/mss_mmuart/mss_uart.c ****             ++rx_size;
 1797              		.loc 1 421 30
 1798 0034 2380A700 		sb	a0,0(a5)
 422:../src/platform/drivers/mss/mss_mmuart/mss_uart.c ****             status = this_uart->hw_reg->LSR;
 1799              		.loc 1 422 13 is_stmt 1
 1800              	.LVL119:
 423:../src/platform/drivers/mss/mss_mmuart/mss_uart.c ****             this_uart->status |= status;
 1801              		.loc 1 423 13
 423:../src/platform/drivers/mss/mss_mmuart/mss_uart.c ****             this_uart->status |= status;
 1802              		.loc 1 423 31 is_stmt 0
 1803 0038 1C63     		ld	a5,0(a4)
 424:../src/platform/drivers/mss/mss_mmuart/mss_uart.c ****         }
 1804              		.loc 1 424 31
 1805 003a 0345D700 		lbu	a0,13(a4)
 423:../src/platform/drivers/mss/mss_mmuart/mss_uart.c ****             this_uart->status |= status;
 1806              		.loc 1 423 20
 1807 003e 83C74701 		lbu	a5,20(a5)
 1808 0042 93F7F70F 		andi	a5,a5,0xff
 1809              	.LVL120:
 424:../src/platform/drivers/mss/mss_mmuart/mss_uart.c ****         }
 1810              		.loc 1 424 13 is_stmt 1
 424:../src/platform/drivers/mss/mss_mmuart/mss_uart.c ****         }
 1811              		.loc 1 424 31 is_stmt 0
 1812 0046 5D8D     		or	a0,a5,a0
 1813 0048 A306A700 		sb	a0,13(a4)
 1814 004c C1BF     		j	.L189
 1815              	.LVL121:
 1816              	.L191:
 408:../src/platform/drivers/mss/mss_mmuart/mss_uart.c ****     uint8_t status = 0u;
 1817              		.loc 1 408 12
 1818 004e 0146     		li	a2,0
 1819              	.LVL122:
 1820 0050 D1BF     		j	.L188
 1821              	.LVL123:
 1822              	.L192:
 1823 0052 3686     		mv	a2,a3
 1824              	.LVL124:
 1825 0054 C1BF     		j	.L188
 1826              		.cfi_endproc
 1827              	.LFE27:
 1829              		.section	.text.MSS_UART_enable_irq,"ax",@progbits
 1830              		.align	1
 1831              		.globl	MSS_UART_enable_irq
 1833              	MSS_UART_enable_irq:
 1834              	.LFB28:
 440:../src/platform/drivers/mss/mss_mmuart/mss_uart.c ****     ASSERT(MSS_UART_INVALID_IRQ > irq_mask);
 1835              		.loc 1 440 1 is_stmt 1
 1836              		.cfi_startproc
 1837              	.LVL125:
 441:../src/platform/drivers/mss/mss_mmuart/mss_uart.c **** 
 1838              		.loc 1 441 44
 443:../src/platform/drivers/mss/mss_mmuart/mss_uart.c ****     {
 1839              		.loc 1 443 5
 443:../src/platform/drivers/mss/mss_mmuart/mss_uart.c ****     {
 1840              		.loc 1 443 8 is_stmt 0
 1841 0000 C167     		li	a5,65536
 1842 0002 FD17     		addi	a5,a5,-1
 1843 0004 6382F502 		beq	a1,a5,.L196
 455:../src/platform/drivers/mss/mss_mmuart/mss_uart.c ****                                                          (uint32_t)IER_MASK)));
 1844              		.loc 1 455 9 is_stmt 1
 455:../src/platform/drivers/mss/mss_mmuart/mss_uart.c ****                                                          (uint32_t)IER_MASK)));
 1845              		.loc 1 455 18 is_stmt 0
 1846 0008 1C61     		ld	a5,0(a0)
 455:../src/platform/drivers/mss/mss_mmuart/mss_uart.c ****                                                          (uint32_t)IER_MASK)));
 1847              		.loc 1 455 36
 1848 000a 13F7D500 		andi	a4,a1,13
 465:../src/platform/drivers/mss/mss_mmuart/mss_uart.c ****                                                          ((uint32_t)IIRF_MASK));
 1849              		.loc 1 465 35
 1850 000e 9BD54500 		srliw	a1,a1,4
 1851              	.LVL126:
 455:../src/platform/drivers/mss/mss_mmuart/mss_uart.c ****                                                          (uint32_t)IER_MASK)));
 1852              		.loc 1 455 32
 1853 0012 83C64700 		lbu	a3,4(a5)
 465:../src/platform/drivers/mss/mss_mmuart/mss_uart.c ****                                                          ((uint32_t)IIRF_MASK));
 1854              		.loc 1 465 35
 1855 0016 BD89     		andi	a1,a1,15
 455:../src/platform/drivers/mss/mss_mmuart/mss_uart.c ****                                                          (uint32_t)IER_MASK)));
 1856              		.loc 1 455 32
 1857 0018 558F     		or	a4,a4,a3
 1858 001a 2382E700 		sb	a4,4(a5)
 465:../src/platform/drivers/mss/mss_mmuart/mss_uart.c ****                                                          ((uint32_t)IIRF_MASK));
 1859              		.loc 1 465 9 is_stmt 1
 465:../src/platform/drivers/mss/mss_mmuart/mss_uart.c ****                                                          ((uint32_t)IIRF_MASK));
 1860              		.loc 1 465 32 is_stmt 0
 1861 001e 03C74702 		lbu	a4,36(a5)
 1862 0022 D98D     		or	a1,a1,a4
 1863 0024 2382B702 		sb	a1,36(a5)
 1864              	.L196:
 468:../src/platform/drivers/mss/mss_mmuart/mss_uart.c **** 
 1865              		.loc 1 468 1
 1866 0028 8280     		ret
 1867              		.cfi_endproc
 1868              	.LFE28:
 1870              		.section	.text.MSS_UART_disable_irq,"ax",@progbits
 1871              		.align	1
 1872              		.globl	MSS_UART_disable_irq
 1874              	MSS_UART_disable_irq:
 1875              	.LFB29:
 479:../src/platform/drivers/mss/mss_mmuart/mss_uart.c ****      /* irq_mask encoding: 1 - disable
 1876              		.loc 1 479 1 is_stmt 1
 1877              		.cfi_startproc
 1878              	.LVL127:
 486:../src/platform/drivers/mss/mss_mmuart/mss_uart.c ****                                                         (uint32_t)IIRF_MASK)));
 1879              		.loc 1 486 5
 486:../src/platform/drivers/mss/mss_mmuart/mss_uart.c ****                                                         (uint32_t)IIRF_MASK)));
 1880              		.loc 1 486 14 is_stmt 0
 1881 0000 1861     		ld	a4,0(a0)
 486:../src/platform/drivers/mss/mss_mmuart/mss_uart.c ****                                                         (uint32_t)IIRF_MASK)));
 1882              		.loc 1 486 63
 1883 0002 93F7F500 		andi	a5,a1,15
 486:../src/platform/drivers/mss/mss_mmuart/mss_uart.c ****                                                         (uint32_t)IIRF_MASK)));
 1884              		.loc 1 486 32
 1885 0006 93C7F7FF 		not	a5,a5
 486:../src/platform/drivers/mss/mss_mmuart/mss_uart.c ****                                                         (uint32_t)IIRF_MASK)));
 1886              		.loc 1 486 28
 1887 000a 03464700 		lbu	a2,4(a4)
 496:../src/platform/drivers/mss/mss_mmuart/mss_uart.c ****                                                         ((uint32_t)IIRF_MASK)));
 1888              		.loc 1 496 70
 1889 000e 9BD54500 		srliw	a1,a1,4
 1890              	.LVL128:
 1891 0012 BD89     		andi	a1,a1,15
 486:../src/platform/drivers/mss/mss_mmuart/mss_uart.c ****                                                         (uint32_t)IIRF_MASK)));
 1892              		.loc 1 486 28
 1893 0014 F18F     		and	a5,a5,a2
 1894 0016 2302F700 		sb	a5,4(a4)
 496:../src/platform/drivers/mss/mss_mmuart/mss_uart.c ****                                                         ((uint32_t)IIRF_MASK)));
 1895              		.loc 1 496 5 is_stmt 1
 496:../src/platform/drivers/mss/mss_mmuart/mss_uart.c ****                                                         ((uint32_t)IIRF_MASK)));
 1896              		.loc 1 496 28 is_stmt 0
 1897 001a 83474702 		lbu	a5,36(a4)
 496:../src/platform/drivers/mss/mss_mmuart/mss_uart.c ****                                                         ((uint32_t)IIRF_MASK)));
 1898              		.loc 1 496 31
 1899 001e 93C5F5FF 		not	a1,a1
 496:../src/platform/drivers/mss/mss_mmuart/mss_uart.c ****                                                         ((uint32_t)IIRF_MASK)));
 1900              		.loc 1 496 28
 1901 0022 FD8D     		and	a1,a1,a5
 1902 0024 2302B702 		sb	a1,36(a4)
 499:../src/platform/drivers/mss/mss_mmuart/mss_uart.c ****     {
 1903              		.loc 1 499 5 is_stmt 1
 499:../src/platform/drivers/mss/mss_mmuart/mss_uart.c ****     {
 1904              		.loc 1 499 7 is_stmt 0
 1905 0028 03478506 		lbu	a4,104(a0)
 1906 002c 8547     		li	a5,1
 1907 002e 6317F700 		bne	a4,a5,.L199
 501:../src/platform/drivers/mss/mss_mmuart/mss_uart.c ****     }
 1908              		.loc 1 501 9 is_stmt 1
 1909 0032 2D45     		li	a0,11
 1910              	.LVL129:
 1911 0034 17030000 		tail	__disable_local_irq
 1911      67000300 
 1912              	.LVL130:
 1913              	.L199:
 505:../src/platform/drivers/mss/mss_mmuart/mss_uart.c ****     }
 1914              		.loc 1 505 9
 1915 003c 17030000 		tail	disable_irq
 1915      67000300 
 1916              	.LVL131:
 1917              		.cfi_endproc
 1918              	.LFE29:
 1920              		.section	.text.MSS_UART_set_rx_handler,"ax",@progbits
 1921              		.align	1
 1922              		.globl	MSS_UART_set_rx_handler
 1924              	MSS_UART_set_rx_handler:
 1925              	.LFB30:
 519:../src/platform/drivers/mss/mss_mmuart/mss_uart.c ****     ASSERT(handler != INVALID_IRQ_HANDLER );
 1926              		.loc 1 519 1
 1927              		.cfi_startproc
 1928              	.LVL132:
 520:../src/platform/drivers/mss/mss_mmuart/mss_uart.c ****     ASSERT(trigger_level < MSS_UART_FIFO_INVALID_TRIG_LEVEL);
 1929              		.loc 1 520 44
 521:../src/platform/drivers/mss/mss_mmuart/mss_uart.c **** 
 1930              		.loc 1 521 61
 523:../src/platform/drivers/mss/mss_mmuart/mss_uart.c ****        (trigger_level < MSS_UART_FIFO_INVALID_TRIG_LEVEL))
 1931              		.loc 1 523 5
 523:../src/platform/drivers/mss/mss_mmuart/mss_uart.c ****        (trigger_level < MSS_UART_FIFO_INVALID_TRIG_LEVEL))
 1932              		.loc 1 523 8 is_stmt 0
 1933 0000 95C9     		beq	a1,zero,.L200
 523:../src/platform/drivers/mss/mss_mmuart/mss_uart.c ****        (trigger_level < MSS_UART_FIFO_INVALID_TRIG_LEVEL))
 1934              		.loc 1 523 42 discriminator 1
 1935 0002 1307000C 		li	a4,192
 1936 0006 6367C702 		bgtu	a2,a4,.L200
 526:../src/platform/drivers/mss/mss_mmuart/mss_uart.c **** 
 1937              		.loc 1 526 9 is_stmt 1
 529:../src/platform/drivers/mss/mss_mmuart/mss_uart.c ****                                  (uint8_t)(~((uint8_t)FCR_TRIG_LEVEL_MASK))) |
 1938              		.loc 1 529 44 is_stmt 0
 1939 000a 1C61     		ld	a5,0(a0)
 526:../src/platform/drivers/mss/mss_mmuart/mss_uart.c **** 
 1940              		.loc 1 526 31
 1941 000c 0CF5     		sd	a1,40(a0)
 529:../src/platform/drivers/mss/mss_mmuart/mss_uart.c ****                                  (uint8_t)(~((uint8_t)FCR_TRIG_LEVEL_MASK))) |
 1942              		.loc 1 529 9 is_stmt 1
 529:../src/platform/drivers/mss/mss_mmuart/mss_uart.c ****                                  (uint8_t)(~((uint8_t)FCR_TRIG_LEVEL_MASK))) |
 1943              		.loc 1 529 52 is_stmt 0
 1944 000e 03C78700 		lbu	a4,8(a5)
 529:../src/platform/drivers/mss/mss_mmuart/mss_uart.c ****                                  (uint8_t)(~((uint8_t)FCR_TRIG_LEVEL_MASK))) |
 1945              		.loc 1 529 58
 1946 0012 1377F703 		andi	a4,a4,63
 530:../src/platform/drivers/mss/mss_mmuart/mss_uart.c ****                                  (uint8_t)trigger_level;
 1947              		.loc 1 530 78
 1948 0016 598E     		or	a2,a2,a4
 1949              	.LVL133:
 1950 0018 1376F60F 		andi	a2,a2,0xff
 529:../src/platform/drivers/mss/mss_mmuart/mss_uart.c ****                                  (uint8_t)(~((uint8_t)FCR_TRIG_LEVEL_MASK))) |
 1951              		.loc 1 529 32
 1952 001c 2384C700 		sb	a2,8(a5)
 534:../src/platform/drivers/mss/mss_mmuart/mss_uart.c **** 
 1953              		.loc 1 534 9 is_stmt 1
 534:../src/platform/drivers/mss/mss_mmuart/mss_uart.c **** 
 1954              		.loc 1 534 32 is_stmt 0
 1955 0020 03C74700 		lbu	a4,4(a5)
 1956 0024 13671700 		ori	a4,a4,1
 1957 0028 2382E700 		sb	a4,4(a5)
 536:../src/platform/drivers/mss/mss_mmuart/mss_uart.c ****     }
 1958              		.loc 1 536 9 is_stmt 1
 1959 002c 17030000 		tail	enable_irq
 1959      67000300 
 1960              	.LVL134:
 1961              	.L200:
 538:../src/platform/drivers/mss/mss_mmuart/mss_uart.c **** 
 1962              		.loc 1 538 1 is_stmt 0
 1963 0034 8280     		ret
 1964              		.cfi_endproc
 1965              	.LFE30:
 1967              		.section	.text.MSS_UART_set_loopback,"ax",@progbits
 1968              		.align	1
 1969              		.globl	MSS_UART_set_loopback
 1971              	MSS_UART_set_loopback:
 1972              	.LFB31:
 549:../src/platform/drivers/mss/mss_mmuart/mss_uart.c ****     ASSERT(MSS_UART_INVALID_LOOPBACK > loopback);
 1973              		.loc 1 549 1 is_stmt 1
 1974              		.cfi_startproc
 1975              	.LVL135:
 550:../src/platform/drivers/mss/mss_mmuart/mss_uart.c **** 
 1976              		.loc 1 550 49
 552:../src/platform/drivers/mss/mss_mmuart/mss_uart.c ****     {
 1977              		.loc 1 552 5
 552:../src/platform/drivers/mss/mss_mmuart/mss_uart.c ****     {
 1978              		.loc 1 552 8 is_stmt 0
 1979 0000 9547     		li	a5,5
 1980 0002 63E9B702 		bgtu	a1,a5,.L205
 554:../src/platform/drivers/mss/mss_mmuart/mss_uart.c ****         {
 1981              		.loc 1 554 9 is_stmt 1
 1982 0006 FD35     		addiw	a1,a1,-1
 1983              	.LVL136:
 1984 0008 9B860500 		sext.w	a3,a1
 1985 000c 1147     		li	a4,4
 1986 000e 1C61     		ld	a5,0(a0)
 1987 0010 636CD700 		bgtu	a3,a4,.L207
 1988 0014 8215     		slli	a1,a1,32
 1989              	.LVL137:
 1990 0016 97060000 		lla	a3,.L209
 1990      93860600 
 1991              	.LVL138:
 1992 001e F981     		srli	a1,a1,30
 1993 0020 B695     		add	a1,a1,a3
 1994 0022 9841     		lw	a4,0(a1)
 1995 0024 3697     		add	a4,a4,a3
 1996 0026 0287     		jr	a4
 1997              		.section	.rodata.MSS_UART_set_loopback,"a",@progbits
 1998              		.align	2
 1999              		.align	2
 2000              	.L209:
 2001 0000 00000000 		.word	.L212-.L209
 2002 0004 00000000 		.word	.L210-.L209
 2003 0008 00000000 		.word	.L211-.L209
 2004 000c 00000000 		.word	.L210-.L209
 2005 0010 00000000 		.word	.L208-.L209
 2006              		.section	.text.MSS_UART_set_loopback
 2007              	.L207:
 558:../src/platform/drivers/mss/mss_mmuart/mss_uart.c ****             break;
 2008              		.loc 1 558 17
 558:../src/platform/drivers/mss/mss_mmuart/mss_uart.c ****             break;
 2009              		.loc 1 558 40 is_stmt 0
 2010 0028 03C70701 		lbu	a4,16(a5)
 2011 002c 1377F70E 		andi	a4,a4,239
 2012              	.L213:
 579:../src/platform/drivers/mss/mss_mmuart/mss_uart.c ****             break;
 2013              		.loc 1 579 40
 2014 0030 2388E700 		sb	a4,16(a5)
 580:../src/platform/drivers/mss/mss_mmuart/mss_uart.c ****                 
 2015              		.loc 1 580 13 is_stmt 1
 2016              	.L205:
 589:../src/platform/drivers/mss/mss_mmuart/mss_uart.c **** 
 2017              		.loc 1 589 1 is_stmt 0
 2018 0034 8280     		ret
 2019              	.L212:
 563:../src/platform/drivers/mss/mss_mmuart/mss_uart.c ****             break;
 2020              		.loc 1 563 17 is_stmt 1
 563:../src/platform/drivers/mss/mss_mmuart/mss_uart.c ****             break;
 2021              		.loc 1 563 40 is_stmt 0
 2022 0036 03C70701 		lbu	a4,16(a5)
 2023 003a 13670701 		ori	a4,a4,16
 2024 003e CDBF     		j	.L213
 2025              	.L210:
 569:../src/platform/drivers/mss/mss_mmuart/mss_uart.c ****             break;
 2026              		.loc 1 569 17 is_stmt 1
 569:../src/platform/drivers/mss/mss_mmuart/mss_uart.c ****             break;
 2027              		.loc 1 569 40 is_stmt 0
 2028 0040 03C70701 		lbu	a4,16(a5)
 2029 0044 1377F709 		andi	a4,a4,159
 2030 0048 E5B7     		j	.L213
 2031              	.L211:
 574:../src/platform/drivers/mss/mss_mmuart/mss_uart.c ****                 break;
 2032              		.loc 1 574 17 is_stmt 1
 574:../src/platform/drivers/mss/mss_mmuart/mss_uart.c ****                 break;
 2033              		.loc 1 574 40 is_stmt 0
 2034 004a 03C70701 		lbu	a4,16(a5)
 2035 004e 13670702 		ori	a4,a4,32
 2036 0052 F9BF     		j	.L213
 2037              	.L208:
 579:../src/platform/drivers/mss/mss_mmuart/mss_uart.c ****             break;
 2038              		.loc 1 579 17 is_stmt 1
 579:../src/platform/drivers/mss/mss_mmuart/mss_uart.c ****             break;
 2039              		.loc 1 579 40 is_stmt 0
 2040 0054 03C70701 		lbu	a4,16(a5)
 2041 0058 13670704 		ori	a4,a4,64
 2042 005c D1BF     		j	.L213
 2043              		.cfi_endproc
 2044              	.LFE31:
 2046              		.section	.text.PLIC_mmuart0_IRQHandler,"ax",@progbits
 2047              		.align	1
 2048              		.globl	PLIC_mmuart0_IRQHandler
 2050              	PLIC_mmuart0_IRQHandler:
 2051              	.LFB32:
 595:../src/platform/drivers/mss/mss_mmuart/mss_uart.c ****     if (g_uart_axi_pos & UART0_POSITION_MASK)
 2052              		.loc 1 595 1 is_stmt 1
 2053              		.cfi_startproc
 596:../src/platform/drivers/mss/mss_mmuart/mss_uart.c ****     {
 2054              		.loc 1 596 5
 596:../src/platform/drivers/mss/mss_mmuart/mss_uart.c ****     {
 2055              		.loc 1 596 24 is_stmt 0
 2056 0000 97070000 		lla	a5,.LANCHOR0
 2056      93870700 
 2057 0008 9C43     		lw	a5,0(a5)
 595:../src/platform/drivers/mss/mss_mmuart/mss_uart.c ****     if (g_uart_axi_pos & UART0_POSITION_MASK)
 2058              		.loc 1 595 1
 2059 000a 4111     		addi	sp,sp,-16
 2060              		.cfi_def_cfa_offset 16
 2061 000c 06E4     		sd	ra,8(sp)
 2062              		.cfi_offset 1, -8
 596:../src/platform/drivers/mss/mss_mmuart/mss_uart.c ****     {
 2063              		.loc 1 596 8
 2064 000e 858B     		andi	a5,a5,1
 598:../src/platform/drivers/mss/mss_mmuart/mss_uart.c ****     }
 2065              		.loc 1 598 9
 2066 0010 17050000 		lla	a0,g_mss_uart0_hi
 2066      13050500 
 596:../src/platform/drivers/mss/mss_mmuart/mss_uart.c ****     {
 2067              		.loc 1 596 8
 2068 0018 89E7     		bne	a5,zero,.L218
 602:../src/platform/drivers/mss/mss_mmuart/mss_uart.c ****     }
 2069              		.loc 1 602 9 is_stmt 1
 2070 001a 17050000 		lla	a0,g_mss_uart0_lo
 2070      13050500 
 2071              	.L218:
 2072 0022 97000000 		call	uart_isr
 2072      E7800000 
 2073              	.LVL139:
 605:../src/platform/drivers/mss/mss_mmuart/mss_uart.c **** }
 2074              		.loc 1 605 5
 606:../src/platform/drivers/mss/mss_mmuart/mss_uart.c **** 
 2075              		.loc 1 606 1 is_stmt 0
 2076 002a A260     		ld	ra,8(sp)
 2077              		.cfi_restore 1
 2078 002c 0145     		li	a0,0
 2079 002e 4101     		addi	sp,sp,16
 2080              		.cfi_def_cfa_offset 0
 2081 0030 8280     		jr	ra
 2082              		.cfi_endproc
 2083              	.LFE32:
 2085              		.section	.text.PLIC_mmuart1_IRQHandler,"ax",@progbits
 2086              		.align	1
 2087              		.globl	PLIC_mmuart1_IRQHandler
 2089              	PLIC_mmuart1_IRQHandler:
 2090              	.LFB33:
 609:../src/platform/drivers/mss/mss_mmuart/mss_uart.c ****     if (g_uart_axi_pos & UART1_POSITION_MASK)
 2091              		.loc 1 609 1 is_stmt 1
 2092              		.cfi_startproc
 610:../src/platform/drivers/mss/mss_mmuart/mss_uart.c ****     {
 2093              		.loc 1 610 5
 610:../src/platform/drivers/mss/mss_mmuart/mss_uart.c ****     {
 2094              		.loc 1 610 24 is_stmt 0
 2095 0000 97070000 		lla	a5,.LANCHOR0
 2095      93870700 
 2096 0008 9C43     		lw	a5,0(a5)
 609:../src/platform/drivers/mss/mss_mmuart/mss_uart.c ****     if (g_uart_axi_pos & UART1_POSITION_MASK)
 2097              		.loc 1 609 1
 2098 000a 4111     		addi	sp,sp,-16
 2099              		.cfi_def_cfa_offset 16
 2100 000c 06E4     		sd	ra,8(sp)
 2101              		.cfi_offset 1, -8
 610:../src/platform/drivers/mss/mss_mmuart/mss_uart.c ****     {
 2102              		.loc 1 610 24
 2103 000e 898B     		andi	a5,a5,2
 612:../src/platform/drivers/mss/mss_mmuart/mss_uart.c ****     }
 2104              		.loc 1 612 9
 2105 0010 17050000 		lla	a0,g_mss_uart1_hi
 2105      13050500 
 610:../src/platform/drivers/mss/mss_mmuart/mss_uart.c ****     {
 2106              		.loc 1 610 8
 2107 0018 89E7     		bne	a5,zero,.L223
 616:../src/platform/drivers/mss/mss_mmuart/mss_uart.c ****     }
 2108              		.loc 1 616 9 is_stmt 1
 2109 001a 17050000 		lla	a0,g_mss_uart1_lo
 2109      13050500 
 2110              	.L223:
 2111 0022 97000000 		call	uart_isr
 2111      E7800000 
 2112              	.LVL140:
 619:../src/platform/drivers/mss/mss_mmuart/mss_uart.c **** }
 2113              		.loc 1 619 5
 620:../src/platform/drivers/mss/mss_mmuart/mss_uart.c **** 
 2114              		.loc 1 620 1 is_stmt 0
 2115 002a A260     		ld	ra,8(sp)
 2116              		.cfi_restore 1
 2117 002c 0145     		li	a0,0
 2118 002e 4101     		addi	sp,sp,16
 2119              		.cfi_def_cfa_offset 0
 2120 0030 8280     		jr	ra
 2121              		.cfi_endproc
 2122              	.LFE33:
 2124              		.section	.text.PLIC_mmuart2_IRQHandler,"ax",@progbits
 2125              		.align	1
 2126              		.globl	PLIC_mmuart2_IRQHandler
 2128              	PLIC_mmuart2_IRQHandler:
 2129              	.LFB34:
 623:../src/platform/drivers/mss/mss_mmuart/mss_uart.c ****     if (g_uart_axi_pos & UART2_POSITION_MASK)
 2130              		.loc 1 623 1 is_stmt 1
 2131              		.cfi_startproc
 624:../src/platform/drivers/mss/mss_mmuart/mss_uart.c ****     {
 2132              		.loc 1 624 5
 624:../src/platform/drivers/mss/mss_mmuart/mss_uart.c ****     {
 2133              		.loc 1 624 24 is_stmt 0
 2134 0000 97070000 		lla	a5,.LANCHOR0
 2134      93870700 
 2135 0008 9C43     		lw	a5,0(a5)
 623:../src/platform/drivers/mss/mss_mmuart/mss_uart.c ****     if (g_uart_axi_pos & UART2_POSITION_MASK)
 2136              		.loc 1 623 1
 2137 000a 4111     		addi	sp,sp,-16
 2138              		.cfi_def_cfa_offset 16
 2139 000c 06E4     		sd	ra,8(sp)
 2140              		.cfi_offset 1, -8
 624:../src/platform/drivers/mss/mss_mmuart/mss_uart.c ****     {
 2141              		.loc 1 624 24
 2142 000e 918B     		andi	a5,a5,4
 626:../src/platform/drivers/mss/mss_mmuart/mss_uart.c ****     }
 2143              		.loc 1 626 9
 2144 0010 17050000 		lla	a0,g_mss_uart2_hi
 2144      13050500 
 624:../src/platform/drivers/mss/mss_mmuart/mss_uart.c ****     {
 2145              		.loc 1 624 8
 2146 0018 89E7     		bne	a5,zero,.L228
 630:../src/platform/drivers/mss/mss_mmuart/mss_uart.c ****     }
 2147              		.loc 1 630 9 is_stmt 1
 2148 001a 17050000 		lla	a0,g_mss_uart2_lo
 2148      13050500 
 2149              	.L228:
 2150 0022 97000000 		call	uart_isr
 2150      E7800000 
 2151              	.LVL141:
 633:../src/platform/drivers/mss/mss_mmuart/mss_uart.c **** }
 2152              		.loc 1 633 5
 634:../src/platform/drivers/mss/mss_mmuart/mss_uart.c **** 
 2153              		.loc 1 634 1 is_stmt 0
 2154 002a A260     		ld	ra,8(sp)
 2155              		.cfi_restore 1
 2156 002c 0145     		li	a0,0
 2157 002e 4101     		addi	sp,sp,16
 2158              		.cfi_def_cfa_offset 0
 2159 0030 8280     		jr	ra
 2160              		.cfi_endproc
 2161              	.LFE34:
 2163              		.section	.text.PLIC_mmuart3_IRQHandler,"ax",@progbits
 2164              		.align	1
 2165              		.globl	PLIC_mmuart3_IRQHandler
 2167              	PLIC_mmuart3_IRQHandler:
 2168              	.LFB35:
 637:../src/platform/drivers/mss/mss_mmuart/mss_uart.c ****     if (g_uart_axi_pos & UART3_POSITION_MASK)
 2169              		.loc 1 637 1 is_stmt 1
 2170              		.cfi_startproc
 638:../src/platform/drivers/mss/mss_mmuart/mss_uart.c ****     {
 2171              		.loc 1 638 5
 638:../src/platform/drivers/mss/mss_mmuart/mss_uart.c ****     {
 2172              		.loc 1 638 24 is_stmt 0
 2173 0000 97070000 		lla	a5,.LANCHOR0
 2173      93870700 
 2174 0008 9C43     		lw	a5,0(a5)
 637:../src/platform/drivers/mss/mss_mmuart/mss_uart.c ****     if (g_uart_axi_pos & UART3_POSITION_MASK)
 2175              		.loc 1 637 1
 2176 000a 4111     		addi	sp,sp,-16
 2177              		.cfi_def_cfa_offset 16
 2178 000c 06E4     		sd	ra,8(sp)
 2179              		.cfi_offset 1, -8
 638:../src/platform/drivers/mss/mss_mmuart/mss_uart.c ****     {
 2180              		.loc 1 638 24
 2181 000e A18B     		andi	a5,a5,8
 640:../src/platform/drivers/mss/mss_mmuart/mss_uart.c ****     }
 2182              		.loc 1 640 9
 2183 0010 17050000 		lla	a0,g_mss_uart3_hi
 2183      13050500 
 638:../src/platform/drivers/mss/mss_mmuart/mss_uart.c ****     {
 2184              		.loc 1 638 8
 2185 0018 89E7     		bne	a5,zero,.L233
 644:../src/platform/drivers/mss/mss_mmuart/mss_uart.c ****     }
 2186              		.loc 1 644 9 is_stmt 1
 2187 001a 17050000 		lla	a0,g_mss_uart3_lo
 2187      13050500 
 2188              	.L233:
 2189 0022 97000000 		call	uart_isr
 2189      E7800000 
 2190              	.LVL142:
 647:../src/platform/drivers/mss/mss_mmuart/mss_uart.c **** }
 2191              		.loc 1 647 5
 648:../src/platform/drivers/mss/mss_mmuart/mss_uart.c **** 
 2192              		.loc 1 648 1 is_stmt 0
 2193 002a A260     		ld	ra,8(sp)
 2194              		.cfi_restore 1
 2195 002c 0145     		li	a0,0
 2196 002e 4101     		addi	sp,sp,16
 2197              		.cfi_def_cfa_offset 0
 2198 0030 8280     		jr	ra
 2199              		.cfi_endproc
 2200              	.LFE35:
 2202              		.section	.text.PLIC_mmuart4_IRQHandler,"ax",@progbits
 2203              		.align	1
 2204              		.globl	PLIC_mmuart4_IRQHandler
 2206              	PLIC_mmuart4_IRQHandler:
 2207              	.LFB36:
 651:../src/platform/drivers/mss/mss_mmuart/mss_uart.c ****     if (g_uart_axi_pos & UART4_POSITION_MASK)
 2208              		.loc 1 651 1 is_stmt 1
 2209              		.cfi_startproc
 652:../src/platform/drivers/mss/mss_mmuart/mss_uart.c ****     {
 2210              		.loc 1 652 5
 652:../src/platform/drivers/mss/mss_mmuart/mss_uart.c ****     {
 2211              		.loc 1 652 24 is_stmt 0
 2212 0000 97070000 		lla	a5,.LANCHOR0
 2212      93870700 
 2213 0008 9C43     		lw	a5,0(a5)
 651:../src/platform/drivers/mss/mss_mmuart/mss_uart.c ****     if (g_uart_axi_pos & UART4_POSITION_MASK)
 2214              		.loc 1 651 1
 2215 000a 4111     		addi	sp,sp,-16
 2216              		.cfi_def_cfa_offset 16
 2217 000c 06E4     		sd	ra,8(sp)
 2218              		.cfi_offset 1, -8
 652:../src/platform/drivers/mss/mss_mmuart/mss_uart.c ****     {
 2219              		.loc 1 652 24
 2220 000e C18B     		andi	a5,a5,16
 654:../src/platform/drivers/mss/mss_mmuart/mss_uart.c ****     }
 2221              		.loc 1 654 9
 2222 0010 17050000 		lla	a0,g_mss_uart4_hi
 2222      13050500 
 652:../src/platform/drivers/mss/mss_mmuart/mss_uart.c ****     {
 2223              		.loc 1 652 8
 2224 0018 89E7     		bne	a5,zero,.L238
 658:../src/platform/drivers/mss/mss_mmuart/mss_uart.c ****     }
 2225              		.loc 1 658 9 is_stmt 1
 2226 001a 17050000 		lla	a0,g_mss_uart4_lo
 2226      13050500 
 2227              	.L238:
 2228 0022 97000000 		call	uart_isr
 2228      E7800000 
 2229              	.LVL143:
 661:../src/platform/drivers/mss/mss_mmuart/mss_uart.c **** }
 2230              		.loc 1 661 5
 662:../src/platform/drivers/mss/mss_mmuart/mss_uart.c **** 
 2231              		.loc 1 662 1 is_stmt 0
 2232 002a A260     		ld	ra,8(sp)
 2233              		.cfi_restore 1
 2234 002c 0145     		li	a0,0
 2235 002e 4101     		addi	sp,sp,16
 2236              		.cfi_def_cfa_offset 0
 2237 0030 8280     		jr	ra
 2238              		.cfi_endproc
 2239              	.LFE36:
 2241              		.section	.text.E51_mmuart0_local_IRQHandler,"ax",@progbits
 2242              		.align	1
 2243              		.globl	E51_mmuart0_local_IRQHandler
 2245              	E51_mmuart0_local_IRQHandler:
 2246              	.LFB37:
 665:../src/platform/drivers/mss/mss_mmuart/mss_uart.c ****     if (g_uart_axi_pos & UART0_POSITION_MASK)
 2247              		.loc 1 665 1 is_stmt 1
 2248              		.cfi_startproc
 666:../src/platform/drivers/mss/mss_mmuart/mss_uart.c ****     {
 2249              		.loc 1 666 5
 666:../src/platform/drivers/mss/mss_mmuart/mss_uart.c ****     {
 2250              		.loc 1 666 24 is_stmt 0
 2251 0000 97070000 		lla	a5,.LANCHOR0
 2251      93870700 
 2252 0008 9C43     		lw	a5,0(a5)
 668:../src/platform/drivers/mss/mss_mmuart/mss_uart.c ****     }
 2253              		.loc 1 668 9
 2254 000a 17050000 		lla	a0,g_mss_uart0_hi
 2254      13050500 
 666:../src/platform/drivers/mss/mss_mmuart/mss_uart.c ****     {
 2255              		.loc 1 666 8
 2256 0012 858B     		andi	a5,a5,1
 2257 0014 89E7     		bne	a5,zero,.L241
 672:../src/platform/drivers/mss/mss_mmuart/mss_uart.c ****     }
 2258              		.loc 1 672 9 is_stmt 1
 2259 0016 17050000 		lla	a0,g_mss_uart0_lo
 2259      13050500 
 2260              	.L241:
 2261 001e 17030000 		tail	uart_isr
 2261      67000300 
 2262              	.LVL144:
 2263              		.cfi_endproc
 2264              	.LFE37:
 2266              		.section	.text.U54_1_mmuart1_local_IRQHandler,"ax",@progbits
 2267              		.align	1
 2268              		.globl	U54_1_mmuart1_local_IRQHandler
 2270              	U54_1_mmuart1_local_IRQHandler:
 2271              	.LFB38:
 677:../src/platform/drivers/mss/mss_mmuart/mss_uart.c ****     if (g_uart_axi_pos & UART1_POSITION_MASK)
 2272              		.loc 1 677 1
 2273              		.cfi_startproc
 678:../src/platform/drivers/mss/mss_mmuart/mss_uart.c ****     {
 2274              		.loc 1 678 5
 678:../src/platform/drivers/mss/mss_mmuart/mss_uart.c ****     {
 2275              		.loc 1 678 24 is_stmt 0
 2276 0000 97070000 		lla	a5,.LANCHOR0
 2276      93870700 
 2277 0008 9C43     		lw	a5,0(a5)
 680:../src/platform/drivers/mss/mss_mmuart/mss_uart.c ****     }
 2278              		.loc 1 680 9
 2279 000a 17050000 		lla	a0,g_mss_uart1_hi
 2279      13050500 
 678:../src/platform/drivers/mss/mss_mmuart/mss_uart.c ****     {
 2280              		.loc 1 678 24
 2281 0012 898B     		andi	a5,a5,2
 678:../src/platform/drivers/mss/mss_mmuart/mss_uart.c ****     {
 2282              		.loc 1 678 8
 2283 0014 89E7     		bne	a5,zero,.L244
 684:../src/platform/drivers/mss/mss_mmuart/mss_uart.c ****     }
 2284              		.loc 1 684 9 is_stmt 1
 2285 0016 17050000 		lla	a0,g_mss_uart1_lo
 2285      13050500 
 2286              	.L244:
 2287 001e 17030000 		tail	uart_isr
 2287      67000300 
 2288              	.LVL145:
 2289              		.cfi_endproc
 2290              	.LFE38:
 2292              		.section	.text.U54_2_mmuart2_local_IRQHandler,"ax",@progbits
 2293              		.align	1
 2294              		.globl	U54_2_mmuart2_local_IRQHandler
 2296              	U54_2_mmuart2_local_IRQHandler:
 2297              	.LFB39:
 689:../src/platform/drivers/mss/mss_mmuart/mss_uart.c ****     if (g_uart_axi_pos & UART2_POSITION_MASK)
 2298              		.loc 1 689 1
 2299              		.cfi_startproc
 690:../src/platform/drivers/mss/mss_mmuart/mss_uart.c ****     {
 2300              		.loc 1 690 5
 690:../src/platform/drivers/mss/mss_mmuart/mss_uart.c ****     {
 2301              		.loc 1 690 24 is_stmt 0
 2302 0000 97070000 		lla	a5,.LANCHOR0
 2302      93870700 
 2303 0008 9C43     		lw	a5,0(a5)
 692:../src/platform/drivers/mss/mss_mmuart/mss_uart.c ****     }
 2304              		.loc 1 692 9
 2305 000a 17050000 		lla	a0,g_mss_uart2_hi
 2305      13050500 
 690:../src/platform/drivers/mss/mss_mmuart/mss_uart.c ****     {
 2306              		.loc 1 690 24
 2307 0012 918B     		andi	a5,a5,4
 690:../src/platform/drivers/mss/mss_mmuart/mss_uart.c ****     {
 2308              		.loc 1 690 8
 2309 0014 89E7     		bne	a5,zero,.L247
 696:../src/platform/drivers/mss/mss_mmuart/mss_uart.c ****     }
 2310              		.loc 1 696 9 is_stmt 1
 2311 0016 17050000 		lla	a0,g_mss_uart2_lo
 2311      13050500 
 2312              	.L247:
 2313 001e 17030000 		tail	uart_isr
 2313      67000300 
 2314              	.LVL146:
 2315              		.cfi_endproc
 2316              	.LFE39:
 2318              		.section	.text.U54_3_mmuart3_local_IRQHandler,"ax",@progbits
 2319              		.align	1
 2320              		.globl	U54_3_mmuart3_local_IRQHandler
 2322              	U54_3_mmuart3_local_IRQHandler:
 2323              	.LFB40:
 701:../src/platform/drivers/mss/mss_mmuart/mss_uart.c ****     if (g_uart_axi_pos & UART3_POSITION_MASK)
 2324              		.loc 1 701 1
 2325              		.cfi_startproc
 702:../src/platform/drivers/mss/mss_mmuart/mss_uart.c ****     {
 2326              		.loc 1 702 5
 702:../src/platform/drivers/mss/mss_mmuart/mss_uart.c ****     {
 2327              		.loc 1 702 24 is_stmt 0
 2328 0000 97070000 		lla	a5,.LANCHOR0
 2328      93870700 
 2329 0008 9C43     		lw	a5,0(a5)
 704:../src/platform/drivers/mss/mss_mmuart/mss_uart.c ****     }
 2330              		.loc 1 704 9
 2331 000a 17050000 		lla	a0,g_mss_uart3_hi
 2331      13050500 
 702:../src/platform/drivers/mss/mss_mmuart/mss_uart.c ****     {
 2332              		.loc 1 702 24
 2333 0012 A18B     		andi	a5,a5,8
 702:../src/platform/drivers/mss/mss_mmuart/mss_uart.c ****     {
 2334              		.loc 1 702 8
 2335 0014 89E7     		bne	a5,zero,.L250
 708:../src/platform/drivers/mss/mss_mmuart/mss_uart.c ****     }
 2336              		.loc 1 708 9 is_stmt 1
 2337 0016 17050000 		lla	a0,g_mss_uart3_lo
 2337      13050500 
 2338              	.L250:
 2339 001e 17030000 		tail	uart_isr
 2339      67000300 
 2340              	.LVL147:
 2341              		.cfi_endproc
 2342              	.LFE40:
 2344              		.section	.text.U54_4_mmuart4_local_IRQHandler,"ax",@progbits
 2345              		.align	1
 2346              		.globl	U54_4_mmuart4_local_IRQHandler
 2348              	U54_4_mmuart4_local_IRQHandler:
 2349              	.LFB41:
 713:../src/platform/drivers/mss/mss_mmuart/mss_uart.c ****     if (g_uart_axi_pos & UART4_POSITION_MASK)
 2350              		.loc 1 713 1
 2351              		.cfi_startproc
 714:../src/platform/drivers/mss/mss_mmuart/mss_uart.c ****     {
 2352              		.loc 1 714 5
 714:../src/platform/drivers/mss/mss_mmuart/mss_uart.c ****     {
 2353              		.loc 1 714 24 is_stmt 0
 2354 0000 97070000 		lla	a5,.LANCHOR0
 2354      93870700 
 2355 0008 9C43     		lw	a5,0(a5)
 716:../src/platform/drivers/mss/mss_mmuart/mss_uart.c ****     }
 2356              		.loc 1 716 9
 2357 000a 17050000 		lla	a0,g_mss_uart4_hi
 2357      13050500 
 714:../src/platform/drivers/mss/mss_mmuart/mss_uart.c ****     {
 2358              		.loc 1 714 24
 2359 0012 C18B     		andi	a5,a5,16
 714:../src/platform/drivers/mss/mss_mmuart/mss_uart.c ****     {
 2360              		.loc 1 714 8
 2361 0014 89E7     		bne	a5,zero,.L253
 720:../src/platform/drivers/mss/mss_mmuart/mss_uart.c ****     }
 2362              		.loc 1 720 9 is_stmt 1
 2363 0016 17050000 		lla	a0,g_mss_uart4_lo
 2363      13050500 
 2364              	.L253:
 2365 001e 17030000 		tail	uart_isr
 2365      67000300 
 2366              	.LVL148:
 2367              		.cfi_endproc
 2368              	.LFE41:
 2370              		.section	.text.MSS_UART_set_rxstatus_handler,"ax",@progbits
 2371              		.align	1
 2372              		.globl	MSS_UART_set_rxstatus_handler
 2374              	MSS_UART_set_rxstatus_handler:
 2375              	.LFB42:
 733:../src/platform/drivers/mss/mss_mmuart/mss_uart.c ****     ASSERT(handler != INVALID_IRQ_HANDLER);
 2376              		.loc 1 733 1
 2377              		.cfi_startproc
 2378              	.LVL149:
 734:../src/platform/drivers/mss/mss_mmuart/mss_uart.c **** 
 2379              		.loc 1 734 43
 736:../src/platform/drivers/mss/mss_mmuart/mss_uart.c ****     {
 2380              		.loc 1 736 5
 736:../src/platform/drivers/mss/mss_mmuart/mss_uart.c ****     {
 2381              		.loc 1 736 8 is_stmt 0
 2382 0000 89CD     		beq	a1,zero,.L254
 738:../src/platform/drivers/mss/mss_mmuart/mss_uart.c **** 
 2383              		.loc 1 738 9 is_stmt 1
 741:../src/platform/drivers/mss/mss_mmuart/mss_uart.c **** 
 2384              		.loc 1 741 18 is_stmt 0
 2385 0002 1861     		ld	a4,0(a0)
 738:../src/platform/drivers/mss/mss_mmuart/mss_uart.c **** 
 2386              		.loc 1 738 36
 2387 0004 0CF1     		sd	a1,32(a0)
 741:../src/platform/drivers/mss/mss_mmuart/mss_uart.c **** 
 2388              		.loc 1 741 9 is_stmt 1
 741:../src/platform/drivers/mss/mss_mmuart/mss_uart.c **** 
 2389              		.loc 1 741 32 is_stmt 0
 2390 0006 83474700 		lbu	a5,4(a4)
 2391 000a 93E74700 		ori	a5,a5,4
 2392 000e 2302F700 		sb	a5,4(a4)
 743:../src/platform/drivers/mss/mss_mmuart/mss_uart.c ****     }
 2393              		.loc 1 743 9 is_stmt 1
 2394 0012 17030000 		tail	enable_irq
 2394      67000300 
 2395              	.LVL150:
 2396              	.L254:
 745:../src/platform/drivers/mss/mss_mmuart/mss_uart.c **** 
 2397              		.loc 1 745 1 is_stmt 0
 2398 001a 8280     		ret
 2399              		.cfi_endproc
 2400              	.LFE42:
 2402              		.section	.text.MSS_UART_set_tx_handler,"ax",@progbits
 2403              		.align	1
 2404              		.globl	MSS_UART_set_tx_handler
 2406              	MSS_UART_set_tx_handler:
 2407              	.LFB43:
 756:../src/platform/drivers/mss/mss_mmuart/mss_uart.c ****     ASSERT(handler != INVALID_IRQ_HANDLER);
 2408              		.loc 1 756 1 is_stmt 1
 2409              		.cfi_startproc
 2410              	.LVL151:
 757:../src/platform/drivers/mss/mss_mmuart/mss_uart.c **** 
 2411              		.loc 1 757 43
 759:../src/platform/drivers/mss/mss_mmuart/mss_uart.c ****     {
 2412              		.loc 1 759 5
 759:../src/platform/drivers/mss/mss_mmuart/mss_uart.c ****     {
 2413              		.loc 1 759 8 is_stmt 0
 2414 0000 8DC1     		beq	a1,zero,.L256
 761:../src/platform/drivers/mss/mss_mmuart/mss_uart.c **** 
 2415              		.loc 1 761 9 is_stmt 1
 768:../src/platform/drivers/mss/mss_mmuart/mss_uart.c ****         enable_irq(this_uart);
 2416              		.loc 1 768 18 is_stmt 0
 2417 0002 1861     		ld	a4,0(a0)
 761:../src/platform/drivers/mss/mss_mmuart/mss_uart.c **** 
 2418              		.loc 1 761 31
 2419 0004 0CF9     		sd	a1,48(a0)
 764:../src/platform/drivers/mss/mss_mmuart/mss_uart.c ****         this_uart->tx_buff_size = 0u;
 2420              		.loc 1 764 9 is_stmt 1
 764:../src/platform/drivers/mss/mss_mmuart/mss_uart.c ****         this_uart->tx_buff_size = 0u;
 2421              		.loc 1 764 30 is_stmt 0
 2422 0006 23380500 		sd	zero,16(a0)
 765:../src/platform/drivers/mss/mss_mmuart/mss_uart.c **** 
 2423              		.loc 1 765 9 is_stmt 1
 768:../src/platform/drivers/mss/mss_mmuart/mss_uart.c ****         enable_irq(this_uart);
 2424              		.loc 1 768 32 is_stmt 0
 2425 000a 83474700 		lbu	a5,4(a4)
 765:../src/platform/drivers/mss/mss_mmuart/mss_uart.c **** 
 2426              		.loc 1 765 33
 2427 000e 232C0500 		sw	zero,24(a0)
 768:../src/platform/drivers/mss/mss_mmuart/mss_uart.c ****         enable_irq(this_uart);
 2428              		.loc 1 768 9 is_stmt 1
 768:../src/platform/drivers/mss/mss_mmuart/mss_uart.c ****         enable_irq(this_uart);
 2429              		.loc 1 768 32 is_stmt 0
 2430 0012 93E72700 		ori	a5,a5,2
 2431 0016 2302F700 		sb	a5,4(a4)
 769:../src/platform/drivers/mss/mss_mmuart/mss_uart.c ****     }
 2432              		.loc 1 769 9 is_stmt 1
 2433 001a 17030000 		tail	enable_irq
 2433      67000300 
 2434              	.LVL152:
 2435              	.L256:
 771:../src/platform/drivers/mss/mss_mmuart/mss_uart.c **** 
 2436              		.loc 1 771 1 is_stmt 0
 2437 0022 8280     		ret
 2438              		.cfi_endproc
 2439              	.LFE43:
 2441              		.section	.text.MSS_UART_set_modemstatus_handler,"ax",@progbits
 2442              		.align	1
 2443              		.globl	MSS_UART_set_modemstatus_handler
 2445              	MSS_UART_set_modemstatus_handler:
 2446              	.LFB44:
 782:../src/platform/drivers/mss/mss_mmuart/mss_uart.c ****     ASSERT(handler != INVALID_IRQ_HANDLER);
 2447              		.loc 1 782 1 is_stmt 1
 2448              		.cfi_startproc
 2449              	.LVL153:
 783:../src/platform/drivers/mss/mss_mmuart/mss_uart.c **** 
 2450              		.loc 1 783 43
 785:../src/platform/drivers/mss/mss_mmuart/mss_uart.c ****     {
 2451              		.loc 1 785 5
 785:../src/platform/drivers/mss/mss_mmuart/mss_uart.c ****     {
 2452              		.loc 1 785 8 is_stmt 0
 2453 0000 89CD     		beq	a1,zero,.L258
 787:../src/platform/drivers/mss/mss_mmuart/mss_uart.c **** 
 2454              		.loc 1 787 9 is_stmt 1
 790:../src/platform/drivers/mss/mss_mmuart/mss_uart.c ****         enable_irq(this_uart);
 2455              		.loc 1 790 18 is_stmt 0
 2456 0002 1861     		ld	a4,0(a0)
 787:../src/platform/drivers/mss/mss_mmuart/mss_uart.c **** 
 2457              		.loc 1 787 37
 2458 0004 0CFD     		sd	a1,56(a0)
 790:../src/platform/drivers/mss/mss_mmuart/mss_uart.c ****         enable_irq(this_uart);
 2459              		.loc 1 790 9 is_stmt 1
 790:../src/platform/drivers/mss/mss_mmuart/mss_uart.c ****         enable_irq(this_uart);
 2460              		.loc 1 790 32 is_stmt 0
 2461 0006 83474700 		lbu	a5,4(a4)
 2462 000a 93E78700 		ori	a5,a5,8
 2463 000e 2302F700 		sb	a5,4(a4)
 791:../src/platform/drivers/mss/mss_mmuart/mss_uart.c ****     }
 2464              		.loc 1 791 9 is_stmt 1
 2465 0012 17030000 		tail	enable_irq
 2465      67000300 
 2466              	.LVL154:
 2467              	.L258:
 793:../src/platform/drivers/mss/mss_mmuart/mss_uart.c **** 
 2468              		.loc 1 793 1 is_stmt 0
 2469 001a 8280     		ret
 2470              		.cfi_endproc
 2471              	.LFE44:
 2473              		.section	.text.MSS_UART_fill_tx_fifo,"ax",@progbits
 2474              		.align	1
 2475              		.globl	MSS_UART_fill_tx_fifo
 2477              	MSS_UART_fill_tx_fifo:
 2478              	.LFB45:
 805:../src/platform/drivers/mss/mss_mmuart/mss_uart.c ****     uint8_t status = 0u;
 2479              		.loc 1 805 1 is_stmt 1
 2480              		.cfi_startproc
 2481              	.LVL155:
 806:../src/platform/drivers/mss/mss_mmuart/mss_uart.c ****     uint32_t size_sent = 0u;
 2482              		.loc 1 806 5
 807:../src/platform/drivers/mss/mss_mmuart/mss_uart.c **** 
 2483              		.loc 1 807 5
 809:../src/platform/drivers/mss/mss_mmuart/mss_uart.c ****     ASSERT(tx_size > 0);
 2484              		.loc 1 809 40
 810:../src/platform/drivers/mss/mss_mmuart/mss_uart.c **** 
 2485              		.loc 1 810 24
 814:../src/platform/drivers/mss/mss_mmuart/mss_uart.c ****     {
 2486              		.loc 1 814 5
 814:../src/platform/drivers/mss/mss_mmuart/mss_uart.c ****     {
 2487              		.loc 1 814 8 is_stmt 0
 2488 0000 A9C5     		beq	a1,zero,.L261
 814:../src/platform/drivers/mss/mss_mmuart/mss_uart.c ****     {
 2489              		.loc 1 814 38 discriminator 1
 2490 0002 21C6     		beq	a2,zero,.L261
 816:../src/platform/drivers/mss/mss_mmuart/mss_uart.c ****         this_uart->status |= status;
 2491              		.loc 1 816 9 is_stmt 1
 816:../src/platform/drivers/mss/mss_mmuart/mss_uart.c ****         this_uart->status |= status;
 2492              		.loc 1 816 27 is_stmt 0
 2493 0004 1461     		ld	a3,0(a0)
 817:../src/platform/drivers/mss/mss_mmuart/mss_uart.c **** 
 2494              		.loc 1 817 27
 2495 0006 0347D500 		lbu	a4,13(a0)
 816:../src/platform/drivers/mss/mss_mmuart/mss_uart.c ****         this_uart->status |= status;
 2496              		.loc 1 816 16
 2497 000a 83C74601 		lbu	a5,20(a3)
 2498 000e 93F7F70F 		andi	a5,a5,0xff
 2499              	.LVL156:
 817:../src/platform/drivers/mss/mss_mmuart/mss_uart.c **** 
 2500              		.loc 1 817 9 is_stmt 1
 817:../src/platform/drivers/mss/mss_mmuart/mss_uart.c **** 
 2501              		.loc 1 817 27 is_stmt 0
 2502 0012 5D8F     		or	a4,a5,a4
 2503 0014 A306E500 		sb	a4,13(a0)
 819:../src/platform/drivers/mss/mss_mmuart/mss_uart.c ****         {
 2504              		.loc 1 819 9 is_stmt 1
 819:../src/platform/drivers/mss/mss_mmuart/mss_uart.c ****         {
 2505              		.loc 1 819 12 is_stmt 0
 2506 0018 93F70702 		andi	a5,a5,32
 2507              	.LVL157:
 2508 001c 9DC7     		beq	a5,zero,.L261
 2509              	.LBB31:
 821:../src/platform/drivers/mss/mss_mmuart/mss_uart.c **** 
 2510              		.loc 1 821 13 is_stmt 1
 2511              	.LVL158:
 823:../src/platform/drivers/mss/mss_mmuart/mss_uart.c ****             {
 2512              		.loc 1 823 13
 823:../src/platform/drivers/mss/mss_mmuart/mss_uart.c ****             {
 2513              		.loc 1 823 16 is_stmt 0
 2514 001e BD47     		li	a5,15
 2515 0020 63F3C700 		bleu	a2,a5,.L262
 2516 0024 4146     		li	a2,16
 2517              	.LVL159:
 2518              	.L262:
 2519 0026 0126     		sext.w	a2,a2
 2520              	.LVL160:
 829:../src/platform/drivers/mss/mss_mmuart/mss_uart.c ****             {
 2521              		.loc 1 829 13 is_stmt 1
 823:../src/platform/drivers/mss/mss_mmuart/mss_uart.c ****             {
 2522              		.loc 1 823 16 is_stmt 0
 2523 0028 8147     		li	a5,0
 2524              	.LVL161:
 2525              	.L263:
 832:../src/platform/drivers/mss/mss_mmuart/mss_uart.c ****             }
 2526              		.loc 1 832 17 is_stmt 1 discriminator 3
 832:../src/platform/drivers/mss/mss_mmuart/mss_uart.c ****             }
 2527              		.loc 1 832 51 is_stmt 0 discriminator 3
 2528 002a 3387F500 		add	a4,a1,a5
 2529 002e 03470700 		lbu	a4,0(a4)
 2530 0032 1B851700 		addiw	a0,a5,1
 2531              	.LVL162:
 2532 0036 8507     		addi	a5,a5,1
 2533              	.LVL163:
 832:../src/platform/drivers/mss/mss_mmuart/mss_uart.c ****             }
 2534              		.loc 1 832 40 discriminator 3
 2535 0038 2380E600 		sb	a4,0(a3)
 829:../src/platform/drivers/mss/mss_mmuart/mss_uart.c ****             {
 2536              		.loc 1 829 13 discriminator 3
 2537 003c 1B870700 		sext.w	a4,a5
 2538 0040 E365C7FE 		bgtu	a2,a4,.L263
 2539              	.LVL164:
 2540              	.L264:
 2541              	.LBE31:
 837:../src/platform/drivers/mss/mss_mmuart/mss_uart.c **** }
 2542              		.loc 1 837 5 is_stmt 1
 838:../src/platform/drivers/mss/mss_mmuart/mss_uart.c **** 
 2543              		.loc 1 838 1 is_stmt 0
 2544 0044 0215     		slli	a0,a0,32
 2545              	.LVL165:
 2546 0046 0191     		srli	a0,a0,32
 2547 0048 8280     		ret
 2548              	.LVL166:
 2549              	.L261:
 807:../src/platform/drivers/mss/mss_mmuart/mss_uart.c **** 
 2550              		.loc 1 807 14
 2551 004a 0145     		li	a0,0
 2552              	.LVL167:
 2553 004c E5BF     		j	.L264
 2554              		.cfi_endproc
 2555              	.LFE45:
 2557              		.section	.text.MSS_UART_get_rx_status,"ax",@progbits
 2558              		.align	1
 2559              		.globl	MSS_UART_get_rx_status
 2561              	MSS_UART_get_rx_status:
 2562              	.LFB46:
 848:../src/platform/drivers/mss/mss_mmuart/mss_uart.c ****     uint8_t status = MSS_UART_INVALID_PARAM;
 2563              		.loc 1 848 1 is_stmt 1
 2564              		.cfi_startproc
 2565              	.LVL168:
 849:../src/platform/drivers/mss/mss_mmuart/mss_uart.c **** 
 2566              		.loc 1 849 5
 859:../src/platform/drivers/mss/mss_mmuart/mss_uart.c ****     status = (this_uart->status & STATUS_ERROR_MASK);
 2567              		.loc 1 859 5
 860:../src/platform/drivers/mss/mss_mmuart/mss_uart.c ****     /* Clear the sticky status after reading */
 2568              		.loc 1 860 5
 859:../src/platform/drivers/mss/mss_mmuart/mss_uart.c ****     status = (this_uart->status & STATUS_ERROR_MASK);
 2569              		.loc 1 859 36 is_stmt 0
 2570 0000 1C61     		ld	a5,0(a0)
 859:../src/platform/drivers/mss/mss_mmuart/mss_uart.c ****     status = (this_uart->status & STATUS_ERROR_MASK);
 2571              		.loc 1 859 23
 2572 0002 0347D500 		lbu	a4,13(a0)
 859:../src/platform/drivers/mss/mss_mmuart/mss_uart.c ****     status = (this_uart->status & STATUS_ERROR_MASK);
 2573              		.loc 1 859 44
 2574 0006 83C74701 		lbu	a5,20(a5)
 862:../src/platform/drivers/mss/mss_mmuart/mss_uart.c **** 
 2575              		.loc 1 862 23
 2576 000a A3060500 		sb	zero,13(a0)
 859:../src/platform/drivers/mss/mss_mmuart/mss_uart.c ****     status = (this_uart->status & STATUS_ERROR_MASK);
 2577              		.loc 1 859 23
 2578 000e D98F     		or	a5,a5,a4
 2579              	.LVL169:
 862:../src/platform/drivers/mss/mss_mmuart/mss_uart.c **** 
 2580              		.loc 1 862 5 is_stmt 1
 864:../src/platform/drivers/mss/mss_mmuart/mss_uart.c **** }
 2581              		.loc 1 864 5
 865:../src/platform/drivers/mss/mss_mmuart/mss_uart.c **** 
 2582              		.loc 1 865 1 is_stmt 0
 2583 0010 13F5E709 		andi	a0,a5,158
 2584              	.LVL170:
 2585 0014 8280     		ret
 2586              		.cfi_endproc
 2587              	.LFE46:
 2589              		.section	.text.MSS_UART_get_modem_status,"ax",@progbits
 2590              		.align	1
 2591              		.globl	MSS_UART_get_modem_status
 2593              	MSS_UART_get_modem_status:
 2594              	.LFB47:
 875:../src/platform/drivers/mss/mss_mmuart/mss_uart.c ****     uint8_t status = MSS_UART_INVALID_PARAM;
 2595              		.loc 1 875 1 is_stmt 1
 2596              		.cfi_startproc
 2597              	.LVL171:
 876:../src/platform/drivers/mss/mss_mmuart/mss_uart.c **** 
 2598              		.loc 1 876 5
 889:../src/platform/drivers/mss/mss_mmuart/mss_uart.c **** 
 2599              		.loc 1 889 5
 889:../src/platform/drivers/mss/mss_mmuart/mss_uart.c **** 
 2600              		.loc 1 889 23 is_stmt 0
 2601 0000 1C61     		ld	a5,0(a0)
 889:../src/platform/drivers/mss/mss_mmuart/mss_uart.c **** 
 2602              		.loc 1 889 12
 2603 0002 03C58701 		lbu	a0,24(a5)
 2604              	.LVL172:
 891:../src/platform/drivers/mss/mss_mmuart/mss_uart.c **** }
 2605              		.loc 1 891 5 is_stmt 1
 892:../src/platform/drivers/mss/mss_mmuart/mss_uart.c **** 
 2606              		.loc 1 892 1 is_stmt 0
 2607 0006 8280     		ret
 2608              		.cfi_endproc
 2609              	.LFE47:
 2611              		.section	.text.MSS_UART_get_tx_status,"ax",@progbits
 2612              		.align	1
 2613              		.globl	MSS_UART_get_tx_status
 2615              	MSS_UART_get_tx_status:
 2616              	.LFB48:
 903:../src/platform/drivers/mss/mss_mmuart/mss_uart.c ****     uint8_t status = MSS_UART_TX_BUSY;
 2617              		.loc 1 903 1 is_stmt 1
 2618              		.cfi_startproc
 2619              	.LVL173:
 904:../src/platform/drivers/mss/mss_mmuart/mss_uart.c **** 
 2620              		.loc 1 904 5
 907:../src/platform/drivers/mss/mss_mmuart/mss_uart.c ****     this_uart->status |= status;
 2621              		.loc 1 907 5
 907:../src/platform/drivers/mss/mss_mmuart/mss_uart.c ****     this_uart->status |= status;
 2622              		.loc 1 907 23 is_stmt 0
 2623 0000 1C61     		ld	a5,0(a0)
 908:../src/platform/drivers/mss/mss_mmuart/mss_uart.c ****     
 2624              		.loc 1 908 23
 2625 0002 0347D500 		lbu	a4,13(a0)
 907:../src/platform/drivers/mss/mss_mmuart/mss_uart.c ****     this_uart->status |= status;
 2626              		.loc 1 907 12
 2627 0006 83C74701 		lbu	a5,20(a5)
 2628 000a 93F7F70F 		andi	a5,a5,0xff
 2629              	.LVL174:
 908:../src/platform/drivers/mss/mss_mmuart/mss_uart.c ****     
 2630              		.loc 1 908 5 is_stmt 1
 908:../src/platform/drivers/mss/mss_mmuart/mss_uart.c ****     
 2631              		.loc 1 908 23 is_stmt 0
 2632 000e 5D8F     		or	a4,a5,a4
 2633 0010 A306E500 		sb	a4,13(a0)
 917:../src/platform/drivers/mss/mss_mmuart/mss_uart.c **** 
 2634              		.loc 1 917 5 is_stmt 1
 2635              	.LVL175:
 919:../src/platform/drivers/mss/mss_mmuart/mss_uart.c **** }
 2636              		.loc 1 919 5
 920:../src/platform/drivers/mss/mss_mmuart/mss_uart.c **** 
 2637              		.loc 1 920 1 is_stmt 0
 2638 0014 13F50706 		andi	a0,a5,96
 2639              	.LVL176:
 2640 0018 8280     		ret
 2641              		.cfi_endproc
 2642              	.LFE48:
 2644              		.section	.text.MSS_UART_set_break,"ax",@progbits
 2645              		.align	1
 2646              		.globl	MSS_UART_set_break
 2648              	MSS_UART_set_break:
 2649              	.LFB49:
 930:../src/platform/drivers/mss/mss_mmuart/mss_uart.c ****     /* set break character on Tx line */
 2650              		.loc 1 930 1 is_stmt 1
 2651              		.cfi_startproc
 2652              	.LVL177:
 932:../src/platform/drivers/mss/mss_mmuart/mss_uart.c **** }
 2653              		.loc 1 932 5
 932:../src/platform/drivers/mss/mss_mmuart/mss_uart.c **** }
 2654              		.loc 1 932 14 is_stmt 0
 2655 0000 1861     		ld	a4,0(a0)
 932:../src/platform/drivers/mss/mss_mmuart/mss_uart.c **** }
 2656              		.loc 1 932 28
 2657 0002 8347C700 		lbu	a5,12(a4)
 2658 0006 93E70704 		ori	a5,a5,64
 2659 000a 2306F700 		sb	a5,12(a4)
 933:../src/platform/drivers/mss/mss_mmuart/mss_uart.c **** 
 2660              		.loc 1 933 1
 2661 000e 8280     		ret
 2662              		.cfi_endproc
 2663              	.LFE49:
 2665              		.section	.text.MSS_UART_clear_break,"ax",@progbits
 2666              		.align	1
 2667              		.globl	MSS_UART_clear_break
 2669              	MSS_UART_clear_break:
 2670              	.LFB50:
 943:../src/platform/drivers/mss/mss_mmuart/mss_uart.c ****     /* remove break character from Tx line */
 2671              		.loc 1 943 1 is_stmt 1
 2672              		.cfi_startproc
 2673              	.LVL178:
 945:../src/platform/drivers/mss/mss_mmuart/mss_uart.c **** }
 2674              		.loc 1 945 5
 945:../src/platform/drivers/mss/mss_mmuart/mss_uart.c **** }
 2675              		.loc 1 945 14 is_stmt 0
 2676 0000 1861     		ld	a4,0(a0)
 945:../src/platform/drivers/mss/mss_mmuart/mss_uart.c **** }
 2677              		.loc 1 945 28
 2678 0002 8347C700 		lbu	a5,12(a4)
 2679 0006 93F7F70B 		andi	a5,a5,191
 2680 000a 2306F700 		sb	a5,12(a4)
 946:../src/platform/drivers/mss/mss_mmuart/mss_uart.c **** 
 2681              		.loc 1 946 1
 2682 000e 8280     		ret
 2683              		.cfi_endproc
 2684              	.LFE50:
 2686              		.section	.text.MSS_UART_set_pidpei_handler,"ax",@progbits
 2687              		.align	1
 2688              		.globl	MSS_UART_set_pidpei_handler
 2690              	MSS_UART_set_pidpei_handler:
 2691              	.LFB51:
 957:../src/platform/drivers/mss/mss_mmuart/mss_uart.c ****     ASSERT(handler != INVALID_IRQ_HANDLER);
 2692              		.loc 1 957 1 is_stmt 1
 2693              		.cfi_startproc
 2694              	.LVL179:
 958:../src/platform/drivers/mss/mss_mmuart/mss_uart.c **** 
 2695              		.loc 1 958 43
 960:../src/platform/drivers/mss/mss_mmuart/mss_uart.c ****     {
 2696              		.loc 1 960 5
 960:../src/platform/drivers/mss/mss_mmuart/mss_uart.c ****     {
 2697              		.loc 1 960 8 is_stmt 0
 2698 0000 89CD     		beq	a1,zero,.L280
 962:../src/platform/drivers/mss/mss_mmuart/mss_uart.c **** 
 2699              		.loc 1 962 9 is_stmt 1
 965:../src/platform/drivers/mss/mss_mmuart/mss_uart.c ****         enable_irq(this_uart);
 2700              		.loc 1 965 18 is_stmt 0
 2701 0002 1861     		ld	a4,0(a0)
 962:../src/platform/drivers/mss/mss_mmuart/mss_uart.c **** 
 2702              		.loc 1 962 36
 2703 0004 2CE9     		sd	a1,80(a0)
 965:../src/platform/drivers/mss/mss_mmuart/mss_uart.c ****         enable_irq(this_uart);
 2704              		.loc 1 965 9 is_stmt 1
 965:../src/platform/drivers/mss/mss_mmuart/mss_uart.c ****         enable_irq(this_uart);
 2705              		.loc 1 965 32 is_stmt 0
 2706 0006 83474702 		lbu	a5,36(a4)
 2707 000a 93E74700 		ori	a5,a5,4
 2708 000e 2302F702 		sb	a5,36(a4)
 966:../src/platform/drivers/mss/mss_mmuart/mss_uart.c ****     }
 2709              		.loc 1 966 9 is_stmt 1
 2710 0012 17030000 		tail	enable_irq
 2710      67000300 
 2711              	.LVL180:
 2712              	.L280:
 968:../src/platform/drivers/mss/mss_mmuart/mss_uart.c **** 
 2713              		.loc 1 968 1 is_stmt 0
 2714 001a 8280     		ret
 2715              		.cfi_endproc
 2716              	.LFE51:
 2718              		.section	.text.MSS_UART_set_linbreak_handler,"ax",@progbits
 2719              		.align	1
 2720              		.globl	MSS_UART_set_linbreak_handler
 2722              	MSS_UART_set_linbreak_handler:
 2723              	.LFB52:
 979:../src/platform/drivers/mss/mss_mmuart/mss_uart.c ****     ASSERT(handler != INVALID_IRQ_HANDLER);
 2724              		.loc 1 979 1 is_stmt 1
 2725              		.cfi_startproc
 2726              	.LVL181:
 980:../src/platform/drivers/mss/mss_mmuart/mss_uart.c **** 
 2727              		.loc 1 980 43
 982:../src/platform/drivers/mss/mss_mmuart/mss_uart.c ****     {
 2728              		.loc 1 982 5
 982:../src/platform/drivers/mss/mss_mmuart/mss_uart.c ****     {
 2729              		.loc 1 982 8 is_stmt 0
 2730 0000 89CD     		beq	a1,zero,.L282
 984:../src/platform/drivers/mss/mss_mmuart/mss_uart.c **** 
 2731              		.loc 1 984 9 is_stmt 1
 987:../src/platform/drivers/mss/mss_mmuart/mss_uart.c ****         enable_irq(this_uart);
 2732              		.loc 1 987 18 is_stmt 0
 2733 0002 1861     		ld	a4,0(a0)
 984:../src/platform/drivers/mss/mss_mmuart/mss_uart.c **** 
 2734              		.loc 1 984 34
 2735 0004 2CED     		sd	a1,88(a0)
 987:../src/platform/drivers/mss/mss_mmuart/mss_uart.c ****         enable_irq(this_uart);
 2736              		.loc 1 987 9 is_stmt 1
 987:../src/platform/drivers/mss/mss_mmuart/mss_uart.c ****         enable_irq(this_uart);
 2737              		.loc 1 987 32 is_stmt 0
 2738 0006 83474702 		lbu	a5,36(a4)
 2739 000a 93E78700 		ori	a5,a5,8
 2740 000e 2302F702 		sb	a5,36(a4)
 988:../src/platform/drivers/mss/mss_mmuart/mss_uart.c ****     }
 2741              		.loc 1 988 9 is_stmt 1
 2742 0012 17030000 		tail	enable_irq
 2742      67000300 
 2743              	.LVL182:
 2744              	.L282:
 990:../src/platform/drivers/mss/mss_mmuart/mss_uart.c **** 
 2745              		.loc 1 990 1 is_stmt 0
 2746 001a 8280     		ret
 2747              		.cfi_endproc
 2748              	.LFE52:
 2750              		.section	.text.MSS_UART_set_linsync_handler,"ax",@progbits
 2751              		.align	1
 2752              		.globl	MSS_UART_set_linsync_handler
 2754              	MSS_UART_set_linsync_handler:
 2755              	.LFB53:
1001:../src/platform/drivers/mss/mss_mmuart/mss_uart.c ****     ASSERT(handler != INVALID_IRQ_HANDLER);
 2756              		.loc 1 1001 1 is_stmt 1
 2757              		.cfi_startproc
 2758              	.LVL183:
1002:../src/platform/drivers/mss/mss_mmuart/mss_uart.c **** 
 2759              		.loc 1 1002 43
1004:../src/platform/drivers/mss/mss_mmuart/mss_uart.c ****     {
 2760              		.loc 1 1004 5
1004:../src/platform/drivers/mss/mss_mmuart/mss_uart.c ****     {
 2761              		.loc 1 1004 8 is_stmt 0
 2762 0000 89CD     		beq	a1,zero,.L284
1006:../src/platform/drivers/mss/mss_mmuart/mss_uart.c **** 
 2763              		.loc 1 1006 9 is_stmt 1
1009:../src/platform/drivers/mss/mss_mmuart/mss_uart.c ****         enable_irq(this_uart);
 2764              		.loc 1 1009 18 is_stmt 0
 2765 0002 1861     		ld	a4,0(a0)
1006:../src/platform/drivers/mss/mss_mmuart/mss_uart.c **** 
 2766              		.loc 1 1006 33
 2767 0004 2CF1     		sd	a1,96(a0)
1009:../src/platform/drivers/mss/mss_mmuart/mss_uart.c ****         enable_irq(this_uart);
 2768              		.loc 1 1009 9 is_stmt 1
1009:../src/platform/drivers/mss/mss_mmuart/mss_uart.c ****         enable_irq(this_uart);
 2769              		.loc 1 1009 32 is_stmt 0
 2770 0006 83474702 		lbu	a5,36(a4)
 2771 000a 93E70701 		ori	a5,a5,16
 2772 000e 2302F702 		sb	a5,36(a4)
1010:../src/platform/drivers/mss/mss_mmuart/mss_uart.c ****     }
 2773              		.loc 1 1010 9 is_stmt 1
 2774 0012 17030000 		tail	enable_irq
 2774      67000300 
 2775              	.LVL184:
 2776              	.L284:
1012:../src/platform/drivers/mss/mss_mmuart/mss_uart.c **** 
 2777              		.loc 1 1012 1 is_stmt 0
 2778 001a 8280     		ret
 2779              		.cfi_endproc
 2780              	.LFE53:
 2782              		.section	.text.MSS_UART_set_nack_handler,"ax",@progbits
 2783              		.align	1
 2784              		.globl	MSS_UART_set_nack_handler
 2786              	MSS_UART_set_nack_handler:
 2787              	.LFB54:
1023:../src/platform/drivers/mss/mss_mmuart/mss_uart.c ****     ASSERT(handler != INVALID_IRQ_HANDLER);
 2788              		.loc 1 1023 1 is_stmt 1
 2789              		.cfi_startproc
 2790              	.LVL185:
1024:../src/platform/drivers/mss/mss_mmuart/mss_uart.c **** 
 2791              		.loc 1 1024 43
1026:../src/platform/drivers/mss/mss_mmuart/mss_uart.c ****     {
 2792              		.loc 1 1026 5
1026:../src/platform/drivers/mss/mss_mmuart/mss_uart.c ****     {
 2793              		.loc 1 1026 8 is_stmt 0
 2794 0000 89CD     		beq	a1,zero,.L286
1028:../src/platform/drivers/mss/mss_mmuart/mss_uart.c **** 
 2795              		.loc 1 1028 9 is_stmt 1
1031:../src/platform/drivers/mss/mss_mmuart/mss_uart.c ****         enable_irq(this_uart);
 2796              		.loc 1 1031 18 is_stmt 0
 2797 0002 1861     		ld	a4,0(a0)
1028:../src/platform/drivers/mss/mss_mmuart/mss_uart.c **** 
 2798              		.loc 1 1028 33
 2799 0004 2CE5     		sd	a1,72(a0)
1031:../src/platform/drivers/mss/mss_mmuart/mss_uart.c ****         enable_irq(this_uart);
 2800              		.loc 1 1031 9 is_stmt 1
1031:../src/platform/drivers/mss/mss_mmuart/mss_uart.c ****         enable_irq(this_uart);
 2801              		.loc 1 1031 32 is_stmt 0
 2802 0006 83474702 		lbu	a5,36(a4)
 2803 000a 93E72700 		ori	a5,a5,2
 2804 000e 2302F702 		sb	a5,36(a4)
1032:../src/platform/drivers/mss/mss_mmuart/mss_uart.c ****     }
 2805              		.loc 1 1032 9 is_stmt 1
 2806 0012 17030000 		tail	enable_irq
 2806      67000300 
 2807              	.LVL186:
 2808              	.L286:
1034:../src/platform/drivers/mss/mss_mmuart/mss_uart.c **** 
 2809              		.loc 1 1034 1 is_stmt 0
 2810 001a 8280     		ret
 2811              		.cfi_endproc
 2812              	.LFE54:
 2814              		.section	.text.MSS_UART_set_rx_timeout_handler,"ax",@progbits
 2815              		.align	1
 2816              		.globl	MSS_UART_set_rx_timeout_handler
 2818              	MSS_UART_set_rx_timeout_handler:
 2819              	.LFB55:
1045:../src/platform/drivers/mss/mss_mmuart/mss_uart.c ****     ASSERT(handler != INVALID_IRQ_HANDLER);
 2820              		.loc 1 1045 1 is_stmt 1
 2821              		.cfi_startproc
 2822              	.LVL187:
1046:../src/platform/drivers/mss/mss_mmuart/mss_uart.c **** 
 2823              		.loc 1 1046 43
1048:../src/platform/drivers/mss/mss_mmuart/mss_uart.c ****     {
 2824              		.loc 1 1048 5
1048:../src/platform/drivers/mss/mss_mmuart/mss_uart.c ****     {
 2825              		.loc 1 1048 8 is_stmt 0
 2826 0000 89CD     		beq	a1,zero,.L288
1050:../src/platform/drivers/mss/mss_mmuart/mss_uart.c **** 
 2827              		.loc 1 1050 9 is_stmt 1
1053:../src/platform/drivers/mss/mss_mmuart/mss_uart.c ****         enable_irq(this_uart);
 2828              		.loc 1 1053 18 is_stmt 0
 2829 0002 1861     		ld	a4,0(a0)
1050:../src/platform/drivers/mss/mss_mmuart/mss_uart.c **** 
 2830              		.loc 1 1050 32
 2831 0004 2CE1     		sd	a1,64(a0)
1053:../src/platform/drivers/mss/mss_mmuart/mss_uart.c ****         enable_irq(this_uart);
 2832              		.loc 1 1053 9 is_stmt 1
1053:../src/platform/drivers/mss/mss_mmuart/mss_uart.c ****         enable_irq(this_uart);
 2833              		.loc 1 1053 32 is_stmt 0
 2834 0006 83474702 		lbu	a5,36(a4)
 2835 000a 93E71700 		ori	a5,a5,1
 2836 000e 2302F702 		sb	a5,36(a4)
1054:../src/platform/drivers/mss/mss_mmuart/mss_uart.c ****     }
 2837              		.loc 1 1054 9 is_stmt 1
 2838 0012 17030000 		tail	enable_irq
 2838      67000300 
 2839              	.LVL188:
 2840              	.L288:
1056:../src/platform/drivers/mss/mss_mmuart/mss_uart.c **** 
 2841              		.loc 1 1056 1 is_stmt 0
 2842 001a 8280     		ret
 2843              		.cfi_endproc
 2844              	.LFE55:
 2846              		.section	.text.MSS_UART_enable_half_duplex,"ax",@progbits
 2847              		.align	1
 2848              		.globl	MSS_UART_enable_half_duplex
 2850              	MSS_UART_enable_half_duplex:
 2851              	.LFB56:
1066:../src/platform/drivers/mss/mss_mmuart/mss_uart.c ****     /* enable single wire half-duplex mode */
 2852              		.loc 1 1066 1 is_stmt 1
 2853              		.cfi_startproc
 2854              	.LVL189:
1068:../src/platform/drivers/mss/mss_mmuart/mss_uart.c **** }
 2855              		.loc 1 1068 5
1068:../src/platform/drivers/mss/mss_mmuart/mss_uart.c **** }
 2856              		.loc 1 1068 14 is_stmt 0
 2857 0000 1861     		ld	a4,0(a0)
1068:../src/platform/drivers/mss/mss_mmuart/mss_uart.c **** }
 2858              		.loc 1 1068 28
 2859 0002 83478703 		lbu	a5,56(a4)
 2860 0006 93E78700 		ori	a5,a5,8
 2861 000a 230CF702 		sb	a5,56(a4)
1069:../src/platform/drivers/mss/mss_mmuart/mss_uart.c **** 
 2862              		.loc 1 1069 1
 2863 000e 8280     		ret
 2864              		.cfi_endproc
 2865              	.LFE56:
 2867              		.section	.text.MSS_UART_disable_half_duplex,"ax",@progbits
 2868              		.align	1
 2869              		.globl	MSS_UART_disable_half_duplex
 2871              	MSS_UART_disable_half_duplex:
 2872              	.LFB57:
1079:../src/platform/drivers/mss/mss_mmuart/mss_uart.c ****     /* enable single wire half-duplex mode */
 2873              		.loc 1 1079 1 is_stmt 1
 2874              		.cfi_startproc
 2875              	.LVL190:
1081:../src/platform/drivers/mss/mss_mmuart/mss_uart.c **** }
 2876              		.loc 1 1081 5
1081:../src/platform/drivers/mss/mss_mmuart/mss_uart.c **** }
 2877              		.loc 1 1081 14 is_stmt 0
 2878 0000 1861     		ld	a4,0(a0)
1081:../src/platform/drivers/mss/mss_mmuart/mss_uart.c **** }
 2879              		.loc 1 1081 28
 2880 0002 83478703 		lbu	a5,56(a4)
 2881 0006 93F7770F 		andi	a5,a5,247
 2882 000a 230CF702 		sb	a5,56(a4)
1082:../src/platform/drivers/mss/mss_mmuart/mss_uart.c **** 
 2883              		.loc 1 1082 1
 2884 000e 8280     		ret
 2885              		.cfi_endproc
 2886              	.LFE57:
 2888              		.section	.text.MSS_UART_set_rx_endian,"ax",@progbits
 2889              		.align	1
 2890              		.globl	MSS_UART_set_rx_endian
 2892              	MSS_UART_set_rx_endian:
 2893              	.LFB58:
1093:../src/platform/drivers/mss/mss_mmuart/mss_uart.c ****     ASSERT(MSS_UART_INVALID_ENDIAN > endian);
 2894              		.loc 1 1093 1 is_stmt 1
 2895              		.cfi_startproc
 2896              	.LVL191:
1094:../src/platform/drivers/mss/mss_mmuart/mss_uart.c **** 
 2897              		.loc 1 1094 45
1096:../src/platform/drivers/mss/mss_mmuart/mss_uart.c ****     {
 2898              		.loc 1 1096 5
1096:../src/platform/drivers/mss/mss_mmuart/mss_uart.c ****     {
 2899              		.loc 1 1096 8 is_stmt 0
 2900 0000 8547     		li	a5,1
 2901 0002 63EAB700 		bgtu	a1,a5,.L292
1099:../src/platform/drivers/mss/mss_mmuart/mss_uart.c ****                                      (this_uart->hw_reg->MM1 |= E_MSB_RX_MASK));
 2902              		.loc 1 1099 9 is_stmt 1
 2903 0006 1C61     		ld	a5,0(a0)
1099:../src/platform/drivers/mss/mss_mmuart/mss_uart.c ****                                      (this_uart->hw_reg->MM1 |= E_MSB_RX_MASK));
 2904              		.loc 1 1099 67 is_stmt 0
 2905 0008 03C74703 		lbu	a4,52(a5)
1099:../src/platform/drivers/mss/mss_mmuart/mss_uart.c ****                                      (this_uart->hw_reg->MM1 |= E_MSB_RX_MASK));
 2906              		.loc 1 1099 86
 2907 000c 91E5     		bne	a1,zero,.L294
1099:../src/platform/drivers/mss/mss_mmuart/mss_uart.c ****                                      (this_uart->hw_reg->MM1 |= E_MSB_RX_MASK));
 2908              		.loc 1 1099 67 discriminator 1
 2909 000e 1377E70F 		andi	a4,a4,254
 2910              	.L295:
1100:../src/platform/drivers/mss/mss_mmuart/mss_uart.c ****     }
 2911              		.loc 1 1100 62 discriminator 2
 2912 0012 238AE702 		sb	a4,52(a5)
 2913              	.L292:
1102:../src/platform/drivers/mss/mss_mmuart/mss_uart.c **** 
 2914              		.loc 1 1102 1
 2915 0016 8280     		ret
 2916              	.L294:
1100:../src/platform/drivers/mss/mss_mmuart/mss_uart.c ****     }
 2917              		.loc 1 1100 62 discriminator 2
 2918 0018 13671700 		ori	a4,a4,1
 2919 001c DDBF     		j	.L295
 2920              		.cfi_endproc
 2921              	.LFE58:
 2923              		.section	.text.MSS_UART_set_tx_endian,"ax",@progbits
 2924              		.align	1
 2925              		.globl	MSS_UART_set_tx_endian
 2927              	MSS_UART_set_tx_endian:
 2928              	.LFB59:
1113:../src/platform/drivers/mss/mss_mmuart/mss_uart.c ****     ASSERT(MSS_UART_INVALID_ENDIAN > endian);
 2929              		.loc 1 1113 1 is_stmt 1
 2930              		.cfi_startproc
 2931              	.LVL192:
1114:../src/platform/drivers/mss/mss_mmuart/mss_uart.c **** 
 2932              		.loc 1 1114 45
1116:../src/platform/drivers/mss/mss_mmuart/mss_uart.c ****     {
 2933              		.loc 1 1116 5
1116:../src/platform/drivers/mss/mss_mmuart/mss_uart.c ****     {
 2934              		.loc 1 1116 8 is_stmt 0
 2935 0000 8547     		li	a5,1
 2936 0002 63EAB700 		bgtu	a1,a5,.L296
1119:../src/platform/drivers/mss/mss_mmuart/mss_uart.c ****                                     (this_uart->hw_reg->MM1 |= E_MSB_TX_MASK));
 2937              		.loc 1 1119 9 is_stmt 1
 2938 0006 1C61     		ld	a5,0(a0)
1119:../src/platform/drivers/mss/mss_mmuart/mss_uart.c ****                                     (this_uart->hw_reg->MM1 |= E_MSB_TX_MASK));
 2939              		.loc 1 1119 67 is_stmt 0
 2940 0008 03C74703 		lbu	a4,52(a5)
1119:../src/platform/drivers/mss/mss_mmuart/mss_uart.c ****                                     (this_uart->hw_reg->MM1 |= E_MSB_TX_MASK));
 2941              		.loc 1 1119 86
 2942 000c 91E5     		bne	a1,zero,.L298
1119:../src/platform/drivers/mss/mss_mmuart/mss_uart.c ****                                     (this_uart->hw_reg->MM1 |= E_MSB_TX_MASK));
 2943              		.loc 1 1119 67 discriminator 1
 2944 000e 1377D70F 		andi	a4,a4,253
 2945              	.L299:
1120:../src/platform/drivers/mss/mss_mmuart/mss_uart.c ****     }
 2946              		.loc 1 1120 61 discriminator 2
 2947 0012 238AE702 		sb	a4,52(a5)
 2948              	.L296:
1122:../src/platform/drivers/mss/mss_mmuart/mss_uart.c **** 
 2949              		.loc 1 1122 1
 2950 0016 8280     		ret
 2951              	.L298:
1120:../src/platform/drivers/mss/mss_mmuart/mss_uart.c ****     }
 2952              		.loc 1 1120 61 discriminator 2
 2953 0018 13672700 		ori	a4,a4,2
 2954 001c DDBF     		j	.L299
 2955              		.cfi_endproc
 2956              	.LFE59:
 2958              		.section	.text.MSS_UART_set_filter_length,"ax",@progbits
 2959              		.align	1
 2960              		.globl	MSS_UART_set_filter_length
 2962              	MSS_UART_set_filter_length:
 2963              	.LFB60:
1133:../src/platform/drivers/mss/mss_mmuart/mss_uart.c ****     ASSERT(MSS_UART_INVALID_FILTER_LENGTH > length);
 2964              		.loc 1 1133 1 is_stmt 1
 2965              		.cfi_startproc
 2966              	.LVL193:
1134:../src/platform/drivers/mss/mss_mmuart/mss_uart.c ****     
 2967              		.loc 1 1134 52
1136:../src/platform/drivers/mss/mss_mmuart/mss_uart.c ****     {
 2968              		.loc 1 1136 5
1136:../src/platform/drivers/mss/mss_mmuart/mss_uart.c ****     {
 2969              		.loc 1 1136 8 is_stmt 0
 2970 0000 9D47     		li	a5,7
 2971 0002 63E7B700 		bgtu	a1,a5,.L300
1139:../src/platform/drivers/mss/mss_mmuart/mss_uart.c ****     }
 2972              		.loc 1 1139 9 is_stmt 1
1139:../src/platform/drivers/mss/mss_mmuart/mss_uart.c ****     }
 2973              		.loc 1 1139 18 is_stmt 0
 2974 0006 1C61     		ld	a5,0(a0)
1139:../src/platform/drivers/mss/mss_mmuart/mss_uart.c ****     }
 2975              		.loc 1 1139 34
 2976 0008 93F5F50F 		andi	a1,a1,0xff
 2977              	.LVL194:
1139:../src/platform/drivers/mss/mss_mmuart/mss_uart.c ****     }
 2978              		.loc 1 1139 32
 2979 000c 2382B704 		sb	a1,68(a5)
 2980              	.L300:
1141:../src/platform/drivers/mss/mss_mmuart/mss_uart.c **** 
 2981              		.loc 1 1141 1
 2982 0010 8280     		ret
 2983              		.cfi_endproc
 2984              	.LFE60:
 2986              		.section	.text.MSS_UART_enable_afm,"ax",@progbits
 2987              		.align	1
 2988              		.globl	MSS_UART_enable_afm
 2990              	MSS_UART_enable_afm:
 2991              	.LFB61:
1151:../src/platform/drivers/mss/mss_mmuart/mss_uart.c ****     /* Disable RX FIFO till address flag with correct address is received */
 2992              		.loc 1 1151 1 is_stmt 1
 2993              		.cfi_startproc
 2994              	.LVL195:
1153:../src/platform/drivers/mss/mss_mmuart/mss_uart.c **** }
 2995              		.loc 1 1153 5
1153:../src/platform/drivers/mss/mss_mmuart/mss_uart.c **** }
 2996              		.loc 1 1153 14 is_stmt 0
 2997 0000 1861     		ld	a4,0(a0)
1153:../src/platform/drivers/mss/mss_mmuart/mss_uart.c **** }
 2998              		.loc 1 1153 28
 2999 0002 83478703 		lbu	a5,56(a4)
 3000 0006 93E72700 		ori	a5,a5,2
 3001 000a 230CF702 		sb	a5,56(a4)
1154:../src/platform/drivers/mss/mss_mmuart/mss_uart.c **** 
 3002              		.loc 1 1154 1
 3003 000e 8280     		ret
 3004              		.cfi_endproc
 3005              	.LFE61:
 3007              		.section	.text.MSS_UART_disable_afm,"ax",@progbits
 3008              		.align	1
 3009              		.globl	MSS_UART_disable_afm
 3011              	MSS_UART_disable_afm:
 3012              	.LFB62:
1164:../src/platform/drivers/mss/mss_mmuart/mss_uart.c ****     /* Enable RX FIFO irrespective of address flag and
 3013              		.loc 1 1164 1 is_stmt 1
 3014              		.cfi_startproc
 3015              	.LVL196:
1167:../src/platform/drivers/mss/mss_mmuart/mss_uart.c **** }
 3016              		.loc 1 1167 5
1167:../src/platform/drivers/mss/mss_mmuart/mss_uart.c **** }
 3017              		.loc 1 1167 14 is_stmt 0
 3018 0000 1861     		ld	a4,0(a0)
1167:../src/platform/drivers/mss/mss_mmuart/mss_uart.c **** }
 3019              		.loc 1 1167 28
 3020 0002 83478703 		lbu	a5,56(a4)
 3021 0006 93F7D70F 		andi	a5,a5,253
 3022 000a 230CF702 		sb	a5,56(a4)
1168:../src/platform/drivers/mss/mss_mmuart/mss_uart.c **** 
 3023              		.loc 1 1168 1
 3024 000e 8280     		ret
 3025              		.cfi_endproc
 3026              	.LFE62:
 3028              		.section	.text.MSS_UART_enable_afclear,"ax",@progbits
 3029              		.align	1
 3030              		.globl	MSS_UART_enable_afclear
 3032              	MSS_UART_enable_afclear:
 3033              	.LFB63:
1178:../src/platform/drivers/mss/mss_mmuart/mss_uart.c ****     /* Enable address flag clearing */
 3034              		.loc 1 1178 1 is_stmt 1
 3035              		.cfi_startproc
 3036              	.LVL197:
1182:../src/platform/drivers/mss/mss_mmuart/mss_uart.c **** }
 3037              		.loc 1 1182 5
1182:../src/platform/drivers/mss/mss_mmuart/mss_uart.c **** }
 3038              		.loc 1 1182 14 is_stmt 0
 3039 0000 1861     		ld	a4,0(a0)
1182:../src/platform/drivers/mss/mss_mmuart/mss_uart.c **** }
 3040              		.loc 1 1182 28
 3041 0002 83478703 		lbu	a5,56(a4)
 3042 0006 93E74700 		ori	a5,a5,4
 3043 000a 230CF702 		sb	a5,56(a4)
1183:../src/platform/drivers/mss/mss_mmuart/mss_uart.c **** 
 3044              		.loc 1 1183 1
 3045 000e 8280     		ret
 3046              		.cfi_endproc
 3047              	.LFE63:
 3049              		.section	.text.MSS_UART_disable_afclear,"ax",@progbits
 3050              		.align	1
 3051              		.globl	MSS_UART_disable_afclear
 3053              	MSS_UART_disable_afclear:
 3054              	.LFB64:
1193:../src/platform/drivers/mss/mss_mmuart/mss_uart.c ****     /* Disable address flag clearing */
 3055              		.loc 1 1193 1 is_stmt 1
 3056              		.cfi_startproc
 3057              	.LVL198:
1195:../src/platform/drivers/mss/mss_mmuart/mss_uart.c **** }
 3058              		.loc 1 1195 5
1195:../src/platform/drivers/mss/mss_mmuart/mss_uart.c **** }
 3059              		.loc 1 1195 14 is_stmt 0
 3060 0000 1861     		ld	a4,0(a0)
1195:../src/platform/drivers/mss/mss_mmuart/mss_uart.c **** }
 3061              		.loc 1 1195 28
 3062 0002 83478703 		lbu	a5,56(a4)
 3063 0006 93F7B70F 		andi	a5,a5,251
 3064 000a 230CF702 		sb	a5,56(a4)
1196:../src/platform/drivers/mss/mss_mmuart/mss_uart.c **** 
 3065              		.loc 1 1196 1
 3066 000e 8280     		ret
 3067              		.cfi_endproc
 3068              	.LFE64:
 3070              		.section	.text.MSS_UART_enable_rx_timeout,"ax",@progbits
 3071              		.align	1
 3072              		.globl	MSS_UART_enable_rx_timeout
 3074              	MSS_UART_enable_rx_timeout:
 3075              	.LFB65:
1207:../src/platform/drivers/mss/mss_mmuart/mss_uart.c ****     /* Load the receive timeout value */
 3076              		.loc 1 1207 1 is_stmt 1
 3077              		.cfi_startproc
 3078              	.LVL199:
1209:../src/platform/drivers/mss/mss_mmuart/mss_uart.c **** 
 3079              		.loc 1 1209 5
1209:../src/platform/drivers/mss/mss_mmuart/mss_uart.c **** 
 3080              		.loc 1 1209 14 is_stmt 0
 3081 0000 1C61     		ld	a5,0(a0)
1209:../src/platform/drivers/mss/mss_mmuart/mss_uart.c **** 
 3082              		.loc 1 1209 28
 3083 0002 2386B704 		sb	a1,76(a5)
1212:../src/platform/drivers/mss/mss_mmuart/mss_uart.c **** }
 3084              		.loc 1 1212 5 is_stmt 1
1212:../src/platform/drivers/mss/mss_mmuart/mss_uart.c **** }
 3085              		.loc 1 1212 28 is_stmt 0
 3086 0006 03C70703 		lbu	a4,48(a5)
 3087 000a 13670704 		ori	a4,a4,64
 3088 000e 2388E702 		sb	a4,48(a5)
1213:../src/platform/drivers/mss/mss_mmuart/mss_uart.c **** 
 3089              		.loc 1 1213 1
 3090 0012 8280     		ret
 3091              		.cfi_endproc
 3092              	.LFE65:
 3094              		.section	.text.MSS_UART_disable_rx_timeout,"ax",@progbits
 3095              		.align	1
 3096              		.globl	MSS_UART_disable_rx_timeout
 3098              	MSS_UART_disable_rx_timeout:
 3099              	.LFB66:
1223:../src/platform/drivers/mss/mss_mmuart/mss_uart.c ****     /* Disable receiver time-out */
 3100              		.loc 1 1223 1 is_stmt 1
 3101              		.cfi_startproc
 3102              	.LVL200:
1225:../src/platform/drivers/mss/mss_mmuart/mss_uart.c **** }
 3103              		.loc 1 1225 5
1225:../src/platform/drivers/mss/mss_mmuart/mss_uart.c **** }
 3104              		.loc 1 1225 14 is_stmt 0
 3105 0000 1861     		ld	a4,0(a0)
1225:../src/platform/drivers/mss/mss_mmuart/mss_uart.c **** }
 3106              		.loc 1 1225 28
 3107 0002 83470703 		lbu	a5,48(a4)
 3108 0006 93F7F70B 		andi	a5,a5,191
 3109 000a 2308F702 		sb	a5,48(a4)
1226:../src/platform/drivers/mss/mss_mmuart/mss_uart.c **** 
 3110              		.loc 1 1226 1
 3111 000e 8280     		ret
 3112              		.cfi_endproc
 3113              	.LFE66:
 3115              		.section	.text.MSS_UART_enable_tx_time_guard,"ax",@progbits
 3116              		.align	1
 3117              		.globl	MSS_UART_enable_tx_time_guard
 3119              	MSS_UART_enable_tx_time_guard:
 3120              	.LFB67:
1237:../src/platform/drivers/mss/mss_mmuart/mss_uart.c ****     /* Load the transmitter time guard value */
 3121              		.loc 1 1237 1 is_stmt 1
 3122              		.cfi_startproc
 3123              	.LVL201:
1239:../src/platform/drivers/mss/mss_mmuart/mss_uart.c **** 
 3124              		.loc 1 1239 5
1239:../src/platform/drivers/mss/mss_mmuart/mss_uart.c **** 
 3125              		.loc 1 1239 14 is_stmt 0
 3126 0000 1C61     		ld	a5,0(a0)
1239:../src/platform/drivers/mss/mss_mmuart/mss_uart.c **** 
 3127              		.loc 1 1239 28
 3128 0002 2384B704 		sb	a1,72(a5)
1242:../src/platform/drivers/mss/mss_mmuart/mss_uart.c **** }
 3129              		.loc 1 1242 5 is_stmt 1
1242:../src/platform/drivers/mss/mss_mmuart/mss_uart.c **** }
 3130              		.loc 1 1242 28 is_stmt 0
 3131 0006 03C70703 		lbu	a4,48(a5)
 3132 000a 13670702 		ori	a4,a4,32
 3133 000e 2388E702 		sb	a4,48(a5)
1243:../src/platform/drivers/mss/mss_mmuart/mss_uart.c **** 
 3134              		.loc 1 1243 1
 3135 0012 8280     		ret
 3136              		.cfi_endproc
 3137              	.LFE67:
 3139              		.section	.text.MSS_UART_disable_tx_time_guard,"ax",@progbits
 3140              		.align	1
 3141              		.globl	MSS_UART_disable_tx_time_guard
 3143              	MSS_UART_disable_tx_time_guard:
 3144              	.LFB68:
1253:../src/platform/drivers/mss/mss_mmuart/mss_uart.c ****     /* Disable transmitter time guard */
 3145              		.loc 1 1253 1 is_stmt 1
 3146              		.cfi_startproc
 3147              	.LVL202:
1255:../src/platform/drivers/mss/mss_mmuart/mss_uart.c **** }
 3148              		.loc 1 1255 5
1255:../src/platform/drivers/mss/mss_mmuart/mss_uart.c **** }
 3149              		.loc 1 1255 14 is_stmt 0
 3150 0000 1861     		ld	a4,0(a0)
1255:../src/platform/drivers/mss/mss_mmuart/mss_uart.c **** }
 3151              		.loc 1 1255 28
 3152 0002 83470703 		lbu	a5,48(a4)
 3153 0006 93F7F70D 		andi	a5,a5,223
 3154 000a 2308F702 		sb	a5,48(a4)
1256:../src/platform/drivers/mss/mss_mmuart/mss_uart.c **** 
 3155              		.loc 1 1256 1
 3156 000e 8280     		ret
 3157              		.cfi_endproc
 3158              	.LFE68:
 3160              		.section	.text.MSS_UART_set_address,"ax",@progbits
 3161              		.align	1
 3162              		.globl	MSS_UART_set_address
 3164              	MSS_UART_set_address:
 3165              	.LFB69:
1267:../src/platform/drivers/mss/mss_mmuart/mss_uart.c ****     this_uart->hw_reg->ADR = address;
 3166              		.loc 1 1267 1 is_stmt 1
 3167              		.cfi_startproc
 3168              	.LVL203:
1268:../src/platform/drivers/mss/mss_mmuart/mss_uart.c **** }
 3169              		.loc 1 1268 5
1268:../src/platform/drivers/mss/mss_mmuart/mss_uart.c **** }
 3170              		.loc 1 1268 14 is_stmt 0
 3171 0000 1C61     		ld	a5,0(a0)
1268:../src/platform/drivers/mss/mss_mmuart/mss_uart.c **** }
 3172              		.loc 1 1268 28
 3173 0002 2388B704 		sb	a1,80(a5)
1269:../src/platform/drivers/mss/mss_mmuart/mss_uart.c **** 
 3174              		.loc 1 1269 1
 3175 0006 8280     		ret
 3176              		.cfi_endproc
 3177              	.LFE69:
 3179              		.section	.text.MSS_UART_set_ready_mode,"ax",@progbits
 3180              		.align	1
 3181              		.globl	MSS_UART_set_ready_mode
 3183              	MSS_UART_set_ready_mode:
 3184              	.LFB70:
1280:../src/platform/drivers/mss/mss_mmuart/mss_uart.c ****     ASSERT(MSS_UART_INVALID_READY_MODE > mode);
 3185              		.loc 1 1280 1 is_stmt 1
 3186              		.cfi_startproc
 3187              	.LVL204:
1281:../src/platform/drivers/mss/mss_mmuart/mss_uart.c **** 
 3188              		.loc 1 1281 47
1283:../src/platform/drivers/mss/mss_mmuart/mss_uart.c ****     {
 3189              		.loc 1 1283 5
1283:../src/platform/drivers/mss/mss_mmuart/mss_uart.c ****     {
 3190              		.loc 1 1283 8 is_stmt 0
 3191 0000 8547     		li	a5,1
 3192 0002 63EAB700 		bgtu	a1,a5,.L311
1286:../src/platform/drivers/mss/mss_mmuart/mss_uart.c ****                                      (this_uart->hw_reg->FCR |= RDYMODE_MASK) );
 3193              		.loc 1 1286 9 is_stmt 1
 3194 0006 1C61     		ld	a5,0(a0)
1286:../src/platform/drivers/mss/mss_mmuart/mss_uart.c ****                                      (this_uart->hw_reg->FCR |= RDYMODE_MASK) );
 3195              		.loc 1 1286 67 is_stmt 0
 3196 0008 03C78700 		lbu	a4,8(a5)
1286:../src/platform/drivers/mss/mss_mmuart/mss_uart.c ****                                      (this_uart->hw_reg->FCR |= RDYMODE_MASK) );
 3197              		.loc 1 1286 85
 3198 000c 91E5     		bne	a1,zero,.L313
1286:../src/platform/drivers/mss/mss_mmuart/mss_uart.c ****                                      (this_uart->hw_reg->FCR |= RDYMODE_MASK) );
 3199              		.loc 1 1286 67 discriminator 1
 3200 000e 1377770F 		andi	a4,a4,247
 3201              	.L314:
1287:../src/platform/drivers/mss/mss_mmuart/mss_uart.c ****     }
 3202              		.loc 1 1287 62 discriminator 2
 3203 0012 2384E700 		sb	a4,8(a5)
 3204              	.L311:
1289:../src/platform/drivers/mss/mss_mmuart/mss_uart.c **** 
 3205              		.loc 1 1289 1
 3206 0016 8280     		ret
 3207              	.L313:
1287:../src/platform/drivers/mss/mss_mmuart/mss_uart.c ****     }
 3208              		.loc 1 1287 62 discriminator 2
 3209 0018 13678700 		ori	a4,a4,8
 3210 001c DDBF     		j	.L314
 3211              		.cfi_endproc
 3212              	.LFE70:
 3214              		.section	.text.MSS_UART_set_usart_mode,"ax",@progbits
 3215              		.align	1
 3216              		.globl	MSS_UART_set_usart_mode
 3218              	MSS_UART_set_usart_mode:
 3219              	.LFB71:
1300:../src/platform/drivers/mss/mss_mmuart/mss_uart.c ****     ASSERT(MSS_UART_INVALID_SYNC_MODE > mode);
 3220              		.loc 1 1300 1 is_stmt 1
 3221              		.cfi_startproc
 3222              	.LVL205:
1301:../src/platform/drivers/mss/mss_mmuart/mss_uart.c **** 
 3223              		.loc 1 1301 46
1303:../src/platform/drivers/mss/mss_mmuart/mss_uart.c ****     {
 3224              		.loc 1 1303 5
1303:../src/platform/drivers/mss/mss_mmuart/mss_uart.c ****     {
 3225              		.loc 1 1303 8 is_stmt 0
 3226 0000 9147     		li	a5,4
 3227 0002 63E0B702 		bgtu	a1,a5,.L315
1308:../src/platform/drivers/mss/mss_mmuart/mss_uart.c ****         this_uart->hw_reg->MM0 |= (uint8_t)mode;
 3228              		.loc 1 1308 9 is_stmt 1
1308:../src/platform/drivers/mss/mss_mmuart/mss_uart.c ****         this_uart->hw_reg->MM0 |= (uint8_t)mode;
 3229              		.loc 1 1308 18 is_stmt 0
 3230 0006 1C61     		ld	a5,0(a0)
1308:../src/platform/drivers/mss/mss_mmuart/mss_uart.c ****         this_uart->hw_reg->MM0 |= (uint8_t)mode;
 3231              		.loc 1 1308 32
 3232 0008 03C70703 		lbu	a4,48(a5)
 3233 000c 1377870F 		andi	a4,a4,248
 3234 0010 2388E702 		sb	a4,48(a5)
1309:../src/platform/drivers/mss/mss_mmuart/mss_uart.c ****     }
 3235              		.loc 1 1309 9 is_stmt 1
1309:../src/platform/drivers/mss/mss_mmuart/mss_uart.c ****     }
 3236              		.loc 1 1309 32 is_stmt 0
 3237 0014 03C70703 		lbu	a4,48(a5)
 3238 0018 D98D     		or	a1,a1,a4
 3239              	.LVL206:
 3240 001a 93F5F50F 		andi	a1,a1,0xff
 3241 001e 2388B702 		sb	a1,48(a5)
 3242              	.L315:
1311:../src/platform/drivers/mss/mss_mmuart/mss_uart.c **** 
 3243              		.loc 1 1311 1
 3244 0022 8280     		ret
 3245              		.cfi_endproc
 3246              	.LFE71:
 3248              		.section	.text.MSS_UART_enable_local_irq,"ax",@progbits
 3249              		.align	1
 3250              		.globl	MSS_UART_enable_local_irq
 3252              	MSS_UART_enable_local_irq:
 3253              	.LFB72:
1321:../src/platform/drivers/mss/mss_mmuart/mss_uart.c ****     /* Make sure to disable interrupt on PLIC as it might have been enabled
 3254              		.loc 1 1321 1 is_stmt 1
 3255              		.cfi_startproc
 3256              	.LVL207:
1325:../src/platform/drivers/mss/mss_mmuart/mss_uart.c **** 
 3257              		.loc 1 1325 5
1321:../src/platform/drivers/mss/mss_mmuart/mss_uart.c ****     /* Make sure to disable interrupt on PLIC as it might have been enabled
 3258              		.loc 1 1321 1 is_stmt 0
 3259 0000 4111     		addi	sp,sp,-16
 3260              		.cfi_def_cfa_offset 16
 3261 0002 22E0     		sd	s0,0(sp)
 3262 0004 06E4     		sd	ra,8(sp)
 3263              		.cfi_offset 8, -16
 3264              		.cfi_offset 1, -8
1321:../src/platform/drivers/mss/mss_mmuart/mss_uart.c ****     /* Make sure to disable interrupt on PLIC as it might have been enabled
 3265              		.loc 1 1321 1
 3266 0006 2A84     		mv	s0,a0
1325:../src/platform/drivers/mss/mss_mmuart/mss_uart.c **** 
 3267              		.loc 1 1325 5
 3268 0008 97000000 		call	disable_irq
 3268      E7800000 
 3269              	.LVL208:
1327:../src/platform/drivers/mss/mss_mmuart/mss_uart.c **** 
 3270              		.loc 1 1327 5 is_stmt 1
1327:../src/platform/drivers/mss/mss_mmuart/mss_uart.c **** 
 3271              		.loc 1 1327 34 is_stmt 0
 3272 0010 8547     		li	a5,1
 3273 0012 2304F406 		sb	a5,104(s0)
1332:../src/platform/drivers/mss/mss_mmuart/mss_uart.c **** }
 3274              		.loc 1 1332 5 is_stmt 1
1333:../src/platform/drivers/mss/mss_mmuart/mss_uart.c **** 
 3275              		.loc 1 1333 1 is_stmt 0
 3276 0016 0264     		ld	s0,0(sp)
 3277              		.cfi_restore 8
 3278              	.LVL209:
 3279 0018 A260     		ld	ra,8(sp)
 3280              		.cfi_restore 1
1332:../src/platform/drivers/mss/mss_mmuart/mss_uart.c **** }
 3281              		.loc 1 1332 5
 3282 001a 2D45     		li	a0,11
1333:../src/platform/drivers/mss/mss_mmuart/mss_uart.c **** 
 3283              		.loc 1 1333 1
 3284 001c 4101     		addi	sp,sp,16
 3285              		.cfi_def_cfa_offset 0
1332:../src/platform/drivers/mss/mss_mmuart/mss_uart.c **** }
 3286              		.loc 1 1332 5
 3287 001e 17030000 		tail	__enable_local_irq
 3287      67000300 
 3288              	.LVL210:
 3289              		.cfi_endproc
 3290              	.LFE72:
 3292              		.comm	g_mss_uart4_hi,120,8
 3293              		.comm	g_mss_uart3_hi,120,8
 3294              		.comm	g_mss_uart2_hi,120,8
 3295              		.comm	g_mss_uart1_hi,120,8
 3296              		.comm	g_mss_uart0_hi,120,8
 3297              		.comm	g_mss_uart4_lo,120,8
 3298              		.comm	g_mss_uart3_lo,120,8
 3299              		.comm	g_mss_uart2_lo,120,8
 3300              		.comm	g_mss_uart1_lo,120,8
 3301              		.comm	g_mss_uart0_lo,120,8
 3302              		.section	.sbss.g_uart_axi_pos,"aw",@nobits
 3303              		.align	2
 3304              		.set	.LANCHOR0,. + 0
 3307              	g_uart_axi_pos:
 3308 0000 00000000 		.zero	4
 3309              		.text
 3310              	.Letext0:
 3311              		.file 3 "/home/vinay/Desktop/soft_console/SoftConsole-v2022.2-RISC-V-747/riscv-unknown-elf-gcc/lib
 3312              		.file 4 "/home/vinay/Desktop/soft_console/SoftConsole-v2022.2-RISC-V-747/riscv-unknown-elf-gcc/ris
 3313              		.file 5 "/home/vinay/Desktop/soft_console/SoftConsole-v2022.2-RISC-V-747/riscv-unknown-elf-gcc/ris
 3314              		.file 6 "/home/vinay/Desktop/softconsole_watershed/Water-shed/src/platform/mpfs_hal/common/nwc/mss
 3315              		.file 7 "/home/vinay/Desktop/softconsole_watershed/Water-shed/src/platform/mpfs_hal/common/nwc/mss
 3316              		.file 8 "/home/vinay/Desktop/softconsole_watershed/Water-shed/src/platform/mpfs_hal/common/nwc/mss
 3317              		.file 9 "/home/vinay/Desktop/softconsole_watershed/Water-shed/src/platform/mpfs_hal/common/mss_mpu
 3318              		.file 10 "/home/vinay/Desktop/softconsole_watershed/Water-shed/src/platform/mpfs_hal/startup_gcc/s
 3319              		.file 11 "../src/platform/drivers/mss/mss_mmuart/mss_uart.h"
 3320              		.file 12 "/home/vinay/Desktop/softconsole_watershed/Water-shed/src/platform/mpfs_hal/common/mss_ut
DEFINED SYMBOLS
                            *ABS*:0000000000000000 mss_uart.c
     /tmp/cc7jEFKv.s:12     .text.global_init:0000000000000000 global_init
     /tmp/cc7jEFKv.s:16     .text.global_init:0000000000000000 .L0 
     /tmp/cc7jEFKv.s:18     .text.global_init:0000000000000000 .L0 
     /tmp/cc7jEFKv.s:19     .text.global_init:0000000000000000 .L0 
                            *COM*:0000000000000078 g_mss_uart0_lo
     /tmp/cc7jEFKv.s:20     .text.global_init:0000000000000000 .L0 
     /tmp/cc7jEFKv.s:23     .text.global_init:000000000000000c .L0 
     /tmp/cc7jEFKv.s:24     .text.global_init:000000000000000c .L0 
     /tmp/cc7jEFKv.s:27     .text.global_init:0000000000000012 .L0 
     /tmp/cc7jEFKv.s:28     .text.global_init:0000000000000012 .L0 
     /tmp/cc7jEFKv.s:33     .text.global_init:000000000000001e .L0 
     /tmp/cc7jEFKv.s:36     .text.global_init:0000000000000026 .L0 
     /tmp/cc7jEFKv.s:37     .text.global_init:0000000000000026 .L0 
     /tmp/cc7jEFKv.s:38     .text.global_init:0000000000000026 .L0 
     /tmp/cc7jEFKv.s:42     .text.global_init:0000000000000028 .L0 
     /tmp/cc7jEFKv.s:47     .text.global_init:000000000000002e .L0 
     /tmp/cc7jEFKv.s:49     .text.global_init:0000000000000032 .L0 
     /tmp/cc7jEFKv.s:50     .text.global_init:0000000000000032 .L0 
     /tmp/cc7jEFKv.s:52     .text.global_init:0000000000000036 .L0 
     /tmp/cc7jEFKv.s:53     .text.global_init:0000000000000036 .L0 
     /tmp/cc7jEFKv.s:57     .text.global_init:0000000000000042 .L0 
     /tmp/cc7jEFKv.s:58     .text.global_init:0000000000000042 .L0 
     /tmp/cc7jEFKv.s:62     .text.global_init:000000000000004e .L0 
     /tmp/cc7jEFKv.s:63     .text.global_init:000000000000004e .L0 
     /tmp/cc7jEFKv.s:67     .text.global_init:000000000000005a .L0 
     /tmp/cc7jEFKv.s:68     .text.global_init:000000000000005a .L0 
     /tmp/cc7jEFKv.s:72     .text.global_init:0000000000000066 .L0 
     /tmp/cc7jEFKv.s:73     .text.global_init:0000000000000066 .L0 
     /tmp/cc7jEFKv.s:77     .text.global_init:0000000000000072 .L0 
     /tmp/cc7jEFKv.s:78     .text.global_init:0000000000000072 .L0 
     /tmp/cc7jEFKv.s:82     .text.global_init:000000000000007e .L0 
     /tmp/cc7jEFKv.s:83     .text.global_init:000000000000007e .L0 
     /tmp/cc7jEFKv.s:87     .text.global_init:000000000000008a .L0 
     /tmp/cc7jEFKv.s:88     .text.global_init:000000000000008a .L0 
     /tmp/cc7jEFKv.s:92     .text.global_init:0000000000000096 .L0 
     /tmp/cc7jEFKv.s:93     .text.global_init:0000000000000096 .L0 
     /tmp/cc7jEFKv.s:97     .text.global_init:00000000000000a2 .L0 
     /tmp/cc7jEFKv.s:98     .text.global_init:00000000000000a2 .L0 
     /tmp/cc7jEFKv.s:102    .text.global_init:00000000000000ae .L0 
     /tmp/cc7jEFKv.s:103    .text.global_init:00000000000000ae .L0 
     /tmp/cc7jEFKv.s:107    .text.global_init:00000000000000ba .L0 
     /tmp/cc7jEFKv.s:108    .text.global_init:00000000000000ba .L0 
     /tmp/cc7jEFKv.s:114    .text.global_init:00000000000000c6 .L0 
     /tmp/cc7jEFKv.s:115    .text.global_init:00000000000000c6 .L0 
     /tmp/cc7jEFKv.s:121    .text.global_init:00000000000000d2 .L0 
     /tmp/cc7jEFKv.s:123    .text.global_init:00000000000000d6 .L0 
     /tmp/cc7jEFKv.s:124    .text.global_init:00000000000000d6 .L0 
     /tmp/cc7jEFKv.s:126    .text.global_init:00000000000000da .L0 
     /tmp/cc7jEFKv.s:127    .text.global_init:00000000000000da .L0 
     /tmp/cc7jEFKv.s:132    .text.global_init:00000000000000de .L0 
     /tmp/cc7jEFKv.s:133    .text.global_init:00000000000000de .L0 
     /tmp/cc7jEFKv.s:134    .text.global_init:00000000000000de .L0 
     /tmp/cc7jEFKv.s:135    .text.global_init:00000000000000de .L0 
     /tmp/cc7jEFKv.s:136    .text.global_init:00000000000000de .L0 
     /tmp/cc7jEFKv.s:137    .text.global_init:00000000000000de .L0 
     /tmp/cc7jEFKv.s:138    .text.global_init:00000000000000de .L0 
     /tmp/cc7jEFKv.s:139    .text.global_init:00000000000000de .L0 
     /tmp/cc7jEFKv.s:142    .text.global_init:00000000000000e0 .L0 
     /tmp/cc7jEFKv.s:143    .text.global_init:00000000000000e0 .L0 
     /tmp/cc7jEFKv.s:144    .text.global_init:00000000000000e0 .L0 
     /tmp/cc7jEFKv.s:145    .text.global_init:00000000000000e0 .L0 
     /tmp/cc7jEFKv.s:146    .text.global_init:00000000000000e0 .L0 
     /tmp/cc7jEFKv.s:147    .text.global_init:00000000000000e0 .L0 
     /tmp/cc7jEFKv.s:148    .text.global_init:00000000000000e0 .L0 
     /tmp/cc7jEFKv.s:149    .text.global_init:00000000000000e0 .L0 
     /tmp/cc7jEFKv.s:150    .text.global_init:00000000000000e0 .L0 
     /tmp/cc7jEFKv.s:153    .text.global_init:00000000000000e8 .L0 
     /tmp/cc7jEFKv.s:154    .text.global_init:00000000000000e8 .L0 
     /tmp/cc7jEFKv.s:156    .text.global_init:00000000000000ec .L0 
     /tmp/cc7jEFKv.s:159    .text.global_init:00000000000000f4 .L0 
     /tmp/cc7jEFKv.s:164    .text.global_init:0000000000000104 .L0 
     /tmp/cc7jEFKv.s:167    .text.global_init:0000000000000108 .L0 
     /tmp/cc7jEFKv.s:169    .text.global_init:000000000000010c .L0 
     /tmp/cc7jEFKv.s:171    .text.global_init:0000000000000110 .L0 
     /tmp/cc7jEFKv.s:172    .text.global_init:0000000000000110 .L0 
     /tmp/cc7jEFKv.s:176    .text.global_init:0000000000000118 .L0 
     /tmp/cc7jEFKv.s:178    .text.global_init:000000000000011c .L0 
     /tmp/cc7jEFKv.s:181    .text.global_init:0000000000000124 .L0 
     /tmp/cc7jEFKv.s:182    .text.global_init:0000000000000124 .L0 
     /tmp/cc7jEFKv.s:184    .text.global_init:0000000000000128 .L0 
     /tmp/cc7jEFKv.s:185    .text.global_init:0000000000000128 .L0 
     /tmp/cc7jEFKv.s:187    .text.global_init:000000000000012c .L0 
     /tmp/cc7jEFKv.s:188    .text.global_init:000000000000012c .L0 
     /tmp/cc7jEFKv.s:190    .text.global_init:0000000000000130 .L0 
     /tmp/cc7jEFKv.s:192    .text.global_init:0000000000000134 .L0 
     /tmp/cc7jEFKv.s:195    .text.global_init:000000000000013c .L0 
     /tmp/cc7jEFKv.s:196    .text.global_init:000000000000013c .L0 
     /tmp/cc7jEFKv.s:200    .text.global_init:0000000000000148 .L0 
     /tmp/cc7jEFKv.s:201    .text.global_init:0000000000000148 .L0 
     /tmp/cc7jEFKv.s:202    .text.global_init:0000000000000148 .L0 
     /tmp/cc7jEFKv.s:208    .text.global_init:000000000000014c .L0 
     /tmp/cc7jEFKv.s:209    .text.global_init:000000000000014c .L0 
     /tmp/cc7jEFKv.s:211    .text.global_init:0000000000000150 .L0 
     /tmp/cc7jEFKv.s:212    .text.global_init:0000000000000150 .L0 
     /tmp/cc7jEFKv.s:214    .text.global_init:0000000000000152 .L0 
     /tmp/cc7jEFKv.s:215    .text.global_init:0000000000000152 .L0 
     /tmp/cc7jEFKv.s:217    .text.global_init:0000000000000156 .L0 
     /tmp/cc7jEFKv.s:218    .text.global_init:0000000000000156 .L0 
     /tmp/cc7jEFKv.s:219    .text.global_init:0000000000000156 .L0 
     /tmp/cc7jEFKv.s:220    .text.global_init:0000000000000156 .L0 
     /tmp/cc7jEFKv.s:221    .text.global_init:0000000000000156 .L0 
     /tmp/cc7jEFKv.s:222    .text.global_init:0000000000000156 .L0 
     /tmp/cc7jEFKv.s:223    .text.global_init:0000000000000156 .L0 
     /tmp/cc7jEFKv.s:224    .text.global_init:0000000000000156 .L0 
     /tmp/cc7jEFKv.s:225    .text.global_init:0000000000000156 .L0 
     /tmp/cc7jEFKv.s:226    .text.global_init:0000000000000156 .L0 
     /tmp/cc7jEFKv.s:227    .text.global_init:0000000000000156 .L0 
     /tmp/cc7jEFKv.s:228    .text.global_init:0000000000000156 .L0 
     /tmp/cc7jEFKv.s:229    .text.global_init:0000000000000156 .L0 
     /tmp/cc7jEFKv.s:230    .text.global_init:0000000000000156 .L0 
     /tmp/cc7jEFKv.s:232    .text.global_init:000000000000015a .L0 
     /tmp/cc7jEFKv.s:234    .text.global_init:000000000000015e .L0 
     /tmp/cc7jEFKv.s:236    .text.global_init:0000000000000162 .L0 
     /tmp/cc7jEFKv.s:238    .text.global_init:0000000000000166 .L0 
     /tmp/cc7jEFKv.s:240    .text.global_init:000000000000016a .L0 
     /tmp/cc7jEFKv.s:242    .text.global_init:000000000000016e .L0 
     /tmp/cc7jEFKv.s:244    .text.global_init:0000000000000172 .L0 
     /tmp/cc7jEFKv.s:246    .text.global_init:0000000000000176 .L0 
     /tmp/cc7jEFKv.s:248    .text.global_init:000000000000017a .L0 
     /tmp/cc7jEFKv.s:250    .text.global_init:000000000000017e .L0 
     /tmp/cc7jEFKv.s:252    .text.global_init:0000000000000182 .L0 
     /tmp/cc7jEFKv.s:254    .text.global_init:0000000000000186 .L0 
     /tmp/cc7jEFKv.s:255    .text.global_init:0000000000000186 .L0 
     /tmp/cc7jEFKv.s:257    .text.global_init:000000000000018a .L0 
     /tmp/cc7jEFKv.s:261    .text.global_init:000000000000018c .L0 
                            *COM*:0000000000000078 g_mss_uart1_lo
     /tmp/cc7jEFKv.s:262    .text.global_init:000000000000018c .L0 
     /tmp/cc7jEFKv.s:265    .text.global_init:0000000000000198 .L0 
     /tmp/cc7jEFKv.s:266    .text.global_init:0000000000000198 .L0 
     /tmp/cc7jEFKv.s:269    .text.global_init:000000000000019e .L0 
     /tmp/cc7jEFKv.s:270    .text.global_init:000000000000019e .L0 
     /tmp/cc7jEFKv.s:276    .text.global_init:00000000000001ac .L0 
                            *COM*:0000000000000078 g_mss_uart2_lo
     /tmp/cc7jEFKv.s:277    .text.global_init:00000000000001ac .L0 
     /tmp/cc7jEFKv.s:280    .text.global_init:00000000000001b8 .L0 
     /tmp/cc7jEFKv.s:281    .text.global_init:00000000000001b8 .L0 
     /tmp/cc7jEFKv.s:284    .text.global_init:00000000000001be .L0 
     /tmp/cc7jEFKv.s:285    .text.global_init:00000000000001be .L0 
     /tmp/cc7jEFKv.s:291    .text.global_init:00000000000001cc .L0 
                            *COM*:0000000000000078 g_mss_uart3_lo
     /tmp/cc7jEFKv.s:292    .text.global_init:00000000000001cc .L0 
     /tmp/cc7jEFKv.s:295    .text.global_init:00000000000001d8 .L0 
     /tmp/cc7jEFKv.s:296    .text.global_init:00000000000001d8 .L0 
     /tmp/cc7jEFKv.s:299    .text.global_init:00000000000001de .L0 
     /tmp/cc7jEFKv.s:300    .text.global_init:00000000000001de .L0 
     /tmp/cc7jEFKv.s:306    .text.global_init:00000000000001ec .L0 
                            *COM*:0000000000000078 g_mss_uart4_lo
     /tmp/cc7jEFKv.s:307    .text.global_init:00000000000001ec .L0 
     /tmp/cc7jEFKv.s:310    .text.global_init:00000000000001f8 .L0 
     /tmp/cc7jEFKv.s:311    .text.global_init:00000000000001f8 .L0 
     /tmp/cc7jEFKv.s:314    .text.global_init:00000000000001fe .L0 
     /tmp/cc7jEFKv.s:315    .text.global_init:00000000000001fe .L0 
     /tmp/cc7jEFKv.s:321    .text.global_init:000000000000020c .L0 
                            *COM*:0000000000000078 g_mss_uart0_hi
     /tmp/cc7jEFKv.s:322    .text.global_init:000000000000020c .L0 
     /tmp/cc7jEFKv.s:325    .text.global_init:0000000000000218 .L0 
     /tmp/cc7jEFKv.s:326    .text.global_init:0000000000000218 .L0 
     /tmp/cc7jEFKv.s:329    .text.global_init:000000000000021e .L0 
     /tmp/cc7jEFKv.s:330    .text.global_init:000000000000021e .L0 
     /tmp/cc7jEFKv.s:336    .text.global_init:000000000000022e .L0 
                            *COM*:0000000000000078 g_mss_uart1_hi
     /tmp/cc7jEFKv.s:337    .text.global_init:000000000000022e .L0 
     /tmp/cc7jEFKv.s:340    .text.global_init:000000000000023a .L0 
     /tmp/cc7jEFKv.s:341    .text.global_init:000000000000023a .L0 
     /tmp/cc7jEFKv.s:344    .text.global_init:0000000000000240 .L0 
     /tmp/cc7jEFKv.s:345    .text.global_init:0000000000000240 .L0 
     /tmp/cc7jEFKv.s:351    .text.global_init:0000000000000250 .L0 
                            *COM*:0000000000000078 g_mss_uart2_hi
     /tmp/cc7jEFKv.s:352    .text.global_init:0000000000000250 .L0 
     /tmp/cc7jEFKv.s:355    .text.global_init:000000000000025c .L0 
     /tmp/cc7jEFKv.s:356    .text.global_init:000000000000025c .L0 
     /tmp/cc7jEFKv.s:359    .text.global_init:0000000000000262 .L0 
     /tmp/cc7jEFKv.s:360    .text.global_init:0000000000000262 .L0 
     /tmp/cc7jEFKv.s:366    .text.global_init:0000000000000272 .L0 
                            *COM*:0000000000000078 g_mss_uart3_hi
     /tmp/cc7jEFKv.s:367    .text.global_init:0000000000000272 .L0 
     /tmp/cc7jEFKv.s:370    .text.global_init:000000000000027e .L0 
     /tmp/cc7jEFKv.s:371    .text.global_init:000000000000027e .L0 
     /tmp/cc7jEFKv.s:374    .text.global_init:0000000000000284 .L0 
     /tmp/cc7jEFKv.s:375    .text.global_init:0000000000000284 .L0 
     /tmp/cc7jEFKv.s:381    .text.global_init:0000000000000294 .L0 
                            *COM*:0000000000000078 g_mss_uart4_hi
     /tmp/cc7jEFKv.s:382    .text.global_init:0000000000000294 .L0 
     /tmp/cc7jEFKv.s:385    .text.global_init:00000000000002a0 .L0 
     /tmp/cc7jEFKv.s:386    .text.global_init:00000000000002a0 .L0 
     /tmp/cc7jEFKv.s:389    .text.global_init:00000000000002ac .L0 
     /tmp/cc7jEFKv.s:390    .text.global_init:00000000000002ac .L0 
     /tmp/cc7jEFKv.s:399    .text.global_init:00000000000002bc .L0 
     /tmp/cc7jEFKv.s:400    .text.global_init:00000000000002bc .L0 
     /tmp/cc7jEFKv.s:404    .text.global_init:00000000000002c8 .L0 
     /tmp/cc7jEFKv.s:405    .text.global_init:00000000000002c8 .L0 
     /tmp/cc7jEFKv.s:407    .text.global_init:00000000000002cc .L0 
     /tmp/cc7jEFKv.s:408    .text.global_init:00000000000002cc .L0 
     /tmp/cc7jEFKv.s:410    .text.global_init:00000000000002d0 .L0 
     /tmp/cc7jEFKv.s:411    .text.global_init:00000000000002d0 .L0 
     /tmp/cc7jEFKv.s:415    .text.global_init:00000000000002dc .L0 
     /tmp/cc7jEFKv.s:416    .text.global_init:00000000000002dc .L0 
     /tmp/cc7jEFKv.s:422    .text.global_init:00000000000002ea .L0 
     /tmp/cc7jEFKv.s:428    .text.uart_isr:0000000000000000 uart_isr
     /tmp/cc7jEFKv.s:431    .text.uart_isr:0000000000000000 .L0 
     /tmp/cc7jEFKv.s:433    .text.uart_isr:0000000000000000 .L0 
     /tmp/cc7jEFKv.s:434    .text.uart_isr:0000000000000000 .L0 
     /tmp/cc7jEFKv.s:435    .text.uart_isr:0000000000000000 .L0 
     /tmp/cc7jEFKv.s:436    .text.uart_isr:0000000000000000 .L0 
     /tmp/cc7jEFKv.s:438    .text.uart_isr:0000000000000002 .L0 
     /tmp/cc7jEFKv.s:440    .text.uart_isr:0000000000000004 .L0 
     /tmp/cc7jEFKv.s:443    .text.uart_isr:0000000000000008 .L0 
     /tmp/cc7jEFKv.s:472    .text.uart_isr:0000000000000020 .L0 
     /tmp/cc7jEFKv.s:473    .text.uart_isr:0000000000000020 .L0 
     /tmp/cc7jEFKv.s:474    .text.uart_isr:0000000000000020 .L0 
     /tmp/cc7jEFKv.s:477    .text.uart_isr:0000000000000024 .L0 
     /tmp/cc7jEFKv.s:480    .text.uart_isr:0000000000000028 .L0 
     /tmp/cc7jEFKv.s:484    .text.uart_isr:000000000000002a .L0 
     /tmp/cc7jEFKv.s:485    .text.uart_isr:000000000000002a .L0 
     /tmp/cc7jEFKv.s:486    .text.uart_isr:000000000000002a .L0 
     /tmp/cc7jEFKv.s:490    .text.uart_isr:0000000000000030 .L0 
     /tmp/cc7jEFKv.s:491    .text.uart_isr:0000000000000030 .L0 
     /tmp/cc7jEFKv.s:492    .text.uart_isr:0000000000000030 .L0 
     /tmp/cc7jEFKv.s:496    .text.uart_isr:0000000000000036 .L0 
     /tmp/cc7jEFKv.s:497    .text.uart_isr:0000000000000036 .L0 
     /tmp/cc7jEFKv.s:498    .text.uart_isr:0000000000000036 .L0 
     /tmp/cc7jEFKv.s:502    .text.uart_isr:000000000000003c .L0 
     /tmp/cc7jEFKv.s:503    .text.uart_isr:000000000000003e .L0 
     /tmp/cc7jEFKv.s:506    .text.uart_isr:0000000000000042 .L0 
     /tmp/cc7jEFKv.s:507    .text.uart_isr:0000000000000042 .L0 
     /tmp/cc7jEFKv.s:509    .text.uart_isr:0000000000000042 .L0 
     /tmp/cc7jEFKv.s:512    .text.uart_isr:0000000000000048 .L0 
     /tmp/cc7jEFKv.s:513    .text.uart_isr:0000000000000048 .L0 
     /tmp/cc7jEFKv.s:517    .text.uart_isr:000000000000004c .L0 
     /tmp/cc7jEFKv.s:518    .text.uart_isr:000000000000004c .L0 
     /tmp/cc7jEFKv.s:519    .text.uart_isr:000000000000004c .L0 
     /tmp/cc7jEFKv.s:521    .text.uart_isr:000000000000004e .L0 
     /tmp/cc7jEFKv.s:523    .text.uart_isr:0000000000000050 .L0 
     /tmp/cc7jEFKv.s:524    .text.uart_isr:0000000000000050 .L0 
     /tmp/cc7jEFKv.s:528    .text.uart_isr:0000000000000052 .L0 
     /tmp/cc7jEFKv.s:529    .text.uart_isr:0000000000000052 .L0 
     /tmp/cc7jEFKv.s:531    .text.uart_isr:0000000000000054 .L0 
     /tmp/cc7jEFKv.s:533    .text.uart_isr:0000000000000058 .L0 
     /tmp/cc7jEFKv.s:536    .text.uart_isr:000000000000005c .L0 
     /tmp/cc7jEFKv.s:537    .text.uart_isr:000000000000005c .L0 
     /tmp/cc7jEFKv.s:538    .text.uart_isr:000000000000005c .L0 
     /tmp/cc7jEFKv.s:540    .text.uart_isr:000000000000005e .L0 
     /tmp/cc7jEFKv.s:542    .text.uart_isr:0000000000000060 .L0 
     /tmp/cc7jEFKv.s:543    .text.uart_isr:0000000000000060 .L0 
     /tmp/cc7jEFKv.s:548    .text.uart_isr:0000000000000064 .L0 
     /tmp/cc7jEFKv.s:549    .text.uart_isr:0000000000000064 .L0 
     /tmp/cc7jEFKv.s:551    .text.uart_isr:0000000000000066 .L0 
     /tmp/cc7jEFKv.s:553    .text.uart_isr:000000000000006a .L0 
     /tmp/cc7jEFKv.s:556    .text.uart_isr:000000000000006e .L0 
     /tmp/cc7jEFKv.s:557    .text.uart_isr:000000000000006e .L0 
     /tmp/cc7jEFKv.s:558    .text.uart_isr:000000000000006e .L0 
     /tmp/cc7jEFKv.s:560    .text.uart_isr:0000000000000070 .L0 
     /tmp/cc7jEFKv.s:562    .text.uart_isr:0000000000000072 .L0 
     /tmp/cc7jEFKv.s:563    .text.uart_isr:0000000000000072 .L0 
     /tmp/cc7jEFKv.s:568    .text.uart_isr:0000000000000076 .L0 
     /tmp/cc7jEFKv.s:569    .text.uart_isr:0000000000000076 .L0 
     /tmp/cc7jEFKv.s:571    .text.uart_isr:0000000000000078 .L0 
     /tmp/cc7jEFKv.s:573    .text.uart_isr:000000000000007c .L0 
     /tmp/cc7jEFKv.s:576    .text.uart_isr:0000000000000080 .L0 
     /tmp/cc7jEFKv.s:577    .text.uart_isr:0000000000000080 .L0 
     /tmp/cc7jEFKv.s:578    .text.uart_isr:0000000000000080 .L0 
     /tmp/cc7jEFKv.s:580    .text.uart_isr:0000000000000082 .L0 
     /tmp/cc7jEFKv.s:582    .text.uart_isr:0000000000000084 .L0 
     /tmp/cc7jEFKv.s:583    .text.uart_isr:0000000000000084 .L0 
     /tmp/cc7jEFKv.s:588    .text.uart_isr:0000000000000088 .L0 
     /tmp/cc7jEFKv.s:589    .text.uart_isr:0000000000000088 .L0 
     /tmp/cc7jEFKv.s:591    .text.uart_isr:000000000000008a .L0 
     /tmp/cc7jEFKv.s:593    .text.uart_isr:000000000000008e .L0 
     /tmp/cc7jEFKv.s:596    .text.uart_isr:0000000000000092 .L0 
     /tmp/cc7jEFKv.s:597    .text.uart_isr:0000000000000092 .L0 
     /tmp/cc7jEFKv.s:598    .text.uart_isr:0000000000000092 .L0 
     /tmp/cc7jEFKv.s:600    .text.uart_isr:0000000000000096 .L0 
     /tmp/cc7jEFKv.s:602    .text.uart_isr:000000000000009a .L0 
     /tmp/cc7jEFKv.s:603    .text.uart_isr:000000000000009a .L0 
     /tmp/cc7jEFKv.s:605    .text.uart_isr:000000000000009c .L0 
     /tmp/cc7jEFKv.s:606    .text.uart_isr:000000000000009e .L0 
     /tmp/cc7jEFKv.s:609    .text.uart_isr:00000000000000a0 .L0 
     /tmp/cc7jEFKv.s:611    .text.uart_isr:00000000000000a2 .L0 
     /tmp/cc7jEFKv.s:615    .text.uart_isr:00000000000000a4 .L0 
     /tmp/cc7jEFKv.s:616    .text.uart_isr:00000000000000a4 .L0 
     /tmp/cc7jEFKv.s:617    .text.uart_isr:00000000000000a4 .L0 
     /tmp/cc7jEFKv.s:619    .text.uart_isr:00000000000000a6 .L0 
     /tmp/cc7jEFKv.s:621    .text.uart_isr:00000000000000a8 .L0 
     /tmp/cc7jEFKv.s:624    .text.uart_isr:00000000000000aa .L0 
     /tmp/cc7jEFKv.s:629    .text.uart_isr:00000000000000ae .L0 
     /tmp/cc7jEFKv.s:635    .text.default_tx_handler:0000000000000000 default_tx_handler
     /tmp/cc7jEFKv.s:638    .text.default_tx_handler:0000000000000000 .L0 
     /tmp/cc7jEFKv.s:640    .text.default_tx_handler:0000000000000000 .L0 
     /tmp/cc7jEFKv.s:641    .text.default_tx_handler:0000000000000000 .L0 
     /tmp/cc7jEFKv.s:642    .text.default_tx_handler:0000000000000000 .L0 
     /tmp/cc7jEFKv.s:643    .text.default_tx_handler:0000000000000000 .L0 
     /tmp/cc7jEFKv.s:644    .text.default_tx_handler:0000000000000000 .L0 
     /tmp/cc7jEFKv.s:645    .text.default_tx_handler:0000000000000000 .L0 
     /tmp/cc7jEFKv.s:647    .text.default_tx_handler:0000000000000004 .L0 
     /tmp/cc7jEFKv.s:649    .text.default_tx_handler:0000000000000008 .L0 
     /tmp/cc7jEFKv.s:651    .text.default_tx_handler:000000000000000a .L0 
     /tmp/cc7jEFKv.s:653    .text.default_tx_handler:000000000000000c .L0 
     /tmp/cc7jEFKv.s:654    .text.default_tx_handler:000000000000000c .L0 
     /tmp/cc7jEFKv.s:656    .text.default_tx_handler:000000000000000e .L0 
     /tmp/cc7jEFKv.s:658    .text.default_tx_handler:0000000000000012 .L0 
     /tmp/cc7jEFKv.s:662    .text.default_tx_handler:000000000000001a .L0 
     /tmp/cc7jEFKv.s:663    .text.default_tx_handler:000000000000001a .L0 
     /tmp/cc7jEFKv.s:666    .text.default_tx_handler:0000000000000020 .L0 
     /tmp/cc7jEFKv.s:667    .text.default_tx_handler:0000000000000020 .L0 
     /tmp/cc7jEFKv.s:672    .text.default_tx_handler:0000000000000026 .L0 
     /tmp/cc7jEFKv.s:673    .text.default_tx_handler:0000000000000026 .L0 
     /tmp/cc7jEFKv.s:676    .text.default_tx_handler:000000000000002c .L0 
     /tmp/cc7jEFKv.s:677    .text.default_tx_handler:000000000000002c .L0 
     /tmp/cc7jEFKv.s:679    .text.default_tx_handler:0000000000000030 .L0 
     /tmp/cc7jEFKv.s:681    .text.default_tx_handler:0000000000000034 .L0 
     /tmp/cc7jEFKv.s:682    .text.default_tx_handler:0000000000000034 .L0 
     /tmp/cc7jEFKv.s:686    .text.default_tx_handler:000000000000003c .L0 
     /tmp/cc7jEFKv.s:690    .text.default_tx_handler:000000000000003e .L0 
     /tmp/cc7jEFKv.s:692    .text.default_tx_handler:000000000000003e .L0 
     /tmp/cc7jEFKv.s:693    .text.default_tx_handler:000000000000003e .L0 
     /tmp/cc7jEFKv.s:694    .text.default_tx_handler:000000000000003e .L0 
     /tmp/cc7jEFKv.s:696    .text.default_tx_handler:0000000000000040 .L0 
     /tmp/cc7jEFKv.s:698    .text.default_tx_handler:0000000000000042 .L0 
     /tmp/cc7jEFKv.s:701    .text.default_tx_handler:0000000000000046 .L0 
     /tmp/cc7jEFKv.s:702    .text.default_tx_handler:0000000000000046 .L0 
     /tmp/cc7jEFKv.s:704    .text.default_tx_handler:000000000000004a .L0 
     /tmp/cc7jEFKv.s:708    .text.default_tx_handler:000000000000004c .L0 
     /tmp/cc7jEFKv.s:709    .text.default_tx_handler:000000000000004c .L0 
     /tmp/cc7jEFKv.s:714    .text.default_tx_handler:0000000000000050 .L0 
     /tmp/cc7jEFKv.s:716    .text.default_tx_handler:0000000000000054 .L0 
     /tmp/cc7jEFKv.s:717    .text.default_tx_handler:0000000000000054 .L0 
     /tmp/cc7jEFKv.s:720    .text.default_tx_handler:000000000000005c .L0 
     /tmp/cc7jEFKv.s:723    .text.default_tx_handler:0000000000000062 .L0 
     /tmp/cc7jEFKv.s:725    .text.default_tx_handler:0000000000000064 .L0 
     /tmp/cc7jEFKv.s:728    .text.default_tx_handler:0000000000000066 .L0 
     /tmp/cc7jEFKv.s:730    .text.default_tx_handler:000000000000006a .L0 
     /tmp/cc7jEFKv.s:733    .text.default_tx_handler:000000000000006e .L0 
     /tmp/cc7jEFKv.s:739    .text.disable_irq:0000000000000000 disable_irq
     /tmp/cc7jEFKv.s:742    .text.disable_irq:0000000000000000 .L0 
     /tmp/cc7jEFKv.s:744    .text.disable_irq:0000000000000000 .L0 
     /tmp/cc7jEFKv.s:745    .text.disable_irq:0000000000000000 .L0 
     /tmp/cc7jEFKv.s:746    .text.disable_irq:0000000000000000 .L0 
     /tmp/cc7jEFKv.s:747    .text.disable_irq:0000000000000000 .L0 
     /tmp/cc7jEFKv.s:749    .text.disable_irq:0000000000000008 .L0 
     /tmp/cc7jEFKv.s:751    .text.disable_irq:000000000000000c .L0 
     /tmp/cc7jEFKv.s:753    .text.disable_irq:0000000000000010 .L0 
     /tmp/cc7jEFKv.s:756    .text.disable_irq:000000000000001c .L0 
     /tmp/cc7jEFKv.s:757    .text.disable_irq:000000000000001c .L0 
     /tmp/cc7jEFKv.s:759    .text.disable_irq:0000000000000024 .L0 
     /tmp/cc7jEFKv.s:761    .text.disable_irq:0000000000000028 .L0 
     /tmp/cc7jEFKv.s:763    .text.disable_irq:000000000000002c .L0 
     /tmp/cc7jEFKv.s:766    .text.disable_irq:0000000000000038 .L0 
     /tmp/cc7jEFKv.s:767    .text.disable_irq:0000000000000038 .L0 
     /tmp/cc7jEFKv.s:769    .text.disable_irq:0000000000000040 .L0 
     /tmp/cc7jEFKv.s:771    .text.disable_irq:0000000000000044 .L0 
     /tmp/cc7jEFKv.s:773    .text.disable_irq:0000000000000048 .L0 
     /tmp/cc7jEFKv.s:776    .text.disable_irq:0000000000000054 .L0 
     /tmp/cc7jEFKv.s:777    .text.disable_irq:0000000000000054 .L0 
     /tmp/cc7jEFKv.s:779    .text.disable_irq:000000000000005c .L0 
     /tmp/cc7jEFKv.s:781    .text.disable_irq:0000000000000060 .L0 
     /tmp/cc7jEFKv.s:783    .text.disable_irq:0000000000000064 .L0 
     /tmp/cc7jEFKv.s:786    .text.disable_irq:0000000000000070 .L0 
     /tmp/cc7jEFKv.s:787    .text.disable_irq:0000000000000070 .L0 
     /tmp/cc7jEFKv.s:789    .text.disable_irq:0000000000000078 .L0 
     /tmp/cc7jEFKv.s:791    .text.disable_irq:000000000000007c .L0 
     /tmp/cc7jEFKv.s:793    .text.disable_irq:0000000000000080 .L0 
     /tmp/cc7jEFKv.s:796    .text.disable_irq:000000000000008c .L0 
     /tmp/cc7jEFKv.s:803    .text.disable_irq:000000000000008e .L0 
     /tmp/cc7jEFKv.s:804    .text.disable_irq:000000000000008e .L0 
     /tmp/cc7jEFKv.s:806    .text.disable_irq:000000000000008e .L0 
     /tmp/cc7jEFKv.s:807    .text.disable_irq:000000000000008e .L0 
/home/vinay/Desktop/softconsole_watershed/Water-shed/src/platform/mpfs_hal/common/mss_plic.h:694    .text.disable_irq:000000000000008e .L0 
     /tmp/cc7jEFKv.s:816    .text.disable_irq:0000000000000092 .L0 
     /tmp/cc7jEFKv.s:817    .text.disable_irq:0000000000000092 .L0 
     /tmp/cc7jEFKv.s:842    .text.disable_irq:00000000000000b2 .L0 
     /tmp/cc7jEFKv.s:843    .text.disable_irq:00000000000000b2 .L0 
     /tmp/cc7jEFKv.s:848    .text.disable_irq:00000000000000ba .L0 
     /tmp/cc7jEFKv.s:849    .text.disable_irq:00000000000000ba .L0 
     /tmp/cc7jEFKv.s:852    .text.disable_irq:00000000000000c0 .L0 
     /tmp/cc7jEFKv.s:854    .text.disable_irq:00000000000000c4 .L0 
     /tmp/cc7jEFKv.s:858    .text.disable_irq:00000000000000c8 .L0 
     /tmp/cc7jEFKv.s:859    .text.disable_irq:00000000000000c8 .L0 
     /tmp/cc7jEFKv.s:861    .text.disable_irq:00000000000000ca .L0 
     /tmp/cc7jEFKv.s:865    .text.disable_irq:00000000000000cc .L0 
     /tmp/cc7jEFKv.s:866    .text.disable_irq:00000000000000cc .L0 
     /tmp/cc7jEFKv.s:871    .text.disable_irq:00000000000000d6 .L0 
     /tmp/cc7jEFKv.s:872    .text.disable_irq:00000000000000d6 .L0 
     /tmp/cc7jEFKv.s:875    .text.disable_irq:00000000000000dc .L0 
     /tmp/cc7jEFKv.s:877    .text.disable_irq:00000000000000e0 .L0 
     /tmp/cc7jEFKv.s:881    .text.disable_irq:00000000000000e4 .L0 
     /tmp/cc7jEFKv.s:882    .text.disable_irq:00000000000000e4 .L0 
     /tmp/cc7jEFKv.s:884    .text.disable_irq:00000000000000e8 .L0 
     /tmp/cc7jEFKv.s:888    .text.disable_irq:00000000000000ea .L0 
     /tmp/cc7jEFKv.s:889    .text.disable_irq:00000000000000ea .L0 
     /tmp/cc7jEFKv.s:894    .text.disable_irq:00000000000000f4 .L0 
     /tmp/cc7jEFKv.s:895    .text.disable_irq:00000000000000f4 .L0 
     /tmp/cc7jEFKv.s:898    .text.disable_irq:00000000000000fa .L0 
     /tmp/cc7jEFKv.s:900    .text.disable_irq:00000000000000fe .L0 
     /tmp/cc7jEFKv.s:904    .text.disable_irq:0000000000000102 .L0 
     /tmp/cc7jEFKv.s:905    .text.disable_irq:0000000000000102 .L0 
     /tmp/cc7jEFKv.s:907    .text.disable_irq:0000000000000106 .L0 
     /tmp/cc7jEFKv.s:911    .text.disable_irq:0000000000000108 .L0 
     /tmp/cc7jEFKv.s:912    .text.disable_irq:0000000000000108 .L0 
     /tmp/cc7jEFKv.s:917    .text.disable_irq:0000000000000112 .L0 
     /tmp/cc7jEFKv.s:918    .text.disable_irq:0000000000000112 .L0 
     /tmp/cc7jEFKv.s:921    .text.disable_irq:0000000000000118 .L0 
     /tmp/cc7jEFKv.s:923    .text.disable_irq:000000000000011c .L0 
     /tmp/cc7jEFKv.s:927    .text.disable_irq:0000000000000120 .L0 
     /tmp/cc7jEFKv.s:928    .text.disable_irq:0000000000000120 .L0 
     /tmp/cc7jEFKv.s:930    .text.disable_irq:0000000000000124 .L0 
     /tmp/cc7jEFKv.s:934    .text.disable_irq:0000000000000126 .L0 
     /tmp/cc7jEFKv.s:935    .text.disable_irq:0000000000000126 .L0 
     /tmp/cc7jEFKv.s:940    .text.disable_irq:0000000000000130 .L0 
     /tmp/cc7jEFKv.s:941    .text.disable_irq:0000000000000130 .L0 
     /tmp/cc7jEFKv.s:944    .text.disable_irq:0000000000000136 .L0 
     /tmp/cc7jEFKv.s:946    .text.disable_irq:000000000000013a .L0 
     /tmp/cc7jEFKv.s:950    .text.disable_irq:000000000000013e .L0 
     /tmp/cc7jEFKv.s:951    .text.disable_irq:000000000000013e .L0 
     /tmp/cc7jEFKv.s:957    .text.disable_irq:0000000000000142 .L0 
     /tmp/cc7jEFKv.s:958    .text.disable_irq:0000000000000142 .L0 
     /tmp/cc7jEFKv.s:959    .text.disable_irq:0000000000000144 .L0 
     /tmp/cc7jEFKv.s:965    .text.enable_irq:0000000000000000 enable_irq
     /tmp/cc7jEFKv.s:968    .text.enable_irq:0000000000000000 .L0 
     /tmp/cc7jEFKv.s:970    .text.enable_irq:0000000000000000 .L0 
     /tmp/cc7jEFKv.s:971    .text.enable_irq:0000000000000000 .L0 
     /tmp/cc7jEFKv.s:972    .text.enable_irq:0000000000000000 .L0 
     /tmp/cc7jEFKv.s:973    .text.enable_irq:0000000000000000 .L0 
     /tmp/cc7jEFKv.s:979    .text.enable_irq:0000000000000008 .L0 
     /tmp/cc7jEFKv.s:980    .text.enable_irq:0000000000000008 .L0 
     /tmp/cc7jEFKv.s:982    .text.enable_irq:0000000000000010 .L0 
     /tmp/cc7jEFKv.s:984    .text.enable_irq:0000000000000014 .L0 
     /tmp/cc7jEFKv.s:986    .text.enable_irq:0000000000000018 .L0 
     /tmp/cc7jEFKv.s:989    .text.enable_irq:0000000000000024 .L0 
     /tmp/cc7jEFKv.s:990    .text.enable_irq:0000000000000024 .L0 
     /tmp/cc7jEFKv.s:992    .text.enable_irq:000000000000002c .L0 
     /tmp/cc7jEFKv.s:994    .text.enable_irq:0000000000000030 .L0 
     /tmp/cc7jEFKv.s:996    .text.enable_irq:0000000000000034 .L0 
     /tmp/cc7jEFKv.s:999    .text.enable_irq:0000000000000040 .L0 
     /tmp/cc7jEFKv.s:1000   .text.enable_irq:0000000000000040 .L0 
     /tmp/cc7jEFKv.s:1002   .text.enable_irq:0000000000000048 .L0 
     /tmp/cc7jEFKv.s:1004   .text.enable_irq:000000000000004c .L0 
     /tmp/cc7jEFKv.s:1006   .text.enable_irq:0000000000000050 .L0 
     /tmp/cc7jEFKv.s:1009   .text.enable_irq:000000000000005c .L0 
     /tmp/cc7jEFKv.s:1010   .text.enable_irq:000000000000005c .L0 
     /tmp/cc7jEFKv.s:1012   .text.enable_irq:0000000000000064 .L0 
     /tmp/cc7jEFKv.s:1014   .text.enable_irq:0000000000000068 .L0 
     /tmp/cc7jEFKv.s:1016   .text.enable_irq:000000000000006c .L0 
     /tmp/cc7jEFKv.s:1019   .text.enable_irq:0000000000000078 .L0 
     /tmp/cc7jEFKv.s:1020   .text.enable_irq:0000000000000078 .L0 
     /tmp/cc7jEFKv.s:1022   .text.enable_irq:0000000000000080 .L0 
     /tmp/cc7jEFKv.s:1024   .text.enable_irq:0000000000000084 .L0 
     /tmp/cc7jEFKv.s:1026   .text.enable_irq:0000000000000088 .L0 
     /tmp/cc7jEFKv.s:1029   .text.enable_irq:0000000000000094 .L0 
     /tmp/cc7jEFKv.s:1035   .text.enable_irq:0000000000000096 .L0 
     /tmp/cc7jEFKv.s:1036   .text.enable_irq:0000000000000096 .L0 
     /tmp/cc7jEFKv.s:1038   .text.enable_irq:0000000000000096 .L0 
     /tmp/cc7jEFKv.s:1039   .text.enable_irq:0000000000000096 .L0 
/home/vinay/Desktop/softconsole_watershed/Water-shed/src/platform/mpfs_hal/common/mss_plic.h:644    .text.enable_irq:0000000000000096 .L0 
     /tmp/cc7jEFKv.s:1048   .text.enable_irq:000000000000009a .L0 
     /tmp/cc7jEFKv.s:1049   .text.enable_irq:000000000000009a .L0 
     /tmp/cc7jEFKv.s:1074   .text.enable_irq:00000000000000ba .L0 
     /tmp/cc7jEFKv.s:1075   .text.enable_irq:00000000000000ba .L0 
     /tmp/cc7jEFKv.s:1080   .text.enable_irq:00000000000000c2 .L0 
     /tmp/cc7jEFKv.s:1081   .text.enable_irq:00000000000000c2 .L0 
     /tmp/cc7jEFKv.s:1084   .text.enable_irq:00000000000000c8 .L0 
     /tmp/cc7jEFKv.s:1088   .text.enable_irq:00000000000000cc .L0 
     /tmp/cc7jEFKv.s:1089   .text.enable_irq:00000000000000cc .L0 
     /tmp/cc7jEFKv.s:1091   .text.enable_irq:00000000000000ce .L0 
     /tmp/cc7jEFKv.s:1095   .text.enable_irq:00000000000000d0 .L0 
     /tmp/cc7jEFKv.s:1096   .text.enable_irq:00000000000000d0 .L0 
     /tmp/cc7jEFKv.s:1101   .text.enable_irq:00000000000000da .L0 
     /tmp/cc7jEFKv.s:1102   .text.enable_irq:00000000000000da .L0 
     /tmp/cc7jEFKv.s:1105   .text.enable_irq:00000000000000e0 .L0 
     /tmp/cc7jEFKv.s:1109   .text.enable_irq:00000000000000e4 .L0 
     /tmp/cc7jEFKv.s:1110   .text.enable_irq:00000000000000e4 .L0 
     /tmp/cc7jEFKv.s:1112   .text.enable_irq:00000000000000e8 .L0 
     /tmp/cc7jEFKv.s:1116   .text.enable_irq:00000000000000ea .L0 
     /tmp/cc7jEFKv.s:1117   .text.enable_irq:00000000000000ea .L0 
     /tmp/cc7jEFKv.s:1122   .text.enable_irq:00000000000000f4 .L0 
     /tmp/cc7jEFKv.s:1123   .text.enable_irq:00000000000000f4 .L0 
     /tmp/cc7jEFKv.s:1126   .text.enable_irq:00000000000000fa .L0 
     /tmp/cc7jEFKv.s:1130   .text.enable_irq:00000000000000fe .L0 
     /tmp/cc7jEFKv.s:1131   .text.enable_irq:00000000000000fe .L0 
     /tmp/cc7jEFKv.s:1133   .text.enable_irq:0000000000000102 .L0 
     /tmp/cc7jEFKv.s:1137   .text.enable_irq:0000000000000104 .L0 
     /tmp/cc7jEFKv.s:1138   .text.enable_irq:0000000000000104 .L0 
     /tmp/cc7jEFKv.s:1143   .text.enable_irq:000000000000010e .L0 
     /tmp/cc7jEFKv.s:1144   .text.enable_irq:000000000000010e .L0 
     /tmp/cc7jEFKv.s:1147   .text.enable_irq:0000000000000114 .L0 
     /tmp/cc7jEFKv.s:1151   .text.enable_irq:0000000000000118 .L0 
     /tmp/cc7jEFKv.s:1152   .text.enable_irq:0000000000000118 .L0 
     /tmp/cc7jEFKv.s:1154   .text.enable_irq:000000000000011c .L0 
     /tmp/cc7jEFKv.s:1158   .text.enable_irq:000000000000011e .L0 
     /tmp/cc7jEFKv.s:1159   .text.enable_irq:000000000000011e .L0 
     /tmp/cc7jEFKv.s:1164   .text.enable_irq:0000000000000128 .L0 
     /tmp/cc7jEFKv.s:1165   .text.enable_irq:0000000000000128 .L0 
     /tmp/cc7jEFKv.s:1168   .text.enable_irq:000000000000012e .L0 
     /tmp/cc7jEFKv.s:1172   .text.enable_irq:0000000000000132 .L0 
     /tmp/cc7jEFKv.s:1173   .text.enable_irq:0000000000000132 .L0 
     /tmp/cc7jEFKv.s:1181   .text.enable_irq:0000000000000136 .L0 
     /tmp/cc7jEFKv.s:1182   .text.enable_irq:0000000000000136 .L0 
     /tmp/cc7jEFKv.s:1183   .text.enable_irq:0000000000000138 .L0 
     /tmp/cc7jEFKv.s:1190   .text.MSS_UART_init:0000000000000000 MSS_UART_init
     /tmp/cc7jEFKv.s:1193   .text.MSS_UART_init:0000000000000000 .L0 
     /tmp/cc7jEFKv.s:1195   .text.MSS_UART_init:0000000000000000 .L0 
     /tmp/cc7jEFKv.s:1196   .text.MSS_UART_init:0000000000000000 .L0 
     /tmp/cc7jEFKv.s:1197   .text.MSS_UART_init:0000000000000000 .L0 
     /tmp/cc7jEFKv.s:1198   .text.MSS_UART_init:0000000000000002 .L0 
     /tmp/cc7jEFKv.s:1201   .text.MSS_UART_init:0000000000000006 .L0 
     /tmp/cc7jEFKv.s:1202   .text.MSS_UART_init:0000000000000006 .L0 
     /tmp/cc7jEFKv.s:1204   .text.MSS_UART_init:0000000000000006 .L0 
     /tmp/cc7jEFKv.s:1206   .text.MSS_UART_init:0000000000000008 .L0 
     /tmp/cc7jEFKv.s:1209   .text.MSS_UART_init:0000000000000010 .L0 
     /tmp/cc7jEFKv.s:1210   .text.MSS_UART_init:0000000000000010 .L0 
     /tmp/cc7jEFKv.s:1212   .text.MSS_UART_init:0000000000000012 .L0 
     /tmp/cc7jEFKv.s:1216   .text.MSS_UART_init:000000000000001e .L0 
     /tmp/cc7jEFKv.s:1217   .text.MSS_UART_init:000000000000001e .L0 
     /tmp/cc7jEFKv.s:1221   .text.MSS_UART_init:000000000000002a .L0 
     /tmp/cc7jEFKv.s:1222   .text.MSS_UART_init:000000000000002a .L0 
     /tmp/cc7jEFKv.s:1226   .text.MSS_UART_init:0000000000000036 .L0 
     /tmp/cc7jEFKv.s:1227   .text.MSS_UART_init:0000000000000036 .L0 
     /tmp/cc7jEFKv.s:1230   .text.MSS_UART_init:0000000000000040 .L0 
     /tmp/cc7jEFKv.s:1231   .text.MSS_UART_init:0000000000000042 .L0 
     /tmp/cc7jEFKv.s:1233   .text.MSS_UART_init:0000000000000044 .L0 
     /tmp/cc7jEFKv.s:1236   .text.MSS_UART_init:0000000000000046 .L0 
     /tmp/cc7jEFKv.s:1238   .text.MSS_UART_init:0000000000000048 .L0 
     /tmp/cc7jEFKv.s:1245   .text.MSS_UART_lin_init:0000000000000000 MSS_UART_lin_init
     /tmp/cc7jEFKv.s:1248   .text.MSS_UART_lin_init:0000000000000000 .L0 
     /tmp/cc7jEFKv.s:1250   .text.MSS_UART_lin_init:0000000000000000 .L0 
     /tmp/cc7jEFKv.s:1251   .text.MSS_UART_lin_init:0000000000000000 .L0 
     /tmp/cc7jEFKv.s:1252   .text.MSS_UART_lin_init:0000000000000000 .L0 
     /tmp/cc7jEFKv.s:1253   .text.MSS_UART_lin_init:0000000000000002 .L0 
     /tmp/cc7jEFKv.s:1256   .text.MSS_UART_lin_init:0000000000000006 .L0 
     /tmp/cc7jEFKv.s:1257   .text.MSS_UART_lin_init:0000000000000006 .L0 
     /tmp/cc7jEFKv.s:1259   .text.MSS_UART_lin_init:0000000000000006 .L0 
     /tmp/cc7jEFKv.s:1261   .text.MSS_UART_lin_init:0000000000000008 .L0 
     /tmp/cc7jEFKv.s:1264   .text.MSS_UART_lin_init:0000000000000010 .L0 
     /tmp/cc7jEFKv.s:1265   .text.MSS_UART_lin_init:0000000000000010 .L0 
     /tmp/cc7jEFKv.s:1267   .text.MSS_UART_lin_init:0000000000000012 .L0 
     /tmp/cc7jEFKv.s:1271   .text.MSS_UART_lin_init:000000000000001e .L0 
     /tmp/cc7jEFKv.s:1272   .text.MSS_UART_lin_init:000000000000001e .L0 
     /tmp/cc7jEFKv.s:1276   .text.MSS_UART_lin_init:000000000000002a .L0 
     /tmp/cc7jEFKv.s:1277   .text.MSS_UART_lin_init:000000000000002a .L0 
     /tmp/cc7jEFKv.s:1281   .text.MSS_UART_lin_init:0000000000000036 .L0 
     /tmp/cc7jEFKv.s:1282   .text.MSS_UART_lin_init:0000000000000038 .L0 
     /tmp/cc7jEFKv.s:1284   .text.MSS_UART_lin_init:000000000000003a .L0 
     /tmp/cc7jEFKv.s:1287   .text.MSS_UART_lin_init:000000000000003c .L0 
     /tmp/cc7jEFKv.s:1289   .text.MSS_UART_lin_init:000000000000003e .L0 
     /tmp/cc7jEFKv.s:1296   .text.MSS_UART_irda_init:0000000000000000 MSS_UART_irda_init
     /tmp/cc7jEFKv.s:1299   .text.MSS_UART_irda_init:0000000000000000 .L0 
     /tmp/cc7jEFKv.s:1301   .text.MSS_UART_irda_init:0000000000000000 .L0 
     /tmp/cc7jEFKv.s:1302   .text.MSS_UART_irda_init:0000000000000000 .L0 
     /tmp/cc7jEFKv.s:1303   .text.MSS_UART_irda_init:0000000000000000 .L0 
     /tmp/cc7jEFKv.s:1304   .text.MSS_UART_irda_init:0000000000000002 .L0 
     /tmp/cc7jEFKv.s:1307   .text.MSS_UART_irda_init:0000000000000006 .L0 
     /tmp/cc7jEFKv.s:1312   .text.MSS_UART_irda_init:000000000000000e .L0 
     /tmp/cc7jEFKv.s:1314   .text.MSS_UART_irda_init:000000000000000e .L0 
     /tmp/cc7jEFKv.s:1317   .text.MSS_UART_irda_init:0000000000000016 .L0 
     /tmp/cc7jEFKv.s:1318   .text.MSS_UART_irda_init:0000000000000016 .L0 
     /tmp/cc7jEFKv.s:1320   .text.MSS_UART_irda_init:0000000000000018 .L0 
     /tmp/cc7jEFKv.s:1323   .text.MSS_UART_irda_init:000000000000001c .L0 
     /tmp/cc7jEFKv.s:1325   .text.MSS_UART_irda_init:0000000000000020 .L0 
     /tmp/cc7jEFKv.s:1327   .text.MSS_UART_irda_init:0000000000000022 .L0 
     /tmp/cc7jEFKv.s:1330   .text.MSS_UART_irda_init:000000000000002a .L0 
     /tmp/cc7jEFKv.s:1331   .text.MSS_UART_irda_init:000000000000002a .L0 
     /tmp/cc7jEFKv.s:1335   .text.MSS_UART_irda_init:0000000000000036 .L0 
     /tmp/cc7jEFKv.s:1336   .text.MSS_UART_irda_init:0000000000000036 .L0 
     /tmp/cc7jEFKv.s:1338   .text.MSS_UART_irda_init:0000000000000038 .L0 
     /tmp/cc7jEFKv.s:1342   .text.MSS_UART_irda_init:0000000000000040 .L0 
     /tmp/cc7jEFKv.s:1344   .text.MSS_UART_irda_init:0000000000000044 .L0 
     /tmp/cc7jEFKv.s:1345   .text.MSS_UART_irda_init:0000000000000044 .L0 
     /tmp/cc7jEFKv.s:1347   .text.MSS_UART_irda_init:0000000000000046 .L0 
     /tmp/cc7jEFKv.s:1351   .text.MSS_UART_irda_init:000000000000004e .L0 
     /tmp/cc7jEFKv.s:1353   .text.MSS_UART_irda_init:0000000000000052 .L0 
     /tmp/cc7jEFKv.s:1354   .text.MSS_UART_irda_init:0000000000000052 .L0 
     /tmp/cc7jEFKv.s:1356   .text.MSS_UART_irda_init:0000000000000054 .L0 
     /tmp/cc7jEFKv.s:1360   .text.MSS_UART_irda_init:000000000000005c .L0 
     /tmp/cc7jEFKv.s:1362   .text.MSS_UART_irda_init:0000000000000060 .L0 
     /tmp/cc7jEFKv.s:1363   .text.MSS_UART_irda_init:0000000000000060 .L0 
     /tmp/cc7jEFKv.s:1365   .text.MSS_UART_irda_init:0000000000000062 .L0 
     /tmp/cc7jEFKv.s:1369   .text.MSS_UART_irda_init:000000000000006e .L0 
     /tmp/cc7jEFKv.s:1370   .text.MSS_UART_irda_init:0000000000000070 .L0 
     /tmp/cc7jEFKv.s:1371   .text.MSS_UART_irda_init:0000000000000070 .L0 
     /tmp/cc7jEFKv.s:1373   .text.MSS_UART_irda_init:0000000000000072 .L0 
     /tmp/cc7jEFKv.s:1376   .text.MSS_UART_irda_init:0000000000000074 .L0 
     /tmp/cc7jEFKv.s:1380   .text.MSS_UART_irda_init:0000000000000076 .L0 
     /tmp/cc7jEFKv.s:1382   .text.MSS_UART_irda_init:0000000000000076 .L0 
     /tmp/cc7jEFKv.s:1387   .text.MSS_UART_irda_init:0000000000000080 .L0 
     /tmp/cc7jEFKv.s:1392   .text.MSS_UART_irda_init:000000000000008a .L0 
     /tmp/cc7jEFKv.s:1395   .text.MSS_UART_irda_init:0000000000000094 .L0 
     /tmp/cc7jEFKv.s:1402   .text.MSS_UART_smartcard_init:0000000000000000 MSS_UART_smartcard_init
     /tmp/cc7jEFKv.s:1405   .text.MSS_UART_smartcard_init:0000000000000000 .L0 
     /tmp/cc7jEFKv.s:1407   .text.MSS_UART_smartcard_init:0000000000000000 .L0 
     /tmp/cc7jEFKv.s:1408   .text.MSS_UART_smartcard_init:0000000000000000 .L0 
     /tmp/cc7jEFKv.s:1409   .text.MSS_UART_smartcard_init:0000000000000000 .L0 
     /tmp/cc7jEFKv.s:1410   .text.MSS_UART_smartcard_init:0000000000000002 .L0 
     /tmp/cc7jEFKv.s:1413   .text.MSS_UART_smartcard_init:0000000000000006 .L0 
     /tmp/cc7jEFKv.s:1414   .text.MSS_UART_smartcard_init:0000000000000006 .L0 
     /tmp/cc7jEFKv.s:1418   .text.MSS_UART_smartcard_init:000000000000000c .L0 
     /tmp/cc7jEFKv.s:1420   .text.MSS_UART_smartcard_init:000000000000000c .L0 
     /tmp/cc7jEFKv.s:1423   .text.MSS_UART_smartcard_init:0000000000000014 .L0 
     /tmp/cc7jEFKv.s:1424   .text.MSS_UART_smartcard_init:0000000000000014 .L0 
     /tmp/cc7jEFKv.s:1426   .text.MSS_UART_smartcard_init:0000000000000016 .L0 
     /tmp/cc7jEFKv.s:1428   .text.MSS_UART_smartcard_init:0000000000000018 .L0 
     /tmp/cc7jEFKv.s:1432   .text.MSS_UART_smartcard_init:0000000000000024 .L0 
     /tmp/cc7jEFKv.s:1433   .text.MSS_UART_smartcard_init:0000000000000024 .L0 
     /tmp/cc7jEFKv.s:1437   .text.MSS_UART_smartcard_init:0000000000000030 .L0 
     /tmp/cc7jEFKv.s:1438   .text.MSS_UART_smartcard_init:0000000000000030 .L0 
     /tmp/cc7jEFKv.s:1441   .text.MSS_UART_smartcard_init:0000000000000036 .L0 
     /tmp/cc7jEFKv.s:1442   .text.MSS_UART_smartcard_init:0000000000000036 .L0 
     /tmp/cc7jEFKv.s:1446   .text.MSS_UART_smartcard_init:0000000000000042 .L0 
     /tmp/cc7jEFKv.s:1447   .text.MSS_UART_smartcard_init:0000000000000042 .L0 
     /tmp/cc7jEFKv.s:1452   .text.MSS_UART_smartcard_init:000000000000004e .L0 
     /tmp/cc7jEFKv.s:1453   .text.MSS_UART_smartcard_init:0000000000000050 .L0 
     /tmp/cc7jEFKv.s:1455   .text.MSS_UART_smartcard_init:0000000000000052 .L0 
     /tmp/cc7jEFKv.s:1457   .text.MSS_UART_smartcard_init:0000000000000054 .L0 
     /tmp/cc7jEFKv.s:1460   .text.MSS_UART_smartcard_init:0000000000000056 .L0 
     /tmp/cc7jEFKv.s:1462   .text.MSS_UART_smartcard_init:0000000000000058 .L0 
     /tmp/cc7jEFKv.s:1469   .text.MSS_UART_polled_tx:0000000000000000 MSS_UART_polled_tx
     /tmp/cc7jEFKv.s:1472   .text.MSS_UART_polled_tx:0000000000000000 .L0 
     /tmp/cc7jEFKv.s:1474   .text.MSS_UART_polled_tx:0000000000000000 .L0 
     /tmp/cc7jEFKv.s:1475   .text.MSS_UART_polled_tx:0000000000000000 .L0 
     /tmp/cc7jEFKv.s:1476   .text.MSS_UART_polled_tx:0000000000000000 .L0 
     /tmp/cc7jEFKv.s:1477   .text.MSS_UART_polled_tx:0000000000000000 .L0 
     /tmp/cc7jEFKv.s:1478   .text.MSS_UART_polled_tx:0000000000000000 .L0 
     /tmp/cc7jEFKv.s:1479   .text.MSS_UART_polled_tx:0000000000000000 .L0 
     /tmp/cc7jEFKv.s:1480   .text.MSS_UART_polled_tx:0000000000000000 .L0 
     /tmp/cc7jEFKv.s:1481   .text.MSS_UART_polled_tx:0000000000000000 .L0 
     /tmp/cc7jEFKv.s:1482   .text.MSS_UART_polled_tx:0000000000000000 .L0 
     /tmp/cc7jEFKv.s:1484   .text.MSS_UART_polled_tx:0000000000000002 .L0 
     /tmp/cc7jEFKv.s:1486   .text.MSS_UART_polled_tx:0000000000000004 .L0 
     /tmp/cc7jEFKv.s:1488   .text.MSS_UART_polled_tx:0000000000000008 .L0 
     /tmp/cc7jEFKv.s:1491   .text.MSS_UART_polled_tx:000000000000000a .L0 
     /tmp/cc7jEFKv.s:1499   .text.MSS_UART_polled_tx:0000000000000010 .L0 
     /tmp/cc7jEFKv.s:1500   .text.MSS_UART_polled_tx:0000000000000010 .L0 
     /tmp/cc7jEFKv.s:1501   .text.MSS_UART_polled_tx:0000000000000010 .L0 
     /tmp/cc7jEFKv.s:1505   .text.MSS_UART_polled_tx:0000000000000018 .L0 
     /tmp/cc7jEFKv.s:1506   .text.MSS_UART_polled_tx:0000000000000018 .L0 
     /tmp/cc7jEFKv.s:1508   .text.MSS_UART_polled_tx:000000000000001a .L0 
     /tmp/cc7jEFKv.s:1509   .text.MSS_UART_polled_tx:000000000000001a .L0 
     /tmp/cc7jEFKv.s:1516   .text.MSS_UART_polled_tx:0000000000000024 .L0 
     /tmp/cc7jEFKv.s:1517   .text.MSS_UART_polled_tx:0000000000000024 .L0 
     /tmp/cc7jEFKv.s:1518   .text.MSS_UART_polled_tx:0000000000000024 .L0 
     /tmp/cc7jEFKv.s:1520   .text.MSS_UART_polled_tx:0000000000000026 .L0 
     /tmp/cc7jEFKv.s:1525   .text.MSS_UART_polled_tx:000000000000002c .L0 
     /tmp/cc7jEFKv.s:1529   .text.MSS_UART_polled_tx:0000000000000030 .L0 
     /tmp/cc7jEFKv.s:1530   .text.MSS_UART_polled_tx:0000000000000030 .L0 
     /tmp/cc7jEFKv.s:1535   .text.MSS_UART_polled_tx:000000000000003c .L0 
     /tmp/cc7jEFKv.s:1538   .text.MSS_UART_polled_tx:000000000000003e .L0 
     /tmp/cc7jEFKv.s:1540   .text.MSS_UART_polled_tx:0000000000000042 .L0 
     /tmp/cc7jEFKv.s:1541   .text.MSS_UART_polled_tx:0000000000000042 .L0 
     /tmp/cc7jEFKv.s:1543   .text.MSS_UART_polled_tx:0000000000000046 .L0 
     /tmp/cc7jEFKv.s:1544   .text.MSS_UART_polled_tx:0000000000000046 .L0 
     /tmp/cc7jEFKv.s:1549   .text.MSS_UART_polled_tx:000000000000004a .L0 
     /tmp/cc7jEFKv.s:1553   .text.MSS_UART_polled_tx:000000000000004c .L0 
     /tmp/cc7jEFKv.s:1554   .text.MSS_UART_polled_tx:000000000000004e .L0 
     /tmp/cc7jEFKv.s:1561   .text.MSS_UART_polled_tx_string:0000000000000000 MSS_UART_polled_tx_string
     /tmp/cc7jEFKv.s:1564   .text.MSS_UART_polled_tx_string:0000000000000000 .L0 
     /tmp/cc7jEFKv.s:1566   .text.MSS_UART_polled_tx_string:0000000000000000 .L0 
     /tmp/cc7jEFKv.s:1567   .text.MSS_UART_polled_tx_string:0000000000000000 .L0 
     /tmp/cc7jEFKv.s:1568   .text.MSS_UART_polled_tx_string:0000000000000000 .L0 
     /tmp/cc7jEFKv.s:1569   .text.MSS_UART_polled_tx_string:0000000000000000 .L0 
     /tmp/cc7jEFKv.s:1570   .text.MSS_UART_polled_tx_string:0000000000000000 .L0 
     /tmp/cc7jEFKv.s:1571   .text.MSS_UART_polled_tx_string:0000000000000000 .L0 
     /tmp/cc7jEFKv.s:1572   .text.MSS_UART_polled_tx_string:0000000000000000 .L0 
     /tmp/cc7jEFKv.s:1573   .text.MSS_UART_polled_tx_string:0000000000000000 .L0 
     /tmp/cc7jEFKv.s:1575   .text.MSS_UART_polled_tx_string:0000000000000002 .L0 
     /tmp/cc7jEFKv.s:1576   .text.MSS_UART_polled_tx_string:0000000000000002 .L0 
     /tmp/cc7jEFKv.s:1579   .text.MSS_UART_polled_tx_string:0000000000000006 .L0 
     /tmp/cc7jEFKv.s:1580   .text.MSS_UART_polled_tx_string:0000000000000006 .L0 
     /tmp/cc7jEFKv.s:1587   .text.MSS_UART_polled_tx_string:000000000000000c .L0 
     /tmp/cc7jEFKv.s:1591   .text.MSS_UART_polled_tx_string:0000000000000014 .L0 
     /tmp/cc7jEFKv.s:1592   .text.MSS_UART_polled_tx_string:0000000000000014 .L0 
     /tmp/cc7jEFKv.s:1593   .text.MSS_UART_polled_tx_string:0000000000000014 .L0 
     /tmp/cc7jEFKv.s:1597   .text.MSS_UART_polled_tx_string:000000000000001c .L0 
     /tmp/cc7jEFKv.s:1598   .text.MSS_UART_polled_tx_string:000000000000001c .L0 
     /tmp/cc7jEFKv.s:1600   .text.MSS_UART_polled_tx_string:000000000000001e .L0 
     /tmp/cc7jEFKv.s:1607   .text.MSS_UART_polled_tx_string:0000000000000030 .L0 
     /tmp/cc7jEFKv.s:1611   .text.MSS_UART_polled_tx_string:0000000000000032 .L0 
     /tmp/cc7jEFKv.s:1612   .text.MSS_UART_polled_tx_string:0000000000000032 .L0 
     /tmp/cc7jEFKv.s:1616   .text.MSS_UART_polled_tx_string:000000000000003a .L0 
     /tmp/cc7jEFKv.s:1620   .text.MSS_UART_polled_tx_string:000000000000003e .L0 
     /tmp/cc7jEFKv.s:1622   .text.MSS_UART_polled_tx_string:0000000000000042 .L0 
     /tmp/cc7jEFKv.s:1624   .text.MSS_UART_polled_tx_string:0000000000000042 .L0 
     /tmp/cc7jEFKv.s:1625   .text.MSS_UART_polled_tx_string:0000000000000042 .L0 
     /tmp/cc7jEFKv.s:1626   .text.MSS_UART_polled_tx_string:0000000000000042 .L0 
     /tmp/cc7jEFKv.s:1630   .text.MSS_UART_polled_tx_string:0000000000000048 .L0 
     /tmp/cc7jEFKv.s:1633   .text.MSS_UART_polled_tx_string:000000000000004c .L0 
     /tmp/cc7jEFKv.s:1636   .text.MSS_UART_polled_tx_string:0000000000000050 .L0 
     /tmp/cc7jEFKv.s:1640   .text.MSS_UART_polled_tx_string:0000000000000052 .L0 
     /tmp/cc7jEFKv.s:1641   .text.MSS_UART_polled_tx_string:0000000000000054 .L0 
     /tmp/cc7jEFKv.s:1648   .text.MSS_UART_irq_tx:0000000000000000 MSS_UART_irq_tx
     /tmp/cc7jEFKv.s:1651   .text.MSS_UART_irq_tx:0000000000000000 .L0 
     /tmp/cc7jEFKv.s:1653   .text.MSS_UART_irq_tx:0000000000000000 .L0 
     /tmp/cc7jEFKv.s:1654   .text.MSS_UART_irq_tx:0000000000000000 .L0 
     /tmp/cc7jEFKv.s:1655   .text.MSS_UART_irq_tx:0000000000000000 .L0 
     /tmp/cc7jEFKv.s:1656   .text.MSS_UART_irq_tx:0000000000000000 .L0 
     /tmp/cc7jEFKv.s:1657   .text.MSS_UART_irq_tx:0000000000000000 .L0 
     /tmp/cc7jEFKv.s:1659   .text.MSS_UART_irq_tx:0000000000000002 .L0 
     /tmp/cc7jEFKv.s:1661   .text.MSS_UART_irq_tx:0000000000000004 .L0 
     /tmp/cc7jEFKv.s:1662   .text.MSS_UART_irq_tx:0000000000000004 .L0 
     /tmp/cc7jEFKv.s:1665   .text.MSS_UART_irq_tx:000000000000000e .L0 
     /tmp/cc7jEFKv.s:1667   .text.MSS_UART_irq_tx:0000000000000010 .L0 
     /tmp/cc7jEFKv.s:1669   .text.MSS_UART_irq_tx:0000000000000012 .L0 
     /tmp/cc7jEFKv.s:1670   .text.MSS_UART_irq_tx:0000000000000012 .L0 
     /tmp/cc7jEFKv.s:1672   .text.MSS_UART_irq_tx:0000000000000014 .L0 
     /tmp/cc7jEFKv.s:1673   .text.MSS_UART_irq_tx:0000000000000014 .L0 
     /tmp/cc7jEFKv.s:1675   .text.MSS_UART_irq_tx:0000000000000018 .L0 
     /tmp/cc7jEFKv.s:1677   .text.MSS_UART_irq_tx:000000000000001c .L0 
     /tmp/cc7jEFKv.s:1678   .text.MSS_UART_irq_tx:000000000000001c .L0 
     /tmp/cc7jEFKv.s:1679   .text.MSS_UART_irq_tx:000000000000001c .L0 
     /tmp/cc7jEFKv.s:1682   .text.MSS_UART_irq_tx:0000000000000024 .L0 
     /tmp/cc7jEFKv.s:1686   .text.MSS_UART_irq_tx:000000000000002c .L0 
     /tmp/cc7jEFKv.s:1687   .text.MSS_UART_irq_tx:000000000000002e .L0 
     /tmp/cc7jEFKv.s:1694   .text.MSS_UART_tx_complete:0000000000000000 MSS_UART_tx_complete
     /tmp/cc7jEFKv.s:1697   .text.MSS_UART_tx_complete:0000000000000000 .L0 
     /tmp/cc7jEFKv.s:1699   .text.MSS_UART_tx_complete:0000000000000000 .L0 
     /tmp/cc7jEFKv.s:1700   .text.MSS_UART_tx_complete:0000000000000000 .L0 
     /tmp/cc7jEFKv.s:1701   .text.MSS_UART_tx_complete:0000000000000000 .L0 
     /tmp/cc7jEFKv.s:1702   .text.MSS_UART_tx_complete:0000000000000000 .L0 
     /tmp/cc7jEFKv.s:1703   .text.MSS_UART_tx_complete:0000000000000000 .L0 
     /tmp/cc7jEFKv.s:1705   .text.MSS_UART_tx_complete:0000000000000002 .L0 
     /tmp/cc7jEFKv.s:1707   .text.MSS_UART_tx_complete:0000000000000006 .L0 
     /tmp/cc7jEFKv.s:1711   .text.MSS_UART_tx_complete:000000000000000e .L0 
     /tmp/cc7jEFKv.s:1712   .text.MSS_UART_tx_complete:000000000000000e .L0 
     /tmp/cc7jEFKv.s:1715   .text.MSS_UART_tx_complete:0000000000000014 .L0 
     /tmp/cc7jEFKv.s:1716   .text.MSS_UART_tx_complete:0000000000000014 .L0 
     /tmp/cc7jEFKv.s:1719   .text.MSS_UART_tx_complete:0000000000000018 .L0 
     /tmp/cc7jEFKv.s:1722   .text.MSS_UART_tx_complete:000000000000001c .L0 
     /tmp/cc7jEFKv.s:1727   .text.MSS_UART_tx_complete:0000000000000020 .L0 
     /tmp/cc7jEFKv.s:1730   .text.MSS_UART_tx_complete:0000000000000022 .L0 
     /tmp/cc7jEFKv.s:1731   .text.MSS_UART_tx_complete:0000000000000022 .L0 
     /tmp/cc7jEFKv.s:1732   .text.MSS_UART_tx_complete:0000000000000024 .L0 
     /tmp/cc7jEFKv.s:1739   .text.MSS_UART_get_rx:0000000000000000 MSS_UART_get_rx
     /tmp/cc7jEFKv.s:1742   .text.MSS_UART_get_rx:0000000000000000 .L0 
     /tmp/cc7jEFKv.s:1744   .text.MSS_UART_get_rx:0000000000000000 .L0 
     /tmp/cc7jEFKv.s:1745   .text.MSS_UART_get_rx:0000000000000000 .L0 
     /tmp/cc7jEFKv.s:1746   .text.MSS_UART_get_rx:0000000000000000 .L0 
     /tmp/cc7jEFKv.s:1747   .text.MSS_UART_get_rx:0000000000000000 .L0 
     /tmp/cc7jEFKv.s:1748   .text.MSS_UART_get_rx:0000000000000000 .L0 
     /tmp/cc7jEFKv.s:1749   .text.MSS_UART_get_rx:0000000000000000 .L0 
     /tmp/cc7jEFKv.s:1750   .text.MSS_UART_get_rx:0000000000000000 .L0 
     /tmp/cc7jEFKv.s:1752   .text.MSS_UART_get_rx:0000000000000002 .L0 
     /tmp/cc7jEFKv.s:1754   .text.MSS_UART_get_rx:0000000000000004 .L0 
     /tmp/cc7jEFKv.s:1756   .text.MSS_UART_get_rx:0000000000000006 .L0 
     /tmp/cc7jEFKv.s:1757   .text.MSS_UART_get_rx:0000000000000006 .L0 
     /tmp/cc7jEFKv.s:1759   .text.MSS_UART_get_rx:0000000000000008 .L0 
     /tmp/cc7jEFKv.s:1761   .text.MSS_UART_get_rx:000000000000000c .L0 
     /tmp/cc7jEFKv.s:1765   .text.MSS_UART_get_rx:0000000000000014 .L0 
     /tmp/cc7jEFKv.s:1766   .text.MSS_UART_get_rx:0000000000000014 .L0 
     /tmp/cc7jEFKv.s:1769   .text.MSS_UART_get_rx:000000000000001a .L0 
     /tmp/cc7jEFKv.s:1770   .text.MSS_UART_get_rx:000000000000001a .L0 
     /tmp/cc7jEFKv.s:1774   .text.MSS_UART_get_rx:000000000000001c .L0 
     /tmp/cc7jEFKv.s:1778   .text.MSS_UART_get_rx:0000000000000020 .L0 
     /tmp/cc7jEFKv.s:1782   .text.MSS_UART_get_rx:0000000000000024 .L0 
     /tmp/cc7jEFKv.s:1783   .text.MSS_UART_get_rx:0000000000000024 .L0 
     /tmp/cc7jEFKv.s:1788   .text.MSS_UART_get_rx:0000000000000028 .L0 
     /tmp/cc7jEFKv.s:1789   .text.MSS_UART_get_rx:0000000000000028 .L0 
     /tmp/cc7jEFKv.s:1791   .text.MSS_UART_get_rx:000000000000002a .L0 
     /tmp/cc7jEFKv.s:1793   .text.MSS_UART_get_rx:000000000000002e .L0 
     /tmp/cc7jEFKv.s:1795   .text.MSS_UART_get_rx:0000000000000032 .L0 
     /tmp/cc7jEFKv.s:1798   .text.MSS_UART_get_rx:0000000000000034 .L0 
     /tmp/cc7jEFKv.s:1801   .text.MSS_UART_get_rx:0000000000000038 .L0 
     /tmp/cc7jEFKv.s:1802   .text.MSS_UART_get_rx:0000000000000038 .L0 
     /tmp/cc7jEFKv.s:1803   .text.MSS_UART_get_rx:0000000000000038 .L0 
     /tmp/cc7jEFKv.s:1805   .text.MSS_UART_get_rx:000000000000003a .L0 
     /tmp/cc7jEFKv.s:1807   .text.MSS_UART_get_rx:000000000000003e .L0 
     /tmp/cc7jEFKv.s:1811   .text.MSS_UART_get_rx:0000000000000046 .L0 
     /tmp/cc7jEFKv.s:1812   .text.MSS_UART_get_rx:0000000000000046 .L0 
     /tmp/cc7jEFKv.s:1818   .text.MSS_UART_get_rx:000000000000004e .L0 
     /tmp/cc7jEFKv.s:1826   .text.MSS_UART_get_rx:0000000000000056 .L0 
     /tmp/cc7jEFKv.s:1833   .text.MSS_UART_enable_irq:0000000000000000 MSS_UART_enable_irq
     /tmp/cc7jEFKv.s:1836   .text.MSS_UART_enable_irq:0000000000000000 .L0 
     /tmp/cc7jEFKv.s:1838   .text.MSS_UART_enable_irq:0000000000000000 .L0 
     /tmp/cc7jEFKv.s:1839   .text.MSS_UART_enable_irq:0000000000000000 .L0 
     /tmp/cc7jEFKv.s:1840   .text.MSS_UART_enable_irq:0000000000000000 .L0 
     /tmp/cc7jEFKv.s:1841   .text.MSS_UART_enable_irq:0000000000000000 .L0 
     /tmp/cc7jEFKv.s:1845   .text.MSS_UART_enable_irq:0000000000000008 .L0 
     /tmp/cc7jEFKv.s:1846   .text.MSS_UART_enable_irq:0000000000000008 .L0 
     /tmp/cc7jEFKv.s:1848   .text.MSS_UART_enable_irq:000000000000000a .L0 
     /tmp/cc7jEFKv.s:1850   .text.MSS_UART_enable_irq:000000000000000e .L0 
     /tmp/cc7jEFKv.s:1853   .text.MSS_UART_enable_irq:0000000000000012 .L0 
     /tmp/cc7jEFKv.s:1855   .text.MSS_UART_enable_irq:0000000000000016 .L0 
     /tmp/cc7jEFKv.s:1857   .text.MSS_UART_enable_irq:0000000000000018 .L0 
     /tmp/cc7jEFKv.s:1860   .text.MSS_UART_enable_irq:000000000000001e .L0 
     /tmp/cc7jEFKv.s:1861   .text.MSS_UART_enable_irq:000000000000001e .L0 
     /tmp/cc7jEFKv.s:1866   .text.MSS_UART_enable_irq:0000000000000028 .L0 
     /tmp/cc7jEFKv.s:1867   .text.MSS_UART_enable_irq:000000000000002a .L0 
     /tmp/cc7jEFKv.s:1874   .text.MSS_UART_disable_irq:0000000000000000 MSS_UART_disable_irq
     /tmp/cc7jEFKv.s:1877   .text.MSS_UART_disable_irq:0000000000000000 .L0 
     /tmp/cc7jEFKv.s:1879   .text.MSS_UART_disable_irq:0000000000000000 .L0 
     /tmp/cc7jEFKv.s:1880   .text.MSS_UART_disable_irq:0000000000000000 .L0 
     /tmp/cc7jEFKv.s:1881   .text.MSS_UART_disable_irq:0000000000000000 .L0 
     /tmp/cc7jEFKv.s:1883   .text.MSS_UART_disable_irq:0000000000000002 .L0 
     /tmp/cc7jEFKv.s:1885   .text.MSS_UART_disable_irq:0000000000000006 .L0 
     /tmp/cc7jEFKv.s:1887   .text.MSS_UART_disable_irq:000000000000000a .L0 
     /tmp/cc7jEFKv.s:1889   .text.MSS_UART_disable_irq:000000000000000e .L0 
     /tmp/cc7jEFKv.s:1893   .text.MSS_UART_disable_irq:0000000000000014 .L0 
     /tmp/cc7jEFKv.s:1896   .text.MSS_UART_disable_irq:000000000000001a .L0 
     /tmp/cc7jEFKv.s:1897   .text.MSS_UART_disable_irq:000000000000001a .L0 
     /tmp/cc7jEFKv.s:1899   .text.MSS_UART_disable_irq:000000000000001e .L0 
     /tmp/cc7jEFKv.s:1901   .text.MSS_UART_disable_irq:0000000000000022 .L0 
     /tmp/cc7jEFKv.s:1904   .text.MSS_UART_disable_irq:0000000000000028 .L0 
     /tmp/cc7jEFKv.s:1905   .text.MSS_UART_disable_irq:0000000000000028 .L0 
     /tmp/cc7jEFKv.s:1909   .text.MSS_UART_disable_irq:0000000000000032 .L0 
     /tmp/cc7jEFKv.s:1915   .text.MSS_UART_disable_irq:000000000000003c .L0 
     /tmp/cc7jEFKv.s:1917   .text.MSS_UART_disable_irq:0000000000000044 .L0 
     /tmp/cc7jEFKv.s:1924   .text.MSS_UART_set_rx_handler:0000000000000000 MSS_UART_set_rx_handler
     /tmp/cc7jEFKv.s:1927   .text.MSS_UART_set_rx_handler:0000000000000000 .L0 
     /tmp/cc7jEFKv.s:1929   .text.MSS_UART_set_rx_handler:0000000000000000 .L0 
     /tmp/cc7jEFKv.s:1930   .text.MSS_UART_set_rx_handler:0000000000000000 .L0 
     /tmp/cc7jEFKv.s:1931   .text.MSS_UART_set_rx_handler:0000000000000000 .L0 
     /tmp/cc7jEFKv.s:1932   .text.MSS_UART_set_rx_handler:0000000000000000 .L0 
     /tmp/cc7jEFKv.s:1933   .text.MSS_UART_set_rx_handler:0000000000000000 .L0 
     /tmp/cc7jEFKv.s:1935   .text.MSS_UART_set_rx_handler:0000000000000002 .L0 
     /tmp/cc7jEFKv.s:1938   .text.MSS_UART_set_rx_handler:000000000000000a .L0 
     /tmp/cc7jEFKv.s:1939   .text.MSS_UART_set_rx_handler:000000000000000a .L0 
     /tmp/cc7jEFKv.s:1941   .text.MSS_UART_set_rx_handler:000000000000000c .L0 
     /tmp/cc7jEFKv.s:1943   .text.MSS_UART_set_rx_handler:000000000000000e .L0 
     /tmp/cc7jEFKv.s:1944   .text.MSS_UART_set_rx_handler:000000000000000e .L0 
     /tmp/cc7jEFKv.s:1946   .text.MSS_UART_set_rx_handler:0000000000000012 .L0 
     /tmp/cc7jEFKv.s:1948   .text.MSS_UART_set_rx_handler:0000000000000016 .L0 
     /tmp/cc7jEFKv.s:1952   .text.MSS_UART_set_rx_handler:000000000000001c .L0 
     /tmp/cc7jEFKv.s:1954   .text.MSS_UART_set_rx_handler:0000000000000020 .L0 
     /tmp/cc7jEFKv.s:1955   .text.MSS_UART_set_rx_handler:0000000000000020 .L0 
     /tmp/cc7jEFKv.s:1959   .text.MSS_UART_set_rx_handler:000000000000002c .L0 
     /tmp/cc7jEFKv.s:1963   .text.MSS_UART_set_rx_handler:0000000000000034 .L0 
     /tmp/cc7jEFKv.s:1964   .text.MSS_UART_set_rx_handler:0000000000000036 .L0 
     /tmp/cc7jEFKv.s:1971   .text.MSS_UART_set_loopback:0000000000000000 MSS_UART_set_loopback
     /tmp/cc7jEFKv.s:1974   .text.MSS_UART_set_loopback:0000000000000000 .L0 
     /tmp/cc7jEFKv.s:1976   .text.MSS_UART_set_loopback:0000000000000000 .L0 
     /tmp/cc7jEFKv.s:1977   .text.MSS_UART_set_loopback:0000000000000000 .L0 
     /tmp/cc7jEFKv.s:1978   .text.MSS_UART_set_loopback:0000000000000000 .L0 
     /tmp/cc7jEFKv.s:1979   .text.MSS_UART_set_loopback:0000000000000000 .L0 
     /tmp/cc7jEFKv.s:1982   .text.MSS_UART_set_loopback:0000000000000006 .L0 
     /tmp/cc7jEFKv.s:2009   .text.MSS_UART_set_loopback:0000000000000028 .L0 
     /tmp/cc7jEFKv.s:2010   .text.MSS_UART_set_loopback:0000000000000028 .L0 
     /tmp/cc7jEFKv.s:2014   .text.MSS_UART_set_loopback:0000000000000030 .L0 
     /tmp/cc7jEFKv.s:2017   .text.MSS_UART_set_loopback:0000000000000034 .L0 
     /tmp/cc7jEFKv.s:2018   .text.MSS_UART_set_loopback:0000000000000034 .L0 
     /tmp/cc7jEFKv.s:2021   .text.MSS_UART_set_loopback:0000000000000036 .L0 
     /tmp/cc7jEFKv.s:2022   .text.MSS_UART_set_loopback:0000000000000036 .L0 
     /tmp/cc7jEFKv.s:2027   .text.MSS_UART_set_loopback:0000000000000040 .L0 
     /tmp/cc7jEFKv.s:2028   .text.MSS_UART_set_loopback:0000000000000040 .L0 
     /tmp/cc7jEFKv.s:2033   .text.MSS_UART_set_loopback:000000000000004a .L0 
     /tmp/cc7jEFKv.s:2034   .text.MSS_UART_set_loopback:000000000000004a .L0 
     /tmp/cc7jEFKv.s:2039   .text.MSS_UART_set_loopback:0000000000000054 .L0 
     /tmp/cc7jEFKv.s:2040   .text.MSS_UART_set_loopback:0000000000000054 .L0 
     /tmp/cc7jEFKv.s:2043   .text.MSS_UART_set_loopback:000000000000005e .L0 
     /tmp/cc7jEFKv.s:2050   .text.PLIC_mmuart0_IRQHandler:0000000000000000 PLIC_mmuart0_IRQHandler
     /tmp/cc7jEFKv.s:2053   .text.PLIC_mmuart0_IRQHandler:0000000000000000 .L0 
     /tmp/cc7jEFKv.s:2054   .text.PLIC_mmuart0_IRQHandler:0000000000000000 .L0 
     /tmp/cc7jEFKv.s:2055   .text.PLIC_mmuart0_IRQHandler:0000000000000000 .L0 
     /tmp/cc7jEFKv.s:2056   .text.PLIC_mmuart0_IRQHandler:0000000000000000 .L0 
     /tmp/cc7jEFKv.s:2059   .text.PLIC_mmuart0_IRQHandler:000000000000000a .L0 
     /tmp/cc7jEFKv.s:2060   .text.PLIC_mmuart0_IRQHandler:000000000000000c .L0 
     /tmp/cc7jEFKv.s:2062   .text.PLIC_mmuart0_IRQHandler:000000000000000e .L0 
     /tmp/cc7jEFKv.s:2064   .text.PLIC_mmuart0_IRQHandler:000000000000000e .L0 
     /tmp/cc7jEFKv.s:2066   .text.PLIC_mmuart0_IRQHandler:0000000000000010 .L0 
     /tmp/cc7jEFKv.s:2068   .text.PLIC_mmuart0_IRQHandler:0000000000000018 .L0 
     /tmp/cc7jEFKv.s:2070   .text.PLIC_mmuart0_IRQHandler:000000000000001a .L0 
     /tmp/cc7jEFKv.s:2075   .text.PLIC_mmuart0_IRQHandler:000000000000002a .L0 
     /tmp/cc7jEFKv.s:2076   .text.PLIC_mmuart0_IRQHandler:000000000000002a .L0 
     /tmp/cc7jEFKv.s:2077   .text.PLIC_mmuart0_IRQHandler:000000000000002c .L0 
     /tmp/cc7jEFKv.s:2080   .text.PLIC_mmuart0_IRQHandler:0000000000000030 .L0 
     /tmp/cc7jEFKv.s:2082   .text.PLIC_mmuart0_IRQHandler:0000000000000032 .L0 
     /tmp/cc7jEFKv.s:2089   .text.PLIC_mmuart1_IRQHandler:0000000000000000 PLIC_mmuart1_IRQHandler
     /tmp/cc7jEFKv.s:2092   .text.PLIC_mmuart1_IRQHandler:0000000000000000 .L0 
     /tmp/cc7jEFKv.s:2093   .text.PLIC_mmuart1_IRQHandler:0000000000000000 .L0 
     /tmp/cc7jEFKv.s:2094   .text.PLIC_mmuart1_IRQHandler:0000000000000000 .L0 
     /tmp/cc7jEFKv.s:2095   .text.PLIC_mmuart1_IRQHandler:0000000000000000 .L0 
     /tmp/cc7jEFKv.s:2098   .text.PLIC_mmuart1_IRQHandler:000000000000000a .L0 
     /tmp/cc7jEFKv.s:2099   .text.PLIC_mmuart1_IRQHandler:000000000000000c .L0 
     /tmp/cc7jEFKv.s:2101   .text.PLIC_mmuart1_IRQHandler:000000000000000e .L0 
     /tmp/cc7jEFKv.s:2103   .text.PLIC_mmuart1_IRQHandler:000000000000000e .L0 
     /tmp/cc7jEFKv.s:2105   .text.PLIC_mmuart1_IRQHandler:0000000000000010 .L0 
     /tmp/cc7jEFKv.s:2107   .text.PLIC_mmuart1_IRQHandler:0000000000000018 .L0 
     /tmp/cc7jEFKv.s:2109   .text.PLIC_mmuart1_IRQHandler:000000000000001a .L0 
     /tmp/cc7jEFKv.s:2114   .text.PLIC_mmuart1_IRQHandler:000000000000002a .L0 
     /tmp/cc7jEFKv.s:2115   .text.PLIC_mmuart1_IRQHandler:000000000000002a .L0 
     /tmp/cc7jEFKv.s:2116   .text.PLIC_mmuart1_IRQHandler:000000000000002c .L0 
     /tmp/cc7jEFKv.s:2119   .text.PLIC_mmuart1_IRQHandler:0000000000000030 .L0 
     /tmp/cc7jEFKv.s:2121   .text.PLIC_mmuart1_IRQHandler:0000000000000032 .L0 
     /tmp/cc7jEFKv.s:2128   .text.PLIC_mmuart2_IRQHandler:0000000000000000 PLIC_mmuart2_IRQHandler
     /tmp/cc7jEFKv.s:2131   .text.PLIC_mmuart2_IRQHandler:0000000000000000 .L0 
     /tmp/cc7jEFKv.s:2132   .text.PLIC_mmuart2_IRQHandler:0000000000000000 .L0 
     /tmp/cc7jEFKv.s:2133   .text.PLIC_mmuart2_IRQHandler:0000000000000000 .L0 
     /tmp/cc7jEFKv.s:2134   .text.PLIC_mmuart2_IRQHandler:0000000000000000 .L0 
     /tmp/cc7jEFKv.s:2137   .text.PLIC_mmuart2_IRQHandler:000000000000000a .L0 
     /tmp/cc7jEFKv.s:2138   .text.PLIC_mmuart2_IRQHandler:000000000000000c .L0 
     /tmp/cc7jEFKv.s:2140   .text.PLIC_mmuart2_IRQHandler:000000000000000e .L0 
     /tmp/cc7jEFKv.s:2142   .text.PLIC_mmuart2_IRQHandler:000000000000000e .L0 
     /tmp/cc7jEFKv.s:2144   .text.PLIC_mmuart2_IRQHandler:0000000000000010 .L0 
     /tmp/cc7jEFKv.s:2146   .text.PLIC_mmuart2_IRQHandler:0000000000000018 .L0 
     /tmp/cc7jEFKv.s:2148   .text.PLIC_mmuart2_IRQHandler:000000000000001a .L0 
     /tmp/cc7jEFKv.s:2153   .text.PLIC_mmuart2_IRQHandler:000000000000002a .L0 
     /tmp/cc7jEFKv.s:2154   .text.PLIC_mmuart2_IRQHandler:000000000000002a .L0 
     /tmp/cc7jEFKv.s:2155   .text.PLIC_mmuart2_IRQHandler:000000000000002c .L0 
     /tmp/cc7jEFKv.s:2158   .text.PLIC_mmuart2_IRQHandler:0000000000000030 .L0 
     /tmp/cc7jEFKv.s:2160   .text.PLIC_mmuart2_IRQHandler:0000000000000032 .L0 
     /tmp/cc7jEFKv.s:2167   .text.PLIC_mmuart3_IRQHandler:0000000000000000 PLIC_mmuart3_IRQHandler
     /tmp/cc7jEFKv.s:2170   .text.PLIC_mmuart3_IRQHandler:0000000000000000 .L0 
     /tmp/cc7jEFKv.s:2171   .text.PLIC_mmuart3_IRQHandler:0000000000000000 .L0 
     /tmp/cc7jEFKv.s:2172   .text.PLIC_mmuart3_IRQHandler:0000000000000000 .L0 
     /tmp/cc7jEFKv.s:2173   .text.PLIC_mmuart3_IRQHandler:0000000000000000 .L0 
     /tmp/cc7jEFKv.s:2176   .text.PLIC_mmuart3_IRQHandler:000000000000000a .L0 
     /tmp/cc7jEFKv.s:2177   .text.PLIC_mmuart3_IRQHandler:000000000000000c .L0 
     /tmp/cc7jEFKv.s:2179   .text.PLIC_mmuart3_IRQHandler:000000000000000e .L0 
     /tmp/cc7jEFKv.s:2181   .text.PLIC_mmuart3_IRQHandler:000000000000000e .L0 
     /tmp/cc7jEFKv.s:2183   .text.PLIC_mmuart3_IRQHandler:0000000000000010 .L0 
     /tmp/cc7jEFKv.s:2185   .text.PLIC_mmuart3_IRQHandler:0000000000000018 .L0 
     /tmp/cc7jEFKv.s:2187   .text.PLIC_mmuart3_IRQHandler:000000000000001a .L0 
     /tmp/cc7jEFKv.s:2192   .text.PLIC_mmuart3_IRQHandler:000000000000002a .L0 
     /tmp/cc7jEFKv.s:2193   .text.PLIC_mmuart3_IRQHandler:000000000000002a .L0 
     /tmp/cc7jEFKv.s:2194   .text.PLIC_mmuart3_IRQHandler:000000000000002c .L0 
     /tmp/cc7jEFKv.s:2197   .text.PLIC_mmuart3_IRQHandler:0000000000000030 .L0 
     /tmp/cc7jEFKv.s:2199   .text.PLIC_mmuart3_IRQHandler:0000000000000032 .L0 
     /tmp/cc7jEFKv.s:2206   .text.PLIC_mmuart4_IRQHandler:0000000000000000 PLIC_mmuart4_IRQHandler
     /tmp/cc7jEFKv.s:2209   .text.PLIC_mmuart4_IRQHandler:0000000000000000 .L0 
     /tmp/cc7jEFKv.s:2210   .text.PLIC_mmuart4_IRQHandler:0000000000000000 .L0 
     /tmp/cc7jEFKv.s:2211   .text.PLIC_mmuart4_IRQHandler:0000000000000000 .L0 
     /tmp/cc7jEFKv.s:2212   .text.PLIC_mmuart4_IRQHandler:0000000000000000 .L0 
     /tmp/cc7jEFKv.s:2215   .text.PLIC_mmuart4_IRQHandler:000000000000000a .L0 
     /tmp/cc7jEFKv.s:2216   .text.PLIC_mmuart4_IRQHandler:000000000000000c .L0 
     /tmp/cc7jEFKv.s:2218   .text.PLIC_mmuart4_IRQHandler:000000000000000e .L0 
     /tmp/cc7jEFKv.s:2220   .text.PLIC_mmuart4_IRQHandler:000000000000000e .L0 
     /tmp/cc7jEFKv.s:2222   .text.PLIC_mmuart4_IRQHandler:0000000000000010 .L0 
     /tmp/cc7jEFKv.s:2224   .text.PLIC_mmuart4_IRQHandler:0000000000000018 .L0 
     /tmp/cc7jEFKv.s:2226   .text.PLIC_mmuart4_IRQHandler:000000000000001a .L0 
     /tmp/cc7jEFKv.s:2231   .text.PLIC_mmuart4_IRQHandler:000000000000002a .L0 
     /tmp/cc7jEFKv.s:2232   .text.PLIC_mmuart4_IRQHandler:000000000000002a .L0 
     /tmp/cc7jEFKv.s:2233   .text.PLIC_mmuart4_IRQHandler:000000000000002c .L0 
     /tmp/cc7jEFKv.s:2236   .text.PLIC_mmuart4_IRQHandler:0000000000000030 .L0 
     /tmp/cc7jEFKv.s:2238   .text.PLIC_mmuart4_IRQHandler:0000000000000032 .L0 
     /tmp/cc7jEFKv.s:2245   .text.E51_mmuart0_local_IRQHandler:0000000000000000 E51_mmuart0_local_IRQHandler
     /tmp/cc7jEFKv.s:2248   .text.E51_mmuart0_local_IRQHandler:0000000000000000 .L0 
     /tmp/cc7jEFKv.s:2249   .text.E51_mmuart0_local_IRQHandler:0000000000000000 .L0 
     /tmp/cc7jEFKv.s:2250   .text.E51_mmuart0_local_IRQHandler:0000000000000000 .L0 
     /tmp/cc7jEFKv.s:2251   .text.E51_mmuart0_local_IRQHandler:0000000000000000 .L0 
     /tmp/cc7jEFKv.s:2254   .text.E51_mmuart0_local_IRQHandler:000000000000000a .L0 
     /tmp/cc7jEFKv.s:2256   .text.E51_mmuart0_local_IRQHandler:0000000000000012 .L0 
     /tmp/cc7jEFKv.s:2259   .text.E51_mmuart0_local_IRQHandler:0000000000000016 .L0 
     /tmp/cc7jEFKv.s:2263   .text.E51_mmuart0_local_IRQHandler:0000000000000026 .L0 
     /tmp/cc7jEFKv.s:2270   .text.U54_1_mmuart1_local_IRQHandler:0000000000000000 U54_1_mmuart1_local_IRQHandler
     /tmp/cc7jEFKv.s:2273   .text.U54_1_mmuart1_local_IRQHandler:0000000000000000 .L0 
     /tmp/cc7jEFKv.s:2274   .text.U54_1_mmuart1_local_IRQHandler:0000000000000000 .L0 
     /tmp/cc7jEFKv.s:2275   .text.U54_1_mmuart1_local_IRQHandler:0000000000000000 .L0 
     /tmp/cc7jEFKv.s:2276   .text.U54_1_mmuart1_local_IRQHandler:0000000000000000 .L0 
     /tmp/cc7jEFKv.s:2279   .text.U54_1_mmuart1_local_IRQHandler:000000000000000a .L0 
     /tmp/cc7jEFKv.s:2281   .text.U54_1_mmuart1_local_IRQHandler:0000000000000012 .L0 
     /tmp/cc7jEFKv.s:2283   .text.U54_1_mmuart1_local_IRQHandler:0000000000000014 .L0 
     /tmp/cc7jEFKv.s:2285   .text.U54_1_mmuart1_local_IRQHandler:0000000000000016 .L0 
     /tmp/cc7jEFKv.s:2289   .text.U54_1_mmuart1_local_IRQHandler:0000000000000026 .L0 
     /tmp/cc7jEFKv.s:2296   .text.U54_2_mmuart2_local_IRQHandler:0000000000000000 U54_2_mmuart2_local_IRQHandler
     /tmp/cc7jEFKv.s:2299   .text.U54_2_mmuart2_local_IRQHandler:0000000000000000 .L0 
     /tmp/cc7jEFKv.s:2300   .text.U54_2_mmuart2_local_IRQHandler:0000000000000000 .L0 
     /tmp/cc7jEFKv.s:2301   .text.U54_2_mmuart2_local_IRQHandler:0000000000000000 .L0 
     /tmp/cc7jEFKv.s:2302   .text.U54_2_mmuart2_local_IRQHandler:0000000000000000 .L0 
     /tmp/cc7jEFKv.s:2305   .text.U54_2_mmuart2_local_IRQHandler:000000000000000a .L0 
     /tmp/cc7jEFKv.s:2307   .text.U54_2_mmuart2_local_IRQHandler:0000000000000012 .L0 
     /tmp/cc7jEFKv.s:2309   .text.U54_2_mmuart2_local_IRQHandler:0000000000000014 .L0 
     /tmp/cc7jEFKv.s:2311   .text.U54_2_mmuart2_local_IRQHandler:0000000000000016 .L0 
     /tmp/cc7jEFKv.s:2315   .text.U54_2_mmuart2_local_IRQHandler:0000000000000026 .L0 
     /tmp/cc7jEFKv.s:2322   .text.U54_3_mmuart3_local_IRQHandler:0000000000000000 U54_3_mmuart3_local_IRQHandler
     /tmp/cc7jEFKv.s:2325   .text.U54_3_mmuart3_local_IRQHandler:0000000000000000 .L0 
     /tmp/cc7jEFKv.s:2326   .text.U54_3_mmuart3_local_IRQHandler:0000000000000000 .L0 
     /tmp/cc7jEFKv.s:2327   .text.U54_3_mmuart3_local_IRQHandler:0000000000000000 .L0 
     /tmp/cc7jEFKv.s:2328   .text.U54_3_mmuart3_local_IRQHandler:0000000000000000 .L0 
     /tmp/cc7jEFKv.s:2331   .text.U54_3_mmuart3_local_IRQHandler:000000000000000a .L0 
     /tmp/cc7jEFKv.s:2333   .text.U54_3_mmuart3_local_IRQHandler:0000000000000012 .L0 
     /tmp/cc7jEFKv.s:2335   .text.U54_3_mmuart3_local_IRQHandler:0000000000000014 .L0 
     /tmp/cc7jEFKv.s:2337   .text.U54_3_mmuart3_local_IRQHandler:0000000000000016 .L0 
     /tmp/cc7jEFKv.s:2341   .text.U54_3_mmuart3_local_IRQHandler:0000000000000026 .L0 
     /tmp/cc7jEFKv.s:2348   .text.U54_4_mmuart4_local_IRQHandler:0000000000000000 U54_4_mmuart4_local_IRQHandler
     /tmp/cc7jEFKv.s:2351   .text.U54_4_mmuart4_local_IRQHandler:0000000000000000 .L0 
     /tmp/cc7jEFKv.s:2352   .text.U54_4_mmuart4_local_IRQHandler:0000000000000000 .L0 
     /tmp/cc7jEFKv.s:2353   .text.U54_4_mmuart4_local_IRQHandler:0000000000000000 .L0 
     /tmp/cc7jEFKv.s:2354   .text.U54_4_mmuart4_local_IRQHandler:0000000000000000 .L0 
     /tmp/cc7jEFKv.s:2357   .text.U54_4_mmuart4_local_IRQHandler:000000000000000a .L0 
     /tmp/cc7jEFKv.s:2359   .text.U54_4_mmuart4_local_IRQHandler:0000000000000012 .L0 
     /tmp/cc7jEFKv.s:2361   .text.U54_4_mmuart4_local_IRQHandler:0000000000000014 .L0 
     /tmp/cc7jEFKv.s:2363   .text.U54_4_mmuart4_local_IRQHandler:0000000000000016 .L0 
     /tmp/cc7jEFKv.s:2367   .text.U54_4_mmuart4_local_IRQHandler:0000000000000026 .L0 
     /tmp/cc7jEFKv.s:2374   .text.MSS_UART_set_rxstatus_handler:0000000000000000 MSS_UART_set_rxstatus_handler
     /tmp/cc7jEFKv.s:2377   .text.MSS_UART_set_rxstatus_handler:0000000000000000 .L0 
     /tmp/cc7jEFKv.s:2379   .text.MSS_UART_set_rxstatus_handler:0000000000000000 .L0 
     /tmp/cc7jEFKv.s:2380   .text.MSS_UART_set_rxstatus_handler:0000000000000000 .L0 
     /tmp/cc7jEFKv.s:2381   .text.MSS_UART_set_rxstatus_handler:0000000000000000 .L0 
     /tmp/cc7jEFKv.s:2382   .text.MSS_UART_set_rxstatus_handler:0000000000000000 .L0 
     /tmp/cc7jEFKv.s:2384   .text.MSS_UART_set_rxstatus_handler:0000000000000002 .L0 
     /tmp/cc7jEFKv.s:2385   .text.MSS_UART_set_rxstatus_handler:0000000000000002 .L0 
     /tmp/cc7jEFKv.s:2387   .text.MSS_UART_set_rxstatus_handler:0000000000000004 .L0 
     /tmp/cc7jEFKv.s:2389   .text.MSS_UART_set_rxstatus_handler:0000000000000006 .L0 
     /tmp/cc7jEFKv.s:2390   .text.MSS_UART_set_rxstatus_handler:0000000000000006 .L0 
     /tmp/cc7jEFKv.s:2394   .text.MSS_UART_set_rxstatus_handler:0000000000000012 .L0 
     /tmp/cc7jEFKv.s:2398   .text.MSS_UART_set_rxstatus_handler:000000000000001a .L0 
     /tmp/cc7jEFKv.s:2399   .text.MSS_UART_set_rxstatus_handler:000000000000001c .L0 
     /tmp/cc7jEFKv.s:2406   .text.MSS_UART_set_tx_handler:0000000000000000 MSS_UART_set_tx_handler
     /tmp/cc7jEFKv.s:2409   .text.MSS_UART_set_tx_handler:0000000000000000 .L0 
     /tmp/cc7jEFKv.s:2411   .text.MSS_UART_set_tx_handler:0000000000000000 .L0 
     /tmp/cc7jEFKv.s:2412   .text.MSS_UART_set_tx_handler:0000000000000000 .L0 
     /tmp/cc7jEFKv.s:2413   .text.MSS_UART_set_tx_handler:0000000000000000 .L0 
     /tmp/cc7jEFKv.s:2414   .text.MSS_UART_set_tx_handler:0000000000000000 .L0 
     /tmp/cc7jEFKv.s:2416   .text.MSS_UART_set_tx_handler:0000000000000002 .L0 
     /tmp/cc7jEFKv.s:2417   .text.MSS_UART_set_tx_handler:0000000000000002 .L0 
     /tmp/cc7jEFKv.s:2419   .text.MSS_UART_set_tx_handler:0000000000000004 .L0 
     /tmp/cc7jEFKv.s:2421   .text.MSS_UART_set_tx_handler:0000000000000006 .L0 
     /tmp/cc7jEFKv.s:2422   .text.MSS_UART_set_tx_handler:0000000000000006 .L0 
     /tmp/cc7jEFKv.s:2424   .text.MSS_UART_set_tx_handler:000000000000000a .L0 
     /tmp/cc7jEFKv.s:2425   .text.MSS_UART_set_tx_handler:000000000000000a .L0 
     /tmp/cc7jEFKv.s:2427   .text.MSS_UART_set_tx_handler:000000000000000e .L0 
     /tmp/cc7jEFKv.s:2429   .text.MSS_UART_set_tx_handler:0000000000000012 .L0 
     /tmp/cc7jEFKv.s:2430   .text.MSS_UART_set_tx_handler:0000000000000012 .L0 
     /tmp/cc7jEFKv.s:2433   .text.MSS_UART_set_tx_handler:000000000000001a .L0 
     /tmp/cc7jEFKv.s:2437   .text.MSS_UART_set_tx_handler:0000000000000022 .L0 
     /tmp/cc7jEFKv.s:2438   .text.MSS_UART_set_tx_handler:0000000000000024 .L0 
     /tmp/cc7jEFKv.s:2445   .text.MSS_UART_set_modemstatus_handler:0000000000000000 MSS_UART_set_modemstatus_handler
     /tmp/cc7jEFKv.s:2448   .text.MSS_UART_set_modemstatus_handler:0000000000000000 .L0 
     /tmp/cc7jEFKv.s:2450   .text.MSS_UART_set_modemstatus_handler:0000000000000000 .L0 
     /tmp/cc7jEFKv.s:2451   .text.MSS_UART_set_modemstatus_handler:0000000000000000 .L0 
     /tmp/cc7jEFKv.s:2452   .text.MSS_UART_set_modemstatus_handler:0000000000000000 .L0 
     /tmp/cc7jEFKv.s:2453   .text.MSS_UART_set_modemstatus_handler:0000000000000000 .L0 
     /tmp/cc7jEFKv.s:2455   .text.MSS_UART_set_modemstatus_handler:0000000000000002 .L0 
     /tmp/cc7jEFKv.s:2456   .text.MSS_UART_set_modemstatus_handler:0000000000000002 .L0 
     /tmp/cc7jEFKv.s:2458   .text.MSS_UART_set_modemstatus_handler:0000000000000004 .L0 
     /tmp/cc7jEFKv.s:2460   .text.MSS_UART_set_modemstatus_handler:0000000000000006 .L0 
     /tmp/cc7jEFKv.s:2461   .text.MSS_UART_set_modemstatus_handler:0000000000000006 .L0 
     /tmp/cc7jEFKv.s:2465   .text.MSS_UART_set_modemstatus_handler:0000000000000012 .L0 
     /tmp/cc7jEFKv.s:2469   .text.MSS_UART_set_modemstatus_handler:000000000000001a .L0 
     /tmp/cc7jEFKv.s:2470   .text.MSS_UART_set_modemstatus_handler:000000000000001c .L0 
     /tmp/cc7jEFKv.s:2477   .text.MSS_UART_fill_tx_fifo:0000000000000000 MSS_UART_fill_tx_fifo
     /tmp/cc7jEFKv.s:2480   .text.MSS_UART_fill_tx_fifo:0000000000000000 .L0 
     /tmp/cc7jEFKv.s:2482   .text.MSS_UART_fill_tx_fifo:0000000000000000 .L0 
     /tmp/cc7jEFKv.s:2483   .text.MSS_UART_fill_tx_fifo:0000000000000000 .L0 
     /tmp/cc7jEFKv.s:2484   .text.MSS_UART_fill_tx_fifo:0000000000000000 .L0 
     /tmp/cc7jEFKv.s:2485   .text.MSS_UART_fill_tx_fifo:0000000000000000 .L0 
     /tmp/cc7jEFKv.s:2486   .text.MSS_UART_fill_tx_fifo:0000000000000000 .L0 
     /tmp/cc7jEFKv.s:2487   .text.MSS_UART_fill_tx_fifo:0000000000000000 .L0 
     /tmp/cc7jEFKv.s:2488   .text.MSS_UART_fill_tx_fifo:0000000000000000 .L0 
     /tmp/cc7jEFKv.s:2490   .text.MSS_UART_fill_tx_fifo:0000000000000002 .L0 
     /tmp/cc7jEFKv.s:2492   .text.MSS_UART_fill_tx_fifo:0000000000000004 .L0 
     /tmp/cc7jEFKv.s:2493   .text.MSS_UART_fill_tx_fifo:0000000000000004 .L0 
     /tmp/cc7jEFKv.s:2495   .text.MSS_UART_fill_tx_fifo:0000000000000006 .L0 
     /tmp/cc7jEFKv.s:2497   .text.MSS_UART_fill_tx_fifo:000000000000000a .L0 
     /tmp/cc7jEFKv.s:2501   .text.MSS_UART_fill_tx_fifo:0000000000000012 .L0 
     /tmp/cc7jEFKv.s:2502   .text.MSS_UART_fill_tx_fifo:0000000000000012 .L0 
     /tmp/cc7jEFKv.s:2505   .text.MSS_UART_fill_tx_fifo:0000000000000018 .L0 
     /tmp/cc7jEFKv.s:2506   .text.MSS_UART_fill_tx_fifo:0000000000000018 .L0 
     /tmp/cc7jEFKv.s:2512   .text.MSS_UART_fill_tx_fifo:000000000000001e .L0 
     /tmp/cc7jEFKv.s:2513   .text.MSS_UART_fill_tx_fifo:000000000000001e .L0 
     /tmp/cc7jEFKv.s:2514   .text.MSS_UART_fill_tx_fifo:000000000000001e .L0 
     /tmp/cc7jEFKv.s:2522   .text.MSS_UART_fill_tx_fifo:0000000000000028 .L0 
     /tmp/cc7jEFKv.s:2523   .text.MSS_UART_fill_tx_fifo:0000000000000028 .L0 
     /tmp/cc7jEFKv.s:2527   .text.MSS_UART_fill_tx_fifo:000000000000002a .L0 
     /tmp/cc7jEFKv.s:2528   .text.MSS_UART_fill_tx_fifo:000000000000002a .L0 
     /tmp/cc7jEFKv.s:2535   .text.MSS_UART_fill_tx_fifo:0000000000000038 .L0 
     /tmp/cc7jEFKv.s:2537   .text.MSS_UART_fill_tx_fifo:000000000000003c .L0 
     /tmp/cc7jEFKv.s:2543   .text.MSS_UART_fill_tx_fifo:0000000000000044 .L0 
     /tmp/cc7jEFKv.s:2544   .text.MSS_UART_fill_tx_fifo:0000000000000044 .L0 
     /tmp/cc7jEFKv.s:2551   .text.MSS_UART_fill_tx_fifo:000000000000004a .L0 
     /tmp/cc7jEFKv.s:2554   .text.MSS_UART_fill_tx_fifo:000000000000004e .L0 
     /tmp/cc7jEFKv.s:2561   .text.MSS_UART_get_rx_status:0000000000000000 MSS_UART_get_rx_status
     /tmp/cc7jEFKv.s:2564   .text.MSS_UART_get_rx_status:0000000000000000 .L0 
     /tmp/cc7jEFKv.s:2566   .text.MSS_UART_get_rx_status:0000000000000000 .L0 
     /tmp/cc7jEFKv.s:2567   .text.MSS_UART_get_rx_status:0000000000000000 .L0 
     /tmp/cc7jEFKv.s:2568   .text.MSS_UART_get_rx_status:0000000000000000 .L0 
     /tmp/cc7jEFKv.s:2569   .text.MSS_UART_get_rx_status:0000000000000000 .L0 
     /tmp/cc7jEFKv.s:2570   .text.MSS_UART_get_rx_status:0000000000000000 .L0 
     /tmp/cc7jEFKv.s:2572   .text.MSS_UART_get_rx_status:0000000000000002 .L0 
     /tmp/cc7jEFKv.s:2574   .text.MSS_UART_get_rx_status:0000000000000006 .L0 
     /tmp/cc7jEFKv.s:2576   .text.MSS_UART_get_rx_status:000000000000000a .L0 
     /tmp/cc7jEFKv.s:2578   .text.MSS_UART_get_rx_status:000000000000000e .L0 
     /tmp/cc7jEFKv.s:2581   .text.MSS_UART_get_rx_status:0000000000000010 .L0 
     /tmp/cc7jEFKv.s:2582   .text.MSS_UART_get_rx_status:0000000000000010 .L0 
     /tmp/cc7jEFKv.s:2583   .text.MSS_UART_get_rx_status:0000000000000010 .L0 
     /tmp/cc7jEFKv.s:2586   .text.MSS_UART_get_rx_status:0000000000000016 .L0 
     /tmp/cc7jEFKv.s:2593   .text.MSS_UART_get_modem_status:0000000000000000 MSS_UART_get_modem_status
     /tmp/cc7jEFKv.s:2596   .text.MSS_UART_get_modem_status:0000000000000000 .L0 
     /tmp/cc7jEFKv.s:2598   .text.MSS_UART_get_modem_status:0000000000000000 .L0 
     /tmp/cc7jEFKv.s:2599   .text.MSS_UART_get_modem_status:0000000000000000 .L0 
     /tmp/cc7jEFKv.s:2600   .text.MSS_UART_get_modem_status:0000000000000000 .L0 
     /tmp/cc7jEFKv.s:2601   .text.MSS_UART_get_modem_status:0000000000000000 .L0 
     /tmp/cc7jEFKv.s:2603   .text.MSS_UART_get_modem_status:0000000000000002 .L0 
     /tmp/cc7jEFKv.s:2606   .text.MSS_UART_get_modem_status:0000000000000006 .L0 
     /tmp/cc7jEFKv.s:2607   .text.MSS_UART_get_modem_status:0000000000000006 .L0 
     /tmp/cc7jEFKv.s:2608   .text.MSS_UART_get_modem_status:0000000000000008 .L0 
     /tmp/cc7jEFKv.s:2615   .text.MSS_UART_get_tx_status:0000000000000000 MSS_UART_get_tx_status
     /tmp/cc7jEFKv.s:2618   .text.MSS_UART_get_tx_status:0000000000000000 .L0 
     /tmp/cc7jEFKv.s:2620   .text.MSS_UART_get_tx_status:0000000000000000 .L0 
     /tmp/cc7jEFKv.s:2621   .text.MSS_UART_get_tx_status:0000000000000000 .L0 
     /tmp/cc7jEFKv.s:2622   .text.MSS_UART_get_tx_status:0000000000000000 .L0 
     /tmp/cc7jEFKv.s:2623   .text.MSS_UART_get_tx_status:0000000000000000 .L0 
     /tmp/cc7jEFKv.s:2625   .text.MSS_UART_get_tx_status:0000000000000002 .L0 
     /tmp/cc7jEFKv.s:2627   .text.MSS_UART_get_tx_status:0000000000000006 .L0 
     /tmp/cc7jEFKv.s:2631   .text.MSS_UART_get_tx_status:000000000000000e .L0 
     /tmp/cc7jEFKv.s:2632   .text.MSS_UART_get_tx_status:000000000000000e .L0 
     /tmp/cc7jEFKv.s:2636   .text.MSS_UART_get_tx_status:0000000000000014 .L0 
     /tmp/cc7jEFKv.s:2637   .text.MSS_UART_get_tx_status:0000000000000014 .L0 
     /tmp/cc7jEFKv.s:2638   .text.MSS_UART_get_tx_status:0000000000000014 .L0 
     /tmp/cc7jEFKv.s:2641   .text.MSS_UART_get_tx_status:000000000000001a .L0 
     /tmp/cc7jEFKv.s:2648   .text.MSS_UART_set_break:0000000000000000 MSS_UART_set_break
     /tmp/cc7jEFKv.s:2651   .text.MSS_UART_set_break:0000000000000000 .L0 
     /tmp/cc7jEFKv.s:2653   .text.MSS_UART_set_break:0000000000000000 .L0 
     /tmp/cc7jEFKv.s:2654   .text.MSS_UART_set_break:0000000000000000 .L0 
     /tmp/cc7jEFKv.s:2655   .text.MSS_UART_set_break:0000000000000000 .L0 
     /tmp/cc7jEFKv.s:2657   .text.MSS_UART_set_break:0000000000000002 .L0 
     /tmp/cc7jEFKv.s:2661   .text.MSS_UART_set_break:000000000000000e .L0 
     /tmp/cc7jEFKv.s:2662   .text.MSS_UART_set_break:0000000000000010 .L0 
     /tmp/cc7jEFKv.s:2669   .text.MSS_UART_clear_break:0000000000000000 MSS_UART_clear_break
     /tmp/cc7jEFKv.s:2672   .text.MSS_UART_clear_break:0000000000000000 .L0 
     /tmp/cc7jEFKv.s:2674   .text.MSS_UART_clear_break:0000000000000000 .L0 
     /tmp/cc7jEFKv.s:2675   .text.MSS_UART_clear_break:0000000000000000 .L0 
     /tmp/cc7jEFKv.s:2676   .text.MSS_UART_clear_break:0000000000000000 .L0 
     /tmp/cc7jEFKv.s:2678   .text.MSS_UART_clear_break:0000000000000002 .L0 
     /tmp/cc7jEFKv.s:2682   .text.MSS_UART_clear_break:000000000000000e .L0 
     /tmp/cc7jEFKv.s:2683   .text.MSS_UART_clear_break:0000000000000010 .L0 
     /tmp/cc7jEFKv.s:2690   .text.MSS_UART_set_pidpei_handler:0000000000000000 MSS_UART_set_pidpei_handler
     /tmp/cc7jEFKv.s:2693   .text.MSS_UART_set_pidpei_handler:0000000000000000 .L0 
     /tmp/cc7jEFKv.s:2695   .text.MSS_UART_set_pidpei_handler:0000000000000000 .L0 
     /tmp/cc7jEFKv.s:2696   .text.MSS_UART_set_pidpei_handler:0000000000000000 .L0 
     /tmp/cc7jEFKv.s:2697   .text.MSS_UART_set_pidpei_handler:0000000000000000 .L0 
     /tmp/cc7jEFKv.s:2698   .text.MSS_UART_set_pidpei_handler:0000000000000000 .L0 
     /tmp/cc7jEFKv.s:2700   .text.MSS_UART_set_pidpei_handler:0000000000000002 .L0 
     /tmp/cc7jEFKv.s:2701   .text.MSS_UART_set_pidpei_handler:0000000000000002 .L0 
     /tmp/cc7jEFKv.s:2703   .text.MSS_UART_set_pidpei_handler:0000000000000004 .L0 
     /tmp/cc7jEFKv.s:2705   .text.MSS_UART_set_pidpei_handler:0000000000000006 .L0 
     /tmp/cc7jEFKv.s:2706   .text.MSS_UART_set_pidpei_handler:0000000000000006 .L0 
     /tmp/cc7jEFKv.s:2710   .text.MSS_UART_set_pidpei_handler:0000000000000012 .L0 
     /tmp/cc7jEFKv.s:2714   .text.MSS_UART_set_pidpei_handler:000000000000001a .L0 
     /tmp/cc7jEFKv.s:2715   .text.MSS_UART_set_pidpei_handler:000000000000001c .L0 
     /tmp/cc7jEFKv.s:2722   .text.MSS_UART_set_linbreak_handler:0000000000000000 MSS_UART_set_linbreak_handler
     /tmp/cc7jEFKv.s:2725   .text.MSS_UART_set_linbreak_handler:0000000000000000 .L0 
     /tmp/cc7jEFKv.s:2727   .text.MSS_UART_set_linbreak_handler:0000000000000000 .L0 
     /tmp/cc7jEFKv.s:2728   .text.MSS_UART_set_linbreak_handler:0000000000000000 .L0 
     /tmp/cc7jEFKv.s:2729   .text.MSS_UART_set_linbreak_handler:0000000000000000 .L0 
     /tmp/cc7jEFKv.s:2730   .text.MSS_UART_set_linbreak_handler:0000000000000000 .L0 
     /tmp/cc7jEFKv.s:2732   .text.MSS_UART_set_linbreak_handler:0000000000000002 .L0 
     /tmp/cc7jEFKv.s:2733   .text.MSS_UART_set_linbreak_handler:0000000000000002 .L0 
     /tmp/cc7jEFKv.s:2735   .text.MSS_UART_set_linbreak_handler:0000000000000004 .L0 
     /tmp/cc7jEFKv.s:2737   .text.MSS_UART_set_linbreak_handler:0000000000000006 .L0 
     /tmp/cc7jEFKv.s:2738   .text.MSS_UART_set_linbreak_handler:0000000000000006 .L0 
     /tmp/cc7jEFKv.s:2742   .text.MSS_UART_set_linbreak_handler:0000000000000012 .L0 
     /tmp/cc7jEFKv.s:2746   .text.MSS_UART_set_linbreak_handler:000000000000001a .L0 
     /tmp/cc7jEFKv.s:2747   .text.MSS_UART_set_linbreak_handler:000000000000001c .L0 
     /tmp/cc7jEFKv.s:2754   .text.MSS_UART_set_linsync_handler:0000000000000000 MSS_UART_set_linsync_handler
     /tmp/cc7jEFKv.s:2757   .text.MSS_UART_set_linsync_handler:0000000000000000 .L0 
     /tmp/cc7jEFKv.s:2759   .text.MSS_UART_set_linsync_handler:0000000000000000 .L0 
     /tmp/cc7jEFKv.s:2760   .text.MSS_UART_set_linsync_handler:0000000000000000 .L0 
     /tmp/cc7jEFKv.s:2761   .text.MSS_UART_set_linsync_handler:0000000000000000 .L0 
     /tmp/cc7jEFKv.s:2762   .text.MSS_UART_set_linsync_handler:0000000000000000 .L0 
     /tmp/cc7jEFKv.s:2764   .text.MSS_UART_set_linsync_handler:0000000000000002 .L0 
     /tmp/cc7jEFKv.s:2765   .text.MSS_UART_set_linsync_handler:0000000000000002 .L0 
     /tmp/cc7jEFKv.s:2767   .text.MSS_UART_set_linsync_handler:0000000000000004 .L0 
     /tmp/cc7jEFKv.s:2769   .text.MSS_UART_set_linsync_handler:0000000000000006 .L0 
     /tmp/cc7jEFKv.s:2770   .text.MSS_UART_set_linsync_handler:0000000000000006 .L0 
     /tmp/cc7jEFKv.s:2774   .text.MSS_UART_set_linsync_handler:0000000000000012 .L0 
     /tmp/cc7jEFKv.s:2778   .text.MSS_UART_set_linsync_handler:000000000000001a .L0 
     /tmp/cc7jEFKv.s:2779   .text.MSS_UART_set_linsync_handler:000000000000001c .L0 
     /tmp/cc7jEFKv.s:2786   .text.MSS_UART_set_nack_handler:0000000000000000 MSS_UART_set_nack_handler
     /tmp/cc7jEFKv.s:2789   .text.MSS_UART_set_nack_handler:0000000000000000 .L0 
     /tmp/cc7jEFKv.s:2791   .text.MSS_UART_set_nack_handler:0000000000000000 .L0 
     /tmp/cc7jEFKv.s:2792   .text.MSS_UART_set_nack_handler:0000000000000000 .L0 
     /tmp/cc7jEFKv.s:2793   .text.MSS_UART_set_nack_handler:0000000000000000 .L0 
     /tmp/cc7jEFKv.s:2794   .text.MSS_UART_set_nack_handler:0000000000000000 .L0 
     /tmp/cc7jEFKv.s:2796   .text.MSS_UART_set_nack_handler:0000000000000002 .L0 
     /tmp/cc7jEFKv.s:2797   .text.MSS_UART_set_nack_handler:0000000000000002 .L0 
     /tmp/cc7jEFKv.s:2799   .text.MSS_UART_set_nack_handler:0000000000000004 .L0 
     /tmp/cc7jEFKv.s:2801   .text.MSS_UART_set_nack_handler:0000000000000006 .L0 
     /tmp/cc7jEFKv.s:2802   .text.MSS_UART_set_nack_handler:0000000000000006 .L0 
     /tmp/cc7jEFKv.s:2806   .text.MSS_UART_set_nack_handler:0000000000000012 .L0 
     /tmp/cc7jEFKv.s:2810   .text.MSS_UART_set_nack_handler:000000000000001a .L0 
     /tmp/cc7jEFKv.s:2811   .text.MSS_UART_set_nack_handler:000000000000001c .L0 
     /tmp/cc7jEFKv.s:2818   .text.MSS_UART_set_rx_timeout_handler:0000000000000000 MSS_UART_set_rx_timeout_handler
     /tmp/cc7jEFKv.s:2821   .text.MSS_UART_set_rx_timeout_handler:0000000000000000 .L0 
     /tmp/cc7jEFKv.s:2823   .text.MSS_UART_set_rx_timeout_handler:0000000000000000 .L0 
     /tmp/cc7jEFKv.s:2824   .text.MSS_UART_set_rx_timeout_handler:0000000000000000 .L0 
     /tmp/cc7jEFKv.s:2825   .text.MSS_UART_set_rx_timeout_handler:0000000000000000 .L0 
     /tmp/cc7jEFKv.s:2826   .text.MSS_UART_set_rx_timeout_handler:0000000000000000 .L0 
     /tmp/cc7jEFKv.s:2828   .text.MSS_UART_set_rx_timeout_handler:0000000000000002 .L0 
     /tmp/cc7jEFKv.s:2829   .text.MSS_UART_set_rx_timeout_handler:0000000000000002 .L0 
     /tmp/cc7jEFKv.s:2831   .text.MSS_UART_set_rx_timeout_handler:0000000000000004 .L0 
     /tmp/cc7jEFKv.s:2833   .text.MSS_UART_set_rx_timeout_handler:0000000000000006 .L0 
     /tmp/cc7jEFKv.s:2834   .text.MSS_UART_set_rx_timeout_handler:0000000000000006 .L0 
     /tmp/cc7jEFKv.s:2838   .text.MSS_UART_set_rx_timeout_handler:0000000000000012 .L0 
     /tmp/cc7jEFKv.s:2842   .text.MSS_UART_set_rx_timeout_handler:000000000000001a .L0 
     /tmp/cc7jEFKv.s:2843   .text.MSS_UART_set_rx_timeout_handler:000000000000001c .L0 
     /tmp/cc7jEFKv.s:2850   .text.MSS_UART_enable_half_duplex:0000000000000000 MSS_UART_enable_half_duplex
     /tmp/cc7jEFKv.s:2853   .text.MSS_UART_enable_half_duplex:0000000000000000 .L0 
     /tmp/cc7jEFKv.s:2855   .text.MSS_UART_enable_half_duplex:0000000000000000 .L0 
     /tmp/cc7jEFKv.s:2856   .text.MSS_UART_enable_half_duplex:0000000000000000 .L0 
     /tmp/cc7jEFKv.s:2857   .text.MSS_UART_enable_half_duplex:0000000000000000 .L0 
     /tmp/cc7jEFKv.s:2859   .text.MSS_UART_enable_half_duplex:0000000000000002 .L0 
     /tmp/cc7jEFKv.s:2863   .text.MSS_UART_enable_half_duplex:000000000000000e .L0 
     /tmp/cc7jEFKv.s:2864   .text.MSS_UART_enable_half_duplex:0000000000000010 .L0 
     /tmp/cc7jEFKv.s:2871   .text.MSS_UART_disable_half_duplex:0000000000000000 MSS_UART_disable_half_duplex
     /tmp/cc7jEFKv.s:2874   .text.MSS_UART_disable_half_duplex:0000000000000000 .L0 
     /tmp/cc7jEFKv.s:2876   .text.MSS_UART_disable_half_duplex:0000000000000000 .L0 
     /tmp/cc7jEFKv.s:2877   .text.MSS_UART_disable_half_duplex:0000000000000000 .L0 
     /tmp/cc7jEFKv.s:2878   .text.MSS_UART_disable_half_duplex:0000000000000000 .L0 
     /tmp/cc7jEFKv.s:2880   .text.MSS_UART_disable_half_duplex:0000000000000002 .L0 
     /tmp/cc7jEFKv.s:2884   .text.MSS_UART_disable_half_duplex:000000000000000e .L0 
     /tmp/cc7jEFKv.s:2885   .text.MSS_UART_disable_half_duplex:0000000000000010 .L0 
     /tmp/cc7jEFKv.s:2892   .text.MSS_UART_set_rx_endian:0000000000000000 MSS_UART_set_rx_endian
     /tmp/cc7jEFKv.s:2895   .text.MSS_UART_set_rx_endian:0000000000000000 .L0 
     /tmp/cc7jEFKv.s:2897   .text.MSS_UART_set_rx_endian:0000000000000000 .L0 
     /tmp/cc7jEFKv.s:2898   .text.MSS_UART_set_rx_endian:0000000000000000 .L0 
     /tmp/cc7jEFKv.s:2899   .text.MSS_UART_set_rx_endian:0000000000000000 .L0 
     /tmp/cc7jEFKv.s:2900   .text.MSS_UART_set_rx_endian:0000000000000000 .L0 
     /tmp/cc7jEFKv.s:2903   .text.MSS_UART_set_rx_endian:0000000000000006 .L0 
     /tmp/cc7jEFKv.s:2905   .text.MSS_UART_set_rx_endian:0000000000000008 .L0 
     /tmp/cc7jEFKv.s:2907   .text.MSS_UART_set_rx_endian:000000000000000c .L0 
     /tmp/cc7jEFKv.s:2909   .text.MSS_UART_set_rx_endian:000000000000000e .L0 
     /tmp/cc7jEFKv.s:2912   .text.MSS_UART_set_rx_endian:0000000000000012 .L0 
     /tmp/cc7jEFKv.s:2915   .text.MSS_UART_set_rx_endian:0000000000000016 .L0 
     /tmp/cc7jEFKv.s:2918   .text.MSS_UART_set_rx_endian:0000000000000018 .L0 
     /tmp/cc7jEFKv.s:2920   .text.MSS_UART_set_rx_endian:000000000000001e .L0 
     /tmp/cc7jEFKv.s:2927   .text.MSS_UART_set_tx_endian:0000000000000000 MSS_UART_set_tx_endian
     /tmp/cc7jEFKv.s:2930   .text.MSS_UART_set_tx_endian:0000000000000000 .L0 
     /tmp/cc7jEFKv.s:2932   .text.MSS_UART_set_tx_endian:0000000000000000 .L0 
     /tmp/cc7jEFKv.s:2933   .text.MSS_UART_set_tx_endian:0000000000000000 .L0 
     /tmp/cc7jEFKv.s:2934   .text.MSS_UART_set_tx_endian:0000000000000000 .L0 
     /tmp/cc7jEFKv.s:2935   .text.MSS_UART_set_tx_endian:0000000000000000 .L0 
     /tmp/cc7jEFKv.s:2938   .text.MSS_UART_set_tx_endian:0000000000000006 .L0 
     /tmp/cc7jEFKv.s:2940   .text.MSS_UART_set_tx_endian:0000000000000008 .L0 
     /tmp/cc7jEFKv.s:2942   .text.MSS_UART_set_tx_endian:000000000000000c .L0 
     /tmp/cc7jEFKv.s:2944   .text.MSS_UART_set_tx_endian:000000000000000e .L0 
     /tmp/cc7jEFKv.s:2947   .text.MSS_UART_set_tx_endian:0000000000000012 .L0 
     /tmp/cc7jEFKv.s:2950   .text.MSS_UART_set_tx_endian:0000000000000016 .L0 
     /tmp/cc7jEFKv.s:2953   .text.MSS_UART_set_tx_endian:0000000000000018 .L0 
     /tmp/cc7jEFKv.s:2955   .text.MSS_UART_set_tx_endian:000000000000001e .L0 
     /tmp/cc7jEFKv.s:2962   .text.MSS_UART_set_filter_length:0000000000000000 MSS_UART_set_filter_length
     /tmp/cc7jEFKv.s:2965   .text.MSS_UART_set_filter_length:0000000000000000 .L0 
     /tmp/cc7jEFKv.s:2967   .text.MSS_UART_set_filter_length:0000000000000000 .L0 
     /tmp/cc7jEFKv.s:2968   .text.MSS_UART_set_filter_length:0000000000000000 .L0 
     /tmp/cc7jEFKv.s:2969   .text.MSS_UART_set_filter_length:0000000000000000 .L0 
     /tmp/cc7jEFKv.s:2970   .text.MSS_UART_set_filter_length:0000000000000000 .L0 
     /tmp/cc7jEFKv.s:2973   .text.MSS_UART_set_filter_length:0000000000000006 .L0 
     /tmp/cc7jEFKv.s:2974   .text.MSS_UART_set_filter_length:0000000000000006 .L0 
     /tmp/cc7jEFKv.s:2976   .text.MSS_UART_set_filter_length:0000000000000008 .L0 
     /tmp/cc7jEFKv.s:2979   .text.MSS_UART_set_filter_length:000000000000000c .L0 
     /tmp/cc7jEFKv.s:2982   .text.MSS_UART_set_filter_length:0000000000000010 .L0 
     /tmp/cc7jEFKv.s:2983   .text.MSS_UART_set_filter_length:0000000000000012 .L0 
     /tmp/cc7jEFKv.s:2990   .text.MSS_UART_enable_afm:0000000000000000 MSS_UART_enable_afm
     /tmp/cc7jEFKv.s:2993   .text.MSS_UART_enable_afm:0000000000000000 .L0 
     /tmp/cc7jEFKv.s:2995   .text.MSS_UART_enable_afm:0000000000000000 .L0 
     /tmp/cc7jEFKv.s:2996   .text.MSS_UART_enable_afm:0000000000000000 .L0 
     /tmp/cc7jEFKv.s:2997   .text.MSS_UART_enable_afm:0000000000000000 .L0 
     /tmp/cc7jEFKv.s:2999   .text.MSS_UART_enable_afm:0000000000000002 .L0 
     /tmp/cc7jEFKv.s:3003   .text.MSS_UART_enable_afm:000000000000000e .L0 
     /tmp/cc7jEFKv.s:3004   .text.MSS_UART_enable_afm:0000000000000010 .L0 
     /tmp/cc7jEFKv.s:3011   .text.MSS_UART_disable_afm:0000000000000000 MSS_UART_disable_afm
     /tmp/cc7jEFKv.s:3014   .text.MSS_UART_disable_afm:0000000000000000 .L0 
     /tmp/cc7jEFKv.s:3016   .text.MSS_UART_disable_afm:0000000000000000 .L0 
     /tmp/cc7jEFKv.s:3017   .text.MSS_UART_disable_afm:0000000000000000 .L0 
     /tmp/cc7jEFKv.s:3018   .text.MSS_UART_disable_afm:0000000000000000 .L0 
     /tmp/cc7jEFKv.s:3020   .text.MSS_UART_disable_afm:0000000000000002 .L0 
     /tmp/cc7jEFKv.s:3024   .text.MSS_UART_disable_afm:000000000000000e .L0 
     /tmp/cc7jEFKv.s:3025   .text.MSS_UART_disable_afm:0000000000000010 .L0 
     /tmp/cc7jEFKv.s:3032   .text.MSS_UART_enable_afclear:0000000000000000 MSS_UART_enable_afclear
     /tmp/cc7jEFKv.s:3035   .text.MSS_UART_enable_afclear:0000000000000000 .L0 
     /tmp/cc7jEFKv.s:3037   .text.MSS_UART_enable_afclear:0000000000000000 .L0 
     /tmp/cc7jEFKv.s:3038   .text.MSS_UART_enable_afclear:0000000000000000 .L0 
     /tmp/cc7jEFKv.s:3039   .text.MSS_UART_enable_afclear:0000000000000000 .L0 
     /tmp/cc7jEFKv.s:3041   .text.MSS_UART_enable_afclear:0000000000000002 .L0 
     /tmp/cc7jEFKv.s:3045   .text.MSS_UART_enable_afclear:000000000000000e .L0 
     /tmp/cc7jEFKv.s:3046   .text.MSS_UART_enable_afclear:0000000000000010 .L0 
     /tmp/cc7jEFKv.s:3053   .text.MSS_UART_disable_afclear:0000000000000000 MSS_UART_disable_afclear
     /tmp/cc7jEFKv.s:3056   .text.MSS_UART_disable_afclear:0000000000000000 .L0 
     /tmp/cc7jEFKv.s:3058   .text.MSS_UART_disable_afclear:0000000000000000 .L0 
     /tmp/cc7jEFKv.s:3059   .text.MSS_UART_disable_afclear:0000000000000000 .L0 
     /tmp/cc7jEFKv.s:3060   .text.MSS_UART_disable_afclear:0000000000000000 .L0 
     /tmp/cc7jEFKv.s:3062   .text.MSS_UART_disable_afclear:0000000000000002 .L0 
     /tmp/cc7jEFKv.s:3066   .text.MSS_UART_disable_afclear:000000000000000e .L0 
     /tmp/cc7jEFKv.s:3067   .text.MSS_UART_disable_afclear:0000000000000010 .L0 
     /tmp/cc7jEFKv.s:3074   .text.MSS_UART_enable_rx_timeout:0000000000000000 MSS_UART_enable_rx_timeout
     /tmp/cc7jEFKv.s:3077   .text.MSS_UART_enable_rx_timeout:0000000000000000 .L0 
     /tmp/cc7jEFKv.s:3079   .text.MSS_UART_enable_rx_timeout:0000000000000000 .L0 
     /tmp/cc7jEFKv.s:3080   .text.MSS_UART_enable_rx_timeout:0000000000000000 .L0 
     /tmp/cc7jEFKv.s:3081   .text.MSS_UART_enable_rx_timeout:0000000000000000 .L0 
     /tmp/cc7jEFKv.s:3083   .text.MSS_UART_enable_rx_timeout:0000000000000002 .L0 
     /tmp/cc7jEFKv.s:3085   .text.MSS_UART_enable_rx_timeout:0000000000000006 .L0 
     /tmp/cc7jEFKv.s:3086   .text.MSS_UART_enable_rx_timeout:0000000000000006 .L0 
     /tmp/cc7jEFKv.s:3090   .text.MSS_UART_enable_rx_timeout:0000000000000012 .L0 
     /tmp/cc7jEFKv.s:3091   .text.MSS_UART_enable_rx_timeout:0000000000000014 .L0 
     /tmp/cc7jEFKv.s:3098   .text.MSS_UART_disable_rx_timeout:0000000000000000 MSS_UART_disable_rx_timeout
     /tmp/cc7jEFKv.s:3101   .text.MSS_UART_disable_rx_timeout:0000000000000000 .L0 
     /tmp/cc7jEFKv.s:3103   .text.MSS_UART_disable_rx_timeout:0000000000000000 .L0 
     /tmp/cc7jEFKv.s:3104   .text.MSS_UART_disable_rx_timeout:0000000000000000 .L0 
     /tmp/cc7jEFKv.s:3105   .text.MSS_UART_disable_rx_timeout:0000000000000000 .L0 
     /tmp/cc7jEFKv.s:3107   .text.MSS_UART_disable_rx_timeout:0000000000000002 .L0 
     /tmp/cc7jEFKv.s:3111   .text.MSS_UART_disable_rx_timeout:000000000000000e .L0 
     /tmp/cc7jEFKv.s:3112   .text.MSS_UART_disable_rx_timeout:0000000000000010 .L0 
     /tmp/cc7jEFKv.s:3119   .text.MSS_UART_enable_tx_time_guard:0000000000000000 MSS_UART_enable_tx_time_guard
     /tmp/cc7jEFKv.s:3122   .text.MSS_UART_enable_tx_time_guard:0000000000000000 .L0 
     /tmp/cc7jEFKv.s:3124   .text.MSS_UART_enable_tx_time_guard:0000000000000000 .L0 
     /tmp/cc7jEFKv.s:3125   .text.MSS_UART_enable_tx_time_guard:0000000000000000 .L0 
     /tmp/cc7jEFKv.s:3126   .text.MSS_UART_enable_tx_time_guard:0000000000000000 .L0 
     /tmp/cc7jEFKv.s:3128   .text.MSS_UART_enable_tx_time_guard:0000000000000002 .L0 
     /tmp/cc7jEFKv.s:3130   .text.MSS_UART_enable_tx_time_guard:0000000000000006 .L0 
     /tmp/cc7jEFKv.s:3131   .text.MSS_UART_enable_tx_time_guard:0000000000000006 .L0 
     /tmp/cc7jEFKv.s:3135   .text.MSS_UART_enable_tx_time_guard:0000000000000012 .L0 
     /tmp/cc7jEFKv.s:3136   .text.MSS_UART_enable_tx_time_guard:0000000000000014 .L0 
     /tmp/cc7jEFKv.s:3143   .text.MSS_UART_disable_tx_time_guard:0000000000000000 MSS_UART_disable_tx_time_guard
     /tmp/cc7jEFKv.s:3146   .text.MSS_UART_disable_tx_time_guard:0000000000000000 .L0 
     /tmp/cc7jEFKv.s:3148   .text.MSS_UART_disable_tx_time_guard:0000000000000000 .L0 
     /tmp/cc7jEFKv.s:3149   .text.MSS_UART_disable_tx_time_guard:0000000000000000 .L0 
     /tmp/cc7jEFKv.s:3150   .text.MSS_UART_disable_tx_time_guard:0000000000000000 .L0 
     /tmp/cc7jEFKv.s:3152   .text.MSS_UART_disable_tx_time_guard:0000000000000002 .L0 
     /tmp/cc7jEFKv.s:3156   .text.MSS_UART_disable_tx_time_guard:000000000000000e .L0 
     /tmp/cc7jEFKv.s:3157   .text.MSS_UART_disable_tx_time_guard:0000000000000010 .L0 
     /tmp/cc7jEFKv.s:3164   .text.MSS_UART_set_address:0000000000000000 MSS_UART_set_address
     /tmp/cc7jEFKv.s:3167   .text.MSS_UART_set_address:0000000000000000 .L0 
     /tmp/cc7jEFKv.s:3169   .text.MSS_UART_set_address:0000000000000000 .L0 
     /tmp/cc7jEFKv.s:3170   .text.MSS_UART_set_address:0000000000000000 .L0 
     /tmp/cc7jEFKv.s:3171   .text.MSS_UART_set_address:0000000000000000 .L0 
     /tmp/cc7jEFKv.s:3173   .text.MSS_UART_set_address:0000000000000002 .L0 
     /tmp/cc7jEFKv.s:3175   .text.MSS_UART_set_address:0000000000000006 .L0 
     /tmp/cc7jEFKv.s:3176   .text.MSS_UART_set_address:0000000000000008 .L0 
     /tmp/cc7jEFKv.s:3183   .text.MSS_UART_set_ready_mode:0000000000000000 MSS_UART_set_ready_mode
     /tmp/cc7jEFKv.s:3186   .text.MSS_UART_set_ready_mode:0000000000000000 .L0 
     /tmp/cc7jEFKv.s:3188   .text.MSS_UART_set_ready_mode:0000000000000000 .L0 
     /tmp/cc7jEFKv.s:3189   .text.MSS_UART_set_ready_mode:0000000000000000 .L0 
     /tmp/cc7jEFKv.s:3190   .text.MSS_UART_set_ready_mode:0000000000000000 .L0 
     /tmp/cc7jEFKv.s:3191   .text.MSS_UART_set_ready_mode:0000000000000000 .L0 
     /tmp/cc7jEFKv.s:3194   .text.MSS_UART_set_ready_mode:0000000000000006 .L0 
     /tmp/cc7jEFKv.s:3196   .text.MSS_UART_set_ready_mode:0000000000000008 .L0 
     /tmp/cc7jEFKv.s:3198   .text.MSS_UART_set_ready_mode:000000000000000c .L0 
     /tmp/cc7jEFKv.s:3200   .text.MSS_UART_set_ready_mode:000000000000000e .L0 
     /tmp/cc7jEFKv.s:3203   .text.MSS_UART_set_ready_mode:0000000000000012 .L0 
     /tmp/cc7jEFKv.s:3206   .text.MSS_UART_set_ready_mode:0000000000000016 .L0 
     /tmp/cc7jEFKv.s:3209   .text.MSS_UART_set_ready_mode:0000000000000018 .L0 
     /tmp/cc7jEFKv.s:3211   .text.MSS_UART_set_ready_mode:000000000000001e .L0 
     /tmp/cc7jEFKv.s:3218   .text.MSS_UART_set_usart_mode:0000000000000000 MSS_UART_set_usart_mode
     /tmp/cc7jEFKv.s:3221   .text.MSS_UART_set_usart_mode:0000000000000000 .L0 
     /tmp/cc7jEFKv.s:3223   .text.MSS_UART_set_usart_mode:0000000000000000 .L0 
     /tmp/cc7jEFKv.s:3224   .text.MSS_UART_set_usart_mode:0000000000000000 .L0 
     /tmp/cc7jEFKv.s:3225   .text.MSS_UART_set_usart_mode:0000000000000000 .L0 
     /tmp/cc7jEFKv.s:3226   .text.MSS_UART_set_usart_mode:0000000000000000 .L0 
     /tmp/cc7jEFKv.s:3229   .text.MSS_UART_set_usart_mode:0000000000000006 .L0 
     /tmp/cc7jEFKv.s:3230   .text.MSS_UART_set_usart_mode:0000000000000006 .L0 
     /tmp/cc7jEFKv.s:3232   .text.MSS_UART_set_usart_mode:0000000000000008 .L0 
     /tmp/cc7jEFKv.s:3236   .text.MSS_UART_set_usart_mode:0000000000000014 .L0 
     /tmp/cc7jEFKv.s:3237   .text.MSS_UART_set_usart_mode:0000000000000014 .L0 
     /tmp/cc7jEFKv.s:3244   .text.MSS_UART_set_usart_mode:0000000000000022 .L0 
     /tmp/cc7jEFKv.s:3245   .text.MSS_UART_set_usart_mode:0000000000000024 .L0 
     /tmp/cc7jEFKv.s:3252   .text.MSS_UART_enable_local_irq:0000000000000000 MSS_UART_enable_local_irq
     /tmp/cc7jEFKv.s:3255   .text.MSS_UART_enable_local_irq:0000000000000000 .L0 
     /tmp/cc7jEFKv.s:3257   .text.MSS_UART_enable_local_irq:0000000000000000 .L0 
     /tmp/cc7jEFKv.s:3258   .text.MSS_UART_enable_local_irq:0000000000000000 .L0 
     /tmp/cc7jEFKv.s:3259   .text.MSS_UART_enable_local_irq:0000000000000000 .L0 
     /tmp/cc7jEFKv.s:3260   .text.MSS_UART_enable_local_irq:0000000000000002 .L0 
     /tmp/cc7jEFKv.s:3263   .text.MSS_UART_enable_local_irq:0000000000000006 .L0 
     /tmp/cc7jEFKv.s:3264   .text.MSS_UART_enable_local_irq:0000000000000006 .L0 
     /tmp/cc7jEFKv.s:3266   .text.MSS_UART_enable_local_irq:0000000000000006 .L0 
     /tmp/cc7jEFKv.s:3268   .text.MSS_UART_enable_local_irq:0000000000000008 .L0 
     /tmp/cc7jEFKv.s:3271   .text.MSS_UART_enable_local_irq:0000000000000010 .L0 
     /tmp/cc7jEFKv.s:3272   .text.MSS_UART_enable_local_irq:0000000000000010 .L0 
     /tmp/cc7jEFKv.s:3275   .text.MSS_UART_enable_local_irq:0000000000000016 .L0 
     /tmp/cc7jEFKv.s:3276   .text.MSS_UART_enable_local_irq:0000000000000016 .L0 
     /tmp/cc7jEFKv.s:3277   .text.MSS_UART_enable_local_irq:0000000000000018 .L0 
     /tmp/cc7jEFKv.s:3280   .text.MSS_UART_enable_local_irq:000000000000001a .L0 
     /tmp/cc7jEFKv.s:3282   .text.MSS_UART_enable_local_irq:000000000000001a .L0 
     /tmp/cc7jEFKv.s:3284   .text.MSS_UART_enable_local_irq:000000000000001c .L0 
     /tmp/cc7jEFKv.s:3285   .text.MSS_UART_enable_local_irq:000000000000001e .L0 
     /tmp/cc7jEFKv.s:3287   .text.MSS_UART_enable_local_irq:000000000000001e .L0 
     /tmp/cc7jEFKv.s:3289   .text.MSS_UART_enable_local_irq:0000000000000026 .L0 
     /tmp/cc7jEFKv.s:3304   .sbss.g_uart_axi_pos:0000000000000000 .LANCHOR0
     /tmp/cc7jEFKv.s:3307   .sbss.g_uart_axi_pos:0000000000000000 g_uart_axi_pos
     /tmp/cc7jEFKv.s:425    .text.global_init:00000000000002ea .L0 
     /tmp/cc7jEFKv.s:632    .text.uart_isr:00000000000000ae .L0 
     /tmp/cc7jEFKv.s:736    .text.default_tx_handler:000000000000006e .L0 
     /tmp/cc7jEFKv.s:962    .text.disable_irq:0000000000000144 .L0 
     /tmp/cc7jEFKv.s:1186   .text.enable_irq:0000000000000138 .L0 
     /tmp/cc7jEFKv.s:1241   .text.MSS_UART_init:0000000000000048 .L0 
     /tmp/cc7jEFKv.s:1292   .text.MSS_UART_lin_init:000000000000003e .L0 
     /tmp/cc7jEFKv.s:1398   .text.MSS_UART_irda_init:0000000000000094 .L0 
     /tmp/cc7jEFKv.s:1465   .text.MSS_UART_smartcard_init:0000000000000058 .L0 
     /tmp/cc7jEFKv.s:1557   .text.MSS_UART_polled_tx:000000000000004e .L0 
     /tmp/cc7jEFKv.s:1644   .text.MSS_UART_polled_tx_string:0000000000000054 .L0 
     /tmp/cc7jEFKv.s:1690   .text.MSS_UART_irq_tx:000000000000002e .L0 
     /tmp/cc7jEFKv.s:1735   .text.MSS_UART_tx_complete:0000000000000024 .L0 
     /tmp/cc7jEFKv.s:1829   .text.MSS_UART_get_rx:0000000000000056 .L0 
     /tmp/cc7jEFKv.s:1870   .text.MSS_UART_enable_irq:000000000000002a .L0 
     /tmp/cc7jEFKv.s:1920   .text.MSS_UART_disable_irq:0000000000000044 .L0 
     /tmp/cc7jEFKv.s:1967   .text.MSS_UART_set_rx_handler:0000000000000036 .L0 
     /tmp/cc7jEFKv.s:2046   .text.MSS_UART_set_loopback:000000000000005e .L0 
     /tmp/cc7jEFKv.s:2085   .text.PLIC_mmuart0_IRQHandler:0000000000000032 .L0 
     /tmp/cc7jEFKv.s:2124   .text.PLIC_mmuart1_IRQHandler:0000000000000032 .L0 
     /tmp/cc7jEFKv.s:2163   .text.PLIC_mmuart2_IRQHandler:0000000000000032 .L0 
     /tmp/cc7jEFKv.s:2202   .text.PLIC_mmuart3_IRQHandler:0000000000000032 .L0 
     /tmp/cc7jEFKv.s:2241   .text.PLIC_mmuart4_IRQHandler:0000000000000032 .L0 
     /tmp/cc7jEFKv.s:2266   .text.E51_mmuart0_local_IRQHandler:0000000000000026 .L0 
     /tmp/cc7jEFKv.s:2292   .text.U54_1_mmuart1_local_IRQHandler:0000000000000026 .L0 
     /tmp/cc7jEFKv.s:2318   .text.U54_2_mmuart2_local_IRQHandler:0000000000000026 .L0 
     /tmp/cc7jEFKv.s:2344   .text.U54_3_mmuart3_local_IRQHandler:0000000000000026 .L0 
     /tmp/cc7jEFKv.s:2370   .text.U54_4_mmuart4_local_IRQHandler:0000000000000026 .L0 
     /tmp/cc7jEFKv.s:2402   .text.MSS_UART_set_rxstatus_handler:000000000000001c .L0 
     /tmp/cc7jEFKv.s:2441   .text.MSS_UART_set_tx_handler:0000000000000024 .L0 
     /tmp/cc7jEFKv.s:2473   .text.MSS_UART_set_modemstatus_handler:000000000000001c .L0 
     /tmp/cc7jEFKv.s:2557   .text.MSS_UART_fill_tx_fifo:000000000000004e .L0 
     /tmp/cc7jEFKv.s:2589   .text.MSS_UART_get_rx_status:0000000000000016 .L0 
     /tmp/cc7jEFKv.s:2611   .text.MSS_UART_get_modem_status:0000000000000008 .L0 
     /tmp/cc7jEFKv.s:2644   .text.MSS_UART_get_tx_status:000000000000001a .L0 
     /tmp/cc7jEFKv.s:2665   .text.MSS_UART_set_break:0000000000000010 .L0 
     /tmp/cc7jEFKv.s:2686   .text.MSS_UART_clear_break:0000000000000010 .L0 
     /tmp/cc7jEFKv.s:2718   .text.MSS_UART_set_pidpei_handler:000000000000001c .L0 
     /tmp/cc7jEFKv.s:2750   .text.MSS_UART_set_linbreak_handler:000000000000001c .L0 
     /tmp/cc7jEFKv.s:2782   .text.MSS_UART_set_linsync_handler:000000000000001c .L0 
     /tmp/cc7jEFKv.s:2814   .text.MSS_UART_set_nack_handler:000000000000001c .L0 
     /tmp/cc7jEFKv.s:2846   .text.MSS_UART_set_rx_timeout_handler:000000000000001c .L0 
     /tmp/cc7jEFKv.s:2867   .text.MSS_UART_enable_half_duplex:0000000000000010 .L0 
     /tmp/cc7jEFKv.s:2888   .text.MSS_UART_disable_half_duplex:0000000000000010 .L0 
     /tmp/cc7jEFKv.s:2923   .text.MSS_UART_set_rx_endian:000000000000001e .L0 
     /tmp/cc7jEFKv.s:2958   .text.MSS_UART_set_tx_endian:000000000000001e .L0 
     /tmp/cc7jEFKv.s:2986   .text.MSS_UART_set_filter_length:0000000000000012 .L0 
     /tmp/cc7jEFKv.s:3007   .text.MSS_UART_enable_afm:0000000000000010 .L0 
     /tmp/cc7jEFKv.s:3028   .text.MSS_UART_disable_afm:0000000000000010 .L0 
     /tmp/cc7jEFKv.s:3049   .text.MSS_UART_enable_afclear:0000000000000010 .L0 
     /tmp/cc7jEFKv.s:3070   .text.MSS_UART_disable_afclear:0000000000000010 .L0 
     /tmp/cc7jEFKv.s:3094   .text.MSS_UART_enable_rx_timeout:0000000000000014 .L0 
     /tmp/cc7jEFKv.s:3115   .text.MSS_UART_disable_rx_timeout:0000000000000010 .L0 
     /tmp/cc7jEFKv.s:3139   .text.MSS_UART_enable_tx_time_guard:0000000000000014 .L0 
     /tmp/cc7jEFKv.s:3160   .text.MSS_UART_disable_tx_time_guard:0000000000000010 .L0 
     /tmp/cc7jEFKv.s:3179   .text.MSS_UART_set_address:0000000000000008 .L0 
     /tmp/cc7jEFKv.s:3214   .text.MSS_UART_set_ready_mode:000000000000001e .L0 
     /tmp/cc7jEFKv.s:3248   .text.MSS_UART_set_usart_mode:0000000000000024 .L0 
     /tmp/cc7jEFKv.s:3302   .text.MSS_UART_enable_local_irq:0000000000000026 .L0 
                     .debug_frame:0000000000000000 .L0 
     /tmp/cc7jEFKv.s:20     .text.global_init:0000000000000000 .L0 
     /tmp/cc7jEFKv.s:28     .text.global_init:0000000000000012 .L0 
     /tmp/cc7jEFKv.s:33     .text.global_init:000000000000001e .L0 
     /tmp/cc7jEFKv.s:262    .text.global_init:000000000000018c .L0 
     /tmp/cc7jEFKv.s:270    .text.global_init:000000000000019e .L0 
     /tmp/cc7jEFKv.s:277    .text.global_init:00000000000001ac .L0 
     /tmp/cc7jEFKv.s:285    .text.global_init:00000000000001be .L0 
     /tmp/cc7jEFKv.s:292    .text.global_init:00000000000001cc .L0 
     /tmp/cc7jEFKv.s:300    .text.global_init:00000000000001de .L0 
     /tmp/cc7jEFKv.s:307    .text.global_init:00000000000001ec .L0 
     /tmp/cc7jEFKv.s:315    .text.global_init:00000000000001fe .L0 
     /tmp/cc7jEFKv.s:322    .text.global_init:000000000000020c .L0 
     /tmp/cc7jEFKv.s:330    .text.global_init:000000000000021e .L0 
     /tmp/cc7jEFKv.s:337    .text.global_init:000000000000022e .L0 
     /tmp/cc7jEFKv.s:345    .text.global_init:0000000000000240 .L0 
     /tmp/cc7jEFKv.s:352    .text.global_init:0000000000000250 .L0 
     /tmp/cc7jEFKv.s:360    .text.global_init:0000000000000262 .L0 
     /tmp/cc7jEFKv.s:367    .text.global_init:0000000000000272 .L0 
     /tmp/cc7jEFKv.s:375    .text.global_init:0000000000000284 .L0 
     /tmp/cc7jEFKv.s:382    .text.global_init:0000000000000294 .L0 
     /tmp/cc7jEFKv.s:387    .text.global_init:00000000000002a4 .L0 
     /tmp/cc7jEFKv.s:390    .text.global_init:00000000000002ac .L0 
     /tmp/cc7jEFKv.s:259    .text.global_init:000000000000018c .L2
     /tmp/cc7jEFKv.s:203    .text.global_init:000000000000014c .L12
     /tmp/cc7jEFKv.s:395    .text.global_init:00000000000002bc .L13
     /tmp/cc7jEFKv.s:274    .text.global_init:00000000000001ac .L4
     /tmp/cc7jEFKv.s:31     .text.global_init:000000000000001e .L14
     /tmp/cc7jEFKv.s:289    .text.global_init:00000000000001cc .L5
     /tmp/cc7jEFKv.s:304    .text.global_init:00000000000001ec .L6
     /tmp/cc7jEFKv.s:319    .text.global_init:000000000000020c .L7
     /tmp/cc7jEFKv.s:334    .text.global_init:000000000000022e .L8
     /tmp/cc7jEFKv.s:349    .text.global_init:0000000000000250 .L9
     /tmp/cc7jEFKv.s:364    .text.global_init:0000000000000272 .L10
     /tmp/cc7jEFKv.s:379    .text.global_init:0000000000000294 .L11
     /tmp/cc7jEFKv.s:34     .text.global_init:0000000000000026 .L3
     /tmp/cc7jEFKv.s:455    .rodata.uart_isr:0000000000000000 .L18
     /tmp/cc7jEFKv.s:446    .text.uart_isr:000000000000000e .L0 
     /tmp/cc7jEFKv.s:627    .text.uart_isr:00000000000000ac .L69
     /tmp/cc7jEFKv.s:475    .text.uart_isr:0000000000000024 .L77
     /tmp/cc7jEFKv.s:526    .text.uart_isr:0000000000000052 .L25
     /tmp/cc7jEFKv.s:546    .text.uart_isr:0000000000000064 .L26
     /tmp/cc7jEFKv.s:566    .text.uart_isr:0000000000000076 .L27
     /tmp/cc7jEFKv.s:586    .text.uart_isr:0000000000000088 .L28
     /tmp/cc7jEFKv.s:614    .text.uart_isr:00000000000000a4 .L15
     /tmp/cc7jEFKv.s:478    .text.uart_isr:0000000000000028 .L71
     /tmp/cc7jEFKv.s:470    .text.uart_isr:0000000000000020 .L22
     /tmp/cc7jEFKv.s:482    .text.uart_isr:000000000000002a .L21
     /tmp/cc7jEFKv.s:500    .text.uart_isr:000000000000003c .L20
     /tmp/cc7jEFKv.s:488    .text.uart_isr:0000000000000030 .L17
     /tmp/cc7jEFKv.s:494    .text.uart_isr:0000000000000036 .L19
     /tmp/cc7jEFKv.s:684    .text.default_tx_handler:000000000000003c .L78
     /tmp/cc7jEFKv.s:687    .text.default_tx_handler:000000000000003e .L82
     /tmp/cc7jEFKv.s:705    .text.default_tx_handler:000000000000004c .L84
     /tmp/cc7jEFKv.s:670    .text.default_tx_handler:0000000000000026 .L87
     /tmp/cc7jEFKv.s:711    .text.default_tx_handler:000000000000004e .L85
     /tmp/cc7jEFKv.s:747    .text.disable_irq:0000000000000000 .L0 
     /tmp/cc7jEFKv.s:753    .text.disable_irq:0000000000000010 .L0 
     /tmp/cc7jEFKv.s:757    .text.disable_irq:000000000000001c .L0 
     /tmp/cc7jEFKv.s:763    .text.disable_irq:000000000000002c .L0 
     /tmp/cc7jEFKv.s:767    .text.disable_irq:0000000000000038 .L0 
     /tmp/cc7jEFKv.s:773    .text.disable_irq:0000000000000048 .L0 
     /tmp/cc7jEFKv.s:777    .text.disable_irq:0000000000000054 .L0 
     /tmp/cc7jEFKv.s:783    .text.disable_irq:0000000000000064 .L0 
     /tmp/cc7jEFKv.s:787    .text.disable_irq:0000000000000070 .L0 
     /tmp/cc7jEFKv.s:793    .text.disable_irq:0000000000000080 .L0 
     /tmp/cc7jEFKv.s:833    .rodata.disable_irq:0000000000000000 .L96
     /tmp/cc7jEFKv.s:819    .text.disable_irq:0000000000000098 .L0 
     /tmp/cc7jEFKv.s:797    .text.disable_irq:000000000000008e .L93
     /tmp/cc7jEFKv.s:954    .text.disable_irq:0000000000000142 .L92
     /tmp/cc7jEFKv.s:840    .text.disable_irq:00000000000000b2 .L100
     /tmp/cc7jEFKv.s:863    .text.disable_irq:00000000000000cc .L99
     /tmp/cc7jEFKv.s:886    .text.disable_irq:00000000000000ea .L98
     /tmp/cc7jEFKv.s:909    .text.disable_irq:0000000000000108 .L97
     /tmp/cc7jEFKv.s:932    .text.disable_irq:0000000000000126 .L95
     /tmp/cc7jEFKv.s:980    .text.enable_irq:0000000000000008 .L0 
     /tmp/cc7jEFKv.s:986    .text.enable_irq:0000000000000018 .L0 
     /tmp/cc7jEFKv.s:990    .text.enable_irq:0000000000000024 .L0 
     /tmp/cc7jEFKv.s:996    .text.enable_irq:0000000000000034 .L0 
     /tmp/cc7jEFKv.s:1000   .text.enable_irq:0000000000000040 .L0 
     /tmp/cc7jEFKv.s:1006   .text.enable_irq:0000000000000050 .L0 
     /tmp/cc7jEFKv.s:1010   .text.enable_irq:000000000000005c .L0 
     /tmp/cc7jEFKv.s:1016   .text.enable_irq:000000000000006c .L0 
     /tmp/cc7jEFKv.s:1020   .text.enable_irq:0000000000000078 .L0 
     /tmp/cc7jEFKv.s:1026   .text.enable_irq:0000000000000088 .L0 
     /tmp/cc7jEFKv.s:1065   .rodata.enable_irq:0000000000000000 .L115
     /tmp/cc7jEFKv.s:1051   .text.enable_irq:00000000000000a0 .L0 
     /tmp/cc7jEFKv.s:1176   .text.enable_irq:0000000000000136 .L111
     /tmp/cc7jEFKv.s:1030   .text.enable_irq:0000000000000096 .L113
     /tmp/cc7jEFKv.s:1072   .text.enable_irq:00000000000000ba .L119
     /tmp/cc7jEFKv.s:1093   .text.enable_irq:00000000000000d0 .L118
     /tmp/cc7jEFKv.s:1114   .text.enable_irq:00000000000000ea .L117
     /tmp/cc7jEFKv.s:1135   .text.enable_irq:0000000000000104 .L116
     /tmp/cc7jEFKv.s:1156   .text.enable_irq:000000000000011e .L114
     /tmp/cc7jEFKv.s:1227   .text.MSS_UART_init:0000000000000036 .L0 
     /tmp/cc7jEFKv.s:1379   .text.MSS_UART_irda_init:0000000000000076 .L135
     /tmp/cc7jEFKv.s:1385   .text.MSS_UART_irda_init:0000000000000080 .L137
     /tmp/cc7jEFKv.s:1390   .text.MSS_UART_irda_init:000000000000008a .L139
     /tmp/cc7jEFKv.s:1340   .text.MSS_UART_irda_init:0000000000000040 .L142
     /tmp/cc7jEFKv.s:1349   .text.MSS_UART_irda_init:000000000000004e .L143
     /tmp/cc7jEFKv.s:1358   .text.MSS_UART_irda_init:000000000000005c .L144
     /tmp/cc7jEFKv.s:1450   .text.MSS_UART_smartcard_init:000000000000004e .L145
     /tmp/cc7jEFKv.s:1551   .text.MSS_UART_polled_tx:000000000000004c .L148
     /tmp/cc7jEFKv.s:1495   .text.MSS_UART_polled_tx:0000000000000010 .L151
     /tmp/cc7jEFKv.s:1522   .text.MSS_UART_polled_tx:000000000000002c .L152
     /tmp/cc7jEFKv.s:1527   .text.MSS_UART_polled_tx:0000000000000030 .L153
     /tmp/cc7jEFKv.s:1493   .text.MSS_UART_polled_tx:000000000000000c .L154
     /tmp/cc7jEFKv.s:1638   .text.MSS_UART_polled_tx_string:0000000000000052 .L163
     /tmp/cc7jEFKv.s:1634   .text.MSS_UART_polled_tx_string:0000000000000050 .L168
     /tmp/cc7jEFKv.s:1589   .text.MSS_UART_polled_tx_string:0000000000000014 .L166
     /tmp/cc7jEFKv.s:1582   .text.MSS_UART_polled_tx_string:0000000000000008 .L165
     /tmp/cc7jEFKv.s:1608   .text.MSS_UART_polled_tx_string:0000000000000032 .L167
     /tmp/cc7jEFKv.s:1585   .text.MSS_UART_polled_tx_string:000000000000000c .L169
     /tmp/cc7jEFKv.s:1662   .text.MSS_UART_irq_tx:0000000000000004 .L0 
     /tmp/cc7jEFKv.s:1684   .text.MSS_UART_irq_tx:000000000000002c .L176
     /tmp/cc7jEFKv.s:1725   .text.MSS_UART_tx_complete:0000000000000020 .L186
     /tmp/cc7jEFKv.s:1816   .text.MSS_UART_get_rx:000000000000004e .L191
     /tmp/cc7jEFKv.s:1780   .text.MSS_UART_get_rx:0000000000000024 .L188
     /tmp/cc7jEFKv.s:1822   .text.MSS_UART_get_rx:0000000000000052 .L192
     /tmp/cc7jEFKv.s:1786   .text.MSS_UART_get_rx:0000000000000028 .L190
     /tmp/cc7jEFKv.s:1772   .text.MSS_UART_get_rx:000000000000001c .L189
     /tmp/cc7jEFKv.s:1864   .text.MSS_UART_enable_irq:0000000000000028 .L196
     /tmp/cc7jEFKv.s:1913   .text.MSS_UART_disable_irq:000000000000003c .L199
     /tmp/cc7jEFKv.s:1961   .text.MSS_UART_set_rx_handler:0000000000000034 .L200
     /tmp/cc7jEFKv.s:2000   .rodata.MSS_UART_set_loopback:0000000000000000 .L209
     /tmp/cc7jEFKv.s:1990   .text.MSS_UART_set_loopback:0000000000000016 .L0 
     /tmp/cc7jEFKv.s:2016   .text.MSS_UART_set_loopback:0000000000000034 .L205
     /tmp/cc7jEFKv.s:2007   .text.MSS_UART_set_loopback:0000000000000028 .L207
     /tmp/cc7jEFKv.s:2012   .text.MSS_UART_set_loopback:0000000000000030 .L213
     /tmp/cc7jEFKv.s:2019   .text.MSS_UART_set_loopback:0000000000000036 .L212
     /tmp/cc7jEFKv.s:2025   .text.MSS_UART_set_loopback:0000000000000040 .L210
     /tmp/cc7jEFKv.s:2031   .text.MSS_UART_set_loopback:000000000000004a .L211
     /tmp/cc7jEFKv.s:2037   .text.MSS_UART_set_loopback:0000000000000054 .L208
     /tmp/cc7jEFKv.s:2056   .text.PLIC_mmuart0_IRQHandler:0000000000000000 .L0 
     /tmp/cc7jEFKv.s:2066   .text.PLIC_mmuart0_IRQHandler:0000000000000010 .L0 
     /tmp/cc7jEFKv.s:2070   .text.PLIC_mmuart0_IRQHandler:000000000000001a .L0 
     /tmp/cc7jEFKv.s:2071   .text.PLIC_mmuart0_IRQHandler:0000000000000022 .L218
     /tmp/cc7jEFKv.s:2095   .text.PLIC_mmuart1_IRQHandler:0000000000000000 .L0 
     /tmp/cc7jEFKv.s:2105   .text.PLIC_mmuart1_IRQHandler:0000000000000010 .L0 
     /tmp/cc7jEFKv.s:2109   .text.PLIC_mmuart1_IRQHandler:000000000000001a .L0 
     /tmp/cc7jEFKv.s:2110   .text.PLIC_mmuart1_IRQHandler:0000000000000022 .L223
     /tmp/cc7jEFKv.s:2134   .text.PLIC_mmuart2_IRQHandler:0000000000000000 .L0 
     /tmp/cc7jEFKv.s:2144   .text.PLIC_mmuart2_IRQHandler:0000000000000010 .L0 
     /tmp/cc7jEFKv.s:2148   .text.PLIC_mmuart2_IRQHandler:000000000000001a .L0 
     /tmp/cc7jEFKv.s:2149   .text.PLIC_mmuart2_IRQHandler:0000000000000022 .L228
     /tmp/cc7jEFKv.s:2173   .text.PLIC_mmuart3_IRQHandler:0000000000000000 .L0 
     /tmp/cc7jEFKv.s:2183   .text.PLIC_mmuart3_IRQHandler:0000000000000010 .L0 
     /tmp/cc7jEFKv.s:2187   .text.PLIC_mmuart3_IRQHandler:000000000000001a .L0 
     /tmp/cc7jEFKv.s:2188   .text.PLIC_mmuart3_IRQHandler:0000000000000022 .L233
     /tmp/cc7jEFKv.s:2212   .text.PLIC_mmuart4_IRQHandler:0000000000000000 .L0 
     /tmp/cc7jEFKv.s:2222   .text.PLIC_mmuart4_IRQHandler:0000000000000010 .L0 
     /tmp/cc7jEFKv.s:2226   .text.PLIC_mmuart4_IRQHandler:000000000000001a .L0 
     /tmp/cc7jEFKv.s:2227   .text.PLIC_mmuart4_IRQHandler:0000000000000022 .L238
     /tmp/cc7jEFKv.s:2251   .text.E51_mmuart0_local_IRQHandler:0000000000000000 .L0 
     /tmp/cc7jEFKv.s:2254   .text.E51_mmuart0_local_IRQHandler:000000000000000a .L0 
     /tmp/cc7jEFKv.s:2259   .text.E51_mmuart0_local_IRQHandler:0000000000000016 .L0 
     /tmp/cc7jEFKv.s:2260   .text.E51_mmuart0_local_IRQHandler:000000000000001e .L241
     /tmp/cc7jEFKv.s:2276   .text.U54_1_mmuart1_local_IRQHandler:0000000000000000 .L0 
     /tmp/cc7jEFKv.s:2279   .text.U54_1_mmuart1_local_IRQHandler:000000000000000a .L0 
     /tmp/cc7jEFKv.s:2285   .text.U54_1_mmuart1_local_IRQHandler:0000000000000016 .L0 
     /tmp/cc7jEFKv.s:2286   .text.U54_1_mmuart1_local_IRQHandler:000000000000001e .L244
     /tmp/cc7jEFKv.s:2302   .text.U54_2_mmuart2_local_IRQHandler:0000000000000000 .L0 
     /tmp/cc7jEFKv.s:2305   .text.U54_2_mmuart2_local_IRQHandler:000000000000000a .L0 
     /tmp/cc7jEFKv.s:2311   .text.U54_2_mmuart2_local_IRQHandler:0000000000000016 .L0 
     /tmp/cc7jEFKv.s:2312   .text.U54_2_mmuart2_local_IRQHandler:000000000000001e .L247
     /tmp/cc7jEFKv.s:2328   .text.U54_3_mmuart3_local_IRQHandler:0000000000000000 .L0 
     /tmp/cc7jEFKv.s:2331   .text.U54_3_mmuart3_local_IRQHandler:000000000000000a .L0 
     /tmp/cc7jEFKv.s:2337   .text.U54_3_mmuart3_local_IRQHandler:0000000000000016 .L0 
     /tmp/cc7jEFKv.s:2338   .text.U54_3_mmuart3_local_IRQHandler:000000000000001e .L250
     /tmp/cc7jEFKv.s:2354   .text.U54_4_mmuart4_local_IRQHandler:0000000000000000 .L0 
     /tmp/cc7jEFKv.s:2357   .text.U54_4_mmuart4_local_IRQHandler:000000000000000a .L0 
     /tmp/cc7jEFKv.s:2363   .text.U54_4_mmuart4_local_IRQHandler:0000000000000016 .L0 
     /tmp/cc7jEFKv.s:2364   .text.U54_4_mmuart4_local_IRQHandler:000000000000001e .L253
     /tmp/cc7jEFKv.s:2396   .text.MSS_UART_set_rxstatus_handler:000000000000001a .L254
     /tmp/cc7jEFKv.s:2435   .text.MSS_UART_set_tx_handler:0000000000000022 .L256
     /tmp/cc7jEFKv.s:2467   .text.MSS_UART_set_modemstatus_handler:000000000000001a .L258
     /tmp/cc7jEFKv.s:2549   .text.MSS_UART_fill_tx_fifo:000000000000004a .L261
     /tmp/cc7jEFKv.s:2518   .text.MSS_UART_fill_tx_fifo:0000000000000026 .L262
     /tmp/cc7jEFKv.s:2525   .text.MSS_UART_fill_tx_fifo:000000000000002a .L263
     /tmp/cc7jEFKv.s:2540   .text.MSS_UART_fill_tx_fifo:0000000000000044 .L264
     /tmp/cc7jEFKv.s:2712   .text.MSS_UART_set_pidpei_handler:000000000000001a .L280
     /tmp/cc7jEFKv.s:2744   .text.MSS_UART_set_linbreak_handler:000000000000001a .L282
     /tmp/cc7jEFKv.s:2776   .text.MSS_UART_set_linsync_handler:000000000000001a .L284
     /tmp/cc7jEFKv.s:2808   .text.MSS_UART_set_nack_handler:000000000000001a .L286
     /tmp/cc7jEFKv.s:2840   .text.MSS_UART_set_rx_timeout_handler:000000000000001a .L288
     /tmp/cc7jEFKv.s:2913   .text.MSS_UART_set_rx_endian:0000000000000016 .L292
     /tmp/cc7jEFKv.s:2916   .text.MSS_UART_set_rx_endian:0000000000000018 .L294
     /tmp/cc7jEFKv.s:2910   .text.MSS_UART_set_rx_endian:0000000000000012 .L295
     /tmp/cc7jEFKv.s:2948   .text.MSS_UART_set_tx_endian:0000000000000016 .L296
     /tmp/cc7jEFKv.s:2951   .text.MSS_UART_set_tx_endian:0000000000000018 .L298
     /tmp/cc7jEFKv.s:2945   .text.MSS_UART_set_tx_endian:0000000000000012 .L299
     /tmp/cc7jEFKv.s:2980   .text.MSS_UART_set_filter_length:0000000000000010 .L300
     /tmp/cc7jEFKv.s:3204   .text.MSS_UART_set_ready_mode:0000000000000016 .L311
     /tmp/cc7jEFKv.s:3207   .text.MSS_UART_set_ready_mode:0000000000000018 .L313
     /tmp/cc7jEFKv.s:3201   .text.MSS_UART_set_ready_mode:0000000000000012 .L314
     /tmp/cc7jEFKv.s:3242   .text.MSS_UART_set_usart_mode:0000000000000022 .L315
     /tmp/cc7jEFKv.s:73184  .debug_abbrev:0000000000000000 .Ldebug_abbrev0
     /tmp/cc7jEFKv.s:79576  .debug_str:00000000000084ae .LASF3887
     /tmp/cc7jEFKv.s:78154  .debug_str:0000000000004884 .LASF3888
     /tmp/cc7jEFKv.s:83658  .debug_str:000000000001337d .LASF3889
     /tmp/cc7jEFKv.s:76332  .debug_ranges:0000000000000000 .Ldebug_ranges0
     /tmp/cc7jEFKv.s:76470  .debug_line:0000000000000000 .Ldebug_line0
     /tmp/cc7jEFKv.s:76558  .debug_str:0000000000000449 .LASF0
     /tmp/cc7jEFKv.s:82020  .debug_str:000000000000ed73 .LASF1
     /tmp/cc7jEFKv.s:77588  .debug_str:0000000000002f4d .LASF4
     /tmp/cc7jEFKv.s:76480  .debug_str:000000000000006d .LASF2
     /tmp/cc7jEFKv.s:77194  .debug_str:0000000000001d8f .LASF3
     /tmp/cc7jEFKv.s:79732  .debug_str:0000000000008bfa .LASF5
     /tmp/cc7jEFKv.s:82694  .debug_str:0000000000010b74 .LASF6
     /tmp/cc7jEFKv.s:78014  .debug_str:00000000000041da .LASF7
     /tmp/cc7jEFKv.s:80460  .debug_str:000000000000aad8 .LASF8
     /tmp/cc7jEFKv.s:81724  .debug_str:000000000000e009 .LASF9
     /tmp/cc7jEFKv.s:79000  .debug_str:0000000000006a6e .LASF10
     /tmp/cc7jEFKv.s:80066  .debug_str:0000000000009a2e .LASF11
     /tmp/cc7jEFKv.s:81000  .debug_str:000000000000bebf .LASF12
     /tmp/cc7jEFKv.s:84222  .debug_str:0000000000014c98 .LASF13
     /tmp/cc7jEFKv.s:82830  .debug_str:000000000001111b .LASF14
     /tmp/cc7jEFKv.s:82856  .debug_str:000000000001125b .LASF15
     /tmp/cc7jEFKv.s:80274  .debug_str:000000000000a33d .LASF16
     /tmp/cc7jEFKv.s:82960  .debug_str:0000000000011785 .LASF17
     /tmp/cc7jEFKv.s:77108  .debug_str:0000000000001980 .LASF18
     /tmp/cc7jEFKv.s:79108  .debug_str:0000000000006f5b .LASF19
     /tmp/cc7jEFKv.s:79672  .debug_str:0000000000008948 .LASF20
     /tmp/cc7jEFKv.s:80478  .debug_str:000000000000ab99 .LASF21
     /tmp/cc7jEFKv.s:82186  .debug_str:000000000000f47d .LASF22
     /tmp/cc7jEFKv.s:83108  .debug_str:0000000000011ca3 .LASF23
     /tmp/cc7jEFKv.s:76476  .debug_str:0000000000000034 .LASF24
     /tmp/cc7jEFKv.s:77978  .debug_str:0000000000004003 .LASF25
     /tmp/cc7jEFKv.s:79616  .debug_str:00000000000086e2 .LASF26
     /tmp/cc7jEFKv.s:76514  .debug_str:000000000000020c .LASF27
     /tmp/cc7jEFKv.s:78918  .debug_str:0000000000006684 .LASF28
     /tmp/cc7jEFKv.s:78478  .debug_str:0000000000005644 .LASF29
     /tmp/cc7jEFKv.s:82024  .debug_str:000000000000ed98 .LASF30
     /tmp/cc7jEFKv.s:84112  .debug_str:00000000000147de .LASF31
     /tmp/cc7jEFKv.s:79110  .debug_str:0000000000006f64 .LASF32
     /tmp/cc7jEFKv.s:78376  .debug_str:0000000000005245 .LASF33
     /tmp/cc7jEFKv.s:80724  .debug_str:000000000000b4b3 .LASF34
     /tmp/cc7jEFKv.s:77888  .debug_str:0000000000003c4d .LASF35
     /tmp/cc7jEFKv.s:80784  .debug_str:000000000000b6da .LASF36
     /tmp/cc7jEFKv.s:79472  .debug_str:0000000000007f9f .LASF37
     /tmp/cc7jEFKv.s:79610  .debug_str:000000000000869d .LASF38
     /tmp/cc7jEFKv.s:83938  .debug_str:0000000000013f9a .LASF39
     /tmp/cc7jEFKv.s:76500  .debug_str:0000000000000165 .LASF40
     /tmp/cc7jEFKv.s:78290  .debug_str:0000000000004eb0 .LASF41
     /tmp/cc7jEFKv.s:81592  .debug_str:000000000000d9c7 .LASF42
     /tmp/cc7jEFKv.s:82628  .debug_str:0000000000010820 .LASF43
     /tmp/cc7jEFKv.s:78632  .debug_str:0000000000005b81 .LASF44
     /tmp/cc7jEFKv.s:79222  .debug_str:000000000000747d .LASF45
     /tmp/cc7jEFKv.s:79868  .debug_str:0000000000009239 .LASF46
     /tmp/cc7jEFKv.s:82578  .debug_str:00000000000105b6 .LASF47
     /tmp/cc7jEFKv.s:79496  .debug_str:00000000000080ef .LASF48
     /tmp/cc7jEFKv.s:80678  .debug_str:000000000000b338 .LASF49
     /tmp/cc7jEFKv.s:81066  .debug_str:000000000000c180 .LASF50
     /tmp/cc7jEFKv.s:83454  .debug_str:0000000000012a95 .LASF51
     /tmp/cc7jEFKv.s:79394  .debug_str:0000000000007bca .LASF52
     /tmp/cc7jEFKv.s:80672  .debug_str:000000000000b2ee .LASF53
     /tmp/cc7jEFKv.s:81704  .debug_str:000000000000df52 .LASF54
     /tmp/cc7jEFKv.s:79002  .debug_str:0000000000006a79 .LASF55
     /tmp/cc7jEFKv.s:78236  .debug_str:0000000000004c33 .LASF56
     /tmp/cc7jEFKv.s:78962  .debug_str:00000000000068a5 .LASF57
     /tmp/cc7jEFKv.s:83952  .debug_str:000000000001406e .LASF58
     /tmp/cc7jEFKv.s:78560  .debug_str:00000000000058ff .LASF59
     /tmp/cc7jEFKv.s:79738  .debug_str:0000000000008c50 .LASF60
     /tmp/cc7jEFKv.s:81362  .debug_str:000000000000cea9 .LASF61
     /tmp/cc7jEFKv.s:84046  .debug_str:00000000000144fb .LASF62
     /tmp/cc7jEFKv.s:76862  .debug_str:0000000000000ff8 .LASF63
     /tmp/cc7jEFKv.s:79316  .debug_str:0000000000007821 .LASF64
     /tmp/cc7jEFKv.s:80036  .debug_str:0000000000009916 .LASF65
     /tmp/cc7jEFKv.s:83698  .debug_str:00000000000135b2 .LASF66
     /tmp/cc7jEFKv.s:82688  .debug_str:0000000000010b37 .LASF67
     /tmp/cc7jEFKv.s:83878  .debug_str:0000000000013cd6 .LASF68
     /tmp/cc7jEFKv.s:79176  .debug_str:000000000000722f .LASF69
     /tmp/cc7jEFKv.s:79198  .debug_str:0000000000007358 .LASF70
     /tmp/cc7jEFKv.s:83936  .debug_str:0000000000013f80 .LASF71
     /tmp/cc7jEFKv.s:80536  .debug_str:000000000000adfc .LASF72
     /tmp/cc7jEFKv.s:82702  .debug_str:0000000000010bd1 .LASF73
     /tmp/cc7jEFKv.s:82044  .debug_str:000000000000eebf .LASF74
     /tmp/cc7jEFKv.s:82466  .debug_str:00000000000100d7 .LASF75
     /tmp/cc7jEFKv.s:82580  .debug_str:00000000000105f5 .LASF76
     /tmp/cc7jEFKv.s:79442  .debug_str:0000000000007e29 .LASF77
     /tmp/cc7jEFKv.s:78684  .debug_str:0000000000005d55 .LASF78
     /tmp/cc7jEFKv.s:77496  .debug_str:0000000000002b45 .LASF79
     /tmp/cc7jEFKv.s:77458  .debug_str:0000000000002916 .LASF80
     /tmp/cc7jEFKv.s:77328  .debug_str:00000000000022f8 .LASF81
     /tmp/cc7jEFKv.s:83892  .debug_str:0000000000013d68 .LASF82
     /tmp/cc7jEFKv.s:81180  .debug_str:000000000000c669 .LASF83
     /tmp/cc7jEFKv.s:82926  .debug_str:00000000000115fc .LASF84
     /tmp/cc7jEFKv.s:76636  .debug_str:0000000000000736 .LASF85
     /tmp/cc7jEFKv.s:78696  .debug_str:0000000000005db1 .LASF86
     /tmp/cc7jEFKv.s:80876  .debug_str:000000000000ba9a .LASF87
     /tmp/cc7jEFKv.s:84166  .debug_str:00000000000149c4 .LASF88
     /tmp/cc7jEFKv.s:83828  .debug_str:0000000000013ac4 .LASF89
     /tmp/cc7jEFKv.s:78912  .debug_str:0000000000006644 .LASF90
     /tmp/cc7jEFKv.s:83174  .debug_str:0000000000011f63 .LASF91
     /tmp/cc7jEFKv.s:81604  .debug_str:000000000000da44 .LASF92
     /tmp/cc7jEFKv.s:82374  .debug_str:000000000000fd47 .LASF93
     /tmp/cc7jEFKv.s:81520  .debug_str:000000000000d65b .LASF94
     /tmp/cc7jEFKv.s:81390  .debug_str:000000000000d014 .LASF95
     /tmp/cc7jEFKv.s:81624  .debug_str:000000000000db5a .LASF96
     /tmp/cc7jEFKv.s:83238  .debug_str:0000000000012199 .LASF97
     /tmp/cc7jEFKv.s:82936  .debug_str:0000000000011663 .LASF98
     /tmp/cc7jEFKv.s:81854  .debug_str:000000000000e5e3 .LASF99
     /tmp/cc7jEFKv.s:82270  .debug_str:000000000000f855 .LASF100
     /tmp/cc7jEFKv.s:83034  .debug_str:00000000000119d5 .LASF101
     /tmp/cc7jEFKv.s:81402  .debug_str:000000000000d0a2 .LASF102
     /tmp/cc7jEFKv.s:79498  .debug_str:0000000000008117 .LASF103
     /tmp/cc7jEFKv.s:80584  .debug_str:000000000000afa4 .LASF104
     /tmp/cc7jEFKv.s:83980  .debug_str:00000000000141c5 .LASF105
     /tmp/cc7jEFKv.s:76794  .debug_str:0000000000000d4f .LASF106
     /tmp/cc7jEFKv.s:77490  .debug_str:0000000000002ada .LASF107
     /tmp/cc7jEFKv.s:80798  .debug_str:000000000000b7b9 .LASF108
     /tmp/cc7jEFKv.s:84036  .debug_str:0000000000014483 .LASF109
     /tmp/cc7jEFKv.s:81176  .debug_str:000000000000c60f .LASF110
     /tmp/cc7jEFKv.s:81052  .debug_str:000000000000c0dc .LASF111
     /tmp/cc7jEFKv.s:78854  .debug_str:0000000000006431 .LASF112
     /tmp/cc7jEFKv.s:82638  .debug_str:00000000000108b5 .LASF113
     /tmp/cc7jEFKv.s:83762  .debug_str:0000000000013803 .LASF114
     /tmp/cc7jEFKv.s:81848  .debug_str:000000000000e59d .LASF115
     /tmp/cc7jEFKv.s:79478  .debug_str:0000000000007ffe .LASF116
     /tmp/cc7jEFKv.s:81292  .debug_str:000000000000cba3 .LASF117
     /tmp/cc7jEFKv.s:81994  .debug_str:000000000000ec15 .LASF118
     /tmp/cc7jEFKv.s:78838  .debug_str:0000000000006334 .LASF119
     /tmp/cc7jEFKv.s:76836  .debug_str:0000000000000f38 .LASF120
     /tmp/cc7jEFKv.s:78028  .debug_str:0000000000004296 .LASF121
     /tmp/cc7jEFKv.s:80354  .debug_str:000000000000a6b3 .LASF122
     /tmp/cc7jEFKv.s:81246  .debug_str:000000000000c988 .LASF123
     /tmp/cc7jEFKv.s:78080  .debug_str:00000000000044cd .LASF124
     /tmp/cc7jEFKv.s:80564  .debug_str:000000000000af23 .LASF125
     /tmp/cc7jEFKv.s:81636  .debug_str:000000000000dc2c .LASF126
     /tmp/cc7jEFKv.s:81656  .debug_str:000000000000dd28 .LASF127
     /tmp/cc7jEFKv.s:78444  .debug_str:00000000000054d7 .LASF128
     /tmp/cc7jEFKv.s:79812  .debug_str:0000000000008fac .LASF129
     /tmp/cc7jEFKv.s:78446  .debug_str:00000000000054e3 .LASF130
     /tmp/cc7jEFKv.s:83242  .debug_str:00000000000121c9 .LASF131
     /tmp/cc7jEFKv.s:81016  .debug_str:000000000000bf66 .LASF132
     /tmp/cc7jEFKv.s:80020  .debug_str:0000000000009892 .LASF133
     /tmp/cc7jEFKv.s:81660  .debug_str:000000000000dd63 .LASF134
     /tmp/cc7jEFKv.s:77662  .debug_str:000000000000326a .LASF135
     /tmp/cc7jEFKv.s:78324  .debug_str:0000000000005047 .LASF136
     /tmp/cc7jEFKv.s:80212  .debug_str:000000000000a11f .LASF137
     /tmp/cc7jEFKv.s:77514  .debug_str:0000000000002c60 .LASF138
     /tmp/cc7jEFKv.s:78054  .debug_str:00000000000043a4 .LASF139
     /tmp/cc7jEFKv.s:82678  .debug_str:0000000000010adb .LASF140
     /tmp/cc7jEFKv.s:82442  .debug_str:0000000000010026 .LASF141
     /tmp/cc7jEFKv.s:78572  .debug_str:00000000000059a6 .LASF142
     /tmp/cc7jEFKv.s:77492  .debug_str:0000000000002b1d .LASF143
     /tmp/cc7jEFKv.s:82794  .debug_str:0000000000010f9d .LASF144
     /tmp/cc7jEFKv.s:76564  .debug_str:0000000000000469 .LASF145
     /tmp/cc7jEFKv.s:80488  .debug_str:000000000000ac2e .LASF146
     /tmp/cc7jEFKv.s:83706  .debug_str:000000000001362c .LASF147
     /tmp/cc7jEFKv.s:80096  .debug_str:0000000000009bd4 .LASF148
     /tmp/cc7jEFKv.s:81606  .debug_str:000000000000da71 .LASF149
     /tmp/cc7jEFKv.s:83232  .debug_str:0000000000012162 .LASF150
     /tmp/cc7jEFKv.s:77408  .debug_str:00000000000026e8 .LASF151
     /tmp/cc7jEFKv.s:77756  .debug_str:00000000000036ac .LASF152
     /tmp/cc7jEFKv.s:80924  .debug_str:000000000000bbeb .LASF153
     /tmp/cc7jEFKv.s:79562  .debug_str:000000000000842e .LASF154
     /tmp/cc7jEFKv.s:80180  .debug_str:0000000000009f61 .LASF155
     /tmp/cc7jEFKv.s:77004  .debug_str:000000000000159d .LASF156
     /tmp/cc7jEFKv.s:80032  .debug_str:00000000000098fb .LASF157
     /tmp/cc7jEFKv.s:77214  .debug_str:0000000000001e47 .LASF158
     /tmp/cc7jEFKv.s:77216  .debug_str:0000000000001e56 .LASF159
     /tmp/cc7jEFKv.s:84014  .debug_str:000000000001437e .LASF160
     /tmp/cc7jEFKv.s:77572  .debug_str:0000000000002eb4 .LASF161
     /tmp/cc7jEFKv.s:84010  .debug_str:0000000000014359 .LASF162
     /tmp/cc7jEFKv.s:78508  .debug_str:00000000000056cb .LASF163
     /tmp/cc7jEFKv.s:76710  .debug_str:0000000000000a71 .LASF164
     /tmp/cc7jEFKv.s:76712  .debug_str:0000000000000a80 .LASF165
     /tmp/cc7jEFKv.s:80988  .debug_str:000000000000be3c .LASF166
     /tmp/cc7jEFKv.s:77192  .debug_str:0000000000001d7c .LASF167
     /tmp/cc7jEFKv.s:83584  .debug_str:0000000000013039 .LASF168
     /tmp/cc7jEFKv.s:82810  .debug_str:000000000001104e .LASF169
     /tmp/cc7jEFKv.s:78510  .debug_str:00000000000056d5 .LASF170
     /tmp/cc7jEFKv.s:82226  .debug_str:000000000000f636 .LASF171
     /tmp/cc7jEFKv.s:77792  .debug_str:0000000000003814 .LASF172
     /tmp/cc7jEFKv.s:80596  .debug_str:000000000000affe .LASF173
     /tmp/cc7jEFKv.s:82446  .debug_str:000000000001003e .LASF174
     /tmp/cc7jEFKv.s:84162  .debug_str:00000000000149a6 .LASF175
     /tmp/cc7jEFKv.s:81726  .debug_str:000000000000e013 .LASF176
     /tmp/cc7jEFKv.s:81790  .debug_str:000000000000e2d6 .LASF177
     /tmp/cc7jEFKv.s:81154  .debug_str:000000000000c52e .LASF178
     /tmp/cc7jEFKv.s:79140  .debug_str:00000000000070bd .LASF179
     /tmp/cc7jEFKv.s:79042  .debug_str:0000000000006c72 .LASF180
     /tmp/cc7jEFKv.s:82406  .debug_str:000000000000fe9f .LASF181
     /tmp/cc7jEFKv.s:82576  .debug_str:00000000000105a9 .LASF182
     /tmp/cc7jEFKv.s:77992  .debug_str:00000000000040c6 .LASF183
     /tmp/cc7jEFKv.s:83614  .debug_str:0000000000013169 .LASF184
     /tmp/cc7jEFKv.s:76568  .debug_str:0000000000000481 .LASF185
     /tmp/cc7jEFKv.s:79282  .debug_str:000000000000772c .LASF186
     /tmp/cc7jEFKv.s:77550  .debug_str:0000000000002dda .LASF187
     /tmp/cc7jEFKv.s:77018  .debug_str:0000000000001643 .LASF188
     /tmp/cc7jEFKv.s:83052  .debug_str:0000000000011aab .LASF189
     /tmp/cc7jEFKv.s:78316  .debug_str:0000000000005018 .LASF190
     /tmp/cc7jEFKv.s:78714  .debug_str:0000000000005e74 .LASF191
     /tmp/cc7jEFKv.s:80038  .debug_str:000000000000992f .LASF192
     /tmp/cc7jEFKv.s:79690  .debug_str:0000000000008a40 .LASF193
     /tmp/cc7jEFKv.s:78306  .debug_str:0000000000004fae .LASF194
     /tmp/cc7jEFKv.s:83826  .debug_str:0000000000013ab6 .LASF195
     /tmp/cc7jEFKv.s:79612  .debug_str:00000000000086b8 .LASF196
     /tmp/cc7jEFKv.s:76996  .debug_str:0000000000001556 .LASF197
     /tmp/cc7jEFKv.s:83054  .debug_str:0000000000011ab5 .LASF198
     /tmp/cc7jEFKv.s:77868  .debug_str:0000000000003b7a .LASF199
     /tmp/cc7jEFKv.s:79246  .debug_str:00000000000075b9 .LASF200
     /tmp/cc7jEFKv.s:81220  .debug_str:000000000000c821 .LASF201
     /tmp/cc7jEFKv.s:80990  .debug_str:000000000000be4a .LASF202
     /tmp/cc7jEFKv.s:78474  .debug_str:000000000000561a .LASF203
     /tmp/cc7jEFKv.s:81738  .debug_str:000000000000e0aa .LASF204
     /tmp/cc7jEFKv.s:83056  .debug_str:0000000000011abf .LASF205
     /tmp/cc7jEFKv.s:79200  .debug_str:000000000000737e .LASF206
     /tmp/cc7jEFKv.s:83058  .debug_str:0000000000011ac9 .LASF207
     /tmp/cc7jEFKv.s:83060  .debug_str:0000000000011ad3 .LASF208
     /tmp/cc7jEFKv.s:83062  .debug_str:0000000000011add .LASF209
     /tmp/cc7jEFKv.s:82804  .debug_str:0000000000011018 .LASF210
     /tmp/cc7jEFKv.s:77802  .debug_str:00000000000038b6 .LASF211
     /tmp/cc7jEFKv.s:79626  .debug_str:000000000000875a .LASF212
     /tmp/cc7jEFKv.s:81984  .debug_str:000000000000ebb4 .LASF213
     /tmp/cc7jEFKv.s:83064  .debug_str:0000000000011ae7 .LASF214
     /tmp/cc7jEFKv.s:83066  .debug_str:0000000000011af1 .LASF215
     /tmp/cc7jEFKv.s:80148  .debug_str:0000000000009e03 .LASF216
     /tmp/cc7jEFKv.s:83864  .debug_str:0000000000013c3f .LASF217
     /tmp/cc7jEFKv.s:79286  .debug_str:0000000000007746 .LASF218
     /tmp/cc7jEFKv.s:78348  .debug_str:00000000000050f3 .LASF219
     /tmp/cc7jEFKv.s:83068  .debug_str:0000000000011afb .LASF220
     /tmp/cc7jEFKv.s:78926  .debug_str:0000000000006701 .LASF221
     /tmp/cc7jEFKv.s:83070  .debug_str:0000000000011b05 .LASF222
     /tmp/cc7jEFKv.s:78578  .debug_str:00000000000059dc .LASF223
     /tmp/cc7jEFKv.s:77684  .debug_str:000000000000338f .LASF224
     /tmp/cc7jEFKv.s:83124  .debug_str:0000000000011d64 .LASF225
     /tmp/cc7jEFKv.s:76644  .debug_str:00000000000007bb .LASF226
     /tmp/cc7jEFKv.s:83126  .debug_str:0000000000011d6e .LASF227
     /tmp/cc7jEFKv.s:80414  .debug_str:000000000000a96a .LASF228
     /tmp/cc7jEFKv.s:80430  .debug_str:000000000000a9b5 .LASF229
     /tmp/cc7jEFKv.s:77866  .debug_str:0000000000003b6f .LASF230
     /tmp/cc7jEFKv.s:77092  .debug_str:00000000000018fd .LASF231
     /tmp/cc7jEFKv.s:83128  .debug_str:0000000000011d78 .LASF232
     /tmp/cc7jEFKv.s:82304  .debug_str:000000000000f9ee .LASF233
     /tmp/cc7jEFKv.s:83130  .debug_str:0000000000011d82 .LASF234
     /tmp/cc7jEFKv.s:77238  .debug_str:0000000000001f5c .LASF235
     /tmp/cc7jEFKv.s:84114  .debug_str:0000000000014804 .LASF236
     /tmp/cc7jEFKv.s:83132  .debug_str:0000000000011d8c .LASF237
     /tmp/cc7jEFKv.s:80162  .debug_str:0000000000009e9c .LASF238
     /tmp/cc7jEFKv.s:79262  .debug_str:0000000000007662 .LASF239
     /tmp/cc7jEFKv.s:81734  .debug_str:000000000000e087 .LASF240
     /tmp/cc7jEFKv.s:82204  .debug_str:000000000000f531 .LASF241
     /tmp/cc7jEFKv.s:83050  .debug_str:0000000000011aa3 .LASF242
     /tmp/cc7jEFKv.s:82540  .debug_str:0000000000010450 .LASF243
     /tmp/cc7jEFKv.s:83134  .debug_str:0000000000011d96 .LASF244
     /tmp/cc7jEFKv.s:81728  .debug_str:000000000000e024 .LASF245
     /tmp/cc7jEFKv.s:83136  .debug_str:0000000000011da0 .LASF246
     /tmp/cc7jEFKv.s:83310  .debug_str:0000000000012483 .LASF247
     /tmp/cc7jEFKv.s:81816  .debug_str:000000000000e432 .LASF248
     /tmp/cc7jEFKv.s:83138  .debug_str:0000000000011daa .LASF249
     /tmp/cc7jEFKv.s:81082  .debug_str:000000000000c268 .LASF250
     /tmp/cc7jEFKv.s:78790  .debug_str:000000000000617d .LASF251
     /tmp/cc7jEFKv.s:79114  .debug_str:0000000000006f8b .LASF252
     /tmp/cc7jEFKv.s:81296  .debug_str:000000000000cbd8 .LASF253
     /tmp/cc7jEFKv.s:83294  .debug_str:00000000000123ea .LASF254
     /tmp/cc7jEFKv.s:83140  .debug_str:0000000000011db4 .LASF255
     /tmp/cc7jEFKv.s:82982  .debug_str:000000000001183b .LASF256
     /tmp/cc7jEFKv.s:83142  .debug_str:0000000000011dbe .LASF257
     /tmp/cc7jEFKv.s:83992  .debug_str:0000000000014288 .LASF258
     /tmp/cc7jEFKv.s:83186  .debug_str:0000000000012018 .LASF259
     /tmp/cc7jEFKv.s:84226  .debug_str:0000000000014cb6 .LASF260
     /tmp/cc7jEFKv.s:81420  .debug_str:000000000000d1c6 .LASF261
     /tmp/cc7jEFKv.s:81434  .debug_str:000000000000d28b .LASF262
     /tmp/cc7jEFKv.s:78266  .debug_str:0000000000004db7 .LASF263
     /tmp/cc7jEFKv.s:82602  .debug_str:00000000000106ee .LASF264
     /tmp/cc7jEFKv.s:77936  .debug_str:0000000000003e16 .LASF265
     /tmp/cc7jEFKv.s:81274  .debug_str:000000000000cb08 .LASF266
     /tmp/cc7jEFKv.s:76482  .debug_str:000000000000007b .LASF267
     /tmp/cc7jEFKv.s:77750  .debug_str:0000000000003688 .LASF268
     /tmp/cc7jEFKv.s:83188  .debug_str:0000000000012022 .LASF269
     /tmp/cc7jEFKv.s:83776  .debug_str:00000000000138a6 .LASF270
     /tmp/cc7jEFKv.s:78606  .debug_str:0000000000005a7e .LASF271
     /tmp/cc7jEFKv.s:78042  .debug_str:0000000000004316 .LASF272
     /tmp/cc7jEFKv.s:82518  .debug_str:0000000000010343 .LASF273
     /tmp/cc7jEFKv.s:82986  .debug_str:0000000000011859 .LASF274
     /tmp/cc7jEFKv.s:81536  .debug_str:000000000000d739 .LASF275
     /tmp/cc7jEFKv.s:78234  .debug_str:0000000000004c09 .LASF276
     /tmp/cc7jEFKv.s:82710  .debug_str:0000000000010c0b .LASF277
     /tmp/cc7jEFKv.s:82054  .debug_str:000000000000ef49 .LASF278
     /tmp/cc7jEFKv.s:77364  .debug_str:00000000000024dc .LASF279
     /tmp/cc7jEFKv.s:82988  .debug_str:0000000000011863 .LASF280
     /tmp/cc7jEFKv.s:83906  .debug_str:0000000000013e28 .LASF281
     /tmp/cc7jEFKv.s:79206  .debug_str:00000000000073de .LASF282
     /tmp/cc7jEFKv.s:80226  .debug_str:000000000000a193 .LASF283
     /tmp/cc7jEFKv.s:78668  .debug_str:0000000000005cd7 .LASF284
     /tmp/cc7jEFKv.s:82990  .debug_str:000000000001186d .LASF285
     /tmp/cc7jEFKv.s:78500  .debug_str:0000000000005697 .LASF286
     /tmp/cc7jEFKv.s:80088  .debug_str:0000000000009b48 .LASF287
     /tmp/cc7jEFKv.s:81008  .debug_str:000000000000bf07 .LASF288
     /tmp/cc7jEFKv.s:79328  .debug_str:00000000000078c9 .LASF289
     /tmp/cc7jEFKv.s:78198  .debug_str:0000000000004a60 .LASF290
     /tmp/cc7jEFKv.s:81160  .debug_str:000000000000c596 .LASF291
     /tmp/cc7jEFKv.s:83924  .debug_str:0000000000013eef .LASF292
     /tmp/cc7jEFKv.s:83184  .debug_str:000000000001200d .LASF293
     /tmp/cc7jEFKv.s:82992  .debug_str:0000000000011877 .LASF294
     /tmp/cc7jEFKv.s:82994  .debug_str:0000000000011881 .LASF295
     /tmp/cc7jEFKv.s:81084  .debug_str:000000000000c277 .LASF296
     /tmp/cc7jEFKv.s:81040  .debug_str:000000000000c027 .LASF297
     /tmp/cc7jEFKv.s:77180  .debug_str:0000000000001d02 .LASF298
     /tmp/cc7jEFKv.s:77060  .debug_str:0000000000001768 .LASF299
     /tmp/cc7jEFKv.s:77130  .debug_str:0000000000001a6f .LASF300
     /tmp/cc7jEFKv.s:81794  .debug_str:000000000000e2f5 .LASF301
     /tmp/cc7jEFKv.s:78948  .debug_str:0000000000006804 .LASF302
     /tmp/cc7jEFKv.s:77354  .debug_str:0000000000002447 .LASF303
     /tmp/cc7jEFKv.s:83194  .debug_str:0000000000012061 .LASF304
     /tmp/cc7jEFKv.s:84082  .debug_str:000000000001468a .LASF305
     /tmp/cc7jEFKv.s:77824  .debug_str:00000000000039cb .LASF306
     /tmp/cc7jEFKv.s:80340  .debug_str:000000000000a67a .LASF307
     /tmp/cc7jEFKv.s:81298  .debug_str:000000000000cbe4 .LASF308
     /tmp/cc7jEFKv.s:84178  .debug_str:0000000000014a83 .LASF309
     /tmp/cc7jEFKv.s:82060  .debug_str:000000000000ef69 .LASF310
     /tmp/cc7jEFKv.s:79454  .debug_str:0000000000007eb3 .LASF311
     /tmp/cc7jEFKv.s:81196  .debug_str:000000000000c716 .LASF312
     /tmp/cc7jEFKv.s:79356  .debug_str:00000000000079dd .LASF313
     /tmp/cc7jEFKv.s:77236  .debug_str:0000000000001f30 .LASF314
     /tmp/cc7jEFKv.s:76486  .debug_str:00000000000000b7 .LASF315
     /tmp/cc7jEFKv.s:83908  .debug_str:0000000000013e38 .LASF316
     /tmp/cc7jEFKv.s:82850  .debug_str:0000000000011229 .LASF317
     /tmp/cc7jEFKv.s:81804  .debug_str:000000000000e36a .LASF318
     /tmp/cc7jEFKv.s:79896  .debug_str:000000000000936d .LASF319
     /tmp/cc7jEFKv.s:79352  .debug_str:0000000000007998 .LASF320
     /tmp/cc7jEFKv.s:77880  .debug_str:0000000000003be3 .LASF321
     /tmp/cc7jEFKv.s:83898  .debug_str:0000000000013d9e .LASF322
     /tmp/cc7jEFKv.s:77878  .debug_str:0000000000003bd2 .LASF323
     /tmp/cc7jEFKv.s:78244  .debug_str:0000000000004cb1 .LASF324
     /tmp/cc7jEFKv.s:77246  .debug_str:0000000000001fa0 .LASF325
     /tmp/cc7jEFKv.s:83482  .debug_str:0000000000012bd5 .LASF326
     /tmp/cc7jEFKv.s:76534  .debug_str:000000000000031d .LASF327
     /tmp/cc7jEFKv.s:80940  .debug_str:000000000000bcc3 .LASF328
     /tmp/cc7jEFKv.s:83712  .debug_str:000000000001365c .LASF329
     /tmp/cc7jEFKv.s:78202  .debug_str:0000000000004a8d .LASF330
     /tmp/cc7jEFKv.s:78718  .debug_str:0000000000005e92 .LASF331
     /tmp/cc7jEFKv.s:78396  .debug_str:0000000000005326 .LASF332
     /tmp/cc7jEFKv.s:79510  .debug_str:00000000000081b7 .LASF333
     /tmp/cc7jEFKv.s:80284  .debug_str:000000000000a38a .LASF334
     /tmp/cc7jEFKv.s:77392  .debug_str:0000000000002662 .LASF335
     /tmp/cc7jEFKv.s:83624  .debug_str:00000000000131da .LASF336
     /tmp/cc7jEFKv.s:81784  .debug_str:000000000000e29a .LASF337
     /tmp/cc7jEFKv.s:82652  .debug_str:0000000000010995 .LASF338
     /tmp/cc7jEFKv.s:77114  .debug_str:00000000000019ab .LASF339
     /tmp/cc7jEFKv.s:83592  .debug_str:0000000000013079 .LASF340
     /tmp/cc7jEFKv.s:84238  .debug_str:0000000000014d3d .LASF341
     /tmp/cc7jEFKv.s:84100  .debug_str:000000000001475d .LASF342
     /tmp/cc7jEFKv.s:81248  .debug_str:000000000000c9ae .LASF343
     /tmp/cc7jEFKv.s:84248  .debug_str:0000000000014dbf .LASF344
     /tmp/cc7jEFKv.s:78404  .debug_str:0000000000005348 .LASF345
     /tmp/cc7jEFKv.s:81262  .debug_str:000000000000ca80 .LASF346
     /tmp/cc7jEFKv.s:79560  .debug_str:0000000000008425 .LASF347
     /tmp/cc7jEFKv.s:82434  .debug_str:000000000000ffc9 .LASF348
     /tmp/cc7jEFKv.s:82568  .debug_str:000000000001056c .LASF349
     /tmp/cc7jEFKv.s:83646  .debug_str:00000000000132f2 .LASF350
     /tmp/cc7jEFKv.s:77286  .debug_str:0000000000002131 .LASF351
     /tmp/cc7jEFKv.s:79932  .debug_str:00000000000094e2 .LASF352
     /tmp/cc7jEFKv.s:79834  .debug_str:0000000000009095 .LASF353
     /tmp/cc7jEFKv.s:80308  .debug_str:000000000000a4c5 .LASF354
     /tmp/cc7jEFKv.s:80686  .debug_str:000000000000b3c5 .LASF355
     /tmp/cc7jEFKv.s:80492  .debug_str:000000000000ac40 .LASF356
     /tmp/cc7jEFKv.s:81312  .debug_str:000000000000ccc0 .LASF357
     /tmp/cc7jEFKv.s:79408  .debug_str:0000000000007cbb .LASF358
     /tmp/cc7jEFKv.s:82814  .debug_str:0000000000011073 .LASF359
     /tmp/cc7jEFKv.s:80572  .debug_str:000000000000af6e .LASF360
     /tmp/cc7jEFKv.s:80200  .debug_str:000000000000a075 .LASF361
     /tmp/cc7jEFKv.s:83734  .debug_str:0000000000013723 .LASF362
     /tmp/cc7jEFKv.s:81452  .debug_str:000000000000d34c .LASF363
     /tmp/cc7jEFKv.s:82364  .debug_str:000000000000fcc1 .LASF364
     /tmp/cc7jEFKv.s:77262  .debug_str:000000000000203c .LASF365
     /tmp/cc7jEFKv.s:78940  .debug_str:000000000000679c .LASF366
     /tmp/cc7jEFKv.s:78818  .debug_str:0000000000006251 .LASF367
     /tmp/cc7jEFKv.s:81828  .debug_str:000000000000e49a .LASF368
     /tmp/cc7jEFKv.s:82606  .debug_str:000000000001072c .LASF369
     /tmp/cc7jEFKv.s:80248  .debug_str:000000000000a244 .LASF370
     /tmp/cc7jEFKv.s:76840  .debug_str:0000000000000f70 .LASF371
     /tmp/cc7jEFKv.s:78114  .debug_str:00000000000046c8 .LASF372
     /tmp/cc7jEFKv.s:83838  .debug_str:0000000000013b3f .LASF373
     /tmp/cc7jEFKv.s:83836  .debug_str:0000000000013b2f .LASF374
     /tmp/cc7jEFKv.s:80158  .debug_str:0000000000009e6b .LASF375
     /tmp/cc7jEFKv.s:83768  .debug_str:0000000000013866 .LASF376
     /tmp/cc7jEFKv.s:79648  .debug_str:000000000000886a .LASF377
     /tmp/cc7jEFKv.s:79624  .debug_str:000000000000874d .LASF378
     /tmp/cc7jEFKv.s:81386  .debug_str:000000000000cfdb .LASF379
     /tmp/cc7jEFKv.s:79870  .debug_str:0000000000009254 .LASF380
     /tmp/cc7jEFKv.s:76842  .debug_str:0000000000000f79 .LASF381
     /tmp/cc7jEFKv.s:81432  .debug_str:000000000000d268 .LASF382
     /tmp/cc7jEFKv.s:78218  .debug_str:0000000000004b4e .LASF383
     /tmp/cc7jEFKv.s:83632  .debug_str:0000000000013265 .LASF384
     /tmp/cc7jEFKv.s:78016  .debug_str:00000000000041e4 .LASF385
     /tmp/cc7jEFKv.s:82692  .debug_str:0000000000010b66 .LASF386
     /tmp/cc7jEFKv.s:80902  .debug_str:000000000000bb4c .LASF387
     /tmp/cc7jEFKv.s:76844  .debug_str:0000000000000f82 .LASF388
     /tmp/cc7jEFKv.s:76658  .debug_str:0000000000000841 .LASF389
     /tmp/cc7jEFKv.s:78434  .debug_str:000000000000549a .LASF390
     /tmp/cc7jEFKv.s:81108  .debug_str:000000000000c33f .LASF391
     /tmp/cc7jEFKv.s:79836  .debug_str:00000000000090b1 .LASF392
     /tmp/cc7jEFKv.s:84000  .debug_str:00000000000142d1 .LASF393
     /tmp/cc7jEFKv.s:79580  .debug_str:000000000000858e .LASF394
     /tmp/cc7jEFKv.s:79566  .debug_str:0000000000008450 .LASF395
     /tmp/cc7jEFKv.s:77928  .debug_str:0000000000003ddc .LASF396
     /tmp/cc7jEFKv.s:80462  .debug_str:000000000000aae6 .LASF397
     /tmp/cc7jEFKv.s:82996  .debug_str:000000000001188b .LASF398
     /tmp/cc7jEFKv.s:76846  .debug_str:0000000000000f8b .LASF399
     /tmp/cc7jEFKv.s:79944  .debug_str:000000000000958a .LASF400
     /tmp/cc7jEFKv.s:80702  .debug_str:000000000000b453 .LASF401
     /tmp/cc7jEFKv.s:80930  .debug_str:000000000000bc36 .LASF402
     /tmp/cc7jEFKv.s:80788  .debug_str:000000000000b72f .LASF403
     /tmp/cc7jEFKv.s:80772  .debug_str:000000000000b6ad .LASF404
     /tmp/cc7jEFKv.s:79172  .debug_str:0000000000007215 .LASF405
     /tmp/cc7jEFKv.s:83244  .debug_str:00000000000121d9 .LASF406
     /tmp/cc7jEFKv.s:80318  .debug_str:000000000000a526 .LASF407
     /tmp/cc7jEFKv.s:76496  .debug_str:0000000000000138 .LASF408
     /tmp/cc7jEFKv.s:80830  .debug_str:000000000000b8ed .LASF409
     /tmp/cc7jEFKv.s:79040  .debug_str:0000000000006c60 .LASF410
     /tmp/cc7jEFKv.s:79014  .debug_str:0000000000006b4d .LASF411
     /tmp/cc7jEFKv.s:82998  .debug_str:0000000000011895 .LASF412
     /tmp/cc7jEFKv.s:76848  .debug_str:0000000000000f94 .LASF413
     /tmp/cc7jEFKv.s:79204  .debug_str:00000000000073bb .LASF414
     /tmp/cc7jEFKv.s:82074  .debug_str:000000000000eff5 .LASF415
     /tmp/cc7jEFKv.s:82058  .debug_str:000000000000ef5b .LASF416
     /tmp/cc7jEFKv.s:82976  .debug_str:000000000001180a .LASF417
     /tmp/cc7jEFKv.s:82964  .debug_str:0000000000011796 .LASF418
     /tmp/cc7jEFKv.s:83000  .debug_str:000000000001189f .LASF419
     /tmp/cc7jEFKv.s:76850  .debug_str:0000000000000f9d .LASF420
     /tmp/cc7jEFKv.s:78394  .debug_str:0000000000005303 .LASF421
     /tmp/cc7jEFKv.s:83678  .debug_str:00000000000134d5 .LASF422
     /tmp/cc7jEFKv.s:80482  .debug_str:000000000000abd3 .LASF423
     /tmp/cc7jEFKv.s:83002  .debug_str:00000000000118a9 .LASF424
     /tmp/cc7jEFKv.s:76852  .debug_str:0000000000000fa6 .LASF425
     /tmp/cc7jEFKv.s:81662  .debug_str:000000000000dd90 .LASF426
     /tmp/cc7jEFKv.s:77288  .debug_str:000000000000213d .LASF427
     /tmp/cc7jEFKv.s:82728  .debug_str:0000000000010cab .LASF428
     /tmp/cc7jEFKv.s:81992  .debug_str:000000000000ebe9 .LASF429
     /tmp/cc7jEFKv.s:79232  .debug_str:0000000000007519 .LASF430
     /tmp/cc7jEFKv.s:77044  .debug_str:00000000000016bf .LASF431
     /tmp/cc7jEFKv.s:78428  .debug_str:0000000000005437 .LASF432
     /tmp/cc7jEFKv.s:82344  .debug_str:000000000000fbda .LASF433
     /tmp/cc7jEFKv.s:80364  .debug_str:000000000000a722 .LASF434
     /tmp/cc7jEFKv.s:81090  .debug_str:000000000000c2a0 .LASF435
     /tmp/cc7jEFKv.s:79350  .debug_str:000000000000798d .LASF436
     /tmp/cc7jEFKv.s:82240  .debug_str:000000000000f719 .LASF437
     /tmp/cc7jEFKv.s:81172  .debug_str:000000000000c5f5 .LASF438
     /tmp/cc7jEFKv.s:77254  .debug_str:0000000000001feb .LASF439
     /tmp/cc7jEFKv.s:81708  .debug_str:000000000000df7b .LASF440
     /tmp/cc7jEFKv.s:82852  .debug_str:0000000000011239 .LASF441
     /tmp/cc7jEFKv.s:84052  .debug_str:000000000001453a .LASF442
     /tmp/cc7jEFKv.s:77442  .debug_str:0000000000002870 .LASF443
     /tmp/cc7jEFKv.s:78692  .debug_str:0000000000005d99 .LASF444
     /tmp/cc7jEFKv.s:79928  .debug_str:00000000000094cb .LASF445
     /tmp/cc7jEFKv.s:79980  .debug_str:0000000000009747 .LASF446
     /tmp/cc7jEFKv.s:81960  .debug_str:000000000000ea7d .LASF447
     /tmp/cc7jEFKv.s:81644  .debug_str:000000000000dca7 .LASF448
     /tmp/cc7jEFKv.s:83886  .debug_str:0000000000013d25 .LASF449
     /tmp/cc7jEFKv.s:82352  .debug_str:000000000000fc3f .LASF450
     /tmp/cc7jEFKv.s:79410  .debug_str:0000000000007cca .LASF451
     /tmp/cc7jEFKv.s:82918  .debug_str:00000000000115a5 .LASF452
     /tmp/cc7jEFKv.s:84104  .debug_str:0000000000014796 .LASF453
     /tmp/cc7jEFKv.s:80432  .debug_str:000000000000a9e0 .LASF454
     /tmp/cc7jEFKv.s:79982  .debug_str:0000000000009750 .LASF455
     /tmp/cc7jEFKv.s:81218  .debug_str:000000000000c817 .LASF456
     /tmp/cc7jEFKv.s:77478  .debug_str:0000000000002a1f .LASF457
     /tmp/cc7jEFKv.s:81528  .debug_str:000000000000d6f3 .LASF458
     /tmp/cc7jEFKv.s:81478  .debug_str:000000000000d469 .LASF459
     /tmp/cc7jEFKv.s:77440  .debug_str:0000000000002860 .LASF460
     /tmp/cc7jEFKv.s:79984  .debug_str:0000000000009759 .LASF461
     /tmp/cc7jEFKv.s:79216  .debug_str:0000000000007455 .LASF462
     /tmp/cc7jEFKv.s:76736  .debug_str:0000000000000b12 .LASF463
     /tmp/cc7jEFKv.s:79816  .debug_str:0000000000008fcd .LASF464
     /tmp/cc7jEFKv.s:82050  .debug_str:000000000000ef18 .LASF465
     /tmp/cc7jEFKv.s:80800  .debug_str:000000000000b7e1 .LASF466
     /tmp/cc7jEFKv.s:81886  .debug_str:000000000000e759 .LASF467
     /tmp/cc7jEFKv.s:78698  .debug_str:0000000000005ddd .LASF468
     /tmp/cc7jEFKv.s:79986  .debug_str:0000000000009762 .LASF469
     /tmp/cc7jEFKv.s:78846  .debug_str:00000000000063b9 .LASF470
     /tmp/cc7jEFKv.s:84160  .debug_str:0000000000014980 .LASF471
     /tmp/cc7jEFKv.s:83650  .debug_str:0000000000013330 .LASF472
     /tmp/cc7jEFKv.s:81226  .debug_str:000000000000c887 .LASF473
     /tmp/cc7jEFKv.s:79988  .debug_str:000000000000976b .LASF474
     /tmp/cc7jEFKv.s:78564  .debug_str:0000000000005956 .LASF475
     /tmp/cc7jEFKv.s:79958  .debug_str:0000000000009636 .LASF476
     /tmp/cc7jEFKv.s:79990  .debug_str:0000000000009774 .LASF477
     /tmp/cc7jEFKv.s:77120  .debug_str:0000000000001a26 .LASF478
     /tmp/cc7jEFKv.s:79678  .debug_str:0000000000008995 .LASF479
     /tmp/cc7jEFKv.s:77332  .debug_str:0000000000002349 .LASF480
     /tmp/cc7jEFKv.s:80316  .debug_str:000000000000a51c .LASF481
     /tmp/cc7jEFKv.s:83770  .debug_str:0000000000013877 .LASF482
     /tmp/cc7jEFKv.s:82046  .debug_str:000000000000eef4 .LASF483
     /tmp/cc7jEFKv.s:79992  .debug_str:000000000000977d .LASF484
     /tmp/cc7jEFKv.s:81532  .debug_str:000000000000d70e .LASF485
     /tmp/cc7jEFKv.s:79274  .debug_str:00000000000076d1 .LASF486
     /tmp/cc7jEFKv.s:77298  .debug_str:0000000000002192 .LASF487
     /tmp/cc7jEFKv.s:79188  .debug_str:00000000000072ea .LASF488
     /tmp/cc7jEFKv.s:77676  .debug_str:0000000000003337 .LASF489
     /tmp/cc7jEFKv.s:79338  .debug_str:0000000000007917 .LASF490
     /tmp/cc7jEFKv.s:78596  .debug_str:0000000000005a17 .LASF491
     /tmp/cc7jEFKv.s:80996  .debug_str:000000000000be7f .LASF492
     /tmp/cc7jEFKv.s:83148  .debug_str:0000000000011dfa .LASF493
     /tmp/cc7jEFKv.s:80058  .debug_str:00000000000099e7 .LASF494
     /tmp/cc7jEFKv.s:83268  .debug_str:0000000000012277 .LASF495
     /tmp/cc7jEFKv.s:80750  .debug_str:000000000000b5e8 .LASF496
     /tmp/cc7jEFKv.s:78776  .debug_str:00000000000060cb .LASF497
     /tmp/cc7jEFKv.s:80606  .debug_str:000000000000b070 .LASF498
     /tmp/cc7jEFKv.s:80860  .debug_str:000000000000b9fe .LASF499
     /tmp/cc7jEFKv.s:80012  .debug_str:0000000000009857 .LASF500
     /tmp/cc7jEFKv.s:84244  .debug_str:0000000000014d70 .LASF501
     /tmp/cc7jEFKv.s:82202  .debug_str:000000000000f52a .LASF502
     /tmp/cc7jEFKv.s:81276  .debug_str:000000000000cb19 .LASF503
     /tmp/cc7jEFKv.s:82618  .debug_str:00000000000107b5 .LASF504
     /tmp/cc7jEFKv.s:77540  .debug_str:0000000000002d6d .LASF505
     /tmp/cc7jEFKv.s:82348  .debug_str:000000000000fc25 .LASF506
     /tmp/cc7jEFKv.s:83674  .debug_str:000000000001349e .LASF507
     /tmp/cc7jEFKv.s:76768  .debug_str:0000000000000c9f .LASF508
     /tmp/cc7jEFKv.s:77770  .debug_str:0000000000003715 .LASF509
     /tmp/cc7jEFKv.s:82916  .debug_str:0000000000011592 .LASF510
     /tmp/cc7jEFKv.s:76656  .debug_str:000000000000082d .LASF511
     /tmp/cc7jEFKv.s:81428  .debug_str:000000000000d244 .LASF512
     /tmp/cc7jEFKv.s:77520  .debug_str:0000000000002c8a .LASF513
     /tmp/cc7jEFKv.s:80064  .debug_str:0000000000009a23 .LASF514
     /tmp/cc7jEFKv.s:78030  .debug_str:00000000000042af .LASF515
     /tmp/cc7jEFKv.s:76904  .debug_str:0000000000001149 .LASF516
     /tmp/cc7jEFKv.s:83744  .debug_str:0000000000013778 .LASF517
     /tmp/cc7jEFKv.s:79332  .debug_str:00000000000078ef .LASF518
     /tmp/cc7jEFKv.s:77900  .debug_str:0000000000003ccb .LASF519
     /tmp/cc7jEFKv.s:81024  .debug_str:000000000000bfac .LASF520
     /tmp/cc7jEFKv.s:80568  .debug_str:000000000000af5e .LASF521
     /tmp/cc7jEFKv.s:79068  .debug_str:0000000000006d69 .LASF522
     /tmp/cc7jEFKv.s:80664  .debug_str:000000000000b280 .LASF523
     /tmp/cc7jEFKv.s:81716  .debug_str:000000000000dfb8 .LASF524
     /tmp/cc7jEFKv.s:80104  .debug_str:0000000000009c23 .LASF525
     /tmp/cc7jEFKv.s:78942  .debug_str:00000000000067ab .LASF526
     /tmp/cc7jEFKv.s:82858  .debug_str:0000000000011262 .LASF527
     /tmp/cc7jEFKv.s:81256  .debug_str:000000000000ca0d .LASF528
     /tmp/cc7jEFKv.s:81930  .debug_str:000000000000e92a .LASF529
     /tmp/cc7jEFKv.s:84060  .debug_str:000000000001459c .LASF530
     /tmp/cc7jEFKv.s:82238  .debug_str:000000000000f6f6 .LASF531
     /tmp/cc7jEFKv.s:81718  .debug_str:000000000000dfc1 .LASF532
     /tmp/cc7jEFKv.s:77452  .debug_str:00000000000028db .LASF533
     /tmp/cc7jEFKv.s:83234  .debug_str:000000000001216e .LASF534
     /tmp/cc7jEFKv.s:76630  .debug_str:00000000000006f3 .LASF535
     /tmp/cc7jEFKv.s:78704  .debug_str:0000000000005e03 .LASF536
     /tmp/cc7jEFKv.s:76474  .debug_str:0000000000000011 .LASF537
     /tmp/cc7jEFKv.s:76632  .debug_str:0000000000000703 .LASF538
     /tmp/cc7jEFKv.s:79934  .debug_str:0000000000009508 .LASF539
     /tmp/cc7jEFKv.s:77566  .debug_str:0000000000002e77 .LASF540
     /tmp/cc7jEFKv.s:77768  .debug_str:0000000000003707 .LASF541
     /tmp/cc7jEFKv.s:79758  .debug_str:0000000000008d30 .LASF542
     /tmp/cc7jEFKv.s:76704  .debug_str:0000000000000a19 .LASF543
     /tmp/cc7jEFKv.s:82286  .debug_str:000000000000f933 .LASF544
     /tmp/cc7jEFKv.s:81028  .debug_str:000000000000bfc7 .LASF545
     /tmp/cc7jEFKv.s:83612  .debug_str:0000000000013145 .LASF546
     /tmp/cc7jEFKv.s:79272  .debug_str:00000000000076bf .LASF547
     /tmp/cc7jEFKv.s:77138  .debug_str:0000000000001ae8 .LASF548
     /tmp/cc7jEFKv.s:79242  .debug_str:0000000000007587 .LASF549
     /tmp/cc7jEFKv.s:83940  .debug_str:0000000000013fd8 .LASF550
     /tmp/cc7jEFKv.s:81844  .debug_str:000000000000e575 .LASF551
     /tmp/cc7jEFKv.s:79942  .debug_str:000000000000955a .LASF552
     /tmp/cc7jEFKv.s:79084  .debug_str:0000000000006e23 .LASF553
     /tmp/cc7jEFKv.s:83196  .debug_str:0000000000012073 .LASF554
     /tmp/cc7jEFKv.s:77378  .debug_str:000000000000256e .LASF555
     /tmp/cc7jEFKv.s:79086  .debug_str:0000000000006e2f .LASF556
     /tmp/cc7jEFKv.s:83198  .debug_str:0000000000012079 .LASF557
     /tmp/cc7jEFKv.s:80666  .debug_str:000000000000b288 .LASF558
     /tmp/cc7jEFKv.s:79088  .debug_str:0000000000006e3b .LASF559
     /tmp/cc7jEFKv.s:83200  .debug_str:000000000001207f .LASF560
     /tmp/cc7jEFKv.s:83722  .debug_str:00000000000136d3 .LASF561
     /tmp/cc7jEFKv.s:83854  .debug_str:0000000000013c05 .LASF562
     /tmp/cc7jEFKv.s:83202  .debug_str:0000000000012085 .LASF563
     /tmp/cc7jEFKv.s:79170  .debug_str:00000000000071f5 .LASF564
     /tmp/cc7jEFKv.s:83856  .debug_str:0000000000013c0f .LASF565
     /tmp/cc7jEFKv.s:83204  .debug_str:000000000001208b .LASF566
     /tmp/cc7jEFKv.s:82300  .debug_str:000000000000f9ba .LASF567
     /tmp/cc7jEFKv.s:83858  .debug_str:0000000000013c19 .LASF568
     /tmp/cc7jEFKv.s:83206  .debug_str:0000000000012091 .LASF569
     /tmp/cc7jEFKv.s:77628  .debug_str:00000000000030f9 .LASF570
     /tmp/cc7jEFKv.s:83860  .debug_str:0000000000013c23 .LASF571
     /tmp/cc7jEFKv.s:83208  .debug_str:0000000000012097 .LASF572
     /tmp/cc7jEFKv.s:80954  .debug_str:000000000000bd68 .LASF573
     /tmp/cc7jEFKv.s:81058  .debug_str:000000000000c11a .LASF574
     /tmp/cc7jEFKv.s:83210  .debug_str:000000000001209d .LASF575
     /tmp/cc7jEFKv.s:84016  .debug_str:000000000001438c .LASF576
     /tmp/cc7jEFKv.s:79056  .debug_str:0000000000006cf6 .LASF577
     /tmp/cc7jEFKv.s:83212  .debug_str:00000000000120a3 .LASF578
     /tmp/cc7jEFKv.s:79456  .debug_str:0000000000007ec3 .LASF579
     /tmp/cc7jEFKv.s:79058  .debug_str:0000000000006d01 .LASF580
     /tmp/cc7jEFKv.s:84120  .debug_str:0000000000014837 .LASF581
     /tmp/cc7jEFKv.s:81956  .debug_str:000000000000ea4c .LASF582
     /tmp/cc7jEFKv.s:79060  .debug_str:0000000000006d0c .LASF583
     /tmp/cc7jEFKv.s:84122  .debug_str:000000000001483e .LASF584
     /tmp/cc7jEFKv.s:77282  .debug_str:00000000000020fd .LASF585
     /tmp/cc7jEFKv.s:79300  .debug_str:000000000000779c .LASF586
     /tmp/cc7jEFKv.s:84124  .debug_str:0000000000014845 .LASF587
     /tmp/cc7jEFKv.s:80562  .debug_str:000000000000af02 .LASF588
     /tmp/cc7jEFKv.s:79302  .debug_str:00000000000077a5 .LASF589
     /tmp/cc7jEFKv.s:84126  .debug_str:000000000001484c .LASF590
     /tmp/cc7jEFKv.s:83622  .debug_str:00000000000131b9 .LASF591
     /tmp/cc7jEFKv.s:79304  .debug_str:00000000000077ae .LASF592
     /tmp/cc7jEFKv.s:84128  .debug_str:0000000000014853 .LASF593
     /tmp/cc7jEFKv.s:79066  .debug_str:0000000000006d48 .LASF594
     /tmp/cc7jEFKv.s:79306  .debug_str:00000000000077b7 .LASF595
     /tmp/cc7jEFKv.s:84130  .debug_str:000000000001485a .LASF596
     /tmp/cc7jEFKv.s:82228  .debug_str:000000000000f645 .LASF597
     /tmp/cc7jEFKv.s:77758  .debug_str:00000000000036bb .LASF598
     /tmp/cc7jEFKv.s:84132  .debug_str:0000000000014861 .LASF599
     /tmp/cc7jEFKv.s:77546  .debug_str:0000000000002da6 .LASF600
     /tmp/cc7jEFKv.s:79620  .debug_str:000000000000871f .LASF601
     /tmp/cc7jEFKv.s:78274  .debug_str:0000000000004e2b .LASF602
     /tmp/cc7jEFKv.s:79376  .debug_str:0000000000007ac4 .LASF603
     /tmp/cc7jEFKv.s:79254  .debug_str:00000000000075fe .LASF604
     /tmp/cc7jEFKv.s:78276  .debug_str:0000000000004e31 .LASF605
     /tmp/cc7jEFKv.s:82510  .debug_str:00000000000102be .LASF606
     /tmp/cc7jEFKv.s:77708  .debug_str:000000000000348f .LASF607
     /tmp/cc7jEFKv.s:78278  .debug_str:0000000000004e37 .LASF608
     /tmp/cc7jEFKv.s:77826  .debug_str:00000000000039fa .LASF609
     /tmp/cc7jEFKv.s:77712  .debug_str:00000000000034ac .LASF610
     /tmp/cc7jEFKv.s:78320  .debug_str:000000000000503b .LASF611
     /tmp/cc7jEFKv.s:82716  .debug_str:0000000000010c47 .LASF612
     /tmp/cc7jEFKv.s:83686  .debug_str:0000000000013531 .LASF613
     /tmp/cc7jEFKv.s:78322  .debug_str:0000000000005041 .LASF614
     /tmp/cc7jEFKv.s:78062  .debug_str:00000000000043f6 .LASF615
     /tmp/cc7jEFKv.s:79818  .debug_str:0000000000008fd4 .LASF616
     /tmp/cc7jEFKv.s:77078  .debug_str:0000000000001836 .LASF617
     /tmp/cc7jEFKv.s:81392  .debug_str:000000000000d02e .LASF618
     /tmp/cc7jEFKv.s:81878  .debug_str:000000000000e6f6 .LASF619
     /tmp/cc7jEFKv.s:78326  .debug_str:0000000000005051 .LASF620
     /tmp/cc7jEFKv.s:76596  .debug_str:00000000000005d0 .LASF621
     /tmp/cc7jEFKv.s:81880  .debug_str:000000000000e704 .LASF622
     /tmp/cc7jEFKv.s:78328  .debug_str:0000000000005057 .LASF623
     /tmp/cc7jEFKv.s:79880  .debug_str:00000000000092b4 .LASF624
     /tmp/cc7jEFKv.s:80754  .debug_str:000000000000b619 .LASF625
     /tmp/cc7jEFKv.s:78330  .debug_str:000000000000505d .LASF626
     /tmp/cc7jEFKv.s:83004  .debug_str:00000000000118b3 .LASF627
     /tmp/cc7jEFKv.s:83006  .debug_str:00000000000118d3 .LASF628
     /tmp/cc7jEFKv.s:78332  .debug_str:0000000000005063 .LASF629
     /tmp/cc7jEFKv.s:78340  .debug_str:000000000000507b .LASF630
     /tmp/cc7jEFKv.s:78830  .debug_str:00000000000062db .LASF631
     /tmp/cc7jEFKv.s:78334  .debug_str:0000000000005069 .LASF632
     /tmp/cc7jEFKv.s:81620  .debug_str:000000000000db29 .LASF633
     /tmp/cc7jEFKv.s:78956  .debug_str:000000000000686f .LASF634
     /tmp/cc7jEFKv.s:78336  .debug_str:000000000000506f .LASF635
     /tmp/cc7jEFKv.s:76928  .debug_str:000000000000128a .LASF636
     /tmp/cc7jEFKv.s:84030  .debug_str:0000000000014440 .LASF637
     /tmp/cc7jEFKv.s:78338  .debug_str:0000000000005075 .LASF638
     /tmp/cc7jEFKv.s:80170  .debug_str:0000000000009eec .LASF639
     /tmp/cc7jEFKv.s:81396  .debug_str:000000000000d066 .LASF640
     /tmp/cc7jEFKv.s:78390  .debug_str:00000000000052f7 .LASF641
     /tmp/cc7jEFKv.s:77178  .debug_str:0000000000001ce2 .LASF642
     /tmp/cc7jEFKv.s:78292  .debug_str:0000000000004ef1 .LASF643
     /tmp/cc7jEFKv.s:78392  .debug_str:00000000000052fd .LASF644
     /tmp/cc7jEFKv.s:80408  .debug_str:000000000000a920 .LASF645
     /tmp/cc7jEFKv.s:82088  .debug_str:000000000000f079 .LASF646
     /tmp/cc7jEFKv.s:77184  .debug_str:0000000000001d3e .LASF647
     /tmp/cc7jEFKv.s:83514  .debug_str:0000000000012d08 .LASF648
     /tmp/cc7jEFKv.s:77688  .debug_str:00000000000033a7 .LASF649
     /tmp/cc7jEFKv.s:77188  .debug_str:0000000000001d4f .LASF650
     /tmp/cc7jEFKv.s:78932  .debug_str:0000000000006735 .LASF651
     /tmp/cc7jEFKv.s:77690  .debug_str:00000000000033b1 .LASF652
     /tmp/cc7jEFKv.s:78398  .debug_str:0000000000005336 .LASF653
     /tmp/cc7jEFKv.s:82118  .debug_str:000000000000f1a4 .LASF654
     /tmp/cc7jEFKv.s:78636  .debug_str:0000000000005bd1 .LASF655
     /tmp/cc7jEFKv.s:78400  .debug_str:000000000000533c .LASF656
     /tmp/cc7jEFKv.s:77426  .debug_str:00000000000027b2 .LASF657
     /tmp/cc7jEFKv.s:81860  .debug_str:000000000000e65f .LASF658
     /tmp/cc7jEFKv.s:78402  .debug_str:0000000000005342 .LASF659
     /tmp/cc7jEFKv.s:80726  .debug_str:000000000000b4d9 .LASF660
     /tmp/cc7jEFKv.s:81864  .debug_str:000000000000e690 .LASF661
     /tmp/cc7jEFKv.s:77196  .debug_str:0000000000001d9b .LASF662
     /tmp/cc7jEFKv.s:83782  .debug_str:00000000000138d4 .LASF663
     /tmp/cc7jEFKv.s:81736  .debug_str:000000000000e098 .LASF664
     /tmp/cc7jEFKv.s:78406  .debug_str:0000000000005357 .LASF665
     /tmp/cc7jEFKv.s:79236  .debug_str:0000000000007538 .LASF666
     /tmp/cc7jEFKv.s:77250  .debug_str:0000000000001fba .LASF667
     /tmp/cc7jEFKv.s:78408  .debug_str:000000000000535d .LASF668
     /tmp/cc7jEFKv.s:82354  .debug_str:000000000000fc4f .LASF669
     /tmp/cc7jEFKv.s:83264  .debug_str:000000000001225d .LASF670
     /tmp/cc7jEFKv.s:78480  .debug_str:000000000000565b .LASF671
     /tmp/cc7jEFKv.s:79462  .debug_str:0000000000007f09 .LASF672
     /tmp/cc7jEFKv.s:82862  .debug_str:000000000001128e .LASF673
     /tmp/cc7jEFKv.s:78482  .debug_str:0000000000005661 .LASF674
     /tmp/cc7jEFKv.s:82600  .debug_str:00000000000106ce .LASF675
     /tmp/cc7jEFKv.s:82246  .debug_str:000000000000f748 .LASF676
     /tmp/cc7jEFKv.s:78484  .debug_str:0000000000005667 .LASF677
     /tmp/cc7jEFKv.s:77926  .debug_str:0000000000003dbc .LASF678
     /tmp/cc7jEFKv.s:80812  .debug_str:000000000000b883 .LASF679
     /tmp/cc7jEFKv.s:78486  .debug_str:000000000000566d .LASF680
     /tmp/cc7jEFKv.s:81266  .debug_str:000000000000ca95 .LASF681
     /tmp/cc7jEFKv.s:80816  .debug_str:000000000000b8a1 .LASF682
     /tmp/cc7jEFKv.s:78488  .debug_str:0000000000005673 .LASF683
     /tmp/cc7jEFKv.s:76478  .debug_str:000000000000004d .LASF684
     /tmp/cc7jEFKv.s:77290  .debug_str:0000000000002157 .LASF685
     /tmp/cc7jEFKv.s:78490  .debug_str:0000000000005679 .LASF686
     /tmp/cc7jEFKv.s:79748  .debug_str:0000000000008cd8 .LASF687
     /tmp/cc7jEFKv.s:77966  .debug_str:0000000000003f7f .LASF688
     /tmp/cc7jEFKv.s:78492  .debug_str:000000000000567f .LASF689
     /tmp/cc7jEFKv.s:81962  .debug_str:000000000000ea85 .LASF690
     /tmp/cc7jEFKv.s:77020  .debug_str:0000000000001653 .LASF691
     /tmp/cc7jEFKv.s:78494  .debug_str:0000000000005685 .LASF692
     /tmp/cc7jEFKv.s:78206  .debug_str:0000000000004ac6 .LASF693
     /tmp/cc7jEFKv.s:78864  .debug_str:00000000000064b5 .LASF694
     /tmp/cc7jEFKv.s:78496  .debug_str:000000000000568b .LASF695
     /tmp/cc7jEFKv.s:81508  .debug_str:000000000000d5b7 .LASF696
     /tmp/cc7jEFKv.s:79706  .debug_str:0000000000008ac3 .LASF697
     /tmp/cc7jEFKv.s:78498  .debug_str:0000000000005691 .LASF698
     /tmp/cc7jEFKv.s:76754  .debug_str:0000000000000bf7 .LASF699
     /tmp/cc7jEFKv.s:83704  .debug_str:0000000000013621 .LASF700
     /tmp/cc7jEFKv.s:78576  .debug_str:00000000000059d6 .LASF701
     /tmp/cc7jEFKv.s:81690  .debug_str:000000000000dee9 .LASF702
     /tmp/cc7jEFKv.s:80850  .debug_str:000000000000b9a7 .LASF703
     /tmp/cc7jEFKv.s:84066  .debug_str:00000000000145d4 .LASF704
     /tmp/cc7jEFKv.s:77048  .debug_str:00000000000016df .LASF705
     /tmp/cc7jEFKv.s:79922  .debug_str:0000000000009485 .LASF706
     /tmp/cc7jEFKv.s:78580  .debug_str:00000000000059e7 .LASF707
     /tmp/cc7jEFKv.s:80260  .debug_str:000000000000a29e .LASF708
     /tmp/cc7jEFKv.s:82114  .debug_str:000000000000f188 .LASF709
     /tmp/cc7jEFKv.s:78582  .debug_str:00000000000059ed .LASF710
     /tmp/cc7jEFKv.s:83390  .debug_str:0000000000012791 .LASF711
     /tmp/cc7jEFKv.s:81560  .debug_str:000000000000d861 .LASF712
     /tmp/cc7jEFKv.s:78584  .debug_str:00000000000059f3 .LASF713
     /tmp/cc7jEFKv.s:78794  .debug_str:00000000000061ac .LASF714
     /tmp/cc7jEFKv.s:81562  .debug_str:000000000000d86e .LASF715
     /tmp/cc7jEFKv.s:78586  .debug_str:00000000000059f9 .LASF716
     /tmp/cc7jEFKv.s:81978  .debug_str:000000000000eb71 .LASF717
     /tmp/cc7jEFKv.s:82832  .debug_str:0000000000011126 .LASF718
     /tmp/cc7jEFKv.s:78588  .debug_str:00000000000059ff .LASF719
     /tmp/cc7jEFKv.s:77304  .debug_str:00000000000021c4 .LASF720
     /tmp/cc7jEFKv.s:77738  .debug_str:000000000000360c .LASF721
     /tmp/cc7jEFKv.s:78590  .debug_str:0000000000005a05 .LASF722
     /tmp/cc7jEFKv.s:80594  .debug_str:000000000000afde .LASF723
     /tmp/cc7jEFKv.s:77742  .debug_str:0000000000003648 .LASF724
     /tmp/cc7jEFKv.s:78592  .debug_str:0000000000005a0b .LASF725
     /tmp/cc7jEFKv.s:83642  .debug_str:00000000000132c1 .LASF726
     /tmp/cc7jEFKv.s:76640  .debug_str:000000000000078f .LASF727
     /tmp/cc7jEFKv.s:78594  .debug_str:0000000000005a11 .LASF728
     /tmp/cc7jEFKv.s:79096  .debug_str:0000000000006eb1 .LASF729
     /tmp/cc7jEFKv.s:82760  .debug_str:0000000000010e00 .LASF730
     /tmp/cc7jEFKv.s:78654  .debug_str:0000000000005cad .LASF731
     /tmp/cc7jEFKv.s:83942  .debug_str:0000000000013feb .LASF732
     /tmp/cc7jEFKv.s:82762  .debug_str:0000000000010e0e .LASF733
     /tmp/cc7jEFKv.s:78656  .debug_str:0000000000005cb3 .LASF734
     /tmp/cc7jEFKv.s:79396  .debug_str:0000000000007c0b .LASF735
     /tmp/cc7jEFKv.s:76670  .debug_str:00000000000008d4 .LASF736
     /tmp/cc7jEFKv.s:78658  .debug_str:0000000000005cb9 .LASF737
     /tmp/cc7jEFKv.s:82522  .debug_str:000000000001035d .LASF738
     /tmp/cc7jEFKv.s:79116  .debug_str:0000000000006f97 .LASF739
     /tmp/cc7jEFKv.s:78660  .debug_str:0000000000005cbf .LASF740
     /tmp/cc7jEFKv.s:77838  .debug_str:0000000000003a73 .LASF741
     /tmp/cc7jEFKv.s:79118  .debug_str:0000000000006fa5 .LASF742
     /tmp/cc7jEFKv.s:78662  .debug_str:0000000000005cc5 .LASF743
     /tmp/cc7jEFKv.s:81182  .debug_str:000000000000c69d .LASF744
     /tmp/cc7jEFKv.s:83440  .debug_str:00000000000129e1 .LASF745
     /tmp/cc7jEFKv.s:78664  .debug_str:0000000000005ccb .LASF746
     /tmp/cc7jEFKv.s:84192  .debug_str:0000000000014b40 .LASF747
     /tmp/cc7jEFKv.s:83550  .debug_str:0000000000012f06 .LASF748
     /tmp/cc7jEFKv.s:78666  .debug_str:0000000000005cd1 .LASF749
     /tmp/cc7jEFKv.s:79674  .debug_str:000000000000896d .LASF750
     /tmp/cc7jEFKv.s:83552  .debug_str:0000000000012f18 .LASF751
     /tmp/cc7jEFKv.s:77542  .debug_str:0000000000002d75 .LASF752
     /tmp/cc7jEFKv.s:82778  .debug_str:0000000000010eed .LASF753
     /tmp/cc7jEFKv.s:78860  .debug_str:000000000000648f .LASF754
     /tmp/cc7jEFKv.s:78670  .debug_str:0000000000005cde .LASF755
     /tmp/cc7jEFKv.s:78128  .debug_str:0000000000004791 .LASF756
     /tmp/cc7jEFKv.s:79916  .debug_str:0000000000009456 .LASF757
     /tmp/cc7jEFKv.s:78672  .debug_str:0000000000005ce4 .LASF758
     /tmp/cc7jEFKv.s:81448  .debug_str:000000000000d30d .LASF759
     /tmp/cc7jEFKv.s:79918  .debug_str:0000000000009468 .LASF760
     /tmp/cc7jEFKv.s:78720  .debug_str:0000000000005eaa .LASF761
     /tmp/cc7jEFKv.s:78352  .debug_str:000000000000510b .LASF762
     /tmp/cc7jEFKv.s:77902  .debug_str:0000000000003cee .LASF763
     /tmp/cc7jEFKv.s:78722  .debug_str:0000000000005eb0 .LASF764
     /tmp/cc7jEFKv.s:81630  .debug_str:000000000000dbc4 .LASF765
     /tmp/cc7jEFKv.s:78458  .debug_str:000000000000555c .LASF766
     /tmp/cc7jEFKv.s:78724  .debug_str:0000000000005eb6 .LASF767
     /tmp/cc7jEFKv.s:76938  .debug_str:000000000000132e .LASF768
     /tmp/cc7jEFKv.s:78460  .debug_str:0000000000005568 .LASF769
     /tmp/cc7jEFKv.s:78726  .debug_str:0000000000005ebc .LASF770
     /tmp/cc7jEFKv.s:80184  .debug_str:0000000000009f84 .LASF771
     /tmp/cc7jEFKv.s:82334  .debug_str:000000000000fb7b .LASF772
     /tmp/cc7jEFKv.s:78728  .debug_str:0000000000005ec2 .LASF773
     /tmp/cc7jEFKv.s:83312  .debug_str:000000000001248c .LASF774
     /tmp/cc7jEFKv.s:82586  .debug_str:0000000000010636 .LASF775
     /tmp/cc7jEFKv.s:78730  .debug_str:0000000000005ec8 .LASF776
     /tmp/cc7jEFKv.s:78708  .debug_str:0000000000005e1f .LASF777
     /tmp/cc7jEFKv.s:82588  .debug_str:0000000000010642 .LASF778
     /tmp/cc7jEFKv.s:78732  .debug_str:0000000000005ece .LASF779
     /tmp/cc7jEFKv.s:81892  .debug_str:000000000000e791 .LASF780
     /tmp/cc7jEFKv.s:83266  .debug_str:0000000000012268 .LASF781
     /tmp/cc7jEFKv.s:78734  .debug_str:0000000000005ed4 .LASF782
     /tmp/cc7jEFKv.s:77230  .debug_str:0000000000001eea .LASF783
     /tmp/cc7jEFKv.s:81692  .debug_str:000000000000df09 .LASF784
     /tmp/cc7jEFKv.s:78736  .debug_str:0000000000005eda .LASF785
     /tmp/cc7jEFKv.s:80486  .debug_str:000000000000ac0e .LASF786
     /tmp/cc7jEFKv.s:81694  .debug_str:000000000000df16 .LASF787
     /tmp/cc7jEFKv.s:78738  .debug_str:0000000000005ee0 .LASF788
     /tmp/cc7jEFKv.s:83574  .debug_str:0000000000012f9d .LASF789
     /tmp/cc7jEFKv.s:79782  .debug_str:0000000000008dfe .LASF790
     /tmp/cc7jEFKv.s:78792  .debug_str:00000000000061a6 .LASF791
     /tmp/cc7jEFKv.s:80736  .debug_str:000000000000b547 .LASF792
     /tmp/cc7jEFKv.s:77904  .debug_str:0000000000003cfc .LASF793
     /tmp/cc7jEFKv.s:77776  .debug_str:0000000000003774 .LASF794
     /tmp/cc7jEFKv.s:83792  .debug_str:000000000001395d .LASF795
     /tmp/cc7jEFKv.s:77906  .debug_str:0000000000003d09 .LASF796
     /tmp/cc7jEFKv.s:78796  .debug_str:00000000000061cc .LASF797
     /tmp/cc7jEFKv.s:79244  .debug_str:0000000000007599 .LASF798
     /tmp/cc7jEFKv.s:78690  .debug_str:0000000000005d8b .LASF799
     /tmp/cc7jEFKv.s:78798  .debug_str:00000000000061d2 .LASF800
     /tmp/cc7jEFKv.s:82372  .debug_str:000000000000fd27 .LASF801
     /tmp/cc7jEFKv.s:79716  .debug_str:0000000000008b1e .LASF802
     /tmp/cc7jEFKv.s:78800  .debug_str:00000000000061d8 .LASF803
     /tmp/cc7jEFKv.s:77702  .debug_str:0000000000003443 .LASF804
     /tmp/cc7jEFKv.s:79718  .debug_str:0000000000008b2a .LASF805
     /tmp/cc7jEFKv.s:78802  .debug_str:00000000000061de .LASF806
     /tmp/cc7jEFKv.s:81486  .debug_str:000000000000d4d8 .LASF807
     /tmp/cc7jEFKv.s:84064  .debug_str:00000000000145ca .LASF808
     /tmp/cc7jEFKv.s:78804  .debug_str:00000000000061e4 .LASF809
     /tmp/cc7jEFKv.s:84078  .debug_str:0000000000014651 .LASF810
     /tmp/cc7jEFKv.s:80374  .debug_str:000000000000a788 .LASF811
     /tmp/cc7jEFKv.s:78806  .debug_str:00000000000061ea .LASF812
     /tmp/cc7jEFKv.s:79526  .debug_str:000000000000829e .LASF813
     /tmp/cc7jEFKv.s:83738  .debug_str:000000000001374c .LASF814
     /tmp/cc7jEFKv.s:78808  .debug_str:00000000000061f0 .LASF815
     /tmp/cc7jEFKv.s:82662  .debug_str:0000000000010a09 .LASF816
     /tmp/cc7jEFKv.s:83414  .debug_str:00000000000128b2 .LASF817
     /tmp/cc7jEFKv.s:78810  .debug_str:00000000000061f6 .LASF818
     /tmp/cc7jEFKv.s:77998  .debug_str:0000000000004101 .LASF819
     /tmp/cc7jEFKv.s:77210  .debug_str:0000000000001e19 .LASF820
     /tmp/cc7jEFKv.s:77898  .debug_str:0000000000003cc5 .LASF821
     /tmp/cc7jEFKv.s:82866  .debug_str:00000000000112b8 .LASF822
     /tmp/cc7jEFKv.s:77316  .debug_str:0000000000002278 .LASF823
     /tmp/cc7jEFKv.s:78866  .debug_str:00000000000064c1 .LASF824
     /tmp/cc7jEFKv.s:78220  .debug_str:0000000000004b58 .LASF825
     /tmp/cc7jEFKv.s:80028  .debug_str:00000000000098d9 .LASF826
     /tmp/cc7jEFKv.s:78868  .debug_str:00000000000064c7 .LASF827
     /tmp/cc7jEFKv.s:81518  .debug_str:000000000000d63b .LASF828
     /tmp/cc7jEFKv.s:83458  .debug_str:0000000000012ac4 .LASF829
     /tmp/cc7jEFKv.s:78870  .debug_str:00000000000064cd .LASF830
     /tmp/cc7jEFKv.s:76776  .debug_str:0000000000000ccf .LASF831
     /tmp/cc7jEFKv.s:78700  .debug_str:0000000000005de2 .LASF832
     /tmp/cc7jEFKv.s:78872  .debug_str:00000000000064d3 .LASF833
     /tmp/cc7jEFKv.s:80046  .debug_str:000000000000996f .LASF834
     /tmp/cc7jEFKv.s:76976  .debug_str:0000000000001471 .LASF835
     /tmp/cc7jEFKv.s:78874  .debug_str:00000000000064d9 .LASF836
     /tmp/cc7jEFKv.s:83166  .debug_str:0000000000011ee0 .LASF837
     /tmp/cc7jEFKv.s:82200  .debug_str:000000000000f51f .LASF838
     /tmp/cc7jEFKv.s:78876  .debug_str:00000000000064df .LASF839
     /tmp/cc7jEFKv.s:78544  .debug_str:0000000000005830 .LASF840
     /tmp/cc7jEFKv.s:83692  .debug_str:000000000001357e .LASF841
     /tmp/cc7jEFKv.s:78878  .debug_str:00000000000064e5 .LASF842
     /tmp/cc7jEFKv.s:81762  .debug_str:000000000000e1d3 .LASF843
     /tmp/cc7jEFKv.s:78998  .debug_str:0000000000006a63 .LASF844
     /tmp/cc7jEFKv.s:78880  .debug_str:00000000000064eb .LASF845
     /tmp/cc7jEFKv.s:77116  .debug_str:00000000000019da .LASF846
     /tmp/cc7jEFKv.s:84232  .debug_str:0000000000014cf7 .LASF847
     /tmp/cc7jEFKv.s:78882  .debug_str:00000000000064f1 .LASF848
     /tmp/cc7jEFKv.s:80330  .debug_str:000000000000a5d3 .LASF849
     /tmp/cc7jEFKv.s:80732  .debug_str:000000000000b521 .LASF850
     /tmp/cc7jEFKv.s:80342  .debug_str:000000000000a689 .LASF851
     /tmp/cc7jEFKv.s:77324  .debug_str:00000000000022ce .LASF852
     /tmp/cc7jEFKv.s:82150  .debug_str:000000000000f2ee .LASF853
     /tmp/cc7jEFKv.s:80344  .debug_str:000000000000a690 .LASF854
     /tmp/cc7jEFKv.s:80604  .debug_str:000000000000b04f .LASF855
     /tmp/cc7jEFKv.s:79158  .debug_str:0000000000007177 .LASF856
     /tmp/cc7jEFKv.s:80346  .debug_str:000000000000a697 .LASF857
     /tmp/cc7jEFKv.s:83660  .debug_str:00000000000133b7 .LASF858
     /tmp/cc7jEFKv.s:76914  .debug_str:00000000000011e2 .LASF859
     /tmp/cc7jEFKv.s:80348  .debug_str:000000000000a69e .LASF860
     /tmp/cc7jEFKv.s:80092  .debug_str:0000000000009b98 .LASF861
     /tmp/cc7jEFKv.s:76918  .debug_str:0000000000001203 .LASF862
     /tmp/cc7jEFKv.s:80350  .debug_str:000000000000a6a5 .LASF863
     /tmp/cc7jEFKv.s:82250  .debug_str:000000000000f76c .LASF864
     /tmp/cc7jEFKv.s:81316  .debug_str:000000000000cce5 .LASF865
     /tmp/cc7jEFKv.s:80352  .debug_str:000000000000a6ac .LASF866
     /tmp/cc7jEFKv.s:77578  .debug_str:0000000000002efc .LASF867
     /tmp/cc7jEFKv.s:77752  .debug_str:0000000000003696 .LASF868
     /tmp/cc7jEFKv.s:80410  .debug_str:000000000000a940 .LASF869
     /tmp/cc7jEFKv.s:80880  .debug_str:000000000000bac6 .LASF870
     /tmp/cc7jEFKv.s:82544  .debug_str:0000000000010483 .LASF871
     /tmp/cc7jEFKv.s:80356  .debug_str:000000000000a6e6 .LASF872
     /tmp/cc7jEFKv.s:76984  .debug_str:00000000000014ce .LASF873
     /tmp/cc7jEFKv.s:76752  .debug_str:0000000000000be6 .LASF874
     /tmp/cc7jEFKv.s:80358  .debug_str:000000000000a6ed .LASF875
     /tmp/cc7jEFKv.s:79402  .debug_str:0000000000007c5e .LASF876
     /tmp/cc7jEFKv.s:76756  .debug_str:0000000000000c17 .LASF877
     /tmp/cc7jEFKv.s:80360  .debug_str:000000000000a6f4 .LASF878
     /tmp/cc7jEFKv.s:82532  .debug_str:00000000000103ea .LASF879
     /tmp/cc7jEFKv.s:81600  .debug_str:000000000000da2e .LASF880
     /tmp/cc7jEFKv.s:80418  .debug_str:000000000000a98b .LASF881
     /tmp/cc7jEFKv.s:77996  .debug_str:00000000000040e0 .LASF882
     /tmp/cc7jEFKv.s:81018  .debug_str:000000000000bf79 .LASF883
     /tmp/cc7jEFKv.s:80420  .debug_str:000000000000a992 .LASF884
     /tmp/cc7jEFKv.s:82736  .debug_str:0000000000010d1e .LASF885
     /tmp/cc7jEFKv.s:81020  .debug_str:000000000000bf8a .LASF886
     /tmp/cc7jEFKv.s:80422  .debug_str:000000000000a999 .LASF887
     /tmp/cc7jEFKv.s:78078  .debug_str:00000000000044ac .LASF888
     /tmp/cc7jEFKv.s:77522  .debug_str:0000000000002cbb .LASF889
     /tmp/cc7jEFKv.s:80424  .debug_str:000000000000a9a0 .LASF890
     /tmp/cc7jEFKv.s:81408  .debug_str:000000000000d11d .LASF891
     /tmp/cc7jEFKv.s:83256  .debug_str:0000000000012227 .LASF892
     /tmp/cc7jEFKv.s:80426  .debug_str:000000000000a9a7 .LASF893
     /tmp/cc7jEFKv.s:76624  .debug_str:00000000000006b4 .LASF894
     /tmp/cc7jEFKv.s:83260  .debug_str:000000000001223f .LASF895
     /tmp/cc7jEFKv.s:80428  .debug_str:000000000000a9ae .LASF896
     /tmp/cc7jEFKv.s:79910  .debug_str:000000000000940d .LASF897
     /tmp/cc7jEFKv.s:78630  .debug_str:0000000000005b75 .LASF898
     /tmp/cc7jEFKv.s:80566  .debug_str:000000000000af57 .LASF899
     /tmp/cc7jEFKv.s:83022  .debug_str:0000000000011969 .LASF900
     /tmp/cc7jEFKv.s:79598  .debug_str:0000000000008625 .LASF901
     /tmp/cc7jEFKv.s:80570  .debug_str:000000000000af67 .LASF902
     /tmp/cc7jEFKv.s:78356  .debug_str:0000000000005140 .LASF903
     /tmp/cc7jEFKv.s:79602  .debug_str:0000000000008647 .LASF904
     /tmp/cc7jEFKv.s:80434  .debug_str:000000000000a9ed .LASF905
     /tmp/cc7jEFKv.s:81634  .debug_str:000000000000dc0b .LASF906
     /tmp/cc7jEFKv.s:83248  .debug_str:00000000000121f1 .LASF907
     /tmp/cc7jEFKv.s:80436  .debug_str:000000000000a9f4 .LASF908
     /tmp/cc7jEFKv.s:76956  .debug_str:0000000000001386 .LASF909
     /tmp/cc7jEFKv.s:83852  .debug_str:0000000000013bf6 .LASF910
     /tmp/cc7jEFKv.s:80490  .debug_str:000000000000ac39 .LASF911
     /tmp/cc7jEFKv.s:79104  .debug_str:0000000000006f21 .LASF912
     /tmp/cc7jEFKv.s:77292  .debug_str:0000000000002161 .LASF913
     /tmp/cc7jEFKv.s:80690  .debug_str:000000000000b403 .LASF914
     /tmp/cc7jEFKv.s:77202  .debug_str:0000000000001dba .LASF915
     /tmp/cc7jEFKv.s:81054  .debug_str:000000000000c104 .LASF916
     /tmp/cc7jEFKv.s:80494  .debug_str:000000000000ac4f .LASF917
     /tmp/cc7jEFKv.s:80444  .debug_str:000000000000aa50 .LASF918
     /tmp/cc7jEFKv.s:80210  .debug_str:000000000000a110 .LASF919
     /tmp/cc7jEFKv.s:80496  .debug_str:000000000000ac56 .LASF920
     /tmp/cc7jEFKv.s:83532  .debug_str:0000000000012dff .LASF921
     /tmp/cc7jEFKv.s:80214  .debug_str:000000000000a127 .LASF922
     /tmp/cc7jEFKv.s:80498  .debug_str:000000000000ac5d .LASF923
     /tmp/cc7jEFKv.s:78944  .debug_str:00000000000067be .LASF924
     /tmp/cc7jEFKv.s:77946  .debug_str:0000000000003e99 .LASF925
     /tmp/cc7jEFKv.s:80500  .debug_str:000000000000ac64 .LASF926
     /tmp/cc7jEFKv.s:82136  .debug_str:000000000000f258 .LASF927
     /tmp/cc7jEFKv.s:78504  .debug_str:00000000000056b5 .LASF928
     /tmp/cc7jEFKv.s:80502  .debug_str:000000000000ac6b .LASF929
     /tmp/cc7jEFKv.s:77446  .debug_str:0000000000002882 .LASF930
     /tmp/cc7jEFKv.s:78506  .debug_str:00000000000056c0 .LASF931
     /tmp/cc7jEFKv.s:80504  .debug_str:000000000000ac72 .LASF932
     /tmp/cc7jEFKv.s:80746  .debug_str:000000000000b5b0 .LASF933
     /tmp/cc7jEFKv.s:77248  .debug_str:0000000000001fb1 .LASF934
     /tmp/cc7jEFKv.s:80506  .debug_str:000000000000ac79 .LASF935
     /tmp/cc7jEFKv.s:83802  .debug_str:00000000000139b5 .LASF936
     /tmp/cc7jEFKv.s:82614  .debug_str:000000000001079f .LASF937
     /tmp/cc7jEFKv.s:80508  .debug_str:000000000000ac80 .LASF938
     /tmp/cc7jEFKv.s:79256  .debug_str:000000000000760e .LASF939
     /tmp/cc7jEFKv.s:82616  .debug_str:00000000000107aa .LASF940
     /tmp/cc7jEFKv.s:80574  .debug_str:000000000000af81 .LASF941
     /tmp/cc7jEFKv.s:84038  .debug_str:000000000001449f .LASF942
     /tmp/cc7jEFKv.s:77874  .debug_str:0000000000003bb3 .LASF943
     /tmp/cc7jEFKv.s:80576  .debug_str:000000000000af88 .LASF944
     /tmp/cc7jEFKv.s:79480  .debug_str:0000000000008040 .LASF945
     /tmp/cc7jEFKv.s:78358  .debug_str:0000000000005161 .LASF946
     /tmp/cc7jEFKv.s:80578  .debug_str:000000000000af8f .LASF947
     /tmp/cc7jEFKv.s:83522  .debug_str:0000000000012d80 .LASF948
     /tmp/cc7jEFKv.s:80306  .debug_str:000000000000a4ba .LASF949
     /tmp/cc7jEFKv.s:80580  .debug_str:000000000000af96 .LASF950
     /tmp/cc7jEFKv.s:77956  .debug_str:0000000000003ef8 .LASF951
     /tmp/cc7jEFKv.s:81056  .debug_str:000000000000c111 .LASF952
     /tmp/cc7jEFKv.s:80582  .debug_str:000000000000af9d .LASF953
     /tmp/cc7jEFKv.s:81290  .debug_str:000000000000cb82 .LASF954
     /tmp/cc7jEFKv.s:79972  .debug_str:0000000000009702 .LASF955
     /tmp/cc7jEFKv.s:81086  .debug_str:000000000000c287 .LASF956
     /tmp/cc7jEFKv.s:76494  .debug_str:0000000000000117 .LASF957
     /tmp/cc7jEFKv.s:79530  .debug_str:00000000000082d1 .LASF958
     /tmp/cc7jEFKv.s:80586  .debug_str:000000000000afc2 .LASF959
     /tmp/cc7jEFKv.s:79768  .debug_str:0000000000008d91 .LASF960
     /tmp/cc7jEFKv.s:79534  .debug_str:00000000000082f4 .LASF961
     /tmp/cc7jEFKv.s:80588  .debug_str:000000000000afc9 .LASF962
     /tmp/cc7jEFKv.s:82874  .debug_str:000000000001133d .LASF963
     /tmp/cc7jEFKv.s:82748  .debug_str:0000000000010d9c .LASF964
     /tmp/cc7jEFKv.s:80590  .debug_str:000000000000afd0 .LASF965
     /tmp/cc7jEFKv.s:78228  .debug_str:0000000000004bab .LASF966
     /tmp/cc7jEFKv.s:83554  .debug_str:0000000000012f2a .LASF967
     /tmp/cc7jEFKv.s:80592  .debug_str:000000000000afd7 .LASF968
     /tmp/cc7jEFKv.s:81522  .debug_str:000000000000d6a5 .LASF969
     /tmp/cc7jEFKv.s:83556  .debug_str:0000000000012f36 .LASF970
     /tmp/cc7jEFKv.s:80640  .debug_str:000000000000b1fc .LASF971
     /tmp/cc7jEFKv.s:78476  .debug_str:0000000000005623 .LASF972
     /tmp/cc7jEFKv.s:81078  .debug_str:000000000000c24a .LASF973
     /tmp/cc7jEFKv.s:80642  .debug_str:000000000000b203 .LASF974
     /tmp/cc7jEFKv.s:83888  .debug_str:0000000000013d34 .LASF975
     /tmp/cc7jEFKv.s:83790  .debug_str:0000000000013952 .LASF976
     /tmp/cc7jEFKv.s:80644  .debug_str:000000000000b20a .LASF977
     /tmp/cc7jEFKv.s:77080  .debug_str:000000000000183c .LASF978
     /tmp/cc7jEFKv.s:77876  .debug_str:0000000000003bc3 .LASF979
     /tmp/cc7jEFKv.s:80646  .debug_str:000000000000b211 .LASF980
     /tmp/cc7jEFKv.s:80282  .debug_str:000000000000a369 .LASF981
     /tmp/cc7jEFKv.s:80714  .debug_str:000000000000b482 .LASF982
     /tmp/cc7jEFKv.s:80648  .debug_str:000000000000b218 .LASF983
     /tmp/cc7jEFKv.s:83400  .debug_str:000000000001282c .LASF984
     /tmp/cc7jEFKv.s:81866  .debug_str:000000000000e69a .LASF985
     /tmp/cc7jEFKv.s:80650  .debug_str:000000000000b21f .LASF986
     /tmp/cc7jEFKv.s:78824  .debug_str:000000000000628d .LASF987
     /tmp/cc7jEFKv.s:83330  .debug_str:000000000001253d .LASF988
     /tmp/cc7jEFKv.s:80652  .debug_str:000000000000b226 .LASF989
     /tmp/cc7jEFKv.s:82008  .debug_str:000000000000ecbb .LASF990
     /tmp/cc7jEFKv.s:83332  .debug_str:0000000000012548 .LASF991
     /tmp/cc7jEFKv.s:80654  .debug_str:000000000000b22d .LASF992
     /tmp/cc7jEFKv.s:83228  .debug_str:0000000000012135 .LASF993
     /tmp/cc7jEFKv.s:77438  .debug_str:000000000000284f .LASF994
     /tmp/cc7jEFKv.s:80656  .debug_str:000000000000b234 .LASF995
     /tmp/cc7jEFKv.s:80612  .debug_str:000000000000b0b3 .LASF996
     /tmp/cc7jEFKv.s:77226  .debug_str:0000000000001ec3 .LASF997
     /tmp/cc7jEFKv.s:80658  .debug_str:000000000000b23b .LASF998
     /tmp/cc7jEFKv.s:83668  .debug_str:000000000001343c .LASF999
     /tmp/cc7jEFKv.s:81514  .debug_str:000000000000d609 .LASF1000
     /tmp/cc7jEFKv.s:80698  .debug_str:000000000000b445 .LASF1001
     /tmp/cc7jEFKv.s:80834  .debug_str:000000000000b906 .LASF1002
     /tmp/cc7jEFKv.s:79670  .debug_str:000000000000893d .LASF1003
     /tmp/cc7jEFKv.s:80700  .debug_str:000000000000b44c .LASF1004
     /tmp/cc7jEFKv.s:83904  .debug_str:0000000000013e07 .LASF1005
     /tmp/cc7jEFKv.s:82640  .debug_str:00000000000108f6 .LASF1006
     /tmp/cc7jEFKv.s:81096  .debug_str:000000000000c2de .LASF1007
     /tmp/cc7jEFKv.s:79348  .debug_str:000000000000796c .LASF1008
     /tmp/cc7jEFKv.s:81916  .debug_str:000000000000e88c .LASF1009
     /tmp/cc7jEFKv.s:80704  .debug_str:000000000000b45f .LASF1010
     /tmp/cc7jEFKv.s:82474  .debug_str:0000000000010129 .LASF1011
     /tmp/cc7jEFKv.s:80804  .debug_str:000000000000b833 .LASF1012
     /tmp/cc7jEFKv.s:80706  .debug_str:000000000000b466 .LASF1013
     /tmp/cc7jEFKv.s:77798  .debug_str:000000000000386b .LASF1014
     /tmp/cc7jEFKv.s:79336  .debug_str:0000000000007903 .LASF1015
     /tmp/cc7jEFKv.s:80708  .debug_str:000000000000b46d .LASF1016
     /tmp/cc7jEFKv.s:81138  .debug_str:000000000000c483 .LASF1017
     /tmp/cc7jEFKv.s:80610  .debug_str:000000000000b0a1 .LASF1018
     /tmp/cc7jEFKv.s:80710  .debug_str:000000000000b474 .LASF1019
     /tmp/cc7jEFKv.s:83582  .debug_str:0000000000013018 .LASF1020
     /tmp/cc7jEFKv.s:80744  .debug_str:000000000000b59e .LASF1021
     /tmp/cc7jEFKv.s:80712  .debug_str:000000000000b47b .LASF1022
     /tmp/cc7jEFKv.s:79630  .debug_str:0000000000008792 .LASF1023
     /tmp/cc7jEFKv.s:83486  .debug_str:0000000000012c07 .LASF1024
     /tmp/cc7jEFKv.s:81106  .debug_str:000000000000c338 .LASF1025
     /tmp/cc7jEFKv.s:82750  .debug_str:0000000000010da6 .LASF1026
     /tmp/cc7jEFKv.s:83490  .debug_str:0000000000012c34 .LASF1027
     /tmp/cc7jEFKv.s:80716  .debug_str:000000000000b48f .LASF1028
     /tmp/cc7jEFKv.s:78086  .debug_str:0000000000004529 .LASF1029
     /tmp/cc7jEFKv.s:79414  .debug_str:0000000000007ce0 .LASF1030
     /tmp/cc7jEFKv.s:80764  .debug_str:000000000000b691 .LASF1031
     /tmp/cc7jEFKv.s:83040  .debug_str:0000000000011a24 .LASF1032
     /tmp/cc7jEFKv.s:79824  .debug_str:0000000000009011 .LASF1033
     /tmp/cc7jEFKv.s:80766  .debug_str:000000000000b698 .LASF1034
     /tmp/cc7jEFKv.s:78362  .debug_str:0000000000005186 .LASF1035
     /tmp/cc7jEFKv.s:79828  .debug_str:000000000000904e .LASF1036
     /tmp/cc7jEFKv.s:80768  .debug_str:000000000000b69f .LASF1037
     /tmp/cc7jEFKv.s:81642  .debug_str:000000000000dc86 .LASF1038
     /tmp/cc7jEFKv.s:79860  .debug_str:00000000000091d4 .LASF1039
     /tmp/cc7jEFKv.s:80770  .debug_str:000000000000b6a6 .LASF1040
     /tmp/cc7jEFKv.s:76974  .debug_str:0000000000001450 .LASF1041
     /tmp/cc7jEFKv.s:77450  .debug_str:00000000000028cb .LASF1042
     /tmp/cc7jEFKv.s:81602  .debug_str:000000000000da3d .LASF1043
     /tmp/cc7jEFKv.s:80198  .debug_str:000000000000a054 .LASF1044
     /tmp/cc7jEFKv.s:80278  .debug_str:000000000000a350 .LASF1045
     /tmp/cc7jEFKv.s:80774  .debug_str:000000000000b6b7 .LASF1046
     /tmp/cc7jEFKv.s:83336  .debug_str:0000000000012563 .LASF1047
     /tmp/cc7jEFKv.s:76994  .debug_str:000000000000154b .LASF1048
     /tmp/cc7jEFKv.s:80776  .debug_str:000000000000b6be .LASF1049
     /tmp/cc7jEFKv.s:78740  .debug_str:0000000000005ee6 .LASF1050
     /tmp/cc7jEFKv.s:83372  .debug_str:00000000000126e0 .LASF1051
     /tmp/cc7jEFKv.s:80778  .debug_str:000000000000b6c5 .LASF1052
     /tmp/cc7jEFKv.s:81920  .debug_str:000000000000e8b2 .LASF1053
     /tmp/cc7jEFKv.s:77840  .debug_str:0000000000003a93 .LASF1054
     /tmp/cc7jEFKv.s:80780  .debug_str:000000000000b6cc .LASF1055
     /tmp/cc7jEFKv.s:77252  .debug_str:0000000000001fca .LASF1056
     /tmp/cc7jEFKv.s:77848  .debug_str:0000000000003ac8 .LASF1057
     /tmp/cc7jEFKv.s:80782  .debug_str:000000000000b6d3 .LASF1058
     /tmp/cc7jEFKv.s:80522  .debug_str:000000000000ad2e .LASF1059
     /tmp/cc7jEFKv.s:77530  .debug_str:0000000000002d0c .LASF1060
     /tmp/cc7jEFKv.s:80820  .debug_str:000000000000b8ca .LASF1061
     /tmp/cc7jEFKv.s:77466  .debug_str:0000000000002995 .LASF1062
     /tmp/cc7jEFKv.s:79540  .debug_str:0000000000008333 .LASF1063
     /tmp/cc7jEFKv.s:80822  .debug_str:000000000000b8d1 .LASF1064
     /tmp/cc7jEFKv.s:80756  .debug_str:000000000000b627 .LASF1065
     /tmp/cc7jEFKv.s:79544  .debug_str:0000000000008359 .LASF1066
     /tmp/cc7jEFKv.s:80824  .debug_str:000000000000b8d8 .LASF1067
     /tmp/cc7jEFKv.s:83820  .debug_str:0000000000013a5e .LASF1068
     /tmp/cc7jEFKv.s:84028  .debug_str:0000000000014430 .LASF1069
     /tmp/cc7jEFKv.s:80826  .debug_str:000000000000b8df .LASF1070
     /tmp/cc7jEFKv.s:79268  .debug_str:0000000000007690 .LASF1071
     /tmp/cc7jEFKv.s:82800  .debug_str:0000000000010ffc .LASF1072
     /tmp/cc7jEFKv.s:80828  .debug_str:000000000000b8e6 .LASF1073
     /tmp/cc7jEFKv.s:82392  .debug_str:000000000000fdf9 .LASF1074
     /tmp/cc7jEFKv.s:80172  .debug_str:0000000000009f0c .LASF1075
     /tmp/cc7jEFKv.s:81358  .debug_str:000000000000ce9b .LASF1076
     /tmp/cc7jEFKv.s:77732  .debug_str:00000000000035bf .LASF1077
     /tmp/cc7jEFKv.s:83220  .debug_str:00000000000120e6 .LASF1078
     /tmp/cc7jEFKv.s:80832  .debug_str:000000000000b8ff .LASF1079
     /tmp/cc7jEFKv.s:81068  .debug_str:000000000000c1c0 .LASF1080
     /tmp/cc7jEFKv.s:84164  .debug_str:00000000000149b6 .LASF1081
     /tmp/cc7jEFKv.s:81360  .debug_str:000000000000cea2 .LASF1082
     /tmp/cc7jEFKv.s:84098  .debug_str:000000000001473c .LASF1083
     /tmp/cc7jEFKv.s:84168  .debug_str:0000000000014a0e .LASF1084
     /tmp/cc7jEFKv.s:80836  .debug_str:000000000000b927 .LASF1085
     /tmp/cc7jEFKv.s:79552  .debug_str:00000000000083bf .LASF1086
     /tmp/cc7jEFKv.s:78178  .debug_str:0000000000004986 .LASF1087
     /tmp/cc7jEFKv.s:80838  .debug_str:000000000000b92e .LASF1088
     /tmp/cc7jEFKv.s:82680  .debug_str:0000000000010ae9 .LASF1089
     /tmp/cc7jEFKv.s:79276  .debug_str:00000000000076f5 .LASF1090
     /tmp/cc7jEFKv.s:80890  .debug_str:000000000000bb22 .LASF1091
     /tmp/cc7jEFKv.s:77812  .debug_str:0000000000003947 .LASF1092
     /tmp/cc7jEFKv.s:79280  .debug_str:000000000000771d .LASF1093
     /tmp/cc7jEFKv.s:80892  .debug_str:000000000000bb29 .LASF1094
     /tmp/cc7jEFKv.s:82884  .debug_str:00000000000113e4 .LASF1095
     /tmp/cc7jEFKv.s:79536  .debug_str:0000000000008300 .LASF1096
     /tmp/cc7jEFKv.s:80894  .debug_str:000000000000bb30 .LASF1097
     /tmp/cc7jEFKv.s:78242  .debug_str:0000000000004c90 .LASF1098
     /tmp/cc7jEFKv.s:83320  .debug_str:00000000000124f1 .LASF1099
     /tmp/cc7jEFKv.s:80896  .debug_str:000000000000bb37 .LASF1100
     /tmp/cc7jEFKv.s:81534  .debug_str:000000000000d718 .LASF1101
     /tmp/cc7jEFKv.s:83322  .debug_str:0000000000012500 .LASF1102
     /tmp/cc7jEFKv.s:80898  .debug_str:000000000000bb3e .LASF1103
     /tmp/cc7jEFKv.s:76806  .debug_str:0000000000000d8b .LASF1104
     /tmp/cc7jEFKv.s:78620  .debug_str:0000000000005b32 .LASF1105
     /tmp/cc7jEFKv.s:80900  .debug_str:000000000000bb45 .LASF1106
     /tmp/cc7jEFKv.s:80072  .debug_str:0000000000009a54 .LASF1107
     /tmp/cc7jEFKv.s:83298  .debug_str:0000000000012406 .LASF1108
     /tmp/cc7jEFKv.s:81466  .debug_str:000000000000d3ff .LASF1109
     /tmp/cc7jEFKv.s:83182  .debug_str:0000000000011fec .LASF1110
     /tmp/cc7jEFKv.s:83302  .debug_str:000000000001242f .LASF1111
     /tmp/cc7jEFKv.s:80904  .debug_str:000000000000bb59 .LASF1112
     /tmp/cc7jEFKv.s:78574  .debug_str:00000000000059b5 .LASF1113
     /tmp/cc7jEFKv.s:82574  .debug_str:000000000001059d .LASF1114
     /tmp/cc7jEFKv.s:80906  .debug_str:000000000000bb60 .LASF1115
     /tmp/cc7jEFKv.s:81788  .debug_str:000000000000e2b5 .LASF1116
     /tmp/cc7jEFKv.s:79636  .debug_str:00000000000087e4 .LASF1117
     /tmp/cc7jEFKv.s:80908  .debug_str:000000000000bb67 .LASF1118
     /tmp/cc7jEFKv.s:77134  .debug_str:0000000000001ab2 .LASF1119
     /tmp/cc7jEFKv.s:79638  .debug_str:00000000000087f2 .LASF1120
     /tmp/cc7jEFKv.s:80968  .debug_str:000000000000bdf6 .LASF1121
     /tmp/cc7jEFKv.s:82026  .debug_str:000000000000edd7 .LASF1122
     /tmp/cc7jEFKv.s:82980  .debug_str:000000000001182a .LASF1123
     /tmp/cc7jEFKv.s:80970  .debug_str:000000000000bdfd .LASF1124
     /tmp/cc7jEFKv.s:77342  .debug_str:000000000000239c .LASF1125
     /tmp/cc7jEFKv.s:81538  .debug_str:000000000000d749 .LASF1126
     /tmp/cc7jEFKv.s:80972  .debug_str:000000000000be04 .LASF1127
     /tmp/cc7jEFKv.s:80622  .debug_str:000000000000b116 .LASF1128
     /tmp/cc7jEFKv.s:81542  .debug_str:000000000000d775 .LASF1129
     /tmp/cc7jEFKv.s:80974  .debug_str:000000000000be0b .LASF1130
     /tmp/cc7jEFKv.s:83684  .debug_str:0000000000013510 .LASF1131
     /tmp/cc7jEFKv.s:81680  .debug_str:000000000000de82 .LASF1132
     /tmp/cc7jEFKv.s:80976  .debug_str:000000000000be12 .LASF1133
     /tmp/cc7jEFKv.s:79128  .debug_str:0000000000007007 .LASF1134
     /tmp/cc7jEFKv.s:77710  .debug_str:000000000000349d .LASF1135
     /tmp/cc7jEFKv.s:80978  .debug_str:000000000000be19 .LASF1136
     /tmp/cc7jEFKv.s:82262  .debug_str:000000000000f7f8 .LASF1137
     /tmp/cc7jEFKv.s:77714  .debug_str:00000000000034ba .LASF1138
     /tmp/cc7jEFKv.s:80980  .debug_str:000000000000be20 .LASF1139
     /tmp/cc7jEFKv.s:77596  .debug_str:0000000000002fae .LASF1140
     /tmp/cc7jEFKv.s:76810  .debug_str:0000000000000dc3 .LASF1141
     /tmp/cc7jEFKv.s:80982  .debug_str:000000000000be27 .LASF1142
     /tmp/cc7jEFKv.s:80912  .debug_str:000000000000bb7b .LASF1143
     /tmp/cc7jEFKv.s:84008  .debug_str:0000000000014349 .LASF1144
     /tmp/cc7jEFKv.s:80984  .debug_str:000000000000be2e .LASF1145
     /tmp/cc7jEFKv.s:83974  .debug_str:0000000000014156 .LASF1146
     /tmp/cc7jEFKv.s:83798  .debug_str:0000000000013998 .LASF1147
     /tmp/cc7jEFKv.s:80986  .debug_str:000000000000be35 .LASF1148
     /tmp/cc7jEFKv.s:79416  .debug_str:0000000000007cee .LASF1149
     /tmp/cc7jEFKv.s:76618  .debug_str:0000000000000680 .LASF1150
     /tmp/cc7jEFKv.s:81206  .debug_str:000000000000c7be .LASF1151
     /tmp/cc7jEFKv.s:79800  .debug_str:0000000000008eed .LASF1152
     /tmp/cc7jEFKv.s:76622  .debug_str:00000000000006a5 .LASF1153
     /tmp/cc7jEFKv.s:76714  .debug_str:0000000000000a8f .LASF1154
     /tmp/cc7jEFKv.s:82908  .debug_str:0000000000011509 .LASF1155
     /tmp/cc7jEFKv.s:84250  .debug_str:0000000000014dcb .LASF1156
     /tmp/cc7jEFKv.s:76716  .debug_str:0000000000000a96 .LASF1157
     /tmp/cc7jEFKv.s:78254  .debug_str:0000000000004d31 .LASF1158
     /tmp/cc7jEFKv.s:80858  .debug_str:000000000000b9ef .LASF1159
     /tmp/cc7jEFKv.s:76718  .debug_str:0000000000000a9d .LASF1160
     /tmp/cc7jEFKv.s:81546  .debug_str:000000000000d790 .LASF1161
     /tmp/cc7jEFKv.s:80862  .debug_str:000000000000ba06 .LASF1162
     /tmp/cc7jEFKv.s:76720  .debug_str:0000000000000aa4 .LASF1163
     /tmp/cc7jEFKv.s:76826  .debug_str:0000000000000e9f .LASF1164
     /tmp/cc7jEFKv.s:82722  .debug_str:0000000000010c7d .LASF1165
     /tmp/cc7jEFKv.s:76722  .debug_str:0000000000000aab .LASF1166
     /tmp/cc7jEFKv.s:80086  .debug_str:0000000000009b27 .LASF1167
     /tmp/cc7jEFKv.s:82726  .debug_str:0000000000010c9a .LASF1168
     /tmp/cc7jEFKv.s:81216  .debug_str:000000000000c810 .LASF1169
     /tmp/cc7jEFKv.s:82598  .debug_str:00000000000106ad .LASF1170
     /tmp/cc7jEFKv.s:76936  .debug_str:000000000000131e .LASF1171
     /tmp/cc7jEFKv.s:76724  .debug_str:0000000000000ab2 .LASF1172
     /tmp/cc7jEFKv.s:78608  .debug_str:0000000000005aa7 .LASF1173
     /tmp/cc7jEFKv.s:76746  .debug_str:0000000000000baf .LASF1174
     /tmp/cc7jEFKv.s:76726  .debug_str:0000000000000ab9 .LASF1175
     /tmp/cc7jEFKv.s:81808  .debug_str:000000000000e3ad .LASF1176
     /tmp/cc7jEFKv.s:80254  .debug_str:000000000000a27d .LASF1177
     /tmp/cc7jEFKv.s:76728  .debug_str:0000000000000ac0 .LASF1178
     /tmp/cc7jEFKv.s:77154  .debug_str:0000000000001bac .LASF1179
     /tmp/cc7jEFKv.s:80472  .debug_str:000000000000ab4e .LASF1180
     /tmp/cc7jEFKv.s:76786  .debug_str:0000000000000d33 .LASF1181
     /tmp/cc7jEFKv.s:82038  .debug_str:000000000000ee5e .LASF1182
     /tmp/cc7jEFKv.s:80476  .debug_str:000000000000ab8a .LASF1183
     /tmp/cc7jEFKv.s:76788  .debug_str:0000000000000d3a .LASF1184
     /tmp/cc7jEFKv.s:77358  .debug_str:000000000000247c .LASF1185
     /tmp/cc7jEFKv.s:76696  .debug_str:00000000000009d1 .LASF1186
     /tmp/cc7jEFKv.s:76790  .debug_str:0000000000000d41 .LASF1187
     /tmp/cc7jEFKv.s:78200  .debug_str:0000000000004a6c .LASF1188
     /tmp/cc7jEFKv.s:76626  .debug_str:00000000000006d5 .LASF1189
     /tmp/cc7jEFKv.s:76792  .debug_str:0000000000000d48 .LASF1190
     /tmp/cc7jEFKv.s:83702  .debug_str:0000000000013600 .LASF1191
     /tmp/cc7jEFKv.s:76628  .debug_str:00000000000006e4 .LASF1192
     /tmp/cc7jEFKv.s:81334  .debug_str:000000000000cd97 .LASF1193
     /tmp/cc7jEFKv.s:79148  .debug_str:000000000000710b .LASF1194
     /tmp/cc7jEFKv.s:83564  .debug_str:0000000000012f65 .LASF1195
     /tmp/cc7jEFKv.s:76796  .debug_str:0000000000000d68 .LASF1196
     /tmp/cc7jEFKv.s:82276  .debug_str:000000000000f8a9 .LASF1197
     /tmp/cc7jEFKv.s:77474  .debug_str:00000000000029ef .LASF1198
     /tmp/cc7jEFKv.s:76798  .debug_str:0000000000000d6f .LASF1199
     /tmp/cc7jEFKv.s:77610  .debug_str:0000000000003038 .LASF1200
     /tmp/cc7jEFKv.s:80068  .debug_str:0000000000009a41 .LASF1201
     /tmp/cc7jEFKv.s:76800  .debug_str:0000000000000d76 .LASF1202
     /tmp/cc7jEFKv.s:80934  .debug_str:000000000000bc68 .LASF1203
     /tmp/cc7jEFKv.s:77552  .debug_str:0000000000002de4 .LASF1204
     /tmp/cc7jEFKv.s:76802  .debug_str:0000000000000d7d .LASF1205
     /tmp/cc7jEFKv.s:83986  .debug_str:000000000001423f .LASF1206
     /tmp/cc7jEFKv.s:79034  .debug_str:0000000000006c1d .LASF1207
     /tmp/cc7jEFKv.s:76804  .debug_str:0000000000000d84 .LASF1208
     /tmp/cc7jEFKv.s:79432  .debug_str:0000000000007d9e .LASF1209
     /tmp/cc7jEFKv.s:77892  .debug_str:0000000000003c76 .LASF1210
     /tmp/cc7jEFKv.s:76874  .debug_str:000000000000109d .LASF1211
     /tmp/cc7jEFKv.s:84186  .debug_str:0000000000014adb .LASF1212
     /tmp/cc7jEFKv.s:84074  .debug_str:000000000001463b .LASF1213
     /tmp/cc7jEFKv.s:76876  .debug_str:00000000000010a4 .LASF1214
     /tmp/cc7jEFKv.s:79666  .debug_str:000000000000890c .LASF1215
     /tmp/cc7jEFKv.s:84076  .debug_str:0000000000014646 .LASF1216
     /tmp/cc7jEFKv.s:76878  .debug_str:00000000000010ab .LASF1217
     /tmp/cc7jEFKv.s:82770  .debug_str:0000000000010e7d .LASF1218
     /tmp/cc7jEFKv.s:76574  .debug_str:00000000000004c7 .LASF1219
     /tmp/cc7jEFKv.s:76880  .debug_str:00000000000010b2 .LASF1220
     /tmp/cc7jEFKv.s:78120  .debug_str:0000000000004729 .LASF1221
     /tmp/cc7jEFKv.s:82802  .debug_str:000000000001100a .LASF1222
     /tmp/cc7jEFKv.s:76882  .debug_str:00000000000010b9 .LASF1223
     /tmp/cc7jEFKv.s:81436  .debug_str:000000000000d2a1 .LASF1224
     /tmp/cc7jEFKv.s:82796  .debug_str:0000000000010fbb .LASF1225
     /tmp/cc7jEFKv.s:76884  .debug_str:00000000000010c0 .LASF1226
     /tmp/cc7jEFKv.s:76662  .debug_str:000000000000086e .LASF1227
     /tmp/cc7jEFKv.s:78168  .debug_str:0000000000004929 .LASF1228
     /tmp/cc7jEFKv.s:76886  .debug_str:00000000000010c7 .LASF1229
     /tmp/cc7jEFKv.s:79948  .debug_str:00000000000095b8 .LASF1230
     /tmp/cc7jEFKv.s:83932  .debug_str:0000000000013f48 .LASF1231
     /tmp/cc7jEFKv.s:76888  .debug_str:00000000000010ce .LASF1232
     /tmp/cc7jEFKv.s:82974  .debug_str:00000000000117e9 .LASF1233
     /tmp/cc7jEFKv.s:79890  .debug_str:000000000000933d .LASF1234
     /tmp/cc7jEFKv.s:76890  .debug_str:00000000000010d5 .LASF1235
     /tmp/cc7jEFKv.s:80334  .debug_str:000000000000a601 .LASF1236
     /tmp/cc7jEFKv.s:77302  .debug_str:00000000000021b7 .LASF1237
     /tmp/cc7jEFKv.s:76892  .debug_str:00000000000010dc .LASF1238
     /tmp/cc7jEFKv.s:81668  .debug_str:000000000000dddf .LASF1239
     /tmp/cc7jEFKv.s:81124  .debug_str:000000000000c3eb .LASF1240
     /tmp/cc7jEFKv.s:76940  .debug_str:000000000000134e .LASF1241
     /tmp/cc7jEFKv.s:84026  .debug_str:000000000001440f .LASF1242
     /tmp/cc7jEFKv.s:79946  .debug_str:00000000000095ad .LASF1243
     /tmp/cc7jEFKv.s:76942  .debug_str:0000000000001355 .LASF1244
     /tmp/cc7jEFKv.s:81884  .debug_str:000000000000e738 .LASF1245
     /tmp/cc7jEFKv.s:81840  .debug_str:000000000000e556 .LASF1246
     /tmp/cc7jEFKv.s:76944  .debug_str:000000000000135c .LASF1247
     /tmp/cc7jEFKv.s:77222  .debug_str:0000000000001e8a .LASF1248
     /tmp/cc7jEFKv.s:83966  .debug_str:000000000001411e .LASF1249
     /tmp/cc7jEFKv.s:76946  .debug_str:0000000000001363 .LASF1250
     /tmp/cc7jEFKv.s:80480  .debug_str:000000000000abb2 .LASF1251
     /tmp/cc7jEFKv.s:83968  .debug_str:0000000000014129 .LASF1252
     /tmp/cc7jEFKv.s:76948  .debug_str:000000000000136a .LASF1253
     /tmp/cc7jEFKv.s:78346  .debug_str:00000000000050d2 .LASF1254
     /tmp/cc7jEFKv.s:83804  .debug_str:00000000000139d6 .LASF1255
     /tmp/cc7jEFKv.s:76950  .debug_str:0000000000001371 .LASF1256
     /tmp/cc7jEFKv.s:78994  .debug_str:0000000000006a23 .LASF1257
     /tmp/cc7jEFKv.s:78566  .debug_str:0000000000005963 .LASF1258
     /tmp/cc7jEFKv.s:76952  .debug_str:0000000000001378 .LASF1259
     /tmp/cc7jEFKv.s:82168  .debug_str:000000000000f3bd .LASF1260
     /tmp/cc7jEFKv.s:78568  .debug_str:000000000000596f .LASF1261
     /tmp/cc7jEFKv.s:76954  .debug_str:000000000000137f .LASF1262
     /tmp/cc7jEFKv.s:77482  .debug_str:0000000000002a4f .LASF1263
     /tmp/cc7jEFKv.s:81766  .debug_str:000000000000e20d .LASF1264
     /tmp/cc7jEFKv.s:81554  .debug_str:000000000000d811 .LASF1265
     /tmp/cc7jEFKv.s:80792  .debug_str:000000000000b74a .LASF1266
     /tmp/cc7jEFKv.s:81768  .debug_str:000000000000e217 .LASF1267
     /tmp/cc7jEFKv.s:76958  .debug_str:00000000000013a7 .LASF1268
     /tmp/cc7jEFKv.s:83842  .debug_str:0000000000013b66 .LASF1269
     /tmp/cc7jEFKv.s:81770  .debug_str:000000000000e221 .LASF1270
     /tmp/cc7jEFKv.s:77022  .debug_str:000000000000165f .LASF1271
     /tmp/cc7jEFKv.s:81042  .debug_str:000000000000c051 .LASF1272
     /tmp/cc7jEFKv.s:81772  .debug_str:000000000000e22b .LASF1273
     /tmp/cc7jEFKv.s:77024  .debug_str:0000000000001666 .LASF1274
     /tmp/cc7jEFKv.s:84070  .debug_str:00000000000145f6 .LASF1275
     /tmp/cc7jEFKv.s:80922  .debug_str:000000000000bbe3 .LASF1276
     /tmp/cc7jEFKv.s:77026  .debug_str:000000000000166d .LASF1277
     /tmp/cc7jEFKv.s:79516  .debug_str:0000000000008227 .LASF1278
     /tmp/cc7jEFKv.s:77930  .debug_str:0000000000003df2 .LASF1279
     /tmp/cc7jEFKv.s:77028  .debug_str:0000000000001674 .LASF1280
     /tmp/cc7jEFKv.s:81462  .debug_str:000000000000d3b7 .LASF1281
     /tmp/cc7jEFKv.s:77932  .debug_str:0000000000003dfe .LASF1282
     /tmp/cc7jEFKv.s:77030  .debug_str:000000000000167b .LASF1283
     /tmp/cc7jEFKv.s:77990  .debug_str:00000000000040a5 .LASF1284
     /tmp/cc7jEFKv.s:77934  .debug_str:0000000000003e0a .LASF1285
     /tmp/cc7jEFKv.s:77032  .debug_str:0000000000001682 .LASF1286
     /tmp/cc7jEFKv.s:83718  .debug_str:0000000000013693 .LASF1287
     /tmp/cc7jEFKv.s:78146  .debug_str:000000000000485c .LASF1288
     /tmp/cc7jEFKv.s:77034  .debug_str:0000000000001689 .LASF1289
     /tmp/cc7jEFKv.s:76524  .debug_str:000000000000028b .LASF1290
     /tmp/cc7jEFKv.s:78148  .debug_str:0000000000004866 .LASF1291
     /tmp/cc7jEFKv.s:77036  .debug_str:0000000000001690 .LASF1292
     /tmp/cc7jEFKv.s:79806  .debug_str:0000000000008f52 .LASF1293
     /tmp/cc7jEFKv.s:78150  .debug_str:0000000000004870 .LASF1294
     /tmp/cc7jEFKv.s:77038  .debug_str:0000000000001697 .LASF1295
     /tmp/cc7jEFKv.s:82914  .debug_str:0000000000011571 .LASF1296
     /tmp/cc7jEFKv.s:78152  .debug_str:000000000000487a .LASF1297
     /tmp/cc7jEFKv.s:77040  .debug_str:000000000000169e .LASF1298
     /tmp/cc7jEFKv.s:78262  .debug_str:0000000000004d88 .LASF1299
     /tmp/cc7jEFKv.s:80886  .debug_str:000000000000bb08 .LASF1300
     /tmp/cc7jEFKv.s:77100  .debug_str:000000000000192f .LASF1301
     /tmp/cc7jEFKv.s:83156  .debug_str:0000000000011e40 .LASF1302
     /tmp/cc7jEFKv.s:82720  .debug_str:0000000000010c71 .LASF1303
     /tmp/cc7jEFKv.s:82958  .debug_str:000000000001177d .LASF1304
     /tmp/cc7jEFKv.s:84156  .debug_str:0000000000014952 .LASF1305
     /tmp/cc7jEFKv.s:81184  .debug_str:000000000000c6bd .LASF1306
     /tmp/cc7jEFKv.s:83726  .debug_str:00000000000136f9 .LASF1307
     /tmp/cc7jEFKv.s:79622  .debug_str:000000000000872b .LASF1308
     /tmp/cc7jEFKv.s:82724  .debug_str:0000000000010c8e .LASF1309
     /tmp/cc7jEFKv.s:82962  .debug_str:000000000001178e .LASF1310
     /tmp/cc7jEFKv.s:82738  .debug_str:0000000000010d3f .LASF1311
     /tmp/cc7jEFKv.s:82940  .debug_str:000000000001169a .LASF1312
     /tmp/cc7jEFKv.s:83616  .debug_str:0000000000013176 .LASF1313
     /tmp/cc7jEFKv.s:82014  .debug_str:000000000000ed22 .LASF1314
     /tmp/cc7jEFKv.s:77098  .debug_str:0000000000001923 .LASF1315
     /tmp/cc7jEFKv.s:83998  .debug_str:00000000000142c2 .LASF1316
     /tmp/cc7jEFKv.s:79784  .debug_str:0000000000008e09 .LASF1317
     /tmp/cc7jEFKv.s:83230  .debug_str:0000000000012156 .LASF1318
     /tmp/cc7jEFKv.s:81742  .debug_str:000000000000e0e2 .LASF1319
     /tmp/cc7jEFKv.s:81438  .debug_str:000000000000d2c2 .LASF1320
     /tmp/cc7jEFKv.s:79446  .debug_str:0000000000007e75 .LASF1321
     /tmp/cc7jEFKv.s:77870  .debug_str:0000000000003b81 .LASF1322
     /tmp/cc7jEFKv.s:82922  .debug_str:00000000000115db .LASF1323
     /tmp/cc7jEFKv.s:83154  .debug_str:0000000000011e34 .LASF1324
     /tmp/cc7jEFKv.s:79252  .debug_str:00000000000075f3 .LASF1325
     /tmp/cc7jEFKv.s:78648  .debug_str:0000000000005c69 .LASF1326
     /tmp/cc7jEFKv.s:77538  .debug_str:0000000000002d5d .LASF1327
     /tmp/cc7jEFKv.s:78964  .debug_str:00000000000068c0 .LASF1328
     /tmp/cc7jEFKv.s:78270  .debug_str:0000000000004df7 .LASF1329
     /tmp/cc7jEFKv.s:83314  .debug_str:00000000000124ac .LASF1330
     /tmp/cc7jEFKv.s:82170  .debug_str:000000000000f3de .LASF1331
     /tmp/cc7jEFKv.s:81060  .debug_str:000000000000c122 .LASF1332
     /tmp/cc7jEFKv.s:81038  .debug_str:000000000000c021 .LASF1333
     /tmp/cc7jEFKv.s:77942  .debug_str:0000000000003e6f .LASF1334
     /tmp/cc7jEFKv.s:77894  .debug_str:0000000000003c7f .LASF1335
     /tmp/cc7jEFKv.s:78626  .debug_str:0000000000005b65 .LASF1336
     /tmp/cc7jEFKv.s:81470  .debug_str:000000000000d412 .LASF1337
     /tmp/cc7jEFKv.s:79092  .debug_str:0000000000006e5d .LASF1338
     /tmp/cc7jEFKv.s:80722  .debug_str:000000000000b4ad .LASF1339
     /tmp/cc7jEFKv.s:76540  .debug_str:0000000000000356 .LASF1340
     /tmp/cc7jEFKv.s:81516  .debug_str:000000000000d612 .LASF1341
     /tmp/cc7jEFKv.s:82780  .debug_str:0000000000010f0d .LASF1342
     /tmp/cc7jEFKv.s:79892  .debug_str:000000000000934d .LASF1343
     /tmp/cc7jEFKv.s:78068  .debug_str:0000000000004433 .LASF1344
     /tmp/cc7jEFKv.s:81340  .debug_str:000000000000cdc5 .LASF1345
     /tmp/cc7jEFKv.s:77786  .debug_str:00000000000037e2 .LASF1346
     /tmp/cc7jEFKv.s:83912  .debug_str:0000000000013e71 .LASF1347
     /tmp/cc7jEFKv.s:79238  .debug_str:0000000000007558 .LASF1348
     /tmp/cc7jEFKv.s:78426  .debug_str:000000000000542a .LASF1349
     /tmp/cc7jEFKv.s:79686  .debug_str:0000000000008a06 .LASF1350
     /tmp/cc7jEFKv.s:77306  .debug_str:00000000000021e4 .LASF1351
     /tmp/cc7jEFKv.s:82084  .debug_str:000000000000f04f .LASF1352
     /tmp/cc7jEFKv.s:78214  .debug_str:0000000000004b1d .LASF1353
     /tmp/cc7jEFKv.s:80230  .debug_str:000000000000a1a2 .LASF1354
     /tmp/cc7jEFKv.s:82582  .debug_str:000000000001060a .LASF1355
     /tmp/cc7jEFKv.s:82218  .debug_str:000000000000f5ad .LASF1356
     /tmp/cc7jEFKv.s:79664  .debug_str:00000000000088fd .LASF1357
     /tmp/cc7jEFKv.s:77268  .debug_str:000000000000207b .LASF1358
     /tmp/cc7jEFKv.s:83276  .debug_str:00000000000122ee .LASF1359
     /tmp/cc7jEFKv.s:80252  .debug_str:000000000000a269 .LASF1360
     /tmp/cc7jEFKv.s:80006  .debug_str:000000000000982b .LASF1361
     /tmp/cc7jEFKv.s:78946  .debug_str:00000000000067df .LASF1362
     /tmp/cc7jEFKv.s:80114  .debug_str:0000000000009c95 .LASF1363
     /tmp/cc7jEFKv.s:83374  .debug_str:00000000000126ed .LASF1364
     /tmp/cc7jEFKv.s:77636  .debug_str:000000000000315a .LASF1365
     /tmp/cc7jEFKv.s:79792  .debug_str:0000000000008e78 .LASF1366
     /tmp/cc7jEFKv.s:77270  .debug_str:0000000000002084 .LASF1367
     /tmp/cc7jEFKv.s:82100  .debug_str:000000000000f0f7 .LASF1368
     /tmp/cc7jEFKv.s:79382  .debug_str:0000000000007b10 .LASF1369
     /tmp/cc7jEFKv.s:77622  .debug_str:00000000000030ba .LASF1370
     /tmp/cc7jEFKv.s:81556  .debug_str:000000000000d818 .LASF1371
     /tmp/cc7jEFKv.s:79538  .debug_str:000000000000830d .LASF1372
     /tmp/cc7jEFKv.s:80464  .debug_str:000000000000aafc .LASF1373
     /tmp/cc7jEFKv.s:79772  .debug_str:0000000000008dbc .LASF1374
     /tmp/cc7jEFKv.s:79112  .debug_str:0000000000006f7e .LASF1375
     /tmp/cc7jEFKv.s:78350  .debug_str:00000000000050fe .LASF1376
     /tmp/cc7jEFKv.s:76560  .debug_str:000000000000045b .LASF1377
     /tmp/cc7jEFKv.s:78598  .debug_str:0000000000005a2c .LASF1378
     /tmp/cc7jEFKv.s:77686  .debug_str:000000000000339a .LASF1379
     /tmp/cc7jEFKv.s:77094  .debug_str:0000000000001908 .LASF1380
     /tmp/cc7jEFKv.s:84116  .debug_str:000000000001480f .LASF1381
     /tmp/cc7jEFKv.s:83470  .debug_str:0000000000012b59 .LASF1382
     /tmp/cc7jEFKv.s:76562  .debug_str:0000000000000462 .LASF1383
     /tmp/cc7jEFKv.s:81802  .debug_str:000000000000e349 .LASF1384
     /tmp/cc7jEFKv.s:77012  .debug_str:0000000000001604 .LASF1385
     /tmp/cc7jEFKv.s:82448  .debug_str:000000000001004d .LASF1386
     /tmp/cc7jEFKv.s:79506  .debug_str:000000000000818a .LASF1387
     /tmp/cc7jEFKv.s:83654  .debug_str:0000000000013352 .LASF1388
     /tmp/cc7jEFKv.s:82450  .debug_str:000000000001005b .LASF1389
     /tmp/cc7jEFKv.s:82642  .debug_str:0000000000010901 .LASF1390
     /tmp/cc7jEFKv.s:81970  .debug_str:000000000000eaf5 .LASF1391
     /tmp/cc7jEFKv.s:82452  .debug_str:0000000000010069 .LASF1392
     /tmp/cc7jEFKv.s:77982  .debug_str:000000000000404f .LASF1393
     /tmp/cc7jEFKv.s:77644  .debug_str:00000000000031ca .LASF1394
     /tmp/cc7jEFKv.s:82454  .debug_str:0000000000010077 .LASF1395
     /tmp/cc7jEFKv.s:81302  .debug_str:000000000000cc31 .LASF1396
     /tmp/cc7jEFKv.s:77944  .debug_str:0000000000003e7e .LASF1397
     /tmp/cc7jEFKv.s:82456  .debug_str:0000000000010085 .LASF1398
     /tmp/cc7jEFKv.s:76508  .debug_str:00000000000001cd .LASF1399
     /tmp/cc7jEFKv.s:79126  .debug_str:0000000000006fec .LASF1400
     /tmp/cc7jEFKv.s:82458  .debug_str:0000000000010093 .LASF1401
     /tmp/cc7jEFKv.s:79794  .debug_str:0000000000008e88 .LASF1402
     /tmp/cc7jEFKv.s:84118  .debug_str:000000000001481c .LASF1403
     /tmp/cc7jEFKv.s:82460  .debug_str:00000000000100a1 .LASF1404
     /tmp/cc7jEFKv.s:82900  .debug_str:00000000000114ab .LASF1405
     /tmp/cc7jEFKv.s:77862  .debug_str:0000000000003b2c .LASF1406
     /tmp/cc7jEFKv.s:82476  .debug_str:000000000001014a .LASF1407
     /tmp/cc7jEFKv.s:82478  .debug_str:000000000001015c .LASF1408
     /tmp/cc7jEFKv.s:82480  .debug_str:000000000001016e .LASF1409
     /tmp/cc7jEFKv.s:79520  .debug_str:000000000000826c .LASF1410
     /tmp/cc7jEFKv.s:77666  .debug_str:000000000000329e .LASF1411
     /tmp/cc7jEFKv.s:82482  .debug_str:0000000000010180 .LASF1412
     /tmp/cc7jEFKv.s:82484  .debug_str:0000000000010192 .LASF1413
     /tmp/cc7jEFKv.s:82486  .debug_str:00000000000101a4 .LASF1414
     /tmp/cc7jEFKv.s:82488  .debug_str:00000000000101b6 .LASF1415
     /tmp/cc7jEFKv.s:79522  .debug_str:000000000000827b .LASF1416
     /tmp/cc7jEFKv.s:81014  .debug_str:000000000000bf3d .LASF1417
     /tmp/cc7jEFKv.s:76930  .debug_str:00000000000012aa .LASF1418
     /tmp/cc7jEFKv.s:79050  .debug_str:0000000000006cc6 .LASF1419
     /tmp/cc7jEFKv.s:83074  .debug_str:0000000000011b1e .LASF1420
     /tmp/cc7jEFKv.s:77598  .debug_str:0000000000002fcf .LASF1421
     /tmp/cc7jEFKv.s:81834  .debug_str:000000000000e506 .LASF1422
     /tmp/cc7jEFKv.s:78424  .debug_str:0000000000005400 .LASF1423
     /tmp/cc7jEFKv.s:78848  .debug_str:00000000000063c5 .LASF1424
     /tmp/cc7jEFKv.s:81170  .debug_str:000000000000c5e0 .LASF1425
     /tmp/cc7jEFKv.s:80338  .debug_str:000000000000a64b .LASF1426
     /tmp/cc7jEFKv.s:84144  .debug_str:00000000000148c2 .LASF1427
     /tmp/cc7jEFKv.s:84142  .debug_str:00000000000148b0 .LASF1428
     /tmp/cc7jEFKv.s:79642  .debug_str:0000000000008831 .LASF1429
     /tmp/cc7jEFKv.s:76578  .debug_str:00000000000004f1 .LASF1430
     /tmp/cc7jEFKv.s:77272  .debug_str:0000000000002094 .LASF1431
     /tmp/cc7jEFKv.s:80468  .debug_str:000000000000ab14 .LASF1432
     /tmp/cc7jEFKv.s:84048  .debug_str:0000000000014511 .LASF1433
     /tmp/cc7jEFKv.s:80388  .debug_str:000000000000a852 .LASF1434
     /tmp/cc7jEFKv.s:77220  .debug_str:0000000000001e72 .LASF1435
     /tmp/cc7jEFKv.s:80614  .debug_str:000000000000b0d4 .LASF1436
     /tmp/cc7jEFKv.s:77224  .debug_str:0000000000001eab .LASF1437
     /tmp/cc7jEFKv.s:78914  .debug_str:0000000000006664 .LASF1438
     /tmp/cc7jEFKv.s:79996  .debug_str:0000000000009796 .LASF1439
     /tmp/cc7jEFKv.s:81608  .debug_str:000000000000da7a .LASF1440
     /tmp/cc7jEFKv.s:77228  .debug_str:0000000000001ed2 .LASF1441
     /tmp/cc7jEFKv.s:78542  .debug_str:0000000000005812 .LASF1442
     /tmp/cc7jEFKv.s:77088  .debug_str:00000000000018b5 .LASF1443
     /tmp/cc7jEFKv.s:78546  .debug_str:0000000000005850 .LASF1444
     /tmp/cc7jEFKv.s:78548  .debug_str:000000000000586e .LASF1445
     /tmp/cc7jEFKv.s:78550  .debug_str:000000000000588c .LASF1446
     /tmp/cc7jEFKv.s:78788  .debug_str:0000000000006160 .LASF1447
     /tmp/cc7jEFKv.s:81156  .debug_str:000000000000c55c .LASF1448
     /tmp/cc7jEFKv.s:81158  .debug_str:000000000000c579 .LASF1449
     /tmp/cc7jEFKv.s:83350  .debug_str:00000000000125eb .LASF1450
     /tmp/cc7jEFKv.s:81164  .debug_str:000000000000c5a7 .LASF1451
     /tmp/cc7jEFKv.s:76700  .debug_str:00000000000009e5 .LASF1452
     /tmp/cc7jEFKv.s:76702  .debug_str:00000000000009ff .LASF1453
     /tmp/cc7jEFKv.s:83418  .debug_str:00000000000128e8 .LASF1454
     /tmp/cc7jEFKv.s:76706  .debug_str:0000000000000a3d .LASF1455
     /tmp/cc7jEFKv.s:76708  .debug_str:0000000000000a57 .LASF1456
     /tmp/cc7jEFKv.s:84050  .debug_str:0000000000014520 .LASF1457
     /tmp/cc7jEFKv.s:81314  .debug_str:000000000000ccce .LASF1458
     /tmp/cc7jEFKv.s:79998  .debug_str:00000000000097ae .LASF1459
     /tmp/cc7jEFKv.s:76912  .debug_str:00000000000011b0 .LASF1460
     /tmp/cc7jEFKv.s:82490  .debug_str:00000000000101c8 .LASF1461
     /tmp/cc7jEFKv.s:84194  .debug_str:0000000000014b60 .LASF1462
     /tmp/cc7jEFKv.s:84196  .debug_str:0000000000014b7d .LASF1463
     /tmp/cc7jEFKv.s:84198  .debug_str:0000000000014b9a .LASF1464
     /tmp/cc7jEFKv.s:79574  .debug_str:0000000000008491 .LASF1465
     /tmp/cc7jEFKv.s:79202  .debug_str:0000000000007384 .LASF1466
     /tmp/cc7jEFKv.s:84200  .debug_str:0000000000014bb7 .LASF1467
     /tmp/cc7jEFKv.s:78094  .debug_str:00000000000045a0 .LASF1468
     /tmp/cc7jEFKv.s:78096  .debug_str:00000000000045c3 .LASF1469
     /tmp/cc7jEFKv.s:78098  .debug_str:00000000000045e6 .LASF1470
     /tmp/cc7jEFKv.s:78100  .debug_str:0000000000004609 .LASF1471
     /tmp/cc7jEFKv.s:78102  .debug_str:000000000000462c .LASF1472
     /tmp/cc7jEFKv.s:77722  .debug_str:0000000000003515 .LASF1473
     /tmp/cc7jEFKv.s:77724  .debug_str:0000000000003537 .LASF1474
     /tmp/cc7jEFKv.s:77726  .debug_str:0000000000003559 .LASF1475
     /tmp/cc7jEFKv.s:77728  .debug_str:000000000000357b .LASF1476
     /tmp/cc7jEFKv.s:77730  .debug_str:000000000000359d .LASF1477
     /tmp/cc7jEFKv.s:80320  .debug_str:000000000000a538 .LASF1478
     /tmp/cc7jEFKv.s:80322  .debug_str:000000000000a557 .LASF1479
     /tmp/cc7jEFKv.s:80324  .debug_str:000000000000a576 .LASF1480
     /tmp/cc7jEFKv.s:80326  .debug_str:000000000000a595 .LASF1481
     /tmp/cc7jEFKv.s:80328  .debug_str:000000000000a5b4 .LASF1482
     /tmp/cc7jEFKv.s:78370  .debug_str:00000000000051ce .LASF1483
     /tmp/cc7jEFKv.s:84006  .debug_str:000000000001432d .LASF1484
     /tmp/cc7jEFKv.s:79898  .debug_str:000000000000937b .LASF1485
     /tmp/cc7jEFKv.s:82324  .debug_str:000000000000facd .LASF1486
     /tmp/cc7jEFKv.s:79346  .debug_str:0000000000007954 .LASF1487
     /tmp/cc7jEFKv.s:79838  .debug_str:00000000000090c3 .LASF1488
     /tmp/cc7jEFKv.s:79840  .debug_str:00000000000090db .LASF1489
     /tmp/cc7jEFKv.s:79842  .debug_str:00000000000090f3 .LASF1490
     /tmp/cc7jEFKv.s:82258  .debug_str:000000000000f7c8 .LASF1491
     /tmp/cc7jEFKv.s:82878  .debug_str:0000000000011377 .LASF1492
     /tmp/cc7jEFKv.s:79844  .debug_str:000000000000910b .LASF1493
     /tmp/cc7jEFKv.s:81230  .debug_str:000000000000c8aa .LASF1494
     /tmp/cc7jEFKv.s:81232  .debug_str:000000000000c8c8 .LASF1495
     /tmp/cc7jEFKv.s:81234  .debug_str:000000000000c8e6 .LASF1496
     /tmp/cc7jEFKv.s:81236  .debug_str:000000000000c904 .LASF1497
     /tmp/cc7jEFKv.s:81238  .debug_str:000000000000c922 .LASF1498
     /tmp/cc7jEFKv.s:81418  .debug_str:000000000000d1a9 .LASF1499
     /tmp/cc7jEFKv.s:81540  .debug_str:000000000000d758 .LASF1500
     /tmp/cc7jEFKv.s:81422  .debug_str:000000000000d1ed .LASF1501
     /tmp/cc7jEFKv.s:81424  .debug_str:000000000000d20a .LASF1502
     /tmp/cc7jEFKv.s:81426  .debug_str:000000000000d227 .LASF1503
     /tmp/cc7jEFKv.s:83824  .debug_str:0000000000013a9c .LASF1504
     /tmp/cc7jEFKv.s:79384  .debug_str:0000000000007b37 .LASF1505
     /tmp/cc7jEFKv.s:79386  .debug_str:0000000000007b51 .LASF1506
     /tmp/cc7jEFKv.s:79388  .debug_str:0000000000007b6b .LASF1507
     /tmp/cc7jEFKv.s:79390  .debug_str:0000000000007b85 .LASF1508
     /tmp/cc7jEFKv.s:79954  .debug_str:00000000000095f8 .LASF1509
     /tmp/cc7jEFKv.s:83180  .debug_str:0000000000011fd5 .LASF1510
     /tmp/cc7jEFKv.s:82260  .debug_str:000000000000f7e0 .LASF1511
     /tmp/cc7jEFKv.s:78746  .debug_str:0000000000005f4a .LASF1512
     /tmp/cc7jEFKv.s:83590  .debug_str:0000000000013062 .LASF1513
     /tmp/cc7jEFKv.s:83870  .debug_str:0000000000013c9a .LASF1514
     /tmp/cc7jEFKv.s:83594  .debug_str:0000000000013080 .LASF1515
     /tmp/cc7jEFKv.s:83596  .debug_str:0000000000013097 .LASF1516
     /tmp/cc7jEFKv.s:83876  .debug_str:0000000000013cbf .LASF1517
     /tmp/cc7jEFKv.s:83168  .debug_str:0000000000011f00 .LASF1518
     /tmp/cc7jEFKv.s:83598  .debug_str:00000000000130ae .LASF1519
     /tmp/cc7jEFKv.s:77142  .debug_str:0000000000001b03 .LASF1520
     /tmp/cc7jEFKv.s:77144  .debug_str:0000000000001b20 .LASF1521
     /tmp/cc7jEFKv.s:77146  .debug_str:0000000000001b3d .LASF1522
     /tmp/cc7jEFKv.s:77148  .debug_str:0000000000001b5a .LASF1523
     /tmp/cc7jEFKv.s:77150  .debug_str:0000000000001b77 .LASF1524
     /tmp/cc7jEFKv.s:83280  .debug_str:0000000000012336 .LASF1525
     /tmp/cc7jEFKv.s:83282  .debug_str:0000000000012352 .LASF1526
     /tmp/cc7jEFKv.s:83284  .debug_str:000000000001236e .LASF1527
     /tmp/cc7jEFKv.s:83286  .debug_str:000000000001238a .LASF1528
     /tmp/cc7jEFKv.s:83288  .debug_str:00000000000123a6 .LASF1529
     /tmp/cc7jEFKv.s:81370  .debug_str:000000000000cf20 .LASF1530
     /tmp/cc7jEFKv.s:81372  .debug_str:000000000000cf39 .LASF1531
     /tmp/cc7jEFKv.s:81374  .debug_str:000000000000cf52 .LASF1532
     /tmp/cc7jEFKv.s:81376  .debug_str:000000000000cf6b .LASF1533
     /tmp/cc7jEFKv.s:81378  .debug_str:000000000000cf84 .LASF1534
     /tmp/cc7jEFKv.s:83962  .debug_str:00000000000140ff .LASF1535
     /tmp/cc7jEFKv.s:81796  .debug_str:000000000000e306 .LASF1536
     /tmp/cc7jEFKv.s:78076  .debug_str:0000000000004495 .LASF1537
     /tmp/cc7jEFKv.s:81578  .debug_str:000000000000d90b .LASF1538
     /tmp/cc7jEFKv.s:82010  .debug_str:000000000000ecdc .LASF1539
     /tmp/cc7jEFKv.s:82012  .debug_str:000000000000ecff .LASF1540
     /tmp/cc7jEFKv.s:82178  .debug_str:000000000000f41b .LASF1541
     /tmp/cc7jEFKv.s:82016  .debug_str:000000000000ed2d .LASF1542
     /tmp/cc7jEFKv.s:82018  .debug_str:000000000000ed50 .LASF1543
     /tmp/cc7jEFKv.s:81576  .debug_str:000000000000d8ef .LASF1544
     /tmp/cc7jEFKv.s:81198  .debug_str:000000000000c740 .LASF1545
     /tmp/cc7jEFKv.s:81044  .debug_str:000000000000c072 .LASF1546
     /tmp/cc7jEFKv.s:80288  .debug_str:000000000000a3a7 .LASF1547
     /tmp/cc7jEFKv.s:80290  .debug_str:000000000000a3cb .LASF1548
     /tmp/cc7jEFKv.s:80292  .debug_str:000000000000a3ef .LASF1549
     /tmp/cc7jEFKv.s:80294  .debug_str:000000000000a413 .LASF1550
     /tmp/cc7jEFKv.s:80296  .debug_str:000000000000a437 .LASF1551
     /tmp/cc7jEFKv.s:77986  .debug_str:0000000000004087 .LASF1552
     /tmp/cc7jEFKv.s:77716  .debug_str:00000000000034c9 .LASF1553
     /tmp/cc7jEFKv.s:77828  .debug_str:0000000000003a1a .LASF1554
     /tmp/cc7jEFKv.s:82636  .debug_str:000000000001089c .LASF1555
     /tmp/cc7jEFKv.s:79736  .debug_str:0000000000008c37 .LASF1556
     /tmp/cc7jEFKv.s:76872  .debug_str:0000000000001088 .LASF1557
     /tmp/cc7jEFKv.s:78920  .debug_str:00000000000066c0 .LASF1558
     /tmp/cc7jEFKv.s:80964  .debug_str:000000000000bdb8 .LASF1559
     /tmp/cc7jEFKv.s:77468  .debug_str:00000000000029b6 .LASF1560
     /tmp/cc7jEFKv.s:78160  .debug_str:00000000000048d0 .LASF1561
     /tmp/cc7jEFKv.s:77204  .debug_str:0000000000001ddb .LASF1562
     /tmp/cc7jEFKv.s:81444  .debug_str:000000000000d2d7 .LASF1563
     /tmp/cc7jEFKv.s:82912  .debug_str:0000000000011540 .LASF1564
     /tmp/cc7jEFKv.s:81166  .debug_str:000000000000c5c4 .LASF1565
     /tmp/cc7jEFKv.s:82948  .debug_str:0000000000011707 .LASF1566
     /tmp/cc7jEFKv.s:78966  .debug_str:00000000000068d7 .LASF1567
     /tmp/cc7jEFKv.s:82502  .debug_str:000000000001025e .LASF1568
     /tmp/cc7jEFKv.s:81830  .debug_str:000000000000e4ae .LASF1569
     /tmp/cc7jEFKv.s:83176  .debug_str:0000000000011fac .LASF1570
     /tmp/cc7jEFKv.s:83378  .debug_str:000000000001271c .LASF1571
     /tmp/cc7jEFKv.s:79330  .debug_str:00000000000078d5 .LASF1572
     /tmp/cc7jEFKv.s:78852  .debug_str:00000000000063fd .LASF1573
     /tmp/cc7jEFKv.s:81446  .debug_str:000000000000d2ee .LASF1574
     /tmp/cc7jEFKv.s:81450  .debug_str:000000000000d32d .LASF1575
     /tmp/cc7jEFKv.s:82528  .debug_str:00000000000103b0 .LASF1576
     /tmp/cc7jEFKv.s:81454  .debug_str:000000000000d356 .LASF1577
     /tmp/cc7jEFKv.s:82232  .debug_str:000000000000f691 .LASF1578
     /tmp/cc7jEFKv.s:83118  .debug_str:0000000000011d15 .LASF1579
     /tmp/cc7jEFKv.s:76854  .debug_str:0000000000000faf .LASF1580
     /tmp/cc7jEFKv.s:82234  .debug_str:000000000000f6ad .LASF1581
     /tmp/cc7jEFKv.s:78472  .debug_str:00000000000055e4 .LASF1582
     /tmp/cc7jEFKv.s:78468  .debug_str:00000000000055ac .LASF1583
     /tmp/cc7jEFKv.s:79178  .debug_str:000000000000726a .LASF1584
     /tmp/cc7jEFKv.s:79180  .debug_str:0000000000007287 .LASF1585
     /tmp/cc7jEFKv.s:79182  .debug_str:00000000000072a4 .LASF1586
     /tmp/cc7jEFKv.s:79184  .debug_str:00000000000072c1 .LASF1587
     /tmp/cc7jEFKv.s:77890  .debug_str:0000000000003c67 .LASF1588
     /tmp/cc7jEFKv.s:82222  .debug_str:000000000000f5fb .LASF1589
     /tmp/cc7jEFKv.s:80166  .debug_str:0000000000009ec2 .LASF1590
     /tmp/cc7jEFKv.s:79492  .debug_str:00000000000080d3 .LASF1591
     /tmp/cc7jEFKv.s:84152  .debug_str:000000000001492c .LASF1592
     /tmp/cc7jEFKv.s:80910  .debug_str:000000000000bb6e .LASF1593
     /tmp/cc7jEFKv.s:82632  .debug_str:0000000000010856 .LASF1594
     /tmp/cc7jEFKv.s:80122  .debug_str:0000000000009cda .LASF1595
     /tmp/cc7jEFKv.s:80124  .debug_str:0000000000009cf6 .LASF1596
     /tmp/cc7jEFKv.s:80126  .debug_str:0000000000009d12 .LASF1597
     /tmp/cc7jEFKv.s:80128  .debug_str:0000000000009d2e .LASF1598
     /tmp/cc7jEFKv.s:77170  .debug_str:0000000000001c68 .LASF1599
     /tmp/cc7jEFKv.s:78774  .debug_str:000000000000609b .LASF1600
     /tmp/cc7jEFKv.s:80130  .debug_str:0000000000009d4a .LASF1601
     /tmp/cc7jEFKv.s:79856  .debug_str:00000000000091a8 .LASF1602
     /tmp/cc7jEFKv.s:77370  .debug_str:0000000000002507 .LASF1603
     /tmp/cc7jEFKv.s:78108  .debug_str:0000000000004689 .LASF1604
     /tmp/cc7jEFKv.s:81898  .debug_str:000000000000e7e4 .LASF1605
     /tmp/cc7jEFKv.s:78602  .debug_str:0000000000005a61 .LASF1606
     /tmp/cc7jEFKv.s:84188  .debug_str:0000000000014afc .LASF1607
     /tmp/cc7jEFKv.s:78742  .debug_str:0000000000005f07 .LASF1608
     /tmp/cc7jEFKv.s:83502  .debug_str:0000000000012c84 .LASF1609
     /tmp/cc7jEFKv.s:81558  .debug_str:000000000000d824 .LASF1610
     /tmp/cc7jEFKv.s:83716  .debug_str:0000000000013685 .LASF1611
     /tmp/cc7jEFKv.s:81958  .debug_str:000000000000ea6d .LASF1612
     /tmp/cc7jEFKv.s:77560  .debug_str:0000000000002e34 .LASF1613
     /tmp/cc7jEFKv.s:76506  .debug_str:00000000000001b9 .LASF1614
     /tmp/cc7jEFKv.s:79976  .debug_str:000000000000971e .LASF1615
     /tmp/cc7jEFKv.s:80718  .debug_str:000000000000b496 .LASF1616
     /tmp/cc7jEFKv.s:82882  .debug_str:00000000000113bb .LASF1617
     /tmp/cc7jEFKv.s:82428  .debug_str:000000000000ff79 .LASF1618
     /tmp/cc7jEFKv.s:79214  .debug_str:000000000000744b .LASF1619
     /tmp/cc7jEFKv.s:80256  .debug_str:000000000000a28e .LASF1620
     /tmp/cc7jEFKv.s:82326  .debug_str:000000000000fb04 .LASF1621
     /tmp/cc7jEFKv.s:82106  .debug_str:000000000000f131 .LASF1622
     /tmp/cc7jEFKv.s:78604  .debug_str:0000000000005a73 .LASF1623
     /tmp/cc7jEFKv.s:78106  .debug_str:000000000000467c .LASF1624
     /tmp/cc7jEFKv.s:78554  .debug_str:00000000000058c6 .LASF1625
     /tmp/cc7jEFKv.s:81812  .debug_str:000000000000e3f4 .LASF1626
     /tmp/cc7jEFKv.s:79466  .debug_str:0000000000007f44 .LASF1627
     /tmp/cc7jEFKv.s:83750  .debug_str:0000000000013792 .LASF1628
     /tmp/cc7jEFKv.s:82298  .debug_str:000000000000f9ad .LASF1629
     /tmp/cc7jEFKv.s:78264  .debug_str:0000000000004da9 .LASF1630
     /tmp/cc7jEFKv.s:82816  .debug_str:0000000000011083 .LASF1631
     /tmp/cc7jEFKv.s:78082  .debug_str:00000000000044e7 .LASF1632
     /tmp/cc7jEFKv.s:80944  .debug_str:000000000000bd05 .LASF1633
     /tmp/cc7jEFKv.s:82822  .debug_str:00000000000110d0 .LASF1634
     /tmp/cc7jEFKv.s:83094  .debug_str:0000000000011c09 .LASF1635
     /tmp/cc7jEFKv.s:77336  .debug_str:000000000000236b .LASF1636
     /tmp/cc7jEFKv.s:80742  .debug_str:000000000000b593 .LASF1637
     /tmp/cc7jEFKv.s:83586  .debug_str:000000000001304c .LASF1638
     /tmp/cc7jEFKv.s:78410  .debug_str:0000000000005363 .LASF1639
     /tmp/cc7jEFKv.s:81490  .debug_str:000000000000d4ff .LASF1640
     /tmp/cc7jEFKv.s:77640  .debug_str:000000000000318f .LASF1641
     /tmp/cc7jEFKv.s:77618  .debug_str:000000000000308f .LASF1642
     /tmp/cc7jEFKv.s:78414  .debug_str:000000000000538b .LASF1643
     /tmp/cc7jEFKv.s:79524  .debug_str:000000000000828a .LASF1644
     /tmp/cc7jEFKv.s:79196  .debug_str:000000000000734b .LASF1645
     /tmp/cc7jEFKv.s:77386  .debug_str:00000000000025ee .LASF1646
     /tmp/cc7jEFKv.s:78026  .debug_str:0000000000004282 .LASF1647
     /tmp/cc7jEFKv.s:77660  .debug_str:0000000000003260 .LASF1648
     /tmp/cc7jEFKv.s:82160  .debug_str:000000000000f35b .LASF1649
     /tmp/cc7jEFKv.s:77884  .debug_str:0000000000003c0c .LASF1650
     /tmp/cc7jEFKv.s:82156  .debug_str:000000000000f329 .LASF1651
     /tmp/cc7jEFKv.s:77882  .debug_str:0000000000003bf3 .LASF1652
     /tmp/cc7jEFKv.s:81574  .debug_str:000000000000d8e4 .LASF1653
     /tmp/cc7jEFKv.s:80140  .debug_str:0000000000009d93 .LASF1654
     /tmp/cc7jEFKv.s:83424  .debug_str:000000000001294e .LASF1655
     /tmp/cc7jEFKv.s:77122  .debug_str:0000000000001a33 .LASF1656
     /tmp/cc7jEFKv.s:81284  .debug_str:000000000000cb4c .LASF1657
     /tmp/cc7jEFKv.s:81492  .debug_str:000000000000d50a .LASF1658
     /tmp/cc7jEFKv.s:78934  .debug_str:0000000000006755 .LASF1659
     /tmp/cc7jEFKv.s:79952  .debug_str:00000000000095ea .LASF1660
     /tmp/cc7jEFKv.s:80314  .debug_str:000000000000a510 .LASF1661
     /tmp/cc7jEFKv.s:80542  .debug_str:000000000000ae65 .LASF1662
     /tmp/cc7jEFKv.s:78826  .debug_str:00000000000062ae .LASF1663
     /tmp/cc7jEFKv.s:80098  .debug_str:0000000000009be9 .LASF1664
     /tmp/cc7jEFKv.s:83042  .debug_str:0000000000011a45 .LASF1665
     /tmp/cc7jEFKv.s:80674  .debug_str:000000000000b315 .LASF1666
     /tmp/cc7jEFKv.s:81112  .debug_str:000000000000c366 .LASF1667
     /tmp/cc7jEFKv.s:83510  .debug_str:0000000000012ce8 .LASF1668
     /tmp/cc7jEFKv.s:83370  .debug_str:00000000000126d2 .LASF1669
     /tmp/cc7jEFKv.s:78378  .debug_str:0000000000005283 .LASF1670
     /tmp/cc7jEFKv.s:79832  .debug_str:0000000000009084 .LASF1671
     /tmp/cc7jEFKv.s:76638  .debug_str:0000000000000781 .LASF1672
     /tmp/cc7jEFKv.s:82072  .debug_str:000000000000efe7 .LASF1673
     /tmp/cc7jEFKv.s:77558  .debug_str:0000000000002e23 .LASF1674
     /tmp/cc7jEFKv.s:78074  .debug_str:0000000000004482 .LASF1675
     /tmp/cc7jEFKv.s:81098  .debug_str:000000000000c2e5 .LASF1676
     /tmp/cc7jEFKv.s:83348  .debug_str:00000000000125d6 .LASF1677
     /tmp/cc7jEFKv.s:80142  .debug_str:0000000000009db8 .LASF1678
     /tmp/cc7jEFKv.s:77106  .debug_str:000000000000195d .LASF1679
     /tmp/cc7jEFKv.s:82390  .debug_str:000000000000fdeb .LASF1680
     /tmp/cc7jEFKv.s:79970  .debug_str:00000000000096f4 .LASF1681
     /tmp/cc7jEFKv.s:83150  .debug_str:0000000000011e11 .LASF1682
     /tmp/cc7jEFKv.s:82836  .debug_str:0000000000011154 .LASF1683
     /tmp/cc7jEFKv.s:79284  .debug_str:0000000000007738 .LASF1684
     /tmp/cc7jEFKv.s:79424  .debug_str:0000000000007d55 .LASF1685
     /tmp/cc7jEFKv.s:82082  .debug_str:000000000000f03e .LASF1686
     /tmp/cc7jEFKv.s:83806  .debug_str:00000000000139e2 .LASF1687
     /tmp/cc7jEFKv.s:81460  .debug_str:000000000000d3a9 .LASF1688
     /tmp/cc7jEFKv.s:79950  .debug_str:00000000000095d9 .LASF1689
     /tmp/cc7jEFKv.s:77232  .debug_str:0000000000001f0a .LASF1690
     /tmp/cc7jEFKv.s:78694  .debug_str:0000000000005da3 .LASF1691
     /tmp/cc7jEFKv.s:79320  .debug_str:000000000000786a .LASF1692
     /tmp/cc7jEFKv.s:81566  .debug_str:000000000000d889 .LASF1693
     /tmp/cc7jEFKv.s:81116  .debug_str:000000000000c39b .LASF1694
     /tmp/cc7jEFKv.s:77788  .debug_str:00000000000037ed .LASF1695
     /tmp/cc7jEFKv.s:79802  .debug_str:0000000000008f0e .LASF1696
     /tmp/cc7jEFKv.s:79658  .debug_str:00000000000088af .LASF1697
     /tmp/cc7jEFKv.s:79572  .debug_str:000000000000847e .LASF1698
     /tmp/cc7jEFKv.s:78890  .debug_str:0000000000006535 .LASF1699
     /tmp/cc7jEFKv.s:80402  .debug_str:000000000000a8f7 .LASF1700
     /tmp/cc7jEFKv.s:79720  .debug_str:0000000000008b36 .LASF1701
     /tmp/cc7jEFKv.s:79032  .debug_str:0000000000006c0f .LASF1702
     /tmp/cc7jEFKv.s:82064  .debug_str:000000000000efa9 .LASF1703
     /tmp/cc7jEFKv.s:80936  .debug_str:000000000000bc89 .LASF1704
     /tmp/cc7jEFKv.s:77736  .debug_str:00000000000035fc .LASF1705
     /tmp/cc7jEFKv.s:83910  .debug_str:0000000000013e64 .LASF1706
     /tmp/cc7jEFKv.s:79938  .debug_str:000000000000952c .LASF1707
     /tmp/cc7jEFKv.s:79554  .debug_str:00000000000083e0 .LASF1708
     /tmp/cc7jEFKv.s:82812  .debug_str:0000000000011068 .LASF1709
     /tmp/cc7jEFKv.s:81568  .debug_str:000000000000d892 .LASF1710
     /tmp/cc7jEFKv.s:76766  .debug_str:0000000000000c8a .LASF1711
     /tmp/cc7jEFKv.s:81364  .debug_str:000000000000cee9 .LASF1712
     /tmp/cc7jEFKv.s:76762  .debug_str:0000000000000c62 .LASF1713
     /tmp/cc7jEFKv.s:83492  .debug_str:0000000000012c44 .LASF1714
     /tmp/cc7jEFKv.s:78900  .debug_str:00000000000065b4 .LASF1715
     /tmp/cc7jEFKv.s:81026  .debug_str:000000000000bfb3 .LASF1716
     /tmp/cc7jEFKv.s:76734  .debug_str:0000000000000af7 .LASF1717
     /tmp/cc7jEFKv.s:77950  .debug_str:0000000000003ebf .LASF1718
     /tmp/cc7jEFKv.s:80888  .debug_str:000000000000bb10 .LASF1719
     /tmp/cc7jEFKv.s:79754  .debug_str:0000000000008d1d .LASF1720
     /tmp/cc7jEFKv.s:82834  .debug_str:0000000000011131 .LASF1721
     /tmp/cc7jEFKv.s:80840  .debug_str:000000000000b935 .LASF1722
     /tmp/cc7jEFKv.s:79144  .debug_str:00000000000070ee .LASF1723
     /tmp/cc7jEFKv.s:81338  .debug_str:000000000000cdb7 .LASF1724
     /tmp/cc7jEFKv.s:77832  .debug_str:0000000000003a3a .LASF1725
     /tmp/cc7jEFKv.s:79646  .debug_str:0000000000008859 .LASF1726
     /tmp/cc7jEFKv.s:77696  .debug_str:000000000000340a .LASF1727
     /tmp/cc7jEFKv.s:77102  .debug_str:0000000000001936 .LASF1728
     /tmp/cc7jEFKv.s:78124  .debug_str:000000000000475c .LASF1729
     /tmp/cc7jEFKv.s:77372  .debug_str:0000000000002538 .LASF1730
     /tmp/cc7jEFKv.s:83224  .debug_str:000000000001210a .LASF1731
     /tmp/cc7jEFKv.s:81870  .debug_str:000000000000e6af .LASF1732
     /tmp/cc7jEFKv.s:79486  .debug_str:0000000000008096 .LASF1733
     /tmp/cc7jEFKv.s:80950  .debug_str:000000000000bd30 .LASF1734
     /tmp/cc7jEFKv.s:76642  .debug_str:000000000000079f .LASF1735
     /tmp/cc7jEFKv.s:80682  .debug_str:000000000000b380 .LASF1736
     /tmp/cc7jEFKv.s:77406  .debug_str:00000000000026d7 .LASF1737
     /tmp/cc7jEFKv.s:82006  .debug_str:000000000000eca7 .LASF1738
     /tmp/cc7jEFKv.s:81400  .debug_str:000000000000d08e .LASF1739
     /tmp/cc7jEFKv.s:80730  .debug_str:000000000000b50d .LASF1740
     /tmp/cc7jEFKv.s:80030  .debug_str:00000000000098e7 .LASF1741
     /tmp/cc7jEFKv.s:78020  .debug_str:000000000000421e .LASF1742
     /tmp/cc7jEFKv.s:84086  .debug_str:00000000000146aa .LASF1743
     /tmp/cc7jEFKv.s:77014  .debug_str:0000000000001613 .LASF1744
     /tmp/cc7jEFKv.s:81626  .debug_str:000000000000db9f .LASF1745
     /tmp/cc7jEFKv.s:84020  .debug_str:00000000000143bf .LASF1746
     /tmp/cc7jEFKv.s:83250  .debug_str:0000000000012202 .LASF1747
     /tmp/cc7jEFKv.s:79220  .debug_str:000000000000746f .LASF1748
     /tmp/cc7jEFKv.s:79582  .debug_str:00000000000085a3 .LASF1749
     /tmp/cc7jEFKv.s:81458  .debug_str:000000000000d396 .LASF1750
     /tmp/cc7jEFKv.s:83460  .debug_str:0000000000012ad7 .LASF1751
     /tmp/cc7jEFKv.s:83226  .debug_str:0000000000012124 .LASF1752
     /tmp/cc7jEFKv.s:78418  .debug_str:00000000000053c9 .LASF1753
     /tmp/cc7jEFKv.s:81192  .debug_str:000000000000c705 .LASF1754
     /tmp/cc7jEFKv.s:79460  .debug_str:0000000000007efa .LASF1755
     /tmp/cc7jEFKv.s:80688  .debug_str:000000000000b3f3 .LASF1756
     /tmp/cc7jEFKv.s:81064  .debug_str:000000000000c177 .LASF1757
     /tmp/cc7jEFKv.s:80412  .debug_str:000000000000a947 .LASF1758
     /tmp/cc7jEFKv.s:77830  .debug_str:0000000000003a30 .LASF1759
     /tmp/cc7jEFKv.s:78710  .debug_str:0000000000005e3f .LASF1760
     /tmp/cc7jEFKv.s:82002  .debug_str:000000000000ec74 .LASF1761
     /tmp/cc7jEFKv.s:80234  .debug_str:000000000000a1d4 .LASF1762
     /tmp/cc7jEFKv.s:76614  .debug_str:0000000000000650 .LASF1763
     /tmp/cc7jEFKv.s:77648  .debug_str:00000000000031f6 .LASF1764
     /tmp/cc7jEFKv.s:80914  .debug_str:000000000000bb9c .LASF1765
     /tmp/cc7jEFKv.s:77842  .debug_str:0000000000003a9e .LASF1766
     /tmp/cc7jEFKv.s:77844  .debug_str:0000000000003aac .LASF1767
     /tmp/cc7jEFKv.s:77846  .debug_str:0000000000003aba .LASF1768
     /tmp/cc7jEFKv.s:83254  .debug_str:0000000000012219 .LASF1769
     /tmp/cc7jEFKv.s:77850  .debug_str:0000000000003ad3 .LASF1770
     /tmp/cc7jEFKv.s:77852  .debug_str:0000000000003ae1 .LASF1771
     /tmp/cc7jEFKv.s:77854  .debug_str:0000000000003aef .LASF1772
     /tmp/cc7jEFKv.s:77856  .debug_str:0000000000003afd .LASF1773
     /tmp/cc7jEFKv.s:77858  .debug_str:0000000000003b0b .LASF1774
     /tmp/cc7jEFKv.s:83444  .debug_str:0000000000012a0e .LASF1775
     /tmp/cc7jEFKv.s:82772  .debug_str:0000000000010e9e .LASF1776
     /tmp/cc7jEFKv.s:79264  .debug_str:000000000000766e .LASF1777
     /tmp/cc7jEFKv.s:81998  .debug_str:000000000000ec41 .LASF1778
     /tmp/cc7jEFKv.s:80694  .debug_str:000000000000b424 .LASF1779
     /tmp/cc7jEFKv.s:83996  .debug_str:00000000000142b1 .LASF1780
     /tmp/cc7jEFKv.s:84062  .debug_str:00000000000145a5 .LASF1781
     /tmp/cc7jEFKv.s:81822  .debug_str:000000000000e468 .LASF1782
     /tmp/cc7jEFKv.s:80740  .debug_str:000000000000b583 .LASF1783
     /tmp/cc7jEFKv.s:78456  .debug_str:0000000000005538 .LASF1784
     /tmp/cc7jEFKv.s:84148  .debug_str:00000000000148f6 .LASF1785
     /tmp/cc7jEFKv.s:83144  .debug_str:0000000000011dc8 .LASF1786
     /tmp/cc7jEFKv.s:82846  .debug_str:00000000000111d9 .LASF1787
     /tmp/cc7jEFKv.s:79968  .debug_str:00000000000096d4 .LASF1788
     /tmp/cc7jEFKv.s:79360  .debug_str:0000000000007a08 .LASF1789
     /tmp/cc7jEFKv.s:80534  .debug_str:000000000000adc8 .LASF1790
     /tmp/cc7jEFKv.s:81104  .debug_str:000000000000c325 .LASF1791
     /tmp/cc7jEFKv.s:77488  .debug_str:0000000000002ac7 .LASF1792
     /tmp/cc7jEFKv.s:77172  .debug_str:0000000000001c7e .LASF1793
     /tmp/cc7jEFKv.s:81146  .debug_str:000000000000c4e0 .LASF1794
     /tmp/cc7jEFKv.s:82188  .debug_str:000000000000f4b9 .LASF1795
     /tmp/cc7jEFKv.s:80400  .debug_str:000000000000a8d0 .LASF1796
     /tmp/cc7jEFKv.s:82898  .debug_str:0000000000011499 .LASF1797
     /tmp/cc7jEFKv.s:82306  .debug_str:000000000000f9f7 .LASF1798
     /tmp/cc7jEFKv.s:81354  .debug_str:000000000000ce65 .LASF1799
     /tmp/cc7jEFKv.s:83342  .debug_str:00000000000125a4 .LASF1800
     /tmp/cc7jEFKv.s:79488  .debug_str:00000000000080af .LASF1801
     /tmp/cc7jEFKv.s:76556  .debug_str:0000000000000423 .LASF1802
     /tmp/cc7jEFKv.s:82902  .debug_str:00000000000114d3 .LASF1803
     /tmp/cc7jEFKv.s:79490  .debug_str:00000000000080c1 .LASF1804
     /tmp/cc7jEFKv.s:79830  .debug_str:000000000000905e .LASF1805
     /tmp/cc7jEFKv.s:82904  .debug_str:00000000000114e5 .LASF1806
     /tmp/cc7jEFKv.s:82312  .debug_str:000000000000fa2c .LASF1807
     /tmp/cc7jEFKv.s:82944  .debug_str:00000000000116bd .LASF1808
     /tmp/cc7jEFKv.s:77002  .debug_str:000000000000158b .LASF1809
     /tmp/cc7jEFKv.s:83758  .debug_str:00000000000137e4 .LASF1810
     /tmp/cc7jEFKv.s:81114  .debug_str:000000000000c375 .LASF1811
     /tmp/cc7jEFKv.s:79680  .debug_str:00000000000089bc .LASF1812
     /tmp/cc7jEFKv.s:83926  .debug_str:0000000000013efd .LASF1813
     /tmp/cc7jEFKv.s:80240  .debug_str:000000000000a1f3 .LASF1814
     /tmp/cc7jEFKv.s:79682  .debug_str:00000000000089ce .LASF1815
     /tmp/cc7jEFKv.s:83928  .debug_str:0000000000013f0f .LASF1816
     /tmp/cc7jEFKv.s:79258  .debug_str:000000000000762f .LASF1817
     /tmp/cc7jEFKv.s:84094  .debug_str:0000000000014701 .LASF1818
     /tmp/cc7jEFKv.s:83296  .debug_str:00000000000123f6 .LASF1819
     /tmp/cc7jEFKv.s:78828  .debug_str:00000000000062b7 .LASF1820
     /tmp/cc7jEFKv.s:80790  .debug_str:000000000000b739 .LASF1821
     /tmp/cc7jEFKv.s:82470  .debug_str:0000000000010100 .LASF1822
     /tmp/cc7jEFKv.s:79726  .debug_str:0000000000008b92 .LASF1823
     /tmp/cc7jEFKv.s:81306  .debug_str:000000000000cc77 .LASF1824
     /tmp/cc7jEFKv.s:81678  .debug_str:000000000000de6c .LASF1825
     /tmp/cc7jEFKv.s:81720  .debug_str:000000000000dfd3 .LASF1826
     /tmp/cc7jEFKv.s:80372  .debug_str:000000000000a775 .LASF1827
     /tmp/cc7jEFKv.s:76838  .debug_str:0000000000000f5d .LASF1828
     /tmp/cc7jEFKv.s:80362  .debug_str:000000000000a6fb .LASF1829
     /tmp/cc7jEFKv.s:79854  .debug_str:000000000000919c .LASF1830
     /tmp/cc7jEFKv.s:79186  .debug_str:00000000000072de .LASF1831
     /tmp/cc7jEFKv.s:77384  .debug_str:00000000000025ce .LASF1832
     /tmp/cc7jEFKv.s:80280  .debug_str:000000000000a35d .LASF1833
     /tmp/cc7jEFKv.s:83812  .debug_str:0000000000013a25 .LASF1834
     /tmp/cc7jEFKv.s:80636  .debug_str:000000000000b1b7 .LASF1835
     /tmp/cc7jEFKv.s:80286  .debug_str:000000000000a39b .LASF1836
     /tmp/cc7jEFKv.s:83800  .debug_str:00000000000139a9 .LASF1837
     /tmp/cc7jEFKv.s:82566  .debug_str:000000000001054c .LASF1838
     /tmp/cc7jEFKv.s:82404  .debug_str:000000000000fe93 .LASF1839
     /tmp/cc7jEFKv.s:78156  .debug_str:00000000000048b6 .LASF1840
     /tmp/cc7jEFKv.s:79194  .debug_str:000000000000732b .LASF1841
     /tmp/cc7jEFKv.s:80366  .debug_str:000000000000a72d .LASF1842
     /tmp/cc7jEFKv.s:82906  .debug_str:00000000000114f7 .LASF1843
     /tmp/cc7jEFKv.s:80000  .debug_str:00000000000097c6 .LASF1844
     /tmp/cc7jEFKv.s:80054  .debug_str:00000000000099b9 .LASF1845
     /tmp/cc7jEFKv.s:80514  .debug_str:000000000000acc0 .LASF1846
     /tmp/cc7jEFKv.s:78894  .debug_str:0000000000006556 .LASF1847
     /tmp/cc7jEFKv.s:77922  .debug_str:0000000000003d9b .LASF1848
     /tmp/cc7jEFKv.s:83972  .debug_str:000000000001414b .LASF1849
     /tmp/cc7jEFKv.s:82624  .debug_str:00000000000107fa .LASF1850
     /tmp/cc7jEFKv.s:77744  .debug_str:0000000000003655 .LASF1851
     /tmp/cc7jEFKv.s:78716  .debug_str:0000000000005e83 .LASF1852
     /tmp/cc7jEFKv.s:78850  .debug_str:00000000000063da .LASF1853
     /tmp/cc7jEFKv.s:82078  .debug_str:000000000000f012 .LASF1854
     /tmp/cc7jEFKv.s:78884  .debug_str:00000000000064f7 .LASF1855
     /tmp/cc7jEFKv.s:82164  .debug_str:000000000000f380 .LASF1856
     /tmp/cc7jEFKv.s:84044  .debug_str:00000000000144ed .LASF1857
     /tmp/cc7jEFKv.s:79018  .debug_str:0000000000006b6b .LASF1858
     /tmp/cc7jEFKv.s:80602  .debug_str:000000000000b02d .LASF1859
     /tmp/cc7jEFKv.s:80182  .debug_str:0000000000009f70 .LASF1860
     /tmp/cc7jEFKv.s:78770  .debug_str:0000000000006061 .LASF1861
     /tmp/cc7jEFKv.s:82402  .debug_str:000000000000fe6b .LASF1862
     /tmp/cc7jEFKv.s:83008  .debug_str:00000000000118df .LASF1863
     /tmp/cc7jEFKv.s:77338  .debug_str:000000000000237b .LASF1864
     /tmp/cc7jEFKv.s:78416  .debug_str:000000000000539f .LASF1865
     /tmp/cc7jEFKv.s:82112  .debug_str:000000000000f171 .LASF1866
     /tmp/cc7jEFKv.s:83662  .debug_str:00000000000133d8 .LASF1867
     /tmp/cc7jEFKv.s:78570  .debug_str:000000000000597b .LASF1868
     /tmp/cc7jEFKv.s:77152  .debug_str:0000000000001b94 .LASF1869
     /tmp/cc7jEFKv.s:79010  .debug_str:0000000000006b20 .LASF1870
     /tmp/cc7jEFKv.s:78018  .debug_str:00000000000041f2 .LASF1871
     /tmp/cc7jEFKv.s:78238  .debug_str:0000000000004c5a .LASF1872
     /tmp/cc7jEFKv.s:84240  .debug_str:0000000000014d49 .LASF1873
     /tmp/cc7jEFKv.s:78778  .debug_str:00000000000060d4 .LASF1874
     /tmp/cc7jEFKv.s:82672  .debug_str:0000000000010a7f .LASF1875
     /tmp/cc7jEFKv.s:82660  .debug_str:00000000000109f7 .LASF1876
     /tmp/cc7jEFKv.s:77534  .debug_str:0000000000002d23 .LASF1877
     /tmp/cc7jEFKv.s:77506  .debug_str:0000000000002bea .LASF1878
     /tmp/cc7jEFKv.s:76612  .debug_str:0000000000000640 .LASF1879
     /tmp/cc7jEFKv.s:83546  .debug_str:0000000000012ec2 .LASF1880
     /tmp/cc7jEFKv.s:80946  .debug_str:000000000000bd10 .LASF1881
     /tmp/cc7jEFKv.s:82782  .debug_str:0000000000010f1e .LASF1882
     /tmp/cc7jEFKv.s:82892  .debug_str:0000000000011448 .LASF1883
     /tmp/cc7jEFKv.s:83520  .debug_str:0000000000012d69 .LASF1884
     /tmp/cc7jEFKv.s:79500  .debug_str:0000000000008141 .LASF1885
     /tmp/cc7jEFKv.s:79392  .debug_str:0000000000007b9f .LASF1886
     /tmp/cc7jEFKv.s:79120  .debug_str:0000000000006fb3 .LASF1887
     /tmp/cc7jEFKv.s:83558  .debug_str:0000000000012f42 .LASF1888
     /tmp/cc7jEFKv.s:83950  .debug_str:000000000001404d .LASF1889
     /tmp/cc7jEFKv.s:82524  .debug_str:000000000001037d .LASF1890
     /tmp/cc7jEFKv.s:81288  .debug_str:000000000000cb68 .LASF1891
     /tmp/cc7jEFKv.s:83544  .debug_str:0000000000012e94 .LASF1892
     /tmp/cc7jEFKv.s:80060  .debug_str:0000000000009a01 .LASF1893
     /tmp/cc7jEFKv.s:83644  .debug_str:00000000000132e1 .LASF1894
     /tmp/cc7jEFKv.s:81912  .debug_str:000000000000e85f .LASF1895
     /tmp/cc7jEFKv.s:78360  .debug_str:000000000000516f .LASF1896
     /tmp/cc7jEFKv.s:80144  .debug_str:0000000000009dc1 .LASF1897
     /tmp/cc7jEFKv.s:77510  .debug_str:0000000000002c24 .LASF1898
     /tmp/cc7jEFKv.s:81150  .debug_str:000000000000c50b .LASF1899
     /tmp/cc7jEFKv.s:83192  .debug_str:0000000000012049 .LASF1900
     /tmp/cc7jEFKv.s:78646  .debug_str:0000000000005c3d .LASF1901
     /tmp/cc7jEFKv.s:78142  .debug_str:000000000000482e .LASF1902
     /tmp/cc7jEFKv.s:79558  .debug_str:000000000000840f .LASF1903
     /tmp/cc7jEFKv.s:83110  .debug_str:0000000000011cc8 .LASF1904
     /tmp/cc7jEFKv.s:83760  .debug_str:00000000000137f6 .LASF1905
     /tmp/cc7jEFKv.s:80040  .debug_str:0000000000009940 .LASF1906
     /tmp/cc7jEFKv.s:77472  .debug_str:00000000000029ce .LASF1907
     /tmp/cc7jEFKv.s:79568  .debug_str:0000000000008465 .LASF1908
     /tmp/cc7jEFKv.s:82254  .debug_str:000000000000f7a4 .LASF1909
     /tmp/cc7jEFKv.s:81682  .debug_str:000000000000de8f .LASF1910
     /tmp/cc7jEFKv.s:82318  .debug_str:000000000000fa6e .LASF1911
     /tmp/cc7jEFKv.s:82004  .debug_str:000000000000ec99 .LASF1912
     /tmp/cc7jEFKv.s:84146  .debug_str:00000000000148d4 .LASF1913
     /tmp/cc7jEFKv.s:77620  .debug_str:00000000000030a0 .LASF1914
     /tmp/cc7jEFKv.s:82048  .debug_str:000000000000eefe .LASF1915
     /tmp/cc7jEFKv.s:84022  .debug_str:00000000000143cc .LASF1916
     /tmp/cc7jEFKv.s:80626  .debug_str:000000000000b142 .LASF1917
     /tmp/cc7jEFKv.s:83960  .debug_str:00000000000140f2 .LASF1918
     /tmp/cc7jEFKv.s:78230  .debug_str:0000000000004bcc .LASF1919
     /tmp/cc7jEFKv.s:80882  .debug_str:000000000000bae7 .LASF1920
     /tmp/cc7jEFKv.s:77682  .debug_str:000000000000337c .LASF1921
     /tmp/cc7jEFKv.s:77960  .debug_str:0000000000003f29 .LASF1922
     /tmp/cc7jEFKv.s:78924  .debug_str:00000000000066e8 .LASF1923
     /tmp/cc7jEFKv.s:83846  .debug_str:0000000000013b9a .LASF1924
     /tmp/cc7jEFKv.s:77006  .debug_str:00000000000015aa .LASF1925
     /tmp/cc7jEFKv.s:79310  .debug_str:00000000000077ca .LASF1926
     /tmp/cc7jEFKv.s:83506  .debug_str:0000000000012cbe .LASF1927
     /tmp/cc7jEFKv.s:76870  .debug_str:0000000000001060 .LASF1928
     /tmp/cc7jEFKv.s:83452  .debug_str:0000000000012a7f .LASF1929
     /tmp/cc7jEFKv.s:80222  .debug_str:000000000000a16b .LASF1930
     /tmp/cc7jEFKv.s:79604  .debug_str:0000000000008655 .LASF1931
     /tmp/cc7jEFKv.s:76660  .debug_str:0000000000000864 .LASF1932
     /tmp/cc7jEFKv.s:80236  .debug_str:000000000000a1de .LASF1933
     /tmp/cc7jEFKv.s:80082  .debug_str:0000000000009ae0 .LASF1934
     /tmp/cc7jEFKv.s:76652  .debug_str:0000000000000812 .LASF1935
     /tmp/cc7jEFKv.s:81270  .debug_str:000000000000cae6 .LASF1936
     /tmp/cc7jEFKv.s:81304  .debug_str:000000000000cc59 .LASF1937
     /tmp/cc7jEFKv.s:76620  .debug_str:000000000000068f .LASF1938
     /tmp/cc7jEFKv.s:83076  .debug_str:0000000000011b46 .LASF1939
     /tmp/cc7jEFKv.s:77090  .debug_str:00000000000018d3 .LASF1940
     /tmp/cc7jEFKv.s:76740  .debug_str:0000000000000b5f .LASF1941
     /tmp/cc7jEFKv.s:81074  .debug_str:000000000000c206 .LASF1942
     /tmp/cc7jEFKv.s:80336  .debug_str:000000000000a622 .LASF1943
     /tmp/cc7jEFKv.s:81774  .debug_str:000000000000e235 .LASF1944
     /tmp/cc7jEFKv.s:84108  .debug_str:00000000000147bd .LASF1945
     /tmp/cc7jEFKv.s:80084  .debug_str:0000000000009afe .LASF1946
     /tmp/cc7jEFKv.s:77396  .debug_str:000000000000267c .LASF1947
     /tmp/cc7jEFKv.s:81012  .debug_str:000000000000bf33 .LASF1948
     /tmp/cc7jEFKv.s:81974  .debug_str:000000000000eb31 .LASF1949
     /tmp/cc7jEFKv.s:77394  .debug_str:0000000000002672 .LASF1950
     /tmp/cc7jEFKv.s:82952  .debug_str:0000000000011726 .LASF1951
     /tmp/cc7jEFKv.s:83096  .debug_str:0000000000011c14 .LASF1952
     /tmp/cc7jEFKv.s:83274  .debug_str:00000000000122e4 .LASF1953
     /tmp/cc7jEFKv.s:80014  .debug_str:0000000000009860 .LASF1954
     /tmp/cc7jEFKv.s:83636  .debug_str:0000000000013287 .LASF1955
     /tmp/cc7jEFKv.s:84218  .debug_str:0000000000014c7d .LASF1956
     /tmp/cc7jEFKv.s:80008  .debug_str:0000000000009836 .LASF1957
     /tmp/cc7jEFKv.s:81410  .debug_str:000000000000d13e .LASF1958
     /tmp/cc7jEFKv.s:80062  .debug_str:0000000000009a12 .LASF1959
     /tmp/cc7jEFKv.s:82174  .debug_str:000000000000f3f7 .LASF1960
     /tmp/cc7jEFKv.s:81838  .debug_str:000000000000e531 .LASF1961
     /tmp/cc7jEFKv.s:79076  .debug_str:0000000000006def .LASF1962
     /tmp/cc7jEFKv.s:82194  .debug_str:000000000000f4fc .LASF1963
     /tmp/cc7jEFKv.s:77624  .debug_str:00000000000030cc .LASF1964
     /tmp/cc7jEFKv.s:77200  .debug_str:0000000000001dac .LASF1965
     /tmp/cc7jEFKv.s:76548  .debug_str:00000000000003b4 .LASF1966
     /tmp/cc7jEFKv.s:79808  .debug_str:0000000000008f73 .LASF1967
     /tmp/cc7jEFKv.s:82546  .debug_str:0000000000010496 .LASF1968
     /tmp/cc7jEFKv.s:83746  .debug_str:0000000000013780 .LASF1969
     /tmp/cc7jEFKv.s:83988  .debug_str:0000000000014260 .LASF1970
     /tmp/cc7jEFKv.s:82548  .debug_str:000000000001049f .LASF1971
     /tmp/cc7jEFKv.s:83748  .debug_str:0000000000013789 .LASF1972
     /tmp/cc7jEFKv.s:79434  .debug_str:0000000000007dbf .LASF1973
     /tmp/cc7jEFKv.s:82552  .debug_str:00000000000104b5 .LASF1974
     /tmp/cc7jEFKv.s:77310  .debug_str:0000000000002217 .LASF1975
     /tmp/cc7jEFKv.s:77896  .debug_str:0000000000003ca8 .LASF1976
     /tmp/cc7jEFKv.s:83694  .debug_str:0000000000013588 .LASF1977
     /tmp/cc7jEFKv.s:79162  .debug_str:000000000000719b .LASF1978
     /tmp/cc7jEFKv.s:79862  .debug_str:00000000000091e6 .LASF1979
     /tmp/cc7jEFKv.s:79692  .debug_str:0000000000008a45 .LASF1980
     /tmp/cc7jEFKv.s:82190  .debug_str:000000000000f4cc .LASF1981
     /tmp/cc7jEFKv.s:80680  .debug_str:000000000000b354 .LASF1982
     /tmp/cc7jEFKv.s:81092  .debug_str:000000000000c2aa .LASF1983
     /tmp/cc7jEFKv.s:82192  .debug_str:000000000000f4e4 .LASF1984
     /tmp/cc7jEFKv.s:83090  .debug_str:0000000000011bc3 .LASF1985
     /tmp/cc7jEFKv.s:77422  .debug_str:0000000000002782 .LASF1986
     /tmp/cc7jEFKv.s:83710  .debug_str:0000000000013644 .LASF1987
     /tmp/cc7jEFKv.s:82332  .debug_str:000000000000fb4f .LASF1988
     /tmp/cc7jEFKv.s:77424  .debug_str:000000000000279a .LASF1989
     /tmp/cc7jEFKv.s:83714  .debug_str:000000000001366d .LASF1990
     /tmp/cc7jEFKv.s:77664  .debug_str:0000000000003272 .LASF1991
     /tmp/cc7jEFKv.s:81760  .debug_str:000000000000e1bb .LASF1992
     /tmp/cc7jEFKv.s:82886  .debug_str:0000000000011405 .LASF1993
     /tmp/cc7jEFKv.s:81580  .debug_str:000000000000d93c .LASF1994
     /tmp/cc7jEFKv.s:81272  .debug_str:000000000000caf0 .LASF1995
     /tmp/cc7jEFKv.s:82888  .debug_str:000000000001141d .LASF1996
     /tmp/cc7jEFKv.s:77498  .debug_str:0000000000002b5a .LASF1997
     /tmp/cc7jEFKv.s:81934  .debug_str:000000000000e953 .LASF1998
     /tmp/cc7jEFKv.s:79436  .debug_str:0000000000007ddc .LASF1999
     /tmp/cc7jEFKv.s:79364  .debug_str:0000000000007a3a .LASF2000
     /tmp/cc7jEFKv.s:78144  .debug_str:0000000000004844 .LASF2001
     /tmp/cc7jEFKv.s:79438  .debug_str:0000000000007df4 .LASF2002
     /tmp/cc7jEFKv.s:82500  .debug_str:0000000000010232 .LASF2003
     /tmp/cc7jEFKv.s:82472  .debug_str:0000000000010111 .LASF2004
     /tmp/cc7jEFKv.s:83634  .debug_str:000000000001326f .LASF2005
     /tmp/cc7jEFKv.s:82768  .debug_str:0000000000010e51 .LASF2006
     /tmp/cc7jEFKv.s:82650  .debug_str:000000000001097d .LASF2007
     /tmp/cc7jEFKv.s:78136  .debug_str:00000000000047dc .LASF2008
     /tmp/cc7jEFKv.s:77118  .debug_str:00000000000019fa .LASF2009
     /tmp/cc7jEFKv.s:78970  .debug_str:0000000000006901 .LASF2010
     /tmp/cc7jEFKv.s:80186  .debug_str:0000000000009fa4 .LASF2011
     /tmp/cc7jEFKv.s:79474  .debug_str:0000000000007fc6 .LASF2012
     /tmp/cc7jEFKv.s:78972  .debug_str:0000000000006919 .LASF2013
     /tmp/cc7jEFKv.s:80188  .debug_str:0000000000009fbc .LASF2014
     /tmp/cc7jEFKv.s:79512  .debug_str:00000000000081e1 .LASF2015
     /tmp/cc7jEFKv.s:83218  .debug_str:00000000000120ce .LASF2016
     /tmp/cc7jEFKv.s:82746  .debug_str:0000000000010d84 .LASF2017
     /tmp/cc7jEFKv.s:76814  .debug_str:0000000000000de1 .LASF2018
     /tmp/cc7jEFKv.s:77266  .debug_str:0000000000002063 .LASF2019
     /tmp/cc7jEFKv.s:76550  .debug_str:00000000000003c2 .LASF2020
     /tmp/cc7jEFKv.s:81972  .debug_str:000000000000eb05 .LASF2021
     /tmp/cc7jEFKv.s:77112  .debug_str:0000000000001993 .LASF2022
     /tmp/cc7jEFKv.s:81002  .debug_str:000000000000beca .LASF2023
     /tmp/cc7jEFKv.s:81250  .debug_str:000000000000c9bc .LASF2024
     /tmp/cc7jEFKv.s:79750  .debug_str:0000000000008cf8 .LASF2025
     /tmp/cc7jEFKv.s:81004  .debug_str:000000000000bee2 .LASF2026
     /tmp/cc7jEFKv.s:84246  .debug_str:0000000000014d93 .LASF2027
     /tmp/cc7jEFKv.s:83954  .debug_str:00000000000140ad .LASF2028
     /tmp/cc7jEFKv.s:77348  .debug_str:00000000000023ec .LASF2029
     /tmp/cc7jEFKv.s:83464  .debug_str:0000000000012b08 .LASF2030
     /tmp/cc7jEFKv.s:83956  .debug_str:00000000000140c5 .LASF2031
     /tmp/cc7jEFKv.s:77350  .debug_str:0000000000002404 .LASF2032
     /tmp/cc7jEFKv.s:78902  .debug_str:00000000000065d0 .LASF2033
     /tmp/cc7jEFKv.s:80532  .debug_str:000000000000adb0 .LASF2034
     /tmp/cc7jEFKv.s:81672  .debug_str:000000000000de2d .LASF2035
     /tmp/cc7jEFKv.s:78060  .debug_str:00000000000043ca .LASF2036
     /tmp/cc7jEFKv.s:78622  .debug_str:0000000000005b42 .LASF2037
     /tmp/cc7jEFKv.s:81674  .debug_str:000000000000de45 .LASF2038
     /tmp/cc7jEFKv.s:81388  .debug_str:000000000000cfe8 .LASF2039
     /tmp/cc7jEFKv.s:81100  .debug_str:000000000000c2f3 .LASF2040
     /tmp/cc7jEFKv.s:79370  .debug_str:0000000000007a87 .LASF2041
     /tmp/cc7jEFKv.s:82604  .debug_str:00000000000106ff .LASF2042
     /tmp/cc7jEFKv.s:81102  .debug_str:000000000000c30c .LASF2043
     /tmp/cc7jEFKv.s:79372  .debug_str:0000000000007aa0 .LASF2044
     /tmp/cc7jEFKv.s:77938  .debug_str:0000000000003e27 .LASF2045
     /tmp/cc7jEFKv.s:77430  .debug_str:00000000000027fc .LASF2046
     /tmp/cc7jEFKv.s:83572  .debug_str:0000000000012f84 .LASF2047
     /tmp/cc7jEFKv.s:81670  .debug_str:000000000000de00 .LASF2048
     /tmp/cc7jEFKv.s:77432  .debug_str:0000000000002815 .LASF2049
     /tmp/cc7jEFKv.s:78450  .debug_str:00000000000054fb .LASF2050
     /tmp/cc7jEFKv.s:80474  .debug_str:000000000000ab5d .LASF2051
     /tmp/cc7jEFKv.s:81776  .debug_str:000000000000e24a .LASF2052
     /tmp/cc7jEFKv.s:77518  .debug_str:0000000000002c71 .LASF2053
     /tmp/cc7jEFKv.s:79688  .debug_str:0000000000008a13 .LASF2054
     /tmp/cc7jEFKv.s:81778  .debug_str:000000000000e263 .LASF2055
     /tmp/cc7jEFKv.s:79278  .debug_str:0000000000007704 .LASF2056
     /tmp/cc7jEFKv.s:82798  .debug_str:0000000000010fcf .LASF2057
     /tmp/cc7jEFKv.s:78164  .debug_str:00000000000048f7 .LASF2058
     /tmp/cc7jEFKv.s:76492  .debug_str:00000000000000fe .LASF2059
     /tmp/cc7jEFKv.s:82040  .debug_str:000000000000ee7f .LASF2060
     /tmp/cc7jEFKv.s:78166  .debug_str:0000000000004910 .LASF2061
     /tmp/cc7jEFKv.s:83410  .debug_str:000000000001288e .LASF2062
     /tmp/cc7jEFKv.s:77362  .debug_str:00000000000024af .LASF2063
     /tmp/cc7jEFKv.s:82494  .debug_str:00000000000101f9 .LASF2064
     /tmp/cc7jEFKv.s:80918  .debug_str:000000000000bbb1 .LASF2065
     /tmp/cc7jEFKv.s:76554  .debug_str:00000000000003f6 .LASF2066
     /tmp/cc7jEFKv.s:82496  .debug_str:0000000000010212 .LASF2067
     /tmp/cc7jEFKv.s:80920  .debug_str:000000000000bbca .LASF2068
     /tmp/cc7jEFKv.s:79826  .debug_str:0000000000009021 .LASF2069
     /tmp/cc7jEFKv.s:78992  .debug_str:0000000000006a0a .LASF2070
     /tmp/cc7jEFKv.s:77278  .debug_str:00000000000020cb .LASF2071
     /tmp/cc7jEFKv.s:79074  .debug_str:0000000000006dc2 .LASF2072
     /tmp/cc7jEFKv.s:82430  .debug_str:000000000000ff87 .LASF2073
     /tmp/cc7jEFKv.s:77280  .debug_str:00000000000020e4 .LASF2074
     /tmp/cc7jEFKv.s:82236  .debug_str:000000000000f6c9 .LASF2075
     /tmp/cc7jEFKv.s:76686  .debug_str:000000000000097b .LASF2076
     /tmp/cc7jEFKv.s:80216  .debug_str:000000000000a136 .LASF2077
     /tmp/cc7jEFKv.s:76934  .debug_str:00000000000012ec .LASF2078
     /tmp/cc7jEFKv.s:82740  .debug_str:0000000000010d61 .LASF2079
     /tmp/cc7jEFKv.s:78364  .debug_str:00000000000051a7 .LASF2080
     /tmp/cc7jEFKv.s:79790  .debug_str:0000000000008e57 .LASF2081
     /tmp/cc7jEFKv.s:82742  .debug_str:0000000000010d6e .LASF2082
     /tmp/cc7jEFKv.s:78366  .debug_str:00000000000051b4 .LASF2083
     /tmp/cc7jEFKv.s:82894  .debug_str:000000000001146c .LASF2084
     /tmp/cc7jEFKv.s:81430  .debug_str:000000000000d25b .LASF2085
     /tmp/cc7jEFKv.s:78368  .debug_str:00000000000051c1 .LASF2086
     /tmp/cc7jEFKv.s:77462  .debug_str:0000000000002960 .LASF2087
     /tmp/cc7jEFKv.s:79342  .debug_str:0000000000007937 .LASF2088
     /tmp/cc7jEFKv.s:80878  .debug_str:000000000000baba .LASF2089
     /tmp/cc7jEFKv.s:76678  .debug_str:0000000000000919 .LASF2090
     /tmp/cc7jEFKv.s:78110  .debug_str:00000000000046a0 .LASF2091
     /tmp/cc7jEFKv.s:77972  .debug_str:0000000000003fbd .LASF2092
     /tmp/cc7jEFKv.s:83548  .debug_str:0000000000012ee6 .LASF2093
     /tmp/cc7jEFKv.s:77940  .debug_str:0000000000003e54 .LASF2094
     /tmp/cc7jEFKv.s:79762  .debug_str:0000000000008d40 .LASF2095
     /tmp/cc7jEFKv.s:83648  .debug_str:0000000000013301 .LASF2096
     /tmp/cc7jEFKv.s:82436  .debug_str:000000000000ffec .LASF2097
     /tmp/cc7jEFKv.s:78118  .debug_str:0000000000004716 .LASF2098
     /tmp/cc7jEFKv.s:83868  .debug_str:0000000000013c73 .LASF2099
     /tmp/cc7jEFKv.s:78462  .debug_str:0000000000005574 .LASF2100
     /tmp/cc7jEFKv.s:83512  .debug_str:0000000000012cf6 .LASF2101
     /tmp/cc7jEFKv.s:76922  .debug_str:000000000000122b .LASF2102
     /tmp/cc7jEFKv.s:76732  .debug_str:0000000000000ae5 .LASF2103
     /tmp/cc7jEFKv.s:79212  .debug_str:0000000000007439 .LASF2104
     /tmp/cc7jEFKv.s:80846  .debug_str:000000000000b977 .LASF2105
     /tmp/cc7jEFKv.s:80600  .debug_str:000000000000b017 .LASF2106
     /tmp/cc7jEFKv.s:76902  .debug_str:0000000000001133 .LASF2107
     /tmp/cc7jEFKv.s:83388  .debug_str:0000000000012767 .LASF2108
     /tmp/cc7jEFKv.s:78764  .debug_str:0000000000006026 .LASF2109
     /tmp/cc7jEFKv.s:81826  .debug_str:000000000000e489 .LASF2110
     /tmp/cc7jEFKv.s:76616  .debug_str:000000000000065b .LASF2111
     /tmp/cc7jEFKv.s:83764  .debug_str:000000000001382c .LASF2112
     /tmp/cc7jEFKv.s:78048  .debug_str:000000000000435a .LASF2113
     /tmp/cc7jEFKv.s:80870  .debug_str:000000000000ba2f .LASF2114
     /tmp/cc7jEFKv.s:82356  .debug_str:000000000000fc6f .LASF2115
     /tmp/cc7jEFKv.s:81046  .debug_str:000000000000c097 .LASF2116
     /tmp/cc7jEFKv.s:80386  .debug_str:000000000000a82d .LASF2117
     /tmp/cc7jEFKv.s:81990  .debug_str:000000000000ebe1 .LASF2118
     /tmp/cc7jEFKv.s:78438  .debug_str:00000000000054c0 .LASF2119
     /tmp/cc7jEFKv.s:76498  .debug_str:0000000000000149 .LASF2120
     /tmp/cc7jEFKv.s:77548  .debug_str:0000000000002dc7 .LASF2121
     /tmp/cc7jEFKv.s:82788  .debug_str:0000000000010f5b .LASF2122
     /tmp/cc7jEFKv.s:76758  .debug_str:0000000000000c28 .LASF2123
     /tmp/cc7jEFKv.s:82550  .debug_str:00000000000104a8 .LASF2124
     /tmp/cc7jEFKv.s:78130  .debug_str:00000000000047b1 .LASF2125
     /tmp/cc7jEFKv.s:82514  .debug_str:0000000000010305 .LASF2126
     /tmp/cc7jEFKv.s:77674  .debug_str:0000000000003327 .LASF2127
     /tmp/cc7jEFKv.s:76488  .debug_str:00000000000000c9 .LASF2128
     /tmp/cc7jEFKv.s:82838  .debug_str:0000000000011162 .LASF2129
     /tmp/cc7jEFKv.s:78064  .debug_str:0000000000004416 .LASF2130
     /tmp/cc7jEFKv.s:79926  .debug_str:00000000000094c2 .LASF2131
     /tmp/cc7jEFKv.s:77052  .debug_str:000000000000170a .LASF2132
     /tmp/cc7jEFKv.s:80916  .debug_str:000000000000bbaa .LASF2133
     /tmp/cc7jEFKv.s:81194  .debug_str:000000000000c70f .LASF2134
     /tmp/cc7jEFKv.s:79936  .debug_str:0000000000009511 .LASF2135
     /tmp/cc7jEFKv.s:84084  .debug_str:000000000001469f .LASF2136
     /tmp/cc7jEFKv.s:83308  .debug_str:0000000000012478 .LASF2137
     /tmp/cc7jEFKv.s:81888  .debug_str:000000000000e760 .LASF2138
     /tmp/cc7jEFKv.s:80810  .debug_str:000000000000b873 .LASF2139
     /tmp/cc7jEFKv.s:83474  .debug_str:0000000000012b81 .LASF2140
     /tmp/cc7jEFKv.s:79130  .debug_str:0000000000007028 .LASF2141
     /tmp/cc7jEFKv.s:77074  .debug_str:00000000000017ff .LASF2142
     /tmp/cc7jEFKv.s:82214  .debug_str:000000000000f58c .LASF2143
     /tmp/cc7jEFKv.s:80266  .debug_str:000000000000a2f8 .LASF2144
     /tmp/cc7jEFKv.s:80556  .debug_str:000000000000aedb .LASF2145
     /tmp/cc7jEFKv.s:82196  .debug_str:000000000000f50d .LASF2146
     /tmp/cc7jEFKv.s:76552  .debug_str:00000000000003da .LASF2147
     /tmp/cc7jEFKv.s:82184  .debug_str:000000000000f475 .LASF2148
     /tmp/cc7jEFKv.s:82278  .debug_str:000000000000f8ca .LASF2149
     /tmp/cc7jEFKv.s:80298  .debug_str:000000000000a45b .LASF2150
     /tmp/cc7jEFKv.s:83112  .debug_str:0000000000011cf2 .LASF2151
     /tmp/cc7jEFKv.s:83236  .debug_str:0000000000012191 .LASF2152
     /tmp/cc7jEFKv.s:82730  .debug_str:0000000000010cbd .LASF2153
     /tmp/cc7jEFKv.s:83500  .debug_str:0000000000012c7d .LASF2154
     /tmp/cc7jEFKv.s:82138  .debug_str:000000000000f279 .LASF2155
     /tmp/cc7jEFKv.s:81836  .debug_str:000000000000e516 .LASF2156
     /tmp/cc7jEFKv.s:83484  .debug_str:0000000000012c00 .LASF2157
     /tmp/cc7jEFKv.s:82126  .debug_str:000000000000f20e .LASF2158
     /tmp/cc7jEFKv.s:79542  .debug_str:000000000000833e .LASF2159
     /tmp/cc7jEFKv.s:77516  .debug_str:0000000000002c69 .LASF2160
     /tmp/cc7jEFKv.s:77626  .debug_str:00000000000030f1 .LASF2161
     /tmp/cc7jEFKv.s:83850  .debug_str:0000000000013bda .LASF2162
     /tmp/cc7jEFKv.s:82340  .debug_str:000000000000fbbc .LASF2163
     /tmp/cc7jEFKv.s:82468  .debug_str:00000000000100f8 .LASF2164
     /tmp/cc7jEFKv.s:83772  .debug_str:0000000000013880 .LASF2165
     /tmp/cc7jEFKv.s:83246  .debug_str:00000000000121e9 .LASF2166
     /tmp/cc7jEFKv.s:83380  .debug_str:0000000000012734 .LASF2167
     /tmp/cc7jEFKv.s:78552  .debug_str:00000000000058aa .LASF2168
     /tmp/cc7jEFKv.s:83496  .debug_str:0000000000012c6f .LASF2169
     /tmp/cc7jEFKv.s:82414  .debug_str:000000000000feda .LASF2170
     /tmp/cc7jEFKv.s:83742  .debug_str:000000000001375d .LASF2171
     /tmp/cc7jEFKv.s:81342  .debug_str:000000000000cdd9 .LASF2172
     /tmp/cc7jEFKv.s:81868  .debug_str:000000000000e6a7 .LASF2173
     /tmp/cc7jEFKv.s:79404  .debug_str:0000000000007c7f .LASF2174
     /tmp/cc7jEFKv.s:82744  .debug_str:0000000000010d7b .LASF2175
     /tmp/cc7jEFKv.s:83426  .debug_str:000000000001295e .LASF2176
     /tmp/cc7jEFKv.s:78412  .debug_str:000000000000536e .LASF2177
     /tmp/cc7jEFKv.s:83872  .debug_str:0000000000013cb1 .LASF2178
     /tmp/cc7jEFKv.s:80108  .debug_str:0000000000009c53 .LASF2179
     /tmp/cc7jEFKv.s:79700  .debug_str:0000000000008a86 .LASF2180
     /tmp/cc7jEFKv.s:77600  .debug_str:0000000000002fe0 .LASF2181
     /tmp/cc7jEFKv.s:82444  .debug_str:0000000000010036 .LASF2182
     /tmp/cc7jEFKv.s:81524  .debug_str:000000000000d6c6 .LASF2183
     /tmp/cc7jEFKv.s:82558  .debug_str:00000000000104e4 .LASF2184
     /tmp/cc7jEFKv.s:81264  .debug_str:000000000000ca8e .LASF2185
     /tmp/cc7jEFKv.s:82158  .debug_str:000000000000f340 .LASF2186
     /tmp/cc7jEFKv.s:80398  .debug_str:000000000000a8be .LASF2187
     /tmp/cc7jEFKv.s:82880  .debug_str:00000000000113a9 .LASF2188
     /tmp/cc7jEFKv.s:83834  .debug_str:0000000000013b09 .LASF2189
     /tmp/cc7jEFKv.s:83178  .debug_str:0000000000011fc2 .LASF2190
     /tmp/cc7jEFKv.s:77860  .debug_str:0000000000003b19 .LASF2191
     /tmp/cc7jEFKv.s:76924  .debug_str:0000000000001251 .LASF2192
     /tmp/cc7jEFKv.s:80302  .debug_str:000000000000a485 .LASF2193
     /tmp/cc7jEFKv.s:81526  .debug_str:000000000000d6e2 .LASF2194
     /tmp/cc7jEFKv.s:80638  .debug_str:000000000000b1d7 .LASF2195
     /tmp/cc7jEFKv.s:79864  .debug_str:000000000000920d .LASF2196
     /tmp/cc7jEFKv.s:80052  .debug_str:00000000000099a7 .LASF2197
     /tmp/cc7jEFKv.s:79684  .debug_str:00000000000089e0 .LASF2198
     /tmp/cc7jEFKv.s:82426  .debug_str:000000000000ff63 .LASF2199
     /tmp/cc7jEFKv.s:78528  .debug_str:000000000000576e .LASF2200
     /tmp/cc7jEFKv.s:80484  .debug_str:000000000000abe4 .LASF2201
     /tmp/cc7jEFKv.s:78194  .debug_str:0000000000004a2b .LASF2202
     /tmp/cc7jEFKv.s:81612  .debug_str:000000000000dac6 .LASF2203
     /tmp/cc7jEFKv.s:82842  .debug_str:000000000001119a .LASF2204
     /tmp/cc7jEFKv.s:83344  .debug_str:00000000000125b6 .LASF2205
     /tmp/cc7jEFKv.s:81750  .debug_str:000000000000e14f .LASF2206
     /tmp/cc7jEFKv.s:80310  .debug_str:000000000000a4d9 .LASF2207
     /tmp/cc7jEFKv.s:82978  .debug_str:0000000000011814 .LASF2208
     /tmp/cc7jEFKv.s:83352  .debug_str:0000000000012608 .LASF2209
     /tmp/cc7jEFKv.s:80004  .debug_str:0000000000009801 .LASF2210
     /tmp/cc7jEFKv.s:78250  .debug_str:0000000000004cf9 .LASF2211
     /tmp/cc7jEFKv.s:81890  .debug_str:000000000000e77f .LASF2212
     /tmp/cc7jEFKv.s:76668  .debug_str:00000000000008ae .LASF2213
     /tmp/cc7jEFKv.s:80448  .debug_str:000000000000aa7b .LASF2214
     /tmp/cc7jEFKv.s:81874  .debug_str:000000000000e6d1 .LASF2215
     /tmp/cc7jEFKv.s:80232  .debug_str:000000000000a1b8 .LASF2216
     /tmp/cc7jEFKv.s:82506  .debug_str:0000000000010290 .LASF2217
     /tmp/cc7jEFKv.s:81204  .debug_str:000000000000c7b7 .LASF2218
     /tmp/cc7jEFKv.s:81940  .debug_str:000000000000e99b .LASF2219
     /tmp/cc7jEFKv.s:82626  .debug_str:0000000000010819 .LASF2220
     /tmp/cc7jEFKv.s:81326  .debug_str:000000000000cd54 .LASF2221
     /tmp/cc7jEFKv.s:79164  .debug_str:00000000000071ae .LASF2222
     /tmp/cc7jEFKv.s:76588  .debug_str:0000000000000569 .LASF2223
     /tmp/cc7jEFKv.s:82808  .debug_str:0000000000011045 .LASF2224
     /tmp/cc7jEFKv.s:80808  .debug_str:000000000000b856 .LASF2225
     /tmp/cc7jEFKv.s:83252  .debug_str:0000000000012211 .LASF2226
     /tmp/cc7jEFKv.s:83384  .debug_str:000000000001274f .LASF2227
     /tmp/cc7jEFKv.s:83450  .debug_str:0000000000012a63 .LASF2228
     /tmp/cc7jEFKv.s:82536  .debug_str:0000000000010427 .LASF2229
     /tmp/cc7jEFKv.s:76510  .debug_str:00000000000001f5 .LASF2230
     /tmp/cc7jEFKv.s:83664  .debug_str:00000000000133ef .LASF2231
     /tmp/cc7jEFKv.s:79704  .debug_str:0000000000008ab7 .LASF2232
     /tmp/cc7jEFKv.s:79016  .debug_str:0000000000006b5f .LASF2233
     /tmp/cc7jEFKv.s:80438  .debug_str:000000000000a9fb .LASF2234
     /tmp/cc7jEFKv.s:81688  .debug_str:000000000000ded7 .LASF2235
     /tmp/cc7jEFKv.s:77470  .debug_str:00000000000029bc .LASF2236
     /tmp/cc7jEFKv.s:83536  .debug_str:0000000000012e33 .LASF2237
     /tmp/cc7jEFKv.s:76784  .debug_str:0000000000000d23 .LASF2238
     /tmp/cc7jEFKv.s:77160  .debug_str:0000000000001bfa .LASF2239
     /tmp/cc7jEFKv.s:79956  .debug_str:0000000000009612 .LASF2240
     /tmp/cc7jEFKv.s:83114  .debug_str:0000000000011cfa .LASF2241
     /tmp/cc7jEFKv.s:80416  .debug_str:000000000000a97b .LASF2242
     /tmp/cc7jEFKv.s:82144  .debug_str:000000000000f2af .LASF2243
     /tmp/cc7jEFKv.s:76472  .debug_str:0000000000000000 .LASF2244
     /tmp/cc7jEFKv.s:77526  .debug_str:0000000000002cf3 .LASF2245
     /tmp/cc7jEFKv.s:80178  .debug_str:0000000000009f3c .LASF2246
     /tmp/cc7jEFKv.s:76666  .debug_str:000000000000089b .LASF2247
     /tmp/cc7jEFKv.s:76750  .debug_str:0000000000000bd3 .LASF2248
     /tmp/cc7jEFKv.s:79004  .debug_str:0000000000006ab9 .LASF2249
     /tmp/cc7jEFKv.s:77274  .debug_str:00000000000020a5 .LASF2250
     /tmp/cc7jEFKv.s:84206  .debug_str:0000000000014c0b .LASF2251
     /tmp/cc7jEFKv.s:82182  .debug_str:000000000000f44e .LASF2252
     /tmp/cc7jEFKv.s:77276  .debug_str:00000000000020b8 .LASF2253
     /tmp/cc7jEFKv.s:84210  .debug_str:0000000000014c31 .LASF2254
     /tmp/cc7jEFKv.s:77500  .debug_str:0000000000002b86 .LASF2255
     /tmp/cc7jEFKv.s:76672  .debug_str:00000000000008e0 .LASF2256
     /tmp/cc7jEFKv.s:84212  .debug_str:0000000000014c44 .LASF2257
     /tmp/cc7jEFKv.s:80796  .debug_str:000000000000b792 .LASF2258
     /tmp/cc7jEFKv.s:76674  .debug_str:00000000000008f3 .LASF2259
     /tmp/cc7jEFKv.s:84214  .debug_str:0000000000014c57 .LASF2260
     /tmp/cc7jEFKv.s:81752  .debug_str:000000000000e164 .LASF2261
     /tmp/cc7jEFKv.s:76676  .debug_str:0000000000000906 .LASF2262
     /tmp/cc7jEFKv.s:76760  .debug_str:0000000000000c4f .LASF2263
     /tmp/cc7jEFKv.s:79312  .debug_str:00000000000077de .LASF2264
     /tmp/cc7jEFKv.s:77284  .debug_str:000000000000211e .LASF2265
     /tmp/cc7jEFKv.s:84216  .debug_str:0000000000014c6a .LASF2266
     /tmp/cc7jEFKv.s:82424  .debug_str:000000000000ff3c .LASF2267
     /tmp/cc7jEFKv.s:76680  .debug_str:0000000000000939 .LASF2268
     /tmp/cc7jEFKv.s:76764  .debug_str:0000000000000c77 .LASF2269
     /tmp/cc7jEFKv.s:77772  .debug_str:0000000000003727 .LASF2270
     /tmp/cc7jEFKv.s:82264  .debug_str:000000000000f819 .LASF2271
     /tmp/cc7jEFKv.s:82042  .debug_str:000000000000eeac .LASF2272
     /tmp/cc7jEFKv.s:83416  .debug_str:00000000000128c1 .LASF2273
     /tmp/cc7jEFKv.s:82266  .debug_str:000000000000f82c .LASF2274
     /tmp/cc7jEFKv.s:77908  .debug_str:0000000000003d16 .LASF2275
     /tmp/cc7jEFKv.s:78840  .debug_str:0000000000006368 .LASF2276
     /tmp/cc7jEFKv.s:78380  .debug_str:0000000000005298 .LASF2277
     /tmp/cc7jEFKv.s:77910  .debug_str:0000000000003d29 .LASF2278
     /tmp/cc7jEFKv.s:82028  .debug_str:000000000000edf8 .LASF2279
     /tmp/cc7jEFKv.s:78382  .debug_str:00000000000052ab .LASF2280
     /tmp/cc7jEFKv.s:77912  .debug_str:0000000000003d3c .LASF2281
     /tmp/cc7jEFKv.s:77344  .debug_str:00000000000023bd .LASF2282
     /tmp/cc7jEFKv.s:78384  .debug_str:00000000000052be .LASF2283
     /tmp/cc7jEFKv.s:77914  .debug_str:0000000000003d4f .LASF2284
     /tmp/cc7jEFKv.s:84170  .debug_str:0000000000014a1c .LASF2285
     /tmp/cc7jEFKv.s:78386  .debug_str:00000000000052d1 .LASF2286
     /tmp/cc7jEFKv.s:77916  .debug_str:0000000000003d62 .LASF2287
     /tmp/cc7jEFKv.s:83688  .debug_str:000000000001353f .LASF2288
     /tmp/cc7jEFKv.s:78388  .debug_str:00000000000052e4 .LASF2289
     /tmp/cc7jEFKv.s:77918  .debug_str:0000000000003d75 .LASF2290
     /tmp/cc7jEFKv.s:79134  .debug_str:0000000000007064 .LASF2291
     /tmp/cc7jEFKv.s:82274  .debug_str:000000000000f896 .LASF2292
     /tmp/cc7jEFKv.s:77920  .debug_str:0000000000003d88 .LASF2293
     /tmp/cc7jEFKv.s:83848  .debug_str:0000000000013bb3 .LASF2294
     /tmp/cc7jEFKv.s:78706  .debug_str:0000000000005e0c .LASF2295
     /tmp/cc7jEFKv.s:77234  .debug_str:0000000000001f1d .LASF2296
     /tmp/cc7jEFKv.s:82512  .debug_str:00000000000102de .LASF2297
     /tmp/cc7jEFKv.s:82440  .debug_str:0000000000010013 .LASF2298
     /tmp/cc7jEFKv.s:78286  .debug_str:0000000000004e7d .LASF2299
     /tmp/cc7jEFKv.s:79224  .debug_str:00000000000074a4 .LASF2300
     /tmp/cc7jEFKv.s:81330  .debug_str:000000000000cd73 .LASF2301
     /tmp/cc7jEFKv.s:82492  .debug_str:00000000000101e5 .LASF2302
     /tmp/cc7jEFKv.s:79138  .debug_str:0000000000007095 .LASF2303
     /tmp/cc7jEFKv.s:77822  .debug_str:00000000000039b7 .LASF2304
     /tmp/cc7jEFKv.s:79228  .debug_str:00000000000074f4 .LASF2305
     /tmp/cc7jEFKv.s:78126  .debug_str:0000000000004769 .LASF2306
     /tmp/cc7jEFKv.s:79588  .debug_str:00000000000085d6 .LASF2307
     /tmp/cc7jEFKv.s:80864  .debug_str:000000000000ba15 .LASF2308
     /tmp/cc7jEFKv.s:78682  .debug_str:0000000000005d38 .LASF2309
     /tmp/cc7jEFKv.s:81500  .debug_str:000000000000d565 .LASF2310
     /tmp/cc7jEFKv.s:80404  .debug_str:000000000000a90a .LASF2311
     /tmp/cc7jEFKv.s:82970  .debug_str:00000000000117c1 .LASF2312
     /tmp/cc7jEFKv.s:80450  .debug_str:000000000000aa83 .LASF2313
     /tmp/cc7jEFKv.s:78600  .debug_str:0000000000005a4d .LASF2314
     /tmp/cc7jEFKv.s:77814  .debug_str:0000000000003968 .LASF2315
     /tmp/cc7jEFKv.s:81368  .debug_str:000000000000cf14 .LASF2316
     /tmp/cc7jEFKv.s:78842  .debug_str:000000000000638f .LASF2317
     /tmp/cc7jEFKv.s:77780  .debug_str:0000000000003791 .LASF2318
     /tmp/cc7jEFKv.s:78440  .debug_str:00000000000054c8 .LASF2319
     /tmp/cc7jEFKv.s:77260  .debug_str:0000000000002034 .LASF2320
     /tmp/cc7jEFKv.s:79634  .debug_str:00000000000087c8 .LASF2321
     /tmp/cc7jEFKv.s:83874  .debug_str:0000000000013cb8 .LASF2322
     /tmp/cc7jEFKv.s:82498  .debug_str:000000000001022b .LASF2323
     /tmp/cc7jEFKv.s:78452  .debug_str:0000000000005514 .LASF2324
     /tmp/cc7jEFKv.s:77988  .debug_str:000000000000409b .LASF2325
     /tmp/cc7jEFKv.s:76864  .debug_str:0000000000001035 .LASF2326
     /tmp/cc7jEFKv.s:82764  .debug_str:0000000000010e1c .LASF2327
     /tmp/cc7jEFKv.s:77418  .debug_str:0000000000002768 .LASF2328
     /tmp/cc7jEFKv.s:82110  .debug_str:000000000000f169 .LASF2329
     /tmp/cc7jEFKv.s:82534  .debug_str:000000000001040b .LASF2330
     /tmp/cc7jEFKv.s:80208  .debug_str:000000000000a104 .LASF2331
     /tmp/cc7jEFKv.s:78954  .debug_str:0000000000006863 .LASF2332
     /tmp/cc7jEFKv.s:80160  .debug_str:0000000000009e7c .LASF2333
     /tmp/cc7jEFKv.s:81756  .debug_str:000000000000e1a3 .LASF2334
     /tmp/cc7jEFKv.s:81872  .debug_str:000000000000e6c9 .LASF2335
     /tmp/cc7jEFKv.s:83396  .debug_str:00000000000127e6 .LASF2336
     /tmp/cc7jEFKv.s:79548  .debug_str:0000000000008391 .LASF2337
     /tmp/cc7jEFKv.s:78224  .debug_str:0000000000004b93 .LASF2338
     /tmp/cc7jEFKv.s:79190  .debug_str:00000000000072f8 .LASF2339
     /tmp/cc7jEFKv.s:78304  .debug_str:0000000000004fa5 .LASF2340
     /tmp/cc7jEFKv.s:79606  .debug_str:000000000000867f .LASF2341
     /tmp/cc7jEFKv.s:80164  .debug_str:0000000000009ea5 .LASF2342
     /tmp/cc7jEFKv.s:79326  .debug_str:00000000000078be .LASF2343
     /tmp/cc7jEFKv.s:77810  .debug_str:000000000000393c .LASF2344
     /tmp/cc7jEFKv.s:82584  .debug_str:0000000000010617 .LASF2345
     /tmp/cc7jEFKv.s:83346  .debug_str:00000000000125cb .LASF2346
     /tmp/cc7jEFKv.s:84172  .debug_str:0000000000014a43 .LASF2347
     /tmp/cc7jEFKv.s:83680  .debug_str:00000000000134e5 .LASF2348
     /tmp/cc7jEFKv.s:78910  .debug_str:0000000000006638 .LASF2349
     /tmp/cc7jEFKv.s:82396  .debug_str:000000000000fe36 .LASF2350
     /tmp/cc7jEFKv.s:82420  .debug_str:000000000000ff05 .LASF2351
     /tmp/cc7jEFKv.s:79652  .debug_str:000000000000888a .LASF2352
     /tmp/cc7jEFKv.s:79774  .debug_str:0000000000008dc9 .LASF2353
     /tmp/cc7jEFKv.s:81484  .debug_str:000000000000d4bc .LASF2354
     /tmp/cc7jEFKv.s:81654  .debug_str:000000000000dd18 .LASF2355
     /tmp/cc7jEFKv.s:82572  .debug_str:000000000001058d .LASF2356
     /tmp/cc7jEFKv.s:79318  .debug_str:0000000000007846 .LASF2357
     /tmp/cc7jEFKv.s:77958  .debug_str:0000000000003f19 .LASF2358
     /tmp/cc7jEFKv.s:81946  .debug_str:000000000000e9d7 .LASF2359
     /tmp/cc7jEFKv.s:80264  .debug_str:000000000000a2d4 .LASF2360
     /tmp/cc7jEFKv.s:82206  .debug_str:000000000000f55c .LASF2361
     /tmp/cc7jEFKv.s:82968  .debug_str:00000000000117b2 .LASF2362
     /tmp/cc7jEFKv.s:82872  .debug_str:000000000001131a .LASF2363
     /tmp/cc7jEFKv.s:82176  .debug_str:000000000000f408 .LASF2364
     /tmp/cc7jEFKv.s:76868  .debug_str:000000000000104d .LASF2365
     /tmp/cc7jEFKv.s:81632  .debug_str:000000000000dbe4 .LASF2366
     /tmp/cc7jEFKv.s:79218  .debug_str:000000000000745f .LASF2367
     /tmp/cc7jEFKv.s:76520  .debug_str:0000000000000257 .LASF2368
     /tmp/cc7jEFKv.s:77454  .debug_str:00000000000028e4 .LASF2369
     /tmp/cc7jEFKv.s:77834  .debug_str:0000000000003a47 .LASF2370
     /tmp/cc7jEFKv.s:82302  .debug_str:000000000000f9da .LASF2371
     /tmp/cc7jEFKv.s:77524  .debug_str:0000000000002ccb .LASF2372
     /tmp/cc7jEFKv.s:81582  .debug_str:000000000000d968 .LASF2373
     /tmp/cc7jEFKv.s:84136  .debug_str:0000000000014875 .LASF2374
     /tmp/cc7jEFKv.s:79168  .debug_str:00000000000071d3 .LASF2375
     /tmp/cc7jEFKv.s:78158  .debug_str:00000000000048c2 .LASF2376
     /tmp/cc7jEFKv.s:83640  .debug_str:00000000000132b3 .LASF2377
     /tmp/cc7jEFKv.s:79240  .debug_str:0000000000007565 .LASF2378
     /tmp/cc7jEFKv.s:79008  .debug_str:0000000000006b05 .LASF2379
     /tmp/cc7jEFKv.s:79728  .debug_str:0000000000008bb7 .LASF2380
     /tmp/cc7jEFKv.s:76818  .debug_str:0000000000000e1f .LASF2381
     /tmp/cc7jEFKv.s:79778  .debug_str:0000000000008ddb .LASF2382
     /tmp/cc7jEFKv.s:78222  .debug_str:0000000000004b78 .LASF2383
     /tmp/cc7jEFKv.s:77330  .debug_str:000000000000231a .LASF2384
     /tmp/cc7jEFKv.s:77096  .debug_str:0000000000001915 .LASF2385
     /tmp/cc7jEFKv.s:80458  .debug_str:000000000000aaca .LASF2386
     /tmp/cc7jEFKv.s:78298  .debug_str:0000000000004f45 .LASF2387
     /tmp/cc7jEFKv.s:82314  .debug_str:000000000000fa3e .LASF2388
     /tmp/cc7jEFKv.s:82338  .debug_str:000000000000fbaf .LASF2389
     /tmp/cc7jEFKv.s:77212  .debug_str:0000000000001e26 .LASF2390
     /tmp/cc7jEFKv.s:79888  .debug_str:000000000000932f .LASF2391
     /tmp/cc7jEFKv.s:80608  .debug_str:000000000000b093 .LASF2392
     /tmp/cc7jEFKv.s:83620  .debug_str:0000000000013197 .LASF2393
     /tmp/cc7jEFKv.s:82570  .debug_str:000000000001057f .LASF2394
     /tmp/cc7jEFKv.s:80332  .debug_str:000000000000a5f3 .LASF2395
     /tmp/cc7jEFKv.s:80154  .debug_str:0000000000009e30 .LASF2396
     /tmp/cc7jEFKv.s:77698  .debug_str:000000000000341a .LASF2397
     /tmp/cc7jEFKv.s:80396  .debug_str:000000000000a8b1 .LASF2398
     /tmp/cc7jEFKv.s:79248  .debug_str:00000000000075c7 .LASF2399
     /tmp/cc7jEFKv.s:81294  .debug_str:000000000000cbc8 .LASF2400
     /tmp/cc7jEFKv.s:77168  .debug_str:0000000000001c58 .LASF2401
     /tmp/cc7jEFKv.s:77356  .debug_str:0000000000002458 .LASF2402
     /tmp/cc7jEFKv.s:78634  .debug_str:0000000000005bc1 .LASF2403
     /tmp/cc7jEFKv.s:76824  .debug_str:0000000000000e8f .LASF2404
     /tmp/cc7jEFKv.s:79846  .debug_str:0000000000009123 .LASF2405
     /tmp/cc7jEFKv.s:79904  .debug_str:00000000000093c1 .LASF2406
     /tmp/cc7jEFKv.s:81162  .debug_str:000000000000c59e .LASF2407
     /tmp/cc7jEFKv.s:79440  .debug_str:0000000000007e0c .LASF2408
     /tmp/cc7jEFKv.s:83530  .debug_str:0000000000012ded .LASF2409
     /tmp/cc7jEFKv.s:78282  .debug_str:0000000000004e50 .LASF2410
     /tmp/cc7jEFKv.s:81416  .debug_str:000000000000d183 .LASF2411
     /tmp/cc7jEFKv.s:83222  .debug_str:00000000000120f2 .LASF2412
     /tmp/cc7jEFKv.s:82942  .debug_str:00000000000116a5 .LASF2413
     /tmp/cc7jEFKv.s:83438  .debug_str:00000000000129b5 .LASF2414
     /tmp/cc7jEFKv.s:82140  .debug_str:000000000000f280 .LASF2415
     /tmp/cc7jEFKv.s:77766  .debug_str:00000000000036f1 .LASF2416
     /tmp/cc7jEFKv.s:77642  .debug_str:00000000000031a0 .LASF2417
     /tmp/cc7jEFKv.s:82910  .debug_str:000000000001152a .LASF2418
     /tmp/cc7jEFKv.s:77924  .debug_str:0000000000003da6 .LASF2419
     /tmp/cc7jEFKv.s:79470  .debug_str:0000000000007f75 .LASF2420
     /tmp/cc7jEFKv.s:79644  .debug_str:0000000000008843 .LASF2421
     /tmp/cc7jEFKv.s:83508  .debug_str:0000000000012cd2 .LASF2422
     /tmp/cc7jEFKv.s:80998  .debug_str:000000000000be95 .LASF2423
     /tmp/cc7jEFKv.s:78916  .debug_str:000000000000667c .LASF2424
     /tmp/cc7jEFKv.s:77444  .debug_str:000000000000287a .LASF2425
     /tmp/cc7jEFKv.s:84032  .debug_str:000000000001444d .LASF2426
     /tmp/cc7jEFKv.s:77346  .debug_str:00000000000023e4 .LASF2427
     /tmp/cc7jEFKv.s:81914  .debug_str:000000000000e884 .LASF2428
     /tmp/cc7jEFKv.s:82670  .debug_str:0000000000010a63 .LASF2429
     /tmp/cc7jEFKv.s:77256  .debug_str:0000000000002014 .LASF2430
     /tmp/cc7jEFKv.s:81846  .debug_str:000000000000e58b .LASF2431
     /tmp/cc7jEFKv.s:78272  .debug_str:0000000000004e05 .LASF2432
     /tmp/cc7jEFKv.s:83794  .debug_str:000000000001397d .LASF2433
     /tmp/cc7jEFKv.s:82408  .debug_str:000000000000feac .LASF2434
     /tmp/cc7jEFKv.s:80370  .debug_str:000000000000a75a .LASF2435
     /tmp/cc7jEFKv.s:83498  .debug_str:0000000000012c76 .LASF2436
     /tmp/cc7jEFKv.s:82134  .debug_str:000000000000f251 .LASF2437
     /tmp/cc7jEFKv.s:80368  .debug_str:000000000000a73f .LASF2438
     /tmp/cc7jEFKv.s:82686  .debug_str:0000000000010b23 .LASF2439
     /tmp/cc7jEFKv.s:77536  .debug_str:0000000000002d49 .LASF2440
     /tmp/cc7jEFKv.s:76932  .debug_str:00000000000012c4 .LASF2441
     /tmp/cc7jEFKv.s:76978  .debug_str:000000000000147f .LASF2442
     /tmp/cc7jEFKv.s:81088  .debug_str:000000000000c28e .LASF2443
     /tmp/cc7jEFKv.s:79324  .debug_str:0000000000007898 .LASF2444
     /tmp/cc7jEFKv.s:78616  .debug_str:0000000000005b18 .LASF2445
     /tmp/cc7jEFKv.s:76926  .debug_str:0000000000001278 .LASF2446
     /tmp/cc7jEFKv.s:78758  .debug_str:0000000000005fdc .LASF2447
     /tmp/cc7jEFKv.s:77948  .debug_str:0000000000003ea6 .LASF2448
     /tmp/cc7jEFKv.s:82876  .debug_str:000000000001135e .LASF2449
     /tmp/cc7jEFKv.s:78374  .debug_str:0000000000005218 .LASF2450
     /tmp/cc7jEFKv.s:78762  .debug_str:0000000000006016 .LASF2451
     /tmp/cc7jEFKv.s:78556  .debug_str:00000000000058e2 .LASF2452
     /tmp/cc7jEFKv.s:82946  .debug_str:00000000000116e3 .LASF2453
     /tmp/cc7jEFKv.s:83456  .debug_str:0000000000012aad .LASF2454
     /tmp/cc7jEFKv.s:81980  .debug_str:000000000000eb91 .LASF2455
     /tmp/cc7jEFKv.s:78024  .debug_str:0000000000004257 .LASF2456
     /tmp/cc7jEFKv.s:82068  .debug_str:000000000000efcc .LASF2457
     /tmp/cc7jEFKv.s:79912  .debug_str:000000000000942e .LASF2458
     /tmp/cc7jEFKv.s:82870  .debug_str:00000000000112f5 .LASF2459
     /tmp/cc7jEFKv.s:76610  .debug_str:000000000000062c .LASF2460
     /tmp/cc7jEFKv.s:81502  .debug_str:000000000000d56f .LASF2461
     /tmp/cc7jEFKv.s:80380  .debug_str:000000000000a7c1 .LASF2462
     /tmp/cc7jEFKv.s:77460  .debug_str:0000000000002949 .LASF2463
     /tmp/cc7jEFKv.s:79876  .debug_str:0000000000009296 .LASF2464
     /tmp/cc7jEFKv.s:76484  .debug_str:000000000000008c .LASF2465
     /tmp/cc7jEFKv.s:80842  .debug_str:000000000000b943 .LASF2466
     /tmp/cc7jEFKv.s:81686  .debug_str:000000000000decb .LASF2467
     /tmp/cc7jEFKv.s:79406  .debug_str:0000000000007c9b .LASF2468
     /tmp/cc7jEFKv.s:84042  .debug_str:00000000000144dc .LASF2469
     /tmp/cc7jEFKv.s:82712  .debug_str:0000000000010c16 .LASF2470
     /tmp/cc7jEFKv.s:83524  .debug_str:0000000000012da1 .LASF2471
     /tmp/cc7jEFKv.s:81366  .debug_str:000000000000cf00 .LASF2472
     /tmp/cc7jEFKv.s:81850  .debug_str:000000000000e5ba .LASF2473
     /tmp/cc7jEFKv.s:76504  .debug_str:0000000000000191 .LASF2474
     /tmp/cc7jEFKv.s:83732  .debug_str:0000000000013715 .LASF2475
     /tmp/cc7jEFKv.s:80048  .debug_str:000000000000998f .LASF2476
     /tmp/cc7jEFKv.s:82152  .debug_str:000000000000f2fd .LASF2477
     /tmp/cc7jEFKv.s:83528  .debug_str:0000000000012dd6 .LASF2478
     /tmp/cc7jEFKv.s:77382  .debug_str:00000000000025b7 .LASF2479
     /tmp/cc7jEFKv.s:78182  .debug_str:00000000000049a1 .LASF2480
     /tmp/cc7jEFKv.s:77368  .debug_str:00000000000024fc .LASF2481
     /tmp/cc7jEFKv.s:79266  .debug_str:0000000000007685 .LASF2482
     /tmp/cc7jEFKv.s:78996  .debug_str:0000000000006a44 .LASF2483
     /tmp/cc7jEFKv.s:83696  .debug_str:000000000001359b .LASF2484
     /tmp/cc7jEFKv.s:83656  .debug_str:0000000000013366 .LASF2485
     /tmp/cc7jEFKv.s:78372  .debug_str:00000000000051ed .LASF2486
     /tmp/cc7jEFKv.s:80676  .debug_str:000000000000b323 .LASF2487
     /tmp/cc7jEFKv.s:80806  .debug_str:000000000000b841 .LASF2488
     /tmp/cc7jEFKv.s:79850  .debug_str:000000000000914d .LASF2489
     /tmp/cc7jEFKv.s:81906  .debug_str:000000000000e82d .LASF2490
     /tmp/cc7jEFKv.s:79230  .debug_str:0000000000007508 .LASF2491
     /tmp/cc7jEFKv.s:79006  .debug_str:0000000000006ae0 .LASF2492
     /tmp/cc7jEFKv.s:83084  .debug_str:0000000000011b9b .LASF2493
     /tmp/cc7jEFKv.s:77128  .debug_str:0000000000001a64 .LASF2494
     /tmp/cc7jEFKv.s:76834  .debug_str:0000000000000f19 .LASF2495
     /tmp/cc7jEFKv.s:77186  .debug_str:0000000000001d44 .LASF2496
     /tmp/cc7jEFKv.s:79052  .debug_str:0000000000006cd4 .LASF2497
     /tmp/cc7jEFKv.s:83810  .debug_str:0000000000013a06 .LASF2498
     /tmp/cc7jEFKv.s:76858  .debug_str:0000000000000fdd .LASF2499
     /tmp/cc7jEFKv.s:82172  .debug_str:000000000000f3ec .LASF2500
     /tmp/cc7jEFKv.s:81640  .debug_str:000000000000dc67 .LASF2501
     /tmp/cc7jEFKv.s:83610  .debug_str:0000000000013130 .LASF2502
     /tmp/cc7jEFKv.s:79124  .debug_str:0000000000006fd7 .LASF2503
     /tmp/cc7jEFKv.s:78952  .debug_str:000000000000683a .LASF2504
     /tmp/cc7jEFKv.s:81758  .debug_str:000000000000e1ab .LASF2505
     /tmp/cc7jEFKv.s:79504  .debug_str:000000000000817a .LASF2506
     /tmp/cc7jEFKv.s:81832  .debug_str:000000000000e4e2 .LASF2507
     /tmp/cc7jEFKv.s:84224  .debug_str:0000000000014ca5 .LASF2508
     /tmp/cc7jEFKv.s:80560  .debug_str:000000000000aef1 .LASF2509
     /tmp/cc7jEFKv.s:76490  .debug_str:00000000000000d9 .LASF2510
     /tmp/cc7jEFKv.s:80550  .debug_str:000000000000aeb2 .LASF2511
     /tmp/cc7jEFKv.s:82224  .debug_str:000000000000f624 .LASF2512
     /tmp/cc7jEFKv.s:77308  .debug_str:00000000000021f1 .LASF2513
     /tmp/cc7jEFKv.s:81710  .debug_str:000000000000df85 .LASF2514
     /tmp/cc7jEFKv.s:82216  .debug_str:000000000000f59c .LASF2515
     /tmp/cc7jEFKv.s:82378  .debug_str:000000000000fd76 .LASF2516
     /tmp/cc7jEFKv.s:81820  .debug_str:000000000000e44f .LASF2517
     /tmp/cc7jEFKv.s:77334  .debug_str:0000000000002352 .LASF2518
     /tmp/cc7jEFKv.s:81658  .debug_str:000000000000dd36 .LASF2519
     /tmp/cc7jEFKv.s:81544  .debug_str:000000000000d784 .LASF2520
     /tmp/cc7jEFKv.s:76664  .debug_str:000000000000088f .LASF2521
     /tmp/cc7jEFKv.s:78288  .debug_str:0000000000004e90 .LASF2522
     /tmp/cc7jEFKv.s:77456  .debug_str:0000000000002908 .LASF2523
     /tmp/cc7jEFKv.s:78502  .debug_str:00000000000056a7 .LASF2524
     /tmp/cc7jEFKv.s:78780  .debug_str:00000000000060fd .LASF2525
     /tmp/cc7jEFKv.s:81072  .debug_str:000000000000c1f4 .LASF2526
     /tmp/cc7jEFKv.s:79564  .debug_str:000000000000843e .LASF2527
     /tmp/cc7jEFKv.s:80932  .debug_str:000000000000bc42 .LASF2528
     /tmp/cc7jEFKv.s:81622  .debug_str:000000000000db49 .LASF2529
     /tmp/cc7jEFKv.s:81080  .debug_str:000000000000c257 .LASF2530
     /tmp/cc7jEFKv.s:77476  .debug_str:00000000000029fa .LASF2531
     /tmp/cc7jEFKv.s:77420  .debug_str:0000000000002770 .LASF2532
     /tmp/cc7jEFKv.s:83700  .debug_str:00000000000135ee .LASF2533
     /tmp/cc7jEFKv.s:77400  .debug_str:000000000000268b .LASF2534
     /tmp/cc7jEFKv.s:76970  .debug_str:0000000000001417 .LASF2535
     /tmp/cc7jEFKv.s:82166  .debug_str:000000000000f3ac .LASF2536
     /tmp/cc7jEFKv.s:83902  .debug_str:0000000000013de2 .LASF2537
     /tmp/cc7jEFKv.s:81596  .debug_str:000000000000da02 .LASF2538
     /tmp/cc7jEFKv.s:80056  .debug_str:00000000000099d5 .LASF2539
     /tmp/cc7jEFKv.s:80752  .debug_str:000000000000b5f3 .LASF2540
     /tmp/cc7jEFKv.s:83466  .debug_str:0000000000012b34 .LASF2541
     /tmp/cc7jEFKv.s:78122  .debug_str:000000000000474a .LASF2542
     /tmp/cc7jEFKv.s:78252  .debug_str:0000000000004d0b .LASF2543
     /tmp/cc7jEFKv.s:81472  .debug_str:000000000000d422 .LASF2544
     /tmp/cc7jEFKv.s:84176  .debug_str:0000000000014a72 .LASF2545
     /tmp/cc7jEFKv.s:81948  .debug_str:000000000000e9e7 .LASF2546
     /tmp/cc7jEFKv.s:77594  .debug_str:0000000000002f96 .LASF2547
     /tmp/cc7jEFKv.s:79398  .debug_str:0000000000007c2b .LASF2548
     /tmp/cc7jEFKv.s:78744  .debug_str:0000000000005f1e .LASF2549
     /tmp/cc7jEFKv.s:79702  .debug_str:0000000000008aa1 .LASF2550
     /tmp/cc7jEFKv.s:77132  .debug_str:0000000000001a9c .LASF2551
     /tmp/cc7jEFKv.s:79062  .debug_str:0000000000006d17 .LASF2552
     /tmp/cc7jEFKv.s:80042  .debug_str:000000000000994d .LASF2553
     /tmp/cc7jEFKv.s:82890  .debug_str:0000000000011435 .LASF2554
     /tmp/cc7jEFKv.s:81588  .debug_str:000000000000d98c .LASF2555
     /tmp/cc7jEFKv.s:79584  .debug_str:00000000000085b4 .LASF2556
     /tmp/cc7jEFKv.s:79036  .debug_str:0000000000006c2c .LASF2557
     /tmp/cc7jEFKv.s:80202  .debug_str:000000000000a0a2 .LASF2558
     /tmp/cc7jEFKv.s:79940  .debug_str:000000000000953c .LASF2559
     /tmp/cc7jEFKv.s:78008  .debug_str:000000000000418d .LASF2560
     /tmp/cc7jEFKv.s:84190  .debug_str:0000000000014b0e .LASF2561
     /tmp/cc7jEFKv.s:82860  .debug_str:000000000001126b .LASF2562
     /tmp/cc7jEFKv.s:83576  .debug_str:0000000000012fbd .LASF2563
     /tmp/cc7jEFKv.s:80192  .debug_str:0000000000009fe3 .LASF2564
     /tmp/cc7jEFKv.s:83720  .debug_str:00000000000136b4 .LASF2565
     /tmp/cc7jEFKv.s:82668  .debug_str:0000000000010a44 .LASF2566
     /tmp/cc7jEFKv.s:81730  .debug_str:000000000000e02c .LASF2567
     /tmp/cc7jEFKv.s:78614  .debug_str:0000000000005b01 .LASF2568
     /tmp/cc7jEFKv.s:79532  .debug_str:00000000000082dd .LASF2569
     /tmp/cc7jEFKv.s:77544  .debug_str:0000000000002d7b .LASF2570
     /tmp/cc7jEFKv.s:79090  .debug_str:0000000000006e47 .LASF2571
     /tmp/cc7jEFKv.s:81380  .debug_str:000000000000cf9d .LASF2572
     /tmp/cc7jEFKv.s:81952  .debug_str:000000000000ea12 .LASF2573
     /tmp/cc7jEFKv.s:83356  .debug_str:0000000000012635 .LASF2574
     /tmp/cc7jEFKv.s:80884  .debug_str:000000000000bafa .LASF2575
     /tmp/cc7jEFKv.s:83978  .debug_str:00000000000141a3 .LASF2576
     /tmp/cc7jEFKv.s:77464  .debug_str:0000000000002981 .LASF2577
     /tmp/cc7jEFKv.s:79894  .debug_str:0000000000009359 .LASF2578
     /tmp/cc7jEFKv.s:76570  .debug_str:000000000000048f .LASF2579
     /tmp/cc7jEFKv.s:83408  .debug_str:0000000000012885 .LASF2580
     /tmp/cc7jEFKv.s:76770  .debug_str:0000000000000cb2 .LASF2581
     /tmp/cc7jEFKv.s:81876  .debug_str:000000000000e6d9 .LASF2582
     /tmp/cc7jEFKv.s:84154  .debug_str:0000000000014940 .LASF2583
     /tmp/cc7jEFKv.s:80928  .debug_str:000000000000bc24 .LASF2584
     /tmp/cc7jEFKv.s:78044  .debug_str:000000000000431d .LASF2585
     /tmp/cc7jEFKv.s:80246  .debug_str:000000000000a230 .LASF2586
     /tmp/cc7jEFKv.s:83796  .debug_str:0000000000013984 .LASF2587
     /tmp/cc7jEFKv.s:82330  .debug_str:000000000000fb27 .LASF2588
     /tmp/cc7jEFKv.s:76780  .debug_str:0000000000000d08 .LASF2589
     /tmp/cc7jEFKv.s:78354  .debug_str:000000000000512b .LASF2590
     /tmp/cc7jEFKv.s:77968  .debug_str:0000000000003f8b .LASF2591
     /tmp/cc7jEFKv.s:77176  .debug_str:0000000000001ccb .LASF2592
     /tmp/cc7jEFKv.s:78090  .debug_str:0000000000004575 .LASF2593
     /tmp/cc7jEFKv.s:84096  .debug_str:0000000000014711 .LASF2594
     /tmp/cc7jEFKv.s:76816  .debug_str:0000000000000e0d .LASF2595
     /tmp/cc7jEFKv.s:76916  .debug_str:00000000000011f1 .LASF2596
     /tmp/cc7jEFKv.s:80762  .debug_str:000000000000b66b .LASF2597
     /tmp/cc7jEFKv.s:80994  .debug_str:000000000000be68 .LASF2598
     /tmp/cc7jEFKv.s:79882  .debug_str:00000000000092d4 .LASF2599
     /tmp/cc7jEFKv.s:83360  .debug_str:000000000001266d .LASF2600
     /tmp/cc7jEFKv.s:81352  .debug_str:000000000000ce40 .LASF2601
     /tmp/cc7jEFKv.s:79964  .debug_str:000000000000969a .LASF2602
     /tmp/cc7jEFKv.s:77390  .debug_str:0000000000002629 .LASF2603
     /tmp/cc7jEFKv.s:77634  .debug_str:0000000000003150 .LASF2604
     /tmp/cc7jEFKv.s:79166  .debug_str:00000000000071c9 .LASF2605
     /tmp/cc7jEFKv.s:78174  .debug_str:000000000000494e .LASF2606
     /tmp/cc7jEFKv.s:77650  .debug_str:000000000000321b .LASF2607
     /tmp/cc7jEFKv.s:79174  .debug_str:0000000000007225 .LASF2608
     /tmp/cc7jEFKv.s:78968  .debug_str:00000000000068e3 .LASF2609
     /tmp/cc7jEFKv.s:79694  .debug_str:0000000000008a5d .LASF2610
     /tmp/cc7jEFKv.s:83082  .debug_str:0000000000011b8e .LASF2611
     /tmp/cc7jEFKv.s:78240  .debug_str:0000000000004c6f .LASF2612
     /tmp/cc7jEFKv.s:81902  .debug_str:000000000000e807 .LASF2613
     /tmp/cc7jEFKv.s:84024  .debug_str:00000000000143fa .LASF2614
     /tmp/cc7jEFKv.s:79226  .debug_str:00000000000074cb .LASF2615
     /tmp/cc7jEFKv.s:83092  .debug_str:0000000000011bef .LASF2616
     /tmp/cc7jEFKv.s:78896  .debug_str:0000000000006586 .LASF2617
     /tmp/cc7jEFKv.s:77808  .debug_str:000000000000390e .LASF2618
     /tmp/cc7jEFKv.s:77414  .debug_str:0000000000002730 .LASF2619
     /tmp/cc7jEFKv.s:83304  .debug_str:000000000001243d .LASF2620
     /tmp/cc7jEFKv.s:80670  .debug_str:000000000000b2bc .LASF2621
     /tmp/cc7jEFKv.s:79422  .debug_str:0000000000007d39 .LASF2622
     /tmp/cc7jEFKv.s:81228  .debug_str:000000000000c88e .LASF2623
     /tmp/cc7jEFKv.s:76742  .debug_str:0000000000000b74 .LASF2624
     /tmp/cc7jEFKv.s:82564  .debug_str:000000000001052f .LASF2625
     /tmp/cc7jEFKv.s:82806  .debug_str:0000000000011028 .LASF2626
     /tmp/cc7jEFKv.s:83672  .debug_str:000000000001346d .LASF2627
     /tmp/cc7jEFKv.s:83534  .debug_str:0000000000012e20 .LASF2628
     /tmp/cc7jEFKv.s:84018  .debug_str:00000000000143ac .LASF2629
     /tmp/cc7jEFKv.s:83160  .debug_str:0000000000011e6b .LASF2630
     /tmp/cc7jEFKv.s:79022  .debug_str:0000000000006b92 .LASF2631
     /tmp/cc7jEFKv.s:76532  .debug_str:000000000000030b .LASF2632
     /tmp/cc7jEFKv.s:79820  .debug_str:0000000000008fe0 .LASF2633
     /tmp/cc7jEFKv.s:79482  .debug_str:0000000000008061 .LASF2634
     /tmp/cc7jEFKv.s:77604  .debug_str:000000000000300e .LASF2635
     /tmp/cc7jEFKv.s:79734  .debug_str:0000000000008c03 .LASF2636
     /tmp/cc7jEFKv.s:81190  .debug_str:000000000000c6ff .LASF2637
     /tmp/cc7jEFKv.s:83964  .debug_str:0000000000014118 .LASF2638
     /tmp/cc7jEFKv.s:77562  .debug_str:0000000000002e48 .LASF2639
     /tmp/cc7jEFKv.s:83364  .debug_str:00000000000126b9 .LASF2640
     /tmp/cc7jEFKv.s:82654  .debug_str:00000000000109aa .LASF2641
     /tmp/cc7jEFKv.s:78834  .debug_str:0000000000006302 .LASF2642
     /tmp/cc7jEFKv.s:78836  .debug_str:0000000000006323 .LASF2643
     /tmp/cc7jEFKv.s:76990  .debug_str:0000000000001521 .LASF2644
     /tmp/cc7jEFKv.s:82828  .debug_str:00000000000110f6 .LASF2645
     /tmp/cc7jEFKv.s:77208  .debug_str:0000000000001e0e .LASF2646
     /tmp/cc7jEFKv.s:82934  .debug_str:0000000000011658 .LASF2647
     /tmp/cc7jEFKv.s:83946  .debug_str:000000000001401b .LASF2648
     /tmp/cc7jEFKv.s:84088  .debug_str:00000000000146b3 .LASF2649
     /tmp/cc7jEFKv.s:79334  .debug_str:00000000000078f8 .LASF2650
     /tmp/cc7jEFKv.s:83376  .debug_str:00000000000126fd .LASF2651
     /tmp/cc7jEFKv.s:83386  .debug_str:0000000000012757 .LASF2652
     /tmp/cc7jEFKv.s:83262  .debug_str:000000000001224d .LASF2653
     /tmp/cc7jEFKv.s:84174  .debug_str:0000000000014a4e .LASF2654
     /tmp/cc7jEFKv.s:78676  .debug_str:0000000000005d0e .LASF2655
     /tmp/cc7jEFKv.s:78678  .debug_str:0000000000005d1e .LASF2656
     /tmp/cc7jEFKv.s:81964  .debug_str:000000000000eaa5 .LASF2657
     /tmp/cc7jEFKv.s:76894  .debug_str:00000000000010e3 .LASF2658
     /tmp/cc7jEFKv.s:79448  .debug_str:0000000000007e81 .LASF2659
     /tmp/cc7jEFKv.s:82316  .debug_str:000000000000fa4b .LASF2660
     /tmp/cc7jEFKv.s:82056  .debug_str:000000000000ef4e .LASF2661
     /tmp/cc7jEFKv.s:78208  .debug_str:0000000000004ae6 .LASF2662
     /tmp/cc7jEFKv.s:79614  .debug_str:00000000000086c1 .LASF2663
     /tmp/cc7jEFKv.s:78908  .debug_str:000000000000662b .LASF2664
     /tmp/cc7jEFKv.s:81006  .debug_str:000000000000befa .LASF2665
     /tmp/cc7jEFKv.s:81130  .debug_str:000000000000c42b .LASF2666
     /tmp/cc7jEFKv.s:81120  .debug_str:000000000000c3d5 .LASF2667
     /tmp/cc7jEFKv.s:82036  .debug_str:000000000000ee52 .LASF2668
     /tmp/cc7jEFKv.s:82714  .debug_str:0000000000010c27 .LASF2669
     /tmp/cc7jEFKv.s:81344  .debug_str:000000000000cde1 .LASF2670
     /tmp/cc7jEFKv.s:81986  .debug_str:000000000000ebc1 .LASF2671
     /tmp/cc7jEFKv.s:80304  .debug_str:000000000000a496 .LASF2672
     /tmp/cc7jEFKv.s:81346  .debug_str:000000000000cdf1 .LASF2673
     /tmp/cc7jEFKv.s:81988  .debug_str:000000000000ebd1 .LASF2674
     /tmp/cc7jEFKv.s:81300  .debug_str:000000000000cc0d .LASF2675
     /tmp/cc7jEFKv.s:82380  .debug_str:000000000000fd9b .LASF2676
     /tmp/cc7jEFKv.s:82294  .debug_str:000000000000f98b .LASF2677
     /tmp/cc7jEFKv.s:82366  .debug_str:000000000000fcd0 .LASF2678
     /tmp/cc7jEFKv.s:82382  .debug_str:000000000000fdab .LASF2679
     /tmp/cc7jEFKv.s:83098  .debug_str:0000000000011c32 .LASF2680
     /tmp/cc7jEFKv.s:77694  .debug_str:00000000000033e6 .LASF2681
     /tmp/cc7jEFKv.s:82384  .debug_str:000000000000fdbb .LASF2682
     /tmp/cc7jEFKv.s:83100  .debug_str:0000000000011c42 .LASF2683
     /tmp/cc7jEFKv.s:81048  .debug_str:000000000000c0a8 .LASF2684
     /tmp/cc7jEFKv.s:82386  .debug_str:000000000000fdcb .LASF2685
     /tmp/cc7jEFKv.s:83102  .debug_str:0000000000011c52 .LASF2686
     /tmp/cc7jEFKv.s:84072  .debug_str:0000000000014617 .LASF2687
     /tmp/cc7jEFKv.s:82388  .debug_str:000000000000fddb .LASF2688
     /tmp/cc7jEFKv.s:83104  .debug_str:0000000000011c62 .LASF2689
     /tmp/cc7jEFKv.s:79518  .debug_str:0000000000008248 .LASF2690
     /tmp/cc7jEFKv.s:81714  .debug_str:000000000000dfa3 .LASF2691
     /tmp/cc7jEFKv.s:76988  .debug_str:000000000000150c .LASF2692
     /tmp/cc7jEFKv.s:78526  .debug_str:0000000000005745 .LASF2693
     /tmp/cc7jEFKv.s:83944  .debug_str:000000000001400b .LASF2694
     /tmp/cc7jEFKv.s:80948  .debug_str:000000000000bd20 .LASF2695
     /tmp/cc7jEFKv.s:76522  .debug_str:0000000000000267 .LASF2696
     /tmp/cc7jEFKv.s:82784  .debug_str:0000000000010f2e .LASF2697
     /tmp/cc7jEFKv.s:77058  .debug_str:0000000000001752 .LASF2698
     /tmp/cc7jEFKv.s:81650  .debug_str:000000000000dce1 .LASF2699
     /tmp/cc7jEFKv.s:78974  .debug_str:0000000000006931 .LASF2700
     /tmp/cc7jEFKv.s:77668  .debug_str:00000000000032c7 .LASF2701
     /tmp/cc7jEFKv.s:76982  .debug_str:00000000000014a4 .LASF2702
     /tmp/cc7jEFKv.s:78976  .debug_str:0000000000006947 .LASF2703
     /tmp/cc7jEFKv.s:77062  .debug_str:000000000000177b .LASF2704
     /tmp/cc7jEFKv.s:80206  .debug_str:000000000000a0da .LASF2705
     /tmp/cc7jEFKv.s:78978  .debug_str:000000000000695d .LASF2706
     /tmp/cc7jEFKv.s:77064  .debug_str:0000000000001791 .LASF2707
     /tmp/cc7jEFKv.s:83358  .debug_str:0000000000012643 .LASF2708
     /tmp/cc7jEFKv.s:78980  .debug_str:0000000000006973 .LASF2709
     /tmp/cc7jEFKv.s:77066  .debug_str:00000000000017a7 .LASF2710
     /tmp/cc7jEFKv.s:78816  .debug_str:0000000000006227 .LASF2711
     /tmp/cc7jEFKv.s:78982  .debug_str:0000000000006989 .LASF2712
     /tmp/cc7jEFKv.s:77068  .debug_str:00000000000017bd .LASF2713
     /tmp/cc7jEFKv.s:78524  .debug_str:000000000000571b .LASF2714
     /tmp/cc7jEFKv.s:78984  .debug_str:000000000000699f .LASF2715
     /tmp/cc7jEFKv.s:77070  .debug_str:00000000000017d3 .LASF2716
     /tmp/cc7jEFKv.s:83600  .debug_str:00000000000130c5 .LASF2717
     /tmp/cc7jEFKv.s:78986  .debug_str:00000000000069b5 .LASF2718
     /tmp/cc7jEFKv.s:77072  .debug_str:00000000000017e9 .LASF2719
     /tmp/cc7jEFKv.s:81030  .debug_str:000000000000bfd1 .LASF2720
     /tmp/cc7jEFKv.s:83122  .debug_str:0000000000011d55 .LASF2721
     /tmp/cc7jEFKv.s:82108  .debug_str:000000000000f15a .LASF2722
     /tmp/cc7jEFKv.s:76634  .debug_str:0000000000000713 .LASF2723
     /tmp/cc7jEFKv.s:77680  .debug_str:0000000000003367 .LASF2724
     /tmp/cc7jEFKv.s:79966  .debug_str:00000000000096bf .LASF2725
     /tmp/cc7jEFKv.s:76590  .debug_str:0000000000000572 .LASF2726
     /tmp/cc7jEFKv.s:82142  .debug_str:000000000000f296 .LASF2727
     /tmp/cc7jEFKv.s:78000  .debug_str:0000000000004121 .LASF2728
     /tmp/cc7jEFKv.s:77672  .debug_str:00000000000032fa .LASF2729
     /tmp/cc7jEFKv.s:82786  .debug_str:0000000000010f44 .LASF2730
     /tmp/cc7jEFKv.s:81944  .debug_str:000000000000e9c0 .LASF2731
     /tmp/cc7jEFKv.s:77590  .debug_str:0000000000002f54 .LASF2732
     /tmp/cc7jEFKv.s:78132  .debug_str:00000000000047be .LASF2733
     /tmp/cc7jEFKv.s:78752  .debug_str:0000000000005fa0 .LASF2734
     /tmp/cc7jEFKv.s:79468  .debug_str:0000000000007f51 .LASF2735
     /tmp/cc7jEFKv.s:82032  .debug_str:000000000000ee25 .LASF2736
     /tmp/cc7jEFKv.s:80692  .debug_str:000000000000b40a .LASF2737
     /tmp/cc7jEFKv.s:79960  .debug_str:000000000000965d .LASF2738
     /tmp/cc7jEFKv.s:77402  .debug_str:00000000000026b1 .LASF2739
     /tmp/cc7jEFKv.s:80026  .debug_str:00000000000098c5 .LASF2740
     /tmp/cc7jEFKv.s:82818  .debug_str:0000000000011094 .LASF2741
     /tmp/cc7jEFKv.s:82646  .debug_str:0000000000010950 .LASF2742
     /tmp/cc7jEFKv.s:78610  .debug_str:0000000000005ac8 .LASF2743
     /tmp/cc7jEFKv.s:82644  .debug_str:0000000000010929 .LASF2744
     /tmp/cc7jEFKv.s:83402  .debug_str:000000000001284d .LASF2745
     /tmp/cc7jEFKv.s:79654  .debug_str:0000000000008892 .LASF2746
     /tmp/cc7jEFKv.s:80530  .debug_str:000000000000ad92 .LASF2747
     /tmp/cc7jEFKv.s:79078  .debug_str:0000000000006e00 .LASF2748
     /tmp/cc7jEFKv.s:81174  .debug_str:000000000000c604 .LASF2749
     /tmp/cc7jEFKv.s:83164  .debug_str:0000000000011ec1 .LASF2750
     /tmp/cc7jEFKv.s:82256  .debug_str:000000000000f7b2 .LASF2751
     /tmp/cc7jEFKv.s:82342  .debug_str:000000000000fbc4 .LASF2752
     /tmp/cc7jEFKv.s:84102  .debug_str:000000000001476c .LASF2753
     /tmp/cc7jEFKv.s:83072  .debug_str:0000000000011b0f .LASF2754
     /tmp/cc7jEFKv.s:79788  .debug_str:0000000000008e48 .LASF2755
     /tmp/cc7jEFKv.s:80024  .debug_str:00000000000098a2 .LASF2756
     /tmp/cc7jEFKv.s:81966  .debug_str:000000000000eac9 .LASF2757
     /tmp/cc7jEFKv.s:81856  .debug_str:000000000000e627 .LASF2758
     /tmp/cc7jEFKv.s:83784  .debug_str:00000000000138f4 .LASF2759
     /tmp/cc7jEFKv.s:81456  .debug_str:000000000000d375 .LASF2760
     /tmp/cc7jEFKv.s:76542  .debug_str:0000000000000365 .LASF2761
     /tmp/cc7jEFKv.s:80076  .debug_str:0000000000009a80 .LASF2762
     /tmp/cc7jEFKv.s:80992  .debug_str:000000000000be50 .LASF2763
     /tmp/cc7jEFKv.s:81320  .debug_str:000000000000cd03 .LASF2764
     /tmp/cc7jEFKv.s:81188  .debug_str:000000000000c6d3 .LASF2765
     /tmp/cc7jEFKv.s:76992  .debug_str:0000000000001532 .LASF2766
     /tmp/cc7jEFKv.s:82928  .debug_str:0000000000011619 .LASF2767
     /tmp/cc7jEFKv.s:78104  .debug_str:000000000000464f .LASF2768
     /tmp/cc7jEFKv.s:80110  .debug_str:0000000000009c5a .LASF2769
     /tmp/cc7jEFKv.s:80152  .debug_str:0000000000009e19 .LASF2770
     /tmp/cc7jEFKv.s:83626  .debug_str:00000000000131eb .LASF2771
     /tmp/cc7jEFKv.s:81336  .debug_str:000000000000cd9e .LASF2772
     /tmp/cc7jEFKv.s:82526  .debug_str:0000000000010397 .LASF2773
     /tmp/cc7jEFKv.s:77314  .debug_str:000000000000224b .LASF2774
     /tmp/cc7jEFKv.s:79020  .debug_str:0000000000006b79 .LASF2775
     /tmp/cc7jEFKv.s:78638  .debug_str:0000000000005bd9 .LASF2776
     /tmp/cc7jEFKv.s:81062  .debug_str:000000000000c14a .LASF2777
     /tmp/cc7jEFKv.s:80156  .debug_str:0000000000009e52 .LASF2778
     /tmp/cc7jEFKv.s:78640  .debug_str:0000000000005bf2 .LASF2779
     /tmp/cc7jEFKv.s:84092  .debug_str:00000000000146d4 .LASF2780
     /tmp/cc7jEFKv.s:79024  .debug_str:0000000000006ba4 .LASF2781
     /tmp/cc7jEFKv.s:78642  .debug_str:0000000000005c0b .LASF2782
     /tmp/cc7jEFKv.s:79546  .debug_str:0000000000008364 .LASF2783
     /tmp/cc7jEFKv.s:79026  .debug_str:0000000000006bbd .LASF2784
     /tmp/cc7jEFKv.s:78644  .debug_str:0000000000005c24 .LASF2785
     /tmp/cc7jEFKv.s:82676  .debug_str:0000000000010aae .LASF2786
     /tmp/cc7jEFKv.s:83494  .debug_str:0000000000012c5b .LASF2787
     /tmp/cc7jEFKv.s:76650  .debug_str:00000000000007fe .LASF2788
     /tmp/cc7jEFKv.s:80844  .debug_str:000000000000b94f .LASF2789
     /tmp/cc7jEFKv.s:77584  .debug_str:0000000000002f38 .LASF2790
     /tmp/cc7jEFKv.s:78558  .debug_str:00000000000058f2 .LASF2791
     /tmp/cc7jEFKv.s:82864  .debug_str:0000000000011297 .LASF2792
     /tmp/cc7jEFKv.s:78786  .debug_str:0000000000006152 .LASF2793
     /tmp/cc7jEFKv.s:77570  .debug_str:0000000000002ea6 .LASF2794
     /tmp/cc7jEFKv.s:81976  .debug_str:000000000000eb4f .LASF2795
     /tmp/cc7jEFKv.s:78280  .debug_str:0000000000004e3d .LASF2796
     /tmp/cc7jEFKv.s:81818  .debug_str:000000000000e43c .LASF2797
     /tmp/cc7jEFKv.s:79724  .debug_str:0000000000008b6b .LASF2798
     /tmp/cc7jEFKv.s:81706  .debug_str:000000000000df6d .LASF2799
     /tmp/cc7jEFKv.s:82376  .debug_str:000000000000fd68 .LASF2800
     /tmp/cc7jEFKv.s:77630  .debug_str:0000000000003119 .LASF2801
     /tmp/cc7jEFKv.s:78032  .debug_str:00000000000042b8 .LASF2802
     /tmp/cc7jEFKv.s:76812  .debug_str:0000000000000dd5 .LASF2803
     /tmp/cc7jEFKv.s:82758  .debug_str:0000000000010de0 .LASF2804
     /tmp/cc7jEFKv.s:79698  .debug_str:0000000000008a79 .LASF2805
     /tmp/cc7jEFKv.s:83088  .debug_str:0000000000011bb6 .LASF2806
     /tmp/cc7jEFKv.s:83884  .debug_str:0000000000013d04 .LASF2807
     /tmp/cc7jEFKv.s:76966  .debug_str:00000000000013f8 .LASF2808
     /tmp/cc7jEFKv.s:80728  .debug_str:000000000000b4f9 .LASF2809
     /tmp/cc7jEFKv.s:77448  .debug_str:00000000000028a3 .LASF2810
     /tmp/cc7jEFKv.s:78066  .debug_str:000000000000441f .LASF2811
     /tmp/cc7jEFKv.s:82094  .debug_str:000000000000f0b8 .LASF2812
     /tmp/cc7jEFKv.s:79730  .debug_str:0000000000008bd2 .LASF2813
     /tmp/cc7jEFKv.s:78766  .debug_str:0000000000006037 .LASF2814
     /tmp/cc7jEFKv.s:78034  .debug_str:00000000000042c4 .LASF2815
     /tmp/cc7jEFKv.s:83398  .debug_str:0000000000012802 .LASF2816
     /tmp/cc7jEFKv.s:80966  .debug_str:000000000000bde0 .LASF2817
     /tmp/cc7jEFKv.s:82248  .debug_str:000000000000f756 .LASF2818
     /tmp/cc7jEFKv.s:82320  .debug_str:000000000000fa7c .LASF2819
     /tmp/cc7jEFKv.s:78938  .debug_str:0000000000006794 .LASF2820
     /tmp/cc7jEFKv.s:79080  .debug_str:0000000000006e0b .LASF2821
     /tmp/cc7jEFKv.s:82704  .debug_str:0000000000010be3 .LASF2822
     /tmp/cc7jEFKv.s:78420  .debug_str:00000000000053da .LASF2823
     /tmp/cc7jEFKv.s:82554  .debug_str:00000000000104be .LASF2824
     /tmp/cc7jEFKv.s:79924  .debug_str:000000000000949b .LASF2825
     /tmp/cc7jEFKv.s:78422  .debug_str:00000000000053ed .LASF2826
     /tmp/cc7jEFKv.s:82556  .debug_str:00000000000104d1 .LASF2827
     /tmp/cc7jEFKv.s:83036  .debug_str:00000000000119f2 .LASF2828
     /tmp/cc7jEFKv.s:79600  .debug_str:0000000000008633 .LASF2829
     /tmp/cc7jEFKv.s:82840  .debug_str:0000000000011186 .LASF2830
     /tmp/cc7jEFKv.s:82560  .debug_str:00000000000104eb .LASF2831
     /tmp/cc7jEFKv.s:81140  .debug_str:000000000000c4a4 .LASF2832
     /tmp/cc7jEFKv.s:82844  .debug_str:00000000000111c5 .LASF2833
     /tmp/cc7jEFKv.s:77886  .debug_str:0000000000003c25 .LASF2834
     /tmp/cc7jEFKv.s:81142  .debug_str:000000000000c4b8 .LASF2835
     /tmp/cc7jEFKv.s:82438  .debug_str:000000000000ffff .LASF2836
     /tmp/cc7jEFKv.s:81224  .debug_str:000000000000c85f .LASF2837
     /tmp/cc7jEFKv.s:81144  .debug_str:000000000000c4cc .LASF2838
     /tmp/cc7jEFKv.s:83290  .debug_str:00000000000123c2 .LASF2839
     /tmp/cc7jEFKv.s:84228  .debug_str:0000000000014cc3 .LASF2840
     /tmp/cc7jEFKv.s:82656  .debug_str:00000000000109b7 .LASF2841
     /tmp/cc7jEFKv.s:83292  .debug_str:00000000000123d6 .LASF2842
     /tmp/cc7jEFKv.s:79710  .debug_str:0000000000008ae7 .LASF2843
     /tmp/cc7jEFKv.s:84242  .debug_str:0000000000014d5e .LASF2844
     /tmp/cc7jEFKv.s:83428  .debug_str:0000000000012967 .LASF2845
     /tmp/cc7jEFKv.s:82920  .debug_str:00000000000115b5 .LASF2846
     /tmp/cc7jEFKv.s:77360  .debug_str:000000000000249d .LASF2847
     /tmp/cc7jEFKv.s:77746  .debug_str:0000000000003664 .LASF2848
     /tmp/cc7jEFKv.s:78268  .debug_str:0000000000004dd1 .LASF2849
     /tmp/cc7jEFKv.s:81168  .debug_str:000000000000c5ce .LASF2850
     /tmp/cc7jEFKv.s:77748  .debug_str:0000000000003676 .LASF2851
     /tmp/cc7jEFKv.s:78772  .debug_str:0000000000006075 .LASF2852
     /tmp/cc7jEFKv.s:78256  .debug_str:0000000000004d52 .LASF2853
     /tmp/cc7jEFKv.s:78748  .debug_str:0000000000005f7c .LASF2854
     /tmp/cc7jEFKv.s:83934  .debug_str:0000000000013f5a .LASF2855
     /tmp/cc7jEFKv.s:78258  .debug_str:0000000000004d64 .LASF2856
     /tmp/cc7jEFKv.s:78750  .debug_str:0000000000005f8e .LASF2857
     /tmp/cc7jEFKv.s:76586  .debug_str:0000000000000543 .LASF2858
     /tmp/cc7jEFKv.s:78260  .debug_str:0000000000004d76 .LASF2859
     /tmp/cc7jEFKv.s:80540  .debug_str:000000000000ae53 .LASF2860
     /tmp/cc7jEFKv.s:78650  .debug_str:0000000000005c75 .LASF2861
     /tmp/cc7jEFKv.s:77718  .debug_str:00000000000034f7 .LASF2862
     /tmp/cc7jEFKv.s:79796  .debug_str:0000000000008eb0 .LASF2863
     /tmp/cc7jEFKv.s:81010  .debug_str:000000000000bf0d .LASF2864
     /tmp/cc7jEFKv.s:77242  .debug_str:0000000000001f72 .LASF2865
     /tmp/cc7jEFKv.s:83270  .debug_str:00000000000122ab .LASF2866
     /tmp/cc7jEFKv.s:77602  .debug_str:0000000000002fe8 .LASF2867
     /tmp/cc7jEFKv.s:77554  .debug_str:0000000000002df5 .LASF2868
     /tmp/cc7jEFKv.s:82620  .debug_str:00000000000107d8 .LASF2869
     /tmp/cc7jEFKv.s:78432  .debug_str:000000000000546f .LASF2870
     /tmp/cc7jEFKv.s:81806  .debug_str:000000000000e394 .LASF2871
     /tmp/cc7jEFKv.s:79358  .debug_str:00000000000079ef .LASF2872
     /tmp/cc7jEFKv.s:78856  .debug_str:000000000000644d .LASF2873
     /tmp/cc7jEFKv.s:81936  .debug_str:000000000000e96b .LASF2874
     /tmp/cc7jEFKv.s:77994  .debug_str:00000000000040d3 .LASF2875
     /tmp/cc7jEFKv.s:82086  .debug_str:000000000000f058 .LASF2876
     /tmp/cc7jEFKv.s:80224  .debug_str:000000000000a181 .LASF2877
     /tmp/cc7jEFKv.s:82400  .debug_str:000000000000fe59 .LASF2878
     /tmp/cc7jEFKv.s:79210  .debug_str:0000000000007413 .LASF2879
     /tmp/cc7jEFKv.s:82950  .debug_str:0000000000011711 .LASF2880
     /tmp/cc7jEFKv.s:83916  .debug_str:0000000000013ea0 .LASF2881
     /tmp/cc7jEFKv.s:78782  .debug_str:000000000000611f .LASF2882
     /tmp/cc7jEFKv.s:79102  .debug_str:0000000000006f04 .LASF2883
     /tmp/cc7jEFKv.s:83306  .debug_str:000000000001245b .LASF2884
     /tmp/cc7jEFKv.s:83106  .debug_str:0000000000011c72 .LASF2885
     /tmp/cc7jEFKv.s:77784  .debug_str:00000000000037c5 .LASF2886
     /tmp/cc7jEFKv.s:80938  .debug_str:000000000000bca6 .LASF2887
     /tmp/cc7jEFKv.s:78312  .debug_str:0000000000004fd0 .LASF2888
     /tmp/cc7jEFKv.s:84202  .debug_str:0000000000014bd4 .LASF2889
     /tmp/cc7jEFKv.s:81308  .debug_str:000000000000cc8d .LASF2890
     /tmp/cc7jEFKv.s:81268  .debug_str:000000000000cab5 .LASF2891
     /tmp/cc7jEFKv.s:83152  .debug_str:0000000000011e20 .LASF2892
     /tmp/cc7jEFKv.s:77782  .debug_str:00000000000037b1 .LASF2893
     /tmp/cc7jEFKv.s:80524  .debug_str:000000000000ad4f .LASF2894
     /tmp/cc7jEFKv.s:81590  .debug_str:000000000000d9b3 .LASF2895
     /tmp/cc7jEFKv.s:79900  .debug_str:0000000000009398 .LASF2896
     /tmp/cc7jEFKv.s:79596  .debug_str:00000000000085fd .LASF2897
     /tmp/cc7jEFKv.s:80394  .debug_str:000000000000a89d .LASF2898
     /tmp/cc7jEFKv.s:78532  .debug_str:0000000000005795 .LASF2899
     /tmp/cc7jEFKv.s:81732  .debug_str:000000000000e05f .LASF2900
     /tmp/cc7jEFKv.s:77404  .debug_str:00000000000026c5 .LASF2901
     /tmp/cc7jEFKv.s:83862  .debug_str:0000000000013c2d .LASF2902
     /tmp/cc7jEFKv.s:84058  .debug_str:0000000000014576 .LASF2903
     /tmp/cc7jEFKv.s:82062  .debug_str:000000000000ef94 .LASF2904
     /tmp/cc7jEFKv.s:77136  .debug_str:0000000000001ad3 .LASF2905
     /tmp/cc7jEFKv.s:77388  .debug_str:0000000000002600 .LASF2906
     /tmp/cc7jEFKv.s:83316  .debug_str:00000000000124b2 .LASF2907
     /tmp/cc7jEFKv.s:79484  .debug_str:0000000000008081 .LASF2908
     /tmp/cc7jEFKv.s:82432  .debug_str:000000000000ffa0 .LASF2909
     /tmp/cc7jEFKv.s:78342  .debug_str:000000000000509b .LASF2910
     /tmp/cc7jEFKv.s:82180  .debug_str:000000000000f43e .LASF2911
     /tmp/cc7jEFKv.s:78674  .debug_str:0000000000005cea .LASF2912
     /tmp/cc7jEFKv.s:82924  .debug_str:00000000000115e9 .LASF2913
     /tmp/cc7jEFKv.s:78192  .debug_str:0000000000004a18 .LASF2914
     /tmp/cc7jEFKv.s:77804  .debug_str:00000000000038e0 .LASF2915
     /tmp/cc7jEFKv.s:79514  .debug_str:000000000000820d .LASF2916
     /tmp/cc7jEFKv.s:78928  .debug_str:000000000000670a .LASF2917
     /tmp/cc7jEFKv.s:81476  .debug_str:000000000000d43b .LASF2918
     /tmp/cc7jEFKv.s:83580  .debug_str:0000000000013000 .LASF2919
     /tmp/cc7jEFKv.s:81328  .debug_str:000000000000cd5b .LASF2920
     /tmp/cc7jEFKv.s:82658  .debug_str:00000000000109cb .LASF2921
     /tmp/cc7jEFKv.s:82076  .debug_str:000000000000f003 .LASF2922
     /tmp/cc7jEFKv.s:80044  .debug_str:0000000000009960 .LASF2923
     /tmp/cc7jEFKv.s:81938  .debug_str:000000000000e978 .LASF2924
     /tmp/cc7jEFKv.s:82328  .debug_str:000000000000fb13 .LASF2925
     /tmp/cc7jEFKv.s:77616  .debug_str:000000000000307b .LASF2926
     /tmp/cc7jEFKv.s:78040  .debug_str:00000000000042ee .LASF2927
     /tmp/cc7jEFKv.s:79578  .debug_str:0000000000008574 .LASF2928
     /tmp/cc7jEFKv.s:84204  .debug_str:0000000000014bf1 .LASF2929
     /tmp/cc7jEFKv.s:78430  .debug_str:0000000000005441 .LASF2930
     /tmp/cc7jEFKv.s:81614  .debug_str:000000000000dadd .LASF2931
     /tmp/cc7jEFKv.s:76544  .debug_str:0000000000000386 .LASF2932
     /tmp/cc7jEFKv.s:83516  .debug_str:0000000000012d28 .LASF2933
     /tmp/cc7jEFKv.s:84002  .debug_str:00000000000142e7 .LASF2934
     /tmp/cc7jEFKv.s:80632  .debug_str:000000000000b174 .LASF2935
     /tmp/cc7jEFKv.s:76822  .debug_str:0000000000000e60 .LASF2936
     /tmp/cc7jEFKv.s:83830  .debug_str:0000000000013af0 .LASF2937
     /tmp/cc7jEFKv.s:81202  .debug_str:000000000000c7a7 .LASF2938
     /tmp/cc7jEFKv.s:79046  .debug_str:0000000000006c8c .LASF2939
     /tmp/cc7jEFKv.s:79420  .debug_str:0000000000007d24 .LASF2940
     /tmp/cc7jEFKv.s:78294  .debug_str:0000000000004eff .LASF2941
     /tmp/cc7jEFKv.s:82776  .debug_str:0000000000010ec4 .LASF2942
     /tmp/cc7jEFKv.s:76502  .debug_str:000000000000017d .LASF2943
     /tmp/cc7jEFKv.s:81126  .debug_str:000000000000c3f6 .LASF2944
     /tmp/cc7jEFKv.s:80634  .debug_str:000000000000b18f .LASF2945
     /tmp/cc7jEFKv.s:81996  .debug_str:000000000000ec2e .LASF2946
     /tmp/cc7jEFKv.s:82984  .debug_str:0000000000011846 .LASF2947
     /tmp/cc7jEFKv.s:83272  .debug_str:00000000000122bd .LASF2948
     /tmp/cc7jEFKv.s:77974  .debug_str:0000000000003fc9 .LASF2949
     /tmp/cc7jEFKv.s:76960  .debug_str:00000000000013ae .LASF2950
     /tmp/cc7jEFKv.s:77864  .debug_str:0000000000003b3e .LASF2951
     /tmp/cc7jEFKv.s:77976  .debug_str:0000000000003fe6 .LASF2952
     /tmp/cc7jEFKv.s:76964  .debug_str:00000000000013db .LASF2953
     /tmp/cc7jEFKv.s:81200  .debug_str:000000000000c776 .LASF2954
     /tmp/cc7jEFKv.s:82280  .debug_str:000000000000f8d2 .LASF2955
     /tmp/cc7jEFKv.s:77670  .debug_str:00000000000032dd .LASF2956
     /tmp/cc7jEFKv.s:80382  .debug_str:000000000000a7e9 .LASF2957
     /tmp/cc7jEFKv.s:82282  .debug_str:000000000000f8ef .LASF2958
     /tmp/cc7jEFKv.s:82868  .debug_str:00000000000112d8 .LASF2959
     /tmp/cc7jEFKv.s:79640  .debug_str:0000000000008800 .LASF2960
     /tmp/cc7jEFKv.s:82412  .debug_str:000000000000febf .LASF2961
     /tmp/cc7jEFKv.s:79872  .debug_str:0000000000009260 .LASF2962
     /tmp/cc7jEFKv.s:78562  .debug_str:0000000000005927 .LASF2963
     /tmp/cc7jEFKv.s:83540  .debug_str:0000000000012e60 .LASF2964
     /tmp/cc7jEFKv.s:79874  .debug_str:000000000000927b .LASF2965
     /tmp/cc7jEFKv.s:79628  .debug_str:0000000000008763 .LASF2966
     /tmp/cc7jEFKv.s:78284  .debug_str:0000000000004e62 .LASF2967
     /tmp/cc7jEFKv.s:82696  .debug_str:0000000000010b80 .LASF2968
     /tmp/cc7jEFKv.s:77740  .debug_str:0000000000003619 .LASF2969
     /tmp/cc7jEFKv.s:83170  .debug_str:0000000000011f31 .LASF2970
     /tmp/cc7jEFKv.s:82698  .debug_str:0000000000010b9b .LASF2971
     /tmp/cc7jEFKv.s:81076  .debug_str:000000000000c21b .LASF2972
     /tmp/cc7jEFKv.s:76646  .debug_str:00000000000007c4 .LASF2973
     /tmp/cc7jEFKv.s:82292  .debug_str:000000000000f96e .LASF2974
     /tmp/cc7jEFKv.s:79804  .debug_str:0000000000008f21 .LASF2975
     /tmp/cc7jEFKv.s:76648  .debug_str:00000000000007e1 .LASF2976
     /tmp/cc7jEFKv.s:83652  .debug_str:0000000000013335 .LASF2977
     /tmp/cc7jEFKv.s:78296  .debug_str:0000000000004f14 .LASF2978
     /tmp/cc7jEFKv.s:79660  .debug_str:00000000000088c3 .LASF2979
     /tmp/cc7jEFKv.s:80194  .debug_str:000000000000a01a .LASF2980
     /tmp/cc7jEFKv.s:77502  .debug_str:0000000000002bad .LASF2981
     /tmp/cc7jEFKv.s:79662  .debug_str:00000000000088e0 .LASF2982
     /tmp/cc7jEFKv.s:80196  .debug_str:000000000000a037 .LASF2983
     /tmp/cc7jEFKv.s:80802  .debug_str:000000000000b802 .LASF2984
     /tmp/cc7jEFKv.s:82128  .debug_str:000000000000f215 .LASF2985
     /tmp/cc7jEFKv.s:79322  .debug_str:000000000000787f .LASF2986
     /tmp/cc7jEFKv.s:80926  .debug_str:000000000000bbf7 .LASF2987
     /tmp/cc7jEFKv.s:82132  .debug_str:000000000000f238 .LASF2988
     /tmp/cc7jEFKv.s:84080  .debug_str:0000000000014671 .LASF2989
     /tmp/cc7jEFKv.s:83984  .debug_str:0000000000014212 .LASF2990
     /tmp/cc7jEFKv.s:76692  .debug_str:00000000000009b9 .LASF2991
     /tmp/cc7jEFKv.s:81666  .debug_str:000000000000ddce .LASF2992
     /tmp/cc7jEFKv.s:83278  .debug_str:0000000000012311 .LASF2993
     /tmp/cc7jEFKv.s:84012  .debug_str:000000000001436c .LASF2994
     /tmp/cc7jEFKv.s:76898  .debug_str:0000000000001116 .LASF2995
     /tmp/cc7jEFKv.s:84138  .debug_str:0000000000014883 .LASF2996
     /tmp/cc7jEFKv.s:79452  .debug_str:0000000000007ea7 .LASF2997
     /tmp/cc7jEFKv.s:84158  .debug_str:0000000000014974 .LASF2998
     /tmp/cc7jEFKv.s:76682  .debug_str:000000000000094c .LASF2999
     /tmp/cc7jEFKv.s:83844  .debug_str:0000000000013b87 .LASF3000
     /tmp/cc7jEFKv.s:81070  .debug_str:000000000000c1e1 .LASF3001
     /tmp/cc7jEFKv.s:81744  .debug_str:000000000000e108 .LASF3002
     /tmp/cc7jEFKv.s:80034  .debug_str:0000000000009904 .LASF3003
     /tmp/cc7jEFKv.s:80814  .debug_str:000000000000b88f .LASF3004
     /tmp/cc7jEFKv.s:80470  .debug_str:000000000000ab28 .LASF3005
     /tmp/cc7jEFKv.s:79160  .debug_str:0000000000007184 .LASF3006
     /tmp/cc7jEFKv.s:78072  .debug_str:000000000000446b .LASF3007
     /tmp/cc7jEFKv.s:77312  .debug_str:0000000000002220 .LASF3008
     /tmp/cc7jEFKv.s:81746  .debug_str:000000000000e12f .LASF3009
     /tmp/cc7jEFKv.s:79344  .debug_str:0000000000007943 .LASF3010
     /tmp/cc7jEFKv.s:83628  .debug_str:0000000000013216 .LASF3011
     /tmp/cc7jEFKv.s:76748  .debug_str:0000000000000bbd .LASF3012
     /tmp/cc7jEFKv.s:81918  .debug_str:000000000000e89c .LASF3013
     /tmp/cc7jEFKv.s:78712  .debug_str:0000000000005e4a .LASF3014
     /tmp/cc7jEFKv.s:78862  .debug_str:000000000000649f .LASF3015
     /tmp/cc7jEFKv.s:81254  .debug_str:000000000000c9f7 .LASF3016
     /tmp/cc7jEFKv.s:82052  .debug_str:000000000000ef1f .LASF3017
     /tmp/cc7jEFKv.s:76906  .debug_str:000000000000116c .LASF3018
     /tmp/cc7jEFKv.s:82666  .debug_str:0000000000010a2f .LASF3019
     /tmp/cc7jEFKv.s:82792  .debug_str:0000000000010f74 .LASF3020
     /tmp/cc7jEFKv.s:81594  .debug_str:000000000000d9ee .LASF3021
     /tmp/cc7jEFKv.s:77964  .debug_str:0000000000003f6b .LASF3022
     /tmp/cc7jEFKv.s:76528  .debug_str:00000000000002c8 .LASF3023
     /tmp/cc7jEFKv.s:80244  .debug_str:000000000000a224 .LASF3024
     /tmp/cc7jEFKv.s:81782  .debug_str:000000000000e28e .LASF3025
     /tmp/cc7jEFKv.s:78162  .debug_str:00000000000048d7 .LASF3026
     /tmp/cc7jEFKv.s:79994  .debug_str:0000000000009786 .LASF3027
     /tmp/cc7jEFKv.s:78756  .debug_str:0000000000005fcc .LASF3028
     /tmp/cc7jEFKv.s:76896  .debug_str:00000000000010f2 .LASF3029
     /tmp/cc7jEFKv.s:83480  .debug_str:0000000000012bbc .LASF3030
     /tmp/cc7jEFKv.s:76778  .debug_str:0000000000000cef .LASF3031
     /tmp/cc7jEFKv.s:77486  .debug_str:0000000000002a9a .LASF3032
     /tmp/cc7jEFKv.s:82594  .debug_str:000000000001068e .LASF3033
     /tmp/cc7jEFKv.s:77008  .debug_str:00000000000015d7 .LASF3034
     /tmp/cc7jEFKv.s:82120  .debug_str:000000000000f1c4 .LASF3035
     /tmp/cc7jEFKv.s:79012  .debug_str:0000000000006b38 .LASF3036
     /tmp/cc7jEFKv.s:83608  .debug_str:000000000001311b .LASF3037
     /tmp/cc7jEFKv.s:82734  .debug_str:0000000000010cf5 .LASF3038
     /tmp/cc7jEFKv.s:79902  .debug_str:00000000000093ac .LASF3039
     /tmp/cc7jEFKv.s:80854  .debug_str:000000000000b9d5 .LASF3040
     /tmp/cc7jEFKv.s:82954  .debug_str:0000000000011730 .LASF3041
     /tmp/cc7jEFKv.s:76580  .debug_str:0000000000000504 .LASF3042
     /tmp/cc7jEFKv.s:78898  .debug_str:00000000000065a0 .LASF3043
     /tmp/cc7jEFKv.s:80872  .debug_str:000000000000ba54 .LASF3044
     /tmp/cc7jEFKv.s:82504  .debug_str:0000000000010278 .LASF3045
     /tmp/cc7jEFKv.s:81616  .debug_str:000000000000daf4 .LASF3046
     /tmp/cc7jEFKv.s:83976  .debug_str:0000000000014177 .LASF3047
     /tmp/cc7jEFKv.s:80016  .debug_str:000000000000986a .LASF3048
     /tmp/cc7jEFKv.s:82516  .debug_str:0000000000010326 .LASF3049
     /tmp/cc7jEFKv.s:83994  .debug_str:0000000000014294 .LASF3050
     /tmp/cc7jEFKv.s:83024  .debug_str:000000000001198a .LASF3051
     /tmp/cc7jEFKv.s:83026  .debug_str:0000000000011999 .LASF3052
     /tmp/cc7jEFKv.s:83028  .debug_str:00000000000119a8 .LASF3053
     /tmp/cc7jEFKv.s:79354  .debug_str:00000000000079c0 .LASF3054
     /tmp/cc7jEFKv.s:82848  .debug_str:000000000001120c .LASF3055
     /tmp/cc7jEFKv.s:76920  .debug_str:0000000000001212 .LASF3056
     /tmp/cc7jEFKv.s:79744  .debug_str:0000000000008c91 .LASF3057
     /tmp/cc7jEFKv.s:81394  .debug_str:000000000000d04e .LASF3058
     /tmp/cc7jEFKv.s:81178  .debug_str:000000000000c651 .LASF3059
     /tmp/cc7jEFKv.s:78844  .debug_str:000000000000639b .LASF3060
     /tmp/cc7jEFKv.s:77494  .debug_str:0000000000002b2d .LASF3061
     /tmp/cc7jEFKv.s:83044  .debug_str:0000000000011a53 .LASF3062
     /tmp/cc7jEFKv.s:83736  .debug_str:000000000001372d .LASF3063
     /tmp/cc7jEFKv.s:81148  .debug_str:000000000000c4f3 .LASF3064
     /tmp/cc7jEFKv.s:80094  .debug_str:0000000000009bb9 .LASF3065
     /tmp/cc7jEFKv.s:81134  .debug_str:000000000000c451 .LASF3066
     /tmp/cc7jEFKv.s:82596  .debug_str:00000000000106a4 .LASF3067
     /tmp/cc7jEFKv.s:83436  .debug_str:00000000000129ac .LASF3068
     /tmp/cc7jEFKv.s:83432  .debug_str:000000000001299a .LASF3069
     /tmp/cc7jEFKv.s:83434  .debug_str:00000000000129a3 .LASF3070
     /tmp/cc7jEFKv.s:81698  .debug_str:000000000000df2c .LASF3071
     /tmp/cc7jEFKv.s:77412  .debug_str:000000000000272b .LASF3072
     /tmp/cc7jEFKv.s:79494  .debug_str:00000000000080e7 .LASF3073
     /tmp/cc7jEFKv.s:83774  .debug_str:000000000001389c .LASF3074
     /tmp/cc7jEFKv.s:80312  .debug_str:000000000000a502 .LASF3075
     /tmp/cc7jEFKv.s:83730  .debug_str:000000000001370a .LASF3076
     /tmp/cc7jEFKv.s:83030  .debug_str:00000000000119b7 .LASF3077
     /tmp/cc7jEFKv.s:82462  .debug_str:00000000000100af .LASF3078
     /tmp/cc7jEFKv.s:83032  .debug_str:00000000000119c6 .LASF3079
     /tmp/cc7jEFKv.s:80074  .debug_str:0000000000009a75 .LASF3080
     /tmp/cc7jEFKv.s:82096  .debug_str:000000000000f0cc .LASF3081
     /tmp/cc7jEFKv.s:81928  .debug_str:000000000000e920 .LASF3082
     /tmp/cc7jEFKv.s:82418  .debug_str:000000000000fef9 .LASF3083
     /tmp/cc7jEFKv.s:78248  .debug_str:0000000000004ceb .LASF3084
     /tmp/cc7jEFKv.s:79752  .debug_str:0000000000008d10 .LASF3085
     /tmp/cc7jEFKv.s:80390  .debug_str:000000000000a87b .LASF3086
     /tmp/cc7jEFKv.s:82066  .debug_str:000000000000efc2 .LASF3087
     /tmp/cc7jEFKv.s:82370  .debug_str:000000000000fd1b .LASF3088
     /tmp/cc7jEFKv.s:82070  .debug_str:000000000000efdd .LASF3089
     /tmp/cc7jEFKv.s:78308  .debug_str:0000000000004fba .LASF3090
     /tmp/cc7jEFKv.s:78754  .debug_str:0000000000005fb0 .LASF3091
     /tmp/cc7jEFKv.s:77258  .debug_str:0000000000002026 .LASF3092
     /tmp/cc7jEFKv.s:81122  .debug_str:000000000000c3e1 .LASF3093
     /tmp/cc7jEFKv.s:80630  .debug_str:000000000000b16c .LASF3094
     /tmp/cc7jEFKv.s:79208  .debug_str:0000000000007408 .LASF3095
     /tmp/cc7jEFKv.s:77806  .debug_str:0000000000003907 .LASF3096
     /tmp/cc7jEFKv.s:79368  .debug_str:0000000000007a6f .LASF3097
     /tmp/cc7jEFKv.s:82146  .debug_str:000000000000f2d3 .LASF3098
     /tmp/cc7jEFKv.s:82030  .debug_str:000000000000ee1f .LASF3099
     /tmp/cc7jEFKv.s:79708  .debug_str:0000000000008ad0 .LASF3100
     /tmp/cc7jEFKv.s:76654  .debug_str:000000000000081c .LASF3101
     /tmp/cc7jEFKv.s:83240  .debug_str:00000000000121c2 .LASF3102
     /tmp/cc7jEFKv.s:82664  .debug_str:0000000000010a29 .LASF3103
     /tmp/cc7jEFKv.s:80102  .debug_str:0000000000009c1c .LASF3104
     /tmp/cc7jEFKv.s:81814  .debug_str:000000000000e42a .LASF3105
     /tmp/cc7jEFKv.s:79374  .debug_str:0000000000007ab9 .LASF3106
     /tmp/cc7jEFKv.s:80662  .debug_str:000000000000b259 .LASF3107
     /tmp/cc7jEFKv.s:81132  .debug_str:000000000000c44c .LASF3108
     /tmp/cc7jEFKv.s:79760  .debug_str:0000000000008d3a .LASF3109
     /tmp/cc7jEFKv.s:76694  .debug_str:00000000000009ca .LASF3110
     /tmp/cc7jEFKv.s:80078  .debug_str:0000000000009ab5 .LASF3111
     /tmp/cc7jEFKv.s:83366  .debug_str:00000000000126c6 .LASF3112
     /tmp/cc7jEFKv.s:76604  .debug_str:0000000000000611 .LASF3113
     /tmp/cc7jEFKv.s:80378  .debug_str:000000000000a7ba .LASF3114
     /tmp/cc7jEFKv.s:80466  .debug_str:000000000000ab09 .LASF3115
     /tmp/cc7jEFKv.s:82542  .debug_str:000000000001045c .LASF3116
     /tmp/cc7jEFKv.s:79756  .debug_str:0000000000008d26 .LASF3117
     /tmp/cc7jEFKv.s:80080  .debug_str:0000000000009aba .LASF3118
     /tmp/cc7jEFKv.s:77398  .debug_str:0000000000002686 .LASF3119
     /tmp/cc7jEFKv.s:80446  .debug_str:000000000000aa71 .LASF3120
     /tmp/cc7jEFKv.s:81512  .debug_str:000000000000d5e3 .LASF3121
     /tmp/cc7jEFKv.s:77612  .debug_str:0000000000003059 .LASF3122
     /tmp/cc7jEFKv.s:82368  .debug_str:000000000000fcf4 .LASF3123
     /tmp/cc7jEFKv.s:83258  .debug_str:0000000000012235 .LASF3124
     /tmp/cc7jEFKv.s:81882  .debug_str:000000000000e712 .LASF3125
     /tmp/cc7jEFKv.s:82198  .debug_str:000000000000f515 .LASF3126
     /tmp/cc7jEFKv.s:83920  .debug_str:0000000000013ebf .LASF3127
     /tmp/cc7jEFKv.s:81792  .debug_str:000000000000e2ea .LASF3128
     /tmp/cc7jEFKv.s:78038  .debug_str:00000000000042e4 .LASF3129
     /tmp/cc7jEFKv.s:81510  .debug_str:000000000000d5d7 .LASF3130
     /tmp/cc7jEFKv.s:78310  .debug_str:0000000000004fc5 .LASF3131
     /tmp/cc7jEFKv.s:82756  .debug_str:0000000000010dd4 .LASF3132
     /tmp/cc7jEFKv.s:76744  .debug_str:0000000000000ba4 .LASF3133
     /tmp/cc7jEFKv.s:80758  .debug_str:000000000000b648 .LASF3134
     /tmp/cc7jEFKv.s:81908  .debug_str:000000000000e83e .LASF3135
     /tmp/cc7jEFKv.s:81036  .debug_str:000000000000c012 .LASF3136
     /tmp/cc7jEFKv.s:81564  .debug_str:000000000000d87b .LASF3137
     /tmp/cc7jEFKv.s:83120  .debug_str:0000000000011d4b .LASF3138
     /tmp/cc7jEFKv.s:78318  .debug_str:0000000000005026 .LASF3139
     /tmp/cc7jEFKv.s:81222  .debug_str:000000000000c849 .LASF3140
     /tmp/cc7jEFKv.s:84220  .debug_str:0000000000014c87 .LASF3141
     /tmp/cc7jEFKv.s:81824  .debug_str:000000000000e478 .LASF3142
     /tmp/cc7jEFKv.s:77376  .debug_str:000000000000255c .LASF3143
     /tmp/cc7jEFKv.s:77198  .debug_str:0000000000001da1 .LASF3144
     /tmp/cc7jEFKv.s:82508  .debug_str:0000000000010297 .LASF3145
     /tmp/cc7jEFKv.s:81950  .debug_str:000000000000ea0c .LASF3146
     /tmp/cc7jEFKv.s:84230  .debug_str:0000000000014ceb .LASF3147
     /tmp/cc7jEFKv.s:81214  .debug_str:000000000000c804 .LASF3148
     /tmp/cc7jEFKv.s:78448  .debug_str:00000000000054ef .LASF3149
     /tmp/cc7jEFKv.s:81382  .debug_str:000000000000cfb3 .LASF3150
     /tmp/cc7jEFKv.s:81404  .debug_str:000000000000d0e5 .LASF3151
     /tmp/cc7jEFKv.s:82790  .debug_str:0000000000010f6e .LASF3152
     /tmp/cc7jEFKv.s:81900  .debug_str:000000000000e7ff .LASF3153
     /tmp/cc7jEFKv.s:82000  .debug_str:000000000000ec6c .LASF3154
     /tmp/cc7jEFKv.s:78624  .debug_str:0000000000005b5a .LASF3155
     /tmp/cc7jEFKv.s:82220  .debug_str:000000000000f5d4 .LASF3156
     /tmp/cc7jEFKv.s:78618  .debug_str:0000000000005b2a .LASF3157
     /tmp/cc7jEFKv.s:76698  .debug_str:00000000000009de .LASF3158
     /tmp/cc7jEFKv.s:80220  .debug_str:000000000000a15f .LASF3159
     /tmp/cc7jEFKv.s:78442  .debug_str:00000000000054d0 .LASF3160
     /tmp/cc7jEFKv.s:79878  .debug_str:00000000000092ad .LASF3161
     /tmp/cc7jEFKv.s:79476  .debug_str:0000000000007ff2 .LASF3162
     /tmp/cc7jEFKv.s:79906  .debug_str:00000000000093ca .LASF3163
     /tmp/cc7jEFKv.s:82154  .debug_str:000000000000f31f .LASF3164
     /tmp/cc7jEFKv.s:78936  .debug_str:000000000000676e .LASF3165
     /tmp/cc7jEFKv.s:76512  .debug_str:0000000000000205 .LASF3166
     /tmp/cc7jEFKv.s:79714  .debug_str:0000000000008b16 .LASF3167
     /tmp/cc7jEFKv.s:79412  .debug_str:0000000000007cda .LASF3168
     /tmp/cc7jEFKv.s:82752  .debug_str:0000000000010dc7 .LASF3169
     /tmp/cc7jEFKv.s:84140  .debug_str:00000000000148a9 .LASF3170
     /tmp/cc7jEFKv.s:78186  .debug_str:00000000000049d9 .LASF3171
     /tmp/cc7jEFKv.s:81482  .debug_str:000000000000d493 .LASF3172
     /tmp/cc7jEFKv.s:83604  .debug_str:00000000000130f5 .LASF3173
     /tmp/cc7jEFKv.s:77300  .debug_str:00000000000021a8 .LASF3174
     /tmp/cc7jEFKv.s:77580  .debug_str:0000000000002f1d .LASF3175
     /tmp/cc7jEFKv.s:80150  .debug_str:0000000000009e12 .LASF3176
     /tmp/cc7jEFKv.s:82116  .debug_str:000000000000f197 .LASF3177
     /tmp/cc7jEFKv.s:77380  .debug_str:000000000000258e .LASF3178
     /tmp/cc7jEFKv.s:81468  .debug_str:000000000000d406 .LASF3179
     /tmp/cc7jEFKv.s:77970  .debug_str:0000000000003fb4 .LASF3180
     /tmp/cc7jEFKv.s:77218  .debug_str:0000000000001e65 .LASF3181
     /tmp/cc7jEFKv.s:83914  .debug_str:0000000000013e96 .LASF3182
     /tmp/cc7jEFKv.s:79150  .debug_str:000000000000712c .LASF3183
     /tmp/cc7jEFKv.s:83918  .debug_str:0000000000013eb5 .LASF3184
     /tmp/cc7jEFKv.s:79154  .debug_str:0000000000007146 .LASF3185
     /tmp/cc7jEFKv.s:83922  .debug_str:0000000000013ee5 .LASF3186
     /tmp/cc7jEFKv.s:79586  .debug_str:00000000000085c9 .LASF3187
     /tmp/cc7jEFKv.s:76860  .debug_str:0000000000000fe8 .LASF3188
     /tmp/cc7jEFKv.s:81968  .debug_str:000000000000eaea .LASF3189
     /tmp/cc7jEFKv.s:77190  .debug_str:0000000000001d55 .LASF3190
     /tmp/cc7jEFKv.s:80258  .debug_str:000000000000a296 .LASF3191
     /tmp/cc7jEFKv.s:80268  .debug_str:000000000000a31c .LASF3192
     /tmp/cc7jEFKv.s:78300  .debug_str:0000000000004f67 .LASF3193
     /tmp/cc7jEFKv.s:80270  .debug_str:000000000000a327 .LASF3194
     /tmp/cc7jEFKv.s:82592  .debug_str:0000000000010667 .LASF3195
     /tmp/cc7jEFKv.s:80272  .debug_str:000000000000a332 .LASF3196
     /tmp/cc7jEFKv.s:83930  .debug_str:0000000000013f21 .LASF3197
     /tmp/cc7jEFKv.s:77124  .debug_str:0000000000001a41 .LASF3198
     /tmp/cc7jEFKv.s:81258  .debug_str:000000000000ca30 .LASF3199
     /tmp/cc7jEFKv.s:80276  .debug_str:000000000000a345 .LASF3200
     /tmp/cc7jEFKv.s:84254  .debug_str:0000000000014dfa .LASF3201
     /tmp/cc7jEFKv.s:79290  .debug_str:0000000000007767 .LASF3202
     /tmp/cc7jEFKv.s:81552  .debug_str:000000000000d7eb .LASF3203
     /tmp/cc7jEFKv.s:79292  .debug_str:0000000000007771 .LASF3204
     /tmp/cc7jEFKv.s:76832  .debug_str:0000000000000ef3 .LASF3205
     /tmp/cc7jEFKv.s:79294  .debug_str:000000000000777b .LASF3206
     /tmp/cc7jEFKv.s:80090  .debug_str:0000000000009b72 .LASF3207
     /tmp/cc7jEFKv.s:79296  .debug_str:0000000000007785 .LASF3208
     /tmp/cc7jEFKv.s:77318  .debug_str:0000000000002288 .LASF3209
     /tmp/cc7jEFKv.s:79590  .debug_str:00000000000085df .LASF3210
     /tmp/cc7jEFKv.s:78612  .debug_str:0000000000005adb .LASF3211
     /tmp/cc7jEFKv.s:79592  .debug_str:00000000000085e9 .LASF3212
     /tmp/cc7jEFKv.s:81810  .debug_str:000000000000e3ce .LASF3213
     /tmp/cc7jEFKv.s:79594  .debug_str:00000000000085f3 .LASF3214
     /tmp/cc7jEFKv.s:77158  .debug_str:0000000000001bd4 .LASF3215
     /tmp/cc7jEFKv.s:79308  .debug_str:00000000000077c0 .LASF3216
     /tmp/cc7jEFKv.s:80376  .debug_str:000000000000a794 .LASF3217
     /tmp/cc7jEFKv.s:84110  .debug_str:00000000000147d2 .LASF3218
     /tmp/cc7jEFKv.s:79044  .debug_str:0000000000006c7f .LASF3219
     /tmp/cc7jEFKv.s:80516  .debug_str:000000000000acdc .LASF3220
     /tmp/cc7jEFKv.s:78686  .debug_str:0000000000005d76 .LASF3221
     /tmp/cc7jEFKv.s:83368  .debug_str:00000000000126cc .LASF3222
     /tmp/cc7jEFKv.s:79550  .debug_str:000000000000839d .LASF3223
     /tmp/cc7jEFKv.s:80548  .debug_str:000000000000aea8 .LASF3224
     /tmp/cc7jEFKv.s:81572  .debug_str:000000000000d8be .LASF3225
     /tmp/cc7jEFKv.s:83406  .debug_str:000000000001287e .LASF3226
     /tmp/cc7jEFKv.s:83328  .debug_str:0000000000012531 .LASF3227
     /tmp/cc7jEFKv.s:76972  .debug_str:0000000000001428 .LASF3228
     /tmp/cc7jEFKv.s:80616  .debug_str:000000000000b0ec .LASF3229
     /tmp/cc7jEFKv.s:80112  .debug_str:0000000000009c71 .LASF3230
     /tmp/cc7jEFKv.s:79426  .debug_str:0000000000007d6a .LASF3231
     /tmp/cc7jEFKv.s:83392  .debug_str:00000000000127b1 .LASF3232
     /tmp/cc7jEFKv.s:82336  .debug_str:000000000000fb85 .LASF3233
     /tmp/cc7jEFKv.s:79974  .debug_str:0000000000009710 .LASF3234
     /tmp/cc7jEFKv.s:77484  .debug_str:0000000000002a70 .LASF3235
     /tmp/cc7jEFKv.s:82966  .debug_str:00000000000117a0 .LASF3236
     /tmp/cc7jEFKv.s:81786  .debug_str:000000000000e2ac .LASF3237
     /tmp/cc7jEFKv.s:80204  .debug_str:000000000000a0cb .LASF3238
     /tmp/cc7jEFKv.s:81498  .debug_str:000000000000d559 .LASF3239
     /tmp/cc7jEFKv.s:77872  .debug_str:0000000000003ba7 .LASF3240
     /tmp/cc7jEFKv.s:81722  .debug_str:000000000000dffd .LASF3241
     /tmp/cc7jEFKv.s:77656  .debug_str:0000000000003246 .LASF3242
     /tmp/cc7jEFKv.s:83882  .debug_str:0000000000013cf8 .LASF3243
     /tmp/cc7jEFKv.s:80528  .debug_str:000000000000ad81 .LASF3244
     /tmp/cc7jEFKv.s:82358  .debug_str:000000000000fc80 .LASF3245
     /tmp/cc7jEFKv.s:80552  .debug_str:000000000000aec4 .LASF3246
     /tmp/cc7jEFKv.s:83638  .debug_str:00000000000132a5 .LASF3247
     /tmp/cc7jEFKv.s:77434  .debug_str:000000000000282e .LASF3248
     /tmp/cc7jEFKv.s:77774  .debug_str:000000000000374e .LASF3249
     /tmp/cc7jEFKv.s:81548  .debug_str:000000000000d7b1 .LASF3250
     /tmp/cc7jEFKv.s:77980  .debug_str:000000000000403e .LASF3251
     /tmp/cc7jEFKv.s:76684  .debug_str:000000000000096c .LASF3252
     /tmp/cc7jEFKv.s:79428  .debug_str:0000000000007d75 .LASF3253
     /tmp/cc7jEFKv.s:83880  .debug_str:0000000000013cef .LASF3254
     /tmp/cc7jEFKv.s:82350  .debug_str:000000000000fc2e .LASF3255
     /tmp/cc7jEFKv.s:79848  .debug_str:0000000000009147 .LASF3256
     /tmp/cc7jEFKv.s:80454  .debug_str:000000000000aaaa .LASF3257
     /tmp/cc7jEFKv.s:82956  .debug_str:0000000000011759 .LASF3258
     /tmp/cc7jEFKv.s:76782  .debug_str:0000000000000d1d .LASF3259
     /tmp/cc7jEFKv.s:81696  .debug_str:000000000000df23 .LASF3260
     /tmp/cc7jEFKv.s:82162  .debug_str:000000000000f372 .LASF3261
     /tmp/cc7jEFKv.s:79886  .debug_str:0000000000009305 .LASF3262
     /tmp/cc7jEFKv.s:77606  .debug_str:000000000000302e .LASF3263
     /tmp/cc7jEFKv.s:77608  .debug_str:0000000000003033 .LASF3264
     /tmp/cc7jEFKv.s:79508  .debug_str:00000000000081b2 .LASF3265
     /tmp/cc7jEFKv.s:78056  .debug_str:00000000000043ae .LASF3266
     /tmp/cc7jEFKv.s:79712  .debug_str:0000000000008b0f .LASF3267
     /tmp/cc7jEFKv.s:80868  .debug_str:000000000000ba2a .LASF3268
     /tmp/cc7jEFKv.s:83566  .debug_str:0000000000012f72 .LASF3269
     /tmp/cc7jEFKv.s:83568  .debug_str:0000000000012f78 .LASF3270
     /tmp/cc7jEFKv.s:83570  .debug_str:0000000000012f7e .LASF3271
     /tmp/cc7jEFKv.s:81800  .debug_str:000000000000e343 .LASF3272
     /tmp/cc7jEFKv.s:80100  .debug_str:0000000000009c0c .LASF3273
     /tmp/cc7jEFKv.s:81638  .debug_str:000000000000dc3b .LASF3274
     /tmp/cc7jEFKv.s:82148  .debug_str:000000000000f2e0 .LASF3275
     /tmp/cc7jEFKv.s:78540  .debug_str:00000000000057e8 .LASF3276
     /tmp/cc7jEFKv.s:76820  .debug_str:0000000000000e4e .LASF3277
     /tmp/cc7jEFKv.s:81310  .debug_str:000000000000ccaa .LASF3278
     /tmp/cc7jEFKv.s:77582  .debug_str:0000000000002f23 .LASF3279
     /tmp/cc7jEFKv.s:83670  .debug_str:000000000001345d .LASF3280
     /tmp/cc7jEFKv.s:76566  .debug_str:0000000000000478 .LASF3281
     /tmp/cc7jEFKv.s:80442  .debug_str:000000000000aa2b .LASF3282
     /tmp/cc7jEFKv.s:82290  .debug_str:000000000000f961 .LASF3283
     /tmp/cc7jEFKv.s:83526  .debug_str:0000000000012dc6 .LASF3284
     /tmp/cc7jEFKv.s:76962  .debug_str:00000000000013cb .LASF3285
     /tmp/cc7jEFKv.s:81210  .debug_str:000000000000c7d6 .LASF3286
     /tmp/cc7jEFKv.s:84056  .debug_str:0000000000014562 .LASF3287
     /tmp/cc7jEFKv.s:76538  .debug_str:0000000000000344 .LASF3288
     /tmp/cc7jEFKv.s:79054  .debug_str:0000000000006cdf .LASF3289
     /tmp/cc7jEFKv.s:81280  .debug_str:000000000000cb29 .LASF3290
     /tmp/cc7jEFKv.s:79780  .debug_str:0000000000008df6 .LASF3291
     /tmp/cc7jEFKv.s:80406  .debug_str:000000000000a914 .LASF3292
     /tmp/cc7jEFKv.s:81414  .debug_str:000000000000d173 .LASF3293
     /tmp/cc7jEFKv.s:80526  .debug_str:000000000000ad77 .LASF3294
     /tmp/cc7jEFKv.s:80138  .debug_str:0000000000009d84 .LASF3295
     /tmp/cc7jEFKv.s:79028  .debug_str:0000000000006bd6 .LASF3296
     /tmp/cc7jEFKv.s:81700  .debug_str:000000000000df35 .LASF3297
     /tmp/cc7jEFKv.s:81550  .debug_str:000000000000d7be .LASF3298
     /tmp/cc7jEFKv.s:81910  .debug_str:000000000000e84c .LASF3299
     /tmp/cc7jEFKv.s:78892  .debug_str:0000000000006543 .LASF3300
     /tmp/cc7jEFKv.s:83708  .debug_str:0000000000013631 .LASF3301
     /tmp/cc7jEFKv.s:78530  .debug_str:0000000000005784 .LASF3302
     /tmp/cc7jEFKv.s:83786  .debug_str:0000000000013929 .LASF3303
     /tmp/cc7jEFKv.s:83162  .debug_str:0000000000011e92 .LASF3304
     /tmp/cc7jEFKv.s:82308  .debug_str:000000000000fa09 .LASF3305
     /tmp/cc7jEFKv.s:80176  .debug_str:0000000000009f31 .LASF3306
     /tmp/cc7jEFKv.s:79656  .debug_str:000000000000889c .LASF3307
     /tmp/cc7jEFKv.s:78990  .debug_str:00000000000069db .LASF3308
     /tmp/cc7jEFKv.s:83890  .debug_str:0000000000013d55 .LASF3309
     /tmp/cc7jEFKv.s:83420  .debug_str:0000000000012902 .LASF3310
     /tmp/cc7jEFKv.s:80720  .debug_str:000000000000b4a5 .LASF3311
     /tmp/cc7jEFKv.s:79676  .debug_str:000000000000898d .LASF3312
     /tmp/cc7jEFKv.s:82706  .debug_str:0000000000010bff .LASF3313
     /tmp/cc7jEFKv.s:82708  .debug_str:0000000000010c05 .LASF3314
     /tmp/cc7jEFKv.s:77754  .debug_str:00000000000036a4 .LASF3315
     /tmp/cc7jEFKv.s:79064  .debug_str:0000000000006d41 .LASF3316
     /tmp/cc7jEFKv.s:80070  .debug_str:0000000000009a4c .LASF3317
     /tmp/cc7jEFKv.s:77952  .debug_str:0000000000003eda .LASF3318
     /tmp/cc7jEFKv.s:83728  .debug_str:0000000000013701 .LASF3319
     /tmp/cc7jEFKv.s:77658  .debug_str:0000000000003257 .LASF3320
     /tmp/cc7jEFKv.s:76772  .debug_str:0000000000000cbb .LASF3321
     /tmp/cc7jEFKv.s:77320  .debug_str:00000000000022ae .LASF3322
     /tmp/cc7jEFKv.s:80620  .debug_str:000000000000b10b .LASF3323
     /tmp/cc7jEFKv.s:81862  .debug_str:000000000000e669 .LASF3324
     /tmp/cc7jEFKv.s:82754  .debug_str:0000000000010dcc .LASF3325
     /tmp/cc7jEFKv.s:82684  .debug_str:0000000000010b1a .LASF3326
     /tmp/cc7jEFKv.s:81570  .debug_str:000000000000d8b7 .LASF3327
     /tmp/cc7jEFKv.s:78784  .debug_str:0000000000006148 .LASF3328
     /tmp/cc7jEFKv.s:78680  .debug_str:0000000000005d2e .LASF3329
     /tmp/cc7jEFKv.s:77720  .debug_str:0000000000003509 .LASF3330
     /tmp/cc7jEFKv.s:83412  .debug_str:00000000000128a7 .LASF3331
     /tmp/cc7jEFKv.s:77206  .debug_str:0000000000001de7 .LASF3332
     /tmp/cc7jEFKv.s:77156  .debug_str:0000000000001bcd .LASF3333
     /tmp/cc7jEFKv.s:78512  .debug_str:00000000000056df .LASF3334
     /tmp/cc7jEFKv.s:78514  .debug_str:00000000000056e9 .LASF3335
     /tmp/cc7jEFKv.s:78516  .debug_str:00000000000056f3 .LASF3336
     /tmp/cc7jEFKv.s:78518  .debug_str:00000000000056fd .LASF3337
     /tmp/cc7jEFKv.s:78520  .debug_str:0000000000005707 .LASF3338
     /tmp/cc7jEFKv.s:82774  .debug_str:0000000000010eb5 .LASF3339
     /tmp/cc7jEFKv.s:78522  .debug_str:0000000000005711 .LASF3340
     /tmp/cc7jEFKv.s:82622  .debug_str:00000000000107ef .LASF3341
     /tmp/cc7jEFKv.s:77340  .debug_str:0000000000002391 .LASF3342
     /tmp/cc7jEFKv.s:83866  .debug_str:0000000000013c68 .LASF3343
     /tmp/cc7jEFKv.s:82208  .debug_str:000000000000f56b .LASF3344
     /tmp/cc7jEFKv.s:83756  .debug_str:00000000000137bd .LASF3345
     /tmp/cc7jEFKv.s:77326  .debug_str:00000000000022ef .LASF3346
     /tmp/cc7jEFKv.s:83682  .debug_str:0000000000013504 .LASF3347
     /tmp/cc7jEFKv.s:82210  .debug_str:000000000000f576 .LASF3348
     /tmp/cc7jEFKv.s:83020  .debug_str:0000000000011942 .LASF3349
     /tmp/cc7jEFKv.s:78628  .debug_str:0000000000005b6c .LASF3350
     /tmp/cc7jEFKv.s:82212  .debug_str:000000000000f581 .LASF3351
     /tmp/cc7jEFKv.s:82322  .debug_str:000000000000faa6 .LASF3352
     /tmp/cc7jEFKv.s:83990  .debug_str:000000000001427d .LASF3353
     /tmp/cc7jEFKv.s:79822  .debug_str:0000000000009006 .LASF3354
     /tmp/cc7jEFKv.s:79764  .debug_str:0000000000008d5b .LASF3355
     /tmp/cc7jEFKv.s:77374  .debug_str:0000000000002552 .LASF3356
     /tmp/cc7jEFKv.s:77174  .debug_str:0000000000001ca5 .LASF3357
     /tmp/cc7jEFKv.s:82824  .debug_str:00000000000110db .LASF3358
     /tmp/cc7jEFKv.s:77076  .debug_str:000000000000180f .LASF3359
     /tmp/cc7jEFKv.s:79920  .debug_str:000000000000947a .LASF3360
     /tmp/cc7jEFKv.s:82346  .debug_str:000000000000fbfe .LASF3361
     /tmp/cc7jEFKv.s:81584  .debug_str:000000000000d976 .LASF3362
     /tmp/cc7jEFKv.s:81240  .debug_str:000000000000c940 .LASF3363
     /tmp/cc7jEFKv.s:81586  .debug_str:000000000000d981 .LASF3364
     /tmp/cc7jEFKv.s:78344  .debug_str:00000000000050ab .LASF3365
     /tmp/cc7jEFKv.s:83116  .debug_str:0000000000011d0a .LASF3366
     /tmp/cc7jEFKv.s:83462  .debug_str:0000000000012ae1 .LASF3367
     /tmp/cc7jEFKv.s:82130  .debug_str:000000000000f22e .LASF3368
     /tmp/cc7jEFKv.s:78002  .debug_str:000000000000413a .LASF3369
     /tmp/cc7jEFKv.s:80624  .debug_str:000000000000b137 .LASF3370
     /tmp/cc7jEFKv.s:83404  .debug_str:0000000000012857 .LASF3371
     /tmp/cc7jEFKv.s:79250  .debug_str:00000000000075e8 .LASF3372
     /tmp/cc7jEFKv.s:80794  .debug_str:000000000000b76b .LASF3373
     /tmp/cc7jEFKv.s:80956  .debug_str:000000000000bd88 .LASF3374
     /tmp/cc7jEFKv.s:79722  .debug_str:0000000000008b44 .LASF3375
     /tmp/cc7jEFKv.s:80958  .debug_str:000000000000bd93 .LASF3376
     /tmp/cc7jEFKv.s:81740  .debug_str:000000000000e0bb .LASF3377
     /tmp/cc7jEFKv.s:80960  .debug_str:000000000000bd9e .LASF3378
     /tmp/cc7jEFKv.s:82090  .debug_str:000000000000f085 .LASF3379
     /tmp/cc7jEFKv.s:76690  .debug_str:00000000000009af .LASF3380
     /tmp/cc7jEFKv.s:78950  .debug_str:0000000000006814 .LASF3381
     /tmp/cc7jEFKv.s:78534  .debug_str:00000000000057a9 .LASF3382
     /tmp/cc7jEFKv.s:81464  .debug_str:000000000000d3d8 .LASF3383
     /tmp/cc7jEFKv.s:78536  .debug_str:00000000000057b4 .LASF3384
     /tmp/cc7jEFKv.s:81798  .debug_str:000000000000e31c .LASF3385
     /tmp/cc7jEFKv.s:80238  .debug_str:000000000000a1e8 .LASF3386
     /tmp/cc7jEFKv.s:78190  .debug_str:00000000000049f1 .LASF3387
     /tmp/cc7jEFKv.s:78466  .debug_str:00000000000055a1 .LASF3388
     /tmp/cc7jEFKv.s:79156  .debug_str:0000000000007150 .LASF3389
     /tmp/cc7jEFKv.s:80242  .debug_str:000000000000a219 .LASF3390
     /tmp/cc7jEFKv.s:82284  .debug_str:000000000000f90c .LASF3391
     /tmp/cc7jEFKv.s:81942  .debug_str:000000000000e9b6 .LASF3392
     /tmp/cc7jEFKv.s:79852  .debug_str:0000000000009176 .LASF3393
     /tmp/cc7jEFKv.s:78760  .debug_str:0000000000006002 .LASF3394
     /tmp/cc7jEFKv.s:83676  .debug_str:00000000000134c1 .LASF3395
     /tmp/cc7jEFKv.s:78768  .debug_str:000000000000604d .LASF3396
     /tmp/cc7jEFKv.s:83012  .debug_str:00000000000118fe .LASF3397
     /tmp/cc7jEFKv.s:83014  .debug_str:000000000001190f .LASF3398
     /tmp/cc7jEFKv.s:83016  .debug_str:0000000000011920 .LASF3399
     /tmp/cc7jEFKv.s:83018  .debug_str:0000000000011931 .LASF3400
     /tmp/cc7jEFKv.s:84182  .debug_str:0000000000014ab0 .LASF3401
     /tmp/cc7jEFKv.s:79362  .debug_str:0000000000007a28 .LASF3402
     /tmp/cc7jEFKv.s:79418  .debug_str:0000000000007d0f .LASF3403
     /tmp/cc7jEFKv.s:81322  .debug_str:000000000000cd1b .LASF3404
     /tmp/cc7jEFKv.s:82360  .debug_str:000000000000fcad .LASF3405
     /tmp/cc7jEFKv.s:79814  .debug_str:0000000000008fbb .LASF3406
     /tmp/cc7jEFKv.s:79742  .debug_str:0000000000008c78 .LASF3407
     /tmp/cc7jEFKv.s:79100  .debug_str:0000000000006eec .LASF3408
     /tmp/cc7jEFKv.s:81318  .debug_str:000000000000ccf5 .LASF3409
     /tmp/cc7jEFKv.s:79094  .debug_str:0000000000006e87 .LASF3410
     /tmp/cc7jEFKv.s:83394  .debug_str:00000000000127d8 .LASF3411
     /tmp/cc7jEFKv.s:81324  .debug_str:000000000000cd2a .LASF3412
     /tmp/cc7jEFKv.s:80738  .debug_str:000000000000b567 .LASF3413
     /tmp/cc7jEFKv.s:77162  .debug_str:0000000000001c0a .LASF3414
     /tmp/cc7jEFKv.s:80022  .debug_str:000000000000989b .LASF3415
     /tmp/cc7jEFKv.s:83754  .debug_str:00000000000137b1 .LASF3416
     /tmp/cc7jEFKv.s:80598  .debug_str:000000000000b00e .LASF3417
     /tmp/cc7jEFKv.s:81032  .debug_str:000000000000bffb .LASF3418
     /tmp/cc7jEFKv.s:78188  .debug_str:00000000000049e6 .LASF3419
     /tmp/cc7jEFKv.s:79340  .debug_str:000000000000792d .LASF3420
     /tmp/cc7jEFKv.s:81702  .debug_str:000000000000df46 .LASF3421
     /tmp/cc7jEFKv.s:82410  .debug_str:000000000000feb3 .LASF3422
     /tmp/cc7jEFKv.s:77140  .debug_str:0000000000001af9 .LASF3423
     /tmp/cc7jEFKv.s:78170  .debug_str:000000000000493b .LASF3424
     /tmp/cc7jEFKv.s:83478  .debug_str:0000000000012bb2 .LASF3425
     /tmp/cc7jEFKv.s:79570  .debug_str:0000000000008473 .LASF3426
     /tmp/cc7jEFKv.s:83560  .debug_str:0000000000012f4f .LASF3427
     /tmp/cc7jEFKv.s:83562  .debug_str:0000000000012f5a .LASF3428
     /tmp/cc7jEFKv.s:77050  .debug_str:00000000000016ff .LASF3429
     /tmp/cc7jEFKv.s:78226  .debug_str:0000000000004b9f .LASF3430
     /tmp/cc7jEFKv.s:82932  .debug_str:000000000001164a .LASF3431
     /tmp/cc7jEFKv.s:81648  .debug_str:000000000000dcd9 .LASF3432
     /tmp/cc7jEFKv.s:78184  .debug_str:00000000000049cc .LASF3433
     /tmp/cc7jEFKv.s:83010  .debug_str:00000000000118f5 .LASF3434
     /tmp/cc7jEFKv.s:81406  .debug_str:000000000000d10d .LASF3435
     /tmp/cc7jEFKv.s:84090  .debug_str:00000000000146be .LASF3436
     /tmp/cc7jEFKv.s:82124  .debug_str:000000000000f1fe .LASF3437
     /tmp/cc7jEFKv.s:81646  .debug_str:000000000000dcc9 .LASF3438
     /tmp/cc7jEFKv.s:82296  .debug_str:000000000000f99b .LASF3439
     /tmp/cc7jEFKv.s:76582  .debug_str:0000000000000518 .LASF3440
     /tmp/cc7jEFKv.s:80760  .debug_str:000000000000b655 .LASF3441
     /tmp/cc7jEFKv.s:78858  .debug_str:000000000000647a .LASF3442
     /tmp/cc7jEFKv.s:83326  .debug_str:000000000001251e .LASF3443
     /tmp/cc7jEFKv.s:81982  .debug_str:000000000000eba8 .LASF3444
     /tmp/cc7jEFKv.s:82310  .debug_str:000000000000fa14 .LASF3445
     /tmp/cc7jEFKv.s:78004  .debug_str:0000000000004160 .LASF3446
     /tmp/cc7jEFKv.s:81924  .debug_str:000000000000e8ea .LASF3447
     /tmp/cc7jEFKv.s:83488  .debug_str:0000000000012c17 .LASF3448
     /tmp/cc7jEFKv.s:83448  .debug_str:0000000000012a44 .LASF3449
     /tmp/cc7jEFKv.s:82674  .debug_str:0000000000010a91 .LASF3450
     /tmp/cc7jEFKv.s:82102  .debug_str:000000000000f104 .LASF3451
     /tmp/cc7jEFKv.s:77410  .debug_str:000000000000270e .LASF3452
     /tmp/cc7jEFKv.s:78112  .debug_str:00000000000046ac .LASF3453
     /tmp/cc7jEFKv.s:83422  .debug_str:0000000000012931 .LASF3454
     /tmp/cc7jEFKv.s:81480  .debug_str:000000000000d477 .LASF3455
     /tmp/cc7jEFKv.s:81618  .debug_str:000000000000db0c .LASF3456
     /tmp/cc7jEFKv.s:78232  .debug_str:0000000000004bed .LASF3457
     /tmp/cc7jEFKv.s:80546  .debug_str:000000000000ae7f .LASF3458
     /tmp/cc7jEFKv.s:76738  .debug_str:0000000000000b36 .LASF3459
     /tmp/cc7jEFKv.s:83666  .debug_str:0000000000013413 .LASF3460
     /tmp/cc7jEFKv.s:78538  .debug_str:00000000000057bf .LASF3461
     /tmp/cc7jEFKv.s:81260  .debug_str:000000000000ca57 .LASF3462
     /tmp/cc7jEFKv.s:83766  .debug_str:000000000001383d .LASF3463
     /tmp/cc7jEFKv.s:80684  .debug_str:000000000000b39c .LASF3464
     /tmp/cc7jEFKv.s:81348  .debug_str:000000000000ce01 .LASF3465
     /tmp/cc7jEFKv.s:80512  .debug_str:000000000000ac97 .LASF3466
     /tmp/cc7jEFKv.s:81496  .debug_str:000000000000d530 .LASF3467
     /tmp/cc7jEFKv.s:82230  .debug_str:000000000000f666 .LASF3468
     /tmp/cc7jEFKv.s:82608  .debug_str:0000000000010741 .LASF3469
     /tmp/cc7jEFKv.s:79798  .debug_str:0000000000008ec2 .LASF3470
     /tmp/cc7jEFKv.s:78022  .debug_str:000000000000422c .LASF3471
     /tmp/cc7jEFKv.s:83318  .debug_str:00000000000124c7 .LASF3472
     /tmp/cc7jEFKv.s:83630  .debug_str:000000000001323b .LASF3473
     /tmp/cc7jEFKv.s:83078  .debug_str:0000000000011b5c .LASF3474
     /tmp/cc7jEFKv.s:76592  .debug_str:000000000000059b .LASF3475
     /tmp/cc7jEFKv.s:77082  .debug_str:000000000000185d .LASF3476
     /tmp/cc7jEFKv.s:77428  .debug_str:00000000000027d2 .LASF3477
     /tmp/cc7jEFKv.s:77800  .debug_str:000000000000388c .LASF3478
     /tmp/cc7jEFKv.s:78138  .debug_str:00000000000047f4 .LASF3479
     /tmp/cc7jEFKv.s:77508  .debug_str:0000000000002bfa .LASF3480
     /tmp/cc7jEFKv.s:79030  .debug_str:0000000000006be5 .LASF3481
     /tmp/cc7jEFKv.s:77352  .debug_str:000000000000241c .LASF3482
     /tmp/cc7jEFKv.s:78088  .debug_str:000000000000454a .LASF3483
     /tmp/cc7jEFKv.s:78116  .debug_str:00000000000046eb .LASF3484
     /tmp/cc7jEFKv.s:77692  .debug_str:00000000000033bb .LASF3485
     /tmp/cc7jEFKv.s:79766  .debug_str:0000000000008d66 .LASF3486
     /tmp/cc7jEFKv.s:84004  .debug_str:0000000000014302 .LASF3487
     /tmp/cc7jEFKv.s:79746  .debug_str:0000000000008cad .LASF3488
     /tmp/cc7jEFKv.s:80146  .debug_str:0000000000009dd8 .LASF3489
     /tmp/cc7jEFKv.s:77734  .debug_str:00000000000035e0 .LASF3490
     /tmp/cc7jEFKv.s:82562  .debug_str:0000000000010513 .LASF3491
     /tmp/cc7jEFKv.s:82394  .debug_str:000000000000fe1a .LASF3492
     /tmp/cc7jEFKv.s:82022  .debug_str:000000000000ed7c .LASF3493
     /tmp/cc7jEFKv.s:81384  .debug_str:000000000000cfbf .LASF3494
     /tmp/cc7jEFKv.s:78210  .debug_str:0000000000004af3 .LASF3495
     /tmp/cc7jEFKv.s:77182  .debug_str:0000000000001d1d .LASF3496
     /tmp/cc7jEFKv.s:79142  .debug_str:00000000000070cd .LASF3497
     /tmp/cc7jEFKv.s:81128  .debug_str:000000000000c40a .LASF3498
     /tmp/cc7jEFKv.s:79234  .debug_str:0000000000007523 .LASF3499
     /tmp/cc7jEFKv.s:77704  .debug_str:0000000000003463 .LASF3500
     /tmp/cc7jEFKv.s:81852  .debug_str:000000000000e5ce .LASF3501
     /tmp/cc7jEFKv.s:79858  .debug_str:00000000000091bf .LASF3502
     /tmp/cc7jEFKv.s:77042  .debug_str:00000000000016a5 .LASF3503
     /tmp/cc7jEFKv.s:77164  .debug_str:0000000000001c1c .LASF3504
     /tmp/cc7jEFKv.s:82590  .debug_str:000000000001064e .LASF3505
     /tmp/cc7jEFKv.s:82938  .debug_str:0000000000011680 .LASF3506
     /tmp/cc7jEFKv.s:82630  .debug_str:000000000001083b .LASF3507
     /tmp/cc7jEFKv.s:83442  .debug_str:00000000000129f5 .LASF3508
     /tmp/cc7jEFKv.s:81212  .debug_str:000000000000c7eb .LASF3509
     /tmp/cc7jEFKv.s:77244  .debug_str:0000000000001f84 .LASF3510
     /tmp/cc7jEFKv.s:81094  .debug_str:000000000000c2c2 .LASF3511
     /tmp/cc7jEFKv.s:82610  .debug_str:000000000001076c .LASF3512
     /tmp/cc7jEFKv.s:83900  .debug_str:0000000000013dc8 .LASF3513
     /tmp/cc7jEFKv.s:79884  .debug_str:00000000000092eb .LASF3514
     /tmp/cc7jEFKv.s:79106  .debug_str:0000000000006f42 .LASF3515
     /tmp/cc7jEFKv.s:81896  .debug_str:000000000000e7c8 .LASF3516
     /tmp/cc7jEFKv.s:78886  .debug_str:000000000000650f .LASF3517
     /tmp/cc7jEFKv.s:79378  .debug_str:0000000000007ae4 .LASF3518
     /tmp/cc7jEFKv.s:78176  .debug_str:000000000000496c .LASF3519
     /tmp/cc7jEFKv.s:84234  .debug_str:0000000000014d08 .LASF3520
     /tmp/cc7jEFKv.s:78464  .debug_str:0000000000005586 .LASF3521
     /tmp/cc7jEFKv.s:80518  .debug_str:000000000000ad05 .LASF3522
     /tmp/cc7jEFKv.s:81598  .debug_str:000000000000da14 .LASF3523
     /tmp/cc7jEFKv.s:76526  .debug_str:00000000000002ac .LASF3524
     /tmp/cc7jEFKv.s:79464  .debug_str:0000000000007f29 .LASF3525
     /tmp/cc7jEFKv.s:78922  .debug_str:00000000000066ce .LASF3526
     /tmp/cc7jEFKv.s:77010  .debug_str:00000000000015ed .LASF3527
     /tmp/cc7jEFKv.s:77296  .debug_str:000000000000217b .LASF3528
     /tmp/cc7jEFKv.s:79608  .debug_str:0000000000008688 .LASF3529
     /tmp/cc7jEFKv.s:79632  .debug_str:00000000000087b3 .LASF3530
     /tmp/cc7jEFKv.s:76910  .debug_str:0000000000001198 .LASF3531
     /tmp/cc7jEFKv.s:77084  .debug_str:0000000000001887 .LASF3532
     /tmp/cc7jEFKv.s:78832  .debug_str:00000000000062e9 .LASF3533
     /tmp/cc7jEFKv.s:76530  .debug_str:00000000000002f0 .LASF3534
     /tmp/cc7jEFKv.s:77126  .debug_str:0000000000001a4c .LASF3535
     /tmp/cc7jEFKv.s:81932  .debug_str:000000000000e93b .LASF3536
     /tmp/cc7jEFKv.s:78958  .debug_str:000000000000687e .LASF3537
     /tmp/cc7jEFKv.s:83690  .debug_str:0000000000013566 .LASF3538
     /tmp/cc7jEFKv.s:80786  .debug_str:000000000000b717 .LASF3539
     /tmp/cc7jEFKv.s:76688  .debug_str:0000000000000999 .LASF3540
     /tmp/cc7jEFKv.s:76584  .debug_str:000000000000052c .LASF3541
     /tmp/cc7jEFKv.s:80818  .debug_str:000000000000b8ad .LASF3542
     /tmp/cc7jEFKv.s:84054  .debug_str:0000000000014544 .LASF3543
     /tmp/cc7jEFKv.s:83446  .debug_str:0000000000012a28 .LASF3544
     /tmp/cc7jEFKv.s:80538  .debug_str:000000000000ae38 .LASF3545
     /tmp/cc7jEFKv.s:81504  .debug_str:000000000000d583 .LASF3546
     /tmp/cc7jEFKv.s:79908  .debug_str:00000000000093f2 .LASF3547
     /tmp/cc7jEFKv.s:82700  .debug_str:0000000000010bb6 .LASF3548
     /tmp/cc7jEFKv.s:80952  .debug_str:000000000000bd4d .LASF3549
     /tmp/cc7jEFKv.s:79098  .debug_str:0000000000006ed1 .LASF3550
     /tmp/cc7jEFKv.s:83472  .debug_str:0000000000012b66 .LASF3551
     /tmp/cc7jEFKv.s:81664  .debug_str:000000000000ddb3 .LASF3552
     /tmp/cc7jEFKv.s:83300  .debug_str:0000000000012414 .LASF3553
     /tmp/cc7jEFKv.s:82530  .debug_str:00000000000103cf .LASF3554
     /tmp/cc7jEFKv.s:83172  .debug_str:0000000000011f4c .LASF3555
     /tmp/cc7jEFKv.s:78470  .debug_str:00000000000055c9 .LASF3556
     /tmp/cc7jEFKv.s:77962  .debug_str:0000000000003f50 .LASF3557
     /tmp/cc7jEFKv.s:77836  .debug_str:0000000000003a5b .LASF3558
     /tmp/cc7jEFKv.s:84040  .debug_str:00000000000144c0 .LASF3559
     /tmp/cc7jEFKv.s:81398  .debug_str:000000000000d076 .LASF3560
     /tmp/cc7jEFKv.s:82930  .debug_str:0000000000011632 .LASF3561
     /tmp/cc7jEFKv.s:79288  .debug_str:0000000000007751 .LASF3562
     /tmp/cc7jEFKv.s:82268  .debug_str:000000000000f83f .LASF3563
     /tmp/cc7jEFKv.s:79786  .debug_str:0000000000008e32 .LASF3564
     /tmp/cc7jEFKv.s:80262  .debug_str:000000000000a2be .LASF3565
     /tmp/cc7jEFKv.s:81350  .debug_str:000000000000ce2a .LASF3566
     /tmp/cc7jEFKv.s:81244  .debug_str:000000000000c972 .LASF3567
     /tmp/cc7jEFKv.s:79048  .debug_str:0000000000006cb0 .LASF3568
     /tmp/cc7jEFKv.s:79978  .debug_str:0000000000009731 .LASF3569
     /tmp/cc7jEFKv.s:80852  .debug_str:000000000000b9bf .LASF3570
     /tmp/cc7jEFKv.s:77760  .debug_str:00000000000036c2 .LASF3571
     /tmp/cc7jEFKv.s:81858  .debug_str:000000000000e648 .LASF3572
     /tmp/cc7jEFKv.s:81922  .debug_str:000000000000e8d3 .LASF3573
     /tmp/cc7jEFKv.s:78906  .debug_str:0000000000006614 .LASF3574
     /tmp/cc7jEFKv.s:83618  .debug_str:0000000000013180 .LASF3575
     /tmp/cc7jEFKv.s:82244  .debug_str:000000000000f731 .LASF3576
     /tmp/cc7jEFKv.s:77614  .debug_str:0000000000003064 .LASF3577
     /tmp/cc7jEFKv.s:82422  .debug_str:000000000000ff25 .LASF3578
     /tmp/cc7jEFKv.s:79458  .debug_str:0000000000007ee3 .LASF3579
     /tmp/cc7jEFKv.s:84150  .debug_str:0000000000014915 .LASF3580
     /tmp/cc7jEFKv.s:77046  .debug_str:00000000000016c8 .LASF3581
     /tmp/cc7jEFKv.s:78084  .debug_str:0000000000004512 .LASF3582
     /tmp/cc7jEFKv.s:80660  .debug_str:000000000000b242 .LASF3583
     /tmp/cc7jEFKv.s:80010  .debug_str:0000000000009840 .LASF3584
     /tmp/cc7jEFKv.s:76908  .debug_str:0000000000001181 .LASF3585
     /tmp/cc7jEFKv.s:78314  .debug_str:0000000000005001 .LASF3586
     /tmp/cc7jEFKv.s:77820  .debug_str:00000000000039a0 .LASF3587
     /tmp/cc7jEFKv.s:83504  .debug_str:0000000000012ca7 .LASF3588
     /tmp/cc7jEFKv.s:80174  .debug_str:0000000000009f1a .LASF3589
     /tmp/cc7jEFKv.s:77436  .debug_str:0000000000002838 .LASF3590
     /tmp/cc7jEFKv.s:82252  .debug_str:000000000000f78d .LASF3591
     /tmp/cc7jEFKv.s:78012  .debug_str:00000000000041c3 .LASF3592
     /tmp/cc7jEFKv.s:78058  .debug_str:00000000000043b3 .LASF3593
     /tmp/cc7jEFKv.s:78046  .debug_str:0000000000004343 .LASF3594
     /tmp/cc7jEFKv.s:79122  .debug_str:0000000000006fc0 .LASF3595
     /tmp/cc7jEFKv.s:82766  .debug_str:0000000000010e3a .LASF3596
     /tmp/cc7jEFKv.s:79810  .debug_str:0000000000008f95 .LASF3597
     /tmp/cc7jEFKv.s:84106  .debug_str:00000000000147a6 .LASF3598
     /tmp/cc7jEFKv.s:81628  .debug_str:000000000000dbad .LASF3599
     /tmp/cc7jEFKv.s:79450  .debug_str:0000000000007e90 .LASF3600
     /tmp/cc7jEFKv.s:80618  .debug_str:000000000000b0f4 .LASF3601
     /tmp/cc7jEFKv.s:77706  .debug_str:0000000000003478 .LASF3602
     /tmp/cc7jEFKv.s:77264  .debug_str:000000000000204c .LASF3603
     /tmp/cc7jEFKv.s:82098  .debug_str:000000000000f0e0 .LASF3604
     /tmp/cc7jEFKv.s:79072  .debug_str:0000000000006dab .LASF3605
     /tmp/cc7jEFKv.s:83840  .debug_str:0000000000013b4f .LASF3606
     /tmp/cc7jEFKv.s:80942  .debug_str:000000000000bcee .LASF3607
     /tmp/cc7jEFKv.s:77778  .debug_str:000000000000377a .LASF3608
     /tmp/cc7jEFKv.s:76808  .debug_str:0000000000000dac .LASF3609
     /tmp/cc7jEFKv.s:79618  .debug_str:0000000000008708 .LASF3610
     /tmp/cc7jEFKv.s:76546  .debug_str:000000000000039d .LASF3611
     /tmp/cc7jEFKv.s:77086  .debug_str:000000000000189e .LASF3612
     /tmp/cc7jEFKv.s:78302  .debug_str:0000000000004f8e .LASF3613
     /tmp/cc7jEFKv.s:83338  .debug_str:0000000000012584 .LASF3614
     /tmp/cc7jEFKv.s:81118  .debug_str:000000000000c3be .LASF3615
     /tmp/cc7jEFKv.s:77104  .debug_str:0000000000001946 .LASF3616
     /tmp/cc7jEFKv.s:81894  .debug_str:000000000000e7b1 .LASF3617
     /tmp/cc7jEFKv.s:80734  .debug_str:000000000000b530 .LASF3618
     /tmp/cc7jEFKv.s:79914  .debug_str:000000000000943f .LASF3619
     /tmp/cc7jEFKv.s:80748  .debug_str:000000000000b5d1 .LASF3620
     /tmp/cc7jEFKv.s:77592  .debug_str:0000000000002f7f .LASF3621
     /tmp/cc7jEFKv.s:82398  .debug_str:000000000000fe42 .LASF3622
     /tmp/cc7jEFKv.s:80168  .debug_str:0000000000009ed5 .LASF3623
     /tmp/cc7jEFKv.s:77556  .debug_str:0000000000002e0c .LASF3624
     /tmp/cc7jEFKv.s:82612  .debug_str:0000000000010788 .LASF3625
     /tmp/cc7jEFKv.s:79430  .debug_str:0000000000007d7f .LASF3626
     /tmp/cc7jEFKv.s:83362  .debug_str:0000000000012698 .LASF3627
     /tmp/cc7jEFKv.s:83476  .debug_str:0000000000012b91 .LASF3628
     /tmp/cc7jEFKv.s:77574  .debug_str:0000000000002ec7 .LASF3629
     /tmp/cc7jEFKv.s:76830  .debug_str:0000000000000ed2 .LASF3630
     /tmp/cc7jEFKv.s:76856  .debug_str:0000000000000fce .LASF3631
     /tmp/cc7jEFKv.s:76980  .debug_str:0000000000001491 .LASF3632
     /tmp/cc7jEFKv.s:78246  .debug_str:0000000000004cdc .LASF3633
     /tmp/cc7jEFKv.s:82122  .debug_str:000000000000f1ee .LASF3634
     /tmp/cc7jEFKv.s:80118  .debug_str:0000000000009cc6 .LASF3635
     /tmp/cc7jEFKv.s:81356  .debug_str:000000000000ce8b .LASF3636
     /tmp/cc7jEFKv.s:80120  .debug_str:0000000000009cd0 .LASF3637
     /tmp/cc7jEFKv.s:81286  .debug_str:000000000000cb5a .LASF3638
     /tmp/cc7jEFKv.s:81440  .debug_str:000000000000d2c7 .LASF3639
     /tmp/cc7jEFKv.s:82826  .debug_str:00000000000110e6 .LASF3640
     /tmp/cc7jEFKv.s:79770  .debug_str:0000000000008db2 .LASF3641
     /tmp/cc7jEFKv.s:82682  .debug_str:0000000000010b0a .LASF3642
     /tmp/cc7jEFKv.s:81242  .debug_str:000000000000c967 .LASF3643
     /tmp/cc7jEFKv.s:76572  .debug_str:00000000000004b7 .LASF3644
     /tmp/cc7jEFKv.s:79776  .debug_str:0000000000008dd1 .LASF3645
     /tmp/cc7jEFKv.s:83334  .debug_str:0000000000012553 .LASF3646
     /tmp/cc7jEFKv.s:77294  .debug_str:0000000000002170 .LASF3647
     /tmp/cc7jEFKv.s:80696  .debug_str:000000000000b435 .LASF3648
     /tmp/cc7jEFKv.s:76774  .debug_str:0000000000000cc5 .LASF3649
     /tmp/cc7jEFKv.s:80510  .debug_str:000000000000ac87 .LASF3650
     /tmp/cc7jEFKv.s:81282  .debug_str:000000000000cb41 .LASF3651
     /tmp/cc7jEFKv.s:81494  .debug_str:000000000000d520 .LASF3652
     /tmp/cc7jEFKv.s:82972  .debug_str:00000000000117df .LASF3653
     /tmp/cc7jEFKv.s:80440  .debug_str:000000000000aa1b .LASF3654
     /tmp/cc7jEFKv.s:77638  .debug_str:0000000000003184 .LASF3655
     /tmp/cc7jEFKv.s:81954  .debug_str:000000000000ea3c .LASF3656
     /tmp/cc7jEFKv.s:80132  .debug_str:0000000000009d66 .LASF3657
     /tmp/cc7jEFKv.s:80134  .debug_str:0000000000009d70 .LASF3658
     /tmp/cc7jEFKv.s:83538  .debug_str:0000000000012e59 .LASF3659
     /tmp/cc7jEFKv.s:78180  .debug_str:0000000000004997 .LASF3660
     /tmp/cc7jEFKv.s:77512  .debug_str:0000000000002c4f .LASF3661
     /tmp/cc7jEFKv.s:78140  .debug_str:000000000000481e .LASF3662
     /tmp/cc7jEFKv.s:83752  .debug_str:000000000001379e .LASF3663
     /tmp/cc7jEFKv.s:78702  .debug_str:0000000000005df3 .LASF3664
     /tmp/cc7jEFKv.s:82034  .debug_str:000000000000ee3f .LASF3665
     /tmp/cc7jEFKv.s:79082  .debug_str:0000000000006e13 .LASF3666
     /tmp/cc7jEFKv.s:79650  .debug_str:0000000000008877 .LASF3667
     /tmp/cc7jEFKv.s:79152  .debug_str:0000000000007136 .LASF3668
     /tmp/cc7jEFKv.s:83948  .debug_str:000000000001403a .LASF3669
     /tmp/cc7jEFKv.s:78988  .debug_str:00000000000069cb .LASF3670
     /tmp/cc7jEFKv.s:83468  .debug_str:0000000000012b46 .LASF3671
     /tmp/cc7jEFKv.s:81754  .debug_str:000000000000e18b .LASF3672
     /tmp/cc7jEFKv.s:77954  .debug_str:0000000000003ee2 .LASF3673
     /tmp/cc7jEFKv.s:79740  .debug_str:0000000000008c6c .LASF3674
     /tmp/cc7jEFKv.s:79930  .debug_str:00000000000094d5 .LASF3675
     /tmp/cc7jEFKv.s:78172  .debug_str:0000000000004943 .LASF3676
     /tmp/cc7jEFKv.s:79260  .debug_str:0000000000007655 .LASF3677
     /tmp/cc7jEFKv.s:76900  .debug_str:0000000000001128 .LASF3678
     /tmp/cc7jEFKv.s:81530  .debug_str:000000000000d702 .LASF3679
     /tmp/cc7jEFKv.s:77764  .debug_str:00000000000036e7 .LASF3680
     /tmp/cc7jEFKv.s:80106  .debug_str:0000000000009c46 .LASF3681
     /tmp/cc7jEFKv.s:77532  .debug_str:0000000000002d15 .LASF3682
     /tmp/cc7jEFKv.s:82896  .debug_str:000000000001148d .LASF3683
     /tmp/cc7jEFKv.s:77568  .debug_str:0000000000002e9a .LASF3684
     /tmp/cc7jEFKv.s:79298  .debug_str:000000000000778f .LASF3685
     /tmp/cc7jEFKv.s:80018  .debug_str:0000000000009887 .LASF3686
     /tmp/cc7jEFKv.s:80300  .debug_str:000000000000a477 .LASF3687
     /tmp/cc7jEFKv.s:82092  .debug_str:000000000000f0ac .LASF3688
     /tmp/cc7jEFKv.s:81050  .debug_str:000000000000c0cc .LASF3689
     /tmp/cc7jEFKv.s:79270  .debug_str:00000000000076b1 .LASF3690
     /tmp/cc7jEFKv.s:80452  .debug_str:000000000000aa97 .LASF3691
     /tmp/cc7jEFKv.s:81110  .debug_str:000000000000c355 .LASF3692
     /tmp/cc7jEFKv.s:82520  .debug_str:000000000001034a .LASF3693
     /tmp/cc7jEFKv.s:81904  .debug_str:000000000000e81c .LASF3694
     /tmp/cc7jEFKv.s:79528  .debug_str:00000000000082be .LASF3695
     /tmp/cc7jEFKv.s:82104  .debug_str:000000000000f120 .LASF3696
     /tmp/cc7jEFKv.s:84208  .debug_str:0000000000014c1e .LASF3697
     /tmp/cc7jEFKv.s:81208  .debug_str:000000000000c7c5 .LASF3698
     /tmp/cc7jEFKv.s:81676  .debug_str:000000000000de5d .LASF3699
     /tmp/cc7jEFKv.s:81610  .debug_str:000000000000daac .LASF3700
     /tmp/cc7jEFKv.s:77794  .debug_str:000000000000383d .LASF3701
     /tmp/cc7jEFKv.s:77416  .debug_str:000000000000274e .LASF3702
     /tmp/cc7jEFKv.s:80628  .debug_str:000000000000b14f .LASF3703
     /tmp/cc7jEFKv.s:78050  .debug_str:000000000000436b .LASF3704
     /tmp/cc7jEFKv.s:81506  .debug_str:000000000000d59e .LASF3705
     /tmp/cc7jEFKv.s:76516  .debug_str:0000000000000226 .LASF3706
     /tmp/cc7jEFKv.s:83606  .debug_str:0000000000013100 .LASF3707
     /tmp/cc7jEFKv.s:76986  .debug_str:00000000000014ef .LASF3708
     /tmp/cc7jEFKv.s:82732  .debug_str:0000000000010cd9 .LASF3709
     /tmp/cc7jEFKv.s:83970  .debug_str:0000000000014134 .LASF3710
     /tmp/cc7jEFKv.s:83808  .debug_str:00000000000139f0 .LASF3711
     /tmp/cc7jEFKv.s:82648  .debug_str:0000000000010963 .LASF3712
     /tmp/cc7jEFKv.s:82820  .debug_str:00000000000110bc .LASF3713
     /tmp/cc7jEFKv.s:77576  .debug_str:0000000000002ee8 .LASF3714
     /tmp/cc7jEFKv.s:76518  .debug_str:0000000000000242 .LASF3715
     /tmp/cc7jEFKv.s:81764  .debug_str:000000000000e1f3 .LASF3716
     /tmp/cc7jEFKv.s:82272  .debug_str:000000000000f87e .LASF3717
     /tmp/cc7jEFKv.s:78930  .debug_str:0000000000006724 .LASF3718
     /tmp/cc7jEFKv.s:77984  .debug_str:0000000000004077 .LASF3719
     /tmp/cc7jEFKv.s:78436  .debug_str:00000000000054ac .LASF3720
     /tmp/cc7jEFKv.s:76576  .debug_str:00000000000004d7 .LASF3721
     /tmp/cc7jEFKv.s:79192  .debug_str:0000000000007318 .LASF3722
     /tmp/cc7jEFKv.s:81332  .debug_str:000000000000cd87 .LASF3723
     /tmp/cc7jEFKv.s:79444  .debug_str:0000000000007e5d .LASF3724
     /tmp/cc7jEFKv.s:77790  .debug_str:0000000000003802 .LASF3725
     /tmp/cc7jEFKv.s:80544  .debug_str:000000000000ae71 .LASF3726
     /tmp/cc7jEFKv.s:78204  .debug_str:0000000000004ab8 .LASF3727
     /tmp/cc7jEFKv.s:83814  .debug_str:0000000000013a31 .LASF3728
     /tmp/cc7jEFKv.s:83818  .debug_str:0000000000013a50 .LASF3729
     /tmp/cc7jEFKv.s:78212  .debug_str:0000000000004b0f .LASF3730
     /tmp/cc7jEFKv.s:80554  .debug_str:000000000000aecd .LASF3731
     /tmp/cc7jEFKv.s:78216  .debug_str:0000000000004b40 .LASF3732
     /tmp/cc7jEFKv.s:80558  .debug_str:000000000000aee3 .LASF3733
     /tmp/cc7jEFKv.s:79070  .debug_str:0000000000006d8c .LASF3734
     /tmp/cc7jEFKv.s:83542  .debug_str:0000000000012e7b .LASF3735
     /tmp/cc7jEFKv.s:76998  .debug_str:0000000000001561 .LASF3736
     /tmp/cc7jEFKv.s:77000  .debug_str:0000000000001576 .LASF3737
     /tmp/cc7jEFKv.s:77700  .debug_str:0000000000003427 .LASF3738
     /tmp/cc7jEFKv.s:76536  .debug_str:000000000000032e .LASF3739
     /tmp/cc7jEFKv.s:78812  .debug_str:00000000000061fc .LASF3740
     /tmp/cc7jEFKv.s:77166  .debug_str:0000000000001c37 .LASF3741
     /tmp/cc7jEFKv.s:82464  .debug_str:00000000000100b6 .LASF3742
     /tmp/cc7jEFKv.s:79502  .debug_str:0000000000008158 .LASF3743
     /tmp/cc7jEFKv.s:84252  .debug_str:0000000000014dd8 .LASF3744
     /tmp/cc7jEFKv.s:84236  .debug_str:0000000000014d22 .LASF3745
     /tmp/cc7jEFKv.s:80392  .debug_str:000000000000a887 .LASF3746
     /tmp/cc7jEFKv.s:81926  .debug_str:000000000000e90c .LASF3747
     /tmp/cc7jEFKv.s:81780  .debug_str:000000000000e27c .LASF3890
     /tmp/cc7jEFKv.s:81488  .debug_str:000000000000d4f8 .LASF3748
     /tmp/cc7jEFKv.s:80228  .debug_str:000000000000a199 .LASF3749
     /tmp/cc7jEFKv.s:81152  .debug_str:000000000000c523 .LASF3750
     /tmp/cc7jEFKv.s:81186  .debug_str:000000000000c6c9 .LASF3751
     /tmp/cc7jEFKv.s:81712  .debug_str:000000000000df96 .LASF3752
     /tmp/cc7jEFKv.s:81278  .debug_str:000000000000cb22 .LASF3753
     /tmp/cc7jEFKv.s:80250  .debug_str:000000000000a259 .LASF3754
     /tmp/cc7jEFKv.s:76968  .debug_str:000000000000140c .LASF3755
     /tmp/cc7jEFKv.s:83588  .debug_str:0000000000013057 .LASF3756
     /tmp/cc7jEFKv.s:81022  .debug_str:000000000000bf9b .LASF3757
     /tmp/cc7jEFKv.s:80866  .debug_str:000000000000ba1e .LASF3758
     /tmp/cc7jEFKv.s:84134  .debug_str:0000000000014868 .LASF3759
     /tmp/cc7jEFKv.s:79668  .debug_str:000000000000892d .LASF3760
     /tmp/cc7jEFKv.s:81034  .debug_str:000000000000c004 .LASF3761
     /tmp/cc7jEFKv.s:81652  .debug_str:000000000000dd0b .LASF3762
     /tmp/cc7jEFKv.s:78070  .debug_str:0000000000004459 .LASF3763
     /tmp/cc7jEFKv.s:77654  .debug_str:000000000000323c .LASF3764
     /tmp/cc7jEFKv.s:83354  .debug_str:000000000001261e .LASF3765
     /tmp/cc7jEFKv.s:80136  .debug_str:0000000000009d7a .LASF3766
     /tmp/cc7jEFKv.s:76594  .debug_str:00000000000005c5 .LASF3767
     /tmp/cc7jEFKv.s:80218  .debug_str:000000000000a154 .LASF3768
     /tmp/cc7jEFKv.s:76598  .debug_str:00000000000005f0 .LASF3769
     /tmp/cc7jEFKv.s:76600  .debug_str:00000000000005fb .LASF3770
     /tmp/cc7jEFKv.s:76602  .debug_str:0000000000000606 .LASF3771
     /tmp/cc7jEFKv.s:80520  .debug_str:000000000000ad23 .LASF3772
     /tmp/cc7jEFKv.s:76606  .debug_str:0000000000000616 .LASF3773
     /tmp/cc7jEFKv.s:76608  .debug_str:0000000000000621 .LASF3774
     /tmp/cc7jEFKv.s:77646  .debug_str:00000000000031e5 .LASF3775
     /tmp/cc7jEFKv.s:79962  .debug_str:000000000000968b .LASF3776
     /tmp/cc7jEFKv.s:80190  .debug_str:0000000000009fd4 .LASF3777
     /tmp/cc7jEFKv.s:83324  .debug_str:000000000001250f .LASF3778
     /tmp/cc7jEFKv.s:81252  .debug_str:000000000000c9e8 .LASF3779
     /tmp/cc7jEFKv.s:78960  .debug_str:0000000000006896 .LASF3780
     /tmp/cc7jEFKv.s:79696  .debug_str:0000000000008a6a .LASF3781
     /tmp/cc7jEFKv.s:77762  .debug_str:00000000000036d8 .LASF3782
     /tmp/cc7jEFKv.s:83048  .debug_str:0000000000011a94 .LASF3783
     /tmp/cc7jEFKv.s:80962  .debug_str:000000000000bda9 .LASF3784
     /tmp/cc7jEFKv.s:78688  .debug_str:0000000000005d7c .LASF3785
     /tmp/cc7jEFKv.s:79146  .debug_str:00000000000070fc .LASF3786
     /tmp/cc7jEFKv.s:77480  .debug_str:0000000000002a43 .LASF3788
     /tmp/cc7jEFKv.s:740    .text.disable_irq:0000000000000000 .LFB78
     /tmp/cc7jEFKv.s:960    .text.disable_irq:0000000000000144 .LFE78
     /tmp/cc7jEFKv.s:82690  .debug_str:0000000000010b5c .LASF3790
     /tmp/cc7jEFKv.s:83982  .debug_str:0000000000014209 .LASF3787
     /tmp/cc7jEFKv.s:74373  .debug_loc:0000000000000000 .LLST13
     /tmp/cc7jEFKv.s:800    .text.disable_irq:000000000000008e .LBB16
     /tmp/cc7jEFKv.s:956    .text.disable_irq:0000000000000142 .LBE16
     /tmp/cc7jEFKv.s:74385  .debug_loc:0000000000000037 .LLST14
     /tmp/cc7jEFKv.s:801    .text.disable_irq:000000000000008e .LBB17
     /tmp/cc7jEFKv.s:955    .text.disable_irq:0000000000000142 .LBE17
     /tmp/cc7jEFKv.s:74392  .debug_loc:000000000000005a .LLST15
     /tmp/cc7jEFKv.s:74435  .debug_loc:0000000000000128 .LLST16
     /tmp/cc7jEFKv.s:805    .text.disable_irq:000000000000008e .LBB18
     /tmp/cc7jEFKv.s:815    .text.disable_irq:0000000000000092 .LBE18
     /tmp/cc7jEFKv.s:83038  .debug_str:0000000000011a19 .LASF3794
     /tmp/cc7jEFKv.s:83146  .debug_str:0000000000011de7 .LASF3789
     /tmp/cc7jEFKv.s:636    .text.default_tx_handler:0000000000000000 .LFB76
     /tmp/cc7jEFKv.s:734    .text.default_tx_handler:000000000000006e .LFE76
     /tmp/cc7jEFKv.s:74442  .debug_loc:000000000000014b .LLST9
     /tmp/cc7jEFKv.s:688    .text.default_tx_handler:000000000000003e .LBB12
     /tmp/cc7jEFKv.s:732    .text.default_tx_handler:000000000000006e .LBE12
     /tmp/cc7jEFKv.s:74449  .debug_loc:000000000000016e .LLST10
     /tmp/cc7jEFKv.s:80848  .debug_str:000000000000b99d .LASF3791
     /tmp/cc7jEFKv.s:74461  .debug_loc:00000000000001a5 .LLST11
     /tmp/cc7jEFKv.s:80050  .debug_str:000000000000999d .LASF3792
     /tmp/cc7jEFKv.s:74473  .debug_loc:00000000000001dc .LLST12
     /tmp/cc7jEFKv.s:83832  .debug_str:0000000000013b00 .LASF3891
     /tmp/cc7jEFKv.s:429    .text.uart_isr:0000000000000000 .LFB75
     /tmp/cc7jEFKv.s:630    .text.uart_isr:00000000000000ae .LFE75
     /tmp/cc7jEFKv.s:74487  .debug_loc:0000000000000206 .LLST7
     /tmp/cc7jEFKv.s:82362  .debug_str:000000000000fcbc .LASF3793
     /tmp/cc7jEFKv.s:74528  .debug_loc:00000000000002b4 .LLST8
     /tmp/cc7jEFKv.s:525    .text.uart_isr:0000000000000052 .LVL13
     /tmp/cc7jEFKv.s:545    .text.uart_isr:0000000000000064 .LVL14
     /tmp/cc7jEFKv.s:565    .text.uart_isr:0000000000000076 .LVL15
     /tmp/cc7jEFKv.s:585    .text.uart_isr:0000000000000088 .LVL16
     /tmp/cc7jEFKv.s:78820  .debug_str:0000000000006260 .LASF3795
     /tmp/cc7jEFKv.s:77240  .debug_str:0000000000001f67 .LASF3796
     /tmp/cc7jEFKv.s:83816  .debug_str:0000000000013a3f .LASF3797
     /tmp/cc7jEFKv.s:78652  .debug_str:0000000000005c9b .LASF3798
     /tmp/cc7jEFKv.s:83518  .debug_str:0000000000012d53 .LASF3799
     /tmp/cc7jEFKv.s:77110  .debug_str:0000000000001989 .LASF3800
     /tmp/cc7jEFKv.s:77504  .debug_str:0000000000002bde .LASF3801
     /tmp/cc7jEFKv.s:13     .text.global_init:0000000000000000 .LFB73
     /tmp/cc7jEFKv.s:423    .text.global_init:00000000000002ea .LFE73
     /tmp/cc7jEFKv.s:78888  .debug_str:000000000000652b .LASF3802
     /tmp/cc7jEFKv.s:78006  .debug_str:0000000000004181 .LASF3803
     /tmp/cc7jEFKv.s:39     .text.global_init:0000000000000028 .LBB4
     /tmp/cc7jEFKv.s:74539  .debug_loc:00000000000002db .LLST0
     /tmp/cc7jEFKv.s:74550  .debug_loc:0000000000000311 .LLST1
     /tmp/cc7jEFKv.s:74561  .debug_loc:0000000000000347 .LLST2
     /tmp/cc7jEFKv.s:74611  .debug_loc:00000000000003c5 .LLST3
     /tmp/cc7jEFKv.s:74661  .debug_loc:0000000000000443 .LLST4
     /tmp/cc7jEFKv.s:74697  .debug_loc:00000000000004b3 .LLST5
     /tmp/cc7jEFKv.s:74915  .debug_loc:00000000000005e5 .LLST6
     /tmp/cc7jEFKv.s:84034  .debug_str:0000000000014469 .LASF3804
     /tmp/cc7jEFKv.s:3253   .text.MSS_UART_enable_local_irq:0000000000000000 .LFB72
     /tmp/cc7jEFKv.s:3290   .text.MSS_UART_enable_local_irq:0000000000000026 .LFE72
     /tmp/cc7jEFKv.s:74930  .debug_loc:0000000000000625 .LLST94
     /tmp/cc7jEFKv.s:3269   .text.MSS_UART_enable_local_irq:0000000000000010 .LVL208
     /tmp/cc7jEFKv.s:3288   .text.MSS_UART_enable_local_irq:0000000000000026 .LVL210
     /tmp/cc7jEFKv.s:77366  .debug_str:00000000000024e4 .LASF3805
     /tmp/cc7jEFKv.s:3219   .text.MSS_UART_set_usart_mode:0000000000000000 .LFB71
     /tmp/cc7jEFKv.s:3246   .text.MSS_UART_set_usart_mode:0000000000000024 .LFE71
     /tmp/cc7jEFKv.s:83740  .debug_str:0000000000013758 .LASF3806
     /tmp/cc7jEFKv.s:74948  .debug_loc:0000000000000671 .LLST93
     /tmp/cc7jEFKv.s:78904  .debug_str:00000000000065fc .LASF3807
     /tmp/cc7jEFKv.s:3184   .text.MSS_UART_set_ready_mode:0000000000000000 .LFB70
     /tmp/cc7jEFKv.s:3212   .text.MSS_UART_set_ready_mode:000000000000001e .LFE70
     /tmp/cc7jEFKv.s:77564  .debug_str:0000000000002e62 .LASF3808
     /tmp/cc7jEFKv.s:3165   .text.MSS_UART_set_address:0000000000000000 .LFB69
     /tmp/cc7jEFKv.s:3177   .text.MSS_UART_set_address:0000000000000008 .LFE69
     /tmp/cc7jEFKv.s:82634  .debug_str:000000000001087d .LASF3809
     /tmp/cc7jEFKv.s:3144   .text.MSS_UART_disable_tx_time_guard:0000000000000000 .LFB68
     /tmp/cc7jEFKv.s:3158   .text.MSS_UART_disable_tx_time_guard:0000000000000010 .LFE68
     /tmp/cc7jEFKv.s:76730  .debug_str:0000000000000ac7 .LASF3810
     /tmp/cc7jEFKv.s:3120   .text.MSS_UART_enable_tx_time_guard:0000000000000000 .LFB67
     /tmp/cc7jEFKv.s:3137   .text.MSS_UART_enable_tx_time_guard:0000000000000014 .LFE67
     /tmp/cc7jEFKv.s:78036  .debug_str:00000000000042da .LASF3811
     /tmp/cc7jEFKv.s:79314  .debug_str:0000000000007805 .LASF3812
     /tmp/cc7jEFKv.s:3099   .text.MSS_UART_disable_rx_timeout:0000000000000000 .LFB66
     /tmp/cc7jEFKv.s:3113   .text.MSS_UART_disable_rx_timeout:0000000000000010 .LFE66
     /tmp/cc7jEFKv.s:79400  .debug_str:0000000000007c43 .LASF3813
     /tmp/cc7jEFKv.s:3075   .text.MSS_UART_enable_rx_timeout:0000000000000000 .LFB65
     /tmp/cc7jEFKv.s:3092   .text.MSS_UART_enable_rx_timeout:0000000000000014 .LFE65
     /tmp/cc7jEFKv.s:83894  .debug_str:0000000000013d7e .LASF3814
     /tmp/cc7jEFKv.s:82538  .debug_str:0000000000010437 .LASF3815
     /tmp/cc7jEFKv.s:3054   .text.MSS_UART_disable_afclear:0000000000000000 .LFB64
     /tmp/cc7jEFKv.s:3068   .text.MSS_UART_disable_afclear:0000000000000010 .LFE64
     /tmp/cc7jEFKv.s:80456  .debug_str:000000000000aab2 .LASF3816
     /tmp/cc7jEFKv.s:3033   .text.MSS_UART_enable_afclear:0000000000000000 .LFB63
     /tmp/cc7jEFKv.s:3047   .text.MSS_UART_enable_afclear:0000000000000010 .LFE63
     /tmp/cc7jEFKv.s:83958  .debug_str:00000000000140dd .LASF3817
     /tmp/cc7jEFKv.s:3012   .text.MSS_UART_disable_afm:0000000000000000 .LFB62
     /tmp/cc7jEFKv.s:3026   .text.MSS_UART_disable_afm:0000000000000010 .LFE62
     /tmp/cc7jEFKv.s:80668  .debug_str:000000000000b2a8 .LASF3818
     /tmp/cc7jEFKv.s:2991   .text.MSS_UART_enable_afm:0000000000000000 .LFB61
     /tmp/cc7jEFKv.s:3005   .text.MSS_UART_enable_afm:0000000000000010 .LFE61
     /tmp/cc7jEFKv.s:77056  .debug_str:0000000000001737 .LASF3819
     /tmp/cc7jEFKv.s:2963   .text.MSS_UART_set_filter_length:0000000000000000 .LFB60
     /tmp/cc7jEFKv.s:2984   .text.MSS_UART_set_filter_length:0000000000000012 .LFE60
     /tmp/cc7jEFKv.s:74962  .debug_loc:00000000000006aa .LLST92
     /tmp/cc7jEFKv.s:77322  .debug_str:00000000000022b7 .LASF3820
     /tmp/cc7jEFKv.s:2928   .text.MSS_UART_set_tx_endian:0000000000000000 .LFB59
     /tmp/cc7jEFKv.s:2956   .text.MSS_UART_set_tx_endian:000000000000001e .LFE59
     /tmp/cc7jEFKv.s:83780  .debug_str:00000000000138cd .LASF3821
     /tmp/cc7jEFKv.s:78814  .debug_str:0000000000006210 .LASF3822
     /tmp/cc7jEFKv.s:2893   .text.MSS_UART_set_rx_endian:0000000000000000 .LFB58
     /tmp/cc7jEFKv.s:2921   .text.MSS_UART_set_rx_endian:000000000000001e .LFE58
     /tmp/cc7jEFKv.s:83190  .debug_str:000000000001202c .LASF3823
     /tmp/cc7jEFKv.s:2872   .text.MSS_UART_disable_half_duplex:0000000000000000 .LFB57
     /tmp/cc7jEFKv.s:2886   .text.MSS_UART_disable_half_duplex:0000000000000010 .LFE57
     /tmp/cc7jEFKv.s:84180  .debug_str:0000000000014a94 .LASF3824
     /tmp/cc7jEFKv.s:2851   .text.MSS_UART_enable_half_duplex:0000000000000000 .LFB56
     /tmp/cc7jEFKv.s:2865   .text.MSS_UART_enable_half_duplex:0000000000000010 .LFE56
     /tmp/cc7jEFKv.s:83578  .debug_str:0000000000012fe0 .LASF3825
     /tmp/cc7jEFKv.s:2819   .text.MSS_UART_set_rx_timeout_handler:0000000000000000 .LFB55
     /tmp/cc7jEFKv.s:2844   .text.MSS_UART_set_rx_timeout_handler:000000000000001c .LFE55
     /tmp/cc7jEFKv.s:74976  .debug_loc:00000000000006e3 .LLST90
     /tmp/cc7jEFKv.s:77528  .debug_str:0000000000002d04 .LASF3826
     /tmp/cc7jEFKv.s:74994  .debug_loc:000000000000072f .LLST91
     /tmp/cc7jEFKv.s:2839   .text.MSS_UART_set_rx_timeout_handler:000000000000001a .LVL188
     /tmp/cc7jEFKv.s:79866  .debug_str:000000000000921f .LASF3827
     /tmp/cc7jEFKv.s:2787   .text.MSS_UART_set_nack_handler:0000000000000000 .LFB54
     /tmp/cc7jEFKv.s:2812   .text.MSS_UART_set_nack_handler:000000000000001c .LFE54
     /tmp/cc7jEFKv.s:75012  .debug_loc:000000000000077b .LLST88
     /tmp/cc7jEFKv.s:75030  .debug_loc:00000000000007c7 .LLST89
     /tmp/cc7jEFKv.s:2807   .text.MSS_UART_set_nack_handler:000000000000001a .LVL186
     /tmp/cc7jEFKv.s:83214  .debug_str:00000000000120a9 .LASF3828
     /tmp/cc7jEFKv.s:2755   .text.MSS_UART_set_linsync_handler:0000000000000000 .LFB53
     /tmp/cc7jEFKv.s:2780   .text.MSS_UART_set_linsync_handler:000000000000001c .LFE53
     /tmp/cc7jEFKv.s:75048  .debug_loc:0000000000000813 .LLST86
     /tmp/cc7jEFKv.s:75066  .debug_loc:000000000000085f .LLST87
     /tmp/cc7jEFKv.s:2775   .text.MSS_UART_set_linsync_handler:000000000000001a .LVL184
     /tmp/cc7jEFKv.s:80874  .debug_str:000000000000ba7c .LASF3829
     /tmp/cc7jEFKv.s:2723   .text.MSS_UART_set_linbreak_handler:0000000000000000 .LFB52
     /tmp/cc7jEFKv.s:2748   .text.MSS_UART_set_linbreak_handler:000000000000001c .LFE52
     /tmp/cc7jEFKv.s:75084  .debug_loc:00000000000008ab .LLST84
     /tmp/cc7jEFKv.s:75102  .debug_loc:00000000000008f7 .LLST85
     /tmp/cc7jEFKv.s:2743   .text.MSS_UART_set_linbreak_handler:000000000000001a .LVL182
     /tmp/cc7jEFKv.s:84068  .debug_str:00000000000145da .LASF3830
     /tmp/cc7jEFKv.s:2691   .text.MSS_UART_set_pidpei_handler:0000000000000000 .LFB51
     /tmp/cc7jEFKv.s:2716   .text.MSS_UART_set_pidpei_handler:000000000000001c .LFE51
     /tmp/cc7jEFKv.s:75120  .debug_loc:0000000000000943 .LLST82
     /tmp/cc7jEFKv.s:75138  .debug_loc:000000000000098f .LLST83
     /tmp/cc7jEFKv.s:2711   .text.MSS_UART_set_pidpei_handler:000000000000001a .LVL180
     /tmp/cc7jEFKv.s:77796  .debug_str:0000000000003856 .LASF3831
     /tmp/cc7jEFKv.s:2670   .text.MSS_UART_clear_break:0000000000000000 .LFB50
     /tmp/cc7jEFKv.s:2684   .text.MSS_UART_clear_break:0000000000000010 .LFE50
     /tmp/cc7jEFKv.s:83382  .debug_str:000000000001273c .LASF3832
     /tmp/cc7jEFKv.s:2649   .text.MSS_UART_set_break:0000000000000000 .LFB49
     /tmp/cc7jEFKv.s:2663   .text.MSS_UART_set_break:0000000000000010 .LFE49
     /tmp/cc7jEFKv.s:77652  .debug_str:0000000000003225 .LASF3833
     /tmp/cc7jEFKv.s:2616   .text.MSS_UART_get_tx_status:0000000000000000 .LFB48
     /tmp/cc7jEFKv.s:2642   .text.MSS_UART_get_tx_status:000000000000001a .LFE48
     /tmp/cc7jEFKv.s:75156  .debug_loc:00000000000009db .LLST80
     /tmp/cc7jEFKv.s:75170  .debug_loc:0000000000000a14 .LLST81
     /tmp/cc7jEFKv.s:81684  .debug_str:000000000000deb1 .LASF3834
     /tmp/cc7jEFKv.s:2594   .text.MSS_UART_get_modem_status:0000000000000000 .LFB47
     /tmp/cc7jEFKv.s:2609   .text.MSS_UART_get_modem_status:0000000000000008 .LFE47
     /tmp/cc7jEFKv.s:75191  .debug_loc:0000000000000a63 .LLST78
     /tmp/cc7jEFKv.s:75205  .debug_loc:0000000000000a9c .LLST79
     /tmp/cc7jEFKv.s:81412  .debug_str:000000000000d15c .LASF3835
     /tmp/cc7jEFKv.s:2562   .text.MSS_UART_get_rx_status:0000000000000000 .LFB46
     /tmp/cc7jEFKv.s:2587   .text.MSS_UART_get_rx_status:0000000000000016 .LFE46
     /tmp/cc7jEFKv.s:75218  .debug_loc:0000000000000ad4 .LLST76
     /tmp/cc7jEFKv.s:75232  .debug_loc:0000000000000b0d .LLST77
     /tmp/cc7jEFKv.s:81842  .debug_str:000000000000e55f .LASF3836
     /tmp/cc7jEFKv.s:2478   .text.MSS_UART_fill_tx_fifo:0000000000000000 .LFB45
     /tmp/cc7jEFKv.s:2555   .text.MSS_UART_fill_tx_fifo:000000000000004e .LFE45
     /tmp/cc7jEFKv.s:75250  .debug_loc:0000000000000b4a .LLST71
     /tmp/cc7jEFKv.s:81474  .debug_str:000000000000d433 .LASF3837
     /tmp/cc7jEFKv.s:75275  .debug_loc:0000000000000bac .LLST72
     /tmp/cc7jEFKv.s:75293  .debug_loc:0000000000000bf8 .LLST73
     /tmp/cc7jEFKv.s:77816  .debug_str:0000000000003990 .LASF3838
     /tmp/cc7jEFKv.s:75305  .debug_loc:0000000000000c2f .LLST74
     /tmp/cc7jEFKv.s:2509   .text.MSS_UART_fill_tx_fifo:000000000000001e .LBB31
     /tmp/cc7jEFKv.s:2541   .text.MSS_UART_fill_tx_fifo:0000000000000044 .LBE31
     /tmp/cc7jEFKv.s:75332  .debug_loc:0000000000000ca2 .LLST75
     /tmp/cc7jEFKv.s:83430  .debug_str:0000000000012979 .LASF3839
     /tmp/cc7jEFKv.s:2446   .text.MSS_UART_set_modemstatus_handler:0000000000000000 .LFB44
     /tmp/cc7jEFKv.s:2471   .text.MSS_UART_set_modemstatus_handler:000000000000001c .LFE44
     /tmp/cc7jEFKv.s:75344  .debug_loc:0000000000000cd9 .LLST69
     /tmp/cc7jEFKv.s:75362  .debug_loc:0000000000000d25 .LLST70
     /tmp/cc7jEFKv.s:2466   .text.MSS_UART_set_modemstatus_handler:000000000000001a .LVL154
     /tmp/cc7jEFKv.s:83896  .debug_str:0000000000013d86 .LASF3840
     /tmp/cc7jEFKv.s:2407   .text.MSS_UART_set_tx_handler:0000000000000000 .LFB43
     /tmp/cc7jEFKv.s:2439   .text.MSS_UART_set_tx_handler:0000000000000024 .LFE43
     /tmp/cc7jEFKv.s:75380  .debug_loc:0000000000000d71 .LLST67
     /tmp/cc7jEFKv.s:75398  .debug_loc:0000000000000dbd .LLST68
     /tmp/cc7jEFKv.s:2434   .text.MSS_UART_set_tx_handler:0000000000000022 .LVL152
     /tmp/cc7jEFKv.s:78196  .debug_str:0000000000004a42 .LASF3841
     /tmp/cc7jEFKv.s:2375   .text.MSS_UART_set_rxstatus_handler:0000000000000000 .LFB42
     /tmp/cc7jEFKv.s:2400   .text.MSS_UART_set_rxstatus_handler:000000000000001c .LFE42
     /tmp/cc7jEFKv.s:75416  .debug_loc:0000000000000e09 .LLST65
     /tmp/cc7jEFKv.s:75434  .debug_loc:0000000000000e55 .LLST66
     /tmp/cc7jEFKv.s:2395   .text.MSS_UART_set_rxstatus_handler:000000000000001a .LVL150
     /tmp/cc7jEFKv.s:79556  .debug_str:00000000000083f0 .LASF3842
     /tmp/cc7jEFKv.s:2349   .text.U54_4_mmuart4_local_IRQHandler:0000000000000000 .LFB41
     /tmp/cc7jEFKv.s:2368   .text.U54_4_mmuart4_local_IRQHandler:0000000000000026 .LFE41
     /tmp/cc7jEFKv.s:2366   .text.U54_4_mmuart4_local_IRQHandler:0000000000000026 .LVL148
     /tmp/cc7jEFKv.s:83046  .debug_str:0000000000011a75 .LASF3843
     /tmp/cc7jEFKv.s:2323   .text.U54_3_mmuart3_local_IRQHandler:0000000000000000 .LFB40
     /tmp/cc7jEFKv.s:2342   .text.U54_3_mmuart3_local_IRQHandler:0000000000000026 .LFE40
     /tmp/cc7jEFKv.s:2340   .text.U54_3_mmuart3_local_IRQHandler:0000000000000026 .LVL147
     /tmp/cc7jEFKv.s:82288  .debug_str:000000000000f942 .LASF3844
     /tmp/cc7jEFKv.s:2297   .text.U54_2_mmuart2_local_IRQHandler:0000000000000000 .LFB39
     /tmp/cc7jEFKv.s:2316   .text.U54_2_mmuart2_local_IRQHandler:0000000000000026 .LFE39
     /tmp/cc7jEFKv.s:2314   .text.U54_2_mmuart2_local_IRQHandler:0000000000000026 .LVL146
     /tmp/cc7jEFKv.s:79038  .debug_str:0000000000006c41 .LASF3845
     /tmp/cc7jEFKv.s:2271   .text.U54_1_mmuart1_local_IRQHandler:0000000000000000 .LFB38
     /tmp/cc7jEFKv.s:2290   .text.U54_1_mmuart1_local_IRQHandler:0000000000000026 .LFE38
     /tmp/cc7jEFKv.s:2288   .text.U54_1_mmuart1_local_IRQHandler:0000000000000026 .LVL145
     /tmp/cc7jEFKv.s:83822  .debug_str:0000000000013a7f .LASF3846
     /tmp/cc7jEFKv.s:2246   .text.E51_mmuart0_local_IRQHandler:0000000000000000 .LFB37
     /tmp/cc7jEFKv.s:2264   .text.E51_mmuart0_local_IRQHandler:0000000000000026 .LFE37
     /tmp/cc7jEFKv.s:2262   .text.E51_mmuart0_local_IRQHandler:0000000000000026 .LVL144
     /tmp/cc7jEFKv.s:79132  .debug_str:000000000000704c .LASF3847
     /tmp/cc7jEFKv.s:2207   .text.PLIC_mmuart4_IRQHandler:0000000000000000 .LFB36
     /tmp/cc7jEFKv.s:2239   .text.PLIC_mmuart4_IRQHandler:0000000000000032 .LFE36
     /tmp/cc7jEFKv.s:2229   .text.PLIC_mmuart4_IRQHandler:000000000000002a .LVL143
     /tmp/cc7jEFKv.s:83778  .debug_str:00000000000138b5 .LASF3848
     /tmp/cc7jEFKv.s:2168   .text.PLIC_mmuart3_IRQHandler:0000000000000000 .LFB35
     /tmp/cc7jEFKv.s:2200   .text.PLIC_mmuart3_IRQHandler:0000000000000032 .LFE35
     /tmp/cc7jEFKv.s:2190   .text.PLIC_mmuart3_IRQHandler:000000000000002a .LVL142
     /tmp/cc7jEFKv.s:82854  .debug_str:0000000000011243 .LASF3849
     /tmp/cc7jEFKv.s:2129   .text.PLIC_mmuart2_IRQHandler:0000000000000000 .LFB34
     /tmp/cc7jEFKv.s:2161   .text.PLIC_mmuart2_IRQHandler:0000000000000032 .LFE34
     /tmp/cc7jEFKv.s:2151   .text.PLIC_mmuart2_IRQHandler:000000000000002a .LVL141
     /tmp/cc7jEFKv.s:78052  .debug_str:000000000000438c .LASF3850
     /tmp/cc7jEFKv.s:2090   .text.PLIC_mmuart1_IRQHandler:0000000000000000 .LFB33
     /tmp/cc7jEFKv.s:2122   .text.PLIC_mmuart1_IRQHandler:0000000000000032 .LFE33
     /tmp/cc7jEFKv.s:2112   .text.PLIC_mmuart1_IRQHandler:000000000000002a .LVL140
     /tmp/cc7jEFKv.s:82416  .debug_str:000000000000fee1 .LASF3851
     /tmp/cc7jEFKv.s:2051   .text.PLIC_mmuart0_IRQHandler:0000000000000000 .LFB32
     /tmp/cc7jEFKv.s:2083   .text.PLIC_mmuart0_IRQHandler:0000000000000032 .LFE32
     /tmp/cc7jEFKv.s:2073   .text.PLIC_mmuart0_IRQHandler:000000000000002a .LVL139
     /tmp/cc7jEFKv.s:83788  .debug_str:000000000001393c .LASF3852
     /tmp/cc7jEFKv.s:1972   .text.MSS_UART_set_loopback:0000000000000000 .LFB31
     /tmp/cc7jEFKv.s:2044   .text.MSS_UART_set_loopback:000000000000005e .LFE31
     /tmp/cc7jEFKv.s:79366  .debug_str:0000000000007a66 .LASF3853
     /tmp/cc7jEFKv.s:75452  .debug_loc:0000000000000ea1 .LLST64
     /tmp/cc7jEFKv.s:78822  .debug_str:0000000000006275 .LASF3854
     /tmp/cc7jEFKv.s:1925   .text.MSS_UART_set_rx_handler:0000000000000000 .LFB30
     /tmp/cc7jEFKv.s:1965   .text.MSS_UART_set_rx_handler:0000000000000036 .LFE30
     /tmp/cc7jEFKv.s:75478  .debug_loc:0000000000000f04 .LLST61
     /tmp/cc7jEFKv.s:75496  .debug_loc:0000000000000f50 .LLST62
     /tmp/cc7jEFKv.s:78134  .debug_str:00000000000047ce .LASF3855
     /tmp/cc7jEFKv.s:75514  .debug_loc:0000000000000f9c .LLST63
     /tmp/cc7jEFKv.s:1960   .text.MSS_UART_set_rx_handler:0000000000000034 .LVL134
     /tmp/cc7jEFKv.s:80002  .debug_str:00000000000097ec .LASF3856
     /tmp/cc7jEFKv.s:1875   .text.MSS_UART_disable_irq:0000000000000000 .LFB29
     /tmp/cc7jEFKv.s:1918   .text.MSS_UART_disable_irq:0000000000000044 .LFE29
     /tmp/cc7jEFKv.s:75532  .debug_loc:0000000000000fe8 .LLST59
     /tmp/cc7jEFKv.s:83340  .debug_str:000000000001259b .LASF3857
     /tmp/cc7jEFKv.s:75557  .debug_loc:000000000000104a .LLST60
     /tmp/cc7jEFKv.s:1912   .text.MSS_UART_disable_irq:000000000000003c .LVL130
     /tmp/cc7jEFKv.s:1916   .text.MSS_UART_disable_irq:0000000000000044 .LVL131
     /tmp/cc7jEFKv.s:78092  .debug_str:000000000000458c .LASF3858
     /tmp/cc7jEFKv.s:1834   .text.MSS_UART_enable_irq:0000000000000000 .LFB28
     /tmp/cc7jEFKv.s:1868   .text.MSS_UART_enable_irq:000000000000002a .LFE28
     /tmp/cc7jEFKv.s:75571  .debug_loc:0000000000001083 .LLST58
     /tmp/cc7jEFKv.s:79380  .debug_str:0000000000007b00 .LASF3859
     /tmp/cc7jEFKv.s:1740   .text.MSS_UART_get_rx:0000000000000000 .LFB27
     /tmp/cc7jEFKv.s:1827   .text.MSS_UART_get_rx:0000000000000056 .LFE27
     /tmp/cc7jEFKv.s:75585  .debug_loc:00000000000010bc .LLST54
     /tmp/cc7jEFKv.s:77586  .debug_str:0000000000002f45 .LASF3860
     /tmp/cc7jEFKv.s:83158  .debug_str:0000000000011e61 .LASF3861
     /tmp/cc7jEFKv.s:75604  .debug_loc:0000000000001118 .LLST55
     /tmp/cc7jEFKv.s:83216  .debug_str:00000000000120c6 .LASF3862
     /tmp/cc7jEFKv.s:75640  .debug_loc:00000000000011a3 .LLST56
     /tmp/cc7jEFKv.s:75679  .debug_loc:000000000000124f .LLST57
     /tmp/cc7jEFKv.s:77632  .debug_str:000000000000313b .LASF3863
     /tmp/cc7jEFKv.s:1695   .text.MSS_UART_tx_complete:0000000000000000 .LFB26
     /tmp/cc7jEFKv.s:1733   .text.MSS_UART_tx_complete:0000000000000024 .LFE26
     /tmp/cc7jEFKv.s:75700  .debug_loc:00000000000012ad .LLST51
     /tmp/cc7jEFKv.s:82718  .debug_str:0000000000010c67 .LASF3864
     /tmp/cc7jEFKv.s:75725  .debug_loc:000000000000130f .LLST52
     /tmp/cc7jEFKv.s:75737  .debug_loc:0000000000001346 .LLST53
     /tmp/cc7jEFKv.s:83086  .debug_str:0000000000011ba6 .LASF3865
     /tmp/cc7jEFKv.s:1649   .text.MSS_UART_irq_tx:0000000000000000 .LFB25
     /tmp/cc7jEFKv.s:1688   .text.MSS_UART_irq_tx:000000000000002e .LFE25
     /tmp/cc7jEFKv.s:75749  .debug_loc:000000000000137d .LLST48
     /tmp/cc7jEFKv.s:77818  .debug_str:000000000000399a .LASF3866
     /tmp/cc7jEFKv.s:75767  .debug_loc:00000000000013c9 .LLST49
     /tmp/cc7jEFKv.s:75785  .debug_loc:0000000000001415 .LLST50
     /tmp/cc7jEFKv.s:1683   .text.MSS_UART_irq_tx:000000000000002c .LVL106
     /tmp/cc7jEFKv.s:84184  .debug_str:0000000000014ac1 .LASF3867
     /tmp/cc7jEFKv.s:1562   .text.MSS_UART_polled_tx_string:0000000000000000 .LFB24
     /tmp/cc7jEFKv.s:1642   .text.MSS_UART_polled_tx_string:0000000000000054 .LFE24
     /tmp/cc7jEFKv.s:82242  .debug_str:000000000000f725 .LASF3868
     /tmp/cc7jEFKv.s:78454  .debug_str:000000000000552f .LASF3869
     /tmp/cc7jEFKv.s:75803  .debug_loc:0000000000001461 .LLST45
     /tmp/cc7jEFKv.s:79136  .debug_str:000000000000708b .LASF3870
     /tmp/cc7jEFKv.s:75827  .debug_loc:00000000000014c2 .LLST46
     /tmp/cc7jEFKv.s:75834  .debug_loc:00000000000014e5 .LLST47
     /tmp/cc7jEFKv.s:80116  .debug_str:0000000000009cb3 .LASF3871
     /tmp/cc7jEFKv.s:1470   .text.MSS_UART_polled_tx:0000000000000000 .LFB23
     /tmp/cc7jEFKv.s:1555   .text.MSS_UART_polled_tx:000000000000004e .LFE23
     /tmp/cc7jEFKv.s:75841  .debug_loc:0000000000001508 .LLST39
     /tmp/cc7jEFKv.s:75855  .debug_loc:0000000000001541 .LLST40
     /tmp/cc7jEFKv.s:75871  .debug_loc:000000000000158b .LLST41
     /tmp/cc7jEFKv.s:75879  .debug_loc:00000000000015af .LLST42
     /tmp/cc7jEFKv.s:77016  .debug_str:0000000000001636 .LASF3872
     /tmp/cc7jEFKv.s:75886  .debug_loc:00000000000015d2 .LLST43
     /tmp/cc7jEFKv.s:75897  .debug_loc:0000000000001608 .LLST44
     /tmp/cc7jEFKv.s:78010  .debug_str:00000000000041ab .LASF3873
     /tmp/cc7jEFKv.s:1403   .text.MSS_UART_smartcard_init:0000000000000000 .LFB22
     /tmp/cc7jEFKv.s:1463   .text.MSS_UART_smartcard_init:0000000000000058 .LFE22
     /tmp/cc7jEFKv.s:75909  .debug_loc:000000000000163f .LLST36
     /tmp/cc7jEFKv.s:75927  .debug_loc:000000000000168b .LLST37
     /tmp/cc7jEFKv.s:75941  .debug_loc:00000000000016c4 .LLST38
     /tmp/cc7jEFKv.s:1421   .text.MSS_UART_smartcard_init:0000000000000014 .LVL81
     /tmp/cc7jEFKv.s:80384  .debug_str:000000000000a81a .LASF3874
     /tmp/cc7jEFKv.s:1297   .text.MSS_UART_irda_init:0000000000000000 .LFB21
     /tmp/cc7jEFKv.s:1396   .text.MSS_UART_irda_init:0000000000000094 .LFE21
     /tmp/cc7jEFKv.s:75955  .debug_loc:00000000000016fd .LLST30
     /tmp/cc7jEFKv.s:75977  .debug_loc:000000000000175c .LLST31
     /tmp/cc7jEFKv.s:75991  .debug_loc:0000000000001795 .LLST32
     /tmp/cc7jEFKv.s:81442  .debug_str:000000000000d2d1 .LASF3875
     /tmp/cc7jEFKv.s:76005  .debug_loc:00000000000017ce .LLST33
     /tmp/cc7jEFKv.s:83724  .debug_str:00000000000136f3 .LASF3876
     /tmp/cc7jEFKv.s:76019  .debug_loc:0000000000001807 .LLST34
     /tmp/cc7jEFKv.s:76033  .debug_loc:0000000000001840 .LLST35
     /tmp/cc7jEFKv.s:1315   .text.MSS_UART_irda_init:0000000000000016 .LVL77
     /tmp/cc7jEFKv.s:76828  .debug_str:0000000000000ec0 .LASF3877
     /tmp/cc7jEFKv.s:1246   .text.MSS_UART_lin_init:0000000000000000 .LFB20
     /tmp/cc7jEFKv.s:1290   .text.MSS_UART_lin_init:000000000000003e .LFE20
     /tmp/cc7jEFKv.s:76047  .debug_loc:0000000000001879 .LLST27
     /tmp/cc7jEFKv.s:76065  .debug_loc:00000000000018c5 .LLST28
     /tmp/cc7jEFKv.s:76079  .debug_loc:00000000000018fe .LLST29
     /tmp/cc7jEFKv.s:1262   .text.MSS_UART_lin_init:0000000000000010 .LVL74
     /tmp/cc7jEFKv.s:76866  .debug_str:000000000000103f .LASF3878
     /tmp/cc7jEFKv.s:1191   .text.MSS_UART_init:0000000000000000 .LFB19
     /tmp/cc7jEFKv.s:1239   .text.MSS_UART_init:0000000000000048 .LFE19
     /tmp/cc7jEFKv.s:76093  .debug_loc:0000000000001937 .LLST24
     /tmp/cc7jEFKv.s:76111  .debug_loc:0000000000001983 .LLST25
     /tmp/cc7jEFKv.s:76125  .debug_loc:00000000000019bc .LLST26
     /tmp/cc7jEFKv.s:1207   .text.MSS_UART_init:0000000000000010 .LVL71
     /tmp/cc7jEFKv.s:77054  .debug_str:0000000000001727 .LASF3879
     /tmp/cc7jEFKv.s:80856  .debug_str:000000000000b9ea .LASF3880
     /tmp/cc7jEFKv.s:83080  .debug_str:0000000000011b86 .LASF3881
     /tmp/cc7jEFKv.s:77678  .debug_str:000000000000335f .LASF3882
     /tmp/cc7jEFKv.s:83602  .debug_str:00000000000130ef .LASF3883
     /tmp/cc7jEFKv.s:81748  .debug_str:000000000000e140 .LASF3884
     /tmp/cc7jEFKv.s:966    .text.enable_irq:0000000000000000 .LFB77
     /tmp/cc7jEFKv.s:1184   .text.enable_irq:0000000000000138 .LFE77
     /tmp/cc7jEFKv.s:976    .text.enable_irq:0000000000000008 .LBB24
     /tmp/cc7jEFKv.s:1180   .text.enable_irq:0000000000000136 .LBE24
     /tmp/cc7jEFKv.s:76139  .debug_loc:00000000000019f5 .LLST18
     /tmp/cc7jEFKv.s:977    .text.enable_irq:0000000000000008 .LBB25
     /tmp/cc7jEFKv.s:1179   .text.enable_irq:0000000000000136 .LBE25
     /tmp/cc7jEFKv.s:76146  .debug_loc:0000000000001a18 .LLST19
     /tmp/cc7jEFKv.s:1033   .text.enable_irq:0000000000000096 .LBB26
     /tmp/cc7jEFKv.s:1178   .text.enable_irq:0000000000000136 .LBE26
     /tmp/cc7jEFKv.s:1034   .text.enable_irq:0000000000000096 .LBB27
     /tmp/cc7jEFKv.s:1177   .text.enable_irq:0000000000000136 .LBE27
     /tmp/cc7jEFKv.s:76153  .debug_loc:0000000000001a3b .LLST21
     /tmp/cc7jEFKv.s:76196  .debug_loc:0000000000001b09 .LLST22
     /tmp/cc7jEFKv.s:1037   .text.enable_irq:0000000000000096 .LBB28
     /tmp/cc7jEFKv.s:1047   .text.enable_irq:000000000000009a .LBE28
     /tmp/cc7jEFKv.s:81136  .debug_str:000000000000c470 .LASF3885
     /tmp/cc7jEFKv.s:82080  .debug_str:000000000000f02a .LASF3886
     /tmp/cc7jEFKv.s:743    .text.disable_irq:0000000000000000 .LVL29
     /tmp/cc7jEFKv.s:798    .text.disable_irq:000000000000008e .LVL30
     /tmp/cc7jEFKv.s:828    .text.disable_irq:00000000000000b0 .LVL33
     /tmp/cc7jEFKv.s:846    .text.disable_irq:00000000000000ba .LVL34
     /tmp/cc7jEFKv.s:856    .text.disable_irq:00000000000000c8 .LVL35
     /tmp/cc7jEFKv.s:862    .text.disable_irq:00000000000000cc .LVL36
     /tmp/cc7jEFKv.s:869    .text.disable_irq:00000000000000d6 .LVL37
     /tmp/cc7jEFKv.s:879    .text.disable_irq:00000000000000e4 .LVL38
     /tmp/cc7jEFKv.s:885    .text.disable_irq:00000000000000ea .LVL39
     /tmp/cc7jEFKv.s:892    .text.disable_irq:00000000000000f4 .LVL40
     /tmp/cc7jEFKv.s:902    .text.disable_irq:0000000000000102 .LVL41
     /tmp/cc7jEFKv.s:908    .text.disable_irq:0000000000000108 .LVL42
     /tmp/cc7jEFKv.s:915    .text.disable_irq:0000000000000112 .LVL43
     /tmp/cc7jEFKv.s:925    .text.disable_irq:0000000000000120 .LVL44
     /tmp/cc7jEFKv.s:931    .text.disable_irq:0000000000000126 .LVL45
     /tmp/cc7jEFKv.s:938    .text.disable_irq:0000000000000130 .LVL46
     /tmp/cc7jEFKv.s:948    .text.disable_irq:000000000000013e .LVL47
     /tmp/cc7jEFKv.s:953    .text.disable_irq:0000000000000142 .LVL48
     /tmp/cc7jEFKv.s:812    .text.disable_irq:0000000000000092 .LVL31
     /tmp/cc7jEFKv.s:821    .text.disable_irq:00000000000000a2 .LVL32
     /tmp/cc7jEFKv.s:660    .text.default_tx_handler:000000000000001a .LVL22
     /tmp/cc7jEFKv.s:668    .text.default_tx_handler:0000000000000024 .LVL23
     /tmp/cc7jEFKv.s:706    .text.default_tx_handler:000000000000004c .LVL26
     /tmp/cc7jEFKv.s:710    .text.default_tx_handler:000000000000004e .LVL27
     /tmp/cc7jEFKv.s:726    .text.default_tx_handler:0000000000000066 .LVL28
     /tmp/cc7jEFKv.s:691    .text.default_tx_handler:000000000000003e .LVL24
     /tmp/cc7jEFKv.s:699    .text.default_tx_handler:0000000000000046 .LVL25
     /tmp/cc7jEFKv.s:432    .text.uart_isr:0000000000000000 .LVL8
     /tmp/cc7jEFKv.s:481    .text.uart_isr:000000000000002a .LVL11
     /tmp/cc7jEFKv.s:515    .text.uart_isr:000000000000004c .LVL12
     /tmp/cc7jEFKv.s:607    .text.uart_isr:000000000000009e .LVL17
     /tmp/cc7jEFKv.s:613    .text.uart_isr:00000000000000a4 .LVL18
     /tmp/cc7jEFKv.s:622    .text.uart_isr:00000000000000a8 .LVL19
     /tmp/cc7jEFKv.s:626    .text.uart_isr:00000000000000ac .LVL20
     /tmp/cc7jEFKv.s:441    .text.uart_isr:0000000000000008 .LVL9
     /tmp/cc7jEFKv.s:444    .text.uart_isr:000000000000000a .LVL10
     /tmp/cc7jEFKv.s:129    .text.global_init:00000000000000de .LVL1
     /tmp/cc7jEFKv.s:204    .text.global_init:000000000000014c .LVL5
     /tmp/cc7jEFKv.s:394    .text.global_init:00000000000002bc .LVL7
     /tmp/cc7jEFKv.s:141    .text.global_init:00000000000000e0 .LVL2
     /tmp/cc7jEFKv.s:165    .text.global_init:0000000000000108 .LVL3
     /tmp/cc7jEFKv.s:174    .text.global_init:0000000000000118 .LVL4
     /tmp/cc7jEFKv.s:258    .text.global_init:000000000000018c .LVL6
     /tmp/cc7jEFKv.s:3256   .text.MSS_UART_enable_local_irq:0000000000000000 .LVL207
     /tmp/cc7jEFKv.s:3278   .text.MSS_UART_enable_local_irq:0000000000000018 .LVL209
     /tmp/cc7jEFKv.s:3222   .text.MSS_UART_set_usart_mode:0000000000000000 .LVL205
     /tmp/cc7jEFKv.s:3239   .text.MSS_UART_set_usart_mode:000000000000001a .LVL206
     /tmp/cc7jEFKv.s:2966   .text.MSS_UART_set_filter_length:0000000000000000 .LVL193
     /tmp/cc7jEFKv.s:2977   .text.MSS_UART_set_filter_length:000000000000000c .LVL194
     /tmp/cc7jEFKv.s:2822   .text.MSS_UART_set_rx_timeout_handler:0000000000000000 .LVL187
     /tmp/cc7jEFKv.s:2790   .text.MSS_UART_set_nack_handler:0000000000000000 .LVL185
     /tmp/cc7jEFKv.s:2758   .text.MSS_UART_set_linsync_handler:0000000000000000 .LVL183
     /tmp/cc7jEFKv.s:2726   .text.MSS_UART_set_linbreak_handler:0000000000000000 .LVL181
     /tmp/cc7jEFKv.s:2694   .text.MSS_UART_set_pidpei_handler:0000000000000000 .LVL179
     /tmp/cc7jEFKv.s:2619   .text.MSS_UART_get_tx_status:0000000000000000 .LVL173
     /tmp/cc7jEFKv.s:2639   .text.MSS_UART_get_tx_status:0000000000000018 .LVL176
     /tmp/cc7jEFKv.s:2629   .text.MSS_UART_get_tx_status:000000000000000e .LVL174
     /tmp/cc7jEFKv.s:2635   .text.MSS_UART_get_tx_status:0000000000000014 .LVL175
     /tmp/cc7jEFKv.s:2597   .text.MSS_UART_get_modem_status:0000000000000000 .LVL171
     /tmp/cc7jEFKv.s:2604   .text.MSS_UART_get_modem_status:0000000000000006 .LVL172
     /tmp/cc7jEFKv.s:2565   .text.MSS_UART_get_rx_status:0000000000000000 .LVL168
     /tmp/cc7jEFKv.s:2584   .text.MSS_UART_get_rx_status:0000000000000014 .LVL170
     /tmp/cc7jEFKv.s:2579   .text.MSS_UART_get_rx_status:0000000000000010 .LVL169
     /tmp/cc7jEFKv.s:2481   .text.MSS_UART_fill_tx_fifo:0000000000000000 .LVL155
     /tmp/cc7jEFKv.s:2524   .text.MSS_UART_fill_tx_fifo:000000000000002a .LVL161
     /tmp/cc7jEFKv.s:2548   .text.MSS_UART_fill_tx_fifo:000000000000004a .LVL166
     /tmp/cc7jEFKv.s:2552   .text.MSS_UART_fill_tx_fifo:000000000000004c .LVL167
     /tmp/cc7jEFKv.s:2517   .text.MSS_UART_fill_tx_fifo:0000000000000026 .LVL159
     /tmp/cc7jEFKv.s:2499   .text.MSS_UART_fill_tx_fifo:0000000000000012 .LVL156
     /tmp/cc7jEFKv.s:2507   .text.MSS_UART_fill_tx_fifo:000000000000001c .LVL157
     /tmp/cc7jEFKv.s:2531   .text.MSS_UART_fill_tx_fifo:0000000000000036 .LVL162
     /tmp/cc7jEFKv.s:2533   .text.MSS_UART_fill_tx_fifo:0000000000000038 .LVL163
     /tmp/cc7jEFKv.s:2539   .text.MSS_UART_fill_tx_fifo:0000000000000044 .LVL164
     /tmp/cc7jEFKv.s:2545   .text.MSS_UART_fill_tx_fifo:0000000000000046 .LVL165
     /tmp/cc7jEFKv.s:2511   .text.MSS_UART_fill_tx_fifo:000000000000001e .LVL158
     /tmp/cc7jEFKv.s:2520   .text.MSS_UART_fill_tx_fifo:0000000000000028 .LVL160
     /tmp/cc7jEFKv.s:2449   .text.MSS_UART_set_modemstatus_handler:0000000000000000 .LVL153
     /tmp/cc7jEFKv.s:2410   .text.MSS_UART_set_tx_handler:0000000000000000 .LVL151
     /tmp/cc7jEFKv.s:2378   .text.MSS_UART_set_rxstatus_handler:0000000000000000 .LVL149
     /tmp/cc7jEFKv.s:1975   .text.MSS_UART_set_loopback:0000000000000000 .LVL135
     /tmp/cc7jEFKv.s:1983   .text.MSS_UART_set_loopback:0000000000000008 .LVL136
     /tmp/cc7jEFKv.s:1989   .text.MSS_UART_set_loopback:0000000000000016 .LVL137
     /tmp/cc7jEFKv.s:1991   .text.MSS_UART_set_loopback:000000000000001e .LVL138
     /tmp/cc7jEFKv.s:1928   .text.MSS_UART_set_rx_handler:0000000000000000 .LVL132
     /tmp/cc7jEFKv.s:1949   .text.MSS_UART_set_rx_handler:0000000000000018 .LVL133
     /tmp/cc7jEFKv.s:1878   .text.MSS_UART_disable_irq:0000000000000000 .LVL127
     /tmp/cc7jEFKv.s:1910   .text.MSS_UART_disable_irq:0000000000000034 .LVL129
     /tmp/cc7jEFKv.s:1890   .text.MSS_UART_disable_irq:0000000000000012 .LVL128
     /tmp/cc7jEFKv.s:1837   .text.MSS_UART_enable_irq:0000000000000000 .LVL125
     /tmp/cc7jEFKv.s:1851   .text.MSS_UART_enable_irq:0000000000000012 .LVL126
     /tmp/cc7jEFKv.s:1743   .text.MSS_UART_get_rx:0000000000000000 .LVL112
     /tmp/cc7jEFKv.s:1771   .text.MSS_UART_get_rx:000000000000001c .LVL114
     /tmp/cc7jEFKv.s:1815   .text.MSS_UART_get_rx:000000000000004e .LVL121
     /tmp/cc7jEFKv.s:1821   .text.MSS_UART_get_rx:0000000000000052 .LVL123
     /tmp/cc7jEFKv.s:1779   .text.MSS_UART_get_rx:0000000000000024 .LVL116
     /tmp/cc7jEFKv.s:1785   .text.MSS_UART_get_rx:0000000000000028 .LVL117
     /tmp/cc7jEFKv.s:1819   .text.MSS_UART_get_rx:0000000000000050 .LVL122
     /tmp/cc7jEFKv.s:1824   .text.MSS_UART_get_rx:0000000000000054 .LVL124
     /tmp/cc7jEFKv.s:1796   .text.MSS_UART_get_rx:0000000000000034 .LVL118
     /tmp/cc7jEFKv.s:1800   .text.MSS_UART_get_rx:0000000000000038 .LVL119
     /tmp/cc7jEFKv.s:1763   .text.MSS_UART_get_rx:0000000000000014 .LVL113
     /tmp/cc7jEFKv.s:1775   .text.MSS_UART_get_rx:000000000000001e .LVL115
     /tmp/cc7jEFKv.s:1809   .text.MSS_UART_get_rx:0000000000000046 .LVL120
     /tmp/cc7jEFKv.s:1698   .text.MSS_UART_tx_complete:0000000000000000 .LVL107
     /tmp/cc7jEFKv.s:1720   .text.MSS_UART_tx_complete:000000000000001c .LVL109
     /tmp/cc7jEFKv.s:1724   .text.MSS_UART_tx_complete:0000000000000020 .LVL110
     /tmp/cc7jEFKv.s:1728   .text.MSS_UART_tx_complete:0000000000000022 .LVL111
     /tmp/cc7jEFKv.s:1709   .text.MSS_UART_tx_complete:000000000000000e .LVL108
     /tmp/cc7jEFKv.s:1652   .text.MSS_UART_irq_tx:0000000000000000 .LVL105
     /tmp/cc7jEFKv.s:1565   .text.MSS_UART_polled_tx_string:0000000000000000 .LVL94
     /tmp/cc7jEFKv.s:1581   .text.MSS_UART_polled_tx_string:0000000000000008 .LVL96
     /tmp/cc7jEFKv.s:1609   .text.MSS_UART_polled_tx_string:0000000000000032 .LVL99
     /tmp/cc7jEFKv.s:1614   .text.MSS_UART_polled_tx_string:000000000000003a .LVL100
     /tmp/cc7jEFKv.s:1617   .text.MSS_UART_polled_tx_string:000000000000003c .LVL101
     /tmp/cc7jEFKv.s:1623   .text.MSS_UART_polled_tx_string:0000000000000042 .LVL102
     /tmp/cc7jEFKv.s:1577   .text.MSS_UART_polled_tx_string:0000000000000006 .LVL95
     /tmp/cc7jEFKv.s:1637   .text.MSS_UART_polled_tx_string:0000000000000052 .LVL104
     /tmp/cc7jEFKv.s:1595   .text.MSS_UART_polled_tx_string:000000000000001c .LVL97
     /tmp/cc7jEFKv.s:1601   .text.MSS_UART_polled_tx_string:0000000000000022 .LVL98
     /tmp/cc7jEFKv.s:1473   .text.MSS_UART_polled_tx:0000000000000000 .LVL83
     /tmp/cc7jEFKv.s:1492   .text.MSS_UART_polled_tx:000000000000000c .LVL84
     /tmp/cc7jEFKv.s:1496   .text.MSS_UART_polled_tx:0000000000000010 .LVL85
     /tmp/cc7jEFKv.s:1536   .text.MSS_UART_polled_tx:000000000000003e .LVL91
     /tmp/cc7jEFKv.s:1545   .text.MSS_UART_polled_tx:0000000000000048 .LVL92
     /tmp/cc7jEFKv.s:1550   .text.MSS_UART_polled_tx:000000000000004c .LVL93
     /tmp/cc7jEFKv.s:1523   .text.MSS_UART_polled_tx:000000000000002c .LVL89
     /tmp/cc7jEFKv.s:1503   .text.MSS_UART_polled_tx:0000000000000018 .LVL86
     /tmp/cc7jEFKv.s:1510   .text.MSS_UART_polled_tx:000000000000001e .LVL87
     /tmp/cc7jEFKv.s:1515   .text.MSS_UART_polled_tx:0000000000000024 .LVL88
     /tmp/cc7jEFKv.s:1406   .text.MSS_UART_smartcard_init:0000000000000000 .LVL80
     /tmp/cc7jEFKv.s:1458   .text.MSS_UART_smartcard_init:0000000000000054 .LVL82
     /tmp/cc7jEFKv.s:1300   .text.MSS_UART_irda_init:0000000000000000 .LVL76
     /tmp/cc7jEFKv.s:1374   .text.MSS_UART_irda_init:0000000000000072 .LVL78
     /tmp/cc7jEFKv.s:1378   .text.MSS_UART_irda_init:0000000000000076 .LVL79
     /tmp/cc7jEFKv.s:1249   .text.MSS_UART_lin_init:0000000000000000 .LVL73
     /tmp/cc7jEFKv.s:1285   .text.MSS_UART_lin_init:000000000000003a .LVL75
     /tmp/cc7jEFKv.s:1194   .text.MSS_UART_init:0000000000000000 .LVL70
     /tmp/cc7jEFKv.s:1234   .text.MSS_UART_init:0000000000000044 .LVL72
     /tmp/cc7jEFKv.s:975    .text.enable_irq:0000000000000008 .LVL50
     /tmp/cc7jEFKv.s:1175   .text.enable_irq:0000000000000136 .LVL69
     /tmp/cc7jEFKv.s:1031   .text.enable_irq:0000000000000096 .LVL51
     /tmp/cc7jEFKv.s:1060   .text.enable_irq:00000000000000b8 .LVL54
     /tmp/cc7jEFKv.s:1078   .text.enable_irq:00000000000000c2 .LVL55
     /tmp/cc7jEFKv.s:1086   .text.enable_irq:00000000000000cc .LVL56
     /tmp/cc7jEFKv.s:1092   .text.enable_irq:00000000000000d0 .LVL57
     /tmp/cc7jEFKv.s:1099   .text.enable_irq:00000000000000da .LVL58
     /tmp/cc7jEFKv.s:1107   .text.enable_irq:00000000000000e4 .LVL59
     /tmp/cc7jEFKv.s:1113   .text.enable_irq:00000000000000ea .LVL60
     /tmp/cc7jEFKv.s:1120   .text.enable_irq:00000000000000f4 .LVL61
     /tmp/cc7jEFKv.s:1128   .text.enable_irq:00000000000000fe .LVL62
     /tmp/cc7jEFKv.s:1134   .text.enable_irq:0000000000000104 .LVL63
     /tmp/cc7jEFKv.s:1141   .text.enable_irq:000000000000010e .LVL64
     /tmp/cc7jEFKv.s:1149   .text.enable_irq:0000000000000118 .LVL65
     /tmp/cc7jEFKv.s:1155   .text.enable_irq:000000000000011e .LVL66
     /tmp/cc7jEFKv.s:1162   .text.enable_irq:0000000000000128 .LVL67
     /tmp/cc7jEFKv.s:1170   .text.enable_irq:0000000000000132 .LVL68
     /tmp/cc7jEFKv.s:1044   .text.enable_irq:000000000000009a .LVL52
     /tmp/cc7jEFKv.s:1053   .text.enable_irq:00000000000000aa .LVL53
     /tmp/cc7jEFKv.s:3322   .debug_info:0000000000000000 .Ldebug_info0
     /tmp/cc7jEFKv.s:45     .text.global_init:000000000000002e .LBE4
     /tmp/cc7jEFKv.s:112    .text.global_init:00000000000000c6 .LBB9
     /tmp/cc7jEFKv.s:119    .text.global_init:00000000000000d2 .LBE9
     /tmp/cc7jEFKv.s:130    .text.global_init:00000000000000de .LBB10
     /tmp/cc7jEFKv.s:206    .text.global_init:000000000000014c .LBE10
     /tmp/cc7jEFKv.s:396    .text.global_init:00000000000002bc .LBB11
     /tmp/cc7jEFKv.s:421    .text.global_init:00000000000002ea .LBE11
     /tmp/cc7jEFKv.s:1489   .text.MSS_UART_polled_tx:000000000000000a .LBB29
     /tmp/cc7jEFKv.s:1497   .text.MSS_UART_polled_tx:0000000000000010 .LBE29
     /tmp/cc7jEFKv.s:1513   .text.MSS_UART_polled_tx:0000000000000024 .LBB30
     /tmp/cc7jEFKv.s:1547   .text.MSS_UART_polled_tx:000000000000004a .LBE30

UNDEFINED SYMBOLS
__disable_local_irq
__enable_local_irq
