Archive member included to satisfy reference by file (symbol)

/home/vinay/Desktop/soft_console/SoftConsole-v2022.2-RISC-V-747/riscv-unknown-elf-gcc/bin/../lib/gcc/riscv64-unknown-elf/8.3.0/../../../../riscv64-unknown-elf/lib/libg_nano.a(lib_a-errno.o)
                              ./src/platform/mpfs_hal/startup_gcc/newlib_stubs.o (__errno)
/home/vinay/Desktop/soft_console/SoftConsole-v2022.2-RISC-V-747/riscv-unknown-elf-gcc/bin/../lib/gcc/riscv64-unknown-elf/8.3.0/../../../../riscv64-unknown-elf/lib/libg_nano.a(lib_a-impure.o)
                              /home/vinay/Desktop/soft_console/SoftConsole-v2022.2-RISC-V-747/riscv-unknown-elf-gcc/bin/../lib/gcc/riscv64-unknown-elf/8.3.0/../../../../riscv64-unknown-elf/lib/libg_nano.a(lib_a-errno.o) (_impure_ptr)
/home/vinay/Desktop/soft_console/SoftConsole-v2022.2-RISC-V-747/riscv-unknown-elf-gcc/bin/../lib/gcc/riscv64-unknown-elf/8.3.0/../../../../riscv64-unknown-elf/lib/libg_nano.a(lib_a-memcmp.o)
                              ./src/platform/mpfs_hal/common/nwc/mss_ddr_debug.o (memcmp)
/home/vinay/Desktop/soft_console/SoftConsole-v2022.2-RISC-V-747/riscv-unknown-elf-gcc/bin/../lib/gcc/riscv64-unknown-elf/8.3.0/../../../../riscv64-unknown-elf/lib/libg_nano.a(lib_a-memcpy-asm.o)
                              ./src/application/hart1/u54_1.o (memcpy)
/home/vinay/Desktop/soft_console/SoftConsole-v2022.2-RISC-V-747/riscv-unknown-elf-gcc/bin/../lib/gcc/riscv64-unknown-elf/8.3.0/../../../../riscv64-unknown-elf/lib/libg_nano.a(lib_a-rand.o)
                              ./src/platform/mpfs_hal/common/nwc/mss_ddr_debug.o (rand)
/home/vinay/Desktop/soft_console/SoftConsole-v2022.2-RISC-V-747/riscv-unknown-elf-gcc/bin/../lib/gcc/riscv64-unknown-elf/8.3.0/../../../../riscv64-unknown-elf/lib/libg_nano.a(lib_a-sprintf.o)
                              ./src/application/hart1/u54_1.o (sprintf)
/home/vinay/Desktop/soft_console/SoftConsole-v2022.2-RISC-V-747/riscv-unknown-elf-gcc/bin/../lib/gcc/riscv64-unknown-elf/8.3.0/../../../../riscv64-unknown-elf/lib/libg_nano.a(lib_a-malloc.o)
                              /home/vinay/Desktop/soft_console/SoftConsole-v2022.2-RISC-V-747/riscv-unknown-elf-gcc/bin/../lib/gcc/riscv64-unknown-elf/8.3.0/../../../../riscv64-unknown-elf/lib/libg_nano.a(lib_a-rand.o) (malloc)
/home/vinay/Desktop/soft_console/SoftConsole-v2022.2-RISC-V-747/riscv-unknown-elf-gcc/bin/../lib/gcc/riscv64-unknown-elf/8.3.0/../../../../riscv64-unknown-elf/lib/libg_nano.a(lib_a-nano-freer.o)
                              /home/vinay/Desktop/soft_console/SoftConsole-v2022.2-RISC-V-747/riscv-unknown-elf-gcc/bin/../lib/gcc/riscv64-unknown-elf/8.3.0/../../../../riscv64-unknown-elf/lib/libg_nano.a(lib_a-malloc.o) (_free_r)
/home/vinay/Desktop/soft_console/SoftConsole-v2022.2-RISC-V-747/riscv-unknown-elf-gcc/bin/../lib/gcc/riscv64-unknown-elf/8.3.0/../../../../riscv64-unknown-elf/lib/libg_nano.a(lib_a-nano-mallocr.o)
                              /home/vinay/Desktop/soft_console/SoftConsole-v2022.2-RISC-V-747/riscv-unknown-elf-gcc/bin/../lib/gcc/riscv64-unknown-elf/8.3.0/../../../../riscv64-unknown-elf/lib/libg_nano.a(lib_a-malloc.o) (_malloc_r)
/home/vinay/Desktop/soft_console/SoftConsole-v2022.2-RISC-V-747/riscv-unknown-elf-gcc/bin/../lib/gcc/riscv64-unknown-elf/8.3.0/../../../../riscv64-unknown-elf/lib/libg_nano.a(lib_a-nano-svfprintf.o)
                              /home/vinay/Desktop/soft_console/SoftConsole-v2022.2-RISC-V-747/riscv-unknown-elf-gcc/bin/../lib/gcc/riscv64-unknown-elf/8.3.0/../../../../riscv64-unknown-elf/lib/libg_nano.a(lib_a-sprintf.o) (_svfprintf_r)
/home/vinay/Desktop/soft_console/SoftConsole-v2022.2-RISC-V-747/riscv-unknown-elf-gcc/bin/../lib/gcc/riscv64-unknown-elf/8.3.0/../../../../riscv64-unknown-elf/lib/libg_nano.a(lib_a-nano-vfprintf_i.o)
                              /home/vinay/Desktop/soft_console/SoftConsole-v2022.2-RISC-V-747/riscv-unknown-elf-gcc/bin/../lib/gcc/riscv64-unknown-elf/8.3.0/../../../../riscv64-unknown-elf/lib/libg_nano.a(lib_a-nano-svfprintf.o) (_printf_i)
/home/vinay/Desktop/soft_console/SoftConsole-v2022.2-RISC-V-747/riscv-unknown-elf-gcc/bin/../lib/gcc/riscv64-unknown-elf/8.3.0/../../../../riscv64-unknown-elf/lib/libg_nano.a(lib_a-sbrkr.o)
                              /home/vinay/Desktop/soft_console/SoftConsole-v2022.2-RISC-V-747/riscv-unknown-elf-gcc/bin/../lib/gcc/riscv64-unknown-elf/8.3.0/../../../../riscv64-unknown-elf/lib/libg_nano.a(lib_a-nano-mallocr.o) (_sbrk_r)
/home/vinay/Desktop/soft_console/SoftConsole-v2022.2-RISC-V-747/riscv-unknown-elf-gcc/bin/../lib/gcc/riscv64-unknown-elf/8.3.0/../../../../riscv64-unknown-elf/lib/libg_nano.a(lib_a-memchr.o)
                              /home/vinay/Desktop/soft_console/SoftConsole-v2022.2-RISC-V-747/riscv-unknown-elf-gcc/bin/../lib/gcc/riscv64-unknown-elf/8.3.0/../../../../riscv64-unknown-elf/lib/libg_nano.a(lib_a-nano-svfprintf.o) (memchr)
/home/vinay/Desktop/soft_console/SoftConsole-v2022.2-RISC-V-747/riscv-unknown-elf-gcc/bin/../lib/gcc/riscv64-unknown-elf/8.3.0/../../../../riscv64-unknown-elf/lib/libg_nano.a(lib_a-memmove.o)
                              /home/vinay/Desktop/soft_console/SoftConsole-v2022.2-RISC-V-747/riscv-unknown-elf-gcc/bin/../lib/gcc/riscv64-unknown-elf/8.3.0/../../../../riscv64-unknown-elf/lib/libg_nano.a(lib_a-nano-svfprintf.o) (memmove)
/home/vinay/Desktop/soft_console/SoftConsole-v2022.2-RISC-V-747/riscv-unknown-elf-gcc/bin/../lib/gcc/riscv64-unknown-elf/8.3.0/../../../../riscv64-unknown-elf/lib/libg_nano.a(lib_a-mlock.o)
                              /home/vinay/Desktop/soft_console/SoftConsole-v2022.2-RISC-V-747/riscv-unknown-elf-gcc/bin/../lib/gcc/riscv64-unknown-elf/8.3.0/../../../../riscv64-unknown-elf/lib/libg_nano.a(lib_a-nano-freer.o) (__malloc_lock)
/home/vinay/Desktop/soft_console/SoftConsole-v2022.2-RISC-V-747/riscv-unknown-elf-gcc/bin/../lib/gcc/riscv64-unknown-elf/8.3.0/../../../../riscv64-unknown-elf/lib/libg_nano.a(lib_a-nano-reallocr.o)
                              /home/vinay/Desktop/soft_console/SoftConsole-v2022.2-RISC-V-747/riscv-unknown-elf-gcc/bin/../lib/gcc/riscv64-unknown-elf/8.3.0/../../../../riscv64-unknown-elf/lib/libg_nano.a(lib_a-nano-svfprintf.o) (_realloc_r)
/home/vinay/Desktop/soft_console/SoftConsole-v2022.2-RISC-V-747/riscv-unknown-elf-gcc/bin/../lib/gcc/riscv64-unknown-elf/8.3.0/../../../../riscv64-unknown-elf/lib/libg_nano.a(lib_a-reent.o)
                              /home/vinay/Desktop/soft_console/SoftConsole-v2022.2-RISC-V-747/riscv-unknown-elf-gcc/bin/../lib/gcc/riscv64-unknown-elf/8.3.0/../../../../riscv64-unknown-elf/lib/libg_nano.a(lib_a-sbrkr.o) (errno)
/home/vinay/Desktop/soft_console/SoftConsole-v2022.2-RISC-V-747/riscv-unknown-elf-gcc/bin/../lib/gcc/riscv64-unknown-elf/8.3.0/../../../../riscv64-unknown-elf/lib/libg_nano.a(lib_a-nano-msizer.o)
                              /home/vinay/Desktop/soft_console/SoftConsole-v2022.2-RISC-V-747/riscv-unknown-elf-gcc/bin/../lib/gcc/riscv64-unknown-elf/8.3.0/../../../../riscv64-unknown-elf/lib/libg_nano.a(lib_a-nano-reallocr.o) (_malloc_usable_size_r)

Allocating common symbols
Common symbol       size              file

g_mss_uart4_hi      0x78              ./src/platform/drivers/mss/mss_mmuart/mss_uart.o
g_mss_uart2_lo      0x78              ./src/platform/drivers/mss/mss_mmuart/mss_uart.o
errno               0x4               /home/vinay/Desktop/soft_console/SoftConsole-v2022.2-RISC-V-747/riscv-unknown-elf-gcc/bin/../lib/gcc/riscv64-unknown-elf/8.3.0/../../../../riscv64-unknown-elf/lib/libg_nano.a(lib_a-reent.o)
ddr_diag            0x10              ./src/platform/mpfs_hal/common/nwc/mss_ddr.o
g_mss_uart1_hi      0x78              ./src/platform/drivers/mss/mss_mmuart/mss_uart.o
g_mss_uart2_hi      0x78              ./src/platform/drivers/mss/mss_mmuart/mss_uart.o
calib_data          0x80              ./src/platform/mpfs_hal/common/nwc/mss_ddr.o
g_mss_uart0_lo      0x78              ./src/platform/drivers/mss/mss_mmuart/mss_uart.o
g_mss_uart4_lo      0x78              ./src/platform/drivers/mss/mss_mmuart/mss_uart.o
g_mss_uart3_lo      0x78              ./src/platform/drivers/mss/mss_mmuart/mss_uart.o
ddr_test            0x8               ./src/platform/mpfs_hal/common/nwc/mss_ddr_debug.o
g_mss_uart0_hi      0x78              ./src/platform/drivers/mss/mss_mmuart/mss_uart.o
g_mss_uart1_lo      0x78              ./src/platform/drivers/mss/mss_mmuart/mss_uart.o
g_mss_uart3_hi      0x78              ./src/platform/drivers/mss/mss_mmuart/mss_uart.o

Discarded input sections

 .text          0x0000000000000000        0x0 ./src/platform/mpfs_hal/startup_gcc/mss_entry.o
 .data          0x0000000000000000        0x0 ./src/platform/mpfs_hal/startup_gcc/mss_entry.o
 .bss           0x0000000000000000        0x0 ./src/platform/mpfs_hal/startup_gcc/mss_entry.o
 .text          0x0000000000000000        0x0 ./src/platform/mpfs_hal/startup_gcc/mss_utils.o
 .data          0x0000000000000000        0x0 ./src/platform/mpfs_hal/startup_gcc/mss_utils.o
 .bss           0x0000000000000000        0x0 ./src/platform/mpfs_hal/startup_gcc/mss_utils.o
 .text          0x0000000000000000        0x0 ./src/platform/mpfs_hal/startup_gcc/newlib_stubs.o
 .data          0x0000000000000000        0x0 ./src/platform/mpfs_hal/startup_gcc/newlib_stubs.o
 .bss           0x0000000000000000        0x0 ./src/platform/mpfs_hal/startup_gcc/newlib_stubs.o
 .text._close   0x0000000000000000        0x4 ./src/platform/mpfs_hal/startup_gcc/newlib_stubs.o
 .text._execve  0x0000000000000000       0x18 ./src/platform/mpfs_hal/startup_gcc/newlib_stubs.o
 .text._exit    0x0000000000000000        0x2 ./src/platform/mpfs_hal/startup_gcc/newlib_stubs.o
 .text._fork    0x0000000000000000       0x18 ./src/platform/mpfs_hal/startup_gcc/newlib_stubs.o
 .text._fstat   0x0000000000000000        0x8 ./src/platform/mpfs_hal/startup_gcc/newlib_stubs.o
 .text._getpid  0x0000000000000000        0x4 ./src/platform/mpfs_hal/startup_gcc/newlib_stubs.o
 .text._isatty  0x0000000000000000        0x4 ./src/platform/mpfs_hal/startup_gcc/newlib_stubs.o
 .text._kill    0x0000000000000000       0x18 ./src/platform/mpfs_hal/startup_gcc/newlib_stubs.o
 .text._link    0x0000000000000000       0x18 ./src/platform/mpfs_hal/startup_gcc/newlib_stubs.o
 .text._lseek   0x0000000000000000        0x4 ./src/platform/mpfs_hal/startup_gcc/newlib_stubs.o
 .text._open    0x0000000000000000        0x4 ./src/platform/mpfs_hal/startup_gcc/newlib_stubs.o
 .text._read    0x0000000000000000        0x4 ./src/platform/mpfs_hal/startup_gcc/newlib_stubs.o
 .text._write_r
                0x0000000000000000        0x4 ./src/platform/mpfs_hal/startup_gcc/newlib_stubs.o
 .text._stat    0x0000000000000000        0x8 ./src/platform/mpfs_hal/startup_gcc/newlib_stubs.o
 .text._times   0x0000000000000000        0x4 ./src/platform/mpfs_hal/startup_gcc/newlib_stubs.o
 .text._unlink  0x0000000000000000       0x18 ./src/platform/mpfs_hal/startup_gcc/newlib_stubs.o
 .text._wait    0x0000000000000000       0x18 ./src/platform/mpfs_hal/startup_gcc/newlib_stubs.o
 .sbss.__env    0x0000000000000000        0x8 ./src/platform/mpfs_hal/startup_gcc/newlib_stubs.o
 .sdata.environ
                0x0000000000000000        0x8 ./src/platform/mpfs_hal/startup_gcc/newlib_stubs.o
 .text          0x0000000000000000        0x0 ./src/platform/mpfs_hal/startup_gcc/system_startup.o
 .data          0x0000000000000000        0x0 ./src/platform/mpfs_hal/startup_gcc/system_startup.o
 .bss           0x0000000000000000        0x0 ./src/platform/mpfs_hal/startup_gcc/system_startup.o
 .text.park_hart
                0x0000000000000000       0x14 ./src/platform/mpfs_hal/startup_gcc/system_startup.o
 .text.e51      0x0000000000000000        0x8 ./src/platform/mpfs_hal/startup_gcc/system_startup.o
 .text.u54_1    0x0000000000000000        0x8 ./src/platform/mpfs_hal/startup_gcc/system_startup.o
 .text.u54_2    0x0000000000000000        0x8 ./src/platform/mpfs_hal/startup_gcc/system_startup.o
 .text.u54_3    0x0000000000000000        0x8 ./src/platform/mpfs_hal/startup_gcc/system_startup.o
 .text.u54_4    0x0000000000000000        0x8 ./src/platform/mpfs_hal/startup_gcc/system_startup.o
 .text.init_ddr
                0x0000000000000000       0x14 ./src/platform/mpfs_hal/startup_gcc/system_startup.o
 .sbss.counter.12972
                0x0000000000000000        0x8 ./src/platform/mpfs_hal/startup_gcc/system_startup.o
 .text          0x0000000000000000        0x0 ./src/platform/mpfs_hal/common/nwc/mss_cfm.o
 .data          0x0000000000000000        0x0 ./src/platform/mpfs_hal/common/nwc/mss_cfm.o
 .bss           0x0000000000000000        0x0 ./src/platform/mpfs_hal/common/nwc/mss_cfm.o
 .text.MSS_CFM_control_start
                0x0000000000000000       0x14 ./src/platform/mpfs_hal/common/nwc/mss_cfm.o
 .text.MSS_CFM_control_stop
                0x0000000000000000       0x14 ./src/platform/mpfs_hal/common/nwc/mss_cfm.o
 .text.MSS_CLF_clk_configuration
                0x0000000000000000       0x7a ./src/platform/mpfs_hal/common/nwc/mss_cfm.o
 .text.MSS_CFM_runtime_register
                0x0000000000000000        0xc ./src/platform/mpfs_hal/common/nwc/mss_cfm.o
 .text.MSS_CFM_channel_mode
                0x0000000000000000       0x6c ./src/platform/mpfs_hal/common/nwc/mss_cfm.o
 .text.MSS_CFM_get_count
                0x0000000000000000       0x7c ./src/platform/mpfs_hal/common/nwc/mss_cfm.o
 .rodata.MSS_CFM_get_count
                0x0000000000000000       0x20 ./src/platform/mpfs_hal/common/nwc/mss_cfm.o
 .debug_info    0x0000000000000000    0x1ecd1 ./src/platform/mpfs_hal/common/nwc/mss_cfm.o
 .debug_abbrev  0x0000000000000000      0x34c ./src/platform/mpfs_hal/common/nwc/mss_cfm.o
 .debug_loc     0x0000000000000000      0x1a0 ./src/platform/mpfs_hal/common/nwc/mss_cfm.o
 .debug_aranges
                0x0000000000000000       0x80 ./src/platform/mpfs_hal/common/nwc/mss_cfm.o
 .debug_ranges  0x0000000000000000       0x70 ./src/platform/mpfs_hal/common/nwc/mss_cfm.o
 .debug_line    0x0000000000000000      0x8ae ./src/platform/mpfs_hal/common/nwc/mss_cfm.o
 .debug_str     0x0000000000000000    0x131aa ./src/platform/mpfs_hal/common/nwc/mss_cfm.o
 .comment       0x0000000000000000       0x52 ./src/platform/mpfs_hal/common/nwc/mss_cfm.o
 .debug_frame   0x0000000000000000       0xa8 ./src/platform/mpfs_hal/common/nwc/mss_cfm.o
 .riscv.attributes
                0x0000000000000000       0x35 ./src/platform/mpfs_hal/common/nwc/mss_cfm.o
 .text          0x0000000000000000        0x0 ./src/platform/mpfs_hal/common/nwc/mss_ddr.o
 .data          0x0000000000000000        0x0 ./src/platform/mpfs_hal/common/nwc/mss_ddr.o
 .bss           0x0000000000000000        0x0 ./src/platform/mpfs_hal/common/nwc/mss_ddr.o
 .text          0x0000000000000000        0x0 ./src/platform/mpfs_hal/common/nwc/mss_ddr_debug.o
 .data          0x0000000000000000        0x0 ./src/platform/mpfs_hal/common/nwc/mss_ddr_debug.o
 .bss           0x0000000000000000        0x0 ./src/platform/mpfs_hal/common/nwc/mss_ddr_debug.o
 .text.execute_ddr_pattern
                0x0000000000000000        0x4 ./src/platform/mpfs_hal/common/nwc/mss_ddr_debug.o
 .data.progress
                0x0000000000000000       0x18 ./src/platform/mpfs_hal/common/nwc/mss_ddr_debug.o
 .rodata.str1.8
                0x0000000000000000       0x13 ./src/platform/mpfs_hal/common/nwc/mss_ddr_debug.o
 .text          0x0000000000000000        0x0 ./src/platform/mpfs_hal/common/nwc/mss_ddr_test_pattern.o
 .data          0x0000000000000000        0x0 ./src/platform/mpfs_hal/common/nwc/mss_ddr_test_pattern.o
 .bss           0x0000000000000000        0x0 ./src/platform/mpfs_hal/common/nwc/mss_ddr_test_pattern.o
 .text          0x0000000000000000        0x0 ./src/platform/mpfs_hal/common/nwc/mss_io.o
 .data          0x0000000000000000        0x0 ./src/platform/mpfs_hal/common/nwc/mss_io.o
 .bss           0x0000000000000000        0x0 ./src/platform/mpfs_hal/common/nwc/mss_io.o
 .text.set_bank2_and_bank4_volts
                0x0000000000000000       0x2a ./src/platform/mpfs_hal/common/nwc/mss_io.o
 .text.mss_is_alternate_io_configured
                0x0000000000000000        0x4 ./src/platform/mpfs_hal/common/nwc/mss_io.o
 .text.mss_is_alternate_io_setting_sd
                0x0000000000000000        0x4 ./src/platform/mpfs_hal/common/nwc/mss_io.o
 .text.mss_is_alternate_io_setting_emmc
                0x0000000000000000        0x4 ./src/platform/mpfs_hal/common/nwc/mss_io.o
 .text.mss_does_xml_ver_support_switch
                0x0000000000000000        0x4 ./src/platform/mpfs_hal/common/nwc/mss_io.o
 .text.switch_mssio_config
                0x0000000000000000       0x2c ./src/platform/mpfs_hal/common/nwc/mss_io.o
 .text.switch_external_mux
                0x0000000000000000       0x24 ./src/platform/mpfs_hal/common/nwc/mss_io.o
 .text.mss_get_gpio_interrupt_fab_cr
                0x0000000000000000        0xa ./src/platform/mpfs_hal/common/nwc/mss_io.o
 .text          0x0000000000000000        0x0 ./src/platform/mpfs_hal/common/nwc/mss_nwc_init.o
 .data          0x0000000000000000        0x0 ./src/platform/mpfs_hal/common/nwc/mss_nwc_init.o
 .bss           0x0000000000000000        0x0 ./src/platform/mpfs_hal/common/nwc/mss_nwc_init.o
 .text.mtime_delay
                0x0000000000000000       0x28 ./src/platform/mpfs_hal/common/nwc/mss_nwc_init.o
 .sdata2.SCBCFG_REGS
                0x0000000000000000        0x8 ./src/platform/mpfs_hal/common/nwc/mss_nwc_init.o
 .text          0x0000000000000000        0x0 ./src/platform/mpfs_hal/common/nwc/mss_pll.o
 .data          0x0000000000000000        0x0 ./src/platform/mpfs_hal/common/nwc/mss_pll.o
 .bss           0x0000000000000000        0x0 ./src/platform/mpfs_hal/common/nwc/mss_pll.o
 .text.ddr_pll_config_scb_turn_off
                0x0000000000000000        0xe ./src/platform/mpfs_hal/common/nwc/mss_pll.o
 .text.sgmii_pll_lock_scb
                0x0000000000000000       0x14 ./src/platform/mpfs_hal/common/nwc/mss_pll.o
 .text.copy_switch_code
                0x0000000000000000       0x2e ./src/platform/mpfs_hal/common/nwc/mss_pll.o
 .sdata2.MSS_SCB_CFM_MSS_MUX
                0x0000000000000000        0x8 ./src/platform/mpfs_hal/common/nwc/mss_pll.o
 .sdata2.MSS_SCB_CFM_SGMII_MUX
                0x0000000000000000        0x8 ./src/platform/mpfs_hal/common/nwc/mss_pll.o
 .sdata2.MSS_SCB_MSS_PLL
                0x0000000000000000        0x8 ./src/platform/mpfs_hal/common/nwc/mss_pll.o
 .sdata2.MSS_SCB_SGMII_PLL
                0x0000000000000000        0x8 ./src/platform/mpfs_hal/common/nwc/mss_pll.o
 .text          0x0000000000000000        0x0 ./src/platform/mpfs_hal/common/nwc/mss_sgmii.o
 .data          0x0000000000000000        0x0 ./src/platform/mpfs_hal/common/nwc/mss_sgmii.o
 .bss           0x0000000000000000        0x0 ./src/platform/mpfs_hal/common/nwc/mss_sgmii.o
 .text.sgmii_off_mode
                0x0000000000000000       0x38 ./src/platform/mpfs_hal/common/nwc/mss_sgmii.o
 .text.ddr_pvt_recalibration
                0x0000000000000000       0x6c ./src/platform/mpfs_hal/common/nwc/mss_sgmii.o
 .text          0x0000000000000000        0x0 ./src/platform/mpfs_hal/common/mss_axiswitch.o
 .data          0x0000000000000000        0x0 ./src/platform/mpfs_hal/common/mss_axiswitch.o
 .bss           0x0000000000000000        0x0 ./src/platform/mpfs_hal/common/mss_axiswitch.o
 .text.MSS_AXISW_get_hwcfg
                0x0000000000000000        0xa ./src/platform/mpfs_hal/common/mss_axiswitch.o
 .text.MSS_AXISW_get_vid
                0x0000000000000000        0xa ./src/platform/mpfs_hal/common/mss_axiswitch.o
 .text.MSS_AXISW_write_qos_val
                0x0000000000000000       0x3a ./src/platform/mpfs_hal/common/mss_axiswitch.o
 .text.MSS_AXISW_read_qos_val
                0x0000000000000000       0x4a ./src/platform/mpfs_hal/common/mss_axiswitch.o
 .text.MSS_AXISW_write_rate
                0x0000000000000000       0x44 ./src/platform/mpfs_hal/common/mss_axiswitch.o
 .text.MSS_AXISW_read_rate
                0x0000000000000000       0x54 ./src/platform/mpfs_hal/common/mss_axiswitch.o
 .text.MSS_AXISW_write_burstiness
                0x0000000000000000       0x48 ./src/platform/mpfs_hal/common/mss_axiswitch.o
 .text.MSS_AXISW_read_burstiness
                0x0000000000000000       0x50 ./src/platform/mpfs_hal/common/mss_axiswitch.o
 .text.MSS_AXISW_write_slave_ready
                0x0000000000000000       0x3a ./src/platform/mpfs_hal/common/mss_axiswitch.o
 .text.MSS_AXISW_read_slave_ready
                0x0000000000000000       0x4c ./src/platform/mpfs_hal/common/mss_axiswitch.o
 .debug_info    0x0000000000000000    0x1e52b ./src/platform/mpfs_hal/common/mss_axiswitch.o
 .debug_abbrev  0x0000000000000000      0x27d ./src/platform/mpfs_hal/common/mss_axiswitch.o
 .debug_loc     0x0000000000000000      0x36a ./src/platform/mpfs_hal/common/mss_axiswitch.o
 .debug_aranges
                0x0000000000000000       0xc0 ./src/platform/mpfs_hal/common/mss_axiswitch.o
 .debug_ranges  0x0000000000000000       0xb0 ./src/platform/mpfs_hal/common/mss_axiswitch.o
 .debug_line    0x0000000000000000      0xbd5 ./src/platform/mpfs_hal/common/mss_axiswitch.o
 .debug_str     0x0000000000000000    0x13049 ./src/platform/mpfs_hal/common/mss_axiswitch.o
 .comment       0x0000000000000000       0x52 ./src/platform/mpfs_hal/common/mss_axiswitch.o
 .debug_frame   0x0000000000000000      0x100 ./src/platform/mpfs_hal/common/mss_axiswitch.o
 .riscv.attributes
                0x0000000000000000       0x35 ./src/platform/mpfs_hal/common/mss_axiswitch.o
 .text          0x0000000000000000        0x0 ./src/platform/mpfs_hal/common/mss_clint.o
 .data          0x0000000000000000        0x0 ./src/platform/mpfs_hal/common/mss_clint.o
 .bss           0x0000000000000000        0x0 ./src/platform/mpfs_hal/common/mss_clint.o
 .text.reset_mtime
                0x0000000000000000        0xa ./src/platform/mpfs_hal/common/mss_clint.o
 .text.readmtime
                0x0000000000000000        0xa ./src/platform/mpfs_hal/common/mss_clint.o
 .text.SysTick_Config
                0x0000000000000000       0x86 ./src/platform/mpfs_hal/common/mss_clint.o
 .text.disable_systick
                0x0000000000000000        0xa ./src/platform/mpfs_hal/common/mss_clint.o
 .text          0x0000000000000000        0x0 ./src/platform/mpfs_hal/common/mss_h2f.o
 .data          0x0000000000000000        0x0 ./src/platform/mpfs_hal/common/mss_h2f.o
 .bss           0x0000000000000000        0x0 ./src/platform/mpfs_hal/common/mss_h2f.o
 .text.reset_m2f
                0x0000000000000000       0x1a ./src/platform/mpfs_hal/common/mss_h2f.o
 .text.enable_m2f_int_output
                0x0000000000000000       0x50 ./src/platform/mpfs_hal/common/mss_h2f.o
 .text.disable_m2f_int_output
                0x0000000000000000       0x4a ./src/platform/mpfs_hal/common/mss_h2f.o
 .rodata.M2F_int_mapping
                0x0000000000000000       0xba ./src/platform/mpfs_hal/common/mss_h2f.o
 .debug_info    0x0000000000000000      0x70c ./src/platform/mpfs_hal/common/mss_h2f.o
 .debug_abbrev  0x0000000000000000      0x154 ./src/platform/mpfs_hal/common/mss_h2f.o
 .debug_loc     0x0000000000000000      0x2a9 ./src/platform/mpfs_hal/common/mss_h2f.o
 .debug_aranges
                0x0000000000000000       0x50 ./src/platform/mpfs_hal/common/mss_h2f.o
 .debug_ranges  0x0000000000000000       0xa0 ./src/platform/mpfs_hal/common/mss_h2f.o
 .debug_line    0x0000000000000000      0x392 ./src/platform/mpfs_hal/common/mss_h2f.o
 .debug_str     0x0000000000000000     0x16fe ./src/platform/mpfs_hal/common/mss_h2f.o
 .comment       0x0000000000000000       0x52 ./src/platform/mpfs_hal/common/mss_h2f.o
 .debug_frame   0x0000000000000000       0x58 ./src/platform/mpfs_hal/common/mss_h2f.o
 .riscv.attributes
                0x0000000000000000       0x35 ./src/platform/mpfs_hal/common/mss_h2f.o
 .text          0x0000000000000000        0x0 ./src/platform/mpfs_hal/common/mss_irq_handler_stubs.o
 .data          0x0000000000000000        0x0 ./src/platform/mpfs_hal/common/mss_irq_handler_stubs.o
 .bss           0x0000000000000000        0x0 ./src/platform/mpfs_hal/common/mss_irq_handler_stubs.o
 .text.handle_m_ext_interrupt
                0x0000000000000000        0x2 ./src/platform/mpfs_hal/common/mss_irq_handler_stubs.o
 .text.E51_software_IRQHandler
                0x0000000000000000        0x2 ./src/platform/mpfs_hal/common/mss_irq_handler_stubs.o
 .text.U54_2_software_IRQHandler
                0x0000000000000000        0x2 ./src/platform/mpfs_hal/common/mss_irq_handler_stubs.o
 .text.U54_3_software_IRQHandler
                0x0000000000000000        0x2 ./src/platform/mpfs_hal/common/mss_irq_handler_stubs.o
 .text.U54_4_software_IRQHandler
                0x0000000000000000        0x2 ./src/platform/mpfs_hal/common/mss_irq_handler_stubs.o
 .text.PLIC_mmuart0_IRQHandler
                0x0000000000000000        0x4 ./src/platform/mpfs_hal/common/mss_irq_handler_stubs.o
 .text.PLIC_mmuart1_IRQHandler
                0x0000000000000000        0x4 ./src/platform/mpfs_hal/common/mss_irq_handler_stubs.o
 .text.PLIC_mmuart2_IRQHandler
                0x0000000000000000        0x4 ./src/platform/mpfs_hal/common/mss_irq_handler_stubs.o
 .text.PLIC_mmuart3_IRQHandler
                0x0000000000000000        0x4 ./src/platform/mpfs_hal/common/mss_irq_handler_stubs.o
 .text.PLIC_mmuart4_IRQHandler
                0x0000000000000000        0x4 ./src/platform/mpfs_hal/common/mss_irq_handler_stubs.o
 .text.E51_mmuart0_local_IRQHandler
                0x0000000000000000        0x2 ./src/platform/mpfs_hal/common/mss_irq_handler_stubs.o
 .text.U54_1_mmuart1_local_IRQHandler
                0x0000000000000000        0x2 ./src/platform/mpfs_hal/common/mss_irq_handler_stubs.o
 .text.U54_2_mmuart2_local_IRQHandler
                0x0000000000000000        0x2 ./src/platform/mpfs_hal/common/mss_irq_handler_stubs.o
 .text.U54_3_mmuart3_local_IRQHandler
                0x0000000000000000        0x2 ./src/platform/mpfs_hal/common/mss_irq_handler_stubs.o
 .text.U54_4_mmuart4_local_IRQHandler
                0x0000000000000000        0x2 ./src/platform/mpfs_hal/common/mss_irq_handler_stubs.o
 .text          0x0000000000000000        0x0 ./src/platform/mpfs_hal/common/mss_l2_cache.o
 .data          0x0000000000000000        0x0 ./src/platform/mpfs_hal/common/mss_l2_cache.o
 .bss           0x0000000000000000        0x0 ./src/platform/mpfs_hal/common/mss_l2_cache.o
 .text          0x0000000000000000        0x0 ./src/platform/mpfs_hal/common/mss_mpu.o
 .data          0x0000000000000000        0x0 ./src/platform/mpfs_hal/common/mss_mpu.o
 .bss           0x0000000000000000        0x0 ./src/platform/mpfs_hal/common/mss_mpu.o
 .text.MSS_MPU_configure
                0x0000000000000000       0x7a ./src/platform/mpfs_hal/common/mss_mpu.o
 .text.MSS_MPU_get_config
                0x0000000000000000       0x9e ./src/platform/mpfs_hal/common/mss_mpu.o
 .data.num_pmp_lut
                0x0000000000000000        0xa ./src/platform/mpfs_hal/common/mss_mpu.o
 .text          0x0000000000000000        0x0 ./src/platform/mpfs_hal/common/mss_mtrap.o
 .data          0x0000000000000000        0x0 ./src/platform/mpfs_hal/common/mss_mtrap.o
 .bss           0x0000000000000000        0x0 ./src/platform/mpfs_hal/common/mss_mtrap.o
 .text.bad_trap
                0x0000000000000000        0x2 ./src/platform/mpfs_hal/common/mss_mtrap.o
 .text.misaligned_store_trap
                0x0000000000000000        0x2 ./src/platform/mpfs_hal/common/mss_mtrap.o
 .text.misaligned_load_trap
                0x0000000000000000        0x2 ./src/platform/mpfs_hal/common/mss_mtrap.o
 .text.illegal_insn_trap
                0x0000000000000000        0x2 ./src/platform/mpfs_hal/common/mss_mtrap.o
 .text.pmp_trap
                0x0000000000000000        0x2 ./src/platform/mpfs_hal/common/mss_mtrap.o
 .text          0x0000000000000000        0x0 ./src/platform/mpfs_hal/common/mss_peripherals.o
 .data          0x0000000000000000        0x0 ./src/platform/mpfs_hal/common/mss_peripherals.o
 .bss           0x0000000000000000        0x0 ./src/platform/mpfs_hal/common/mss_peripherals.o
 .text.mss_disable_fabric
                0x0000000000000000       0x16 ./src/platform/mpfs_hal/common/mss_peripherals.o
 .text.mss_get_apb_bus_cr
                0x0000000000000000        0xc ./src/platform/mpfs_hal/common/mss_peripherals.o
 .rodata.LIBERO_SETTING_CONTEXT_EN
                0x0000000000000000       0x10 ./src/platform/mpfs_hal/common/mss_peripherals.o
 .text          0x0000000000000000        0x0 ./src/platform/mpfs_hal/common/mss_plic.o
 .data          0x0000000000000000        0x0 ./src/platform/mpfs_hal/common/mss_plic.o
 .bss           0x0000000000000000        0x0 ./src/platform/mpfs_hal/common/mss_plic.o
 .text          0x0000000000000000        0x0 ./src/platform/mpfs_hal/common/mss_pmp.o
 .data          0x0000000000000000        0x0 ./src/platform/mpfs_hal/common/mss_pmp.o
 .bss           0x0000000000000000        0x0 ./src/platform/mpfs_hal/common/mss_pmp.o
 .text.pmp_master_configs
                0x0000000000000000       0x4c ./src/platform/mpfs_hal/common/mss_pmp.o
 .text          0x0000000000000000        0x0 ./src/platform/mpfs_hal/common/mss_util.o
 .data          0x0000000000000000        0x0 ./src/platform/mpfs_hal/common/mss_util.o
 .bss           0x0000000000000000        0x0 ./src/platform/mpfs_hal/common/mss_util.o
 .text.enable_interrupts
                0x0000000000000000        0x6 ./src/platform/mpfs_hal/common/mss_util.o
 .text.restore_interrupts
                0x0000000000000000        0x6 ./src/platform/mpfs_hal/common/mss_util.o
 .text.disable_interrupts
                0x0000000000000000       0x1a ./src/platform/mpfs_hal/common/mss_util.o
 .text.__enable_local_irq
                0x0000000000000000       0xa8 ./src/platform/mpfs_hal/common/mss_util.o
 .text.__disable_local_irq
                0x0000000000000000       0x1c ./src/platform/mpfs_hal/common/mss_util.o
 .text.readmcycle
                0x0000000000000000        0x6 ./src/platform/mpfs_hal/common/mss_util.o
 .text.sleep_ms
                0x0000000000000000       0x2e ./src/platform/mpfs_hal/common/mss_util.o
 .text.sleep_cycles
                0x0000000000000000       0x1c ./src/platform/mpfs_hal/common/mss_util.o
 .text.get_program_counter
                0x0000000000000000       0x20 ./src/platform/mpfs_hal/common/mss_util.o
 .text.get_stack_pointer
                0x0000000000000000        0x6 ./src/platform/mpfs_hal/common/mss_util.o
 .text.get_tp_reg
                0x0000000000000000        0x6 ./src/platform/mpfs_hal/common/mss_util.o
 .text.disable_branch_prediction
                0x0000000000000000        0x6 ./src/platform/mpfs_hal/common/mss_util.o
 .text.enable_branch_prediction
                0x0000000000000000        0x6 ./src/platform/mpfs_hal/common/mss_util.o
 .text          0x0000000000000000        0x0 ./src/platform/hal/hal_irq.o
 .data          0x0000000000000000        0x0 ./src/platform/hal/hal_irq.o
 .bss           0x0000000000000000        0x0 ./src/platform/hal/hal_irq.o
 .text.HAL_enable_interrupts
                0x0000000000000000        0x8 ./src/platform/hal/hal_irq.o
 .text.HAL_disable_interrupts
                0x0000000000000000       0x1a ./src/platform/hal/hal_irq.o
 .text.HAL_restore_interrupts
                0x0000000000000000        0x6 ./src/platform/hal/hal_irq.o
 .debug_info    0x0000000000000000      0x9f4 ./src/platform/hal/hal_irq.o
 .debug_abbrev  0x0000000000000000      0x206 ./src/platform/hal/hal_irq.o
 .debug_loc     0x0000000000000000       0x4b ./src/platform/hal/hal_irq.o
 .debug_aranges
                0x0000000000000000       0x50 ./src/platform/hal/hal_irq.o
 .debug_ranges  0x0000000000000000       0x70 ./src/platform/hal/hal_irq.o
 .debug_line    0x0000000000000000      0x2bc ./src/platform/hal/hal_irq.o
 .debug_str     0x0000000000000000      0x654 ./src/platform/hal/hal_irq.o
 .comment       0x0000000000000000       0x52 ./src/platform/hal/hal_irq.o
 .debug_frame   0x0000000000000000       0x68 ./src/platform/hal/hal_irq.o
 .riscv.attributes
                0x0000000000000000       0x35 ./src/platform/hal/hal_irq.o
 .text          0x0000000000000000       0xa8 ./src/platform/hal/hw_reg_access.o
 .data          0x0000000000000000        0x0 ./src/platform/hal/hw_reg_access.o
 .bss           0x0000000000000000        0x0 ./src/platform/hal/hw_reg_access.o
 .debug_line    0x0000000000000000      0x196 ./src/platform/hal/hw_reg_access.o
 .debug_info    0x0000000000000000       0x2e ./src/platform/hal/hw_reg_access.o
 .debug_abbrev  0x0000000000000000       0x14 ./src/platform/hal/hw_reg_access.o
 .debug_aranges
                0x0000000000000000       0x30 ./src/platform/hal/hw_reg_access.o
 .debug_str     0x0000000000000000       0x71 ./src/platform/hal/hw_reg_access.o
 .riscv.attributes
                0x0000000000000000       0x33 ./src/platform/hal/hw_reg_access.o
 .text          0x0000000000000000        0x0 ./src/platform/drivers/mss/mss_mmuart/mss_uart.o
 .data          0x0000000000000000        0x0 ./src/platform/drivers/mss/mss_mmuart/mss_uart.o
 .bss           0x0000000000000000        0x0 ./src/platform/drivers/mss/mss_mmuart/mss_uart.o
 .text.disable_irq
                0x0000000000000000      0x146 ./src/platform/drivers/mss/mss_mmuart/mss_uart.o
 .rodata.disable_irq
                0x0000000000000000       0x14 ./src/platform/drivers/mss/mss_mmuart/mss_uart.o
 .text.enable_irq
                0x0000000000000000      0x13a ./src/platform/drivers/mss/mss_mmuart/mss_uart.o
 .rodata.enable_irq
                0x0000000000000000       0x14 ./src/platform/drivers/mss/mss_mmuart/mss_uart.o
 .text.MSS_UART_lin_init
                0x0000000000000000       0x3e ./src/platform/drivers/mss/mss_mmuart/mss_uart.o
 .text.MSS_UART_irda_init
                0x0000000000000000       0x94 ./src/platform/drivers/mss/mss_mmuart/mss_uart.o
 .text.MSS_UART_smartcard_init
                0x0000000000000000       0x58 ./src/platform/drivers/mss/mss_mmuart/mss_uart.o
 .text.MSS_UART_polled_tx
                0x0000000000000000       0x58 ./src/platform/drivers/mss/mss_mmuart/mss_uart.o
 .text.MSS_UART_irq_tx
                0x0000000000000000       0x38 ./src/platform/drivers/mss/mss_mmuart/mss_uart.o
 .text.MSS_UART_tx_complete
                0x0000000000000000       0x24 ./src/platform/drivers/mss/mss_mmuart/mss_uart.o
 .text.MSS_UART_get_rx
                0x0000000000000000       0x56 ./src/platform/drivers/mss/mss_mmuart/mss_uart.o
 .text.MSS_UART_enable_irq
                0x0000000000000000       0x2e ./src/platform/drivers/mss/mss_mmuart/mss_uart.o
 .text.MSS_UART_disable_irq
                0x0000000000000000       0x44 ./src/platform/drivers/mss/mss_mmuart/mss_uart.o
 .text.MSS_UART_set_rx_handler
                0x0000000000000000       0x46 ./src/platform/drivers/mss/mss_mmuart/mss_uart.o
 .text.MSS_UART_set_loopback
                0x0000000000000000       0x62 ./src/platform/drivers/mss/mss_mmuart/mss_uart.o
 .rodata.MSS_UART_set_loopback
                0x0000000000000000       0x14 ./src/platform/drivers/mss/mss_mmuart/mss_uart.o
 .text.MSS_UART_set_rxstatus_handler
                0x0000000000000000       0x1e ./src/platform/drivers/mss/mss_mmuart/mss_uart.o
 .text.MSS_UART_set_tx_handler
                0x0000000000000000       0x26 ./src/platform/drivers/mss/mss_mmuart/mss_uart.o
 .text.MSS_UART_set_modemstatus_handler
                0x0000000000000000       0x1e ./src/platform/drivers/mss/mss_mmuart/mss_uart.o
 .text.MSS_UART_fill_tx_fifo
                0x0000000000000000       0x54 ./src/platform/drivers/mss/mss_mmuart/mss_uart.o
 .text.MSS_UART_get_rx_status
                0x0000000000000000       0x16 ./src/platform/drivers/mss/mss_mmuart/mss_uart.o
 .text.MSS_UART_get_modem_status
                0x0000000000000000        0x8 ./src/platform/drivers/mss/mss_mmuart/mss_uart.o
 .text.MSS_UART_get_tx_status
                0x0000000000000000       0x1a ./src/platform/drivers/mss/mss_mmuart/mss_uart.o
 .text.MSS_UART_set_break
                0x0000000000000000       0x10 ./src/platform/drivers/mss/mss_mmuart/mss_uart.o
 .text.MSS_UART_clear_break
                0x0000000000000000       0x10 ./src/platform/drivers/mss/mss_mmuart/mss_uart.o
 .text.MSS_UART_set_pidpei_handler
                0x0000000000000000       0x1e ./src/platform/drivers/mss/mss_mmuart/mss_uart.o
 .text.MSS_UART_set_linbreak_handler
                0x0000000000000000       0x1e ./src/platform/drivers/mss/mss_mmuart/mss_uart.o
 .text.MSS_UART_set_linsync_handler
                0x0000000000000000       0x1e ./src/platform/drivers/mss/mss_mmuart/mss_uart.o
 .text.MSS_UART_set_nack_handler
                0x0000000000000000       0x1e ./src/platform/drivers/mss/mss_mmuart/mss_uart.o
 .text.MSS_UART_set_rx_timeout_handler
                0x0000000000000000       0x1e ./src/platform/drivers/mss/mss_mmuart/mss_uart.o
 .text.MSS_UART_enable_half_duplex
                0x0000000000000000       0x10 ./src/platform/drivers/mss/mss_mmuart/mss_uart.o
 .text.MSS_UART_disable_half_duplex
                0x0000000000000000       0x10 ./src/platform/drivers/mss/mss_mmuart/mss_uart.o
 .text.MSS_UART_set_rx_endian
                0x0000000000000000       0x26 ./src/platform/drivers/mss/mss_mmuart/mss_uart.o
 .text.MSS_UART_set_tx_endian
                0x0000000000000000       0x26 ./src/platform/drivers/mss/mss_mmuart/mss_uart.o
 .text.MSS_UART_set_filter_length
                0x0000000000000000       0x16 ./src/platform/drivers/mss/mss_mmuart/mss_uart.o
 .text.MSS_UART_enable_afm
                0x0000000000000000       0x10 ./src/platform/drivers/mss/mss_mmuart/mss_uart.o
 .text.MSS_UART_disable_afm
                0x0000000000000000       0x10 ./src/platform/drivers/mss/mss_mmuart/mss_uart.o
 .text.MSS_UART_enable_afclear
                0x0000000000000000       0x10 ./src/platform/drivers/mss/mss_mmuart/mss_uart.o
 .text.MSS_UART_disable_afclear
                0x0000000000000000       0x10 ./src/platform/drivers/mss/mss_mmuart/mss_uart.o
 .text.MSS_UART_enable_rx_timeout
                0x0000000000000000       0x14 ./src/platform/drivers/mss/mss_mmuart/mss_uart.o
 .text.MSS_UART_disable_rx_timeout
                0x0000000000000000       0x10 ./src/platform/drivers/mss/mss_mmuart/mss_uart.o
 .text.MSS_UART_enable_tx_time_guard
                0x0000000000000000       0x14 ./src/platform/drivers/mss/mss_mmuart/mss_uart.o
 .text.MSS_UART_disable_tx_time_guard
                0x0000000000000000       0x10 ./src/platform/drivers/mss/mss_mmuart/mss_uart.o
 .text.MSS_UART_set_address
                0x0000000000000000        0x8 ./src/platform/drivers/mss/mss_mmuart/mss_uart.o
 .text.MSS_UART_set_ready_mode
                0x0000000000000000       0x26 ./src/platform/drivers/mss/mss_mmuart/mss_uart.o
 .text.MSS_UART_set_usart_mode
                0x0000000000000000       0x28 ./src/platform/drivers/mss/mss_mmuart/mss_uart.o
 .text.MSS_UART_enable_local_irq
                0x0000000000000000       0x26 ./src/platform/drivers/mss/mss_mmuart/mss_uart.o
 .text          0x0000000000000000        0x0 ./src/platform/drivers/mss/mss_gpio/mss_gpio.o
 .data          0x0000000000000000        0x0 ./src/platform/drivers/mss/mss_gpio/mss_gpio.o
 .bss           0x0000000000000000        0x0 ./src/platform/drivers/mss/mss_gpio/mss_gpio.o
 .text.PLIC_EnableIRQ
                0x0000000000000000       0xa4 ./src/platform/drivers/mss/mss_gpio/mss_gpio.o
 .rodata.PLIC_EnableIRQ
                0x0000000000000000       0x14 ./src/platform/drivers/mss/mss_gpio/mss_gpio.o
 .text.PLIC_DisableIRQ
                0x0000000000000000       0xa0 ./src/platform/drivers/mss/mss_gpio/mss_gpio.o
 .rodata.PLIC_DisableIRQ
                0x0000000000000000       0x14 ./src/platform/drivers/mss/mss_gpio/mss_gpio.o
 .text.gpio_number_validate
                0x0000000000000000       0x4c ./src/platform/drivers/mss/mss_gpio/mss_gpio.o
 .text.MSS_GPIO_init
                0x0000000000000000        0x8 ./src/platform/drivers/mss/mss_gpio/mss_gpio.o
 .text.MSS_GPIO_config
                0x0000000000000000       0x30 ./src/platform/drivers/mss/mss_gpio/mss_gpio.o
 .text.MSS_GPIO_config_byte
                0x0000000000000000       0x5a ./src/platform/drivers/mss/mss_gpio/mss_gpio.o
 .text.MSS_GPIO_config_all
                0x0000000000000000        0x6 ./src/platform/drivers/mss/mss_gpio/mss_gpio.o
 .text.MSS_GPIO_set_output
                0x0000000000000000       0x3a ./src/platform/drivers/mss/mss_gpio/mss_gpio.o
 .text.MSS_GPIO_drive_inout
                0x0000000000000000       0x80 ./src/platform/drivers/mss/mss_gpio/mss_gpio.o
 .text.MSS_GPIO_enable_irq
                0x0000000000000000       0x88 ./src/platform/drivers/mss/mss_gpio/mss_gpio.o
 .text.MSS_GPIO_disable_irq
                0x0000000000000000       0x8c ./src/platform/drivers/mss/mss_gpio/mss_gpio.o
 .text.MSS_GPIO_enable_nondirect_irq
                0x0000000000000000       0x4c ./src/platform/drivers/mss/mss_gpio/mss_gpio.o
 .text.MSS_GPIO_disable_nondirect_irq
                0x0000000000000000       0x4c ./src/platform/drivers/mss/mss_gpio/mss_gpio.o
 .text.MSS_GPIO_clear_irq
                0x0000000000000000       0x32 ./src/platform/drivers/mss/mss_gpio/mss_gpio.o
 .rodata.g_gpio_irqn_lut
                0x0000000000000000       0xa4 ./src/platform/drivers/mss/mss_gpio/mss_gpio.o
 .debug_info    0x0000000000000000    0x1f053 ./src/platform/drivers/mss/mss_gpio/mss_gpio.o
 .debug_abbrev  0x0000000000000000      0x3cc ./src/platform/drivers/mss/mss_gpio/mss_gpio.o
 .debug_loc     0x0000000000000000      0x9bd ./src/platform/drivers/mss/mss_gpio/mss_gpio.o
 .debug_aranges
                0x0000000000000000      0x100 ./src/platform/drivers/mss/mss_gpio/mss_gpio.o
 .debug_ranges  0x0000000000000000       0xf0 ./src/platform/drivers/mss/mss_gpio/mss_gpio.o
 .debug_line    0x0000000000000000     0x1010 ./src/platform/drivers/mss/mss_gpio/mss_gpio.o
 .debug_str     0x0000000000000000    0x144c1 ./src/platform/drivers/mss/mss_gpio/mss_gpio.o
 .comment       0x0000000000000000       0x52 ./src/platform/drivers/mss/mss_gpio/mss_gpio.o
 .debug_frame   0x0000000000000000      0x230 ./src/platform/drivers/mss/mss_gpio/mss_gpio.o
 .riscv.attributes
                0x0000000000000000       0x35 ./src/platform/drivers/mss/mss_gpio/mss_gpio.o
 .text          0x0000000000000000        0x0 ./src/application/hart4/u54_4.o
 .data          0x0000000000000000        0x0 ./src/application/hart4/u54_4.o
 .bss           0x0000000000000000        0x0 ./src/application/hart4/u54_4.o
 .text          0x0000000000000000        0x0 ./src/application/hart3/u54_3.o
 .data          0x0000000000000000        0x0 ./src/application/hart3/u54_3.o
 .bss           0x0000000000000000        0x0 ./src/application/hart3/u54_3.o
 .text          0x0000000000000000        0x0 ./src/application/hart2/u54_2.o
 .data          0x0000000000000000        0x0 ./src/application/hart2/u54_2.o
 .bss           0x0000000000000000        0x0 ./src/application/hart2/u54_2.o
 .text          0x0000000000000000        0x0 ./src/application/hart1/u54_1.o
 .data          0x0000000000000000        0x0 ./src/application/hart1/u54_1.o
 .bss           0x0000000000000000        0x0 ./src/application/hart1/u54_1.o
 .text.print_data_double
                0x0000000000000000       0xb8 ./src/application/hart1/u54_1.o
 .bss.g_rx_buff
                0x0000000000000000       0x40 ./src/application/hart1/u54_1.o
 .rodata.print_data_double.str1.8
                0x0000000000000000       0x2d ./src/application/hart1/u54_1.o
 .sbss.g_rx_size
                0x0000000000000000        0x1 ./src/application/hart1/u54_1.o
 .sdata.w       0x0000000000000000        0x1 ./src/application/hart1/u54_1.o
 .text          0x0000000000000000        0x0 ./src/application/hart0/e51.o
 .data          0x0000000000000000        0x0 ./src/application/hart0/e51.o
 .bss           0x0000000000000000        0x0 ./src/application/hart0/e51.o
 .text          0x0000000000000000        0x0 /home/vinay/Desktop/soft_console/SoftConsole-v2022.2-RISC-V-747/riscv-unknown-elf-gcc/bin/../lib/gcc/riscv64-unknown-elf/8.3.0/../../../../riscv64-unknown-elf/lib/libg_nano.a(lib_a-errno.o)
 .data          0x0000000000000000        0x0 /home/vinay/Desktop/soft_console/SoftConsole-v2022.2-RISC-V-747/riscv-unknown-elf-gcc/bin/../lib/gcc/riscv64-unknown-elf/8.3.0/../../../../riscv64-unknown-elf/lib/libg_nano.a(lib_a-errno.o)
 .bss           0x0000000000000000        0x0 /home/vinay/Desktop/soft_console/SoftConsole-v2022.2-RISC-V-747/riscv-unknown-elf-gcc/bin/../lib/gcc/riscv64-unknown-elf/8.3.0/../../../../riscv64-unknown-elf/lib/libg_nano.a(lib_a-errno.o)
 .text.__errno  0x0000000000000000        0xc /home/vinay/Desktop/soft_console/SoftConsole-v2022.2-RISC-V-747/riscv-unknown-elf-gcc/bin/../lib/gcc/riscv64-unknown-elf/8.3.0/../../../../riscv64-unknown-elf/lib/libg_nano.a(lib_a-errno.o)
 .debug_frame   0x0000000000000000       0x28 /home/vinay/Desktop/soft_console/SoftConsole-v2022.2-RISC-V-747/riscv-unknown-elf-gcc/bin/../lib/gcc/riscv64-unknown-elf/8.3.0/../../../../riscv64-unknown-elf/lib/libg_nano.a(lib_a-errno.o)
 .riscv.attributes
                0x0000000000000000       0x35 /home/vinay/Desktop/soft_console/SoftConsole-v2022.2-RISC-V-747/riscv-unknown-elf-gcc/bin/../lib/gcc/riscv64-unknown-elf/8.3.0/../../../../riscv64-unknown-elf/lib/libg_nano.a(lib_a-errno.o)
 .text          0x0000000000000000        0x0 /home/vinay/Desktop/soft_console/SoftConsole-v2022.2-RISC-V-747/riscv-unknown-elf-gcc/bin/../lib/gcc/riscv64-unknown-elf/8.3.0/../../../../riscv64-unknown-elf/lib/libg_nano.a(lib_a-impure.o)
 .data          0x0000000000000000        0x0 /home/vinay/Desktop/soft_console/SoftConsole-v2022.2-RISC-V-747/riscv-unknown-elf-gcc/bin/../lib/gcc/riscv64-unknown-elf/8.3.0/../../../../riscv64-unknown-elf/lib/libg_nano.a(lib_a-impure.o)
 .bss           0x0000000000000000        0x0 /home/vinay/Desktop/soft_console/SoftConsole-v2022.2-RISC-V-747/riscv-unknown-elf-gcc/bin/../lib/gcc/riscv64-unknown-elf/8.3.0/../../../../riscv64-unknown-elf/lib/libg_nano.a(lib_a-impure.o)
 .sdata2._global_impure_ptr
                0x0000000000000000        0x8 /home/vinay/Desktop/soft_console/SoftConsole-v2022.2-RISC-V-747/riscv-unknown-elf-gcc/bin/../lib/gcc/riscv64-unknown-elf/8.3.0/../../../../riscv64-unknown-elf/lib/libg_nano.a(lib_a-impure.o)
 .text          0x0000000000000000        0x0 /home/vinay/Desktop/soft_console/SoftConsole-v2022.2-RISC-V-747/riscv-unknown-elf-gcc/bin/../lib/gcc/riscv64-unknown-elf/8.3.0/../../../../riscv64-unknown-elf/lib/libg_nano.a(lib_a-memcmp.o)
 .data          0x0000000000000000        0x0 /home/vinay/Desktop/soft_console/SoftConsole-v2022.2-RISC-V-747/riscv-unknown-elf-gcc/bin/../lib/gcc/riscv64-unknown-elf/8.3.0/../../../../riscv64-unknown-elf/lib/libg_nano.a(lib_a-memcmp.o)
 .bss           0x0000000000000000        0x0 /home/vinay/Desktop/soft_console/SoftConsole-v2022.2-RISC-V-747/riscv-unknown-elf-gcc/bin/../lib/gcc/riscv64-unknown-elf/8.3.0/../../../../riscv64-unknown-elf/lib/libg_nano.a(lib_a-memcmp.o)
 .data          0x0000000000000000        0x0 /home/vinay/Desktop/soft_console/SoftConsole-v2022.2-RISC-V-747/riscv-unknown-elf-gcc/bin/../lib/gcc/riscv64-unknown-elf/8.3.0/../../../../riscv64-unknown-elf/lib/libg_nano.a(lib_a-memcpy-asm.o)
 .bss           0x0000000000000000        0x0 /home/vinay/Desktop/soft_console/SoftConsole-v2022.2-RISC-V-747/riscv-unknown-elf-gcc/bin/../lib/gcc/riscv64-unknown-elf/8.3.0/../../../../riscv64-unknown-elf/lib/libg_nano.a(lib_a-memcpy-asm.o)
 .text          0x0000000000000000        0x0 /home/vinay/Desktop/soft_console/SoftConsole-v2022.2-RISC-V-747/riscv-unknown-elf-gcc/bin/../lib/gcc/riscv64-unknown-elf/8.3.0/../../../../riscv64-unknown-elf/lib/libg_nano.a(lib_a-rand.o)
 .data          0x0000000000000000        0x0 /home/vinay/Desktop/soft_console/SoftConsole-v2022.2-RISC-V-747/riscv-unknown-elf-gcc/bin/../lib/gcc/riscv64-unknown-elf/8.3.0/../../../../riscv64-unknown-elf/lib/libg_nano.a(lib_a-rand.o)
 .bss           0x0000000000000000        0x0 /home/vinay/Desktop/soft_console/SoftConsole-v2022.2-RISC-V-747/riscv-unknown-elf-gcc/bin/../lib/gcc/riscv64-unknown-elf/8.3.0/../../../../riscv64-unknown-elf/lib/libg_nano.a(lib_a-rand.o)
 .text.srand    0x0000000000000000       0x56 /home/vinay/Desktop/soft_console/SoftConsole-v2022.2-RISC-V-747/riscv-unknown-elf-gcc/bin/../lib/gcc/riscv64-unknown-elf/8.3.0/../../../../riscv64-unknown-elf/lib/libg_nano.a(lib_a-rand.o)
 .text          0x0000000000000000        0x0 /home/vinay/Desktop/soft_console/SoftConsole-v2022.2-RISC-V-747/riscv-unknown-elf-gcc/bin/../lib/gcc/riscv64-unknown-elf/8.3.0/../../../../riscv64-unknown-elf/lib/libg_nano.a(lib_a-sprintf.o)
 .data          0x0000000000000000        0x0 /home/vinay/Desktop/soft_console/SoftConsole-v2022.2-RISC-V-747/riscv-unknown-elf-gcc/bin/../lib/gcc/riscv64-unknown-elf/8.3.0/../../../../riscv64-unknown-elf/lib/libg_nano.a(lib_a-sprintf.o)
 .bss           0x0000000000000000        0x0 /home/vinay/Desktop/soft_console/SoftConsole-v2022.2-RISC-V-747/riscv-unknown-elf-gcc/bin/../lib/gcc/riscv64-unknown-elf/8.3.0/../../../../riscv64-unknown-elf/lib/libg_nano.a(lib_a-sprintf.o)
 .text._sprintf_r
                0x0000000000000000       0x40 /home/vinay/Desktop/soft_console/SoftConsole-v2022.2-RISC-V-747/riscv-unknown-elf-gcc/bin/../lib/gcc/riscv64-unknown-elf/8.3.0/../../../../riscv64-unknown-elf/lib/libg_nano.a(lib_a-sprintf.o)
 .text          0x0000000000000000        0x0 /home/vinay/Desktop/soft_console/SoftConsole-v2022.2-RISC-V-747/riscv-unknown-elf-gcc/bin/../lib/gcc/riscv64-unknown-elf/8.3.0/../../../../riscv64-unknown-elf/lib/libg_nano.a(lib_a-malloc.o)
 .data          0x0000000000000000        0x0 /home/vinay/Desktop/soft_console/SoftConsole-v2022.2-RISC-V-747/riscv-unknown-elf-gcc/bin/../lib/gcc/riscv64-unknown-elf/8.3.0/../../../../riscv64-unknown-elf/lib/libg_nano.a(lib_a-malloc.o)
 .bss           0x0000000000000000        0x0 /home/vinay/Desktop/soft_console/SoftConsole-v2022.2-RISC-V-747/riscv-unknown-elf-gcc/bin/../lib/gcc/riscv64-unknown-elf/8.3.0/../../../../riscv64-unknown-elf/lib/libg_nano.a(lib_a-malloc.o)
 .text.free     0x0000000000000000       0x14 /home/vinay/Desktop/soft_console/SoftConsole-v2022.2-RISC-V-747/riscv-unknown-elf-gcc/bin/../lib/gcc/riscv64-unknown-elf/8.3.0/../../../../riscv64-unknown-elf/lib/libg_nano.a(lib_a-malloc.o)
 .text          0x0000000000000000        0x0 /home/vinay/Desktop/soft_console/SoftConsole-v2022.2-RISC-V-747/riscv-unknown-elf-gcc/bin/../lib/gcc/riscv64-unknown-elf/8.3.0/../../../../riscv64-unknown-elf/lib/libg_nano.a(lib_a-nano-freer.o)
 .data          0x0000000000000000        0x0 /home/vinay/Desktop/soft_console/SoftConsole-v2022.2-RISC-V-747/riscv-unknown-elf-gcc/bin/../lib/gcc/riscv64-unknown-elf/8.3.0/../../../../riscv64-unknown-elf/lib/libg_nano.a(lib_a-nano-freer.o)
 .bss           0x0000000000000000        0x0 /home/vinay/Desktop/soft_console/SoftConsole-v2022.2-RISC-V-747/riscv-unknown-elf-gcc/bin/../lib/gcc/riscv64-unknown-elf/8.3.0/../../../../riscv64-unknown-elf/lib/libg_nano.a(lib_a-nano-freer.o)
 .text          0x0000000000000000        0x0 /home/vinay/Desktop/soft_console/SoftConsole-v2022.2-RISC-V-747/riscv-unknown-elf-gcc/bin/../lib/gcc/riscv64-unknown-elf/8.3.0/../../../../riscv64-unknown-elf/lib/libg_nano.a(lib_a-nano-mallocr.o)
 .data          0x0000000000000000        0x0 /home/vinay/Desktop/soft_console/SoftConsole-v2022.2-RISC-V-747/riscv-unknown-elf-gcc/bin/../lib/gcc/riscv64-unknown-elf/8.3.0/../../../../riscv64-unknown-elf/lib/libg_nano.a(lib_a-nano-mallocr.o)
 .bss           0x0000000000000000        0x0 /home/vinay/Desktop/soft_console/SoftConsole-v2022.2-RISC-V-747/riscv-unknown-elf-gcc/bin/../lib/gcc/riscv64-unknown-elf/8.3.0/../../../../riscv64-unknown-elf/lib/libg_nano.a(lib_a-nano-mallocr.o)
 .text          0x0000000000000000        0x0 /home/vinay/Desktop/soft_console/SoftConsole-v2022.2-RISC-V-747/riscv-unknown-elf-gcc/bin/../lib/gcc/riscv64-unknown-elf/8.3.0/../../../../riscv64-unknown-elf/lib/libg_nano.a(lib_a-nano-svfprintf.o)
 .data          0x0000000000000000        0x0 /home/vinay/Desktop/soft_console/SoftConsole-v2022.2-RISC-V-747/riscv-unknown-elf-gcc/bin/../lib/gcc/riscv64-unknown-elf/8.3.0/../../../../riscv64-unknown-elf/lib/libg_nano.a(lib_a-nano-svfprintf.o)
 .bss           0x0000000000000000        0x0 /home/vinay/Desktop/soft_console/SoftConsole-v2022.2-RISC-V-747/riscv-unknown-elf-gcc/bin/../lib/gcc/riscv64-unknown-elf/8.3.0/../../../../riscv64-unknown-elf/lib/libg_nano.a(lib_a-nano-svfprintf.o)
 .text.__ssprint_r
                0x0000000000000000      0x158 /home/vinay/Desktop/soft_console/SoftConsole-v2022.2-RISC-V-747/riscv-unknown-elf-gcc/bin/../lib/gcc/riscv64-unknown-elf/8.3.0/../../../../riscv64-unknown-elf/lib/libg_nano.a(lib_a-nano-svfprintf.o)
 .text          0x0000000000000000        0x0 /home/vinay/Desktop/soft_console/SoftConsole-v2022.2-RISC-V-747/riscv-unknown-elf-gcc/bin/../lib/gcc/riscv64-unknown-elf/8.3.0/../../../../riscv64-unknown-elf/lib/libg_nano.a(lib_a-nano-vfprintf_i.o)
 .data          0x0000000000000000        0x0 /home/vinay/Desktop/soft_console/SoftConsole-v2022.2-RISC-V-747/riscv-unknown-elf-gcc/bin/../lib/gcc/riscv64-unknown-elf/8.3.0/../../../../riscv64-unknown-elf/lib/libg_nano.a(lib_a-nano-vfprintf_i.o)
 .bss           0x0000000000000000        0x0 /home/vinay/Desktop/soft_console/SoftConsole-v2022.2-RISC-V-747/riscv-unknown-elf-gcc/bin/../lib/gcc/riscv64-unknown-elf/8.3.0/../../../../riscv64-unknown-elf/lib/libg_nano.a(lib_a-nano-vfprintf_i.o)
 .text          0x0000000000000000        0x0 /home/vinay/Desktop/soft_console/SoftConsole-v2022.2-RISC-V-747/riscv-unknown-elf-gcc/bin/../lib/gcc/riscv64-unknown-elf/8.3.0/../../../../riscv64-unknown-elf/lib/libg_nano.a(lib_a-sbrkr.o)
 .data          0x0000000000000000        0x0 /home/vinay/Desktop/soft_console/SoftConsole-v2022.2-RISC-V-747/riscv-unknown-elf-gcc/bin/../lib/gcc/riscv64-unknown-elf/8.3.0/../../../../riscv64-unknown-elf/lib/libg_nano.a(lib_a-sbrkr.o)
 .bss           0x0000000000000000        0x0 /home/vinay/Desktop/soft_console/SoftConsole-v2022.2-RISC-V-747/riscv-unknown-elf-gcc/bin/../lib/gcc/riscv64-unknown-elf/8.3.0/../../../../riscv64-unknown-elf/lib/libg_nano.a(lib_a-sbrkr.o)
 .text          0x0000000000000000        0x0 /home/vinay/Desktop/soft_console/SoftConsole-v2022.2-RISC-V-747/riscv-unknown-elf-gcc/bin/../lib/gcc/riscv64-unknown-elf/8.3.0/../../../../riscv64-unknown-elf/lib/libg_nano.a(lib_a-memchr.o)
 .data          0x0000000000000000        0x0 /home/vinay/Desktop/soft_console/SoftConsole-v2022.2-RISC-V-747/riscv-unknown-elf-gcc/bin/../lib/gcc/riscv64-unknown-elf/8.3.0/../../../../riscv64-unknown-elf/lib/libg_nano.a(lib_a-memchr.o)
 .bss           0x0000000000000000        0x0 /home/vinay/Desktop/soft_console/SoftConsole-v2022.2-RISC-V-747/riscv-unknown-elf-gcc/bin/../lib/gcc/riscv64-unknown-elf/8.3.0/../../../../riscv64-unknown-elf/lib/libg_nano.a(lib_a-memchr.o)
 .data          0x0000000000000000        0x0 /home/vinay/Desktop/soft_console/SoftConsole-v2022.2-RISC-V-747/riscv-unknown-elf-gcc/bin/../lib/gcc/riscv64-unknown-elf/8.3.0/../../../../riscv64-unknown-elf/lib/libg_nano.a(lib_a-memmove.o)
 .bss           0x0000000000000000        0x0 /home/vinay/Desktop/soft_console/SoftConsole-v2022.2-RISC-V-747/riscv-unknown-elf-gcc/bin/../lib/gcc/riscv64-unknown-elf/8.3.0/../../../../riscv64-unknown-elf/lib/libg_nano.a(lib_a-memmove.o)
 .text          0x0000000000000000        0x0 /home/vinay/Desktop/soft_console/SoftConsole-v2022.2-RISC-V-747/riscv-unknown-elf-gcc/bin/../lib/gcc/riscv64-unknown-elf/8.3.0/../../../../riscv64-unknown-elf/lib/libg_nano.a(lib_a-mlock.o)
 .data          0x0000000000000000        0x0 /home/vinay/Desktop/soft_console/SoftConsole-v2022.2-RISC-V-747/riscv-unknown-elf-gcc/bin/../lib/gcc/riscv64-unknown-elf/8.3.0/../../../../riscv64-unknown-elf/lib/libg_nano.a(lib_a-mlock.o)
 .bss           0x0000000000000000        0x0 /home/vinay/Desktop/soft_console/SoftConsole-v2022.2-RISC-V-747/riscv-unknown-elf-gcc/bin/../lib/gcc/riscv64-unknown-elf/8.3.0/../../../../riscv64-unknown-elf/lib/libg_nano.a(lib_a-mlock.o)
 .text          0x0000000000000000        0x0 /home/vinay/Desktop/soft_console/SoftConsole-v2022.2-RISC-V-747/riscv-unknown-elf-gcc/bin/../lib/gcc/riscv64-unknown-elf/8.3.0/../../../../riscv64-unknown-elf/lib/libg_nano.a(lib_a-nano-reallocr.o)
 .data          0x0000000000000000        0x0 /home/vinay/Desktop/soft_console/SoftConsole-v2022.2-RISC-V-747/riscv-unknown-elf-gcc/bin/../lib/gcc/riscv64-unknown-elf/8.3.0/../../../../riscv64-unknown-elf/lib/libg_nano.a(lib_a-nano-reallocr.o)
 .bss           0x0000000000000000        0x0 /home/vinay/Desktop/soft_console/SoftConsole-v2022.2-RISC-V-747/riscv-unknown-elf-gcc/bin/../lib/gcc/riscv64-unknown-elf/8.3.0/../../../../riscv64-unknown-elf/lib/libg_nano.a(lib_a-nano-reallocr.o)
 .text          0x0000000000000000        0x0 /home/vinay/Desktop/soft_console/SoftConsole-v2022.2-RISC-V-747/riscv-unknown-elf-gcc/bin/../lib/gcc/riscv64-unknown-elf/8.3.0/../../../../riscv64-unknown-elf/lib/libg_nano.a(lib_a-reent.o)
 .data          0x0000000000000000        0x0 /home/vinay/Desktop/soft_console/SoftConsole-v2022.2-RISC-V-747/riscv-unknown-elf-gcc/bin/../lib/gcc/riscv64-unknown-elf/8.3.0/../../../../riscv64-unknown-elf/lib/libg_nano.a(lib_a-reent.o)
 .bss           0x0000000000000000        0x0 /home/vinay/Desktop/soft_console/SoftConsole-v2022.2-RISC-V-747/riscv-unknown-elf-gcc/bin/../lib/gcc/riscv64-unknown-elf/8.3.0/../../../../riscv64-unknown-elf/lib/libg_nano.a(lib_a-reent.o)
 .text.cleanup_glue
                0x0000000000000000       0x2c /home/vinay/Desktop/soft_console/SoftConsole-v2022.2-RISC-V-747/riscv-unknown-elf-gcc/bin/../lib/gcc/riscv64-unknown-elf/8.3.0/../../../../riscv64-unknown-elf/lib/libg_nano.a(lib_a-reent.o)
 .text._reclaim_reent
                0x0000000000000000      0x10e /home/vinay/Desktop/soft_console/SoftConsole-v2022.2-RISC-V-747/riscv-unknown-elf-gcc/bin/../lib/gcc/riscv64-unknown-elf/8.3.0/../../../../riscv64-unknown-elf/lib/libg_nano.a(lib_a-reent.o)
 .text          0x0000000000000000        0x0 /home/vinay/Desktop/soft_console/SoftConsole-v2022.2-RISC-V-747/riscv-unknown-elf-gcc/bin/../lib/gcc/riscv64-unknown-elf/8.3.0/../../../../riscv64-unknown-elf/lib/libg_nano.a(lib_a-nano-msizer.o)
 .data          0x0000000000000000        0x0 /home/vinay/Desktop/soft_console/SoftConsole-v2022.2-RISC-V-747/riscv-unknown-elf-gcc/bin/../lib/gcc/riscv64-unknown-elf/8.3.0/../../../../riscv64-unknown-elf/lib/libg_nano.a(lib_a-nano-msizer.o)
 .bss           0x0000000000000000        0x0 /home/vinay/Desktop/soft_console/SoftConsole-v2022.2-RISC-V-747/riscv-unknown-elf-gcc/bin/../lib/gcc/riscv64-unknown-elf/8.3.0/../../../../riscv64-unknown-elf/lib/libg_nano.a(lib_a-nano-msizer.o)

Memory Configuration

Name             Origin             Length             Attributes
envm             0x0000000020220100 0x000000000001ff00 xr
dtim             0x0000000001000000 0x0000000000001c00 xrw
switch_code_dtim 0x0000000001001c00 0x0000000000000400 xr
e51_itim         0x0000000001800000 0x0000000000007000 xrw
u54_1_itim       0x0000000001808000 0x0000000000007000 xrw
u54_2_itim       0x0000000001810000 0x0000000000007000 xrw
u54_3_itim       0x0000000001818000 0x0000000000007000 xrw
u54_4_itim       0x0000000001820000 0x0000000000007000 xrw
l2lim            0x0000000008000000 0x0000000000040000 xrw
scratchpad       0x000000000a000000 0x0000000000040000 xrw
ddr_cached_32bit 0x0000000080000000 0x0000000030000000 xrw
ddr_non_cached_32bit 0x00000000c0000000 0x0000000010000000 xrw
ddr_wcb_32bit    0x00000000d0000000 0x0000000010000000 xrw
ddr_cached_38bit 0x0000001000000000 0x0000000040000000 xrw
ddr_non_cached_38bit 0x0000001400000000 0x0000000000000000 xrw
ddr_wcb_38bit    0x0000001800000000 0x0000000000000000 xrw
*default*        0x0000000000000000 0xffffffffffffffff

Linker script and memory map

LOAD ./src/platform/mpfs_hal/startup_gcc/mss_entry.o
LOAD ./src/platform/mpfs_hal/startup_gcc/mss_utils.o
LOAD ./src/platform/mpfs_hal/startup_gcc/newlib_stubs.o
LOAD ./src/platform/mpfs_hal/startup_gcc/system_startup.o
LOAD ./src/platform/mpfs_hal/common/nwc/mss_cfm.o
LOAD ./src/platform/mpfs_hal/common/nwc/mss_ddr.o
LOAD ./src/platform/mpfs_hal/common/nwc/mss_ddr_debug.o
LOAD ./src/platform/mpfs_hal/common/nwc/mss_ddr_test_pattern.o
LOAD ./src/platform/mpfs_hal/common/nwc/mss_io.o
LOAD ./src/platform/mpfs_hal/common/nwc/mss_nwc_init.o
LOAD ./src/platform/mpfs_hal/common/nwc/mss_pll.o
LOAD ./src/platform/mpfs_hal/common/nwc/mss_sgmii.o
LOAD ./src/platform/mpfs_hal/common/mss_axiswitch.o
LOAD ./src/platform/mpfs_hal/common/mss_clint.o
LOAD ./src/platform/mpfs_hal/common/mss_h2f.o
LOAD ./src/platform/mpfs_hal/common/mss_irq_handler_stubs.o
LOAD ./src/platform/mpfs_hal/common/mss_l2_cache.o
LOAD ./src/platform/mpfs_hal/common/mss_mpu.o
LOAD ./src/platform/mpfs_hal/common/mss_mtrap.o
LOAD ./src/platform/mpfs_hal/common/mss_peripherals.o
LOAD ./src/platform/mpfs_hal/common/mss_plic.o
LOAD ./src/platform/mpfs_hal/common/mss_pmp.o
LOAD ./src/platform/mpfs_hal/common/mss_util.o
LOAD ./src/platform/hal/hal_irq.o
LOAD ./src/platform/hal/hw_reg_access.o
LOAD ./src/platform/drivers/mss/mss_mmuart/mss_uart.o
LOAD ./src/platform/drivers/mss/mss_gpio/mss_gpio.o
LOAD ./src/application/hart4/u54_4.o
LOAD ./src/application/hart3/u54_3.o
LOAD ./src/application/hart2/u54_2.o
LOAD ./src/application/hart1/u54_1.o
LOAD ./src/application/hart0/e51.o
LOAD /home/vinay/Desktop/soft_console/SoftConsole-v2022.2-RISC-V-747/riscv-unknown-elf-gcc/bin/../lib/gcc/riscv64-unknown-elf/8.3.0/../../../../riscv64-unknown-elf/lib/libm.a
LOAD /home/vinay/Desktop/soft_console/SoftConsole-v2022.2-RISC-V-747/riscv-unknown-elf-gcc/bin/../lib/gcc/riscv64-unknown-elf/8.3.0/libgcc.a
LOAD /home/vinay/Desktop/soft_console/SoftConsole-v2022.2-RISC-V-747/riscv-unknown-elf-gcc/bin/../lib/gcc/riscv64-unknown-elf/8.3.0/../../../../riscv64-unknown-elf/lib/libg_nano.a
LOAD /home/vinay/Desktop/soft_console/SoftConsole-v2022.2-RISC-V-747/riscv-unknown-elf-gcc/bin/../lib/gcc/riscv64-unknown-elf/8.3.0/../../../../riscv64-unknown-elf/lib/libc_nano.a
LOAD /home/vinay/Desktop/soft_console/SoftConsole-v2022.2-RISC-V-747/riscv-unknown-elf-gcc/bin/../lib/gcc/riscv64-unknown-elf/8.3.0/libgcc.a
START GROUP
LOAD /home/vinay/Desktop/soft_console/SoftConsole-v2022.2-RISC-V-747/riscv-unknown-elf-gcc/bin/../lib/gcc/riscv64-unknown-elf/8.3.0/libgcc.a
LOAD /home/vinay/Desktop/soft_console/SoftConsole-v2022.2-RISC-V-747/riscv-unknown-elf-gcc/bin/../lib/gcc/riscv64-unknown-elf/8.3.0/../../../../riscv64-unknown-elf/lib/libc_nano.a
LOAD /home/vinay/Desktop/soft_console/SoftConsole-v2022.2-RISC-V-747/riscv-unknown-elf-gcc/bin/../lib/gcc/riscv64-unknown-elf/8.3.0/../../../../riscv64-unknown-elf/lib/libnosys.a
END GROUP
START GROUP
LOAD /home/vinay/Desktop/soft_console/SoftConsole-v2022.2-RISC-V-747/riscv-unknown-elf-gcc/bin/../lib/gcc/riscv64-unknown-elf/8.3.0/libgcc.a
LOAD /home/vinay/Desktop/soft_console/SoftConsole-v2022.2-RISC-V-747/riscv-unknown-elf-gcc/bin/../lib/gcc/riscv64-unknown-elf/8.3.0/../../../../riscv64-unknown-elf/lib/libc_nano.a
LOAD /home/vinay/Desktop/soft_console/SoftConsole-v2022.2-RISC-V-747/riscv-unknown-elf-gcc/bin/../lib/gcc/riscv64-unknown-elf/8.3.0/../../../../riscv64-unknown-elf/lib/libnosys.a
END GROUP
                0x0000000000002000                HEAP_SIZE = 0x2000
                0x0000000000001000                SIZE_OF_COMMON_HART_MEM = 0x1000
                0x0000000000001000                STACK_SIZE_E51_STARTUP = 0x1000
                0x0000000000001000                STACK_SIZE_U54_1_STARTUP = 0x1000
                0x0000000000001000                STACK_SIZE_U54_2_STARTUP = 0x1000
                0x0000000000001000                STACK_SIZE_U54_3_STARTUP = 0x1000
                0x0000000000001000                STACK_SIZE_U54_4_STARTUP = 0x1000
                0x0000000000002000                STACK_SIZE_E51_APPLICATION = 0x2000
                0x0000000000002000                STACK_SIZE_U54_1_APPLICATION = 0x2000
                0x0000000000002000                STACK_SIZE_U54_2_APPLICATION = 0x2000
                0x0000000000002000                STACK_SIZE_U54_3_APPLICATION = 0x2000
                0x0000000000002000                STACK_SIZE_U54_4_APPLICATION = 0x2000
                [!provide]                        PROVIDE (__envm_start = ORIGIN (envm))
                [!provide]                        PROVIDE (__envm_end = (ORIGIN (envm) + LENGTH (envm)))
                0x0000000008000000                PROVIDE (__l2lim_start = ORIGIN (l2lim))
                0x0000000008040000                PROVIDE (__l2lim_end = (ORIGIN (l2lim) + LENGTH (l2lim)))
                [!provide]                        PROVIDE (__ddr_cached_32bit_start = ORIGIN (ddr_cached_32bit))
                [!provide]                        PROVIDE (__ddr_cached_32bit_end = (ORIGIN (ddr_cached_32bit) + LENGTH (ddr_cached_32bit)))
                [!provide]                        PROVIDE (__ddr_non_cached_32bit_start = ORIGIN (ddr_non_cached_32bit))
                [!provide]                        PROVIDE (__ddr_non_cached_32bit_end = (ORIGIN (ddr_non_cached_32bit) + LENGTH (ddr_non_cached_32bit)))
                [!provide]                        PROVIDE (__ddr_wcb_32bit_start = ORIGIN (ddr_wcb_32bit))
                [!provide]                        PROVIDE (__ddr_wcb_32bit_end = (ORIGIN (ddr_wcb_32bit) + LENGTH (ddr_wcb_32bit)))
                [!provide]                        PROVIDE (__ddr_cached_38bit_start = ORIGIN (ddr_cached_38bit))
                [!provide]                        PROVIDE (__ddr_cached_38bit_end = (ORIGIN (ddr_cached_38bit) + LENGTH (ddr_cached_38bit)))
                [!provide]                        PROVIDE (__ddr_non_cached_38bit_start = ORIGIN (ddr_non_cached_38bit))
                [!provide]                        PROVIDE (__ddr_non_cached_38bit_end = (ORIGIN (ddr_non_cached_38bit) + LENGTH (ddr_non_cached_38bit)))
                [!provide]                        PROVIDE (__ddr_wcb_38bit_start = ORIGIN (ddr_wcb_38bit))
                [!provide]                        PROVIDE (__ddr_wcb_38bit_end = (ORIGIN (ddr_wcb_38bit) + LENGTH (ddr_wcb_38bit)))
                [!provide]                        PROVIDE (__dtim_start = ORIGIN (dtim))
                [!provide]                        PROVIDE (__dtim_end = (ORIGIN (dtim) + LENGTH (dtim)))
                [!provide]                        PROVIDE (__e51itim_start = ORIGIN (e51_itim))
                [!provide]                        PROVIDE (__e51itim_end = (ORIGIN (e51_itim) + LENGTH (e51_itim)))
                [!provide]                        PROVIDE (__u54_1_itim_start = ORIGIN (u54_1_itim))
                [!provide]                        PROVIDE (__u54_1_itim_end = (ORIGIN (u54_1_itim) + LENGTH (u54_1_itim)))
                [!provide]                        PROVIDE (__u54_2_itim_start = ORIGIN (u54_2_itim))
                [!provide]                        PROVIDE (__u54_2_itim_end = (ORIGIN (u54_2_itim) + LENGTH (u54_2_itim)))
                [!provide]                        PROVIDE (__u54_3_itim_start = ORIGIN (u54_3_itim))
                [!provide]                        PROVIDE (__u54_3_itim_end = (ORIGIN (u54_3_itim) + LENGTH (u54_3_itim)))
                [!provide]                        PROVIDE (__u54_4_itim_start = ORIGIN (u54_4_itim))
                [!provide]                        PROVIDE (__u54_4_itim_end = (ORIGIN (u54_4_itim) + LENGTH (u54_4_itim)))
                0x0000000008000000                . = __l2lim_start

.text_init      0x0000000008000000      0xd50
 *(.text.init)
 .text.init     0x0000000008000000      0x510 ./src/platform/mpfs_hal/startup_gcc/mss_entry.o
                0x0000000008000000                reset_vector
                0x0000000008000000                _start
                0x00000000080003d0                zero_section
                0x00000000080003e4                count_section
                0x00000000080003fc                copy_section
                0x000000000800041c                copy_switch_code
 .text.init     0x0000000008000510       0xba ./src/platform/mpfs_hal/startup_gcc/mss_utils.o
                0x0000000008000510                pdma_transfer
                0x000000000800054a                pdma_transfer_complete
                0x000000000800055e                memfill
                0x0000000008000570                config_copy
                0x0000000008000586                config_16_copy
                0x000000000800059c                config_32_copy
                0x00000000080005b2                config_64_copy
 *system_startup.o(.text .text* .rodata .rodata* .srodata*)
 .text.load_virtual_rom
                0x00000000080005ca       0x14 ./src/platform/mpfs_hal/startup_gcc/system_startup.o
                0x00000000080005ca                load_virtual_rom
 .text.init_memory
                0x00000000080005de       0x84 ./src/platform/mpfs_hal/startup_gcc/system_startup.o
                0x00000000080005de                init_memory
 .text.init_bus_error_unit
                0x0000000008000662       0x38 ./src/platform/mpfs_hal/startup_gcc/system_startup.o
                0x0000000008000662                init_bus_error_unit
 .text.init_mem_protection_unit
                0x000000000800069a       0x14 ./src/platform/mpfs_hal/startup_gcc/system_startup.o
                0x000000000800069a                init_mem_protection_unit
 .text.init_pmp
                0x00000000080006ae       0x14 ./src/platform/mpfs_hal/startup_gcc/system_startup.o
                0x00000000080006ae                init_pmp
 .text.main_other_hart
                0x00000000080006c2       0xda ./src/platform/mpfs_hal/startup_gcc/system_startup.o
                0x00000000080006c2                main_other_hart
 *fill*         0x000000000800079c        0x0 
 .rodata.main_other_hart
                0x000000000800079c       0x14 ./src/platform/mpfs_hal/startup_gcc/system_startup.o
 .text.main_first_hart
                0x00000000080007b0      0x25e ./src/platform/mpfs_hal/startup_gcc/system_startup.o
                0x00000000080007b0                main_first_hart
 *fill*         0x0000000008000a0e        0x2 
 .rodata.rom    0x0000000008000a10       0x20 ./src/platform/mpfs_hal/startup_gcc/system_startup.o
                0x0000000008000a10                rom
 *mtrap.o(.text .text* .rodata .rodata* .srodata*)
 .text.handle_m_ext_interrupt
                0x0000000008000a30      0x130 ./src/platform/mpfs_hal/common/mss_mtrap.o
                0x0000000008000a30                handle_m_ext_interrupt
 .rodata.handle_m_ext_interrupt
                0x0000000008000b60       0x14 ./src/platform/mpfs_hal/common/mss_mtrap.o
 .text.handle_local_interrupt
                0x0000000008000b74       0x20 ./src/platform/mpfs_hal/common/mss_mtrap.o
                0x0000000008000b74                handle_local_interrupt
 .text.trap_from_machine_mode
                0x0000000008000b94       0x8c ./src/platform/mpfs_hal/common/mss_mtrap.o
                0x0000000008000b94                trap_from_machine_mode
 *mss_h2f.o(.text .text* .rodata .rodata* .srodata*)
 *mss_l2_cache.o(.text .text* .rodata .rodata* .srodata*)
 .text.config_l2_cache
                0x0000000008000c20      0x118 ./src/platform/mpfs_hal/common/mss_l2_cache.o
                0x0000000008000c20                config_l2_cache
 *fill*         0x0000000008000d38        0x0 
 .rodata.config_l2_cache.cst8
                0x0000000008000d38       0x10 ./src/platform/mpfs_hal/common/mss_l2_cache.o
                0x0000000008000d50                . = ALIGN (0x10)
 *fill*         0x0000000008000d48        0x8 

.text           0x000000000a000000     0x7160 load address 0x0000000008000d50
                0x0000000008000d50                __text_load = LOADADDR (.text)
                0x000000000a000000                . = ALIGN (0x10)
                0x000000000a000000                __text_start = .
                0x000000000a000000                __l2_scratchpad_vma_start = .
 *(.text .text.* .gnu.linkonce.t.*)
 .text._sbrk    0x000000000a000000       0x48 ./src/platform/mpfs_hal/startup_gcc/newlib_stubs.o
                0x000000000a000000                _sbrk
 .text.delay    0x000000000a000048       0x1c ./src/platform/mpfs_hal/common/nwc/mss_ddr.o
 .text.mode_register_masked_write_x5
                0x000000000a000064       0x78 ./src/platform/mpfs_hal/common/nwc/mss_ddr.o
 .text.MTC_test.isra.0.part.1.constprop.9
                0x000000000a0000dc      0x228 ./src/platform/mpfs_hal/common/nwc/mss_ddr.o
 .text.MTC_test.isra.0.constprop.8
                0x000000000a000304        0xe ./src/platform/mpfs_hal/common/nwc/mss_ddr.o
 .text.setup_ddr_segments
                0x000000000a000312       0x5a ./src/platform/mpfs_hal/common/nwc/mss_ddr.o
                0x000000000a000312                setup_ddr_segments
 .text.ddr_state_machine
                0x000000000a00036c     0x216a ./src/platform/mpfs_hal/common/nwc/mss_ddr.o
                0x000000000a00036c                ddr_state_machine
 .text.ddr_write
                0x000000000a0024d6      0x134 ./src/platform/mpfs_hal/common/nwc/mss_ddr_debug.o
 .text.ddr_read
                0x000000000a00260a      0x188 ./src/platform/mpfs_hal/common/nwc/mss_ddr_debug.o
 .text.ddr_read_write_fn
                0x000000000a002792       0x98 ./src/platform/mpfs_hal/common/nwc/mss_ddr_debug.o
                0x000000000a002792                ddr_read_write_fn
 .text.load_ddr_pattern
                0x000000000a00282a       0xf0 ./src/platform/mpfs_hal/common/nwc/mss_ddr_debug.o
                0x000000000a00282a                load_ddr_pattern
 .text.test_ddr
                0x000000000a00291a      0x102 ./src/platform/mpfs_hal/common/nwc/mss_ddr_debug.o
                0x000000000a00291a                test_ddr
 .text.io_mux_and_bank_config
                0x000000000a002a1c       0x6e ./src/platform/mpfs_hal/common/nwc/mss_io.o
 .text.mssio_setup
                0x000000000a002a8a       0x30 ./src/platform/mpfs_hal/common/nwc/mss_io.o
                0x000000000a002a8a                mssio_setup
 .text.mss_set_gpio_interrupt_fab_cr
                0x000000000a002aba        0x8 ./src/platform/mpfs_hal/common/nwc/mss_io.o
                0x000000000a002aba                mss_set_gpio_interrupt_fab_cr
 .text.delay.constprop.1
                0x000000000a002ac2       0x1a ./src/platform/mpfs_hal/common/nwc/mss_nwc_init.o
 .text.mss_nwc_init
                0x000000000a002adc       0x92 ./src/platform/mpfs_hal/common/nwc/mss_nwc_init.o
                0x000000000a002adc                mss_nwc_init
 .text.ddr_report_progress
                0x000000000a002b6e        0x2 ./src/platform/mpfs_hal/common/nwc/mss_nwc_init.o
                0x000000000a002b6e                ddr_report_progress
 .text.mss_nwc_init_ddr
                0x000000000a002b70       0x58 ./src/platform/mpfs_hal/common/nwc/mss_nwc_init.o
                0x000000000a002b70                mss_nwc_init_ddr
 .text.set_RTC_divisor
                0x000000000a002bc8       0x22 ./src/platform/mpfs_hal/common/nwc/mss_pll.o
                0x000000000a002bc8                set_RTC_divisor
 .text.sgmii_mux_config
                0x000000000a002bea       0x22 ./src/platform/mpfs_hal/common/nwc/mss_pll.o
                0x000000000a002bea                sgmii_mux_config
 .text.flag_mss_pll_lock_error
                0x000000000a002c0c        0x4 ./src/platform/mpfs_hal/common/nwc/mss_pll.o
                0x000000000a002c0c                flag_mss_pll_lock_error
 .text.ddr_pll_config
                0x000000000a002c10       0xae ./src/platform/mpfs_hal/common/nwc/mss_pll.o
                0x000000000a002c10                ddr_pll_config
 .text.ddr_pll_lock_scb
                0x000000000a002cbe       0x14 ./src/platform/mpfs_hal/common/nwc/mss_pll.o
                0x000000000a002cbe                ddr_pll_lock_scb
 .text.sgmii_pll_config_scb
                0x000000000a002cd2       0x54 ./src/platform/mpfs_hal/common/nwc/mss_pll.o
                0x000000000a002cd2                sgmii_pll_config_scb
 .text.mss_pll_config
                0x000000000a002d26      0x124 ./src/platform/mpfs_hal/common/nwc/mss_pll.o
                0x000000000a002d26                mss_pll_config
 .text.setup_sgmii_rpc_per_config
                0x000000000a002e4a       0x56 ./src/platform/mpfs_hal/common/nwc/mss_sgmii.o
 .text.sgmii_setup
                0x000000000a002ea0      0x354 ./src/platform/mpfs_hal/common/nwc/mss_sgmii.o
                0x000000000a002ea0                sgmii_setup
 .text.ddr_pvt_calibration
                0x000000000a0031f4       0x9e ./src/platform/mpfs_hal/common/nwc/mss_sgmii.o
                0x000000000a0031f4                ddr_pvt_calibration
 .text.handle_m_timer_interrupt
                0x000000000a003292       0x94 ./src/platform/mpfs_hal/common/mss_clint.o
                0x000000000a003292                handle_m_timer_interrupt
 .text.handle_m_soft_interrupt
                0x000000000a003326       0x6c ./src/platform/mpfs_hal/common/mss_clint.o
                0x000000000a003326                handle_m_soft_interrupt
 .text.U54_1_software_IRQHandler
                0x000000000a003392        0x2 ./src/platform/mpfs_hal/common/mss_irq_handler_stubs.o
                0x000000000a003392                U54_1_software_IRQHandler
 .text.E51_sysTick_IRQHandler
                0x000000000a003394        0x2 ./src/platform/mpfs_hal/common/mss_irq_handler_stubs.o
                0x000000000a003394                E51_sysTick_IRQHandler
 .text.U54_1_sysTick_IRQHandler
                0x000000000a003396        0x2 ./src/platform/mpfs_hal/common/mss_irq_handler_stubs.o
                0x000000000a003396                U54_1_sysTick_IRQHandler
 .text.U54_2_sysTick_IRQHandler
                0x000000000a003398        0x2 ./src/platform/mpfs_hal/common/mss_irq_handler_stubs.o
                0x000000000a003398                U54_2_sysTick_IRQHandler
 .text.U54_3_sysTick_IRQHandler
                0x000000000a00339a        0x2 ./src/platform/mpfs_hal/common/mss_irq_handler_stubs.o
                0x000000000a00339a                U54_3_sysTick_IRQHandler
 .text.U54_4_sysTick_IRQHandler
                0x000000000a00339c        0x2 ./src/platform/mpfs_hal/common/mss_irq_handler_stubs.o
                0x000000000a00339c                U54_4_sysTick_IRQHandler
 .text.PLIC_Invalid_IRQHandler
                0x000000000a00339e        0x4 ./src/platform/mpfs_hal/common/mss_irq_handler_stubs.o
                0x000000000a00339e                PLIC_Invalid_IRQHandler
 .text.PLIC_dma_ch0_DONE_IRQHandler
                0x000000000a0033a2        0x4 ./src/platform/mpfs_hal/common/mss_irq_handler_stubs.o
                0x000000000a0033a2                PLIC_dma_ch0_DONE_IRQHandler
 .text.PLIC_dma_ch0_ERR_IRQHandler
                0x000000000a0033a6        0x4 ./src/platform/mpfs_hal/common/mss_irq_handler_stubs.o
                0x000000000a0033a6                PLIC_dma_ch0_ERR_IRQHandler
 .text.PLIC_dma_ch1_DONE_IRQHandler
                0x000000000a0033aa        0x4 ./src/platform/mpfs_hal/common/mss_irq_handler_stubs.o
                0x000000000a0033aa                PLIC_dma_ch1_DONE_IRQHandler
 .text.PLIC_dma_ch1_ERR_IRQHandler
                0x000000000a0033ae        0x4 ./src/platform/mpfs_hal/common/mss_irq_handler_stubs.o
                0x000000000a0033ae                PLIC_dma_ch1_ERR_IRQHandler
 .text.PLIC_dma_ch2_DONE_IRQHandler
                0x000000000a0033b2        0x4 ./src/platform/mpfs_hal/common/mss_irq_handler_stubs.o
                0x000000000a0033b2                PLIC_dma_ch2_DONE_IRQHandler
 .text.PLIC_dma_ch2_ERR_IRQHandler
                0x000000000a0033b6        0x4 ./src/platform/mpfs_hal/common/mss_irq_handler_stubs.o
                0x000000000a0033b6                PLIC_dma_ch2_ERR_IRQHandler
 .text.PLIC_dma_ch3_DONE_IRQHandler
                0x000000000a0033ba        0x4 ./src/platform/mpfs_hal/common/mss_irq_handler_stubs.o
                0x000000000a0033ba                PLIC_dma_ch3_DONE_IRQHandler
 .text.PLIC_dma_ch3_ERR_IRQHandler
                0x000000000a0033be        0x4 ./src/platform/mpfs_hal/common/mss_irq_handler_stubs.o
                0x000000000a0033be                PLIC_dma_ch3_ERR_IRQHandler
 .text.PLIC_l2_metadata_corr_IRQHandler
                0x000000000a0033c2        0x4 ./src/platform/mpfs_hal/common/mss_irq_handler_stubs.o
                0x000000000a0033c2                PLIC_l2_metadata_corr_IRQHandler
 .text.PLIC_l2_metadata_uncorr_IRQHandler
                0x000000000a0033c6        0x4 ./src/platform/mpfs_hal/common/mss_irq_handler_stubs.o
                0x000000000a0033c6                PLIC_l2_metadata_uncorr_IRQHandler
 .text.PLIC_l2_data_corr_IRQHandler
                0x000000000a0033ca        0x4 ./src/platform/mpfs_hal/common/mss_irq_handler_stubs.o
                0x000000000a0033ca                PLIC_l2_data_corr_IRQHandler
 .text.PLIC_l2_data_uncorr_IRQHandler
                0x000000000a0033ce        0x4 ./src/platform/mpfs_hal/common/mss_irq_handler_stubs.o
                0x000000000a0033ce                PLIC_l2_data_uncorr_IRQHandler
 .text.PLIC_gpio0_bit0_or_gpio2_bit13_IRQHandler
                0x000000000a0033d2        0x4 ./src/platform/mpfs_hal/common/mss_irq_handler_stubs.o
                0x000000000a0033d2                PLIC_gpio0_bit0_or_gpio2_bit13_IRQHandler
 .text.PLIC_gpio0_bit1_or_gpio2_bit13_IRQHandler
                0x000000000a0033d6        0x4 ./src/platform/mpfs_hal/common/mss_irq_handler_stubs.o
                0x000000000a0033d6                PLIC_gpio0_bit1_or_gpio2_bit13_IRQHandler
 .text.PLIC_gpio0_bit2_or_gpio2_bit13_IRQHandler
                0x000000000a0033da        0x4 ./src/platform/mpfs_hal/common/mss_irq_handler_stubs.o
                0x000000000a0033da                PLIC_gpio0_bit2_or_gpio2_bit13_IRQHandler
 .text.PLIC_gpio0_bit3_or_gpio2_bit13_IRQHandler
                0x000000000a0033de        0x4 ./src/platform/mpfs_hal/common/mss_irq_handler_stubs.o
                0x000000000a0033de                PLIC_gpio0_bit3_or_gpio2_bit13_IRQHandler
 .text.PLIC_gpio0_bit4_or_gpio2_bit13_IRQHandler
                0x000000000a0033e2        0x4 ./src/platform/mpfs_hal/common/mss_irq_handler_stubs.o
                0x000000000a0033e2                PLIC_gpio0_bit4_or_gpio2_bit13_IRQHandler
 .text.PLIC_gpio0_bit5_or_gpio2_bit13_IRQHandler
                0x000000000a0033e6        0x4 ./src/platform/mpfs_hal/common/mss_irq_handler_stubs.o
                0x000000000a0033e6                PLIC_gpio0_bit5_or_gpio2_bit13_IRQHandler
 .text.PLIC_gpio0_bit6_or_gpio2_bit13_IRQHandler
                0x000000000a0033ea        0x4 ./src/platform/mpfs_hal/common/mss_irq_handler_stubs.o
                0x000000000a0033ea                PLIC_gpio0_bit6_or_gpio2_bit13_IRQHandler
 .text.PLIC_gpio0_bit7_or_gpio2_bit13_IRQHandler
                0x000000000a0033ee        0x4 ./src/platform/mpfs_hal/common/mss_irq_handler_stubs.o
                0x000000000a0033ee                PLIC_gpio0_bit7_or_gpio2_bit13_IRQHandler
 .text.PLIC_gpio0_bit8_or_gpio2_bit13_IRQHandler
                0x000000000a0033f2        0x4 ./src/platform/mpfs_hal/common/mss_irq_handler_stubs.o
                0x000000000a0033f2                PLIC_gpio0_bit8_or_gpio2_bit13_IRQHandler
 .text.PLIC_gpio0_bit9_or_gpio2_bit13_IRQHandler
                0x000000000a0033f6        0x4 ./src/platform/mpfs_hal/common/mss_irq_handler_stubs.o
                0x000000000a0033f6                PLIC_gpio0_bit9_or_gpio2_bit13_IRQHandler
 .text.PLIC_gpio0_bit10_or_gpio2_bit13_IRQHandler
                0x000000000a0033fa        0x4 ./src/platform/mpfs_hal/common/mss_irq_handler_stubs.o
                0x000000000a0033fa                PLIC_gpio0_bit10_or_gpio2_bit13_IRQHandler
 .text.PLIC_gpio0_bit11_or_gpio2_bit13_IRQHandler
                0x000000000a0033fe        0x4 ./src/platform/mpfs_hal/common/mss_irq_handler_stubs.o
                0x000000000a0033fe                PLIC_gpio0_bit11_or_gpio2_bit13_IRQHandler
 .text.PLIC_gpio0_bit12_or_gpio2_bit13_IRQHandler
                0x000000000a003402        0x4 ./src/platform/mpfs_hal/common/mss_irq_handler_stubs.o
                0x000000000a003402                PLIC_gpio0_bit12_or_gpio2_bit13_IRQHandler
 .text.PLIC_gpio0_bit13_or_gpio2_bit13_IRQHandler
                0x000000000a003406        0x4 ./src/platform/mpfs_hal/common/mss_irq_handler_stubs.o
                0x000000000a003406                PLIC_gpio0_bit13_or_gpio2_bit13_IRQHandler
 .text.PLIC_gpio1_bit0_or_gpio2_bit14_IRQHandler
                0x000000000a00340a        0x4 ./src/platform/mpfs_hal/common/mss_irq_handler_stubs.o
                0x000000000a00340a                PLIC_gpio1_bit0_or_gpio2_bit14_IRQHandler
 .text.PLIC_gpio1_bit1_or_gpio2_bit15_IRQHandler
                0x000000000a00340e        0x4 ./src/platform/mpfs_hal/common/mss_irq_handler_stubs.o
                0x000000000a00340e                PLIC_gpio1_bit1_or_gpio2_bit15_IRQHandler
 .text.PLIC_gpio1_bit2_or_gpio2_bit16_IRQHandler
                0x000000000a003412        0x4 ./src/platform/mpfs_hal/common/mss_irq_handler_stubs.o
                0x000000000a003412                PLIC_gpio1_bit2_or_gpio2_bit16_IRQHandler
 .text.PLIC_gpio1_bit3_or_gpio2_bit17_IRQHandler
                0x000000000a003416        0x4 ./src/platform/mpfs_hal/common/mss_irq_handler_stubs.o
                0x000000000a003416                PLIC_gpio1_bit3_or_gpio2_bit17_IRQHandler
 .text.PLIC_gpio1_bit4_or_gpio2_bit18_IRQHandler
                0x000000000a00341a        0x4 ./src/platform/mpfs_hal/common/mss_irq_handler_stubs.o
                0x000000000a00341a                PLIC_gpio1_bit4_or_gpio2_bit18_IRQHandler
 .text.PLIC_gpio1_bit5_or_gpio2_bit19_IRQHandler
                0x000000000a00341e        0x4 ./src/platform/mpfs_hal/common/mss_irq_handler_stubs.o
                0x000000000a00341e                PLIC_gpio1_bit5_or_gpio2_bit19_IRQHandler
 .text.PLIC_gpio1_bit6_or_gpio2_bit20_IRQHandler
                0x000000000a003422        0x4 ./src/platform/mpfs_hal/common/mss_irq_handler_stubs.o
                0x000000000a003422                PLIC_gpio1_bit6_or_gpio2_bit20_IRQHandler
 .text.PLIC_gpio1_bit7_or_gpio2_bit21_IRQHandler
                0x000000000a003426        0x4 ./src/platform/mpfs_hal/common/mss_irq_handler_stubs.o
                0x000000000a003426                PLIC_gpio1_bit7_or_gpio2_bit21_IRQHandler
 .text.PLIC_gpio1_bit8_or_gpio2_bit22_IRQHandler
                0x000000000a00342a        0x4 ./src/platform/mpfs_hal/common/mss_irq_handler_stubs.o
                0x000000000a00342a                PLIC_gpio1_bit8_or_gpio2_bit22_IRQHandler
 .text.PLIC_gpio1_bit9_or_gpio2_bit23_IRQHandler
                0x000000000a00342e        0x4 ./src/platform/mpfs_hal/common/mss_irq_handler_stubs.o
                0x000000000a00342e                PLIC_gpio1_bit9_or_gpio2_bit23_IRQHandler
 .text.PLIC_gpio1_bit10_or_gpio2_bit24_IRQHandler
                0x000000000a003432        0x4 ./src/platform/mpfs_hal/common/mss_irq_handler_stubs.o
                0x000000000a003432                PLIC_gpio1_bit10_or_gpio2_bit24_IRQHandler
 .text.PLIC_gpio1_bit11_or_gpio2_bit25_IRQHandler
                0x000000000a003436        0x4 ./src/platform/mpfs_hal/common/mss_irq_handler_stubs.o
                0x000000000a003436                PLIC_gpio1_bit11_or_gpio2_bit25_IRQHandler
 .text.PLIC_gpio1_bit12_or_gpio2_bit26_IRQHandler
                0x000000000a00343a        0x4 ./src/platform/mpfs_hal/common/mss_irq_handler_stubs.o
                0x000000000a00343a                PLIC_gpio1_bit12_or_gpio2_bit26_IRQHandler
 .text.PLIC_gpio1_bit13_or_gpio2_bit27_IRQHandler
                0x000000000a00343e        0x4 ./src/platform/mpfs_hal/common/mss_irq_handler_stubs.o
                0x000000000a00343e                PLIC_gpio1_bit13_or_gpio2_bit27_IRQHandler
 .text.PLIC_gpio1_bit14_or_gpio2_bit28_IRQHandler
                0x000000000a003442        0x4 ./src/platform/mpfs_hal/common/mss_irq_handler_stubs.o
                0x000000000a003442                PLIC_gpio1_bit14_or_gpio2_bit28_IRQHandler
 .text.PLIC_gpio1_bit15_or_gpio2_bit29_IRQHandler
                0x000000000a003446        0x4 ./src/platform/mpfs_hal/common/mss_irq_handler_stubs.o
                0x000000000a003446                PLIC_gpio1_bit15_or_gpio2_bit29_IRQHandler
 .text.PLIC_gpio1_bit16_or_gpio2_bit30_IRQHandler
                0x000000000a00344a        0x4 ./src/platform/mpfs_hal/common/mss_irq_handler_stubs.o
                0x000000000a00344a                PLIC_gpio1_bit16_or_gpio2_bit30_IRQHandler
 .text.PLIC_gpio1_bit17_or_gpio2_bit31_IRQHandler
                0x000000000a00344e        0x4 ./src/platform/mpfs_hal/common/mss_irq_handler_stubs.o
                0x000000000a00344e                PLIC_gpio1_bit17_or_gpio2_bit31_IRQHandler
 .text.PLIC_gpio1_bit18_IRQHandler
                0x000000000a003452        0x4 ./src/platform/mpfs_hal/common/mss_irq_handler_stubs.o
                0x000000000a003452                PLIC_gpio1_bit18_IRQHandler
 .text.PLIC_gpio1_bit19_IRQHandler
                0x000000000a003456        0x4 ./src/platform/mpfs_hal/common/mss_irq_handler_stubs.o
                0x000000000a003456                PLIC_gpio1_bit19_IRQHandler
 .text.PLIC_gpio1_bit20_IRQHandler
                0x000000000a00345a        0x4 ./src/platform/mpfs_hal/common/mss_irq_handler_stubs.o
                0x000000000a00345a                PLIC_gpio1_bit20_IRQHandler
 .text.PLIC_gpio1_bit21_IRQHandler
                0x000000000a00345e        0x4 ./src/platform/mpfs_hal/common/mss_irq_handler_stubs.o
                0x000000000a00345e                PLIC_gpio1_bit21_IRQHandler
 .text.PLIC_gpio1_bit22_IRQHandler
                0x000000000a003462        0x4 ./src/platform/mpfs_hal/common/mss_irq_handler_stubs.o
                0x000000000a003462                PLIC_gpio1_bit22_IRQHandler
 .text.PLIC_gpio1_bit23_IRQHandler
                0x000000000a003466        0x4 ./src/platform/mpfs_hal/common/mss_irq_handler_stubs.o
                0x000000000a003466                PLIC_gpio1_bit23_IRQHandler
 .text.PLIC_gpio0_non_direct_IRQHandler
                0x000000000a00346a        0x4 ./src/platform/mpfs_hal/common/mss_irq_handler_stubs.o
                0x000000000a00346a                PLIC_gpio0_non_direct_IRQHandler
 .text.PLIC_gpio1_non_direct_IRQHandler
                0x000000000a00346e        0x4 ./src/platform/mpfs_hal/common/mss_irq_handler_stubs.o
                0x000000000a00346e                PLIC_gpio1_non_direct_IRQHandler
 .text.PLIC_gpio2_non_direct_IRQHandler
                0x000000000a003472        0x4 ./src/platform/mpfs_hal/common/mss_irq_handler_stubs.o
                0x000000000a003472                PLIC_gpio2_non_direct_IRQHandler
 .text.PLIC_spi0_IRQHandler
                0x000000000a003476        0x4 ./src/platform/mpfs_hal/common/mss_irq_handler_stubs.o
                0x000000000a003476                PLIC_spi0_IRQHandler
 .text.PLIC_spi1_IRQHandler
                0x000000000a00347a        0x4 ./src/platform/mpfs_hal/common/mss_irq_handler_stubs.o
                0x000000000a00347a                PLIC_spi1_IRQHandler
 .text.PLIC_external_can0_IRQHandler
                0x000000000a00347e        0x4 ./src/platform/mpfs_hal/common/mss_irq_handler_stubs.o
                0x000000000a00347e                PLIC_external_can0_IRQHandler
 .text.PLIC_can1_IRQHandler
                0x000000000a003482        0x4 ./src/platform/mpfs_hal/common/mss_irq_handler_stubs.o
                0x000000000a003482                PLIC_can1_IRQHandler
 .text.PLIC_External_i2c0_main_IRQHandler
                0x000000000a003486        0x4 ./src/platform/mpfs_hal/common/mss_irq_handler_stubs.o
                0x000000000a003486                PLIC_External_i2c0_main_IRQHandler
 .text.PLIC_External_i2c0_alert_IRQHandler
                0x000000000a00348a        0x4 ./src/platform/mpfs_hal/common/mss_irq_handler_stubs.o
                0x000000000a00348a                PLIC_External_i2c0_alert_IRQHandler
 .text.PLIC_i2c0_sus_IRQHandler
                0x000000000a00348e        0x4 ./src/platform/mpfs_hal/common/mss_irq_handler_stubs.o
                0x000000000a00348e                PLIC_i2c0_sus_IRQHandler
 .text.PLIC_i2c1_main_IRQHandler
                0x000000000a003492        0x4 ./src/platform/mpfs_hal/common/mss_irq_handler_stubs.o
                0x000000000a003492                PLIC_i2c1_main_IRQHandler
 .text.PLIC_i2c1_alert_IRQHandler
                0x000000000a003496        0x4 ./src/platform/mpfs_hal/common/mss_irq_handler_stubs.o
                0x000000000a003496                PLIC_i2c1_alert_IRQHandler
 .text.PLIC_i2c1_sus_IRQHandler
                0x000000000a00349a        0x4 ./src/platform/mpfs_hal/common/mss_irq_handler_stubs.o
                0x000000000a00349a                PLIC_i2c1_sus_IRQHandler
 .text.PLIC_mac0_int_IRQHandler
                0x000000000a00349e        0x4 ./src/platform/mpfs_hal/common/mss_irq_handler_stubs.o
                0x000000000a00349e                PLIC_mac0_int_IRQHandler
 .text.PLIC_mac0_queue1_IRQHandler
                0x000000000a0034a2        0x4 ./src/platform/mpfs_hal/common/mss_irq_handler_stubs.o
                0x000000000a0034a2                PLIC_mac0_queue1_IRQHandler
 .text.PLIC_mac0_queue2_IRQHandler
                0x000000000a0034a6        0x4 ./src/platform/mpfs_hal/common/mss_irq_handler_stubs.o
                0x000000000a0034a6                PLIC_mac0_queue2_IRQHandler
 .text.PLIC_mac0_queue3_IRQHandler
                0x000000000a0034aa        0x4 ./src/platform/mpfs_hal/common/mss_irq_handler_stubs.o
                0x000000000a0034aa                PLIC_mac0_queue3_IRQHandler
 .text.PLIC_mac0_emac_IRQHandler
                0x000000000a0034ae        0x4 ./src/platform/mpfs_hal/common/mss_irq_handler_stubs.o
                0x000000000a0034ae                PLIC_mac0_emac_IRQHandler
 .text.PLIC_mac0_mmsl_IRQHandler
                0x000000000a0034b2        0x4 ./src/platform/mpfs_hal/common/mss_irq_handler_stubs.o
                0x000000000a0034b2                PLIC_mac0_mmsl_IRQHandler
 .text.PLIC_mac1_int_IRQHandler
                0x000000000a0034b6        0x4 ./src/platform/mpfs_hal/common/mss_irq_handler_stubs.o
                0x000000000a0034b6                PLIC_mac1_int_IRQHandler
 .text.PLIC_mac1_queue1_IRQHandler
                0x000000000a0034ba        0x4 ./src/platform/mpfs_hal/common/mss_irq_handler_stubs.o
                0x000000000a0034ba                PLIC_mac1_queue1_IRQHandler
 .text.PLIC_mac1_queue2_IRQHandler
                0x000000000a0034be        0x4 ./src/platform/mpfs_hal/common/mss_irq_handler_stubs.o
                0x000000000a0034be                PLIC_mac1_queue2_IRQHandler
 .text.PLIC_mac1_queue3_IRQHandler
                0x000000000a0034c2        0x4 ./src/platform/mpfs_hal/common/mss_irq_handler_stubs.o
                0x000000000a0034c2                PLIC_mac1_queue3_IRQHandler
 .text.PLIC_mac1_emac_IRQHandler
                0x000000000a0034c6        0x4 ./src/platform/mpfs_hal/common/mss_irq_handler_stubs.o
                0x000000000a0034c6                PLIC_mac1_emac_IRQHandler
 .text.PLIC_mac1_mmsl_IRQHandler
                0x000000000a0034ca        0x4 ./src/platform/mpfs_hal/common/mss_irq_handler_stubs.o
                0x000000000a0034ca                PLIC_mac1_mmsl_IRQHandler
 .text.PLIC_ddrc_train_IRQHandler
                0x000000000a0034ce        0x4 ./src/platform/mpfs_hal/common/mss_irq_handler_stubs.o
                0x000000000a0034ce                PLIC_ddrc_train_IRQHandler
 .text.PLIC_scb_interrupt_IRQHandler
                0x000000000a0034d2        0x4 ./src/platform/mpfs_hal/common/mss_irq_handler_stubs.o
                0x000000000a0034d2                PLIC_scb_interrupt_IRQHandler
 .text.PLIC_ecc_error_IRQHandler
                0x000000000a0034d6        0x4 ./src/platform/mpfs_hal/common/mss_irq_handler_stubs.o
                0x000000000a0034d6                PLIC_ecc_error_IRQHandler
 .text.PLIC_ecc_correct_IRQHandler
                0x000000000a0034da        0x4 ./src/platform/mpfs_hal/common/mss_irq_handler_stubs.o
                0x000000000a0034da                PLIC_ecc_correct_IRQHandler
 .text.PLIC_rtc_wakeup_IRQHandler
                0x000000000a0034de        0x4 ./src/platform/mpfs_hal/common/mss_irq_handler_stubs.o
                0x000000000a0034de                PLIC_rtc_wakeup_IRQHandler
 .text.PLIC_rtc_match_IRQHandler
                0x000000000a0034e2        0x4 ./src/platform/mpfs_hal/common/mss_irq_handler_stubs.o
                0x000000000a0034e2                PLIC_rtc_match_IRQHandler
 .text.PLIC_timer1_IRQHandler
                0x000000000a0034e6        0x4 ./src/platform/mpfs_hal/common/mss_irq_handler_stubs.o
                0x000000000a0034e6                PLIC_timer1_IRQHandler
 .text.PLIC_timer2_IRQHandler
                0x000000000a0034ea        0x4 ./src/platform/mpfs_hal/common/mss_irq_handler_stubs.o
                0x000000000a0034ea                PLIC_timer2_IRQHandler
 .text.PLIC_envm_IRQHandler
                0x000000000a0034ee        0x4 ./src/platform/mpfs_hal/common/mss_irq_handler_stubs.o
                0x000000000a0034ee                PLIC_envm_IRQHandler
 .text.PLIC_qspi_IRQHandler
                0x000000000a0034f2        0x4 ./src/platform/mpfs_hal/common/mss_irq_handler_stubs.o
                0x000000000a0034f2                PLIC_qspi_IRQHandler
 .text.PLIC_usb_dma_IRQHandler
                0x000000000a0034f6        0x4 ./src/platform/mpfs_hal/common/mss_irq_handler_stubs.o
                0x000000000a0034f6                PLIC_usb_dma_IRQHandler
 .text.PLIC_usb_mc_IRQHandler
                0x000000000a0034fa        0x4 ./src/platform/mpfs_hal/common/mss_irq_handler_stubs.o
                0x000000000a0034fa                PLIC_usb_mc_IRQHandler
 .text.PLIC_mmc_main_IRQHandler
                0x000000000a0034fe        0x4 ./src/platform/mpfs_hal/common/mss_irq_handler_stubs.o
                0x000000000a0034fe                PLIC_mmc_main_IRQHandler
 .text.PLIC_mmc_wakeup_IRQHandler
                0x000000000a003502        0x4 ./src/platform/mpfs_hal/common/mss_irq_handler_stubs.o
                0x000000000a003502                PLIC_mmc_wakeup_IRQHandler
 .text.PLIC_devrst_IRQHandler
                0x000000000a003506        0x4 ./src/platform/mpfs_hal/common/mss_irq_handler_stubs.o
                0x000000000a003506                PLIC_devrst_IRQHandler
 .text.PLIC_g5c_message_IRQHandler
                0x000000000a00350a        0x4 ./src/platform/mpfs_hal/common/mss_irq_handler_stubs.o
                0x000000000a00350a                PLIC_g5c_message_IRQHandler
 .text.PLIC_usoc_vc_interrupt_IRQHandler
                0x000000000a00350e        0x4 ./src/platform/mpfs_hal/common/mss_irq_handler_stubs.o
                0x000000000a00350e                PLIC_usoc_vc_interrupt_IRQHandler
 .text.PLIC_usoc_smb_interrupt_IRQHandler
                0x000000000a003512        0x4 ./src/platform/mpfs_hal/common/mss_irq_handler_stubs.o
                0x000000000a003512                PLIC_usoc_smb_interrupt_IRQHandler
 .text.PLIC_E51_Maintence_IRQHandler
                0x000000000a003516        0x4 ./src/platform/mpfs_hal/common/mss_irq_handler_stubs.o
                0x000000000a003516                PLIC_E51_Maintence_IRQHandler
 .text.PLIC_wdog0_mvrp_IRQHandler
                0x000000000a00351a        0x4 ./src/platform/mpfs_hal/common/mss_irq_handler_stubs.o
                0x000000000a00351a                PLIC_wdog0_mvrp_IRQHandler
 .text.PLIC_wdog1_mvrp_IRQHandler
                0x000000000a00351e        0x4 ./src/platform/mpfs_hal/common/mss_irq_handler_stubs.o
                0x000000000a00351e                PLIC_wdog1_mvrp_IRQHandler
 .text.PLIC_wdog2_mvrp_IRQHandler
                0x000000000a003522        0x4 ./src/platform/mpfs_hal/common/mss_irq_handler_stubs.o
                0x000000000a003522                PLIC_wdog2_mvrp_IRQHandler
 .text.PLIC_wdog3_mvrp_IRQHandler
                0x000000000a003526        0x4 ./src/platform/mpfs_hal/common/mss_irq_handler_stubs.o
                0x000000000a003526                PLIC_wdog3_mvrp_IRQHandler
 .text.PLIC_wdog4_mvrp_IRQHandler
                0x000000000a00352a        0x4 ./src/platform/mpfs_hal/common/mss_irq_handler_stubs.o
                0x000000000a00352a                PLIC_wdog4_mvrp_IRQHandler
 .text.PLIC_wdog0_tout_IRQHandler
                0x000000000a00352e        0x4 ./src/platform/mpfs_hal/common/mss_irq_handler_stubs.o
                0x000000000a00352e                PLIC_wdog0_tout_IRQHandler
 .text.PLIC_wdog1_tout_IRQHandler
                0x000000000a003532        0x4 ./src/platform/mpfs_hal/common/mss_irq_handler_stubs.o
                0x000000000a003532                PLIC_wdog1_tout_IRQHandler
 .text.PLIC_wdog2_tout_IRQHandler
                0x000000000a003536        0x4 ./src/platform/mpfs_hal/common/mss_irq_handler_stubs.o
                0x000000000a003536                PLIC_wdog2_tout_IRQHandler
 .text.PLIC_wdog3_tout_IRQHandler
                0x000000000a00353a        0x4 ./src/platform/mpfs_hal/common/mss_irq_handler_stubs.o
                0x000000000a00353a                PLIC_wdog3_tout_IRQHandler
 .text.PLIC_wdog4_tout_IRQHandler
                0x000000000a00353e        0x4 ./src/platform/mpfs_hal/common/mss_irq_handler_stubs.o
                0x000000000a00353e                PLIC_wdog4_tout_IRQHandler
 .text.PLIC_g5c_mss_spi_IRQHandler
                0x000000000a003542        0x4 ./src/platform/mpfs_hal/common/mss_irq_handler_stubs.o
                0x000000000a003542                PLIC_g5c_mss_spi_IRQHandler
 .text.PLIC_volt_temp_alarm_IRQHandler
                0x000000000a003546        0x4 ./src/platform/mpfs_hal/common/mss_irq_handler_stubs.o
                0x000000000a003546                PLIC_volt_temp_alarm_IRQHandler
 .text.PLIC_athena_complete_IRQHandler
                0x000000000a00354a        0x4 ./src/platform/mpfs_hal/common/mss_irq_handler_stubs.o
                0x000000000a00354a                PLIC_athena_complete_IRQHandler
 .text.PLIC_athena_alarm_IRQHandler
                0x000000000a00354e        0x4 ./src/platform/mpfs_hal/common/mss_irq_handler_stubs.o
                0x000000000a00354e                PLIC_athena_alarm_IRQHandler
 .text.PLIC_athena_bus_error_IRQHandler
                0x000000000a003552        0x4 ./src/platform/mpfs_hal/common/mss_irq_handler_stubs.o
                0x000000000a003552                PLIC_athena_bus_error_IRQHandler
 .text.PLIC_usoc_axic_us_IRQHandler
                0x000000000a003556        0x4 ./src/platform/mpfs_hal/common/mss_irq_handler_stubs.o
                0x000000000a003556                PLIC_usoc_axic_us_IRQHandler
 .text.PLIC_usoc_axic_ds_IRQHandler
                0x000000000a00355a        0x4 ./src/platform/mpfs_hal/common/mss_irq_handler_stubs.o
                0x000000000a00355a                PLIC_usoc_axic_ds_IRQHandler
 .text.PLIC_reserved_104_IRQHandler
                0x000000000a00355e        0x4 ./src/platform/mpfs_hal/common/mss_irq_handler_stubs.o
                0x000000000a00355e                PLIC_reserved_104_IRQHandler
 .text.PLIC_f2m_0_IRQHandler
                0x000000000a003562        0x4 ./src/platform/mpfs_hal/common/mss_irq_handler_stubs.o
                0x000000000a003562                PLIC_f2m_0_IRQHandler
 .text.PLIC_f2m_1_IRQHandler
                0x000000000a003566        0x4 ./src/platform/mpfs_hal/common/mss_irq_handler_stubs.o
                0x000000000a003566                PLIC_f2m_1_IRQHandler
 .text.PLIC_f2m_2_IRQHandler
                0x000000000a00356a        0x4 ./src/platform/mpfs_hal/common/mss_irq_handler_stubs.o
                0x000000000a00356a                PLIC_f2m_2_IRQHandler
 .text.PLIC_f2m_3_IRQHandler
                0x000000000a00356e        0x4 ./src/platform/mpfs_hal/common/mss_irq_handler_stubs.o
                0x000000000a00356e                PLIC_f2m_3_IRQHandler
 .text.PLIC_f2m_4_IRQHandler
                0x000000000a003572        0x4 ./src/platform/mpfs_hal/common/mss_irq_handler_stubs.o
                0x000000000a003572                PLIC_f2m_4_IRQHandler
 .text.PLIC_f2m_5_IRQHandler
                0x000000000a003576        0x4 ./src/platform/mpfs_hal/common/mss_irq_handler_stubs.o
                0x000000000a003576                PLIC_f2m_5_IRQHandler
 .text.PLIC_f2m_6_IRQHandler
                0x000000000a00357a        0x4 ./src/platform/mpfs_hal/common/mss_irq_handler_stubs.o
                0x000000000a00357a                PLIC_f2m_6_IRQHandler
 .text.PLIC_f2m_7_IRQHandler
                0x000000000a00357e        0x4 ./src/platform/mpfs_hal/common/mss_irq_handler_stubs.o
                0x000000000a00357e                PLIC_f2m_7_IRQHandler
 .text.PLIC_f2m_8_IRQHandler
                0x000000000a003582        0x4 ./src/platform/mpfs_hal/common/mss_irq_handler_stubs.o
                0x000000000a003582                PLIC_f2m_8_IRQHandler
 .text.PLIC_f2m_9_IRQHandler
                0x000000000a003586        0x4 ./src/platform/mpfs_hal/common/mss_irq_handler_stubs.o
                0x000000000a003586                PLIC_f2m_9_IRQHandler
 .text.PLIC_f2m_10_IRQHandler
                0x000000000a00358a        0x4 ./src/platform/mpfs_hal/common/mss_irq_handler_stubs.o
                0x000000000a00358a                PLIC_f2m_10_IRQHandler
 .text.PLIC_f2m_11_IRQHandler
                0x000000000a00358e        0x4 ./src/platform/mpfs_hal/common/mss_irq_handler_stubs.o
                0x000000000a00358e                PLIC_f2m_11_IRQHandler
 .text.PLIC_f2m_12_IRQHandler
                0x000000000a003592        0x4 ./src/platform/mpfs_hal/common/mss_irq_handler_stubs.o
                0x000000000a003592                PLIC_f2m_12_IRQHandler
 .text.PLIC_f2m_13_IRQHandler
                0x000000000a003596        0x4 ./src/platform/mpfs_hal/common/mss_irq_handler_stubs.o
                0x000000000a003596                PLIC_f2m_13_IRQHandler
 .text.PLIC_f2m_14_IRQHandler
                0x000000000a00359a        0x4 ./src/platform/mpfs_hal/common/mss_irq_handler_stubs.o
                0x000000000a00359a                PLIC_f2m_14_IRQHandler
 .text.PLIC_f2m_15_IRQHandler
                0x000000000a00359e        0x4 ./src/platform/mpfs_hal/common/mss_irq_handler_stubs.o
                0x000000000a00359e                PLIC_f2m_15_IRQHandler
 .text.PLIC_f2m_16_IRQHandler
                0x000000000a0035a2        0x4 ./src/platform/mpfs_hal/common/mss_irq_handler_stubs.o
                0x000000000a0035a2                PLIC_f2m_16_IRQHandler
 .text.PLIC_f2m_17_IRQHandler
                0x000000000a0035a6        0x4 ./src/platform/mpfs_hal/common/mss_irq_handler_stubs.o
                0x000000000a0035a6                PLIC_f2m_17_IRQHandler
 .text.PLIC_f2m_18_IRQHandler
                0x000000000a0035aa        0x4 ./src/platform/mpfs_hal/common/mss_irq_handler_stubs.o
                0x000000000a0035aa                PLIC_f2m_18_IRQHandler
 .text.PLIC_f2m_19_IRQHandler
                0x000000000a0035ae        0x4 ./src/platform/mpfs_hal/common/mss_irq_handler_stubs.o
                0x000000000a0035ae                PLIC_f2m_19_IRQHandler
 .text.PLIC_f2m_20_IRQHandler
                0x000000000a0035b2        0x4 ./src/platform/mpfs_hal/common/mss_irq_handler_stubs.o
                0x000000000a0035b2                PLIC_f2m_20_IRQHandler
 .text.PLIC_f2m_21_IRQHandler
                0x000000000a0035b6        0x4 ./src/platform/mpfs_hal/common/mss_irq_handler_stubs.o
                0x000000000a0035b6                PLIC_f2m_21_IRQHandler
 .text.PLIC_f2m_22_IRQHandler
                0x000000000a0035ba        0x4 ./src/platform/mpfs_hal/common/mss_irq_handler_stubs.o
                0x000000000a0035ba                PLIC_f2m_22_IRQHandler
 .text.PLIC_f2m_23_IRQHandler
                0x000000000a0035be        0x4 ./src/platform/mpfs_hal/common/mss_irq_handler_stubs.o
                0x000000000a0035be                PLIC_f2m_23_IRQHandler
 .text.PLIC_f2m_24_IRQHandler
                0x000000000a0035c2        0x4 ./src/platform/mpfs_hal/common/mss_irq_handler_stubs.o
                0x000000000a0035c2                PLIC_f2m_24_IRQHandler
 .text.PLIC_f2m_25_IRQHandler
                0x000000000a0035c6        0x4 ./src/platform/mpfs_hal/common/mss_irq_handler_stubs.o
                0x000000000a0035c6                PLIC_f2m_25_IRQHandler
 .text.PLIC_f2m_26_IRQHandler
                0x000000000a0035ca        0x4 ./src/platform/mpfs_hal/common/mss_irq_handler_stubs.o
                0x000000000a0035ca                PLIC_f2m_26_IRQHandler
 .text.PLIC_f2m_27_IRQHandler
                0x000000000a0035ce        0x4 ./src/platform/mpfs_hal/common/mss_irq_handler_stubs.o
                0x000000000a0035ce                PLIC_f2m_27_IRQHandler
 .text.PLIC_f2m_28_IRQHandler
                0x000000000a0035d2        0x4 ./src/platform/mpfs_hal/common/mss_irq_handler_stubs.o
                0x000000000a0035d2                PLIC_f2m_28_IRQHandler
 .text.PLIC_f2m_29_IRQHandler
                0x000000000a0035d6        0x4 ./src/platform/mpfs_hal/common/mss_irq_handler_stubs.o
                0x000000000a0035d6                PLIC_f2m_29_IRQHandler
 .text.PLIC_f2m_30_IRQHandler
                0x000000000a0035da        0x4 ./src/platform/mpfs_hal/common/mss_irq_handler_stubs.o
                0x000000000a0035da                PLIC_f2m_30_IRQHandler
 .text.PLIC_f2m_31_IRQHandler
                0x000000000a0035de        0x4 ./src/platform/mpfs_hal/common/mss_irq_handler_stubs.o
                0x000000000a0035de                PLIC_f2m_31_IRQHandler
 .text.PLIC_f2m_32_IRQHandler
                0x000000000a0035e2        0x4 ./src/platform/mpfs_hal/common/mss_irq_handler_stubs.o
                0x000000000a0035e2                PLIC_f2m_32_IRQHandler
 .text.PLIC_f2m_33_IRQHandler
                0x000000000a0035e6        0x4 ./src/platform/mpfs_hal/common/mss_irq_handler_stubs.o
                0x000000000a0035e6                PLIC_f2m_33_IRQHandler
 .text.PLIC_f2m_34_IRQHandler
                0x000000000a0035ea        0x4 ./src/platform/mpfs_hal/common/mss_irq_handler_stubs.o
                0x000000000a0035ea                PLIC_f2m_34_IRQHandler
 .text.PLIC_f2m_35_IRQHandler
                0x000000000a0035ee        0x4 ./src/platform/mpfs_hal/common/mss_irq_handler_stubs.o
                0x000000000a0035ee                PLIC_f2m_35_IRQHandler
 .text.PLIC_f2m_36_IRQHandler
                0x000000000a0035f2        0x4 ./src/platform/mpfs_hal/common/mss_irq_handler_stubs.o
                0x000000000a0035f2                PLIC_f2m_36_IRQHandler
 .text.PLIC_f2m_37_IRQHandler
                0x000000000a0035f6        0x4 ./src/platform/mpfs_hal/common/mss_irq_handler_stubs.o
                0x000000000a0035f6                PLIC_f2m_37_IRQHandler
 .text.PLIC_f2m_38_IRQHandler
                0x000000000a0035fa        0x4 ./src/platform/mpfs_hal/common/mss_irq_handler_stubs.o
                0x000000000a0035fa                PLIC_f2m_38_IRQHandler
 .text.PLIC_f2m_39_IRQHandler
                0x000000000a0035fe        0x4 ./src/platform/mpfs_hal/common/mss_irq_handler_stubs.o
                0x000000000a0035fe                PLIC_f2m_39_IRQHandler
 .text.PLIC_f2m_40_IRQHandler
                0x000000000a003602        0x4 ./src/platform/mpfs_hal/common/mss_irq_handler_stubs.o
                0x000000000a003602                PLIC_f2m_40_IRQHandler
 .text.PLIC_f2m_41_IRQHandler
                0x000000000a003606        0x4 ./src/platform/mpfs_hal/common/mss_irq_handler_stubs.o
                0x000000000a003606                PLIC_f2m_41_IRQHandler
 .text.PLIC_f2m_42_IRQHandler
                0x000000000a00360a        0x4 ./src/platform/mpfs_hal/common/mss_irq_handler_stubs.o
                0x000000000a00360a                PLIC_f2m_42_IRQHandler
 .text.PLIC_f2m_43_IRQHandler
                0x000000000a00360e        0x4 ./src/platform/mpfs_hal/common/mss_irq_handler_stubs.o
                0x000000000a00360e                PLIC_f2m_43_IRQHandler
 .text.PLIC_f2m_44_IRQHandler
                0x000000000a003612        0x4 ./src/platform/mpfs_hal/common/mss_irq_handler_stubs.o
                0x000000000a003612                PLIC_f2m_44_IRQHandler
 .text.PLIC_f2m_45_IRQHandler
                0x000000000a003616        0x4 ./src/platform/mpfs_hal/common/mss_irq_handler_stubs.o
                0x000000000a003616                PLIC_f2m_45_IRQHandler
 .text.PLIC_f2m_46_IRQHandler
                0x000000000a00361a        0x4 ./src/platform/mpfs_hal/common/mss_irq_handler_stubs.o
                0x000000000a00361a                PLIC_f2m_46_IRQHandler
 .text.PLIC_f2m_47_IRQHandler
                0x000000000a00361e        0x4 ./src/platform/mpfs_hal/common/mss_irq_handler_stubs.o
                0x000000000a00361e                PLIC_f2m_47_IRQHandler
 .text.PLIC_f2m_48_IRQHandler
                0x000000000a003622        0x4 ./src/platform/mpfs_hal/common/mss_irq_handler_stubs.o
                0x000000000a003622                PLIC_f2m_48_IRQHandler
 .text.PLIC_f2m_49_IRQHandler
                0x000000000a003626        0x4 ./src/platform/mpfs_hal/common/mss_irq_handler_stubs.o
                0x000000000a003626                PLIC_f2m_49_IRQHandler
 .text.PLIC_f2m_50_IRQHandler
                0x000000000a00362a        0x4 ./src/platform/mpfs_hal/common/mss_irq_handler_stubs.o
                0x000000000a00362a                PLIC_f2m_50_IRQHandler
 .text.PLIC_f2m_51_IRQHandler
                0x000000000a00362e        0x4 ./src/platform/mpfs_hal/common/mss_irq_handler_stubs.o
                0x000000000a00362e                PLIC_f2m_51_IRQHandler
 .text.PLIC_f2m_52_IRQHandler
                0x000000000a003632        0x4 ./src/platform/mpfs_hal/common/mss_irq_handler_stubs.o
                0x000000000a003632                PLIC_f2m_52_IRQHandler
 .text.PLIC_f2m_53_IRQHandler
                0x000000000a003636        0x4 ./src/platform/mpfs_hal/common/mss_irq_handler_stubs.o
                0x000000000a003636                PLIC_f2m_53_IRQHandler
 .text.PLIC_f2m_54_IRQHandler
                0x000000000a00363a        0x4 ./src/platform/mpfs_hal/common/mss_irq_handler_stubs.o
                0x000000000a00363a                PLIC_f2m_54_IRQHandler
 .text.PLIC_f2m_55_IRQHandler
                0x000000000a00363e        0x4 ./src/platform/mpfs_hal/common/mss_irq_handler_stubs.o
                0x000000000a00363e                PLIC_f2m_55_IRQHandler
 .text.PLIC_f2m_56_IRQHandler
                0x000000000a003642        0x4 ./src/platform/mpfs_hal/common/mss_irq_handler_stubs.o
                0x000000000a003642                PLIC_f2m_56_IRQHandler
 .text.PLIC_f2m_57_IRQHandler
                0x000000000a003646        0x4 ./src/platform/mpfs_hal/common/mss_irq_handler_stubs.o
                0x000000000a003646                PLIC_f2m_57_IRQHandler
 .text.PLIC_f2m_58_IRQHandler
                0x000000000a00364a        0x4 ./src/platform/mpfs_hal/common/mss_irq_handler_stubs.o
                0x000000000a00364a                PLIC_f2m_58_IRQHandler
 .text.PLIC_f2m_59_IRQHandler
                0x000000000a00364e        0x4 ./src/platform/mpfs_hal/common/mss_irq_handler_stubs.o
                0x000000000a00364e                PLIC_f2m_59_IRQHandler
 .text.PLIC_f2m_60_IRQHandler
                0x000000000a003652        0x4 ./src/platform/mpfs_hal/common/mss_irq_handler_stubs.o
                0x000000000a003652                PLIC_f2m_60_IRQHandler
 .text.PLIC_f2m_61_IRQHandler
                0x000000000a003656        0x4 ./src/platform/mpfs_hal/common/mss_irq_handler_stubs.o
                0x000000000a003656                PLIC_f2m_61_IRQHandler
 .text.PLIC_f2m_62_IRQHandler
                0x000000000a00365a        0x4 ./src/platform/mpfs_hal/common/mss_irq_handler_stubs.o
                0x000000000a00365a                PLIC_f2m_62_IRQHandler
 .text.PLIC_f2m_63_IRQHandler
                0x000000000a00365e        0x4 ./src/platform/mpfs_hal/common/mss_irq_handler_stubs.o
                0x000000000a00365e                PLIC_f2m_63_IRQHandler
 .text.PLIC_E51_bus_error_unit_IRQHandler
                0x000000000a003662        0x4 ./src/platform/mpfs_hal/common/mss_irq_handler_stubs.o
                0x000000000a003662                PLIC_E51_bus_error_unit_IRQHandler
 .text.PLIC_U54_1_bus_error_unit_IRQHandler
                0x000000000a003666        0x4 ./src/platform/mpfs_hal/common/mss_irq_handler_stubs.o
                0x000000000a003666                PLIC_U54_1_bus_error_unit_IRQHandler
 .text.PLIC_U54_2_bus_error_unit_IRQHandler
                0x000000000a00366a        0x4 ./src/platform/mpfs_hal/common/mss_irq_handler_stubs.o
                0x000000000a00366a                PLIC_U54_2_bus_error_unit_IRQHandler
 .text.PLIC_U54_3_bus_error_unit_IRQHandler
                0x000000000a00366e        0x4 ./src/platform/mpfs_hal/common/mss_irq_handler_stubs.o
                0x000000000a00366e                PLIC_U54_3_bus_error_unit_IRQHandler
 .text.PLIC_U54_4_bus_error_unit_IRQHandler
                0x000000000a003672        0x4 ./src/platform/mpfs_hal/common/mss_irq_handler_stubs.o
                0x000000000a003672                PLIC_U54_4_bus_error_unit_IRQHandler
 .text.E51_maintenance_local_IRQHandler
                0x000000000a003676        0x2 ./src/platform/mpfs_hal/common/mss_irq_handler_stubs.o
                0x000000000a003676                E51_maintenance_local_IRQHandler
 .text.E51_usoc_smb_local_IRQHandler
                0x000000000a003678        0x2 ./src/platform/mpfs_hal/common/mss_irq_handler_stubs.o
                0x000000000a003678                E51_usoc_smb_local_IRQHandler
 .text.E51_usoc_vc_local_IRQHandler
                0x000000000a00367a        0x2 ./src/platform/mpfs_hal/common/mss_irq_handler_stubs.o
                0x000000000a00367a                E51_usoc_vc_local_IRQHandler
 .text.E51_g5c_message_local_IRQHandler
                0x000000000a00367c        0x2 ./src/platform/mpfs_hal/common/mss_irq_handler_stubs.o
                0x000000000a00367c                E51_g5c_message_local_IRQHandler
 .text.E51_g5c_devrst_local_IRQHandler
                0x000000000a00367e        0x2 ./src/platform/mpfs_hal/common/mss_irq_handler_stubs.o
                0x000000000a00367e                E51_g5c_devrst_local_IRQHandler
 .text.E51_wdog4_tout_local_IRQHandler
                0x000000000a003680        0x2 ./src/platform/mpfs_hal/common/mss_irq_handler_stubs.o
                0x000000000a003680                E51_wdog4_tout_local_IRQHandler
 .text.E51_wdog3_tout_local_IRQHandler
                0x000000000a003682        0x2 ./src/platform/mpfs_hal/common/mss_irq_handler_stubs.o
                0x000000000a003682                E51_wdog3_tout_local_IRQHandler
 .text.E51_wdog2_tout_local_IRQHandler
                0x000000000a003684        0x2 ./src/platform/mpfs_hal/common/mss_irq_handler_stubs.o
                0x000000000a003684                E51_wdog2_tout_local_IRQHandler
 .text.E51_wdog1_tout_local_IRQHandler
                0x000000000a003686        0x2 ./src/platform/mpfs_hal/common/mss_irq_handler_stubs.o
                0x000000000a003686                E51_wdog1_tout_local_IRQHandler
 .text.E51_wdog0_tout_local_IRQHandler
                0x000000000a003688        0x2 ./src/platform/mpfs_hal/common/mss_irq_handler_stubs.o
                0x000000000a003688                E51_wdog0_tout_local_IRQHandler
 .text.E51_wdog0_mvrp_local_IRQHandler
                0x000000000a00368a        0x2 ./src/platform/mpfs_hal/common/mss_irq_handler_stubs.o
                0x000000000a00368a                E51_wdog0_mvrp_local_IRQHandler
 .text.E51_envm_local_IRQHandler
                0x000000000a00368c        0x2 ./src/platform/mpfs_hal/common/mss_irq_handler_stubs.o
                0x000000000a00368c                E51_envm_local_IRQHandler
 .text.E51_ecc_correct_local_IRQHandler
                0x000000000a00368e        0x2 ./src/platform/mpfs_hal/common/mss_irq_handler_stubs.o
                0x000000000a00368e                E51_ecc_correct_local_IRQHandler
 .text.E51_ecc_error_local_IRQHandler
                0x000000000a003690        0x2 ./src/platform/mpfs_hal/common/mss_irq_handler_stubs.o
                0x000000000a003690                E51_ecc_error_local_IRQHandler
 .text.E51_scb_local_IRQHandler
                0x000000000a003692        0x2 ./src/platform/mpfs_hal/common/mss_irq_handler_stubs.o
                0x000000000a003692                E51_scb_local_IRQHandler
 .text.E51_f2m_32_local_IRQHandler
                0x000000000a003694        0x2 ./src/platform/mpfs_hal/common/mss_irq_handler_stubs.o
                0x000000000a003694                E51_f2m_32_local_IRQHandler
 .text.E51_f2m_33_local_IRQHandler
                0x000000000a003696        0x2 ./src/platform/mpfs_hal/common/mss_irq_handler_stubs.o
                0x000000000a003696                E51_f2m_33_local_IRQHandler
 .text.E51_f2m_34_local_IRQHandler
                0x000000000a003698        0x2 ./src/platform/mpfs_hal/common/mss_irq_handler_stubs.o
                0x000000000a003698                E51_f2m_34_local_IRQHandler
 .text.E51_f2m_35_local_IRQHandler
                0x000000000a00369a        0x2 ./src/platform/mpfs_hal/common/mss_irq_handler_stubs.o
                0x000000000a00369a                E51_f2m_35_local_IRQHandler
 .text.E51_f2m_36_local_IRQHandler
                0x000000000a00369c        0x2 ./src/platform/mpfs_hal/common/mss_irq_handler_stubs.o
                0x000000000a00369c                E51_f2m_36_local_IRQHandler
 .text.E51_f2m_37_local_IRQHandler
                0x000000000a00369e        0x2 ./src/platform/mpfs_hal/common/mss_irq_handler_stubs.o
                0x000000000a00369e                E51_f2m_37_local_IRQHandler
 .text.E51_f2m_38_local_IRQHandler
                0x000000000a0036a0        0x2 ./src/platform/mpfs_hal/common/mss_irq_handler_stubs.o
                0x000000000a0036a0                E51_f2m_38_local_IRQHandler
 .text.E51_f2m_39_local_IRQHandler
                0x000000000a0036a2        0x2 ./src/platform/mpfs_hal/common/mss_irq_handler_stubs.o
                0x000000000a0036a2                E51_f2m_39_local_IRQHandler
 .text.E51_f2m_40_local_IRQHandler
                0x000000000a0036a4        0x2 ./src/platform/mpfs_hal/common/mss_irq_handler_stubs.o
                0x000000000a0036a4                E51_f2m_40_local_IRQHandler
 .text.E51_f2m_41_local_IRQHandler
                0x000000000a0036a6        0x2 ./src/platform/mpfs_hal/common/mss_irq_handler_stubs.o
                0x000000000a0036a6                E51_f2m_41_local_IRQHandler
 .text.E51_f2m_42_local_IRQHandler
                0x000000000a0036a8        0x2 ./src/platform/mpfs_hal/common/mss_irq_handler_stubs.o
                0x000000000a0036a8                E51_f2m_42_local_IRQHandler
 .text.E51_f2m_43_local_IRQHandler
                0x000000000a0036aa        0x2 ./src/platform/mpfs_hal/common/mss_irq_handler_stubs.o
                0x000000000a0036aa                E51_f2m_43_local_IRQHandler
 .text.E51_f2m_44_local_IRQHandler
                0x000000000a0036ac        0x2 ./src/platform/mpfs_hal/common/mss_irq_handler_stubs.o
                0x000000000a0036ac                E51_f2m_44_local_IRQHandler
 .text.E51_f2m_45_local_IRQHandler
                0x000000000a0036ae        0x2 ./src/platform/mpfs_hal/common/mss_irq_handler_stubs.o
                0x000000000a0036ae                E51_f2m_45_local_IRQHandler
 .text.E51_f2m_46_local_IRQHandler
                0x000000000a0036b0        0x2 ./src/platform/mpfs_hal/common/mss_irq_handler_stubs.o
                0x000000000a0036b0                E51_f2m_46_local_IRQHandler
 .text.E51_f2m_47_local_IRQHandler
                0x000000000a0036b2        0x2 ./src/platform/mpfs_hal/common/mss_irq_handler_stubs.o
                0x000000000a0036b2                E51_f2m_47_local_IRQHandler
 .text.E51_f2m_48_local_IRQHandler
                0x000000000a0036b4        0x2 ./src/platform/mpfs_hal/common/mss_irq_handler_stubs.o
                0x000000000a0036b4                E51_f2m_48_local_IRQHandler
 .text.E51_f2m_49_local_IRQHandler
                0x000000000a0036b6        0x2 ./src/platform/mpfs_hal/common/mss_irq_handler_stubs.o
                0x000000000a0036b6                E51_f2m_49_local_IRQHandler
 .text.E51_f2m_50_local_IRQHandler
                0x000000000a0036b8        0x2 ./src/platform/mpfs_hal/common/mss_irq_handler_stubs.o
                0x000000000a0036b8                E51_f2m_50_local_IRQHandler
 .text.E51_f2m_51_local_IRQHandler
                0x000000000a0036ba        0x2 ./src/platform/mpfs_hal/common/mss_irq_handler_stubs.o
                0x000000000a0036ba                E51_f2m_51_local_IRQHandler
 .text.E51_f2m_52_local_IRQHandler
                0x000000000a0036bc        0x2 ./src/platform/mpfs_hal/common/mss_irq_handler_stubs.o
                0x000000000a0036bc                E51_f2m_52_local_IRQHandler
 .text.E51_f2m_53_local_IRQHandler
                0x000000000a0036be        0x2 ./src/platform/mpfs_hal/common/mss_irq_handler_stubs.o
                0x000000000a0036be                E51_f2m_53_local_IRQHandler
 .text.E51_f2m_54_local_IRQHandler
                0x000000000a0036c0        0x2 ./src/platform/mpfs_hal/common/mss_irq_handler_stubs.o
                0x000000000a0036c0                E51_f2m_54_local_IRQHandler
 .text.E51_f2m_55_local_IRQHandler
                0x000000000a0036c2        0x2 ./src/platform/mpfs_hal/common/mss_irq_handler_stubs.o
                0x000000000a0036c2                E51_f2m_55_local_IRQHandler
 .text.E51_f2m_56_local_IRQHandler
                0x000000000a0036c4        0x2 ./src/platform/mpfs_hal/common/mss_irq_handler_stubs.o
                0x000000000a0036c4                E51_f2m_56_local_IRQHandler
 .text.E51_f2m_57_local_IRQHandler
                0x000000000a0036c6        0x2 ./src/platform/mpfs_hal/common/mss_irq_handler_stubs.o
                0x000000000a0036c6                E51_f2m_57_local_IRQHandler
 .text.E51_f2m_58_local_IRQHandler
                0x000000000a0036c8        0x2 ./src/platform/mpfs_hal/common/mss_irq_handler_stubs.o
                0x000000000a0036c8                E51_f2m_58_local_IRQHandler
 .text.E51_f2m_59_local_IRQHandler
                0x000000000a0036ca        0x2 ./src/platform/mpfs_hal/common/mss_irq_handler_stubs.o
                0x000000000a0036ca                E51_f2m_59_local_IRQHandler
 .text.E51_f2m_60_local_IRQHandler
                0x000000000a0036cc        0x2 ./src/platform/mpfs_hal/common/mss_irq_handler_stubs.o
                0x000000000a0036cc                E51_f2m_60_local_IRQHandler
 .text.E51_f2m_61_local_IRQHandler
                0x000000000a0036ce        0x2 ./src/platform/mpfs_hal/common/mss_irq_handler_stubs.o
                0x000000000a0036ce                E51_f2m_61_local_IRQHandler
 .text.E51_f2m_62_local_IRQHandler
                0x000000000a0036d0        0x2 ./src/platform/mpfs_hal/common/mss_irq_handler_stubs.o
                0x000000000a0036d0                E51_f2m_62_local_IRQHandler
 .text.E51_f2m_63_local_IRQHandler
                0x000000000a0036d2        0x2 ./src/platform/mpfs_hal/common/mss_irq_handler_stubs.o
                0x000000000a0036d2                E51_f2m_63_local_IRQHandler
 .text.U54_spare_0_local_IRQHandler
                0x000000000a0036d4        0x2 ./src/platform/mpfs_hal/common/mss_irq_handler_stubs.o
                0x000000000a0036d4                U54_spare_0_local_IRQHandler
 .text.U54_spare_1_local_IRQHandler
                0x000000000a0036d6        0x2 ./src/platform/mpfs_hal/common/mss_irq_handler_stubs.o
                0x000000000a0036d6                U54_spare_1_local_IRQHandler
 .text.U54_spare_2_local_IRQHandler
                0x000000000a0036d8        0x2 ./src/platform/mpfs_hal/common/mss_irq_handler_stubs.o
                0x000000000a0036d8                U54_spare_2_local_IRQHandler
 .text.U54_1_mac0_mmsl_local_IRQHandler
                0x000000000a0036da        0x2 ./src/platform/mpfs_hal/common/mss_irq_handler_stubs.o
                0x000000000a0036da                U54_1_mac0_mmsl_local_IRQHandler
 .text.U54_1_mac0_emac_local_IRQHandler
                0x000000000a0036dc        0x2 ./src/platform/mpfs_hal/common/mss_irq_handler_stubs.o
                0x000000000a0036dc                U54_1_mac0_emac_local_IRQHandler
 .text.U54_1_mac0_queue3_local_IRQHandler
                0x000000000a0036de        0x2 ./src/platform/mpfs_hal/common/mss_irq_handler_stubs.o
                0x000000000a0036de                U54_1_mac0_queue3_local_IRQHandler
 .text.U54_1_mac0_queue2_local_IRQHandler
                0x000000000a0036e0        0x2 ./src/platform/mpfs_hal/common/mss_irq_handler_stubs.o
                0x000000000a0036e0                U54_1_mac0_queue2_local_IRQHandler
 .text.U54_1_mac0_queue1_local_IRQHandler
                0x000000000a0036e2        0x2 ./src/platform/mpfs_hal/common/mss_irq_handler_stubs.o
                0x000000000a0036e2                U54_1_mac0_queue1_local_IRQHandler
 .text.U54_1_mac0_int_local_IRQHandler
                0x000000000a0036e4        0x2 ./src/platform/mpfs_hal/common/mss_irq_handler_stubs.o
                0x000000000a0036e4                U54_1_mac0_int_local_IRQHandler
 .text.U54_2_mac0_mmsl_local_IRQHandler
                0x000000000a0036e6        0x2 ./src/platform/mpfs_hal/common/mss_irq_handler_stubs.o
                0x000000000a0036e6                U54_2_mac0_mmsl_local_IRQHandler
 .text.U54_2_mac0_emac_local_IRQHandler
                0x000000000a0036e8        0x2 ./src/platform/mpfs_hal/common/mss_irq_handler_stubs.o
                0x000000000a0036e8                U54_2_mac0_emac_local_IRQHandler
 .text.U54_2_mac0_queue3_local_IRQHandler
                0x000000000a0036ea        0x2 ./src/platform/mpfs_hal/common/mss_irq_handler_stubs.o
                0x000000000a0036ea                U54_2_mac0_queue3_local_IRQHandler
 .text.U54_2_mac0_queue2_local_IRQHandler
                0x000000000a0036ec        0x2 ./src/platform/mpfs_hal/common/mss_irq_handler_stubs.o
                0x000000000a0036ec                U54_2_mac0_queue2_local_IRQHandler
 .text.U54_2_mac0_queue1_local_IRQHandler
                0x000000000a0036ee        0x2 ./src/platform/mpfs_hal/common/mss_irq_handler_stubs.o
                0x000000000a0036ee                U54_2_mac0_queue1_local_IRQHandler
 .text.U54_2_mac0_int_local_IRQHandler
                0x000000000a0036f0        0x2 ./src/platform/mpfs_hal/common/mss_irq_handler_stubs.o
                0x000000000a0036f0                U54_2_mac0_int_local_IRQHandler
 .text.U54_3_mac1_mmsl_local_IRQHandler
                0x000000000a0036f2        0x2 ./src/platform/mpfs_hal/common/mss_irq_handler_stubs.o
                0x000000000a0036f2                U54_3_mac1_mmsl_local_IRQHandler
 .text.U54_3_mac1_emac_local_IRQHandler
                0x000000000a0036f4        0x2 ./src/platform/mpfs_hal/common/mss_irq_handler_stubs.o
                0x000000000a0036f4                U54_3_mac1_emac_local_IRQHandler
 .text.U54_3_mac1_queue3_local_IRQHandler
                0x000000000a0036f6        0x2 ./src/platform/mpfs_hal/common/mss_irq_handler_stubs.o
                0x000000000a0036f6                U54_3_mac1_queue3_local_IRQHandler
 .text.U54_3_mac1_queue2_local_IRQHandler
                0x000000000a0036f8        0x2 ./src/platform/mpfs_hal/common/mss_irq_handler_stubs.o
                0x000000000a0036f8                U54_3_mac1_queue2_local_IRQHandler
 .text.U54_3_mac1_queue1_local_IRQHandler
                0x000000000a0036fa        0x2 ./src/platform/mpfs_hal/common/mss_irq_handler_stubs.o
                0x000000000a0036fa                U54_3_mac1_queue1_local_IRQHandler
 .text.U54_3_mac1_int_local_IRQHandler
                0x000000000a0036fc        0x2 ./src/platform/mpfs_hal/common/mss_irq_handler_stubs.o
                0x000000000a0036fc                U54_3_mac1_int_local_IRQHandler
 .text.U54_4_mac1_mmsl_local_IRQHandler
                0x000000000a0036fe        0x2 ./src/platform/mpfs_hal/common/mss_irq_handler_stubs.o
                0x000000000a0036fe                U54_4_mac1_mmsl_local_IRQHandler
 .text.U54_4_mac1_emac_local_IRQHandler
                0x000000000a003700        0x2 ./src/platform/mpfs_hal/common/mss_irq_handler_stubs.o
                0x000000000a003700                U54_4_mac1_emac_local_IRQHandler
 .text.U54_4_mac1_queue3_local_IRQHandler
                0x000000000a003702        0x2 ./src/platform/mpfs_hal/common/mss_irq_handler_stubs.o
                0x000000000a003702                U54_4_mac1_queue3_local_IRQHandler
 .text.U54_4_mac1_queue2_local_IRQHandler
                0x000000000a003704        0x2 ./src/platform/mpfs_hal/common/mss_irq_handler_stubs.o
                0x000000000a003704                U54_4_mac1_queue2_local_IRQHandler
 .text.U54_4_mac1_queue1_local_IRQHandler
                0x000000000a003706        0x2 ./src/platform/mpfs_hal/common/mss_irq_handler_stubs.o
                0x000000000a003706                U54_4_mac1_queue1_local_IRQHandler
 .text.U54_4_mac1_int_local_IRQHandler
                0x000000000a003708        0x2 ./src/platform/mpfs_hal/common/mss_irq_handler_stubs.o
                0x000000000a003708                U54_4_mac1_int_local_IRQHandler
 .text.U54_1_wdog_tout_local_IRQHandler
                0x000000000a00370a        0x2 ./src/platform/mpfs_hal/common/mss_irq_handler_stubs.o
                0x000000000a00370a                U54_1_wdog_tout_local_IRQHandler
 .text.U54_2_wdog_tout_local_IRQHandler
                0x000000000a00370c        0x2 ./src/platform/mpfs_hal/common/mss_irq_handler_stubs.o
                0x000000000a00370c                U54_2_wdog_tout_local_IRQHandler
 .text.U54_3_wdog_tout_local_IRQHandler
                0x000000000a00370e        0x2 ./src/platform/mpfs_hal/common/mss_irq_handler_stubs.o
                0x000000000a00370e                U54_3_wdog_tout_local_IRQHandler
 .text.U54_4_wdog_tout_local_IRQHandler
                0x000000000a003710        0x2 ./src/platform/mpfs_hal/common/mss_irq_handler_stubs.o
                0x000000000a003710                U54_4_wdog_tout_local_IRQHandler
 .text.mvrp_u54_local_IRQHandler_10
                0x000000000a003712        0x2 ./src/platform/mpfs_hal/common/mss_irq_handler_stubs.o
                0x000000000a003712                mvrp_u54_local_IRQHandler_10
 .text.U54_1_wdog_mvrp_local_IRQHandler
                0x000000000a003714        0x2 ./src/platform/mpfs_hal/common/mss_irq_handler_stubs.o
                0x000000000a003714                U54_1_wdog_mvrp_local_IRQHandler
 .text.U54_2_wdog_mvrp_local_IRQHandler
                0x000000000a003716        0x2 ./src/platform/mpfs_hal/common/mss_irq_handler_stubs.o
                0x000000000a003716                U54_2_wdog_mvrp_local_IRQHandler
 .text.U54_3_wdog_mvrp_local_IRQHandler
                0x000000000a003718        0x2 ./src/platform/mpfs_hal/common/mss_irq_handler_stubs.o
                0x000000000a003718                U54_3_wdog_mvrp_local_IRQHandler
 .text.U54_4_wdog_mvrp_local_IRQHandler
                0x000000000a00371a        0x2 ./src/platform/mpfs_hal/common/mss_irq_handler_stubs.o
                0x000000000a00371a                U54_4_wdog_mvrp_local_IRQHandler
 .text.U54_spare_3_local_IRQHandler
                0x000000000a00371c        0x2 ./src/platform/mpfs_hal/common/mss_irq_handler_stubs.o
                0x000000000a00371c                U54_spare_3_local_IRQHandler
 .text.U54_spare_4_local_IRQHandler
                0x000000000a00371e        0x2 ./src/platform/mpfs_hal/common/mss_irq_handler_stubs.o
                0x000000000a00371e                U54_spare_4_local_IRQHandler
 .text.U54_spare_5_local_IRQHandler
                0x000000000a003720        0x2 ./src/platform/mpfs_hal/common/mss_irq_handler_stubs.o
                0x000000000a003720                U54_spare_5_local_IRQHandler
 .text.U54_spare_6_local_IRQHandler
                0x000000000a003722        0x2 ./src/platform/mpfs_hal/common/mss_irq_handler_stubs.o
                0x000000000a003722                U54_spare_6_local_IRQHandler
 .text.U54_f2m_0_local_IRQHandler
                0x000000000a003724        0x2 ./src/platform/mpfs_hal/common/mss_irq_handler_stubs.o
                0x000000000a003724                U54_f2m_0_local_IRQHandler
 .text.U54_f2m_1_local_IRQHandler
                0x000000000a003726        0x2 ./src/platform/mpfs_hal/common/mss_irq_handler_stubs.o
                0x000000000a003726                U54_f2m_1_local_IRQHandler
 .text.U54_f2m_2_local_IRQHandler
                0x000000000a003728        0x2 ./src/platform/mpfs_hal/common/mss_irq_handler_stubs.o
                0x000000000a003728                U54_f2m_2_local_IRQHandler
 .text.U54_f2m_3_local_IRQHandler
                0x000000000a00372a        0x2 ./src/platform/mpfs_hal/common/mss_irq_handler_stubs.o
                0x000000000a00372a                U54_f2m_3_local_IRQHandler
 .text.U54_f2m_4_local_IRQHandler
                0x000000000a00372c        0x2 ./src/platform/mpfs_hal/common/mss_irq_handler_stubs.o
                0x000000000a00372c                U54_f2m_4_local_IRQHandler
 .text.U54_f2m_5_local_IRQHandler
                0x000000000a00372e        0x2 ./src/platform/mpfs_hal/common/mss_irq_handler_stubs.o
                0x000000000a00372e                U54_f2m_5_local_IRQHandler
 .text.U54_f2m_6_local_IRQHandler
                0x000000000a003730        0x2 ./src/platform/mpfs_hal/common/mss_irq_handler_stubs.o
                0x000000000a003730                U54_f2m_6_local_IRQHandler
 .text.U54_f2m_7_local_IRQHandler
                0x000000000a003732        0x2 ./src/platform/mpfs_hal/common/mss_irq_handler_stubs.o
                0x000000000a003732                U54_f2m_7_local_IRQHandler
 .text.U54_f2m_8_local_IRQHandler
                0x000000000a003734        0x2 ./src/platform/mpfs_hal/common/mss_irq_handler_stubs.o
                0x000000000a003734                U54_f2m_8_local_IRQHandler
 .text.U54_f2m_9_local_IRQHandler
                0x000000000a003736        0x2 ./src/platform/mpfs_hal/common/mss_irq_handler_stubs.o
                0x000000000a003736                U54_f2m_9_local_IRQHandler
 .text.U54_f2m_10_local_IRQHandler
                0x000000000a003738        0x2 ./src/platform/mpfs_hal/common/mss_irq_handler_stubs.o
                0x000000000a003738                U54_f2m_10_local_IRQHandler
 .text.U54_f2m_11_local_IRQHandler
                0x000000000a00373a        0x2 ./src/platform/mpfs_hal/common/mss_irq_handler_stubs.o
                0x000000000a00373a                U54_f2m_11_local_IRQHandler
 .text.U54_f2m_12_local_IRQHandler
                0x000000000a00373c        0x2 ./src/platform/mpfs_hal/common/mss_irq_handler_stubs.o
                0x000000000a00373c                U54_f2m_12_local_IRQHandler
 .text.U54_f2m_13_local_IRQHandler
                0x000000000a00373e        0x2 ./src/platform/mpfs_hal/common/mss_irq_handler_stubs.o
                0x000000000a00373e                U54_f2m_13_local_IRQHandler
 .text.U54_f2m_14_local_IRQHandler
                0x000000000a003740        0x2 ./src/platform/mpfs_hal/common/mss_irq_handler_stubs.o
                0x000000000a003740                U54_f2m_14_local_IRQHandler
 .text.U54_f2m_15_local_IRQHandler
                0x000000000a003742        0x2 ./src/platform/mpfs_hal/common/mss_irq_handler_stubs.o
                0x000000000a003742                U54_f2m_15_local_IRQHandler
 .text.U54_f2m_16_local_IRQHandler
                0x000000000a003744        0x2 ./src/platform/mpfs_hal/common/mss_irq_handler_stubs.o
                0x000000000a003744                U54_f2m_16_local_IRQHandler
 .text.U54_f2m_17_local_IRQHandler
                0x000000000a003746        0x2 ./src/platform/mpfs_hal/common/mss_irq_handler_stubs.o
                0x000000000a003746                U54_f2m_17_local_IRQHandler
 .text.U54_f2m_18_local_IRQHandler
                0x000000000a003748        0x2 ./src/platform/mpfs_hal/common/mss_irq_handler_stubs.o
                0x000000000a003748                U54_f2m_18_local_IRQHandler
 .text.U54_f2m_19_local_IRQHandler
                0x000000000a00374a        0x2 ./src/platform/mpfs_hal/common/mss_irq_handler_stubs.o
                0x000000000a00374a                U54_f2m_19_local_IRQHandler
 .text.U54_f2m_20_local_IRQHandler
                0x000000000a00374c        0x2 ./src/platform/mpfs_hal/common/mss_irq_handler_stubs.o
                0x000000000a00374c                U54_f2m_20_local_IRQHandler
 .text.U54_f2m_21_local_IRQHandler
                0x000000000a00374e        0x2 ./src/platform/mpfs_hal/common/mss_irq_handler_stubs.o
                0x000000000a00374e                U54_f2m_21_local_IRQHandler
 .text.U54_f2m_22_local_IRQHandler
                0x000000000a003750        0x2 ./src/platform/mpfs_hal/common/mss_irq_handler_stubs.o
                0x000000000a003750                U54_f2m_22_local_IRQHandler
 .text.U54_f2m_23_local_IRQHandler
                0x000000000a003752        0x2 ./src/platform/mpfs_hal/common/mss_irq_handler_stubs.o
                0x000000000a003752                U54_f2m_23_local_IRQHandler
 .text.U54_f2m_24_local_IRQHandler
                0x000000000a003754        0x2 ./src/platform/mpfs_hal/common/mss_irq_handler_stubs.o
                0x000000000a003754                U54_f2m_24_local_IRQHandler
 .text.U54_f2m_25_local_IRQHandler
                0x000000000a003756        0x2 ./src/platform/mpfs_hal/common/mss_irq_handler_stubs.o
                0x000000000a003756                U54_f2m_25_local_IRQHandler
 .text.U54_f2m_26_local_IRQHandler
                0x000000000a003758        0x2 ./src/platform/mpfs_hal/common/mss_irq_handler_stubs.o
                0x000000000a003758                U54_f2m_26_local_IRQHandler
 .text.U54_f2m_27_local_IRQHandler
                0x000000000a00375a        0x2 ./src/platform/mpfs_hal/common/mss_irq_handler_stubs.o
                0x000000000a00375a                U54_f2m_27_local_IRQHandler
 .text.U54_f2m_28_local_IRQHandler
                0x000000000a00375c        0x2 ./src/platform/mpfs_hal/common/mss_irq_handler_stubs.o
                0x000000000a00375c                U54_f2m_28_local_IRQHandler
 .text.U54_f2m_29_local_IRQHandler
                0x000000000a00375e        0x2 ./src/platform/mpfs_hal/common/mss_irq_handler_stubs.o
                0x000000000a00375e                U54_f2m_29_local_IRQHandler
 .text.U54_f2m_30_local_IRQHandler
                0x000000000a003760        0x2 ./src/platform/mpfs_hal/common/mss_irq_handler_stubs.o
                0x000000000a003760                U54_f2m_30_local_IRQHandler
 .text.U54_f2m_31_local_IRQHandler
                0x000000000a003762        0x2 ./src/platform/mpfs_hal/common/mss_irq_handler_stubs.o
                0x000000000a003762                U54_f2m_31_local_IRQHandler
 .text.mpu_configure
                0x000000000a003764      0x106 ./src/platform/mpfs_hal/common/mss_mpu.o
                0x000000000a003764                mpu_configure
 .text.mss_config_clk_rst
                0x000000000a00386a       0x62 ./src/platform/mpfs_hal/common/mss_peripherals.o
                0x000000000a00386a                mss_config_clk_rst
 .text.mss_enable_fabric
                0x000000000a0038cc       0x16 ./src/platform/mpfs_hal/common/mss_peripherals.o
                0x000000000a0038cc                mss_enable_fabric
 .text.mss_set_apb_bus_cr
                0x000000000a0038e2        0xa ./src/platform/mpfs_hal/common/mss_peripherals.o
                0x000000000a0038e2                mss_set_apb_bus_cr
 .text.pmp_configure
                0x000000000a0038ec       0x84 ./src/platform/mpfs_hal/common/mss_pmp.o
                0x000000000a0038ec                pmp_configure
 .text.__disable_irq
                0x000000000a003970        0xe ./src/platform/mpfs_hal/common/mss_util.o
                0x000000000a003970                __disable_irq
 .text.__disable_all_irqs
                0x000000000a00397e       0x16 ./src/platform/mpfs_hal/common/mss_util.o
                0x000000000a00397e                __disable_all_irqs
 .text.__enable_irq
                0x000000000a003994        0x6 ./src/platform/mpfs_hal/common/mss_util.o
                0x000000000a003994                __enable_irq
 .text.global_init
                0x000000000a00399a      0x2fa ./src/platform/drivers/mss/mss_mmuart/mss_uart.o
 .text.uart_isr
                0x000000000a003c94       0xea ./src/platform/drivers/mss/mss_mmuart/mss_uart.o
 .text.default_tx_handler
                0x000000000a003d7e       0x7a ./src/platform/drivers/mss/mss_mmuart/mss_uart.o
 .text.MSS_UART_init
                0x000000000a003df8       0x44 ./src/platform/drivers/mss/mss_mmuart/mss_uart.o
                0x000000000a003df8                MSS_UART_init
 .text.MSS_UART_polled_tx_string
                0x000000000a003e3c       0x58 ./src/platform/drivers/mss/mss_mmuart/mss_uart.o
                0x000000000a003e3c                MSS_UART_polled_tx_string
 .text.PLIC_mmuart0_IRQHandler
                0x000000000a003e94       0x2e ./src/platform/drivers/mss/mss_mmuart/mss_uart.o
                0x000000000a003e94                PLIC_mmuart0_IRQHandler
 .text.PLIC_mmuart1_IRQHandler
                0x000000000a003ec2       0x2e ./src/platform/drivers/mss/mss_mmuart/mss_uart.o
                0x000000000a003ec2                PLIC_mmuart1_IRQHandler
 .text.PLIC_mmuart2_IRQHandler
                0x000000000a003ef0       0x2e ./src/platform/drivers/mss/mss_mmuart/mss_uart.o
                0x000000000a003ef0                PLIC_mmuart2_IRQHandler
 .text.PLIC_mmuart3_IRQHandler
                0x000000000a003f1e       0x2e ./src/platform/drivers/mss/mss_mmuart/mss_uart.o
                0x000000000a003f1e                PLIC_mmuart3_IRQHandler
 .text.PLIC_mmuart4_IRQHandler
                0x000000000a003f4c       0x2e ./src/platform/drivers/mss/mss_mmuart/mss_uart.o
                0x000000000a003f4c                PLIC_mmuart4_IRQHandler
 .text.E51_mmuart0_local_IRQHandler
                0x000000000a003f7a       0x20 ./src/platform/drivers/mss/mss_mmuart/mss_uart.o
                0x000000000a003f7a                E51_mmuart0_local_IRQHandler
 .text.U54_1_mmuart1_local_IRQHandler
                0x000000000a003f9a       0x20 ./src/platform/drivers/mss/mss_mmuart/mss_uart.o
                0x000000000a003f9a                U54_1_mmuart1_local_IRQHandler
 .text.U54_2_mmuart2_local_IRQHandler
                0x000000000a003fba       0x20 ./src/platform/drivers/mss/mss_mmuart/mss_uart.o
                0x000000000a003fba                U54_2_mmuart2_local_IRQHandler
 .text.U54_3_mmuart3_local_IRQHandler
                0x000000000a003fda       0x20 ./src/platform/drivers/mss/mss_mmuart/mss_uart.o
                0x000000000a003fda                U54_3_mmuart3_local_IRQHandler
 .text.U54_4_mmuart4_local_IRQHandler
                0x000000000a003ffa       0x20 ./src/platform/drivers/mss/mss_mmuart/mss_uart.o
                0x000000000a003ffa                U54_4_mmuart4_local_IRQHandler
 .text.u54_4    0x000000000a00401a       0x68 ./src/application/hart4/u54_4.o
                0x000000000a00401a                u54_4
 .text.U54_4_software_IRQHandler
                0x000000000a004082       0x14 ./src/application/hart4/u54_4.o
                0x000000000a004082                U54_4_software_IRQHandler
 .text.u54_3    0x000000000a004096       0x68 ./src/application/hart3/u54_3.o
                0x000000000a004096                u54_3
 .text.U54_3_software_IRQHandler
                0x000000000a0040fe       0x14 ./src/application/hart3/u54_3.o
                0x000000000a0040fe                U54_3_software_IRQHandler
 .text.u54_2    0x000000000a004112       0x68 ./src/application/hart2/u54_2.o
                0x000000000a004112                u54_2
 .text.U54_2_software_IRQHandler
                0x000000000a00417a       0x14 ./src/application/hart2/u54_2.o
                0x000000000a00417a                U54_2_software_IRQHandler
 .text.print_data_128
                0x000000000a00418e       0xa0 ./src/application/hart1/u54_1.o
                0x000000000a00418e                print_data_128
 .text.print_data_132
                0x000000000a00422e       0xa8 ./src/application/hart1/u54_1.o
                0x000000000a00422e                print_data_132
 .text.print_data_3d
                0x000000000a0042d6       0xce ./src/application/hart1/u54_1.o
                0x000000000a0042d6                print_data_3d
 .text.output   0x000000000a0043a4       0xfe ./src/application/hart1/u54_1.o
                0x000000000a0043a4                output
 .text.dilation
                0x000000000a0044a2      0x1a0 ./src/application/hart1/u54_1.o
                0x000000000a0044a2                dilation
 .text.morphology
                0x000000000a004642      0x224 ./src/application/hart1/u54_1.o
                0x000000000a004642                morphology
 .text.padding  0x000000000a004866      0x1b0 ./src/application/hart1/u54_1.o
                0x000000000a004866                padding
 .text.u54_1    0x000000000a004a16      0x1dc ./src/application/hart1/u54_1.o
                0x000000000a004a16                u54_1
 .text.e51      0x000000000a004bf2       0x7a ./src/application/hart0/e51.o
                0x000000000a004bf2                e51
 .text.E51_software_IRQHandler
                0x000000000a004c6c       0x14 ./src/application/hart0/e51.o
                0x000000000a004c6c                E51_software_IRQHandler
 .text.memcmp   0x000000000a004c80       0x26 /home/vinay/Desktop/soft_console/SoftConsole-v2022.2-RISC-V-747/riscv-unknown-elf-gcc/bin/../lib/gcc/riscv64-unknown-elf/8.3.0/../../../../riscv64-unknown-elf/lib/libg_nano.a(lib_a-memcmp.o)
                0x000000000a004c80                memcmp
 .text          0x000000000a004ca6       0x16 /home/vinay/Desktop/soft_console/SoftConsole-v2022.2-RISC-V-747/riscv-unknown-elf-gcc/bin/../lib/gcc/riscv64-unknown-elf/8.3.0/../../../../riscv64-unknown-elf/lib/libg_nano.a(lib_a-memcpy-asm.o)
                0x000000000a004ca6                memcpy
 .text.rand     0x000000000a004cbc       0x5e /home/vinay/Desktop/soft_console/SoftConsole-v2022.2-RISC-V-747/riscv-unknown-elf-gcc/bin/../lib/gcc/riscv64-unknown-elf/8.3.0/../../../../riscv64-unknown-elf/lib/libg_nano.a(lib_a-rand.o)
                0x000000000a004cbc                rand
 .text.sprintf  0x000000000a004d1a       0x4a /home/vinay/Desktop/soft_console/SoftConsole-v2022.2-RISC-V-747/riscv-unknown-elf-gcc/bin/../lib/gcc/riscv64-unknown-elf/8.3.0/../../../../riscv64-unknown-elf/lib/libg_nano.a(lib_a-sprintf.o)
                0x000000000a004d1a                sprintf
                0x000000000a004d1a                siprintf
 .text.malloc   0x000000000a004d64        0xe /home/vinay/Desktop/soft_console/SoftConsole-v2022.2-RISC-V-747/riscv-unknown-elf-gcc/bin/../lib/gcc/riscv64-unknown-elf/8.3.0/../../../../riscv64-unknown-elf/lib/libg_nano.a(lib_a-malloc.o)
                0x000000000a004d64                malloc
 .text._free_r  0x000000000a004d72       0xb0 /home/vinay/Desktop/soft_console/SoftConsole-v2022.2-RISC-V-747/riscv-unknown-elf-gcc/bin/../lib/gcc/riscv64-unknown-elf/8.3.0/../../../../riscv64-unknown-elf/lib/libg_nano.a(lib_a-nano-freer.o)
                0x000000000a004d72                _free_r
 .text._malloc_r
                0x000000000a004e22       0xf8 /home/vinay/Desktop/soft_console/SoftConsole-v2022.2-RISC-V-747/riscv-unknown-elf-gcc/bin/../lib/gcc/riscv64-unknown-elf/8.3.0/../../../../riscv64-unknown-elf/lib/libg_nano.a(lib_a-nano-mallocr.o)
                0x000000000a004e22                _malloc_r
 .text.__ssputs_r
                0x000000000a004f1a       0xf8 /home/vinay/Desktop/soft_console/SoftConsole-v2022.2-RISC-V-747/riscv-unknown-elf-gcc/bin/../lib/gcc/riscv64-unknown-elf/8.3.0/../../../../riscv64-unknown-elf/lib/libg_nano.a(lib_a-nano-svfprintf.o)
                0x000000000a004f1a                __ssputs_r
 .text._svfprintf_r
                0x000000000a005012      0x292 /home/vinay/Desktop/soft_console/SoftConsole-v2022.2-RISC-V-747/riscv-unknown-elf-gcc/bin/../lib/gcc/riscv64-unknown-elf/8.3.0/../../../../riscv64-unknown-elf/lib/libg_nano.a(lib_a-nano-svfprintf.o)
                0x000000000a005012                _svfprintf_r
                0x000000000a005012                _svfiprintf_r
 .text._printf_common
                0x000000000a0052a4      0x124 /home/vinay/Desktop/soft_console/SoftConsole-v2022.2-RISC-V-747/riscv-unknown-elf-gcc/bin/../lib/gcc/riscv64-unknown-elf/8.3.0/../../../../riscv64-unknown-elf/lib/libg_nano.a(lib_a-nano-vfprintf_i.o)
                0x000000000a0052a4                _printf_common
 .text._printf_i
                0x000000000a0053c8      0x2c2 /home/vinay/Desktop/soft_console/SoftConsole-v2022.2-RISC-V-747/riscv-unknown-elf-gcc/bin/../lib/gcc/riscv64-unknown-elf/8.3.0/../../../../riscv64-unknown-elf/lib/libg_nano.a(lib_a-nano-vfprintf_i.o)
                0x000000000a0053c8                _printf_i
 .text._sbrk_r  0x000000000a00568a       0x32 /home/vinay/Desktop/soft_console/SoftConsole-v2022.2-RISC-V-747/riscv-unknown-elf-gcc/bin/../lib/gcc/riscv64-unknown-elf/8.3.0/../../../../riscv64-unknown-elf/lib/libg_nano.a(lib_a-sbrkr.o)
                0x000000000a00568a                _sbrk_r
 .text.memchr   0x000000000a0056bc       0x1a /home/vinay/Desktop/soft_console/SoftConsole-v2022.2-RISC-V-747/riscv-unknown-elf-gcc/bin/../lib/gcc/riscv64-unknown-elf/8.3.0/../../../../riscv64-unknown-elf/lib/libg_nano.a(lib_a-memchr.o)
                0x000000000a0056bc                memchr
 .text          0x000000000a0056d6       0x26 /home/vinay/Desktop/soft_console/SoftConsole-v2022.2-RISC-V-747/riscv-unknown-elf-gcc/bin/../lib/gcc/riscv64-unknown-elf/8.3.0/../../../../riscv64-unknown-elf/lib/libg_nano.a(lib_a-memmove.o)
                0x000000000a0056d6                memmove
 .text.__malloc_lock
                0x000000000a0056fc        0x2 /home/vinay/Desktop/soft_console/SoftConsole-v2022.2-RISC-V-747/riscv-unknown-elf-gcc/bin/../lib/gcc/riscv64-unknown-elf/8.3.0/../../../../riscv64-unknown-elf/lib/libg_nano.a(lib_a-mlock.o)
                0x000000000a0056fc                __malloc_lock
 .text.__malloc_unlock
                0x000000000a0056fe        0x2 /home/vinay/Desktop/soft_console/SoftConsole-v2022.2-RISC-V-747/riscv-unknown-elf-gcc/bin/../lib/gcc/riscv64-unknown-elf/8.3.0/../../../../riscv64-unknown-elf/lib/libg_nano.a(lib_a-mlock.o)
                0x000000000a0056fe                __malloc_unlock
 .text._realloc_r
                0x000000000a005700       0x5a /home/vinay/Desktop/soft_console/SoftConsole-v2022.2-RISC-V-747/riscv-unknown-elf-gcc/bin/../lib/gcc/riscv64-unknown-elf/8.3.0/../../../../riscv64-unknown-elf/lib/libg_nano.a(lib_a-nano-reallocr.o)
                0x000000000a005700                _realloc_r
 .text._malloc_usable_size_r
                0x000000000a00575a       0x18 /home/vinay/Desktop/soft_console/SoftConsole-v2022.2-RISC-V-747/riscv-unknown-elf-gcc/bin/../lib/gcc/riscv64-unknown-elf/8.3.0/../../../../riscv64-unknown-elf/lib/libg_nano.a(lib_a-nano-msizer.o)
                0x000000000a00575a                _malloc_usable_size_r
 *(.plt)
                0x000000000a005780                . = ALIGN (0x10)
 *fill*         0x000000000a005772        0xe 
 *crtbegin.o(.ctors)
 *(EXCLUDE_FILE(*crtend.o) .ctors)
 *(SORT_BY_NAME(.ctors.*))
 *crtend.o(.ctors)
 *crtbegin.o(.dtors)
 *(EXCLUDE_FILE(*crtend.o) .dtors)
 *(SORT_BY_NAME(.dtors.*))
 *crtend.o(.dtors)
 *(.rodata .rodata.* .gnu.linkonce.r.*)
 .rodata.ddr_state_machine
                0x000000000a005780       0xe8 ./src/platform/mpfs_hal/common/nwc/mss_ddr.o
 .rodata.REFCLK_OFFSETS
                0x000000000a005868       0x32 ./src/platform/mpfs_hal/common/nwc/mss_ddr.o
                0x000000000a005868                REFCLK_OFFSETS
 *fill*         0x000000000a00589a        0x6 
 .rodata.setup_ddr_segments.cst8
                0x000000000a0058a0       0x20 ./src/platform/mpfs_hal/common/nwc/mss_ddr.o
 .rodata.load_ddr_pattern
                0x000000000a0058c0       0x1c ./src/platform/mpfs_hal/common/nwc/mss_ddr_debug.o
 *fill*         0x000000000a0058dc        0x4 
 .rodata.ddr_write.cst8
                0x000000000a0058e0       0x10 ./src/platform/mpfs_hal/common/nwc/mss_ddr_debug.o
 .rodata.ddr_test_pattern
                0x000000000a0058f0      0xc00 ./src/platform/mpfs_hal/common/nwc/mss_ddr_test_pattern.o
                0x000000000a0058f0                ddr_test_pattern
 .rodata.sgmii_setup
                0x000000000a0064f0       0x3c ./src/platform/mpfs_hal/common/nwc/mss_sgmii.o
 .rodata.handle_m_timer_interrupt
                0x000000000a00652c       0x14 ./src/platform/mpfs_hal/common/mss_clint.o
 .rodata.handle_m_soft_interrupt
                0x000000000a006540       0x14 ./src/platform/mpfs_hal/common/mss_clint.o
 *fill*         0x000000000a006554        0x4 
 .rodata.mpu_crypto_values
                0x000000000a006558       0x20 ./src/platform/mpfs_hal/common/mss_mpu.o
                0x000000000a006558                mpu_crypto_values
 .rodata.mpu_fic0_values
                0x000000000a006578       0x80 ./src/platform/mpfs_hal/common/mss_mpu.o
                0x000000000a006578                mpu_fic0_values
 .rodata.mpu_fic1_values
                0x000000000a0065f8       0x80 ./src/platform/mpfs_hal/common/mss_mpu.o
                0x000000000a0065f8                mpu_fic1_values
 .rodata.mpu_fic2_values
                0x000000000a006678       0x40 ./src/platform/mpfs_hal/common/mss_mpu.o
                0x000000000a006678                mpu_fic2_values
 .rodata.mpu_gem0_values
                0x000000000a0066b8       0x40 ./src/platform/mpfs_hal/common/mss_mpu.o
                0x000000000a0066b8                mpu_gem0_values
 .rodata.mpu_gem1_values
                0x000000000a0066f8       0x40 ./src/platform/mpfs_hal/common/mss_mpu.o
                0x000000000a0066f8                mpu_gem1_values
 .rodata.mpu_mmc_values
                0x000000000a006738       0x20 ./src/platform/mpfs_hal/common/mss_mpu.o
                0x000000000a006738                mpu_mmc_values
 .rodata.mpu_scb_values
                0x000000000a006758       0x40 ./src/platform/mpfs_hal/common/mss_mpu.o
                0x000000000a006758                mpu_scb_values
 .rodata.mpu_trace_values
                0x000000000a006798       0x10 ./src/platform/mpfs_hal/common/mss_mpu.o
                0x000000000a006798                mpu_trace_values
 .rodata.mpu_usb_values
                0x000000000a0067a8       0x20 ./src/platform/mpfs_hal/common/mss_mpu.o
                0x000000000a0067a8                mpu_usb_values
 .rodata.PERIPHERAL_SETUP
                0x000000000a0067c8      0x240 ./src/platform/mpfs_hal/common/mss_peripherals.o
                0x000000000a0067c8                PERIPHERAL_SETUP
 .rodata.plic_hart_lookup
                0x000000000a006a08       0x28 ./src/platform/mpfs_hal/common/mss_plic.o
                0x000000000a006a08                plic_hart_lookup
 .rodata.pmp_values
                0x000000000a006a30      0x2d0 ./src/platform/mpfs_hal/common/mss_pmp.o
                0x000000000a006a30                pmp_values
 .rodata.uart_isr
                0x000000000a006d00       0x34 ./src/platform/drivers/mss/mss_mmuart/mss_uart.o
 .rodata.u54_1  0x000000000a006d34       0x14 ./src/application/hart1/u54_1.o
 .rodata        0x000000000a006d48        0x9 ./src/application/hart1/u54_1.o
 *fill*         0x000000000a006d51        0x7 
 .rodata.dilation.str1.8
                0x000000000a006d58       0x59 ./src/application/hart1/u54_1.o
 *fill*         0x000000000a006db1        0x7 
 .rodata.morphology.str1.8
                0x000000000a006db8       0x65 ./src/application/hart1/u54_1.o
 *fill*         0x000000000a006e1d        0x3 
 .rodata.output.str1.8
                0x000000000a006e20       0x40 ./src/application/hart1/u54_1.o
 .rodata.padding.str1.8
                0x000000000a006e60      0x10a ./src/application/hart1/u54_1.o
 *fill*         0x000000000a006f6a        0x6 
 .rodata.print_data_128.str1.8
                0x000000000a006f70       0x2c ./src/application/hart1/u54_1.o
 *fill*         0x000000000a006f9c        0x4 
 .rodata.print_data_3d.str1.8
                0x000000000a006fa0       0x19 ./src/application/hart1/u54_1.o
 *fill*         0x000000000a006fb9        0x7 
 .rodata.u54_1.str1.8
                0x000000000a006fc0       0x2e ./src/application/hart1/u54_1.o
 *fill*         0x000000000a006fee        0x2 
 .rodata.g_info_string
                0x000000000a006ff0       0xe1 ./src/application/hart0/e51.o
                0x000000000a006ff0                g_info_string
 *fill*         0x000000000a0070d1        0x7 
 .rodata.rand.cst8
                0x000000000a0070d8        0x8 /home/vinay/Desktop/soft_console/SoftConsole-v2022.2-RISC-V-747/riscv-unknown-elf-gcc/bin/../lib/gcc/riscv64-unknown-elf/8.3.0/../../../../riscv64-unknown-elf/lib/libg_nano.a(lib_a-rand.o)
 .rodata.srand.cst8
                0x000000000a0070e0        0x8 /home/vinay/Desktop/soft_console/SoftConsole-v2022.2-RISC-V-747/riscv-unknown-elf-gcc/bin/../lib/gcc/riscv64-unknown-elf/8.3.0/../../../../riscv64-unknown-elf/lib/libg_nano.a(lib_a-rand.o)
 .rodata._svfprintf_r.str1.8
                0x000000000a0070e8       0x17 /home/vinay/Desktop/soft_console/SoftConsole-v2022.2-RISC-V-747/riscv-unknown-elf-gcc/bin/../lib/gcc/riscv64-unknown-elf/8.3.0/../../../../riscv64-unknown-elf/lib/libg_nano.a(lib_a-nano-svfprintf.o)
 *fill*         0x000000000a0070ff        0x1 
 .rodata._printf_i.str1.8
                0x000000000a007100       0x30 /home/vinay/Desktop/soft_console/SoftConsole-v2022.2-RISC-V-747/riscv-unknown-elf-gcc/bin/../lib/gcc/riscv64-unknown-elf/8.3.0/../../../../riscv64-unknown-elf/lib/libg_nano.a(lib_a-nano-vfprintf_i.o)
                                         0x29 (size before relaxing)
 *(.sdata2 .sdata2.* .gnu.linkonce.s2.*)
 .sdata2.CFG_DDR_SGMII_PHY
                0x000000000a007130        0x8 ./src/platform/mpfs_hal/common/nwc/mss_nwc_init.o
                0x000000000a007130                CFG_DDR_SGMII_PHY
 .sdata2.DDRCFG
                0x000000000a007138        0x8 ./src/platform/mpfs_hal/common/nwc/mss_nwc_init.o
                0x000000000a007138                DDRCFG
 .sdata2.SCB_REGS
                0x000000000a007140        0x8 ./src/platform/mpfs_hal/common/nwc/mss_nwc_init.o
                0x000000000a007140                SCB_REGS
 .sdata2.IOSCB_IO_CALIB_DDR
                0x000000000a007148        0x8 ./src/platform/mpfs_hal/common/nwc/mss_pll.o
                0x000000000a007148                IOSCB_IO_CALIB_DDR
 .sdata2.IOSCB_IO_CALIB_SGMII
                0x000000000a007150        0x8 ./src/platform/mpfs_hal/common/nwc/mss_pll.o
                0x000000000a007150                IOSCB_IO_CALIB_SGMII
 .sdata2.MSS_SCB_DDR_PLL
                0x000000000a007158        0x8 ./src/platform/mpfs_hal/common/nwc/mss_pll.o
                0x000000000a007158                MSS_SCB_DDR_PLL
 *(.gcc_except_table)
 *(.eh_frame_hdr)
 *(.eh_frame)
 *(.init)
 *(.fini)
                [!provide]                        PROVIDE (__preinit_array_start = .)
 *(.preinit_array)
                [!provide]                        PROVIDE (__preinit_array_end = .)
                [!provide]                        PROVIDE (__init_array_start = .)
 *(SORT_BY_NAME(.init_array.*))
 *(.init_array)
                [!provide]                        PROVIDE (__init_array_end = .)
                [!provide]                        PROVIDE (__fini_array_start = .)
 *(.fini_array)
 *(SORT_BY_NAME(.fini_array.*))
                [!provide]                        PROVIDE (__fini_array_end = .)
 *(.srodata.cst16)
 *(.srodata.cst8)
 *(.srodata.cst4)
 *(.srodata.cst2)
 *(.srodata*)
                0x000000000a007160                . = ALIGN (0x10)
                0x000000000a007160                __text_end = .

.rela.dyn       0x000000000a007160        0x0 load address 0x0000000008007eb0
 .rela.text.init
                0x000000000a007160        0x0 ./src/platform/mpfs_hal/startup_gcc/mss_entry.o
 .rela.text._sbrk
                0x000000000a007160        0x0 ./src/platform/mpfs_hal/startup_gcc/mss_entry.o
 .rela.text.init_memory
                0x000000000a007160        0x0 ./src/platform/mpfs_hal/startup_gcc/mss_entry.o
 .rela.text.main_other_hart
                0x000000000a007160        0x0 ./src/platform/mpfs_hal/startup_gcc/mss_entry.o
 .rela.text.main_first_hart
                0x000000000a007160        0x0 ./src/platform/mpfs_hal/startup_gcc/mss_entry.o
 .rela.text.ddr_state_machine
                0x000000000a007160        0x0 ./src/platform/mpfs_hal/startup_gcc/mss_entry.o
 .rela.text.test_ddr
                0x000000000a007160        0x0 ./src/platform/mpfs_hal/startup_gcc/mss_entry.o
 .rela.text.mss_nwc_init_ddr
                0x000000000a007160        0x0 ./src/platform/mpfs_hal/startup_gcc/mss_entry.o
 .rela.text.mss_pll_config
                0x000000000a007160        0x0 ./src/platform/mpfs_hal/startup_gcc/mss_entry.o
 .rela.text.sgmii_setup
                0x000000000a007160        0x0 ./src/platform/mpfs_hal/startup_gcc/mss_entry.o
 .rela.text.handle_m_timer_interrupt
                0x000000000a007160        0x0 ./src/platform/mpfs_hal/startup_gcc/mss_entry.o
 .rela.text.handle_m_soft_interrupt
                0x000000000a007160        0x0 ./src/platform/mpfs_hal/startup_gcc/mss_entry.o
 .rela.text.U54_1_wdog_mvrp_local_IRQHandler
                0x000000000a007160        0x0 ./src/platform/mpfs_hal/startup_gcc/mss_entry.o
 .rela.text.U54_2_wdog_mvrp_local_IRQHandler
                0x000000000a007160        0x0 ./src/platform/mpfs_hal/startup_gcc/mss_entry.o
 .rela.text.U54_3_wdog_mvrp_local_IRQHandler
                0x000000000a007160        0x0 ./src/platform/mpfs_hal/startup_gcc/mss_entry.o
 .rela.text.U54_4_wdog_mvrp_local_IRQHandler
                0x000000000a007160        0x0 ./src/platform/mpfs_hal/startup_gcc/mss_entry.o
 .rela.text.config_l2_cache
                0x000000000a007160        0x0 ./src/platform/mpfs_hal/startup_gcc/mss_entry.o
 .rela.data.E51_local_irq_handler_table
                0x000000000a007160        0x0 ./src/platform/mpfs_hal/startup_gcc/mss_entry.o
 .rela.data.ext_irq_handler_table
                0x000000000a007160        0x0 ./src/platform/mpfs_hal/startup_gcc/mss_entry.o
 .rela.data.local_irq_handler_1_table
                0x000000000a007160        0x0 ./src/platform/mpfs_hal/startup_gcc/mss_entry.o
 .rela.data.local_irq_handler_2_table
                0x000000000a007160        0x0 ./src/platform/mpfs_hal/startup_gcc/mss_entry.o
 .rela.data.local_irq_handler_3_table
                0x000000000a007160        0x0 ./src/platform/mpfs_hal/startup_gcc/mss_entry.o
 .rela.data.local_irq_handler_4_table
                0x000000000a007160        0x0 ./src/platform/mpfs_hal/startup_gcc/mss_entry.o
 .rela.text.global_init
                0x000000000a007160        0x0 ./src/platform/mpfs_hal/startup_gcc/mss_entry.o
 .rela.text.PLIC_mmuart0_IRQHandler
                0x000000000a007160        0x0 ./src/platform/mpfs_hal/startup_gcc/mss_entry.o
 .rela.text.PLIC_mmuart1_IRQHandler
                0x000000000a007160        0x0 ./src/platform/mpfs_hal/startup_gcc/mss_entry.o
 .rela.text.PLIC_mmuart2_IRQHandler
                0x000000000a007160        0x0 ./src/platform/mpfs_hal/startup_gcc/mss_entry.o
 .rela.text.PLIC_mmuart3_IRQHandler
                0x000000000a007160        0x0 ./src/platform/mpfs_hal/startup_gcc/mss_entry.o
 .rela.text.PLIC_mmuart4_IRQHandler
                0x000000000a007160        0x0 ./src/platform/mpfs_hal/startup_gcc/mss_entry.o
 .rela.text.E51_mmuart0_local_IRQHandler
                0x000000000a007160        0x0 ./src/platform/mpfs_hal/startup_gcc/mss_entry.o
 .rela.text.U54_1_mmuart1_local_IRQHandler
                0x000000000a007160        0x0 ./src/platform/mpfs_hal/startup_gcc/mss_entry.o
 .rela.text.U54_2_mmuart2_local_IRQHandler
                0x000000000a007160        0x0 ./src/platform/mpfs_hal/startup_gcc/mss_entry.o
 .rela.text.U54_3_mmuart3_local_IRQHandler
                0x000000000a007160        0x0 ./src/platform/mpfs_hal/startup_gcc/mss_entry.o
 .rela.text.U54_4_mmuart4_local_IRQHandler
                0x000000000a007160        0x0 ./src/platform/mpfs_hal/startup_gcc/mss_entry.o
 .rela.text.print_data_128
                0x000000000a007160        0x0 ./src/platform/mpfs_hal/startup_gcc/mss_entry.o
 .rela.text.print_data_132
                0x000000000a007160        0x0 ./src/platform/mpfs_hal/startup_gcc/mss_entry.o
 .rela.text.print_data_3d
                0x000000000a007160        0x0 ./src/platform/mpfs_hal/startup_gcc/mss_entry.o
 .rela.text.output
                0x000000000a007160        0x0 ./src/platform/mpfs_hal/startup_gcc/mss_entry.o
 .rela.text.dilation
                0x000000000a007160        0x0 ./src/platform/mpfs_hal/startup_gcc/mss_entry.o
 .rela.text.morphology
                0x000000000a007160        0x0 ./src/platform/mpfs_hal/startup_gcc/mss_entry.o
 .rela.text.padding
                0x000000000a007160        0x0 ./src/platform/mpfs_hal/startup_gcc/mss_entry.o
 .rela.text.u54_1
                0x000000000a007160        0x0 ./src/platform/mpfs_hal/startup_gcc/mss_entry.o
 .rela.text.e51
                0x000000000a007160        0x0 ./src/platform/mpfs_hal/startup_gcc/mss_entry.o
 .rela.data.impure_data
                0x000000000a007160        0x0 ./src/platform/mpfs_hal/startup_gcc/mss_entry.o
 .rela.text._svfprintf_r
                0x000000000a007160        0x0 ./src/platform/mpfs_hal/startup_gcc/mss_entry.o
 .rela.text._sbrk_r
                0x000000000a007160        0x0 ./src/platform/mpfs_hal/startup_gcc/mss_entry.o

.sdata          0x000000000a007160       0x20 load address 0x0000000008007eb0
                0x0000000008007eb0                __sdata_load = LOADADDR (.sdata)
                0x000000000a007160                __sdata_start = .
                0x000000000a007960                __global_pointer$ = (. + 0x800)
 *(.sdata .sdata.* .gnu.linkonce.s.*)
 .sdata.refclk_sweep_index.14240
                0x000000000a007160        0x1 ./src/platform/mpfs_hal/common/nwc/mss_ddr.o
 *fill*         0x000000000a007161        0x3 
 .sdata.status.14157
                0x000000000a007164        0x4 ./src/platform/mpfs_hal/common/nwc/mss_sgmii.o
 .sdata.h       0x000000000a007168        0x1 ./src/application/hart1/u54_1.o
                0x000000000a007168                h
 *fill*         0x000000000a007169        0x7 
 .sdata._impure_ptr
                0x000000000a007170        0x8 /home/vinay/Desktop/soft_console/SoftConsole-v2022.2-RISC-V-747/riscv-unknown-elf-gcc/bin/../lib/gcc/riscv64-unknown-elf/8.3.0/../../../../riscv64-unknown-elf/lib/libg_nano.a(lib_a-impure.o)
                0x000000000a007170                _impure_ptr
                0x000000000a007180                . = ALIGN (0x10)
 *fill*         0x000000000a007178        0x8 
                0x000000000a007180                __sdata_end = .

.data           0x000000000a007180     0x4f10 load address 0x0000000008007ed0
                0x0000000008007ed0                __data_load = LOADADDR (.data)
                0x000000000a007180                __data_start = .
 *(.got.plt)
 *(.got)
 *(.shdata)
 *(.data .data.* .gnu.linkonce.d.*)
 .data.iomux_config_values
                0x000000000a007180       0x1c ./src/platform/mpfs_hal/common/nwc/mss_io.o
                0x000000000a007180                iomux_config_values
 *fill*         0x000000000a00719c        0x4 
 .data.mssio_bank2_io_config
                0x000000000a0071a0       0x30 ./src/platform/mpfs_hal/common/nwc/mss_io.o
                0x000000000a0071a0                mssio_bank2_io_config
 .data.mssio_bank4_io_config
                0x000000000a0071d0       0x1c ./src/platform/mpfs_hal/common/nwc/mss_io.o
                0x000000000a0071d0                mssio_bank4_io_config
 *fill*         0x000000000a0071ec        0x4 
 .data.E51_local_irq_handler_table
                0x000000000a0071f0      0x180 ./src/platform/mpfs_hal/common/mss_mtrap.o
                0x000000000a0071f0                E51_local_irq_handler_table
 .data.ext_irq_handler_table
                0x000000000a007370      0x5d8 ./src/platform/mpfs_hal/common/mss_mtrap.o
                0x000000000a007370                ext_irq_handler_table
 .data.local_int_mux
                0x000000000a007948       0x28 ./src/platform/mpfs_hal/common/mss_mtrap.o
                0x000000000a007948                local_int_mux
 .data.local_irq_handler_1_table
                0x000000000a007970      0x180 ./src/platform/mpfs_hal/common/mss_mtrap.o
                0x000000000a007970                local_irq_handler_1_table
 .data.local_irq_handler_2_table
                0x000000000a007af0      0x180 ./src/platform/mpfs_hal/common/mss_mtrap.o
                0x000000000a007af0                local_irq_handler_2_table
 .data.local_irq_handler_3_table
                0x000000000a007c70      0x180 ./src/platform/mpfs_hal/common/mss_mtrap.o
                0x000000000a007c70                local_irq_handler_3_table
 .data.local_irq_handler_4_table
                0x000000000a007df0      0x180 ./src/platform/mpfs_hal/common/mss_mtrap.o
                0x000000000a007df0                local_irq_handler_4_table
 .data.data     0x000000000a007f70     0x4000 ./src/application/hart1/u54_1.o
                0x000000000a007f70                data
 .data.g_message2
                0x000000000a00bf70       0x62 ./src/application/hart1/u54_1.o
                0x000000000a00bf70                g_message2
 *fill*         0x000000000a00bfd2        0x6 
 .data.impure_data
                0x000000000a00bfd8       0xb0 /home/vinay/Desktop/soft_console/SoftConsole-v2022.2-RISC-V-747/riscv-unknown-elf-gcc/bin/../lib/gcc/riscv64-unknown-elf/8.3.0/../../../../riscv64-unknown-elf/lib/libg_nano.a(lib_a-impure.o)
                0x000000000a00c090                . = ALIGN (0x10)
 *fill*         0x000000000a00c088        0x8 
                0x000000000a00c090                __data_end = .

.sbss           0x000000000a00c090       0x80 load address 0x000000000800cde0
                0x000000000a00c090                __sbss_start = .
 *(.sbss .sbss.* .gnu.linkonce.sb.*)
 .sbss.heap_end.13780
                0x000000000a00c090        0x8 ./src/platform/mpfs_hal/startup_gcc/newlib_stubs.o
 .sbss.counter.12995
                0x000000000a00c098        0x8 ./src/platform/mpfs_hal/startup_gcc/system_startup.o
 .sbss.bclk_answer.14241
                0x000000000a00c0a0        0x4 ./src/platform/mpfs_hal/common/nwc/mss_ddr.o
 .sbss.ddr_error_count
                0x000000000a00c0a4        0x4 ./src/platform/mpfs_hal/common/nwc/mss_ddr.o
 .sbss.ddr_state.14220
                0x000000000a00c0a8        0x4 ./src/platform/mpfs_hal/common/nwc/mss_ddr.o
 .sbss.ddr_training_state.14230
                0x000000000a00c0ac        0x4 ./src/platform/mpfs_hal/common/nwc/mss_ddr.o
 .sbss.dpc_bits.14236
                0x000000000a00c0b0        0x4 ./src/platform/mpfs_hal/common/nwc/mss_ddr.o
 .sbss.error.14231
                0x000000000a00c0b4        0x4 ./src/platform/mpfs_hal/common/nwc/mss_ddr.o
 .sbss.num_rpc_166_retires.14238
                0x000000000a00c0b8        0x1 ./src/platform/mpfs_hal/common/nwc/mss_ddr.o
 .sbss.refclk_offset.14239
                0x000000000a00c0b9        0x1 ./src/platform/mpfs_hal/common/nwc/mss_ddr.o
 *fill*         0x000000000a00c0ba        0x2 
 .sbss.retry_count.14233
                0x000000000a00c0bc        0x4 ./src/platform/mpfs_hal/common/nwc/mss_ddr.o
 .sbss.return_status.14221
                0x000000000a00c0c0        0x4 ./src/platform/mpfs_hal/common/nwc/mss_ddr.o
 .sbss.rpc_166_fifo_offset
                0x000000000a00c0c4        0x4 ./src/platform/mpfs_hal/common/nwc/mss_ddr.o
 .sbss.timeout.14232
                0x000000000a00c0c8        0x4 ./src/platform/mpfs_hal/common/nwc/mss_ddr.o
 .sbss.tip_cfg_params.14235
                0x000000000a00c0cc        0x4 ./src/platform/mpfs_hal/common/nwc/mss_ddr.o
 .sbss.training_start_cycle.14237
                0x000000000a00c0d0        0x8 ./src/platform/mpfs_hal/common/nwc/mss_ddr.o
 .sbss.sgmii_training_state.14156
                0x000000000a00c0d8        0x4 ./src/platform/mpfs_hal/common/nwc/mss_sgmii.o
 .sbss.silicon_variant
                0x000000000a00c0dc        0x4 ./src/platform/mpfs_hal/common/nwc/mss_sgmii.o
 .sbss.timer_out.14158
                0x000000000a00c0e0        0x4 ./src/platform/mpfs_hal/common/nwc/mss_sgmii.o
 .sbss.g_uart_axi_pos
                0x000000000a00c0e4        0x4 ./src/platform/drivers/mss/mss_mmuart/mss_uart.o
 .sbss.count_sw_ints_h4
                0x000000000a00c0e8        0x4 ./src/application/hart4/u54_4.o
                0x000000000a00c0e8                count_sw_ints_h4
 .sbss.count_sw_ints_h3
                0x000000000a00c0ec        0x4 ./src/application/hart3/u54_3.o
                0x000000000a00c0ec                count_sw_ints_h3
 .sbss.count_sw_ints_h2
                0x000000000a00c0f0        0x4 ./src/application/hart2/u54_2.o
                0x000000000a00c0f0                count_sw_ints_h2
 .sbss.count_sw_ints_h0
                0x000000000a00c0f4        0x4 ./src/application/hart0/e51.o
                0x000000000a00c0f4                count_sw_ints_h0
 .sbss.__malloc_free_list
                0x000000000a00c0f8        0x8 /home/vinay/Desktop/soft_console/SoftConsole-v2022.2-RISC-V-747/riscv-unknown-elf-gcc/bin/../lib/gcc/riscv64-unknown-elf/8.3.0/../../../../riscv64-unknown-elf/lib/libg_nano.a(lib_a-nano-mallocr.o)
                0x000000000a00c0f8                __malloc_free_list
 .sbss.__malloc_sbrk_start
                0x000000000a00c100        0x8 /home/vinay/Desktop/soft_console/SoftConsole-v2022.2-RISC-V-747/riscv-unknown-elf-gcc/bin/../lib/gcc/riscv64-unknown-elf/8.3.0/../../../../riscv64-unknown-elf/lib/libg_nano.a(lib_a-nano-mallocr.o)
                0x000000000a00c100                __malloc_sbrk_start
 *(.scommon)
                0x000000000a00c110                . = ALIGN (0x10)
 *fill*         0x000000000a00c108        0x8 
                0x000000000a00c110                __sbss_end = .

.bss            0x000000000a00c110    0x1edb0 load address 0x000000000800cde0
                0x000000000a00c110                __bss_start = .
 *(.shbss)
 *(.bss .bss.* .gnu.linkonce.b.*)
 .bss.g_test_buffer_cached
                0x000000000a00c110      0xbf4 ./src/platform/mpfs_hal/common/nwc/mss_ddr_debug.o
 *fill*         0x000000000a00cd04        0x4 
 .bss.g_test_buffer_not_cached
                0x000000000a00cd08      0xbf4 ./src/platform/mpfs_hal/common/nwc/mss_ddr_debug.o
 *fill*         0x000000000a00d8fc        0x4 
 .bss.g_systick_increment
                0x000000000a00d900       0x28 ./src/platform/mpfs_hal/common/mss_clint.o
 .bss.boundary.14887
                0x000000000a00d928     0x4410 ./src/application/hart1/u54_1.o
 .bss.dilation.14886
                0x000000000a011d38     0x4410 ./src/application/hart1/u54_1.o
 .bss.morphFramedAry.14831
                0x000000000a016148     0x4410 ./src/application/hart1/u54_1.o
 .bss.rgb.14926
                0x000000000a01a558     0xc000 ./src/application/hart1/u54_1.o
 .bss.tempFramedAry.14830
                0x000000000a026558     0x4410 ./src/application/hart1/u54_1.o
 *(COMMON)
 COMMON         0x000000000a02a968       0x90 ./src/platform/mpfs_hal/common/nwc/mss_ddr.o
                0x000000000a02a968                ddr_diag
                0x000000000a02a978                calib_data
 COMMON         0x000000000a02a9f8        0x8 ./src/platform/mpfs_hal/common/nwc/mss_ddr_debug.o
                0x000000000a02a9f8                ddr_test
 COMMON         0x000000000a02aa00      0x4b0 ./src/platform/drivers/mss/mss_mmuart/mss_uart.o
                0x000000000a02aa00                g_mss_uart4_hi
                0x000000000a02aa78                g_mss_uart2_lo
                0x000000000a02aaf0                g_mss_uart1_hi
                0x000000000a02ab68                g_mss_uart2_hi
                0x000000000a02abe0                g_mss_uart0_lo
                0x000000000a02ac58                g_mss_uart4_lo
                0x000000000a02acd0                g_mss_uart3_lo
                0x000000000a02ad48                g_mss_uart0_hi
                0x000000000a02adc0                g_mss_uart1_lo
                0x000000000a02ae38                g_mss_uart3_hi
 COMMON         0x000000000a02aeb0        0x4 /home/vinay/Desktop/soft_console/SoftConsole-v2022.2-RISC-V-747/riscv-unknown-elf-gcc/bin/../lib/gcc/riscv64-unknown-elf/8.3.0/../../../../riscv64-unknown-elf/lib/libg_nano.a(lib_a-reent.o)
                0x000000000a02aeb0                errno
                0x000000000a02aec0                . = ALIGN (0x10)
 *fill*         0x000000000a02aeb4        0xc 
                0x000000000a02aec0                __bss_end = .
                0x000000000a02aec0                _end = .

.heap           0x000000000a02aec0     0x2000 load address 0x000000000800cde0
                0x000000000a02aec0                __heap_start = .
                0x000000000a02cec0                . = (. + HEAP_SIZE)
 *fill*         0x000000000a02aec0     0x2000 
                0x000000000a02cec0                __heap_end = .
                0x000000000a02cec0                . = ALIGN (0x10)
                0x000000000a02cec0                _heap_end = __heap_end

.stack_e51      0x000000000800cde0     0x1000
                0x000000000800cde0                PROVIDE (__stack_bottom_h0$ = .)
                0x000000000800dde0                . = (. + STACK_SIZE_E51_STARTUP)
 *fill*         0x000000000800cde0     0x1000 
                0x000000000800dde0                PROVIDE (__stack_top_h0$ = .)

.stack_u54_1    0x000000000800dde0     0x1000
                0x000000000800dde0                PROVIDE (__stack_bottom_h1$ = .)
                0x000000000800ede0                . = (. + STACK_SIZE_U54_1_STARTUP)
 *fill*         0x000000000800dde0     0x1000 
                0x000000000800ede0                PROVIDE (__stack_top_h1$ = .)

.stack_u54_2    0x000000000800ede0     0x1000
                0x000000000800ede0                PROVIDE (__stack_bottom_h2$ = .)
                0x000000000800fde0                . = (. + STACK_SIZE_U54_2_STARTUP)
 *fill*         0x000000000800ede0     0x1000 
                0x000000000800fde0                PROVIDE (__stack_top_h2$ = .)

.stack_u54_3    0x000000000800fde0     0x1000
                0x000000000800fde0                PROVIDE (__stack_bottom_h3$ = .)
                0x0000000008010de0                . = (. + STACK_SIZE_U54_3_STARTUP)
 *fill*         0x000000000800fde0     0x1000 
                0x0000000008010de0                PROVIDE (__stack_top_h3$ = .)

.stack_u54_4    0x0000000008010de0     0x1000
                0x0000000008010de0                PROVIDE (__stack_bottom_h4$ = .)
                0x0000000008011de0                . = (. + STACK_SIZE_U54_4_STARTUP)
 *fill*         0x0000000008010de0     0x1000 
                0x0000000008011de0                PROVIDE (__stack_top_h4$ = .)

.app_stack_e51  0x000000000a02cec0     0x2000
                [!provide]                        PROVIDE (__app_stack_bottom_h0 = .)
                0x000000000a02eec0                . = (. + STACK_SIZE_E51_APPLICATION)
 *fill*         0x000000000a02cec0     0x2000 
                0x000000000a02eec0                PROVIDE (__app_stack_top_h0 = .)

.app_stack_u54_1
                0x000000000a02eec0     0x2000
                [!provide]                        PROVIDE (__app_stack_bottom_h1$ = .)
                0x000000000a030ec0                . = (. + STACK_SIZE_U54_1_APPLICATION)
 *fill*         0x000000000a02eec0     0x2000 
                0x000000000a030ec0                PROVIDE (__app_stack_top_h1 = .)

.app_stack_u54_2
                0x000000000a030ec0     0x2000
                [!provide]                        PROVIDE (__app_stack_bottom_h2 = .)
                0x000000000a032ec0                . = (. + STACK_SIZE_U54_2_APPLICATION)
 *fill*         0x000000000a030ec0     0x2000 
                0x000000000a032ec0                PROVIDE (__app_stack_top_h2 = .)

.app_stack_u54_3
                0x000000000a032ec0     0x2000
                [!provide]                        PROVIDE (__app_stack_bottom_h3 = .)
                0x000000000a034ec0                . = (. + STACK_SIZE_U54_3_APPLICATION)
 *fill*         0x000000000a032ec0     0x2000 
                0x000000000a034ec0                PROVIDE (__app_stack_top_h3 = .)

.app_stack_u54_4
                0x000000000a034ec0     0x2000
                [!provide]                        PROVIDE (__app_stack_bottom_h4 = .)
                0x000000000a036ec0                . = (. + STACK_SIZE_U54_4_APPLICATION)
 *fill*         0x000000000a034ec0     0x2000 
                0x000000000a036ec0                PROVIDE (__app_stack_top_h4 = .)

.app_hart_common
                0x000000000a036ec0     0x1000
                [!provide]                        PROVIDE (__app_hart_common_start = .)
                0x000000000a037ec0                . = (. + SIZE_OF_COMMON_HART_MEM)
 *fill*         0x000000000a036ec0     0x1000 
                [!provide]                        PROVIDE (__app_hart_common_end = .)
                0x000000000a037ec0                __l2_scratchpad_vma_end = .

.ram_code       0x0000000001001c00        0x0 load address 0x0000000008011de0
                0x0000000001001c00                . = ALIGN (0x4)
                0x0000000008011de0                __sc_load = LOADADDR (.ram_code)
                0x0000000001001c00                __sc_start = .
 *(.ram_codetext)
 *(.ram_codetext*)
 *(.ram_coderodata)
 *(.ram_coderodata*)
                0x0000000001001c00                . = ALIGN (0x4)
                0x0000000001001c00                __sc_end = .
                [!provide]                        PROVIDE (__start_of_free_lim$ = .)
OUTPUT(Water-shed.elf elf64-littleriscv)

.riscv.attributes
                0x0000000000000000       0x35
 .riscv.attributes
                0x0000000000000000       0x33 ./src/platform/mpfs_hal/startup_gcc/mss_entry.o
 .riscv.attributes
                0x0000000000000033       0x33 ./src/platform/mpfs_hal/startup_gcc/mss_utils.o
 .riscv.attributes
                0x0000000000000066       0x35 ./src/platform/mpfs_hal/startup_gcc/newlib_stubs.o
 .riscv.attributes
                0x000000000000009b       0x35 ./src/platform/mpfs_hal/startup_gcc/system_startup.o
 .riscv.attributes
                0x00000000000000d0       0x35 ./src/platform/mpfs_hal/common/nwc/mss_ddr.o
 .riscv.attributes
                0x0000000000000105       0x35 ./src/platform/mpfs_hal/common/nwc/mss_ddr_debug.o
 .riscv.attributes
                0x000000000000013a       0x35 ./src/platform/mpfs_hal/common/nwc/mss_ddr_test_pattern.o
 .riscv.attributes
                0x000000000000016f       0x35 ./src/platform/mpfs_hal/common/nwc/mss_io.o
 .riscv.attributes
                0x00000000000001a4       0x35 ./src/platform/mpfs_hal/common/nwc/mss_nwc_init.o
 .riscv.attributes
                0x00000000000001d9       0x35 ./src/platform/mpfs_hal/common/nwc/mss_pll.o
 .riscv.attributes
                0x000000000000020e       0x35 ./src/platform/mpfs_hal/common/nwc/mss_sgmii.o
 .riscv.attributes
                0x0000000000000243       0x35 ./src/platform/mpfs_hal/common/mss_clint.o
 .riscv.attributes
                0x0000000000000278       0x35 ./src/platform/mpfs_hal/common/mss_irq_handler_stubs.o
 .riscv.attributes
                0x00000000000002ad       0x35 ./src/platform/mpfs_hal/common/mss_l2_cache.o
 .riscv.attributes
                0x00000000000002e2       0x35 ./src/platform/mpfs_hal/common/mss_mpu.o
 .riscv.attributes
                0x0000000000000317       0x35 ./src/platform/mpfs_hal/common/mss_mtrap.o
 .riscv.attributes
                0x000000000000034c       0x35 ./src/platform/mpfs_hal/common/mss_peripherals.o
 .riscv.attributes
                0x0000000000000381       0x35 ./src/platform/mpfs_hal/common/mss_plic.o
 .riscv.attributes
                0x00000000000003b6       0x35 ./src/platform/mpfs_hal/common/mss_pmp.o
 .riscv.attributes
                0x00000000000003eb       0x35 ./src/platform/mpfs_hal/common/mss_util.o
 .riscv.attributes
                0x0000000000000420       0x35 ./src/platform/drivers/mss/mss_mmuart/mss_uart.o
 .riscv.attributes
                0x0000000000000455       0x35 ./src/application/hart4/u54_4.o
 .riscv.attributes
                0x000000000000048a       0x35 ./src/application/hart3/u54_3.o
 .riscv.attributes
                0x00000000000004bf       0x35 ./src/application/hart2/u54_2.o
 .riscv.attributes
                0x00000000000004f4       0x35 ./src/application/hart1/u54_1.o
 .riscv.attributes
                0x0000000000000529       0x35 ./src/application/hart0/e51.o
 .riscv.attributes
                0x000000000000055e       0x35 /home/vinay/Desktop/soft_console/SoftConsole-v2022.2-RISC-V-747/riscv-unknown-elf-gcc/bin/../lib/gcc/riscv64-unknown-elf/8.3.0/../../../../riscv64-unknown-elf/lib/libg_nano.a(lib_a-impure.o)
 .riscv.attributes
                0x0000000000000593       0x35 /home/vinay/Desktop/soft_console/SoftConsole-v2022.2-RISC-V-747/riscv-unknown-elf-gcc/bin/../lib/gcc/riscv64-unknown-elf/8.3.0/../../../../riscv64-unknown-elf/lib/libg_nano.a(lib_a-memcmp.o)
 .riscv.attributes
                0x00000000000005c8       0x33 /home/vinay/Desktop/soft_console/SoftConsole-v2022.2-RISC-V-747/riscv-unknown-elf-gcc/bin/../lib/gcc/riscv64-unknown-elf/8.3.0/../../../../riscv64-unknown-elf/lib/libg_nano.a(lib_a-memcpy-asm.o)
 .riscv.attributes
                0x00000000000005fb       0x35 /home/vinay/Desktop/soft_console/SoftConsole-v2022.2-RISC-V-747/riscv-unknown-elf-gcc/bin/../lib/gcc/riscv64-unknown-elf/8.3.0/../../../../riscv64-unknown-elf/lib/libg_nano.a(lib_a-rand.o)
 .riscv.attributes
                0x0000000000000630       0x35 /home/vinay/Desktop/soft_console/SoftConsole-v2022.2-RISC-V-747/riscv-unknown-elf-gcc/bin/../lib/gcc/riscv64-unknown-elf/8.3.0/../../../../riscv64-unknown-elf/lib/libg_nano.a(lib_a-sprintf.o)
 .riscv.attributes
                0x0000000000000665       0x35 /home/vinay/Desktop/soft_console/SoftConsole-v2022.2-RISC-V-747/riscv-unknown-elf-gcc/bin/../lib/gcc/riscv64-unknown-elf/8.3.0/../../../../riscv64-unknown-elf/lib/libg_nano.a(lib_a-malloc.o)
 .riscv.attributes
                0x000000000000069a       0x35 /home/vinay/Desktop/soft_console/SoftConsole-v2022.2-RISC-V-747/riscv-unknown-elf-gcc/bin/../lib/gcc/riscv64-unknown-elf/8.3.0/../../../../riscv64-unknown-elf/lib/libg_nano.a(lib_a-nano-freer.o)
 .riscv.attributes
                0x00000000000006cf       0x35 /home/vinay/Desktop/soft_console/SoftConsole-v2022.2-RISC-V-747/riscv-unknown-elf-gcc/bin/../lib/gcc/riscv64-unknown-elf/8.3.0/../../../../riscv64-unknown-elf/lib/libg_nano.a(lib_a-nano-mallocr.o)
 .riscv.attributes
                0x0000000000000704       0x35 /home/vinay/Desktop/soft_console/SoftConsole-v2022.2-RISC-V-747/riscv-unknown-elf-gcc/bin/../lib/gcc/riscv64-unknown-elf/8.3.0/../../../../riscv64-unknown-elf/lib/libg_nano.a(lib_a-nano-svfprintf.o)
 .riscv.attributes
                0x0000000000000739       0x35 /home/vinay/Desktop/soft_console/SoftConsole-v2022.2-RISC-V-747/riscv-unknown-elf-gcc/bin/../lib/gcc/riscv64-unknown-elf/8.3.0/../../../../riscv64-unknown-elf/lib/libg_nano.a(lib_a-nano-vfprintf_i.o)
 .riscv.attributes
                0x000000000000076e       0x35 /home/vinay/Desktop/soft_console/SoftConsole-v2022.2-RISC-V-747/riscv-unknown-elf-gcc/bin/../lib/gcc/riscv64-unknown-elf/8.3.0/../../../../riscv64-unknown-elf/lib/libg_nano.a(lib_a-sbrkr.o)
 .riscv.attributes
                0x00000000000007a3       0x35 /home/vinay/Desktop/soft_console/SoftConsole-v2022.2-RISC-V-747/riscv-unknown-elf-gcc/bin/../lib/gcc/riscv64-unknown-elf/8.3.0/../../../../riscv64-unknown-elf/lib/libg_nano.a(lib_a-memchr.o)
 .riscv.attributes
                0x00000000000007d8       0x33 /home/vinay/Desktop/soft_console/SoftConsole-v2022.2-RISC-V-747/riscv-unknown-elf-gcc/bin/../lib/gcc/riscv64-unknown-elf/8.3.0/../../../../riscv64-unknown-elf/lib/libg_nano.a(lib_a-memmove.o)
 .riscv.attributes
                0x000000000000080b       0x35 /home/vinay/Desktop/soft_console/SoftConsole-v2022.2-RISC-V-747/riscv-unknown-elf-gcc/bin/../lib/gcc/riscv64-unknown-elf/8.3.0/../../../../riscv64-unknown-elf/lib/libg_nano.a(lib_a-mlock.o)
 .riscv.attributes
                0x0000000000000840       0x35 /home/vinay/Desktop/soft_console/SoftConsole-v2022.2-RISC-V-747/riscv-unknown-elf-gcc/bin/../lib/gcc/riscv64-unknown-elf/8.3.0/../../../../riscv64-unknown-elf/lib/libg_nano.a(lib_a-nano-reallocr.o)
 .riscv.attributes
                0x0000000000000875       0x35 /home/vinay/Desktop/soft_console/SoftConsole-v2022.2-RISC-V-747/riscv-unknown-elf-gcc/bin/../lib/gcc/riscv64-unknown-elf/8.3.0/../../../../riscv64-unknown-elf/lib/libg_nano.a(lib_a-reent.o)
 .riscv.attributes
                0x00000000000008aa       0x35 /home/vinay/Desktop/soft_console/SoftConsole-v2022.2-RISC-V-747/riscv-unknown-elf-gcc/bin/../lib/gcc/riscv64-unknown-elf/8.3.0/../../../../riscv64-unknown-elf/lib/libg_nano.a(lib_a-nano-msizer.o)

.comment        0x0000000000000000       0x51
 .comment       0x0000000000000000       0x51 ./src/platform/mpfs_hal/startup_gcc/newlib_stubs.o
                                         0x52 (size before relaxing)
 .comment       0x0000000000000051       0x52 ./src/platform/mpfs_hal/startup_gcc/system_startup.o
 .comment       0x0000000000000051       0x52 ./src/platform/mpfs_hal/common/nwc/mss_ddr.o
 .comment       0x0000000000000051       0x52 ./src/platform/mpfs_hal/common/nwc/mss_ddr_debug.o
 .comment       0x0000000000000051       0x52 ./src/platform/mpfs_hal/common/nwc/mss_ddr_test_pattern.o
 .comment       0x0000000000000051       0x52 ./src/platform/mpfs_hal/common/nwc/mss_io.o
 .comment       0x0000000000000051       0x52 ./src/platform/mpfs_hal/common/nwc/mss_nwc_init.o
 .comment       0x0000000000000051       0x52 ./src/platform/mpfs_hal/common/nwc/mss_pll.o
 .comment       0x0000000000000051       0x52 ./src/platform/mpfs_hal/common/nwc/mss_sgmii.o
 .comment       0x0000000000000051       0x52 ./src/platform/mpfs_hal/common/mss_clint.o
 .comment       0x0000000000000051       0x52 ./src/platform/mpfs_hal/common/mss_irq_handler_stubs.o
 .comment       0x0000000000000051       0x52 ./src/platform/mpfs_hal/common/mss_l2_cache.o
 .comment       0x0000000000000051       0x52 ./src/platform/mpfs_hal/common/mss_mpu.o
 .comment       0x0000000000000051       0x52 ./src/platform/mpfs_hal/common/mss_mtrap.o
 .comment       0x0000000000000051       0x52 ./src/platform/mpfs_hal/common/mss_peripherals.o
 .comment       0x0000000000000051       0x52 ./src/platform/mpfs_hal/common/mss_plic.o
 .comment       0x0000000000000051       0x52 ./src/platform/mpfs_hal/common/mss_pmp.o
 .comment       0x0000000000000051       0x52 ./src/platform/mpfs_hal/common/mss_util.o
 .comment       0x0000000000000051       0x52 ./src/platform/drivers/mss/mss_mmuart/mss_uart.o
 .comment       0x0000000000000051       0x52 ./src/application/hart4/u54_4.o
 .comment       0x0000000000000051       0x52 ./src/application/hart3/u54_3.o
 .comment       0x0000000000000051       0x52 ./src/application/hart2/u54_2.o
 .comment       0x0000000000000051       0x52 ./src/application/hart1/u54_1.o
 .comment       0x0000000000000051       0x52 ./src/application/hart0/e51.o

.debug_line     0x0000000000000000    0x162ce
 .debug_line    0x0000000000000000      0x738 ./src/platform/mpfs_hal/startup_gcc/mss_entry.o
 .debug_line    0x0000000000000738      0x1f7 ./src/platform/mpfs_hal/startup_gcc/mss_utils.o
 .debug_line    0x000000000000092f      0x969 ./src/platform/mpfs_hal/startup_gcc/newlib_stubs.o
 .debug_line    0x0000000000001298      0xf14 ./src/platform/mpfs_hal/startup_gcc/system_startup.o
 .debug_line    0x00000000000021ac     0x6671 ./src/platform/mpfs_hal/common/nwc/mss_ddr.o
 .debug_line    0x000000000000881d     0x100d ./src/platform/mpfs_hal/common/nwc/mss_ddr_debug.o
 .debug_line    0x000000000000982a      0x16c ./src/platform/mpfs_hal/common/nwc/mss_ddr_test_pattern.o
 .debug_line    0x0000000000009996      0x7c7 ./src/platform/mpfs_hal/common/nwc/mss_io.o
 .debug_line    0x000000000000a15d      0x80d ./src/platform/mpfs_hal/common/nwc/mss_nwc_init.o
 .debug_line    0x000000000000a96a      0xc0f ./src/platform/mpfs_hal/common/nwc/mss_pll.o
 .debug_line    0x000000000000b579      0xf07 ./src/platform/mpfs_hal/common/nwc/mss_sgmii.o
 .debug_line    0x000000000000c480      0x760 ./src/platform/mpfs_hal/common/mss_clint.o
 .debug_line    0x000000000000cbe0      0x344 ./src/platform/mpfs_hal/common/mss_irq_handler_stubs.o
 .debug_line    0x000000000000cf24      0xa2d ./src/platform/mpfs_hal/common/mss_l2_cache.o
 .debug_line    0x000000000000d951      0x746 ./src/platform/mpfs_hal/common/mss_mpu.o
 .debug_line    0x000000000000e097      0x9ca ./src/platform/mpfs_hal/common/mss_mtrap.o
 .debug_line    0x000000000000ea61      0x5f7 ./src/platform/mpfs_hal/common/mss_peripherals.o
 .debug_line    0x000000000000f058      0x2d4 ./src/platform/mpfs_hal/common/mss_plic.o
 .debug_line    0x000000000000f32c      0x4c3 ./src/platform/mpfs_hal/common/mss_pmp.o
 .debug_line    0x000000000000f7ef      0x987 ./src/platform/mpfs_hal/common/mss_util.o
 .debug_line    0x0000000000010176     0x342c ./src/platform/drivers/mss/mss_mmuart/mss_uart.o
 .debug_line    0x00000000000135a2      0x617 ./src/application/hart4/u54_4.o
 .debug_line    0x0000000000013bb9      0x617 ./src/application/hart3/u54_3.o
 .debug_line    0x00000000000141d0      0x617 ./src/application/hart2/u54_2.o
 .debug_line    0x00000000000147e7     0x152e ./src/application/hart1/u54_1.o
 .debug_line    0x0000000000015d15      0x5b9 ./src/application/hart0/e51.o

.debug_info     0x0000000000000000   0x2cf6da
 .debug_info    0x0000000000000000       0x2e ./src/platform/mpfs_hal/startup_gcc/mss_entry.o
 .debug_info    0x000000000000002e       0x2e ./src/platform/mpfs_hal/startup_gcc/mss_utils.o
 .debug_info    0x000000000000005c    0x1f199 ./src/platform/mpfs_hal/startup_gcc/newlib_stubs.o
 .debug_info    0x000000000001f1f5    0x1f45d ./src/platform/mpfs_hal/startup_gcc/system_startup.o
 .debug_info    0x000000000003e652    0x21f30 ./src/platform/mpfs_hal/common/nwc/mss_ddr.o
 .debug_info    0x0000000000060582    0x1f2e8 ./src/platform/mpfs_hal/common/nwc/mss_ddr_debug.o
 .debug_info    0x000000000007f86a       0x9f ./src/platform/mpfs_hal/common/nwc/mss_ddr_test_pattern.o
 .debug_info    0x000000000007f909    0x1fa67 ./src/platform/mpfs_hal/common/nwc/mss_io.o
 .debug_info    0x000000000009f370    0x1f8cb ./src/platform/mpfs_hal/common/nwc/mss_nwc_init.o
 .debug_info    0x00000000000bec3b    0x1ef01 ./src/platform/mpfs_hal/common/nwc/mss_pll.o
 .debug_info    0x00000000000ddb3c    0x1f03c ./src/platform/mpfs_hal/common/nwc/mss_sgmii.o
 .debug_info    0x00000000000fcb78    0x1e598 ./src/platform/mpfs_hal/common/mss_clint.o
 .debug_info    0x000000000011b110    0x1ef30 ./src/platform/mpfs_hal/common/mss_irq_handler_stubs.o
 .debug_info    0x000000000013a040    0x1f89e ./src/platform/mpfs_hal/common/mss_l2_cache.o
 .debug_info    0x00000000001598de    0x1f108 ./src/platform/mpfs_hal/common/mss_mpu.o
 .debug_info    0x00000000001789e6    0x1edc8 ./src/platform/mpfs_hal/common/mss_mtrap.o
 .debug_info    0x00000000001977ae    0x1f721 ./src/platform/mpfs_hal/common/mss_peripherals.o
 .debug_info    0x00000000001b6ecf    0x1e0d0 ./src/platform/mpfs_hal/common/mss_plic.o
 .debug_info    0x00000000001d4f9f    0x1ea35 ./src/platform/mpfs_hal/common/mss_pmp.o
 .debug_info    0x00000000001f39d4    0x1f045 ./src/platform/mpfs_hal/common/mss_util.o
 .debug_info    0x0000000000212a19    0x20314 ./src/platform/drivers/mss/mss_mmuart/mss_uart.o
 .debug_info    0x0000000000232d2d    0x1f0b4 ./src/application/hart4/u54_4.o
 .debug_info    0x0000000000251de1    0x1f0b4 ./src/application/hart3/u54_3.o
 .debug_info    0x0000000000270e95    0x1f0b4 ./src/application/hart2/u54_2.o
 .debug_info    0x000000000028ff49    0x2054f ./src/application/hart1/u54_1.o
 .debug_info    0x00000000002b0498    0x1f242 ./src/application/hart0/e51.o

.debug_abbrev   0x0000000000000000     0x5d1e
 .debug_abbrev  0x0000000000000000       0x14 ./src/platform/mpfs_hal/startup_gcc/mss_entry.o
 .debug_abbrev  0x0000000000000014       0x14 ./src/platform/mpfs_hal/startup_gcc/mss_utils.o
 .debug_abbrev  0x0000000000000028      0x3dd ./src/platform/mpfs_hal/startup_gcc/newlib_stubs.o
 .debug_abbrev  0x0000000000000405      0x539 ./src/platform/mpfs_hal/startup_gcc/system_startup.o
 .debug_abbrev  0x000000000000093e      0x600 ./src/platform/mpfs_hal/common/nwc/mss_ddr.o
 .debug_abbrev  0x0000000000000f3e      0x51b ./src/platform/mpfs_hal/common/nwc/mss_ddr_debug.o
 .debug_abbrev  0x0000000000001459       0x61 ./src/platform/mpfs_hal/common/nwc/mss_ddr_test_pattern.o
 .debug_abbrev  0x00000000000014ba      0x510 ./src/platform/mpfs_hal/common/nwc/mss_io.o
 .debug_abbrev  0x00000000000019ca      0x4b3 ./src/platform/mpfs_hal/common/nwc/mss_nwc_init.o
 .debug_abbrev  0x0000000000001e7d      0x38e ./src/platform/mpfs_hal/common/nwc/mss_pll.o
 .debug_abbrev  0x000000000000220b      0x41a ./src/platform/mpfs_hal/common/nwc/mss_sgmii.o
 .debug_abbrev  0x0000000000002625      0x352 ./src/platform/mpfs_hal/common/mss_clint.o
 .debug_abbrev  0x0000000000002977      0x2a7 ./src/platform/mpfs_hal/common/mss_irq_handler_stubs.o
 .debug_abbrev  0x0000000000002c1e      0x363 ./src/platform/mpfs_hal/common/mss_l2_cache.o
 .debug_abbrev  0x0000000000002f81      0x420 ./src/platform/mpfs_hal/common/mss_mpu.o
 .debug_abbrev  0x00000000000033a1      0x3e4 ./src/platform/mpfs_hal/common/mss_mtrap.o
 .debug_abbrev  0x0000000000003785      0x3c8 ./src/platform/mpfs_hal/common/mss_peripherals.o
 .debug_abbrev  0x0000000000003b4d      0x201 ./src/platform/mpfs_hal/common/mss_plic.o
 .debug_abbrev  0x0000000000003d4e      0x2fb ./src/platform/mpfs_hal/common/mss_pmp.o
 .debug_abbrev  0x0000000000004049      0x3b9 ./src/platform/mpfs_hal/common/mss_util.o
 .debug_abbrev  0x0000000000004402      0x4bd ./src/platform/drivers/mss/mss_mmuart/mss_uart.o
 .debug_abbrev  0x00000000000048bf      0x398 ./src/application/hart4/u54_4.o
 .debug_abbrev  0x0000000000004c57      0x398 ./src/application/hart3/u54_3.o
 .debug_abbrev  0x0000000000004fef      0x398 ./src/application/hart2/u54_2.o
 .debug_abbrev  0x0000000000005387      0x593 ./src/application/hart1/u54_1.o
 .debug_abbrev  0x000000000000591a      0x404 ./src/application/hart0/e51.o

.debug_aranges  0x0000000000000000      0xf20
 .debug_aranges
                0x0000000000000000       0x30 ./src/platform/mpfs_hal/startup_gcc/mss_entry.o
 .debug_aranges
                0x0000000000000030       0x30 ./src/platform/mpfs_hal/startup_gcc/mss_utils.o
 .debug_aranges
                0x0000000000000060      0x140 ./src/platform/mpfs_hal/startup_gcc/newlib_stubs.o
 .debug_aranges
                0x00000000000001a0       0xc0 ./src/platform/mpfs_hal/startup_gcc/system_startup.o
 .debug_aranges
                0x0000000000000260       0x80 ./src/platform/mpfs_hal/common/nwc/mss_ddr.o
 .debug_aranges
                0x00000000000002e0       0x80 ./src/platform/mpfs_hal/common/nwc/mss_ddr_debug.o
 .debug_aranges
                0x0000000000000360       0x20 ./src/platform/mpfs_hal/common/nwc/mss_ddr_test_pattern.o
 .debug_aranges
                0x0000000000000380       0xb0 ./src/platform/mpfs_hal/common/nwc/mss_io.o
 .debug_aranges
                0x0000000000000430       0x70 ./src/platform/mpfs_hal/common/nwc/mss_nwc_init.o
 .debug_aranges
                0x00000000000004a0       0xc0 ./src/platform/mpfs_hal/common/nwc/mss_pll.o
 .debug_aranges
                0x0000000000000560       0x70 ./src/platform/mpfs_hal/common/nwc/mss_sgmii.o
 .debug_aranges
                0x00000000000005d0       0x80 ./src/platform/mpfs_hal/common/mss_clint.o
 .debug_aranges
                0x0000000000000650       0x50 ./src/platform/mpfs_hal/common/mss_irq_handler_stubs.o
 .debug_aranges
                0x00000000000006a0       0x30 ./src/platform/mpfs_hal/common/mss_l2_cache.o
 .debug_aranges
                0x00000000000006d0       0x50 ./src/platform/mpfs_hal/common/mss_mpu.o
 .debug_aranges
                0x0000000000000720       0xa0 ./src/platform/mpfs_hal/common/mss_mtrap.o
 .debug_aranges
                0x00000000000007c0       0x70 ./src/platform/mpfs_hal/common/mss_peripherals.o
 .debug_aranges
                0x0000000000000830       0x20 ./src/platform/mpfs_hal/common/mss_plic.o
 .debug_aranges
                0x0000000000000850       0x40 ./src/platform/mpfs_hal/common/mss_pmp.o
 .debug_aranges
                0x0000000000000890      0x110 ./src/platform/mpfs_hal/common/mss_util.o
 .debug_aranges
                0x00000000000009a0      0x3d0 ./src/platform/drivers/mss/mss_mmuart/mss_uart.o
 .debug_aranges
                0x0000000000000d70       0x40 ./src/application/hart4/u54_4.o
 .debug_aranges
                0x0000000000000db0       0x40 ./src/application/hart3/u54_3.o
 .debug_aranges
                0x0000000000000df0       0x40 ./src/application/hart2/u54_2.o
 .debug_aranges
                0x0000000000000e30       0xb0 ./src/application/hart1/u54_1.o
 .debug_aranges
                0x0000000000000ee0       0x40 ./src/application/hart0/e51.o

.debug_str      0x0000000000000000    0x1b514
 .debug_str     0x0000000000000000       0x7e ./src/platform/mpfs_hal/startup_gcc/mss_entry.o
 .debug_str     0x000000000000007e       0x31 ./src/platform/mpfs_hal/startup_gcc/mss_utils.o
                                         0x7e (size before relaxing)
 .debug_str     0x00000000000000af    0x12d6e ./src/platform/mpfs_hal/startup_gcc/newlib_stubs.o
                                      0x13146 (size before relaxing)
 .debug_str     0x0000000000012e1d     0x1ca1 ./src/platform/mpfs_hal/startup_gcc/system_startup.o
                                      0x14776 (size before relaxing)
 .debug_str     0x0000000000014abe     0x1c99 ./src/platform/mpfs_hal/common/nwc/mss_ddr.o
                                      0x14c00 (size before relaxing)
 .debug_str     0x0000000000016757      0x2da ./src/platform/mpfs_hal/common/nwc/mss_ddr_debug.o
                                      0x131ea (size before relaxing)
 .debug_str     0x0000000000016a31       0x3b ./src/platform/mpfs_hal/common/nwc/mss_ddr_test_pattern.o
                                        0x1c6 (size before relaxing)
 .debug_str     0x0000000000016a6c      0x525 ./src/platform/mpfs_hal/common/nwc/mss_io.o
                                      0x13fda (size before relaxing)
 .debug_str     0x0000000000016f91       0xdb ./src/platform/mpfs_hal/common/nwc/mss_nwc_init.o
                                      0x13c88 (size before relaxing)
 .debug_str     0x000000000001706c      0x13b ./src/platform/mpfs_hal/common/nwc/mss_pll.o
                                      0x137f0 (size before relaxing)
 .debug_str     0x00000000000171a7      0x411 ./src/platform/mpfs_hal/common/nwc/mss_sgmii.o
                                      0x135d1 (size before relaxing)
 .debug_str     0x00000000000175b8      0x1e9 ./src/platform/mpfs_hal/common/mss_clint.o
                                      0x12c6b (size before relaxing)
 .debug_str     0x00000000000177a1     0x23c3 ./src/platform/mpfs_hal/common/mss_irq_handler_stubs.o
                                      0x14ee8 (size before relaxing)
 .debug_str     0x0000000000019b64      0x308 ./src/platform/mpfs_hal/common/mss_l2_cache.o
                                      0x13dfb (size before relaxing)
 .debug_str     0x0000000000019e6c      0x3da ./src/platform/mpfs_hal/common/mss_mpu.o
                                      0x13294 (size before relaxing)
 .debug_str     0x000000000001a246      0x1be ./src/platform/mpfs_hal/common/mss_mtrap.o
                                      0x1429f (size before relaxing)
 .debug_str     0x000000000001a404      0x107 ./src/platform/mpfs_hal/common/mss_peripherals.o
                                      0x13e7a (size before relaxing)
 .debug_str     0x000000000001a50b       0x2b ./src/platform/mpfs_hal/common/mss_plic.o
                                      0x12a55 (size before relaxing)
 .debug_str     0x000000000001a536       0x50 ./src/platform/mpfs_hal/common/mss_pmp.o
                                      0x12ee5 (size before relaxing)
 .debug_str     0x000000000001a586      0x168 ./src/platform/mpfs_hal/common/mss_util.o
                                      0x13810 (size before relaxing)
 .debug_str     0x000000000001a6ee      0xbc2 ./src/platform/drivers/mss/mss_mmuart/mss_uart.o
                                      0x14e28 (size before relaxing)
 .debug_str     0x000000000001b2b0       0x39 ./src/application/hart4/u54_4.o
                                      0x131af (size before relaxing)
 .debug_str     0x000000000001b2e9       0x32 ./src/application/hart3/u54_3.o
                                      0x131af (size before relaxing)
 .debug_str     0x000000000001b31b       0x32 ./src/application/hart2/u54_2.o
                                      0x131af (size before relaxing)
 .debug_str     0x000000000001b34d      0x189 ./src/application/hart1/u54_1.o
                                      0x1370b (size before relaxing)
 .debug_str     0x000000000001b4d6       0x3e ./src/application/hart0/e51.o
                                      0x134bf (size before relaxing)

.debug_loc      0x0000000000000000     0x8e98
 .debug_loc     0x0000000000000000      0x43b ./src/platform/mpfs_hal/startup_gcc/newlib_stubs.o
 .debug_loc     0x000000000000043b      0x473 ./src/platform/mpfs_hal/startup_gcc/system_startup.o
 .debug_loc     0x00000000000008ae     0x2d21 ./src/platform/mpfs_hal/common/nwc/mss_ddr.o
 .debug_loc     0x00000000000035cf      0xfc9 ./src/platform/mpfs_hal/common/nwc/mss_ddr_debug.o
 .debug_loc     0x0000000000004598      0x211 ./src/platform/mpfs_hal/common/nwc/mss_io.o
 .debug_loc     0x00000000000047a9      0x256 ./src/platform/mpfs_hal/common/nwc/mss_nwc_init.o
 .debug_loc     0x00000000000049ff      0x11a ./src/platform/mpfs_hal/common/nwc/mss_pll.o
 .debug_loc     0x0000000000004b19      0x254 ./src/platform/mpfs_hal/common/nwc/mss_sgmii.o
 .debug_loc     0x0000000000004d6d      0x12b ./src/platform/mpfs_hal/common/mss_clint.o
 .debug_loc     0x0000000000004e98      0x185 ./src/platform/mpfs_hal/common/mss_l2_cache.o
 .debug_loc     0x000000000000501d      0x498 ./src/platform/mpfs_hal/common/mss_mpu.o
 .debug_loc     0x00000000000054b5      0x5f2 ./src/platform/mpfs_hal/common/mss_mtrap.o
 .debug_loc     0x0000000000005aa7      0x1e3 ./src/platform/mpfs_hal/common/mss_peripherals.o
 .debug_loc     0x0000000000005c8a       0x39 ./src/platform/mpfs_hal/common/mss_pmp.o
 .debug_loc     0x0000000000005cc3      0x282 ./src/platform/mpfs_hal/common/mss_util.o
 .debug_loc     0x0000000000005f45     0x1a27 ./src/platform/drivers/mss/mss_mmuart/mss_uart.o
 .debug_loc     0x000000000000796c       0x69 ./src/application/hart4/u54_4.o
 .debug_loc     0x00000000000079d5       0x69 ./src/application/hart3/u54_3.o
 .debug_loc     0x0000000000007a3e       0x69 ./src/application/hart2/u54_2.o
 .debug_loc     0x0000000000007aa7     0x13aa ./src/application/hart1/u54_1.o
 .debug_loc     0x0000000000008e51       0x47 ./src/application/hart0/e51.o

.debug_ranges   0x0000000000000000     0x2770
 .debug_ranges  0x0000000000000000      0x130 ./src/platform/mpfs_hal/startup_gcc/newlib_stubs.o
 .debug_ranges  0x0000000000000130      0x2c0 ./src/platform/mpfs_hal/startup_gcc/system_startup.o
 .debug_ranges  0x00000000000003f0      0xaf0 ./src/platform/mpfs_hal/common/nwc/mss_ddr.o
 .debug_ranges  0x0000000000000ee0      0x130 ./src/platform/mpfs_hal/common/nwc/mss_ddr_debug.o
 .debug_ranges  0x0000000000001010      0x100 ./src/platform/mpfs_hal/common/nwc/mss_io.o
 .debug_ranges  0x0000000000001110       0xd0 ./src/platform/mpfs_hal/common/nwc/mss_nwc_init.o
 .debug_ranges  0x00000000000011e0      0x170 ./src/platform/mpfs_hal/common/nwc/mss_pll.o
 .debug_ranges  0x0000000000001350      0x130 ./src/platform/mpfs_hal/common/nwc/mss_sgmii.o
 .debug_ranges  0x0000000000001480      0x100 ./src/platform/mpfs_hal/common/mss_clint.o
 .debug_ranges  0x0000000000001580       0x40 ./src/platform/mpfs_hal/common/mss_irq_handler_stubs.o
 .debug_ranges  0x00000000000015c0       0x20 ./src/platform/mpfs_hal/common/mss_l2_cache.o
 .debug_ranges  0x00000000000015e0       0x40 ./src/platform/mpfs_hal/common/mss_mpu.o
 .debug_ranges  0x0000000000001620      0x150 ./src/platform/mpfs_hal/common/mss_mtrap.o
 .debug_ranges  0x0000000000001770       0x90 ./src/platform/mpfs_hal/common/mss_peripherals.o
 .debug_ranges  0x0000000000001800       0x30 ./src/platform/mpfs_hal/common/mss_pmp.o
 .debug_ranges  0x0000000000001830      0x160 ./src/platform/mpfs_hal/common/mss_util.o
 .debug_ranges  0x0000000000001990      0x440 ./src/platform/drivers/mss/mss_mmuart/mss_uart.o
 .debug_ranges  0x0000000000001dd0       0x60 ./src/application/hart4/u54_4.o
 .debug_ranges  0x0000000000001e30       0x60 ./src/application/hart3/u54_3.o
 .debug_ranges  0x0000000000001e90       0x60 ./src/application/hart2/u54_2.o
 .debug_ranges  0x0000000000001ef0      0x850 ./src/application/hart1/u54_1.o
 .debug_ranges  0x0000000000002740       0x30 ./src/application/hart0/e51.o

.debug_frame    0x0000000000000000     0x3dd8
 .debug_frame   0x0000000000000000      0x220 ./src/platform/mpfs_hal/startup_gcc/newlib_stubs.o
 .debug_frame   0x0000000000000220      0x1a8 ./src/platform/mpfs_hal/startup_gcc/system_startup.o
 .debug_frame   0x00000000000003c8      0x138 ./src/platform/mpfs_hal/common/nwc/mss_ddr.o
 .debug_frame   0x0000000000000500      0x200 ./src/platform/mpfs_hal/common/nwc/mss_ddr_debug.o
 .debug_frame   0x0000000000000700      0x150 ./src/platform/mpfs_hal/common/nwc/mss_io.o
 .debug_frame   0x0000000000000850       0xe0 ./src/platform/mpfs_hal/common/nwc/mss_nwc_init.o
 .debug_frame   0x0000000000000930      0x120 ./src/platform/mpfs_hal/common/nwc/mss_pll.o
 .debug_frame   0x0000000000000a50       0xe8 ./src/platform/mpfs_hal/common/nwc/mss_sgmii.o
 .debug_frame   0x0000000000000b38       0xd0 ./src/platform/mpfs_hal/common/mss_clint.o
 .debug_frame   0x0000000000000c08     0x1e40 ./src/platform/mpfs_hal/common/mss_irq_handler_stubs.o
 .debug_frame   0x0000000000002a48       0x28 ./src/platform/mpfs_hal/common/mss_l2_cache.o
 .debug_frame   0x0000000000002a70       0x70 ./src/platform/mpfs_hal/common/mss_mpu.o
 .debug_frame   0x0000000000002ae0      0x108 ./src/platform/mpfs_hal/common/mss_mtrap.o
 .debug_frame   0x0000000000002be8       0x88 ./src/platform/mpfs_hal/common/mss_peripherals.o
 .debug_frame   0x0000000000002c70       0x40 ./src/platform/mpfs_hal/common/mss_pmp.o
 .debug_frame   0x0000000000002cb0      0x1d8 ./src/platform/mpfs_hal/common/mss_util.o
 .debug_frame   0x0000000000002e88      0x670 ./src/platform/drivers/mss/mss_mmuart/mss_uart.o
 .debug_frame   0x00000000000034f8       0x48 ./src/application/hart4/u54_4.o
 .debug_frame   0x0000000000003540       0x48 ./src/application/hart3/u54_3.o
 .debug_frame   0x0000000000003588       0x48 ./src/application/hart2/u54_2.o
 .debug_frame   0x00000000000035d0      0x2b0 ./src/application/hart1/u54_1.o
 .debug_frame   0x0000000000003880       0x48 ./src/application/hart0/e51.o
 .debug_frame   0x00000000000038c8       0x28 /home/vinay/Desktop/soft_console/SoftConsole-v2022.2-RISC-V-747/riscv-unknown-elf-gcc/bin/../lib/gcc/riscv64-unknown-elf/8.3.0/../../../../riscv64-unknown-elf/lib/libg_nano.a(lib_a-memcmp.o)
 .debug_frame   0x00000000000038f0       0x70 /home/vinay/Desktop/soft_console/SoftConsole-v2022.2-RISC-V-747/riscv-unknown-elf-gcc/bin/../lib/gcc/riscv64-unknown-elf/8.3.0/../../../../riscv64-unknown-elf/lib/libg_nano.a(lib_a-rand.o)
 .debug_frame   0x0000000000003960       0x60 /home/vinay/Desktop/soft_console/SoftConsole-v2022.2-RISC-V-747/riscv-unknown-elf-gcc/bin/../lib/gcc/riscv64-unknown-elf/8.3.0/../../../../riscv64-unknown-elf/lib/libg_nano.a(lib_a-sprintf.o)
 .debug_frame   0x00000000000039c0       0x40 /home/vinay/Desktop/soft_console/SoftConsole-v2022.2-RISC-V-747/riscv-unknown-elf-gcc/bin/../lib/gcc/riscv64-unknown-elf/8.3.0/../../../../riscv64-unknown-elf/lib/libg_nano.a(lib_a-malloc.o)
 .debug_frame   0x0000000000003a00       0x48 /home/vinay/Desktop/soft_console/SoftConsole-v2022.2-RISC-V-747/riscv-unknown-elf-gcc/bin/../lib/gcc/riscv64-unknown-elf/8.3.0/../../../../riscv64-unknown-elf/lib/libg_nano.a(lib_a-nano-freer.o)
 .debug_frame   0x0000000000003a48       0x48 /home/vinay/Desktop/soft_console/SoftConsole-v2022.2-RISC-V-747/riscv-unknown-elf-gcc/bin/../lib/gcc/riscv64-unknown-elf/8.3.0/../../../../riscv64-unknown-elf/lib/libg_nano.a(lib_a-nano-mallocr.o)
 .debug_frame   0x0000000000003a90      0x108 /home/vinay/Desktop/soft_console/SoftConsole-v2022.2-RISC-V-747/riscv-unknown-elf-gcc/bin/../lib/gcc/riscv64-unknown-elf/8.3.0/../../../../riscv64-unknown-elf/lib/libg_nano.a(lib_a-nano-svfprintf.o)
 .debug_frame   0x0000000000003b98       0xa8 /home/vinay/Desktop/soft_console/SoftConsole-v2022.2-RISC-V-747/riscv-unknown-elf-gcc/bin/../lib/gcc/riscv64-unknown-elf/8.3.0/../../../../riscv64-unknown-elf/lib/libg_nano.a(lib_a-nano-vfprintf_i.o)
 .debug_frame   0x0000000000003c40       0x38 /home/vinay/Desktop/soft_console/SoftConsole-v2022.2-RISC-V-747/riscv-unknown-elf-gcc/bin/../lib/gcc/riscv64-unknown-elf/8.3.0/../../../../riscv64-unknown-elf/lib/libg_nano.a(lib_a-sbrkr.o)
 .debug_frame   0x0000000000003c78       0x28 /home/vinay/Desktop/soft_console/SoftConsole-v2022.2-RISC-V-747/riscv-unknown-elf-gcc/bin/../lib/gcc/riscv64-unknown-elf/8.3.0/../../../../riscv64-unknown-elf/lib/libg_nano.a(lib_a-memchr.o)
 .debug_frame   0x0000000000003ca0       0x40 /home/vinay/Desktop/soft_console/SoftConsole-v2022.2-RISC-V-747/riscv-unknown-elf-gcc/bin/../lib/gcc/riscv64-unknown-elf/8.3.0/../../../../riscv64-unknown-elf/lib/libg_nano.a(lib_a-mlock.o)
 .debug_frame   0x0000000000003ce0       0x48 /home/vinay/Desktop/soft_console/SoftConsole-v2022.2-RISC-V-747/riscv-unknown-elf-gcc/bin/../lib/gcc/riscv64-unknown-elf/8.3.0/../../../../riscv64-unknown-elf/lib/libg_nano.a(lib_a-nano-reallocr.o)
 .debug_frame   0x0000000000003d28       0x88 /home/vinay/Desktop/soft_console/SoftConsole-v2022.2-RISC-V-747/riscv-unknown-elf-gcc/bin/../lib/gcc/riscv64-unknown-elf/8.3.0/../../../../riscv64-unknown-elf/lib/libg_nano.a(lib_a-reent.o)
 .debug_frame   0x0000000000003db0       0x28 /home/vinay/Desktop/soft_console/SoftConsole-v2022.2-RISC-V-747/riscv-unknown-elf-gcc/bin/../lib/gcc/riscv64-unknown-elf/8.3.0/../../../../riscv64-unknown-elf/lib/libg_nano.a(lib_a-nano-msizer.o)
