   1              		.file	"hal_irq.c"
   2              		.option nopic
   3              		.attribute arch, "rv64i2p0_m2p0_a2p0_f2p0_d2p0_c2p0"
   4              		.attribute unaligned_access, 0
   5              		.attribute stack_align, 16
   6              		.text
   7              	.Ltext0:
   8              		.cfi_sections	.debug_frame
   9              		.section	.text.HAL_enable_interrupts,"ax",@progbits
  10              		.align	1
  11              		.globl	HAL_enable_interrupts
  13              	HAL_enable_interrupts:
  14              	.LFB5:
  15              		.file 1 "../src/platform/hal/hal_irq.c"
   1:../src/platform/hal/hal_irq.c **** /*******************************************************************************
   2:../src/platform/hal/hal_irq.c ****  * Copyright 2019-2020 Microchip FPGA Embedded Systems Solutions.
   3:../src/platform/hal/hal_irq.c ****  *
   4:../src/platform/hal/hal_irq.c ****  * SPDX-License-Identifier: MIT
   5:../src/platform/hal/hal_irq.c ****  *
   6:../src/platform/hal/hal_irq.c ****  * MPFS HAL Embedded Software
   7:../src/platform/hal/hal_irq.c ****  *
   8:../src/platform/hal/hal_irq.c ****  */
   9:../src/platform/hal/hal_irq.c **** /***************************************************************************//**
  10:../src/platform/hal/hal_irq.c ****  * 
  11:../src/platform/hal/hal_irq.c ****  * Legacy interrupt control functions for the Microchip driver library hardware
  12:../src/platform/hal/hal_irq.c ****  * abstraction layer.
  13:../src/platform/hal/hal_irq.c ****  *
  14:../src/platform/hal/hal_irq.c ****  */
  15:../src/platform/hal/hal_irq.c **** #include <stdio.h>
  16:../src/platform/hal/hal_irq.c **** #include "hal/hal.h"
  17:../src/platform/hal/hal_irq.c **** #include "mpfs_hal/common/mss_util.h"
  18:../src/platform/hal/hal_irq.c **** 
  19:../src/platform/hal/hal_irq.c **** #ifdef __cplusplus
  20:../src/platform/hal/hal_irq.c **** extern "C" {
  21:../src/platform/hal/hal_irq.c **** #endif
  22:../src/platform/hal/hal_irq.c **** 
  23:../src/platform/hal/hal_irq.c **** /*------------------------------------------------------------------------------
  24:../src/platform/hal/hal_irq.c ****  * 
  25:../src/platform/hal/hal_irq.c ****  */
  26:../src/platform/hal/hal_irq.c **** void HAL_enable_interrupts(void) {
  16              		.loc 1 26 34
  17              		.cfi_startproc
  18 0000 4111     		addi	sp,sp,-16
  19              		.cfi_def_cfa_offset 16
  20 0002 06E4     		sd	ra,8(sp)
  21 0004 22E0     		sd	s0,0(sp)
  22              		.cfi_offset 1, -8
  23              		.cfi_offset 8, -16
  24 0006 0008     		addi	s0,sp,16
  25              		.cfi_def_cfa 8, 0
  27:../src/platform/hal/hal_irq.c ****     __enable_irq();
  26              		.loc 1 27 5
  27 0008 97000000 		call	__enable_irq
  27      E7800000 
  28:../src/platform/hal/hal_irq.c **** }
  28              		.loc 1 28 1
  29 0010 0100     		nop
  30 0012 A260     		ld	ra,8(sp)
  31              		.cfi_restore 1
  32 0014 0264     		ld	s0,0(sp)
  33              		.cfi_restore 8
  34              		.cfi_def_cfa 2, 16
  35 0016 4101     		addi	sp,sp,16
  36              		.cfi_def_cfa_offset 0
  37 0018 8280     		jr	ra
  38              		.cfi_endproc
  39              	.LFE5:
  41              		.section	.text.HAL_disable_interrupts,"ax",@progbits
  42              		.align	1
  43              		.globl	HAL_disable_interrupts
  45              	HAL_disable_interrupts:
  46              	.LFB6:
  29:../src/platform/hal/hal_irq.c **** 
  30:../src/platform/hal/hal_irq.c **** /*------------------------------------------------------------------------------
  31:../src/platform/hal/hal_irq.c ****  * 
  32:../src/platform/hal/hal_irq.c ****  */
  33:../src/platform/hal/hal_irq.c **** psr_t HAL_disable_interrupts(void) {
  47              		.loc 1 33 36
  48              		.cfi_startproc
  49 0000 0111     		addi	sp,sp,-32
  50              		.cfi_def_cfa_offset 32
  51 0002 06EC     		sd	ra,24(sp)
  52 0004 22E8     		sd	s0,16(sp)
  53              		.cfi_offset 1, -8
  54              		.cfi_offset 8, -16
  55 0006 0010     		addi	s0,sp,32
  56              		.cfi_def_cfa 8, 0
  57              	.LBB2:
  34:../src/platform/hal/hal_irq.c ****     psr_t psr;
  35:../src/platform/hal/hal_irq.c ****     psr = read_csr(mstatus);
  58              		.loc 1 35 11
  59              	 #APP
  60              	# 35 "../src/platform/hal/hal_irq.c" 1
  36              	    __disable_irq();
  61              		csrr a5, mstatus
  62              	# 0 "" 2
  63              	 #NO_APP
  64 000c 2334F4FE 		sd	a5,-24(s0)
  65 0010 833784FE 		ld	a5,-24(s0)
  66              	.LBE2:
  35:../src/platform/hal/hal_irq.c ****     psr = read_csr(mstatus);
  67              		.loc 1 35 9
  68 0014 2330F4FE 		sd	a5,-32(s0)
  69              		.loc 1 36 5
  70 0018 97000000 		call	__disable_irq
  70      E7800000 
  37:../src/platform/hal/hal_irq.c ****     return(psr);
  71              		.loc 1 37 11
  72 0020 833704FE 		ld	a5,-32(s0)
  38:../src/platform/hal/hal_irq.c **** }
  73              		.loc 1 38 1
  74 0024 3E85     		mv	a0,a5
  75 0026 E260     		ld	ra,24(sp)
  76              		.cfi_restore 1
  77 0028 4264     		ld	s0,16(sp)
  78              		.cfi_restore 8
  79              		.cfi_def_cfa 2, 32
  80 002a 0561     		addi	sp,sp,32
  81              		.cfi_def_cfa_offset 0
  82 002c 8280     		jr	ra
  83              		.cfi_endproc
  84              	.LFE6:
  86              		.section	.text.HAL_restore_interrupts,"ax",@progbits
  87              		.align	1
  88              		.globl	HAL_restore_interrupts
  90              	HAL_restore_interrupts:
  91              	.LFB7:
  39:../src/platform/hal/hal_irq.c **** 
  40:../src/platform/hal/hal_irq.c **** /*------------------------------------------------------------------------------
  41:../src/platform/hal/hal_irq.c ****  * 
  42:../src/platform/hal/hal_irq.c ****  */
  43:../src/platform/hal/hal_irq.c **** void HAL_restore_interrupts(psr_t saved_psr) {
  92              		.loc 1 43 46
  93              		.cfi_startproc
  94 0000 0111     		addi	sp,sp,-32
  95              		.cfi_def_cfa_offset 32
  96 0002 22EC     		sd	s0,24(sp)
  97              		.cfi_offset 8, -8
  98 0004 0010     		addi	s0,sp,32
  99              		.cfi_def_cfa 8, 0
 100 0006 2334A4FE 		sd	a0,-24(s0)
  44:../src/platform/hal/hal_irq.c ****     write_csr(mstatus, saved_psr);
 101              		.loc 1 44 5
 102 000a 833784FE 		ld	a5,-24(s0)
 103              	 #APP
 104              	# 44 "../src/platform/hal/hal_irq.c" 1
  45              	}
 105              		csrw mstatus, a5
 106              	# 0 "" 2
 107              		.loc 1 45 1
 108              	 #NO_APP
 109 0012 0100     		nop
 110 0014 6264     		ld	s0,24(sp)
 111              		.cfi_restore 8
 112              		.cfi_def_cfa 2, 32
 113 0016 0561     		addi	sp,sp,32
 114              		.cfi_def_cfa_offset 0
 115 0018 8280     		jr	ra
 116              		.cfi_endproc
 117              	.LFE7:
 119              		.text
 120              	.Letext0:
 121              		.file 2 "/home/vinay/Desktop/soft_console/SoftConsole-v2022.2-RISC-V-747/riscv-unknown-elf-gcc/lib
 122              		.file 3 "/home/vinay/Desktop/soft_console/SoftConsole-v2022.2-RISC-V-747/riscv-unknown-elf-gcc/ris
 123              		.file 4 "/home/vinay/Desktop/soft_console/SoftConsole-v2022.2-RISC-V-747/riscv-unknown-elf-gcc/ris
 124              		.file 5 "/home/vinay/Desktop/soft_console/SoftConsole-v2022.2-RISC-V-747/riscv-unknown-elf-gcc/ris
 125              		.file 6 "/home/vinay/Desktop/softconsole_watershed/Water-shed/src/platform/hal/cpu_types.h"