   1              		.file	"u54_2.c"
   2              		.option nopic
   3              		.attribute arch, "rv64i2p0_m2p0_a2p0_f2p0_d2p0_c2p0"
   4              		.attribute unaligned_access, 0
   5              		.attribute stack_align, 16
   6              		.text
   7              	.Ltext0:
   8              		.cfi_sections	.debug_frame
   9              		.section	.text.clear_soft_interrupt,"ax",@progbits
  10              		.align	1
  12              	clear_soft_interrupt:
  13              	.LFB5:
  14              		.file 1 "/home/vinay/Desktop/softconsole_watershed/Water-shed/src/platform/mpfs_hal/common/mss_cli
   1:/home/vinay/Desktop/softconsole_watershed/Water-shed/src/platform/mpfs_hal/common/mss_clint.h **** /*******************************************************************************
   2:/home/vinay/Desktop/softconsole_watershed/Water-shed/src/platform/mpfs_hal/common/mss_clint.h ****  * Copyright 2019-2022 Microchip FPGA Embedded Systems Solutions.
   3:/home/vinay/Desktop/softconsole_watershed/Water-shed/src/platform/mpfs_hal/common/mss_clint.h ****  *
   4:/home/vinay/Desktop/softconsole_watershed/Water-shed/src/platform/mpfs_hal/common/mss_clint.h ****  * SPDX-License-Identifier: MIT
   5:/home/vinay/Desktop/softconsole_watershed/Water-shed/src/platform/mpfs_hal/common/mss_clint.h ****  *
   6:/home/vinay/Desktop/softconsole_watershed/Water-shed/src/platform/mpfs_hal/common/mss_clint.h ****  * MPFS HAL Embedded Software
   7:/home/vinay/Desktop/softconsole_watershed/Water-shed/src/platform/mpfs_hal/common/mss_clint.h ****  *
   8:/home/vinay/Desktop/softconsole_watershed/Water-shed/src/platform/mpfs_hal/common/mss_clint.h ****  */
   9:/home/vinay/Desktop/softconsole_watershed/Water-shed/src/platform/mpfs_hal/common/mss_clint.h **** 
  10:/home/vinay/Desktop/softconsole_watershed/Water-shed/src/platform/mpfs_hal/common/mss_clint.h **** /*******************************************************************************
  11:/home/vinay/Desktop/softconsole_watershed/Water-shed/src/platform/mpfs_hal/common/mss_clint.h ****  *
  12:/home/vinay/Desktop/softconsole_watershed/Water-shed/src/platform/mpfs_hal/common/mss_clint.h ****  * @file mss_clint.h
  13:/home/vinay/Desktop/softconsole_watershed/Water-shed/src/platform/mpfs_hal/common/mss_clint.h ****  * @author Microchip-FPGA Embedded Systems Solutions
  14:/home/vinay/Desktop/softconsole_watershed/Water-shed/src/platform/mpfs_hal/common/mss_clint.h ****  * @brief CLINT access data structures and functions.
  15:/home/vinay/Desktop/softconsole_watershed/Water-shed/src/platform/mpfs_hal/common/mss_clint.h ****  *
  16:/home/vinay/Desktop/softconsole_watershed/Water-shed/src/platform/mpfs_hal/common/mss_clint.h ****  */
  17:/home/vinay/Desktop/softconsole_watershed/Water-shed/src/platform/mpfs_hal/common/mss_clint.h **** #ifndef MSS_CLINT_H
  18:/home/vinay/Desktop/softconsole_watershed/Water-shed/src/platform/mpfs_hal/common/mss_clint.h **** #define MSS_CLINT_H
  19:/home/vinay/Desktop/softconsole_watershed/Water-shed/src/platform/mpfs_hal/common/mss_clint.h **** 
  20:/home/vinay/Desktop/softconsole_watershed/Water-shed/src/platform/mpfs_hal/common/mss_clint.h **** #include <stdint.h>
  21:/home/vinay/Desktop/softconsole_watershed/Water-shed/src/platform/mpfs_hal/common/mss_clint.h **** #include "encoding.h"
  22:/home/vinay/Desktop/softconsole_watershed/Water-shed/src/platform/mpfs_hal/common/mss_clint.h **** #include "atomic.h"
  23:/home/vinay/Desktop/softconsole_watershed/Water-shed/src/platform/mpfs_hal/common/mss_clint.h **** 
  24:/home/vinay/Desktop/softconsole_watershed/Water-shed/src/platform/mpfs_hal/common/mss_clint.h **** #ifdef __cplusplus
  25:/home/vinay/Desktop/softconsole_watershed/Water-shed/src/platform/mpfs_hal/common/mss_clint.h **** extern "C" {
  26:/home/vinay/Desktop/softconsole_watershed/Water-shed/src/platform/mpfs_hal/common/mss_clint.h **** #endif
  27:/home/vinay/Desktop/softconsole_watershed/Water-shed/src/platform/mpfs_hal/common/mss_clint.h **** 
  28:/home/vinay/Desktop/softconsole_watershed/Water-shed/src/platform/mpfs_hal/common/mss_clint.h **** #define RTC_PRESCALER 100U
  29:/home/vinay/Desktop/softconsole_watershed/Water-shed/src/platform/mpfs_hal/common/mss_clint.h **** #define SUCCESS 0U
  30:/home/vinay/Desktop/softconsole_watershed/Water-shed/src/platform/mpfs_hal/common/mss_clint.h **** #define ERROR   1U
  31:/home/vinay/Desktop/softconsole_watershed/Water-shed/src/platform/mpfs_hal/common/mss_clint.h **** 
  32:/home/vinay/Desktop/softconsole_watershed/Water-shed/src/platform/mpfs_hal/common/mss_clint.h **** 
  33:/home/vinay/Desktop/softconsole_watershed/Water-shed/src/platform/mpfs_hal/common/mss_clint.h **** /*==============================================================================
  34:/home/vinay/Desktop/softconsole_watershed/Water-shed/src/platform/mpfs_hal/common/mss_clint.h ****  * CLINT: Core Local Interrupter
  35:/home/vinay/Desktop/softconsole_watershed/Water-shed/src/platform/mpfs_hal/common/mss_clint.h ****  */
  36:/home/vinay/Desktop/softconsole_watershed/Water-shed/src/platform/mpfs_hal/common/mss_clint.h **** typedef struct CLINT_Type_t
  37:/home/vinay/Desktop/softconsole_watershed/Water-shed/src/platform/mpfs_hal/common/mss_clint.h **** {
  38:/home/vinay/Desktop/softconsole_watershed/Water-shed/src/platform/mpfs_hal/common/mss_clint.h ****     volatile uint32_t MSIP[5];
  39:/home/vinay/Desktop/softconsole_watershed/Water-shed/src/platform/mpfs_hal/common/mss_clint.h ****     volatile uint32_t reserved1[(0x4000U - 0x14U)/4U];
  40:/home/vinay/Desktop/softconsole_watershed/Water-shed/src/platform/mpfs_hal/common/mss_clint.h ****     volatile uint64_t MTIMECMP[5];  /* mtime compare value for each hart. When mtime equals this va
  41:/home/vinay/Desktop/softconsole_watershed/Water-shed/src/platform/mpfs_hal/common/mss_clint.h ****     volatile uint32_t reserved2[((0xbff8U - 0x4028U)/4U)];
  42:/home/vinay/Desktop/softconsole_watershed/Water-shed/src/platform/mpfs_hal/common/mss_clint.h ****     volatile uint64_t MTIME;    /* contains the current mtime value */
  43:/home/vinay/Desktop/softconsole_watershed/Water-shed/src/platform/mpfs_hal/common/mss_clint.h **** } CLINT_Type;
  44:/home/vinay/Desktop/softconsole_watershed/Water-shed/src/platform/mpfs_hal/common/mss_clint.h **** 
  45:/home/vinay/Desktop/softconsole_watershed/Water-shed/src/platform/mpfs_hal/common/mss_clint.h **** #define CLINT    ((CLINT_Type *)CLINT_BASE)
  46:/home/vinay/Desktop/softconsole_watershed/Water-shed/src/platform/mpfs_hal/common/mss_clint.h **** 
  47:/home/vinay/Desktop/softconsole_watershed/Water-shed/src/platform/mpfs_hal/common/mss_clint.h **** 
  48:/home/vinay/Desktop/softconsole_watershed/Water-shed/src/platform/mpfs_hal/common/mss_clint.h **** /*==============================================================================
  49:/home/vinay/Desktop/softconsole_watershed/Water-shed/src/platform/mpfs_hal/common/mss_clint.h ****  * The function raise_soft_interrupt() raises a synchronous software interrupt by
  50:/home/vinay/Desktop/softconsole_watershed/Water-shed/src/platform/mpfs_hal/common/mss_clint.h ****  * writing into the MSIP register.
  51:/home/vinay/Desktop/softconsole_watershed/Water-shed/src/platform/mpfs_hal/common/mss_clint.h ****  */
  52:/home/vinay/Desktop/softconsole_watershed/Water-shed/src/platform/mpfs_hal/common/mss_clint.h **** static inline void raise_soft_interrupt(unsigned long hart_id)
  53:/home/vinay/Desktop/softconsole_watershed/Water-shed/src/platform/mpfs_hal/common/mss_clint.h **** {
  54:/home/vinay/Desktop/softconsole_watershed/Water-shed/src/platform/mpfs_hal/common/mss_clint.h ****     /*You need to make sure that the global interrupt is enabled*/
  55:/home/vinay/Desktop/softconsole_watershed/Water-shed/src/platform/mpfs_hal/common/mss_clint.h ****     /*Note:  set_csr(mie, MIP_MSIP) needs to be set on hart you are setting sw interrupt */
  56:/home/vinay/Desktop/softconsole_watershed/Water-shed/src/platform/mpfs_hal/common/mss_clint.h ****     CLINT->MSIP[hart_id] = 0x01U;   /*raise soft interrupt for hart(x) where x== hart ID*/
  57:/home/vinay/Desktop/softconsole_watershed/Water-shed/src/platform/mpfs_hal/common/mss_clint.h ****     mb();
  58:/home/vinay/Desktop/softconsole_watershed/Water-shed/src/platform/mpfs_hal/common/mss_clint.h **** }
  59:/home/vinay/Desktop/softconsole_watershed/Water-shed/src/platform/mpfs_hal/common/mss_clint.h **** 
  60:/home/vinay/Desktop/softconsole_watershed/Water-shed/src/platform/mpfs_hal/common/mss_clint.h **** /*==============================================================================
  61:/home/vinay/Desktop/softconsole_watershed/Water-shed/src/platform/mpfs_hal/common/mss_clint.h ****  * The function clear_soft_interrupt() clears a synchronous software interrupt by
  62:/home/vinay/Desktop/softconsole_watershed/Water-shed/src/platform/mpfs_hal/common/mss_clint.h ****  * clearing the MSIP register.
  63:/home/vinay/Desktop/softconsole_watershed/Water-shed/src/platform/mpfs_hal/common/mss_clint.h ****  */
  64:/home/vinay/Desktop/softconsole_watershed/Water-shed/src/platform/mpfs_hal/common/mss_clint.h **** static inline void clear_soft_interrupt(void)
  65:/home/vinay/Desktop/softconsole_watershed/Water-shed/src/platform/mpfs_hal/common/mss_clint.h **** {
  15              		.loc 1 65 1
  16              		.cfi_startproc
  17 0000 7971     		addi	sp,sp,-48
  18              		.cfi_def_cfa_offset 48
  19 0002 22F4     		sd	s0,40(sp)
  20              		.cfi_offset 8, -8
  21 0004 0018     		addi	s0,sp,48
  22              		.cfi_def_cfa 8, 0
  23              	.LBB2:
  66:/home/vinay/Desktop/softconsole_watershed/Water-shed/src/platform/mpfs_hal/common/mss_clint.h ****     volatile uint32_t reg;
  67:/home/vinay/Desktop/softconsole_watershed/Water-shed/src/platform/mpfs_hal/common/mss_clint.h ****     uint64_t hart_id = read_csr(mhartid);
  24              		.loc 1 67 24
  25              	 #APP
  26              	# 67 "/home/vinay/Desktop/softconsole_watershed/Water-shed/src/platform/mpfs_hal/common/mss_clint.h
  68              	    CLINT->MSIP[hart_id] = 0x00U;   /*clear soft interrupt for hart0*/
  27              		csrr a5, mhartid
  28              	# 0 "" 2
  29              	 #NO_APP
  30 000a 2334F4FE 		sd	a5,-24(s0)
  31 000e 833784FE 		ld	a5,-24(s0)
  32              	.LBE2:
  67:/home/vinay/Desktop/softconsole_watershed/Water-shed/src/platform/mpfs_hal/common/mss_clint.h ****     uint64_t hart_id = read_csr(mhartid);
  33              		.loc 1 67 14
  34 0012 2330F4FE 		sd	a5,-32(s0)
  35              		.loc 1 68 10
  36 0016 37070002 		li	a4,33554432
  37              		.loc 1 68 26
  38 001a 833704FE 		ld	a5,-32(s0)
  39 001e 8A07     		slli	a5,a5,2
  40 0020 BA97     		add	a5,a4,a5
  41 0022 23A00700 		sw	zero,0(a5)
  69:/home/vinay/Desktop/softconsole_watershed/Water-shed/src/platform/mpfs_hal/common/mss_clint.h ****     reg = CLINT->MSIP[hart_id];     /* we read back to make sure it has been written before moving 
  42              		.loc 1 69 16
  43 0026 37070002 		li	a4,33554432
  44              		.loc 1 69 22
  45 002a 833704FE 		ld	a5,-32(s0)
  46 002e 8A07     		slli	a5,a5,2
  47 0030 BA97     		add	a5,a4,a5
  48 0032 9C43     		lw	a5,0(a5)
  49 0034 8127     		sext.w	a5,a5
  50              		.loc 1 69 9
  51 0036 232EF4FC 		sw	a5,-36(s0)
  70:/home/vinay/Desktop/softconsole_watershed/Water-shed/src/platform/mpfs_hal/common/mss_clint.h ****                                     /* todo: verify line above guaranteed and best way to achieve r
  71:/home/vinay/Desktop/softconsole_watershed/Water-shed/src/platform/mpfs_hal/common/mss_clint.h ****     (void)reg;                      /* use reg to avoid compiler warning */
  52              		.loc 1 71 5
  53 003a 8327C4FD 		lw	a5,-36(s0)
  72:/home/vinay/Desktop/softconsole_watershed/Water-shed/src/platform/mpfs_hal/common/mss_clint.h **** }
  54              		.loc 1 72 1
  55 003e 0100     		nop
  56 0040 2274     		ld	s0,40(sp)
  57              		.cfi_restore 8
  58              		.cfi_def_cfa 2, 48
  59 0042 4561     		addi	sp,sp,48
  60              		.cfi_def_cfa_offset 0
  61 0044 8280     		jr	ra
  62              		.cfi_endproc
  63              	.LFE5:
  65              		.globl	count_sw_ints_h2
  66              		.section	.sbss.count_sw_ints_h2,"aw",@nobits
  67              		.align	2
  70              	count_sw_ints_h2:
  71 0000 00000000 		.zero	4
  72              		.section	.text.u54_2,"ax",@progbits
  73              		.align	1
  74              		.globl	u54_2
  76              	u54_2:
  77              	.LFB23:
  78              		.file 2 "../src/application/hart2/u54_2.c"
   1:../src/application/hart2/u54_2.c **** /*******************************************************************************
   2:../src/application/hart2/u54_2.c ****  * Copyright 2019-2022 Microchip FPGA Embedded Systems Solutions.
   3:../src/application/hart2/u54_2.c ****  *
   4:../src/application/hart2/u54_2.c ****  * SPDX-License-Identifier: MIT
   5:../src/application/hart2/u54_2.c ****  *
   6:../src/application/hart2/u54_2.c ****  * Application code running on U54_2
   7:../src/application/hart2/u54_2.c ****  *
   8:../src/application/hart2/u54_2.c ****  */
   9:../src/application/hart2/u54_2.c **** 
  10:../src/application/hart2/u54_2.c **** #include <stdio.h>
  11:../src/application/hart2/u54_2.c **** #include <string.h>
  12:../src/application/hart2/u54_2.c **** #include "mpfs_hal/mss_hal.h"
  13:../src/application/hart2/u54_2.c **** #include "drivers/mss/mss_mmuart/mss_uart.h"
  14:../src/application/hart2/u54_2.c **** 
  15:../src/application/hart2/u54_2.c **** volatile uint32_t count_sw_ints_h2 = 0U;
  16:../src/application/hart2/u54_2.c **** 
  17:../src/application/hart2/u54_2.c **** 
  18:../src/application/hart2/u54_2.c **** /* Main function for the hart2(U54_2 processor).
  19:../src/application/hart2/u54_2.c ****  * Application code running on hart2 is placed here
  20:../src/application/hart2/u54_2.c ****  */
  21:../src/application/hart2/u54_2.c **** 
  22:../src/application/hart2/u54_2.c **** void u54_2(void)
  23:../src/application/hart2/u54_2.c **** {
  79              		.loc 2 23 1
  80              		.cfi_startproc
  81 0000 3971     		addi	sp,sp,-64
  82              		.cfi_def_cfa_offset 64
  83 0002 06FC     		sd	ra,56(sp)
  84 0004 22F8     		sd	s0,48(sp)
  85              		.cfi_offset 1, -8
  86              		.cfi_offset 8, -16
  87 0006 8000     		addi	s0,sp,64
  88              		.cfi_def_cfa 8, 0
  89              	.LBB3:
  24:../src/application/hart2/u54_2.c ****     uint64_t hartid = read_csr(mhartid);
  90              		.loc 2 24 23
  91              	 #APP
  92              	# 24 "../src/application/hart2/u54_2.c" 1
  25              	    volatile uint32_t icount = 0U;
  93              		csrr a5, mhartid
  94              	# 0 "" 2
  95              	 #NO_APP
  96 000c 2334F4FE 		sd	a5,-24(s0)
  97 0010 833784FE 		ld	a5,-24(s0)
  98              	.LBE3:
  24:../src/application/hart2/u54_2.c ****     uint64_t hartid = read_csr(mhartid);
  99              		.loc 2 24 14
 100 0014 2330F4FE 		sd	a5,-32(s0)
 101              		.loc 2 25 23
 102 0018 232604FC 		sw	zero,-52(s0)
  26:../src/application/hart2/u54_2.c **** 
  27:../src/application/hart2/u54_2.c ****     /* Clear pending software interrupt in case there was any.
  28:../src/application/hart2/u54_2.c ****        Enable only the software interrupt so that the E51 core can bring this
  29:../src/application/hart2/u54_2.c ****        core out of WFI by raising a software interrupt. */
  30:../src/application/hart2/u54_2.c **** 
  31:../src/application/hart2/u54_2.c ****     clear_soft_interrupt();
 103              		.loc 2 31 5
 104 001c 97000000 		call	clear_soft_interrupt
 104      E7800000 
 105              	.LBB4:
  32:../src/application/hart2/u54_2.c ****     set_csr(mie, MIP_MSIP);
 106              		.loc 2 32 5
 107              	 #APP
 108              	# 32 "../src/application/hart2/u54_2.c" 1
  33              	
 109              		csrrs a5, mie, 8
 110              	# 0 "" 2
 111              	 #NO_APP
 112 0028 233CF4FC 		sd	a5,-40(s0)
 113              	.L3:
 114              	.LBE4:
  34:../src/application/hart2/u54_2.c ****     /* Put this hart in WFI */
  35:../src/application/hart2/u54_2.c **** 
  36:../src/application/hart2/u54_2.c ****     do
  37:../src/application/hart2/u54_2.c ****     {
  38:../src/application/hart2/u54_2.c ****         __asm("wfi");
 115              		.loc 2 38 9 discriminator 1
 116              	 #APP
 117              	# 38 "../src/application/hart2/u54_2.c" 1
  39              	    }while(0 == (read_csr(mip) & MIP_MSIP));
 118              		wfi
 119              	# 0 "" 2
 120              	 #NO_APP
 121              	.LBB5:
 122              		.loc 2 39 18 discriminator 1
 123              	 #APP
 124              	# 39 "../src/application/hart2/u54_2.c" 1
  40              	
 125              		csrr a5, mip
 126              	# 0 "" 2
 127              	 #NO_APP
 128 0034 2338F4FC 		sd	a5,-48(s0)
 129 0038 833704FD 		ld	a5,-48(s0)
 130              	.LBE5:
  39:../src/application/hart2/u54_2.c **** 
 131              		.loc 2 39 32 discriminator 1
 132 003c A18B     		andi	a5,a5,8
  39:../src/application/hart2/u54_2.c **** 
 133              		.loc 2 39 5 discriminator 1
 134 003e FDD7     		beq	a5,zero,.L3
  41:../src/application/hart2/u54_2.c ****     /* The hart is out of WFI, clear the SW interrupt. Here onwards application
  42:../src/application/hart2/u54_2.c ****      * can enable and use any interrupts as required */
  43:../src/application/hart2/u54_2.c **** 
  44:../src/application/hart2/u54_2.c ****     clear_soft_interrupt();
 135              		.loc 2 44 5
 136 0040 97000000 		call	clear_soft_interrupt
 136      E7800000 
  45:../src/application/hart2/u54_2.c **** 
  46:../src/application/hart2/u54_2.c ****     __enable_irq();
 137              		.loc 2 46 5
 138 0048 97000000 		call	__enable_irq
 138      E7800000 
 139              	.L5:
  47:../src/application/hart2/u54_2.c **** 
  48:../src/application/hart2/u54_2.c ****     while (1U)
  49:../src/application/hart2/u54_2.c ****     {
  50:../src/application/hart2/u54_2.c ****         icount++;
 140              		.loc 2 50 15
 141 0050 8327C4FC 		lw	a5,-52(s0)
 142 0054 8127     		sext.w	a5,a5
 143 0056 8527     		addiw	a5,a5,1
 144 0058 8127     		sext.w	a5,a5
 145 005a 2326F4FC 		sw	a5,-52(s0)
  51:../src/application/hart2/u54_2.c ****         if (0x100000U == icount)
 146              		.loc 2 51 23
 147 005e 8327C4FC 		lw	a5,-52(s0)
 148 0062 8127     		sext.w	a5,a5
 149              		.loc 2 51 12
 150 0064 3E87     		mv	a4,a5
 151 0066 B7071000 		li	a5,1048576
 152 006a E313F7FE 		bne	a4,a5,.L5
  52:../src/application/hart2/u54_2.c ****         {
  53:../src/application/hart2/u54_2.c ****             icount = 0U;
 153              		.loc 2 53 20
 154 006e 232604FC 		sw	zero,-52(s0)
  50:../src/application/hart2/u54_2.c ****         if (0x100000U == icount)
 155              		.loc 2 50 15
 156 0072 F9BF     		j	.L5
 157              		.cfi_endproc
 158              	.LFE23:
 160              		.section	.text.U54_2_software_IRQHandler,"ax",@progbits
 161              		.align	1
 162              		.globl	U54_2_software_IRQHandler
 164              	U54_2_software_IRQHandler:
 165              	.LFB24:
  54:../src/application/hart2/u54_2.c ****         }
  55:../src/application/hart2/u54_2.c ****     }
  56:../src/application/hart2/u54_2.c **** 
  57:../src/application/hart2/u54_2.c ****     /* never return */
  58:../src/application/hart2/u54_2.c **** }
  59:../src/application/hart2/u54_2.c **** 
  60:../src/application/hart2/u54_2.c **** /* hart2 Software interrupt handler */
  61:../src/application/hart2/u54_2.c **** 
  62:../src/application/hart2/u54_2.c **** void Software_h2_IRQHandler(void)
  63:../src/application/hart2/u54_2.c **** {
 166              		.loc 2 63 1
 167              		.cfi_startproc
 168 0000 0111     		addi	sp,sp,-32
 169              		.cfi_def_cfa_offset 32
 170 0002 22EC     		sd	s0,24(sp)
 171              		.cfi_offset 8, -8
 172 0004 0010     		addi	s0,sp,32
 173              		.cfi_def_cfa 8, 0
 174              	.LBB6:
  64:../src/application/hart2/u54_2.c ****     uint64_t hart_id = read_csr(mhartid);
 175              		.loc 2 64 24
 176              	 #APP
 177              	# 64 "../src/application/hart2/u54_2.c" 1
  65              	    count_sw_ints_h2++;
 178              		csrr a5, mhartid
 179              	# 0 "" 2
 180              	 #NO_APP
 181 000a 2334F4FE 		sd	a5,-24(s0)
 182 000e 833784FE 		ld	a5,-24(s0)
 183              	.LBE6:
  64:../src/application/hart2/u54_2.c ****     uint64_t hart_id = read_csr(mhartid);
 184              		.loc 2 64 14
 185 0012 2330F4FE 		sd	a5,-32(s0)
 186              		.loc 2 65 21
 187 0016 97070000 		lla	a5,count_sw_ints_h2
 187      93870700 
 188 001e 9C43     		lw	a5,0(a5)
 189 0020 8127     		sext.w	a5,a5
 190 0022 8527     		addiw	a5,a5,1
 191 0024 1B870700 		sext.w	a4,a5
 192 0028 97070000 		lla	a5,count_sw_ints_h2
 192      93870700 
 193 0030 98C3     		sw	a4,0(a5)
  66:../src/application/hart2/u54_2.c **** }
 194              		.loc 2 66 1
 195 0032 0100     		nop
 196 0034 6264     		ld	s0,24(sp)
 197              		.cfi_restore 8
 198              		.cfi_def_cfa 2, 32
 199 0036 0561     		addi	sp,sp,32
 200              		.cfi_def_cfa_offset 0
 201 0038 8280     		jr	ra
 202              		.cfi_endproc
 203              	.LFE24:
 205              		.text
 206              	.Letext0:
 207              		.file 3 "/home/vinay/Desktop/soft_console/SoftConsole-v2022.2-RISC-V-747/riscv-unknown-elf-gcc/ris
 208              		.file 4 "/home/vinay/Desktop/soft_console/SoftConsole-v2022.2-RISC-V-747/riscv-unknown-elf-gcc/lib
 209              		.file 5 "/home/vinay/Desktop/soft_console/SoftConsole-v2022.2-RISC-V-747/riscv-unknown-elf-gcc/ris
 210              		.file 6 "/home/vinay/Desktop/soft_console/SoftConsole-v2022.2-RISC-V-747/riscv-unknown-elf-gcc/ris
 211              		.file 7 "/home/vinay/Desktop/soft_console/SoftConsole-v2022.2-RISC-V-747/riscv-unknown-elf-gcc/ris
 212              		.file 8 "/home/vinay/Desktop/soft_console/SoftConsole-v2022.2-RISC-V-747/riscv-unknown-elf-gcc/ris
 213              		.file 9 "/home/vinay/Desktop/softconsole_watershed/Water-shed/src/platform/mpfs_hal/common/nwc/mss
 214              		.file 10 "/home/vinay/Desktop/softconsole_watershed/Water-shed/src/platform/mpfs_hal/common/nwc/ms
 215              		.file 11 "/home/vinay/Desktop/softconsole_watershed/Water-shed/src/platform/mpfs_hal/common/nwc/ms
 216              		.file 12 "/home/vinay/Desktop/softconsole_watershed/Water-shed/src/platform/mpfs_hal/common/mss_mp
 217              		.file 13 "/home/vinay/Desktop/softconsole_watershed/Water-shed/src/platform/mpfs_hal/common/mss_pl
 218              		.file 14 "/home/vinay/Desktop/softconsole_watershed/Water-shed/src/platform/mpfs_hal/startup_gcc/s
 219              		.file 15 "/home/vinay/Desktop/softconsole_watershed/Water-shed/src/platform/drivers/mss/mss_mmuart