   1              		.file	"u54_1.c"
   2              		.option nopic
   3              		.attribute arch, "rv64i2p0_m2p0_a2p0_f2p0_d2p0_c2p0"
   4              		.attribute unaligned_access, 0
   5              		.attribute stack_align, 16
   6              		.text
   7              	.Ltext0:
   8              		.cfi_sections	.debug_frame
   9              		.section	.text.clear_soft_interrupt,"ax",@progbits
  10              		.align	1
  12              	clear_soft_interrupt:
  13              	.LFB5:
  14              		.file 1 "/home/vinay/Desktop/softconsole_watershed/Water-shed/src/platform/mpfs_hal/common/mss_cli
   1:/home/vinay/Desktop/softconsole_watershed/Water-shed/src/platform/mpfs_hal/common/mss_clint.h **** /*******************************************************************************
   2:/home/vinay/Desktop/softconsole_watershed/Water-shed/src/platform/mpfs_hal/common/mss_clint.h ****  * Copyright 2019-2022 Microchip FPGA Embedded Systems Solutions.
   3:/home/vinay/Desktop/softconsole_watershed/Water-shed/src/platform/mpfs_hal/common/mss_clint.h ****  *
   4:/home/vinay/Desktop/softconsole_watershed/Water-shed/src/platform/mpfs_hal/common/mss_clint.h ****  * SPDX-License-Identifier: MIT
   5:/home/vinay/Desktop/softconsole_watershed/Water-shed/src/platform/mpfs_hal/common/mss_clint.h ****  *
   6:/home/vinay/Desktop/softconsole_watershed/Water-shed/src/platform/mpfs_hal/common/mss_clint.h ****  * MPFS HAL Embedded Software
   7:/home/vinay/Desktop/softconsole_watershed/Water-shed/src/platform/mpfs_hal/common/mss_clint.h ****  *
   8:/home/vinay/Desktop/softconsole_watershed/Water-shed/src/platform/mpfs_hal/common/mss_clint.h ****  */
   9:/home/vinay/Desktop/softconsole_watershed/Water-shed/src/platform/mpfs_hal/common/mss_clint.h **** 
  10:/home/vinay/Desktop/softconsole_watershed/Water-shed/src/platform/mpfs_hal/common/mss_clint.h **** /*******************************************************************************
  11:/home/vinay/Desktop/softconsole_watershed/Water-shed/src/platform/mpfs_hal/common/mss_clint.h ****  *
  12:/home/vinay/Desktop/softconsole_watershed/Water-shed/src/platform/mpfs_hal/common/mss_clint.h ****  * @file mss_clint.h
  13:/home/vinay/Desktop/softconsole_watershed/Water-shed/src/platform/mpfs_hal/common/mss_clint.h ****  * @author Microchip-FPGA Embedded Systems Solutions
  14:/home/vinay/Desktop/softconsole_watershed/Water-shed/src/platform/mpfs_hal/common/mss_clint.h ****  * @brief CLINT access data structures and functions.
  15:/home/vinay/Desktop/softconsole_watershed/Water-shed/src/platform/mpfs_hal/common/mss_clint.h ****  *
  16:/home/vinay/Desktop/softconsole_watershed/Water-shed/src/platform/mpfs_hal/common/mss_clint.h ****  */
  17:/home/vinay/Desktop/softconsole_watershed/Water-shed/src/platform/mpfs_hal/common/mss_clint.h **** #ifndef MSS_CLINT_H
  18:/home/vinay/Desktop/softconsole_watershed/Water-shed/src/platform/mpfs_hal/common/mss_clint.h **** #define MSS_CLINT_H
  19:/home/vinay/Desktop/softconsole_watershed/Water-shed/src/platform/mpfs_hal/common/mss_clint.h **** 
  20:/home/vinay/Desktop/softconsole_watershed/Water-shed/src/platform/mpfs_hal/common/mss_clint.h **** #include <stdint.h>
  21:/home/vinay/Desktop/softconsole_watershed/Water-shed/src/platform/mpfs_hal/common/mss_clint.h **** #include "encoding.h"
  22:/home/vinay/Desktop/softconsole_watershed/Water-shed/src/platform/mpfs_hal/common/mss_clint.h **** #include "atomic.h"
  23:/home/vinay/Desktop/softconsole_watershed/Water-shed/src/platform/mpfs_hal/common/mss_clint.h **** 
  24:/home/vinay/Desktop/softconsole_watershed/Water-shed/src/platform/mpfs_hal/common/mss_clint.h **** #ifdef __cplusplus
  25:/home/vinay/Desktop/softconsole_watershed/Water-shed/src/platform/mpfs_hal/common/mss_clint.h **** extern "C" {
  26:/home/vinay/Desktop/softconsole_watershed/Water-shed/src/platform/mpfs_hal/common/mss_clint.h **** #endif
  27:/home/vinay/Desktop/softconsole_watershed/Water-shed/src/platform/mpfs_hal/common/mss_clint.h **** 
  28:/home/vinay/Desktop/softconsole_watershed/Water-shed/src/platform/mpfs_hal/common/mss_clint.h **** #define RTC_PRESCALER 100U
  29:/home/vinay/Desktop/softconsole_watershed/Water-shed/src/platform/mpfs_hal/common/mss_clint.h **** #define SUCCESS 0U
  30:/home/vinay/Desktop/softconsole_watershed/Water-shed/src/platform/mpfs_hal/common/mss_clint.h **** #define ERROR   1U
  31:/home/vinay/Desktop/softconsole_watershed/Water-shed/src/platform/mpfs_hal/common/mss_clint.h **** 
  32:/home/vinay/Desktop/softconsole_watershed/Water-shed/src/platform/mpfs_hal/common/mss_clint.h **** 
  33:/home/vinay/Desktop/softconsole_watershed/Water-shed/src/platform/mpfs_hal/common/mss_clint.h **** /*==============================================================================
  34:/home/vinay/Desktop/softconsole_watershed/Water-shed/src/platform/mpfs_hal/common/mss_clint.h ****  * CLINT: Core Local Interrupter
  35:/home/vinay/Desktop/softconsole_watershed/Water-shed/src/platform/mpfs_hal/common/mss_clint.h ****  */
  36:/home/vinay/Desktop/softconsole_watershed/Water-shed/src/platform/mpfs_hal/common/mss_clint.h **** typedef struct CLINT_Type_t
  37:/home/vinay/Desktop/softconsole_watershed/Water-shed/src/platform/mpfs_hal/common/mss_clint.h **** {
  38:/home/vinay/Desktop/softconsole_watershed/Water-shed/src/platform/mpfs_hal/common/mss_clint.h ****     volatile uint32_t MSIP[5];
  39:/home/vinay/Desktop/softconsole_watershed/Water-shed/src/platform/mpfs_hal/common/mss_clint.h ****     volatile uint32_t reserved1[(0x4000U - 0x14U)/4U];
  40:/home/vinay/Desktop/softconsole_watershed/Water-shed/src/platform/mpfs_hal/common/mss_clint.h ****     volatile uint64_t MTIMECMP[5];  /* mtime compare value for each hart. When mtime equals this va
  41:/home/vinay/Desktop/softconsole_watershed/Water-shed/src/platform/mpfs_hal/common/mss_clint.h ****     volatile uint32_t reserved2[((0xbff8U - 0x4028U)/4U)];
  42:/home/vinay/Desktop/softconsole_watershed/Water-shed/src/platform/mpfs_hal/common/mss_clint.h ****     volatile uint64_t MTIME;    /* contains the current mtime value */
  43:/home/vinay/Desktop/softconsole_watershed/Water-shed/src/platform/mpfs_hal/common/mss_clint.h **** } CLINT_Type;
  44:/home/vinay/Desktop/softconsole_watershed/Water-shed/src/platform/mpfs_hal/common/mss_clint.h **** 
  45:/home/vinay/Desktop/softconsole_watershed/Water-shed/src/platform/mpfs_hal/common/mss_clint.h **** #define CLINT    ((CLINT_Type *)CLINT_BASE)
  46:/home/vinay/Desktop/softconsole_watershed/Water-shed/src/platform/mpfs_hal/common/mss_clint.h **** 
  47:/home/vinay/Desktop/softconsole_watershed/Water-shed/src/platform/mpfs_hal/common/mss_clint.h **** 
  48:/home/vinay/Desktop/softconsole_watershed/Water-shed/src/platform/mpfs_hal/common/mss_clint.h **** /*==============================================================================
  49:/home/vinay/Desktop/softconsole_watershed/Water-shed/src/platform/mpfs_hal/common/mss_clint.h ****  * The function raise_soft_interrupt() raises a synchronous software interrupt by
  50:/home/vinay/Desktop/softconsole_watershed/Water-shed/src/platform/mpfs_hal/common/mss_clint.h ****  * writing into the MSIP register.
  51:/home/vinay/Desktop/softconsole_watershed/Water-shed/src/platform/mpfs_hal/common/mss_clint.h ****  */
  52:/home/vinay/Desktop/softconsole_watershed/Water-shed/src/platform/mpfs_hal/common/mss_clint.h **** static inline void raise_soft_interrupt(unsigned long hart_id)
  53:/home/vinay/Desktop/softconsole_watershed/Water-shed/src/platform/mpfs_hal/common/mss_clint.h **** {
  54:/home/vinay/Desktop/softconsole_watershed/Water-shed/src/platform/mpfs_hal/common/mss_clint.h ****     /*You need to make sure that the global interrupt is enabled*/
  55:/home/vinay/Desktop/softconsole_watershed/Water-shed/src/platform/mpfs_hal/common/mss_clint.h ****     /*Note:  set_csr(mie, MIP_MSIP) needs to be set on hart you are setting sw interrupt */
  56:/home/vinay/Desktop/softconsole_watershed/Water-shed/src/platform/mpfs_hal/common/mss_clint.h ****     CLINT->MSIP[hart_id] = 0x01U;   /*raise soft interrupt for hart(x) where x== hart ID*/
  57:/home/vinay/Desktop/softconsole_watershed/Water-shed/src/platform/mpfs_hal/common/mss_clint.h ****     mb();
  58:/home/vinay/Desktop/softconsole_watershed/Water-shed/src/platform/mpfs_hal/common/mss_clint.h **** }
  59:/home/vinay/Desktop/softconsole_watershed/Water-shed/src/platform/mpfs_hal/common/mss_clint.h **** 
  60:/home/vinay/Desktop/softconsole_watershed/Water-shed/src/platform/mpfs_hal/common/mss_clint.h **** /*==============================================================================
  61:/home/vinay/Desktop/softconsole_watershed/Water-shed/src/platform/mpfs_hal/common/mss_clint.h ****  * The function clear_soft_interrupt() clears a synchronous software interrupt by
  62:/home/vinay/Desktop/softconsole_watershed/Water-shed/src/platform/mpfs_hal/common/mss_clint.h ****  * clearing the MSIP register.
  63:/home/vinay/Desktop/softconsole_watershed/Water-shed/src/platform/mpfs_hal/common/mss_clint.h ****  */
  64:/home/vinay/Desktop/softconsole_watershed/Water-shed/src/platform/mpfs_hal/common/mss_clint.h **** static inline void clear_soft_interrupt(void)
  65:/home/vinay/Desktop/softconsole_watershed/Water-shed/src/platform/mpfs_hal/common/mss_clint.h **** {
  15              		.loc 1 65 1
  16              		.cfi_startproc
  17 0000 7971     		addi	sp,sp,-48
  18              		.cfi_def_cfa_offset 48
  19 0002 22F4     		sd	s0,40(sp)
  20              		.cfi_offset 8, -8
  21 0004 0018     		addi	s0,sp,48
  22              		.cfi_def_cfa 8, 0
  23              	.LBB2:
  66:/home/vinay/Desktop/softconsole_watershed/Water-shed/src/platform/mpfs_hal/common/mss_clint.h ****     volatile uint32_t reg;
  67:/home/vinay/Desktop/softconsole_watershed/Water-shed/src/platform/mpfs_hal/common/mss_clint.h ****     uint64_t hart_id = read_csr(mhartid);
  24              		.loc 1 67 24
  25              	 #APP
  26              	# 67 "/home/vinay/Desktop/softconsole_watershed/Water-shed/src/platform/mpfs_hal/common/mss_clint.h
  68              	    CLINT->MSIP[hart_id] = 0x00U;   /*clear soft interrupt for hart0*/
  27              		csrr a5, mhartid
  28              	# 0 "" 2
  29              	 #NO_APP
  30 000a 2334F4FE 		sd	a5,-24(s0)
  31 000e 833784FE 		ld	a5,-24(s0)
  32              	.LBE2:
  67:/home/vinay/Desktop/softconsole_watershed/Water-shed/src/platform/mpfs_hal/common/mss_clint.h ****     uint64_t hart_id = read_csr(mhartid);
  33              		.loc 1 67 14
  34 0012 2330F4FE 		sd	a5,-32(s0)
  35              		.loc 1 68 10
  36 0016 37070002 		li	a4,33554432
  37              		.loc 1 68 26
  38 001a 833704FE 		ld	a5,-32(s0)
  39 001e 8A07     		slli	a5,a5,2
  40 0020 BA97     		add	a5,a4,a5
  41 0022 23A00700 		sw	zero,0(a5)
  69:/home/vinay/Desktop/softconsole_watershed/Water-shed/src/platform/mpfs_hal/common/mss_clint.h ****     reg = CLINT->MSIP[hart_id];     /* we read back to make sure it has been written before moving 
  42              		.loc 1 69 16
  43 0026 37070002 		li	a4,33554432
  44              		.loc 1 69 22
  45 002a 833704FE 		ld	a5,-32(s0)
  46 002e 8A07     		slli	a5,a5,2
  47 0030 BA97     		add	a5,a4,a5
  48 0032 9C43     		lw	a5,0(a5)
  49 0034 8127     		sext.w	a5,a5
  50              		.loc 1 69 9
  51 0036 232EF4FC 		sw	a5,-36(s0)
  70:/home/vinay/Desktop/softconsole_watershed/Water-shed/src/platform/mpfs_hal/common/mss_clint.h ****                                     /* todo: verify line above guaranteed and best way to achieve r
  71:/home/vinay/Desktop/softconsole_watershed/Water-shed/src/platform/mpfs_hal/common/mss_clint.h ****     (void)reg;                      /* use reg to avoid compiler warning */
  52              		.loc 1 71 5
  53 003a 8327C4FD 		lw	a5,-36(s0)
  72:/home/vinay/Desktop/softconsole_watershed/Water-shed/src/platform/mpfs_hal/common/mss_clint.h **** }
  54              		.loc 1 72 1
  55 003e 0100     		nop
  56 0040 2274     		ld	s0,40(sp)
  57              		.cfi_restore 8
  58              		.cfi_def_cfa 2, 48
  59 0042 4561     		addi	sp,sp,48
  60              		.cfi_def_cfa_offset 0
  61 0044 8280     		jr	ra
  62              		.cfi_endproc
  63              	.LFE5:
  65              		.section	.text.PLIC_init,"ax",@progbits
  66              		.align	1
  68              	PLIC_init:
  69              	.LFB10:
  70              		.file 2 "/home/vinay/Desktop/softconsole_watershed/Water-shed/src/platform/mpfs_hal/common/mss_pli
   1:/home/vinay/Desktop/softconsole_watershed/Water-shed/src/platform/mpfs_hal/common/mss_plic.h **** /*******************************************************************************
   2:/home/vinay/Desktop/softconsole_watershed/Water-shed/src/platform/mpfs_hal/common/mss_plic.h ****  * Copyright 2019-2022 Microchip FPGA Embedded Systems Solutions.
   3:/home/vinay/Desktop/softconsole_watershed/Water-shed/src/platform/mpfs_hal/common/mss_plic.h ****  *
   4:/home/vinay/Desktop/softconsole_watershed/Water-shed/src/platform/mpfs_hal/common/mss_plic.h ****  * SPDX-License-Identifier: MIT
   5:/home/vinay/Desktop/softconsole_watershed/Water-shed/src/platform/mpfs_hal/common/mss_plic.h ****  *
   6:/home/vinay/Desktop/softconsole_watershed/Water-shed/src/platform/mpfs_hal/common/mss_plic.h ****  * MPFS HAL Embedded Software
   7:/home/vinay/Desktop/softconsole_watershed/Water-shed/src/platform/mpfs_hal/common/mss_plic.h ****  *
   8:/home/vinay/Desktop/softconsole_watershed/Water-shed/src/platform/mpfs_hal/common/mss_plic.h ****  */
   9:/home/vinay/Desktop/softconsole_watershed/Water-shed/src/platform/mpfs_hal/common/mss_plic.h **** 
  10:/home/vinay/Desktop/softconsole_watershed/Water-shed/src/platform/mpfs_hal/common/mss_plic.h **** /*******************************************************************************
  11:/home/vinay/Desktop/softconsole_watershed/Water-shed/src/platform/mpfs_hal/common/mss_plic.h ****  *
  12:/home/vinay/Desktop/softconsole_watershed/Water-shed/src/platform/mpfs_hal/common/mss_plic.h ****  * @file mss_plic.h
  13:/home/vinay/Desktop/softconsole_watershed/Water-shed/src/platform/mpfs_hal/common/mss_plic.h ****  * @author Microchip-FPGA Embedded Systems Solutions
  14:/home/vinay/Desktop/softconsole_watershed/Water-shed/src/platform/mpfs_hal/common/mss_plic.h ****  * @brief PolarFire SoC MSS PLIC and PRCI access data structures and functions.
  15:/home/vinay/Desktop/softconsole_watershed/Water-shed/src/platform/mpfs_hal/common/mss_plic.h ****  *
  16:/home/vinay/Desktop/softconsole_watershed/Water-shed/src/platform/mpfs_hal/common/mss_plic.h ****  * Definitions and functions associated with PLIC interrupts.
  17:/home/vinay/Desktop/softconsole_watershed/Water-shed/src/platform/mpfs_hal/common/mss_plic.h ****  *
  18:/home/vinay/Desktop/softconsole_watershed/Water-shed/src/platform/mpfs_hal/common/mss_plic.h ****  */
  19:/home/vinay/Desktop/softconsole_watershed/Water-shed/src/platform/mpfs_hal/common/mss_plic.h **** #ifndef MSS_PLIC_H
  20:/home/vinay/Desktop/softconsole_watershed/Water-shed/src/platform/mpfs_hal/common/mss_plic.h **** #define MSS_PLIC_H
  21:/home/vinay/Desktop/softconsole_watershed/Water-shed/src/platform/mpfs_hal/common/mss_plic.h **** 
  22:/home/vinay/Desktop/softconsole_watershed/Water-shed/src/platform/mpfs_hal/common/mss_plic.h **** #include <stdint.h>
  23:/home/vinay/Desktop/softconsole_watershed/Water-shed/src/platform/mpfs_hal/common/mss_plic.h **** #ifndef CONFIG_OPENSBI
  24:/home/vinay/Desktop/softconsole_watershed/Water-shed/src/platform/mpfs_hal/common/mss_plic.h **** #include "encoding.h"
  25:/home/vinay/Desktop/softconsole_watershed/Water-shed/src/platform/mpfs_hal/common/mss_plic.h **** #endif
  26:/home/vinay/Desktop/softconsole_watershed/Water-shed/src/platform/mpfs_hal/common/mss_plic.h **** 
  27:/home/vinay/Desktop/softconsole_watershed/Water-shed/src/platform/mpfs_hal/common/mss_plic.h **** #include "mss_legacy_defines.h"
  28:/home/vinay/Desktop/softconsole_watershed/Water-shed/src/platform/mpfs_hal/common/mss_plic.h **** #include "mss_assert.h"
  29:/home/vinay/Desktop/softconsole_watershed/Water-shed/src/platform/mpfs_hal/common/mss_plic.h **** 
  30:/home/vinay/Desktop/softconsole_watershed/Water-shed/src/platform/mpfs_hal/common/mss_plic.h **** #ifdef __cplusplus
  31:/home/vinay/Desktop/softconsole_watershed/Water-shed/src/platform/mpfs_hal/common/mss_plic.h **** extern "C" {
  32:/home/vinay/Desktop/softconsole_watershed/Water-shed/src/platform/mpfs_hal/common/mss_plic.h **** #endif
  33:/home/vinay/Desktop/softconsole_watershed/Water-shed/src/platform/mpfs_hal/common/mss_plic.h **** 
  34:/home/vinay/Desktop/softconsole_watershed/Water-shed/src/platform/mpfs_hal/common/mss_plic.h **** /*
  35:/home/vinay/Desktop/softconsole_watershed/Water-shed/src/platform/mpfs_hal/common/mss_plic.h ****  *Return value from External IRQ handler. This will be used to disable the
  36:/home/vinay/Desktop/softconsole_watershed/Water-shed/src/platform/mpfs_hal/common/mss_plic.h ****  *Return External interrupt.
  37:/home/vinay/Desktop/softconsole_watershed/Water-shed/src/platform/mpfs_hal/common/mss_plic.h ****  */
  38:/home/vinay/Desktop/softconsole_watershed/Water-shed/src/platform/mpfs_hal/common/mss_plic.h **** #define EXT_IRQ_KEEP_ENABLED                                0U
  39:/home/vinay/Desktop/softconsole_watershed/Water-shed/src/platform/mpfs_hal/common/mss_plic.h **** #define EXT_IRQ_DISABLE                                     1U
  40:/home/vinay/Desktop/softconsole_watershed/Water-shed/src/platform/mpfs_hal/common/mss_plic.h **** 
  41:/home/vinay/Desktop/softconsole_watershed/Water-shed/src/platform/mpfs_hal/common/mss_plic.h **** /*------------------------------------------------------------------------------
  42:/home/vinay/Desktop/softconsole_watershed/Water-shed/src/platform/mpfs_hal/common/mss_plic.h ****  *
  43:/home/vinay/Desktop/softconsole_watershed/Water-shed/src/platform/mpfs_hal/common/mss_plic.h ****  */
  44:/home/vinay/Desktop/softconsole_watershed/Water-shed/src/platform/mpfs_hal/common/mss_plic.h **** uint8_t  PLIC_Invalid_IRQHandler(void);
  45:/home/vinay/Desktop/softconsole_watershed/Water-shed/src/platform/mpfs_hal/common/mss_plic.h **** uint8_t  PLIC_l2_metadata_corr_IRQHandler(void);
  46:/home/vinay/Desktop/softconsole_watershed/Water-shed/src/platform/mpfs_hal/common/mss_plic.h **** uint8_t  PLIC_l2_metadata_uncorr_IRQHandler(void);
  47:/home/vinay/Desktop/softconsole_watershed/Water-shed/src/platform/mpfs_hal/common/mss_plic.h **** uint8_t  PLIC_l2_data_corr_IRQHandler(void);
  48:/home/vinay/Desktop/softconsole_watershed/Water-shed/src/platform/mpfs_hal/common/mss_plic.h **** uint8_t  PLIC_l2_data_uncorr_IRQHandler(void);
  49:/home/vinay/Desktop/softconsole_watershed/Water-shed/src/platform/mpfs_hal/common/mss_plic.h **** uint8_t  PLIC_dma_ch0_DONE_IRQHandler(void);
  50:/home/vinay/Desktop/softconsole_watershed/Water-shed/src/platform/mpfs_hal/common/mss_plic.h **** uint8_t  PLIC_dma_ch0_ERR_IRQHandler(void);
  51:/home/vinay/Desktop/softconsole_watershed/Water-shed/src/platform/mpfs_hal/common/mss_plic.h **** uint8_t  PLIC_dma_ch1_DONE_IRQHandler(void);
  52:/home/vinay/Desktop/softconsole_watershed/Water-shed/src/platform/mpfs_hal/common/mss_plic.h **** uint8_t  PLIC_dma_ch1_ERR_IRQHandler(void);
  53:/home/vinay/Desktop/softconsole_watershed/Water-shed/src/platform/mpfs_hal/common/mss_plic.h **** uint8_t  PLIC_dma_ch2_DONE_IRQHandler(void);
  54:/home/vinay/Desktop/softconsole_watershed/Water-shed/src/platform/mpfs_hal/common/mss_plic.h **** uint8_t  PLIC_dma_ch2_ERR_IRQHandler(void);
  55:/home/vinay/Desktop/softconsole_watershed/Water-shed/src/platform/mpfs_hal/common/mss_plic.h **** uint8_t  PLIC_dma_ch3_DONE_IRQHandler(void);
  56:/home/vinay/Desktop/softconsole_watershed/Water-shed/src/platform/mpfs_hal/common/mss_plic.h **** uint8_t  PLIC_dma_ch3_ERR_IRQHandler(void);
  57:/home/vinay/Desktop/softconsole_watershed/Water-shed/src/platform/mpfs_hal/common/mss_plic.h **** uint8_t  PLIC_gpio0_bit0_or_gpio2_bit13_IRQHandler(void);
  58:/home/vinay/Desktop/softconsole_watershed/Water-shed/src/platform/mpfs_hal/common/mss_plic.h **** uint8_t  PLIC_gpio0_bit1_or_gpio2_bit13_IRQHandler(void);
  59:/home/vinay/Desktop/softconsole_watershed/Water-shed/src/platform/mpfs_hal/common/mss_plic.h **** uint8_t  PLIC_gpio0_bit2_or_gpio2_bit13_IRQHandler(void);
  60:/home/vinay/Desktop/softconsole_watershed/Water-shed/src/platform/mpfs_hal/common/mss_plic.h **** uint8_t  PLIC_gpio0_bit3_or_gpio2_bit13_IRQHandler(void);
  61:/home/vinay/Desktop/softconsole_watershed/Water-shed/src/platform/mpfs_hal/common/mss_plic.h **** uint8_t  PLIC_gpio0_bit4_or_gpio2_bit13_IRQHandler(void);
  62:/home/vinay/Desktop/softconsole_watershed/Water-shed/src/platform/mpfs_hal/common/mss_plic.h **** uint8_t  PLIC_gpio0_bit5_or_gpio2_bit13_IRQHandler(void);
  63:/home/vinay/Desktop/softconsole_watershed/Water-shed/src/platform/mpfs_hal/common/mss_plic.h **** uint8_t  PLIC_gpio0_bit6_or_gpio2_bit13_IRQHandler(void);
  64:/home/vinay/Desktop/softconsole_watershed/Water-shed/src/platform/mpfs_hal/common/mss_plic.h **** uint8_t  PLIC_gpio0_bit7_or_gpio2_bit13_IRQHandler(void);
  65:/home/vinay/Desktop/softconsole_watershed/Water-shed/src/platform/mpfs_hal/common/mss_plic.h **** uint8_t  PLIC_gpio0_bit8_or_gpio2_bit13_IRQHandler(void);
  66:/home/vinay/Desktop/softconsole_watershed/Water-shed/src/platform/mpfs_hal/common/mss_plic.h **** uint8_t  PLIC_gpio0_bit9_or_gpio2_bit13_IRQHandler(void);
  67:/home/vinay/Desktop/softconsole_watershed/Water-shed/src/platform/mpfs_hal/common/mss_plic.h **** uint8_t  PLIC_gpio0_bit10_or_gpio2_bit13_IRQHandler(void);
  68:/home/vinay/Desktop/softconsole_watershed/Water-shed/src/platform/mpfs_hal/common/mss_plic.h **** uint8_t  PLIC_gpio0_bit11_or_gpio2_bit13_IRQHandler(void);
  69:/home/vinay/Desktop/softconsole_watershed/Water-shed/src/platform/mpfs_hal/common/mss_plic.h **** uint8_t  PLIC_gpio0_bit12_or_gpio2_bit13_IRQHandler(void);
  70:/home/vinay/Desktop/softconsole_watershed/Water-shed/src/platform/mpfs_hal/common/mss_plic.h **** 
  71:/home/vinay/Desktop/softconsole_watershed/Water-shed/src/platform/mpfs_hal/common/mss_plic.h **** uint8_t  PLIC_gpio0_bit13_or_gpio2_bit13_IRQHandler(void);
  72:/home/vinay/Desktop/softconsole_watershed/Water-shed/src/platform/mpfs_hal/common/mss_plic.h **** uint8_t  PLIC_gpio1_bit0_or_gpio2_bit14_IRQHandler(void);
  73:/home/vinay/Desktop/softconsole_watershed/Water-shed/src/platform/mpfs_hal/common/mss_plic.h **** uint8_t  PLIC_gpio1_bit1_or_gpio2_bit15_IRQHandler(void);
  74:/home/vinay/Desktop/softconsole_watershed/Water-shed/src/platform/mpfs_hal/common/mss_plic.h **** uint8_t  PLIC_gpio1_bit2_or_gpio2_bit16_IRQHandler(void);
  75:/home/vinay/Desktop/softconsole_watershed/Water-shed/src/platform/mpfs_hal/common/mss_plic.h **** uint8_t  PLIC_gpio1_bit3_or_gpio2_bit17_IRQHandler(void);
  76:/home/vinay/Desktop/softconsole_watershed/Water-shed/src/platform/mpfs_hal/common/mss_plic.h **** uint8_t  PLIC_gpio1_bit4_or_gpio2_bit18_IRQHandler(void);
  77:/home/vinay/Desktop/softconsole_watershed/Water-shed/src/platform/mpfs_hal/common/mss_plic.h **** uint8_t  PLIC_gpio1_bit5_or_gpio2_bit19_IRQHandler(void);
  78:/home/vinay/Desktop/softconsole_watershed/Water-shed/src/platform/mpfs_hal/common/mss_plic.h **** uint8_t  PLIC_gpio1_bit6_or_gpio2_bit20_IRQHandler(void);
  79:/home/vinay/Desktop/softconsole_watershed/Water-shed/src/platform/mpfs_hal/common/mss_plic.h **** uint8_t  PLIC_gpio1_bit7_or_gpio2_bit21_IRQHandler(void);
  80:/home/vinay/Desktop/softconsole_watershed/Water-shed/src/platform/mpfs_hal/common/mss_plic.h **** uint8_t  PLIC_gpio1_bit8_or_gpio2_bit22_IRQHandler(void);
  81:/home/vinay/Desktop/softconsole_watershed/Water-shed/src/platform/mpfs_hal/common/mss_plic.h **** uint8_t  PLIC_gpio1_bit9_or_gpio2_bit23_IRQHandler(void);
  82:/home/vinay/Desktop/softconsole_watershed/Water-shed/src/platform/mpfs_hal/common/mss_plic.h **** uint8_t  PLIC_gpio1_bit10_or_gpio2_bit24_IRQHandler(void);
  83:/home/vinay/Desktop/softconsole_watershed/Water-shed/src/platform/mpfs_hal/common/mss_plic.h **** uint8_t  PLIC_gpio1_bit11_or_gpio2_bit25_IRQHandler(void);
  84:/home/vinay/Desktop/softconsole_watershed/Water-shed/src/platform/mpfs_hal/common/mss_plic.h **** uint8_t  PLIC_gpio1_bit12_or_gpio2_bit26_IRQHandler(void);
  85:/home/vinay/Desktop/softconsole_watershed/Water-shed/src/platform/mpfs_hal/common/mss_plic.h **** uint8_t  PLIC_gpio1_bit13_or_gpio2_bit27_IRQHandler(void);
  86:/home/vinay/Desktop/softconsole_watershed/Water-shed/src/platform/mpfs_hal/common/mss_plic.h **** 
  87:/home/vinay/Desktop/softconsole_watershed/Water-shed/src/platform/mpfs_hal/common/mss_plic.h **** uint8_t  PLIC_gpio1_bit14_or_gpio2_bit28_IRQHandler(void);
  88:/home/vinay/Desktop/softconsole_watershed/Water-shed/src/platform/mpfs_hal/common/mss_plic.h **** uint8_t  PLIC_gpio1_bit15_or_gpio2_bit29_IRQHandler(void);
  89:/home/vinay/Desktop/softconsole_watershed/Water-shed/src/platform/mpfs_hal/common/mss_plic.h **** uint8_t  PLIC_gpio1_bit16_or_gpio2_bit30_IRQHandler(void);
  90:/home/vinay/Desktop/softconsole_watershed/Water-shed/src/platform/mpfs_hal/common/mss_plic.h **** uint8_t  PLIC_gpio1_bit17_or_gpio2_bit31_IRQHandler(void);
  91:/home/vinay/Desktop/softconsole_watershed/Water-shed/src/platform/mpfs_hal/common/mss_plic.h **** 
  92:/home/vinay/Desktop/softconsole_watershed/Water-shed/src/platform/mpfs_hal/common/mss_plic.h **** uint8_t  PLIC_gpio1_bit18_IRQHandler(void);
  93:/home/vinay/Desktop/softconsole_watershed/Water-shed/src/platform/mpfs_hal/common/mss_plic.h **** uint8_t  PLIC_gpio1_bit19_IRQHandler(void);
  94:/home/vinay/Desktop/softconsole_watershed/Water-shed/src/platform/mpfs_hal/common/mss_plic.h **** uint8_t  PLIC_gpio1_bit20_IRQHandler(void);
  95:/home/vinay/Desktop/softconsole_watershed/Water-shed/src/platform/mpfs_hal/common/mss_plic.h **** uint8_t  PLIC_gpio1_bit21_IRQHandler(void);
  96:/home/vinay/Desktop/softconsole_watershed/Water-shed/src/platform/mpfs_hal/common/mss_plic.h **** uint8_t  PLIC_gpio1_bit22_IRQHandler(void);
  97:/home/vinay/Desktop/softconsole_watershed/Water-shed/src/platform/mpfs_hal/common/mss_plic.h **** uint8_t  PLIC_gpio1_bit23_IRQHandler(void);
  98:/home/vinay/Desktop/softconsole_watershed/Water-shed/src/platform/mpfs_hal/common/mss_plic.h **** 
  99:/home/vinay/Desktop/softconsole_watershed/Water-shed/src/platform/mpfs_hal/common/mss_plic.h **** uint8_t  PLIC_gpio0_non_direct_IRQHandler(void);
 100:/home/vinay/Desktop/softconsole_watershed/Water-shed/src/platform/mpfs_hal/common/mss_plic.h **** uint8_t  PLIC_gpio1_non_direct_IRQHandler(void);
 101:/home/vinay/Desktop/softconsole_watershed/Water-shed/src/platform/mpfs_hal/common/mss_plic.h **** uint8_t  PLIC_gpio2_non_direct_IRQHandler(void);
 102:/home/vinay/Desktop/softconsole_watershed/Water-shed/src/platform/mpfs_hal/common/mss_plic.h **** 
 103:/home/vinay/Desktop/softconsole_watershed/Water-shed/src/platform/mpfs_hal/common/mss_plic.h **** uint8_t  PLIC_spi0_IRQHandler(void);
 104:/home/vinay/Desktop/softconsole_watershed/Water-shed/src/platform/mpfs_hal/common/mss_plic.h **** uint8_t  PLIC_spi1_IRQHandler(void);
 105:/home/vinay/Desktop/softconsole_watershed/Water-shed/src/platform/mpfs_hal/common/mss_plic.h **** uint8_t  PLIC_external_can0_IRQHandler(void);
 106:/home/vinay/Desktop/softconsole_watershed/Water-shed/src/platform/mpfs_hal/common/mss_plic.h **** uint8_t  PLIC_can1_IRQHandler(void);
 107:/home/vinay/Desktop/softconsole_watershed/Water-shed/src/platform/mpfs_hal/common/mss_plic.h **** uint8_t  PLIC_External_i2c0_main_IRQHandler(void);
 108:/home/vinay/Desktop/softconsole_watershed/Water-shed/src/platform/mpfs_hal/common/mss_plic.h **** uint8_t  PLIC_External_i2c0_alert_IRQHandler(void);
 109:/home/vinay/Desktop/softconsole_watershed/Water-shed/src/platform/mpfs_hal/common/mss_plic.h **** uint8_t  PLIC_i2c0_sus_IRQHandler(void);
 110:/home/vinay/Desktop/softconsole_watershed/Water-shed/src/platform/mpfs_hal/common/mss_plic.h **** uint8_t  PLIC_i2c1_main_IRQHandler(void);
 111:/home/vinay/Desktop/softconsole_watershed/Water-shed/src/platform/mpfs_hal/common/mss_plic.h **** uint8_t  PLIC_i2c1_alert_IRQHandler(void);
 112:/home/vinay/Desktop/softconsole_watershed/Water-shed/src/platform/mpfs_hal/common/mss_plic.h **** uint8_t  PLIC_i2c1_sus_IRQHandler(void);
 113:/home/vinay/Desktop/softconsole_watershed/Water-shed/src/platform/mpfs_hal/common/mss_plic.h **** uint8_t  PLIC_mac0_int_IRQHandler(void);
 114:/home/vinay/Desktop/softconsole_watershed/Water-shed/src/platform/mpfs_hal/common/mss_plic.h **** uint8_t  PLIC_mac0_queue1_IRQHandler(void);
 115:/home/vinay/Desktop/softconsole_watershed/Water-shed/src/platform/mpfs_hal/common/mss_plic.h **** uint8_t  PLIC_mac0_queue2_IRQHandler(void);
 116:/home/vinay/Desktop/softconsole_watershed/Water-shed/src/platform/mpfs_hal/common/mss_plic.h **** uint8_t  PLIC_mac0_queue3_IRQHandler(void);
 117:/home/vinay/Desktop/softconsole_watershed/Water-shed/src/platform/mpfs_hal/common/mss_plic.h **** uint8_t  PLIC_mac0_emac_IRQHandler(void);
 118:/home/vinay/Desktop/softconsole_watershed/Water-shed/src/platform/mpfs_hal/common/mss_plic.h **** uint8_t  PLIC_mac0_mmsl_IRQHandler(void);
 119:/home/vinay/Desktop/softconsole_watershed/Water-shed/src/platform/mpfs_hal/common/mss_plic.h **** uint8_t  PLIC_mac1_int_IRQHandler(void);
 120:/home/vinay/Desktop/softconsole_watershed/Water-shed/src/platform/mpfs_hal/common/mss_plic.h **** uint8_t  PLIC_mac1_queue1_IRQHandler(void);
 121:/home/vinay/Desktop/softconsole_watershed/Water-shed/src/platform/mpfs_hal/common/mss_plic.h **** uint8_t  PLIC_mac1_queue2_IRQHandler(void);
 122:/home/vinay/Desktop/softconsole_watershed/Water-shed/src/platform/mpfs_hal/common/mss_plic.h **** uint8_t  PLIC_mac1_queue3_IRQHandler(void);
 123:/home/vinay/Desktop/softconsole_watershed/Water-shed/src/platform/mpfs_hal/common/mss_plic.h **** uint8_t  PLIC_mac1_emac_IRQHandler(void);
 124:/home/vinay/Desktop/softconsole_watershed/Water-shed/src/platform/mpfs_hal/common/mss_plic.h **** uint8_t  PLIC_mac1_mmsl_IRQHandler(void);
 125:/home/vinay/Desktop/softconsole_watershed/Water-shed/src/platform/mpfs_hal/common/mss_plic.h **** uint8_t  PLIC_ddrc_train_IRQHandler(void);
 126:/home/vinay/Desktop/softconsole_watershed/Water-shed/src/platform/mpfs_hal/common/mss_plic.h **** uint8_t  PLIC_scb_interrupt_IRQHandler(void);
 127:/home/vinay/Desktop/softconsole_watershed/Water-shed/src/platform/mpfs_hal/common/mss_plic.h **** uint8_t  PLIC_ecc_error_IRQHandler(void);
 128:/home/vinay/Desktop/softconsole_watershed/Water-shed/src/platform/mpfs_hal/common/mss_plic.h **** uint8_t  PLIC_ecc_correct_IRQHandler(void);
 129:/home/vinay/Desktop/softconsole_watershed/Water-shed/src/platform/mpfs_hal/common/mss_plic.h **** uint8_t  PLIC_rtc_wakeup_IRQHandler(void);
 130:/home/vinay/Desktop/softconsole_watershed/Water-shed/src/platform/mpfs_hal/common/mss_plic.h **** uint8_t  PLIC_rtc_match_IRQHandler(void);
 131:/home/vinay/Desktop/softconsole_watershed/Water-shed/src/platform/mpfs_hal/common/mss_plic.h **** uint8_t  PLIC_timer1_IRQHandler(void);
 132:/home/vinay/Desktop/softconsole_watershed/Water-shed/src/platform/mpfs_hal/common/mss_plic.h **** uint8_t  PLIC_timer2_IRQHandler(void);
 133:/home/vinay/Desktop/softconsole_watershed/Water-shed/src/platform/mpfs_hal/common/mss_plic.h **** uint8_t  PLIC_envm_IRQHandler(void);
 134:/home/vinay/Desktop/softconsole_watershed/Water-shed/src/platform/mpfs_hal/common/mss_plic.h **** uint8_t  PLIC_qspi_IRQHandler(void);
 135:/home/vinay/Desktop/softconsole_watershed/Water-shed/src/platform/mpfs_hal/common/mss_plic.h **** uint8_t  PLIC_usb_dma_IRQHandler(void);
 136:/home/vinay/Desktop/softconsole_watershed/Water-shed/src/platform/mpfs_hal/common/mss_plic.h **** uint8_t  PLIC_usb_mc_IRQHandler(void);
 137:/home/vinay/Desktop/softconsole_watershed/Water-shed/src/platform/mpfs_hal/common/mss_plic.h **** uint8_t  PLIC_mmc_main_IRQHandler(void);
 138:/home/vinay/Desktop/softconsole_watershed/Water-shed/src/platform/mpfs_hal/common/mss_plic.h **** uint8_t  PLIC_mmc_wakeup_IRQHandler(void);
 139:/home/vinay/Desktop/softconsole_watershed/Water-shed/src/platform/mpfs_hal/common/mss_plic.h **** uint8_t  PLIC_mmuart0_IRQHandler(void);
 140:/home/vinay/Desktop/softconsole_watershed/Water-shed/src/platform/mpfs_hal/common/mss_plic.h **** uint8_t  PLIC_mmuart1_IRQHandler(void);
 141:/home/vinay/Desktop/softconsole_watershed/Water-shed/src/platform/mpfs_hal/common/mss_plic.h **** uint8_t  PLIC_mmuart2_IRQHandler(void);
 142:/home/vinay/Desktop/softconsole_watershed/Water-shed/src/platform/mpfs_hal/common/mss_plic.h **** uint8_t  PLIC_mmuart3_IRQHandler(void);
 143:/home/vinay/Desktop/softconsole_watershed/Water-shed/src/platform/mpfs_hal/common/mss_plic.h **** uint8_t  PLIC_mmuart4_IRQHandler(void);
 144:/home/vinay/Desktop/softconsole_watershed/Water-shed/src/platform/mpfs_hal/common/mss_plic.h **** uint8_t  PLIC_devrst_IRQHandler(void);
 145:/home/vinay/Desktop/softconsole_watershed/Water-shed/src/platform/mpfs_hal/common/mss_plic.h **** uint8_t  PLIC_g5c_message_IRQHandler(void);
 146:/home/vinay/Desktop/softconsole_watershed/Water-shed/src/platform/mpfs_hal/common/mss_plic.h **** uint8_t  PLIC_usoc_vc_interrupt_IRQHandler(void);
 147:/home/vinay/Desktop/softconsole_watershed/Water-shed/src/platform/mpfs_hal/common/mss_plic.h **** uint8_t  PLIC_usoc_smb_interrupt_IRQHandler(void);
 148:/home/vinay/Desktop/softconsole_watershed/Water-shed/src/platform/mpfs_hal/common/mss_plic.h **** uint8_t  PLIC_E51_Maintence_IRQHandler(void);
 149:/home/vinay/Desktop/softconsole_watershed/Water-shed/src/platform/mpfs_hal/common/mss_plic.h **** 
 150:/home/vinay/Desktop/softconsole_watershed/Water-shed/src/platform/mpfs_hal/common/mss_plic.h **** uint8_t  PLIC_wdog0_mvrp_IRQHandler(void);
 151:/home/vinay/Desktop/softconsole_watershed/Water-shed/src/platform/mpfs_hal/common/mss_plic.h **** uint8_t  PLIC_wdog1_mvrp_IRQHandler(void);
 152:/home/vinay/Desktop/softconsole_watershed/Water-shed/src/platform/mpfs_hal/common/mss_plic.h **** uint8_t  PLIC_wdog2_mvrp_IRQHandler(void);
 153:/home/vinay/Desktop/softconsole_watershed/Water-shed/src/platform/mpfs_hal/common/mss_plic.h **** uint8_t  PLIC_wdog3_mvrp_IRQHandler(void);
 154:/home/vinay/Desktop/softconsole_watershed/Water-shed/src/platform/mpfs_hal/common/mss_plic.h **** uint8_t  PLIC_wdog4_mvrp_IRQHandler(void);
 155:/home/vinay/Desktop/softconsole_watershed/Water-shed/src/platform/mpfs_hal/common/mss_plic.h **** uint8_t  PLIC_wdog0_tout_IRQHandler(void);
 156:/home/vinay/Desktop/softconsole_watershed/Water-shed/src/platform/mpfs_hal/common/mss_plic.h **** uint8_t  PLIC_wdog1_tout_IRQHandler(void);
 157:/home/vinay/Desktop/softconsole_watershed/Water-shed/src/platform/mpfs_hal/common/mss_plic.h **** uint8_t  PLIC_wdog2_tout_IRQHandler(void);
 158:/home/vinay/Desktop/softconsole_watershed/Water-shed/src/platform/mpfs_hal/common/mss_plic.h **** uint8_t  PLIC_wdog3_tout_IRQHandler(void);
 159:/home/vinay/Desktop/softconsole_watershed/Water-shed/src/platform/mpfs_hal/common/mss_plic.h **** uint8_t  PLIC_wdog4_tout_IRQHandler(void);
 160:/home/vinay/Desktop/softconsole_watershed/Water-shed/src/platform/mpfs_hal/common/mss_plic.h **** uint8_t  PLIC_g5c_mss_spi_IRQHandler(void);
 161:/home/vinay/Desktop/softconsole_watershed/Water-shed/src/platform/mpfs_hal/common/mss_plic.h **** uint8_t  PLIC_volt_temp_alarm_IRQHandler(void);
 162:/home/vinay/Desktop/softconsole_watershed/Water-shed/src/platform/mpfs_hal/common/mss_plic.h **** 
 163:/home/vinay/Desktop/softconsole_watershed/Water-shed/src/platform/mpfs_hal/common/mss_plic.h **** uint8_t  PLIC_athena_complete_IRQHandler(void);
 164:/home/vinay/Desktop/softconsole_watershed/Water-shed/src/platform/mpfs_hal/common/mss_plic.h **** uint8_t  PLIC_athena_alarm_IRQHandler(void);
 165:/home/vinay/Desktop/softconsole_watershed/Water-shed/src/platform/mpfs_hal/common/mss_plic.h **** uint8_t  PLIC_athena_bus_error_IRQHandler(void);
 166:/home/vinay/Desktop/softconsole_watershed/Water-shed/src/platform/mpfs_hal/common/mss_plic.h **** uint8_t  PLIC_usoc_axic_us_IRQHandler(void);
 167:/home/vinay/Desktop/softconsole_watershed/Water-shed/src/platform/mpfs_hal/common/mss_plic.h **** uint8_t  PLIC_usoc_axic_ds_IRQHandler(void);
 168:/home/vinay/Desktop/softconsole_watershed/Water-shed/src/platform/mpfs_hal/common/mss_plic.h **** 
 169:/home/vinay/Desktop/softconsole_watershed/Water-shed/src/platform/mpfs_hal/common/mss_plic.h **** uint8_t  PLIC_reserved_104_IRQHandler(void);
 170:/home/vinay/Desktop/softconsole_watershed/Water-shed/src/platform/mpfs_hal/common/mss_plic.h **** 
 171:/home/vinay/Desktop/softconsole_watershed/Water-shed/src/platform/mpfs_hal/common/mss_plic.h **** uint8_t  PLIC_f2m_0_IRQHandler(void);
 172:/home/vinay/Desktop/softconsole_watershed/Water-shed/src/platform/mpfs_hal/common/mss_plic.h **** uint8_t  PLIC_f2m_1_IRQHandler(void);
 173:/home/vinay/Desktop/softconsole_watershed/Water-shed/src/platform/mpfs_hal/common/mss_plic.h **** uint8_t  PLIC_f2m_2_IRQHandler(void);
 174:/home/vinay/Desktop/softconsole_watershed/Water-shed/src/platform/mpfs_hal/common/mss_plic.h **** uint8_t  PLIC_f2m_3_IRQHandler(void);
 175:/home/vinay/Desktop/softconsole_watershed/Water-shed/src/platform/mpfs_hal/common/mss_plic.h **** uint8_t  PLIC_f2m_4_IRQHandler(void);
 176:/home/vinay/Desktop/softconsole_watershed/Water-shed/src/platform/mpfs_hal/common/mss_plic.h **** uint8_t  PLIC_f2m_5_IRQHandler(void);
 177:/home/vinay/Desktop/softconsole_watershed/Water-shed/src/platform/mpfs_hal/common/mss_plic.h **** uint8_t  PLIC_f2m_6_IRQHandler(void);
 178:/home/vinay/Desktop/softconsole_watershed/Water-shed/src/platform/mpfs_hal/common/mss_plic.h **** uint8_t  PLIC_f2m_7_IRQHandler(void);
 179:/home/vinay/Desktop/softconsole_watershed/Water-shed/src/platform/mpfs_hal/common/mss_plic.h **** uint8_t  PLIC_f2m_8_IRQHandler(void);
 180:/home/vinay/Desktop/softconsole_watershed/Water-shed/src/platform/mpfs_hal/common/mss_plic.h **** uint8_t  PLIC_f2m_9_IRQHandler(void);
 181:/home/vinay/Desktop/softconsole_watershed/Water-shed/src/platform/mpfs_hal/common/mss_plic.h **** 
 182:/home/vinay/Desktop/softconsole_watershed/Water-shed/src/platform/mpfs_hal/common/mss_plic.h **** uint8_t  PLIC_f2m_10_IRQHandler(void);
 183:/home/vinay/Desktop/softconsole_watershed/Water-shed/src/platform/mpfs_hal/common/mss_plic.h **** uint8_t  PLIC_f2m_11_IRQHandler(void);
 184:/home/vinay/Desktop/softconsole_watershed/Water-shed/src/platform/mpfs_hal/common/mss_plic.h **** uint8_t  PLIC_f2m_12_IRQHandler(void);
 185:/home/vinay/Desktop/softconsole_watershed/Water-shed/src/platform/mpfs_hal/common/mss_plic.h **** uint8_t  PLIC_f2m_13_IRQHandler(void);
 186:/home/vinay/Desktop/softconsole_watershed/Water-shed/src/platform/mpfs_hal/common/mss_plic.h **** uint8_t  PLIC_f2m_14_IRQHandler(void);
 187:/home/vinay/Desktop/softconsole_watershed/Water-shed/src/platform/mpfs_hal/common/mss_plic.h **** uint8_t  PLIC_f2m_15_IRQHandler(void);
 188:/home/vinay/Desktop/softconsole_watershed/Water-shed/src/platform/mpfs_hal/common/mss_plic.h **** uint8_t  PLIC_f2m_16_IRQHandler(void);
 189:/home/vinay/Desktop/softconsole_watershed/Water-shed/src/platform/mpfs_hal/common/mss_plic.h **** uint8_t  PLIC_f2m_17_IRQHandler(void);
 190:/home/vinay/Desktop/softconsole_watershed/Water-shed/src/platform/mpfs_hal/common/mss_plic.h **** uint8_t  PLIC_f2m_18_IRQHandler(void);
 191:/home/vinay/Desktop/softconsole_watershed/Water-shed/src/platform/mpfs_hal/common/mss_plic.h **** uint8_t  PLIC_f2m_19_IRQHandler(void);
 192:/home/vinay/Desktop/softconsole_watershed/Water-shed/src/platform/mpfs_hal/common/mss_plic.h **** 
 193:/home/vinay/Desktop/softconsole_watershed/Water-shed/src/platform/mpfs_hal/common/mss_plic.h **** uint8_t  PLIC_f2m_20_IRQHandler(void);
 194:/home/vinay/Desktop/softconsole_watershed/Water-shed/src/platform/mpfs_hal/common/mss_plic.h **** uint8_t  PLIC_f2m_21_IRQHandler(void);
 195:/home/vinay/Desktop/softconsole_watershed/Water-shed/src/platform/mpfs_hal/common/mss_plic.h **** uint8_t  PLIC_f2m_22_IRQHandler(void);
 196:/home/vinay/Desktop/softconsole_watershed/Water-shed/src/platform/mpfs_hal/common/mss_plic.h **** uint8_t  PLIC_f2m_23_IRQHandler(void);
 197:/home/vinay/Desktop/softconsole_watershed/Water-shed/src/platform/mpfs_hal/common/mss_plic.h **** uint8_t  PLIC_f2m_24_IRQHandler(void);
 198:/home/vinay/Desktop/softconsole_watershed/Water-shed/src/platform/mpfs_hal/common/mss_plic.h **** uint8_t  PLIC_f2m_25_IRQHandler(void);
 199:/home/vinay/Desktop/softconsole_watershed/Water-shed/src/platform/mpfs_hal/common/mss_plic.h **** uint8_t  PLIC_f2m_26_IRQHandler(void);
 200:/home/vinay/Desktop/softconsole_watershed/Water-shed/src/platform/mpfs_hal/common/mss_plic.h **** uint8_t  PLIC_f2m_27_IRQHandler(void);
 201:/home/vinay/Desktop/softconsole_watershed/Water-shed/src/platform/mpfs_hal/common/mss_plic.h **** uint8_t  PLIC_f2m_28_IRQHandler(void);
 202:/home/vinay/Desktop/softconsole_watershed/Water-shed/src/platform/mpfs_hal/common/mss_plic.h **** uint8_t  PLIC_f2m_29_IRQHandler(void);
 203:/home/vinay/Desktop/softconsole_watershed/Water-shed/src/platform/mpfs_hal/common/mss_plic.h **** 
 204:/home/vinay/Desktop/softconsole_watershed/Water-shed/src/platform/mpfs_hal/common/mss_plic.h **** uint8_t  PLIC_f2m_30_IRQHandler(void);
 205:/home/vinay/Desktop/softconsole_watershed/Water-shed/src/platform/mpfs_hal/common/mss_plic.h **** uint8_t  PLIC_f2m_31_IRQHandler(void);
 206:/home/vinay/Desktop/softconsole_watershed/Water-shed/src/platform/mpfs_hal/common/mss_plic.h **** 
 207:/home/vinay/Desktop/softconsole_watershed/Water-shed/src/platform/mpfs_hal/common/mss_plic.h **** uint8_t  PLIC_f2m_32_IRQHandler(void);
 208:/home/vinay/Desktop/softconsole_watershed/Water-shed/src/platform/mpfs_hal/common/mss_plic.h **** uint8_t  PLIC_f2m_33_IRQHandler(void);
 209:/home/vinay/Desktop/softconsole_watershed/Water-shed/src/platform/mpfs_hal/common/mss_plic.h **** uint8_t  PLIC_f2m_34_IRQHandler(void);
 210:/home/vinay/Desktop/softconsole_watershed/Water-shed/src/platform/mpfs_hal/common/mss_plic.h **** uint8_t  PLIC_f2m_35_IRQHandler(void);
 211:/home/vinay/Desktop/softconsole_watershed/Water-shed/src/platform/mpfs_hal/common/mss_plic.h **** uint8_t  PLIC_f2m_36_IRQHandler(void);
 212:/home/vinay/Desktop/softconsole_watershed/Water-shed/src/platform/mpfs_hal/common/mss_plic.h **** uint8_t  PLIC_f2m_37_IRQHandler(void);
 213:/home/vinay/Desktop/softconsole_watershed/Water-shed/src/platform/mpfs_hal/common/mss_plic.h **** uint8_t  PLIC_f2m_38_IRQHandler(void);
 214:/home/vinay/Desktop/softconsole_watershed/Water-shed/src/platform/mpfs_hal/common/mss_plic.h **** uint8_t  PLIC_f2m_39_IRQHandler(void);
 215:/home/vinay/Desktop/softconsole_watershed/Water-shed/src/platform/mpfs_hal/common/mss_plic.h **** uint8_t  PLIC_f2m_40_IRQHandler(void);
 216:/home/vinay/Desktop/softconsole_watershed/Water-shed/src/platform/mpfs_hal/common/mss_plic.h **** uint8_t  PLIC_f2m_41_IRQHandler(void);
 217:/home/vinay/Desktop/softconsole_watershed/Water-shed/src/platform/mpfs_hal/common/mss_plic.h **** 
 218:/home/vinay/Desktop/softconsole_watershed/Water-shed/src/platform/mpfs_hal/common/mss_plic.h **** uint8_t PLIC_f2m_42_IRQHandler(void);
 219:/home/vinay/Desktop/softconsole_watershed/Water-shed/src/platform/mpfs_hal/common/mss_plic.h **** uint8_t PLIC_f2m_43_IRQHandler(void);
 220:/home/vinay/Desktop/softconsole_watershed/Water-shed/src/platform/mpfs_hal/common/mss_plic.h **** uint8_t PLIC_f2m_44_IRQHandler(void);
 221:/home/vinay/Desktop/softconsole_watershed/Water-shed/src/platform/mpfs_hal/common/mss_plic.h **** uint8_t PLIC_f2m_45_IRQHandler(void);
 222:/home/vinay/Desktop/softconsole_watershed/Water-shed/src/platform/mpfs_hal/common/mss_plic.h **** uint8_t PLIC_f2m_46_IRQHandler(void);
 223:/home/vinay/Desktop/softconsole_watershed/Water-shed/src/platform/mpfs_hal/common/mss_plic.h **** uint8_t PLIC_f2m_47_IRQHandler(void);
 224:/home/vinay/Desktop/softconsole_watershed/Water-shed/src/platform/mpfs_hal/common/mss_plic.h **** uint8_t PLIC_f2m_48_IRQHandler(void);
 225:/home/vinay/Desktop/softconsole_watershed/Water-shed/src/platform/mpfs_hal/common/mss_plic.h **** uint8_t PLIC_f2m_49_IRQHandler(void);
 226:/home/vinay/Desktop/softconsole_watershed/Water-shed/src/platform/mpfs_hal/common/mss_plic.h **** uint8_t PLIC_f2m_50_IRQHandler(void);
 227:/home/vinay/Desktop/softconsole_watershed/Water-shed/src/platform/mpfs_hal/common/mss_plic.h **** uint8_t PLIC_f2m_51_IRQHandler(void);
 228:/home/vinay/Desktop/softconsole_watershed/Water-shed/src/platform/mpfs_hal/common/mss_plic.h **** 
 229:/home/vinay/Desktop/softconsole_watershed/Water-shed/src/platform/mpfs_hal/common/mss_plic.h **** uint8_t PLIC_f2m_52_IRQHandler(void);
 230:/home/vinay/Desktop/softconsole_watershed/Water-shed/src/platform/mpfs_hal/common/mss_plic.h **** uint8_t PLIC_f2m_53_IRQHandler(void);
 231:/home/vinay/Desktop/softconsole_watershed/Water-shed/src/platform/mpfs_hal/common/mss_plic.h **** uint8_t PLIC_f2m_54_IRQHandler(void);
 232:/home/vinay/Desktop/softconsole_watershed/Water-shed/src/platform/mpfs_hal/common/mss_plic.h **** uint8_t PLIC_f2m_55_IRQHandler(void);
 233:/home/vinay/Desktop/softconsole_watershed/Water-shed/src/platform/mpfs_hal/common/mss_plic.h **** uint8_t PLIC_f2m_56_IRQHandler(void);
 234:/home/vinay/Desktop/softconsole_watershed/Water-shed/src/platform/mpfs_hal/common/mss_plic.h **** uint8_t PLIC_f2m_57_IRQHandler(void);
 235:/home/vinay/Desktop/softconsole_watershed/Water-shed/src/platform/mpfs_hal/common/mss_plic.h **** uint8_t PLIC_f2m_58_IRQHandler(void);
 236:/home/vinay/Desktop/softconsole_watershed/Water-shed/src/platform/mpfs_hal/common/mss_plic.h **** uint8_t PLIC_f2m_59_IRQHandler(void);
 237:/home/vinay/Desktop/softconsole_watershed/Water-shed/src/platform/mpfs_hal/common/mss_plic.h **** uint8_t PLIC_f2m_60_IRQHandler(void);
 238:/home/vinay/Desktop/softconsole_watershed/Water-shed/src/platform/mpfs_hal/common/mss_plic.h **** uint8_t PLIC_f2m_61_IRQHandler(void);
 239:/home/vinay/Desktop/softconsole_watershed/Water-shed/src/platform/mpfs_hal/common/mss_plic.h **** 
 240:/home/vinay/Desktop/softconsole_watershed/Water-shed/src/platform/mpfs_hal/common/mss_plic.h **** uint8_t PLIC_f2m_62_IRQHandler(void);
 241:/home/vinay/Desktop/softconsole_watershed/Water-shed/src/platform/mpfs_hal/common/mss_plic.h **** uint8_t PLIC_f2m_63_IRQHandler(void);
 242:/home/vinay/Desktop/softconsole_watershed/Water-shed/src/platform/mpfs_hal/common/mss_plic.h **** 
 243:/home/vinay/Desktop/softconsole_watershed/Water-shed/src/platform/mpfs_hal/common/mss_plic.h **** uint8_t PLIC_E51_bus_error_unit_IRQHandler(void);
 244:/home/vinay/Desktop/softconsole_watershed/Water-shed/src/platform/mpfs_hal/common/mss_plic.h **** uint8_t PLIC_U54_1_bus_error_unit_IRQHandler(void);
 245:/home/vinay/Desktop/softconsole_watershed/Water-shed/src/platform/mpfs_hal/common/mss_plic.h **** uint8_t PLIC_U54_2_bus_error_unit_IRQHandler(void);
 246:/home/vinay/Desktop/softconsole_watershed/Water-shed/src/platform/mpfs_hal/common/mss_plic.h **** uint8_t PLIC_U54_3_bus_error_unit_IRQHandler(void);
 247:/home/vinay/Desktop/softconsole_watershed/Water-shed/src/platform/mpfs_hal/common/mss_plic.h **** uint8_t PLIC_U54_4_bus_error_unit_IRQHandler(void);
 248:/home/vinay/Desktop/softconsole_watershed/Water-shed/src/platform/mpfs_hal/common/mss_plic.h **** 
 249:/home/vinay/Desktop/softconsole_watershed/Water-shed/src/platform/mpfs_hal/common/mss_plic.h **** /***************************************************************************//**
 250:/home/vinay/Desktop/softconsole_watershed/Water-shed/src/platform/mpfs_hal/common/mss_plic.h ****  * PLIC source Interrupt numbers:
 251:/home/vinay/Desktop/softconsole_watershed/Water-shed/src/platform/mpfs_hal/common/mss_plic.h ****  */
 252:/home/vinay/Desktop/softconsole_watershed/Water-shed/src/platform/mpfs_hal/common/mss_plic.h **** /* See section on PLIC Interrupt Sources in User Guide */
 253:/home/vinay/Desktop/softconsole_watershed/Water-shed/src/platform/mpfs_hal/common/mss_plic.h **** #define OFFSET_TO_MSS_GLOBAL_INTS 13U
 254:/home/vinay/Desktop/softconsole_watershed/Water-shed/src/platform/mpfs_hal/common/mss_plic.h **** typedef enum
 255:/home/vinay/Desktop/softconsole_watershed/Water-shed/src/platform/mpfs_hal/common/mss_plic.h **** {
 256:/home/vinay/Desktop/softconsole_watershed/Water-shed/src/platform/mpfs_hal/common/mss_plic.h ****     PLIC_INVALID_INT_OFFSET                 = 0,
 257:/home/vinay/Desktop/softconsole_watershed/Water-shed/src/platform/mpfs_hal/common/mss_plic.h ****     PLIC_L2_METADATA_CORR_INT_OFFSET        = 1,
 258:/home/vinay/Desktop/softconsole_watershed/Water-shed/src/platform/mpfs_hal/common/mss_plic.h ****     PLIC_L2_METADAT_UNCORR_INT_OFFSET       = 2,
 259:/home/vinay/Desktop/softconsole_watershed/Water-shed/src/platform/mpfs_hal/common/mss_plic.h ****     PLIC_L2_DATA_CORR_INT_OFFSET            = 3,
 260:/home/vinay/Desktop/softconsole_watershed/Water-shed/src/platform/mpfs_hal/common/mss_plic.h ****     PLIC_L2_DATA_UNCORR_INT_OFFSET          = 4,
 261:/home/vinay/Desktop/softconsole_watershed/Water-shed/src/platform/mpfs_hal/common/mss_plic.h ****     PLIC_DMA_CH0_DONE_INT_OFFSET            = 5,
 262:/home/vinay/Desktop/softconsole_watershed/Water-shed/src/platform/mpfs_hal/common/mss_plic.h ****     PLIC_DMA_CH0_ERR_INT_OFFSET             = 6,
 263:/home/vinay/Desktop/softconsole_watershed/Water-shed/src/platform/mpfs_hal/common/mss_plic.h ****     PLIC_DMA_CH1_DONE_INT_OFFSET            = 7,
 264:/home/vinay/Desktop/softconsole_watershed/Water-shed/src/platform/mpfs_hal/common/mss_plic.h ****     PLIC_DMA_CH1_ERR_INT_OFFSET             = 8,
 265:/home/vinay/Desktop/softconsole_watershed/Water-shed/src/platform/mpfs_hal/common/mss_plic.h ****     PLIC_DMA_CH2_DONE_INT_OFFSET            = 9,
 266:/home/vinay/Desktop/softconsole_watershed/Water-shed/src/platform/mpfs_hal/common/mss_plic.h ****     PLIC_DMA_CH2_ERR_INT_OFFSET             = 10,
 267:/home/vinay/Desktop/softconsole_watershed/Water-shed/src/platform/mpfs_hal/common/mss_plic.h ****     PLIC_DMA_CH3_DONE_INT_OFFSET            = 11,
 268:/home/vinay/Desktop/softconsole_watershed/Water-shed/src/platform/mpfs_hal/common/mss_plic.h ****     PLIC_DMA_CH3_ERR_INT_OFFSET             = 12,
 269:/home/vinay/Desktop/softconsole_watershed/Water-shed/src/platform/mpfs_hal/common/mss_plic.h ****     /* see PLIC_I2C Interrupt Multiplexing in the User Guide */
 270:/home/vinay/Desktop/softconsole_watershed/Water-shed/src/platform/mpfs_hal/common/mss_plic.h ****     PLIC_GPIO0_BIT0_or_GPIO2_BIT0_INT_OFFSET         = 0 + OFFSET_TO_MSS_GLOBAL_INTS,
 271:/home/vinay/Desktop/softconsole_watershed/Water-shed/src/platform/mpfs_hal/common/mss_plic.h ****     PLIC_GPIO0_BIT1_or_GPIO2_BIT1_INT_OFFSET         = 1 + OFFSET_TO_MSS_GLOBAL_INTS,
 272:/home/vinay/Desktop/softconsole_watershed/Water-shed/src/platform/mpfs_hal/common/mss_plic.h ****     PLIC_GPIO0_BIT2_or_GPIO2_BIT2_INT_OFFSET         = 2 + OFFSET_TO_MSS_GLOBAL_INTS,
 273:/home/vinay/Desktop/softconsole_watershed/Water-shed/src/platform/mpfs_hal/common/mss_plic.h ****     PLIC_GPIO0_BIT3_or_GPIO2_BIT3_INT_OFFSET         = 3 + OFFSET_TO_MSS_GLOBAL_INTS,
 274:/home/vinay/Desktop/softconsole_watershed/Water-shed/src/platform/mpfs_hal/common/mss_plic.h ****     PLIC_GPIO0_BIT4_or_GPIO2_BIT4_INT_OFFSET         = 4 + OFFSET_TO_MSS_GLOBAL_INTS,
 275:/home/vinay/Desktop/softconsole_watershed/Water-shed/src/platform/mpfs_hal/common/mss_plic.h ****     PLIC_GPIO0_BIT5_or_GPIO2_BIT5_INT_OFFSET         = 5 + OFFSET_TO_MSS_GLOBAL_INTS,
 276:/home/vinay/Desktop/softconsole_watershed/Water-shed/src/platform/mpfs_hal/common/mss_plic.h ****     PLIC_GPIO0_BIT6_or_GPIO2_BIT6_INT_OFFSET         = 6 + OFFSET_TO_MSS_GLOBAL_INTS,
 277:/home/vinay/Desktop/softconsole_watershed/Water-shed/src/platform/mpfs_hal/common/mss_plic.h ****     PLIC_GPIO0_BIT7_or_GPIO2_BIT7_INT_OFFSET         = 7 + OFFSET_TO_MSS_GLOBAL_INTS,
 278:/home/vinay/Desktop/softconsole_watershed/Water-shed/src/platform/mpfs_hal/common/mss_plic.h ****     PLIC_GPIO0_BIT8_or_GPIO2_BIT8_INT_OFFSET         = 8 + OFFSET_TO_MSS_GLOBAL_INTS,
 279:/home/vinay/Desktop/softconsole_watershed/Water-shed/src/platform/mpfs_hal/common/mss_plic.h ****     PLIC_GPIO0_BIT9_or_GPIO2_BIT9_INT_OFFSET         = 9 + OFFSET_TO_MSS_GLOBAL_INTS,
 280:/home/vinay/Desktop/softconsole_watershed/Water-shed/src/platform/mpfs_hal/common/mss_plic.h ****     PLIC_GPIO0_BIT10_or_GPIO2_BIT10_INT_OFFSET      = 10 + OFFSET_TO_MSS_GLOBAL_INTS,
 281:/home/vinay/Desktop/softconsole_watershed/Water-shed/src/platform/mpfs_hal/common/mss_plic.h ****     PLIC_GPIO0_BIT11_or_GPIO2_BIT11_INT_OFFSET      = 11 + OFFSET_TO_MSS_GLOBAL_INTS,
 282:/home/vinay/Desktop/softconsole_watershed/Water-shed/src/platform/mpfs_hal/common/mss_plic.h ****     PLIC_GPIO0_BIT12_or_GPIO2_BIT12_INT_OFFSET      = 12 + OFFSET_TO_MSS_GLOBAL_INTS,
 283:/home/vinay/Desktop/softconsole_watershed/Water-shed/src/platform/mpfs_hal/common/mss_plic.h **** 
 284:/home/vinay/Desktop/softconsole_watershed/Water-shed/src/platform/mpfs_hal/common/mss_plic.h ****     PLIC_GPIO0_BIT13_or_GPIO2_BIT13_INT_OFFSET      = 13 + OFFSET_TO_MSS_GLOBAL_INTS,
 285:/home/vinay/Desktop/softconsole_watershed/Water-shed/src/platform/mpfs_hal/common/mss_plic.h ****     PLIC_GPIO1_BIT0_or_GPIO2_BIT14_INT_OFFSET       = 14 + OFFSET_TO_MSS_GLOBAL_INTS,
 286:/home/vinay/Desktop/softconsole_watershed/Water-shed/src/platform/mpfs_hal/common/mss_plic.h ****     PLIC_GPIO1_BIT1_or_GPIO2_BIT15_INT_OFFSET       = 15 + OFFSET_TO_MSS_GLOBAL_INTS,
 287:/home/vinay/Desktop/softconsole_watershed/Water-shed/src/platform/mpfs_hal/common/mss_plic.h ****     PLIC_GPIO1_BIT2_or_GPIO2_BIT16_INT_OFFSET       = 16 + OFFSET_TO_MSS_GLOBAL_INTS,
 288:/home/vinay/Desktop/softconsole_watershed/Water-shed/src/platform/mpfs_hal/common/mss_plic.h ****     PLIC_GPIO1_BIT3_or_GPIO2_BIT17_INT_OFFSET       = 17 + OFFSET_TO_MSS_GLOBAL_INTS,
 289:/home/vinay/Desktop/softconsole_watershed/Water-shed/src/platform/mpfs_hal/common/mss_plic.h ****     PLIC_GPIO1_BIT4_or_GPIO2_BIT18_INT_OFFSET       = 18 + OFFSET_TO_MSS_GLOBAL_INTS,
 290:/home/vinay/Desktop/softconsole_watershed/Water-shed/src/platform/mpfs_hal/common/mss_plic.h ****     PLIC_GPIO1_BIT5_or_GPIO2_BIT19_INT_OFFSET       = 19 + OFFSET_TO_MSS_GLOBAL_INTS,
 291:/home/vinay/Desktop/softconsole_watershed/Water-shed/src/platform/mpfs_hal/common/mss_plic.h ****     PLIC_GPIO1_BIT6_or_GPIO2_BIT20_INT_OFFSET       = 20 + OFFSET_TO_MSS_GLOBAL_INTS,
 292:/home/vinay/Desktop/softconsole_watershed/Water-shed/src/platform/mpfs_hal/common/mss_plic.h ****     PLIC_GPIO1_BIT7_or_GPIO2_BIT21_INT_OFFSET       = 21 + OFFSET_TO_MSS_GLOBAL_INTS,
 293:/home/vinay/Desktop/softconsole_watershed/Water-shed/src/platform/mpfs_hal/common/mss_plic.h ****     PLIC_GPIO1_BIT8_or_GPIO2_BIT22_INT_OFFSET       = 22 + OFFSET_TO_MSS_GLOBAL_INTS,
 294:/home/vinay/Desktop/softconsole_watershed/Water-shed/src/platform/mpfs_hal/common/mss_plic.h ****     PLIC_GPIO1_BIT9_or_GPIO2_BIT23_INT_OFFSET       = 23 + OFFSET_TO_MSS_GLOBAL_INTS,
 295:/home/vinay/Desktop/softconsole_watershed/Water-shed/src/platform/mpfs_hal/common/mss_plic.h ****     PLIC_GPIO1_BIT10_or_GPIO2_BIT24_INT_OFFSET      = 24 + OFFSET_TO_MSS_GLOBAL_INTS,
 296:/home/vinay/Desktop/softconsole_watershed/Water-shed/src/platform/mpfs_hal/common/mss_plic.h ****     PLIC_GPIO1_BIT11_or_GPIO2_BIT25_INT_OFFSET      = 25 + OFFSET_TO_MSS_GLOBAL_INTS,
 297:/home/vinay/Desktop/softconsole_watershed/Water-shed/src/platform/mpfs_hal/common/mss_plic.h ****     PLIC_GPIO1_BIT12_or_GPIO2_BIT26_INT_OFFSET      = 26 + OFFSET_TO_MSS_GLOBAL_INTS,
 298:/home/vinay/Desktop/softconsole_watershed/Water-shed/src/platform/mpfs_hal/common/mss_plic.h ****     PLIC_GPIO1_BIT13_or_GPIO2_BIT27_INT_OFFSET      = 27 + OFFSET_TO_MSS_GLOBAL_INTS,
 299:/home/vinay/Desktop/softconsole_watershed/Water-shed/src/platform/mpfs_hal/common/mss_plic.h **** 
 300:/home/vinay/Desktop/softconsole_watershed/Water-shed/src/platform/mpfs_hal/common/mss_plic.h ****     PLIC_GPIO1_BIT14_or_GPIO2_BIT28_INT_OFFSET       = 28 + OFFSET_TO_MSS_GLOBAL_INTS,
 301:/home/vinay/Desktop/softconsole_watershed/Water-shed/src/platform/mpfs_hal/common/mss_plic.h ****     PLIC_GPIO1_BIT15_or_GPIO2_BIT29_INT_OFFSET       = 29 + OFFSET_TO_MSS_GLOBAL_INTS,
 302:/home/vinay/Desktop/softconsole_watershed/Water-shed/src/platform/mpfs_hal/common/mss_plic.h ****     PLIC_GPIO1_BIT16_or_GPIO2_BIT30_INT_OFFSET       = 30 + OFFSET_TO_MSS_GLOBAL_INTS,
 303:/home/vinay/Desktop/softconsole_watershed/Water-shed/src/platform/mpfs_hal/common/mss_plic.h ****     PLIC_GPIO1_BIT17_or_GPIO2_BIT31_INT_OFFSET       = 31 + OFFSET_TO_MSS_GLOBAL_INTS,
 304:/home/vinay/Desktop/softconsole_watershed/Water-shed/src/platform/mpfs_hal/common/mss_plic.h **** 
 305:/home/vinay/Desktop/softconsole_watershed/Water-shed/src/platform/mpfs_hal/common/mss_plic.h ****     PLIC_GPIO1_BIT18_INT_OFFSET           = 32 + OFFSET_TO_MSS_GLOBAL_INTS,
 306:/home/vinay/Desktop/softconsole_watershed/Water-shed/src/platform/mpfs_hal/common/mss_plic.h ****     PLIC_GPIO1_BIT19_INT_OFFSET           = 33 + OFFSET_TO_MSS_GLOBAL_INTS,
 307:/home/vinay/Desktop/softconsole_watershed/Water-shed/src/platform/mpfs_hal/common/mss_plic.h ****     PLIC_GPIO1_BIT20_INT_OFFSET           = 34 + OFFSET_TO_MSS_GLOBAL_INTS,
 308:/home/vinay/Desktop/softconsole_watershed/Water-shed/src/platform/mpfs_hal/common/mss_plic.h ****     PLIC_GPIO1_BIT21_INT_OFFSET           = 35 + OFFSET_TO_MSS_GLOBAL_INTS,
 309:/home/vinay/Desktop/softconsole_watershed/Water-shed/src/platform/mpfs_hal/common/mss_plic.h ****     PLIC_GPIO1_BIT22_INT_OFFSET           = 36 + OFFSET_TO_MSS_GLOBAL_INTS,
 310:/home/vinay/Desktop/softconsole_watershed/Water-shed/src/platform/mpfs_hal/common/mss_plic.h ****     PLIC_GPIO1_BIT23_INT_OFFSET           = 37 + OFFSET_TO_MSS_GLOBAL_INTS,
 311:/home/vinay/Desktop/softconsole_watershed/Water-shed/src/platform/mpfs_hal/common/mss_plic.h **** 
 312:/home/vinay/Desktop/softconsole_watershed/Water-shed/src/platform/mpfs_hal/common/mss_plic.h ****     PLIC_GPIO0_NON_DIRECT_INT_OFFSET         = 38 + OFFSET_TO_MSS_GLOBAL_INTS,
 313:/home/vinay/Desktop/softconsole_watershed/Water-shed/src/platform/mpfs_hal/common/mss_plic.h ****     PLIC_GPIO1_NON_DIRECT_INT_OFFSET         = 39 + OFFSET_TO_MSS_GLOBAL_INTS,
 314:/home/vinay/Desktop/softconsole_watershed/Water-shed/src/platform/mpfs_hal/common/mss_plic.h ****     PLIC_GPIO2_NON_DIRECT_INT_OFFSET         = 40 + OFFSET_TO_MSS_GLOBAL_INTS,
 315:/home/vinay/Desktop/softconsole_watershed/Water-shed/src/platform/mpfs_hal/common/mss_plic.h **** 
 316:/home/vinay/Desktop/softconsole_watershed/Water-shed/src/platform/mpfs_hal/common/mss_plic.h ****     PLIC_SPI0_INT_OFFSET                    = 41 + OFFSET_TO_MSS_GLOBAL_INTS,
 317:/home/vinay/Desktop/softconsole_watershed/Water-shed/src/platform/mpfs_hal/common/mss_plic.h ****     PLIC_SPI1_INT_OFFSET                    = 42 + OFFSET_TO_MSS_GLOBAL_INTS,
 318:/home/vinay/Desktop/softconsole_watershed/Water-shed/src/platform/mpfs_hal/common/mss_plic.h ****     PLIC_CAN0_INT_OFFSET                    = 43 + OFFSET_TO_MSS_GLOBAL_INTS,
 319:/home/vinay/Desktop/softconsole_watershed/Water-shed/src/platform/mpfs_hal/common/mss_plic.h ****     PLIC_CAN1_INT_OFFSET                    = 44 + OFFSET_TO_MSS_GLOBAL_INTS,
 320:/home/vinay/Desktop/softconsole_watershed/Water-shed/src/platform/mpfs_hal/common/mss_plic.h ****     PLIC_I2C0_MAIN_INT_OFFSET               = 45 + OFFSET_TO_MSS_GLOBAL_INTS,
 321:/home/vinay/Desktop/softconsole_watershed/Water-shed/src/platform/mpfs_hal/common/mss_plic.h ****     PLIC_I2C0_ALERT_INT_OFFSET              = 46 + OFFSET_TO_MSS_GLOBAL_INTS,
 322:/home/vinay/Desktop/softconsole_watershed/Water-shed/src/platform/mpfs_hal/common/mss_plic.h ****     PLIC_I2C0_SUS_INT_OFFSET                = 47 + OFFSET_TO_MSS_GLOBAL_INTS,
 323:/home/vinay/Desktop/softconsole_watershed/Water-shed/src/platform/mpfs_hal/common/mss_plic.h ****     PLIC_I2C1_MAIN_INT_OFFSET               = 48 + OFFSET_TO_MSS_GLOBAL_INTS,
 324:/home/vinay/Desktop/softconsole_watershed/Water-shed/src/platform/mpfs_hal/common/mss_plic.h ****     PLIC_I2C1_ALERT_INT_OFFSET              = 49 + OFFSET_TO_MSS_GLOBAL_INTS,
 325:/home/vinay/Desktop/softconsole_watershed/Water-shed/src/platform/mpfs_hal/common/mss_plic.h ****     PLIC_I2C1_SUS_INT_OFFSET                = 50 + OFFSET_TO_MSS_GLOBAL_INTS,
 326:/home/vinay/Desktop/softconsole_watershed/Water-shed/src/platform/mpfs_hal/common/mss_plic.h ****     PLIC_MAC0_INT_INT_OFFSET                = 51 + OFFSET_TO_MSS_GLOBAL_INTS,
 327:/home/vinay/Desktop/softconsole_watershed/Water-shed/src/platform/mpfs_hal/common/mss_plic.h ****     PLIC_MAC0_QUEUE1_INT_OFFSET             = 52 + OFFSET_TO_MSS_GLOBAL_INTS,
 328:/home/vinay/Desktop/softconsole_watershed/Water-shed/src/platform/mpfs_hal/common/mss_plic.h ****     PLIC_MAC0_QUEUE2_INT_OFFSET             = 53 + OFFSET_TO_MSS_GLOBAL_INTS,
 329:/home/vinay/Desktop/softconsole_watershed/Water-shed/src/platform/mpfs_hal/common/mss_plic.h ****     PLIC_MAC0_QUEUE3_INT_OFFSET             = 54 + OFFSET_TO_MSS_GLOBAL_INTS,
 330:/home/vinay/Desktop/softconsole_watershed/Water-shed/src/platform/mpfs_hal/common/mss_plic.h ****     PLIC_MAC0_EMAC_INT_OFFSET               = 55 + OFFSET_TO_MSS_GLOBAL_INTS,
 331:/home/vinay/Desktop/softconsole_watershed/Water-shed/src/platform/mpfs_hal/common/mss_plic.h ****     PLIC_MAC0_MMSL_INT_OFFSET               = 56 + OFFSET_TO_MSS_GLOBAL_INTS,
 332:/home/vinay/Desktop/softconsole_watershed/Water-shed/src/platform/mpfs_hal/common/mss_plic.h ****     PLIC_MAC1_INT_INT_OFFSET                = 57 + OFFSET_TO_MSS_GLOBAL_INTS,
 333:/home/vinay/Desktop/softconsole_watershed/Water-shed/src/platform/mpfs_hal/common/mss_plic.h ****     PLIC_MAC1_QUEUE1_INT_OFFSET             = 58 + OFFSET_TO_MSS_GLOBAL_INTS,
 334:/home/vinay/Desktop/softconsole_watershed/Water-shed/src/platform/mpfs_hal/common/mss_plic.h ****     PLIC_MAC1_QUEUE2_INT_OFFSET             = 59 + OFFSET_TO_MSS_GLOBAL_INTS,
 335:/home/vinay/Desktop/softconsole_watershed/Water-shed/src/platform/mpfs_hal/common/mss_plic.h ****     PLIC_MAC1_QUEUE3_INT_OFFSET             = 60 + OFFSET_TO_MSS_GLOBAL_INTS,
 336:/home/vinay/Desktop/softconsole_watershed/Water-shed/src/platform/mpfs_hal/common/mss_plic.h ****     PLIC_MAC1_EMAC_INT_OFFSET               = 61 + OFFSET_TO_MSS_GLOBAL_INTS,
 337:/home/vinay/Desktop/softconsole_watershed/Water-shed/src/platform/mpfs_hal/common/mss_plic.h ****     PLIC_MAC1_MMSL_INT_OFFSET               = 62 + OFFSET_TO_MSS_GLOBAL_INTS,
 338:/home/vinay/Desktop/softconsole_watershed/Water-shed/src/platform/mpfs_hal/common/mss_plic.h ****     PLIC_DDRC_TRAIN_INT_OFFSET              = 63 + OFFSET_TO_MSS_GLOBAL_INTS,
 339:/home/vinay/Desktop/softconsole_watershed/Water-shed/src/platform/mpfs_hal/common/mss_plic.h ****     PLIC_SCB_INTERRUPT_INT_OFFSET           = 64 + OFFSET_TO_MSS_GLOBAL_INTS,
 340:/home/vinay/Desktop/softconsole_watershed/Water-shed/src/platform/mpfs_hal/common/mss_plic.h ****     PLIC_ECC_ERROR_INT_OFFSET               = 65 + OFFSET_TO_MSS_GLOBAL_INTS,
 341:/home/vinay/Desktop/softconsole_watershed/Water-shed/src/platform/mpfs_hal/common/mss_plic.h ****     PLIC_ECC_CORRECT_INT_OFFSET             = 66 + OFFSET_TO_MSS_GLOBAL_INTS,
 342:/home/vinay/Desktop/softconsole_watershed/Water-shed/src/platform/mpfs_hal/common/mss_plic.h ****     PLIC_RTC_WAKEUP_INT_OFFSET              = 67 + OFFSET_TO_MSS_GLOBAL_INTS,
 343:/home/vinay/Desktop/softconsole_watershed/Water-shed/src/platform/mpfs_hal/common/mss_plic.h ****     PLIC_RTC_MATCH_INT_OFFSET               = 68 + OFFSET_TO_MSS_GLOBAL_INTS,
 344:/home/vinay/Desktop/softconsole_watershed/Water-shed/src/platform/mpfs_hal/common/mss_plic.h ****     PLIC_TIMER1_INT_OFFSET                  = 69 + OFFSET_TO_MSS_GLOBAL_INTS,
 345:/home/vinay/Desktop/softconsole_watershed/Water-shed/src/platform/mpfs_hal/common/mss_plic.h ****     PLIC_TIMER2_INT_OFFSET                  = 70 + OFFSET_TO_MSS_GLOBAL_INTS,
 346:/home/vinay/Desktop/softconsole_watershed/Water-shed/src/platform/mpfs_hal/common/mss_plic.h ****     PLIC_ENVM_INT_OFFSET                    = 71 + OFFSET_TO_MSS_GLOBAL_INTS,
 347:/home/vinay/Desktop/softconsole_watershed/Water-shed/src/platform/mpfs_hal/common/mss_plic.h ****     PLIC_QSPI_INT_OFFSET                    = 72 + OFFSET_TO_MSS_GLOBAL_INTS,
 348:/home/vinay/Desktop/softconsole_watershed/Water-shed/src/platform/mpfs_hal/common/mss_plic.h ****     PLIC_USB_DMA_INT_OFFSET                 = 73 + OFFSET_TO_MSS_GLOBAL_INTS,
 349:/home/vinay/Desktop/softconsole_watershed/Water-shed/src/platform/mpfs_hal/common/mss_plic.h ****     PLIC_USB_MC_INT_OFFSET                  = 74 + OFFSET_TO_MSS_GLOBAL_INTS,
 350:/home/vinay/Desktop/softconsole_watershed/Water-shed/src/platform/mpfs_hal/common/mss_plic.h ****     PLIC_MMC_main_INT_OFFSET                = 75 + OFFSET_TO_MSS_GLOBAL_INTS,
 351:/home/vinay/Desktop/softconsole_watershed/Water-shed/src/platform/mpfs_hal/common/mss_plic.h ****     PLIC_MMC_wakeup_INT_OFFSET              = 76 + OFFSET_TO_MSS_GLOBAL_INTS,
 352:/home/vinay/Desktop/softconsole_watershed/Water-shed/src/platform/mpfs_hal/common/mss_plic.h ****     PLIC_MMUART0_INT_OFFSET                 = 77 + OFFSET_TO_MSS_GLOBAL_INTS,
 353:/home/vinay/Desktop/softconsole_watershed/Water-shed/src/platform/mpfs_hal/common/mss_plic.h ****     PLIC_MMUART1_INT_OFFSET                 = 78 + OFFSET_TO_MSS_GLOBAL_INTS,
 354:/home/vinay/Desktop/softconsole_watershed/Water-shed/src/platform/mpfs_hal/common/mss_plic.h ****     PLIC_MMUART2_INT_OFFSET                 = 79 + OFFSET_TO_MSS_GLOBAL_INTS,
 355:/home/vinay/Desktop/softconsole_watershed/Water-shed/src/platform/mpfs_hal/common/mss_plic.h ****     PLIC_MMUART3_INT_OFFSET                 = 80 + OFFSET_TO_MSS_GLOBAL_INTS,
 356:/home/vinay/Desktop/softconsole_watershed/Water-shed/src/platform/mpfs_hal/common/mss_plic.h ****     PLIC_MMUART4_INT_OFFSET                 = 81 + OFFSET_TO_MSS_GLOBAL_INTS,
 357:/home/vinay/Desktop/softconsole_watershed/Water-shed/src/platform/mpfs_hal/common/mss_plic.h **** 
 358:/home/vinay/Desktop/softconsole_watershed/Water-shed/src/platform/mpfs_hal/common/mss_plic.h ****     G5C_DEVRST_INT_OFFSET              = 82 + OFFSET_TO_MSS_GLOBAL_INTS,
 359:/home/vinay/Desktop/softconsole_watershed/Water-shed/src/platform/mpfs_hal/common/mss_plic.h ****     g5c_MESSAGE_INT_OFFSET             = 83 + OFFSET_TO_MSS_GLOBAL_INTS,
 360:/home/vinay/Desktop/softconsole_watershed/Water-shed/src/platform/mpfs_hal/common/mss_plic.h ****     USOC_VC_INTERRUPT_INT_OFFSET       = 84 + OFFSET_TO_MSS_GLOBAL_INTS,
 361:/home/vinay/Desktop/softconsole_watershed/Water-shed/src/platform/mpfs_hal/common/mss_plic.h ****     USOC_SMB_INTERRUPT_INT_OFFSET      = 85 + OFFSET_TO_MSS_GLOBAL_INTS,
 362:/home/vinay/Desktop/softconsole_watershed/Water-shed/src/platform/mpfs_hal/common/mss_plic.h ****     /* contains multiple interrupts- */
 363:/home/vinay/Desktop/softconsole_watershed/Water-shed/src/platform/mpfs_hal/common/mss_plic.h ****     E51_0_MAINTENACE_INT_OFFSET        = 86 + OFFSET_TO_MSS_GLOBAL_INTS,
 364:/home/vinay/Desktop/softconsole_watershed/Water-shed/src/platform/mpfs_hal/common/mss_plic.h **** 
 365:/home/vinay/Desktop/softconsole_watershed/Water-shed/src/platform/mpfs_hal/common/mss_plic.h ****     PLIC_WDOG0_MRVP_INT_OFFSET              = 87 + OFFSET_TO_MSS_GLOBAL_INTS,
 366:/home/vinay/Desktop/softconsole_watershed/Water-shed/src/platform/mpfs_hal/common/mss_plic.h ****     PLIC_WDOG1_MRVP_INT_OFFSET              = 88 + OFFSET_TO_MSS_GLOBAL_INTS,
 367:/home/vinay/Desktop/softconsole_watershed/Water-shed/src/platform/mpfs_hal/common/mss_plic.h ****     PLIC_WDOG2_MRVP_INT_OFFSET              = 89 + OFFSET_TO_MSS_GLOBAL_INTS,
 368:/home/vinay/Desktop/softconsole_watershed/Water-shed/src/platform/mpfs_hal/common/mss_plic.h ****     PLIC_WDOG3_MRVP_INT_OFFSET              = 90 + OFFSET_TO_MSS_GLOBAL_INTS,
 369:/home/vinay/Desktop/softconsole_watershed/Water-shed/src/platform/mpfs_hal/common/mss_plic.h ****     PLIC_WDOG4_MRVP_INT_OFFSET              = 91 + OFFSET_TO_MSS_GLOBAL_INTS,
 370:/home/vinay/Desktop/softconsole_watershed/Water-shed/src/platform/mpfs_hal/common/mss_plic.h ****     PLIC_WDOG0_TOUT_INT_OFFSET              = 92 + OFFSET_TO_MSS_GLOBAL_INTS,
 371:/home/vinay/Desktop/softconsole_watershed/Water-shed/src/platform/mpfs_hal/common/mss_plic.h ****     PLIC_WDOG1_TOUT_INT_OFFSET              = 93 + OFFSET_TO_MSS_GLOBAL_INTS,
 372:/home/vinay/Desktop/softconsole_watershed/Water-shed/src/platform/mpfs_hal/common/mss_plic.h ****     PLIC_WDOG2_TOUT_INT_OFFSET              = 94 + OFFSET_TO_MSS_GLOBAL_INTS,
 373:/home/vinay/Desktop/softconsole_watershed/Water-shed/src/platform/mpfs_hal/common/mss_plic.h ****     PLIC_WDOG3_TOUT_INT_OFFSET              = 95 + OFFSET_TO_MSS_GLOBAL_INTS,
 374:/home/vinay/Desktop/softconsole_watershed/Water-shed/src/platform/mpfs_hal/common/mss_plic.h ****     PLIC_WDOG4_TOUT_INT_OFFSET              = 96 + OFFSET_TO_MSS_GLOBAL_INTS,
 375:/home/vinay/Desktop/softconsole_watershed/Water-shed/src/platform/mpfs_hal/common/mss_plic.h ****     G5C_MSS_SPI_INT_OFFSET             = 97 + OFFSET_TO_MSS_GLOBAL_INTS,
 376:/home/vinay/Desktop/softconsole_watershed/Water-shed/src/platform/mpfs_hal/common/mss_plic.h ****     VOLT_TEMP_ALARM_INT_OFFSET         = 98 + OFFSET_TO_MSS_GLOBAL_INTS,
 377:/home/vinay/Desktop/softconsole_watershed/Water-shed/src/platform/mpfs_hal/common/mss_plic.h ****     ATHENA_COMPLETE_INT_OFFSET         = 99 + OFFSET_TO_MSS_GLOBAL_INTS,
 378:/home/vinay/Desktop/softconsole_watershed/Water-shed/src/platform/mpfs_hal/common/mss_plic.h ****     ATHENA_ALARM_INT_OFFSET            = 100 + OFFSET_TO_MSS_GLOBAL_INTS,
 379:/home/vinay/Desktop/softconsole_watershed/Water-shed/src/platform/mpfs_hal/common/mss_plic.h ****     ATHENA_BUS_ERROR_INT_OFFSET        = 101 + OFFSET_TO_MSS_GLOBAL_INTS,
 380:/home/vinay/Desktop/softconsole_watershed/Water-shed/src/platform/mpfs_hal/common/mss_plic.h ****     USOC_AXIC_US_INT_OFFSET            = 102 + OFFSET_TO_MSS_GLOBAL_INTS,
 381:/home/vinay/Desktop/softconsole_watershed/Water-shed/src/platform/mpfs_hal/common/mss_plic.h ****     USOC_AXIC_DS_INT_OFFSET            = 103 + OFFSET_TO_MSS_GLOBAL_INTS,
 382:/home/vinay/Desktop/softconsole_watershed/Water-shed/src/platform/mpfs_hal/common/mss_plic.h **** 
 383:/home/vinay/Desktop/softconsole_watershed/Water-shed/src/platform/mpfs_hal/common/mss_plic.h ****     PLIC_F2M_0_INT_OFFSET            = 105 + OFFSET_TO_MSS_GLOBAL_INTS,
 384:/home/vinay/Desktop/softconsole_watershed/Water-shed/src/platform/mpfs_hal/common/mss_plic.h ****     PLIC_F2M_1_INT_OFFSET            = 106 + OFFSET_TO_MSS_GLOBAL_INTS,
 385:/home/vinay/Desktop/softconsole_watershed/Water-shed/src/platform/mpfs_hal/common/mss_plic.h ****     PLIC_F2M_2_INT_OFFSET            = 107 + OFFSET_TO_MSS_GLOBAL_INTS,
 386:/home/vinay/Desktop/softconsole_watershed/Water-shed/src/platform/mpfs_hal/common/mss_plic.h ****     PLIC_F2M_3_INT_OFFSET            = 108 + OFFSET_TO_MSS_GLOBAL_INTS,
 387:/home/vinay/Desktop/softconsole_watershed/Water-shed/src/platform/mpfs_hal/common/mss_plic.h ****     PLIC_F2M_4_INT_OFFSET            = 109 + OFFSET_TO_MSS_GLOBAL_INTS,
 388:/home/vinay/Desktop/softconsole_watershed/Water-shed/src/platform/mpfs_hal/common/mss_plic.h ****     PLIC_F2M_5_INT_OFFSET            = 110 + OFFSET_TO_MSS_GLOBAL_INTS,
 389:/home/vinay/Desktop/softconsole_watershed/Water-shed/src/platform/mpfs_hal/common/mss_plic.h ****     PLIC_F2M_6_INT_OFFSET            = 111 + OFFSET_TO_MSS_GLOBAL_INTS,
 390:/home/vinay/Desktop/softconsole_watershed/Water-shed/src/platform/mpfs_hal/common/mss_plic.h ****     PLIC_F2M_7_INT_OFFSET            = 112 + OFFSET_TO_MSS_GLOBAL_INTS,
 391:/home/vinay/Desktop/softconsole_watershed/Water-shed/src/platform/mpfs_hal/common/mss_plic.h ****     PLIC_F2M_8_INT_OFFSET            = 113 + OFFSET_TO_MSS_GLOBAL_INTS,
 392:/home/vinay/Desktop/softconsole_watershed/Water-shed/src/platform/mpfs_hal/common/mss_plic.h ****     PLIC_F2M_9_INT_OFFSET            = 114 + OFFSET_TO_MSS_GLOBAL_INTS,
 393:/home/vinay/Desktop/softconsole_watershed/Water-shed/src/platform/mpfs_hal/common/mss_plic.h **** 
 394:/home/vinay/Desktop/softconsole_watershed/Water-shed/src/platform/mpfs_hal/common/mss_plic.h ****     PLIC_F2M_10_INT_OFFSET           = 115 + OFFSET_TO_MSS_GLOBAL_INTS,
 395:/home/vinay/Desktop/softconsole_watershed/Water-shed/src/platform/mpfs_hal/common/mss_plic.h ****     PLIC_F2M_11_INT_OFFSET           = 116 + OFFSET_TO_MSS_GLOBAL_INTS,
 396:/home/vinay/Desktop/softconsole_watershed/Water-shed/src/platform/mpfs_hal/common/mss_plic.h ****     PLIC_F2M_12_INT_OFFSET           = 117 + OFFSET_TO_MSS_GLOBAL_INTS,
 397:/home/vinay/Desktop/softconsole_watershed/Water-shed/src/platform/mpfs_hal/common/mss_plic.h ****     PLIC_F2M_13_INT_OFFSET           = 118 + OFFSET_TO_MSS_GLOBAL_INTS,
 398:/home/vinay/Desktop/softconsole_watershed/Water-shed/src/platform/mpfs_hal/common/mss_plic.h ****     PLIC_F2M_14_INT_OFFSET           = 119 + OFFSET_TO_MSS_GLOBAL_INTS,
 399:/home/vinay/Desktop/softconsole_watershed/Water-shed/src/platform/mpfs_hal/common/mss_plic.h ****     PLIC_F2M_15_INT_OFFSET           = 120 + OFFSET_TO_MSS_GLOBAL_INTS,
 400:/home/vinay/Desktop/softconsole_watershed/Water-shed/src/platform/mpfs_hal/common/mss_plic.h ****     PLIC_F2M_16_INT_OFFSET           = 121 + OFFSET_TO_MSS_GLOBAL_INTS,
 401:/home/vinay/Desktop/softconsole_watershed/Water-shed/src/platform/mpfs_hal/common/mss_plic.h ****     PLIC_F2M_17_INT_OFFSET           = 122 + OFFSET_TO_MSS_GLOBAL_INTS,
 402:/home/vinay/Desktop/softconsole_watershed/Water-shed/src/platform/mpfs_hal/common/mss_plic.h ****     PLIC_F2M_18_INT_OFFSET           = 123 + OFFSET_TO_MSS_GLOBAL_INTS,
 403:/home/vinay/Desktop/softconsole_watershed/Water-shed/src/platform/mpfs_hal/common/mss_plic.h ****     PLIC_F2M_19_INT_OFFSET           = 124 + OFFSET_TO_MSS_GLOBAL_INTS,
 404:/home/vinay/Desktop/softconsole_watershed/Water-shed/src/platform/mpfs_hal/common/mss_plic.h **** 
 405:/home/vinay/Desktop/softconsole_watershed/Water-shed/src/platform/mpfs_hal/common/mss_plic.h ****     PLIC_F2M_20_INT_OFFSET           = 125 + OFFSET_TO_MSS_GLOBAL_INTS,
 406:/home/vinay/Desktop/softconsole_watershed/Water-shed/src/platform/mpfs_hal/common/mss_plic.h ****     PLIC_F2M_21_INT_OFFSET           = 126 + OFFSET_TO_MSS_GLOBAL_INTS,
 407:/home/vinay/Desktop/softconsole_watershed/Water-shed/src/platform/mpfs_hal/common/mss_plic.h ****     PLIC_F2M_22_INT_OFFSET           = 127 + OFFSET_TO_MSS_GLOBAL_INTS,
 408:/home/vinay/Desktop/softconsole_watershed/Water-shed/src/platform/mpfs_hal/common/mss_plic.h ****     PLIC_F2M_23_INT_OFFSET           = 128 + OFFSET_TO_MSS_GLOBAL_INTS,
 409:/home/vinay/Desktop/softconsole_watershed/Water-shed/src/platform/mpfs_hal/common/mss_plic.h ****     PLIC_F2M_24_INT_OFFSET           = 129 + OFFSET_TO_MSS_GLOBAL_INTS,
 410:/home/vinay/Desktop/softconsole_watershed/Water-shed/src/platform/mpfs_hal/common/mss_plic.h ****     PLIC_F2M_25_INT_OFFSET           = 130 + OFFSET_TO_MSS_GLOBAL_INTS,
 411:/home/vinay/Desktop/softconsole_watershed/Water-shed/src/platform/mpfs_hal/common/mss_plic.h ****     PLIC_F2M_26_INT_OFFSET           = 131 + OFFSET_TO_MSS_GLOBAL_INTS,
 412:/home/vinay/Desktop/softconsole_watershed/Water-shed/src/platform/mpfs_hal/common/mss_plic.h ****     PLIC_F2M_27_INT_OFFSET           = 132 + OFFSET_TO_MSS_GLOBAL_INTS,
 413:/home/vinay/Desktop/softconsole_watershed/Water-shed/src/platform/mpfs_hal/common/mss_plic.h ****     PLIC_F2M_28_INT_OFFSET           = 133 + OFFSET_TO_MSS_GLOBAL_INTS,
 414:/home/vinay/Desktop/softconsole_watershed/Water-shed/src/platform/mpfs_hal/common/mss_plic.h ****     PLIC_F2M_29_INT_OFFSET           = 134 + OFFSET_TO_MSS_GLOBAL_INTS,
 415:/home/vinay/Desktop/softconsole_watershed/Water-shed/src/platform/mpfs_hal/common/mss_plic.h **** 
 416:/home/vinay/Desktop/softconsole_watershed/Water-shed/src/platform/mpfs_hal/common/mss_plic.h ****     PLIC_F2M_30_INT_OFFSET           = 135 + OFFSET_TO_MSS_GLOBAL_INTS,
 417:/home/vinay/Desktop/softconsole_watershed/Water-shed/src/platform/mpfs_hal/common/mss_plic.h ****     PLIC_F2M_31_INT_OFFSET           = 136 + OFFSET_TO_MSS_GLOBAL_INTS,
 418:/home/vinay/Desktop/softconsole_watershed/Water-shed/src/platform/mpfs_hal/common/mss_plic.h **** 
 419:/home/vinay/Desktop/softconsole_watershed/Water-shed/src/platform/mpfs_hal/common/mss_plic.h ****     PLIC_F2M_32_INT_OFFSET           = 137 + OFFSET_TO_MSS_GLOBAL_INTS,
 420:/home/vinay/Desktop/softconsole_watershed/Water-shed/src/platform/mpfs_hal/common/mss_plic.h ****     PLIC_F2M_33_INT_OFFSET           = 138 + OFFSET_TO_MSS_GLOBAL_INTS,
 421:/home/vinay/Desktop/softconsole_watershed/Water-shed/src/platform/mpfs_hal/common/mss_plic.h ****     PLIC_F2M_34_INT_OFFSET           = 139 + OFFSET_TO_MSS_GLOBAL_INTS,
 422:/home/vinay/Desktop/softconsole_watershed/Water-shed/src/platform/mpfs_hal/common/mss_plic.h ****     PLIC_F2M_35_INT_OFFSET           = 140 + OFFSET_TO_MSS_GLOBAL_INTS,
 423:/home/vinay/Desktop/softconsole_watershed/Water-shed/src/platform/mpfs_hal/common/mss_plic.h ****     PLIC_F2M_36_INT_OFFSET           = 141 + OFFSET_TO_MSS_GLOBAL_INTS,
 424:/home/vinay/Desktop/softconsole_watershed/Water-shed/src/platform/mpfs_hal/common/mss_plic.h ****     PLIC_F2M_37_INT_OFFSET           = 142 + OFFSET_TO_MSS_GLOBAL_INTS,
 425:/home/vinay/Desktop/softconsole_watershed/Water-shed/src/platform/mpfs_hal/common/mss_plic.h ****     PLIC_F2M_38_INT_OFFSET           = 143 + OFFSET_TO_MSS_GLOBAL_INTS,
 426:/home/vinay/Desktop/softconsole_watershed/Water-shed/src/platform/mpfs_hal/common/mss_plic.h ****     PLIC_F2M_39_INT_OFFSET           = 144 + OFFSET_TO_MSS_GLOBAL_INTS,
 427:/home/vinay/Desktop/softconsole_watershed/Water-shed/src/platform/mpfs_hal/common/mss_plic.h ****     PLIC_F2M_40_INT_OFFSET           = 145 + OFFSET_TO_MSS_GLOBAL_INTS,
 428:/home/vinay/Desktop/softconsole_watershed/Water-shed/src/platform/mpfs_hal/common/mss_plic.h ****     PLIC_F2M_41_INT_OFFSET           = 146 + OFFSET_TO_MSS_GLOBAL_INTS,
 429:/home/vinay/Desktop/softconsole_watershed/Water-shed/src/platform/mpfs_hal/common/mss_plic.h **** 
 430:/home/vinay/Desktop/softconsole_watershed/Water-shed/src/platform/mpfs_hal/common/mss_plic.h ****     PLIC_F2M_42_INT_OFFSET           = 147 + OFFSET_TO_MSS_GLOBAL_INTS,
 431:/home/vinay/Desktop/softconsole_watershed/Water-shed/src/platform/mpfs_hal/common/mss_plic.h ****     PLIC_F2M_43_INT_OFFSET           = 148 + OFFSET_TO_MSS_GLOBAL_INTS,
 432:/home/vinay/Desktop/softconsole_watershed/Water-shed/src/platform/mpfs_hal/common/mss_plic.h ****     PLIC_F2M_44_INT_OFFSET           = 149 + OFFSET_TO_MSS_GLOBAL_INTS,
 433:/home/vinay/Desktop/softconsole_watershed/Water-shed/src/platform/mpfs_hal/common/mss_plic.h ****     PLIC_F2M_45_INT_OFFSET           = 150 + OFFSET_TO_MSS_GLOBAL_INTS,
 434:/home/vinay/Desktop/softconsole_watershed/Water-shed/src/platform/mpfs_hal/common/mss_plic.h ****     PLIC_F2M_46_INT_OFFSET           = 151 + OFFSET_TO_MSS_GLOBAL_INTS,
 435:/home/vinay/Desktop/softconsole_watershed/Water-shed/src/platform/mpfs_hal/common/mss_plic.h ****     PLIC_F2M_47_INT_OFFSET           = 152 + OFFSET_TO_MSS_GLOBAL_INTS,
 436:/home/vinay/Desktop/softconsole_watershed/Water-shed/src/platform/mpfs_hal/common/mss_plic.h ****     PLIC_F2M_48_INT_OFFSET           = 153 + OFFSET_TO_MSS_GLOBAL_INTS,
 437:/home/vinay/Desktop/softconsole_watershed/Water-shed/src/platform/mpfs_hal/common/mss_plic.h ****     PLIC_F2M_49_INT_OFFSET           = 154 + OFFSET_TO_MSS_GLOBAL_INTS,
 438:/home/vinay/Desktop/softconsole_watershed/Water-shed/src/platform/mpfs_hal/common/mss_plic.h ****     PLIC_F2M_50_INT_OFFSET           = 155 + OFFSET_TO_MSS_GLOBAL_INTS,
 439:/home/vinay/Desktop/softconsole_watershed/Water-shed/src/platform/mpfs_hal/common/mss_plic.h ****     PLIC_F2M_51_INT_OFFSET           = 156 + OFFSET_TO_MSS_GLOBAL_INTS,
 440:/home/vinay/Desktop/softconsole_watershed/Water-shed/src/platform/mpfs_hal/common/mss_plic.h **** 
 441:/home/vinay/Desktop/softconsole_watershed/Water-shed/src/platform/mpfs_hal/common/mss_plic.h ****     PLIC_F2M_52_INT_OFFSET           = 157 + OFFSET_TO_MSS_GLOBAL_INTS,
 442:/home/vinay/Desktop/softconsole_watershed/Water-shed/src/platform/mpfs_hal/common/mss_plic.h ****     PLIC_F2M_53_INT_OFFSET           = 158 + OFFSET_TO_MSS_GLOBAL_INTS,
 443:/home/vinay/Desktop/softconsole_watershed/Water-shed/src/platform/mpfs_hal/common/mss_plic.h ****     PLIC_F2M_54_INT_OFFSET           = 159 + OFFSET_TO_MSS_GLOBAL_INTS,
 444:/home/vinay/Desktop/softconsole_watershed/Water-shed/src/platform/mpfs_hal/common/mss_plic.h ****     PLIC_F2M_55_INT_OFFSET           = 160 + OFFSET_TO_MSS_GLOBAL_INTS,
 445:/home/vinay/Desktop/softconsole_watershed/Water-shed/src/platform/mpfs_hal/common/mss_plic.h ****     PLIC_F2M_56_INT_OFFSET           = 161 + OFFSET_TO_MSS_GLOBAL_INTS,
 446:/home/vinay/Desktop/softconsole_watershed/Water-shed/src/platform/mpfs_hal/common/mss_plic.h ****     PLIC_F2M_57_INT_OFFSET           = 162 + OFFSET_TO_MSS_GLOBAL_INTS,
 447:/home/vinay/Desktop/softconsole_watershed/Water-shed/src/platform/mpfs_hal/common/mss_plic.h ****     PLIC_F2M_58_INT_OFFSET           = 163 + OFFSET_TO_MSS_GLOBAL_INTS,
 448:/home/vinay/Desktop/softconsole_watershed/Water-shed/src/platform/mpfs_hal/common/mss_plic.h ****     PLIC_F2M_59_INT_OFFSET           = 164 + OFFSET_TO_MSS_GLOBAL_INTS,
 449:/home/vinay/Desktop/softconsole_watershed/Water-shed/src/platform/mpfs_hal/common/mss_plic.h ****     PLIC_F2M_60_INT_OFFSET           = 165 + OFFSET_TO_MSS_GLOBAL_INTS,
 450:/home/vinay/Desktop/softconsole_watershed/Water-shed/src/platform/mpfs_hal/common/mss_plic.h ****     PLIC_F2M_61_INT_OFFSET           = 166 + OFFSET_TO_MSS_GLOBAL_INTS,
 451:/home/vinay/Desktop/softconsole_watershed/Water-shed/src/platform/mpfs_hal/common/mss_plic.h **** 
 452:/home/vinay/Desktop/softconsole_watershed/Water-shed/src/platform/mpfs_hal/common/mss_plic.h ****     PLIC_F2M_62_INT_OFFSET           = 167 + OFFSET_TO_MSS_GLOBAL_INTS,
 453:/home/vinay/Desktop/softconsole_watershed/Water-shed/src/platform/mpfs_hal/common/mss_plic.h ****     PLIC_F2M_63_INT_OFFSET           = 168 + OFFSET_TO_MSS_GLOBAL_INTS,
 454:/home/vinay/Desktop/softconsole_watershed/Water-shed/src/platform/mpfs_hal/common/mss_plic.h **** 
 455:/home/vinay/Desktop/softconsole_watershed/Water-shed/src/platform/mpfs_hal/common/mss_plic.h ****     PLIC_E51_BUS_ERROR_UNIT_OFFSET        = 182,
 456:/home/vinay/Desktop/softconsole_watershed/Water-shed/src/platform/mpfs_hal/common/mss_plic.h ****     PLIC_U54_1_BUS_ERROR_UNIT_OFFSET      = 183,
 457:/home/vinay/Desktop/softconsole_watershed/Water-shed/src/platform/mpfs_hal/common/mss_plic.h ****     PLIC_U54_2_BUS_ERROR_UNIT_OFFSET      = 184,
 458:/home/vinay/Desktop/softconsole_watershed/Water-shed/src/platform/mpfs_hal/common/mss_plic.h ****     PLIC_U54_3_BUS_ERROR_UNIT_OFFSET      = 185,
 459:/home/vinay/Desktop/softconsole_watershed/Water-shed/src/platform/mpfs_hal/common/mss_plic.h ****     PLIC_U54_4_BUS_ERROR_UNIT_OFFSET      = 186
 460:/home/vinay/Desktop/softconsole_watershed/Water-shed/src/platform/mpfs_hal/common/mss_plic.h **** 
 461:/home/vinay/Desktop/softconsole_watershed/Water-shed/src/platform/mpfs_hal/common/mss_plic.h **** } PLIC_IRQn_Type;
 462:/home/vinay/Desktop/softconsole_watershed/Water-shed/src/platform/mpfs_hal/common/mss_plic.h **** 
 463:/home/vinay/Desktop/softconsole_watershed/Water-shed/src/platform/mpfs_hal/common/mss_plic.h **** #define MAX_PLIC_INT PLIC_U54_4_BUS_ERROR_UNIT_OFFSET
 464:/home/vinay/Desktop/softconsole_watershed/Water-shed/src/platform/mpfs_hal/common/mss_plic.h **** 
 465:/home/vinay/Desktop/softconsole_watershed/Water-shed/src/platform/mpfs_hal/common/mss_plic.h **** typedef struct
 466:/home/vinay/Desktop/softconsole_watershed/Water-shed/src/platform/mpfs_hal/common/mss_plic.h **** {
 467:/home/vinay/Desktop/softconsole_watershed/Water-shed/src/platform/mpfs_hal/common/mss_plic.h ****     volatile uint32_t PRIORITY_THRESHOLD;
 468:/home/vinay/Desktop/softconsole_watershed/Water-shed/src/platform/mpfs_hal/common/mss_plic.h ****     volatile uint32_t CLAIM_COMPLETE;
 469:/home/vinay/Desktop/softconsole_watershed/Water-shed/src/platform/mpfs_hal/common/mss_plic.h ****     volatile uint32_t reserved[(0x1000/4)-2];
 470:/home/vinay/Desktop/softconsole_watershed/Water-shed/src/platform/mpfs_hal/common/mss_plic.h **** } IRQ_Target_Type;
 471:/home/vinay/Desktop/softconsole_watershed/Water-shed/src/platform/mpfs_hal/common/mss_plic.h **** 
 472:/home/vinay/Desktop/softconsole_watershed/Water-shed/src/platform/mpfs_hal/common/mss_plic.h **** typedef struct
 473:/home/vinay/Desktop/softconsole_watershed/Water-shed/src/platform/mpfs_hal/common/mss_plic.h **** {
 474:/home/vinay/Desktop/softconsole_watershed/Water-shed/src/platform/mpfs_hal/common/mss_plic.h ****     volatile uint32_t ENABLES[32U];
 475:/home/vinay/Desktop/softconsole_watershed/Water-shed/src/platform/mpfs_hal/common/mss_plic.h **** } Target_Enables_Type;
 476:/home/vinay/Desktop/softconsole_watershed/Water-shed/src/platform/mpfs_hal/common/mss_plic.h **** 
 477:/home/vinay/Desktop/softconsole_watershed/Water-shed/src/platform/mpfs_hal/common/mss_plic.h **** 
 478:/home/vinay/Desktop/softconsole_watershed/Water-shed/src/platform/mpfs_hal/common/mss_plic.h **** #define PLIC_SET_UP_REGISTERS 6U
 479:/home/vinay/Desktop/softconsole_watershed/Water-shed/src/platform/mpfs_hal/common/mss_plic.h **** 
 480:/home/vinay/Desktop/softconsole_watershed/Water-shed/src/platform/mpfs_hal/common/mss_plic.h **** #define PLIC_NUM_SOURCES 187U
 481:/home/vinay/Desktop/softconsole_watershed/Water-shed/src/platform/mpfs_hal/common/mss_plic.h **** 
 482:/home/vinay/Desktop/softconsole_watershed/Water-shed/src/platform/mpfs_hal/common/mss_plic.h **** #define PLIC_NUM_PRIORITIES 7U
 483:/home/vinay/Desktop/softconsole_watershed/Water-shed/src/platform/mpfs_hal/common/mss_plic.h **** #define NUM_CLAIM_REGS      9U
 484:/home/vinay/Desktop/softconsole_watershed/Water-shed/src/platform/mpfs_hal/common/mss_plic.h **** 
 485:/home/vinay/Desktop/softconsole_watershed/Water-shed/src/platform/mpfs_hal/common/mss_plic.h **** 
 486:/home/vinay/Desktop/softconsole_watershed/Water-shed/src/platform/mpfs_hal/common/mss_plic.h **** /* The FU540-C000 has 53 interrupt sources. */
 487:/home/vinay/Desktop/softconsole_watershed/Water-shed/src/platform/mpfs_hal/common/mss_plic.h ****  typedef struct
 488:/home/vinay/Desktop/softconsole_watershed/Water-shed/src/platform/mpfs_hal/common/mss_plic.h **** {
 489:/home/vinay/Desktop/softconsole_watershed/Water-shed/src/platform/mpfs_hal/common/mss_plic.h ****     volatile uint32_t RESERVED0;
 490:/home/vinay/Desktop/softconsole_watershed/Water-shed/src/platform/mpfs_hal/common/mss_plic.h ****     /*-------------------- Source Priority --------------------*/
 491:/home/vinay/Desktop/softconsole_watershed/Water-shed/src/platform/mpfs_hal/common/mss_plic.h ****     volatile uint32_t SOURCE_PRIORITY[PLIC_NUM_SOURCES];
 492:/home/vinay/Desktop/softconsole_watershed/Water-shed/src/platform/mpfs_hal/common/mss_plic.h ****     volatile uint32_t RESERVED1[(0x1000 / 4) - (PLIC_NUM_SOURCES + 1)];
 493:/home/vinay/Desktop/softconsole_watershed/Water-shed/src/platform/mpfs_hal/common/mss_plic.h ****     /*-------------------- Pending array --------------------*/
 494:/home/vinay/Desktop/softconsole_watershed/Water-shed/src/platform/mpfs_hal/common/mss_plic.h ****     volatile const uint32_t PENDING_ARRAY[PLIC_SET_UP_REGISTERS];
 495:/home/vinay/Desktop/softconsole_watershed/Water-shed/src/platform/mpfs_hal/common/mss_plic.h ****     volatile uint32_t RESERVED2[(0x1000/4) - PLIC_SET_UP_REGISTERS];
 496:/home/vinay/Desktop/softconsole_watershed/Water-shed/src/platform/mpfs_hal/common/mss_plic.h **** 
 497:/home/vinay/Desktop/softconsole_watershed/Water-shed/src/platform/mpfs_hal/common/mss_plic.h ****     /*-----------------Hart0 Mode Enables--------------------*/
 498:/home/vinay/Desktop/softconsole_watershed/Water-shed/src/platform/mpfs_hal/common/mss_plic.h ****     volatile uint32_t HART0_MMODE_ENA[PLIC_SET_UP_REGISTERS];
 499:/home/vinay/Desktop/softconsole_watershed/Water-shed/src/platform/mpfs_hal/common/mss_plic.h ****     volatile uint32_t RESERVED3[(0x80/4) - PLIC_SET_UP_REGISTERS];
 500:/home/vinay/Desktop/softconsole_watershed/Water-shed/src/platform/mpfs_hal/common/mss_plic.h **** 
 501:/home/vinay/Desktop/softconsole_watershed/Water-shed/src/platform/mpfs_hal/common/mss_plic.h ****     /*-----------------Hart1 Mode Enables--------------------*/
 502:/home/vinay/Desktop/softconsole_watershed/Water-shed/src/platform/mpfs_hal/common/mss_plic.h ****     volatile uint32_t HART1_MMODE_ENA[PLIC_SET_UP_REGISTERS];
 503:/home/vinay/Desktop/softconsole_watershed/Water-shed/src/platform/mpfs_hal/common/mss_plic.h ****     volatile uint32_t RESERVED4a[(0x80/4) - PLIC_SET_UP_REGISTERS];
 504:/home/vinay/Desktop/softconsole_watershed/Water-shed/src/platform/mpfs_hal/common/mss_plic.h ****     volatile uint32_t HART1_SMODE_ENA[PLIC_SET_UP_REGISTERS];
 505:/home/vinay/Desktop/softconsole_watershed/Water-shed/src/platform/mpfs_hal/common/mss_plic.h ****     volatile uint32_t RESERVED4[(0x80/4) - PLIC_SET_UP_REGISTERS];
 506:/home/vinay/Desktop/softconsole_watershed/Water-shed/src/platform/mpfs_hal/common/mss_plic.h **** 
 507:/home/vinay/Desktop/softconsole_watershed/Water-shed/src/platform/mpfs_hal/common/mss_plic.h ****     /*-----------------Hart2 Mode Enables--------------------*/
 508:/home/vinay/Desktop/softconsole_watershed/Water-shed/src/platform/mpfs_hal/common/mss_plic.h ****     volatile uint32_t HART2_MMODE_ENA[PLIC_SET_UP_REGISTERS];
 509:/home/vinay/Desktop/softconsole_watershed/Water-shed/src/platform/mpfs_hal/common/mss_plic.h ****     volatile uint32_t RESERVED5a[(0x80/4) - PLIC_SET_UP_REGISTERS];
 510:/home/vinay/Desktop/softconsole_watershed/Water-shed/src/platform/mpfs_hal/common/mss_plic.h ****     volatile uint32_t HART2_SMODE_ENA[PLIC_SET_UP_REGISTERS];
 511:/home/vinay/Desktop/softconsole_watershed/Water-shed/src/platform/mpfs_hal/common/mss_plic.h ****     volatile uint32_t RESERVED5[(0x80/4) - PLIC_SET_UP_REGISTERS];
 512:/home/vinay/Desktop/softconsole_watershed/Water-shed/src/platform/mpfs_hal/common/mss_plic.h **** 
 513:/home/vinay/Desktop/softconsole_watershed/Water-shed/src/platform/mpfs_hal/common/mss_plic.h ****     /*-----------------Hart3 Mode Enables--------------------*/
 514:/home/vinay/Desktop/softconsole_watershed/Water-shed/src/platform/mpfs_hal/common/mss_plic.h ****     volatile uint32_t HART3_MMODE_ENA[PLIC_SET_UP_REGISTERS];
 515:/home/vinay/Desktop/softconsole_watershed/Water-shed/src/platform/mpfs_hal/common/mss_plic.h ****     volatile uint32_t RESERVED6a[(0x80/4) - PLIC_SET_UP_REGISTERS];
 516:/home/vinay/Desktop/softconsole_watershed/Water-shed/src/platform/mpfs_hal/common/mss_plic.h ****     volatile uint32_t HART3_SMODE_ENA[PLIC_SET_UP_REGISTERS];
 517:/home/vinay/Desktop/softconsole_watershed/Water-shed/src/platform/mpfs_hal/common/mss_plic.h ****     volatile uint32_t RESERVED6[(0x80/4) - PLIC_SET_UP_REGISTERS];
 518:/home/vinay/Desktop/softconsole_watershed/Water-shed/src/platform/mpfs_hal/common/mss_plic.h **** 
 519:/home/vinay/Desktop/softconsole_watershed/Water-shed/src/platform/mpfs_hal/common/mss_plic.h ****     /*-----------------Hart4 Mode Enables--------------------*/
 520:/home/vinay/Desktop/softconsole_watershed/Water-shed/src/platform/mpfs_hal/common/mss_plic.h ****     volatile uint32_t HART4_MMODE_ENA[PLIC_SET_UP_REGISTERS];
 521:/home/vinay/Desktop/softconsole_watershed/Water-shed/src/platform/mpfs_hal/common/mss_plic.h ****     volatile uint32_t RESERVED7a[(0x80/4) - PLIC_SET_UP_REGISTERS];
 522:/home/vinay/Desktop/softconsole_watershed/Water-shed/src/platform/mpfs_hal/common/mss_plic.h ****     volatile uint32_t HART4_SMODE_ENA[PLIC_SET_UP_REGISTERS];
 523:/home/vinay/Desktop/softconsole_watershed/Water-shed/src/platform/mpfs_hal/common/mss_plic.h ****     volatile uint32_t RESERVED7[(0x80/4) - PLIC_SET_UP_REGISTERS];
 524:/home/vinay/Desktop/softconsole_watershed/Water-shed/src/platform/mpfs_hal/common/mss_plic.h **** 
 525:/home/vinay/Desktop/softconsole_watershed/Water-shed/src/platform/mpfs_hal/common/mss_plic.h ****     volatile uint32_t RESERVED8[(0x0C200000 - 0x0C002480)/4];
 526:/home/vinay/Desktop/softconsole_watershed/Water-shed/src/platform/mpfs_hal/common/mss_plic.h **** 
 527:/home/vinay/Desktop/softconsole_watershed/Water-shed/src/platform/mpfs_hal/common/mss_plic.h ****     /*--- Target Priority threshold and claim/complete---------*/
 528:/home/vinay/Desktop/softconsole_watershed/Water-shed/src/platform/mpfs_hal/common/mss_plic.h ****     IRQ_Target_Type TARGET[NUM_CLAIM_REGS];   /* See PLIC Register Map or
 529:/home/vinay/Desktop/softconsole_watershed/Water-shed/src/platform/mpfs_hal/common/mss_plic.h ****                                                  TARGET_OFFSET defines below
 530:/home/vinay/Desktop/softconsole_watershed/Water-shed/src/platform/mpfs_hal/common/mss_plic.h ****                                                  for offset details */
 531:/home/vinay/Desktop/softconsole_watershed/Water-shed/src/platform/mpfs_hal/common/mss_plic.h **** 
 532:/home/vinay/Desktop/softconsole_watershed/Water-shed/src/platform/mpfs_hal/common/mss_plic.h **** } PLIC_Type;
 533:/home/vinay/Desktop/softconsole_watershed/Water-shed/src/platform/mpfs_hal/common/mss_plic.h **** 
 534:/home/vinay/Desktop/softconsole_watershed/Water-shed/src/platform/mpfs_hal/common/mss_plic.h **** #define TARGET_OFFSET_HART0_M 0U
 535:/home/vinay/Desktop/softconsole_watershed/Water-shed/src/platform/mpfs_hal/common/mss_plic.h **** #define TARGET_OFFSET_HART1_M 1U
 536:/home/vinay/Desktop/softconsole_watershed/Water-shed/src/platform/mpfs_hal/common/mss_plic.h **** #define TARGET_OFFSET_HART1_S 2U
 537:/home/vinay/Desktop/softconsole_watershed/Water-shed/src/platform/mpfs_hal/common/mss_plic.h **** #define TARGET_OFFSET_HART2_M 3U
 538:/home/vinay/Desktop/softconsole_watershed/Water-shed/src/platform/mpfs_hal/common/mss_plic.h **** #define TARGET_OFFSET_HART2_S 4U
 539:/home/vinay/Desktop/softconsole_watershed/Water-shed/src/platform/mpfs_hal/common/mss_plic.h **** #define TARGET_OFFSET_HART3_M 5U
 540:/home/vinay/Desktop/softconsole_watershed/Water-shed/src/platform/mpfs_hal/common/mss_plic.h **** #define TARGET_OFFSET_HART3_S 6U
 541:/home/vinay/Desktop/softconsole_watershed/Water-shed/src/platform/mpfs_hal/common/mss_plic.h **** #define TARGET_OFFSET_HART4_M 7U
 542:/home/vinay/Desktop/softconsole_watershed/Water-shed/src/platform/mpfs_hal/common/mss_plic.h **** #define TARGET_OFFSET_HART4_S 8U
 543:/home/vinay/Desktop/softconsole_watershed/Water-shed/src/platform/mpfs_hal/common/mss_plic.h **** 
 544:/home/vinay/Desktop/softconsole_watershed/Water-shed/src/platform/mpfs_hal/common/mss_plic.h **** extern const unsigned long plic_hart_lookup[5U];
 545:/home/vinay/Desktop/softconsole_watershed/Water-shed/src/platform/mpfs_hal/common/mss_plic.h **** 
 546:/home/vinay/Desktop/softconsole_watershed/Water-shed/src/platform/mpfs_hal/common/mss_plic.h **** /***************************************************************************//**
 547:/home/vinay/Desktop/softconsole_watershed/Water-shed/src/platform/mpfs_hal/common/mss_plic.h ****  * PLIC: Platform Level Interrupt Controller
 548:/home/vinay/Desktop/softconsole_watershed/Water-shed/src/platform/mpfs_hal/common/mss_plic.h ****  */
 549:/home/vinay/Desktop/softconsole_watershed/Water-shed/src/platform/mpfs_hal/common/mss_plic.h **** #define PLIC_BASE_ADDR 0x0C000000UL
 550:/home/vinay/Desktop/softconsole_watershed/Water-shed/src/platform/mpfs_hal/common/mss_plic.h **** 
 551:/home/vinay/Desktop/softconsole_watershed/Water-shed/src/platform/mpfs_hal/common/mss_plic.h **** #define PLIC    ((PLIC_Type * const)PLIC_BASE_ADDR)
 552:/home/vinay/Desktop/softconsole_watershed/Water-shed/src/platform/mpfs_hal/common/mss_plic.h **** 
 553:/home/vinay/Desktop/softconsole_watershed/Water-shed/src/platform/mpfs_hal/common/mss_plic.h **** /*-------------------------------------------------------------------------*//**
 554:/home/vinay/Desktop/softconsole_watershed/Water-shed/src/platform/mpfs_hal/common/mss_plic.h ****  * The function PLIC_init() initializes the PLIC controller and enables the
 555:/home/vinay/Desktop/softconsole_watershed/Water-shed/src/platform/mpfs_hal/common/mss_plic.h ****  * global external interrupt bit.
 556:/home/vinay/Desktop/softconsole_watershed/Water-shed/src/platform/mpfs_hal/common/mss_plic.h ****  */
 557:/home/vinay/Desktop/softconsole_watershed/Water-shed/src/platform/mpfs_hal/common/mss_plic.h **** 
 558:/home/vinay/Desktop/softconsole_watershed/Water-shed/src/platform/mpfs_hal/common/mss_plic.h **** /*-----------------Hart Mode Enables--------------------*/
 559:/home/vinay/Desktop/softconsole_watershed/Water-shed/src/platform/mpfs_hal/common/mss_plic.h **** 
 560:/home/vinay/Desktop/softconsole_watershed/Water-shed/src/platform/mpfs_hal/common/mss_plic.h **** static inline void PLIC_init(void)
 561:/home/vinay/Desktop/softconsole_watershed/Water-shed/src/platform/mpfs_hal/common/mss_plic.h **** {
  71              		.loc 2 561 1
  72              		.cfi_startproc
  73 0000 7971     		addi	sp,sp,-48
  74              		.cfi_def_cfa_offset 48
  75 0002 22F4     		sd	s0,40(sp)
  76              		.cfi_offset 8, -8
  77 0004 0018     		addi	s0,sp,48
  78              		.cfi_def_cfa 8, 0
  79              	.LBB3:
 562:/home/vinay/Desktop/softconsole_watershed/Water-shed/src/platform/mpfs_hal/common/mss_plic.h ****     uint32_t inc;
 563:/home/vinay/Desktop/softconsole_watershed/Water-shed/src/platform/mpfs_hal/common/mss_plic.h ****     uint64_t hart_id  = read_csr(mhartid);
  80              		.loc 2 563 25
  81              	 #APP
  82              	# 563 "/home/vinay/Desktop/softconsole_watershed/Water-shed/src/platform/mpfs_hal/common/mss_plic.h
 564              	
  83              		csrr a5, mhartid
  84              	# 0 "" 2
  85              	 #NO_APP
  86 000a 2330F4FE 		sd	a5,-32(s0)
  87 000e 833704FE 		ld	a5,-32(s0)
  88              	.LBE3:
 563:/home/vinay/Desktop/softconsole_watershed/Water-shed/src/platform/mpfs_hal/common/mss_plic.h ****     uint64_t hart_id  = read_csr(mhartid);
  89              		.loc 2 563 14
  90 0012 233CF4FC 		sd	a5,-40(s0)
 565:/home/vinay/Desktop/softconsole_watershed/Water-shed/src/platform/mpfs_hal/common/mss_plic.h ****     /* Disable all interrupts for the current hart. */
 566:/home/vinay/Desktop/softconsole_watershed/Water-shed/src/platform/mpfs_hal/common/mss_plic.h ****     switch(hart_id)
  91              		.loc 2 566 5
  92 0016 033784FD 		ld	a4,-40(s0)
  93 001a 9147     		li	a5,4
  94 001c 63EFE720 		bgtu	a4,a5,.L21
  95 0020 833784FD 		ld	a5,-40(s0)
  96 0024 13972700 		slli	a4,a5,2
  97 0028 97070000 		lla	a5,.L5
  97      93870700 
  98 0030 BA97     		add	a5,a4,a5
  99 0032 9C43     		lw	a5,0(a5)
 100 0034 1B870700 		sext.w	a4,a5
 101 0038 97070000 		lla	a5,.L5
 101      93870700 
 102 0040 BA97     		add	a5,a4,a5
 103 0042 8287     		jr	a5
 104              		.section	.rodata.PLIC_init,"a",@progbits
 105              		.align	2
 106              		.align	2
 107              	.L5:
 108 0000 00000000 		.word	.L9-.L5
 109 0004 00000000 		.word	.L8-.L5
 110 0008 00000000 		.word	.L7-.L5
 111 000c 00000000 		.word	.L6-.L5
 112 0010 00000000 		.word	.L4-.L5
 113              		.section	.text.PLIC_init
 114              	.L9:
 567:/home/vinay/Desktop/softconsole_watershed/Water-shed/src/platform/mpfs_hal/common/mss_plic.h ****     {
 568:/home/vinay/Desktop/softconsole_watershed/Water-shed/src/platform/mpfs_hal/common/mss_plic.h ****         case 0:
 569:/home/vinay/Desktop/softconsole_watershed/Water-shed/src/platform/mpfs_hal/common/mss_plic.h ****             for(inc = 0UL; inc < PLIC_SET_UP_REGISTERS; inc++)
 115              		.loc 2 569 21
 116 0044 232604FE 		sw	zero,-20(s0)
 117              		.loc 2 569 13
 118 0048 15A0     		j	.L10
 119              	.L11:
 570:/home/vinay/Desktop/softconsole_watershed/Water-shed/src/platform/mpfs_hal/common/mss_plic.h ****             {
 571:/home/vinay/Desktop/softconsole_watershed/Water-shed/src/platform/mpfs_hal/common/mss_plic.h ****                 PLIC->HART0_MMODE_ENA[inc] = 0U;
 120              		.loc 2 571 21 discriminator 3
 121 004a 3707000C 		li	a4,201326592
 122              		.loc 2 571 44 discriminator 3
 123 004e 8366C4FE 		lwu	a3,-20(s0)
 124 0052 8567     		li	a5,4096
 125 0054 93870780 		addi	a5,a5,-2048
 126 0058 B697     		add	a5,a3,a5
 127 005a 8A07     		slli	a5,a5,2
 128 005c BA97     		add	a5,a4,a5
 129 005e 23A00700 		sw	zero,0(a5)
 569:/home/vinay/Desktop/softconsole_watershed/Water-shed/src/platform/mpfs_hal/common/mss_plic.h ****             {
 130              		.loc 2 569 60 discriminator 3
 131 0062 8327C4FE 		lw	a5,-20(s0)
 132 0066 8527     		addiw	a5,a5,1
 133 0068 2326F4FE 		sw	a5,-20(s0)
 134              	.L10:
 569:/home/vinay/Desktop/softconsole_watershed/Water-shed/src/platform/mpfs_hal/common/mss_plic.h ****             {
 135              		.loc 2 569 13 discriminator 1
 136 006c 8327C4FE 		lw	a5,-20(s0)
 137 0070 1B870700 		sext.w	a4,a5
 138 0074 9547     		li	a5,5
 139 0076 E3FAE7FC 		bleu	a4,a5,.L11
 572:/home/vinay/Desktop/softconsole_watershed/Water-shed/src/platform/mpfs_hal/common/mss_plic.h ****             }
 573:/home/vinay/Desktop/softconsole_watershed/Water-shed/src/platform/mpfs_hal/common/mss_plic.h **** 
 574:/home/vinay/Desktop/softconsole_watershed/Water-shed/src/platform/mpfs_hal/common/mss_plic.h ****             /* Set the threshold to zero.
 575:/home/vinay/Desktop/softconsole_watershed/Water-shed/src/platform/mpfs_hal/common/mss_plic.h ****              * PLIC provides context based threshold register for the settings of a
 576:/home/vinay/Desktop/softconsole_watershed/Water-shed/src/platform/mpfs_hal/common/mss_plic.h ****              * interrupt priority threshold of each context. The threshold register
 577:/home/vinay/Desktop/softconsole_watershed/Water-shed/src/platform/mpfs_hal/common/mss_plic.h ****              * is a WARL field. The PLIC will mask all PLIC interrupts of a priority
 578:/home/vinay/Desktop/softconsole_watershed/Water-shed/src/platform/mpfs_hal/common/mss_plic.h ****              * less than or equal to threshold. For example, a threshold value of zero
 579:/home/vinay/Desktop/softconsole_watershed/Water-shed/src/platform/mpfs_hal/common/mss_plic.h ****              * permits all interrupts with non-zero priority.*/
 580:/home/vinay/Desktop/softconsole_watershed/Water-shed/src/platform/mpfs_hal/common/mss_plic.h **** 
 581:/home/vinay/Desktop/softconsole_watershed/Water-shed/src/platform/mpfs_hal/common/mss_plic.h ****             PLIC->TARGET[TARGET_OFFSET_HART0_M].PRIORITY_THRESHOLD  = 0U;
 140              		.loc 2 581 17
 141 007a 3707000C 		li	a4,201326592
 142              		.loc 2 581 69
 143 007e B7072000 		li	a5,2097152
 144 0082 BA97     		add	a5,a4,a5
 145 0084 23A00700 		sw	zero,0(a5)
 582:/home/vinay/Desktop/softconsole_watershed/Water-shed/src/platform/mpfs_hal/common/mss_plic.h ****             break;
 146              		.loc 2 582 13
 147 0088 55AA     		j	.L12
 148              	.L8:
 583:/home/vinay/Desktop/softconsole_watershed/Water-shed/src/platform/mpfs_hal/common/mss_plic.h ****         case 1:
 584:/home/vinay/Desktop/softconsole_watershed/Water-shed/src/platform/mpfs_hal/common/mss_plic.h ****             for(inc = 0UL; inc < PLIC_SET_UP_REGISTERS; inc++)
 149              		.loc 2 584 21
 150 008a 232604FE 		sw	zero,-20(s0)
 151              		.loc 2 584 13
 152 008e 35A8     		j	.L13
 153              	.L14:
 585:/home/vinay/Desktop/softconsole_watershed/Water-shed/src/platform/mpfs_hal/common/mss_plic.h ****             {
 586:/home/vinay/Desktop/softconsole_watershed/Water-shed/src/platform/mpfs_hal/common/mss_plic.h ****                 PLIC->HART1_MMODE_ENA[inc] = 0U;
 154              		.loc 2 586 21 discriminator 3
 155 0090 3707000C 		li	a4,201326592
 156              		.loc 2 586 44 discriminator 3
 157 0094 8366C4FE 		lwu	a3,-20(s0)
 158 0098 8567     		li	a5,4096
 159 009a 93870782 		addi	a5,a5,-2016
 160 009e B697     		add	a5,a3,a5
 161 00a0 8A07     		slli	a5,a5,2
 162 00a2 BA97     		add	a5,a4,a5
 163 00a4 23A00700 		sw	zero,0(a5)
 587:/home/vinay/Desktop/softconsole_watershed/Water-shed/src/platform/mpfs_hal/common/mss_plic.h ****                 PLIC->HART1_SMODE_ENA[inc] = 0U;
 164              		.loc 2 587 21 discriminator 3
 165 00a8 3707000C 		li	a4,201326592
 166              		.loc 2 587 44 discriminator 3
 167 00ac 8366C4FE 		lwu	a3,-20(s0)
 168 00b0 8567     		li	a5,4096
 169 00b2 93870784 		addi	a5,a5,-1984
 170 00b6 B697     		add	a5,a3,a5
 171 00b8 8A07     		slli	a5,a5,2
 172 00ba BA97     		add	a5,a4,a5
 173 00bc 23A00700 		sw	zero,0(a5)
 584:/home/vinay/Desktop/softconsole_watershed/Water-shed/src/platform/mpfs_hal/common/mss_plic.h ****             {
 174              		.loc 2 584 60 discriminator 3
 175 00c0 8327C4FE 		lw	a5,-20(s0)
 176 00c4 8527     		addiw	a5,a5,1
 177 00c6 2326F4FE 		sw	a5,-20(s0)
 178              	.L13:
 584:/home/vinay/Desktop/softconsole_watershed/Water-shed/src/platform/mpfs_hal/common/mss_plic.h ****             {
 179              		.loc 2 584 13 discriminator 1
 180 00ca 8327C4FE 		lw	a5,-20(s0)
 181 00ce 1B870700 		sext.w	a4,a5
 182 00d2 9547     		li	a5,5
 183 00d4 E3FEE7FA 		bleu	a4,a5,.L14
 588:/home/vinay/Desktop/softconsole_watershed/Water-shed/src/platform/mpfs_hal/common/mss_plic.h ****             }
 589:/home/vinay/Desktop/softconsole_watershed/Water-shed/src/platform/mpfs_hal/common/mss_plic.h **** 
 590:/home/vinay/Desktop/softconsole_watershed/Water-shed/src/platform/mpfs_hal/common/mss_plic.h ****             PLIC->TARGET[TARGET_OFFSET_HART1_M].PRIORITY_THRESHOLD  = 0U;
 184              		.loc 2 590 17
 185 00d8 3707000C 		li	a4,201326592
 186              		.loc 2 590 69
 187 00dc B7172000 		li	a5,2101248
 188 00e0 BA97     		add	a5,a4,a5
 189 00e2 23A00700 		sw	zero,0(a5)
 591:/home/vinay/Desktop/softconsole_watershed/Water-shed/src/platform/mpfs_hal/common/mss_plic.h ****             /* Disable supervisor level */
 592:/home/vinay/Desktop/softconsole_watershed/Water-shed/src/platform/mpfs_hal/common/mss_plic.h ****             PLIC->TARGET[TARGET_OFFSET_HART1_S].PRIORITY_THRESHOLD  = 7U;
 190              		.loc 2 592 17
 191 00e6 3707000C 		li	a4,201326592
 192              		.loc 2 592 69
 193 00ea B7272000 		li	a5,2105344
 194 00ee BA97     		add	a5,a4,a5
 195 00f0 1D47     		li	a4,7
 196 00f2 98C3     		sw	a4,0(a5)
 593:/home/vinay/Desktop/softconsole_watershed/Water-shed/src/platform/mpfs_hal/common/mss_plic.h ****             break;
 197              		.loc 2 593 13
 198 00f4 A1A2     		j	.L12
 199              	.L7:
 594:/home/vinay/Desktop/softconsole_watershed/Water-shed/src/platform/mpfs_hal/common/mss_plic.h ****         case 2:
 595:/home/vinay/Desktop/softconsole_watershed/Water-shed/src/platform/mpfs_hal/common/mss_plic.h ****             for(inc = 0UL; inc < PLIC_SET_UP_REGISTERS; inc++)
 200              		.loc 2 595 21
 201 00f6 232604FE 		sw	zero,-20(s0)
 202              		.loc 2 595 13
 203 00fa 35A8     		j	.L15
 204              	.L16:
 596:/home/vinay/Desktop/softconsole_watershed/Water-shed/src/platform/mpfs_hal/common/mss_plic.h ****             {
 597:/home/vinay/Desktop/softconsole_watershed/Water-shed/src/platform/mpfs_hal/common/mss_plic.h ****                 PLIC->HART2_MMODE_ENA[inc] = 0U;
 205              		.loc 2 597 21 discriminator 3
 206 00fc 3707000C 		li	a4,201326592
 207              		.loc 2 597 44 discriminator 3
 208 0100 8366C4FE 		lwu	a3,-20(s0)
 209 0104 8567     		li	a5,4096
 210 0106 93870786 		addi	a5,a5,-1952
 211 010a B697     		add	a5,a3,a5
 212 010c 8A07     		slli	a5,a5,2
 213 010e BA97     		add	a5,a4,a5
 214 0110 23A00700 		sw	zero,0(a5)
 598:/home/vinay/Desktop/softconsole_watershed/Water-shed/src/platform/mpfs_hal/common/mss_plic.h ****                 PLIC->HART2_SMODE_ENA[inc] = 0U;
 215              		.loc 2 598 21 discriminator 3
 216 0114 3707000C 		li	a4,201326592
 217              		.loc 2 598 44 discriminator 3
 218 0118 8366C4FE 		lwu	a3,-20(s0)
 219 011c 8567     		li	a5,4096
 220 011e 93870788 		addi	a5,a5,-1920
 221 0122 B697     		add	a5,a3,a5
 222 0124 8A07     		slli	a5,a5,2
 223 0126 BA97     		add	a5,a4,a5
 224 0128 23A00700 		sw	zero,0(a5)
 595:/home/vinay/Desktop/softconsole_watershed/Water-shed/src/platform/mpfs_hal/common/mss_plic.h ****             {
 225              		.loc 2 595 60 discriminator 3
 226 012c 8327C4FE 		lw	a5,-20(s0)
 227 0130 8527     		addiw	a5,a5,1
 228 0132 2326F4FE 		sw	a5,-20(s0)
 229              	.L15:
 595:/home/vinay/Desktop/softconsole_watershed/Water-shed/src/platform/mpfs_hal/common/mss_plic.h ****             {
 230              		.loc 2 595 13 discriminator 1
 231 0136 8327C4FE 		lw	a5,-20(s0)
 232 013a 1B870700 		sext.w	a4,a5
 233 013e 9547     		li	a5,5
 234 0140 E3FEE7FA 		bleu	a4,a5,.L16
 599:/home/vinay/Desktop/softconsole_watershed/Water-shed/src/platform/mpfs_hal/common/mss_plic.h ****             }
 600:/home/vinay/Desktop/softconsole_watershed/Water-shed/src/platform/mpfs_hal/common/mss_plic.h **** 
 601:/home/vinay/Desktop/softconsole_watershed/Water-shed/src/platform/mpfs_hal/common/mss_plic.h ****             PLIC->TARGET[TARGET_OFFSET_HART2_M].PRIORITY_THRESHOLD  = 0U;
 235              		.loc 2 601 17
 236 0144 3707000C 		li	a4,201326592
 237              		.loc 2 601 69
 238 0148 B7372000 		li	a5,2109440
 239 014c BA97     		add	a5,a4,a5
 240 014e 23A00700 		sw	zero,0(a5)
 602:/home/vinay/Desktop/softconsole_watershed/Water-shed/src/platform/mpfs_hal/common/mss_plic.h ****             /* Disable supervisor level */
 603:/home/vinay/Desktop/softconsole_watershed/Water-shed/src/platform/mpfs_hal/common/mss_plic.h ****             PLIC->TARGET[TARGET_OFFSET_HART2_S].PRIORITY_THRESHOLD  = 7U;
 241              		.loc 2 603 17
 242 0152 3707000C 		li	a4,201326592
 243              		.loc 2 603 69
 244 0156 B7472000 		li	a5,2113536
 245 015a BA97     		add	a5,a4,a5
 246 015c 1D47     		li	a4,7
 247 015e 98C3     		sw	a4,0(a5)
 604:/home/vinay/Desktop/softconsole_watershed/Water-shed/src/platform/mpfs_hal/common/mss_plic.h ****             break;
 248              		.loc 2 604 13
 249 0160 F1A8     		j	.L12
 250              	.L6:
 605:/home/vinay/Desktop/softconsole_watershed/Water-shed/src/platform/mpfs_hal/common/mss_plic.h ****         case 3:
 606:/home/vinay/Desktop/softconsole_watershed/Water-shed/src/platform/mpfs_hal/common/mss_plic.h ****             for(inc = 0UL; inc < PLIC_SET_UP_REGISTERS; inc++)
 251              		.loc 2 606 21
 252 0162 232604FE 		sw	zero,-20(s0)
 253              		.loc 2 606 13
 254 0166 35A8     		j	.L17
 255              	.L18:
 607:/home/vinay/Desktop/softconsole_watershed/Water-shed/src/platform/mpfs_hal/common/mss_plic.h ****             {
 608:/home/vinay/Desktop/softconsole_watershed/Water-shed/src/platform/mpfs_hal/common/mss_plic.h ****                 PLIC->HART3_MMODE_ENA[inc] = 0U;
 256              		.loc 2 608 21 discriminator 3
 257 0168 3707000C 		li	a4,201326592
 258              		.loc 2 608 44 discriminator 3
 259 016c 8366C4FE 		lwu	a3,-20(s0)
 260 0170 8567     		li	a5,4096
 261 0172 9387078A 		addi	a5,a5,-1888
 262 0176 B697     		add	a5,a3,a5
 263 0178 8A07     		slli	a5,a5,2
 264 017a BA97     		add	a5,a4,a5
 265 017c 23A00700 		sw	zero,0(a5)
 609:/home/vinay/Desktop/softconsole_watershed/Water-shed/src/platform/mpfs_hal/common/mss_plic.h ****                 PLIC->HART3_SMODE_ENA[inc] = 0U;
 266              		.loc 2 609 21 discriminator 3
 267 0180 3707000C 		li	a4,201326592
 268              		.loc 2 609 44 discriminator 3
 269 0184 8366C4FE 		lwu	a3,-20(s0)
 270 0188 8567     		li	a5,4096
 271 018a 9387078C 		addi	a5,a5,-1856
 272 018e B697     		add	a5,a3,a5
 273 0190 8A07     		slli	a5,a5,2
 274 0192 BA97     		add	a5,a4,a5
 275 0194 23A00700 		sw	zero,0(a5)
 606:/home/vinay/Desktop/softconsole_watershed/Water-shed/src/platform/mpfs_hal/common/mss_plic.h ****             {
 276              		.loc 2 606 60 discriminator 3
 277 0198 8327C4FE 		lw	a5,-20(s0)
 278 019c 8527     		addiw	a5,a5,1
 279 019e 2326F4FE 		sw	a5,-20(s0)
 280              	.L17:
 606:/home/vinay/Desktop/softconsole_watershed/Water-shed/src/platform/mpfs_hal/common/mss_plic.h ****             {
 281              		.loc 2 606 13 discriminator 1
 282 01a2 8327C4FE 		lw	a5,-20(s0)
 283 01a6 1B870700 		sext.w	a4,a5
 284 01aa 9547     		li	a5,5
 285 01ac E3FEE7FA 		bleu	a4,a5,.L18
 610:/home/vinay/Desktop/softconsole_watershed/Water-shed/src/platform/mpfs_hal/common/mss_plic.h ****             }
 611:/home/vinay/Desktop/softconsole_watershed/Water-shed/src/platform/mpfs_hal/common/mss_plic.h **** 
 612:/home/vinay/Desktop/softconsole_watershed/Water-shed/src/platform/mpfs_hal/common/mss_plic.h ****             PLIC->TARGET[TARGET_OFFSET_HART3_M].PRIORITY_THRESHOLD  = 0U;
 286              		.loc 2 612 17
 287 01b0 3707000C 		li	a4,201326592
 288              		.loc 2 612 69
 289 01b4 B7572000 		li	a5,2117632
 290 01b8 BA97     		add	a5,a4,a5
 291 01ba 23A00700 		sw	zero,0(a5)
 613:/home/vinay/Desktop/softconsole_watershed/Water-shed/src/platform/mpfs_hal/common/mss_plic.h ****             /* Disable supervisor level */
 614:/home/vinay/Desktop/softconsole_watershed/Water-shed/src/platform/mpfs_hal/common/mss_plic.h ****             PLIC->TARGET[TARGET_OFFSET_HART3_S].PRIORITY_THRESHOLD  = 7U;
 292              		.loc 2 614 17
 293 01be 3707000C 		li	a4,201326592
 294              		.loc 2 614 69
 295 01c2 B7672000 		li	a5,2121728
 296 01c6 BA97     		add	a5,a4,a5
 297 01c8 1D47     		li	a4,7
 298 01ca 98C3     		sw	a4,0(a5)
 615:/home/vinay/Desktop/softconsole_watershed/Water-shed/src/platform/mpfs_hal/common/mss_plic.h ****             break;
 299              		.loc 2 615 13
 300 01cc 85A8     		j	.L12
 301              	.L4:
 616:/home/vinay/Desktop/softconsole_watershed/Water-shed/src/platform/mpfs_hal/common/mss_plic.h ****         case 4:
 617:/home/vinay/Desktop/softconsole_watershed/Water-shed/src/platform/mpfs_hal/common/mss_plic.h ****             for(inc = 0UL; inc < PLIC_SET_UP_REGISTERS; inc++)
 302              		.loc 2 617 21
 303 01ce 232604FE 		sw	zero,-20(s0)
 304              		.loc 2 617 13
 305 01d2 35A8     		j	.L19
 306              	.L20:
 618:/home/vinay/Desktop/softconsole_watershed/Water-shed/src/platform/mpfs_hal/common/mss_plic.h ****             {
 619:/home/vinay/Desktop/softconsole_watershed/Water-shed/src/platform/mpfs_hal/common/mss_plic.h ****                 PLIC->HART4_MMODE_ENA[inc] = 0U;
 307              		.loc 2 619 21 discriminator 3
 308 01d4 3707000C 		li	a4,201326592
 309              		.loc 2 619 44 discriminator 3
 310 01d8 8366C4FE 		lwu	a3,-20(s0)
 311 01dc 8567     		li	a5,4096
 312 01de 9387078E 		addi	a5,a5,-1824
 313 01e2 B697     		add	a5,a3,a5
 314 01e4 8A07     		slli	a5,a5,2
 315 01e6 BA97     		add	a5,a4,a5
 316 01e8 23A00700 		sw	zero,0(a5)
 620:/home/vinay/Desktop/softconsole_watershed/Water-shed/src/platform/mpfs_hal/common/mss_plic.h ****                 PLIC->HART4_SMODE_ENA[inc] = 0U;
 317              		.loc 2 620 21 discriminator 3
 318 01ec 3707000C 		li	a4,201326592
 319              		.loc 2 620 44 discriminator 3
 320 01f0 8366C4FE 		lwu	a3,-20(s0)
 321 01f4 8567     		li	a5,4096
 322 01f6 93870790 		addi	a5,a5,-1792
 323 01fa B697     		add	a5,a3,a5
 324 01fc 8A07     		slli	a5,a5,2
 325 01fe BA97     		add	a5,a4,a5
 326 0200 23A00700 		sw	zero,0(a5)
 617:/home/vinay/Desktop/softconsole_watershed/Water-shed/src/platform/mpfs_hal/common/mss_plic.h ****             {
 327              		.loc 2 617 60 discriminator 3
 328 0204 8327C4FE 		lw	a5,-20(s0)
 329 0208 8527     		addiw	a5,a5,1
 330 020a 2326F4FE 		sw	a5,-20(s0)
 331              	.L19:
 617:/home/vinay/Desktop/softconsole_watershed/Water-shed/src/platform/mpfs_hal/common/mss_plic.h ****             {
 332              		.loc 2 617 13 discriminator 1
 333 020e 8327C4FE 		lw	a5,-20(s0)
 334 0212 1B870700 		sext.w	a4,a5
 335 0216 9547     		li	a5,5
 336 0218 E3FEE7FA 		bleu	a4,a5,.L20
 621:/home/vinay/Desktop/softconsole_watershed/Water-shed/src/platform/mpfs_hal/common/mss_plic.h ****             }
 622:/home/vinay/Desktop/softconsole_watershed/Water-shed/src/platform/mpfs_hal/common/mss_plic.h **** 
 623:/home/vinay/Desktop/softconsole_watershed/Water-shed/src/platform/mpfs_hal/common/mss_plic.h ****             PLIC->TARGET[TARGET_OFFSET_HART4_M].PRIORITY_THRESHOLD  = 0U;
 337              		.loc 2 623 17
 338 021c 3707000C 		li	a4,201326592
 339              		.loc 2 623 69
 340 0220 B7772000 		li	a5,2125824
 341 0224 BA97     		add	a5,a4,a5
 342 0226 23A00700 		sw	zero,0(a5)
 624:/home/vinay/Desktop/softconsole_watershed/Water-shed/src/platform/mpfs_hal/common/mss_plic.h ****             /* Disable supervisor level */
 625:/home/vinay/Desktop/softconsole_watershed/Water-shed/src/platform/mpfs_hal/common/mss_plic.h ****             PLIC->TARGET[TARGET_OFFSET_HART4_S].PRIORITY_THRESHOLD  = 7U;
 343              		.loc 2 625 17
 344 022a 3707000C 		li	a4,201326592
 345              		.loc 2 625 69
 346 022e B7872000 		li	a5,2129920
 347 0232 BA97     		add	a5,a4,a5
 348 0234 1D47     		li	a4,7
 349 0236 98C3     		sw	a4,0(a5)
 626:/home/vinay/Desktop/softconsole_watershed/Water-shed/src/platform/mpfs_hal/common/mss_plic.h ****             break;
 350              		.loc 2 626 13
 351 0238 11A0     		j	.L12
 352              	.L21:
 627:/home/vinay/Desktop/softconsole_watershed/Water-shed/src/platform/mpfs_hal/common/mss_plic.h ****         default:
 628:/home/vinay/Desktop/softconsole_watershed/Water-shed/src/platform/mpfs_hal/common/mss_plic.h ****             break;
 353              		.loc 2 628 13
 354 023a 0100     		nop
 355              	.L12:
 356              	.LBB4:
 629:/home/vinay/Desktop/softconsole_watershed/Water-shed/src/platform/mpfs_hal/common/mss_plic.h ****     }
 630:/home/vinay/Desktop/softconsole_watershed/Water-shed/src/platform/mpfs_hal/common/mss_plic.h **** 
 631:/home/vinay/Desktop/softconsole_watershed/Water-shed/src/platform/mpfs_hal/common/mss_plic.h ****     /* Enable  PLIC_MMUARTine external interrupts. */
 632:/home/vinay/Desktop/softconsole_watershed/Water-shed/src/platform/mpfs_hal/common/mss_plic.h ****     set_csr(mie, MIP_MEIP);
 357              		.loc 2 632 5
 358 023c 8567     		li	a5,4096
 359 023e 9B870780 		addiw	a5,a5,-2048
 360              	 #APP
 361              	# 632 "/home/vinay/Desktop/softconsole_watershed/Water-shed/src/platform/mpfs_hal/common/mss_plic.h
 633              	}
 362              		csrrs a5, mie, a5
 363              	# 0 "" 2
 364              	 #NO_APP
 365 0246 2338F4FC 		sd	a5,-48(s0)
 366              	.LBE4:
 367              		.loc 2 633 1
 368 024a 0100     		nop
 369 024c 2274     		ld	s0,40(sp)
 370              		.cfi_restore 8
 371              		.cfi_def_cfa 2, 48
 372 024e 4561     		addi	sp,sp,48
 373              		.cfi_def_cfa_offset 0
 374 0250 8280     		jr	ra
 375              		.cfi_endproc
 376              	.LFE10:
 378              		.comm	data,65536,8
 379              		.globl	w
 380              		.section	.sdata.w,"aw"
 381              		.align	2
 384              	w:
 385 0000 80000000 		.word	128
 386              		.globl	h
 387              		.section	.sdata.h,"aw"
 388              		.align	2
 391              	h:
 392 0000 80000000 		.word	128
 393              		.globl	g_message2
 394              		.section	.data.g_message2,"aw"
 395              		.align	3
 398              	g_message2:
 399 0000 0D0A0D0A 		.string	"\r\n\r\n\r\n **** PolarFire SoC Water-shed Segmentation ****\r\n\r\n\r\nThis program is r
 399      0D0A202A 
 399      2A2A2A20 
 399      506F6C61 
 399      72466972 
 400              		.section	.rodata
 401              		.align	3
 402              	.LC4:
 403 0000 54686520 		.string	"The result is c = %d"
 403      72657375 
 403      6C742069 
 403      73206320 
 403      3D202564 
 404 0015 000000   		.align	3
 405              	.LC1:
 406 0018 0D0A2D2D 		.string	"\r\n----Finish of water-shed segmentation----\r\n"
 406      2D2D4669 
 406      6E697368 
 406      206F6620 
 406      77617465 
 407 0046 0000     		.align	3
 408              	.LC0:
 409 0048 00000000 		.word	0
 410 004c 01000000 		.word	1
 411 0050 00000000 		.word	0
 412 0054 01000000 		.word	1
 413 0058 01000000 		.word	1
 414 005c 01000000 		.word	1
 415 0060 00000000 		.word	0
 416 0064 01000000 		.word	1
 417 0068 00000000 		.word	0
 418              		.section	.text.u54_1,"ax",@progbits
 419              		.align	1
 420              		.globl	u54_1
 422              	u54_1:
 423              	.LFB23:
 424              		.file 3 "../src/application/hart1/u54_1.c"
   1:../src/application/hart1/u54_1.c **** 
   2:../src/application/hart1/u54_1.c **** //#include<iomanip>
   3:../src/application/hart1/u54_1.c **** #include <math.h>
   4:../src/application/hart1/u54_1.c **** //#include<string>
   5:../src/application/hart1/u54_1.c **** #include<stdio.h>
   6:../src/application/hart1/u54_1.c **** #include<string.h>
   7:../src/application/hart1/u54_1.c **** #include<stdint.h>
   8:../src/application/hart1/u54_1.c **** 
   9:../src/application/hart1/u54_1.c **** #include "mpfs_hal/mss_hal.h"
  10:../src/application/hart1/u54_1.c **** //#include "drivers/mss/mss_gpio/mss_gpio.h"
  11:../src/application/hart1/u54_1.c **** #include "drivers/mss/mss_mmuart/mss_uart.h"
  12:../src/application/hart1/u54_1.c **** 
  13:../src/application/hart1/u54_1.c **** #include "data.h"
  14:../src/application/hart1/u54_1.c **** 
  15:../src/application/hart1/u54_1.c **** int w=128,h=128;
  16:../src/application/hart1/u54_1.c **** 
  17:../src/application/hart1/u54_1.c **** /******************************************************************************
  18:../src/application/hart1/u54_1.c ****  * Instruction message. These message will be displayed on the UART terminal
  19:../src/application/hart1/u54_1.c ****    when the program starts.
  20:../src/application/hart1/u54_1.c ****  *****************************************************************************/
  21:../src/application/hart1/u54_1.c **** 
  22:../src/application/hart1/u54_1.c **** 
  23:../src/application/hart1/u54_1.c **** uint8_t g_message2[] =
  24:../src/application/hart1/u54_1.c **** "\r\n\r\n\r\n **** PolarFire SoC Water-shed Segmentation ****\r\n\r\n\r\n\
  25:../src/application/hart1/u54_1.c **** This program is running on u54_1.\r\n\r\n";
  26:../src/application/hart1/u54_1.c **** 
  27:../src/application/hart1/u54_1.c **** 
  28:../src/application/hart1/u54_1.c **** void u54_1(void){
 425              		.loc 3 28 17
 426              		.cfi_startproc
 427 0000 1971     		addi	sp,sp,-128
 428              		.cfi_def_cfa_offset 128
 429 0002 86FC     		sd	ra,120(sp)
 430 0004 A2F8     		sd	s0,112(sp)
 431 0006 A6F4     		sd	s1,104(sp)
 432 0008 CAF0     		sd	s2,96(sp)
 433 000a CEEC     		sd	s3,88(sp)
 434 000c D2E8     		sd	s4,80(sp)
 435 000e D6E4     		sd	s5,72(sp)
 436 0010 DAE0     		sd	s6,64(sp)
 437 0012 5EFC     		sd	s7,56(sp)
 438 0014 62F8     		sd	s8,48(sp)
 439 0016 66F4     		sd	s9,40(sp)
 440 0018 6AF0     		sd	s10,32(sp)
 441 001a 6EEC     		sd	s11,24(sp)
 442              		.cfi_offset 1, -8
 443              		.cfi_offset 8, -16
 444              		.cfi_offset 9, -24
 445              		.cfi_offset 18, -32
 446              		.cfi_offset 19, -40
 447              		.cfi_offset 20, -48
 448              		.cfi_offset 21, -56
 449              		.cfi_offset 22, -64
 450              		.cfi_offset 23, -72
 451              		.cfi_offset 24, -80
 452              		.cfi_offset 25, -88
 453              		.cfi_offset 26, -96
 454              		.cfi_offset 27, -104
 455 001c 0001     		addi	s0,sp,128
 456              		.cfi_def_cfa 8, 0
 457 001e 37F3FCFF 		li	t1,-200704
 458 0022 1303036D 		addi	t1,t1,1744
 459 0026 1A91     		add	sp,sp,t1
  29:../src/application/hart1/u54_1.c **** 
  30:../src/application/hart1/u54_1.c ****     uint8_t message[]= "\r\n----Finish of water-shed segmentation----\r\n";
 460              		.loc 3 30 13
 461 0028 17070000 		lla	a4,.LC1
 461      13070700 
 462 0030 0863     		ld	a0,0(a4)
 463 0032 0C67     		ld	a1,8(a4)
 464 0034 106B     		ld	a2,16(a4)
 465 0036 146F     		ld	a3,24(a4)
 466 0038 1C73     		ld	a5,32(a4)
 467 003a 2338A4D2 		sd	a0,-720(s0)
 468 003e 233CB4D2 		sd	a1,-712(s0)
 469 0042 2330C4D4 		sd	a2,-704(s0)
 470 0046 2334D4D4 		sd	a3,-696(s0)
 471 004a 2338F4D4 		sd	a5,-688(s0)
 472 004e 1C57     		lw	a5,40(a4)
 473 0050 232CF4D4 		sw	a5,-680(s0)
 474 0054 8357C702 		lhu	a5,44(a4)
 475 0058 231EF4D4 		sh	a5,-676(s0)
  31:../src/application/hart1/u54_1.c ****     /* Clear pending software interrupt in case there was any.
  32:../src/application/hart1/u54_1.c ****      * Enable only the software interrupt so that the E51 core can bring this
  33:../src/application/hart1/u54_1.c ****      * core out of WFI by raising a software interrupt In case of external,
  34:../src/application/hart1/u54_1.c ****      * bootloader not present
  35:../src/application/hart1/u54_1.c ****      */
  36:../src/application/hart1/u54_1.c **** 
  37:../src/application/hart1/u54_1.c ****     clear_soft_interrupt();
 476              		.loc 3 37 5
 477 005c 97000000 		call	clear_soft_interrupt
 477      E7800000 
 478              	.LBB5:
  38:../src/application/hart1/u54_1.c ****     set_csr(mie, MIP_MSIP);
 479              		.loc 3 38 5
 480              	 #APP
 481              	# 38 "../src/application/hart1/u54_1.c" 1
  39              	
 482              		csrrs a5, mie, 8
 483              	# 0 "" 2
 484              	 #NO_APP
 485 0068 233CF4EC 		sd	a5,-296(s0)
 486              	.L23:
 487              	.LBE5:
  40:../src/application/hart1/u54_1.c **** #if (IMAGE_LOADED_BY_BOOTLOADER == 0)
  41:../src/application/hart1/u54_1.c **** 
  42:../src/application/hart1/u54_1.c ****     /*Put this hart into WFI.*/
  43:../src/application/hart1/u54_1.c **** 
  44:../src/application/hart1/u54_1.c ****     do
  45:../src/application/hart1/u54_1.c ****     {
  46:../src/application/hart1/u54_1.c ****         __asm("wfi");
 488              		.loc 3 46 9 discriminator 1
 489              	 #APP
 490              	# 46 "../src/application/hart1/u54_1.c" 1
  47              	    }while(0 == (read_csr(mip) & MIP_MSIP));
 491              		wfi
 492              	# 0 "" 2
 493              	 #NO_APP
 494              	.LBB6:
 495              		.loc 3 47 18 discriminator 1
 496              	 #APP
 497              	# 47 "../src/application/hart1/u54_1.c" 1
  48              	
 498              		csrr a5, mip
 499              	# 0 "" 2
 500              	 #NO_APP
 501 0074 2338F4EC 		sd	a5,-304(s0)
 502 0078 833704ED 		ld	a5,-304(s0)
 503              	.LBE6:
  47:../src/application/hart1/u54_1.c **** 
 504              		.loc 3 47 32 discriminator 1
 505 007c A18B     		andi	a5,a5,8
  47:../src/application/hart1/u54_1.c **** 
 506              		.loc 3 47 5 discriminator 1
 507 007e FDD7     		beq	a5,zero,.L23
  49:../src/application/hart1/u54_1.c ****     /* The hart is out of WFI, clear the SW interrupt. Hear onwards Application
  50:../src/application/hart1/u54_1.c ****      * can enable and use any interrupts as required */
  51:../src/application/hart1/u54_1.c ****     clear_soft_interrupt();
 508              		.loc 3 51 5
 509 0080 97000000 		call	clear_soft_interrupt
 509      E7800000 
  52:../src/application/hart1/u54_1.c **** #endif
  53:../src/application/hart1/u54_1.c **** 
  54:../src/application/hart1/u54_1.c ****     PLIC_init();
 510              		.loc 3 54 5
 511 0088 97000000 		call	PLIC_init
 511      E7800000 
  55:../src/application/hart1/u54_1.c ****     __enable_irq();
 512              		.loc 3 55 5
 513 0090 97000000 		call	__enable_irq
 513      E7800000 
  56:../src/application/hart1/u54_1.c **** 
  57:../src/application/hart1/u54_1.c ****     /* Reset the peripherals turn on the clocks */
  58:../src/application/hart1/u54_1.c **** 
  59:../src/application/hart1/u54_1.c ****     (void)mss_config_clk_rst(MSS_PERIPH_MMUART1, (uint8_t) MPFS_HAL_FIRST_HART, PERIPHERAL_ON);
 514              		.loc 3 59 11
 515 0098 0146     		li	a2,0
 516 009a 8145     		li	a1,0
 517 009c 0545     		li	a0,1
 518 009e 97000000 		call	mss_config_clk_rst
 518      E7800000 
  60:../src/application/hart1/u54_1.c ****     (void)mss_config_clk_rst(MSS_PERIPH_MMUART2, (uint8_t) MPFS_HAL_FIRST_HART, PERIPHERAL_ON);
 519              		.loc 3 60 11
 520 00a6 0146     		li	a2,0
 521 00a8 8145     		li	a1,0
 522 00aa 0945     		li	a0,2
 523 00ac 97000000 		call	mss_config_clk_rst
 523      E7800000 
  61:../src/application/hart1/u54_1.c ****     (void)mss_config_clk_rst(MSS_PERIPH_MMUART3, (uint8_t) MPFS_HAL_FIRST_HART, PERIPHERAL_ON);
 524              		.loc 3 61 11
 525 00b4 0146     		li	a2,0
 526 00b6 8145     		li	a1,0
 527 00b8 0D45     		li	a0,3
 528 00ba 97000000 		call	mss_config_clk_rst
 528      E7800000 
  62:../src/application/hart1/u54_1.c ****     (void)mss_config_clk_rst(MSS_PERIPH_CFM, (uint8_t) MPFS_HAL_FIRST_HART, PERIPHERAL_ON);
 529              		.loc 3 62 11
 530 00c2 0146     		li	a2,0
 531 00c4 8145     		li	a1,0
 532 00c6 7D45     		li	a0,31
 533 00c8 97000000 		call	mss_config_clk_rst
 533      E7800000 
  63:../src/application/hart1/u54_1.c **** 
  64:../src/application/hart1/u54_1.c ****    /* mmuart0 initialization */
  65:../src/application/hart1/u54_1.c ****     MSS_UART_init( &g_mss_uart1_lo,
 534              		.loc 3 65 5
 535 00d0 0D46     		li	a2,3
 536 00d2 F167     		li	a5,114688
 537 00d4 93850720 		addi	a1,a5,512
 538 00d8 17050000 		lla	a0,g_mss_uart1_lo
 538      13050500 
 539 00e0 97000000 		call	MSS_UART_init
 539      E7800000 
  66:../src/application/hart1/u54_1.c ****             MSS_UART_115200_BAUD,
  67:../src/application/hart1/u54_1.c ****             MSS_UART_DATA_8_BITS | MSS_UART_NO_PARITY | MSS_UART_ONE_STOP_BIT);
  68:../src/application/hart1/u54_1.c **** 
  69:../src/application/hart1/u54_1.c ****     MSS_UART_polled_tx_string(&g_mss_uart1_lo, g_message2);
 540              		.loc 3 69 5
 541 00e8 97050000 		lla	a1,g_message2
 541      93850500 
 542 00f0 17050000 		lla	a0,g_mss_uart1_lo
 542      13050500 
 543 00f8 97000000 		call	MSS_UART_polled_tx_string
 543      E7800000 
  70:../src/application/hart1/u54_1.c ****  //   ifstream infile1;
  71:../src/application/hart1/u54_1.c **** 
  72:../src/application/hart1/u54_1.c **** int zeroFramedAry[w+4][h+4];
 544              		.loc 3 72 25
 545 0100 97070000 		lla	a5,h
 545      93870700 
 546 0108 9C43     		lw	a5,0(a5)
 547 010a 9127     		addiw	a5,a5,4
 548 010c 1B860700 		sext.w	a2,a5
 549              		.loc 3 72 20
 550 0110 97070000 		lla	a5,w
 550      93870700 
 551 0118 9C43     		lw	a5,0(a5)
 552 011a 9127     		addiw	a5,a5,4
 553 011c 9B850700 		sext.w	a1,a5
 554              		.loc 3 72 1
 555 0120 8A87     		mv	a5,sp
 556 0122 37F3FCFF 		li	t1,-200704
 557 0126 13078365 		addi	a4,t1,1624
 558 012a 2297     		add	a4,a4,s0
 559 012c 1CE3     		sd	a5,0(a4)
 560              		.loc 3 72 25
 561 012e B287     		mv	a5,a2
 562              		.loc 3 72 5
 563 0130 FD17     		addi	a5,a5,-1
 564 0132 2334F4EC 		sd	a5,-312(s0)
 565 0136 B287     		mv	a5,a2
 566 0138 3E8C     		mv	s8,a5
 567 013a 814C     		li	s9,0
 568 013c 9357BC03 		srli	a5,s8,59
 569 0140 93995C00 		slli	s3,s9,5
 570 0144 B3E93701 		or	s3,a5,s3
 571 0148 13195C00 		slli	s2,s8,5
 572 014c B287     		mv	a5,a2
 573 014e 13982700 		slli	a6,a5,2
 574              		.loc 3 72 20
 575 0152 AE87     		mv	a5,a1
 576              		.loc 3 72 5
 577 0154 FD17     		addi	a5,a5,-1
 578 0156 2330F4EC 		sd	a5,-320(s0)
 579 015a B287     		mv	a5,a2
 580 015c 3E8B     		mv	s6,a5
 581 015e 814B     		li	s7,0
 582 0160 AE87     		mv	a5,a1
 583 0162 3E8A     		mv	s4,a5
 584 0164 814A     		li	s5,0
 585 0166 33874B03 		mul	a4,s7,s4
 586 016a B3876A03 		mul	a5,s5,s6
 587 016e B306F700 		add	a3,a4,a5
 588 0172 33074B03 		mul	a4,s6,s4
 589 0176 B3374B03 		mulhu	a5,s6,s4
 590 017a 3A8D     		mv	s10,a4
 591 017c BE8D     		mv	s11,a5
 592 017e B387B601 		add	a5,a3,s11
 593 0182 BE8D     		mv	s11,a5
 594 0184 9357BD03 		srli	a5,s10,59
 595 0188 13975D00 		slli	a4,s11,5
 596 018c B706FDFF 		li	a3,-196608
 597 0190 13858685 		addi	a0,a3,-1960
 598 0194 2295     		add	a0,a0,s0
 599 0196 18E1     		sd	a4,0(a0)
 600 0198 13878685 		addi	a4,a3,-1960
 601 019c 2297     		add	a4,a4,s0
 602 019e 1863     		ld	a4,0(a4)
 603 01a0 D98F     		or	a5,a5,a4
 604 01a2 13878685 		addi	a4,a3,-1960
 605 01a6 2297     		add	a4,a4,s0
 606 01a8 1CE3     		sd	a5,0(a4)
 607 01aa 93175D00 		slli	a5,s10,5
 608 01ae 13870685 		addi	a4,a3,-1968
 609 01b2 2297     		add	a4,a4,s0
 610 01b4 1CE3     		sd	a5,0(a4)
 611 01b6 B287     		mv	a5,a2
 612 01b8 138706B9 		addi	a4,a3,-1136
 613 01bc 2297     		add	a4,a4,s0
 614 01be 1CE3     		sd	a5,0(a4)
 615 01c0 3685     		mv	a0,a3
 616 01c2 938786B9 		addi	a5,a3,-1128
 617 01c6 A297     		add	a5,a5,s0
 618 01c8 23B00700 		sd	zero,0(a5)
 619 01cc AE87     		mv	a5,a1
 620 01ce 130705B8 		addi	a4,a0,-1152
 621 01d2 2297     		add	a4,a4,s0
 622 01d4 1CE3     		sd	a5,0(a4)
 623 01d6 930785B8 		addi	a5,a0,-1144
 624 01da A297     		add	a5,a5,s0
 625 01dc 23B00700 		sd	zero,0(a5)
 626 01e0 930785B9 		addi	a5,a0,-1128
 627 01e4 A297     		add	a5,a5,s0
 628 01e6 9C63     		ld	a5,0(a5)
 629 01e8 130705B8 		addi	a4,a0,-1152
 630 01ec 2297     		add	a4,a4,s0
 631 01ee 1863     		ld	a4,0(a4)
 632 01f0 3387E702 		mul	a4,a5,a4
 633 01f4 930785B8 		addi	a5,a0,-1144
 634 01f8 A297     		add	a5,a5,s0
 635 01fa 9C63     		ld	a5,0(a5)
 636 01fc 930605B9 		addi	a3,a0,-1136
 637 0200 A296     		add	a3,a3,s0
 638 0202 9462     		ld	a3,0(a3)
 639 0204 B387D702 		mul	a5,a5,a3
 640 0208 B306F700 		add	a3,a4,a5
 641 020c 930705B9 		addi	a5,a0,-1136
 642 0210 A297     		add	a5,a5,s0
 643 0212 9C63     		ld	a5,0(a5)
 644 0214 130705B8 		addi	a4,a0,-1152
 645 0218 2297     		add	a4,a4,s0
 646 021a 1863     		ld	a4,0(a4)
 647 021c 3387E702 		mul	a4,a5,a4
 648 0220 930705B9 		addi	a5,a0,-1136
 649 0224 A297     		add	a5,a5,s0
 650 0226 9C63     		ld	a5,0(a5)
 651 0228 AA84     		mv	s1,a0
 652 022a 130505B8 		addi	a0,a0,-1152
 653 022e 2295     		add	a0,a0,s0
 654 0230 0861     		ld	a0,0(a0)
 655 0232 B3B7A702 		mulhu	a5,a5,a0
 656 0236 138504CE 		addi	a0,s1,-800
 657 023a 2295     		add	a0,a0,s0
 658 023c 18E1     		sd	a4,0(a0)
 659 023e 2687     		mv	a4,s1
 660 0240 130587CE 		addi	a0,a4,-792
 661 0244 2295     		add	a0,a0,s0
 662 0246 1CE1     		sd	a5,0(a0)
 663 0248 930787CE 		addi	a5,a4,-792
 664 024c A297     		add	a5,a5,s0
 665 024e 9C63     		ld	a5,0(a5)
 666 0250 B697     		add	a5,a3,a5
 667 0252 BA86     		mv	a3,a4
 668 0254 138786CE 		addi	a4,a3,-792
 669 0258 2297     		add	a4,a4,s0
 670 025a 1CE3     		sd	a5,0(a4)
 671 025c 938706CE 		addi	a5,a3,-800
 672 0260 A297     		add	a5,a5,s0
 673 0262 9C63     		ld	a5,0(a5)
 674 0264 ED93     		srli	a5,a5,59
 675 0266 138786CE 		addi	a4,a3,-792
 676 026a 2297     		add	a4,a4,s0
 677 026c 1863     		ld	a4,0(a4)
 678 026e 1607     		slli	a4,a4,5
 679 0270 13858684 		addi	a0,a3,-1976
 680 0274 2295     		add	a0,a0,s0
 681 0276 18E1     		sd	a4,0(a0)
 682 0278 13878684 		addi	a4,a3,-1976
 683 027c 2297     		add	a4,a4,s0
 684 027e 1863     		ld	a4,0(a4)
 685 0280 D98F     		or	a5,a5,a4
 686 0282 13878684 		addi	a4,a3,-1976
 687 0286 2297     		add	a4,a4,s0
 688 0288 1CE3     		sd	a5,0(a4)
 689 028a 938706CE 		addi	a5,a3,-800
 690 028e A297     		add	a5,a5,s0
 691 0290 9C63     		ld	a5,0(a5)
 692 0292 9607     		slli	a5,a5,5
 693 0294 13870684 		addi	a4,a3,-1984
 694 0298 2297     		add	a4,a4,s0
 695 029a 1CE3     		sd	a5,0(a4)
 696 029c 3287     		mv	a4,a2
 697 029e AE87     		mv	a5,a1
 698 02a0 B307F702 		mul	a5,a4,a5
 699 02a4 8A07     		slli	a5,a5,2
 700 02a6 BD07     		addi	a5,a5,15
 701 02a8 9183     		srli	a5,a5,4
 702 02aa 9207     		slli	a5,a5,4
 703 02ac 3301F140 		sub	sp,sp,a5
 704 02b0 8A87     		mv	a5,sp
 705 02b2 8D07     		addi	a5,a5,3
 706 02b4 8983     		srli	a5,a5,2
 707 02b6 8A07     		slli	a5,a5,2
 708 02b8 233CF4EA 		sd	a5,-328(s0)
  73:../src/application/hart1/u54_1.c **** int morphFramedAry[w+4][h+4];
 709              		.loc 3 73 26
 710 02bc 97070000 		lla	a5,h
 710      93870700 
 711 02c4 9C43     		lw	a5,0(a5)
 712 02c6 9127     		addiw	a5,a5,4
 713 02c8 1B860700 		sext.w	a2,a5
 714              		.loc 3 73 21
 715 02cc 97070000 		lla	a5,w
 715      93870700 
 716 02d4 9C43     		lw	a5,0(a5)
 717 02d6 9127     		addiw	a5,a5,4
 718 02d8 9B850700 		sext.w	a1,a5
 719              		.loc 3 73 26
 720 02dc B287     		mv	a5,a2
 721              		.loc 3 73 5
 722 02de FD17     		addi	a5,a5,-1
 723 02e0 2338F4EA 		sd	a5,-336(s0)
 724 02e4 B287     		mv	a5,a2
 725 02e6 1387068F 		addi	a4,a3,-1808
 726 02ea 2297     		add	a4,a4,s0
 727 02ec 1CE3     		sd	a5,0(a4)
 728 02ee 9387868F 		addi	a5,a3,-1800
 729 02f2 A297     		add	a5,a5,s0
 730 02f4 23B00700 		sd	zero,0(a5)
 731 02f8 9387068F 		addi	a5,a3,-1808
 732 02fc A297     		add	a5,a5,s0
 733 02fe 9C63     		ld	a5,0(a5)
 734 0300 ED93     		srli	a5,a5,59
 735 0302 1387868F 		addi	a4,a3,-1800
 736 0306 2297     		add	a4,a4,s0
 737 0308 1863     		ld	a4,0(a4)
 738 030a 1607     		slli	a4,a4,5
 739 030c 13858683 		addi	a0,a3,-1992
 740 0310 2295     		add	a0,a0,s0
 741 0312 18E1     		sd	a4,0(a0)
 742 0314 13878683 		addi	a4,a3,-1992
 743 0318 2297     		add	a4,a4,s0
 744 031a 1863     		ld	a4,0(a4)
 745 031c D98F     		or	a5,a5,a4
 746 031e 3687     		mv	a4,a3
 747 0320 93068783 		addi	a3,a4,-1992
 748 0324 A296     		add	a3,a3,s0
 749 0326 9CE2     		sd	a5,0(a3)
 750 0328 9307078F 		addi	a5,a4,-1808
 751 032c A297     		add	a5,a5,s0
 752 032e 9C63     		ld	a5,0(a5)
 753 0330 9607     		slli	a5,a5,5
 754 0332 93060783 		addi	a3,a4,-2000
 755 0336 A296     		add	a3,a3,s0
 756 0338 9CE2     		sd	a5,0(a3)
 757 033a B287     		mv	a5,a2
 758 033c 939A2700 		slli	s5,a5,2
 759              		.loc 3 73 21
 760 0340 AE87     		mv	a5,a1
 761              		.loc 3 73 5
 762 0342 FD17     		addi	a5,a5,-1
 763 0344 2334F4EA 		sd	a5,-344(s0)
 764 0348 B287     		mv	a5,a2
 765 034a 930607B7 		addi	a3,a4,-1168
 766 034e A296     		add	a3,a3,s0
 767 0350 9CE2     		sd	a5,0(a3)
 768 0352 930787B7 		addi	a5,a4,-1160
 769 0356 A297     		add	a5,a5,s0
 770 0358 23B00700 		sd	zero,0(a5)
 771 035c AE87     		mv	a5,a1
 772 035e 3A85     		mv	a0,a4
 773 0360 130705B6 		addi	a4,a0,-1184
 774 0364 2297     		add	a4,a4,s0
 775 0366 1CE3     		sd	a5,0(a4)
 776 0368 930785B6 		addi	a5,a0,-1176
 777 036c A297     		add	a5,a5,s0
 778 036e 23B00700 		sd	zero,0(a5)
 779 0372 930785B7 		addi	a5,a0,-1160
 780 0376 A297     		add	a5,a5,s0
 781 0378 9C63     		ld	a5,0(a5)
 782 037a 130705B6 		addi	a4,a0,-1184
 783 037e 2297     		add	a4,a4,s0
 784 0380 1863     		ld	a4,0(a4)
 785 0382 3387E702 		mul	a4,a5,a4
 786 0386 930785B6 		addi	a5,a0,-1176
 787 038a A297     		add	a5,a5,s0
 788 038c 9C63     		ld	a5,0(a5)
 789 038e 930605B7 		addi	a3,a0,-1168
 790 0392 A296     		add	a3,a3,s0
 791 0394 9462     		ld	a3,0(a3)
 792 0396 B387D702 		mul	a5,a5,a3
 793 039a B306F700 		add	a3,a4,a5
 794 039e 930705B7 		addi	a5,a0,-1168
 795 03a2 A297     		add	a5,a5,s0
 796 03a4 9C63     		ld	a5,0(a5)
 797 03a6 130705B6 		addi	a4,a0,-1184
 798 03aa 2297     		add	a4,a4,s0
 799 03ac 1863     		ld	a4,0(a4)
 800 03ae 3387E702 		mul	a4,a5,a4
 801 03b2 930705B7 		addi	a5,a0,-1168
 802 03b6 A297     		add	a5,a5,s0
 803 03b8 9C63     		ld	a5,0(a5)
 804 03ba AA84     		mv	s1,a0
 805 03bc 130505B6 		addi	a0,a0,-1184
 806 03c0 2295     		add	a0,a0,s0
 807 03c2 0861     		ld	a0,0(a0)
 808 03c4 B3B7A702 		mulhu	a5,a5,a0
 809 03c8 138504CD 		addi	a0,s1,-816
 810 03cc 2295     		add	a0,a0,s0
 811 03ce 18E1     		sd	a4,0(a0)
 812 03d0 2687     		mv	a4,s1
 813 03d2 130587CD 		addi	a0,a4,-808
 814 03d6 2295     		add	a0,a0,s0
 815 03d8 1CE1     		sd	a5,0(a0)
 816 03da 930787CD 		addi	a5,a4,-808
 817 03de A297     		add	a5,a5,s0
 818 03e0 9C63     		ld	a5,0(a5)
 819 03e2 B697     		add	a5,a3,a5
 820 03e4 BA86     		mv	a3,a4
 821 03e6 138786CD 		addi	a4,a3,-808
 822 03ea 2297     		add	a4,a4,s0
 823 03ec 1CE3     		sd	a5,0(a4)
 824 03ee 938706CD 		addi	a5,a3,-816
 825 03f2 A297     		add	a5,a5,s0
 826 03f4 9C63     		ld	a5,0(a5)
 827 03f6 ED93     		srli	a5,a5,59
 828 03f8 138786CD 		addi	a4,a3,-808
 829 03fc 2297     		add	a4,a4,s0
 830 03fe 1863     		ld	a4,0(a4)
 831 0400 1607     		slli	a4,a4,5
 832 0402 13858682 		addi	a0,a3,-2008
 833 0406 2295     		add	a0,a0,s0
 834 0408 18E1     		sd	a4,0(a0)
 835 040a 13878682 		addi	a4,a3,-2008
 836 040e 2297     		add	a4,a4,s0
 837 0410 1863     		ld	a4,0(a4)
 838 0412 D98F     		or	a5,a5,a4
 839 0414 3687     		mv	a4,a3
 840 0416 93068782 		addi	a3,a4,-2008
 841 041a A296     		add	a3,a3,s0
 842 041c 9CE2     		sd	a5,0(a3)
 843 041e 930707CD 		addi	a5,a4,-816
 844 0422 A297     		add	a5,a5,s0
 845 0424 9C63     		ld	a5,0(a5)
 846 0426 9607     		slli	a5,a5,5
 847 0428 93060782 		addi	a3,a4,-2016
 848 042c A296     		add	a3,a3,s0
 849 042e 9CE2     		sd	a5,0(a3)
 850 0430 B287     		mv	a5,a2
 851 0432 930607B5 		addi	a3,a4,-1200
 852 0436 A296     		add	a3,a3,s0
 853 0438 9CE2     		sd	a5,0(a3)
 854 043a 930787B5 		addi	a5,a4,-1192
 855 043e A297     		add	a5,a5,s0
 856 0440 23B00700 		sd	zero,0(a5)
 857 0444 AE87     		mv	a5,a1
 858 0446 3A85     		mv	a0,a4
 859 0448 130705B4 		addi	a4,a0,-1216
 860 044c 2297     		add	a4,a4,s0
 861 044e 1CE3     		sd	a5,0(a4)
 862 0450 930785B4 		addi	a5,a0,-1208
 863 0454 A297     		add	a5,a5,s0
 864 0456 23B00700 		sd	zero,0(a5)
 865 045a 930785B5 		addi	a5,a0,-1192
 866 045e A297     		add	a5,a5,s0
 867 0460 9C63     		ld	a5,0(a5)
 868 0462 130705B4 		addi	a4,a0,-1216
 869 0466 2297     		add	a4,a4,s0
 870 0468 1863     		ld	a4,0(a4)
 871 046a 3387E702 		mul	a4,a5,a4
 872 046e 930785B4 		addi	a5,a0,-1208
 873 0472 A297     		add	a5,a5,s0
 874 0474 9C63     		ld	a5,0(a5)
 875 0476 930605B5 		addi	a3,a0,-1200
 876 047a A296     		add	a3,a3,s0
 877 047c 9462     		ld	a3,0(a3)
 878 047e B387D702 		mul	a5,a5,a3
 879 0482 B306F700 		add	a3,a4,a5
 880 0486 930705B5 		addi	a5,a0,-1200
 881 048a A297     		add	a5,a5,s0
 882 048c 9C63     		ld	a5,0(a5)
 883 048e 130705B4 		addi	a4,a0,-1216
 884 0492 2297     		add	a4,a4,s0
 885 0494 1863     		ld	a4,0(a4)
 886 0496 3387E702 		mul	a4,a5,a4
 887 049a 930705B5 		addi	a5,a0,-1200
 888 049e A297     		add	a5,a5,s0
 889 04a0 9C63     		ld	a5,0(a5)
 890 04a2 AA84     		mv	s1,a0
 891 04a4 130505B4 		addi	a0,a0,-1216
 892 04a8 2295     		add	a0,a0,s0
 893 04aa 0861     		ld	a0,0(a0)
 894 04ac B3B7A702 		mulhu	a5,a5,a0
 895 04b0 138504CC 		addi	a0,s1,-832
 896 04b4 2295     		add	a0,a0,s0
 897 04b6 18E1     		sd	a4,0(a0)
 898 04b8 2687     		mv	a4,s1
 899 04ba 130587CC 		addi	a0,a4,-824
 900 04be 2295     		add	a0,a0,s0
 901 04c0 1CE1     		sd	a5,0(a0)
 902 04c2 930787CC 		addi	a5,a4,-824
 903 04c6 A297     		add	a5,a5,s0
 904 04c8 9C63     		ld	a5,0(a5)
 905 04ca B697     		add	a5,a3,a5
 906 04cc BA86     		mv	a3,a4
 907 04ce 138786CC 		addi	a4,a3,-824
 908 04d2 2297     		add	a4,a4,s0
 909 04d4 1CE3     		sd	a5,0(a4)
 910 04d6 938706CC 		addi	a5,a3,-832
 911 04da A297     		add	a5,a5,s0
 912 04dc 9C63     		ld	a5,0(a5)
 913 04de ED93     		srli	a5,a5,59
 914 04e0 138786CC 		addi	a4,a3,-824
 915 04e4 2297     		add	a4,a4,s0
 916 04e6 1863     		ld	a4,0(a4)
 917 04e8 1607     		slli	a4,a4,5
 918 04ea 13858681 		addi	a0,a3,-2024
 919 04ee 2295     		add	a0,a0,s0
 920 04f0 18E1     		sd	a4,0(a0)
 921 04f2 13878681 		addi	a4,a3,-2024
 922 04f6 2297     		add	a4,a4,s0
 923 04f8 1863     		ld	a4,0(a4)
 924 04fa D98F     		or	a5,a5,a4
 925 04fc 13878681 		addi	a4,a3,-2024
 926 0500 2297     		add	a4,a4,s0
 927 0502 1CE3     		sd	a5,0(a4)
 928 0504 938706CC 		addi	a5,a3,-832
 929 0508 A297     		add	a5,a5,s0
 930 050a 9C63     		ld	a5,0(a5)
 931 050c 9607     		slli	a5,a5,5
 932 050e 13870681 		addi	a4,a3,-2032
 933 0512 2297     		add	a4,a4,s0
 934 0514 1CE3     		sd	a5,0(a4)
 935 0516 3287     		mv	a4,a2
 936 0518 AE87     		mv	a5,a1
 937 051a B307F702 		mul	a5,a4,a5
 938 051e 8A07     		slli	a5,a5,2
 939 0520 BD07     		addi	a5,a5,15
 940 0522 9183     		srli	a5,a5,4
 941 0524 9207     		slli	a5,a5,4
 942 0526 3301F140 		sub	sp,sp,a5
 943 052a 8A87     		mv	a5,sp
 944 052c 8D07     		addi	a5,a5,3
 945 052e 8983     		srli	a5,a5,2
 946 0530 8A07     		slli	a5,a5,2
 947 0532 2330F4EA 		sd	a5,-352(s0)
  74:../src/application/hart1/u54_1.c **** int tempFramedAry[w+4][h+4];
 948              		.loc 3 74 25
 949 0536 97070000 		lla	a5,h
 949      93870700 
 950 053e 9C43     		lw	a5,0(a5)
 951 0540 9127     		addiw	a5,a5,4
 952 0542 1B860700 		sext.w	a2,a5
 953              		.loc 3 74 20
 954 0546 97070000 		lla	a5,w
 954      93870700 
 955 054e 9C43     		lw	a5,0(a5)
 956 0550 9127     		addiw	a5,a5,4
 957 0552 9B850700 		sext.w	a1,a5
 958              		.loc 3 74 25
 959 0556 B287     		mv	a5,a2
 960              		.loc 3 74 5
 961 0558 FD17     		addi	a5,a5,-1
 962 055a 233CF4E8 		sd	a5,-360(s0)
 963 055e B287     		mv	a5,a2
 964 0560 1387068E 		addi	a4,a3,-1824
 965 0564 2297     		add	a4,a4,s0
 966 0566 1CE3     		sd	a5,0(a4)
 967 0568 9387868E 		addi	a5,a3,-1816
 968 056c A297     		add	a5,a5,s0
 969 056e 23B00700 		sd	zero,0(a5)
 970 0572 9387068E 		addi	a5,a3,-1824
 971 0576 A297     		add	a5,a5,s0
 972 0578 9C63     		ld	a5,0(a5)
 973 057a ED93     		srli	a5,a5,59
 974 057c 1387868E 		addi	a4,a3,-1816
 975 0580 2297     		add	a4,a4,s0
 976 0582 1863     		ld	a4,0(a4)
 977 0584 1607     		slli	a4,a4,5
 978 0586 13858680 		addi	a0,a3,-2040
 979 058a 2295     		add	a0,a0,s0
 980 058c 18E1     		sd	a4,0(a0)
 981 058e 13878680 		addi	a4,a3,-2040
 982 0592 2297     		add	a4,a4,s0
 983 0594 1863     		ld	a4,0(a4)
 984 0596 D98F     		or	a5,a5,a4
 985 0598 3687     		mv	a4,a3
 986 059a 93068780 		addi	a3,a4,-2040
 987 059e A296     		add	a3,a3,s0
 988 05a0 9CE2     		sd	a5,0(a3)
 989 05a2 9307078E 		addi	a5,a4,-1824
 990 05a6 A297     		add	a5,a5,s0
 991 05a8 9C63     		ld	a5,0(a5)
 992 05aa 9607     		slli	a5,a5,5
 993 05ac 93060780 		addi	a3,a4,-2048
 994 05b0 A296     		add	a3,a3,s0
 995 05b2 9CE2     		sd	a5,0(a3)
 996 05b4 B287     		mv	a5,a2
 997 05b6 93982700 		slli	a7,a5,2
 998              		.loc 3 74 20
 999 05ba AE87     		mv	a5,a1
 1000              		.loc 3 74 5
 1001 05bc FD17     		addi	a5,a5,-1
 1002 05be 2338F4E8 		sd	a5,-368(s0)
 1003 05c2 B287     		mv	a5,a2
 1004 05c4 930607B3 		addi	a3,a4,-1232
 1005 05c8 A296     		add	a3,a3,s0
 1006 05ca 9CE2     		sd	a5,0(a3)
 1007 05cc 930787B3 		addi	a5,a4,-1224
 1008 05d0 A297     		add	a5,a5,s0
 1009 05d2 23B00700 		sd	zero,0(a5)
 1010 05d6 AE87     		mv	a5,a1
 1011 05d8 3A85     		mv	a0,a4
 1012 05da 130705B2 		addi	a4,a0,-1248
 1013 05de 2297     		add	a4,a4,s0
 1014 05e0 1CE3     		sd	a5,0(a4)
 1015 05e2 930785B2 		addi	a5,a0,-1240
 1016 05e6 A297     		add	a5,a5,s0
 1017 05e8 23B00700 		sd	zero,0(a5)
 1018 05ec 930785B3 		addi	a5,a0,-1224
 1019 05f0 A297     		add	a5,a5,s0
 1020 05f2 9C63     		ld	a5,0(a5)
 1021 05f4 130705B2 		addi	a4,a0,-1248
 1022 05f8 2297     		add	a4,a4,s0
 1023 05fa 1863     		ld	a4,0(a4)
 1024 05fc 3387E702 		mul	a4,a5,a4
 1025 0600 930785B2 		addi	a5,a0,-1240
 1026 0604 A297     		add	a5,a5,s0
 1027 0606 9C63     		ld	a5,0(a5)
 1028 0608 930605B3 		addi	a3,a0,-1232
 1029 060c A296     		add	a3,a3,s0
 1030 060e 9462     		ld	a3,0(a3)
 1031 0610 B387D702 		mul	a5,a5,a3
 1032 0614 B306F700 		add	a3,a4,a5
 1033 0618 930705B3 		addi	a5,a0,-1232
 1034 061c A297     		add	a5,a5,s0
 1035 061e 9C63     		ld	a5,0(a5)
 1036 0620 130705B2 		addi	a4,a0,-1248
 1037 0624 2297     		add	a4,a4,s0
 1038 0626 1863     		ld	a4,0(a4)
 1039 0628 3387E702 		mul	a4,a5,a4
 1040 062c 930705B3 		addi	a5,a0,-1232
 1041 0630 A297     		add	a5,a5,s0
 1042 0632 9C63     		ld	a5,0(a5)
 1043 0634 AA84     		mv	s1,a0
 1044 0636 130505B2 		addi	a0,a0,-1248
 1045 063a 2295     		add	a0,a0,s0
 1046 063c 0861     		ld	a0,0(a0)
 1047 063e B3B7A702 		mulhu	a5,a5,a0
 1048 0642 138504CB 		addi	a0,s1,-848
 1049 0646 2295     		add	a0,a0,s0
 1050 0648 18E1     		sd	a4,0(a0)
 1051 064a 2687     		mv	a4,s1
 1052 064c 130587CB 		addi	a0,a4,-840
 1053 0650 2295     		add	a0,a0,s0
 1054 0652 1CE1     		sd	a5,0(a0)
 1055 0654 930787CB 		addi	a5,a4,-840
 1056 0658 A297     		add	a5,a5,s0
 1057 065a 9C63     		ld	a5,0(a5)
 1058 065c B697     		add	a5,a3,a5
 1059 065e BA86     		mv	a3,a4
 1060 0660 138786CB 		addi	a4,a3,-840
 1061 0664 2297     		add	a4,a4,s0
 1062 0666 1CE3     		sd	a5,0(a4)
 1063 0668 938706CB 		addi	a5,a3,-848
 1064 066c A297     		add	a5,a5,s0
 1065 066e 9C63     		ld	a5,0(a5)
 1066 0670 ED93     		srli	a5,a5,59
 1067 0672 138786CB 		addi	a4,a3,-840
 1068 0676 2297     		add	a4,a4,s0
 1069 0678 1863     		ld	a4,0(a4)
 1070 067a 1607     		slli	a4,a4,5
 1071 067c 1305837F 		addi	a0,t1,2040
 1072 0680 2295     		add	a0,a0,s0
 1073 0682 18E1     		sd	a4,0(a0)
 1074 0684 1307837F 		addi	a4,t1,2040
 1075 0688 2297     		add	a4,a4,s0
 1076 068a 1863     		ld	a4,0(a4)
 1077 068c D98F     		or	a5,a5,a4
 1078 068e 1307837F 		addi	a4,t1,2040
 1079 0692 2297     		add	a4,a4,s0
 1080 0694 1CE3     		sd	a5,0(a4)
 1081 0696 938706CB 		addi	a5,a3,-848
 1082 069a A297     		add	a5,a5,s0
 1083 069c 9C63     		ld	a5,0(a5)
 1084 069e 9607     		slli	a5,a5,5
 1085 06a0 1307037F 		addi	a4,t1,2032
 1086 06a4 2297     		add	a4,a4,s0
 1087 06a6 1CE3     		sd	a5,0(a4)
 1088 06a8 B287     		mv	a5,a2
 1089 06aa 138706B1 		addi	a4,a3,-1264
 1090 06ae 2297     		add	a4,a4,s0
 1091 06b0 1CE3     		sd	a5,0(a4)
 1092 06b2 938786B1 		addi	a5,a3,-1256
 1093 06b6 A297     		add	a5,a5,s0
 1094 06b8 23B00700 		sd	zero,0(a5)
 1095 06bc AE87     		mv	a5,a1
 1096 06be 3685     		mv	a0,a3
 1097 06c0 130705B0 		addi	a4,a0,-1280
 1098 06c4 2297     		add	a4,a4,s0
 1099 06c6 1CE3     		sd	a5,0(a4)
 1100 06c8 930785B0 		addi	a5,a0,-1272
 1101 06cc A297     		add	a5,a5,s0
 1102 06ce 23B00700 		sd	zero,0(a5)
 1103 06d2 930785B1 		addi	a5,a0,-1256
 1104 06d6 A297     		add	a5,a5,s0
 1105 06d8 9C63     		ld	a5,0(a5)
 1106 06da 130705B0 		addi	a4,a0,-1280
 1107 06de 2297     		add	a4,a4,s0
 1108 06e0 1863     		ld	a4,0(a4)
 1109 06e2 3387E702 		mul	a4,a5,a4
 1110 06e6 930785B0 		addi	a5,a0,-1272
 1111 06ea A297     		add	a5,a5,s0
 1112 06ec 9C63     		ld	a5,0(a5)
 1113 06ee 930605B1 		addi	a3,a0,-1264
 1114 06f2 A296     		add	a3,a3,s0
 1115 06f4 9462     		ld	a3,0(a3)
 1116 06f6 B387D702 		mul	a5,a5,a3
 1117 06fa B306F700 		add	a3,a4,a5
 1118 06fe 930705B1 		addi	a5,a0,-1264
 1119 0702 A297     		add	a5,a5,s0
 1120 0704 9C63     		ld	a5,0(a5)
 1121 0706 130705B0 		addi	a4,a0,-1280
 1122 070a 2297     		add	a4,a4,s0
 1123 070c 1863     		ld	a4,0(a4)
 1124 070e 3387E702 		mul	a4,a5,a4
 1125 0712 930705B1 		addi	a5,a0,-1264
 1126 0716 A297     		add	a5,a5,s0
 1127 0718 9C63     		ld	a5,0(a5)
 1128 071a AA84     		mv	s1,a0
 1129 071c 130505B0 		addi	a0,a0,-1280
 1130 0720 2295     		add	a0,a0,s0
 1131 0722 0861     		ld	a0,0(a0)
 1132 0724 B3B7A702 		mulhu	a5,a5,a0
 1133 0728 138504CA 		addi	a0,s1,-864
 1134 072c 2295     		add	a0,a0,s0
 1135 072e 18E1     		sd	a4,0(a0)
 1136 0730 2687     		mv	a4,s1
 1137 0732 130587CA 		addi	a0,a4,-856
 1138 0736 2295     		add	a0,a0,s0
 1139 0738 1CE1     		sd	a5,0(a0)
 1140 073a 930787CA 		addi	a5,a4,-856
 1141 073e A297     		add	a5,a5,s0
 1142 0740 9C63     		ld	a5,0(a5)
 1143 0742 B697     		add	a5,a3,a5
 1144 0744 BA86     		mv	a3,a4
 1145 0746 138786CA 		addi	a4,a3,-856
 1146 074a 2297     		add	a4,a4,s0
 1147 074c 1CE3     		sd	a5,0(a4)
 1148 074e 938706CA 		addi	a5,a3,-864
 1149 0752 A297     		add	a5,a5,s0
 1150 0754 9C63     		ld	a5,0(a5)
 1151 0756 ED93     		srli	a5,a5,59
 1152 0758 138786CA 		addi	a4,a3,-856
 1153 075c 2297     		add	a4,a4,s0
 1154 075e 1863     		ld	a4,0(a4)
 1155 0760 1607     		slli	a4,a4,5
 1156 0762 1305837E 		addi	a0,t1,2024
 1157 0766 2295     		add	a0,a0,s0
 1158 0768 18E1     		sd	a4,0(a0)
 1159 076a 1307837E 		addi	a4,t1,2024
 1160 076e 2297     		add	a4,a4,s0
 1161 0770 1863     		ld	a4,0(a4)
 1162 0772 D98F     		or	a5,a5,a4
 1163 0774 1307837E 		addi	a4,t1,2024
 1164 0778 2297     		add	a4,a4,s0
 1165 077a 1CE3     		sd	a5,0(a4)
 1166 077c 938706CA 		addi	a5,a3,-864
 1167 0780 A297     		add	a5,a5,s0
 1168 0782 9C63     		ld	a5,0(a5)
 1169 0784 9607     		slli	a5,a5,5
 1170 0786 1307037E 		addi	a4,t1,2016
 1171 078a 2297     		add	a4,a4,s0
 1172 078c 1CE3     		sd	a5,0(a4)
 1173 078e 3287     		mv	a4,a2
 1174 0790 AE87     		mv	a5,a1
 1175 0792 B307F702 		mul	a5,a4,a5
 1176 0796 8A07     		slli	a5,a5,2
 1177 0798 BD07     		addi	a5,a5,15
 1178 079a 9183     		srli	a5,a5,4
 1179 079c 9207     		slli	a5,a5,4
 1180 079e 3301F140 		sub	sp,sp,a5
 1181 07a2 8A87     		mv	a5,sp
 1182 07a4 8D07     		addi	a5,a5,3
 1183 07a6 8983     		srli	a5,a5,2
 1184 07a8 8A07     		slli	a5,a5,2
 1185 07aa 2334F4E8 		sd	a5,-376(s0)
 1186              	.LBB7:
  75:../src/application/hart1/u54_1.c **** 
  76:../src/application/hart1/u54_1.c ****  //   infile1.open("input.txt");
  77:../src/application/hart1/u54_1.c **** //    int data[w][h];
  78:../src/application/hart1/u54_1.c **** 
  79:../src/application/hart1/u54_1.c **** /*
  80:../src/application/hart1/u54_1.c **** 
  81:../src/application/hart1/u54_1.c ****     for(int i=0;i<w;i++){
  82:../src/application/hart1/u54_1.c ****         for(int j=0;j<h;j++){
  83:../src/application/hart1/u54_1.c **** 
  84:../src/application/hart1/u54_1.c ****             infile1>>data[i][j];//input
  85:../src/application/hart1/u54_1.c **** 
  86:../src/application/hart1/u54_1.c ****         }
  87:../src/application/hart1/u54_1.c **** 
  88:../src/application/hart1/u54_1.c ****     }
  89:../src/application/hart1/u54_1.c **** */
  90:../src/application/hart1/u54_1.c **** 
  91:../src/application/hart1/u54_1.c **** for(int i=0;i<w;i++){
 1187              		.loc 3 91 9
 1188 07ae 232004EE 		sw	zero,-288(s0)
 1189              		.loc 3 91 1
 1190 07b2 81A8     		j	.L24
 1191              	.L27:
 1192              	.LBB8:
  92:../src/application/hart1/u54_1.c ****     for(int j=0;j<h;j++){
 1193              		.loc 3 92 13
 1194 07b4 232204EE 		sw	zero,-284(s0)
 1195              		.loc 3 92 5
 1196 07b8 25A0     		j	.L25
 1197              	.L26:
  93:../src/application/hart1/u54_1.c ****         data[i][j]=0;
 1198              		.loc 3 93 19 discriminator 3
 1199 07ba 97060000 		lla	a3,data
 1199      93860600 
 1200 07c2 032744EE 		lw	a4,-284(s0)
 1201 07c6 832704EE 		lw	a5,-288(s0)
 1202 07ca 9E07     		slli	a5,a5,7
 1203 07cc BA97     		add	a5,a5,a4
 1204 07ce 8A07     		slli	a5,a5,2
 1205 07d0 B697     		add	a5,a3,a5
 1206 07d2 23A00700 		sw	zero,0(a5)
  92:../src/application/hart1/u54_1.c ****     for(int j=0;j<h;j++){
 1207              		.loc 3 92 22 discriminator 3
 1208 07d6 832744EE 		lw	a5,-284(s0)
 1209 07da 8527     		addiw	a5,a5,1
 1210 07dc 2322F4EE 		sw	a5,-284(s0)
 1211              	.L25:
  92:../src/application/hart1/u54_1.c ****     for(int j=0;j<h;j++){
 1212              		.loc 3 92 18 discriminator 1
 1213 07e0 97070000 		lla	a5,h
 1213      93870700 
 1214 07e8 9443     		lw	a3,0(a5)
  92:../src/application/hart1/u54_1.c ****     for(int j=0;j<h;j++){
 1215              		.loc 3 92 5 discriminator 1
 1216 07ea 832744EE 		lw	a5,-284(s0)
 1217 07ee 1B870700 		sext.w	a4,a5
 1218 07f2 B687     		mv	a5,a3
 1219 07f4 E343F7FC 		blt	a4,a5,.L26
 1220              	.LBE8:
  91:../src/application/hart1/u54_1.c ****     for(int j=0;j<h;j++){
 1221              		.loc 3 91 18 discriminator 2
 1222 07f8 832704EE 		lw	a5,-288(s0)
 1223 07fc 8527     		addiw	a5,a5,1
 1224 07fe 2320F4EE 		sw	a5,-288(s0)
 1225              	.L24:
  91:../src/application/hart1/u54_1.c ****     for(int j=0;j<h;j++){
 1226              		.loc 3 91 14 discriminator 1
 1227 0802 97070000 		lla	a5,w
 1227      93870700 
 1228 080a 9443     		lw	a3,0(a5)
  91:../src/application/hart1/u54_1.c ****     for(int j=0;j<h;j++){
 1229              		.loc 3 91 1 discriminator 1
 1230 080c 832704EE 		lw	a5,-288(s0)
 1231 0810 1B870700 		sext.w	a4,a5
 1232 0814 B687     		mv	a5,a3
 1233 0816 E34FF7F8 		blt	a4,a5,.L27
 1234              	.LBE7:
  94:../src/application/hart1/u54_1.c ****     }
  95:../src/application/hart1/u54_1.c ****     }
  96:../src/application/hart1/u54_1.c **** 
  97:../src/application/hart1/u54_1.c **** //thresholding the image
  98:../src/application/hart1/u54_1.c **** int threshold=150;
 1235              		.loc 3 98 5
 1236 081a 93076009 		li	a5,150
 1237 081e 2322F4E8 		sw	a5,-380(s0)
  99:../src/application/hart1/u54_1.c **** int out_thre[w][h];
 1238              		.loc 3 99 1
 1239 0822 97070000 		lla	a5,h
 1239      93870700 
 1240 082a 9043     		lw	a2,0(a5)
 1241 082c 97070000 		lla	a5,w
 1241      93870700 
 1242 0834 8C43     		lw	a1,0(a5)
 1243 0836 8A87     		mv	a5,sp
 1244 0838 3E8C     		mv	s8,a5
 1245              		.loc 3 99 5
 1246 083a B287     		mv	a5,a2
 1247 083c FD17     		addi	a5,a5,-1
 1248 083e 233CF4E6 		sd	a5,-392(s0)
 1249 0842 B287     		mv	a5,a2
 1250 0844 B706FDFF 		li	a3,-196608
 1251 0848 1387068D 		addi	a4,a3,-1840
 1252 084c 2297     		add	a4,a4,s0
 1253 084e 1CE3     		sd	a5,0(a4)
 1254 0850 9387868D 		addi	a5,a3,-1832
 1255 0854 A297     		add	a5,a5,s0
 1256 0856 23B00700 		sd	zero,0(a5)
 1257 085a 9387068D 		addi	a5,a3,-1840
 1258 085e A297     		add	a5,a5,s0
 1259 0860 9C63     		ld	a5,0(a5)
 1260 0862 ED93     		srli	a5,a5,59
 1261 0864 1387868D 		addi	a4,a3,-1832
 1262 0868 2297     		add	a4,a4,s0
 1263 086a 1863     		ld	a4,0(a4)
 1264 086c 1607     		slli	a4,a4,5
 1265 086e 37FEFCFF 		li	t3,-200704
 1266 0872 13058E7D 		addi	a0,t3,2008
 1267 0876 2295     		add	a0,a0,s0
 1268 0878 18E1     		sd	a4,0(a0)
 1269 087a 13078E7D 		addi	a4,t3,2008
 1270 087e 2297     		add	a4,a4,s0
 1271 0880 1863     		ld	a4,0(a4)
 1272 0882 D98F     		or	a5,a5,a4
 1273 0884 13078E7D 		addi	a4,t3,2008
 1274 0888 2297     		add	a4,a4,s0
 1275 088a 1CE3     		sd	a5,0(a4)
 1276 088c 9387068D 		addi	a5,a3,-1840
 1277 0890 A297     		add	a5,a5,s0
 1278 0892 9C63     		ld	a5,0(a5)
 1279 0894 9607     		slli	a5,a5,5
 1280 0896 13070E7D 		addi	a4,t3,2000
 1281 089a 2297     		add	a4,a4,s0
 1282 089c 1CE3     		sd	a5,0(a4)
 1283 089e B287     		mv	a5,a2
 1284 08a0 13952700 		slli	a0,a5,2
 1285 08a4 AE87     		mv	a5,a1
 1286 08a6 FD17     		addi	a5,a5,-1
 1287 08a8 2338F4E6 		sd	a5,-400(s0)
 1288 08ac B287     		mv	a5,a2
 1289 08ae 138706AF 		addi	a4,a3,-1296
 1290 08b2 2297     		add	a4,a4,s0
 1291 08b4 1CE3     		sd	a5,0(a4)
 1292 08b6 938786AF 		addi	a5,a3,-1288
 1293 08ba A297     		add	a5,a5,s0
 1294 08bc 23B00700 		sd	zero,0(a5)
 1295 08c0 AE87     		mv	a5,a1
 1296 08c2 B684     		mv	s1,a3
 1297 08c4 138704AE 		addi	a4,s1,-1312
 1298 08c8 2297     		add	a4,a4,s0
 1299 08ca 1CE3     		sd	a5,0(a4)
 1300 08cc 938784AE 		addi	a5,s1,-1304
 1301 08d0 A297     		add	a5,a5,s0
 1302 08d2 23B00700 		sd	zero,0(a5)
 1303 08d6 938784AF 		addi	a5,s1,-1288
 1304 08da A297     		add	a5,a5,s0
 1305 08dc 9C63     		ld	a5,0(a5)
 1306 08de 138704AE 		addi	a4,s1,-1312
 1307 08e2 2297     		add	a4,a4,s0
 1308 08e4 1863     		ld	a4,0(a4)
 1309 08e6 3387E702 		mul	a4,a5,a4
 1310 08ea 938784AE 		addi	a5,s1,-1304
 1311 08ee A297     		add	a5,a5,s0
 1312 08f0 9C63     		ld	a5,0(a5)
 1313 08f2 938604AF 		addi	a3,s1,-1296
 1314 08f6 A296     		add	a3,a3,s0
 1315 08f8 9462     		ld	a3,0(a3)
 1316 08fa B387D702 		mul	a5,a5,a3
 1317 08fe B306F700 		add	a3,a4,a5
 1318 0902 938704AF 		addi	a5,s1,-1296
 1319 0906 A297     		add	a5,a5,s0
 1320 0908 9C63     		ld	a5,0(a5)
 1321 090a 138704AE 		addi	a4,s1,-1312
 1322 090e 2297     		add	a4,a4,s0
 1323 0910 1863     		ld	a4,0(a4)
 1324 0912 3387E702 		mul	a4,a5,a4
 1325 0916 938704AF 		addi	a5,s1,-1296
 1326 091a A297     		add	a5,a5,s0
 1327 091c 9C63     		ld	a5,0(a5)
 1328 091e 2683     		mv	t1,s1
 1329 0920 938404AE 		addi	s1,s1,-1312
 1330 0924 A294     		add	s1,s1,s0
 1331 0926 8460     		ld	s1,0(s1)
 1332 0928 B3B79702 		mulhu	a5,a5,s1
 1333 092c 930403C9 		addi	s1,t1,-880
 1334 0930 A294     		add	s1,s1,s0
 1335 0932 98E0     		sd	a4,0(s1)
 1336 0934 1A87     		mv	a4,t1
 1337 0936 930487C9 		addi	s1,a4,-872
 1338 093a A294     		add	s1,s1,s0
 1339 093c 9CE0     		sd	a5,0(s1)
 1340 093e 930787C9 		addi	a5,a4,-872
 1341 0942 A297     		add	a5,a5,s0
 1342 0944 9C63     		ld	a5,0(a5)
 1343 0946 B697     		add	a5,a3,a5
 1344 0948 BA86     		mv	a3,a4
 1345 094a 138786C9 		addi	a4,a3,-872
 1346 094e 2297     		add	a4,a4,s0
 1347 0950 1CE3     		sd	a5,0(a4)
 1348 0952 938706C9 		addi	a5,a3,-880
 1349 0956 A297     		add	a5,a5,s0
 1350 0958 9C63     		ld	a5,0(a5)
 1351 095a ED93     		srli	a5,a5,59
 1352 095c 138786C9 		addi	a4,a3,-872
 1353 0960 2297     		add	a4,a4,s0
 1354 0962 1863     		ld	a4,0(a4)
 1355 0964 1607     		slli	a4,a4,5
 1356 0966 93048E7C 		addi	s1,t3,1992
 1357 096a A294     		add	s1,s1,s0
 1358 096c 98E0     		sd	a4,0(s1)
 1359 096e 13078E7C 		addi	a4,t3,1992
 1360 0972 2297     		add	a4,a4,s0
 1361 0974 1863     		ld	a4,0(a4)
 1362 0976 D98F     		or	a5,a5,a4
 1363 0978 13078E7C 		addi	a4,t3,1992
 1364 097c 2297     		add	a4,a4,s0
 1365 097e 1CE3     		sd	a5,0(a4)
 1366 0980 938706C9 		addi	a5,a3,-880
 1367 0984 A297     		add	a5,a5,s0
 1368 0986 9C63     		ld	a5,0(a5)
 1369 0988 9607     		slli	a5,a5,5
 1370 098a 13070E7C 		addi	a4,t3,1984
 1371 098e 2297     		add	a4,a4,s0
 1372 0990 1CE3     		sd	a5,0(a4)
 1373 0992 B287     		mv	a5,a2
 1374 0994 138706AD 		addi	a4,a3,-1328
 1375 0998 2297     		add	a4,a4,s0
 1376 099a 1CE3     		sd	a5,0(a4)
 1377 099c 938786AD 		addi	a5,a3,-1320
 1378 09a0 A297     		add	a5,a5,s0
 1379 09a2 23B00700 		sd	zero,0(a5)
 1380 09a6 AE87     		mv	a5,a1
 1381 09a8 B684     		mv	s1,a3
 1382 09aa 138704AC 		addi	a4,s1,-1344
 1383 09ae 2297     		add	a4,a4,s0
 1384 09b0 1CE3     		sd	a5,0(a4)
 1385 09b2 938784AC 		addi	a5,s1,-1336
 1386 09b6 A297     		add	a5,a5,s0
 1387 09b8 23B00700 		sd	zero,0(a5)
 1388 09bc 938784AD 		addi	a5,s1,-1320
 1389 09c0 A297     		add	a5,a5,s0
 1390 09c2 9C63     		ld	a5,0(a5)
 1391 09c4 138704AC 		addi	a4,s1,-1344
 1392 09c8 2297     		add	a4,a4,s0
 1393 09ca 1863     		ld	a4,0(a4)
 1394 09cc 3387E702 		mul	a4,a5,a4
 1395 09d0 938784AC 		addi	a5,s1,-1336
 1396 09d4 A297     		add	a5,a5,s0
 1397 09d6 9C63     		ld	a5,0(a5)
 1398 09d8 938604AD 		addi	a3,s1,-1328
 1399 09dc A296     		add	a3,a3,s0
 1400 09de 9462     		ld	a3,0(a3)
 1401 09e0 B387D702 		mul	a5,a5,a3
 1402 09e4 B306F700 		add	a3,a4,a5
 1403 09e8 938704AD 		addi	a5,s1,-1328
 1404 09ec A297     		add	a5,a5,s0
 1405 09ee 9C63     		ld	a5,0(a5)
 1406 09f0 138704AC 		addi	a4,s1,-1344
 1407 09f4 2297     		add	a4,a4,s0
 1408 09f6 1863     		ld	a4,0(a4)
 1409 09f8 3387E702 		mul	a4,a5,a4
 1410 09fc 938704AD 		addi	a5,s1,-1328
 1411 0a00 A297     		add	a5,a5,s0
 1412 0a02 9C63     		ld	a5,0(a5)
 1413 0a04 2683     		mv	t1,s1
 1414 0a06 938404AC 		addi	s1,s1,-1344
 1415 0a0a A294     		add	s1,s1,s0
 1416 0a0c 8460     		ld	s1,0(s1)
 1417 0a0e B3B79702 		mulhu	a5,a5,s1
 1418 0a12 930403C8 		addi	s1,t1,-896
 1419 0a16 A294     		add	s1,s1,s0
 1420 0a18 98E0     		sd	a4,0(s1)
 1421 0a1a 1A87     		mv	a4,t1
 1422 0a1c 930487C8 		addi	s1,a4,-888
 1423 0a20 A294     		add	s1,s1,s0
 1424 0a22 9CE0     		sd	a5,0(s1)
 1425 0a24 930787C8 		addi	a5,a4,-888
 1426 0a28 A297     		add	a5,a5,s0
 1427 0a2a 9C63     		ld	a5,0(a5)
 1428 0a2c B697     		add	a5,a3,a5
 1429 0a2e BA86     		mv	a3,a4
 1430 0a30 138786C8 		addi	a4,a3,-888
 1431 0a34 2297     		add	a4,a4,s0
 1432 0a36 1CE3     		sd	a5,0(a4)
 1433 0a38 938706C8 		addi	a5,a3,-896
 1434 0a3c A297     		add	a5,a5,s0
 1435 0a3e 9C63     		ld	a5,0(a5)
 1436 0a40 ED93     		srli	a5,a5,59
 1437 0a42 138786C8 		addi	a4,a3,-888
 1438 0a46 2297     		add	a4,a4,s0
 1439 0a48 1863     		ld	a4,0(a4)
 1440 0a4a 1607     		slli	a4,a4,5
 1441 0a4c 93048E7B 		addi	s1,t3,1976
 1442 0a50 A294     		add	s1,s1,s0
 1443 0a52 98E0     		sd	a4,0(s1)
 1444 0a54 13078E7B 		addi	a4,t3,1976
 1445 0a58 2297     		add	a4,a4,s0
 1446 0a5a 1863     		ld	a4,0(a4)
 1447 0a5c D98F     		or	a5,a5,a4
 1448 0a5e 13078E7B 		addi	a4,t3,1976
 1449 0a62 2297     		add	a4,a4,s0
 1450 0a64 1CE3     		sd	a5,0(a4)
 1451 0a66 938706C8 		addi	a5,a3,-896
 1452 0a6a A297     		add	a5,a5,s0
 1453 0a6c 9C63     		ld	a5,0(a5)
 1454 0a6e 9607     		slli	a5,a5,5
 1455 0a70 13070E7B 		addi	a4,t3,1968
 1456 0a74 2297     		add	a4,a4,s0
 1457 0a76 1CE3     		sd	a5,0(a4)
 1458 0a78 3287     		mv	a4,a2
 1459 0a7a AE87     		mv	a5,a1
 1460 0a7c B307F702 		mul	a5,a4,a5
 1461 0a80 8A07     		slli	a5,a5,2
 1462 0a82 BD07     		addi	a5,a5,15
 1463 0a84 9183     		srli	a5,a5,4
 1464 0a86 9207     		slli	a5,a5,4
 1465 0a88 3301F140 		sub	sp,sp,a5
 1466 0a8c 8A87     		mv	a5,sp
 1467 0a8e 8D07     		addi	a5,a5,3
 1468 0a90 8983     		srli	a5,a5,2
 1469 0a92 8A07     		slli	a5,a5,2
 1470 0a94 2334F4E6 		sd	a5,-408(s0)
 1471              	.LBB9:
 100:../src/application/hart1/u54_1.c **** for(int i=0;i<w;i++)
 1472              		.loc 3 100 9
 1473 0a98 232404EE 		sw	zero,-280(s0)
 1474              		.loc 3 100 1
 1475 0a9c 71A8     		j	.L28
 1476              	.L33:
 1477              	.LBB10:
 101:../src/application/hart1/u54_1.c **** {
 102:../src/application/hart1/u54_1.c ****  for(int j=0;j<h;j++)
 1478              		.loc 3 102 10
 1479 0a9e 232604EE 		sw	zero,-276(s0)
 1480              		.loc 3 102 2
 1481 0aa2 95A8     		j	.L29
 1482              	.L32:
 103:../src/application/hart1/u54_1.c ****  {
 104:../src/application/hart1/u54_1.c ****   if(data[i][j]<threshold)
 1483              		.loc 3 104 13
 1484 0aa4 97060000 		lla	a3,data
 1484      93860600 
 1485 0aac 0327C4EE 		lw	a4,-276(s0)
 1486 0ab0 832784EE 		lw	a5,-280(s0)
 1487 0ab4 9E07     		slli	a5,a5,7
 1488 0ab6 BA97     		add	a5,a5,a4
 1489 0ab8 8A07     		slli	a5,a5,2
 1490 0aba B697     		add	a5,a3,a5
 1491 0abc 9443     		lw	a3,0(a5)
 1492              		.loc 3 104 5
 1493 0abe 832744E8 		lw	a5,-380(s0)
 1494 0ac2 1B870700 		sext.w	a4,a5
 1495 0ac6 B687     		mv	a5,a3
 1496 0ac8 63D2E702 		ble	a4,a5,.L30
 105:../src/application/hart1/u54_1.c ****   {
 106:../src/application/hart1/u54_1.c ****    out_thre[i][j]=0;
 1497              		.loc 3 106 15
 1498 0acc 93562500 		srli	a3,a0,2
 1499              		.loc 3 106 18
 1500 0ad0 033684E6 		ld	a2,-408(s0)
 1501 0ad4 0327C4EE 		lw	a4,-276(s0)
 1502 0ad8 832784EE 		lw	a5,-280(s0)
 1503 0adc B387D702 		mul	a5,a5,a3
 1504 0ae0 BA97     		add	a5,a4,a5
 1505 0ae2 8A07     		slli	a5,a5,2
 1506 0ae4 B297     		add	a5,a2,a5
 1507 0ae6 23A00700 		sw	zero,0(a5)
 1508 0aea 0DA0     		j	.L31
 1509              	.L30:
 107:../src/application/hart1/u54_1.c ****   }
 108:../src/application/hart1/u54_1.c ****   else
 109:../src/application/hart1/u54_1.c ****   {
 110:../src/application/hart1/u54_1.c ****    out_thre[i][j]=1;
 1510              		.loc 3 110 15
 1511 0aec 93562500 		srli	a3,a0,2
 1512              		.loc 3 110 18
 1513 0af0 033684E6 		ld	a2,-408(s0)
 1514 0af4 0327C4EE 		lw	a4,-276(s0)
 1515 0af8 832784EE 		lw	a5,-280(s0)
 1516 0afc B387D702 		mul	a5,a5,a3
 1517 0b00 BA97     		add	a5,a4,a5
 1518 0b02 8A07     		slli	a5,a5,2
 1519 0b04 3307F600 		add	a4,a2,a5
 1520 0b08 8547     		li	a5,1
 1521 0b0a 1CC3     		sw	a5,0(a4)
 1522              	.L31:
 102:../src/application/hart1/u54_1.c ****  {
 1523              		.loc 3 102 19 discriminator 2
 1524 0b0c 8327C4EE 		lw	a5,-276(s0)
 1525 0b10 8527     		addiw	a5,a5,1
 1526 0b12 2326F4EE 		sw	a5,-276(s0)
 1527              	.L29:
 102:../src/application/hart1/u54_1.c ****  {
 1528              		.loc 3 102 15 discriminator 1
 1529 0b16 97070000 		lla	a5,h
 1529      93870700 
 1530 0b1e 9443     		lw	a3,0(a5)
 102:../src/application/hart1/u54_1.c ****  {
 1531              		.loc 3 102 2 discriminator 1
 1532 0b20 8327C4EE 		lw	a5,-276(s0)
 1533 0b24 1B870700 		sext.w	a4,a5
 1534 0b28 B687     		mv	a5,a3
 1535 0b2a E34DF7F6 		blt	a4,a5,.L32
 1536              	.LBE10:
 100:../src/application/hart1/u54_1.c **** {
 1537              		.loc 3 100 18 discriminator 2
 1538 0b2e 832784EE 		lw	a5,-280(s0)
 1539 0b32 8527     		addiw	a5,a5,1
 1540 0b34 2324F4EE 		sw	a5,-280(s0)
 1541              	.L28:
 100:../src/application/hart1/u54_1.c **** {
 1542              		.loc 3 100 14 discriminator 1
 1543 0b38 97070000 		lla	a5,w
 1543      93870700 
 1544 0b40 9443     		lw	a3,0(a5)
 100:../src/application/hart1/u54_1.c **** {
 1545              		.loc 3 100 1 discriminator 1
 1546 0b42 832784EE 		lw	a5,-280(s0)
 1547 0b46 1B870700 		sext.w	a4,a5
 1548 0b4a B687     		mv	a5,a3
 1549 0b4c E349F7F4 		blt	a4,a5,.L33
 1550              	.LBE9:
 111:../src/application/hart1/u54_1.c ****   }
 112:../src/application/hart1/u54_1.c ****  }
 113:../src/application/hart1/u54_1.c **** }
 114:../src/application/hart1/u54_1.c **** 
 115:../src/application/hart1/u54_1.c **** /*
 116:../src/application/hart1/u54_1.c **** ofstream myfile_t("threshold.txt");
 117:../src/application/hart1/u54_1.c **** for(int i=0;i<w;i++){
 118:../src/application/hart1/u54_1.c ****         for(int j=0;j<h;j++){
 119:../src/application/hart1/u54_1.c ****             myfile_t<<out_thre[i][j]<<" ";
 120:../src/application/hart1/u54_1.c ****         }
 121:../src/application/hart1/u54_1.c ****        myfile_t<<endl;
 122:../src/application/hart1/u54_1.c **** }
 123:../src/application/hart1/u54_1.c **** */
 124:../src/application/hart1/u54_1.c **** 
 125:../src/application/hart1/u54_1.c **** uint32_t m[5]={0};/*
 1551              		.loc 3 125 10
 1552 0b50 233C04D0 		sd	zero,-744(s0)
 1553 0b54 233004D2 		sd	zero,-736(s0)
 1554 0b58 232404D2 		sw	zero,-728(s0)
 1555              	.LBB11:
 126:../src/application/hart1/u54_1.c **** for(int i=0;i<w;i++)
 127:../src/application/hart1/u54_1.c **** {
 128:../src/application/hart1/u54_1.c ****     for(int j=0;j<h;j++)
 129:../src/application/hart1/u54_1.c ****     {
 130:../src/application/hart1/u54_1.c ****         sprintf(d,"The result image is = %d",out_thre[i][j]);
 131:../src/application/hart1/u54_1.c ****     }
 132:../src/application/hart1/u54_1.c **** }
 133:../src/application/hart1/u54_1.c **** */
 134:../src/application/hart1/u54_1.c **** 
 135:../src/application/hart1/u54_1.c **** 
 136:../src/application/hart1/u54_1.c **** 
 137:../src/application/hart1/u54_1.c **** //padding
 138:../src/application/hart1/u54_1.c **** 
 139:../src/application/hart1/u54_1.c **** /*zeroFramedAry = new int*[225+(2*2)];
 140:../src/application/hart1/u54_1.c ****         for(int r = 0; r<(225+(2*2)); r++){
 141:../src/application/hart1/u54_1.c ****             zeroFramedAry[r] = new int[225+(2*2)];
 142:../src/application/hart1/u54_1.c ****         }
 143:../src/application/hart1/u54_1.c **** */
 144:../src/application/hart1/u54_1.c **** 
 145:../src/application/hart1/u54_1.c ****         for(int k = 0; k<128+(2*2); k++){
 1556              		.loc 3 145 17
 1557 0b5c 232804EE 		sw	zero,-272(s0)
 1558              		.loc 3 145 9
 1559 0b60 8DA8     		j	.L34
 1560              	.L37:
 1561              	.LBB12:
 146:../src/application/hart1/u54_1.c ****             for(int l =0; l<2; l++){
 1562              		.loc 3 146 21
 1563 0b62 232A04EE 		sw	zero,-268(s0)
 1564              		.loc 3 146 13
 1565 0b66 91A8     		j	.L35
 1566              	.L36:
 147:../src/application/hart1/u54_1.c **** 
 148:../src/application/hart1/u54_1.c ****             zeroFramedAry[k][l]=0;
 1567              		.loc 3 148 29 discriminator 3
 1568 0b68 93562800 		srli	a3,a6,2
 1569              		.loc 3 148 32 discriminator 3
 1570 0b6c 033684EB 		ld	a2,-328(s0)
 1571 0b70 032744EF 		lw	a4,-268(s0)
 1572 0b74 832704EF 		lw	a5,-272(s0)
 1573 0b78 B387D702 		mul	a5,a5,a3
 1574 0b7c BA97     		add	a5,a4,a5
 1575 0b7e 8A07     		slli	a5,a5,2
 1576 0b80 B297     		add	a5,a2,a5
 1577 0b82 23A00700 		sw	zero,0(a5)
 149:../src/application/hart1/u54_1.c ****             zeroFramedAry[k][225+(2*2)-1-l]=0;
 1578              		.loc 3 149 29 discriminator 3
 1579 0b86 13562800 		srli	a2,a6,2
 1580              		.loc 3 149 41 discriminator 3
 1581 0b8a 1307400E 		li	a4,228
 1582 0b8e 832744EF 		lw	a5,-268(s0)
 1583 0b92 BB07F740 		subw	a5,a4,a5
 1584 0b96 1B870700 		sext.w	a4,a5
 1585              		.loc 3 149 44 discriminator 3
 1586 0b9a 833684EB 		ld	a3,-328(s0)
 1587 0b9e 832704EF 		lw	a5,-272(s0)
 1588 0ba2 B387C702 		mul	a5,a5,a2
 1589 0ba6 BA97     		add	a5,a4,a5
 1590 0ba8 8A07     		slli	a5,a5,2
 1591 0baa B697     		add	a5,a3,a5
 1592 0bac 23A00700 		sw	zero,0(a5)
 146:../src/application/hart1/u54_1.c ****             for(int l =0; l<2; l++){
 1593              		.loc 3 146 33 discriminator 3
 1594 0bb0 832744EF 		lw	a5,-268(s0)
 1595 0bb4 8527     		addiw	a5,a5,1
 1596 0bb6 232AF4EE 		sw	a5,-268(s0)
 1597              	.L35:
 146:../src/application/hart1/u54_1.c ****             for(int l =0; l<2; l++){
 1598              		.loc 3 146 13 discriminator 1
 1599 0bba 832744EF 		lw	a5,-268(s0)
 1600 0bbe 1B870700 		sext.w	a4,a5
 1601 0bc2 8547     		li	a5,1
 1602 0bc4 E3D2E7FA 		ble	a4,a5,.L36
 1603              	.LBE12:
 145:../src/application/hart1/u54_1.c ****             for(int l =0; l<2; l++){
 1604              		.loc 3 145 38 discriminator 2
 1605 0bc8 832704EF 		lw	a5,-272(s0)
 1606 0bcc 8527     		addiw	a5,a5,1
 1607 0bce 2328F4EE 		sw	a5,-272(s0)
 1608              	.L34:
 145:../src/application/hart1/u54_1.c ****             for(int l =0; l<2; l++){
 1609              		.loc 3 145 9 discriminator 1
 1610 0bd2 832704EF 		lw	a5,-272(s0)
 1611 0bd6 1B870700 		sext.w	a4,a5
 1612 0bda 93073008 		li	a5,131
 1613 0bde E3D2E7F8 		ble	a4,a5,.L37
 1614              	.LBE11:
 1615              	.LBB13:
 150:../src/application/hart1/u54_1.c ****             }
 151:../src/application/hart1/u54_1.c ****       }
 152:../src/application/hart1/u54_1.c **** 
 153:../src/application/hart1/u54_1.c **** 
 154:../src/application/hart1/u54_1.c **** 
 155:../src/application/hart1/u54_1.c ****       for(int j = 0; j<=128+(2*2); j++){
 1616              		.loc 3 155 15
 1617 0be2 232C04EE 		sw	zero,-264(s0)
 1618              		.loc 3 155 7
 1619 0be6 85A8     		j	.L38
 1620              	.L41:
 1621              	.LBB14:
 156:../src/application/hart1/u54_1.c ****           for(int m = 0; m<2; m++){
 1622              		.loc 3 156 19
 1623 0be8 232E04EE 		sw	zero,-260(s0)
 1624              		.loc 3 156 11
 1625 0bec 89A8     		j	.L39
 1626              	.L40:
 157:../src/application/hart1/u54_1.c ****             zeroFramedAry[m][j]=0;
 1627              		.loc 3 157 29 discriminator 3
 1628 0bee 93562800 		srli	a3,a6,2
 1629              		.loc 3 157 32 discriminator 3
 1630 0bf2 033684EB 		ld	a2,-328(s0)
 1631 0bf6 032784EF 		lw	a4,-264(s0)
 1632 0bfa 8327C4EF 		lw	a5,-260(s0)
 1633 0bfe B387D702 		mul	a5,a5,a3
 1634 0c02 BA97     		add	a5,a4,a5
 1635 0c04 8A07     		slli	a5,a5,2
 1636 0c06 B297     		add	a5,a2,a5
 1637 0c08 23A00700 		sw	zero,0(a5)
 158:../src/application/hart1/u54_1.c ****             zeroFramedAry[225+(2*2)-1-m][j]= 0;
 1638              		.loc 3 158 41 discriminator 3
 1639 0c0c 13562800 		srli	a2,a6,2
 1640              		.loc 3 158 38 discriminator 3
 1641 0c10 1307400E 		li	a4,228
 1642 0c14 8327C4EF 		lw	a5,-260(s0)
 1643 0c18 BB07F740 		subw	a5,a4,a5
 1644 0c1c 8127     		sext.w	a5,a5
 1645              		.loc 3 158 44 discriminator 3
 1646 0c1e 833684EB 		ld	a3,-328(s0)
 1647 0c22 032784EF 		lw	a4,-264(s0)
 1648 0c26 B387C702 		mul	a5,a5,a2
 1649 0c2a BA97     		add	a5,a4,a5
 1650 0c2c 8A07     		slli	a5,a5,2
 1651 0c2e B697     		add	a5,a3,a5
 1652 0c30 23A00700 		sw	zero,0(a5)
 156:../src/application/hart1/u54_1.c ****           for(int m = 0; m<2; m++){
 1653              		.loc 3 156 32 discriminator 3
 1654 0c34 8327C4EF 		lw	a5,-260(s0)
 1655 0c38 8527     		addiw	a5,a5,1
 1656 0c3a 232EF4EE 		sw	a5,-260(s0)
 1657              	.L39:
 156:../src/application/hart1/u54_1.c ****           for(int m = 0; m<2; m++){
 1658              		.loc 3 156 11 discriminator 1
 1659 0c3e 8327C4EF 		lw	a5,-260(s0)
 1660 0c42 1B870700 		sext.w	a4,a5
 1661 0c46 8547     		li	a5,1
 1662 0c48 E3D3E7FA 		ble	a4,a5,.L40
 1663              	.LBE14:
 155:../src/application/hart1/u54_1.c ****           for(int m = 0; m<2; m++){
 1664              		.loc 3 155 37 discriminator 2
 1665 0c4c 832784EF 		lw	a5,-264(s0)
 1666 0c50 8527     		addiw	a5,a5,1
 1667 0c52 232CF4EE 		sw	a5,-264(s0)
 1668              	.L38:
 155:../src/application/hart1/u54_1.c ****           for(int m = 0; m<2; m++){
 1669              		.loc 3 155 7 discriminator 1
 1670 0c56 832784EF 		lw	a5,-264(s0)
 1671 0c5a 1B870700 		sext.w	a4,a5
 1672 0c5e 93074008 		li	a5,132
 1673 0c62 E3D3E7F8 		ble	a4,a5,.L41
 1674              	.LBE13:
 1675              	.LBB15:
 159:../src/application/hart1/u54_1.c ****           }
 160:../src/application/hart1/u54_1.c ****       }
 161:../src/application/hart1/u54_1.c **** 
 162:../src/application/hart1/u54_1.c ****         //Load image
 163:../src/application/hart1/u54_1.c **** 
 164:../src/application/hart1/u54_1.c ****         for(int r=2; r<128+2; r++){
 1676              		.loc 3 164 17
 1677 0c66 8947     		li	a5,2
 1678 0c68 2320F4F0 		sw	a5,-256(s0)
 1679              		.loc 3 164 9
 1680 0c6c 9DA0     		j	.L42
 1681              	.L45:
 1682              	.LBB16:
 165:../src/application/hart1/u54_1.c ****           for(int c=2; c<225+2; c++){
 1683              		.loc 3 165 19
 1684 0c6e 8947     		li	a5,2
 1685 0c70 2322F4F0 		sw	a5,-252(s0)
 1686              		.loc 3 165 11
 1687 0c74 91A0     		j	.L43
 1688              	.L44:
 166:../src/application/hart1/u54_1.c **** 
 167:../src/application/hart1/u54_1.c ****             zeroFramedAry[r][c]=out_thre[r][c];
 1689              		.loc 3 167 44 discriminator 3
 1690 0c76 93562500 		srli	a3,a0,2
 1691              		.loc 3 167 29 discriminator 3
 1692 0c7a 93552800 		srli	a1,a6,2
 1693              		.loc 3 167 44 discriminator 3
 1694 0c7e 033684E6 		ld	a2,-408(s0)
 1695 0c82 032744F0 		lw	a4,-252(s0)
 1696 0c86 832704F0 		lw	a5,-256(s0)
 1697 0c8a B387D702 		mul	a5,a5,a3
 1698 0c8e BA97     		add	a5,a4,a5
 1699 0c90 8A07     		slli	a5,a5,2
 1700 0c92 B297     		add	a5,a2,a5
 1701 0c94 9043     		lw	a2,0(a5)
 1702              		.loc 3 167 32 discriminator 3
 1703 0c96 833684EB 		ld	a3,-328(s0)
 1704 0c9a 032744F0 		lw	a4,-252(s0)
 1705 0c9e 832704F0 		lw	a5,-256(s0)
 1706 0ca2 B387B702 		mul	a5,a5,a1
 1707 0ca6 BA97     		add	a5,a4,a5
 1708 0ca8 8A07     		slli	a5,a5,2
 1709 0caa B697     		add	a5,a3,a5
 1710 0cac 90C3     		sw	a2,0(a5)
 165:../src/application/hart1/u54_1.c ****           for(int c=2; c<225+2; c++){
 1711              		.loc 3 165 34 discriminator 3
 1712 0cae 832744F0 		lw	a5,-252(s0)
 1713 0cb2 8527     		addiw	a5,a5,1
 1714 0cb4 2322F4F0 		sw	a5,-252(s0)
 1715              	.L43:
 165:../src/application/hart1/u54_1.c ****           for(int c=2; c<225+2; c++){
 1716              		.loc 3 165 11 discriminator 1
 1717 0cb8 832744F0 		lw	a5,-252(s0)
 1718 0cbc 1B870700 		sext.w	a4,a5
 1719 0cc0 9307200E 		li	a5,226
 1720 0cc4 E3D9E7FA 		ble	a4,a5,.L44
 1721              	.LBE16:
 164:../src/application/hart1/u54_1.c ****           for(int c=2; c<225+2; c++){
 1722              		.loc 3 164 32 discriminator 2
 1723 0cc8 832704F0 		lw	a5,-256(s0)
 1724 0ccc 8527     		addiw	a5,a5,1
 1725 0cce 2320F4F0 		sw	a5,-256(s0)
 1726              	.L42:
 164:../src/application/hart1/u54_1.c ****           for(int c=2; c<225+2; c++){
 1727              		.loc 3 164 9 discriminator 1
 1728 0cd2 832704F0 		lw	a5,-256(s0)
 1729 0cd6 1B870700 		sext.w	a4,a5
 1730 0cda 93071008 		li	a5,129
 1731 0cde E3D8E7F8 		ble	a4,a5,.L45
 1732              	.LBE15:
 1733              	.LBB17:
 168:../src/application/hart1/u54_1.c ****           }
 169:../src/application/hart1/u54_1.c ****         }
 170:../src/application/hart1/u54_1.c **** 
 171:../src/application/hart1/u54_1.c **** /*
 172:../src/application/hart1/u54_1.c ****         ofstream myfile_I("image.txt");
 173:../src/application/hart1/u54_1.c **** for(int i=0;i<(w+4);i++){
 174:../src/application/hart1/u54_1.c ****         for(int j=0;j<(h+4);j++){
 175:../src/application/hart1/u54_1.c ****             myfile_I<<zeroFramedAry[i][j]<<" ";
 176:../src/application/hart1/u54_1.c ****         }
 177:../src/application/hart1/u54_1.c ****        myfile_I<<endl;
 178:../src/application/hart1/u54_1.c **** }
 179:../src/application/hart1/u54_1.c **** */
 180:../src/application/hart1/u54_1.c **** 
 181:../src/application/hart1/u54_1.c **** 
 182:../src/application/hart1/u54_1.c **** 
 183:../src/application/hart1/u54_1.c **** 
 184:../src/application/hart1/u54_1.c ****  /*       morphFramedAry = new int*[225+(2*2)];
 185:../src/application/hart1/u54_1.c ****         for(int r = 0; r<(225+(2*2)); r++){
 186:../src/application/hart1/u54_1.c ****             morphFramedAry[r] = new int[225+(2*2)];
 187:../src/application/hart1/u54_1.c ****         }*/
 188:../src/application/hart1/u54_1.c **** 
 189:../src/application/hart1/u54_1.c ****         for(int i=0; i<(128+ (2*2)); i++){
 1734              		.loc 3 189 17
 1735 0ce2 232404F0 		sw	zero,-248(s0)
 1736              		.loc 3 189 9
 1737 0ce6 A9A0     		j	.L46
 1738              	.L49:
 1739              	.LBB18:
 190:../src/application/hart1/u54_1.c ****           for(int j=0; j<(128+(2*2)); j++){
 1740              		.loc 3 190 19
 1741 0ce8 232604F0 		sw	zero,-244(s0)
 1742              		.loc 3 190 11
 1743 0cec 2DA0     		j	.L47
 1744              	.L48:
 191:../src/application/hart1/u54_1.c ****             morphFramedAry[i][j]=0;
 1745              		.loc 3 191 30 discriminator 3
 1746 0cee 93D62A00 		srli	a3,s5,2
 1747              		.loc 3 191 33 discriminator 3
 1748 0cf2 033604EA 		ld	a2,-352(s0)
 1749 0cf6 0327C4F0 		lw	a4,-244(s0)
 1750 0cfa 832784F0 		lw	a5,-248(s0)
 1751 0cfe B387D702 		mul	a5,a5,a3
 1752 0d02 BA97     		add	a5,a4,a5
 1753 0d04 8A07     		slli	a5,a5,2
 1754 0d06 B297     		add	a5,a2,a5
 1755 0d08 23A00700 		sw	zero,0(a5)
 190:../src/application/hart1/u54_1.c ****           for(int j=0; j<(128+(2*2)); j++){
 1756              		.loc 3 190 40 discriminator 3
 1757 0d0c 8327C4F0 		lw	a5,-244(s0)
 1758 0d10 8527     		addiw	a5,a5,1
 1759 0d12 2326F4F0 		sw	a5,-244(s0)
 1760              	.L47:
 190:../src/application/hart1/u54_1.c ****           for(int j=0; j<(128+(2*2)); j++){
 1761              		.loc 3 190 11 discriminator 1
 1762 0d16 8327C4F0 		lw	a5,-244(s0)
 1763 0d1a 1B870700 		sext.w	a4,a5
 1764 0d1e 93073008 		li	a5,131
 1765 0d22 E3D6E7FC 		ble	a4,a5,.L48
 1766              	.LBE18:
 189:../src/application/hart1/u54_1.c ****           for(int j=0; j<(128+(2*2)); j++){
 1767              		.loc 3 189 39 discriminator 2
 1768 0d26 832784F0 		lw	a5,-248(s0)
 1769 0d2a 8527     		addiw	a5,a5,1
 1770 0d2c 2324F4F0 		sw	a5,-248(s0)
 1771              	.L46:
 189:../src/application/hart1/u54_1.c ****           for(int j=0; j<(128+(2*2)); j++){
 1772              		.loc 3 189 9 discriminator 1
 1773 0d30 832784F0 		lw	a5,-248(s0)
 1774 0d34 1B870700 		sext.w	a4,a5
 1775 0d38 93073008 		li	a5,131
 1776 0d3c E3D6E7FA 		ble	a4,a5,.L49
 1777              	.LBE17:
 1778              	.LBB19:
 192:../src/application/hart1/u54_1.c ****           }
 193:../src/application/hart1/u54_1.c ****         }
 194:../src/application/hart1/u54_1.c **** 
 195:../src/application/hart1/u54_1.c **** /*
 196:../src/application/hart1/u54_1.c **** tempFramedAry = new int*[225+(2*2)];
 197:../src/application/hart1/u54_1.c ****         for(int r = 0; r<(225+(2*2)); r++){
 198:../src/application/hart1/u54_1.c ****             tempFramedAry[r] = new int[225+(2*2)];
 199:../src/application/hart1/u54_1.c ****         }
 200:../src/application/hart1/u54_1.c **** */
 201:../src/application/hart1/u54_1.c **** 
 202:../src/application/hart1/u54_1.c **** for(int i=0; i<(128+ (2*2)); i++){
 1779              		.loc 3 202 9
 1780 0d40 232804F0 		sw	zero,-240(s0)
 1781              		.loc 3 202 1
 1782 0d44 A9A0     		j	.L50
 1783              	.L53:
 1784              	.LBB20:
 203:../src/application/hart1/u54_1.c ****           for(int j=0; j<(128+(2*2)); j++){
 1785              		.loc 3 203 19
 1786 0d46 232A04F0 		sw	zero,-236(s0)
 1787              		.loc 3 203 11
 1788 0d4a 2DA0     		j	.L51
 1789              	.L52:
 204:../src/application/hart1/u54_1.c ****             tempFramedAry[i][j]=0;
 1790              		.loc 3 204 29 discriminator 3
 1791 0d4c 93D62800 		srli	a3,a7,2
 1792              		.loc 3 204 32 discriminator 3
 1793 0d50 033684E8 		ld	a2,-376(s0)
 1794 0d54 032744F1 		lw	a4,-236(s0)
 1795 0d58 832704F1 		lw	a5,-240(s0)
 1796 0d5c B387D702 		mul	a5,a5,a3
 1797 0d60 BA97     		add	a5,a4,a5
 1798 0d62 8A07     		slli	a5,a5,2
 1799 0d64 B297     		add	a5,a2,a5
 1800 0d66 23A00700 		sw	zero,0(a5)
 203:../src/application/hart1/u54_1.c ****           for(int j=0; j<(128+(2*2)); j++){
 1801              		.loc 3 203 40 discriminator 3
 1802 0d6a 832744F1 		lw	a5,-236(s0)
 1803 0d6e 8527     		addiw	a5,a5,1
 1804 0d70 232AF4F0 		sw	a5,-236(s0)
 1805              	.L51:
 203:../src/application/hart1/u54_1.c ****           for(int j=0; j<(128+(2*2)); j++){
 1806              		.loc 3 203 11 discriminator 1
 1807 0d74 832744F1 		lw	a5,-236(s0)
 1808 0d78 1B870700 		sext.w	a4,a5
 1809 0d7c 93073008 		li	a5,131
 1810 0d80 E3D6E7FC 		ble	a4,a5,.L52
 1811              	.LBE20:
 202:../src/application/hart1/u54_1.c ****           for(int j=0; j<(128+(2*2)); j++){
 1812              		.loc 3 202 31 discriminator 2
 1813 0d84 832704F1 		lw	a5,-240(s0)
 1814 0d88 8527     		addiw	a5,a5,1
 1815 0d8a 2328F4F0 		sw	a5,-240(s0)
 1816              	.L50:
 202:../src/application/hart1/u54_1.c ****           for(int j=0; j<(128+(2*2)); j++){
 1817              		.loc 3 202 1 discriminator 1
 1818 0d8e 832704F1 		lw	a5,-240(s0)
 1819 0d92 1B870700 		sext.w	a4,a5
 1820 0d96 93073008 		li	a5,131
 1821 0d9a E3D6E7FA 		ble	a4,a5,.L53
 1822              	.LBE19:
 205:../src/application/hart1/u54_1.c ****           }
 206:../src/application/hart1/u54_1.c ****         }
 207:../src/application/hart1/u54_1.c **** 
 208:../src/application/hart1/u54_1.c **** 
 209:../src/application/hart1/u54_1.c **** 
 210:../src/application/hart1/u54_1.c **** 
 211:../src/application/hart1/u54_1.c **** 
 212:../src/application/hart1/u54_1.c **** int kernel[3][3]={0, 1, 0, 1, 1, 1, 0, 1, 0};
 1823              		.loc 3 212 5
 1824 0d9e 97070000 		lla	a5,.LC0
 1824      93870700 
 1825 0da6 8C63     		ld	a1,0(a5)
 1826 0da8 9067     		ld	a2,8(a5)
 1827 0daa 946B     		ld	a3,16(a5)
 1828 0dac 986F     		ld	a4,24(a5)
 1829 0dae 2338B4CE 		sd	a1,-784(s0)
 1830 0db2 233CC4CE 		sd	a2,-776(s0)
 1831 0db6 2330D4D0 		sd	a3,-768(s0)
 1832 0dba 2334E4D0 		sd	a4,-760(s0)
 1833 0dbe 9C53     		lw	a5,32(a5)
 1834 0dc0 2328F4D0 		sw	a5,-752(s0)
 1835              	.LBB21:
 213:../src/application/hart1/u54_1.c **** 
 214:../src/application/hart1/u54_1.c **** 
 215:../src/application/hart1/u54_1.c **** for(int i = 2; i<(130); i++){
 1836              		.loc 3 215 9
 1837 0dc4 8947     		li	a5,2
 1838 0dc6 232CF4F0 		sw	a5,-232(s0)
 1839              		.loc 3 215 1
 1840 0dca 41A2     		j	.L54
 1841              	.L63:
 1842              	.LBB22:
 216:../src/application/hart1/u54_1.c ****           for(int j =2; j<(130); j++){
 1843              		.loc 3 216 19
 1844 0dcc 8947     		li	a5,2
 1845 0dce 232EF4F0 		sw	a5,-228(s0)
 1846              		.loc 3 216 11
 1847 0dd2 B9AA     		j	.L55
 1848              	.L62:
 217:../src/application/hart1/u54_1.c **** 
 218:../src/application/hart1/u54_1.c ****             if(zeroFramedAry[i][j]==kernel[1][1]){
 1849              		.loc 3 218 32
 1850 0dd4 93562800 		srli	a3,a6,2
 1851 0dd8 033684EB 		ld	a2,-328(s0)
 1852 0ddc 0327C4F1 		lw	a4,-228(s0)
 1853 0de0 832784F1 		lw	a5,-232(s0)
 1854 0de4 B387D702 		mul	a5,a5,a3
 1855 0de8 BA97     		add	a5,a4,a5
 1856 0dea 8A07     		slli	a5,a5,2
 1857 0dec B297     		add	a5,a2,a5
 1858 0dee 9843     		lw	a4,0(a5)
 1859              		.loc 3 218 46
 1860 0df0 832704D0 		lw	a5,-768(s0)
 1861              		.loc 3 218 15
 1862 0df4 6319F712 		bne	a4,a5,.L56
 1863              	.LBB23:
 219:../src/application/hart1/u54_1.c **** 
 220:../src/application/hart1/u54_1.c **** 
 221:../src/application/hart1/u54_1.c **** 
 222:../src/application/hart1/u54_1.c ****                int flag = 1; // Will use this as a boolean flag for whether it passes or not
 1864              		.loc 3 222 20
 1865 0df8 8547     		li	a5,1
 1866 0dfa 2320F4F2 		sw	a5,-224(s0)
 223:../src/application/hart1/u54_1.c **** 
 224:../src/application/hart1/u54_1.c ****                int rowStart = (i-1);
 1867              		.loc 3 224 20
 1868 0dfe 832784F1 		lw	a5,-232(s0)
 1869 0e02 FD37     		addiw	a5,a5,-1
 1870 0e04 2322F4E6 		sw	a5,-412(s0)
 225:../src/application/hart1/u54_1.c ****                int rowEnd = (rowStart+3);
 1871              		.loc 3 225 20
 1872 0e08 832744E6 		lw	a5,-412(s0)
 1873 0e0c 8D27     		addiw	a5,a5,3
 1874 0e0e 2320F4E6 		sw	a5,-416(s0)
 226:../src/application/hart1/u54_1.c ****                int colStart = (j-1);
 1875              		.loc 3 226 20
 1876 0e12 8327C4F1 		lw	a5,-228(s0)
 1877 0e16 FD37     		addiw	a5,a5,-1
 1878 0e18 232EF4E4 		sw	a5,-420(s0)
 227:../src/application/hart1/u54_1.c ****                int colEnd = (colStart + 3);
 1879              		.loc 3 227 20
 1880 0e1c 8327C4E5 		lw	a5,-420(s0)
 1881 0e20 8D27     		addiw	a5,a5,3
 1882 0e22 232CF4E4 		sw	a5,-424(s0)
 1883              	.LBB24:
 228:../src/application/hart1/u54_1.c **** 
 229:../src/application/hart1/u54_1.c ****                int seRow;
 230:../src/application/hart1/u54_1.c ****                int seCol;
 231:../src/application/hart1/u54_1.c **** 
 232:../src/application/hart1/u54_1.c ****                for(int i = rowStart; i< rowEnd; i++){
 1884              		.loc 3 232 24
 1885 0e26 832744E6 		lw	a5,-412(s0)
 1886 0e2a 2322F4F2 		sw	a5,-220(s0)
 1887              		.loc 3 232 16
 1888 0e2e D9A0     		j	.L57
 1889              	.L61:
 1890              	.LBB25:
 233:../src/application/hart1/u54_1.c ****                   for(int j = colStart; j< colEnd; j++){
 1891              		.loc 3 233 27
 1892 0e30 8327C4E5 		lw	a5,-420(s0)
 1893 0e34 2324F4F2 		sw	a5,-216(s0)
 1894              		.loc 3 233 19
 1895 0e38 4DA0     		j	.L58
 1896              	.L60:
 234:../src/application/hart1/u54_1.c **** 
 235:../src/application/hart1/u54_1.c ****                     seRow =  (3-(rowEnd-i));
 1897              		.loc 3 235 40
 1898 0e3a 032704E6 		lw	a4,-416(s0)
 1899 0e3e 832744F2 		lw	a5,-220(s0)
 1900 0e42 BB07F740 		subw	a5,a4,a5
 1901 0e46 1B870700 		sext.w	a4,a5
 1902              		.loc 3 235 27
 1903 0e4a 8D47     		li	a5,3
 1904 0e4c 999F     		subw	a5,a5,a4
 1905 0e4e 232AF4E4 		sw	a5,-428(s0)
 236:../src/application/hart1/u54_1.c ****                     seCol =  (3-(colEnd-j));
 1906              		.loc 3 236 40
 1907 0e52 032784E5 		lw	a4,-424(s0)
 1908 0e56 832784F2 		lw	a5,-216(s0)
 1909 0e5a BB07F740 		subw	a5,a4,a5
 1910 0e5e 1B870700 		sext.w	a4,a5
 1911              		.loc 3 236 27
 1912 0e62 8D47     		li	a5,3
 1913 0e64 999F     		subw	a5,a5,a4
 1914 0e66 2328F4E4 		sw	a5,-432(s0)
 237:../src/application/hart1/u54_1.c **** 
 238:../src/application/hart1/u54_1.c **** 
 239:../src/application/hart1/u54_1.c ****                     if(kernel[seRow][seCol]==1){
 1915              		.loc 3 239 37
 1916 0e6a 832604E5 		lw	a3,-432(s0)
 1917 0e6e 032744E5 		lw	a4,-428(s0)
 1918 0e72 BA87     		mv	a5,a4
 1919 0e74 8607     		slli	a5,a5,1
 1920 0e76 BA97     		add	a5,a5,a4
 1921 0e78 B697     		add	a5,a5,a3
 1922 0e7a 8A07     		slli	a5,a5,2
 1923 0e7c 130704F9 		addi	a4,s0,-112
 1924 0e80 BA97     		add	a5,a4,a5
 1925 0e82 83A707D6 		lw	a5,-672(a5)
 1926              		.loc 3 239 23
 1927 0e86 3E87     		mv	a4,a5
 1928 0e88 8547     		li	a5,1
 1929 0e8a 6313F704 		bne	a4,a5,.L59
 240:../src/application/hart1/u54_1.c **** 
 241:../src/application/hart1/u54_1.c ****                         if(zeroFramedAry[i][j] != kernel[seRow][seCol]){
 1930              		.loc 3 241 44
 1931 0e8e 93562800 		srli	a3,a6,2
 1932 0e92 033684EB 		ld	a2,-328(s0)
 1933 0e96 032784F2 		lw	a4,-216(s0)
 1934 0e9a 832744F2 		lw	a5,-220(s0)
 1935 0e9e B387D702 		mul	a5,a5,a3
 1936 0ea2 BA97     		add	a5,a4,a5
 1937 0ea4 8A07     		slli	a5,a5,2
 1938 0ea6 B297     		add	a5,a2,a5
 1939 0ea8 9043     		lw	a2,0(a5)
 1940              		.loc 3 241 64
 1941 0eaa 832604E5 		lw	a3,-432(s0)
 1942 0eae 032744E5 		lw	a4,-428(s0)
 1943 0eb2 BA87     		mv	a5,a4
 1944 0eb4 8607     		slli	a5,a5,1
 1945 0eb6 BA97     		add	a5,a5,a4
 1946 0eb8 B697     		add	a5,a5,a3
 1947 0eba 8A07     		slli	a5,a5,2
 1948 0ebc 130704F9 		addi	a4,s0,-112
 1949 0ec0 BA97     		add	a5,a4,a5
 1950 0ec2 83A707D6 		lw	a5,-672(a5)
 1951              		.loc 3 241 27
 1952 0ec6 3287     		mv	a4,a2
 1953 0ec8 6304F700 		beq	a4,a5,.L59
 242:../src/application/hart1/u54_1.c ****                             flag=0;
 1954              		.loc 3 242 33
 1955 0ecc 232004F2 		sw	zero,-224(s0)
 1956              	.L59:
 233:../src/application/hart1/u54_1.c **** 
 1957              		.loc 3 233 53 discriminator 2
 1958 0ed0 832784F2 		lw	a5,-216(s0)
 1959 0ed4 8527     		addiw	a5,a5,1
 1960 0ed6 2324F4F2 		sw	a5,-216(s0)
 1961              	.L58:
 233:../src/application/hart1/u54_1.c **** 
 1962              		.loc 3 233 19 discriminator 1
 1963 0eda 032784F2 		lw	a4,-216(s0)
 1964 0ede 832784E5 		lw	a5,-424(s0)
 1965 0ee2 0127     		sext.w	a4,a4
 1966 0ee4 8127     		sext.w	a5,a5
 1967 0ee6 E34AF7F4 		blt	a4,a5,.L60
 1968              	.LBE25:
 232:../src/application/hart1/u54_1.c ****                   for(int j = colStart; j< colEnd; j++){
 1969              		.loc 3 232 50 discriminator 2
 1970 0eea 832744F2 		lw	a5,-220(s0)
 1971 0eee 8527     		addiw	a5,a5,1
 1972 0ef0 2322F4F2 		sw	a5,-220(s0)
 1973              	.L57:
 232:../src/application/hart1/u54_1.c ****                   for(int j = colStart; j< colEnd; j++){
 1974              		.loc 3 232 16 discriminator 1
 1975 0ef4 032744F2 		lw	a4,-220(s0)
 1976 0ef8 832704E6 		lw	a5,-416(s0)
 1977 0efc 0127     		sext.w	a4,a4
 1978 0efe 8127     		sext.w	a5,a5
 1979 0f00 E348F7F2 		blt	a4,a5,.L61
 1980              	.LBE24:
 243:../src/application/hart1/u54_1.c ****                         }
 244:../src/application/hart1/u54_1.c ****                     }
 245:../src/application/hart1/u54_1.c ****                   }
 246:../src/application/hart1/u54_1.c ****                }
 247:../src/application/hart1/u54_1.c **** 
 248:../src/application/hart1/u54_1.c ****                tempFramedAry[i][j] = flag;
 1981              		.loc 3 248 32
 1982 0f04 93D62800 		srli	a3,a7,2
 1983              		.loc 3 248 36
 1984 0f08 033684E8 		ld	a2,-376(s0)
 1985 0f0c 0327C4F1 		lw	a4,-228(s0)
 1986 0f10 832784F1 		lw	a5,-232(s0)
 1987 0f14 B387D702 		mul	a5,a5,a3
 1988 0f18 BA97     		add	a5,a4,a5
 1989 0f1a 8A07     		slli	a5,a5,2
 1990 0f1c 3307F600 		add	a4,a2,a5
 1991 0f20 832704F2 		lw	a5,-224(s0)
 1992 0f24 1CC3     		sw	a5,0(a4)
 1993              	.L56:
 1994              	.LBE23:
 216:../src/application/hart1/u54_1.c **** 
 1995              		.loc 3 216 35 discriminator 2
 1996 0f26 8327C4F1 		lw	a5,-228(s0)
 1997 0f2a 8527     		addiw	a5,a5,1
 1998 0f2c 232EF4F0 		sw	a5,-228(s0)
 1999              	.L55:
 216:../src/application/hart1/u54_1.c **** 
 2000              		.loc 3 216 11 discriminator 1
 2001 0f30 8327C4F1 		lw	a5,-228(s0)
 2002 0f34 1B870700 		sext.w	a4,a5
 2003 0f38 93071008 		li	a5,129
 2004 0f3c E3DCE7E8 		ble	a4,a5,.L62
 2005              	.LBE22:
 215:../src/application/hart1/u54_1.c ****           for(int j =2; j<(130); j++){
 2006              		.loc 3 215 26 discriminator 2
 2007 0f40 832784F1 		lw	a5,-232(s0)
 2008 0f44 8527     		addiw	a5,a5,1
 2009 0f46 232CF4F0 		sw	a5,-232(s0)
 2010              	.L54:
 215:../src/application/hart1/u54_1.c ****           for(int j =2; j<(130); j++){
 2011              		.loc 3 215 1 discriminator 1
 2012 0f4a 832784F1 		lw	a5,-232(s0)
 2013 0f4e 1B870700 		sext.w	a4,a5
 2014 0f52 93071008 		li	a5,129
 2015 0f56 E3DBE7E6 		ble	a4,a5,.L63
 2016              	.LBE21:
 2017              	.LBB26:
 249:../src/application/hart1/u54_1.c **** 
 250:../src/application/hart1/u54_1.c ****             }
 251:../src/application/hart1/u54_1.c **** 
 252:../src/application/hart1/u54_1.c ****           }
 253:../src/application/hart1/u54_1.c **** 
 254:../src/application/hart1/u54_1.c **** }
 255:../src/application/hart1/u54_1.c **** 
 256:../src/application/hart1/u54_1.c **** 
 257:../src/application/hart1/u54_1.c **** // ofstream myfile_temp("temp.txt");
 258:../src/application/hart1/u54_1.c **** // for(int i=0;i<(w+4);i++){
 259:../src/application/hart1/u54_1.c **** //      for(int j=0;j<(h+4);j++){
 260:../src/application/hart1/u54_1.c **** //             myfile_temp<<tempFramedAry[i][j]<<" ";
 261:../src/application/hart1/u54_1.c **** //         }
 262:../src/application/hart1/u54_1.c **** //        myfile_temp<<endl;
 263:../src/application/hart1/u54_1.c **** // }
 264:../src/application/hart1/u54_1.c **** 
 265:../src/application/hart1/u54_1.c **** 
 266:../src/application/hart1/u54_1.c **** 
 267:../src/application/hart1/u54_1.c **** for(int i = 2; i<(130); i++){
 2018              		.loc 3 267 9
 2019 0f5a 8947     		li	a5,2
 2020 0f5c 2326F4F2 		sw	a5,-212(s0)
 2021              		.loc 3 267 1
 2022 0f60 B9A2     		j	.L64
 2023              	.L73:
 2024              	.LBB27:
 268:../src/application/hart1/u54_1.c ****           for(int j =2; j<(130); j++){
 2025              		.loc 3 268 19
 2026 0f62 8947     		li	a5,2
 2027 0f64 2328F4F2 		sw	a5,-208(s0)
 2028              		.loc 3 268 11
 2029 0f68 35A2     		j	.L65
 2030              	.L72:
 269:../src/application/hart1/u54_1.c **** 
 270:../src/application/hart1/u54_1.c ****             if(tempFramedAry[i][j]==kernel[1][1]){
 2031              		.loc 3 270 32
 2032 0f6a 93D62800 		srli	a3,a7,2
 2033 0f6e 033684E8 		ld	a2,-376(s0)
 2034 0f72 032704F3 		lw	a4,-208(s0)
 2035 0f76 8327C4F2 		lw	a5,-212(s0)
 2036 0f7a B387D702 		mul	a5,a5,a3
 2037 0f7e BA97     		add	a5,a4,a5
 2038 0f80 8A07     		slli	a5,a5,2
 2039 0f82 B297     		add	a5,a2,a5
 2040 0f84 9843     		lw	a4,0(a5)
 2041              		.loc 3 270 46
 2042 0f86 832704D0 		lw	a5,-768(s0)
 2043              		.loc 3 270 15
 2044 0f8a 6310F710 		bne	a4,a5,.L66
 2045              	.LBB28:
 271:../src/application/hart1/u54_1.c **** 
 272:../src/application/hart1/u54_1.c ****                int rowStart = (i-1);
 2046              		.loc 3 272 20
 2047 0f8e 8327C4F2 		lw	a5,-212(s0)
 2048 0f92 FD37     		addiw	a5,a5,-1
 2049 0f94 2326F4E4 		sw	a5,-436(s0)
 273:../src/application/hart1/u54_1.c ****                int rowEnd = (rowStart+3);
 2050              		.loc 3 273 20
 2051 0f98 8327C4E4 		lw	a5,-436(s0)
 2052 0f9c 8D27     		addiw	a5,a5,3
 2053 0f9e 2324F4E4 		sw	a5,-440(s0)
 274:../src/application/hart1/u54_1.c ****                int colStart = (j-1);
 2054              		.loc 3 274 20
 2055 0fa2 832704F3 		lw	a5,-208(s0)
 2056 0fa6 FD37     		addiw	a5,a5,-1
 2057 0fa8 2322F4E4 		sw	a5,-444(s0)
 275:../src/application/hart1/u54_1.c ****                int colEnd = (colStart + 3);
 2058              		.loc 3 275 20
 2059 0fac 832744E4 		lw	a5,-444(s0)
 2060 0fb0 8D27     		addiw	a5,a5,3
 2061 0fb2 2320F4E4 		sw	a5,-448(s0)
 2062              	.LBB29:
 276:../src/application/hart1/u54_1.c **** 
 277:../src/application/hart1/u54_1.c ****                int seRow;
 278:../src/application/hart1/u54_1.c ****                int seCol;
 279:../src/application/hart1/u54_1.c **** 
 280:../src/application/hart1/u54_1.c ****                for(int i = rowStart; i< rowEnd; i++){
 2063              		.loc 3 280 24
 2064 0fb6 8327C4E4 		lw	a5,-436(s0)
 2065 0fba 232AF4F2 		sw	a5,-204(s0)
 2066              		.loc 3 280 16
 2067 0fbe 75A8     		j	.L67
 2068              	.L71:
 2069              	.LBB30:
 281:../src/application/hart1/u54_1.c ****                   for(int j = colStart; j< colEnd; j++){
 2070              		.loc 3 281 27
 2071 0fc0 832744E4 		lw	a5,-444(s0)
 2072 0fc4 232CF4F2 		sw	a5,-200(s0)
 2073              		.loc 3 281 19
 2074 0fc8 61A8     		j	.L68
 2075              	.L70:
 282:../src/application/hart1/u54_1.c **** 
 283:../src/application/hart1/u54_1.c ****                     seRow =  (3-(rowEnd-i));
 2076              		.loc 3 283 40
 2077 0fca 032784E4 		lw	a4,-440(s0)
 2078 0fce 832744F3 		lw	a5,-204(s0)
 2079 0fd2 BB07F740 		subw	a5,a4,a5
 2080 0fd6 1B870700 		sext.w	a4,a5
 2081              		.loc 3 283 27
 2082 0fda 8D47     		li	a5,3
 2083 0fdc 999F     		subw	a5,a5,a4
 2084 0fde 232EF4E2 		sw	a5,-452(s0)
 284:../src/application/hart1/u54_1.c ****                     seCol =  (3-(colEnd-j));
 2085              		.loc 3 284 40
 2086 0fe2 032704E4 		lw	a4,-448(s0)
 2087 0fe6 832784F3 		lw	a5,-200(s0)
 2088 0fea BB07F740 		subw	a5,a4,a5
 2089 0fee 1B870700 		sext.w	a4,a5
 2090              		.loc 3 284 27
 2091 0ff2 8D47     		li	a5,3
 2092 0ff4 999F     		subw	a5,a5,a4
 2093 0ff6 232CF4E2 		sw	a5,-456(s0)
 285:../src/application/hart1/u54_1.c **** 
 286:../src/application/hart1/u54_1.c ****                     if(kernel[seRow][seCol]==1){
 2094              		.loc 3 286 37
 2095 0ffa 832684E3 		lw	a3,-456(s0)
 2096 0ffe 0327C4E3 		lw	a4,-452(s0)
 2097 1002 BA87     		mv	a5,a4
 2098 1004 8607     		slli	a5,a5,1
 2099 1006 BA97     		add	a5,a5,a4
 2100 1008 B697     		add	a5,a5,a3
 2101 100a 8A07     		slli	a5,a5,2
 2102 100c 130704F9 		addi	a4,s0,-112
 2103 1010 BA97     		add	a5,a4,a5
 2104 1012 83A707D6 		lw	a5,-672(a5)
 2105              		.loc 3 286 23
 2106 1016 3E87     		mv	a4,a5
 2107 1018 8547     		li	a5,1
 2108 101a 631EF702 		bne	a4,a5,.L69
 287:../src/application/hart1/u54_1.c ****                         morphFramedAry[i][j] = kernel[seRow][seCol];
 2109              		.loc 3 287 42
 2110 101e 93D52A00 		srli	a1,s5,2
 2111              		.loc 3 287 61
 2112 1022 832684E3 		lw	a3,-456(s0)
 2113 1026 0327C4E3 		lw	a4,-452(s0)
 2114 102a BA87     		mv	a5,a4
 2115 102c 8607     		slli	a5,a5,1
 2116 102e BA97     		add	a5,a5,a4
 2117 1030 B697     		add	a5,a5,a3
 2118 1032 8A07     		slli	a5,a5,2
 2119 1034 130704F9 		addi	a4,s0,-112
 2120 1038 BA97     		add	a5,a4,a5
 2121 103a 03A607D6 		lw	a2,-672(a5)
 2122              		.loc 3 287 46
 2123 103e 833604EA 		ld	a3,-352(s0)
 2124 1042 032784F3 		lw	a4,-200(s0)
 2125 1046 832744F3 		lw	a5,-204(s0)
 2126 104a B387B702 		mul	a5,a5,a1
 2127 104e BA97     		add	a5,a4,a5
 2128 1050 8A07     		slli	a5,a5,2
 2129 1052 B697     		add	a5,a3,a5
 2130 1054 90C3     		sw	a2,0(a5)
 2131              	.L69:
 281:../src/application/hart1/u54_1.c **** 
 2132              		.loc 3 281 53 discriminator 2
 2133 1056 832784F3 		lw	a5,-200(s0)
 2134 105a 8527     		addiw	a5,a5,1
 2135 105c 232CF4F2 		sw	a5,-200(s0)
 2136              	.L68:
 281:../src/application/hart1/u54_1.c **** 
 2137              		.loc 3 281 19 discriminator 1
 2138 1060 032784F3 		lw	a4,-200(s0)
 2139 1064 832704E4 		lw	a5,-448(s0)
 2140 1068 0127     		sext.w	a4,a4
 2141 106a 8127     		sext.w	a5,a5
 2142 106c E34FF7F4 		blt	a4,a5,.L70
 2143              	.LBE30:
 280:../src/application/hart1/u54_1.c ****                   for(int j = colStart; j< colEnd; j++){
 2144              		.loc 3 280 50 discriminator 2
 2145 1070 832744F3 		lw	a5,-204(s0)
 2146 1074 8527     		addiw	a5,a5,1
 2147 1076 232AF4F2 		sw	a5,-204(s0)
 2148              	.L67:
 280:../src/application/hart1/u54_1.c ****                   for(int j = colStart; j< colEnd; j++){
 2149              		.loc 3 280 16 discriminator 1
 2150 107a 032744F3 		lw	a4,-204(s0)
 2151 107e 832784E4 		lw	a5,-440(s0)
 2152 1082 0127     		sext.w	a4,a4
 2153 1084 8127     		sext.w	a5,a5
 2154 1086 E34DF7F2 		blt	a4,a5,.L71
 2155              	.L66:
 2156              	.LBE29:
 2157              	.LBE28:
 268:../src/application/hart1/u54_1.c **** 
 2158              		.loc 3 268 35 discriminator 2
 2159 108a 832704F3 		lw	a5,-208(s0)
 2160 108e 8527     		addiw	a5,a5,1
 2161 1090 2328F4F2 		sw	a5,-208(s0)
 2162              	.L65:
 268:../src/application/hart1/u54_1.c **** 
 2163              		.loc 3 268 11 discriminator 1
 2164 1094 832704F3 		lw	a5,-208(s0)
 2165 1098 1B870700 		sext.w	a4,a5
 2166 109c 93071008 		li	a5,129
 2167 10a0 E3D5E7EC 		ble	a4,a5,.L72
 2168              	.LBE27:
 267:../src/application/hart1/u54_1.c ****           for(int j =2; j<(130); j++){
 2169              		.loc 3 267 26 discriminator 2
 2170 10a4 8327C4F2 		lw	a5,-212(s0)
 2171 10a8 8527     		addiw	a5,a5,1
 2172 10aa 2326F4F2 		sw	a5,-212(s0)
 2173              	.L64:
 267:../src/application/hart1/u54_1.c ****           for(int j =2; j<(130); j++){
 2174              		.loc 3 267 1 discriminator 1
 2175 10ae 8327C4F2 		lw	a5,-212(s0)
 2176 10b2 1B870700 		sext.w	a4,a5
 2177 10b6 93071008 		li	a5,129
 2178 10ba E3D4E7EA 		ble	a4,a5,.L73
 2179              	.LBE26:
 288:../src/application/hart1/u54_1.c ****                     }
 289:../src/application/hart1/u54_1.c **** 
 290:../src/application/hart1/u54_1.c ****                   }
 291:../src/application/hart1/u54_1.c **** 
 292:../src/application/hart1/u54_1.c ****                }
 293:../src/application/hart1/u54_1.c **** 
 294:../src/application/hart1/u54_1.c ****             }
 295:../src/application/hart1/u54_1.c **** 
 296:../src/application/hart1/u54_1.c ****           }
 297:../src/application/hart1/u54_1.c **** }
 298:../src/application/hart1/u54_1.c **** /*
 299:../src/application/hart1/u54_1.c **** ofstream myfile_morph("morphology.txt");
 300:../src/application/hart1/u54_1.c **** for(int i=0;i<(w+4);i++){
 301:../src/application/hart1/u54_1.c ****         for(int j=0;j<(h+4);j++){
 302:../src/application/hart1/u54_1.c ****             myfile_morph<<morphFramedAry[i][j]<<" ";
 303:../src/application/hart1/u54_1.c ****         }
 304:../src/application/hart1/u54_1.c ****        myfile_morph<<endl;
 305:../src/application/hart1/u54_1.c **** }
 306:../src/application/hart1/u54_1.c **** */
 307:../src/application/hart1/u54_1.c **** 
 308:../src/application/hart1/u54_1.c **** 
 309:../src/application/hart1/u54_1.c **** 
 310:../src/application/hart1/u54_1.c **** int dilation[w+4][h+4];
 2180              		.loc 3 310 20
 2181 10be 97070000 		lla	a5,h
 2181      93870700 
 2182 10c6 9C43     		lw	a5,0(a5)
 2183 10c8 9127     		addiw	a5,a5,4
 2184 10ca 1B860700 		sext.w	a2,a5
 2185              		.loc 3 310 15
 2186 10ce 97070000 		lla	a5,w
 2186      93870700 
 2187 10d6 9C43     		lw	a5,0(a5)
 2188 10d8 9127     		addiw	a5,a5,4
 2189 10da 9B850700 		sext.w	a1,a5
 2190              		.loc 3 310 1
 2191 10de 8A87     		mv	a5,sp
 2192 10e0 BE8B     		mv	s7,a5
 2193              		.loc 3 310 20
 2194 10e2 B287     		mv	a5,a2
 2195              		.loc 3 310 5
 2196 10e4 FD17     		addi	a5,a5,-1
 2197 10e6 2338F4E2 		sd	a5,-464(s0)
 2198 10ea B287     		mv	a5,a2
 2199 10ec B706FDFF 		li	a3,-196608
 2200 10f0 1387068C 		addi	a4,a3,-1856
 2201 10f4 2297     		add	a4,a4,s0
 2202 10f6 1CE3     		sd	a5,0(a4)
 2203 10f8 9387868C 		addi	a5,a3,-1848
 2204 10fc A297     		add	a5,a5,s0
 2205 10fe 23B00700 		sd	zero,0(a5)
 2206 1102 9387068C 		addi	a5,a3,-1856
 2207 1106 A297     		add	a5,a5,s0
 2208 1108 9C63     		ld	a5,0(a5)
 2209 110a ED93     		srli	a5,a5,59
 2210 110c 1387868C 		addi	a4,a3,-1848
 2211 1110 2297     		add	a4,a4,s0
 2212 1112 1863     		ld	a4,0(a4)
 2213 1114 1607     		slli	a4,a4,5
 2214 1116 37F8FCFF 		li	a6,-200704
 2215 111a 1305887A 		addi	a0,a6,1960
 2216 111e 2295     		add	a0,a0,s0
 2217 1120 18E1     		sd	a4,0(a0)
 2218 1122 1307887A 		addi	a4,a6,1960
 2219 1126 2297     		add	a4,a4,s0
 2220 1128 1863     		ld	a4,0(a4)
 2221 112a D98F     		or	a5,a5,a4
 2222 112c 1307887A 		addi	a4,a6,1960
 2223 1130 2297     		add	a4,a4,s0
 2224 1132 1CE3     		sd	a5,0(a4)
 2225 1134 9387068C 		addi	a5,a3,-1856
 2226 1138 A297     		add	a5,a5,s0
 2227 113a 9C63     		ld	a5,0(a5)
 2228 113c 9607     		slli	a5,a5,5
 2229 113e 1307087A 		addi	a4,a6,1952
 2230 1142 2297     		add	a4,a4,s0
 2231 1144 1CE3     		sd	a5,0(a4)
 2232 1146 B287     		mv	a5,a2
 2233 1148 139A2700 		slli	s4,a5,2
 2234              		.loc 3 310 15
 2235 114c AE87     		mv	a5,a1
 2236              		.loc 3 310 5
 2237 114e FD17     		addi	a5,a5,-1
 2238 1150 2334F4E2 		sd	a5,-472(s0)
 2239 1154 B287     		mv	a5,a2
 2240 1156 138706AB 		addi	a4,a3,-1360
 2241 115a 2297     		add	a4,a4,s0
 2242 115c 1CE3     		sd	a5,0(a4)
 2243 115e 938786AB 		addi	a5,a3,-1352
 2244 1162 A297     		add	a5,a5,s0
 2245 1164 23B00700 		sd	zero,0(a5)
 2246 1168 AE87     		mv	a5,a1
 2247 116a 3685     		mv	a0,a3
 2248 116c 130705AA 		addi	a4,a0,-1376
 2249 1170 2297     		add	a4,a4,s0
 2250 1172 1CE3     		sd	a5,0(a4)
 2251 1174 930785AA 		addi	a5,a0,-1368
 2252 1178 A297     		add	a5,a5,s0
 2253 117a 23B00700 		sd	zero,0(a5)
 2254 117e 930785AB 		addi	a5,a0,-1352
 2255 1182 A297     		add	a5,a5,s0
 2256 1184 9C63     		ld	a5,0(a5)
 2257 1186 130705AA 		addi	a4,a0,-1376
 2258 118a 2297     		add	a4,a4,s0
 2259 118c 1863     		ld	a4,0(a4)
 2260 118e 3387E702 		mul	a4,a5,a4
 2261 1192 930785AA 		addi	a5,a0,-1368
 2262 1196 A297     		add	a5,a5,s0
 2263 1198 9C63     		ld	a5,0(a5)
 2264 119a 930605AB 		addi	a3,a0,-1360
 2265 119e A296     		add	a3,a3,s0
 2266 11a0 9462     		ld	a3,0(a3)
 2267 11a2 B387D702 		mul	a5,a5,a3
 2268 11a6 B306F700 		add	a3,a4,a5
 2269 11aa 930705AB 		addi	a5,a0,-1360
 2270 11ae A297     		add	a5,a5,s0
 2271 11b0 9C63     		ld	a5,0(a5)
 2272 11b2 130705AA 		addi	a4,a0,-1376
 2273 11b6 2297     		add	a4,a4,s0
 2274 11b8 1863     		ld	a4,0(a4)
 2275 11ba 3387E702 		mul	a4,a5,a4
 2276 11be 930705AB 		addi	a5,a0,-1360
 2277 11c2 A297     		add	a5,a5,s0
 2278 11c4 9C63     		ld	a5,0(a5)
 2279 11c6 AA84     		mv	s1,a0
 2280 11c8 130505AA 		addi	a0,a0,-1376
 2281 11cc 2295     		add	a0,a0,s0
 2282 11ce 0861     		ld	a0,0(a0)
 2283 11d0 B3B7A702 		mulhu	a5,a5,a0
 2284 11d4 138504C7 		addi	a0,s1,-912
 2285 11d8 2295     		add	a0,a0,s0
 2286 11da 18E1     		sd	a4,0(a0)
 2287 11dc 2687     		mv	a4,s1
 2288 11de 130587C7 		addi	a0,a4,-904
 2289 11e2 2295     		add	a0,a0,s0
 2290 11e4 1CE1     		sd	a5,0(a0)
 2291 11e6 930787C7 		addi	a5,a4,-904
 2292 11ea A297     		add	a5,a5,s0
 2293 11ec 9C63     		ld	a5,0(a5)
 2294 11ee B697     		add	a5,a3,a5
 2295 11f0 BA86     		mv	a3,a4
 2296 11f2 138786C7 		addi	a4,a3,-904
 2297 11f6 2297     		add	a4,a4,s0
 2298 11f8 1CE3     		sd	a5,0(a4)
 2299 11fa 938706C7 		addi	a5,a3,-912
 2300 11fe A297     		add	a5,a5,s0
 2301 1200 9C63     		ld	a5,0(a5)
 2302 1202 ED93     		srli	a5,a5,59
 2303 1204 138786C7 		addi	a4,a3,-904
 2304 1208 2297     		add	a4,a4,s0
 2305 120a 1863     		ld	a4,0(a4)
 2306 120c 1607     		slli	a4,a4,5
 2307 120e 13058879 		addi	a0,a6,1944
 2308 1212 2295     		add	a0,a0,s0
 2309 1214 18E1     		sd	a4,0(a0)
 2310 1216 13078879 		addi	a4,a6,1944
 2311 121a 2297     		add	a4,a4,s0
 2312 121c 1863     		ld	a4,0(a4)
 2313 121e D98F     		or	a5,a5,a4
 2314 1220 13078879 		addi	a4,a6,1944
 2315 1224 2297     		add	a4,a4,s0
 2316 1226 1CE3     		sd	a5,0(a4)
 2317 1228 938706C7 		addi	a5,a3,-912
 2318 122c A297     		add	a5,a5,s0
 2319 122e 9C63     		ld	a5,0(a5)
 2320 1230 9607     		slli	a5,a5,5
 2321 1232 13070879 		addi	a4,a6,1936
 2322 1236 2297     		add	a4,a4,s0
 2323 1238 1CE3     		sd	a5,0(a4)
 2324 123a B287     		mv	a5,a2
 2325 123c 138706A9 		addi	a4,a3,-1392
 2326 1240 2297     		add	a4,a4,s0
 2327 1242 1CE3     		sd	a5,0(a4)
 2328 1244 938786A9 		addi	a5,a3,-1384
 2329 1248 A297     		add	a5,a5,s0
 2330 124a 23B00700 		sd	zero,0(a5)
 2331 124e AE87     		mv	a5,a1
 2332 1250 3685     		mv	a0,a3
 2333 1252 130705A8 		addi	a4,a0,-1408
 2334 1256 2297     		add	a4,a4,s0
 2335 1258 1CE3     		sd	a5,0(a4)
 2336 125a 930785A8 		addi	a5,a0,-1400
 2337 125e A297     		add	a5,a5,s0
 2338 1260 23B00700 		sd	zero,0(a5)
 2339 1264 930785A9 		addi	a5,a0,-1384
 2340 1268 A297     		add	a5,a5,s0
 2341 126a 9C63     		ld	a5,0(a5)
 2342 126c 130705A8 		addi	a4,a0,-1408
 2343 1270 2297     		add	a4,a4,s0
 2344 1272 1863     		ld	a4,0(a4)
 2345 1274 3387E702 		mul	a4,a5,a4
 2346 1278 930785A8 		addi	a5,a0,-1400
 2347 127c A297     		add	a5,a5,s0
 2348 127e 9C63     		ld	a5,0(a5)
 2349 1280 930605A9 		addi	a3,a0,-1392
 2350 1284 A296     		add	a3,a3,s0
 2351 1286 9462     		ld	a3,0(a3)
 2352 1288 B387D702 		mul	a5,a5,a3
 2353 128c B306F700 		add	a3,a4,a5
 2354 1290 930705A9 		addi	a5,a0,-1392
 2355 1294 A297     		add	a5,a5,s0
 2356 1296 9C63     		ld	a5,0(a5)
 2357 1298 130705A8 		addi	a4,a0,-1408
 2358 129c 2297     		add	a4,a4,s0
 2359 129e 1863     		ld	a4,0(a4)
 2360 12a0 3387E702 		mul	a4,a5,a4
 2361 12a4 930705A9 		addi	a5,a0,-1392
 2362 12a8 A297     		add	a5,a5,s0
 2363 12aa 9C63     		ld	a5,0(a5)
 2364 12ac AA84     		mv	s1,a0
 2365 12ae 130505A8 		addi	a0,a0,-1408
 2366 12b2 2295     		add	a0,a0,s0
 2367 12b4 0861     		ld	a0,0(a0)
 2368 12b6 B3B7A702 		mulhu	a5,a5,a0
 2369 12ba 138504C6 		addi	a0,s1,-928
 2370 12be 2295     		add	a0,a0,s0
 2371 12c0 18E1     		sd	a4,0(a0)
 2372 12c2 2687     		mv	a4,s1
 2373 12c4 130587C6 		addi	a0,a4,-920
 2374 12c8 2295     		add	a0,a0,s0
 2375 12ca 1CE1     		sd	a5,0(a0)
 2376 12cc 930787C6 		addi	a5,a4,-920
 2377 12d0 A297     		add	a5,a5,s0
 2378 12d2 9C63     		ld	a5,0(a5)
 2379 12d4 B697     		add	a5,a3,a5
 2380 12d6 BA86     		mv	a3,a4
 2381 12d8 138786C6 		addi	a4,a3,-920
 2382 12dc 2297     		add	a4,a4,s0
 2383 12de 1CE3     		sd	a5,0(a4)
 2384 12e0 938706C6 		addi	a5,a3,-928
 2385 12e4 A297     		add	a5,a5,s0
 2386 12e6 9C63     		ld	a5,0(a5)
 2387 12e8 ED93     		srli	a5,a5,59
 2388 12ea 138786C6 		addi	a4,a3,-920
 2389 12ee 2297     		add	a4,a4,s0
 2390 12f0 1863     		ld	a4,0(a4)
 2391 12f2 1607     		slli	a4,a4,5
 2392 12f4 13058878 		addi	a0,a6,1928
 2393 12f8 2295     		add	a0,a0,s0
 2394 12fa 18E1     		sd	a4,0(a0)
 2395 12fc 13078878 		addi	a4,a6,1928
 2396 1300 2297     		add	a4,a4,s0
 2397 1302 1863     		ld	a4,0(a4)
 2398 1304 D98F     		or	a5,a5,a4
 2399 1306 13078878 		addi	a4,a6,1928
 2400 130a 2297     		add	a4,a4,s0
 2401 130c 1CE3     		sd	a5,0(a4)
 2402 130e 938706C6 		addi	a5,a3,-928
 2403 1312 A297     		add	a5,a5,s0
 2404 1314 9C63     		ld	a5,0(a5)
 2405 1316 9607     		slli	a5,a5,5
 2406 1318 13070878 		addi	a4,a6,1920
 2407 131c 2297     		add	a4,a4,s0
 2408 131e 1CE3     		sd	a5,0(a4)
 2409 1320 3287     		mv	a4,a2
 2410 1322 AE87     		mv	a5,a1
 2411 1324 B307F702 		mul	a5,a4,a5
 2412 1328 8A07     		slli	a5,a5,2
 2413 132a BD07     		addi	a5,a5,15
 2414 132c 9183     		srli	a5,a5,4
 2415 132e 9207     		slli	a5,a5,4
 2416 1330 3301F140 		sub	sp,sp,a5
 2417 1334 8A87     		mv	a5,sp
 2418 1336 8D07     		addi	a5,a5,3
 2419 1338 8983     		srli	a5,a5,2
 2420 133a 8A07     		slli	a5,a5,2
 2421 133c 2330F4E2 		sd	a5,-480(s0)
 2422              	.LBB31:
 311:../src/application/hart1/u54_1.c **** 
 312:../src/application/hart1/u54_1.c ****  /*       dilation = new int*[225+(2*2)];
 313:../src/application/hart1/u54_1.c ****         for(int r = 0; r<(225+(2*2)); r++){
 314:../src/application/hart1/u54_1.c ****             dilation[r] = new int[225+(2*2)];
 315:../src/application/hart1/u54_1.c ****         }
 316:../src/application/hart1/u54_1.c **** */
 317:../src/application/hart1/u54_1.c **** 
 318:../src/application/hart1/u54_1.c ****        for(int i=0; i<(128+ (2*2)); i++){
 2423              		.loc 3 318 16
 2424 1340 232E04F2 		sw	zero,-196(s0)
 2425              		.loc 3 318 8
 2426 1344 A9A0     		j	.L74
 2427              	.L77:
 2428              	.LBB32:
 319:../src/application/hart1/u54_1.c ****           for(int j=0; j<(128+(2*2)); j++){
 2429              		.loc 3 319 19
 2430 1346 232004F4 		sw	zero,-192(s0)
 2431              		.loc 3 319 11
 2432 134a 2DA0     		j	.L75
 2433              	.L76:
 320:../src/application/hart1/u54_1.c ****             dilation[i][j]=0;
 2434              		.loc 3 320 24 discriminator 3
 2435 134c 93562A00 		srli	a3,s4,2
 2436              		.loc 3 320 27 discriminator 3
 2437 1350 033604E2 		ld	a2,-480(s0)
 2438 1354 032704F4 		lw	a4,-192(s0)
 2439 1358 8327C4F3 		lw	a5,-196(s0)
 2440 135c B387D702 		mul	a5,a5,a3
 2441 1360 BA97     		add	a5,a4,a5
 2442 1362 8A07     		slli	a5,a5,2
 2443 1364 B297     		add	a5,a2,a5
 2444 1366 23A00700 		sw	zero,0(a5)
 319:../src/application/hart1/u54_1.c ****           for(int j=0; j<(128+(2*2)); j++){
 2445              		.loc 3 319 40 discriminator 3
 2446 136a 832704F4 		lw	a5,-192(s0)
 2447 136e 8527     		addiw	a5,a5,1
 2448 1370 2320F4F4 		sw	a5,-192(s0)
 2449              	.L75:
 319:../src/application/hart1/u54_1.c ****           for(int j=0; j<(128+(2*2)); j++){
 2450              		.loc 3 319 11 discriminator 1
 2451 1374 832704F4 		lw	a5,-192(s0)
 2452 1378 1B870700 		sext.w	a4,a5
 2453 137c 93073008 		li	a5,131
 2454 1380 E3D6E7FC 		ble	a4,a5,.L76
 2455              	.LBE32:
 318:../src/application/hart1/u54_1.c ****           for(int j=0; j<(128+(2*2)); j++){
 2456              		.loc 3 318 38 discriminator 2
 2457 1384 8327C4F3 		lw	a5,-196(s0)
 2458 1388 8527     		addiw	a5,a5,1
 2459 138a 232EF4F2 		sw	a5,-196(s0)
 2460              	.L74:
 318:../src/application/hart1/u54_1.c ****           for(int j=0; j<(128+(2*2)); j++){
 2461              		.loc 3 318 8 discriminator 1
 2462 138e 8327C4F3 		lw	a5,-196(s0)
 2463 1392 1B870700 		sext.w	a4,a5
 2464 1396 93073008 		li	a5,131
 2465 139a E3D6E7FA 		ble	a4,a5,.L77
 2466              	.LBE31:
 2467              	.LBB33:
 321:../src/application/hart1/u54_1.c ****           }
 322:../src/application/hart1/u54_1.c ****         }
 323:../src/application/hart1/u54_1.c **** 
 324:../src/application/hart1/u54_1.c **** 
 325:../src/application/hart1/u54_1.c **** for(int i = 2; i<(130); i++){
 2468              		.loc 3 325 9
 2469 139e 8947     		li	a5,2
 2470 13a0 2322F4F4 		sw	a5,-188(s0)
 2471              		.loc 3 325 1
 2472 13a4 B9A2     		j	.L78
 2473              	.L87:
 2474              	.LBB34:
 326:../src/application/hart1/u54_1.c ****           for(int j =2; j<(130); j++){
 2475              		.loc 3 326 19
 2476 13a6 8947     		li	a5,2
 2477 13a8 2324F4F4 		sw	a5,-184(s0)
 2478              		.loc 3 326 11
 2479 13ac 35A2     		j	.L79
 2480              	.L86:
 327:../src/application/hart1/u54_1.c **** 
 328:../src/application/hart1/u54_1.c ****             if(morphFramedAry[i][j]==kernel[1][1]){
 2481              		.loc 3 328 33
 2482 13ae 93D62A00 		srli	a3,s5,2
 2483 13b2 033604EA 		ld	a2,-352(s0)
 2484 13b6 032784F4 		lw	a4,-184(s0)
 2485 13ba 832744F4 		lw	a5,-188(s0)
 2486 13be B387D702 		mul	a5,a5,a3
 2487 13c2 BA97     		add	a5,a4,a5
 2488 13c4 8A07     		slli	a5,a5,2
 2489 13c6 B297     		add	a5,a2,a5
 2490 13c8 9843     		lw	a4,0(a5)
 2491              		.loc 3 328 47
 2492 13ca 832704D0 		lw	a5,-768(s0)
 2493              		.loc 3 328 15
 2494 13ce 6310F710 		bne	a4,a5,.L80
 2495              	.LBB35:
 329:../src/application/hart1/u54_1.c **** 
 330:../src/application/hart1/u54_1.c ****                int rowStart = (i-1);
 2496              		.loc 3 330 20
 2497 13d2 832744F4 		lw	a5,-188(s0)
 2498 13d6 FD37     		addiw	a5,a5,-1
 2499 13d8 232EF4E0 		sw	a5,-484(s0)
 331:../src/application/hart1/u54_1.c ****                int rowEnd = (rowStart+3);
 2500              		.loc 3 331 20
 2501 13dc 8327C4E1 		lw	a5,-484(s0)
 2502 13e0 8D27     		addiw	a5,a5,3
 2503 13e2 232CF4E0 		sw	a5,-488(s0)
 332:../src/application/hart1/u54_1.c ****                int colStart = (j-1);
 2504              		.loc 3 332 20
 2505 13e6 832784F4 		lw	a5,-184(s0)
 2506 13ea FD37     		addiw	a5,a5,-1
 2507 13ec 232AF4E0 		sw	a5,-492(s0)
 333:../src/application/hart1/u54_1.c ****                int colEnd = (colStart + 3);
 2508              		.loc 3 333 20
 2509 13f0 832744E1 		lw	a5,-492(s0)
 2510 13f4 8D27     		addiw	a5,a5,3
 2511 13f6 2328F4E0 		sw	a5,-496(s0)
 2512              	.LBB36:
 334:../src/application/hart1/u54_1.c **** 
 335:../src/application/hart1/u54_1.c ****                int seRow;
 336:../src/application/hart1/u54_1.c ****                int seCol;
 337:../src/application/hart1/u54_1.c **** 
 338:../src/application/hart1/u54_1.c ****                for(int i = rowStart; i< rowEnd; i++){
 2513              		.loc 3 338 24
 2514 13fa 8327C4E1 		lw	a5,-484(s0)
 2515 13fe 2326F4F4 		sw	a5,-180(s0)
 2516              		.loc 3 338 16
 2517 1402 75A8     		j	.L81
 2518              	.L85:
 2519              	.LBB37:
 339:../src/application/hart1/u54_1.c ****                   for(int j = colStart; j< colEnd; j++){
 2520              		.loc 3 339 27
 2521 1404 832744E1 		lw	a5,-492(s0)
 2522 1408 2328F4F4 		sw	a5,-176(s0)
 2523              		.loc 3 339 19
 2524 140c 61A8     		j	.L82
 2525              	.L84:
 340:../src/application/hart1/u54_1.c **** 
 341:../src/application/hart1/u54_1.c ****                     seRow =  (3-(rowEnd-i));
 2526              		.loc 3 341 40
 2527 140e 032784E1 		lw	a4,-488(s0)
 2528 1412 8327C4F4 		lw	a5,-180(s0)
 2529 1416 BB07F740 		subw	a5,a4,a5
 2530 141a 1B870700 		sext.w	a4,a5
 2531              		.loc 3 341 27
 2532 141e 8D47     		li	a5,3
 2533 1420 999F     		subw	a5,a5,a4
 2534 1422 2326F4E0 		sw	a5,-500(s0)
 342:../src/application/hart1/u54_1.c ****                     seCol =  (3-(colEnd-j));
 2535              		.loc 3 342 40
 2536 1426 032704E1 		lw	a4,-496(s0)
 2537 142a 832704F5 		lw	a5,-176(s0)
 2538 142e BB07F740 		subw	a5,a4,a5
 2539 1432 1B870700 		sext.w	a4,a5
 2540              		.loc 3 342 27
 2541 1436 8D47     		li	a5,3
 2542 1438 999F     		subw	a5,a5,a4
 2543 143a 2324F4E0 		sw	a5,-504(s0)
 343:../src/application/hart1/u54_1.c **** 
 344:../src/application/hart1/u54_1.c ****                     if(kernel[seRow][seCol]==1){
 2544              		.loc 3 344 37
 2545 143e 832684E0 		lw	a3,-504(s0)
 2546 1442 0327C4E0 		lw	a4,-500(s0)
 2547 1446 BA87     		mv	a5,a4
 2548 1448 8607     		slli	a5,a5,1
 2549 144a BA97     		add	a5,a5,a4
 2550 144c B697     		add	a5,a5,a3
 2551 144e 8A07     		slli	a5,a5,2
 2552 1450 130704F9 		addi	a4,s0,-112
 2553 1454 BA97     		add	a5,a4,a5
 2554 1456 83A707D6 		lw	a5,-672(a5)
 2555              		.loc 3 344 23
 2556 145a 3E87     		mv	a4,a5
 2557 145c 8547     		li	a5,1
 2558 145e 631EF702 		bne	a4,a5,.L83
 345:../src/application/hart1/u54_1.c ****                         dilation[i][j] = kernel[seRow][seCol];
 2559              		.loc 3 345 36
 2560 1462 93552A00 		srli	a1,s4,2
 2561              		.loc 3 345 55
 2562 1466 832684E0 		lw	a3,-504(s0)
 2563 146a 0327C4E0 		lw	a4,-500(s0)
 2564 146e BA87     		mv	a5,a4
 2565 1470 8607     		slli	a5,a5,1
 2566 1472 BA97     		add	a5,a5,a4
 2567 1474 B697     		add	a5,a5,a3
 2568 1476 8A07     		slli	a5,a5,2
 2569 1478 130704F9 		addi	a4,s0,-112
 2570 147c BA97     		add	a5,a4,a5
 2571 147e 03A607D6 		lw	a2,-672(a5)
 2572              		.loc 3 345 40
 2573 1482 833604E2 		ld	a3,-480(s0)
 2574 1486 032704F5 		lw	a4,-176(s0)
 2575 148a 8327C4F4 		lw	a5,-180(s0)
 2576 148e B387B702 		mul	a5,a5,a1
 2577 1492 BA97     		add	a5,a4,a5
 2578 1494 8A07     		slli	a5,a5,2
 2579 1496 B697     		add	a5,a3,a5
 2580 1498 90C3     		sw	a2,0(a5)
 2581              	.L83:
 339:../src/application/hart1/u54_1.c **** 
 2582              		.loc 3 339 53 discriminator 2
 2583 149a 832704F5 		lw	a5,-176(s0)
 2584 149e 8527     		addiw	a5,a5,1
 2585 14a0 2328F4F4 		sw	a5,-176(s0)
 2586              	.L82:
 339:../src/application/hart1/u54_1.c **** 
 2587              		.loc 3 339 19 discriminator 1
 2588 14a4 032704F5 		lw	a4,-176(s0)
 2589 14a8 832704E1 		lw	a5,-496(s0)
 2590 14ac 0127     		sext.w	a4,a4
 2591 14ae 8127     		sext.w	a5,a5
 2592 14b0 E34FF7F4 		blt	a4,a5,.L84
 2593              	.LBE37:
 338:../src/application/hart1/u54_1.c ****                   for(int j = colStart; j< colEnd; j++){
 2594              		.loc 3 338 50 discriminator 2
 2595 14b4 8327C4F4 		lw	a5,-180(s0)
 2596 14b8 8527     		addiw	a5,a5,1
 2597 14ba 2326F4F4 		sw	a5,-180(s0)
 2598              	.L81:
 338:../src/application/hart1/u54_1.c ****                   for(int j = colStart; j< colEnd; j++){
 2599              		.loc 3 338 16 discriminator 1
 2600 14be 0327C4F4 		lw	a4,-180(s0)
 2601 14c2 832784E1 		lw	a5,-488(s0)
 2602 14c6 0127     		sext.w	a4,a4
 2603 14c8 8127     		sext.w	a5,a5
 2604 14ca E34DF7F2 		blt	a4,a5,.L85
 2605              	.L80:
 2606              	.LBE36:
 2607              	.LBE35:
 326:../src/application/hart1/u54_1.c **** 
 2608              		.loc 3 326 35 discriminator 2
 2609 14ce 832784F4 		lw	a5,-184(s0)
 2610 14d2 8527     		addiw	a5,a5,1
 2611 14d4 2324F4F4 		sw	a5,-184(s0)
 2612              	.L79:
 326:../src/application/hart1/u54_1.c **** 
 2613              		.loc 3 326 11 discriminator 1
 2614 14d8 832784F4 		lw	a5,-184(s0)
 2615 14dc 1B870700 		sext.w	a4,a5
 2616 14e0 93071008 		li	a5,129
 2617 14e4 E3D5E7EC 		ble	a4,a5,.L86
 2618              	.LBE34:
 325:../src/application/hart1/u54_1.c ****           for(int j =2; j<(130); j++){
 2619              		.loc 3 325 26 discriminator 2
 2620 14e8 832744F4 		lw	a5,-188(s0)
 2621 14ec 8527     		addiw	a5,a5,1
 2622 14ee 2322F4F4 		sw	a5,-188(s0)
 2623              	.L78:
 325:../src/application/hart1/u54_1.c ****           for(int j =2; j<(130); j++){
 2624              		.loc 3 325 1 discriminator 1
 2625 14f2 832744F4 		lw	a5,-188(s0)
 2626 14f6 1B870700 		sext.w	a4,a5
 2627 14fa 93071008 		li	a5,129
 2628 14fe E3D4E7EA 		ble	a4,a5,.L87
 2629              	.LBE33:
 346:../src/application/hart1/u54_1.c ****                     }
 347:../src/application/hart1/u54_1.c **** 
 348:../src/application/hart1/u54_1.c ****                   }
 349:../src/application/hart1/u54_1.c **** 
 350:../src/application/hart1/u54_1.c ****                }
 351:../src/application/hart1/u54_1.c **** 
 352:../src/application/hart1/u54_1.c ****             }
 353:../src/application/hart1/u54_1.c **** 
 354:../src/application/hart1/u54_1.c ****           }
 355:../src/application/hart1/u54_1.c **** }
 356:../src/application/hart1/u54_1.c **** /*
 357:../src/application/hart1/u54_1.c **** ofstream myfile_dilation("dilation.txt");
 358:../src/application/hart1/u54_1.c **** for(int i=0;i<(w+4);i++){
 359:../src/application/hart1/u54_1.c ****         for(int j=0;j<(h+4);j++){
 360:../src/application/hart1/u54_1.c ****             myfile_dilation<<dilation[i][j]<<" ";
 361:../src/application/hart1/u54_1.c ****         }
 362:../src/application/hart1/u54_1.c ****        myfile_dilation<<endl;
 363:../src/application/hart1/u54_1.c **** }
 364:../src/application/hart1/u54_1.c **** */
 365:../src/application/hart1/u54_1.c **** 
 366:../src/application/hart1/u54_1.c **** 
 367:../src/application/hart1/u54_1.c **** ///distance_transform
 368:../src/application/hart1/u54_1.c **** int w=132,h=132;
 2630              		.loc 3 368 5
 2631 1502 93074008 		li	a5,132
 2632 1506 2322F4E0 		sw	a5,-508(s0)
 2633              		.loc 3 368 11
 2634 150a 93074008 		li	a5,132
 2635 150e 2320F4E0 		sw	a5,-512(s0)
 369:../src/application/hart1/u54_1.c **** 
 370:../src/application/hart1/u54_1.c **** float b[w][h];
 2636              		.loc 3 370 1
 2637 1512 032604E0 		lw	a2,-512(s0)
 2638 1516 832544E0 		lw	a1,-508(s0)
 2639 151a 8A87     		mv	a5,sp
 2640 151c 3E8B     		mv	s6,a5
 2641              		.loc 3 370 7
 2642 151e B287     		mv	a5,a2
 2643 1520 FD17     		addi	a5,a5,-1
 2644 1522 233CF4DE 		sd	a5,-520(s0)
 2645 1526 B287     		mv	a5,a2
 2646 1528 B706FDFF 		li	a3,-196608
 2647 152c 1387068B 		addi	a4,a3,-1872
 2648 1530 2297     		add	a4,a4,s0
 2649 1532 1CE3     		sd	a5,0(a4)
 2650 1534 9387868B 		addi	a5,a3,-1864
 2651 1538 A297     		add	a5,a5,s0
 2652 153a 23B00700 		sd	zero,0(a5)
 2653 153e 9387068B 		addi	a5,a3,-1872
 2654 1542 A297     		add	a5,a5,s0
 2655 1544 9C63     		ld	a5,0(a5)
 2656 1546 ED93     		srli	a5,a5,59
 2657 1548 1387868B 		addi	a4,a3,-1864
 2658 154c 2297     		add	a4,a4,s0
 2659 154e 1863     		ld	a4,0(a4)
 2660 1550 1607     		slli	a4,a4,5
 2661 1552 B7F8FCFF 		li	a7,-200704
 2662 1556 13858877 		addi	a0,a7,1912
 2663 155a 2295     		add	a0,a0,s0
 2664 155c 18E1     		sd	a4,0(a0)
 2665 155e 13878877 		addi	a4,a7,1912
 2666 1562 2297     		add	a4,a4,s0
 2667 1564 1863     		ld	a4,0(a4)
 2668 1566 D98F     		or	a5,a5,a4
 2669 1568 13878877 		addi	a4,a7,1912
 2670 156c 2297     		add	a4,a4,s0
 2671 156e 1CE3     		sd	a5,0(a4)
 2672 1570 9387068B 		addi	a5,a3,-1872
 2673 1574 A297     		add	a5,a5,s0
 2674 1576 9C63     		ld	a5,0(a5)
 2675 1578 9607     		slli	a5,a5,5
 2676 157a 13870877 		addi	a4,a7,1904
 2677 157e 2297     		add	a4,a4,s0
 2678 1580 1CE3     		sd	a5,0(a4)
 2679 1582 B287     		mv	a5,a2
 2680 1584 93942700 		slli	s1,a5,2
 2681 1588 AE87     		mv	a5,a1
 2682 158a FD17     		addi	a5,a5,-1
 2683 158c 2338F4DE 		sd	a5,-528(s0)
 2684 1590 B287     		mv	a5,a2
 2685 1592 138706A7 		addi	a4,a3,-1424
 2686 1596 2297     		add	a4,a4,s0
 2687 1598 1CE3     		sd	a5,0(a4)
 2688 159a 938786A7 		addi	a5,a3,-1416
 2689 159e A297     		add	a5,a5,s0
 2690 15a0 23B00700 		sd	zero,0(a5)
 2691 15a4 AE87     		mv	a5,a1
 2692 15a6 3685     		mv	a0,a3
 2693 15a8 130705A6 		addi	a4,a0,-1440
 2694 15ac 2297     		add	a4,a4,s0
 2695 15ae 1CE3     		sd	a5,0(a4)
 2696 15b0 930785A6 		addi	a5,a0,-1432
 2697 15b4 A297     		add	a5,a5,s0
 2698 15b6 23B00700 		sd	zero,0(a5)
 2699 15ba 930785A7 		addi	a5,a0,-1416
 2700 15be A297     		add	a5,a5,s0
 2701 15c0 9C63     		ld	a5,0(a5)
 2702 15c2 130705A6 		addi	a4,a0,-1440
 2703 15c6 2297     		add	a4,a4,s0
 2704 15c8 1863     		ld	a4,0(a4)
 2705 15ca 3387E702 		mul	a4,a5,a4
 2706 15ce 930785A6 		addi	a5,a0,-1432
 2707 15d2 A297     		add	a5,a5,s0
 2708 15d4 9C63     		ld	a5,0(a5)
 2709 15d6 930605A7 		addi	a3,a0,-1424
 2710 15da A296     		add	a3,a3,s0
 2711 15dc 9462     		ld	a3,0(a3)
 2712 15de B387D702 		mul	a5,a5,a3
 2713 15e2 B306F700 		add	a3,a4,a5
 2714 15e6 930705A7 		addi	a5,a0,-1424
 2715 15ea A297     		add	a5,a5,s0
 2716 15ec 9C63     		ld	a5,0(a5)
 2717 15ee 130705A6 		addi	a4,a0,-1440
 2718 15f2 2297     		add	a4,a4,s0
 2719 15f4 1863     		ld	a4,0(a4)
 2720 15f6 3387E702 		mul	a4,a5,a4
 2721 15fa 930705A7 		addi	a5,a0,-1424
 2722 15fe A297     		add	a5,a5,s0
 2723 1600 9C63     		ld	a5,0(a5)
 2724 1602 2A88     		mv	a6,a0
 2725 1604 130505A6 		addi	a0,a0,-1440
 2726 1608 2295     		add	a0,a0,s0
 2727 160a 0861     		ld	a0,0(a0)
 2728 160c B3B7A702 		mulhu	a5,a5,a0
 2729 1610 130508C5 		addi	a0,a6,-944
 2730 1614 2295     		add	a0,a0,s0
 2731 1616 18E1     		sd	a4,0(a0)
 2732 1618 4287     		mv	a4,a6
 2733 161a 130587C5 		addi	a0,a4,-936
 2734 161e 2295     		add	a0,a0,s0
 2735 1620 1CE1     		sd	a5,0(a0)
 2736 1622 930787C5 		addi	a5,a4,-936
 2737 1626 A297     		add	a5,a5,s0
 2738 1628 9C63     		ld	a5,0(a5)
 2739 162a B697     		add	a5,a3,a5
 2740 162c BA86     		mv	a3,a4
 2741 162e 138786C5 		addi	a4,a3,-936
 2742 1632 2297     		add	a4,a4,s0
 2743 1634 1CE3     		sd	a5,0(a4)
 2744 1636 938706C5 		addi	a5,a3,-944
 2745 163a A297     		add	a5,a5,s0
 2746 163c 9C63     		ld	a5,0(a5)
 2747 163e ED93     		srli	a5,a5,59
 2748 1640 138786C5 		addi	a4,a3,-936
 2749 1644 2297     		add	a4,a4,s0
 2750 1646 1863     		ld	a4,0(a4)
 2751 1648 1607     		slli	a4,a4,5
 2752 164a 13858876 		addi	a0,a7,1896
 2753 164e 2295     		add	a0,a0,s0
 2754 1650 18E1     		sd	a4,0(a0)
 2755 1652 13878876 		addi	a4,a7,1896
 2756 1656 2297     		add	a4,a4,s0
 2757 1658 1863     		ld	a4,0(a4)
 2758 165a D98F     		or	a5,a5,a4
 2759 165c 13878876 		addi	a4,a7,1896
 2760 1660 2297     		add	a4,a4,s0
 2761 1662 1CE3     		sd	a5,0(a4)
 2762 1664 938706C5 		addi	a5,a3,-944
 2763 1668 A297     		add	a5,a5,s0
 2764 166a 9C63     		ld	a5,0(a5)
 2765 166c 9607     		slli	a5,a5,5
 2766 166e 13870876 		addi	a4,a7,1888
 2767 1672 2297     		add	a4,a4,s0
 2768 1674 1CE3     		sd	a5,0(a4)
 2769 1676 B287     		mv	a5,a2
 2770 1678 138706A5 		addi	a4,a3,-1456
 2771 167c 2297     		add	a4,a4,s0
 2772 167e 1CE3     		sd	a5,0(a4)
 2773 1680 938786A5 		addi	a5,a3,-1448
 2774 1684 A297     		add	a5,a5,s0
 2775 1686 23B00700 		sd	zero,0(a5)
 2776 168a AE87     		mv	a5,a1
 2777 168c 3685     		mv	a0,a3
 2778 168e 130705A4 		addi	a4,a0,-1472
 2779 1692 2297     		add	a4,a4,s0
 2780 1694 1CE3     		sd	a5,0(a4)
 2781 1696 930785A4 		addi	a5,a0,-1464
 2782 169a A297     		add	a5,a5,s0
 2783 169c 23B00700 		sd	zero,0(a5)
 2784 16a0 930785A5 		addi	a5,a0,-1448
 2785 16a4 A297     		add	a5,a5,s0
 2786 16a6 9C63     		ld	a5,0(a5)
 2787 16a8 130705A4 		addi	a4,a0,-1472
 2788 16ac 2297     		add	a4,a4,s0
 2789 16ae 1863     		ld	a4,0(a4)
 2790 16b0 3387E702 		mul	a4,a5,a4
 2791 16b4 930785A4 		addi	a5,a0,-1464
 2792 16b8 A297     		add	a5,a5,s0
 2793 16ba 9C63     		ld	a5,0(a5)
 2794 16bc 930605A5 		addi	a3,a0,-1456
 2795 16c0 A296     		add	a3,a3,s0
 2796 16c2 9462     		ld	a3,0(a3)
 2797 16c4 B387D702 		mul	a5,a5,a3
 2798 16c8 B306F700 		add	a3,a4,a5
 2799 16cc 930705A5 		addi	a5,a0,-1456
 2800 16d0 A297     		add	a5,a5,s0
 2801 16d2 9C63     		ld	a5,0(a5)
 2802 16d4 130705A4 		addi	a4,a0,-1472
 2803 16d8 2297     		add	a4,a4,s0
 2804 16da 1863     		ld	a4,0(a4)
 2805 16dc 3387E702 		mul	a4,a5,a4
 2806 16e0 930705A5 		addi	a5,a0,-1456
 2807 16e4 A297     		add	a5,a5,s0
 2808 16e6 9C63     		ld	a5,0(a5)
 2809 16e8 2A88     		mv	a6,a0
 2810 16ea 130505A4 		addi	a0,a0,-1472
 2811 16ee 2295     		add	a0,a0,s0
 2812 16f0 0861     		ld	a0,0(a0)
 2813 16f2 B3B7A702 		mulhu	a5,a5,a0
 2814 16f6 130508C4 		addi	a0,a6,-960
 2815 16fa 2295     		add	a0,a0,s0
 2816 16fc 18E1     		sd	a4,0(a0)
 2817 16fe 4287     		mv	a4,a6
 2818 1700 130587C4 		addi	a0,a4,-952
 2819 1704 2295     		add	a0,a0,s0
 2820 1706 1CE1     		sd	a5,0(a0)
 2821 1708 930787C4 		addi	a5,a4,-952
 2822 170c A297     		add	a5,a5,s0
 2823 170e 9C63     		ld	a5,0(a5)
 2824 1710 B697     		add	a5,a3,a5
 2825 1712 BA86     		mv	a3,a4
 2826 1714 138786C4 		addi	a4,a3,-952
 2827 1718 2297     		add	a4,a4,s0
 2828 171a 1CE3     		sd	a5,0(a4)
 2829 171c 938706C4 		addi	a5,a3,-960
 2830 1720 A297     		add	a5,a5,s0
 2831 1722 9C63     		ld	a5,0(a5)
 2832 1724 ED93     		srli	a5,a5,59
 2833 1726 138786C4 		addi	a4,a3,-952
 2834 172a 2297     		add	a4,a4,s0
 2835 172c 1863     		ld	a4,0(a4)
 2836 172e 1607     		slli	a4,a4,5
 2837 1730 4685     		mv	a0,a7
 2838 1732 13088575 		addi	a6,a0,1880
 2839 1736 2298     		add	a6,a6,s0
 2840 1738 2330E800 		sd	a4,0(a6)
 2841 173c 13078575 		addi	a4,a0,1880
 2842 1740 2297     		add	a4,a4,s0
 2843 1742 1863     		ld	a4,0(a4)
 2844 1744 D98F     		or	a5,a5,a4
 2845 1746 13078575 		addi	a4,a0,1880
 2846 174a 2297     		add	a4,a4,s0
 2847 174c 1CE3     		sd	a5,0(a4)
 2848 174e 938706C4 		addi	a5,a3,-960
 2849 1752 A297     		add	a5,a5,s0
 2850 1754 9C63     		ld	a5,0(a5)
 2851 1756 9607     		slli	a5,a5,5
 2852 1758 13070575 		addi	a4,a0,1872
 2853 175c 2297     		add	a4,a4,s0
 2854 175e 1CE3     		sd	a5,0(a4)
 2855 1760 3287     		mv	a4,a2
 2856 1762 AE87     		mv	a5,a1
 2857 1764 B307F702 		mul	a5,a4,a5
 2858 1768 8A07     		slli	a5,a5,2
 2859 176a BD07     		addi	a5,a5,15
 2860 176c 9183     		srli	a5,a5,4
 2861 176e 9207     		slli	a5,a5,4
 2862 1770 3301F140 		sub	sp,sp,a5
 2863 1774 8A87     		mv	a5,sp
 2864 1776 8D07     		addi	a5,a5,3
 2865 1778 8983     		srli	a5,a5,2
 2866 177a 8A07     		slli	a5,a5,2
 2867 177c 2334F4DE 		sd	a5,-536(s0)
 371:../src/application/hart1/u54_1.c **** 
 372:../src/application/hart1/u54_1.c **** int c[w][h],d[w][h];
 2868              		.loc 3 372 1
 2869 1780 032604E0 		lw	a2,-512(s0)
 2870 1784 832544E0 		lw	a1,-508(s0)
 2871              		.loc 3 372 5
 2872 1788 B287     		mv	a5,a2
 2873 178a FD17     		addi	a5,a5,-1
 2874 178c 2330F4DE 		sd	a5,-544(s0)
 2875 1790 B287     		mv	a5,a2
 2876 1792 1387068A 		addi	a4,a3,-1888
 2877 1796 2297     		add	a4,a4,s0
 2878 1798 1CE3     		sd	a5,0(a4)
 2879 179a 9387868A 		addi	a5,a3,-1880
 2880 179e A297     		add	a5,a5,s0
 2881 17a0 23B00700 		sd	zero,0(a5)
 2882 17a4 9387068A 		addi	a5,a3,-1888
 2883 17a8 A297     		add	a5,a5,s0
 2884 17aa 9C63     		ld	a5,0(a5)
 2885 17ac ED93     		srli	a5,a5,59
 2886 17ae 1387868A 		addi	a4,a3,-1880
 2887 17b2 2297     		add	a4,a4,s0
 2888 17b4 1863     		ld	a4,0(a4)
 2889 17b6 1607     		slli	a4,a4,5
 2890 17b8 AA88     		mv	a7,a0
 2891 17ba 13858874 		addi	a0,a7,1864
 2892 17be 2295     		add	a0,a0,s0
 2893 17c0 18E1     		sd	a4,0(a0)
 2894 17c2 13878874 		addi	a4,a7,1864
 2895 17c6 2297     		add	a4,a4,s0
 2896 17c8 1863     		ld	a4,0(a4)
 2897 17ca D98F     		or	a5,a5,a4
 2898 17cc 13878874 		addi	a4,a7,1864
 2899 17d0 2297     		add	a4,a4,s0
 2900 17d2 1CE3     		sd	a5,0(a4)
 2901 17d4 9387068A 		addi	a5,a3,-1888
 2902 17d8 A297     		add	a5,a5,s0
 2903 17da 9C63     		ld	a5,0(a5)
 2904 17dc 9607     		slli	a5,a5,5
 2905 17de 13870874 		addi	a4,a7,1856
 2906 17e2 2297     		add	a4,a4,s0
 2907 17e4 1CE3     		sd	a5,0(a4)
 2908 17e6 AE87     		mv	a5,a1
 2909 17e8 FD17     		addi	a5,a5,-1
 2910 17ea 233CF4DC 		sd	a5,-552(s0)
 2911 17ee B287     		mv	a5,a2
 2912 17f0 138706A3 		addi	a4,a3,-1488
 2913 17f4 2297     		add	a4,a4,s0
 2914 17f6 1CE3     		sd	a5,0(a4)
 2915 17f8 938786A3 		addi	a5,a3,-1480
 2916 17fc A297     		add	a5,a5,s0
 2917 17fe 23B00700 		sd	zero,0(a5)
 2918 1802 AE87     		mv	a5,a1
 2919 1804 3685     		mv	a0,a3
 2920 1806 130705A2 		addi	a4,a0,-1504
 2921 180a 2297     		add	a4,a4,s0
 2922 180c 1CE3     		sd	a5,0(a4)
 2923 180e 930785A2 		addi	a5,a0,-1496
 2924 1812 A297     		add	a5,a5,s0
 2925 1814 23B00700 		sd	zero,0(a5)
 2926 1818 930785A3 		addi	a5,a0,-1480
 2927 181c A297     		add	a5,a5,s0
 2928 181e 9C63     		ld	a5,0(a5)
 2929 1820 130705A2 		addi	a4,a0,-1504
 2930 1824 2297     		add	a4,a4,s0
 2931 1826 1863     		ld	a4,0(a4)
 2932 1828 3387E702 		mul	a4,a5,a4
 2933 182c 930785A2 		addi	a5,a0,-1496
 2934 1830 A297     		add	a5,a5,s0
 2935 1832 9C63     		ld	a5,0(a5)
 2936 1834 930605A3 		addi	a3,a0,-1488
 2937 1838 A296     		add	a3,a3,s0
 2938 183a 9462     		ld	a3,0(a3)
 2939 183c B387D702 		mul	a5,a5,a3
 2940 1840 B306F700 		add	a3,a4,a5
 2941 1844 930705A3 		addi	a5,a0,-1488
 2942 1848 A297     		add	a5,a5,s0
 2943 184a 9C63     		ld	a5,0(a5)
 2944 184c 130705A2 		addi	a4,a0,-1504
 2945 1850 2297     		add	a4,a4,s0
 2946 1852 1863     		ld	a4,0(a4)
 2947 1854 3387E702 		mul	a4,a5,a4
 2948 1858 930705A3 		addi	a5,a0,-1488
 2949 185c A297     		add	a5,a5,s0
 2950 185e 9C63     		ld	a5,0(a5)
 2951 1860 2A88     		mv	a6,a0
 2952 1862 130505A2 		addi	a0,a0,-1504
 2953 1866 2295     		add	a0,a0,s0
 2954 1868 0861     		ld	a0,0(a0)
 2955 186a B3B7A702 		mulhu	a5,a5,a0
 2956 186e 130508C3 		addi	a0,a6,-976
 2957 1872 2295     		add	a0,a0,s0
 2958 1874 18E1     		sd	a4,0(a0)
 2959 1876 4287     		mv	a4,a6
 2960 1878 130587C3 		addi	a0,a4,-968
 2961 187c 2295     		add	a0,a0,s0
 2962 187e 1CE1     		sd	a5,0(a0)
 2963 1880 930787C3 		addi	a5,a4,-968
 2964 1884 A297     		add	a5,a5,s0
 2965 1886 9C63     		ld	a5,0(a5)
 2966 1888 B697     		add	a5,a3,a5
 2967 188a BA86     		mv	a3,a4
 2968 188c 138786C3 		addi	a4,a3,-968
 2969 1890 2297     		add	a4,a4,s0
 2970 1892 1CE3     		sd	a5,0(a4)
 2971 1894 938706C3 		addi	a5,a3,-976
 2972 1898 A297     		add	a5,a5,s0
 2973 189a 9C63     		ld	a5,0(a5)
 2974 189c ED93     		srli	a5,a5,59
 2975 189e 138786C3 		addi	a4,a3,-968
 2976 18a2 2297     		add	a4,a4,s0
 2977 18a4 1863     		ld	a4,0(a4)
 2978 18a6 1607     		slli	a4,a4,5
 2979 18a8 13858873 		addi	a0,a7,1848
 2980 18ac 2295     		add	a0,a0,s0
 2981 18ae 18E1     		sd	a4,0(a0)
 2982 18b0 13878873 		addi	a4,a7,1848
 2983 18b4 2297     		add	a4,a4,s0
 2984 18b6 1863     		ld	a4,0(a4)
 2985 18b8 D98F     		or	a5,a5,a4
 2986 18ba 13878873 		addi	a4,a7,1848
 2987 18be 2297     		add	a4,a4,s0
 2988 18c0 1CE3     		sd	a5,0(a4)
 2989 18c2 938706C3 		addi	a5,a3,-976
 2990 18c6 A297     		add	a5,a5,s0
 2991 18c8 9C63     		ld	a5,0(a5)
 2992 18ca 9607     		slli	a5,a5,5
 2993 18cc 13870873 		addi	a4,a7,1840
 2994 18d0 2297     		add	a4,a4,s0
 2995 18d2 1CE3     		sd	a5,0(a4)
 2996 18d4 B287     		mv	a5,a2
 2997 18d6 138706A1 		addi	a4,a3,-1520
 2998 18da 2297     		add	a4,a4,s0
 2999 18dc 1CE3     		sd	a5,0(a4)
 3000 18de 938786A1 		addi	a5,a3,-1512
 3001 18e2 A297     		add	a5,a5,s0
 3002 18e4 23B00700 		sd	zero,0(a5)
 3003 18e8 AE87     		mv	a5,a1
 3004 18ea 3685     		mv	a0,a3
 3005 18ec 130705A0 		addi	a4,a0,-1536
 3006 18f0 2297     		add	a4,a4,s0
 3007 18f2 1CE3     		sd	a5,0(a4)
 3008 18f4 930785A0 		addi	a5,a0,-1528
 3009 18f8 A297     		add	a5,a5,s0
 3010 18fa 23B00700 		sd	zero,0(a5)
 3011 18fe 930785A1 		addi	a5,a0,-1512
 3012 1902 A297     		add	a5,a5,s0
 3013 1904 9C63     		ld	a5,0(a5)
 3014 1906 130705A0 		addi	a4,a0,-1536
 3015 190a 2297     		add	a4,a4,s0
 3016 190c 1863     		ld	a4,0(a4)
 3017 190e 3387E702 		mul	a4,a5,a4
 3018 1912 930785A0 		addi	a5,a0,-1528
 3019 1916 A297     		add	a5,a5,s0
 3020 1918 9C63     		ld	a5,0(a5)
 3021 191a 930605A1 		addi	a3,a0,-1520
 3022 191e A296     		add	a3,a3,s0
 3023 1920 9462     		ld	a3,0(a3)
 3024 1922 B387D702 		mul	a5,a5,a3
 3025 1926 B306F700 		add	a3,a4,a5
 3026 192a 930705A1 		addi	a5,a0,-1520
 3027 192e A297     		add	a5,a5,s0
 3028 1930 9C63     		ld	a5,0(a5)
 3029 1932 130705A0 		addi	a4,a0,-1536
 3030 1936 2297     		add	a4,a4,s0
 3031 1938 1863     		ld	a4,0(a4)
 3032 193a 3387E702 		mul	a4,a5,a4
 3033 193e 930705A1 		addi	a5,a0,-1520
 3034 1942 A297     		add	a5,a5,s0
 3035 1944 9C63     		ld	a5,0(a5)
 3036 1946 2A88     		mv	a6,a0
 3037 1948 130505A0 		addi	a0,a0,-1536
 3038 194c 2295     		add	a0,a0,s0
 3039 194e 0861     		ld	a0,0(a0)
 3040 1950 B3B7A702 		mulhu	a5,a5,a0
 3041 1954 130508C2 		addi	a0,a6,-992
 3042 1958 2295     		add	a0,a0,s0
 3043 195a 18E1     		sd	a4,0(a0)
 3044 195c 4287     		mv	a4,a6
 3045 195e 130587C2 		addi	a0,a4,-984
 3046 1962 2295     		add	a0,a0,s0
 3047 1964 1CE1     		sd	a5,0(a0)
 3048 1966 930787C2 		addi	a5,a4,-984
 3049 196a A297     		add	a5,a5,s0
 3050 196c 9C63     		ld	a5,0(a5)
 3051 196e B697     		add	a5,a3,a5
 3052 1970 BA86     		mv	a3,a4
 3053 1972 138786C2 		addi	a4,a3,-984
 3054 1976 2297     		add	a4,a4,s0
 3055 1978 1CE3     		sd	a5,0(a4)
 3056 197a 938706C2 		addi	a5,a3,-992
 3057 197e A297     		add	a5,a5,s0
 3058 1980 9C63     		ld	a5,0(a5)
 3059 1982 ED93     		srli	a5,a5,59
 3060 1984 138786C2 		addi	a4,a3,-984
 3061 1988 2297     		add	a4,a4,s0
 3062 198a 1863     		ld	a4,0(a4)
 3063 198c 1607     		slli	a4,a4,5
 3064 198e 4685     		mv	a0,a7
 3065 1990 13088572 		addi	a6,a0,1832
 3066 1994 2298     		add	a6,a6,s0
 3067 1996 2330E800 		sd	a4,0(a6)
 3068 199a 13078572 		addi	a4,a0,1832
 3069 199e 2297     		add	a4,a4,s0
 3070 19a0 1863     		ld	a4,0(a4)
 3071 19a2 D98F     		or	a5,a5,a4
 3072 19a4 13078572 		addi	a4,a0,1832
 3073 19a8 2297     		add	a4,a4,s0
 3074 19aa 1CE3     		sd	a5,0(a4)
 3075 19ac 938706C2 		addi	a5,a3,-992
 3076 19b0 A297     		add	a5,a5,s0
 3077 19b2 9C63     		ld	a5,0(a5)
 3078 19b4 9607     		slli	a5,a5,5
 3079 19b6 13070572 		addi	a4,a0,1824
 3080 19ba 2297     		add	a4,a4,s0
 3081 19bc 1CE3     		sd	a5,0(a4)
 3082 19be 3287     		mv	a4,a2
 3083 19c0 AE87     		mv	a5,a1
 3084 19c2 B307F702 		mul	a5,a4,a5
 3085 19c6 8A07     		slli	a5,a5,2
 3086 19c8 BD07     		addi	a5,a5,15
 3087 19ca 9183     		srli	a5,a5,4
 3088 19cc 9207     		slli	a5,a5,4
 3089 19ce 3301F140 		sub	sp,sp,a5
 3090 19d2 8A87     		mv	a5,sp
 3091 19d4 8D07     		addi	a5,a5,3
 3092 19d6 8983     		srli	a5,a5,2
 3093 19d8 8A07     		slli	a5,a5,2
 3094 19da 2338F4DC 		sd	a5,-560(s0)
 3095              		.loc 3 372 1
 3096 19de 032604E0 		lw	a2,-512(s0)
 3097 19e2 832544E0 		lw	a1,-508(s0)
 3098              		.loc 3 372 13
 3099 19e6 B287     		mv	a5,a2
 3100 19e8 FD17     		addi	a5,a5,-1
 3101 19ea 2334F4DC 		sd	a5,-568(s0)
 3102 19ee B287     		mv	a5,a2
 3103 19f0 13870689 		addi	a4,a3,-1904
 3104 19f4 2297     		add	a4,a4,s0
 3105 19f6 1CE3     		sd	a5,0(a4)
 3106 19f8 93878689 		addi	a5,a3,-1896
 3107 19fc A297     		add	a5,a5,s0
 3108 19fe 23B00700 		sd	zero,0(a5)
 3109 1a02 93870689 		addi	a5,a3,-1904
 3110 1a06 A297     		add	a5,a5,s0
 3111 1a08 9C63     		ld	a5,0(a5)
 3112 1a0a ED93     		srli	a5,a5,59
 3113 1a0c 13878689 		addi	a4,a3,-1896
 3114 1a10 2297     		add	a4,a4,s0
 3115 1a12 1863     		ld	a4,0(a4)
 3116 1a14 1607     		slli	a4,a4,5
 3117 1a16 AA88     		mv	a7,a0
 3118 1a18 13858871 		addi	a0,a7,1816
 3119 1a1c 2295     		add	a0,a0,s0
 3120 1a1e 18E1     		sd	a4,0(a0)
 3121 1a20 13878871 		addi	a4,a7,1816
 3122 1a24 2297     		add	a4,a4,s0
 3123 1a26 1863     		ld	a4,0(a4)
 3124 1a28 D98F     		or	a5,a5,a4
 3125 1a2a 13878871 		addi	a4,a7,1816
 3126 1a2e 2297     		add	a4,a4,s0
 3127 1a30 1CE3     		sd	a5,0(a4)
 3128 1a32 93870689 		addi	a5,a3,-1904
 3129 1a36 A297     		add	a5,a5,s0
 3130 1a38 9C63     		ld	a5,0(a5)
 3131 1a3a 9607     		slli	a5,a5,5
 3132 1a3c 13870871 		addi	a4,a7,1808
 3133 1a40 2297     		add	a4,a4,s0
 3134 1a42 1CE3     		sd	a5,0(a4)
 3135 1a44 B287     		mv	a5,a2
 3136 1a46 13992700 		slli	s2,a5,2
 3137 1a4a AE87     		mv	a5,a1
 3138 1a4c FD17     		addi	a5,a5,-1
 3139 1a4e 2330F4DC 		sd	a5,-576(s0)
 3140 1a52 B287     		mv	a5,a2
 3141 1a54 1387069F 		addi	a4,a3,-1552
 3142 1a58 2297     		add	a4,a4,s0
 3143 1a5a 1CE3     		sd	a5,0(a4)
 3144 1a5c 9387869F 		addi	a5,a3,-1544
 3145 1a60 A297     		add	a5,a5,s0
 3146 1a62 23B00700 		sd	zero,0(a5)
 3147 1a66 AE87     		mv	a5,a1
 3148 1a68 3685     		mv	a0,a3
 3149 1a6a 1307059E 		addi	a4,a0,-1568
 3150 1a6e 2297     		add	a4,a4,s0
 3151 1a70 1CE3     		sd	a5,0(a4)
 3152 1a72 9307859E 		addi	a5,a0,-1560
 3153 1a76 A297     		add	a5,a5,s0
 3154 1a78 23B00700 		sd	zero,0(a5)
 3155 1a7c 9307859F 		addi	a5,a0,-1544
 3156 1a80 A297     		add	a5,a5,s0
 3157 1a82 9C63     		ld	a5,0(a5)
 3158 1a84 1307059E 		addi	a4,a0,-1568
 3159 1a88 2297     		add	a4,a4,s0
 3160 1a8a 1863     		ld	a4,0(a4)
 3161 1a8c 3387E702 		mul	a4,a5,a4
 3162 1a90 9307859E 		addi	a5,a0,-1560
 3163 1a94 A297     		add	a5,a5,s0
 3164 1a96 9C63     		ld	a5,0(a5)
 3165 1a98 9306059F 		addi	a3,a0,-1552
 3166 1a9c A296     		add	a3,a3,s0
 3167 1a9e 9462     		ld	a3,0(a3)
 3168 1aa0 B387D702 		mul	a5,a5,a3
 3169 1aa4 B306F700 		add	a3,a4,a5
 3170 1aa8 9307059F 		addi	a5,a0,-1552
 3171 1aac A297     		add	a5,a5,s0
 3172 1aae 9C63     		ld	a5,0(a5)
 3173 1ab0 1307059E 		addi	a4,a0,-1568
 3174 1ab4 2297     		add	a4,a4,s0
 3175 1ab6 1863     		ld	a4,0(a4)
 3176 1ab8 3387E702 		mul	a4,a5,a4
 3177 1abc 9307059F 		addi	a5,a0,-1552
 3178 1ac0 A297     		add	a5,a5,s0
 3179 1ac2 9C63     		ld	a5,0(a5)
 3180 1ac4 2A88     		mv	a6,a0
 3181 1ac6 1305059E 		addi	a0,a0,-1568
 3182 1aca 2295     		add	a0,a0,s0
 3183 1acc 0861     		ld	a0,0(a0)
 3184 1ace B3B7A702 		mulhu	a5,a5,a0
 3185 1ad2 130508C1 		addi	a0,a6,-1008
 3186 1ad6 2295     		add	a0,a0,s0
 3187 1ad8 18E1     		sd	a4,0(a0)
 3188 1ada 4287     		mv	a4,a6
 3189 1adc 130587C1 		addi	a0,a4,-1000
 3190 1ae0 2295     		add	a0,a0,s0
 3191 1ae2 1CE1     		sd	a5,0(a0)
 3192 1ae4 930787C1 		addi	a5,a4,-1000
 3193 1ae8 A297     		add	a5,a5,s0
 3194 1aea 9C63     		ld	a5,0(a5)
 3195 1aec B697     		add	a5,a3,a5
 3196 1aee BA86     		mv	a3,a4
 3197 1af0 138786C1 		addi	a4,a3,-1000
 3198 1af4 2297     		add	a4,a4,s0
 3199 1af6 1CE3     		sd	a5,0(a4)
 3200 1af8 938706C1 		addi	a5,a3,-1008
 3201 1afc A297     		add	a5,a5,s0
 3202 1afe 9C63     		ld	a5,0(a5)
 3203 1b00 ED93     		srli	a5,a5,59
 3204 1b02 138786C1 		addi	a4,a3,-1000
 3205 1b06 2297     		add	a4,a4,s0
 3206 1b08 1863     		ld	a4,0(a4)
 3207 1b0a 1607     		slli	a4,a4,5
 3208 1b0c 13858870 		addi	a0,a7,1800
 3209 1b10 2295     		add	a0,a0,s0
 3210 1b12 18E1     		sd	a4,0(a0)
 3211 1b14 13878870 		addi	a4,a7,1800
 3212 1b18 2297     		add	a4,a4,s0
 3213 1b1a 1863     		ld	a4,0(a4)
 3214 1b1c D98F     		or	a5,a5,a4
 3215 1b1e 13878870 		addi	a4,a7,1800
 3216 1b22 2297     		add	a4,a4,s0
 3217 1b24 1CE3     		sd	a5,0(a4)
 3218 1b26 938706C1 		addi	a5,a3,-1008
 3219 1b2a A297     		add	a5,a5,s0
 3220 1b2c 9C63     		ld	a5,0(a5)
 3221 1b2e 9607     		slli	a5,a5,5
 3222 1b30 13870870 		addi	a4,a7,1792
 3223 1b34 2297     		add	a4,a4,s0
 3224 1b36 1CE3     		sd	a5,0(a4)
 3225 1b38 B287     		mv	a5,a2
 3226 1b3a 1387069D 		addi	a4,a3,-1584
 3227 1b3e 2297     		add	a4,a4,s0
 3228 1b40 1CE3     		sd	a5,0(a4)
 3229 1b42 9387869D 		addi	a5,a3,-1576
 3230 1b46 A297     		add	a5,a5,s0
 3231 1b48 23B00700 		sd	zero,0(a5)
 3232 1b4c AE87     		mv	a5,a1
 3233 1b4e 3685     		mv	a0,a3
 3234 1b50 1307059C 		addi	a4,a0,-1600
 3235 1b54 2297     		add	a4,a4,s0
 3236 1b56 1CE3     		sd	a5,0(a4)
 3237 1b58 9307859C 		addi	a5,a0,-1592
 3238 1b5c A297     		add	a5,a5,s0
 3239 1b5e 23B00700 		sd	zero,0(a5)
 3240 1b62 9307859D 		addi	a5,a0,-1576
 3241 1b66 A297     		add	a5,a5,s0
 3242 1b68 9C63     		ld	a5,0(a5)
 3243 1b6a 1307059C 		addi	a4,a0,-1600
 3244 1b6e 2297     		add	a4,a4,s0
 3245 1b70 1863     		ld	a4,0(a4)
 3246 1b72 3387E702 		mul	a4,a5,a4
 3247 1b76 9307859C 		addi	a5,a0,-1592
 3248 1b7a A297     		add	a5,a5,s0
 3249 1b7c 9C63     		ld	a5,0(a5)
 3250 1b7e 9306059D 		addi	a3,a0,-1584
 3251 1b82 A296     		add	a3,a3,s0
 3252 1b84 9462     		ld	a3,0(a3)
 3253 1b86 B387D702 		mul	a5,a5,a3
 3254 1b8a B306F700 		add	a3,a4,a5
