   1              		.file	"mss_sgmii.c"
   2              		.option nopic
   3              		.attribute arch, "rv64i2p0_m2p0_a2p0_f2p0_d2p0_c2p0"
   4              		.attribute unaligned_access, 0
   5              		.attribute stack_align, 16
   6              		.text
   7              	.Ltext0:
   8              		.cfi_sections	.debug_frame
   9              		.section	.sbss.silicon_variant,"aw",@nobits
  10              		.align	2
  13              	silicon_variant:
  14 0000 00000000 		.zero	4
  15              		.section	.sbss.sro_dll_90_code,"aw",@nobits
  16              		.align	2
  19              	sro_dll_90_code:
  20 0000 00000000 		.zero	4
  21              		.section	.text.sgmii_setup,"ax",@progbits
  22              		.align	1
  23              		.globl	sgmii_setup
  25              	sgmii_setup:
  26              	.LFB23:
  27              		.file 1 "../src/platform/mpfs_hal/common/nwc/mss_sgmii.c"
   1:../src/platform/mpfs_hal/common/nwc/mss_sgmii.c **** /*******************************************************************************
   2:../src/platform/mpfs_hal/common/nwc/mss_sgmii.c ****  * Copyright 2019-2022 Microchip FPGA Embedded Systems Solutions.
   3:../src/platform/mpfs_hal/common/nwc/mss_sgmii.c ****  *
   4:../src/platform/mpfs_hal/common/nwc/mss_sgmii.c ****  * SPDX-License-Identifier: MIT
   5:../src/platform/mpfs_hal/common/nwc/mss_sgmii.c ****  *
   6:../src/platform/mpfs_hal/common/nwc/mss_sgmii.c ****  * MPFS HAL Embedded Software
   7:../src/platform/mpfs_hal/common/nwc/mss_sgmii.c ****  *
   8:../src/platform/mpfs_hal/common/nwc/mss_sgmii.c ****  */
   9:../src/platform/mpfs_hal/common/nwc/mss_sgmii.c **** 
  10:../src/platform/mpfs_hal/common/nwc/mss_sgmii.c **** /*******************************************************************************
  11:../src/platform/mpfs_hal/common/nwc/mss_sgmii.c ****  * @file mss_sgmii.c
  12:../src/platform/mpfs_hal/common/nwc/mss_sgmii.c ****  * @author Microchip-FPGA Embedded Systems Solutions
  13:../src/platform/mpfs_hal/common/nwc/mss_sgmii.c ****  * @brief sgmii related functions
  14:../src/platform/mpfs_hal/common/nwc/mss_sgmii.c ****  *
  15:../src/platform/mpfs_hal/common/nwc/mss_sgmii.c ****  */
  16:../src/platform/mpfs_hal/common/nwc/mss_sgmii.c **** 
  17:../src/platform/mpfs_hal/common/nwc/mss_sgmii.c **** #include <string.h>
  18:../src/platform/mpfs_hal/common/nwc/mss_sgmii.c **** #include <stdio.h>
  19:../src/platform/mpfs_hal/common/nwc/mss_sgmii.c **** #include "mpfs_hal/mss_hal.h"
  20:../src/platform/mpfs_hal/common/nwc/mss_sgmii.c **** #include "simulation.h"
  21:../src/platform/mpfs_hal/common/nwc/mss_sgmii.c **** 
  22:../src/platform/mpfs_hal/common/nwc/mss_sgmii.c **** #ifdef  MPFS_HAL_HW_CONFIG
  23:../src/platform/mpfs_hal/common/nwc/mss_sgmii.c **** 
  24:../src/platform/mpfs_hal/common/nwc/mss_sgmii.c **** static PART_TYPE silicon_variant = PART_NOT_DETERMINED;
  25:../src/platform/mpfs_hal/common/nwc/mss_sgmii.c **** 
  26:../src/platform/mpfs_hal/common/nwc/mss_sgmii.c **** /*
  27:../src/platform/mpfs_hal/common/nwc/mss_sgmii.c ****  * local functions
  28:../src/platform/mpfs_hal/common/nwc/mss_sgmii.c ****  */
  29:../src/platform/mpfs_hal/common/nwc/mss_sgmii.c **** static void setup_sgmii_rpc_per_config(void);
  30:../src/platform/mpfs_hal/common/nwc/mss_sgmii.c **** #ifdef SGMII_SUPPORT
  31:../src/platform/mpfs_hal/common/nwc/mss_sgmii.c **** static uint32_t sgmii_channel_setup(void);
  32:../src/platform/mpfs_hal/common/nwc/mss_sgmii.c **** #endif
  33:../src/platform/mpfs_hal/common/nwc/mss_sgmii.c **** 
  34:../src/platform/mpfs_hal/common/nwc/mss_sgmii.c **** /*
  35:../src/platform/mpfs_hal/common/nwc/mss_sgmii.c ****  * local variable
  36:../src/platform/mpfs_hal/common/nwc/mss_sgmii.c ****  */
  37:../src/platform/mpfs_hal/common/nwc/mss_sgmii.c **** static uint32_t sro_dll_90_code;
  38:../src/platform/mpfs_hal/common/nwc/mss_sgmii.c **** 
  39:../src/platform/mpfs_hal/common/nwc/mss_sgmii.c **** /*
  40:../src/platform/mpfs_hal/common/nwc/mss_sgmii.c ****  * local functions
  41:../src/platform/mpfs_hal/common/nwc/mss_sgmii.c ****  */
  42:../src/platform/mpfs_hal/common/nwc/mss_sgmii.c **** static void set_early_late_thresholds(uint8_t n_late_threshold, uint8_t p_early_threshold);
  43:../src/platform/mpfs_hal/common/nwc/mss_sgmii.c **** 
  44:../src/platform/mpfs_hal/common/nwc/mss_sgmii.c **** /*
  45:../src/platform/mpfs_hal/common/nwc/mss_sgmii.c ****  * extern functions
  46:../src/platform/mpfs_hal/common/nwc/mss_sgmii.c ****  */
  47:../src/platform/mpfs_hal/common/nwc/mss_sgmii.c **** extern void sgmii_mux_config(uint8_t option);
  48:../src/platform/mpfs_hal/common/nwc/mss_sgmii.c **** 
  49:../src/platform/mpfs_hal/common/nwc/mss_sgmii.c **** 
  50:../src/platform/mpfs_hal/common/nwc/mss_sgmii.c **** uint32_t sgmii_setup(void)
  51:../src/platform/mpfs_hal/common/nwc/mss_sgmii.c **** {
  28              		.loc 1 51 1
  29              		.cfi_startproc
  30 0000 4111     		addi	sp,sp,-16
  31              		.cfi_def_cfa_offset 16
  32 0002 06E4     		sd	ra,8(sp)
  33 0004 22E0     		sd	s0,0(sp)
  34              		.cfi_offset 1, -8
  35              		.cfi_offset 8, -16
  36 0006 0008     		addi	s0,sp,16
  37              		.cfi_def_cfa 8, 0
  52:../src/platform/mpfs_hal/common/nwc/mss_sgmii.c **** #ifdef SGMII_SUPPORT
  53:../src/platform/mpfs_hal/common/nwc/mss_sgmii.c ****     /*
  54:../src/platform/mpfs_hal/common/nwc/mss_sgmii.c ****      * Check if any tx/Rx channels enabled
  55:../src/platform/mpfs_hal/common/nwc/mss_sgmii.c ****      */
  56:../src/platform/mpfs_hal/common/nwc/mss_sgmii.c ****     if((LIBERO_SETTING_SGMII_MODE & (TX_RX_CH_EN_MASK<<TX_RX_CH_EN_OFFSET)) != 0U)
  57:../src/platform/mpfs_hal/common/nwc/mss_sgmii.c ****     {
  58:../src/platform/mpfs_hal/common/nwc/mss_sgmii.c ****         while (sgmii_channel_setup() != 0)
  38              		.loc 1 58 15
  39 0008 0100     		nop
  40              	.L2:
  41              		.loc 1 58 16 discriminator 1
  42 000a 97000000 		call	sgmii_channel_setup
  42      E7800000 
  43 0012 AA87     		mv	a5,a0
  44 0014 8127     		sext.w	a5,a5
  45              		.loc 1 58 15 discriminator 1
  46 0016 F5FB     		bne	a5,zero,.L2
  59:../src/platform/mpfs_hal/common/nwc/mss_sgmii.c ****         {
  60:../src/platform/mpfs_hal/common/nwc/mss_sgmii.c **** 
  61:../src/platform/mpfs_hal/common/nwc/mss_sgmii.c ****         }
  62:../src/platform/mpfs_hal/common/nwc/mss_sgmii.c ****     }
  63:../src/platform/mpfs_hal/common/nwc/mss_sgmii.c ****     else
  64:../src/platform/mpfs_hal/common/nwc/mss_sgmii.c ****     {
  65:../src/platform/mpfs_hal/common/nwc/mss_sgmii.c ****         sgmii_off_mode();
  66:../src/platform/mpfs_hal/common/nwc/mss_sgmii.c ****         sgmii_mux_config(RPC_REG_UPDATE);
  67:../src/platform/mpfs_hal/common/nwc/mss_sgmii.c ****     }
  68:../src/platform/mpfs_hal/common/nwc/mss_sgmii.c **** #else
  69:../src/platform/mpfs_hal/common/nwc/mss_sgmii.c ****     {
  70:../src/platform/mpfs_hal/common/nwc/mss_sgmii.c ****         sgmii_off_mode();
  71:../src/platform/mpfs_hal/common/nwc/mss_sgmii.c ****         sgmii_mux_config(RPC_REG_UPDATE);
  72:../src/platform/mpfs_hal/common/nwc/mss_sgmii.c ****     }
  73:../src/platform/mpfs_hal/common/nwc/mss_sgmii.c **** #endif
  74:../src/platform/mpfs_hal/common/nwc/mss_sgmii.c ****     return(0UL);
  47              		.loc 1 74 11
  48 0018 8147     		li	a5,0
  75:../src/platform/mpfs_hal/common/nwc/mss_sgmii.c **** }
  49              		.loc 1 75 1
  50 001a 3E85     		mv	a0,a5
  51 001c A260     		ld	ra,8(sp)
  52              		.cfi_restore 1
  53 001e 0264     		ld	s0,0(sp)
  54              		.cfi_restore 8
  55              		.cfi_def_cfa 2, 16
  56 0020 4101     		addi	sp,sp,16
  57              		.cfi_def_cfa_offset 0
  58 0022 8280     		jr	ra
  59              		.cfi_endproc
  60              	.LFE23:
  62              		.section	.text.sgmii_channel_setup,"ax",@progbits
  63              		.align	1
  65              	sgmii_channel_setup:
  66              	.LFB24:
  76:../src/platform/mpfs_hal/common/nwc/mss_sgmii.c **** 
  77:../src/platform/mpfs_hal/common/nwc/mss_sgmii.c **** 
  78:../src/platform/mpfs_hal/common/nwc/mss_sgmii.c **** /**
  79:../src/platform/mpfs_hal/common/nwc/mss_sgmii.c ****  *
  80:../src/platform/mpfs_hal/common/nwc/mss_sgmii.c ****  * @param sgmii_instruction
  81:../src/platform/mpfs_hal/common/nwc/mss_sgmii.c ****  * @return
  82:../src/platform/mpfs_hal/common/nwc/mss_sgmii.c ****  */
  83:../src/platform/mpfs_hal/common/nwc/mss_sgmii.c **** #ifdef SGMII_SUPPORT
  84:../src/platform/mpfs_hal/common/nwc/mss_sgmii.c **** static uint32_t sgmii_channel_setup(void)
  85:../src/platform/mpfs_hal/common/nwc/mss_sgmii.c **** {
  67              		.loc 1 85 1
  68              		.cfi_startproc
  69 0000 4111     		addi	sp,sp,-16
  70              		.cfi_def_cfa_offset 16
  71 0002 06E4     		sd	ra,8(sp)
  72 0004 22E0     		sd	s0,0(sp)
  73              		.cfi_offset 1, -8
  74              		.cfi_offset 8, -16
  75 0006 0008     		addi	s0,sp,16
  76              		.cfi_def_cfa 8, 0
  86:../src/platform/mpfs_hal/common/nwc/mss_sgmii.c ****     static SGMII_TRAINING_SM sgmii_training_state = SGMII_SETUP_INIT;
  87:../src/platform/mpfs_hal/common/nwc/mss_sgmii.c ****     static uint32_t status = SGMII_IN_SETUP;
  88:../src/platform/mpfs_hal/common/nwc/mss_sgmii.c ****     static uint32_t timer_out;
  89:../src/platform/mpfs_hal/common/nwc/mss_sgmii.c **** 
  90:../src/platform/mpfs_hal/common/nwc/mss_sgmii.c ****     /*
  91:../src/platform/mpfs_hal/common/nwc/mss_sgmii.c ****      * Initialise NWC
  92:../src/platform/mpfs_hal/common/nwc/mss_sgmii.c ****      *      Clocks
  93:../src/platform/mpfs_hal/common/nwc/mss_sgmii.c ****      *      SGMII
  94:../src/platform/mpfs_hal/common/nwc/mss_sgmii.c ****      *      DDR
  95:../src/platform/mpfs_hal/common/nwc/mss_sgmii.c ****      *      IOMUX
  96:../src/platform/mpfs_hal/common/nwc/mss_sgmii.c ****      */
  97:../src/platform/mpfs_hal/common/nwc/mss_sgmii.c **** 
  98:../src/platform/mpfs_hal/common/nwc/mss_sgmii.c ****     switch(sgmii_training_state)
  77              		.loc 1 98 5
  78 0008 97070000 		lla	a5,sgmii_training_state.14156
  78      93870700 
  79 0010 9C43     		lw	a5,0(a5)
  80 0012 BE86     		mv	a3,a5
  81 0014 3947     		li	a4,14
  82 0016 636BD750 		bgtu	a3,a4,.L5
  83 001a 13972700 		slli	a4,a5,2
  84 001e 97070000 		lla	a5,.L7
  84      93870700 
  85 0026 BA97     		add	a5,a4,a5
  86 0028 9C43     		lw	a5,0(a5)
  87 002a 1B870700 		sext.w	a4,a5
  88 002e 97070000 		lla	a5,.L7
  88      93870700 
  89 0036 BA97     		add	a5,a4,a5
  90 0038 8287     		jr	a5
  91              		.section	.rodata.sgmii_channel_setup,"a",@progbits
  92              		.align	2
  93              		.align	2
  94              	.L7:
  95 0000 00000000 		.word	.L21-.L7
  96 0004 00000000 		.word	.L20-.L7
  97 0008 00000000 		.word	.L19-.L7
  98 000c 00000000 		.word	.L18-.L7
  99 0010 00000000 		.word	.L17-.L7
 100 0014 00000000 		.word	.L16-.L7
 101 0018 00000000 		.word	.L15-.L7
 102 001c 00000000 		.word	.L14-.L7
 103 0020 00000000 		.word	.L13-.L7
 104 0024 00000000 		.word	.L12-.L7
 105 0028 00000000 		.word	.L11-.L7
 106 002c 00000000 		.word	.L10-.L7
 107 0030 00000000 		.word	.L9-.L7
 108 0034 00000000 		.word	.L8-.L7
 109 0038 00000000 		.word	.L6-.L7
 110              		.section	.text.sgmii_channel_setup
 111              	.L21:
  99:../src/platform/mpfs_hal/common/nwc/mss_sgmii.c ****     {
 100:../src/platform/mpfs_hal/common/nwc/mss_sgmii.c ****         case SGMII_SETUP_INIT:
 101:../src/platform/mpfs_hal/common/nwc/mss_sgmii.c ****             status = SGMII_IN_SETUP;
 112              		.loc 1 101 20
 113 003a 97070000 		lla	a5,status.14157
 113      93870700 
 114 0042 0547     		li	a4,1
 115 0044 98C3     		sw	a4,0(a5)
 102:../src/platform/mpfs_hal/common/nwc/mss_sgmii.c ****             CFG_DDR_SGMII_PHY->SOFT_RESET_SGMII.SOFT_RESET_SGMII = \
 116              		.loc 1 102 30
 117 0046 97070000 		lla	a5,CFG_DDR_SGMII_PHY
 117      93870700 
 118 004e 9863     		ld	a4,0(a5)
 119              		.loc 1 102 66
 120 0050 8567     		li	a5,4096
 121 0052 BA97     		add	a5,a4,a5
 122 0054 13071010 		li	a4,257
 123 0058 23A0E7C0 		sw	a4,-1024(a5)
 103:../src/platform/mpfs_hal/common/nwc/mss_sgmii.c ****                     (0x01 << 8U) | 1U; /* PERIPH   soft reset */
 104:../src/platform/mpfs_hal/common/nwc/mss_sgmii.c ****             CFG_DDR_SGMII_PHY->SOFT_RESET_SGMII.SOFT_RESET_SGMII = 1U;
 124              		.loc 1 104 30
 125 005c 97070000 		lla	a5,CFG_DDR_SGMII_PHY
 125      93870700 
 126 0064 9863     		ld	a4,0(a5)
 127              		.loc 1 104 66
 128 0066 8567     		li	a5,4096
 129 0068 BA97     		add	a5,a4,a5
 130 006a 0547     		li	a4,1
 131 006c 23A0E7C0 		sw	a4,-1024(a5)
 105:../src/platform/mpfs_hal/common/nwc/mss_sgmii.c ****             setup_sgmii_rpc_per_config();         /* load RPC SGMII_MODE register ext */
 132              		.loc 1 105 13
 133 0070 97000000 		call	setup_sgmii_rpc_per_config
 133      E7800000 
 106:../src/platform/mpfs_hal/common/nwc/mss_sgmii.c **** 
 107:../src/platform/mpfs_hal/common/nwc/mss_sgmii.c ****             /* Enable the Bank controller */
 108:../src/platform/mpfs_hal/common/nwc/mss_sgmii.c ****             /*
 109:../src/platform/mpfs_hal/common/nwc/mss_sgmii.c ****              * Set soft reset on IP to load RPC to SCB regs (dynamic mode)
 110:../src/platform/mpfs_hal/common/nwc/mss_sgmii.c ****              * Bring the sgmii bank controller out of reset =- ioscb_bank_ctrl_sgmii
 111:../src/platform/mpfs_hal/common/nwc/mss_sgmii.c ****              */
 112:../src/platform/mpfs_hal/common/nwc/mss_sgmii.c ****             IOSCB_BANK_CNTL_SGMII->soft_reset = 1U;  /* DPC_BITS NV_MAP  reset */
 134              		.loc 1 112 34
 135 0078 B707403E 		li	a5,1044381696
 136              		.loc 1 112 47
 137 007c 0547     		li	a4,1
 138 007e 98C3     		sw	a4,0(a5)
 113:../src/platform/mpfs_hal/common/nwc/mss_sgmii.c ****             sgmii_training_state = SGMII_IO_EN;
 139              		.loc 1 113 34
 140 0080 97070000 		lla	a5,sgmii_training_state.14156
 140      93870700 
 141 0088 0547     		li	a4,1
 142 008a 98C3     		sw	a4,0(a5)
 114:../src/platform/mpfs_hal/common/nwc/mss_sgmii.c ****             break;
 143              		.loc 1 114 13
 144 008c 45A1     		j	.L5
 145              	.L20:
 115:../src/platform/mpfs_hal/common/nwc/mss_sgmii.c **** 
 116:../src/platform/mpfs_hal/common/nwc/mss_sgmii.c ****         case SGMII_IO_EN:
 117:../src/platform/mpfs_hal/common/nwc/mss_sgmii.c ****             /*
 118:../src/platform/mpfs_hal/common/nwc/mss_sgmii.c ****              * Check the IO_EN signal here.
 119:../src/platform/mpfs_hal/common/nwc/mss_sgmii.c ****              * This is an output from the bank controller power detector, which are
 120:../src/platform/mpfs_hal/common/nwc/mss_sgmii.c ****              * turned on using MSS_IO_EN
 121:../src/platform/mpfs_hal/common/nwc/mss_sgmii.c ****              */
 122:../src/platform/mpfs_hal/common/nwc/mss_sgmii.c ****             /* aro_ioen_bnk  - PVT calibrator IOEN  */
 123:../src/platform/mpfs_hal/common/nwc/mss_sgmii.c ****             timer_out++;
 146              		.loc 1 123 22
 147 008e 97070000 		lla	a5,timer_out.14158
 147      93870700 
 148 0096 9C43     		lw	a5,0(a5)
 149 0098 8527     		addiw	a5,a5,1
 150 009a 1B870700 		sext.w	a4,a5
 151 009e 97070000 		lla	a5,timer_out.14158
 151      93870700 
 152 00a6 98C3     		sw	a4,0(a5)
 124:../src/platform/mpfs_hal/common/nwc/mss_sgmii.c ****             if((CFG_DDR_SGMII_PHY->PVT_STAT.PVT_STAT & (0x01U<<6U)) != 0U)
 153              		.loc 1 124 34
 154 00a8 97070000 		lla	a5,CFG_DDR_SGMII_PHY
 154      93870700 
 155 00b0 9863     		ld	a4,0(a5)
 156              		.loc 1 124 44
 157 00b2 8567     		li	a5,4096
 158 00b4 BA97     		add	a5,a4,a5
 159 00b6 83A707C2 		lw	a5,-992(a5)
 160 00ba 8127     		sext.w	a5,a5
 161              		.loc 1 124 54
 162 00bc 93F70704 		andi	a5,a5,64
 163 00c0 8127     		sext.w	a5,a5
 164              		.loc 1 124 15
 165 00c2 638A0744 		beq	a5,zero,.L36
 125:../src/platform/mpfs_hal/common/nwc/mss_sgmii.c ****             {
 126:../src/platform/mpfs_hal/common/nwc/mss_sgmii.c ****                 timer_out=0U;
 166              		.loc 1 126 26
 167 00c6 97070000 		lla	a5,timer_out.14158
 167      93870700 
 168 00ce 23A00700 		sw	zero,0(a5)
 127:../src/platform/mpfs_hal/common/nwc/mss_sgmii.c ****                 sgmii_training_state = SGMII_RAMP_TIMER;
 169              		.loc 1 127 38
 170 00d2 97070000 		lla	a5,sgmii_training_state.14156
 170      93870700 
 171 00da 0947     		li	a4,2
 172 00dc 98C3     		sw	a4,0(a5)
 128:../src/platform/mpfs_hal/common/nwc/mss_sgmii.c ****             }
 129:../src/platform/mpfs_hal/common/nwc/mss_sgmii.c ****             break;
 173              		.loc 1 129 13
 174 00de 25A9     		j	.L36
 175              	.L19:
 130:../src/platform/mpfs_hal/common/nwc/mss_sgmii.c **** 
 131:../src/platform/mpfs_hal/common/nwc/mss_sgmii.c ****         case SGMII_RAMP_TIMER:
 132:../src/platform/mpfs_hal/common/nwc/mss_sgmii.c ****             /*
 133:../src/platform/mpfs_hal/common/nwc/mss_sgmii.c ****              * IO power ramp wait time
 134:../src/platform/mpfs_hal/common/nwc/mss_sgmii.c ****              * After IOEN is received from power detectors DDR and SGMii, extra time
 135:../src/platform/mpfs_hal/common/nwc/mss_sgmii.c ****              * required for voltage to ramp.
 136:../src/platform/mpfs_hal/common/nwc/mss_sgmii.c ****              * This time will come from the user- Dependent on ramp time of power
 137:../src/platform/mpfs_hal/common/nwc/mss_sgmii.c ****              * supply
 138:../src/platform/mpfs_hal/common/nwc/mss_sgmii.c ****              * Approximately - Bank power timer (from ioen_in to ioen_out = 10uS)?
 139:../src/platform/mpfs_hal/common/nwc/mss_sgmii.c ****              *
 140:../src/platform/mpfs_hal/common/nwc/mss_sgmii.c ****              */
 141:../src/platform/mpfs_hal/common/nwc/mss_sgmii.c ****             timer_out++;
 176              		.loc 1 141 22
 177 00e0 97070000 		lla	a5,timer_out.14158
 177      93870700 
 178 00e8 9C43     		lw	a5,0(a5)
 179 00ea 8527     		addiw	a5,a5,1
 180 00ec 1B870700 		sext.w	a4,a5
 181 00f0 97070000 		lla	a5,timer_out.14158
 181      93870700 
 182 00f8 98C3     		sw	a4,0(a5)
 142:../src/platform/mpfs_hal/common/nwc/mss_sgmii.c ****             if(timer_out >= 0xFU)
 183              		.loc 1 142 26
 184 00fa 97070000 		lla	a5,timer_out.14158
 184      93870700 
 185 0102 9C43     		lw	a5,0(a5)
 186              		.loc 1 142 15
 187 0104 3E87     		mv	a4,a5
 188 0106 B947     		li	a5,14
 189 0108 63F9E740 		bleu	a4,a5,.L37
 143:../src/platform/mpfs_hal/common/nwc/mss_sgmii.c ****             {
 144:../src/platform/mpfs_hal/common/nwc/mss_sgmii.c ****                 timer_out=0U;
 190              		.loc 1 144 26
 191 010c 97070000 		lla	a5,timer_out.14158
 191      93870700 
 192 0114 23A00700 		sw	zero,0(a5)
 145:../src/platform/mpfs_hal/common/nwc/mss_sgmii.c ****                 sgmii_training_state = SGMII_IO_SETUP;
 193              		.loc 1 145 38
 194 0118 97070000 		lla	a5,sgmii_training_state.14156
 194      93870700 
 195 0120 0D47     		li	a4,3
 196 0122 98C3     		sw	a4,0(a5)
 146:../src/platform/mpfs_hal/common/nwc/mss_sgmii.c ****             }
 147:../src/platform/mpfs_hal/common/nwc/mss_sgmii.c ****             break;
 197              		.loc 1 147 13
 198 0124 DDAE     		j	.L37
 199              	.L18:
 148:../src/platform/mpfs_hal/common/nwc/mss_sgmii.c **** 
 149:../src/platform/mpfs_hal/common/nwc/mss_sgmii.c ****         case SGMII_IO_SETUP:
 150:../src/platform/mpfs_hal/common/nwc/mss_sgmii.c ****             /*
 151:../src/platform/mpfs_hal/common/nwc/mss_sgmii.c ****              * fixme- not sure if we should be setting this register
 152:../src/platform/mpfs_hal/common/nwc/mss_sgmii.c ****              * From regmap detail:
 153:../src/platform/mpfs_hal/common/nwc/mss_sgmii.c ****              * bit 8 of MSS_RESET_CR
 154:../src/platform/mpfs_hal/common/nwc/mss_sgmii.c ****              * Asserts a reset the SGMII block containing the MSS reference clock
 155:../src/platform/mpfs_hal/common/nwc/mss_sgmii.c ****              * input.
 156:../src/platform/mpfs_hal/common/nwc/mss_sgmii.c ****              * Warning that setting this bit causes the external reference clock
 157:../src/platform/mpfs_hal/common/nwc/mss_sgmii.c ****              * input to the
 158:../src/platform/mpfs_hal/common/nwc/mss_sgmii.c ****              * MSS PLL to disappear.
 159:../src/platform/mpfs_hal/common/nwc/mss_sgmii.c ****              * It is advisable to use the SGMII channel soft resets in the PHY
 160:../src/platform/mpfs_hal/common/nwc/mss_sgmii.c ****              * instead of this bit.
 161:../src/platform/mpfs_hal/common/nwc/mss_sgmii.c ****              * However if E51 software wants to set this bit, the MSS clock source
 162:../src/platform/mpfs_hal/common/nwc/mss_sgmii.c ****              * should be switched over to the standby source in advance.
 163:../src/platform/mpfs_hal/common/nwc/mss_sgmii.c ****              */
 164:../src/platform/mpfs_hal/common/nwc/mss_sgmii.c ****             SCB_REGS->MSS_RESET_CR.MSS_RESET_CR = 0;
 200              		.loc 1 164 21
 201 0126 97070000 		lla	a5,SCB_REGS
 201      93870700 
 202 012e 9C63     		ld	a5,0(a5)
 203              		.loc 1 164 49
 204 0130 23A00710 		sw	zero,256(a5)
 165:../src/platform/mpfs_hal/common/nwc/mss_sgmii.c **** 
 166:../src/platform/mpfs_hal/common/nwc/mss_sgmii.c ****             /*
 167:../src/platform/mpfs_hal/common/nwc/mss_sgmii.c ****              * I ran the sim past the place where we set the nvmap_reset in the
 168:../src/platform/mpfs_hal/common/nwc/mss_sgmii.c ****              * SOFT_RESET_SGMII register and it did not result in any
 169:../src/platform/mpfs_hal/common/nwc/mss_sgmii.c ****              * change from the DLL default bits.
 170:../src/platform/mpfs_hal/common/nwc/mss_sgmii.c ****              * But I traced the 'flashing' signal on one of these regs back to
 171:../src/platform/mpfs_hal/common/nwc/mss_sgmii.c ****              * 'dll0_soft_reset_nv_map' (not 'pll0_soft_reset_periph').
 172:../src/platform/mpfs_hal/common/nwc/mss_sgmii.c ****              * Now the only place I can find 'dll0_soft_reset_nv_map' is in SCB
 173:../src/platform/mpfs_hal/common/nwc/mss_sgmii.c ****              * space...ie 0x3e10_0000 SOFT_RESET register.
 174:../src/platform/mpfs_hal/common/nwc/mss_sgmii.c ****              *
 175:../src/platform/mpfs_hal/common/nwc/mss_sgmii.c ****              */
 176:../src/platform/mpfs_hal/common/nwc/mss_sgmii.c ****             /*
 177:../src/platform/mpfs_hal/common/nwc/mss_sgmii.c ****              * so we have to use scb register to reset as no APB register available
 178:../src/platform/mpfs_hal/common/nwc/mss_sgmii.c ****              * to soft reset the IP
 179:../src/platform/mpfs_hal/common/nwc/mss_sgmii.c ****              * ioscb_dll_sgmii
 180:../src/platform/mpfs_hal/common/nwc/mss_sgmii.c ****              * */
 181:../src/platform/mpfs_hal/common/nwc/mss_sgmii.c ****             IOSCB_DLL_SGMII->soft_reset = (0x01U << 0x00U);  /*  reset sgmii DLL */
 205              		.loc 1 181 28
 206 0134 B707103E 		li	a5,1041235968
 207              		.loc 1 181 41
 208 0138 0547     		li	a4,1
 209 013a 98C3     		sw	a4,0(a5)
 182:../src/platform/mpfs_hal/common/nwc/mss_sgmii.c **** 
 183:../src/platform/mpfs_hal/common/nwc/mss_sgmii.c ****             /*
 184:../src/platform/mpfs_hal/common/nwc/mss_sgmii.c ****               * I have discovered the problem with the tx channels (soft reset issue)
 185:../src/platform/mpfs_hal/common/nwc/mss_sgmii.c ****               * So we require the:
 186:../src/platform/mpfs_hal/common/nwc/mss_sgmii.c ****               *
 187:../src/platform/mpfs_hal/common/nwc/mss_sgmii.c ****               * sgmiiphy_lane 01 soft-reset register (0x3650_0000) to be written to
 188:../src/platform/mpfs_hal/common/nwc/mss_sgmii.c ****               * with 0x1 (to set the nv_map bit[0] =1 (self clears))
 189:../src/platform/mpfs_hal/common/nwc/mss_sgmii.c ****               * same for sgmiiphy_lane 23 soft-reset register (0x3651_0000).
 190:../src/platform/mpfs_hal/common/nwc/mss_sgmii.c ****               *
 191:../src/platform/mpfs_hal/common/nwc/mss_sgmii.c ****               * This will result in the rpc bits for the Lane controls to get loaded.
 192:../src/platform/mpfs_hal/common/nwc/mss_sgmii.c ****               * Not happening currently.
 193:../src/platform/mpfs_hal/common/nwc/mss_sgmii.c ****               *
 194:../src/platform/mpfs_hal/common/nwc/mss_sgmii.c ****               * The soft_reset_sgmii occurs in the mss_ddr.c line 436, so I suppose
 195:../src/platform/mpfs_hal/common/nwc/mss_sgmii.c ****               * we put the 2 new soft reset writes after that.
 196:../src/platform/mpfs_hal/common/nwc/mss_sgmii.c ****               *
 197:../src/platform/mpfs_hal/common/nwc/mss_sgmii.c ****               */
 198:../src/platform/mpfs_hal/common/nwc/mss_sgmii.c ****             {
 199:../src/platform/mpfs_hal/common/nwc/mss_sgmii.c ****                 /* sgmiiphy_lane 01 soft-reset register (0x3650_0000) */
 200:../src/platform/mpfs_hal/common/nwc/mss_sgmii.c ****                 SGMIIPHY_LANE01->soft_reset = 0x000000001U;
 210              		.loc 1 200 32
 211 013c B7075036 		li	a5,911212544
 212              		.loc 1 200 45
 213 0140 0547     		li	a4,1
 214 0142 98C3     		sw	a4,0(a5)
 201:../src/platform/mpfs_hal/common/nwc/mss_sgmii.c ****                 /* sgmiiphy_lane 23 soft-reset register (0x3650_0000) */
 202:../src/platform/mpfs_hal/common/nwc/mss_sgmii.c ****                 SGMIIPHY_LANE23->soft_reset = 0x000000001U;
 215              		.loc 1 202 32
 216 0144 B7075136 		li	a5,911278080
 217              		.loc 1 202 45
 218 0148 0547     		li	a4,1
 219 014a 98C3     		sw	a4,0(a5)
 203:../src/platform/mpfs_hal/common/nwc/mss_sgmii.c ****             }
 204:../src/platform/mpfs_hal/common/nwc/mss_sgmii.c **** 
 205:../src/platform/mpfs_hal/common/nwc/mss_sgmii.c ****             /*
 206:../src/platform/mpfs_hal/common/nwc/mss_sgmii.c ****              * Kick-off calibration, by taking calibration IP out of reset
 207:../src/platform/mpfs_hal/common/nwc/mss_sgmii.c ****              */
 208:../src/platform/mpfs_hal/common/nwc/mss_sgmii.c ****             /*
 209:../src/platform/mpfs_hal/common/nwc/mss_sgmii.c ****              * Soft reset
 210:../src/platform/mpfs_hal/common/nwc/mss_sgmii.c ****              */
 211:../src/platform/mpfs_hal/common/nwc/mss_sgmii.c ****             {
 212:../src/platform/mpfs_hal/common/nwc/mss_sgmii.c ****                 /* PVT soft reset - APB*/
 213:../src/platform/mpfs_hal/common/nwc/mss_sgmii.c ****                 /* reg_pvt_soft_reset_periph  */
 214:../src/platform/mpfs_hal/common/nwc/mss_sgmii.c ****                 CFG_DDR_SGMII_PHY->DYN_CNTL.DYN_CNTL        = (0x01U<< 10U) | (0x7FU<<0U);
 220              		.loc 1 214 34
 221 014c 97070000 		lla	a5,CFG_DDR_SGMII_PHY
 221      93870700 
 222 0154 9863     		ld	a4,0(a5)
 223              		.loc 1 214 61
 224 0156 8567     		li	a5,4096
 225 0158 BA97     		add	a5,a4,a5
 226 015a 1307F047 		li	a4,1151
 227 015e 23AEE7C0 		sw	a4,-996(a5)
 215:../src/platform/mpfs_hal/common/nwc/mss_sgmii.c ****                 /* reg_pvt_soft_reset_periph  */
 216:../src/platform/mpfs_hal/common/nwc/mss_sgmii.c ****                 CFG_DDR_SGMII_PHY->DYN_CNTL.DYN_CNTL        = (0x7FU<<0U);
 228              		.loc 1 216 34
 229 0162 97070000 		lla	a5,CFG_DDR_SGMII_PHY
 229      93870700 
 230 016a 9863     		ld	a4,0(a5)
 231              		.loc 1 216 61
 232 016c 8567     		li	a5,4096
 233 016e BA97     		add	a5,a4,a5
 234 0170 1307F007 		li	a4,127
 235 0174 23AEE7C0 		sw	a4,-996(a5)
 217:../src/platform/mpfs_hal/common/nwc/mss_sgmii.c ****                 /* PVT soft reset - SCB */
 218:../src/platform/mpfs_hal/common/nwc/mss_sgmii.c ****                 /* make sure out of reset */
 219:../src/platform/mpfs_hal/common/nwc/mss_sgmii.c ****                 IOSCB_IO_CALIB_SGMII->SOFT_RESET_IOCALIB    = 0x1U;
 236              		.loc 1 219 37
 237 0178 97070000 		lla	a5,IOSCB_IO_CALIB_SGMII
 237      93870700 
 238 0180 9C63     		ld	a5,0(a5)
 239              		.loc 1 219 61
 240 0182 0547     		li	a4,1
 241 0184 98C3     		sw	a4,0(a5)
 220:../src/platform/mpfs_hal/common/nwc/mss_sgmii.c ****                 /* make sure out of reset */
 221:../src/platform/mpfs_hal/common/nwc/mss_sgmii.c ****                 IOSCB_IO_CALIB_SGMII->SOFT_RESET_IOCALIB    = 0x0U;
 242              		.loc 1 221 37
 243 0186 97070000 		lla	a5,IOSCB_IO_CALIB_SGMII
 243      93870700 
 244 018e 9C63     		ld	a5,0(a5)
 245              		.loc 1 221 61
 246 0190 23A00700 		sw	zero,0(a5)
 222:../src/platform/mpfs_hal/common/nwc/mss_sgmii.c ****             }
 223:../src/platform/mpfs_hal/common/nwc/mss_sgmii.c ****             sgmii_training_state = SGMII_WAIT_FOR_CALIB_COMPLETE;
 247              		.loc 1 223 34
 248 0194 97070000 		lla	a5,sgmii_training_state.14156
 248      93870700 
 249 019c 1147     		li	a4,4
 250 019e 98C3     		sw	a4,0(a5)
 224:../src/platform/mpfs_hal/common/nwc/mss_sgmii.c ****             break;
 251              		.loc 1 224 13
 252 01a0 71A6     		j	.L5
 253              	.L17:
 225:../src/platform/mpfs_hal/common/nwc/mss_sgmii.c **** 
 226:../src/platform/mpfs_hal/common/nwc/mss_sgmii.c ****         case SGMII_WAIT_FOR_CALIB_COMPLETE:
 227:../src/platform/mpfs_hal/common/nwc/mss_sgmii.c ****             /*
 228:../src/platform/mpfs_hal/common/nwc/mss_sgmii.c ****              * Verify calibration
 229:../src/platform/mpfs_hal/common/nwc/mss_sgmii.c ****              * Bank 5 PVT calibrator can be controlled by MSS firmware through APB
 230:../src/platform/mpfs_hal/common/nwc/mss_sgmii.c ****              * registers to do initial calibration and re-calibration. During startup,
 231:../src/platform/mpfs_hal/common/nwc/mss_sgmii.c ****              * the initial calibration can be started by default when MSS releases SGMII
 232:../src/platform/mpfs_hal/common/nwc/mss_sgmii.c ****              * reset. Re-calibration is enabled by default with reg_pvt_calib_start/lock
 233:../src/platform/mpfs_hal/common/nwc/mss_sgmii.c ****              * bits being set to 1 before startup, and MSS firmware can start
 234:../src/platform/mpfs_hal/common/nwc/mss_sgmii.c ****              * re-calibration after startup by toggling  pvt_calib_start/lock bits per
 235:../src/platform/mpfs_hal/common/nwc/mss_sgmii.c ****              * PVT calibrator spec.
 236:../src/platform/mpfs_hal/common/nwc/mss_sgmii.c ****              *
 237:../src/platform/mpfs_hal/common/nwc/mss_sgmii.c ****              */
 238:../src/platform/mpfs_hal/common/nwc/mss_sgmii.c ****             if((CFG_DDR_SGMII_PHY->PVT_STAT.PVT_STAT & (1U << 14U)) == (1U << 14U))
 254              		.loc 1 238 34
 255 01a2 97070000 		lla	a5,CFG_DDR_SGMII_PHY
 255      93870700 
 256 01aa 9863     		ld	a4,0(a5)
 257              		.loc 1 238 44
 258 01ac 8567     		li	a5,4096
 259 01ae BA97     		add	a5,a4,a5
 260 01b0 83A707C2 		lw	a5,-992(a5)
 261 01b4 8127     		sext.w	a5,a5
 262              		.loc 1 238 54
 263 01b6 3E87     		mv	a4,a5
 264 01b8 9167     		li	a5,16384
 265 01ba F98F     		and	a5,a4,a5
 266 01bc 8127     		sext.w	a5,a5
 267              		.loc 1 238 15
 268 01be 3E87     		mv	a4,a5
 269 01c0 9167     		li	a5,16384
 270 01c2 631EF734 		bne	a4,a5,.L38
 239:../src/platform/mpfs_hal/common/nwc/mss_sgmii.c ****             {
 240:../src/platform/mpfs_hal/common/nwc/mss_sgmii.c ****                 sgmii_training_state = SGMII_ASSERT_CALIB_LOCK;
 271              		.loc 1 240 38
 272 01c6 97070000 		lla	a5,sgmii_training_state.14156
 272      93870700 
 273 01ce 1547     		li	a4,5
 274 01d0 98C3     		sw	a4,0(a5)
 241:../src/platform/mpfs_hal/common/nwc/mss_sgmii.c ****             }
 242:../src/platform/mpfs_hal/common/nwc/mss_sgmii.c ****             break;
 275              		.loc 1 242 13
 276 01d2 B1A6     		j	.L38
 277              	.L16:
 243:../src/platform/mpfs_hal/common/nwc/mss_sgmii.c **** 
 244:../src/platform/mpfs_hal/common/nwc/mss_sgmii.c ****         case SGMII_ASSERT_CALIB_LOCK:
 245:../src/platform/mpfs_hal/common/nwc/mss_sgmii.c ****             /*
 246:../src/platform/mpfs_hal/common/nwc/mss_sgmii.c ****              * now assert calib lock
 247:../src/platform/mpfs_hal/common/nwc/mss_sgmii.c ****              *    calibrated pcode and ncode will be written.
 248:../src/platform/mpfs_hal/common/nwc/mss_sgmii.c ****              * */
 249:../src/platform/mpfs_hal/common/nwc/mss_sgmii.c **** 
 250:../src/platform/mpfs_hal/common/nwc/mss_sgmii.c ****             CFG_DDR_SGMII_PHY->PVT_STAT.PVT_STAT |= 0x40000000UL;
 278              		.loc 1 250 50
 279 01d4 97070000 		lla	a5,CFG_DDR_SGMII_PHY
 279      93870700 
 280 01dc 9863     		ld	a4,0(a5)
 281 01de 8567     		li	a5,4096
 282 01e0 BA97     		add	a5,a4,a5
 283 01e2 83A707C2 		lw	a5,-992(a5)
 284 01e6 1B870700 		sext.w	a4,a5
 285 01ea 97070000 		lla	a5,CFG_DDR_SGMII_PHY
 285      93870700 
 286 01f2 9463     		ld	a3,0(a5)
 287 01f4 B7070040 		li	a5,1073741824
 288 01f8 D98F     		or	a5,a4,a5
 289 01fa 1B870700 		sext.w	a4,a5
 290 01fe 8567     		li	a5,4096
 291 0200 B697     		add	a5,a3,a5
 292 0202 23A0E7C2 		sw	a4,-992(a5)
 251:../src/platform/mpfs_hal/common/nwc/mss_sgmii.c ****             IOSCB_IO_CALIB_SGMII->IOC_REG0       |= (0x01U<<14U);
 293              		.loc 1 251 50
 294 0206 97070000 		lla	a5,IOSCB_IO_CALIB_SGMII
 294      93870700 
 295 020e 9C63     		ld	a5,0(a5)
 296 0210 DC43     		lw	a5,4(a5)
 297 0212 1B870700 		sext.w	a4,a5
 298 0216 97070000 		lla	a5,IOSCB_IO_CALIB_SGMII
 298      93870700 
 299 021e 9C63     		ld	a5,0(a5)
 300 0220 BA86     		mv	a3,a4
 301 0222 1167     		li	a4,16384
 302 0224 558F     		or	a4,a3,a4
 303 0226 0127     		sext.w	a4,a4
 304 0228 D8C3     		sw	a4,4(a5)
 252:../src/platform/mpfs_hal/common/nwc/mss_sgmii.c ****             sgmii_training_state = SGMII_SET_UP_PLL;
 305              		.loc 1 252 34
 306 022a 97070000 		lla	a5,sgmii_training_state.14156
 306      93870700 
 307 0232 1947     		li	a4,6
 308 0234 98C3     		sw	a4,0(a5)
 253:../src/platform/mpfs_hal/common/nwc/mss_sgmii.c ****             break;
 309              		.loc 1 253 13
 310 0236 DDAC     		j	.L5
 311              	.L15:
 254:../src/platform/mpfs_hal/common/nwc/mss_sgmii.c **** 
 255:../src/platform/mpfs_hal/common/nwc/mss_sgmii.c ****         case SGMII_SET_UP_PLL:
 256:../src/platform/mpfs_hal/common/nwc/mss_sgmii.c ****             /*
 257:../src/platform/mpfs_hal/common/nwc/mss_sgmii.c ****               * SGMii Step 3)   Wait for PLL and DLL lock
 258:../src/platform/mpfs_hal/common/nwc/mss_sgmii.c ****               * Delay codes generated
 259:../src/platform/mpfs_hal/common/nwc/mss_sgmii.c ****               */
 260:../src/platform/mpfs_hal/common/nwc/mss_sgmii.c **** 
 261:../src/platform/mpfs_hal/common/nwc/mss_sgmii.c ****             /* 0U => configure using scb, 1U => NVMAP reset */
 262:../src/platform/mpfs_hal/common/nwc/mss_sgmii.c ****             sgmii_mux_config(RPC_REG_UPDATE);
 312              		.loc 1 262 13
 313 0238 0545     		li	a0,1
 314 023a 97000000 		call	sgmii_mux_config
 314      E7800000 
 263:../src/platform/mpfs_hal/common/nwc/mss_sgmii.c ****             /* 0U => configure using scb, 1U => NVMAP reset */
 264:../src/platform/mpfs_hal/common/nwc/mss_sgmii.c ****             sgmii_pll_config_scb(RPC_REG_UPDATE);
 315              		.loc 1 264 13
 316 0242 0545     		li	a0,1
 317 0244 97000000 		call	sgmii_pll_config_scb
 317      E7800000 
 265:../src/platform/mpfs_hal/common/nwc/mss_sgmii.c **** 
 266:../src/platform/mpfs_hal/common/nwc/mss_sgmii.c ****             timer_out=0U;
 318              		.loc 1 266 22
 319 024c 97070000 		lla	a5,timer_out.14158
 319      93870700 
 320 0254 23A00700 		sw	zero,0(a5)
 267:../src/platform/mpfs_hal/common/nwc/mss_sgmii.c ****             sgmii_training_state = SGMII_WAIT_FOR_MSS_LOCK;
 321              		.loc 1 267 34
 322 0258 97070000 		lla	a5,sgmii_training_state.14156
 322      93870700 
 323 0260 1D47     		li	a4,7
 324 0262 98C3     		sw	a4,0(a5)
 268:../src/platform/mpfs_hal/common/nwc/mss_sgmii.c ****             break;
 325              		.loc 1 268 13
 326 0264 E1A4     		j	.L5
 327              	.L14:
 269:../src/platform/mpfs_hal/common/nwc/mss_sgmii.c **** 
 270:../src/platform/mpfs_hal/common/nwc/mss_sgmii.c ****         case SGMII_WAIT_FOR_MSS_LOCK:
 271:../src/platform/mpfs_hal/common/nwc/mss_sgmii.c ****             if (CFG_DDR_SGMII_PHY->PLL_CNTL.PLL_CNTL & (1U<<7U))
 328              		.loc 1 271 34
 329 0266 97070000 		lla	a5,CFG_DDR_SGMII_PHY
 329      93870700 
 330 026e 9863     		ld	a4,0(a5)
 331              		.loc 1 271 44
 332 0270 8567     		li	a5,4096
 333 0272 BA97     		add	a5,a4,a5
 334 0274 83A787C0 		lw	a5,-1016(a5)
 335 0278 8127     		sext.w	a5,a5
 336              		.loc 1 271 54
 337 027a 93F70708 		andi	a5,a5,128
 338 027e 8127     		sext.w	a5,a5
 339              		.loc 1 271 16
 340 0280 6381072A 		beq	a5,zero,.L39
 272:../src/platform/mpfs_hal/common/nwc/mss_sgmii.c ****             {
 273:../src/platform/mpfs_hal/common/nwc/mss_sgmii.c ****                 sgmii_training_state = SGMII_WAIT_FOR_DLL_LOCK;
 341              		.loc 1 273 38
 342 0284 97070000 		lla	a5,sgmii_training_state.14156
 342      93870700 
 343 028c 2147     		li	a4,8
 344 028e 98C3     		sw	a4,0(a5)
 274:../src/platform/mpfs_hal/common/nwc/mss_sgmii.c ****             }
 275:../src/platform/mpfs_hal/common/nwc/mss_sgmii.c ****             break;
 345              		.loc 1 275 13
 346 0290 49AC     		j	.L39
 347              	.L13:
 276:../src/platform/mpfs_hal/common/nwc/mss_sgmii.c **** 
 277:../src/platform/mpfs_hal/common/nwc/mss_sgmii.c ****         case SGMII_WAIT_FOR_DLL_LOCK:
 278:../src/platform/mpfs_hal/common/nwc/mss_sgmii.c ****             if (CFG_DDR_SGMII_PHY->RECAL_CNTL.RECAL_CNTL & (1U<<23U))
 348              		.loc 1 278 34
 349 0292 97070000 		lla	a5,CFG_DDR_SGMII_PHY
 349      93870700 
 350 029a 9863     		ld	a4,0(a5)
 351              		.loc 1 278 46
 352 029c 8567     		li	a5,4096
 353 029e BA97     		add	a5,a4,a5
 354 02a0 83A747C1 		lw	a5,-1004(a5)
 355 02a4 8127     		sext.w	a5,a5
 356              		.loc 1 278 58
 357 02a6 3E87     		mv	a4,a5
 358 02a8 B7078000 		li	a5,8388608
 359 02ac F98F     		and	a5,a4,a5
 360 02ae 8127     		sext.w	a5,a5
 361              		.loc 1 278 16
 362 02b0 638B0726 		beq	a5,zero,.L40
 279:../src/platform/mpfs_hal/common/nwc/mss_sgmii.c ****             {
 280:../src/platform/mpfs_hal/common/nwc/mss_sgmii.c ****                 sgmii_training_state = SGMII_TURN_ON_MACS;
 363              		.loc 1 280 38
 364 02b4 97070000 		lla	a5,sgmii_training_state.14156
 364      93870700 
 365 02bc 2547     		li	a4,9
 366 02be 98C3     		sw	a4,0(a5)
 281:../src/platform/mpfs_hal/common/nwc/mss_sgmii.c ****             }
 282:../src/platform/mpfs_hal/common/nwc/mss_sgmii.c ****             break;
 367              		.loc 1 282 13
 368 02c0 9DA4     		j	.L40
 369              	.L12:
 283:../src/platform/mpfs_hal/common/nwc/mss_sgmii.c **** 
 284:../src/platform/mpfs_hal/common/nwc/mss_sgmii.c ****         case SGMII_TURN_ON_MACS:
 285:../src/platform/mpfs_hal/common/nwc/mss_sgmii.c ****             /*
 286:../src/platform/mpfs_hal/common/nwc/mss_sgmii.c ****              * Provide mac clocks
 287:../src/platform/mpfs_hal/common/nwc/mss_sgmii.c ****              * The nw_config register for mac0 (0x2011_0004): I am forcing 'gigabit' and
 288:../src/platform/mpfs_hal/common/nwc/mss_sgmii.c ****              * 'tbi' bits = 11.
 289:../src/platform/mpfs_hal/common/nwc/mss_sgmii.c ****              * The same for Mac1.
 290:../src/platform/mpfs_hal/common/nwc/mss_sgmii.c ****              * This starts up the tx_mac_clocks for the 2 macs.
 291:../src/platform/mpfs_hal/common/nwc/mss_sgmii.c ****              *
 292:../src/platform/mpfs_hal/common/nwc/mss_sgmii.c ****              */
 293:../src/platform/mpfs_hal/common/nwc/mss_sgmii.c ****             /* the mac clocks need to be turned on when setting up the sgmii */
 294:../src/platform/mpfs_hal/common/nwc/mss_sgmii.c ****             (void)mss_config_clk_rst(MSS_PERIPH_MAC0, (uint8_t) MPFS_HAL_FIRST_HART, PERIPHERAL_ON)
 370              		.loc 1 294 19
 371 02c2 0146     		li	a2,0
 372 02c4 8145     		li	a1,0
 373 02c6 4145     		li	a0,16
 374 02c8 97000000 		call	mss_config_clk_rst
 374      E7800000 
 295:../src/platform/mpfs_hal/common/nwc/mss_sgmii.c ****             (void)mss_config_clk_rst(MSS_PERIPH_MAC0, (uint8_t) MPFS_HAL_FIRST_HART, PERIPHERAL_ON)
 375              		.loc 1 295 19
 376 02d0 0146     		li	a2,0
 377 02d2 8145     		li	a1,0
 378 02d4 4145     		li	a0,16
 379 02d6 97000000 		call	mss_config_clk_rst
 379      E7800000 
 296:../src/platform/mpfs_hal/common/nwc/mss_sgmii.c ****             GEM_A_LO->network_config |= (0x01U << 10U) | (0x01U << 11U);   /* GEM0 */
 380              		.loc 1 296 38
 381 02de B7071120 		li	a5,537985024
 382 02e2 9107     		addi	a5,a5,4
 383 02e4 DC43     		lw	a5,4(a5)
 384 02e6 1B870700 		sext.w	a4,a5
 385 02ea B7071120 		li	a5,537985024
 386 02ee 9107     		addi	a5,a5,4
 387 02f0 BA86     		mv	a3,a4
 388 02f2 0567     		li	a4,4096
 389 02f4 130707C0 		addi	a4,a4,-1024
 390 02f8 558F     		or	a4,a3,a4
 391 02fa 0127     		sext.w	a4,a4
 392 02fc D8C3     		sw	a4,4(a5)
 297:../src/platform/mpfs_hal/common/nwc/mss_sgmii.c ****             GEM_B_LO->network_config |= (0x01U << 10U) | (0x01U << 11U);   /* GEM1 */
 393              		.loc 1 297 38
 394 02fe B7271120 		li	a5,537993216
 395 0302 9107     		addi	a5,a5,4
 396 0304 DC43     		lw	a5,4(a5)
 397 0306 1B870700 		sext.w	a4,a5
 398 030a B7271120 		li	a5,537993216
 399 030e 9107     		addi	a5,a5,4
 400 0310 BA86     		mv	a3,a4
 401 0312 0567     		li	a4,4096
 402 0314 130707C0 		addi	a4,a4,-1024
 403 0318 558F     		or	a4,a3,a4
 404 031a 0127     		sext.w	a4,a4
 405 031c D8C3     		sw	a4,4(a5)
 298:../src/platform/mpfs_hal/common/nwc/mss_sgmii.c ****             sgmii_training_state = SGMII_DETERMINE_SILICON_VARIANT;
 406              		.loc 1 298 34
 407 031e 97070000 		lla	a5,sgmii_training_state.14156
 407      93870700 
 408 0326 2947     		li	a4,10
 409 0328 98C3     		sw	a4,0(a5)
 299:../src/platform/mpfs_hal/common/nwc/mss_sgmii.c ****             break;
 410              		.loc 1 299 13
 411 032a 09A4     		j	.L5
 412              	.L11:
 300:../src/platform/mpfs_hal/common/nwc/mss_sgmii.c **** 
 301:../src/platform/mpfs_hal/common/nwc/mss_sgmii.c ****         case SGMII_DETERMINE_SILICON_VARIANT:
 302:../src/platform/mpfs_hal/common/nwc/mss_sgmii.c ****             /*
 303:../src/platform/mpfs_hal/common/nwc/mss_sgmii.c ****              * Determine Silicon variant from generated dll generated sro_dll_90_code
 304:../src/platform/mpfs_hal/common/nwc/mss_sgmii.c ****              */
 305:../src/platform/mpfs_hal/common/nwc/mss_sgmii.c ****             sro_dll_90_code = ((CFG_DDR_SGMII_PHY->RECAL_CNTL.RECAL_CNTL >> 16U) & 0x7FU);
 413              		.loc 1 305 50
 414 032c 97070000 		lla	a5,CFG_DDR_SGMII_PHY
 414      93870700 
 415 0334 9863     		ld	a4,0(a5)
 416              		.loc 1 305 62
 417 0336 8567     		li	a5,4096
 418 0338 BA97     		add	a5,a4,a5
 419 033a 83A747C1 		lw	a5,-1004(a5)
 420 033e 8127     		sext.w	a5,a5
 421              		.loc 1 305 74
 422 0340 9BD70701 		srliw	a5,a5,16
 423 0344 8127     		sext.w	a5,a5
 424              		.loc 1 305 82
 425 0346 93F7F707 		andi	a5,a5,127
 426 034a 1B870700 		sext.w	a4,a5
 427              		.loc 1 305 29
 428 034e 97070000 		lla	a5,sro_dll_90_code
 428      93870700 
 429 0356 98C3     		sw	a4,0(a5)
 306:../src/platform/mpfs_hal/common/nwc/mss_sgmii.c **** 
 307:../src/platform/mpfs_hal/common/nwc/mss_sgmii.c ****             if(CFG_DDR_SGMII_PHY->SPARE_STAT.SPARE_STAT & (01U<<31U)) /* bit31 == 1 => post rev B s
 430              		.loc 1 307 33
 431 0358 97070000 		lla	a5,CFG_DDR_SGMII_PHY
 431      93870700 
 432 0360 9863     		ld	a4,0(a5)
 433              		.loc 1 307 45
 434 0362 8567     		li	a5,4096
 435 0364 BA97     		add	a5,a4,a5
 436 0366 83A787C2 		lw	a5,-984(a5)
 437 036a 8127     		sext.w	a5,a5
 438              		.loc 1 307 16
 439 036c 8127     		sext.w	a5,a5
 440              		.loc 1 307 15
 441 036e 63DF0700 		bge	a5,zero,.L27
 308:../src/platform/mpfs_hal/common/nwc/mss_sgmii.c ****             {
 309:../src/platform/mpfs_hal/common/nwc/mss_sgmii.c ****                 silicon_variant = PART_REVC_OR_LATER;
 442              		.loc 1 309 33
 443 0372 97070000 		lla	a5,silicon_variant
 443      93870700 
 444 037a 0547     		li	a4,1
 445 037c 98C3     		sw	a4,0(a5)
 310:../src/platform/mpfs_hal/common/nwc/mss_sgmii.c ****                 set_early_late_thresholds(LATE_EYE_WIDTH_PART_REVC_OR_LATER_PRE_TEST, EARLY_EYE_WID
 446              		.loc 1 310 17
 447 037e 9D45     		li	a1,7
 448 0380 1945     		li	a0,6
 449 0382 97000000 		call	set_early_late_thresholds
 449      E7800000 
 450 038a 99A0     		j	.L28
 451              	.L27:
 311:../src/platform/mpfs_hal/common/nwc/mss_sgmii.c ****             }
 312:../src/platform/mpfs_hal/common/nwc/mss_sgmii.c ****             else
 313:../src/platform/mpfs_hal/common/nwc/mss_sgmii.c ****             {
 314:../src/platform/mpfs_hal/common/nwc/mss_sgmii.c ****                 /*
 315:../src/platform/mpfs_hal/common/nwc/mss_sgmii.c ****                  * SS  part expect  < 13
 316:../src/platform/mpfs_hal/common/nwc/mss_sgmii.c ****                  * typical-typical  or FF expect  > 13
 317:../src/platform/mpfs_hal/common/nwc/mss_sgmii.c ****                  */
 318:../src/platform/mpfs_hal/common/nwc/mss_sgmii.c ****                 if(sro_dll_90_code < MIN_DLL_90_CODE_VALUE_INDICATING_TT_PART_REVB) /* SS part */
 452              		.loc 1 318 36
 453 038c 97070000 		lla	a5,sro_dll_90_code
 453      93870700 
 454 0394 9C43     		lw	a5,0(a5)
 455              		.loc 1 318 19
 456 0396 3E87     		mv	a4,a5
 457 0398 B147     		li	a5,12
 458 039a 63EFE700 		bgtu	a4,a5,.L29
 319:../src/platform/mpfs_hal/common/nwc/mss_sgmii.c ****                 {
 320:../src/platform/mpfs_hal/common/nwc/mss_sgmii.c ****                     silicon_variant = SS_PART_REVB;
 459              		.loc 1 320 37
 460 039e 97070000 		lla	a5,silicon_variant
 460      93870700 
 461 03a6 0947     		li	a4,2
 462 03a8 98C3     		sw	a4,0(a5)
 321:../src/platform/mpfs_hal/common/nwc/mss_sgmii.c ****                     set_early_late_thresholds(LATE_EYE_WIDTH_SS_PART_REVB, EARLY_EYE_WIDTH_SS_PART_
 463              		.loc 1 321 21
 464 03aa 9545     		li	a1,5
 465 03ac 1945     		li	a0,6
 466 03ae 97000000 		call	set_early_late_thresholds
 466      E7800000 
 467 03b6 29A8     		j	.L28
 468              	.L29:
 322:../src/platform/mpfs_hal/common/nwc/mss_sgmii.c ****                 }
 323:../src/platform/mpfs_hal/common/nwc/mss_sgmii.c ****                 else
 324:../src/platform/mpfs_hal/common/nwc/mss_sgmii.c ****                 {
 325:../src/platform/mpfs_hal/common/nwc/mss_sgmii.c ****                     silicon_variant = TT_PART_REVB;
 469              		.loc 1 325 37
 470 03b8 97070000 		lla	a5,silicon_variant
 470      93870700 
 471 03c0 0D47     		li	a4,3
 472 03c2 98C3     		sw	a4,0(a5)
 326:../src/platform/mpfs_hal/common/nwc/mss_sgmii.c ****                     set_early_late_thresholds(LATE_TT_PART_REVB, EARLY_TT_PART_REVB);
 473              		.loc 1 326 21
 474 03c4 9945     		li	a1,6
 475 03c6 1D45     		li	a0,7
 476 03c8 97000000 		call	set_early_late_thresholds
 476      E7800000 
 477              	.L28:
 327:../src/platform/mpfs_hal/common/nwc/mss_sgmii.c ****                 }
 328:../src/platform/mpfs_hal/common/nwc/mss_sgmii.c ****             }
 329:../src/platform/mpfs_hal/common/nwc/mss_sgmii.c ****             sgmii_training_state = SGMII_RESET_CHANNELS;
 478              		.loc 1 329 34
 479 03d0 97070000 		lla	a5,sgmii_training_state.14156
 479      93870700 
 480 03d8 2D47     		li	a4,11
 481 03da 98C3     		sw	a4,0(a5)
 330:../src/platform/mpfs_hal/common/nwc/mss_sgmii.c ****             break;
 482              		.loc 1 330 13
 483 03dc 81AA     		j	.L5
 484              	.L10:
 331:../src/platform/mpfs_hal/common/nwc/mss_sgmii.c **** 
 332:../src/platform/mpfs_hal/common/nwc/mss_sgmii.c ****         case SGMII_RESET_CHANNELS:
 333:../src/platform/mpfs_hal/common/nwc/mss_sgmii.c ****             /*
 334:../src/platform/mpfs_hal/common/nwc/mss_sgmii.c ****              * DLL soft reset                   - Already configured
 335:../src/platform/mpfs_hal/common/nwc/mss_sgmii.c ****              * PVT soft reset                   - Already configured
 336:../src/platform/mpfs_hal/common/nwc/mss_sgmii.c ****              * Bank controller soft reset       - Already configured
 337:../src/platform/mpfs_hal/common/nwc/mss_sgmii.c ****              * CLKMUX soft reset                - Already configured
 338:../src/platform/mpfs_hal/common/nwc/mss_sgmii.c ****              * Lane0 soft reset                 - must be soft reset here
 339:../src/platform/mpfs_hal/common/nwc/mss_sgmii.c ****              * Lane1 soft reset                 - must be soft reset here
 340:../src/platform/mpfs_hal/common/nwc/mss_sgmii.c ****              *
 341:../src/platform/mpfs_hal/common/nwc/mss_sgmii.c ****              *      __IO  uint32_t               reg_lane0_soft_reset_periph :1;  bit 13
 342:../src/platform/mpfs_hal/common/nwc/mss_sgmii.c ****              *      __IO  uint32_t               reg_lane1_soft_reset_periph :1;  bit 14
 343:../src/platform/mpfs_hal/common/nwc/mss_sgmii.c ****              */
 344:../src/platform/mpfs_hal/common/nwc/mss_sgmii.c ****             CFG_DDR_SGMII_PHY->DYN_CNTL.DYN_CNTL  = (1U << 14U)|(1U << 13U)|(0x7FU<<0U);
 485              		.loc 1 344 30
 486 03de 97070000 		lla	a5,CFG_DDR_SGMII_PHY
 486      93870700 
 487 03e6 9863     		ld	a4,0(a5)
 488              		.loc 1 344 51
 489 03e8 8567     		li	a5,4096
 490 03ea BA97     		add	a5,a4,a5
 491 03ec 1967     		li	a4,24576
 492 03ee 1307F707 		addi	a4,a4,127
 493 03f2 23AEE7C0 		sw	a4,-996(a5)
 345:../src/platform/mpfs_hal/common/nwc/mss_sgmii.c ****             CFG_DDR_SGMII_PHY->DYN_CNTL.DYN_CNTL  = (0U << 14U)|(0U << 13U)|(0x7FU<<0U);
 494              		.loc 1 345 30
 495 03f6 97070000 		lla	a5,CFG_DDR_SGMII_PHY
 495      93870700 
 496 03fe 9863     		ld	a4,0(a5)
 497              		.loc 1 345 51
 498 0400 8567     		li	a5,4096
 499 0402 BA97     		add	a5,a4,a5
 500 0404 1307F007 		li	a4,127
 501 0408 23AEE7C0 		sw	a4,-996(a5)
 346:../src/platform/mpfs_hal/common/nwc/mss_sgmii.c ****             if(silicon_variant == PART_REVC_OR_LATER)
 502              		.loc 1 346 32
 503 040c 97070000 		lla	a5,silicon_variant
 503      93870700 
 504 0414 9C43     		lw	a5,0(a5)
 505              		.loc 1 346 15
 506 0416 3E87     		mv	a4,a5
 507 0418 8547     		li	a5,1
 508 041a 631FF700 		bne	a4,a5,.L30
 347:../src/platform/mpfs_hal/common/nwc/mss_sgmii.c ****             {
 348:../src/platform/mpfs_hal/common/nwc/mss_sgmii.c ****                 timer_out=0U;
 509              		.loc 1 348 26
 510 041e 97070000 		lla	a5,timer_out.14158
 510      93870700 
 511 0426 23A00700 		sw	zero,0(a5)
 349:../src/platform/mpfs_hal/common/nwc/mss_sgmii.c ****                 sgmii_training_state = SGMII_WAIT_10MS;
 512              		.loc 1 349 38
 513 042a 97070000 		lla	a5,sgmii_training_state.14156
 513      93870700 
 514 0432 3147     		li	a4,12
 515 0434 98C3     		sw	a4,0(a5)
 350:../src/platform/mpfs_hal/common/nwc/mss_sgmii.c ****             }
 351:../src/platform/mpfs_hal/common/nwc/mss_sgmii.c ****             else
 352:../src/platform/mpfs_hal/common/nwc/mss_sgmii.c ****             {
 353:../src/platform/mpfs_hal/common/nwc/mss_sgmii.c ****                 sgmii_training_state = SGMII_CHANNELS_UP;
 354:../src/platform/mpfs_hal/common/nwc/mss_sgmii.c ****             }
 355:../src/platform/mpfs_hal/common/nwc/mss_sgmii.c ****             break;
 516              		.loc 1 355 13
 517 0436 DDA8     		j	.L5
 518              	.L30:
 353:../src/platform/mpfs_hal/common/nwc/mss_sgmii.c ****             }
 519              		.loc 1 353 38
 520 0438 97070000 		lla	a5,sgmii_training_state.14156
 520      93870700 
 521 0440 3947     		li	a4,14
 522 0442 98C3     		sw	a4,0(a5)
 523              		.loc 1 355 13
 524 0444 E5A0     		j	.L5
 525              	.L9:
 356:../src/platform/mpfs_hal/common/nwc/mss_sgmii.c **** 
 357:../src/platform/mpfs_hal/common/nwc/mss_sgmii.c ****         case SGMII_WAIT_10MS:
 358:../src/platform/mpfs_hal/common/nwc/mss_sgmii.c ****             timer_out++;
 526              		.loc 1 358 22
 527 0446 97070000 		lla	a5,timer_out.14158
 527      93870700 
 528 044e 9C43     		lw	a5,0(a5)
 529 0450 8527     		addiw	a5,a5,1
 530 0452 1B870700 		sext.w	a4,a5
 531 0456 97070000 		lla	a5,timer_out.14158
 531      93870700 
 532 045e 98C3     		sw	a4,0(a5)
 359:../src/platform/mpfs_hal/common/nwc/mss_sgmii.c ****             if(timer_out >= 0xFFFU)
 533              		.loc 1 359 26
 534 0460 97070000 		lla	a5,timer_out.14158
 534      93870700 
 535 0468 9C43     		lw	a5,0(a5)
 536              		.loc 1 359 15
 537 046a 3E87     		mv	a4,a5
 538 046c 8567     		li	a5,4096
 539 046e F917     		addi	a5,a5,-2
 540 0470 63FDE70A 		bleu	a4,a5,.L41
 360:../src/platform/mpfs_hal/common/nwc/mss_sgmii.c ****             {
 361:../src/platform/mpfs_hal/common/nwc/mss_sgmii.c ****                 timer_out=0U;
 541              		.loc 1 361 26
 542 0474 97070000 		lla	a5,timer_out.14158
 542      93870700 
 543 047c 23A00700 		sw	zero,0(a5)
 362:../src/platform/mpfs_hal/common/nwc/mss_sgmii.c ****                 sgmii_training_state = SGMII_CHECK_REVC_RESULT;
 544              		.loc 1 362 38
 545 0480 97070000 		lla	a5,sgmii_training_state.14156
 545      93870700 
 546 0488 3547     		li	a4,13
 547 048a 98C3     		sw	a4,0(a5)
 363:../src/platform/mpfs_hal/common/nwc/mss_sgmii.c ****             }
 364:../src/platform/mpfs_hal/common/nwc/mss_sgmii.c ****             break;
 548              		.loc 1 364 13
 549 048c 79A8     		j	.L41
 550              	.L8:
 365:../src/platform/mpfs_hal/common/nwc/mss_sgmii.c **** 
 366:../src/platform/mpfs_hal/common/nwc/mss_sgmii.c ****         case SGMII_CHECK_REVC_RESULT:
 367:../src/platform/mpfs_hal/common/nwc/mss_sgmii.c ****             if ( (CFG_DDR_SGMII_PHY->SPARE_STAT.SPARE_STAT & ARO_REF_PCODE_MASK) > ARO_REF_PCODE_RE
 551              		.loc 1 367 36
 552 048e 97070000 		lla	a5,CFG_DDR_SGMII_PHY
 552      93870700 
 553 0496 9863     		ld	a4,0(a5)
 554              		.loc 1 367 48
 555 0498 8567     		li	a5,4096
 556 049a BA97     		add	a5,a4,a5
 557 049c 83A787C2 		lw	a5,-984(a5)
 558 04a0 8127     		sext.w	a5,a5
 559              		.loc 1 367 60
 560 04a2 8217     		slli	a5,a5,32
 561 04a4 8193     		srli	a5,a5,32
 562 04a6 13F7F703 		andi	a4,a5,63
 563              		.loc 1 367 16
 564 04aa 93070004 		li	a5,64
 565 04ae 63F9E700 		bleu	a4,a5,.L33
 368:../src/platform/mpfs_hal/common/nwc/mss_sgmii.c ****             {
 369:../src/platform/mpfs_hal/common/nwc/mss_sgmii.c ****                 /* OK, we are good */
 370:../src/platform/mpfs_hal/common/nwc/mss_sgmii.c ****                 sgmii_training_state = SGMII_CHANNELS_UP;
 566              		.loc 1 370 38
 567 04b2 97070000 		lla	a5,sgmii_training_state.14156
 567      93870700 
 568 04ba 3947     		li	a4,14
 569 04bc 98C3     		sw	a4,0(a5)
 371:../src/platform/mpfs_hal/common/nwc/mss_sgmii.c ****             }
 372:../src/platform/mpfs_hal/common/nwc/mss_sgmii.c ****             else
 373:../src/platform/mpfs_hal/common/nwc/mss_sgmii.c ****             {
 374:../src/platform/mpfs_hal/common/nwc/mss_sgmii.c ****                 /* need to adjust eye values */
 375:../src/platform/mpfs_hal/common/nwc/mss_sgmii.c ****                 set_early_late_thresholds(LATE_EYE_WIDTH_PART_REVC_OR_LATER, EARLY_EYE_WIDTH_PART_R
 376:../src/platform/mpfs_hal/common/nwc/mss_sgmii.c ****                 /*
 377:../src/platform/mpfs_hal/common/nwc/mss_sgmii.c ****                  * Now reset the channels
 378:../src/platform/mpfs_hal/common/nwc/mss_sgmii.c ****                  */
 379:../src/platform/mpfs_hal/common/nwc/mss_sgmii.c ****                 CFG_DDR_SGMII_PHY->DYN_CNTL.DYN_CNTL  = (1U << 14U)|(1U << 13U)|(0x7FU<<0U);
 380:../src/platform/mpfs_hal/common/nwc/mss_sgmii.c ****                 CFG_DDR_SGMII_PHY->DYN_CNTL.DYN_CNTL  = (0U << 14U)|(0U << 13U)|(0x7FU<<0U);
 381:../src/platform/mpfs_hal/common/nwc/mss_sgmii.c ****                 /* OK, we are good */
 382:../src/platform/mpfs_hal/common/nwc/mss_sgmii.c ****                 sgmii_training_state = SGMII_CHANNELS_UP;
 383:../src/platform/mpfs_hal/common/nwc/mss_sgmii.c ****             }
 384:../src/platform/mpfs_hal/common/nwc/mss_sgmii.c ****             break;
 570              		.loc 1 384 13
 571 04be BDA0     		j	.L5
 572              	.L33:
 375:../src/platform/mpfs_hal/common/nwc/mss_sgmii.c ****                 /*
 573              		.loc 1 375 17
 574 04c0 9945     		li	a1,6
 575 04c2 1D45     		li	a0,7
 576 04c4 97000000 		call	set_early_late_thresholds
 576      E7800000 
 379:../src/platform/mpfs_hal/common/nwc/mss_sgmii.c ****                 CFG_DDR_SGMII_PHY->DYN_CNTL.DYN_CNTL  = (0U << 14U)|(0U << 13U)|(0x7FU<<0U);
 577              		.loc 1 379 34
 578 04cc 97070000 		lla	a5,CFG_DDR_SGMII_PHY
 578      93870700 
 579 04d4 9863     		ld	a4,0(a5)
 379:../src/platform/mpfs_hal/common/nwc/mss_sgmii.c ****                 CFG_DDR_SGMII_PHY->DYN_CNTL.DYN_CNTL  = (0U << 14U)|(0U << 13U)|(0x7FU<<0U);
 580              		.loc 1 379 55
 581 04d6 8567     		li	a5,4096
 582 04d8 BA97     		add	a5,a4,a5
 583 04da 1967     		li	a4,24576
 584 04dc 1307F707 		addi	a4,a4,127
 585 04e0 23AEE7C0 		sw	a4,-996(a5)
 380:../src/platform/mpfs_hal/common/nwc/mss_sgmii.c ****                 /* OK, we are good */
 586              		.loc 1 380 34
 587 04e4 97070000 		lla	a5,CFG_DDR_SGMII_PHY
 587      93870700 
 588 04ec 9863     		ld	a4,0(a5)
 380:../src/platform/mpfs_hal/common/nwc/mss_sgmii.c ****                 /* OK, we are good */
 589              		.loc 1 380 55
 590 04ee 8567     		li	a5,4096
 591 04f0 BA97     		add	a5,a4,a5
 592 04f2 1307F007 		li	a4,127
 593 04f6 23AEE7C0 		sw	a4,-996(a5)
 382:../src/platform/mpfs_hal/common/nwc/mss_sgmii.c ****             }
 594              		.loc 1 382 38
 595 04fa 97070000 		lla	a5,sgmii_training_state.14156
 595      93870700 
 596 0502 3947     		li	a4,14
 597 0504 98C3     		sw	a4,0(a5)
 598              		.loc 1 384 13
 599 0506 1DA0     		j	.L5
 600              	.L6:
 385:../src/platform/mpfs_hal/common/nwc/mss_sgmii.c **** 
 386:../src/platform/mpfs_hal/common/nwc/mss_sgmii.c ****         case SGMII_CHANNELS_UP:
 387:../src/platform/mpfs_hal/common/nwc/mss_sgmii.c ****             /*
 388:../src/platform/mpfs_hal/common/nwc/mss_sgmii.c ****              * SGMii Step 4)    Monitor the DLL codes for Voltage and Temp variation
 389:../src/platform/mpfs_hal/common/nwc/mss_sgmii.c ****              * MSS E51 software sets the magnitude value of variation to flag.
 390:../src/platform/mpfs_hal/common/nwc/mss_sgmii.c ****              * MSS E51 software can poll this flag.
 391:../src/platform/mpfs_hal/common/nwc/mss_sgmii.c ****              * Re-calibration, if needed, is controlled by E51 software if needed.
 392:../src/platform/mpfs_hal/common/nwc/mss_sgmii.c ****              * ML step 4- This is a monitoring step- to be run constantly in the back
 393:../src/platform/mpfs_hal/common/nwc/mss_sgmii.c ****              * ground
 394:../src/platform/mpfs_hal/common/nwc/mss_sgmii.c ****              */
 395:../src/platform/mpfs_hal/common/nwc/mss_sgmii.c ****             status = SGMII_FINISHED_SETUP;
 601              		.loc 1 395 20
 602 0508 97070000 		lla	a5,status.14157
 602      93870700 
 603 0510 23A00700 		sw	zero,0(a5)
 396:../src/platform/mpfs_hal/common/nwc/mss_sgmii.c ****             break;
 604              		.loc 1 396 13
 605 0514 21A8     		j	.L5
 606              	.L36:
 129:../src/platform/mpfs_hal/common/nwc/mss_sgmii.c **** 
 607              		.loc 1 129 13
 608 0516 0100     		nop
 609 0518 11A8     		j	.L5
 610              	.L37:
 147:../src/platform/mpfs_hal/common/nwc/mss_sgmii.c **** 
 611              		.loc 1 147 13
 612 051a 0100     		nop
 613 051c 01A8     		j	.L5
 614              	.L38:
 242:../src/platform/mpfs_hal/common/nwc/mss_sgmii.c **** 
 615              		.loc 1 242 13
 616 051e 0100     		nop
 617 0520 31A0     		j	.L5
 618              	.L39:
 275:../src/platform/mpfs_hal/common/nwc/mss_sgmii.c **** 
 619              		.loc 1 275 13
 620 0522 0100     		nop
 621 0524 21A0     		j	.L5
 622              	.L40:
 282:../src/platform/mpfs_hal/common/nwc/mss_sgmii.c **** 
 623              		.loc 1 282 13
 624 0526 0100     		nop
 625 0528 11A0     		j	.L5
 626              	.L41:
 364:../src/platform/mpfs_hal/common/nwc/mss_sgmii.c **** 
 627              		.loc 1 364 13
 628 052a 0100     		nop
 629              	.L5:
 397:../src/platform/mpfs_hal/common/nwc/mss_sgmii.c ****     } /* end of switch statement */
 398:../src/platform/mpfs_hal/common/nwc/mss_sgmii.c **** 
 399:../src/platform/mpfs_hal/common/nwc/mss_sgmii.c ****     return(status);
 630              		.loc 1 399 11
 631 052c 97070000 		lla	a5,status.14157
 631      93870700 
 632 0534 9C43     		lw	a5,0(a5)
 400:../src/platform/mpfs_hal/common/nwc/mss_sgmii.c **** }
 633              		.loc 1 400 1
 634 0536 3E85     		mv	a0,a5
 635 0538 A260     		ld	ra,8(sp)
 636              		.cfi_restore 1
 637 053a 0264     		ld	s0,0(sp)
 638              		.cfi_restore 8
 639              		.cfi_def_cfa 2, 16
 640 053c 4101     		addi	sp,sp,16
 641              		.cfi_def_cfa_offset 0
 642 053e 8280     		jr	ra
 643              		.cfi_endproc
 644              	.LFE24:
 646              		.section	.text.setup_sgmii_rpc_per_config,"ax",@progbits
 647              		.align	1
 649              	setup_sgmii_rpc_per_config:
 650              	.LFB25:
 401:../src/platform/mpfs_hal/common/nwc/mss_sgmii.c **** #endif
 402:../src/platform/mpfs_hal/common/nwc/mss_sgmii.c **** 
 403:../src/platform/mpfs_hal/common/nwc/mss_sgmii.c **** /**
 404:../src/platform/mpfs_hal/common/nwc/mss_sgmii.c ****  * setup_sgmii_rpc_per_config
 405:../src/platform/mpfs_hal/common/nwc/mss_sgmii.c ****  * Configures SGMII RPC TIP registers
 406:../src/platform/mpfs_hal/common/nwc/mss_sgmii.c ****  */
 407:../src/platform/mpfs_hal/common/nwc/mss_sgmii.c **** static void setup_sgmii_rpc_per_config(void)
 408:../src/platform/mpfs_hal/common/nwc/mss_sgmii.c **** {
 651              		.loc 1 408 1
 652              		.cfi_startproc
 653 0000 4111     		addi	sp,sp,-16
 654              		.cfi_def_cfa_offset 16
 655 0002 22E4     		sd	s0,8(sp)
 656              		.cfi_offset 8, -8
 657 0004 0008     		addi	s0,sp,16
 658              		.cfi_def_cfa 8, 0
 409:../src/platform/mpfs_hal/common/nwc/mss_sgmii.c ****     CFG_DDR_SGMII_PHY->SGMII_MODE.SGMII_MODE    = (LIBERO_SETTING_SGMII_MODE & ~REG_CDR_MOVE_STEP);
 659              		.loc 1 409 22
 660 0006 97070000 		lla	a5,CFG_DDR_SGMII_PHY
 660      93870700 
 661 000e 9863     		ld	a4,0(a5)
 662              		.loc 1 409 49
 663 0010 8567     		li	a5,4096
 664 0012 BA97     		add	a5,a4,a5
 665 0014 37F78008 		li	a4,142667776
 666 0018 1307F72F 		addi	a4,a4,767
 667 001c 23A2E7C0 		sw	a4,-1020(a5)
 410:../src/platform/mpfs_hal/common/nwc/mss_sgmii.c ****     CFG_DDR_SGMII_PHY->CH0_CNTL.CH0_CNTL        = LIBERO_SETTING_CH0_CNTL;
 668              		.loc 1 410 22
 669 0020 97070000 		lla	a5,CFG_DDR_SGMII_PHY
 669      93870700 
 670 0028 9863     		ld	a4,0(a5)
 671              		.loc 1 410 49
 672 002a 8567     		li	a5,4096
 673 002c BA97     		add	a5,a4,a5
 674 002e 3777F037 		li	a4,938504192
 675 0032 13070777 		addi	a4,a4,1904
 676 0036 23A6E7C0 		sw	a4,-1012(a5)
 411:../src/platform/mpfs_hal/common/nwc/mss_sgmii.c ****     CFG_DDR_SGMII_PHY->CH1_CNTL.CH1_CNTL        = LIBERO_SETTING_CH1_CNTL;
 677              		.loc 1 411 22
 678 003a 97070000 		lla	a5,CFG_DDR_SGMII_PHY
 678      93870700 
 679 0042 9863     		ld	a4,0(a5)
 680              		.loc 1 411 49
 681 0044 8567     		li	a5,4096
 682 0046 BA97     		add	a5,a4,a5
 683 0048 3777F037 		li	a4,938504192
 684 004c 13070777 		addi	a4,a4,1904
 685 0050 23A8E7C0 		sw	a4,-1008(a5)
 412:../src/platform/mpfs_hal/common/nwc/mss_sgmii.c ****     CFG_DDR_SGMII_PHY->RECAL_CNTL.RECAL_CNTL    = LIBERO_SETTING_RECAL_CNTL;
 686              		.loc 1 412 22
 687 0054 97070000 		lla	a5,CFG_DDR_SGMII_PHY
 687      93870700 
 688 005c 9863     		ld	a4,0(a5)
 689              		.loc 1 412 49
 690 005e 8567     		li	a5,4096
 691 0060 BA97     		add	a5,a4,a5
 692 0062 0967     		li	a4,8192
 693 0064 1307870C 		addi	a4,a4,200
 694 0068 23AAE7C0 		sw	a4,-1004(a5)
 413:../src/platform/mpfs_hal/common/nwc/mss_sgmii.c ****     CFG_DDR_SGMII_PHY->CLK_CNTL.CLK_CNTL        = LIBERO_SETTING_CLK_CNTL;
 695              		.loc 1 413 22
 696 006c 97070000 		lla	a5,CFG_DDR_SGMII_PHY
 696      93870700 
 697 0074 9863     		ld	a4,0(a5)
 698              		.loc 1 413 49
 699 0076 8567     		li	a5,4096
 700 0078 BA97     		add	a5,a4,a5
 701 007a 375700F0 		li	a4,-268414976
 702 007e 1307C70C 		addi	a4,a4,204
 703 0082 23ACE7C0 		sw	a4,-1000(a5)
 414:../src/platform/mpfs_hal/common/nwc/mss_sgmii.c ****     /* ibuffmx_p and _n rx1, bit 22 and 23 , rx0, bit 20 and 21 */
 415:../src/platform/mpfs_hal/common/nwc/mss_sgmii.c ****     CFG_DDR_SGMII_PHY->SPARE_CNTL.SPARE_CNTL    = LIBERO_SETTING_SPARE_CNTL;
 704              		.loc 1 415 22
 705 0086 97070000 		lla	a5,CFG_DDR_SGMII_PHY
 705      93870700 
 706 008e 9863     		ld	a4,0(a5)
 707              		.loc 1 415 49
 708 0090 8567     		li	a5,4096
 709 0092 BA97     		add	a5,a4,a5
 710 0094 370700FF 		li	a4,-16777216
 711 0098 23A2E7C2 		sw	a4,-988(a5)
 416:../src/platform/mpfs_hal/common/nwc/mss_sgmii.c ****     CFG_DDR_SGMII_PHY->PLL_CNTL.PLL_CNTL        = LIBERO_SETTING_PLL_CNTL;
 712              		.loc 1 416 22
 713 009c 97070000 		lla	a5,CFG_DDR_SGMII_PHY
 713      93870700 
 714 00a4 9863     		ld	a4,0(a5)
 715              		.loc 1 416 49
 716 00a6 8567     		li	a5,4096
 717 00a8 BA97     		add	a5,a4,a5
 718 00aa 37071480 		li	a4,-2146172928
 719 00ae 13071710 		addi	a4,a4,257
 720 00b2 23A4E7C0 		sw	a4,-1016(a5)
 417:../src/platform/mpfs_hal/common/nwc/mss_sgmii.c **** }
 721              		.loc 1 417 1
 722 00b6 0100     		nop
 723 00b8 2264     		ld	s0,8(sp)
 724              		.cfi_restore 8
 725              		.cfi_def_cfa 2, 16
 726 00ba 4101     		addi	sp,sp,16
 727              		.cfi_def_cfa_offset 0
 728 00bc 8280     		jr	ra
 729              		.cfi_endproc
 730              	.LFE25:
 732              		.section	.text.sgmii_off_mode,"ax",@progbits
 733              		.align	1
 734              		.globl	sgmii_off_mode
 736              	sgmii_off_mode:
 737              	.LFB26:
 418:../src/platform/mpfs_hal/common/nwc/mss_sgmii.c **** 
 419:../src/platform/mpfs_hal/common/nwc/mss_sgmii.c **** /**
 420:../src/platform/mpfs_hal/common/nwc/mss_sgmii.c ****  * SGMII Off mode
 421:../src/platform/mpfs_hal/common/nwc/mss_sgmii.c ****  */
 422:../src/platform/mpfs_hal/common/nwc/mss_sgmii.c **** void sgmii_off_mode(void)
 423:../src/platform/mpfs_hal/common/nwc/mss_sgmii.c **** {
 738              		.loc 1 423 1
 739              		.cfi_startproc
 740 0000 4111     		addi	sp,sp,-16
 741              		.cfi_def_cfa_offset 16
 742 0002 06E4     		sd	ra,8(sp)
 743 0004 22E0     		sd	s0,0(sp)
 744              		.cfi_offset 1, -8
 745              		.cfi_offset 8, -16
 746 0006 0008     		addi	s0,sp,16
 747              		.cfi_def_cfa 8, 0
 424:../src/platform/mpfs_hal/common/nwc/mss_sgmii.c ****     /*
 425:../src/platform/mpfs_hal/common/nwc/mss_sgmii.c ****      * do soft reset of SGMII TIP
 426:../src/platform/mpfs_hal/common/nwc/mss_sgmii.c ****      */
 427:../src/platform/mpfs_hal/common/nwc/mss_sgmii.c ****     CFG_DDR_SGMII_PHY->SOFT_RESET_SGMII.SOFT_RESET_SGMII = (0x01 << 8U) | 1U;
 748              		.loc 1 427 22
 749 0008 97070000 		lla	a5,CFG_DDR_SGMII_PHY
 749      93870700 
 750 0010 9863     		ld	a4,0(a5)
 751              		.loc 1 427 58
 752 0012 8567     		li	a5,4096
 753 0014 BA97     		add	a5,a4,a5
 754 0016 13071010 		li	a4,257
 755 001a 23A0E7C0 		sw	a4,-1024(a5)
 428:../src/platform/mpfs_hal/common/nwc/mss_sgmii.c ****     CFG_DDR_SGMII_PHY->SOFT_RESET_SGMII.SOFT_RESET_SGMII = 1U;
 756              		.loc 1 428 22
 757 001e 97070000 		lla	a5,CFG_DDR_SGMII_PHY
 757      93870700 
 758 0026 9863     		ld	a4,0(a5)
 759              		.loc 1 428 58
 760 0028 8567     		li	a5,4096
 761 002a BA97     		add	a5,a4,a5
 762 002c 0547     		li	a4,1
 763 002e 23A0E7C0 		sw	a4,-1024(a5)
 429:../src/platform/mpfs_hal/common/nwc/mss_sgmii.c **** 
 430:../src/platform/mpfs_hal/common/nwc/mss_sgmii.c ****     /*
 431:../src/platform/mpfs_hal/common/nwc/mss_sgmii.c ****      *
 432:../src/platform/mpfs_hal/common/nwc/mss_sgmii.c ****      */
 433:../src/platform/mpfs_hal/common/nwc/mss_sgmii.c ****     setup_sgmii_rpc_per_config();
 764              		.loc 1 433 5
 765 0032 97000000 		call	setup_sgmii_rpc_per_config
 765      E7800000 
 434:../src/platform/mpfs_hal/common/nwc/mss_sgmii.c **** 
 435:../src/platform/mpfs_hal/common/nwc/mss_sgmii.c ****     /*
 436:../src/platform/mpfs_hal/common/nwc/mss_sgmii.c ****      * Resetting the SCB register only required in already in dynamic mode. If
 437:../src/platform/mpfs_hal/common/nwc/mss_sgmii.c ****      * not reset, IO will not be configured.
 438:../src/platform/mpfs_hal/common/nwc/mss_sgmii.c ****      */
 439:../src/platform/mpfs_hal/common/nwc/mss_sgmii.c ****     IOSCB_DLL_SGMII->soft_reset = (0x01U << 0x00U);         /*  reset sgmii */
 766              		.loc 1 439 20
 767 003a B707103E 		li	a5,1041235968
 768              		.loc 1 439 33
 769 003e 0547     		li	a4,1
 770 0040 98C3     		sw	a4,0(a5)
 440:../src/platform/mpfs_hal/common/nwc/mss_sgmii.c **** 
 441:../src/platform/mpfs_hal/common/nwc/mss_sgmii.c **** }
 771              		.loc 1 441 1
 772 0042 0100     		nop
 773 0044 A260     		ld	ra,8(sp)
 774              		.cfi_restore 1
 775 0046 0264     		ld	s0,0(sp)
 776              		.cfi_restore 8
 777              		.cfi_def_cfa 2, 16
 778 0048 4101     		addi	sp,sp,16
 779              		.cfi_def_cfa_offset 0
 780 004a 8280     		jr	ra
 781              		.cfi_endproc
 782              	.LFE26:
 784              		.section	.text.ddr_pvt_calibration,"ax",@progbits
 785              		.align	1
 786              		.globl	ddr_pvt_calibration
 788              	ddr_pvt_calibration:
 789              	.LFB27:
 442:../src/platform/mpfs_hal/common/nwc/mss_sgmii.c **** 
 443:../src/platform/mpfs_hal/common/nwc/mss_sgmii.c **** /**
 444:../src/platform/mpfs_hal/common/nwc/mss_sgmii.c ****  *
 445:../src/platform/mpfs_hal/common/nwc/mss_sgmii.c ****  */
 446:../src/platform/mpfs_hal/common/nwc/mss_sgmii.c **** void ddr_pvt_calibration(void)
 447:../src/platform/mpfs_hal/common/nwc/mss_sgmii.c **** {
 790              		.loc 1 447 1
 791              		.cfi_startproc
 792 0000 0111     		addi	sp,sp,-32
 793              		.cfi_def_cfa_offset 32
 794 0002 22EC     		sd	s0,24(sp)
 795              		.cfi_offset 8, -8
 796 0004 0010     		addi	s0,sp,32
 797              		.cfi_def_cfa 8, 0
 448:../src/platform/mpfs_hal/common/nwc/mss_sgmii.c ****     /*
 449:../src/platform/mpfs_hal/common/nwc/mss_sgmii.c ****      * R3.1
 450:../src/platform/mpfs_hal/common/nwc/mss_sgmii.c ****      * PVT calibration
 451:../src/platform/mpfs_hal/common/nwc/mss_sgmii.c ****      * Wait for IOEN from power detectors DDR and SGMII - IO enable signal from
 452:../src/platform/mpfs_hal/common/nwc/mss_sgmii.c ****      * System Control powers on
 453:../src/platform/mpfs_hal/common/nwc/mss_sgmii.c ****      *
 454:../src/platform/mpfs_hal/common/nwc/mss_sgmii.c ****      * From DDR phy SAC spec:
 455:../src/platform/mpfs_hal/common/nwc/mss_sgmii.c ****      *      MSS processor releases dce bus to send RPC bits to IO buffer,
 456:../src/platform/mpfs_hal/common/nwc/mss_sgmii.c ****      *      setting each to it's programmed mode and then asserts
 457:../src/platform/mpfs_hal/common/nwc/mss_sgmii.c ****      *      ioen high at end of this state.
 458:../src/platform/mpfs_hal/common/nwc/mss_sgmii.c ****      *
 459:../src/platform/mpfs_hal/common/nwc/mss_sgmii.c ****      *
 460:../src/platform/mpfs_hal/common/nwc/mss_sgmii.c ****      *      Following verification required for MSS IO Calibration (DDRPHY,
 461:../src/platform/mpfs_hal/common/nwc/mss_sgmii.c ****      *      SGMII and MSSIO)
 462:../src/platform/mpfs_hal/common/nwc/mss_sgmii.c ****      *          Auto-calibration supply ramp time settings
 463:../src/platform/mpfs_hal/common/nwc/mss_sgmii.c ****      *          Calibration in reset until ioen_bnk goes high, timer complete
 464:../src/platform/mpfs_hal/common/nwc/mss_sgmii.c ****      *          and setup of bits complete
 465:../src/platform/mpfs_hal/common/nwc/mss_sgmii.c ****      *              scbclk divider setting (/1)
 466:../src/platform/mpfs_hal/common/nwc/mss_sgmii.c ****      *              calibration clkdiv setting
 467:../src/platform/mpfs_hal/common/nwc/mss_sgmii.c ****      *              VS bit settings
 468:../src/platform/mpfs_hal/common/nwc/mss_sgmii.c ****      *          Initial non-calibrated codes to IOs (functional max codes)
 469:../src/platform/mpfs_hal/common/nwc/mss_sgmii.c ****      *          Calibration signal transitions
 470:../src/platform/mpfs_hal/common/nwc/mss_sgmii.c ****      *              pvt_calib_status ,        r in reg     DYN_CNTL
 471:../src/platform/mpfs_hal/common/nwc/mss_sgmii.c ****      *              reg_calib_reset,        w/r in reg     IOC_REG6
 472:../src/platform/mpfs_hal/common/nwc/mss_sgmii.c ****      *              calib_clkdiv,           w/r in reg     IOC_REG6
 473:../src/platform/mpfs_hal/common/nwc/mss_sgmii.c ****      *              soft_reset_periph_b,
 474:../src/platform/mpfs_hal/common/nwc/mss_sgmii.c ****      *              calib_lock,             w/r in reg     IOC_REG0
 475:../src/platform/mpfs_hal/common/nwc/mss_sgmii.c ****      *              calib_start,            w/r in reg     IOC_REG0
 476:../src/platform/mpfs_hal/common/nwc/mss_sgmii.c ****      *              calib_intrpt              r in reg
 477:../src/platform/mpfs_hal/common/nwc/mss_sgmii.c ****      *          Final calibration codes
 478:../src/platform/mpfs_hal/common/nwc/mss_sgmii.c ****      *          Lane latching of codes
 479:../src/platform/mpfs_hal/common/nwc/mss_sgmii.c ****      *          IO Glitching
 480:../src/platform/mpfs_hal/common/nwc/mss_sgmii.c ****      */
 481:../src/platform/mpfs_hal/common/nwc/mss_sgmii.c ****     volatile uint32_t timer_out=0U;
 798              		.loc 1 481 23
 799 0006 232604FE 		sw	zero,-20(s0)
 482:../src/platform/mpfs_hal/common/nwc/mss_sgmii.c **** 
 483:../src/platform/mpfs_hal/common/nwc/mss_sgmii.c ****     #ifndef RENODE_DEBUG
 484:../src/platform/mpfs_hal/common/nwc/mss_sgmii.c ****     /* sro_ioen_out  */
 485:../src/platform/mpfs_hal/common/nwc/mss_sgmii.c ****     while((CFG_DDR_SGMII_PHY->IOC_REG1.IOC_REG1 & (1U<<4U)) == 0U)
 800              		.loc 1 485 10
 801 000a 01A8     		j	.L45
 802              	.L46:
 486:../src/platform/mpfs_hal/common/nwc/mss_sgmii.c ****     {
 487:../src/platform/mpfs_hal/common/nwc/mss_sgmii.c ****         timer_out++;
 803              		.loc 1 487 18
 804 000c 8327C4FE 		lw	a5,-20(s0)
 805 0010 8127     		sext.w	a5,a5
 806 0012 8527     		addiw	a5,a5,1
 807 0014 8127     		sext.w	a5,a5
 808 0016 2326F4FE 		sw	a5,-20(s0)
 809              	.L45:
 485:../src/platform/mpfs_hal/common/nwc/mss_sgmii.c ****     {
 810              		.loc 1 485 29
 811 001a 97070000 		lla	a5,CFG_DDR_SGMII_PHY
 811      93870700 
 812 0022 9C63     		ld	a5,0(a5)
 485:../src/platform/mpfs_hal/common/nwc/mss_sgmii.c ****     {
 813              		.loc 1 485 39
 814 0024 83A78720 		lw	a5,520(a5)
 815 0028 8127     		sext.w	a5,a5
 485:../src/platform/mpfs_hal/common/nwc/mss_sgmii.c ****     {
 816              		.loc 1 485 49
 817 002a C18B     		andi	a5,a5,16
 818 002c 8127     		sext.w	a5,a5
 485:../src/platform/mpfs_hal/common/nwc/mss_sgmii.c ****     {
 819              		.loc 1 485 10
 820 002e F9DF     		beq	a5,zero,.L46
 488:../src/platform/mpfs_hal/common/nwc/mss_sgmii.c ****         /*todo: add a fail break */
 489:../src/platform/mpfs_hal/common/nwc/mss_sgmii.c ****     }
 490:../src/platform/mpfs_hal/common/nwc/mss_sgmii.c ****     #endif
 491:../src/platform/mpfs_hal/common/nwc/mss_sgmii.c **** 
 492:../src/platform/mpfs_hal/common/nwc/mss_sgmii.c ****     /*
 493:../src/platform/mpfs_hal/common/nwc/mss_sgmii.c ****      * R3.2  Trigger timer and wait for completion
 494:../src/platform/mpfs_hal/common/nwc/mss_sgmii.c ****      * PVT calibration
 495:../src/platform/mpfs_hal/common/nwc/mss_sgmii.c ****      * After IOEN is received from power detectors DDR and SGMII, extra time
 496:../src/platform/mpfs_hal/common/nwc/mss_sgmii.c ****      * required for voltage to ramp.
 497:../src/platform/mpfs_hal/common/nwc/mss_sgmii.c ****      * This time will come from the user- Dependent on ramp time of power supply
 498:../src/platform/mpfs_hal/common/nwc/mss_sgmii.c ****      * Approximately - Bank power timer (from ioen_in to ioen_out = 10uS)?
 499:../src/platform/mpfs_hal/common/nwc/mss_sgmii.c ****      *
 500:../src/platform/mpfs_hal/common/nwc/mss_sgmii.c ****      */
 501:../src/platform/mpfs_hal/common/nwc/mss_sgmii.c ****     /*todo: implement proper timer- user will supply ramp time */
 502:../src/platform/mpfs_hal/common/nwc/mss_sgmii.c ****     timer_out=0U;
 821              		.loc 1 502 14
 822 0030 232604FE 		sw	zero,-20(s0)
 503:../src/platform/mpfs_hal/common/nwc/mss_sgmii.c ****     while(timer_out < 0xFU)
 823              		.loc 1 503 10
 824 0034 01A8     		j	.L47
 825              	.L48:
 504:../src/platform/mpfs_hal/common/nwc/mss_sgmii.c ****     {
 505:../src/platform/mpfs_hal/common/nwc/mss_sgmii.c ****         timer_out++;
 826              		.loc 1 505 18
 827 0036 8327C4FE 		lw	a5,-20(s0)
 828 003a 8127     		sext.w	a5,a5
 829 003c 8527     		addiw	a5,a5,1
 830 003e 8127     		sext.w	a5,a5
 831 0040 2326F4FE 		sw	a5,-20(s0)
 832              	.L47:
 503:../src/platform/mpfs_hal/common/nwc/mss_sgmii.c ****     while(timer_out < 0xFU)
 833              		.loc 1 503 21
 834 0044 8327C4FE 		lw	a5,-20(s0)
 835 0048 8127     		sext.w	a5,a5
 503:../src/platform/mpfs_hal/common/nwc/mss_sgmii.c ****     while(timer_out < 0xFU)
 836              		.loc 1 503 10
 837 004a 3E87     		mv	a4,a5
 838 004c B947     		li	a5,14
 839 004e E3F4E7FE 		bleu	a4,a5,.L48
 506:../src/platform/mpfs_hal/common/nwc/mss_sgmii.c ****     }
 507:../src/platform/mpfs_hal/common/nwc/mss_sgmii.c **** 
 508:../src/platform/mpfs_hal/common/nwc/mss_sgmii.c ****     /*
 509:../src/platform/mpfs_hal/common/nwc/mss_sgmii.c ****      * R3.2 Initiate calibration:
 510:../src/platform/mpfs_hal/common/nwc/mss_sgmii.c ****      *
 511:../src/platform/mpfs_hal/common/nwc/mss_sgmii.c ****      * IOC_REG6
 512:../src/platform/mpfs_hal/common/nwc/mss_sgmii.c ****      *  bit 2:1 reg_calib_clkdiv
 513:../src/platform/mpfs_hal/common/nwc/mss_sgmii.c ****      *  bit 0  reg_calib_reset
 514:../src/platform/mpfs_hal/common/nwc/mss_sgmii.c ****      *
 515:../src/platform/mpfs_hal/common/nwc/mss_sgmii.c ****      *      DDRIO:  calib_reset: 1 -> 0
 516:../src/platform/mpfs_hal/common/nwc/mss_sgmii.c ****      *      mss_write(0x20007000 + 0x21C,0x00000004);
 517:../src/platform/mpfs_hal/common/nwc/mss_sgmii.c ****      *      DDRIO: calib_rst_b: 0 -> 1
 518:../src/platform/mpfs_hal/common/nwc/mss_sgmii.c ****      *      mss_write(0x20007000 + 0x220,0x00000000);
 519:../src/platform/mpfs_hal/common/nwc/mss_sgmii.c ****      *      SGMII: calib_rst_b: 0 -> 1
 520:../src/platform/mpfs_hal/common/nwc/mss_sgmii.c ****      *      mss_write(0x20007000 + 0xC1C,0x00000000);
 521:../src/platform/mpfs_hal/common/nwc/mss_sgmii.c ****      *
 522:../src/platform/mpfs_hal/common/nwc/mss_sgmii.c ****      */
 523:../src/platform/mpfs_hal/common/nwc/mss_sgmii.c ****     /*
 524:../src/platform/mpfs_hal/common/nwc/mss_sgmii.c ****      * Soft reset
 525:../src/platform/mpfs_hal/common/nwc/mss_sgmii.c ****      */
 526:../src/platform/mpfs_hal/common/nwc/mss_sgmii.c ****     /* PVT soft reset - APB*/
 527:../src/platform/mpfs_hal/common/nwc/mss_sgmii.c ****     /* DDRIO:  calib_reset: 1 -> 0, clk divider changed - from 2 - to 3 */
 528:../src/platform/mpfs_hal/common/nwc/mss_sgmii.c ****     CFG_DDR_SGMII_PHY->IOC_REG6.IOC_REG6               =    0x00000006U;
 840              		.loc 1 528 22
 841 0052 97070000 		lla	a5,CFG_DDR_SGMII_PHY
 841      93870700 
 842 005a 9C63     		ld	a5,0(a5)
 843              		.loc 1 528 56
 844 005c 1947     		li	a4,6
 845 005e 23AEE720 		sw	a4,540(a5)
 529:../src/platform/mpfs_hal/common/nwc/mss_sgmii.c **** 
 530:../src/platform/mpfs_hal/common/nwc/mss_sgmii.c ****     /* PVT soft nv reset - SCB, should load from RPC */
 531:../src/platform/mpfs_hal/common/nwc/mss_sgmii.c ****     IOSCB_IO_CALIB_DDR->SOFT_RESET_IOCALIB       = 0x1U; /* make sure reset */
 846              		.loc 1 531 23
 847 0062 97070000 		lla	a5,IOSCB_IO_CALIB_DDR
 847      93870700 
 848 006a 9C63     		ld	a5,0(a5)
 849              		.loc 1 531 50
 850 006c 0547     		li	a4,1
 851 006e 98C3     		sw	a4,0(a5)
 532:../src/platform/mpfs_hal/common/nwc/mss_sgmii.c ****     IOSCB_IO_CALIB_DDR->SOFT_RESET_IOCALIB       = 0x0U; /* make sure reset */
 852              		.loc 1 532 23
 853 0070 97070000 		lla	a5,IOSCB_IO_CALIB_DDR
 853      93870700 
 854 0078 9C63     		ld	a5,0(a5)
 855              		.loc 1 532 50
 856 007a 23A00700 		sw	zero,0(a5)
 533:../src/platform/mpfs_hal/common/nwc/mss_sgmii.c **** 
 534:../src/platform/mpfs_hal/common/nwc/mss_sgmii.c ****     /*
 535:../src/platform/mpfs_hal/common/nwc/mss_sgmii.c ****      * R3.4 Wait for PVT calibration to complete
 536:../src/platform/mpfs_hal/common/nwc/mss_sgmii.c ****      * Check:
 537:../src/platform/mpfs_hal/common/nwc/mss_sgmii.c ****      * bit 2 sro_calib_status
 538:../src/platform/mpfs_hal/common/nwc/mss_sgmii.c ****      *
 539:../src/platform/mpfs_hal/common/nwc/mss_sgmii.c ****      * The G5 Memory controller needs to see that the IO calibration has
 540:../src/platform/mpfs_hal/common/nwc/mss_sgmii.c ****      * completed before kicking off DDR training.
 541:../src/platform/mpfs_hal/common/nwc/mss_sgmii.c ****      * It uses the calib_status signal as a flag for this.
 542:../src/platform/mpfs_hal/common/nwc/mss_sgmii.c ****      */
 543:../src/platform/mpfs_hal/common/nwc/mss_sgmii.c ****     timer_out=0U;
 857              		.loc 1 543 14
 858 007e 232604FE 		sw	zero,-20(s0)
 544:../src/platform/mpfs_hal/common/nwc/mss_sgmii.c ****     #ifndef RENODE_DEBUG
 545:../src/platform/mpfs_hal/common/nwc/mss_sgmii.c ****     {
 546:../src/platform/mpfs_hal/common/nwc/mss_sgmii.c ****         /* PVT I/O - sro_calib_status -  wait for calibration to complete */
 547:../src/platform/mpfs_hal/common/nwc/mss_sgmii.c ****         while((IOSCB_IO_CALIB_DDR->IOC_REG1 & 0x00000004U) == 0U)
 859              		.loc 1 547 14
 860 0082 01A8     		j	.L49
 861              	.L50:
 548:../src/platform/mpfs_hal/common/nwc/mss_sgmii.c ****         {
 549:../src/platform/mpfs_hal/common/nwc/mss_sgmii.c ****             timer_out++;
 862              		.loc 1 549 22
 863 0084 8327C4FE 		lw	a5,-20(s0)
 864 0088 8127     		sext.w	a5,a5
 865 008a 8527     		addiw	a5,a5,1
 866 008c 8127     		sext.w	a5,a5
 867 008e 2326F4FE 		sw	a5,-20(s0)
 868              	.L49:
 547:../src/platform/mpfs_hal/common/nwc/mss_sgmii.c ****         {
 869              		.loc 1 547 34
 870 0092 97070000 		lla	a5,IOSCB_IO_CALIB_DDR
 870      93870700 
 871 009a 9C63     		ld	a5,0(a5)
 872 009c 9C47     		lw	a5,8(a5)
 873 009e 8127     		sext.w	a5,a5
 547:../src/platform/mpfs_hal/common/nwc/mss_sgmii.c ****         {
 874              		.loc 1 547 45
 875 00a0 918B     		andi	a5,a5,4
 876 00a2 8127     		sext.w	a5,a5
 547:../src/platform/mpfs_hal/common/nwc/mss_sgmii.c ****         {
 877              		.loc 1 547 14
 878 00a4 E5D3     		beq	a5,zero,.L50
 550:../src/platform/mpfs_hal/common/nwc/mss_sgmii.c ****         }
 551:../src/platform/mpfs_hal/common/nwc/mss_sgmii.c ****         /* PVT I/O - sro_calib_status -  wait for calibration to complete */
 552:../src/platform/mpfs_hal/common/nwc/mss_sgmii.c ****         while((CFG_DDR_SGMII_PHY->IOC_REG1.IOC_REG1 & 0x00000004U) == 0U)
 879              		.loc 1 552 14
 880 00a6 01A8     		j	.L51
 881              	.L52:
 553:../src/platform/mpfs_hal/common/nwc/mss_sgmii.c ****         {
 554:../src/platform/mpfs_hal/common/nwc/mss_sgmii.c ****             timer_out++;
 882              		.loc 1 554 22
 883 00a8 8327C4FE 		lw	a5,-20(s0)
 884 00ac 8127     		sext.w	a5,a5
 885 00ae 8527     		addiw	a5,a5,1
 886 00b0 8127     		sext.w	a5,a5
 887 00b2 2326F4FE 		sw	a5,-20(s0)
 888              	.L51:
 552:../src/platform/mpfs_hal/common/nwc/mss_sgmii.c ****         {
 889              		.loc 1 552 33
 890 00b6 97070000 		lla	a5,CFG_DDR_SGMII_PHY
 890      93870700 
 891 00be 9C63     		ld	a5,0(a5)
 552:../src/platform/mpfs_hal/common/nwc/mss_sgmii.c ****         {
 892              		.loc 1 552 43
 893 00c0 83A78720 		lw	a5,520(a5)
 894 00c4 8127     		sext.w	a5,a5
 552:../src/platform/mpfs_hal/common/nwc/mss_sgmii.c ****         {
 895              		.loc 1 552 53
 896 00c6 918B     		andi	a5,a5,4
 897 00c8 8127     		sext.w	a5,a5
 552:../src/platform/mpfs_hal/common/nwc/mss_sgmii.c ****         {
 898              		.loc 1 552 14
 899 00ca F9DF     		beq	a5,zero,.L52
 555:../src/platform/mpfs_hal/common/nwc/mss_sgmii.c ****         }
 556:../src/platform/mpfs_hal/common/nwc/mss_sgmii.c ****     }
 557:../src/platform/mpfs_hal/common/nwc/mss_sgmii.c ****     #endif
 558:../src/platform/mpfs_hal/common/nwc/mss_sgmii.c ****     /*
 559:../src/platform/mpfs_hal/common/nwc/mss_sgmii.c ****      * now assert calib lock
 560:../src/platform/mpfs_hal/common/nwc/mss_sgmii.c ****      *
 561:../src/platform/mpfs_hal/common/nwc/mss_sgmii.c ****      * */
 562:../src/platform/mpfs_hal/common/nwc/mss_sgmii.c ****     {
 563:../src/platform/mpfs_hal/common/nwc/mss_sgmii.c ****         CFG_DDR_SGMII_PHY->IOC_REG0.IOC_REG0    &= ~(0x01U<<14U);
 900              		.loc 1 563 49
 901 00cc 97070000 		lla	a5,CFG_DDR_SGMII_PHY
 901      93870700 
 902 00d4 9C63     		ld	a5,0(a5)
 903 00d6 83A74720 		lw	a5,516(a5)
 904 00da 1B870700 		sext.w	a4,a5
 905 00de 97070000 		lla	a5,CFG_DDR_SGMII_PHY
 905      93870700 
 906 00e6 9C63     		ld	a5,0(a5)
 907 00e8 BA86     		mv	a3,a4
 908 00ea 7177     		li	a4,-16384
 909 00ec 7D17     		addi	a4,a4,-1
 910 00ee 758F     		and	a4,a3,a4
 911 00f0 0127     		sext.w	a4,a4
 912 00f2 23A2E720 		sw	a4,516(a5)
 564:../src/platform/mpfs_hal/common/nwc/mss_sgmii.c ****         IOSCB_IO_CALIB_DDR->IOC_REG0            &= ~(0x01U<<14U);
 913              		.loc 1 564 49
 914 00f6 97070000 		lla	a5,IOSCB_IO_CALIB_DDR
 914      93870700 
 915 00fe 9C63     		ld	a5,0(a5)
 916 0100 DC43     		lw	a5,4(a5)
 917 0102 1B870700 		sext.w	a4,a5
 918 0106 97070000 		lla	a5,IOSCB_IO_CALIB_DDR
 918      93870700 
 919 010e 9C63     		ld	a5,0(a5)
 920 0110 BA86     		mv	a3,a4
 921 0112 7177     		li	a4,-16384
 922 0114 7D17     		addi	a4,a4,-1
 923 0116 758F     		and	a4,a3,a4
 924 0118 0127     		sext.w	a4,a4
 925 011a D8C3     		sw	a4,4(a5)
 565:../src/platform/mpfs_hal/common/nwc/mss_sgmii.c ****         CFG_DDR_SGMII_PHY->IOC_REG0.IOC_REG0    |= (0x01U<<14U);
 926              		.loc 1 565 49
 927 011c 97070000 		lla	a5,CFG_DDR_SGMII_PHY
 927      93870700 
 928 0124 9C63     		ld	a5,0(a5)
 929 0126 83A74720 		lw	a5,516(a5)
 930 012a 1B870700 		sext.w	a4,a5
 931 012e 97070000 		lla	a5,CFG_DDR_SGMII_PHY
 931      93870700 
 932 0136 9C63     		ld	a5,0(a5)
 933 0138 BA86     		mv	a3,a4
 934 013a 1167     		li	a4,16384
 935 013c 558F     		or	a4,a3,a4
 936 013e 0127     		sext.w	a4,a4
 937 0140 23A2E720 		sw	a4,516(a5)
 566:../src/platform/mpfs_hal/common/nwc/mss_sgmii.c ****         IOSCB_IO_CALIB_DDR->IOC_REG0            |= (0x01U<<14U);
 938              		.loc 1 566 49
 939 0144 97070000 		lla	a5,IOSCB_IO_CALIB_DDR
 939      93870700 
 940 014c 9C63     		ld	a5,0(a5)
 941 014e DC43     		lw	a5,4(a5)
 942 0150 1B870700 		sext.w	a4,a5
 943 0154 97070000 		lla	a5,IOSCB_IO_CALIB_DDR
 943      93870700 
 944 015c 9C63     		ld	a5,0(a5)
 945 015e BA86     		mv	a3,a4
 946 0160 1167     		li	a4,16384
 947 0162 558F     		or	a4,a3,a4
 948 0164 0127     		sext.w	a4,a4
 949 0166 D8C3     		sw	a4,4(a5)
 567:../src/platform/mpfs_hal/common/nwc/mss_sgmii.c ****     }
 568:../src/platform/mpfs_hal/common/nwc/mss_sgmii.c **** }
 950              		.loc 1 568 1
 951 0168 0100     		nop
 952 016a 6264     		ld	s0,24(sp)
 953              		.cfi_restore 8
 954              		.cfi_def_cfa 2, 32
 955 016c 0561     		addi	sp,sp,32
 956              		.cfi_def_cfa_offset 0
 957 016e 8280     		jr	ra
 958              		.cfi_endproc
 959              	.LFE27:
 961              		.section	.text.ddr_pvt_recalibration,"ax",@progbits
 962              		.align	1
 963              		.globl	ddr_pvt_recalibration
 965              	ddr_pvt_recalibration:
 966              	.LFB28:
 569:../src/platform/mpfs_hal/common/nwc/mss_sgmii.c **** 
 570:../src/platform/mpfs_hal/common/nwc/mss_sgmii.c **** 
 571:../src/platform/mpfs_hal/common/nwc/mss_sgmii.c **** /**
 572:../src/platform/mpfs_hal/common/nwc/mss_sgmii.c ****  *
 573:../src/platform/mpfs_hal/common/nwc/mss_sgmii.c ****  */
 574:../src/platform/mpfs_hal/common/nwc/mss_sgmii.c **** void ddr_pvt_recalibration(void)
 575:../src/platform/mpfs_hal/common/nwc/mss_sgmii.c **** {
 967              		.loc 1 575 1
 968              		.cfi_startproc
 969 0000 0111     		addi	sp,sp,-32
 970              		.cfi_def_cfa_offset 32
 971 0002 22EC     		sd	s0,24(sp)
 972              		.cfi_offset 8, -8
 973 0004 0010     		addi	s0,sp,32
 974              		.cfi_def_cfa 8, 0
 576:../src/platform/mpfs_hal/common/nwc/mss_sgmii.c ****     volatile uint32_t timer_out=0U;
 975              		.loc 1 576 23
 976 0006 232604FE 		sw	zero,-20(s0)
 577:../src/platform/mpfs_hal/common/nwc/mss_sgmii.c **** 
 578:../src/platform/mpfs_hal/common/nwc/mss_sgmii.c ****     /*
 579:../src/platform/mpfs_hal/common/nwc/mss_sgmii.c ****      * now assert calib start
 580:../src/platform/mpfs_hal/common/nwc/mss_sgmii.c ****      *
 581:../src/platform/mpfs_hal/common/nwc/mss_sgmii.c ****      * */
 582:../src/platform/mpfs_hal/common/nwc/mss_sgmii.c ****     {
 583:../src/platform/mpfs_hal/common/nwc/mss_sgmii.c ****         CFG_DDR_SGMII_PHY->IOC_REG0.IOC_REG0    &= ~(0x01U<<13U);
 977              		.loc 1 583 49
 978 000a 97070000 		lla	a5,CFG_DDR_SGMII_PHY
 978      93870700 
 979 0012 9C63     		ld	a5,0(a5)
 980 0014 83A74720 		lw	a5,516(a5)
 981 0018 1B870700 		sext.w	a4,a5
 982 001c 97070000 		lla	a5,CFG_DDR_SGMII_PHY
 982      93870700 
 983 0024 9C63     		ld	a5,0(a5)
 984 0026 BA86     		mv	a3,a4
 985 0028 7977     		li	a4,-8192
 986 002a 7D17     		addi	a4,a4,-1
 987 002c 758F     		and	a4,a3,a4
 988 002e 0127     		sext.w	a4,a4
 989 0030 23A2E720 		sw	a4,516(a5)
 584:../src/platform/mpfs_hal/common/nwc/mss_sgmii.c ****         IOSCB_IO_CALIB_DDR->IOC_REG0            &= ~(0x01U<<13U);
 990              		.loc 1 584 49
 991 0034 97070000 		lla	a5,IOSCB_IO_CALIB_DDR
 991      93870700 
 992 003c 9C63     		ld	a5,0(a5)
 993 003e DC43     		lw	a5,4(a5)
 994 0040 1B870700 		sext.w	a4,a5
 995 0044 97070000 		lla	a5,IOSCB_IO_CALIB_DDR
 995      93870700 
 996 004c 9C63     		ld	a5,0(a5)
 997 004e BA86     		mv	a3,a4
 998 0050 7977     		li	a4,-8192
 999 0052 7D17     		addi	a4,a4,-1
 1000 0054 758F     		and	a4,a3,a4
 1001 0056 0127     		sext.w	a4,a4
 1002 0058 D8C3     		sw	a4,4(a5)
 585:../src/platform/mpfs_hal/common/nwc/mss_sgmii.c ****         CFG_DDR_SGMII_PHY->IOC_REG0.IOC_REG0    |= (0x01U<<13U);
 1003              		.loc 1 585 49
 1004 005a 97070000 		lla	a5,CFG_DDR_SGMII_PHY
 1004      93870700 
 1005 0062 9C63     		ld	a5,0(a5)
 1006 0064 83A74720 		lw	a5,516(a5)
 1007 0068 1B870700 		sext.w	a4,a5
 1008 006c 97070000 		lla	a5,CFG_DDR_SGMII_PHY
 1008      93870700 
 1009 0074 9C63     		ld	a5,0(a5)
 1010 0076 BA86     		mv	a3,a4
 1011 0078 0967     		li	a4,8192
 1012 007a 558F     		or	a4,a3,a4
 1013 007c 0127     		sext.w	a4,a4
 1014 007e 23A2E720 		sw	a4,516(a5)
 586:../src/platform/mpfs_hal/common/nwc/mss_sgmii.c ****         IOSCB_IO_CALIB_DDR->IOC_REG0            |= (0x01U<<13U);
 1015              		.loc 1 586 49
 1016 0082 97070000 		lla	a5,IOSCB_IO_CALIB_DDR
 1016      93870700 
 1017 008a 9C63     		ld	a5,0(a5)
 1018 008c DC43     		lw	a5,4(a5)
 1019 008e 1B870700 		sext.w	a4,a5
 1020 0092 97070000 		lla	a5,IOSCB_IO_CALIB_DDR
 1020      93870700 
 1021 009a 9C63     		ld	a5,0(a5)
 1022 009c BA86     		mv	a3,a4
 1023 009e 0967     		li	a4,8192
 1024 00a0 558F     		or	a4,a3,a4
 1025 00a2 0127     		sext.w	a4,a4
 1026 00a4 D8C3     		sw	a4,4(a5)
 587:../src/platform/mpfs_hal/common/nwc/mss_sgmii.c ****     }
 588:../src/platform/mpfs_hal/common/nwc/mss_sgmii.c **** 
 589:../src/platform/mpfs_hal/common/nwc/mss_sgmii.c ****     /*
 590:../src/platform/mpfs_hal/common/nwc/mss_sgmii.c ****      * R3.4 Wait for PVT calibration to complete
 591:../src/platform/mpfs_hal/common/nwc/mss_sgmii.c ****      * Check:
 592:../src/platform/mpfs_hal/common/nwc/mss_sgmii.c ****      * bit 2 sro_calib_status
 593:../src/platform/mpfs_hal/common/nwc/mss_sgmii.c ****      *
 594:../src/platform/mpfs_hal/common/nwc/mss_sgmii.c ****      * The G5 Memory controller needs to see that the IO calibration has
 595:../src/platform/mpfs_hal/common/nwc/mss_sgmii.c ****      * completed before kicking off DDR training.
 596:../src/platform/mpfs_hal/common/nwc/mss_sgmii.c ****      * It uses the calib_status signal as a flag for this.
 597:../src/platform/mpfs_hal/common/nwc/mss_sgmii.c ****      */
 598:../src/platform/mpfs_hal/common/nwc/mss_sgmii.c ****     timer_out=0U;
 1027              		.loc 1 598 14
 1028 00a6 232604FE 		sw	zero,-20(s0)
 599:../src/platform/mpfs_hal/common/nwc/mss_sgmii.c ****     #ifndef RENODE_DEBUG
 600:../src/platform/mpfs_hal/common/nwc/mss_sgmii.c ****     {
 601:../src/platform/mpfs_hal/common/nwc/mss_sgmii.c ****         /* PVT I/O - sro_calib_status -  wait for calibration to complete */
 602:../src/platform/mpfs_hal/common/nwc/mss_sgmii.c ****         while((IOSCB_IO_CALIB_DDR->IOC_REG1 & 0x00000004U) == 0U)
 1029              		.loc 1 602 14
 1030 00aa 01A8     		j	.L54
 1031              	.L55:
 603:../src/platform/mpfs_hal/common/nwc/mss_sgmii.c ****         {
 604:../src/platform/mpfs_hal/common/nwc/mss_sgmii.c ****             timer_out++;
 1032              		.loc 1 604 22
 1033 00ac 8327C4FE 		lw	a5,-20(s0)
 1034 00b0 8127     		sext.w	a5,a5
 1035 00b2 8527     		addiw	a5,a5,1
 1036 00b4 8127     		sext.w	a5,a5
 1037 00b6 2326F4FE 		sw	a5,-20(s0)
 1038              	.L54:
 602:../src/platform/mpfs_hal/common/nwc/mss_sgmii.c ****         {
 1039              		.loc 1 602 34
 1040 00ba 97070000 		lla	a5,IOSCB_IO_CALIB_DDR
 1040      93870700 
 1041 00c2 9C63     		ld	a5,0(a5)
 1042 00c4 9C47     		lw	a5,8(a5)
 1043 00c6 8127     		sext.w	a5,a5
 602:../src/platform/mpfs_hal/common/nwc/mss_sgmii.c ****         {
 1044              		.loc 1 602 45
 1045 00c8 918B     		andi	a5,a5,4
 1046 00ca 8127     		sext.w	a5,a5
 602:../src/platform/mpfs_hal/common/nwc/mss_sgmii.c ****         {
 1047              		.loc 1 602 14
 1048 00cc E5D3     		beq	a5,zero,.L55
 605:../src/platform/mpfs_hal/common/nwc/mss_sgmii.c ****         }
 606:../src/platform/mpfs_hal/common/nwc/mss_sgmii.c ****         /* PVT I/O - sro_calib_status -  wait for calibration to complete */
 607:../src/platform/mpfs_hal/common/nwc/mss_sgmii.c ****         while((CFG_DDR_SGMII_PHY->IOC_REG1.IOC_REG1 & 0x00000004U) == 0U)
 1049              		.loc 1 607 14
 1050 00ce 01A8     		j	.L56
 1051              	.L57:
 608:../src/platform/mpfs_hal/common/nwc/mss_sgmii.c ****         {
 609:../src/platform/mpfs_hal/common/nwc/mss_sgmii.c ****             timer_out++;
 1052              		.loc 1 609 22
 1053 00d0 8327C4FE 		lw	a5,-20(s0)
 1054 00d4 8127     		sext.w	a5,a5
 1055 00d6 8527     		addiw	a5,a5,1
 1056 00d8 8127     		sext.w	a5,a5
 1057 00da 2326F4FE 		sw	a5,-20(s0)
 1058              	.L56:
 607:../src/platform/mpfs_hal/common/nwc/mss_sgmii.c ****         {
 1059              		.loc 1 607 33
 1060 00de 97070000 		lla	a5,CFG_DDR_SGMII_PHY
 1060      93870700 
 1061 00e6 9C63     		ld	a5,0(a5)
 607:../src/platform/mpfs_hal/common/nwc/mss_sgmii.c ****         {
 1062              		.loc 1 607 43
 1063 00e8 83A78720 		lw	a5,520(a5)
 1064 00ec 8127     		sext.w	a5,a5
 607:../src/platform/mpfs_hal/common/nwc/mss_sgmii.c ****         {
 1065              		.loc 1 607 53
 1066 00ee 918B     		andi	a5,a5,4
 1067 00f0 8127     		sext.w	a5,a5
 607:../src/platform/mpfs_hal/common/nwc/mss_sgmii.c ****         {
 1068              		.loc 1 607 14
 1069 00f2 F9DF     		beq	a5,zero,.L57
 610:../src/platform/mpfs_hal/common/nwc/mss_sgmii.c ****         }
 611:../src/platform/mpfs_hal/common/nwc/mss_sgmii.c ****     }
 612:../src/platform/mpfs_hal/common/nwc/mss_sgmii.c ****     #endif
 613:../src/platform/mpfs_hal/common/nwc/mss_sgmii.c ****     /*
 614:../src/platform/mpfs_hal/common/nwc/mss_sgmii.c ****      * now assert calib lock
 615:../src/platform/mpfs_hal/common/nwc/mss_sgmii.c ****      *
 616:../src/platform/mpfs_hal/common/nwc/mss_sgmii.c ****      * */
 617:../src/platform/mpfs_hal/common/nwc/mss_sgmii.c ****     {
 618:../src/platform/mpfs_hal/common/nwc/mss_sgmii.c **** #if 0   /*
 619:../src/platform/mpfs_hal/common/nwc/mss_sgmii.c ****          * fixme: this appears to cause wite calibration to fail, investigating
 620:../src/platform/mpfs_hal/common/nwc/mss_sgmii.c ****          */
 621:../src/platform/mpfs_hal/common/nwc/mss_sgmii.c ****         CFG_DDR_SGMII_PHY->IOC_REG0.IOC_REG0    &= ~(0x01U<<14U);
 622:../src/platform/mpfs_hal/common/nwc/mss_sgmii.c ****         IOSCB_IO_CALIB_DDR->IOC_REG0            &= ~(0x01U<<14U);
 623:../src/platform/mpfs_hal/common/nwc/mss_sgmii.c ****         CFG_DDR_SGMII_PHY->IOC_REG0.IOC_REG0    |= (0x01U<<14U);
 624:../src/platform/mpfs_hal/common/nwc/mss_sgmii.c ****         IOSCB_IO_CALIB_DDR->IOC_REG0            |= (0x01U<<14U);
 625:../src/platform/mpfs_hal/common/nwc/mss_sgmii.c **** #endif
 626:../src/platform/mpfs_hal/common/nwc/mss_sgmii.c ****     }
 627:../src/platform/mpfs_hal/common/nwc/mss_sgmii.c **** }
 1070              		.loc 1 627 1
 1071 00f4 0100     		nop
 1072 00f6 6264     		ld	s0,24(sp)
 1073              		.cfi_restore 8
 1074              		.cfi_def_cfa 2, 32
 1075 00f8 0561     		addi	sp,sp,32
 1076              		.cfi_def_cfa_offset 0
 1077 00fa 8280     		jr	ra
 1078              		.cfi_endproc
 1079              	.LFE28:
 1081              		.section	.text.set_early_late_thresholds,"ax",@progbits
 1082              		.align	1
 1084              	set_early_late_thresholds:
 1085              	.LFB29:
 628:../src/platform/mpfs_hal/common/nwc/mss_sgmii.c **** 
 629:../src/platform/mpfs_hal/common/nwc/mss_sgmii.c **** /**
 630:../src/platform/mpfs_hal/common/nwc/mss_sgmii.c ****  * Set eye thresholds
 631:../src/platform/mpfs_hal/common/nwc/mss_sgmii.c ****  * @param n_late_threshold
 632:../src/platform/mpfs_hal/common/nwc/mss_sgmii.c ****  * @param p_early_threshold
 633:../src/platform/mpfs_hal/common/nwc/mss_sgmii.c ****  */
 634:../src/platform/mpfs_hal/common/nwc/mss_sgmii.c **** static void set_early_late_thresholds(uint8_t n_late_threshold, uint8_t p_early_threshold)
 635:../src/platform/mpfs_hal/common/nwc/mss_sgmii.c **** {
 1086              		.loc 1 635 1
 1087              		.cfi_startproc
 1088 0000 7971     		addi	sp,sp,-48
 1089              		.cfi_def_cfa_offset 48
 1090 0002 22F4     		sd	s0,40(sp)
 1091              		.cfi_offset 8, -8
 1092 0004 0018     		addi	s0,sp,48
 1093              		.cfi_def_cfa 8, 0
 1094 0006 AA87     		mv	a5,a0
 1095 0008 2E87     		mv	a4,a1
 1096 000a A30FF4FC 		sb	a5,-33(s0)
 1097 000e BA87     		mv	a5,a4
 1098 0010 230FF4FC 		sb	a5,-34(s0)
 636:../src/platform/mpfs_hal/common/nwc/mss_sgmii.c ****     uint32_t n_eye_values;
 637:../src/platform/mpfs_hal/common/nwc/mss_sgmii.c ****     uint32_t p_eye_value;
 638:../src/platform/mpfs_hal/common/nwc/mss_sgmii.c **** 
 639:../src/platform/mpfs_hal/common/nwc/mss_sgmii.c ****     /*
 640:../src/platform/mpfs_hal/common/nwc/mss_sgmii.c ****      * Set the N eye width value
 641:../src/platform/mpfs_hal/common/nwc/mss_sgmii.c ****      * bits 31:29 for CH1, bits 28:26  for CH0 in spare control (N eye width value)
 642:../src/platform/mpfs_hal/common/nwc/mss_sgmii.c ****      */
 643:../src/platform/mpfs_hal/common/nwc/mss_sgmii.c ****     n_eye_values = (uint32_t)(n_late_threshold << SHIFT_TO_CH0_N_EYE_VALUE);
 1099              		.loc 1 643 48
 1100 0014 8347F4FD 		lbu	a5,-33(s0)
 1101 0018 8127     		sext.w	a5,a5
 1102 001a 9B97A701 		slliw	a5,a5,26
 1103 001e 8127     		sext.w	a5,a5
 1104              		.loc 1 643 18
 1105 0020 2326F4FE 		sw	a5,-20(s0)
 644:../src/platform/mpfs_hal/common/nwc/mss_sgmii.c ****     n_eye_values |= (uint32_t)(n_late_threshold << SHIFT_TO_CH1_N_EYE_VALUE);
 1106              		.loc 1 644 49
 1107 0024 8347F4FD 		lbu	a5,-33(s0)
 1108 0028 8127     		sext.w	a5,a5
 1109 002a 9B97D701 		slliw	a5,a5,29
 1110 002e 8127     		sext.w	a5,a5
 1111              		.loc 1 644 21
 1112 0030 1B870700 		sext.w	a4,a5
 1113              		.loc 1 644 18
 1114 0034 8327C4FE 		lw	a5,-20(s0)
 1115 0038 D98F     		or	a5,a5,a4
 1116 003a 2326F4FE 		sw	a5,-20(s0)
 645:../src/platform/mpfs_hal/common/nwc/mss_sgmii.c **** 
 646:../src/platform/mpfs_hal/common/nwc/mss_sgmii.c ****     CFG_DDR_SGMII_PHY->SPARE_CNTL.SPARE_CNTL    = (LIBERO_SETTING_SPARE_CNTL & N_EYE_MASK) | n_eye_
 1117              		.loc 1 646 22
 1118 003e 97070000 		lla	a5,CFG_DDR_SGMII_PHY
 1118      93870700 
 1119 0046 9463     		ld	a3,0(a5)
 1120              		.loc 1 646 49
 1121 0048 0327C4FE 		lw	a4,-20(s0)
 1122 004c B7070003 		li	a5,50331648
 1123 0050 D98F     		or	a5,a4,a5
 1124 0052 1B870700 		sext.w	a4,a5
 1125 0056 8567     		li	a5,4096
 1126 0058 B697     		add	a5,a3,a5
 1127 005a 23A2E7C2 		sw	a4,-988(a5)
 647:../src/platform/mpfs_hal/common/nwc/mss_sgmii.c **** 
 648:../src/platform/mpfs_hal/common/nwc/mss_sgmii.c ****     /*
 649:../src/platform/mpfs_hal/common/nwc/mss_sgmii.c ****      * Set P values
 650:../src/platform/mpfs_hal/common/nwc/mss_sgmii.c ****      */
 651:../src/platform/mpfs_hal/common/nwc/mss_sgmii.c ****     p_eye_value = (uint32_t)(p_early_threshold << SHIFT_TO_REG_RX0_EYEWIDTH);
 1128              		.loc 1 651 48
 1129 005e 8347E4FD 		lbu	a5,-34(s0)
 1130 0062 8127     		sext.w	a5,a5
 1131 0064 9B975701 		slliw	a5,a5,21
 1132 0068 8127     		sext.w	a5,a5
 1133              		.loc 1 651 17
 1134 006a 2324F4FE 		sw	a5,-24(s0)
 652:../src/platform/mpfs_hal/common/nwc/mss_sgmii.c ****     CFG_DDR_SGMII_PHY->CH0_CNTL.CH0_CNTL        = ((LIBERO_SETTING_CH0_CNTL & REG_RX0_EYEWIDTH_P_MA
 1135              		.loc 1 652 22
 1136 006e 97070000 		lla	a5,CFG_DDR_SGMII_PHY
 1136      93870700 
 1137 0076 9463     		ld	a3,0(a5)
 1138              		.loc 1 652 49
 1139 0078 032784FE 		lw	a4,-24(s0)
 1140 007c B77710B7 		li	a5,-1223659520
 1141 0080 93870777 		addi	a5,a5,1904
 1142 0084 D98F     		or	a5,a4,a5
 1143 0086 1B870700 		sext.w	a4,a5
 1144 008a 8567     		li	a5,4096
 1145 008c B697     		add	a5,a3,a5
 1146 008e 23A6E7C0 		sw	a4,-1012(a5)
 653:../src/platform/mpfs_hal/common/nwc/mss_sgmii.c ****     CFG_DDR_SGMII_PHY->CH1_CNTL.CH1_CNTL        = ((LIBERO_SETTING_CH1_CNTL & REG_RX0_EYEWIDTH_P_MA
 1147              		.loc 1 653 22
 1148 0092 97070000 		lla	a5,CFG_DDR_SGMII_PHY
 1148      93870700 
 1149 009a 9463     		ld	a3,0(a5)
 1150              		.loc 1 653 49
 1151 009c 032784FE 		lw	a4,-24(s0)
 1152 00a0 B77710B7 		li	a5,-1223659520
 1153 00a4 93870777 		addi	a5,a5,1904
 1154 00a8 D98F     		or	a5,a4,a5
 1155 00aa 1B870700 		sext.w	a4,a5
 1156 00ae 8567     		li	a5,4096
 1157 00b0 B697     		add	a5,a3,a5
 1158 00b2 23A8E7C0 		sw	a4,-1008(a5)
 654:../src/platform/mpfs_hal/common/nwc/mss_sgmii.c **** 
 655:../src/platform/mpfs_hal/common/nwc/mss_sgmii.c **** }
 1159              		.loc 1 655 1
 1160 00b6 0100     		nop
 1161 00b8 2274     		ld	s0,40(sp)
 1162              		.cfi_restore 8
 1163              		.cfi_def_cfa 2, 48
 1164 00ba 4561     		addi	sp,sp,48
 1165              		.cfi_def_cfa_offset 0
 1166 00bc 8280     		jr	ra
 1167              		.cfi_endproc
 1168              	.LFE29:
 1170              		.section	.sbss.sgmii_training_state.14156,"aw",@nobits
 1171              		.align	2
 1174              	sgmii_training_state.14156:
 1175 0000 00000000 		.zero	4
 1176              		.section	.sdata.status.14157,"aw"
 1177              		.align	2
 1180              	status.14157:
 1181 0000 01000000 		.word	1
 1182              		.section	.sbss.timer_out.14158,"aw",@nobits
 1183              		.align	2
 1186              	timer_out.14158:
 1187 0000 00000000 		.zero	4
 1188              		.text
 1189              	.Letext0:
 1190              		.file 2 "/home/vinay/Desktop/soft_console/SoftConsole-v2022.2-RISC-V-747/riscv-unknown-elf-gcc/lib
 1191              		.file 3 "/home/vinay/Desktop/soft_console/SoftConsole-v2022.2-RISC-V-747/riscv-unknown-elf-gcc/ris
 1192              		.file 4 "/home/vinay/Desktop/soft_console/SoftConsole-v2022.2-RISC-V-747/riscv-unknown-elf-gcc/ris
 1193              		.file 5 "/home/vinay/Desktop/soft_console/SoftConsole-v2022.2-RISC-V-747/riscv-unknown-elf-gcc/ris
 1194              		.file 6 "/home/vinay/Desktop/soft_console/SoftConsole-v2022.2-RISC-V-747/riscv-unknown-elf-gcc/ris
 1195              		.file 7 "/home/vinay/Desktop/soft_console/SoftConsole-v2022.2-RISC-V-747/riscv-unknown-elf-gcc/ris
 1196              		.file 8 "/home/vinay/Desktop/softconsole_watershed/Water-shed/src/platform/mpfs_hal/common/nwc/mss
 1197              		.file 9 "/home/vinay/Desktop/softconsole_watershed/Water-shed/src/platform/mpfs_hal/common/nwc/mss
 1198              		.file 10 "/home/vinay/Desktop/softconsole_watershed/Water-shed/src/platform/mpfs_hal/common/nwc/ms
 1199              		.file 11 "/home/vinay/Desktop/softconsole_watershed/Water-shed/src/platform/mpfs_hal/common/mss_mp
 1200              		.file 12 "/home/vinay/Desktop/softconsole_watershed/Water-shed/src/platform/mpfs_hal/common/mss_pl
 1201              		.file 13 "/home/vinay/Desktop/softconsole_watershed/Water-shed/src/platform/mpfs_hal/common/nwc/ms
 1202              		.file 14 "/home/vinay/Desktop/softconsole_watershed/Water-shed/src/platform/mpfs_hal/common/mss_pe
 1203              		.file 15 "/home/vinay/Desktop/softconsole_watershed/Water-shed/src/platform/mpfs_hal/common/nwc/ms
 1204              		.file 16 "/home/vinay/Desktop/softconsole_watershed/Water-shed/src/platform/mpfs_hal/startup_gcc/s