   1              		.file	"mss_pll.c"
   2              		.option nopic
   3              		.attribute arch, "rv64i2p0_m2p0_a2p0_f2p0_d2p0_c2p0"
   4              		.attribute unaligned_access, 0
   5              		.attribute stack_align, 16
   6              		.text
   7              	.Ltext0:
   8              		.cfi_sections	.debug_frame
   9              		.globl	MSS_SCB_MSS_PLL
  10              		.section	.sdata2.MSS_SCB_MSS_PLL,"a"
  11              		.align	3
  14              	MSS_SCB_MSS_PLL:
  15 0000 0010003E 		.dword	1040191488
  15      00000000 
  16              		.globl	MSS_SCB_DDR_PLL
  17              		.section	.sdata2.MSS_SCB_DDR_PLL,"a"
  18              		.align	3
  21              	MSS_SCB_DDR_PLL:
  22 0000 0000013E 		.dword	1040252928
  22      00000000 
  23              		.globl	MSS_SCB_SGMII_PLL
  24              		.section	.sdata2.MSS_SCB_SGMII_PLL,"a"
  25              		.align	3
  28              	MSS_SCB_SGMII_PLL:
  29 0000 0000083E 		.dword	1040711680
  29      00000000 
  30              		.globl	MSS_SCB_CFM_MSS_MUX
  31              		.section	.sdata2.MSS_SCB_CFM_MSS_MUX,"a"
  32              		.align	3
  35              	MSS_SCB_CFM_MSS_MUX:
  36 0000 0020003E 		.dword	1040195584
  36      00000000 
  37              		.globl	MSS_SCB_CFM_SGMII_MUX
  38              		.section	.sdata2.MSS_SCB_CFM_SGMII_MUX,"a"
  39              		.align	3
  42              	MSS_SCB_CFM_SGMII_MUX:
  43 0000 0000203E 		.dword	1042284544
  43      00000000 
  44              		.globl	IOSCB_IO_CALIB_SGMII
  45              		.section	.sdata2.IOSCB_IO_CALIB_SGMII,"a"
  46              		.align	3
  49              	IOSCB_IO_CALIB_SGMII:
  50 0000 0000803E 		.dword	1048576000
  50      00000000 
  51              		.globl	IOSCB_IO_CALIB_DDR
  52              		.section	.sdata2.IOSCB_IO_CALIB_DDR,"a"
  53              		.align	3
  56              	IOSCB_IO_CALIB_DDR:
  57 0000 0000043E 		.dword	1040449536
  57      00000000 
  58              		.section	.text.set_RTC_divisor,"ax",@progbits
  59              		.align	1
  60              		.globl	set_RTC_divisor
  62              	set_RTC_divisor:
  63              	.LFB19:
  64              		.file 1 "../src/platform/mpfs_hal/common/nwc/mss_pll.c"
   1:../src/platform/mpfs_hal/common/nwc/mss_pll.c **** /*******************************************************************************
   2:../src/platform/mpfs_hal/common/nwc/mss_pll.c ****  * Copyright 2019-2022 Microchip FPGA Embedded Systems Solutions.
   3:../src/platform/mpfs_hal/common/nwc/mss_pll.c ****  *
   4:../src/platform/mpfs_hal/common/nwc/mss_pll.c ****  * SPDX-License-Identifier: MIT
   5:../src/platform/mpfs_hal/common/nwc/mss_pll.c ****  *
   6:../src/platform/mpfs_hal/common/nwc/mss_pll.c ****  * MPFS HAL Embedded Software
   7:../src/platform/mpfs_hal/common/nwc/mss_pll.c ****  *
   8:../src/platform/mpfs_hal/common/nwc/mss_pll.c ****  */
   9:../src/platform/mpfs_hal/common/nwc/mss_pll.c **** 
  10:../src/platform/mpfs_hal/common/nwc/mss_pll.c **** /*******************************************************************************
  11:../src/platform/mpfs_hal/common/nwc/mss_pll.c ****  * @file mss_pll.c
  12:../src/platform/mpfs_hal/common/nwc/mss_pll.c ****  * @author Microchip-FPGA Embedded Systems Solutions
  13:../src/platform/mpfs_hal/common/nwc/mss_pll.c ****  * @brief MPSS PLL setup
  14:../src/platform/mpfs_hal/common/nwc/mss_pll.c ****  *
  15:../src/platform/mpfs_hal/common/nwc/mss_pll.c ****  */
  16:../src/platform/mpfs_hal/common/nwc/mss_pll.c **** 
  17:../src/platform/mpfs_hal/common/nwc/mss_pll.c **** #include "mpfs_hal/mss_hal.h"
  18:../src/platform/mpfs_hal/common/nwc/mss_pll.c **** #include "mss_pll.h"
  19:../src/platform/mpfs_hal/common/nwc/mss_pll.c **** 
  20:../src/platform/mpfs_hal/common/nwc/mss_pll.c **** /**
  21:../src/platform/mpfs_hal/common/nwc/mss_pll.c ****  * We do it this way to avoid multiple LDRA warnings
  22:../src/platform/mpfs_hal/common/nwc/mss_pll.c ****  * alternate it to
  23:../src/platform/mpfs_hal/common/nwc/mss_pll.c ****  * #define MSS_SCB_MSS_PLL      (IOSCB_CFM_MSS *) )x7xxxxxxx    The actual
  24:../src/platform/mpfs_hal/common/nwc/mss_pll.c ****  * address * but above results in error every time we use the function
  25:../src/platform/mpfs_hal/common/nwc/mss_pll.c ****  */
  26:../src/platform/mpfs_hal/common/nwc/mss_pll.c **** 
  27:../src/platform/mpfs_hal/common/nwc/mss_pll.c **** PLL_TypeDef * const MSS_SCB_MSS_PLL = ((PLL_TypeDef *) MSS_SCB_MSS_PLL_BASE);
  28:../src/platform/mpfs_hal/common/nwc/mss_pll.c **** PLL_TypeDef * const MSS_SCB_DDR_PLL = ((PLL_TypeDef *) MSS_SCB_DDR_PLL_BASE);
  29:../src/platform/mpfs_hal/common/nwc/mss_pll.c **** PLL_TypeDef * const MSS_SCB_SGMII_PLL = ((PLL_TypeDef *) MSS_SCB_SGMII_PLL_BASE);
  30:../src/platform/mpfs_hal/common/nwc/mss_pll.c **** IOSCB_CFM_MSS * const MSS_SCB_CFM_MSS_MUX          =\
  31:../src/platform/mpfs_hal/common/nwc/mss_pll.c ****         ((IOSCB_CFM_MSS *) MSS_SCB_MSS_MUX_BASE);
  32:../src/platform/mpfs_hal/common/nwc/mss_pll.c **** IOSCB_CFM_SGMII * const MSS_SCB_CFM_SGMII_MUX =\
  33:../src/platform/mpfs_hal/common/nwc/mss_pll.c ****         ((IOSCB_CFM_SGMII *) MSS_SCB_SGMII_MUX_BASE);
  34:../src/platform/mpfs_hal/common/nwc/mss_pll.c **** IOSCB_IO_CALIB_STRUCT * const IOSCB_IO_CALIB_SGMII =\
  35:../src/platform/mpfs_hal/common/nwc/mss_pll.c ****         (IOSCB_IO_CALIB_STRUCT *)IOSCB_IO_CALIB_SGMII_BASE;
  36:../src/platform/mpfs_hal/common/nwc/mss_pll.c **** IOSCB_IO_CALIB_STRUCT * const IOSCB_IO_CALIB_DDR   =\
  37:../src/platform/mpfs_hal/common/nwc/mss_pll.c ****         (IOSCB_IO_CALIB_STRUCT *)IOSCB_IO_CALIB_DDR_BASE;
  38:../src/platform/mpfs_hal/common/nwc/mss_pll.c **** 
  39:../src/platform/mpfs_hal/common/nwc/mss_pll.c **** 
  40:../src/platform/mpfs_hal/common/nwc/mss_pll.c **** /*******************************************************************************-
  41:../src/platform/mpfs_hal/common/nwc/mss_pll.c ****  * Symbols from the linker script used to locate the text, data and bss
  42:../src/platform/mpfs_hal/common/nwc/mss_pll.c ****  * sections.
  43:../src/platform/mpfs_hal/common/nwc/mss_pll.c ****  ******************************************************************************/
  44:../src/platform/mpfs_hal/common/nwc/mss_pll.c **** #ifndef  MPFS_HAL_HW_CONFIG
  45:../src/platform/mpfs_hal/common/nwc/mss_pll.c **** uint32_t __sc_load;
  46:../src/platform/mpfs_hal/common/nwc/mss_pll.c **** uint32_t __sc_start;
  47:../src/platform/mpfs_hal/common/nwc/mss_pll.c **** uint32_t __sc_end;
  48:../src/platform/mpfs_hal/common/nwc/mss_pll.c **** #else
  49:../src/platform/mpfs_hal/common/nwc/mss_pll.c **** extern uint32_t __sc_load;
  50:../src/platform/mpfs_hal/common/nwc/mss_pll.c **** extern uint32_t __sc_start;
  51:../src/platform/mpfs_hal/common/nwc/mss_pll.c **** extern uint32_t __sc_end;
  52:../src/platform/mpfs_hal/common/nwc/mss_pll.c **** 
  53:../src/platform/mpfs_hal/common/nwc/mss_pll.c **** /*******************************************************************************
  54:../src/platform/mpfs_hal/common/nwc/mss_pll.c ****  * Local Defines                                                               *
  55:../src/platform/mpfs_hal/common/nwc/mss_pll.c ****  ******************************************************************************/
  56:../src/platform/mpfs_hal/common/nwc/mss_pll.c **** 
  57:../src/platform/mpfs_hal/common/nwc/mss_pll.c **** /*******************************************************************************
  58:../src/platform/mpfs_hal/common/nwc/mss_pll.c ****  * Local function declarations
  59:../src/platform/mpfs_hal/common/nwc/mss_pll.c ****  */
  60:../src/platform/mpfs_hal/common/nwc/mss_pll.c **** __attribute__((weak)) void copy_switch_code(void);
  61:../src/platform/mpfs_hal/common/nwc/mss_pll.c **** 
  62:../src/platform/mpfs_hal/common/nwc/mss_pll.c **** 
  63:../src/platform/mpfs_hal/common/nwc/mss_pll.c **** /*******************************************************************************
  64:../src/platform/mpfs_hal/common/nwc/mss_pll.c ****  * Instance definitions                                                        *
  65:../src/platform/mpfs_hal/common/nwc/mss_pll.c ****  ******************************************************************************/
  66:../src/platform/mpfs_hal/common/nwc/mss_pll.c **** 
  67:../src/platform/mpfs_hal/common/nwc/mss_pll.c **** void sgmii_mux_config(uint8_t option);
  68:../src/platform/mpfs_hal/common/nwc/mss_pll.c **** 
  69:../src/platform/mpfs_hal/common/nwc/mss_pll.c **** /*******************************************************************************
  70:../src/platform/mpfs_hal/common/nwc/mss_pll.c ****  Local functions                                 *
  71:../src/platform/mpfs_hal/common/nwc/mss_pll.c **** *******************************************************************************/
  72:../src/platform/mpfs_hal/common/nwc/mss_pll.c **** 
  73:../src/platform/mpfs_hal/common/nwc/mss_pll.c **** 
  74:../src/platform/mpfs_hal/common/nwc/mss_pll.c **** /***************************************************************************//**
  75:../src/platform/mpfs_hal/common/nwc/mss_pll.c ****  * set_RTC_divisor()
  76:../src/platform/mpfs_hal/common/nwc/mss_pll.c ****  * Set the RTC divisor based on MSS Configurator setting
  77:../src/platform/mpfs_hal/common/nwc/mss_pll.c ****  * Note: This will always be calculated so RTC clock is 1MHz.
  78:../src/platform/mpfs_hal/common/nwc/mss_pll.c ****  */
  79:../src/platform/mpfs_hal/common/nwc/mss_pll.c **** void set_RTC_divisor(void)
  80:../src/platform/mpfs_hal/common/nwc/mss_pll.c **** {
  65              		.loc 1 80 1
  66              		.cfi_startproc
  67 0000 4111     		addi	sp,sp,-16
  68              		.cfi_def_cfa_offset 16
  69 0002 22E4     		sd	s0,8(sp)
  70              		.cfi_offset 8, -8
  71 0004 0008     		addi	s0,sp,16
  72              		.cfi_def_cfa 8, 0
  81:../src/platform/mpfs_hal/common/nwc/mss_pll.c **** 
  82:../src/platform/mpfs_hal/common/nwc/mss_pll.c ****     SYSREG->RTC_CLOCK_CR &= ~(0x01U<<16); /* disable RTC clock */
  73              		.loc 1 82 26
  74 0006 B7270020 		li	a5,536879104
  75 000a DC47     		lw	a5,12(a5)
  76 000c 1B870700 		sext.w	a4,a5
  77 0010 B7270020 		li	a5,536879104
  78 0014 BA86     		mv	a3,a4
  79 0016 4177     		li	a4,-65536
  80 0018 7D17     		addi	a4,a4,-1
  81 001a 758F     		and	a4,a3,a4
  82 001c 0127     		sext.w	a4,a4
  83 001e D8C7     		sw	a4,12(a5)
  83:../src/platform/mpfs_hal/common/nwc/mss_pll.c **** 
  84:../src/platform/mpfs_hal/common/nwc/mss_pll.c ****     SYSREG->RTC_CLOCK_CR = (LIBERO_SETTING_MSS_EXT_SGMII_REF_CLK / \
  84              		.loc 1 84 11
  85 0020 B7270020 		li	a5,536879104
  86              		.loc 1 84 26
  87 0024 1307D007 		li	a4,125
  88 0028 D8C7     		sw	a4,12(a5)
  85:../src/platform/mpfs_hal/common/nwc/mss_pll.c ****             LIBERO_SETTING_MSS_RTC_TOGGLE_CLK);
  86:../src/platform/mpfs_hal/common/nwc/mss_pll.c **** 
  87:../src/platform/mpfs_hal/common/nwc/mss_pll.c ****     SYSREG->RTC_CLOCK_CR |= (0x01U<<16); /* enable RTC clock */
  89              		.loc 1 87 26
  90 002a B7270020 		li	a5,536879104
  91 002e DC47     		lw	a5,12(a5)
  92 0030 1B870700 		sext.w	a4,a5
  93 0034 B7270020 		li	a5,536879104
  94 0038 BA86     		mv	a3,a4
  95 003a 4167     		li	a4,65536
  96 003c 558F     		or	a4,a3,a4
  97 003e 0127     		sext.w	a4,a4
  98 0040 D8C7     		sw	a4,12(a5)
  88:../src/platform/mpfs_hal/common/nwc/mss_pll.c **** 
  89:../src/platform/mpfs_hal/common/nwc/mss_pll.c **** }
  99              		.loc 1 89 1
 100 0042 0100     		nop
 101 0044 2264     		ld	s0,8(sp)
 102              		.cfi_restore 8
 103              		.cfi_def_cfa 2, 16
 104 0046 4101     		addi	sp,sp,16
 105              		.cfi_def_cfa_offset 0
 106 0048 8280     		jr	ra
 107              		.cfi_endproc
 108              	.LFE19:
 110              		.section	.text.mss_mux_pre_mss_pll_config,"ax",@progbits
 111              		.align	1
 113              	mss_mux_pre_mss_pll_config:
 114              	.LFB20:
  90:../src/platform/mpfs_hal/common/nwc/mss_pll.c **** 
  91:../src/platform/mpfs_hal/common/nwc/mss_pll.c **** 
  92:../src/platform/mpfs_hal/common/nwc/mss_pll.c **** /***************************************************************************//**
  93:../src/platform/mpfs_hal/common/nwc/mss_pll.c ****  * mss_mux_pre_mss_pll_config()
  94:../src/platform/mpfs_hal/common/nwc/mss_pll.c ****  *
  95:../src/platform/mpfs_hal/common/nwc/mss_pll.c ****  * Feed through required reference clks to PLL, configure PLL and wait for lock
  96:../src/platform/mpfs_hal/common/nwc/mss_pll.c ****  ******************************************************************************/
  97:../src/platform/mpfs_hal/common/nwc/mss_pll.c **** static void mss_mux_pre_mss_pll_config(void)
  98:../src/platform/mpfs_hal/common/nwc/mss_pll.c **** {
 115              		.loc 1 98 1
 116              		.cfi_startproc
 117 0000 0111     		addi	sp,sp,-32
 118              		.cfi_def_cfa_offset 32
 119 0002 22EC     		sd	s0,24(sp)
 120              		.cfi_offset 8, -8
 121 0004 0010     		addi	s0,sp,32
 122              		.cfi_def_cfa 8, 0
  99:../src/platform/mpfs_hal/common/nwc/mss_pll.c ****     /*
 100:../src/platform/mpfs_hal/common/nwc/mss_pll.c ****      * PLL RF clk mux selections
 101:../src/platform/mpfs_hal/common/nwc/mss_pll.c ****      *  [31:15] Reserved
 102:../src/platform/mpfs_hal/common/nwc/mss_pll.c ****      *  [14:10] pll1_fdr_sel
 103:../src/platform/mpfs_hal/common/nwc/mss_pll.c ****      *  [9:8]   pll1_rfclk1_sel
 104:../src/platform/mpfs_hal/common/nwc/mss_pll.c ****      *  [7:6]   pll1_rfclk0_sel
 105:../src/platform/mpfs_hal/common/nwc/mss_pll.c ****      *  [5:4]   pll0_rfclk1_sel
 106:../src/platform/mpfs_hal/common/nwc/mss_pll.c ****      *  [3:2]   pll0_rfclk0_sel
 107:../src/platform/mpfs_hal/common/nwc/mss_pll.c ****      *  [1:0]   clk_in_mac_tsu_sel
 108:../src/platform/mpfs_hal/common/nwc/mss_pll.c ****      *
 109:../src/platform/mpfs_hal/common/nwc/mss_pll.c ****      *  Each mux uses 2 configuration bits. These are decoded as follows:
 110:../src/platform/mpfs_hal/common/nwc/mss_pll.c ****      *  00  vss
 111:../src/platform/mpfs_hal/common/nwc/mss_pll.c ****      *  01  refclk_p,refclk_n
 112:../src/platform/mpfs_hal/common/nwc/mss_pll.c ****      *  10  scb_clk
 113:../src/platform/mpfs_hal/common/nwc/mss_pll.c ****      *  10  serdes_refclk_crn_mss<0>, serdes_refclk_crn_mss<1>
 114:../src/platform/mpfs_hal/common/nwc/mss_pll.c ****      *
 115:../src/platform/mpfs_hal/common/nwc/mss_pll.c ****      *  e.g.
 116:../src/platform/mpfs_hal/common/nwc/mss_pll.c ****      *  PLL_CKMUX = 0x00000154
 117:../src/platform/mpfs_hal/common/nwc/mss_pll.c ****      *    pll0_rfclk0_sel = 1 => refclk_p is used for pll0 ref0 and refclk_n is
 118:../src/platform/mpfs_hal/common/nwc/mss_pll.c ****      *    fed to MSS PLL ref1
 119:../src/platform/mpfs_hal/common/nwc/mss_pll.c ****      */
 120:../src/platform/mpfs_hal/common/nwc/mss_pll.c ****     /* CFM_MSS 0x3E002000   - 0x08 */
 121:../src/platform/mpfs_hal/common/nwc/mss_pll.c ****     MSS_SCB_CFM_MSS_MUX->PLL_CKMUX = LIBERO_SETTING_MSS_PLL_CKMUX;
 123              		.loc 1 121 24
 124 0006 B727003E 		li	a5,1040195584
 125              		.loc 1 121 36
 126 000a 13075015 		li	a4,341
 127 000e 98C7     		sw	a4,8(a5)
 122:../src/platform/mpfs_hal/common/nwc/mss_pll.c ****     /*
 123:../src/platform/mpfs_hal/common/nwc/mss_pll.c ****      * MSS Clock mux selections
 124:../src/platform/mpfs_hal/common/nwc/mss_pll.c ****      *  [31:5]  Reserved
 125:../src/platform/mpfs_hal/common/nwc/mss_pll.c ****      *  [4]     clk_standby_sel
 126:../src/platform/mpfs_hal/common/nwc/mss_pll.c ****      *  [3:2]   mssclk_mux_md
 127:../src/platform/mpfs_hal/common/nwc/mss_pll.c ****      *  step 7: 7)  MSS Processor writes mssclk_mux_sel_int<0>=1 to select the
 128:../src/platform/mpfs_hal/common/nwc/mss_pll.c ****      *  MSS PLL clock.
 129:../src/platform/mpfs_hal/common/nwc/mss_pll.c ****      *  [1:0]   mssclk_mux_sel        MSS glitchless mux select
 130:../src/platform/mpfs_hal/common/nwc/mss_pll.c ****      *                                      00 - msspll_fdr_0=clk_standby
 131:../src/platform/mpfs_hal/common/nwc/mss_pll.c ****      *                                           msspll_fdr_1=clk_standby
 132:../src/platform/mpfs_hal/common/nwc/mss_pll.c ****      *                                      01 - msspll_fdr_0=pllout0
 133:../src/platform/mpfs_hal/common/nwc/mss_pll.c ****      *                                           msspll_fdr_1=clk_standby
 134:../src/platform/mpfs_hal/common/nwc/mss_pll.c ****      *                                      10 - msspll_fdr_0=clk_standby
 135:../src/platform/mpfs_hal/common/nwc/mss_pll.c ****      *                                           msspll_fdr_1=pllout1
 136:../src/platform/mpfs_hal/common/nwc/mss_pll.c ****      *                                      11 - msspll_fdr_0=pllout0
 137:../src/platform/mpfs_hal/common/nwc/mss_pll.c ****      *                                           msspll_fdr_1=pllout1
 138:../src/platform/mpfs_hal/common/nwc/mss_pll.c ****      *
 139:../src/platform/mpfs_hal/common/nwc/mss_pll.c ****      *
 140:../src/platform/mpfs_hal/common/nwc/mss_pll.c ****      */
 141:../src/platform/mpfs_hal/common/nwc/mss_pll.c ****     /*
 142:../src/platform/mpfs_hal/common/nwc/mss_pll.c ****      * We will not set as already set to 0, we feed through after we have setup
 143:../src/platform/mpfs_hal/common/nwc/mss_pll.c ****      * clock
 144:../src/platform/mpfs_hal/common/nwc/mss_pll.c ****      * MSS_SCB_CFM_MSS_MUX->MSSCLKMUX           = LIBERO_SETTING_MSS_MSSCLKMUX;
 145:../src/platform/mpfs_hal/common/nwc/mss_pll.c ****      */
 146:../src/platform/mpfs_hal/common/nwc/mss_pll.c **** 
 147:../src/platform/mpfs_hal/common/nwc/mss_pll.c ****     /*
 148:../src/platform/mpfs_hal/common/nwc/mss_pll.c ****      * Clock_Receiver
 149:../src/platform/mpfs_hal/common/nwc/mss_pll.c ****      *  [13]    en_rdiff
 150:../src/platform/mpfs_hal/common/nwc/mss_pll.c ****      *  [12]    clkbuf_en_pullup
 151:../src/platform/mpfs_hal/common/nwc/mss_pll.c ****      *  [11:10] en_rxmode_n
 152:../src/platform/mpfs_hal/common/nwc/mss_pll.c ****      *  [9:8]   en_term_n
 153:../src/platform/mpfs_hal/common/nwc/mss_pll.c ****      *  [7]     en_ins_hyst_n
 154:../src/platform/mpfs_hal/common/nwc/mss_pll.c ****      *  [6]     en_udrive_n
 155:../src/platform/mpfs_hal/common/nwc/mss_pll.c ****      *  [5:4]   en_rxmode_p
 156:../src/platform/mpfs_hal/common/nwc/mss_pll.c ****      *  [3:2]   en_term_p
 157:../src/platform/mpfs_hal/common/nwc/mss_pll.c ****      *  [1]     en_ins_hyst_p
 158:../src/platform/mpfs_hal/common/nwc/mss_pll.c ****      *  [0]     en_udrive_p
 159:../src/platform/mpfs_hal/common/nwc/mss_pll.c ****      */
 160:../src/platform/mpfs_hal/common/nwc/mss_pll.c ****     MSS_SCB_CFM_SGMII_MUX->CLK_XCVR         = LIBERO_SETTING_SGMII_CLK_XCVR;
 128              		.loc 1 160 26
 129 0010 B707203E 		li	a5,1042284544
 130              		.loc 1 160 45
 131 0014 0D67     		li	a4,12288
 132 0016 130707C3 		addi	a4,a4,-976
 133 001a 98CB     		sw	a4,16(a5)
 161:../src/platform/mpfs_hal/common/nwc/mss_pll.c **** 
 162:../src/platform/mpfs_hal/common/nwc/mss_pll.c ****     /*
 163:../src/platform/mpfs_hal/common/nwc/mss_pll.c ****      * 29:25    bclk5_sel
 164:../src/platform/mpfs_hal/common/nwc/mss_pll.c ****      * 24:20    bclk4_sel
 165:../src/platform/mpfs_hal/common/nwc/mss_pll.c ****      * 19:15    bclk3_sel
 166:../src/platform/mpfs_hal/common/nwc/mss_pll.c ****      * 14:10    bclk2_sel
 167:../src/platform/mpfs_hal/common/nwc/mss_pll.c ****      * 9:5  bclk1_sel
 168:../src/platform/mpfs_hal/common/nwc/mss_pll.c ****      * 4:0  bclk0_sel
 169:../src/platform/mpfs_hal/common/nwc/mss_pll.c ****      *
 170:../src/platform/mpfs_hal/common/nwc/mss_pll.c ****      * From SAC spec:
 171:../src/platform/mpfs_hal/common/nwc/mss_pll.c ****      * Table 9 1: Each gbim bank clock mux programming in MSS corner
 172:../src/platform/mpfs_hal/common/nwc/mss_pll.c ****      * The DDRPHY bank clocks bclk_horz<5:0> and bclk_vert<5:0> are driven
 173:../src/platform/mpfs_hal/common/nwc/mss_pll.c ****      * from mux's gbim<5:0> in the MSS corner. Each mux uses 5 configuration
 174:../src/platform/mpfs_hal/common/nwc/mss_pll.c ****      * bits.
 175:../src/platform/mpfs_hal/common/nwc/mss_pll.c ****      *
 176:../src/platform/mpfs_hal/common/nwc/mss_pll.c ****      * BCLK mux selections
 177:../src/platform/mpfs_hal/common/nwc/mss_pll.c ****      *  bclk0_sel=0x8 (pll0_out_1k<2> selected)
 178:../src/platform/mpfs_hal/common/nwc/mss_pll.c ****      *  bclk1_sel=0x10 (pll0_out_1k<3> selected)
 179:../src/platform/mpfs_hal/common/nwc/mss_pll.c ****      *  bclk2_sel=0x1 (vss selected)
 180:../src/platform/mpfs_hal/common/nwc/mss_pll.c ****      *  bclk3_sel=0x1 (vss selected)
 181:../src/platform/mpfs_hal/common/nwc/mss_pll.c ****      *  bclk4_sel=0x1 (vss selected)
 182:../src/platform/mpfs_hal/common/nwc/mss_pll.c ****      *  bclk5_sel=0x1 (vss selected)
 183:../src/platform/mpfs_hal/common/nwc/mss_pll.c ****      *
 184:../src/platform/mpfs_hal/common/nwc/mss_pll.c ****      */
 185:../src/platform/mpfs_hal/common/nwc/mss_pll.c ****     MSS_SCB_CFM_MSS_MUX->BCLKMUX        =   LIBERO_SETTING_MSS_BCLKMUX;
 134              		.loc 1 185 24
 135 001c B727003E 		li	a5,1040195584
 136              		.loc 1 185 41
 137 0020 13078020 		li	a4,520
 138 0024 D8C3     		sw	a4,4(a5)
 186:../src/platform/mpfs_hal/common/nwc/mss_pll.c **** 
 187:../src/platform/mpfs_hal/common/nwc/mss_pll.c ****     /*  MSS_SCB_CFM_MSS_MUX->SPARE0         =   BCLKMUX_USER_CONFIG;       */
 188:../src/platform/mpfs_hal/common/nwc/mss_pll.c ****     MSS_SCB_CFM_MSS_MUX->FMETER_ADDR    =   LIBERO_SETTING_MSS_FMETER_ADDR;
 139              		.loc 1 188 24
 140 0026 B727003E 		li	a5,1040195584
 141              		.loc 1 188 41
 142 002a 23AA0700 		sw	zero,20(a5)
 189:../src/platform/mpfs_hal/common/nwc/mss_pll.c **** 
 190:../src/platform/mpfs_hal/common/nwc/mss_pll.c ****     MSS_SCB_CFM_MSS_MUX->FMETER_DATAW   =   LIBERO_SETTING_MSS_FMETER_DATAW;
 143              		.loc 1 190 24
 144 002e B727003E 		li	a5,1040195584
 145              		.loc 1 190 41
 146 0032 23AC0700 		sw	zero,24(a5)
 191:../src/platform/mpfs_hal/common/nwc/mss_pll.c **** 
 192:../src/platform/mpfs_hal/common/nwc/mss_pll.c ****     MSS_SCB_CFM_MSS_MUX->FMETER_DATAR   =   LIBERO_SETTING_MSS_FMETER_DATAR;
 147              		.loc 1 192 24
 148 0036 B727003E 		li	a5,1040195584
 149              		.loc 1 192 41
 150 003a 23AE0700 		sw	zero,28(a5)
 193:../src/platform/mpfs_hal/common/nwc/mss_pll.c **** 
 194:../src/platform/mpfs_hal/common/nwc/mss_pll.c ****     /*
 195:../src/platform/mpfs_hal/common/nwc/mss_pll.c ****      *
 196:../src/platform/mpfs_hal/common/nwc/mss_pll.c ****      */
 197:../src/platform/mpfs_hal/common/nwc/mss_pll.c ****     volatile uint32_t i;
 198:../src/platform/mpfs_hal/common/nwc/mss_pll.c ****     for(i = 0U; i < 400U; i++)
 151              		.loc 1 198 11
 152 003e 232604FE 		sw	zero,-20(s0)
 153              		.loc 1 198 5
 154 0042 39A8     		j	.L3
 155              	.L4:
 199:../src/platform/mpfs_hal/common/nwc/mss_pll.c ****     {
 200:../src/platform/mpfs_hal/common/nwc/mss_pll.c ****         i++;
 156              		.loc 1 200 10 discriminator 3
 157 0044 8327C4FE 		lw	a5,-20(s0)
 158 0048 8127     		sext.w	a5,a5
 159 004a 8527     		addiw	a5,a5,1
 160 004c 8127     		sext.w	a5,a5
 161 004e 2326F4FE 		sw	a5,-20(s0)
 198:../src/platform/mpfs_hal/common/nwc/mss_pll.c ****     {
 162              		.loc 1 198 28 discriminator 3
 163 0052 8327C4FE 		lw	a5,-20(s0)
 164 0056 8127     		sext.w	a5,a5
 165 0058 8527     		addiw	a5,a5,1
 166 005a 8127     		sext.w	a5,a5
 167 005c 2326F4FE 		sw	a5,-20(s0)
 168              	.L3:
 198:../src/platform/mpfs_hal/common/nwc/mss_pll.c ****     {
 169              		.loc 1 198 19 discriminator 1
 170 0060 8327C4FE 		lw	a5,-20(s0)
 171 0064 8127     		sext.w	a5,a5
 198:../src/platform/mpfs_hal/common/nwc/mss_pll.c ****     {
 172              		.loc 1 198 5 discriminator 1
 173 0066 3E87     		mv	a4,a5
 174 0068 9307F018 		li	a5,399
 175 006c E3FCE7FC 		bleu	a4,a5,.L4
 201:../src/platform/mpfs_hal/common/nwc/mss_pll.c ****     }
 202:../src/platform/mpfs_hal/common/nwc/mss_pll.c **** }
 176              		.loc 1 202 1
 177 0070 0100     		nop
 178 0072 6264     		ld	s0,24(sp)
 179              		.cfi_restore 8
 180              		.cfi_def_cfa 2, 32
 181 0074 0561     		addi	sp,sp,32
 182              		.cfi_def_cfa_offset 0
 183 0076 8280     		jr	ra
 184              		.cfi_endproc
 185              	.LFE20:
 187              		.section	.ram_codetext,"ax",@progbits
 188              		.align	1
 190              	mss_mux_post_mss_pll_config:
 191              	.LFB21:
 203:../src/platform/mpfs_hal/common/nwc/mss_pll.c **** 
 204:../src/platform/mpfs_hal/common/nwc/mss_pll.c **** 
 205:../src/platform/mpfs_hal/common/nwc/mss_pll.c **** /***************************************************************************//**
 206:../src/platform/mpfs_hal/common/nwc/mss_pll.c ****  * mss_mux_post_mss_pll_config(void)
 207:../src/platform/mpfs_hal/common/nwc/mss_pll.c ****  *
 208:../src/platform/mpfs_hal/common/nwc/mss_pll.c ****  * Once MSS locked, feed through to MSS
 209:../src/platform/mpfs_hal/common/nwc/mss_pll.c ****  * We must run this code from RAM, as we need to modify the clock of the eNVM
 210:../src/platform/mpfs_hal/common/nwc/mss_pll.c ****  * The first thing we do is change the eNVM clock, to prevent L1 cache accessing
 211:../src/platform/mpfs_hal/common/nwc/mss_pll.c ****  * eNVM as it will do as we approach the return instruction
 212:../src/platform/mpfs_hal/common/nwc/mss_pll.c ****  * The mb() makes sure order of processing is not changed by the compiler
 213:../src/platform/mpfs_hal/common/nwc/mss_pll.c ****  ******************************************************************************/
 214:../src/platform/mpfs_hal/common/nwc/mss_pll.c **** __attribute__((section(".ram_codetext"))) \
 215:../src/platform/mpfs_hal/common/nwc/mss_pll.c ****         static void mss_mux_post_mss_pll_config(void)
 216:../src/platform/mpfs_hal/common/nwc/mss_pll.c **** {
 192              		.loc 1 216 1
 193              		.cfi_startproc
 194 0000 0111     		addi	sp,sp,-32
 195              		.cfi_def_cfa_offset 32
 196 0002 06EC     		sd	ra,24(sp)
 197 0004 22E8     		sd	s0,16(sp)
 198              		.cfi_offset 1, -8
 199              		.cfi_offset 8, -16
 200 0006 0010     		addi	s0,sp,32
 201              		.cfi_def_cfa 8, 0
 217:../src/platform/mpfs_hal/common/nwc/mss_pll.c ****    /*
 218:../src/platform/mpfs_hal/common/nwc/mss_pll.c ****     * Modify the eNVM clock, so it now matches new MSS clock
 219:../src/platform/mpfs_hal/common/nwc/mss_pll.c ****     *
 220:../src/platform/mpfs_hal/common/nwc/mss_pll.c ****     * [5:0]
 221:../src/platform/mpfs_hal/common/nwc/mss_pll.c ****     * Sets the number of AHB cycles used to generate the PNVM clock,.
 222:../src/platform/mpfs_hal/common/nwc/mss_pll.c ****     * Clock period = (Value+1) * (1000/AHBFREQMHZ)
 223:../src/platform/mpfs_hal/common/nwc/mss_pll.c ****     * Value must be 1 to 63 (0 defaults to 15)
 224:../src/platform/mpfs_hal/common/nwc/mss_pll.c ****     * e.g.
 225:../src/platform/mpfs_hal/common/nwc/mss_pll.c ****     * 7 will generate a 40ns period 25MHz clock if the AHB clock is 200MHz
 226:../src/platform/mpfs_hal/common/nwc/mss_pll.c ****     * 11 will generate a 40ns period 25MHz clock if the AHB clock is 250MHz
 227:../src/platform/mpfs_hal/common/nwc/mss_pll.c ****     * 15 will generate a 40ns period 25MHz clock if the AHB clock is 400MHz
 228:../src/platform/mpfs_hal/common/nwc/mss_pll.c ****     *
 229:../src/platform/mpfs_hal/common/nwc/mss_pll.c ****     */
 230:../src/platform/mpfs_hal/common/nwc/mss_pll.c ****     SYSREG->ENVM_CR = LIBERO_SETTING_MSS_ENVM_CR;
 202              		.loc 1 230 11
 203 0008 B7270020 		li	a5,536879104
 204              		.loc 1 230 21
 205 000c 37070540 		li	a4,1074069504
 206 0010 1507     		addi	a4,a4,5
 207 0012 23ACE70A 		sw	a4,184(a5)
 231:../src/platform/mpfs_hal/common/nwc/mss_pll.c **** 
 232:../src/platform/mpfs_hal/common/nwc/mss_pll.c ****     mb();  /* make sure we change clock in eNVM first so ready by the time we
 208              		.loc 1 232 5
 209              	 #APP
 210              	# 232 "../src/platform/mpfs_hal/common/nwc/mss_pll.c" 1
 233              	             leave */
 234:../src/platform/mpfs_hal/common/nwc/mss_pll.c **** 
 235:../src/platform/mpfs_hal/common/nwc/mss_pll.c ****     /*
 236:../src/platform/mpfs_hal/common/nwc/mss_pll.c ****     * When you're changing the eNVM clock frequency, there is a bit
 237:../src/platform/mpfs_hal/common/nwc/mss_pll.c ****     * (ENVM_CR_clock_okay) in the eNVM_CR which can be polled to check that
 238:../src/platform/mpfs_hal/common/nwc/mss_pll.c ****     * the frequency change has happened before bumping up the AHB frequency.
 239:../src/platform/mpfs_hal/common/nwc/mss_pll.c ****     */
 240:../src/platform/mpfs_hal/common/nwc/mss_pll.c ****     volatile uint32_t wait_for_true = 0U;
 211              		fence
 212              	# 0 "" 2
 213              		.loc 1 240 23
 214              	 #NO_APP
 215 001a 232604FE 		sw	zero,-20(s0)
 241:../src/platform/mpfs_hal/common/nwc/mss_pll.c ****     while ((SYSREG->ENVM_CR & ENVM_CR_CLOCK_OKAY_MASK) !=\
 216              		.loc 1 241 11
 217 001e 01A8     		j	.L6
 218              	.L7:
 242:../src/platform/mpfs_hal/common/nwc/mss_pll.c ****             ENVM_CR_CLOCK_OKAY_MASK)
 243:../src/platform/mpfs_hal/common/nwc/mss_pll.c ****     {
 244:../src/platform/mpfs_hal/common/nwc/mss_pll.c **** #ifdef RENODE_DEBUG
 245:../src/platform/mpfs_hal/common/nwc/mss_pll.c ****         break;
 246:../src/platform/mpfs_hal/common/nwc/mss_pll.c **** #endif
 247:../src/platform/mpfs_hal/common/nwc/mss_pll.c ****         wait_for_true++; /* need something here to stop debugger freezing */
 219              		.loc 1 247 22
 220 0020 8327C4FE 		lw	a5,-20(s0)
 221 0024 8127     		sext.w	a5,a5
 222 0026 8527     		addiw	a5,a5,1
 223 0028 8127     		sext.w	a5,a5
 224 002a 2326F4FE 		sw	a5,-20(s0)
 225              	.L6:
 241:../src/platform/mpfs_hal/common/nwc/mss_pll.c ****     while ((SYSREG->ENVM_CR & ENVM_CR_CLOCK_OKAY_MASK) !=\
 226              		.loc 1 241 19
 227 002e B7270020 		li	a5,536879104
 228 0032 83A7870B 		lw	a5,184(a5)
 229 0036 8127     		sext.w	a5,a5
 241:../src/platform/mpfs_hal/common/nwc/mss_pll.c ****     while ((SYSREG->ENVM_CR & ENVM_CR_CLOCK_OKAY_MASK) !=\
 230              		.loc 1 241 29
 231 0038 93F70704 		andi	a5,a5,64
 232 003c 8127     		sext.w	a5,a5
 241:../src/platform/mpfs_hal/common/nwc/mss_pll.c ****     while ((SYSREG->ENVM_CR & ENVM_CR_CLOCK_OKAY_MASK) !=\
 233              		.loc 1 241 11
 234 003e 3E87     		mv	a4,a5
 235 0040 93070004 		li	a5,64
 236 0044 E31EF7FC 		bne	a4,a5,.L7
 248:../src/platform/mpfs_hal/common/nwc/mss_pll.c ****     }
 249:../src/platform/mpfs_hal/common/nwc/mss_pll.c **** 
 250:../src/platform/mpfs_hal/common/nwc/mss_pll.c ****    /*
 251:../src/platform/mpfs_hal/common/nwc/mss_pll.c ****     * Change the MSS clock as required.
 252:../src/platform/mpfs_hal/common/nwc/mss_pll.c ****     *
 253:../src/platform/mpfs_hal/common/nwc/mss_pll.c ****     * CLOCK_CONFIG_CR
 254:../src/platform/mpfs_hal/common/nwc/mss_pll.c ****     * [5:0]
 255:../src/platform/mpfs_hal/common/nwc/mss_pll.c ****     * Sets the master synchronous clock divider
 256:../src/platform/mpfs_hal/common/nwc/mss_pll.c ****     * bits [1:0] CPU clock divider
 257:../src/platform/mpfs_hal/common/nwc/mss_pll.c ****     * bits [3:2] AXI clock divider
 258:../src/platform/mpfs_hal/common/nwc/mss_pll.c ****     * bits [5:4] AHB/APB clock divider
 259:../src/platform/mpfs_hal/common/nwc/mss_pll.c ****     * 00=/1 01=/2 10=/4 11=/8 (AHB/APB divider may not be set to /1)
 260:../src/platform/mpfs_hal/common/nwc/mss_pll.c ****     * Reset = 0x3F
 261:../src/platform/mpfs_hal/common/nwc/mss_pll.c ****     *
 262:../src/platform/mpfs_hal/common/nwc/mss_pll.c ****     * SYSREG->CLOCK_CONFIG_CR = (0x0U<<0U) | (0x1U<<2U) | (0x2U<<4U);
 263:../src/platform/mpfs_hal/common/nwc/mss_pll.c ****     * MSS clk= 80Mhz, implies CPU = 80Mhz, AXI = 40Mhz, AHB/APB = 20Mhz
 264:../src/platform/mpfs_hal/common/nwc/mss_pll.c ****     * Until we switch in MSS PLL clock (MSS_SCB_CFM_MSS_MUX->MSSCLKMUX = 0x01)
 265:../src/platform/mpfs_hal/common/nwc/mss_pll.c ****     * e.g. If MSS clk 800Mhz
 266:../src/platform/mpfs_hal/common/nwc/mss_pll.c ****     * MSS clk= 800Mhz, implies CPU = 800Mhz, AXI = 400Mhz, AHB/APB = 200Mhz
 267:../src/platform/mpfs_hal/common/nwc/mss_pll.c ****    */
 268:../src/platform/mpfs_hal/common/nwc/mss_pll.c ****   SYSREG->CLOCK_CONFIG_CR = LIBERO_SETTING_MSS_CLOCK_CONFIG_CR;
 237              		.loc 1 268 9
 238 0048 B7270020 		li	a5,536879104
 239              		.loc 1 268 27
 240 004c 13074002 		li	a4,36
 241 0050 98C7     		sw	a4,8(a5)
 269:../src/platform/mpfs_hal/common/nwc/mss_pll.c **** 
 270:../src/platform/mpfs_hal/common/nwc/mss_pll.c ****    /*
 271:../src/platform/mpfs_hal/common/nwc/mss_pll.c ****     * Feed clock from MSS PLL to MSS, using glitch-less mux
 272:../src/platform/mpfs_hal/common/nwc/mss_pll.c ****     *
 273:../src/platform/mpfs_hal/common/nwc/mss_pll.c ****     * MSS Clock mux selections
 274:../src/platform/mpfs_hal/common/nwc/mss_pll.c ****     *   [31:5]  Reserved
 275:../src/platform/mpfs_hal/common/nwc/mss_pll.c ****     *   [4]    clk_standby_sel
 276:../src/platform/mpfs_hal/common/nwc/mss_pll.c ****     *   [3:2]  mssclk_mux_md
 277:../src/platform/mpfs_hal/common/nwc/mss_pll.c ****     *   step 7: 7)  MSS Processor writes mssclk_mux_sel_int<0>=1 to select the
 278:../src/platform/mpfs_hal/common/nwc/mss_pll.c ****     *   MSS PLL clock.
 279:../src/platform/mpfs_hal/common/nwc/mss_pll.c ****     *   [1:0]  mssclk_mux_sel        MSS glitchless mux select
 280:../src/platform/mpfs_hal/common/nwc/mss_pll.c ****     *                    00 - msspll_fdr_0=clk_standby
 281:../src/platform/mpfs_hal/common/nwc/mss_pll.c ****     *                          msspll_fdr_1=clk_standby
 282:../src/platform/mpfs_hal/common/nwc/mss_pll.c ****     *                    01 - msspll_fdr_0=pllout0
 283:../src/platform/mpfs_hal/common/nwc/mss_pll.c ****     *                          msspll_fdr_1=clk_standby
 284:../src/platform/mpfs_hal/common/nwc/mss_pll.c ****     *                    10 - msspll_fdr_0=clk_standby
 285:../src/platform/mpfs_hal/common/nwc/mss_pll.c ****     *                           msspll_fdr_1=pllout1
 286:../src/platform/mpfs_hal/common/nwc/mss_pll.c ****     *                    11 - msspll_fdr_0=pllout0
 287:../src/platform/mpfs_hal/common/nwc/mss_pll.c ****     *                          msspll_fdr_1=pllout1
 288:../src/platform/mpfs_hal/common/nwc/mss_pll.c ****     *
 289:../src/platform/mpfs_hal/common/nwc/mss_pll.c ****     *
 290:../src/platform/mpfs_hal/common/nwc/mss_pll.c ****     */
 291:../src/platform/mpfs_hal/common/nwc/mss_pll.c ****     MSS_SCB_CFM_MSS_MUX->MSSCLKMUX   = LIBERO_SETTING_MSS_MSSCLKMUX;
 242              		.loc 1 291 24
 243 0052 B727003E 		li	a5,1040195584
 244              		.loc 1 291 38
 245 0056 0D47     		li	a4,3
 246 0058 D8C7     		sw	a4,12(a5)
 292:../src/platform/mpfs_hal/common/nwc/mss_pll.c **** 
 293:../src/platform/mpfs_hal/common/nwc/mss_pll.c ****    /*
 294:../src/platform/mpfs_hal/common/nwc/mss_pll.c ****     * Change the RTC clock divisor, so RTC clock is 1MHz
 295:../src/platform/mpfs_hal/common/nwc/mss_pll.c ****     */
 296:../src/platform/mpfs_hal/common/nwc/mss_pll.c ****     set_RTC_divisor();
 247              		.loc 1 296 5
 248 005a 97000000 		call	set_RTC_divisor
 248      E7800000 
 297:../src/platform/mpfs_hal/common/nwc/mss_pll.c **** }
 249              		.loc 1 297 1
 250 0062 0100     		nop
 251 0064 E260     		ld	ra,24(sp)
 252              		.cfi_restore 1
 253 0066 4264     		ld	s0,16(sp)
 254              		.cfi_restore 8
 255              		.cfi_def_cfa 2, 32
 256 0068 0561     		addi	sp,sp,32
 257              		.cfi_def_cfa_offset 0
 258 006a 8280     		jr	ra
 259              		.cfi_endproc
 260              	.LFE21:
 262              		.section	.text.sgmii_mux_config,"ax",@progbits
 263              		.align	1
 264              		.globl	sgmii_mux_config
 266              	sgmii_mux_config:
 267              	.LFB22:
 298:../src/platform/mpfs_hal/common/nwc/mss_pll.c **** 
 299:../src/platform/mpfs_hal/common/nwc/mss_pll.c **** /***************************************************************************//**
 300:../src/platform/mpfs_hal/common/nwc/mss_pll.c ****  * sgmii_mux_config(uint8_t option)
 301:../src/platform/mpfs_hal/common/nwc/mss_pll.c ****  * @param option 1 => soft reset, load RPC settings
 302:../src/platform/mpfs_hal/common/nwc/mss_pll.c ****  *               0 => write values using SCB
 303:../src/platform/mpfs_hal/common/nwc/mss_pll.c ****  ******************************************************************************/
 304:../src/platform/mpfs_hal/common/nwc/mss_pll.c **** void sgmii_mux_config(uint8_t option)
 305:../src/platform/mpfs_hal/common/nwc/mss_pll.c **** {
 268              		.loc 1 305 1
 269              		.cfi_startproc
 270 0000 0111     		addi	sp,sp,-32
 271              		.cfi_def_cfa_offset 32
 272 0002 22EC     		sd	s0,24(sp)
 273              		.cfi_offset 8, -8
 274 0004 0010     		addi	s0,sp,32
 275              		.cfi_def_cfa 8, 0
 276 0006 AA87     		mv	a5,a0
 277 0008 A307F4FE 		sb	a5,-17(s0)
 306:../src/platform/mpfs_hal/common/nwc/mss_pll.c ****     switch(option)
 278              		.loc 1 306 5
 279 000c 8347F4FE 		lbu	a5,-17(s0)
 280 0010 8127     		sext.w	a5,a5
 281 0012 3E87     		mv	a4,a5
 282 0014 8547     		li	a5,1
 283 0016 6301F702 		beq	a4,a5,.L9
 307:../src/platform/mpfs_hal/common/nwc/mss_pll.c ****     {
 308:../src/platform/mpfs_hal/common/nwc/mss_pll.c ****         default:
 309:../src/platform/mpfs_hal/common/nwc/mss_pll.c ****         case SCB_UPDATE:   /* write to   SCB register */
 310:../src/platform/mpfs_hal/common/nwc/mss_pll.c **** 
 311:../src/platform/mpfs_hal/common/nwc/mss_pll.c ****                 /*
 312:../src/platform/mpfs_hal/common/nwc/mss_pll.c ****                  * SCB address: 0x3E20 0008
 313:../src/platform/mpfs_hal/common/nwc/mss_pll.c ****                  * MSS Clock mux selections
 314:../src/platform/mpfs_hal/common/nwc/mss_pll.c ****                  *
 315:../src/platform/mpfs_hal/common/nwc/mss_pll.c ****                  * [31:0] SGMII_CLKMUX
 316:../src/platform/mpfs_hal/common/nwc/mss_pll.c ****                  */
 317:../src/platform/mpfs_hal/common/nwc/mss_pll.c ****                 /* CFM_ETH - 0x3E200000 - - 0x08 */
 318:../src/platform/mpfs_hal/common/nwc/mss_pll.c ****                 MSS_SCB_CFM_SGMII_MUX->SGMII_CLKMUX =\
 284              		.loc 1 318 38
 285 001a B707203E 		li	a5,1042284544
 286              		.loc 1 318 53
 287 001e 1547     		li	a4,5
 288 0020 98C7     		sw	a4,8(a5)
 319:../src/platform/mpfs_hal/common/nwc/mss_pll.c ****                     LIBERO_SETTING_SGMII_SGMII_CLKMUX;
 320:../src/platform/mpfs_hal/common/nwc/mss_pll.c ****                 /*
 321:../src/platform/mpfs_hal/common/nwc/mss_pll.c ****                  * SCB address: 0x3E20 0010
 322:../src/platform/mpfs_hal/common/nwc/mss_pll.c ****                  * Clock_Receiver
 323:../src/platform/mpfs_hal/common/nwc/mss_pll.c ****                  *
 324:../src/platform/mpfs_hal/common/nwc/mss_pll.c ****                  * [13]    en_rdiff
 325:../src/platform/mpfs_hal/common/nwc/mss_pll.c ****                  * [12]    clkbuf_en_pullup
 326:../src/platform/mpfs_hal/common/nwc/mss_pll.c ****                  * [11:10] en_rxmode_n
 327:../src/platform/mpfs_hal/common/nwc/mss_pll.c ****                  * [9:8]   en_term_n
 328:../src/platform/mpfs_hal/common/nwc/mss_pll.c ****                  * [7]     en_ins_hyst_n
 329:../src/platform/mpfs_hal/common/nwc/mss_pll.c ****                  * [6]     en_udrive_n
 330:../src/platform/mpfs_hal/common/nwc/mss_pll.c ****                  * [5:4]   en_rxmode_p
 331:../src/platform/mpfs_hal/common/nwc/mss_pll.c ****                  * [3:2]   en_term_p
 332:../src/platform/mpfs_hal/common/nwc/mss_pll.c ****                  * [1]     en_ins_hyst_p
 333:../src/platform/mpfs_hal/common/nwc/mss_pll.c ****                  * [0]     en_udrive_p
 334:../src/platform/mpfs_hal/common/nwc/mss_pll.c ****                  */
 335:../src/platform/mpfs_hal/common/nwc/mss_pll.c ****                 MSS_SCB_CFM_SGMII_MUX->CLK_XCVR =\
 289              		.loc 1 335 38
 290 0022 B707203E 		li	a5,1042284544
 291              		.loc 1 335 49
 292 0026 0D67     		li	a4,12288
 293 0028 130707C3 		addi	a4,a4,-976
 294 002c 98CB     		sw	a4,16(a5)
 336:../src/platform/mpfs_hal/common/nwc/mss_pll.c ****                         LIBERO_SETTING_SGMII_CLK_XCVR;   /* 0x2011 */
 337:../src/platform/mpfs_hal/common/nwc/mss_pll.c ****                 /*
 338:../src/platform/mpfs_hal/common/nwc/mss_pll.c ****                  * SCB address: 0x3E20 0004
 339:../src/platform/mpfs_hal/common/nwc/mss_pll.c ****                  * PLL RF clk mux selections
 340:../src/platform/mpfs_hal/common/nwc/mss_pll.c ****                  *
 341:../src/platform/mpfs_hal/common/nwc/mss_pll.c ****                  * [3:2] pll0_rfclk1_sel
 342:../src/platform/mpfs_hal/common/nwc/mss_pll.c ****                  *             00 => vss
 343:../src/platform/mpfs_hal/common/nwc/mss_pll.c ****                  *             01 => refclk_p muxed to DDR PLL
 344:../src/platform/mpfs_hal/common/nwc/mss_pll.c ****                  *                   and SGMII PLL ( see
 345:../src/platform/mpfs_hal/common/nwc/mss_pll.c ****                  *             10 => scb_clk
 346:../src/platform/mpfs_hal/common/nwc/mss_pll.c ****                  *             11 => serdes_refclk_crn_mss<1>
 347:../src/platform/mpfs_hal/common/nwc/mss_pll.c ****                  * [1:0] pll0_rfclk0_sel
 348:../src/platform/mpfs_hal/common/nwc/mss_pll.c ****                  *             00 => vss
 349:../src/platform/mpfs_hal/common/nwc/mss_pll.c ****                  *             01 => refclk_n muxed to DDR PLL
 350:../src/platform/mpfs_hal/common/nwc/mss_pll.c ****                  *                   and SGMII PLL
 351:../src/platform/mpfs_hal/common/nwc/mss_pll.c ****                  *             10 => scb_clk
 352:../src/platform/mpfs_hal/common/nwc/mss_pll.c ****                  *             11 => serdes_refclk_crn_mss<1>
 353:../src/platform/mpfs_hal/common/nwc/mss_pll.c ****                  *
 354:../src/platform/mpfs_hal/common/nwc/mss_pll.c ****                  *
 355:../src/platform/mpfs_hal/common/nwc/mss_pll.c ****                  */
 356:../src/platform/mpfs_hal/common/nwc/mss_pll.c ****                 /* 0x05 => ref to SGMII and DDR */
 357:../src/platform/mpfs_hal/common/nwc/mss_pll.c ****                 MSS_SCB_CFM_SGMII_MUX->RFCKMUX  =\
 295              		.loc 1 357 38
 296 002e B707203E 		li	a5,1042284544
 297              		.loc 1 357 49
 298 0032 1547     		li	a4,5
 299 0034 D8C3     		sw	a4,4(a5)
 358:../src/platform/mpfs_hal/common/nwc/mss_pll.c ****                         LIBERO_SETTING_SGMII_REFCLKMUX;
 359:../src/platform/mpfs_hal/common/nwc/mss_pll.c ****                 break;
 300              		.loc 1 359 17
 301 0036 31A0     		j	.L10
 302              	.L9:
 360:../src/platform/mpfs_hal/common/nwc/mss_pll.c **** 
 361:../src/platform/mpfs_hal/common/nwc/mss_pll.c ****         case RPC_REG_UPDATE:
 362:../src/platform/mpfs_hal/common/nwc/mss_pll.c ****             /*
 363:../src/platform/mpfs_hal/common/nwc/mss_pll.c ****              * set the NV map reset
 364:../src/platform/mpfs_hal/common/nwc/mss_pll.c ****              * This will load the APB registers, set via SGMII TIP.
 365:../src/platform/mpfs_hal/common/nwc/mss_pll.c ****              * */
 366:../src/platform/mpfs_hal/common/nwc/mss_pll.c ****             MSS_SCB_CFM_SGMII_MUX->SOFT_RESET = 1U;
 303              		.loc 1 366 34
 304 0038 B707203E 		li	a5,1042284544
 305              		.loc 1 366 47
 306 003c 0547     		li	a4,1
 307 003e 98C3     		sw	a4,0(a5)
 367:../src/platform/mpfs_hal/common/nwc/mss_pll.c ****             break;
 308              		.loc 1 367 13
 309 0040 0100     		nop
 310              	.L10:
 368:../src/platform/mpfs_hal/common/nwc/mss_pll.c ****     }
 369:../src/platform/mpfs_hal/common/nwc/mss_pll.c **** }
 311              		.loc 1 369 1
 312 0042 0100     		nop
 313 0044 6264     		ld	s0,24(sp)
 314              		.cfi_restore 8
 315              		.cfi_def_cfa 2, 32
 316 0046 0561     		addi	sp,sp,32
 317              		.cfi_def_cfa_offset 0
 318 0048 8280     		jr	ra
 319              		.cfi_endproc
 320              	.LFE22:
 322              		.section	.text.mss_pll_config,"ax",@progbits
 323              		.align	1
 324              		.globl	mss_pll_config
 326              	mss_pll_config:
 327              	.LFB23:
 370:../src/platform/mpfs_hal/common/nwc/mss_pll.c **** 
 371:../src/platform/mpfs_hal/common/nwc/mss_pll.c **** /***************************************************************************//**
 372:../src/platform/mpfs_hal/common/nwc/mss_pll.c ****  *
 373:../src/platform/mpfs_hal/common/nwc/mss_pll.c ****  * On startup, MSS supplied with 80MHz SCB clock
 374:../src/platform/mpfs_hal/common/nwc/mss_pll.c **** 
 375:../src/platform/mpfs_hal/common/nwc/mss_pll.c ****   9.2  Power on procedure for the MSS PLL clock
 376:../src/platform/mpfs_hal/common/nwc/mss_pll.c **** 
 377:../src/platform/mpfs_hal/common/nwc/mss_pll.c ****   During POR:
 378:../src/platform/mpfs_hal/common/nwc/mss_pll.c ****   Keep PLL in power down mode. powerdown_int_b=0
 379:../src/platform/mpfs_hal/common/nwc/mss_pll.c **** 
 380:../src/platform/mpfs_hal/common/nwc/mss_pll.c ****   After POR, Power-On steps:
 381:../src/platform/mpfs_hal/common/nwc/mss_pll.c ****   1)  mssclk_mux_sel_int<0>=0 & powerdown_int_b=0 & clk_standby_sel=0
 382:../src/platform/mpfs_hal/common/nwc/mss_pll.c ****   MSS PLL is powered down and selects clk_standby=scb_clk
 383:../src/platform/mpfs_hal/common/nwc/mss_pll.c ****   2)  PFC Processor writes powerdown_int_b=1 & divq0_int_en=1
 384:../src/platform/mpfs_hal/common/nwc/mss_pll.c ****   MSS PLL powers up, then lock asserts when locked.
 385:../src/platform/mpfs_hal/common/nwc/mss_pll.c ****   3)  PFC Processor switches mssclk_mux_sel_int<0>=1
 386:../src/platform/mpfs_hal/common/nwc/mss_pll.c ****   MSS PLL clock is now sent to MSS.
 387:../src/platform/mpfs_hal/common/nwc/mss_pll.c ****   4)  When BOOT authentication is complete
 388:../src/platform/mpfs_hal/common/nwc/mss_pll.c ****   a.  PFC processor writes mssclk_mux_sel_int<0>=0 to select clk_standby.
 389:../src/platform/mpfs_hal/common/nwc/mss_pll.c ****   b.  PFC Processor writes powerdown_int_b=0 to power down the PLL
 390:../src/platform/mpfs_hal/common/nwc/mss_pll.c ****   >>>>>>>> G5 Soc User code >>>>>>>>>>>>>>
 391:../src/platform/mpfs_hal/common/nwc/mss_pll.c ****   c.  MSS Processor writes new parameters to the MSS PLL
 392:../src/platform/mpfs_hal/common/nwc/mss_pll.c ****   5)  MSS Processor writes powerdown_int_b=1
 393:../src/platform/mpfs_hal/common/nwc/mss_pll.c ****   Start up the PLL with NEW parameters.
 394:../src/platform/mpfs_hal/common/nwc/mss_pll.c ****   Wait for LOCK
 395:../src/platform/mpfs_hal/common/nwc/mss_pll.c ****   6)  MSS Processor enables all 4 PLL outputs.
 396:../src/platform/mpfs_hal/common/nwc/mss_pll.c ****   7)  MSS Processor writes mssclk_mux_sel_int<0>=1 to select the MSS PLL
 397:../src/platform/mpfs_hal/common/nwc/mss_pll.c ****       clock.
 398:../src/platform/mpfs_hal/common/nwc/mss_pll.c ****  *
 399:../src/platform/mpfs_hal/common/nwc/mss_pll.c ****  ******************************************************************************/
 400:../src/platform/mpfs_hal/common/nwc/mss_pll.c **** void mss_pll_config(void)
 401:../src/platform/mpfs_hal/common/nwc/mss_pll.c **** {
 328              		.loc 1 401 1
 329              		.cfi_startproc
 330 0000 0111     		addi	sp,sp,-32
 331              		.cfi_def_cfa_offset 32
 332 0002 06EC     		sd	ra,24(sp)
 333 0004 22E8     		sd	s0,16(sp)
 334              		.cfi_offset 1, -8
 335              		.cfi_offset 8, -16
 336 0006 0010     		addi	s0,sp,32
 337              		.cfi_def_cfa 8, 0
 402:../src/platform/mpfs_hal/common/nwc/mss_pll.c ****     
 403:../src/platform/mpfs_hal/common/nwc/mss_pll.c ****     copy_switch_code(); /* copy switch code to RAM */
 338              		.loc 1 403 5
 339 0008 97000000 		call	copy_switch_code
 339      E7800000 
 404:../src/platform/mpfs_hal/common/nwc/mss_pll.c **** 
 405:../src/platform/mpfs_hal/common/nwc/mss_pll.c ****     MSS_SCB_DDR_PLL->SOFT_RESET     = PLL_INIT_AND_OUT_OF_RESET;
 340              		.loc 1 405 20
 341 0010 B707013E 		li	a5,1040252928
 342              		.loc 1 405 37
 343 0014 0D47     		li	a4,3
 344 0016 98C3     		sw	a4,0(a5)
 406:../src/platform/mpfs_hal/common/nwc/mss_pll.c ****     MSS_SCB_MSS_PLL->SOFT_RESET     = PLL_INIT_AND_OUT_OF_RESET;
 345              		.loc 1 406 20
 346 0018 B717003E 		li	a5,1040191488
 347              		.loc 1 406 37
 348 001c 0D47     		li	a4,3
 349 001e 98C3     		sw	a4,0(a5)
 407:../src/platform/mpfs_hal/common/nwc/mss_pll.c **** 
 408:../src/platform/mpfs_hal/common/nwc/mss_pll.c ****     /*
 409:../src/platform/mpfs_hal/common/nwc/mss_pll.c ****         Enable the PLL by removing the reset-
 410:../src/platform/mpfs_hal/common/nwc/mss_pll.c ****         PERIPH / periph_reset_b  - This asserts the functional reset of the
 411:../src/platform/mpfs_hal/common/nwc/mss_pll.c ****             block.
 412:../src/platform/mpfs_hal/common/nwc/mss_pll.c ****         It is asserted at power up. When written is stays asserted until written
 413:../src/platform/mpfs_hal/common/nwc/mss_pll.c ****         to 0.
 414:../src/platform/mpfs_hal/common/nwc/mss_pll.c ****     */
 415:../src/platform/mpfs_hal/common/nwc/mss_pll.c ****     /*
 416:../src/platform/mpfs_hal/common/nwc/mss_pll.c ****      * 4. c.    MSS Processor writes new parameters to the MSS PLL
 417:../src/platform/mpfs_hal/common/nwc/mss_pll.c ****      */
 418:../src/platform/mpfs_hal/common/nwc/mss_pll.c ****     /*
 419:../src/platform/mpfs_hal/common/nwc/mss_pll.c ****      *  [0] REG_BYPASS_GO_B
 420:../src/platform/mpfs_hal/common/nwc/mss_pll.c ****      *  [0] BYPCK_SEL
 421:../src/platform/mpfs_hal/common/nwc/mss_pll.c ****      *  [0] RESETONLOCK
 422:../src/platform/mpfs_hal/common/nwc/mss_pll.c ****      *  [0] REG_RFCLK_SEL
 423:../src/platform/mpfs_hal/common/nwc/mss_pll.c ****      *  [0] REG_DIVQ3_EN
 424:../src/platform/mpfs_hal/common/nwc/mss_pll.c ****      *  [0] REG_DIVQ2_EN
 425:../src/platform/mpfs_hal/common/nwc/mss_pll.c ****      *  [0] REG_DIVQ1_EN
 426:../src/platform/mpfs_hal/common/nwc/mss_pll.c ****      *  [0] REG_DIVQ0_EN
 427:../src/platform/mpfs_hal/common/nwc/mss_pll.c ****      *  [0] REG_RFDIV_EN
 428:../src/platform/mpfs_hal/common/nwc/mss_pll.c ****      *  [0] REG_POWERDOWN_B
 429:../src/platform/mpfs_hal/common/nwc/mss_pll.c ****      */
 430:../src/platform/mpfs_hal/common/nwc/mss_pll.c **** 
 431:../src/platform/mpfs_hal/common/nwc/mss_pll.c ****     MSS_SCB_MSS_PLL->PLL_CTRL       = LIBERO_SETTING_MSS_PLL_CTRL & ~(PLL_CTRL_REG_POWERDOWN_B_MASK
 350              		.loc 1 431 20
 351 0020 B717003E 		li	a5,1040191488
 352              		.loc 1 431 37
 353 0024 37070001 		li	a4,16777216
 354 0028 13076703 		addi	a4,a4,54
 355 002c D8C3     		sw	a4,4(a5)
 432:../src/platform/mpfs_hal/common/nwc/mss_pll.c **** 
 433:../src/platform/mpfs_hal/common/nwc/mss_pll.c ****     /*
 434:../src/platform/mpfs_hal/common/nwc/mss_pll.c ****      * PLL calibration register
 435:../src/platform/mpfs_hal/common/nwc/mss_pll.c ****      * This value is factory set, do not overwrite
 436:../src/platform/mpfs_hal/common/nwc/mss_pll.c ****      * MSS_SCB_MSS_PLL->PLL_CAL        = LIBERO_SETTING_MSS_PLL_CAL;
 437:../src/platform/mpfs_hal/common/nwc/mss_pll.c ****      *
 438:../src/platform/mpfs_hal/common/nwc/mss_pll.c ****      */
 439:../src/platform/mpfs_hal/common/nwc/mss_pll.c **** 
 440:../src/platform/mpfs_hal/common/nwc/mss_pll.c ****     MSS_SCB_MSS_PLL->PLL_REF_FB     = LIBERO_SETTING_MSS_PLL_REF_FB;
 356              		.loc 1 440 20
 357 002e B717003E 		li	a5,1040191488
 358              		.loc 1 440 37
 359 0032 13070050 		li	a4,1280
 360 0036 98C7     		sw	a4,8(a5)
 441:../src/platform/mpfs_hal/common/nwc/mss_pll.c **** 
 442:../src/platform/mpfs_hal/common/nwc/mss_pll.c ****     MSS_SCB_MSS_PLL->PLL_DIV_0_1    = LIBERO_SETTING_MSS_PLL_DIV_0_1;
 361              		.loc 1 442 20
 362 0038 B717003E 		li	a5,1040191488
 363              		.loc 1 442 37
 364 003c 37070001 		li	a4,16777216
 365 0040 13070710 		addi	a4,a4,256
 366 0044 98CB     		sw	a4,16(a5)
 443:../src/platform/mpfs_hal/common/nwc/mss_pll.c **** 
 444:../src/platform/mpfs_hal/common/nwc/mss_pll.c ****     MSS_SCB_MSS_PLL->PLL_DIV_2_3    = LIBERO_SETTING_MSS_PLL_DIV_2_3;
 367              		.loc 1 444 20
 368 0046 B717003E 		li	a5,1040191488
 369              		.loc 1 444 37
 370 004a 3707004B 		li	a4,1258291200
 371 004e 13070730 		addi	a4,a4,768
 372 0052 D8CB     		sw	a4,20(a5)
 445:../src/platform/mpfs_hal/common/nwc/mss_pll.c **** 
 446:../src/platform/mpfs_hal/common/nwc/mss_pll.c ****     MSS_SCB_MSS_PLL->PLL_CTRL2      = LIBERO_SETTING_MSS_PLL_CTRL2;
 373              		.loc 1 446 20
 374 0054 B717003E 		li	a5,1040191488
 375              		.loc 1 446 37
 376 0058 0567     		li	a4,4096
 377 005a 13070702 		addi	a4,a4,32
 378 005e 98CF     		sw	a4,24(a5)
 447:../src/platform/mpfs_hal/common/nwc/mss_pll.c **** 
 448:../src/platform/mpfs_hal/common/nwc/mss_pll.c ****     MSS_SCB_MSS_PLL->PLL_FRACN      = LIBERO_SETTING_MSS_PLL_FRACN;
 379              		.loc 1 448 20
 380 0060 B717003E 		li	a5,1040191488
 381              		.loc 1 448 37
 382 0064 23A60700 		sw	zero,12(a5)
 449:../src/platform/mpfs_hal/common/nwc/mss_pll.c ****     MSS_SCB_MSS_PLL->SSCG_REG_0     = LIBERO_SETTING_MSS_SSCG_REG_0;
 383              		.loc 1 449 20
 384 0068 B717003E 		li	a5,1040191488
 385              		.loc 1 449 37
 386 006c 23A20702 		sw	zero,36(a5)
 450:../src/platform/mpfs_hal/common/nwc/mss_pll.c ****     MSS_SCB_MSS_PLL->SSCG_REG_1     = LIBERO_SETTING_MSS_SSCG_REG_1;
 387              		.loc 1 450 20
 388 0070 B717003E 		li	a5,1040191488
 389              		.loc 1 450 37
 390 0074 23A40702 		sw	zero,40(a5)
 451:../src/platform/mpfs_hal/common/nwc/mss_pll.c **** 
 452:../src/platform/mpfs_hal/common/nwc/mss_pll.c ****     MSS_SCB_MSS_PLL->SSCG_REG_2     = LIBERO_SETTING_MSS_SSCG_REG_2;
 391              		.loc 1 452 20
 392 0078 B717003E 		li	a5,1040191488
 393              		.loc 1 452 37
 394 007c 13070006 		li	a4,96
 395 0080 D8D7     		sw	a4,44(a5)
 453:../src/platform/mpfs_hal/common/nwc/mss_pll.c ****     MSS_SCB_MSS_PLL->SSCG_REG_3     = LIBERO_SETTING_MSS_SSCG_REG_3;
 396              		.loc 1 453 20
 397 0082 B717003E 		li	a5,1040191488
 398              		.loc 1 453 37
 399 0086 0547     		li	a4,1
 400 0088 98DB     		sw	a4,48(a5)
 454:../src/platform/mpfs_hal/common/nwc/mss_pll.c **** 
 455:../src/platform/mpfs_hal/common/nwc/mss_pll.c ****     /* PLL phase registers */
 456:../src/platform/mpfs_hal/common/nwc/mss_pll.c ****     MSS_SCB_MSS_PLL->PLL_PHADJ      = LIBERO_SETTING_MSS_PLL_PHADJ;
 401              		.loc 1 456 20
 402 008a B717003E 		li	a5,1040191488
 403              		.loc 1 456 37
 404 008e 1167     		li	a4,16384
 405 0090 0D07     		addi	a4,a4,3
 406 0092 98D3     		sw	a4,32(a5)
 457:../src/platform/mpfs_hal/common/nwc/mss_pll.c **** 
 458:../src/platform/mpfs_hal/common/nwc/mss_pll.c ****     /*
 459:../src/platform/mpfs_hal/common/nwc/mss_pll.c ****      * 5)   MSS Processor writes powerdown_int_b=1
 460:../src/platform/mpfs_hal/common/nwc/mss_pll.c ****      *      Start up the PLL with NEW parameters.
 461:../src/platform/mpfs_hal/common/nwc/mss_pll.c ****             Wait for LOCK
 462:../src/platform/mpfs_hal/common/nwc/mss_pll.c ****      */
 463:../src/platform/mpfs_hal/common/nwc/mss_pll.c ****     mss_mux_pre_mss_pll_config(); /* feed required inputs */
 407              		.loc 1 463 5
 408 0094 97000000 		call	mss_mux_pre_mss_pll_config
 408      E7800000 
 464:../src/platform/mpfs_hal/common/nwc/mss_pll.c ****     /* bit 0 == REG_POWERDOWN_B */
 465:../src/platform/mpfs_hal/common/nwc/mss_pll.c ****     MSS_SCB_MSS_PLL->PLL_CTRL       = (LIBERO_SETTING_MSS_PLL_CTRL) | 0x01U;
 409              		.loc 1 465 20
 410 009c B717003E 		li	a5,1040191488
 411              		.loc 1 465 37
 412 00a0 37070001 		li	a4,16777216
 413 00a4 13077703 		addi	a4,a4,55
 414 00a8 D8C3     		sw	a4,4(a5)
 466:../src/platform/mpfs_hal/common/nwc/mss_pll.c ****     /*
 467:../src/platform/mpfs_hal/common/nwc/mss_pll.c ****      * Start up the PLL with NEW parameters.
 468:../src/platform/mpfs_hal/common/nwc/mss_pll.c ****      * Wait for LOCK
 469:../src/platform/mpfs_hal/common/nwc/mss_pll.c ****      *  todo: make wait clock based
 470:../src/platform/mpfs_hal/common/nwc/mss_pll.c ****      */
 471:../src/platform/mpfs_hal/common/nwc/mss_pll.c ****     volatile uint32_t timer_out=0x00FFFFFFU;
 415              		.loc 1 471 23
 416 00aa B7070001 		li	a5,16777216
 417 00ae FD17     		addi	a5,a5,-1
 418 00b0 2326F4FE 		sw	a5,-20(s0)
 472:../src/platform/mpfs_hal/common/nwc/mss_pll.c ****     while((MSS_SCB_MSS_PLL->PLL_CTRL & PLL_CTRL_LOCK_BIT) == 0U)
 419              		.loc 1 472 10
 420 00b4 35A0     		j	.L12
 421              	.L14:
 473:../src/platform/mpfs_hal/common/nwc/mss_pll.c ****     {
 474:../src/platform/mpfs_hal/common/nwc/mss_pll.c **** #ifdef RENODE_DEBUG
 475:../src/platform/mpfs_hal/common/nwc/mss_pll.c ****         break;
 476:../src/platform/mpfs_hal/common/nwc/mss_pll.c **** #endif
 477:../src/platform/mpfs_hal/common/nwc/mss_pll.c ****         if (timer_out != 0U)
 422              		.loc 1 477 23
 423 00b6 8327C4FE 		lw	a5,-20(s0)
 424 00ba 8127     		sext.w	a5,a5
 425              		.loc 1 477 12
 426 00bc 89CB     		beq	a5,zero,.L13
 478:../src/platform/mpfs_hal/common/nwc/mss_pll.c ****         {
 479:../src/platform/mpfs_hal/common/nwc/mss_pll.c ****             timer_out--;
 427              		.loc 1 479 22
 428 00be 8327C4FE 		lw	a5,-20(s0)
 429 00c2 8127     		sext.w	a5,a5
 430 00c4 FD37     		addiw	a5,a5,-1
 431 00c6 8127     		sext.w	a5,a5
 432 00c8 2326F4FE 		sw	a5,-20(s0)
 433 00cc 11A8     		j	.L12
 434              	.L13:
 480:../src/platform/mpfs_hal/common/nwc/mss_pll.c ****         }
 481:../src/platform/mpfs_hal/common/nwc/mss_pll.c ****         else
 482:../src/platform/mpfs_hal/common/nwc/mss_pll.c ****         {
 483:../src/platform/mpfs_hal/common/nwc/mss_pll.c ****             timer_out=0x00FFFFFFU;
 435              		.loc 1 483 22
 436 00ce B7070001 		li	a5,16777216
 437 00d2 FD17     		addi	a5,a5,-1
 438 00d4 2326F4FE 		sw	a5,-20(s0)
 484:../src/platform/mpfs_hal/common/nwc/mss_pll.c ****             flag_mss_pll_lock_error();
 439              		.loc 1 484 13
 440 00d8 97000000 		call	flag_mss_pll_lock_error
 440      E7800000 
 441              	.L12:
 472:../src/platform/mpfs_hal/common/nwc/mss_pll.c ****     {
 442              		.loc 1 472 27
 443 00e0 B717003E 		li	a5,1040191488
 444 00e4 DC43     		lw	a5,4(a5)
 445 00e6 8127     		sext.w	a5,a5
 472:../src/platform/mpfs_hal/common/nwc/mss_pll.c ****     {
 446              		.loc 1 472 38
 447 00e8 3E87     		mv	a4,a5
 448 00ea B7070002 		li	a5,33554432
 449 00ee F98F     		and	a5,a4,a5
 450 00f0 8127     		sext.w	a5,a5
 472:../src/platform/mpfs_hal/common/nwc/mss_pll.c ****     {
 451              		.loc 1 472 10
 452 00f2 F1D3     		beq	a5,zero,.L14
 485:../src/platform/mpfs_hal/common/nwc/mss_pll.c ****         }
 486:../src/platform/mpfs_hal/common/nwc/mss_pll.c ****     }
 487:../src/platform/mpfs_hal/common/nwc/mss_pll.c **** 
 488:../src/platform/mpfs_hal/common/nwc/mss_pll.c ****     /*
 489:../src/platform/mpfs_hal/common/nwc/mss_pll.c ****      * 6)   MSS Processor enables all 4 PLL outputs.
 490:../src/platform/mpfs_hal/common/nwc/mss_pll.c ****      * 7)   MSS Processor writes mssclk_mux_sel_int<0>=1 to select the MSS PLL
 491:../src/platform/mpfs_hal/common/nwc/mss_pll.c ****      *      clock.
 492:../src/platform/mpfs_hal/common/nwc/mss_pll.c ****      */
 493:../src/platform/mpfs_hal/common/nwc/mss_pll.c ****     mss_mux_post_mss_pll_config();
 453              		.loc 1 493 5
 454 00f4 97000000 		call	mss_mux_post_mss_pll_config
 454      E7800000 
 494:../src/platform/mpfs_hal/common/nwc/mss_pll.c **** }
 455              		.loc 1 494 1
 456 00fc 0100     		nop
 457 00fe E260     		ld	ra,24(sp)
 458              		.cfi_restore 1
 459 0100 4264     		ld	s0,16(sp)
 460              		.cfi_restore 8
 461              		.cfi_def_cfa 2, 32
 462 0102 0561     		addi	sp,sp,32
 463              		.cfi_def_cfa_offset 0
 464 0104 8280     		jr	ra
 465              		.cfi_endproc
 466              	.LFE23:
 468              		.section	.text.flag_mss_pll_lock_error,"ax",@progbits
 469              		.align	1
 470              		.weak	flag_mss_pll_lock_error
 472              	flag_mss_pll_lock_error:
 473              	.LFB24:
 495:../src/platform/mpfs_hal/common/nwc/mss_pll.c **** 
 496:../src/platform/mpfs_hal/common/nwc/mss_pll.c **** /**
 497:../src/platform/mpfs_hal/common/nwc/mss_pll.c ****  * flag_mss_pll_lock_error(void)
 498:../src/platform/mpfs_hal/common/nwc/mss_pll.c ****  *
 499:../src/platform/mpfs_hal/common/nwc/mss_pll.c ****  * Implement platform specific function for lock failure feedback
 500:../src/platform/mpfs_hal/common/nwc/mss_pll.c ****  *
 501:../src/platform/mpfs_hal/common/nwc/mss_pll.c ****  */
 502:../src/platform/mpfs_hal/common/nwc/mss_pll.c **** __attribute__((weak)) void flag_mss_pll_lock_error(void)
 503:../src/platform/mpfs_hal/common/nwc/mss_pll.c **** {
 474              		.loc 1 503 1
 475              		.cfi_startproc
 476 0000 4111     		addi	sp,sp,-16
 477              		.cfi_def_cfa_offset 16
 478 0002 22E4     		sd	s0,8(sp)
 479              		.cfi_offset 8, -8
 480 0004 0008     		addi	s0,sp,16
 481              		.cfi_def_cfa 8, 0
 504:../src/platform/mpfs_hal/common/nwc/mss_pll.c ****     ASSERT(0U);
 482              		.loc 1 504 5
 483              	 #APP
 484              	# 504 "../src/platform/mpfs_hal/common/nwc/mss_pll.c" 1
 505              	}
 485              		ebreak
 486              	# 0 "" 2
 487              		.loc 1 505 1
 488              	 #NO_APP
 489 0008 0100     		nop
 490 000a 2264     		ld	s0,8(sp)
 491              		.cfi_restore 8
 492              		.cfi_def_cfa 2, 16
 493 000c 4101     		addi	sp,sp,16
 494              		.cfi_def_cfa_offset 0
 495 000e 8280     		jr	ra
 496              		.cfi_endproc
 497              	.LFE24:
 499              		.section	.text.ddr_pll_config,"ax",@progbits
 500              		.align	1
 501              		.globl	ddr_pll_config
 503              	ddr_pll_config:
 504              	.LFB25:
 506:../src/platform/mpfs_hal/common/nwc/mss_pll.c **** 
 507:../src/platform/mpfs_hal/common/nwc/mss_pll.c **** /**
 508:../src/platform/mpfs_hal/common/nwc/mss_pll.c ****  *
 509:../src/platform/mpfs_hal/common/nwc/mss_pll.c ****  * @param option choose between SCB or RPC and soft reset  update method.
 510:../src/platform/mpfs_hal/common/nwc/mss_pll.c ****  */
 511:../src/platform/mpfs_hal/common/nwc/mss_pll.c **** void ddr_pll_config(REG_LOAD_METHOD option)
 512:../src/platform/mpfs_hal/common/nwc/mss_pll.c **** {
 505              		.loc 1 512 1
 506              		.cfi_startproc
 507 0000 0111     		addi	sp,sp,-32
 508              		.cfi_def_cfa_offset 32
 509 0002 22EC     		sd	s0,24(sp)
 510              		.cfi_offset 8, -8
 511 0004 0010     		addi	s0,sp,32
 512              		.cfi_def_cfa 8, 0
 513 0006 AA87     		mv	a5,a0
 514 0008 2326F4FE 		sw	a5,-20(s0)
 513:../src/platform/mpfs_hal/common/nwc/mss_pll.c **** 
 514:../src/platform/mpfs_hal/common/nwc/mss_pll.c ****     switch(option)
 515              		.loc 1 514 5
 516 000c 8327C4FE 		lw	a5,-20(s0)
 517 0010 1B870700 		sext.w	a4,a5
 518 0014 8547     		li	a5,1
 519 0016 6308F708 		beq	a4,a5,.L17
 515:../src/platform/mpfs_hal/common/nwc/mss_pll.c ****     {
 516:../src/platform/mpfs_hal/common/nwc/mss_pll.c ****         default:
 517:../src/platform/mpfs_hal/common/nwc/mss_pll.c ****         case SCB_UPDATE:   /* write to   SCB register */
 518:../src/platform/mpfs_hal/common/nwc/mss_pll.c ****             /* PERIPH / periph_reset_b  - This asserts the functional reset of
 519:../src/platform/mpfs_hal/common/nwc/mss_pll.c ****              * the block. It is asserted at power up. When written is stays
 520:../src/platform/mpfs_hal/common/nwc/mss_pll.c ****              * asserted until written to 0.
 521:../src/platform/mpfs_hal/common/nwc/mss_pll.c ****              * First set periph_reset_b, than remove reset. As may be called
 522:../src/platform/mpfs_hal/common/nwc/mss_pll.c ****              * more than one.
 523:../src/platform/mpfs_hal/common/nwc/mss_pll.c ****              * */
 524:../src/platform/mpfs_hal/common/nwc/mss_pll.c ****             MSS_SCB_DDR_PLL->SOFT_RESET       = PLL_INIT_AND_OUT_OF_RESET;
 520              		.loc 1 524 28
 521 001a B707013E 		li	a5,1040252928
 522              		.loc 1 524 47
 523 001e 0D47     		li	a4,3
 524 0020 98C3     		sw	a4,0(a5)
 525:../src/platform/mpfs_hal/common/nwc/mss_pll.c **** 
 526:../src/platform/mpfs_hal/common/nwc/mss_pll.c ****             MSS_SCB_DDR_PLL->PLL_CTRL         = LIBERO_SETTING_DDR_PLL_CTRL & ~(PLL_CTRL_REG_POWERD
 525              		.loc 1 526 28
 526 0022 B707013E 		li	a5,1040252928
 527              		.loc 1 526 47
 528 0026 37070001 		li	a4,16777216
 529 002a 1307E703 		addi	a4,a4,62
 530 002e D8C3     		sw	a4,4(a5)
 527:../src/platform/mpfs_hal/common/nwc/mss_pll.c ****             /* PLL calibration register */
 528:../src/platform/mpfs_hal/common/nwc/mss_pll.c **** 
 529:../src/platform/mpfs_hal/common/nwc/mss_pll.c ****             /*
 530:../src/platform/mpfs_hal/common/nwc/mss_pll.c ****              * PLL calibration register
 531:../src/platform/mpfs_hal/common/nwc/mss_pll.c ****              * This value is factory set, do not overwrite
 532:../src/platform/mpfs_hal/common/nwc/mss_pll.c ****              * MSS_SCB_DDR_PLL->PLL_CAL        = LIBERO_SETTING_MSS_PLL_CAL;
 533:../src/platform/mpfs_hal/common/nwc/mss_pll.c ****              *
 534:../src/platform/mpfs_hal/common/nwc/mss_pll.c ****              */
 535:../src/platform/mpfs_hal/common/nwc/mss_pll.c **** 
 536:../src/platform/mpfs_hal/common/nwc/mss_pll.c ****             MSS_SCB_DDR_PLL->PLL_REF_FB    = LIBERO_SETTING_DDR_PLL_REF_FB;
 531              		.loc 1 536 28
 532 0030 B707013E 		li	a5,1040252928
 533              		.loc 1 536 44
 534 0034 13070050 		li	a4,1280
 535 0038 98C7     		sw	a4,8(a5)
 537:../src/platform/mpfs_hal/common/nwc/mss_pll.c **** 
 538:../src/platform/mpfs_hal/common/nwc/mss_pll.c **** 
 539:../src/platform/mpfs_hal/common/nwc/mss_pll.c ****             MSS_SCB_DDR_PLL->PLL_DIV_0_1   = LIBERO_SETTING_DDR_PLL_DIV_0_1;
 536              		.loc 1 539 28
 537 003a B707013E 		li	a5,1040252928
 538              		.loc 1 539 44
 539 003e 37070002 		li	a4,33554432
 540 0042 13070710 		addi	a4,a4,256
 541 0046 98CB     		sw	a4,16(a5)
 540:../src/platform/mpfs_hal/common/nwc/mss_pll.c **** 
 541:../src/platform/mpfs_hal/common/nwc/mss_pll.c ****             MSS_SCB_DDR_PLL->PLL_DIV_2_3   = LIBERO_SETTING_DDR_PLL_DIV_2_3;
 542              		.loc 1 541 28
 543 0048 B707013E 		li	a5,1040252928
 544              		.loc 1 541 44
 545 004c 37070001 		li	a4,16777216
 546 0050 13070710 		addi	a4,a4,256
 547 0054 D8CB     		sw	a4,20(a5)
 542:../src/platform/mpfs_hal/common/nwc/mss_pll.c **** 
 543:../src/platform/mpfs_hal/common/nwc/mss_pll.c **** 
 544:../src/platform/mpfs_hal/common/nwc/mss_pll.c ****             MSS_SCB_DDR_PLL->PLL_CTRL2     = LIBERO_SETTING_DDR_PLL_CTRL2;
 548              		.loc 1 544 28
 549 0056 B707013E 		li	a5,1040252928
 550              		.loc 1 544 44
 551 005a 0567     		li	a4,4096
 552 005c 13070702 		addi	a4,a4,32
 553 0060 98CF     		sw	a4,24(a5)
 545:../src/platform/mpfs_hal/common/nwc/mss_pll.c **** 
 546:../src/platform/mpfs_hal/common/nwc/mss_pll.c ****             MSS_SCB_DDR_PLL->PLL_FRACN     = LIBERO_SETTING_DDR_PLL_FRACN;
 554              		.loc 1 546 28
 555 0062 B707013E 		li	a5,1040252928
 556              		.loc 1 546 44
 557 0066 23A60700 		sw	zero,12(a5)
 547:../src/platform/mpfs_hal/common/nwc/mss_pll.c ****             MSS_SCB_DDR_PLL->SSCG_REG_0    = LIBERO_SETTING_DDR_SSCG_REG_0;
 558              		.loc 1 547 28
 559 006a B707013E 		li	a5,1040252928
 560              		.loc 1 547 44
 561 006e 23A20702 		sw	zero,36(a5)
 548:../src/platform/mpfs_hal/common/nwc/mss_pll.c ****             MSS_SCB_DDR_PLL->SSCG_REG_1    = LIBERO_SETTING_DDR_SSCG_REG_1;
 562              		.loc 1 548 28
 563 0072 B707013E 		li	a5,1040252928
 564              		.loc 1 548 44
 565 0076 23A40702 		sw	zero,40(a5)
 549:../src/platform/mpfs_hal/common/nwc/mss_pll.c **** 
 550:../src/platform/mpfs_hal/common/nwc/mss_pll.c ****             MSS_SCB_DDR_PLL->SSCG_REG_2    = LIBERO_SETTING_DDR_SSCG_REG_2;
 566              		.loc 1 550 28
 567 007a B707013E 		li	a5,1040252928
 568              		.loc 1 550 44
 569 007e 13070008 		li	a4,128
 570 0082 D8D7     		sw	a4,44(a5)
 551:../src/platform/mpfs_hal/common/nwc/mss_pll.c ****             MSS_SCB_DDR_PLL->SSCG_REG_3    = LIBERO_SETTING_DDR_SSCG_REG_3;
 571              		.loc 1 551 28
 572 0084 B707013E 		li	a5,1040252928
 573              		.loc 1 551 44
 574 0088 0547     		li	a4,1
 575 008a 98DB     		sw	a4,48(a5)
 552:../src/platform/mpfs_hal/common/nwc/mss_pll.c **** 
 553:../src/platform/mpfs_hal/common/nwc/mss_pll.c ****             /* PLL phase registers */
 554:../src/platform/mpfs_hal/common/nwc/mss_pll.c **** 
 555:../src/platform/mpfs_hal/common/nwc/mss_pll.c ****             MSS_SCB_DDR_PLL->PLL_PHADJ     = LIBERO_SETTING_MSS_PLL_PHADJ;
 576              		.loc 1 555 28
 577 008c B707013E 		li	a5,1040252928
 578              		.loc 1 555 44
 579 0090 1167     		li	a4,16384
 580 0092 0D07     		addi	a4,a4,3
 581 0094 98D3     		sw	a4,32(a5)
 556:../src/platform/mpfs_hal/common/nwc/mss_pll.c **** 
 557:../src/platform/mpfs_hal/common/nwc/mss_pll.c ****             MSS_SCB_DDR_PLL->PLL_CTRL      = (LIBERO_SETTING_DDR_PLL_CTRL)\
 582              		.loc 1 557 28
 583 0096 B707013E 		li	a5,1040252928
 584              		.loc 1 557 44
 585 009a 37070001 		li	a4,16777216
 586 009e 1307F703 		addi	a4,a4,63
 587 00a2 D8C3     		sw	a4,4(a5)
 558:../src/platform/mpfs_hal/common/nwc/mss_pll.c ****                     | 0x01U;  /* bit 0 == REG_POWERDOWN_B */
 559:../src/platform/mpfs_hal/common/nwc/mss_pll.c **** 
 560:../src/platform/mpfs_hal/common/nwc/mss_pll.c ****             break;
 588              		.loc 1 560 13
 589 00a4 61A8     		j	.L18
 590              	.L17:
 561:../src/platform/mpfs_hal/common/nwc/mss_pll.c **** 
 562:../src/platform/mpfs_hal/common/nwc/mss_pll.c ****         case RPC_REG_UPDATE:
 563:../src/platform/mpfs_hal/common/nwc/mss_pll.c ****             /* CFG_DDR_SGMII_PHY->SOFT_RESET_MAIN_PLL; */
 564:../src/platform/mpfs_hal/common/nwc/mss_pll.c ****             CFG_DDR_SGMII_PHY->PLL_CTRL_MAIN.PLL_CTRL_MAIN        =\
 591              		.loc 1 564 30
 592 00a6 97070000 		lla	a5,CFG_DDR_SGMII_PHY
 592      93870700 
 593 00ae 9C63     		ld	a5,0(a5)
 594              		.loc 1 564 67
 595 00b0 37070001 		li	a4,16777216
 596 00b4 1307F703 		addi	a4,a4,63
 597 00b8 23A2E708 		sw	a4,132(a5)
 565:../src/platform/mpfs_hal/common/nwc/mss_pll.c ****                                         LIBERO_SETTING_DDR_PLL_CTRL | 0x01U;
 566:../src/platform/mpfs_hal/common/nwc/mss_pll.c ****             CFG_DDR_SGMII_PHY->PLL_REF_FB_MAIN.PLL_REF_FB_MAIN      =\
 598              		.loc 1 566 30
 599 00bc 97070000 		lla	a5,CFG_DDR_SGMII_PHY
 599      93870700 
 600 00c4 9C63     		ld	a5,0(a5)
 601              		.loc 1 566 69
 602 00c6 13070050 		li	a4,1280
 603 00ca 23A4E708 		sw	a4,136(a5)
 567:../src/platform/mpfs_hal/common/nwc/mss_pll.c ****                                                 LIBERO_SETTING_DDR_PLL_REF_FB;
 568:../src/platform/mpfs_hal/common/nwc/mss_pll.c ****             /* Read only in RPC
 569:../src/platform/mpfs_hal/common/nwc/mss_pll.c ****              * CFG_DDR_SGMII_PHY->PLL_FRACN_MAIN.PLL_FRACN_MAIN      =\
 570:../src/platform/mpfs_hal/common/nwc/mss_pll.c ****              *  LIBERO_SETTING_DDR_PLL_FRACN; */
 571:../src/platform/mpfs_hal/common/nwc/mss_pll.c ****             CFG_DDR_SGMII_PHY->PLL_DIV_0_1_MAIN.PLL_DIV_0_1_MAIN    =\
 604              		.loc 1 571 30
 605 00ce 97070000 		lla	a5,CFG_DDR_SGMII_PHY
 605      93870700 
 606 00d6 9C63     		ld	a5,0(a5)
 607              		.loc 1 571 69
 608 00d8 37070002 		li	a4,33554432
 609 00dc 13070710 		addi	a4,a4,256
 610 00e0 23A8E708 		sw	a4,144(a5)
 572:../src/platform/mpfs_hal/common/nwc/mss_pll.c ****                                                 LIBERO_SETTING_DDR_PLL_DIV_0_1;
 573:../src/platform/mpfs_hal/common/nwc/mss_pll.c ****             CFG_DDR_SGMII_PHY->PLL_DIV_2_3_MAIN.PLL_DIV_2_3_MAIN  =\
 611              		.loc 1 573 30
 612 00e4 97070000 		lla	a5,CFG_DDR_SGMII_PHY
 612      93870700 
 613 00ec 9C63     		ld	a5,0(a5)
 614              		.loc 1 573 67
 615 00ee 37070001 		li	a4,16777216
 616 00f2 13070710 		addi	a4,a4,256
 617 00f6 23AAE708 		sw	a4,148(a5)
 574:../src/platform/mpfs_hal/common/nwc/mss_pll.c ****                                                 LIBERO_SETTING_DDR_PLL_DIV_2_3;
 575:../src/platform/mpfs_hal/common/nwc/mss_pll.c ****             CFG_DDR_SGMII_PHY->PLL_CTRL2_MAIN.PLL_CTRL2_MAIN      =\
 618              		.loc 1 575 30
 619 00fa 97070000 		lla	a5,CFG_DDR_SGMII_PHY
 619      93870700 
 620 0102 9C63     		ld	a5,0(a5)
 621              		.loc 1 575 67
 622 0104 0567     		li	a4,4096
 623 0106 13070702 		addi	a4,a4,32
 624 010a 23ACE708 		sw	a4,152(a5)
 576:../src/platform/mpfs_hal/common/nwc/mss_pll.c ****                                                    LIBERO_SETTING_DDR_PLL_CTRL2;
 577:../src/platform/mpfs_hal/common/nwc/mss_pll.c ****             /* Read only in RPC  todo: verify this is correct
 578:../src/platform/mpfs_hal/common/nwc/mss_pll.c ****              * CFG_DDR_SGMII_PHY->PLL_CAL_MAIN.PLL_CAL_MAIN  =\
 579:../src/platform/mpfs_hal/common/nwc/mss_pll.c ****              *                                   LIBERO_SETTING_DDR_PLL_CAL; */
 580:../src/platform/mpfs_hal/common/nwc/mss_pll.c ****             CFG_DDR_SGMII_PHY->PLL_PHADJ_MAIN.PLL_PHADJ_MAIN      =\
 625              		.loc 1 580 30
 626 010e 97070000 		lla	a5,CFG_DDR_SGMII_PHY
 626      93870700 
 627 0116 9C63     		ld	a5,0(a5)
 628              		.loc 1 580 67
 629 0118 1567     		li	a4,20480
 630 011a 0D07     		addi	a4,a4,3
 631 011c 23A0E70A 		sw	a4,160(a5)
 581:../src/platform/mpfs_hal/common/nwc/mss_pll.c ****                                                    LIBERO_SETTING_DDR_PLL_PHADJ;
 582:../src/platform/mpfs_hal/common/nwc/mss_pll.c ****             /*__I  CFG_DDR_SGMII_PHY_SSCG_REG_0_MAIN_TypeDef SSCG_REG_0_MAIN; */
 583:../src/platform/mpfs_hal/common/nwc/mss_pll.c ****             /*__I  CFG_DDR_SGMII_PHY_SSCG_REG_1_MAIN_TypeDef SSCG_REG_1_MAIN; */
 584:../src/platform/mpfs_hal/common/nwc/mss_pll.c ****             CFG_DDR_SGMII_PHY->SSCG_REG_2_MAIN.SSCG_REG_2_MAIN       =\
 632              		.loc 1 584 30
 633 0120 97070000 		lla	a5,CFG_DDR_SGMII_PHY
 633      93870700 
 634 0128 9C63     		ld	a5,0(a5)
 635              		.loc 1 584 70
 636 012a 13070008 		li	a4,128
 637 012e 23A6E70A 		sw	a4,172(a5)
 585:../src/platform/mpfs_hal/common/nwc/mss_pll.c ****                                                 LIBERO_SETTING_DDR_SSCG_REG_2;
 586:../src/platform/mpfs_hal/common/nwc/mss_pll.c ****             /*__I  CFG_DDR_SGMII_PHY_SSCG_REG_3_MAIN_TypeDef SSCG_REG_3_MAIN; */
 587:../src/platform/mpfs_hal/common/nwc/mss_pll.c ****             /*
 588:../src/platform/mpfs_hal/common/nwc/mss_pll.c ****              * set the NV map reset
 589:../src/platform/mpfs_hal/common/nwc/mss_pll.c ****              * This will load the APB registers, set via SGMII TIP.
 590:../src/platform/mpfs_hal/common/nwc/mss_pll.c ****              * */
 591:../src/platform/mpfs_hal/common/nwc/mss_pll.c ****             /* bit 0 == REG_POWERDOWN_B */
 592:../src/platform/mpfs_hal/common/nwc/mss_pll.c ****             MSS_SCB_DDR_PLL->SOFT_RESET  = PLL_INIT_AND_OUT_OF_RESET;
 638              		.loc 1 592 28
 639 0132 B707013E 		li	a5,1040252928
 640              		.loc 1 592 42
 641 0136 0D47     		li	a4,3
 642 0138 98C3     		sw	a4,0(a5)
 593:../src/platform/mpfs_hal/common/nwc/mss_pll.c ****             break;
 643              		.loc 1 593 13
 644 013a 0100     		nop
 645              	.L18:
 594:../src/platform/mpfs_hal/common/nwc/mss_pll.c ****     }
 595:../src/platform/mpfs_hal/common/nwc/mss_pll.c **** }
 646              		.loc 1 595 1
 647 013c 0100     		nop
 648 013e 6264     		ld	s0,24(sp)
 649              		.cfi_restore 8
 650              		.cfi_def_cfa 2, 32
 651 0140 0561     		addi	sp,sp,32
 652              		.cfi_def_cfa_offset 0
 653 0142 8280     		jr	ra
 654              		.cfi_endproc
 655              	.LFE25:
 657              		.section	.text.ddr_pll_lock_scb,"ax",@progbits
 658              		.align	1
 659              		.globl	ddr_pll_lock_scb
 661              	ddr_pll_lock_scb:
 662              	.LFB26:
 596:../src/platform/mpfs_hal/common/nwc/mss_pll.c **** 
 597:../src/platform/mpfs_hal/common/nwc/mss_pll.c **** /**
 598:../src/platform/mpfs_hal/common/nwc/mss_pll.c ****  * ddr_pll_lock_scb(void)
 599:../src/platform/mpfs_hal/common/nwc/mss_pll.c ****  * checks to see if lock has occurred
 600:../src/platform/mpfs_hal/common/nwc/mss_pll.c ****  * @return => lock has occurred, 1=> no lock
 601:../src/platform/mpfs_hal/common/nwc/mss_pll.c ****  */
 602:../src/platform/mpfs_hal/common/nwc/mss_pll.c **** uint8_t ddr_pll_lock_scb(void)
 603:../src/platform/mpfs_hal/common/nwc/mss_pll.c **** {
 663              		.loc 1 603 1
 664              		.cfi_startproc
 665 0000 0111     		addi	sp,sp,-32
 666              		.cfi_def_cfa_offset 32
 667 0002 22EC     		sd	s0,24(sp)
 668              		.cfi_offset 8, -8
 669 0004 0010     		addi	s0,sp,32
 670              		.cfi_def_cfa 8, 0
 604:../src/platform/mpfs_hal/common/nwc/mss_pll.c ****     uint8_t result = 1U;
 671              		.loc 1 604 13
 672 0006 8547     		li	a5,1
 673 0008 A307F4FE 		sb	a5,-17(s0)
 605:../src/platform/mpfs_hal/common/nwc/mss_pll.c **** #ifndef RENODE_DEBUG
 606:../src/platform/mpfs_hal/common/nwc/mss_pll.c ****     if((MSS_SCB_DDR_PLL->PLL_CTRL & PLL_CTRL_LOCK_BIT) == PLL_CTRL_LOCK_BIT)
 674              		.loc 1 606 24
 675 000c B707013E 		li	a5,1040252928
 676 0010 DC43     		lw	a5,4(a5)
 677 0012 8127     		sext.w	a5,a5
 678              		.loc 1 606 35
 679 0014 3E87     		mv	a4,a5
 680 0016 B7070002 		li	a5,33554432
 681 001a F98F     		and	a5,a4,a5
 682 001c 8127     		sext.w	a5,a5
 683              		.loc 1 606 7
 684 001e 3E87     		mv	a4,a5
 685 0020 B7070002 		li	a5,33554432
 686 0024 6314F700 		bne	a4,a5,.L20
 607:../src/platform/mpfs_hal/common/nwc/mss_pll.c ****     {
 608:../src/platform/mpfs_hal/common/nwc/mss_pll.c ****         result = 0U; /* PLL lock has occurred */
 687              		.loc 1 608 16
 688 0028 A30704FE 		sb	zero,-17(s0)
 689              	.L20:
 609:../src/platform/mpfs_hal/common/nwc/mss_pll.c ****     }
 610:../src/platform/mpfs_hal/common/nwc/mss_pll.c **** #else
 611:../src/platform/mpfs_hal/common/nwc/mss_pll.c ****     result = 0U;
 612:../src/platform/mpfs_hal/common/nwc/mss_pll.c **** #endif
 613:../src/platform/mpfs_hal/common/nwc/mss_pll.c ****     return (result);
 690              		.loc 1 613 12
 691 002c 8347F4FE 		lbu	a5,-17(s0)
 614:../src/platform/mpfs_hal/common/nwc/mss_pll.c **** }
 692              		.loc 1 614 1
 693 0030 3E85     		mv	a0,a5
 694 0032 6264     		ld	s0,24(sp)
 695              		.cfi_restore 8
 696              		.cfi_def_cfa 2, 32
 697 0034 0561     		addi	sp,sp,32
 698              		.cfi_def_cfa_offset 0
 699 0036 8280     		jr	ra
 700              		.cfi_endproc
 701              	.LFE26:
 703              		.section	.text.ddr_pll_config_scb_turn_off,"ax",@progbits
 704              		.align	1
 705              		.globl	ddr_pll_config_scb_turn_off
 707              	ddr_pll_config_scb_turn_off:
 708              	.LFB27:
 615:../src/platform/mpfs_hal/common/nwc/mss_pll.c **** 
 616:../src/platform/mpfs_hal/common/nwc/mss_pll.c **** /***************************************************************************//**
 617:../src/platform/mpfs_hal/common/nwc/mss_pll.c ****  *
 618:../src/platform/mpfs_hal/common/nwc/mss_pll.c ****  ******************************************************************************/
 619:../src/platform/mpfs_hal/common/nwc/mss_pll.c **** void ddr_pll_config_scb_turn_off(void)
 620:../src/platform/mpfs_hal/common/nwc/mss_pll.c **** {
 709              		.loc 1 620 1
 710              		.cfi_startproc
 711 0000 4111     		addi	sp,sp,-16
 712              		.cfi_def_cfa_offset 16
 713 0002 22E4     		sd	s0,8(sp)
 714              		.cfi_offset 8, -8
 715 0004 0008     		addi	s0,sp,16
 716              		.cfi_def_cfa 8, 0
 621:../src/platform/mpfs_hal/common/nwc/mss_pll.c ****     /* PERIPH / periph_reset_b */
 622:../src/platform/mpfs_hal/common/nwc/mss_pll.c ****     MSS_SCB_DDR_PLL->PLL_CTRL       &= (uint32_t)~0x00000001UL;
 717              		.loc 1 622 37
 718 0006 B707013E 		li	a5,1040252928
 719 000a DC43     		lw	a5,4(a5)
 720 000c 1B870700 		sext.w	a4,a5
 721 0010 B707013E 		li	a5,1040252928
 722 0014 799B     		andi	a4,a4,-2
 723 0016 0127     		sext.w	a4,a4
 724 0018 D8C3     		sw	a4,4(a5)
 623:../src/platform/mpfs_hal/common/nwc/mss_pll.c **** }
 725              		.loc 1 623 1
 726 001a 0100     		nop
 727 001c 2264     		ld	s0,8(sp)
 728              		.cfi_restore 8
 729              		.cfi_def_cfa 2, 16
 730 001e 4101     		addi	sp,sp,16
 731              		.cfi_def_cfa_offset 0
 732 0020 8280     		jr	ra
 733              		.cfi_endproc
 734              	.LFE27:
 736              		.section	.text.sgmii_pll_config_scb,"ax",@progbits
 737              		.align	1
 738              		.globl	sgmii_pll_config_scb
 740              	sgmii_pll_config_scb:
 741              	.LFB28:
 624:../src/platform/mpfs_hal/common/nwc/mss_pll.c **** 
 625:../src/platform/mpfs_hal/common/nwc/mss_pll.c **** 
 626:../src/platform/mpfs_hal/common/nwc/mss_pll.c **** /***************************************************************************//**
 627:../src/platform/mpfs_hal/common/nwc/mss_pll.c ****  * sgmii_pll_config_scb(uint8_t option)
 628:../src/platform/mpfs_hal/common/nwc/mss_pll.c ****  * @param option 1 => soft reset, load RPC settings
 629:../src/platform/mpfs_hal/common/nwc/mss_pll.c ****  *               0 => write values using SCB
 630:../src/platform/mpfs_hal/common/nwc/mss_pll.c ****  ******************************************************************************/
 631:../src/platform/mpfs_hal/common/nwc/mss_pll.c **** void sgmii_pll_config_scb(uint8_t option)
 632:../src/platform/mpfs_hal/common/nwc/mss_pll.c **** {
 742              		.loc 1 632 1
 743              		.cfi_startproc
 744 0000 0111     		addi	sp,sp,-32
 745              		.cfi_def_cfa_offset 32
 746 0002 22EC     		sd	s0,24(sp)
 747              		.cfi_offset 8, -8
 748 0004 0010     		addi	s0,sp,32
 749              		.cfi_def_cfa 8, 0
 750 0006 AA87     		mv	a5,a0
 751 0008 A307F4FE 		sb	a5,-17(s0)
 633:../src/platform/mpfs_hal/common/nwc/mss_pll.c **** 
 634:../src/platform/mpfs_hal/common/nwc/mss_pll.c ****     switch(option)
 752              		.loc 1 634 5
 753 000c 8347F4FE 		lbu	a5,-17(s0)
 754 0010 8127     		sext.w	a5,a5
 755 0012 3E87     		mv	a4,a5
 756 0014 8547     		li	a5,1
 757 0016 6308F708 		beq	a4,a5,.L24
 635:../src/platform/mpfs_hal/common/nwc/mss_pll.c ****     {
 636:../src/platform/mpfs_hal/common/nwc/mss_pll.c ****         default:
 637:../src/platform/mpfs_hal/common/nwc/mss_pll.c ****         case SCB_UPDATE:   /* write to   SCB register */
 638:../src/platform/mpfs_hal/common/nwc/mss_pll.c ****             /* PERIPH / periph_reset_b  - This asserts the functional reset of
 639:../src/platform/mpfs_hal/common/nwc/mss_pll.c ****              * the block. It is asserted at power up. When written is stays
 640:../src/platform/mpfs_hal/common/nwc/mss_pll.c ****              * asserted until written to 0.
 641:../src/platform/mpfs_hal/common/nwc/mss_pll.c ****              * First set periph_reset_b, than remove reset. As may be called
 642:../src/platform/mpfs_hal/common/nwc/mss_pll.c ****              * more than one.
 643:../src/platform/mpfs_hal/common/nwc/mss_pll.c ****              * */
 644:../src/platform/mpfs_hal/common/nwc/mss_pll.c ****             MSS_SCB_SGMII_PLL->SOFT_RESET      = PLL_INIT_AND_OUT_OF_RESET;
 758              		.loc 1 644 30
 759 001a B707083E 		li	a5,1040711680
 760              		.loc 1 644 48
 761 001e 0D47     		li	a4,3
 762 0020 98C3     		sw	a4,0(a5)
 645:../src/platform/mpfs_hal/common/nwc/mss_pll.c **** 
 646:../src/platform/mpfs_hal/common/nwc/mss_pll.c ****             MSS_SCB_SGMII_PLL->PLL_CTRL      = LIBERO_SETTING_SGMII_PLL_CTRL & ~(PLL_CTRL_REG_POWER
 763              		.loc 1 646 30
 764 0022 B707083E 		li	a5,1040711680
 765              		.loc 1 646 46
 766 0026 37070001 		li	a4,16777216
 767 002a 1307E703 		addi	a4,a4,62
 768 002e D8C3     		sw	a4,4(a5)
 647:../src/platform/mpfs_hal/common/nwc/mss_pll.c ****             /* PLL calibration register */
 648:../src/platform/mpfs_hal/common/nwc/mss_pll.c **** 
 649:../src/platform/mpfs_hal/common/nwc/mss_pll.c ****             /*
 650:../src/platform/mpfs_hal/common/nwc/mss_pll.c ****              * PLL calibration register
 651:../src/platform/mpfs_hal/common/nwc/mss_pll.c ****              * This value is factory set, do not overwrite
 652:../src/platform/mpfs_hal/common/nwc/mss_pll.c ****              * MSS_SCB_SGMII_PLL->PLL_CAL        = LIBERO_SETTING_MSS_PLL_CAL;
 653:../src/platform/mpfs_hal/common/nwc/mss_pll.c ****              *
 654:../src/platform/mpfs_hal/common/nwc/mss_pll.c ****              */
 655:../src/platform/mpfs_hal/common/nwc/mss_pll.c **** 
 656:../src/platform/mpfs_hal/common/nwc/mss_pll.c ****             MSS_SCB_SGMII_PLL->PLL_REF_FB    = LIBERO_SETTING_SGMII_PLL_REF_FB;
 769              		.loc 1 656 30
 770 0030 B707083E 		li	a5,1040711680
 771              		.loc 1 656 46
 772 0034 13070010 		li	a4,256
 773 0038 98C7     		sw	a4,8(a5)
 657:../src/platform/mpfs_hal/common/nwc/mss_pll.c **** 
 658:../src/platform/mpfs_hal/common/nwc/mss_pll.c **** 
 659:../src/platform/mpfs_hal/common/nwc/mss_pll.c ****             MSS_SCB_SGMII_PLL->PLL_DIV_0_1   = LIBERO_SETTING_SGMII_PLL_DIV_0_1;
 774              		.loc 1 659 30
 775 003a B707083E 		li	a5,1040711680
 776              		.loc 1 659 46
 777 003e 37070001 		li	a4,16777216
 778 0042 13070710 		addi	a4,a4,256
 779 0046 98CB     		sw	a4,16(a5)
 660:../src/platform/mpfs_hal/common/nwc/mss_pll.c **** 
 661:../src/platform/mpfs_hal/common/nwc/mss_pll.c ****             MSS_SCB_SGMII_PLL->PLL_DIV_2_3   = LIBERO_SETTING_SGMII_PLL_DIV_2_3;
 780              		.loc 1 661 30
 781 0048 B707083E 		li	a5,1040711680
 782              		.loc 1 661 46
 783 004c 37070001 		li	a4,16777216
 784 0050 13070710 		addi	a4,a4,256
 785 0054 D8CB     		sw	a4,20(a5)
 662:../src/platform/mpfs_hal/common/nwc/mss_pll.c **** 
 663:../src/platform/mpfs_hal/common/nwc/mss_pll.c **** 
 664:../src/platform/mpfs_hal/common/nwc/mss_pll.c ****             MSS_SCB_SGMII_PLL->PLL_CTRL2     = LIBERO_SETTING_SGMII_PLL_CTRL2;
 786              		.loc 1 664 30
 787 0056 B707083E 		li	a5,1040711680
 788              		.loc 1 664 46
 789 005a 0567     		li	a4,4096
 790 005c 13070702 		addi	a4,a4,32
 791 0060 98CF     		sw	a4,24(a5)
 665:../src/platform/mpfs_hal/common/nwc/mss_pll.c **** 
 666:../src/platform/mpfs_hal/common/nwc/mss_pll.c ****             MSS_SCB_SGMII_PLL->PLL_FRACN     = LIBERO_SETTING_SGMII_PLL_FRACN;
 792              		.loc 1 666 30
 793 0062 B707083E 		li	a5,1040711680
 794              		.loc 1 666 46
 795 0066 23A60700 		sw	zero,12(a5)
 667:../src/platform/mpfs_hal/common/nwc/mss_pll.c ****             MSS_SCB_SGMII_PLL->SSCG_REG_0    = LIBERO_SETTING_SGMII_SSCG_REG_0;
 796              		.loc 1 667 30
 797 006a B707083E 		li	a5,1040711680
 798              		.loc 1 667 46
 799 006e 23A20702 		sw	zero,36(a5)
 668:../src/platform/mpfs_hal/common/nwc/mss_pll.c ****             MSS_SCB_SGMII_PLL->SSCG_REG_1    = LIBERO_SETTING_SGMII_SSCG_REG_1;
 800              		.loc 1 668 30
 801 0072 B707083E 		li	a5,1040711680
 802              		.loc 1 668 46
 803 0076 23A40702 		sw	zero,40(a5)
 669:../src/platform/mpfs_hal/common/nwc/mss_pll.c **** 
 670:../src/platform/mpfs_hal/common/nwc/mss_pll.c ****             MSS_SCB_SGMII_PLL->SSCG_REG_2    = LIBERO_SETTING_SGMII_SSCG_REG_2;
 804              		.loc 1 670 30
 805 007a B707083E 		li	a5,1040711680
 806              		.loc 1 670 46
 807 007e 5147     		li	a4,20
 808 0080 D8D7     		sw	a4,44(a5)
 671:../src/platform/mpfs_hal/common/nwc/mss_pll.c ****             MSS_SCB_SGMII_PLL->SSCG_REG_3    = LIBERO_SETTING_SGMII_SSCG_REG_3;
 809              		.loc 1 671 30
 810 0082 B707083E 		li	a5,1040711680
 811              		.loc 1 671 46
 812 0086 0547     		li	a4,1
 813 0088 98DB     		sw	a4,48(a5)
 672:../src/platform/mpfs_hal/common/nwc/mss_pll.c **** 
 673:../src/platform/mpfs_hal/common/nwc/mss_pll.c ****             /* PLL phase registers */
 674:../src/platform/mpfs_hal/common/nwc/mss_pll.c **** 
 675:../src/platform/mpfs_hal/common/nwc/mss_pll.c ****             MSS_SCB_SGMII_PLL->PLL_PHADJ     = LIBERO_SETTING_SGMII_PLL_PHADJ;
 814              		.loc 1 675 30
 815 008a B707083E 		li	a5,1040711680
 816              		.loc 1 675 46
 817 008e 1D67     		li	a4,28672
 818 0090 13073744 		addi	a4,a4,1091
 819 0094 98D3     		sw	a4,32(a5)
 676:../src/platform/mpfs_hal/common/nwc/mss_pll.c **** 
 677:../src/platform/mpfs_hal/common/nwc/mss_pll.c ****             MSS_SCB_SGMII_PLL->PLL_CTRL      = (LIBERO_SETTING_SGMII_PLL_CTRL)\
 820              		.loc 1 677 30
 821 0096 B707083E 		li	a5,1040711680
 822              		.loc 1 677 46
 823 009a 37070001 		li	a4,16777216
 824 009e 1307F703 		addi	a4,a4,63
 825 00a2 D8C3     		sw	a4,4(a5)
 678:../src/platform/mpfs_hal/common/nwc/mss_pll.c ****                     | 0x01U;  /* bit 0 == REG_POWERDOWN_B */
 679:../src/platform/mpfs_hal/common/nwc/mss_pll.c **** 
 680:../src/platform/mpfs_hal/common/nwc/mss_pll.c ****             break;
 826              		.loc 1 680 13
 827 00a4 31A0     		j	.L25
 828              	.L24:
 681:../src/platform/mpfs_hal/common/nwc/mss_pll.c **** 
 682:../src/platform/mpfs_hal/common/nwc/mss_pll.c ****         case RPC_REG_UPDATE:
 683:../src/platform/mpfs_hal/common/nwc/mss_pll.c ****             /*
 684:../src/platform/mpfs_hal/common/nwc/mss_pll.c ****              * set the NV map reset
 685:../src/platform/mpfs_hal/common/nwc/mss_pll.c ****              * This will load the APB registers, set via SGMII TIP.
 686:../src/platform/mpfs_hal/common/nwc/mss_pll.c ****              * */
 687:../src/platform/mpfs_hal/common/nwc/mss_pll.c ****             /* bit 0 == REG_POWERDOWN_B */
 688:../src/platform/mpfs_hal/common/nwc/mss_pll.c ****             MSS_SCB_SGMII_PLL->SOFT_RESET  = 0x01U;
 829              		.loc 1 688 30
 830 00a6 B707083E 		li	a5,1040711680
 831              		.loc 1 688 44
 832 00aa 0547     		li	a4,1
 833 00ac 98C3     		sw	a4,0(a5)
 689:../src/platform/mpfs_hal/common/nwc/mss_pll.c ****             break;
 834              		.loc 1 689 13
 835 00ae 0100     		nop
 836              	.L25:
 690:../src/platform/mpfs_hal/common/nwc/mss_pll.c ****     }
 691:../src/platform/mpfs_hal/common/nwc/mss_pll.c **** }
 837              		.loc 1 691 1
 838 00b0 0100     		nop
 839 00b2 6264     		ld	s0,24(sp)
 840              		.cfi_restore 8
 841              		.cfi_def_cfa 2, 32
 842 00b4 0561     		addi	sp,sp,32
 843              		.cfi_def_cfa_offset 0
 844 00b6 8280     		jr	ra
 845              		.cfi_endproc
 846              	.LFE28:
 848              		.section	.text.sgmii_pll_lock_scb,"ax",@progbits
 849              		.align	1
 850              		.globl	sgmii_pll_lock_scb
 852              	sgmii_pll_lock_scb:
 853              	.LFB29:
 692:../src/platform/mpfs_hal/common/nwc/mss_pll.c **** 
 693:../src/platform/mpfs_hal/common/nwc/mss_pll.c **** /**
 694:../src/platform/mpfs_hal/common/nwc/mss_pll.c ****  * sgmii_pll_lock_scb(void)
 695:../src/platform/mpfs_hal/common/nwc/mss_pll.c ****  * checks to see if lock has occurred
 696:../src/platform/mpfs_hal/common/nwc/mss_pll.c ****  * @return => lock has occurred, 1=> no lock
 697:../src/platform/mpfs_hal/common/nwc/mss_pll.c ****  */
 698:../src/platform/mpfs_hal/common/nwc/mss_pll.c **** uint8_t sgmii_pll_lock_scb(void)
 699:../src/platform/mpfs_hal/common/nwc/mss_pll.c **** {
 854              		.loc 1 699 1
 855              		.cfi_startproc
 856 0000 0111     		addi	sp,sp,-32
 857              		.cfi_def_cfa_offset 32
 858 0002 22EC     		sd	s0,24(sp)
 859              		.cfi_offset 8, -8
 860 0004 0010     		addi	s0,sp,32
 861              		.cfi_def_cfa 8, 0
 700:../src/platform/mpfs_hal/common/nwc/mss_pll.c ****     uint8_t result = 1U;
 862              		.loc 1 700 13
 863 0006 8547     		li	a5,1
 864 0008 A307F4FE 		sb	a5,-17(s0)
 701:../src/platform/mpfs_hal/common/nwc/mss_pll.c **** #ifndef RENODE_DEBUG
 702:../src/platform/mpfs_hal/common/nwc/mss_pll.c ****     if((MSS_SCB_SGMII_PLL->PLL_CTRL & PLL_CTRL_LOCK_BIT) == PLL_CTRL_LOCK_BIT)
 865              		.loc 1 702 26
 866 000c B707083E 		li	a5,1040711680
 867 0010 DC43     		lw	a5,4(a5)
 868 0012 8127     		sext.w	a5,a5
 869              		.loc 1 702 37
 870 0014 3E87     		mv	a4,a5
 871 0016 B7070002 		li	a5,33554432
 872 001a F98F     		and	a5,a4,a5
 873 001c 8127     		sext.w	a5,a5
 874              		.loc 1 702 7
 875 001e 3E87     		mv	a4,a5
 876 0020 B7070002 		li	a5,33554432
 877 0024 6314F700 		bne	a4,a5,.L27
 703:../src/platform/mpfs_hal/common/nwc/mss_pll.c ****     {
 704:../src/platform/mpfs_hal/common/nwc/mss_pll.c ****         result = 0U; /* PLL lock has occurred */
 878              		.loc 1 704 16
 879 0028 A30704FE 		sb	zero,-17(s0)
 880              	.L27:
 705:../src/platform/mpfs_hal/common/nwc/mss_pll.c ****     }
 706:../src/platform/mpfs_hal/common/nwc/mss_pll.c **** #else
 707:../src/platform/mpfs_hal/common/nwc/mss_pll.c ****     result = 0U;
 708:../src/platform/mpfs_hal/common/nwc/mss_pll.c **** #endif
 709:../src/platform/mpfs_hal/common/nwc/mss_pll.c ****     return (result);
 881              		.loc 1 709 12
 882 002c 8347F4FE 		lbu	a5,-17(s0)
 710:../src/platform/mpfs_hal/common/nwc/mss_pll.c **** }
 883              		.loc 1 710 1
 884 0030 3E85     		mv	a0,a5
 885 0032 6264     		ld	s0,24(sp)
 886              		.cfi_restore 8
 887              		.cfi_def_cfa 2, 32
 888 0034 0561     		addi	sp,sp,32
 889              		.cfi_def_cfa_offset 0
 890 0036 8280     		jr	ra
 891              		.cfi_endproc
 892              	.LFE29:
 894              		.section	.text.copy_switch_code,"ax",@progbits
 895              		.align	1
 896              		.weak	copy_switch_code
 898              	copy_switch_code:
 899              	.LFB30:
 711:../src/platform/mpfs_hal/common/nwc/mss_pll.c **** 
 712:../src/platform/mpfs_hal/common/nwc/mss_pll.c **** 
 713:../src/platform/mpfs_hal/common/nwc/mss_pll.c **** /***************************************************************************//**
 714:../src/platform/mpfs_hal/common/nwc/mss_pll.c ****  * Copy switch code routine to RAM.
 715:../src/platform/mpfs_hal/common/nwc/mss_pll.c ****  * Copy locations have been defined in the linker script
 716:../src/platform/mpfs_hal/common/nwc/mss_pll.c ****  ******************************************************************************/
 717:../src/platform/mpfs_hal/common/nwc/mss_pll.c **** __attribute__((weak)) void copy_switch_code(void)
 718:../src/platform/mpfs_hal/common/nwc/mss_pll.c **** {
 900              		.loc 1 718 1
 901              		.cfi_startproc
 902 0000 7971     		addi	sp,sp,-48
 903              		.cfi_def_cfa_offset 48
 904 0002 22F4     		sd	s0,40(sp)
 905              		.cfi_offset 8, -8
 906 0004 0018     		addi	s0,sp,48
 907              		.cfi_def_cfa 8, 0
 719:../src/platform/mpfs_hal/common/nwc/mss_pll.c ****     uint32_t * sc_lma = &__sc_load;
 908              		.loc 1 719 16
 909 0006 97070000 		lla	a5,__sc_load
 909      93870700 
 910 000e 2334F4FE 		sd	a5,-24(s0)
 720:../src/platform/mpfs_hal/common/nwc/mss_pll.c ****     uint32_t * end_sc_vma = &__sc_end;
 911              		.loc 1 720 16
 912 0012 97070000 		lla	a5,__sc_end
 912      93870700 
 913 001a 233CF4FC 		sd	a5,-40(s0)
 721:../src/platform/mpfs_hal/common/nwc/mss_pll.c ****     uint32_t * sc_vma = &__sc_start;
 914              		.loc 1 721 16
 915 001e 97070000 		lla	a5,__sc_start
 915      93870700 
 916 0026 2330F4FE 		sd	a5,-32(s0)
 722:../src/platform/mpfs_hal/common/nwc/mss_pll.c **** 
 723:../src/platform/mpfs_hal/common/nwc/mss_pll.c ****     if ( sc_vma != sc_lma )
 917              		.loc 1 723 8
 918 002a 033704FE 		ld	a4,-32(s0)
 919 002e 833784FE 		ld	a5,-24(s0)
 920 0032 6309F702 		beq	a4,a5,.L33
 724:../src/platform/mpfs_hal/common/nwc/mss_pll.c ****     {
 725:../src/platform/mpfs_hal/common/nwc/mss_pll.c ****         while ( sc_vma < end_sc_vma )
 921              		.loc 1 725 15
 922 0036 0DA0     		j	.L31
 923              	.L32:
 726:../src/platform/mpfs_hal/common/nwc/mss_pll.c ****         {
 727:../src/platform/mpfs_hal/common/nwc/mss_pll.c ****             *sc_vma = *sc_lma;
 924              		.loc 1 727 23
 925 0038 833784FE 		ld	a5,-24(s0)
 926 003c 9843     		lw	a4,0(a5)
 927              		.loc 1 727 21
 928 003e 833704FE 		ld	a5,-32(s0)
 929 0042 98C3     		sw	a4,0(a5)
 728:../src/platform/mpfs_hal/common/nwc/mss_pll.c ****             sc_vma++ ; sc_lma++;
 930              		.loc 1 728 19
 931 0044 833704FE 		ld	a5,-32(s0)
 932 0048 9107     		addi	a5,a5,4
 933 004a 2330F4FE 		sd	a5,-32(s0)
 934              		.loc 1 728 30
 935 004e 833784FE 		ld	a5,-24(s0)
 936 0052 9107     		addi	a5,a5,4
 937 0054 2334F4FE 		sd	a5,-24(s0)
 938              	.L31:
 725:../src/platform/mpfs_hal/common/nwc/mss_pll.c ****         {
 939              		.loc 1 725 15
 940 0058 033704FE 		ld	a4,-32(s0)
 941 005c 833784FD 		ld	a5,-40(s0)
 942 0060 E36CF7FC 		bltu	a4,a5,.L32
 943              	.L33:
 729:../src/platform/mpfs_hal/common/nwc/mss_pll.c ****          }
 730:../src/platform/mpfs_hal/common/nwc/mss_pll.c ****     }
 731:../src/platform/mpfs_hal/common/nwc/mss_pll.c **** }
 944              		.loc 1 731 1
 945 0064 0100     		nop
 946 0066 2274     		ld	s0,40(sp)
 947              		.cfi_restore 8
 948              		.cfi_def_cfa 2, 48
 949 0068 4561     		addi	sp,sp,48
 950              		.cfi_def_cfa_offset 0
 951 006a 8280     		jr	ra
 952              		.cfi_endproc
 953              	.LFE30:
 955              		.text
 956              	.Letext0:
 957              		.file 2 "/home/vinay/Desktop/soft_console/SoftConsole-v2022.2-RISC-V-747/riscv-unknown-elf-gcc/ris
 958              		.file 3 "/home/vinay/Desktop/soft_console/SoftConsole-v2022.2-RISC-V-747/riscv-unknown-elf-gcc/ris
 959              		.file 4 "/home/vinay/Desktop/softconsole_watershed/Water-shed/src/platform/mpfs_hal/common/nwc/../
 960              		.file 5 "/home/vinay/Desktop/softconsole_watershed/Water-shed/src/platform/mpfs_hal/common/nwc/mss
 961              		.file 6 "/home/vinay/Desktop/softconsole_watershed/Water-shed/src/platform/mpfs_hal/common/nwc/mss
 962              		.file 7 "/home/vinay/Desktop/softconsole_watershed/Water-shed/src/platform/mpfs_hal/common/nwc/mss
 963              		.file 8 "/home/vinay/Desktop/softconsole_watershed/Water-shed/src/platform/mpfs_hal/common/nwc/mss
 964              		.file 9 "/home/vinay/Desktop/softconsole_watershed/Water-shed/src/platform/mpfs_hal/common/mss_mpu
 965              		.file 10 "/home/vinay/Desktop/softconsole_watershed/Water-shed/src/platform/mpfs_hal/common/mss_pl
 966              		.file 11 "/home/vinay/Desktop/softconsole_watershed/Water-shed/src/platform/mpfs_hal/startup_gcc/s
DEFINED SYMBOLS
                            *ABS*:0000000000000000 mss_pll.c
     /tmp/ccOWj8hl.s:14     .sdata2.MSS_SCB_MSS_PLL:0000000000000000 MSS_SCB_MSS_PLL
     /tmp/ccOWj8hl.s:21     .sdata2.MSS_SCB_DDR_PLL:0000000000000000 MSS_SCB_DDR_PLL
     /tmp/ccOWj8hl.s:28     .sdata2.MSS_SCB_SGMII_PLL:0000000000000000 MSS_SCB_SGMII_PLL
     /tmp/ccOWj8hl.s:35     .sdata2.MSS_SCB_CFM_MSS_MUX:0000000000000000 MSS_SCB_CFM_MSS_MUX
     /tmp/ccOWj8hl.s:42     .sdata2.MSS_SCB_CFM_SGMII_MUX:0000000000000000 MSS_SCB_CFM_SGMII_MUX
     /tmp/ccOWj8hl.s:49     .sdata2.IOSCB_IO_CALIB_SGMII:0000000000000000 IOSCB_IO_CALIB_SGMII
     /tmp/ccOWj8hl.s:56     .sdata2.IOSCB_IO_CALIB_DDR:0000000000000000 IOSCB_IO_CALIB_DDR
     /tmp/ccOWj8hl.s:62     .text.set_RTC_divisor:0000000000000000 set_RTC_divisor
     /tmp/ccOWj8hl.s:66     .text.set_RTC_divisor:0000000000000000 .L0 
     /tmp/ccOWj8hl.s:67     .text.set_RTC_divisor:0000000000000000 .L0 
     /tmp/ccOWj8hl.s:68     .text.set_RTC_divisor:0000000000000002 .L0 
     /tmp/ccOWj8hl.s:70     .text.set_RTC_divisor:0000000000000004 .L0 
     /tmp/ccOWj8hl.s:72     .text.set_RTC_divisor:0000000000000006 .L0 
     /tmp/ccOWj8hl.s:74     .text.set_RTC_divisor:0000000000000006 .L0 
     /tmp/ccOWj8hl.s:85     .text.set_RTC_divisor:0000000000000020 .L0 
     /tmp/ccOWj8hl.s:87     .text.set_RTC_divisor:0000000000000024 .L0 
     /tmp/ccOWj8hl.s:90     .text.set_RTC_divisor:000000000000002a .L0 
     /tmp/ccOWj8hl.s:100    .text.set_RTC_divisor:0000000000000042 .L0 
     /tmp/ccOWj8hl.s:102    .text.set_RTC_divisor:0000000000000046 .L0 
     /tmp/ccOWj8hl.s:103    .text.set_RTC_divisor:0000000000000046 .L0 
     /tmp/ccOWj8hl.s:105    .text.set_RTC_divisor:0000000000000048 .L0 
     /tmp/ccOWj8hl.s:107    .text.set_RTC_divisor:000000000000004a .L0 
     /tmp/ccOWj8hl.s:113    .text.mss_mux_pre_mss_pll_config:0000000000000000 mss_mux_pre_mss_pll_config
     /tmp/ccOWj8hl.s:116    .text.mss_mux_pre_mss_pll_config:0000000000000000 .L0 
     /tmp/ccOWj8hl.s:117    .text.mss_mux_pre_mss_pll_config:0000000000000000 .L0 
     /tmp/ccOWj8hl.s:118    .text.mss_mux_pre_mss_pll_config:0000000000000002 .L0 
     /tmp/ccOWj8hl.s:120    .text.mss_mux_pre_mss_pll_config:0000000000000004 .L0 
     /tmp/ccOWj8hl.s:122    .text.mss_mux_pre_mss_pll_config:0000000000000006 .L0 
     /tmp/ccOWj8hl.s:124    .text.mss_mux_pre_mss_pll_config:0000000000000006 .L0 
     /tmp/ccOWj8hl.s:126    .text.mss_mux_pre_mss_pll_config:000000000000000a .L0 
     /tmp/ccOWj8hl.s:129    .text.mss_mux_pre_mss_pll_config:0000000000000010 .L0 
     /tmp/ccOWj8hl.s:131    .text.mss_mux_pre_mss_pll_config:0000000000000014 .L0 
     /tmp/ccOWj8hl.s:135    .text.mss_mux_pre_mss_pll_config:000000000000001c .L0 
     /tmp/ccOWj8hl.s:137    .text.mss_mux_pre_mss_pll_config:0000000000000020 .L0 
     /tmp/ccOWj8hl.s:140    .text.mss_mux_pre_mss_pll_config:0000000000000026 .L0 
     /tmp/ccOWj8hl.s:142    .text.mss_mux_pre_mss_pll_config:000000000000002a .L0 
     /tmp/ccOWj8hl.s:144    .text.mss_mux_pre_mss_pll_config:000000000000002e .L0 
     /tmp/ccOWj8hl.s:146    .text.mss_mux_pre_mss_pll_config:0000000000000032 .L0 
     /tmp/ccOWj8hl.s:148    .text.mss_mux_pre_mss_pll_config:0000000000000036 .L0 
     /tmp/ccOWj8hl.s:150    .text.mss_mux_pre_mss_pll_config:000000000000003a .L0 
     /tmp/ccOWj8hl.s:152    .text.mss_mux_pre_mss_pll_config:000000000000003e .L0 
     /tmp/ccOWj8hl.s:154    .text.mss_mux_pre_mss_pll_config:0000000000000042 .L0 
     /tmp/ccOWj8hl.s:157    .text.mss_mux_pre_mss_pll_config:0000000000000044 .L0 
     /tmp/ccOWj8hl.s:163    .text.mss_mux_pre_mss_pll_config:0000000000000052 .L0 
     /tmp/ccOWj8hl.s:170    .text.mss_mux_pre_mss_pll_config:0000000000000060 .L0 
     /tmp/ccOWj8hl.s:173    .text.mss_mux_pre_mss_pll_config:0000000000000066 .L0 
     /tmp/ccOWj8hl.s:177    .text.mss_mux_pre_mss_pll_config:0000000000000070 .L0 
     /tmp/ccOWj8hl.s:179    .text.mss_mux_pre_mss_pll_config:0000000000000074 .L0 
     /tmp/ccOWj8hl.s:180    .text.mss_mux_pre_mss_pll_config:0000000000000074 .L0 
     /tmp/ccOWj8hl.s:182    .text.mss_mux_pre_mss_pll_config:0000000000000076 .L0 
     /tmp/ccOWj8hl.s:184    .text.mss_mux_pre_mss_pll_config:0000000000000078 .L0 
     /tmp/ccOWj8hl.s:190    .ram_codetext:0000000000000000 mss_mux_post_mss_pll_config
     /tmp/ccOWj8hl.s:193    .ram_codetext:0000000000000000 .L0 
     /tmp/ccOWj8hl.s:194    .ram_codetext:0000000000000000 .L0 
     /tmp/ccOWj8hl.s:195    .ram_codetext:0000000000000002 .L0 
     /tmp/ccOWj8hl.s:198    .ram_codetext:0000000000000006 .L0 
     /tmp/ccOWj8hl.s:199    .ram_codetext:0000000000000006 .L0 
     /tmp/ccOWj8hl.s:201    .ram_codetext:0000000000000008 .L0 
     /tmp/ccOWj8hl.s:203    .ram_codetext:0000000000000008 .L0 
     /tmp/ccOWj8hl.s:205    .ram_codetext:000000000000000c .L0 
../src/platform/mpfs_hal/common/nwc/mss_pll.c:232    .ram_codetext:0000000000000016 .L0 
     /tmp/ccOWj8hl.s:215    .ram_codetext:000000000000001a .L0 
     /tmp/ccOWj8hl.s:217    .ram_codetext:000000000000001e .L0 
     /tmp/ccOWj8hl.s:220    .ram_codetext:0000000000000020 .L0 
     /tmp/ccOWj8hl.s:227    .ram_codetext:000000000000002e .L0 
     /tmp/ccOWj8hl.s:231    .ram_codetext:0000000000000038 .L0 
     /tmp/ccOWj8hl.s:234    .ram_codetext:000000000000003e .L0 
     /tmp/ccOWj8hl.s:238    .ram_codetext:0000000000000048 .L0 
     /tmp/ccOWj8hl.s:240    .ram_codetext:000000000000004c .L0 
     /tmp/ccOWj8hl.s:243    .ram_codetext:0000000000000052 .L0 
     /tmp/ccOWj8hl.s:245    .ram_codetext:0000000000000056 .L0 
     /tmp/ccOWj8hl.s:248    .ram_codetext:000000000000005a .L0 
     /tmp/ccOWj8hl.s:250    .ram_codetext:0000000000000062 .L0 
     /tmp/ccOWj8hl.s:252    .ram_codetext:0000000000000066 .L0 
     /tmp/ccOWj8hl.s:254    .ram_codetext:0000000000000068 .L0 
     /tmp/ccOWj8hl.s:255    .ram_codetext:0000000000000068 .L0 
     /tmp/ccOWj8hl.s:257    .ram_codetext:000000000000006a .L0 
     /tmp/ccOWj8hl.s:259    .ram_codetext:000000000000006c .L0 
     /tmp/ccOWj8hl.s:266    .text.sgmii_mux_config:0000000000000000 sgmii_mux_config
     /tmp/ccOWj8hl.s:269    .text.sgmii_mux_config:0000000000000000 .L0 
     /tmp/ccOWj8hl.s:270    .text.sgmii_mux_config:0000000000000000 .L0 
     /tmp/ccOWj8hl.s:271    .text.sgmii_mux_config:0000000000000002 .L0 
     /tmp/ccOWj8hl.s:273    .text.sgmii_mux_config:0000000000000004 .L0 
     /tmp/ccOWj8hl.s:275    .text.sgmii_mux_config:0000000000000006 .L0 
     /tmp/ccOWj8hl.s:279    .text.sgmii_mux_config:000000000000000c .L0 
     /tmp/ccOWj8hl.s:285    .text.sgmii_mux_config:000000000000001a .L0 
     /tmp/ccOWj8hl.s:287    .text.sgmii_mux_config:000000000000001e .L0 
     /tmp/ccOWj8hl.s:290    .text.sgmii_mux_config:0000000000000022 .L0 
     /tmp/ccOWj8hl.s:292    .text.sgmii_mux_config:0000000000000026 .L0 
     /tmp/ccOWj8hl.s:296    .text.sgmii_mux_config:000000000000002e .L0 
     /tmp/ccOWj8hl.s:298    .text.sgmii_mux_config:0000000000000032 .L0 
     /tmp/ccOWj8hl.s:301    .text.sgmii_mux_config:0000000000000036 .L0 
     /tmp/ccOWj8hl.s:304    .text.sgmii_mux_config:0000000000000038 .L0 
     /tmp/ccOWj8hl.s:306    .text.sgmii_mux_config:000000000000003c .L0 
     /tmp/ccOWj8hl.s:309    .text.sgmii_mux_config:0000000000000040 .L0 
     /tmp/ccOWj8hl.s:312    .text.sgmii_mux_config:0000000000000042 .L0 
     /tmp/ccOWj8hl.s:314    .text.sgmii_mux_config:0000000000000046 .L0 
     /tmp/ccOWj8hl.s:315    .text.sgmii_mux_config:0000000000000046 .L0 
     /tmp/ccOWj8hl.s:317    .text.sgmii_mux_config:0000000000000048 .L0 
     /tmp/ccOWj8hl.s:319    .text.sgmii_mux_config:000000000000004a .L0 
     /tmp/ccOWj8hl.s:326    .text.mss_pll_config:0000000000000000 mss_pll_config
     /tmp/ccOWj8hl.s:329    .text.mss_pll_config:0000000000000000 .L0 
     /tmp/ccOWj8hl.s:330    .text.mss_pll_config:0000000000000000 .L0 
     /tmp/ccOWj8hl.s:331    .text.mss_pll_config:0000000000000002 .L0 
     /tmp/ccOWj8hl.s:334    .text.mss_pll_config:0000000000000006 .L0 
     /tmp/ccOWj8hl.s:335    .text.mss_pll_config:0000000000000006 .L0 
     /tmp/ccOWj8hl.s:337    .text.mss_pll_config:0000000000000008 .L0 
     /tmp/ccOWj8hl.s:898    .text.copy_switch_code:0000000000000000 copy_switch_code
     /tmp/ccOWj8hl.s:339    .text.mss_pll_config:0000000000000008 .L0 
     /tmp/ccOWj8hl.s:341    .text.mss_pll_config:0000000000000010 .L0 
     /tmp/ccOWj8hl.s:343    .text.mss_pll_config:0000000000000014 .L0 
     /tmp/ccOWj8hl.s:346    .text.mss_pll_config:0000000000000018 .L0 
     /tmp/ccOWj8hl.s:348    .text.mss_pll_config:000000000000001c .L0 
     /tmp/ccOWj8hl.s:351    .text.mss_pll_config:0000000000000020 .L0 
     /tmp/ccOWj8hl.s:353    .text.mss_pll_config:0000000000000024 .L0 
     /tmp/ccOWj8hl.s:357    .text.mss_pll_config:000000000000002e .L0 
     /tmp/ccOWj8hl.s:359    .text.mss_pll_config:0000000000000032 .L0 
     /tmp/ccOWj8hl.s:362    .text.mss_pll_config:0000000000000038 .L0 
     /tmp/ccOWj8hl.s:364    .text.mss_pll_config:000000000000003c .L0 
     /tmp/ccOWj8hl.s:368    .text.mss_pll_config:0000000000000046 .L0 
     /tmp/ccOWj8hl.s:370    .text.mss_pll_config:000000000000004a .L0 
     /tmp/ccOWj8hl.s:374    .text.mss_pll_config:0000000000000054 .L0 
     /tmp/ccOWj8hl.s:376    .text.mss_pll_config:0000000000000058 .L0 
     /tmp/ccOWj8hl.s:380    .text.mss_pll_config:0000000000000060 .L0 
     /tmp/ccOWj8hl.s:382    .text.mss_pll_config:0000000000000064 .L0 
     /tmp/ccOWj8hl.s:384    .text.mss_pll_config:0000000000000068 .L0 
     /tmp/ccOWj8hl.s:386    .text.mss_pll_config:000000000000006c .L0 
     /tmp/ccOWj8hl.s:388    .text.mss_pll_config:0000000000000070 .L0 
     /tmp/ccOWj8hl.s:390    .text.mss_pll_config:0000000000000074 .L0 
     /tmp/ccOWj8hl.s:392    .text.mss_pll_config:0000000000000078 .L0 
     /tmp/ccOWj8hl.s:394    .text.mss_pll_config:000000000000007c .L0 
     /tmp/ccOWj8hl.s:397    .text.mss_pll_config:0000000000000082 .L0 
     /tmp/ccOWj8hl.s:399    .text.mss_pll_config:0000000000000086 .L0 
     /tmp/ccOWj8hl.s:402    .text.mss_pll_config:000000000000008a .L0 
     /tmp/ccOWj8hl.s:404    .text.mss_pll_config:000000000000008e .L0 
     /tmp/ccOWj8hl.s:408    .text.mss_pll_config:0000000000000094 .L0 
     /tmp/ccOWj8hl.s:410    .text.mss_pll_config:000000000000009c .L0 
     /tmp/ccOWj8hl.s:412    .text.mss_pll_config:00000000000000a0 .L0 
     /tmp/ccOWj8hl.s:416    .text.mss_pll_config:00000000000000aa .L0 
     /tmp/ccOWj8hl.s:420    .text.mss_pll_config:00000000000000b4 .L0 
     /tmp/ccOWj8hl.s:423    .text.mss_pll_config:00000000000000b6 .L0 
     /tmp/ccOWj8hl.s:426    .text.mss_pll_config:00000000000000bc .L0 
     /tmp/ccOWj8hl.s:428    .text.mss_pll_config:00000000000000be .L0 
     /tmp/ccOWj8hl.s:436    .text.mss_pll_config:00000000000000ce .L0 
     /tmp/ccOWj8hl.s:472    .text.flag_mss_pll_lock_error:0000000000000000 flag_mss_pll_lock_error
     /tmp/ccOWj8hl.s:440    .text.mss_pll_config:00000000000000d8 .L0 
     /tmp/ccOWj8hl.s:443    .text.mss_pll_config:00000000000000e0 .L0 
     /tmp/ccOWj8hl.s:447    .text.mss_pll_config:00000000000000e8 .L0 
     /tmp/ccOWj8hl.s:452    .text.mss_pll_config:00000000000000f2 .L0 
     /tmp/ccOWj8hl.s:454    .text.mss_pll_config:00000000000000f4 .L0 
     /tmp/ccOWj8hl.s:456    .text.mss_pll_config:00000000000000fc .L0 
     /tmp/ccOWj8hl.s:458    .text.mss_pll_config:0000000000000100 .L0 
     /tmp/ccOWj8hl.s:460    .text.mss_pll_config:0000000000000102 .L0 
     /tmp/ccOWj8hl.s:461    .text.mss_pll_config:0000000000000102 .L0 
     /tmp/ccOWj8hl.s:463    .text.mss_pll_config:0000000000000104 .L0 
     /tmp/ccOWj8hl.s:465    .text.mss_pll_config:0000000000000106 .L0 
     /tmp/ccOWj8hl.s:475    .text.flag_mss_pll_lock_error:0000000000000000 .L0 
     /tmp/ccOWj8hl.s:476    .text.flag_mss_pll_lock_error:0000000000000000 .L0 
     /tmp/ccOWj8hl.s:477    .text.flag_mss_pll_lock_error:0000000000000002 .L0 
     /tmp/ccOWj8hl.s:479    .text.flag_mss_pll_lock_error:0000000000000004 .L0 
     /tmp/ccOWj8hl.s:481    .text.flag_mss_pll_lock_error:0000000000000006 .L0 
../src/platform/mpfs_hal/common/nwc/mss_pll.c:504    .text.flag_mss_pll_lock_error:0000000000000006 .L0 
     /tmp/ccOWj8hl.s:489    .text.flag_mss_pll_lock_error:0000000000000008 .L0 
     /tmp/ccOWj8hl.s:491    .text.flag_mss_pll_lock_error:000000000000000c .L0 
     /tmp/ccOWj8hl.s:492    .text.flag_mss_pll_lock_error:000000000000000c .L0 
     /tmp/ccOWj8hl.s:494    .text.flag_mss_pll_lock_error:000000000000000e .L0 
     /tmp/ccOWj8hl.s:496    .text.flag_mss_pll_lock_error:0000000000000010 .L0 
     /tmp/ccOWj8hl.s:503    .text.ddr_pll_config:0000000000000000 ddr_pll_config
     /tmp/ccOWj8hl.s:506    .text.ddr_pll_config:0000000000000000 .L0 
     /tmp/ccOWj8hl.s:507    .text.ddr_pll_config:0000000000000000 .L0 
     /tmp/ccOWj8hl.s:508    .text.ddr_pll_config:0000000000000002 .L0 
     /tmp/ccOWj8hl.s:510    .text.ddr_pll_config:0000000000000004 .L0 
     /tmp/ccOWj8hl.s:512    .text.ddr_pll_config:0000000000000006 .L0 
     /tmp/ccOWj8hl.s:516    .text.ddr_pll_config:000000000000000c .L0 
     /tmp/ccOWj8hl.s:521    .text.ddr_pll_config:000000000000001a .L0 
     /tmp/ccOWj8hl.s:523    .text.ddr_pll_config:000000000000001e .L0 
     /tmp/ccOWj8hl.s:526    .text.ddr_pll_config:0000000000000022 .L0 
     /tmp/ccOWj8hl.s:528    .text.ddr_pll_config:0000000000000026 .L0 
     /tmp/ccOWj8hl.s:532    .text.ddr_pll_config:0000000000000030 .L0 
     /tmp/ccOWj8hl.s:534    .text.ddr_pll_config:0000000000000034 .L0 
     /tmp/ccOWj8hl.s:537    .text.ddr_pll_config:000000000000003a .L0 
     /tmp/ccOWj8hl.s:539    .text.ddr_pll_config:000000000000003e .L0 
     /tmp/ccOWj8hl.s:543    .text.ddr_pll_config:0000000000000048 .L0 
     /tmp/ccOWj8hl.s:545    .text.ddr_pll_config:000000000000004c .L0 
     /tmp/ccOWj8hl.s:549    .text.ddr_pll_config:0000000000000056 .L0 
     /tmp/ccOWj8hl.s:551    .text.ddr_pll_config:000000000000005a .L0 
     /tmp/ccOWj8hl.s:555    .text.ddr_pll_config:0000000000000062 .L0 
     /tmp/ccOWj8hl.s:557    .text.ddr_pll_config:0000000000000066 .L0 
     /tmp/ccOWj8hl.s:559    .text.ddr_pll_config:000000000000006a .L0 
     /tmp/ccOWj8hl.s:561    .text.ddr_pll_config:000000000000006e .L0 
     /tmp/ccOWj8hl.s:563    .text.ddr_pll_config:0000000000000072 .L0 
     /tmp/ccOWj8hl.s:565    .text.ddr_pll_config:0000000000000076 .L0 
     /tmp/ccOWj8hl.s:567    .text.ddr_pll_config:000000000000007a .L0 
     /tmp/ccOWj8hl.s:569    .text.ddr_pll_config:000000000000007e .L0 
     /tmp/ccOWj8hl.s:572    .text.ddr_pll_config:0000000000000084 .L0 
     /tmp/ccOWj8hl.s:574    .text.ddr_pll_config:0000000000000088 .L0 
     /tmp/ccOWj8hl.s:577    .text.ddr_pll_config:000000000000008c .L0 
     /tmp/ccOWj8hl.s:579    .text.ddr_pll_config:0000000000000090 .L0 
     /tmp/ccOWj8hl.s:583    .text.ddr_pll_config:0000000000000096 .L0 
     /tmp/ccOWj8hl.s:585    .text.ddr_pll_config:000000000000009a .L0 
     /tmp/ccOWj8hl.s:589    .text.ddr_pll_config:00000000000000a4 .L0 
     /tmp/ccOWj8hl.s:592    .text.ddr_pll_config:00000000000000a6 .L0 
     /tmp/ccOWj8hl.s:595    .text.ddr_pll_config:00000000000000b0 .L0 
     /tmp/ccOWj8hl.s:599    .text.ddr_pll_config:00000000000000bc .L0 
     /tmp/ccOWj8hl.s:602    .text.ddr_pll_config:00000000000000c6 .L0 
     /tmp/ccOWj8hl.s:605    .text.ddr_pll_config:00000000000000ce .L0 
     /tmp/ccOWj8hl.s:608    .text.ddr_pll_config:00000000000000d8 .L0 
     /tmp/ccOWj8hl.s:612    .text.ddr_pll_config:00000000000000e4 .L0 
     /tmp/ccOWj8hl.s:615    .text.ddr_pll_config:00000000000000ee .L0 
     /tmp/ccOWj8hl.s:619    .text.ddr_pll_config:00000000000000fa .L0 
     /tmp/ccOWj8hl.s:622    .text.ddr_pll_config:0000000000000104 .L0 
     /tmp/ccOWj8hl.s:626    .text.ddr_pll_config:000000000000010e .L0 
     /tmp/ccOWj8hl.s:629    .text.ddr_pll_config:0000000000000118 .L0 
     /tmp/ccOWj8hl.s:633    .text.ddr_pll_config:0000000000000120 .L0 
     /tmp/ccOWj8hl.s:636    .text.ddr_pll_config:000000000000012a .L0 
     /tmp/ccOWj8hl.s:639    .text.ddr_pll_config:0000000000000132 .L0 
     /tmp/ccOWj8hl.s:641    .text.ddr_pll_config:0000000000000136 .L0 
     /tmp/ccOWj8hl.s:644    .text.ddr_pll_config:000000000000013a .L0 
     /tmp/ccOWj8hl.s:647    .text.ddr_pll_config:000000000000013c .L0 
     /tmp/ccOWj8hl.s:649    .text.ddr_pll_config:0000000000000140 .L0 
     /tmp/ccOWj8hl.s:650    .text.ddr_pll_config:0000000000000140 .L0 
     /tmp/ccOWj8hl.s:652    .text.ddr_pll_config:0000000000000142 .L0 
     /tmp/ccOWj8hl.s:654    .text.ddr_pll_config:0000000000000144 .L0 
     /tmp/ccOWj8hl.s:661    .text.ddr_pll_lock_scb:0000000000000000 ddr_pll_lock_scb
     /tmp/ccOWj8hl.s:664    .text.ddr_pll_lock_scb:0000000000000000 .L0 
     /tmp/ccOWj8hl.s:665    .text.ddr_pll_lock_scb:0000000000000000 .L0 
     /tmp/ccOWj8hl.s:666    .text.ddr_pll_lock_scb:0000000000000002 .L0 
     /tmp/ccOWj8hl.s:668    .text.ddr_pll_lock_scb:0000000000000004 .L0 
     /tmp/ccOWj8hl.s:670    .text.ddr_pll_lock_scb:0000000000000006 .L0 
     /tmp/ccOWj8hl.s:672    .text.ddr_pll_lock_scb:0000000000000006 .L0 
     /tmp/ccOWj8hl.s:675    .text.ddr_pll_lock_scb:000000000000000c .L0 
     /tmp/ccOWj8hl.s:679    .text.ddr_pll_lock_scb:0000000000000014 .L0 
     /tmp/ccOWj8hl.s:684    .text.ddr_pll_lock_scb:000000000000001e .L0 
     /tmp/ccOWj8hl.s:688    .text.ddr_pll_lock_scb:0000000000000028 .L0 
     /tmp/ccOWj8hl.s:691    .text.ddr_pll_lock_scb:000000000000002c .L0 
     /tmp/ccOWj8hl.s:693    .text.ddr_pll_lock_scb:0000000000000030 .L0 
     /tmp/ccOWj8hl.s:695    .text.ddr_pll_lock_scb:0000000000000034 .L0 
     /tmp/ccOWj8hl.s:696    .text.ddr_pll_lock_scb:0000000000000034 .L0 
     /tmp/ccOWj8hl.s:698    .text.ddr_pll_lock_scb:0000000000000036 .L0 
     /tmp/ccOWj8hl.s:700    .text.ddr_pll_lock_scb:0000000000000038 .L0 
     /tmp/ccOWj8hl.s:707    .text.ddr_pll_config_scb_turn_off:0000000000000000 ddr_pll_config_scb_turn_off
     /tmp/ccOWj8hl.s:710    .text.ddr_pll_config_scb_turn_off:0000000000000000 .L0 
     /tmp/ccOWj8hl.s:711    .text.ddr_pll_config_scb_turn_off:0000000000000000 .L0 
     /tmp/ccOWj8hl.s:712    .text.ddr_pll_config_scb_turn_off:0000000000000002 .L0 
     /tmp/ccOWj8hl.s:714    .text.ddr_pll_config_scb_turn_off:0000000000000004 .L0 
     /tmp/ccOWj8hl.s:716    .text.ddr_pll_config_scb_turn_off:0000000000000006 .L0 
     /tmp/ccOWj8hl.s:718    .text.ddr_pll_config_scb_turn_off:0000000000000006 .L0 
     /tmp/ccOWj8hl.s:726    .text.ddr_pll_config_scb_turn_off:000000000000001a .L0 
     /tmp/ccOWj8hl.s:728    .text.ddr_pll_config_scb_turn_off:000000000000001e .L0 
     /tmp/ccOWj8hl.s:729    .text.ddr_pll_config_scb_turn_off:000000000000001e .L0 
     /tmp/ccOWj8hl.s:731    .text.ddr_pll_config_scb_turn_off:0000000000000020 .L0 
     /tmp/ccOWj8hl.s:733    .text.ddr_pll_config_scb_turn_off:0000000000000022 .L0 
     /tmp/ccOWj8hl.s:740    .text.sgmii_pll_config_scb:0000000000000000 sgmii_pll_config_scb
     /tmp/ccOWj8hl.s:743    .text.sgmii_pll_config_scb:0000000000000000 .L0 
     /tmp/ccOWj8hl.s:744    .text.sgmii_pll_config_scb:0000000000000000 .L0 
     /tmp/ccOWj8hl.s:745    .text.sgmii_pll_config_scb:0000000000000002 .L0 
     /tmp/ccOWj8hl.s:747    .text.sgmii_pll_config_scb:0000000000000004 .L0 
     /tmp/ccOWj8hl.s:749    .text.sgmii_pll_config_scb:0000000000000006 .L0 
     /tmp/ccOWj8hl.s:753    .text.sgmii_pll_config_scb:000000000000000c .L0 
     /tmp/ccOWj8hl.s:759    .text.sgmii_pll_config_scb:000000000000001a .L0 
     /tmp/ccOWj8hl.s:761    .text.sgmii_pll_config_scb:000000000000001e .L0 
     /tmp/ccOWj8hl.s:764    .text.sgmii_pll_config_scb:0000000000000022 .L0 
     /tmp/ccOWj8hl.s:766    .text.sgmii_pll_config_scb:0000000000000026 .L0 
     /tmp/ccOWj8hl.s:770    .text.sgmii_pll_config_scb:0000000000000030 .L0 
     /tmp/ccOWj8hl.s:772    .text.sgmii_pll_config_scb:0000000000000034 .L0 
     /tmp/ccOWj8hl.s:775    .text.sgmii_pll_config_scb:000000000000003a .L0 
     /tmp/ccOWj8hl.s:777    .text.sgmii_pll_config_scb:000000000000003e .L0 
     /tmp/ccOWj8hl.s:781    .text.sgmii_pll_config_scb:0000000000000048 .L0 
     /tmp/ccOWj8hl.s:783    .text.sgmii_pll_config_scb:000000000000004c .L0 
     /tmp/ccOWj8hl.s:787    .text.sgmii_pll_config_scb:0000000000000056 .L0 
     /tmp/ccOWj8hl.s:789    .text.sgmii_pll_config_scb:000000000000005a .L0 
     /tmp/ccOWj8hl.s:793    .text.sgmii_pll_config_scb:0000000000000062 .L0 
     /tmp/ccOWj8hl.s:795    .text.sgmii_pll_config_scb:0000000000000066 .L0 
     /tmp/ccOWj8hl.s:797    .text.sgmii_pll_config_scb:000000000000006a .L0 
     /tmp/ccOWj8hl.s:799    .text.sgmii_pll_config_scb:000000000000006e .L0 
     /tmp/ccOWj8hl.s:801    .text.sgmii_pll_config_scb:0000000000000072 .L0 
     /tmp/ccOWj8hl.s:803    .text.sgmii_pll_config_scb:0000000000000076 .L0 
     /tmp/ccOWj8hl.s:805    .text.sgmii_pll_config_scb:000000000000007a .L0 
     /tmp/ccOWj8hl.s:807    .text.sgmii_pll_config_scb:000000000000007e .L0 
     /tmp/ccOWj8hl.s:810    .text.sgmii_pll_config_scb:0000000000000082 .L0 
     /tmp/ccOWj8hl.s:812    .text.sgmii_pll_config_scb:0000000000000086 .L0 
     /tmp/ccOWj8hl.s:815    .text.sgmii_pll_config_scb:000000000000008a .L0 
     /tmp/ccOWj8hl.s:817    .text.sgmii_pll_config_scb:000000000000008e .L0 
     /tmp/ccOWj8hl.s:821    .text.sgmii_pll_config_scb:0000000000000096 .L0 
     /tmp/ccOWj8hl.s:823    .text.sgmii_pll_config_scb:000000000000009a .L0 
     /tmp/ccOWj8hl.s:827    .text.sgmii_pll_config_scb:00000000000000a4 .L0 
     /tmp/ccOWj8hl.s:830    .text.sgmii_pll_config_scb:00000000000000a6 .L0 
     /tmp/ccOWj8hl.s:832    .text.sgmii_pll_config_scb:00000000000000aa .L0 
     /tmp/ccOWj8hl.s:835    .text.sgmii_pll_config_scb:00000000000000ae .L0 
     /tmp/ccOWj8hl.s:838    .text.sgmii_pll_config_scb:00000000000000b0 .L0 
     /tmp/ccOWj8hl.s:840    .text.sgmii_pll_config_scb:00000000000000b4 .L0 
     /tmp/ccOWj8hl.s:841    .text.sgmii_pll_config_scb:00000000000000b4 .L0 
     /tmp/ccOWj8hl.s:843    .text.sgmii_pll_config_scb:00000000000000b6 .L0 
     /tmp/ccOWj8hl.s:845    .text.sgmii_pll_config_scb:00000000000000b8 .L0 
     /tmp/ccOWj8hl.s:852    .text.sgmii_pll_lock_scb:0000000000000000 sgmii_pll_lock_scb
     /tmp/ccOWj8hl.s:855    .text.sgmii_pll_lock_scb:0000000000000000 .L0 
     /tmp/ccOWj8hl.s:856    .text.sgmii_pll_lock_scb:0000000000000000 .L0 
     /tmp/ccOWj8hl.s:857    .text.sgmii_pll_lock_scb:0000000000000002 .L0 
     /tmp/ccOWj8hl.s:859    .text.sgmii_pll_lock_scb:0000000000000004 .L0 
     /tmp/ccOWj8hl.s:861    .text.sgmii_pll_lock_scb:0000000000000006 .L0 
     /tmp/ccOWj8hl.s:863    .text.sgmii_pll_lock_scb:0000000000000006 .L0 
     /tmp/ccOWj8hl.s:866    .text.sgmii_pll_lock_scb:000000000000000c .L0 
     /tmp/ccOWj8hl.s:870    .text.sgmii_pll_lock_scb:0000000000000014 .L0 
     /tmp/ccOWj8hl.s:875    .text.sgmii_pll_lock_scb:000000000000001e .L0 
     /tmp/ccOWj8hl.s:879    .text.sgmii_pll_lock_scb:0000000000000028 .L0 
     /tmp/ccOWj8hl.s:882    .text.sgmii_pll_lock_scb:000000000000002c .L0 
     /tmp/ccOWj8hl.s:884    .text.sgmii_pll_lock_scb:0000000000000030 .L0 
     /tmp/ccOWj8hl.s:886    .text.sgmii_pll_lock_scb:0000000000000034 .L0 
     /tmp/ccOWj8hl.s:887    .text.sgmii_pll_lock_scb:0000000000000034 .L0 
     /tmp/ccOWj8hl.s:889    .text.sgmii_pll_lock_scb:0000000000000036 .L0 
     /tmp/ccOWj8hl.s:891    .text.sgmii_pll_lock_scb:0000000000000038 .L0 
     /tmp/ccOWj8hl.s:901    .text.copy_switch_code:0000000000000000 .L0 
     /tmp/ccOWj8hl.s:902    .text.copy_switch_code:0000000000000000 .L0 
     /tmp/ccOWj8hl.s:903    .text.copy_switch_code:0000000000000002 .L0 
     /tmp/ccOWj8hl.s:905    .text.copy_switch_code:0000000000000004 .L0 
     /tmp/ccOWj8hl.s:907    .text.copy_switch_code:0000000000000006 .L0 
     /tmp/ccOWj8hl.s:909    .text.copy_switch_code:0000000000000006 .L0 
     /tmp/ccOWj8hl.s:912    .text.copy_switch_code:0000000000000012 .L0 
     /tmp/ccOWj8hl.s:915    .text.copy_switch_code:000000000000001e .L0 
     /tmp/ccOWj8hl.s:918    .text.copy_switch_code:000000000000002a .L0 
     /tmp/ccOWj8hl.s:922    .text.copy_switch_code:0000000000000036 .L0 
     /tmp/ccOWj8hl.s:925    .text.copy_switch_code:0000000000000038 .L0 
     /tmp/ccOWj8hl.s:928    .text.copy_switch_code:000000000000003e .L0 
     /tmp/ccOWj8hl.s:931    .text.copy_switch_code:0000000000000044 .L0 
     /tmp/ccOWj8hl.s:935    .text.copy_switch_code:000000000000004e .L0 
     /tmp/ccOWj8hl.s:940    .text.copy_switch_code:0000000000000058 .L0 
     /tmp/ccOWj8hl.s:945    .text.copy_switch_code:0000000000000064 .L0 
     /tmp/ccOWj8hl.s:947    .text.copy_switch_code:0000000000000068 .L0 
     /tmp/ccOWj8hl.s:948    .text.copy_switch_code:0000000000000068 .L0 
     /tmp/ccOWj8hl.s:950    .text.copy_switch_code:000000000000006a .L0 
     /tmp/ccOWj8hl.s:952    .text.copy_switch_code:000000000000006c .L0 
     /tmp/ccOWj8hl.s:110    .text.set_RTC_divisor:000000000000004a .L0 
     /tmp/ccOWj8hl.s:187    .text.mss_mux_pre_mss_pll_config:0000000000000078 .L0 
     /tmp/ccOWj8hl.s:262    .ram_codetext:000000000000006c .L0 
     /tmp/ccOWj8hl.s:322    .text.sgmii_mux_config:000000000000004a .L0 
     /tmp/ccOWj8hl.s:468    .text.mss_pll_config:0000000000000106 .L0 
     /tmp/ccOWj8hl.s:499    .text.flag_mss_pll_lock_error:0000000000000010 .L0 
     /tmp/ccOWj8hl.s:657    .text.ddr_pll_config:0000000000000144 .L0 
     /tmp/ccOWj8hl.s:703    .text.ddr_pll_lock_scb:0000000000000038 .L0 
     /tmp/ccOWj8hl.s:736    .text.ddr_pll_config_scb_turn_off:0000000000000022 .L0 
     /tmp/ccOWj8hl.s:848    .text.sgmii_pll_config_scb:00000000000000b8 .L0 
     /tmp/ccOWj8hl.s:894    .text.sgmii_pll_lock_scb:0000000000000038 .L0 
     /tmp/ccOWj8hl.s:955    .text.copy_switch_code:000000000000006c .L0 
                     .debug_frame:0000000000000000 .L0 
     /tmp/ccOWj8hl.s:168    .text.mss_mux_pre_mss_pll_config:0000000000000060 .L3
     /tmp/ccOWj8hl.s:155    .text.mss_mux_pre_mss_pll_config:0000000000000044 .L4
     /tmp/ccOWj8hl.s:225    .ram_codetext:000000000000002e .L6
     /tmp/ccOWj8hl.s:218    .ram_codetext:0000000000000020 .L7
     /tmp/ccOWj8hl.s:302    .text.sgmii_mux_config:0000000000000038 .L9
     /tmp/ccOWj8hl.s:310    .text.sgmii_mux_config:0000000000000042 .L10
     /tmp/ccOWj8hl.s:441    .text.mss_pll_config:00000000000000e0 .L12
     /tmp/ccOWj8hl.s:434    .text.mss_pll_config:00000000000000ce .L13
     /tmp/ccOWj8hl.s:421    .text.mss_pll_config:00000000000000b6 .L14
     /tmp/ccOWj8hl.s:592    .text.ddr_pll_config:00000000000000a6 .L0 
     /tmp/ccOWj8hl.s:599    .text.ddr_pll_config:00000000000000bc .L0 
     /tmp/ccOWj8hl.s:605    .text.ddr_pll_config:00000000000000ce .L0 
     /tmp/ccOWj8hl.s:612    .text.ddr_pll_config:00000000000000e4 .L0 
     /tmp/ccOWj8hl.s:619    .text.ddr_pll_config:00000000000000fa .L0 
     /tmp/ccOWj8hl.s:626    .text.ddr_pll_config:000000000000010e .L0 
     /tmp/ccOWj8hl.s:633    .text.ddr_pll_config:0000000000000120 .L0 
     /tmp/ccOWj8hl.s:590    .text.ddr_pll_config:00000000000000a6 .L17
     /tmp/ccOWj8hl.s:645    .text.ddr_pll_config:000000000000013c .L18
     /tmp/ccOWj8hl.s:689    .text.ddr_pll_lock_scb:000000000000002c .L20
     /tmp/ccOWj8hl.s:828    .text.sgmii_pll_config_scb:00000000000000a6 .L24
     /tmp/ccOWj8hl.s:836    .text.sgmii_pll_config_scb:00000000000000b0 .L25
     /tmp/ccOWj8hl.s:880    .text.sgmii_pll_lock_scb:000000000000002c .L27
     /tmp/ccOWj8hl.s:909    .text.copy_switch_code:0000000000000006 .L0 
     /tmp/ccOWj8hl.s:912    .text.copy_switch_code:0000000000000012 .L0 
     /tmp/ccOWj8hl.s:915    .text.copy_switch_code:000000000000001e .L0 
     /tmp/ccOWj8hl.s:943    .text.copy_switch_code:0000000000000064 .L33
     /tmp/ccOWj8hl.s:938    .text.copy_switch_code:0000000000000058 .L31
     /tmp/ccOWj8hl.s:923    .text.copy_switch_code:0000000000000038 .L32
     /tmp/ccOWj8hl.s:68620  .debug_abbrev:0000000000000000 .Ldebug_abbrev0
     /tmp/ccOWj8hl.s:95933  .debug_str:0000000000023328 .LASF9310
     /tmp/ccOWj8hl.s:89197  .debug_str:0000000000007ca3 .LASF9311
     /tmp/ccOWj8hl.s:105863  .debug_str:000000000004be8e .LASF9312
     /tmp/ccOWj8hl.s:69464  .debug_ranges:0000000000000000 .Ldebug_ranges0
     /tmp/ccOWj8hl.s:87359  .debug_line:0000000000000000 .Ldebug_line0
     /tmp/ccOWj8hl.s:69492  .debug_macro:0000000000000000 .Ldebug_macro0
     /tmp/ccOWj8hl.s:104385  .debug_str:00000000000457ed .LASF5628
     /tmp/ccOWj8hl.s:93239  .debug_str:0000000000017f6c .LASF5629
     /tmp/ccOWj8hl.s:105817  .debug_str:000000000004bac5 .LASF5630
     /tmp/ccOWj8hl.s:99095  .debug_str:000000000002fecf .LASF5631
     /tmp/ccOWj8hl.s:103955  .debug_str:0000000000043c1b .LASF5632
     /tmp/ccOWj8hl.s:88435  .debug_str:0000000000004a73 .LASF5636
     /tmp/ccOWj8hl.s:91985  .debug_str:0000000000012fa8 .LASF5633
     /tmp/ccOWj8hl.s:102229  .debug_str:000000000003c9ee .LASF5634
     /tmp/ccOWj8hl.s:98433  .debug_str:000000000002d33e .LASF5635
     /tmp/ccOWj8hl.s:95667  .debug_str:0000000000022219 .LASF5637
     /tmp/ccOWj8hl.s:88093  .debug_str:0000000000003292 .LASF5638
     /tmp/ccOWj8hl.s:91381  .debug_str:00000000000107a0 .LASF5639
     /tmp/ccOWj8hl.s:103711  .debug_str:0000000000042c03 .LASF5640
     /tmp/ccOWj8hl.s:88745  .debug_str:0000000000005f23 .LASF9313
     /tmp/ccOWj8hl.s:101181  .debug_str:0000000000038367 .LASF5641
     /tmp/ccOWj8hl.s:101183  .debug_str:000000000003836d .LASF5642
     /tmp/ccOWj8hl.s:92935  .debug_str:0000000000016cae .LASF5643
     /tmp/ccOWj8hl.s:89227  .debug_str:0000000000007efa .LASF5644
     /tmp/ccOWj8hl.s:98913  .debug_str:000000000002f37d .LASF5645
     /tmp/ccOWj8hl.s:93953  .debug_str:000000000001ada7 .LASF5646
     /tmp/ccOWj8hl.s:98305  .debug_str:000000000002ca94 .LASF5647
     /tmp/ccOWj8hl.s:103219  .debug_str:0000000000040d07 .LASF5648
     /tmp/ccOWj8hl.s:103431  .debug_str:0000000000041ac1 .LASF5649
     /tmp/ccOWj8hl.s:89291  .debug_str:000000000000833f .LASF5650
     /tmp/ccOWj8hl.s:88315  .debug_str:0000000000004235 .LASF5651
     /tmp/ccOWj8hl.s:100053  .debug_str:0000000000034075 .LASF5652
     /tmp/ccOWj8hl.s:100055  .debug_str:0000000000034086 .LASF5653
     /tmp/ccOWj8hl.s:100057  .debug_str:0000000000034097 .LASF5654
     /tmp/ccOWj8hl.s:100059  .debug_str:00000000000340a8 .LASF5655
     /tmp/ccOWj8hl.s:100061  .debug_str:00000000000340b9 .LASF5656
     /tmp/ccOWj8hl.s:105749  .debug_str:000000000004b72d .LASF5657
     /tmp/ccOWj8hl.s:105751  .debug_str:000000000004b73d .LASF5658
     /tmp/ccOWj8hl.s:105753  .debug_str:000000000004b74d .LASF5659
     /tmp/ccOWj8hl.s:94547  .debug_str:000000000001d53a .LASF5660
     /tmp/ccOWj8hl.s:100495  .debug_str:0000000000035bf1 .LASF5661
     /tmp/ccOWj8hl.s:94333  .debug_str:000000000001c5dc .LASF5662
     /tmp/ccOWj8hl.s:100063  .debug_str:00000000000340ca .LASF5663
     /tmp/ccOWj8hl.s:95309  .debug_str:0000000000020a0b .LASF5664
     /tmp/ccOWj8hl.s:104607  .debug_str:00000000000466e8 .LASF5665
     /tmp/ccOWj8hl.s:95321  .debug_str:0000000000020a6b .LASF5666
     /tmp/ccOWj8hl.s:93495  .debug_str:000000000001910d .LASF5667
     /tmp/ccOWj8hl.s:93497  .debug_str:000000000001911f .LASF5668
     /tmp/ccOWj8hl.s:101829  .debug_str:000000000003af71 .LASF5669
     /tmp/ccOWj8hl.s:101833  .debug_str:000000000003afa4 .LASF5670
     /tmp/ccOWj8hl.s:93503  .debug_str:0000000000019164 .LASF5671
     /tmp/ccOWj8hl.s:101835  .debug_str:000000000003afb6 .LASF5672
     /tmp/ccOWj8hl.s:96497  .debug_str:00000000000254cc .LASF5673
     /tmp/ccOWj8hl.s:102463  .debug_str:000000000003d844 .LASF5674
     /tmp/ccOWj8hl.s:103641  .debug_str:00000000000427af .LASF5675
     /tmp/ccOWj8hl.s:101765  .debug_str:000000000003ab25 .LASF5676
     /tmp/ccOWj8hl.s:87881  .debug_str:000000000000238d .LASF5677
     /tmp/ccOWj8hl.s:88245  .debug_str:0000000000003cef .LASF5678
     /tmp/ccOWj8hl.s:88673  .debug_str:0000000000005adf .LASF5679
     /tmp/ccOWj8hl.s:104105  .debug_str:00000000000445ab .LASF5680
     /tmp/ccOWj8hl.s:88247  .debug_str:0000000000003d01 .LASF5681
     /tmp/ccOWj8hl.s:99899  .debug_str:00000000000335d2 .LASF5682
     /tmp/ccOWj8hl.s:87883  .debug_str:0000000000002397 .LASF5683
     /tmp/ccOWj8hl.s:90541  .debug_str:000000000000d759 .LASF5684
     /tmp/ccOWj8hl.s:96747  .debug_str:0000000000026545 .LASF5685
     /tmp/ccOWj8hl.s:89193  .debug_str:0000000000007c6b .LASF5686
     /tmp/ccOWj8hl.s:87603  .debug_str:000000000000107b .LASF5687
     /tmp/ccOWj8hl.s:93017  .debug_str:00000000000171fc .LASF5688
     /tmp/ccOWj8hl.s:97781  .debug_str:000000000002a8b5 .LASF5689
     /tmp/ccOWj8hl.s:95597  .debug_str:0000000000021d54 .LASF5690
     /tmp/ccOWj8hl.s:91313  .debug_str:000000000001034b .LASF5691
     /tmp/ccOWj8hl.s:91435  .debug_str:0000000000010a3e .LASF5692
     /tmp/ccOWj8hl.s:93511  .debug_str:000000000001920b .LASF5693
     /tmp/ccOWj8hl.s:93571  .debug_str:0000000000019627 .LASF5694
     /tmp/ccOWj8hl.s:93573  .debug_str:0000000000019639 .LASF5695
     /tmp/ccOWj8hl.s:93575  .debug_str:000000000001964b .LASF5696
     /tmp/ccOWj8hl.s:93577  .debug_str:000000000001965d .LASF5697
     /tmp/ccOWj8hl.s:93579  .debug_str:000000000001966f .LASF5698
     /tmp/ccOWj8hl.s:93581  .debug_str:0000000000019681 .LASF5699
     /tmp/ccOWj8hl.s:93583  .debug_str:0000000000019693 .LASF5700
     /tmp/ccOWj8hl.s:90355  .debug_str:000000000000cbb8 .LASF5701
     /tmp/ccOWj8hl.s:98681  .debug_str:000000000002e426 .LASF5702
     /tmp/ccOWj8hl.s:102747  .debug_str:000000000003ecde .LASF5703
     /tmp/ccOWj8hl.s:90741  .debug_str:000000000000e293 .LASF5704
     /tmp/ccOWj8hl.s:93181  .debug_str:0000000000017c15 .LASF5705
     /tmp/ccOWj8hl.s:104775  .debug_str:000000000004719a .LASF5706
     /tmp/ccOWj8hl.s:92477  .debug_str:0000000000014eab .LASF5707
     /tmp/ccOWj8hl.s:99833  .debug_str:0000000000033171 .LASF5708
     /tmp/ccOWj8hl.s:87769  .debug_str:0000000000001bf9 .LASF5709
     /tmp/ccOWj8hl.s:87771  .debug_str:0000000000001c07 .LASF5710
     /tmp/ccOWj8hl.s:93435  .debug_str:0000000000018ce9 .LASF5711
     /tmp/ccOWj8hl.s:96057  .debug_str:0000000000023b5a .LASF5712
     /tmp/ccOWj8hl.s:96059  .debug_str:0000000000023b68 .LASF5713
     /tmp/ccOWj8hl.s:88533  .debug_str:00000000000050ad .LASF5714
     /tmp/ccOWj8hl.s:93585  .debug_str:00000000000196a5 .LASF5715
     /tmp/ccOWj8hl.s:93587  .debug_str:00000000000196b7 .LASF5716
     /tmp/ccOWj8hl.s:93589  .debug_str:00000000000196c9 .LASF5717
     /tmp/ccOWj8hl.s:93657  .debug_str:0000000000019c58 .LASF5718
     /tmp/ccOWj8hl.s:93659  .debug_str:0000000000019c6a .LASF5719
     /tmp/ccOWj8hl.s:93661  .debug_str:0000000000019c7c .LASF5720
     /tmp/ccOWj8hl.s:89597  .debug_str:00000000000097ee .LASF5721
     /tmp/ccOWj8hl.s:93831  .debug_str:000000000001a626 .LASF5722
     /tmp/ccOWj8hl.s:94459  .debug_str:000000000001cef9 .LASF5723
     /tmp/ccOWj8hl.s:88025  .debug_str:0000000000002e81 .LASF5724
     /tmp/ccOWj8hl.s:93857  .debug_str:000000000001a73d .LASF5725
     /tmp/ccOWj8hl.s:96733  .debug_str:0000000000026455 .LASF5726
     /tmp/ccOWj8hl.s:97147  .debug_str:0000000000027f9e .LASF5727
     /tmp/ccOWj8hl.s:101937  .debug_str:000000000003b76a .LASF5728
     /tmp/ccOWj8hl.s:93663  .debug_str:0000000000019c8e .LASF5729
     /tmp/ccOWj8hl.s:93665  .debug_str:0000000000019ca0 .LASF5730
     /tmp/ccOWj8hl.s:90611  .debug_str:000000000000db6c .LASF5731
     /tmp/ccOWj8hl.s:95031  .debug_str:000000000001f783 .LASF5732
     /tmp/ccOWj8hl.s:104197  .debug_str:0000000000044bd2 .LASF5733
     /tmp/ccOWj8hl.s:99101  .debug_str:000000000002ff28 .LASF5734
     /tmp/ccOWj8hl.s:93667  .debug_str:0000000000019cb2 .LASF5735
     /tmp/ccOWj8hl.s:93669  .debug_str:0000000000019cc4 .LASF5736
     /tmp/ccOWj8hl.s:93671  .debug_str:0000000000019cd6 .LASF5737
     /tmp/ccOWj8hl.s:93673  .debug_str:0000000000019ce8 .LASF5738
     /tmp/ccOWj8hl.s:93675  .debug_str:0000000000019cfa .LASF5739
     /tmp/ccOWj8hl.s:93747  .debug_str:000000000001a156 .LASF5740
     /tmp/ccOWj8hl.s:93749  .debug_str:000000000001a168 .LASF5741
     /tmp/ccOWj8hl.s:102241  .debug_str:000000000003cad8 .LASF5742
     /tmp/ccOWj8hl.s:102245  .debug_str:000000000003cb0f .LASF5743
     /tmp/ccOWj8hl.s:93755  .debug_str:000000000001a190 .LASF5744
     /tmp/ccOWj8hl.s:93757  .debug_str:000000000001a1a2 .LASF5745
     /tmp/ccOWj8hl.s:93759  .debug_str:000000000001a1b4 .LASF5746
     /tmp/ccOWj8hl.s:93761  .debug_str:000000000001a1c6 .LASF5747
     /tmp/ccOWj8hl.s:93763  .debug_str:000000000001a1d8 .LASF5748
     /tmp/ccOWj8hl.s:92145  .debug_str:000000000001395c .LASF5749
     /tmp/ccOWj8hl.s:93837  .debug_str:000000000001a678 .LASF5750
     /tmp/ccOWj8hl.s:102387  .debug_str:000000000003d3bd .LASF5751
     /tmp/ccOWj8hl.s:93841  .debug_str:000000000001a6a3 .LASF5752
     /tmp/ccOWj8hl.s:92361  .debug_str:0000000000014695 .LASF5753
     /tmp/ccOWj8hl.s:93845  .debug_str:000000000001a6d1 .LASF5754
     /tmp/ccOWj8hl.s:93847  .debug_str:000000000001a6e3 .LASF5755
     /tmp/ccOWj8hl.s:93849  .debug_str:000000000001a6f5 .LASF5756
     /tmp/ccOWj8hl.s:93851  .debug_str:000000000001a707 .LASF5757
     /tmp/ccOWj8hl.s:93853  .debug_str:000000000001a719 .LASF5758
     /tmp/ccOWj8hl.s:93855  .debug_str:000000000001a72b .LASF5759
     /tmp/ccOWj8hl.s:93917  .debug_str:000000000001abba .LASF5760
     /tmp/ccOWj8hl.s:93919  .debug_str:000000000001abcc .LASF5761
     /tmp/ccOWj8hl.s:93921  .debug_str:000000000001abde .LASF5762
     /tmp/ccOWj8hl.s:102549  .debug_str:000000000003dec9 .LASF5763
     /tmp/ccOWj8hl.s:93925  .debug_str:000000000001ac03 .LASF5764
     /tmp/ccOWj8hl.s:93927  .debug_str:000000000001ac15 .LASF5765
     /tmp/ccOWj8hl.s:93929  .debug_str:000000000001ac27 .LASF5766
     /tmp/ccOWj8hl.s:102557  .debug_str:000000000003df55 .LASF5767
     /tmp/ccOWj8hl.s:93933  .debug_str:000000000001ac43 .LASF5768
     /tmp/ccOWj8hl.s:99171  .debug_str:00000000000304e6 .LASF5769
     /tmp/ccOWj8hl.s:105787  .debug_str:000000000004b8fc .LASF5770
     /tmp/ccOWj8hl.s:93931  .debug_str:000000000001ac39 .LASF5771
     /tmp/ccOWj8hl.s:100689  .debug_str:0000000000036713 .LASF5772
     /tmp/ccOWj8hl.s:88615  .debug_str:0000000000005713 .LASF5773
     /tmp/ccOWj8hl.s:95477  .debug_str:000000000002154c .LASF5774
     /tmp/ccOWj8hl.s:102121  .debug_str:000000000003c2a0 .LASF5775
     /tmp/ccOWj8hl.s:93935  .debug_str:000000000001ac55 .LASF5776
     /tmp/ccOWj8hl.s:94005  .debug_str:000000000001b112 .LASF5777
     /tmp/ccOWj8hl.s:94007  .debug_str:000000000001b124 .LASF5778
     /tmp/ccOWj8hl.s:94009  .debug_str:000000000001b136 .LASF5779
     /tmp/ccOWj8hl.s:94011  .debug_str:000000000001b148 .LASF5780
     /tmp/ccOWj8hl.s:94735  .debug_str:000000000001e272 .LASF5781
     /tmp/ccOWj8hl.s:104831  .debug_str:000000000004756d .LASF5782
     /tmp/ccOWj8hl.s:103555  .debug_str:0000000000042256 .LASF5783
     /tmp/ccOWj8hl.s:89443  .debug_str:0000000000008dd6 .LASF5784
     /tmp/ccOWj8hl.s:91323  .debug_str:00000000000103c3 .LASF5785
     /tmp/ccOWj8hl.s:93033  .debug_str:00000000000172b3 .LASF5786
     /tmp/ccOWj8hl.s:97437  .debug_str:000000000002926d .LASF5787
     /tmp/ccOWj8hl.s:95839  .debug_str:0000000000022dee .LASF5788
     /tmp/ccOWj8hl.s:92869  .debug_str:0000000000016802 .LASF5789
     /tmp/ccOWj8hl.s:90299  .debug_str:000000000000c83f .LASF5790
     /tmp/ccOWj8hl.s:88957  .debug_str:0000000000006de1 .LASF5791
     /tmp/ccOWj8hl.s:94587  .debug_str:000000000001d7b3 .LASF5792
     /tmp/ccOWj8hl.s:95605  .debug_str:0000000000021da0 .LASF5793
     /tmp/ccOWj8hl.s:97315  .debug_str:0000000000028b3b .LASF5794
     /tmp/ccOWj8hl.s:104949  .debug_str:0000000000047e98 .LASF5795
     /tmp/ccOWj8hl.s:97573  .debug_str:0000000000029b7b .LASF5796
     /tmp/ccOWj8hl.s:89957  .debug_str:000000000000b0ed .LASF5797
     /tmp/ccOWj8hl.s:101411  .debug_str:000000000003924d .LASF5798
     /tmp/ccOWj8hl.s:93997  .debug_str:000000000001b066 .LASF5799
     /tmp/ccOWj8hl.s:102599  .debug_str:000000000003e258 .LASF5800
     /tmp/ccOWj8hl.s:91841  .debug_str:00000000000126cc .LASF5801
     /tmp/ccOWj8hl.s:94013  .debug_str:000000000001b15a .LASF5802
     /tmp/ccOWj8hl.s:102705  .debug_str:000000000003ea7a .LASF5803
     /tmp/ccOWj8hl.s:94017  .debug_str:000000000001b19c .LASF5804
     /tmp/ccOWj8hl.s:94019  .debug_str:000000000001b1ae .LASF5805
     /tmp/ccOWj8hl.s:94021  .debug_str:000000000001b1c0 .LASF5806
     /tmp/ccOWj8hl.s:94023  .debug_str:000000000001b1d2 .LASF5807
     /tmp/ccOWj8hl.s:94087  .debug_str:000000000001b634 .LASF5808
     /tmp/ccOWj8hl.s:94089  .debug_str:000000000001b646 .LASF5809
     /tmp/ccOWj8hl.s:102841  .debug_str:000000000003f34f .LASF5810
     /tmp/ccOWj8hl.s:104785  .debug_str:0000000000047241 .LASF5811
     /tmp/ccOWj8hl.s:91271  .debug_str:000000000000ffda .LASF5812
     /tmp/ccOWj8hl.s:89753  .debug_str:000000000000a291 .LASF5813
     /tmp/ccOWj8hl.s:96129  .debug_str:0000000000023ef8 .LASF5814
     /tmp/ccOWj8hl.s:102795  .debug_str:000000000003f02d .LASF5815
     /tmp/ccOWj8hl.s:90793  .debug_str:000000000000e481 .LASF5816
     /tmp/ccOWj8hl.s:97727  .debug_str:000000000002a501 .LASF5817
     /tmp/ccOWj8hl.s:104315  .debug_str:000000000004536a .LASF5818
     /tmp/ccOWj8hl.s:94093  .debug_str:000000000001b674 .LASF5819
     /tmp/ccOWj8hl.s:94095  .debug_str:000000000001b686 .LASF5820
     /tmp/ccOWj8hl.s:92747  .debug_str:0000000000015fa0 .LASF5821
     /tmp/ccOWj8hl.s:91707  .debug_str:0000000000011d27 .LASF5822
     /tmp/ccOWj8hl.s:92733  .debug_str:0000000000015ee8 .LASF5823
     /tmp/ccOWj8hl.s:89411  .debug_str:0000000000008b49 .LASF5824
     /tmp/ccOWj8hl.s:94525  .debug_str:000000000001d36d .LASF5825
     /tmp/ccOWj8hl.s:100643  .debug_str:0000000000036420 .LASF5826
     /tmp/ccOWj8hl.s:93173  .debug_str:0000000000017b86 .LASF5827
     /tmp/ccOWj8hl.s:104641  .debug_str:000000000004693d .LASF5828
     /tmp/ccOWj8hl.s:91811  .debug_str:0000000000012402 .LASF5829
     /tmp/ccOWj8hl.s:91171  .debug_str:000000000000fa08 .LASF5830
     /tmp/ccOWj8hl.s:97511  .debug_str:000000000002968b .LASF5831
     /tmp/ccOWj8hl.s:94839  .debug_str:000000000001e949 .LASF5832
     /tmp/ccOWj8hl.s:95407  .debug_str:000000000002100a .LASF5833
     /tmp/ccOWj8hl.s:89381  .debug_str:0000000000008961 .LASF5834
     /tmp/ccOWj8hl.s:88189  .debug_str:000000000000390e .LASF5835
     /tmp/ccOWj8hl.s:98985  .debug_str:000000000002f815 .LASF5836
     /tmp/ccOWj8hl.s:97777  .debug_str:000000000002a844 .LASF5837
     /tmp/ccOWj8hl.s:88225  .debug_str:0000000000003b5a .LASF5838
     /tmp/ccOWj8hl.s:105295  .debug_str:00000000000496cb .LASF5839
     /tmp/ccOWj8hl.s:102073  .debug_str:000000000003c082 .LASF5840
     /tmp/ccOWj8hl.s:98445  .debug_str:000000000002d40a .LASF5841
     /tmp/ccOWj8hl.s:87463  .debug_str:0000000000000700 .LASF5842
     /tmp/ccOWj8hl.s:99191  .debug_str:00000000000305fe .LASF5843
     /tmp/ccOWj8hl.s:103619  .debug_str:000000000004264a .LASF5844
     /tmp/ccOWj8hl.s:93133  .debug_str:00000000000179ae .LASF5845
     /tmp/ccOWj8hl.s:99239  .debug_str:0000000000030952 .LASF5846
     /tmp/ccOWj8hl.s:99181  .debug_str:0000000000030586 .LASF5847
     /tmp/ccOWj8hl.s:95211  .debug_str:000000000002038c .LASF5848
     /tmp/ccOWj8hl.s:98987  .debug_str:000000000002f82c .LASF5849
     /tmp/ccOWj8hl.s:99647  .debug_str:0000000000032471 .LASF5850
     /tmp/ccOWj8hl.s:99861  .debug_str:00000000000333a8 .LASF5851
     /tmp/ccOWj8hl.s:99207  .debug_str:000000000003070e .LASF5852
     /tmp/ccOWj8hl.s:105143  .debug_str:0000000000048bcf .LASF5853
     /tmp/ccOWj8hl.s:101261  .debug_str:000000000003885c .LASF5854
     /tmp/ccOWj8hl.s:92609  .debug_str:000000000001566d .LASF5855
     /tmp/ccOWj8hl.s:95187  .debug_str:0000000000020227 .LASF5856
     /tmp/ccOWj8hl.s:88369  .debug_str:0000000000004572 .LASF5857
     /tmp/ccOWj8hl.s:98167  .debug_str:000000000002c0ee .LASF5858
     /tmp/ccOWj8hl.s:99901  .debug_str:00000000000335da .LASF5859
     /tmp/ccOWj8hl.s:97801  .debug_str:000000000002aa4c .LASF5860
     /tmp/ccOWj8hl.s:98459  .debug_str:000000000002d56c .LASF5861
     /tmp/ccOWj8hl.s:99129  .debug_str:0000000000030133 .LASF5862
     /tmp/ccOWj8hl.s:98189  .debug_str:000000000002c27b .LASF5863
     /tmp/ccOWj8hl.s:104103  .debug_str:0000000000044590 .LASF5864
     /tmp/ccOWj8hl.s:89153  .debug_str:00000000000079b6 .LASF5865
     /tmp/ccOWj8hl.s:91529  .debug_str:00000000000110e5 .LASF5866
     /tmp/ccOWj8hl.s:94091  .debug_str:000000000001b658 .LASF5867
     /tmp/ccOWj8hl.s:87501  .debug_str:000000000000097e .LASF5868
     /tmp/ccOWj8hl.s:101313  .debug_str:0000000000038cb3 .LASF5869
     /tmp/ccOWj8hl.s:102623  .debug_str:000000000003e3c7 .LASF5870
     /tmp/ccOWj8hl.s:104373  .debug_str:000000000004570f .LASF5871
     /tmp/ccOWj8hl.s:97169  .debug_str:0000000000028129 .LASF5872
     /tmp/ccOWj8hl.s:99225  .debug_str:000000000003087d .LASF5873
     /tmp/ccOWj8hl.s:87597  .debug_str:0000000000001022 .LASF5874
     /tmp/ccOWj8hl.s:89689  .debug_str:0000000000009dcc .LASF5875
     /tmp/ccOWj8hl.s:92415  .debug_str:0000000000014a0b .LASF5876
     /tmp/ccOWj8hl.s:87689  .debug_str:00000000000015e6 .LASF5877
     /tmp/ccOWj8hl.s:100593  .debug_str:00000000000361a4 .LASF5878
     /tmp/ccOWj8hl.s:98479  .debug_str:000000000002d6ec .LASF5879
     /tmp/ccOWj8hl.s:91887  .debug_str:00000000000129f1 .LASF5880
     /tmp/ccOWj8hl.s:104663  .debug_str:0000000000046aaa .LASF5881
     /tmp/ccOWj8hl.s:87619  .debug_str:000000000000117a .LASF5882
     /tmp/ccOWj8hl.s:95555  .debug_str:0000000000021a5c .LASF5883
     /tmp/ccOWj8hl.s:92979  .debug_str:0000000000016f73 .LASF5884
     /tmp/ccOWj8hl.s:103823  .debug_str:00000000000432f2 .LASF5885
     /tmp/ccOWj8hl.s:94283  .debug_str:000000000001c25d .LASF5886
     /tmp/ccOWj8hl.s:98191  .debug_str:000000000002c2a2 .LASF5887
     /tmp/ccOWj8hl.s:105509  .debug_str:000000000004a706 .LASF5888
     /tmp/ccOWj8hl.s:103425  .debug_str:0000000000041a75 .LASF5889
     /tmp/ccOWj8hl.s:91487  .debug_str:0000000000010dec .LASF5890
     /tmp/ccOWj8hl.s:102345  .debug_str:000000000003d142 .LASF5891
     /tmp/ccOWj8hl.s:92801  .debug_str:00000000000162f5 .LASF5892
     /tmp/ccOWj8hl.s:88459  .debug_str:0000000000004bc6 .LASF5893
     /tmp/ccOWj8hl.s:87535  .debug_str:0000000000000b7c .LASF5894
     /tmp/ccOWj8hl.s:93875  .debug_str:000000000001a874 .LASF5895
     /tmp/ccOWj8hl.s:104129  .debug_str:0000000000044746 .LASF5896
     /tmp/ccOWj8hl.s:105603  .debug_str:000000000004ad78 .LASF5897
     /tmp/ccOWj8hl.s:100637  .debug_str:0000000000036392 .LASF5898
     /tmp/ccOWj8hl.s:90333  .debug_str:000000000000ca50 .LASF5899
     /tmp/ccOWj8hl.s:90507  .debug_str:000000000000d4d5 .LASF5900
     /tmp/ccOWj8hl.s:105405  .debug_str:0000000000049e47 .LASF5901
     /tmp/ccOWj8hl.s:103143  .debug_str:00000000000407d7 .LASF5902
     /tmp/ccOWj8hl.s:104833  .debug_str:0000000000047587 .LASF5903
     /tmp/ccOWj8hl.s:88073  .debug_str:000000000000315e .LASF5904
     /tmp/ccOWj8hl.s:105811  .debug_str:000000000004ba86 .LASF5905
     /tmp/ccOWj8hl.s:92719  .debug_str:0000000000015df4 .LASF5906
     /tmp/ccOWj8hl.s:101569  .debug_str:0000000000039de3 .LASF5907
     /tmp/ccOWj8hl.s:89353  .debug_str:0000000000008786 .LASF5908
     /tmp/ccOWj8hl.s:88591  .debug_str:0000000000005531 .LASF5909
     /tmp/ccOWj8hl.s:88439  .debug_str:0000000000004a8b .LASF5910
     /tmp/ccOWj8hl.s:100423  .debug_str:0000000000035799 .LASF5911
     /tmp/ccOWj8hl.s:100855  .debug_str:0000000000036f59 .LASF5912
     /tmp/ccOWj8hl.s:88335  .debug_str:0000000000004310 .LASF5913
     /tmp/ccOWj8hl.s:96881  .debug_str:0000000000026dfc .LASF5914
     /tmp/ccOWj8hl.s:104965  .debug_str:0000000000047fc3 .LASF5915
     /tmp/ccOWj8hl.s:97413  .debug_str:0000000000029097 .LASF5916
     /tmp/ccOWj8hl.s:92567  .debug_str:00000000000153c8 .LASF5917
     /tmp/ccOWj8hl.s:90809  .debug_str:000000000000e58b .LASF5918
     /tmp/ccOWj8hl.s:88627  .debug_str:00000000000057f9 .LASF5919
     /tmp/ccOWj8hl.s:102661  .debug_str:000000000003e703 .LASF5920
     /tmp/ccOWj8hl.s:101573  .debug_str:0000000000039e44 .LASF5921
     /tmp/ccOWj8hl.s:91263  .debug_str:000000000000ff68 .LASF5922
     /tmp/ccOWj8hl.s:90561  .debug_str:000000000000d85a .LASF5923
     /tmp/ccOWj8hl.s:95131  .debug_str:000000000001fe09 .LASF5924
     /tmp/ccOWj8hl.s:87851  .debug_str:00000000000021a9 .LASF5925
     /tmp/ccOWj8hl.s:88671  .debug_str:0000000000005aab .LASF5926
     /tmp/ccOWj8hl.s:93097  .debug_str:0000000000017729 .LASF5927
     /tmp/ccOWj8hl.s:99331  .debug_str:0000000000030fab .LASF5928
     /tmp/ccOWj8hl.s:89533  .debug_str:0000000000009409 .LASF5929
     /tmp/ccOWj8hl.s:97283  .debug_str:00000000000288fa .LASF5930
     /tmp/ccOWj8hl.s:91287  .debug_str:000000000001011e .LASF5931
     /tmp/ccOWj8hl.s:101653  .debug_str:000000000003a384 .LASF5932
     /tmp/ccOWj8hl.s:105425  .debug_str:000000000004a03f .LASF5933
     /tmp/ccOWj8hl.s:102569  .debug_str:000000000003dffd .LASF5934
     /tmp/ccOWj8hl.s:99633  .debug_str:00000000000323b1 .LASF5935
     /tmp/ccOWj8hl.s:96017  .debug_str:0000000000023904 .LASF5936
     /tmp/ccOWj8hl.s:99635  .debug_str:00000000000323bd .LASF5937
     /tmp/ccOWj8hl.s:100997  .debug_str:00000000000376f4 .LASF5938
     /tmp/ccOWj8hl.s:97539  .debug_str:000000000002992f .LASF5939
     /tmp/ccOWj8hl.s:94623  .debug_str:000000000001d9c4 .LASF5940
     /tmp/ccOWj8hl.s:94725  .debug_str:000000000001e188 .LASF5941
     /tmp/ccOWj8hl.s:98891  .debug_str:000000000002f219 .LASF5942
     /tmp/ccOWj8hl.s:89479  .debug_str:0000000000008fde .LASF5943
     /tmp/ccOWj8hl.s:94523  .debug_str:000000000001d365 .LASF5944
     /tmp/ccOWj8hl.s:89657  .debug_str:0000000000009bf7 .LASF5945
     /tmp/ccOWj8hl.s:94385  .debug_str:000000000001c9c4 .LASF5946
     /tmp/ccOWj8hl.s:89451  .debug_str:0000000000008e3d .LASF5947
     /tmp/ccOWj8hl.s:97415  .debug_str:00000000000290b3 .LASF5948
     /tmp/ccOWj8hl.s:94227  .debug_str:000000000001bed0 .LASF5949
     /tmp/ccOWj8hl.s:104325  .debug_str:0000000000045415 .LASF5950
     /tmp/ccOWj8hl.s:88863  .debug_str:0000000000006728 .LASF5951
     /tmp/ccOWj8hl.s:100189  .debug_str:00000000000348b8 .LASF5952
     /tmp/ccOWj8hl.s:105027  .debug_str:00000000000483ec .LASF5953
     /tmp/ccOWj8hl.s:105323  .debug_str:0000000000049863 .LASF5954
     /tmp/ccOWj8hl.s:88313  .debug_str:0000000000004220 .LASF5955
     /tmp/ccOWj8hl.s:105337  .debug_str:0000000000049923 .LASF5956
     /tmp/ccOWj8hl.s:90065  .debug_str:000000000000b8c6 .LASF5957
     /tmp/ccOWj8hl.s:95645  .debug_str:0000000000022094 .LASF5958
     /tmp/ccOWj8hl.s:90551  .debug_str:000000000000d7ed .LASF5959
     /tmp/ccOWj8hl.s:95761  .debug_str:0000000000022813 .LASF5960
     /tmp/ccOWj8hl.s:98013  .debug_str:000000000002b6b3 .LASF5961
     /tmp/ccOWj8hl.s:105641  .debug_str:000000000004b02a .LASF5962
     /tmp/ccOWj8hl.s:95701  .debug_str:0000000000022445 .LASF5963
     /tmp/ccOWj8hl.s:98045  .debug_str:000000000002b8ae .LASF5964
     /tmp/ccOWj8hl.s:93269  .debug_str:00000000000181ac .LASF5965
     /tmp/ccOWj8hl.s:93271  .debug_str:00000000000181bb .LASF5966
     /tmp/ccOWj8hl.s:93451  .debug_str:0000000000018e2a .LASF5967
     /tmp/ccOWj8hl.s:92583  .debug_str:0000000000015492 .LASF5968
     /tmp/ccOWj8hl.s:99525  .debug_str:0000000000031cf4 .LASF5969
     /tmp/ccOWj8hl.s:94595  .debug_str:000000000001d84b .LASF5970
     /tmp/ccOWj8hl.s:90883  .debug_str:000000000000e98a .LASF5971
     /tmp/ccOWj8hl.s:90885  .debug_str:000000000000e999 .LASF5972
     /tmp/ccOWj8hl.s:92927  .debug_str:0000000000016c3e .LASF5973
     /tmp/ccOWj8hl.s:96091  .debug_str:0000000000023cc0 .LASF5974
     /tmp/ccOWj8hl.s:102873  .debug_str:000000000003f579 .LASF5975
     /tmp/ccOWj8hl.s:102321  .debug_str:000000000003cfee .LASF5976
     /tmp/ccOWj8hl.s:94597  .debug_str:000000000001d855 .LASF5977
     /tmp/ccOWj8hl.s:89281  .debug_str:00000000000082b5 .LASF5978
     /tmp/ccOWj8hl.s:96199  .debug_str:00000000000241fe .LASF5979
     /tmp/ccOWj8hl.s:104281  .debug_str:0000000000045136 .LASF5980
     /tmp/ccOWj8hl.s:93769  .debug_str:000000000001a24d .LASF5981
     /tmp/ccOWj8hl.s:95877  .debug_str:0000000000023062 .LASF5982
     /tmp/ccOWj8hl.s:100913  .debug_str:0000000000037253 .LASF5983
     /tmp/ccOWj8hl.s:98309  .debug_str:000000000002cae5 .LASF5984
     /tmp/ccOWj8hl.s:104005  .debug_str:0000000000043ed9 .LASF5985
     /tmp/ccOWj8hl.s:88273  .debug_str:0000000000003f00 .LASF5986
     /tmp/ccOWj8hl.s:91197  .debug_str:000000000000fc26 .LASF5987
     /tmp/ccOWj8hl.s:101067  .debug_str:0000000000037b81 .LASF5988
     /tmp/ccOWj8hl.s:103857  .debug_str:0000000000043548 .LASF5989
     /tmp/ccOWj8hl.s:95785  .debug_str:00000000000229c3 .LASF5990
     /tmp/ccOWj8hl.s:102467  .debug_str:000000000003d880 .LASF5991
     /tmp/ccOWj8hl.s:103371  .debug_str:0000000000041665 .LASF5992
     /tmp/ccOWj8hl.s:94193  .debug_str:000000000001bc74 .LASF5993
     /tmp/ccOWj8hl.s:105681  .debug_str:000000000004b25f .LASF5994
     /tmp/ccOWj8hl.s:95227  .debug_str:00000000000204ee .LASF5995
     /tmp/ccOWj8hl.s:97885  .debug_str:000000000002afc2 .LASF5996
     /tmp/ccOWj8hl.s:89815  .debug_str:000000000000a6b8 .LASF5997
     /tmp/ccOWj8hl.s:88775  .debug_str:00000000000060d6 .LASF5998
     /tmp/ccOWj8hl.s:88651  .debug_str:0000000000005937 .LASF5999
     /tmp/ccOWj8hl.s:90323  .debug_str:000000000000c9d3 .LASF6000
     /tmp/ccOWj8hl.s:103377  .debug_str:00000000000416f2 .LASF6001
     /tmp/ccOWj8hl.s:99317  .debug_str:0000000000030ec7 .LASF6002
     /tmp/ccOWj8hl.s:103085  .debug_str:000000000004032a .LASF6003
     /tmp/ccOWj8hl.s:104659  .debug_str:0000000000046a68 .LASF6004
     /tmp/ccOWj8hl.s:97891  .debug_str:000000000002b010 .LASF6005
     /tmp/ccOWj8hl.s:103987  .debug_str:0000000000043db2 .LASF6006
     /tmp/ccOWj8hl.s:105311  .debug_str:000000000004979f .LASF6007
     /tmp/ccOWj8hl.s:100297  .debug_str:0000000000034fd7 .LASF6008
     /tmp/ccOWj8hl.s:97205  .debug_str:00000000000283af .LASF6009
     /tmp/ccOWj8hl.s:97217  .debug_str:0000000000028477 .LASF6010
     /tmp/ccOWj8hl.s:90393  .debug_str:000000000000ce58 .LASF6011
     /tmp/ccOWj8hl.s:103565  .debug_str:0000000000042306 .LASF6012
     /tmp/ccOWj8hl.s:103341  .debug_str:00000000000414c3 .LASF6013
     /tmp/ccOWj8hl.s:103567  .debug_str:0000000000042310 .LASF6014
     /tmp/ccOWj8hl.s:92013  .debug_str:0000000000013169 .LASF6015
     /tmp/ccOWj8hl.s:103573  .debug_str:0000000000042362 .LASF6016
     /tmp/ccOWj8hl.s:102809  .debug_str:000000000003f11a .LASF6017
     /tmp/ccOWj8hl.s:101843  .debug_str:000000000003b04c .LASF6018
     /tmp/ccOWj8hl.s:90143  .debug_str:000000000000bd72 .LASF6019
     /tmp/ccOWj8hl.s:98857  .debug_str:000000000002f00f .LASF6020
     /tmp/ccOWj8hl.s:103575  .debug_str:000000000004236c .LASF6021
     /tmp/ccOWj8hl.s:90555  .debug_str:000000000000d83c .LASF6022
     /tmp/ccOWj8hl.s:95291  .debug_str:000000000002093c .LASF6023
     /tmp/ccOWj8hl.s:90139  .debug_str:000000000000bd08 .LASF6024
     /tmp/ccOWj8hl.s:105771  .debug_str:000000000004b83d .LASF6025
     /tmp/ccOWj8hl.s:91905  .debug_str:0000000000012b04 .LASF6026
     /tmp/ccOWj8hl.s:90557  .debug_str:000000000000d846 .LASF6027
     /tmp/ccOWj8hl.s:87981  .debug_str:0000000000002abc .LASF6028
     /tmp/ccOWj8hl.s:90559  .debug_str:000000000000d850 .LASF6029
     /tmp/ccOWj8hl.s:92497  .debug_str:000000000001500b .LASF6030
     /tmp/ccOWj8hl.s:100201  .debug_str:000000000003497c .LASF6031
     /tmp/ccOWj8hl.s:90639  .debug_str:000000000000dd70 .LASF6032
     /tmp/ccOWj8hl.s:94807  .debug_str:000000000001e6de .LASF6033
     /tmp/ccOWj8hl.s:90641  .debug_str:000000000000dd7a .LASF6034
     /tmp/ccOWj8hl.s:87491  .debug_str:00000000000008ef .LASF6035
     /tmp/ccOWj8hl.s:90897  .debug_str:000000000000ea75 .LASF6036
     /tmp/ccOWj8hl.s:100831  .debug_str:0000000000036e15 .LASF6037
     /tmp/ccOWj8hl.s:89643  .debug_str:0000000000009b38 .LASF6038
     /tmp/ccOWj8hl.s:103719  .debug_str:0000000000042c84 .LASF6039
     /tmp/ccOWj8hl.s:102363  .debug_str:000000000003d272 .LASF6040
     /tmp/ccOWj8hl.s:90645  .debug_str:000000000000dd9d .LASF6041
     /tmp/ccOWj8hl.s:90227  .debug_str:000000000000c393 .LASF6042
     /tmp/ccOWj8hl.s:97935  .debug_str:000000000002b26b .LASF6043
     /tmp/ccOWj8hl.s:90647  .debug_str:000000000000dda7 .LASF6044
     /tmp/ccOWj8hl.s:89421  .debug_str:0000000000008c36 .LASF6045
     /tmp/ccOWj8hl.s:102375  .debug_str:000000000003d308 .LASF6046
     /tmp/ccOWj8hl.s:105731  .debug_str:000000000004b609 .LASF6047
     /tmp/ccOWj8hl.s:104863  .debug_str:0000000000047865 .LASF6048
     /tmp/ccOWj8hl.s:98795  .debug_str:000000000002ec40 .LASF6049
     /tmp/ccOWj8hl.s:89211  .debug_str:0000000000007dcf .LASF6050
     /tmp/ccOWj8hl.s:90649  .debug_str:000000000000ddb1 .LASF6051
     /tmp/ccOWj8hl.s:104757  .debug_str:00000000000470bd .LASF6052
     /tmp/ccOWj8hl.s:90651  .debug_str:000000000000ddbb .LASF6053
     /tmp/ccOWj8hl.s:99307  .debug_str:0000000000030e1b .LASF6054
     /tmp/ccOWj8hl.s:88215  .debug_str:0000000000003acd .LASF6055
     /tmp/ccOWj8hl.s:90653  .debug_str:000000000000ddc5 .LASF6056
     /tmp/ccOWj8hl.s:96947  .debug_str:0000000000027279 .LASF6057
     /tmp/ccOWj8hl.s:93433  .debug_str:0000000000018cc0 .LASF6058
     /tmp/ccOWj8hl.s:88869  .debug_str:0000000000006794 .LASF6059
     /tmp/ccOWj8hl.s:92485  .debug_str:0000000000014f76 .LASF6060
     /tmp/ccOWj8hl.s:103285  .debug_str:00000000000410f4 .LASF6061
     /tmp/ccOWj8hl.s:90655  .debug_str:000000000000ddcf .LASF6062
     /tmp/ccOWj8hl.s:97183  .debug_str:0000000000028234 .LASF6063
     /tmp/ccOWj8hl.s:92347  .debug_str:00000000000145da .LASF6064
     /tmp/ccOWj8hl.s:103687  .debug_str:0000000000042a56 .LASF6065
     /tmp/ccOWj8hl.s:92613  .debug_str:00000000000156d9 .LASF6066
     /tmp/ccOWj8hl.s:93729  .debug_str:000000000001a083 .LASF6067
     /tmp/ccOWj8hl.s:98249  .debug_str:000000000002c697 .LASF6068
     /tmp/ccOWj8hl.s:87559  .debug_str:0000000000000d35 .LASF6069
     /tmp/ccOWj8hl.s:96759  .debug_str:0000000000026607 .LASF6070
     /tmp/ccOWj8hl.s:102697  .debug_str:000000000003e9c8 .LASF6071
     /tmp/ccOWj8hl.s:96883  .debug_str:0000000000026e3f .LASF6072
     /tmp/ccOWj8hl.s:90827  .debug_str:000000000000e6f2 .LASF6073
     /tmp/ccOWj8hl.s:103677  .debug_str:0000000000042994 .LASF6074
     /tmp/ccOWj8hl.s:103935  .debug_str:0000000000043a92 .LASF6075
     /tmp/ccOWj8hl.s:90715  .debug_str:000000000000e130 .LASF6076
     /tmp/ccOWj8hl.s:89869  .debug_str:000000000000aa87 .LASF6077
     /tmp/ccOWj8hl.s:89233  .debug_str:0000000000007f30 .LASF6078
     /tmp/ccOWj8hl.s:91809  .debug_str:00000000000123fb .LASF6079
     /tmp/ccOWj8hl.s:91691  .debug_str:0000000000011c25 .LASF6080
     /tmp/ccOWj8hl.s:103381  .debug_str:0000000000041735 .LASF6081
     /tmp/ccOWj8hl.s:102047  .debug_str:000000000003be8a .LASF6082
     /tmp/ccOWj8hl.s:96979  .debug_str:00000000000274d6 .LASF6083
     /tmp/ccOWj8hl.s:89923  .debug_str:000000000000ae52 .LASF6084
     /tmp/ccOWj8hl.s:102731  .debug_str:000000000003ec10 .LASF6085
     /tmp/ccOWj8hl.s:94869  .debug_str:000000000001ebd4 .LASF6086
     /tmp/ccOWj8hl.s:90461  .debug_str:000000000000d29f .LASF6087
     /tmp/ccOWj8hl.s:105535  .debug_str:000000000004a884 .LASF6088
     /tmp/ccOWj8hl.s:91903  .debug_str:0000000000012ada .LASF6089
     /tmp/ccOWj8hl.s:90977  .debug_str:000000000000efa2 .LASF6090
     /tmp/ccOWj8hl.s:102171  .debug_str:000000000003c620 .LASF6091
     /tmp/ccOWj8hl.s:97677  .debug_str:000000000002a1f3 .LASF6092
     /tmp/ccOWj8hl.s:98145  .debug_str:000000000002bfb4 .LASF6093
     /tmp/ccOWj8hl.s:97815  .debug_str:000000000002ab0e .LASF6094
     /tmp/ccOWj8hl.s:96761  .debug_str:0000000000026621 .LASF6095
     /tmp/ccOWj8hl.s:98849  .debug_str:000000000002ef9d .LASF6096
     /tmp/ccOWj8hl.s:87455  .debug_str:0000000000000697 .LASF6097
     /tmp/ccOWj8hl.s:88109  .debug_str:0000000000003341 .LASF6098
     /tmp/ccOWj8hl.s:104799  .debug_str:000000000004737b .LASF6099
     /tmp/ccOWj8hl.s:90601  .debug_str:000000000000dae1 .LASF6100
     /tmp/ccOWj8hl.s:90465  .debug_str:000000000000d2d3 .LASF6101
     /tmp/ccOWj8hl.s:90467  .debug_str:000000000000d2dd .LASF6102
     /tmp/ccOWj8hl.s:93819  .debug_str:000000000001a573 .LASF6103
     /tmp/ccOWj8hl.s:103487  .debug_str:0000000000041e1b .LASF6104
     /tmp/ccOWj8hl.s:97625  .debug_str:0000000000029e3a .LASF6105
     /tmp/ccOWj8hl.s:99245  .debug_str:0000000000030a04 .LASF6106
     /tmp/ccOWj8hl.s:96701  .debug_str:000000000002625f .LASF6107
     /tmp/ccOWj8hl.s:89653  .debug_str:0000000000009bdb .LASF6108
     /tmp/ccOWj8hl.s:103671  .debug_str:000000000004293d .LASF6109
     /tmp/ccOWj8hl.s:94115  .debug_str:000000000001b7de .LASF6110
     /tmp/ccOWj8hl.s:90581  .debug_str:000000000000d9c0 .LASF6111
     /tmp/ccOWj8hl.s:100671  .debug_str:00000000000365dc .LASF6112
     /tmp/ccOWj8hl.s:97369  .debug_str:0000000000028dcf .LASF6113
     /tmp/ccOWj8hl.s:90043  .debug_str:000000000000b773 .LASF6114
     /tmp/ccOWj8hl.s:90791  .debug_str:000000000000e458 .LASF6115
     /tmp/ccOWj8hl.s:100843  .debug_str:0000000000036eb8 .LASF6116
     /tmp/ccOWj8hl.s:99053  .debug_str:000000000002fc1e .LASF6117
     /tmp/ccOWj8hl.s:95235  .debug_str:0000000000020586 .LASF6118
     /tmp/ccOWj8hl.s:94535  .debug_str:000000000001d450 .LASF6119
     /tmp/ccOWj8hl.s:89305  .debug_str:000000000000842f .LASF6120
     /tmp/ccOWj8hl.s:101487  .debug_str:000000000003980d .LASF6121
     /tmp/ccOWj8hl.s:94125  .debug_str:000000000001b853 .LASF6122
     /tmp/ccOWj8hl.s:89635  .debug_str:0000000000009aa1 .LASF6123
     /tmp/ccOWj8hl.s:103331  .debug_str:0000000000041449 .LASF6124
     /tmp/ccOWj8hl.s:104763  .debug_str:00000000000470e1 .LASF6125
     /tmp/ccOWj8hl.s:100881  .debug_str:0000000000037020 .LASF6126
     /tmp/ccOWj8hl.s:94641  .debug_str:000000000001daf2 .LASF6127
     /tmp/ccOWj8hl.s:88741  .debug_str:0000000000005ef9 .LASF6128
     /tmp/ccOWj8hl.s:99879  .debug_str:00000000000334a5 .LASF6129
     /tmp/ccOWj8hl.s:97937  .debug_str:000000000002b276 .LASF6130
     /tmp/ccOWj8hl.s:94857  .debug_str:000000000001eae5 .LASF6131
     /tmp/ccOWj8hl.s:87375  .debug_str:0000000000000105 .LASF6132
     /tmp/ccOWj8hl.s:92333  .debug_str:00000000000144a2 .LASF6133
     /tmp/ccOWj8hl.s:95685  .debug_str:0000000000022347 .LASF6134
     /tmp/ccOWj8hl.s:89219  .debug_str:0000000000007e49 .LASF6135
     /tmp/ccOWj8hl.s:103875  .debug_str:0000000000043602 .LASF6136
     /tmp/ccOWj8hl.s:88543  .debug_str:0000000000005163 .LASF6137
     /tmp/ccOWj8hl.s:102929  .debug_str:000000000003f973 .LASF6138
     /tmp/ccOWj8hl.s:96549  .debug_str:0000000000025810 .LASF6139
     /tmp/ccOWj8hl.s:102063  .debug_str:000000000003bfd9 .LASF6140
     /tmp/ccOWj8hl.s:94761  .debug_str:000000000001e43c .LASF6141
     /tmp/ccOWj8hl.s:89845  .debug_str:000000000000a89c .LASF6142
     /tmp/ccOWj8hl.s:99065  .debug_str:000000000002fcd2 .LASF6143
     /tmp/ccOWj8hl.s:92645  .debug_str:0000000000015882 .LASF6144
     /tmp/ccOWj8hl.s:105673  .debug_str:000000000004b200 .LASF6145
     /tmp/ccOWj8hl.s:100559  .debug_str:0000000000035f53 .LASF6146
     /tmp/ccOWj8hl.s:96465  .debug_str:0000000000025245 .LASF6147
     /tmp/ccOWj8hl.s:97565  .debug_str:0000000000029adc .LASF6148
     /tmp/ccOWj8hl.s:100171  .debug_str:00000000000347e9 .LASF6149
     /tmp/ccOWj8hl.s:100337  .debug_str:000000000003527a .LASF6150
     /tmp/ccOWj8hl.s:97591  .debug_str:0000000000029ca3 .LASF6151
     /tmp/ccOWj8hl.s:100187  .debug_str:00000000000348a9 .LASF6152
     /tmp/ccOWj8hl.s:88635  .debug_str:0000000000005852 .LASF6153
     /tmp/ccOWj8hl.s:96911  .debug_str:000000000002703b .LASF6154
     /tmp/ccOWj8hl.s:94713  .debug_str:000000000001e0b6 .LASF6155
     /tmp/ccOWj8hl.s:90723  .debug_str:000000000000e191 .LASF6156
     /tmp/ccOWj8hl.s:90071  .debug_str:000000000000b904 .LASF6157
     /tmp/ccOWj8hl.s:90103  .debug_str:000000000000badb .LASF6158
     /tmp/ccOWj8hl.s:97587  .debug_str:0000000000029c5c .LASF6159
     /tmp/ccOWj8hl.s:95525  .debug_str:00000000000218ae .LASF6160
     /tmp/ccOWj8hl.s:99237  .debug_str:000000000003093e .LASF6161
     /tmp/ccOWj8hl.s:93297  .debug_str:000000000001833a .LASF6162
     /tmp/ccOWj8hl.s:105257  .debug_str:0000000000049410 .LASF6163
     /tmp/ccOWj8hl.s:103667  .debug_str:00000000000428ed .LASF6164
     /tmp/ccOWj8hl.s:104191  .debug_str:0000000000044b7e .LASF6165
     /tmp/ccOWj8hl.s:93305  .debug_str:000000000001840e .LASF6166
     /tmp/ccOWj8hl.s:98585  .debug_str:000000000002ddbe .LASF6167
     /tmp/ccOWj8hl.s:89825  .debug_str:000000000000a76d .LASF6168
     /tmp/ccOWj8hl.s:97999  .debug_str:000000000002b5fc .LASF6169
     /tmp/ccOWj8hl.s:92189  .debug_str:0000000000013c36 .LASF6170
     /tmp/ccOWj8hl.s:92251  .debug_str:0000000000013f14 .LASF6171
     /tmp/ccOWj8hl.s:101815  .debug_str:000000000003ae9f .LASF6172
     /tmp/ccOWj8hl.s:97417  .debug_str:00000000000290c3 .LASF6173
     /tmp/ccOWj8hl.s:97231  .debug_str:0000000000028570 .LASF6174
     /tmp/ccOWj8hl.s:89271  .debug_str:00000000000081eb .LASF6175
     /tmp/ccOWj8hl.s:96055  .debug_str:0000000000023b45 .LASF6176
     /tmp/ccOWj8hl.s:90403  .debug_str:000000000000cefc .LASF6177
     /tmp/ccOWj8hl.s:95373  .debug_str:0000000000020e5b .LASF6178
     /tmp/ccOWj8hl.s:94749  .debug_str:000000000001e335 .LASF6179
     /tmp/ccOWj8hl.s:100979  .debug_str:00000000000375f4 .LASF6180
     /tmp/ccOWj8hl.s:100977  .debug_str:00000000000375e4 .LASF6181
     /tmp/ccOWj8hl.s:99273  .debug_str:0000000000030be7 .LASF6182
     /tmp/ccOWj8hl.s:89951  .debug_str:000000000000b090 .LASF6183
     /tmp/ccOWj8hl.s:103819  .debug_str:00000000000432cb .LASF6184
     /tmp/ccOWj8hl.s:89861  .debug_str:000000000000a9e9 .LASF6185
     /tmp/ccOWj8hl.s:95203  .debug_str:0000000000020316 .LASF6186
     /tmp/ccOWj8hl.s:93251  .debug_str:0000000000018056 .LASF6187
     /tmp/ccOWj8hl.s:95375  .debug_str:0000000000020e64 .LASF6188
     /tmp/ccOWj8hl.s:100223  .debug_str:0000000000034b0d .LASF6189
     /tmp/ccOWj8hl.s:104011  .debug_str:0000000000043f58 .LASF6190
     /tmp/ccOWj8hl.s:98463  .debug_str:000000000002d5b3 .LASF6191
     /tmp/ccOWj8hl.s:102253  .debug_str:000000000003cb5f .LASF6192
     /tmp/ccOWj8hl.s:96675  .debug_str:0000000000026061 .LASF6193
     /tmp/ccOWj8hl.s:105743  .debug_str:000000000004b6d8 .LASF6194
     /tmp/ccOWj8hl.s:95377  .debug_str:0000000000020e6d .LASF6195
     /tmp/ccOWj8hl.s:101597  .debug_str:0000000000039fe3 .LASF6196
     /tmp/ccOWj8hl.s:102255  .debug_str:000000000003cb6d .LASF6197
     /tmp/ccOWj8hl.s:99817  .debug_str:0000000000033079 .LASF6198
     /tmp/ccOWj8hl.s:104437  .debug_str:0000000000045bc9 .LASF6199
     /tmp/ccOWj8hl.s:101403  .debug_str:00000000000391d9 .LASF6200
     /tmp/ccOWj8hl.s:96829  .debug_str:0000000000026a28 .LASF6201
     /tmp/ccOWj8hl.s:96817  .debug_str:0000000000026963 .LASF6202
     /tmp/ccOWj8hl.s:104145  .debug_str:0000000000044892 .LASF6203
     /tmp/ccOWj8hl.s:96003  .debug_str:0000000000023802 .LASF6204
     /tmp/ccOWj8hl.s:90469  .debug_str:000000000000d2e7 .LASF6205
     /tmp/ccOWj8hl.s:95379  .debug_str:0000000000020e76 .LASF6206
     /tmp/ccOWj8hl.s:95665  .debug_str:00000000000221f6 .LASF6207
     /tmp/ccOWj8hl.s:95697  .debug_str:0000000000022418 .LASF6208
     /tmp/ccOWj8hl.s:90135  .debug_str:000000000000bcd7 .LASF6209
     /tmp/ccOWj8hl.s:103657  .debug_str:000000000004287d .LASF6210
     /tmp/ccOWj8hl.s:98677  .debug_str:000000000002e40f .LASF6211
     /tmp/ccOWj8hl.s:87933  .debug_str:0000000000002771 .LASF6212
     /tmp/ccOWj8hl.s:88841  .debug_str:00000000000065c9 .LASF6213
     /tmp/ccOWj8hl.s:88181  .debug_str:000000000000389f .LASF6214
     /tmp/ccOWj8hl.s:91127  .debug_str:000000000000f7f5 .LASF6215
     /tmp/ccOWj8hl.s:88729  .debug_str:0000000000005e20 .LASF6216
     /tmp/ccOWj8hl.s:97455  .debug_str:00000000000293e2 .LASF6217
     /tmp/ccOWj8hl.s:101999  .debug_str:000000000003bb75 .LASF6218
     /tmp/ccOWj8hl.s:90471  .debug_str:000000000000d2f1 .LASF6219
     /tmp/ccOWj8hl.s:95381  .debug_str:0000000000020e7f .LASF6220
     /tmp/ccOWj8hl.s:89611  .debug_str:0000000000009907 .LASF6221
     /tmp/ccOWj8hl.s:102975  .debug_str:000000000003fb88 .LASF6222
     /tmp/ccOWj8hl.s:102951  .debug_str:000000000003fa7d .LASF6223
     /tmp/ccOWj8hl.s:104693  .debug_str:0000000000046c85 .LASF6224
     /tmp/ccOWj8hl.s:104677  .debug_str:0000000000046b96 .LASF6225
     /tmp/ccOWj8hl.s:90473  .debug_str:000000000000d2fb .LASF6226
     /tmp/ccOWj8hl.s:95383  .debug_str:0000000000020e88 .LASF6227
     /tmp/ccOWj8hl.s:102449  .debug_str:000000000003d7c4 .LASF6228
     /tmp/ccOWj8hl.s:89027  .debug_str:0000000000007273 .LASF6229
     /tmp/ccOWj8hl.s:105987  .debug_str:000000000004c6fa .LASF6230
     /tmp/ccOWj8hl.s:90475  .debug_str:000000000000d305 .LASF6231
     /tmp/ccOWj8hl.s:95385  .debug_str:0000000000020e91 .LASF6232
     /tmp/ccOWj8hl.s:93267  .debug_str:0000000000018189 .LASF6233
     /tmp/ccOWj8hl.s:88451  .debug_str:0000000000004b74 .LASF6234
     /tmp/ccOWj8hl.s:104329  .debug_str:000000000004544d .LASF6235
     /tmp/ccOWj8hl.s:96299  .debug_str:000000000002474f .LASF6236
     /tmp/ccOWj8hl.s:103405  .debug_str:00000000000418f3 .LASF6237
     /tmp/ccOWj8hl.s:89787  .debug_str:000000000000a4b6 .LASF6238
     /tmp/ccOWj8hl.s:93389  .debug_str:00000000000189e1 .LASF6239
     /tmp/ccOWj8hl.s:92009  .debug_str:0000000000013135 .LASF6240
     /tmp/ccOWj8hl.s:88103  .debug_str:00000000000032f7 .LASF6241
     /tmp/ccOWj8hl.s:99009  .debug_str:000000000002f9a7 .LASF6242
     /tmp/ccOWj8hl.s:101777  .debug_str:000000000003abf4 .LASF6243
     /tmp/ccOWj8hl.s:88901  .debug_str:0000000000006a16 .LASF6244
     /tmp/ccOWj8hl.s:88339  .debug_str:000000000000436a .LASF6245
     /tmp/ccOWj8hl.s:99693  .debug_str:0000000000032856 .LASF6246
     /tmp/ccOWj8hl.s:105017  .debug_str:000000000004835d .LASF6247
     /tmp/ccOWj8hl.s:94973  .debug_str:000000000001f433 .LASF6248
     /tmp/ccOWj8hl.s:96939  .debug_str:00000000000271f7 .LASF6249
     /tmp/ccOWj8hl.s:94111  .debug_str:000000000001b791 .LASF6250
     /tmp/ccOWj8hl.s:96963  .debug_str:00000000000273af .LASF6251
     /tmp/ccOWj8hl.s:91449  .debug_str:0000000000010b3f .LASF6252
     /tmp/ccOWj8hl.s:97211  .debug_str:000000000002842b .LASF6253
     /tmp/ccOWj8hl.s:95489  .debug_str:0000000000021605 .LASF6254
     /tmp/ccOWj8hl.s:87481  .debug_str:0000000000000847 .LASF6255
     /tmp/ccOWj8hl.s:105211  .debug_str:0000000000049063 .LASF6256
     /tmp/ccOWj8hl.s:94393  .debug_str:000000000001ca44 .LASF6257
     /tmp/ccOWj8hl.s:102805  .debug_str:000000000003f0ec .LASF6258
     /tmp/ccOWj8hl.s:104917  .debug_str:0000000000047c20 .LASF6259
     /tmp/ccOWj8hl.s:89065  .debug_str:00000000000074a1 .LASF6260
     /tmp/ccOWj8hl.s:101163  .debug_str:000000000003825a .LASF6261
     /tmp/ccOWj8hl.s:96557  .debug_str:0000000000025892 .LASF6262
     /tmp/ccOWj8hl.s:103483  .debug_str:0000000000041df9 .LASF6263
     /tmp/ccOWj8hl.s:97175  .debug_str:000000000002817d .LASF6264
     /tmp/ccOWj8hl.s:103079  .debug_str:00000000000402f6 .LASF6265
     /tmp/ccOWj8hl.s:101933  .debug_str:000000000003b733 .LASF6266
     /tmp/ccOWj8hl.s:93899  .debug_str:000000000001aa92 .LASF6267
     /tmp/ccOWj8hl.s:96559  .debug_str:000000000002589b .LASF6268
     /tmp/ccOWj8hl.s:104271  .debug_str:00000000000450a8 .LASF6269
     /tmp/ccOWj8hl.s:93525  .debug_str:00000000000192dc .LASF6270
     /tmp/ccOWj8hl.s:100077  .debug_str:0000000000034193 .LASF6271
     /tmp/ccOWj8hl.s:95549  .debug_str:0000000000021a1c .LASF6272
     /tmp/ccOWj8hl.s:100551  .debug_str:0000000000035eb2 .LASF6273
     /tmp/ccOWj8hl.s:94575  .debug_str:000000000001d6cc .LASF6274
     /tmp/ccOWj8hl.s:99131  .debug_str:0000000000030173 .LASF6275
     /tmp/ccOWj8hl.s:96561  .debug_str:00000000000258a4 .LASF6276
     /tmp/ccOWj8hl.s:95011  .debug_str:000000000001f66d .LASF6277
     /tmp/ccOWj8hl.s:90571  .debug_str:000000000000d904 .LASF6278
     /tmp/ccOWj8hl.s:105045  .debug_str:0000000000048536 .LASF6279
     /tmp/ccOWj8hl.s:98381  .debug_str:000000000002cff3 .LASF6280
     /tmp/ccOWj8hl.s:96563  .debug_str:00000000000258ad .LASF6281
     /tmp/ccOWj8hl.s:88047  .debug_str:0000000000002fa2 .LASF6282
     /tmp/ccOWj8hl.s:89969  .debug_str:000000000000b1e3 .LASF6283
     /tmp/ccOWj8hl.s:97225  .debug_str:0000000000028514 .LASF6284
     /tmp/ccOWj8hl.s:93429  .debug_str:0000000000018c9d .LASF6285
     /tmp/ccOWj8hl.s:101061  .debug_str:0000000000037b21 .LASF6286
     /tmp/ccOWj8hl.s:101333  .debug_str:0000000000038df1 .LASF6287
     /tmp/ccOWj8hl.s:92149  .debug_str:0000000000013983 .LASF6288
     /tmp/ccOWj8hl.s:94685  .debug_str:000000000001dea8 .LASF6289
     /tmp/ccOWj8hl.s:97271  .debug_str:0000000000028841 .LASF6290
     /tmp/ccOWj8hl.s:96567  .debug_str:00000000000258d0 .LASF6291
     /tmp/ccOWj8hl.s:88965  .debug_str:0000000000006e7d .LASF6292
     /tmp/ccOWj8hl.s:105629  .debug_str:000000000004af3c .LASF6293
     /tmp/ccOWj8hl.s:98201  .debug_str:000000000002c390 .LASF6294
     /tmp/ccOWj8hl.s:98817  .debug_str:000000000002eda6 .LASF6295
     /tmp/ccOWj8hl.s:100175  .debug_str:0000000000034827 .LASF6296
     /tmp/ccOWj8hl.s:95089  .debug_str:000000000001fb1a .LASF6297
     /tmp/ccOWj8hl.s:92821  .debug_str:00000000000164a6 .LASF6298
     /tmp/ccOWj8hl.s:92615  .debug_str:00000000000156e3 .LASF6299
     /tmp/ccOWj8hl.s:102919  .debug_str:000000000003f8d9 .LASF6300
     /tmp/ccOWj8hl.s:89417  .debug_str:0000000000008b91 .LASF6301
     /tmp/ccOWj8hl.s:100199  .debug_str:0000000000034948 .LASF6302
     /tmp/ccOWj8hl.s:102115  .debug_str:000000000003c26a .LASF6303
     /tmp/ccOWj8hl.s:102867  .debug_str:000000000003f542 .LASF6304
     /tmp/ccOWj8hl.s:95059  .debug_str:000000000001f925 .LASF6305
     /tmp/ccOWj8hl.s:104931  .debug_str:0000000000047d55 .LASF6306
     /tmp/ccOWj8hl.s:96723  .debug_str:00000000000263b1 .LASF6307
     /tmp/ccOWj8hl.s:90277  .debug_str:000000000000c690 .LASF6308
     /tmp/ccOWj8hl.s:98003  .debug_str:000000000002b619 .LASF6309
     /tmp/ccOWj8hl.s:89827  .debug_str:000000000000a79a .LASF6310
     /tmp/ccOWj8hl.s:104269  .debug_str:0000000000045085 .LASF6311
     /tmp/ccOWj8hl.s:90373  .debug_str:000000000000cd00 .LASF6312
     /tmp/ccOWj8hl.s:99393  .debug_str:00000000000313db .LASF6313
     /tmp/ccOWj8hl.s:99759  .debug_str:0000000000032c41 .LASF6314
     /tmp/ccOWj8hl.s:96469  .debug_str:0000000000025288 .LASF6315
     /tmp/ccOWj8hl.s:96143  .debug_str:0000000000023fc4 .LASF6316
     /tmp/ccOWj8hl.s:98007  .debug_str:000000000002b65d .LASF6317
     /tmp/ccOWj8hl.s:87579  .debug_str:0000000000000eaf .LASF6318
     /tmp/ccOWj8hl.s:89431  .debug_str:0000000000008d0c .LASF6319
     /tmp/ccOWj8hl.s:102547  .debug_str:000000000003de98 .LASF6320
     /tmp/ccOWj8hl.s:101723  .debug_str:000000000003a87b .LASF6321
     /tmp/ccOWj8hl.s:102081  .debug_str:000000000003c11f .LASF6322
     /tmp/ccOWj8hl.s:103655  .debug_str:000000000004285a .LASF6323
     /tmp/ccOWj8hl.s:102681  .debug_str:000000000003e8bb .LASF6324
     /tmp/ccOWj8hl.s:104875  .debug_str:0000000000047915 .LASF6325
     /tmp/ccOWj8hl.s:98951  .debug_str:000000000002f598 .LASF6326
     /tmp/ccOWj8hl.s:101445  .debug_str:000000000003951a .LASF6327
     /tmp/ccOWj8hl.s:89041  .debug_str:000000000000733b .LASF6328
     /tmp/ccOWj8hl.s:94349  .debug_str:000000000001c728 .LASF6329
     /tmp/ccOWj8hl.s:89437  .debug_str:0000000000008d54 .LASF6330
     /tmp/ccOWj8hl.s:93337  .debug_str:0000000000018661 .LASF6331
     /tmp/ccOWj8hl.s:87531  .debug_str:0000000000000b4d .LASF6332
     /tmp/ccOWj8hl.s:102759  .debug_str:000000000003ed8a .LASF6333
     /tmp/ccOWj8hl.s:94863  .debug_str:000000000001eb66 .LASF6334
     /tmp/ccOWj8hl.s:103625  .debug_str:00000000000426b4 .LASF6335
     /tmp/ccOWj8hl.s:105733  .debug_str:000000000004b61a .LASF6336
     /tmp/ccOWj8hl.s:91637  .debug_str:00000000000118f1 .LASF6337
     /tmp/ccOWj8hl.s:99093  .debug_str:000000000002feac .LASF6338
     /tmp/ccOWj8hl.s:90209  .debug_str:000000000000c24f .LASF6339
     /tmp/ccOWj8hl.s:100525  .debug_str:0000000000035e19 .LASF6340
     /tmp/ccOWj8hl.s:94323  .debug_str:000000000001c526 .LASF6341
     /tmp/ccOWj8hl.s:97761  .debug_str:000000000002a732 .LASF6342
     /tmp/ccOWj8hl.s:103291  .debug_str:000000000004114e .LASF6343
     /tmp/ccOWj8hl.s:89567  .debug_str:0000000000009683 .LASF6344
     /tmp/ccOWj8hl.s:97763  .debug_str:000000000002a742 .LASF6345
     /tmp/ccOWj8hl.s:87461  .debug_str:00000000000006f7 .LASF6346
     /tmp/ccOWj8hl.s:103763  .debug_str:0000000000042f96 .LASF6347
     /tmp/ccOWj8hl.s:94129  .debug_str:000000000001b892 .LASF6348
     /tmp/ccOWj8hl.s:91225  .debug_str:000000000000fdbb .LASF6349
     /tmp/ccOWj8hl.s:104183  .debug_str:0000000000044af5 .LASF6350
     /tmp/ccOWj8hl.s:98971  .debug_str:000000000002f743 .LASF6351
     /tmp/ccOWj8hl.s:94199  .debug_str:000000000001bcd6 .LASF6352
     /tmp/ccOWj8hl.s:99683  .debug_str:0000000000032741 .LASF6353
     /tmp/ccOWj8hl.s:94047  .debug_str:000000000001b316 .LASF6354
     /tmp/ccOWj8hl.s:93569  .debug_str:0000000000019616 .LASF6355
     /tmp/ccOWj8hl.s:96777  .debug_str:0000000000026745 .LASF6356
     /tmp/ccOWj8hl.s:100601  .debug_str:000000000003620a .LASF6357
     /tmp/ccOWj8hl.s:96321  .debug_str:00000000000248d1 .LASF6358
     /tmp/ccOWj8hl.s:89731  .debug_str:000000000000a13b .LASF6359
     /tmp/ccOWj8hl.s:99477  .debug_str:00000000000319fd .LASF6360
     /tmp/ccOWj8hl.s:93071  .debug_str:00000000000175bc .LASF6361
     /tmp/ccOWj8hl.s:105575  .debug_str:000000000004ab8c .LASF6362
     /tmp/ccOWj8hl.s:99479  .debug_str:0000000000031a09 .LASF6363
     /tmp/ccOWj8hl.s:102095  .debug_str:000000000003c1e0 .LASF6364
     /tmp/ccOWj8hl.s:99775  .debug_str:0000000000032d58 .LASF6365
     /tmp/ccOWj8hl.s:99481  .debug_str:0000000000031a15 .LASF6366
     /tmp/ccOWj8hl.s:102097  .debug_str:000000000003c1e6 .LASF6367
     /tmp/ccOWj8hl.s:95781  .debug_str:000000000002298c .LASF6368
     /tmp/ccOWj8hl.s:97609  .debug_str:0000000000029dac .LASF6369
     /tmp/ccOWj8hl.s:93703  .debug_str:0000000000019ee7 .LASF6370
     /tmp/ccOWj8hl.s:101857  .debug_str:000000000003b16e .LASF6371
     /tmp/ccOWj8hl.s:97611  .debug_str:0000000000029db6 .LASF6372
     /tmp/ccOWj8hl.s:102101  .debug_str:000000000003c1f8 .LASF6373
     /tmp/ccOWj8hl.s:89175  .debug_str:0000000000007b2c .LASF6374
     /tmp/ccOWj8hl.s:104353  .debug_str:00000000000455a0 .LASF6375
     /tmp/ccOWj8hl.s:102103  .debug_str:000000000003c1fe .LASF6376
     /tmp/ccOWj8hl.s:94801  .debug_str:000000000001e666 .LASF6377
     /tmp/ccOWj8hl.s:97615  .debug_str:0000000000029dd5 .LASF6378
     /tmp/ccOWj8hl.s:93089  .debug_str:000000000001769c .LASF6379
     /tmp/ccOWj8hl.s:95459  .debug_str:00000000000213f6 .LASF6380
     /tmp/ccOWj8hl.s:105359  .debug_str:0000000000049a68 .LASF6381
     /tmp/ccOWj8hl.s:102107  .debug_str:000000000003c20b .LASF6382
     /tmp/ccOWj8hl.s:101645  .debug_str:000000000003a2c7 .LASF6383
     /tmp/ccOWj8hl.s:102381  .debug_str:000000000003d35b .LASF6384
     /tmp/ccOWj8hl.s:102109  .debug_str:000000000003c211 .LASF6385
     /tmp/ccOWj8hl.s:94271  .debug_str:000000000001c17d .LASF6386
     /tmp/ccOWj8hl.s:87911  .debug_str:00000000000025b4 .LASF6387
     /tmp/ccOWj8hl.s:92199  .debug_str:0000000000013cc8 .LASF6388
     /tmp/ccOWj8hl.s:91505  .debug_str:0000000000010f43 .LASF6389
     /tmp/ccOWj8hl.s:87913  .debug_str:00000000000025bf .LASF6390
     /tmp/ccOWj8hl.s:93141  .debug_str:0000000000017a18 .LASF6391
     /tmp/ccOWj8hl.s:104267  .debug_str:0000000000045064 .LASF6392
     /tmp/ccOWj8hl.s:101915  .debug_str:000000000003b600 .LASF6393
     /tmp/ccOWj8hl.s:91215  .debug_str:000000000000fd01 .LASF6394
     /tmp/ccOWj8hl.s:103293  .debug_str:0000000000041157 .LASF6395
     /tmp/ccOWj8hl.s:101917  .debug_str:000000000003b609 .LASF6396
     /tmp/ccOWj8hl.s:93145  .debug_str:0000000000017a26 .LASF6397
     /tmp/ccOWj8hl.s:92467  .debug_str:0000000000014da9 .LASF6398
     /tmp/ccOWj8hl.s:101919  .debug_str:000000000003b612 .LASF6399
     /tmp/ccOWj8hl.s:93147  .debug_str:0000000000017a2d .LASF6400
     /tmp/ccOWj8hl.s:105159  .debug_str:0000000000048cdb .LASF6401
     /tmp/ccOWj8hl.s:101921  .debug_str:000000000003b61b .LASF6402
     /tmp/ccOWj8hl.s:92213  .debug_str:0000000000013d71 .LASF6403
     /tmp/ccOWj8hl.s:99375  .debug_str:00000000000312d5 .LASF6404
     /tmp/ccOWj8hl.s:101733  .debug_str:000000000003a93c .LASF6405
     /tmp/ccOWj8hl.s:92217  .debug_str:0000000000013da1 .LASF6406
     /tmp/ccOWj8hl.s:93397  .debug_str:0000000000018a4e .LASF6407
     /tmp/ccOWj8hl.s:102497  .debug_str:000000000003dabd .LASF6408
     /tmp/ccOWj8hl.s:100303  .debug_str:0000000000035041 .LASF6409
     /tmp/ccOWj8hl.s:89519  .debug_str:00000000000092d4 .LASF6410
     /tmp/ccOWj8hl.s:93059  .debug_str:00000000000174cf .LASF6411
     /tmp/ccOWj8hl.s:100305  .debug_str:0000000000035047 .LASF6412
     /tmp/ccOWj8hl.s:102349  .debug_str:000000000003d191 .LASF6413
     /tmp/ccOWj8hl.s:90731  .debug_str:000000000000e22e .LASF6414
     /tmp/ccOWj8hl.s:100307  .debug_str:000000000003504d .LASF6415
     /tmp/ccOWj8hl.s:96517  .debug_str:0000000000025601 .LASF6416
     /tmp/ccOWj8hl.s:99455  .debug_str:0000000000031822 .LASF6417
     /tmp/ccOWj8hl.s:100363  .debug_str:000000000003545b .LASF6418
     /tmp/ccOWj8hl.s:100271  .debug_str:0000000000034e76 .LASF6419
     /tmp/ccOWj8hl.s:87809  .debug_str:0000000000001e6d .LASF6420
     /tmp/ccOWj8hl.s:100365  .debug_str:0000000000035461 .LASF6421
     /tmp/ccOWj8hl.s:102365  .debug_str:000000000003d27b .LASF6422
     /tmp/ccOWj8hl.s:102743  .debug_str:000000000003ecbc .LASF6423
     /tmp/ccOWj8hl.s:100367  .debug_str:0000000000035467 .LASF6424
     /tmp/ccOWj8hl.s:96535  .debug_str:0000000000025753 .LASF6425
     /tmp/ccOWj8hl.s:95057  .debug_str:000000000001f917 .LASF6426
     /tmp/ccOWj8hl.s:100369  .debug_str:000000000003546d .LASF6427
     /tmp/ccOWj8hl.s:90453  .debug_str:000000000000d238 .LASF6428
     /tmp/ccOWj8hl.s:95061  .debug_str:000000000001f948 .LASF6429
     /tmp/ccOWj8hl.s:100371  .debug_str:0000000000035473 .LASF6430
     /tmp/ccOWj8hl.s:103313  .debug_str:00000000000412f3 .LASF6431
     /tmp/ccOWj8hl.s:98147  .debug_str:000000000002bfc4 .LASF6432
     /tmp/ccOWj8hl.s:100373  .debug_str:0000000000035479 .LASF6433
     /tmp/ccOWj8hl.s:97531  .debug_str:00000000000298a1 .LASF6434
     /tmp/ccOWj8hl.s:105339  .debug_str:000000000004992c .LASF6435
     /tmp/ccOWj8hl.s:100375  .debug_str:000000000003547f .LASF6436
     /tmp/ccOWj8hl.s:91481  .debug_str:0000000000010d96 .LASF6437
     /tmp/ccOWj8hl.s:99003  .debug_str:000000000002f96f .LASF6438
     /tmp/ccOWj8hl.s:100377  .debug_str:0000000000035485 .LASF6439
     /tmp/ccOWj8hl.s:105465  .debug_str:000000000004a3af .LASF6440
     /tmp/ccOWj8hl.s:99421  .debug_str:00000000000315cf .LASF6441
     /tmp/ccOWj8hl.s:97489  .debug_str:0000000000029580 .LASF6442
     /tmp/ccOWj8hl.s:98457  .debug_str:000000000002d54c .LASF6443
     /tmp/ccOWj8hl.s:92829  .debug_str:00000000000164e8 .LASF6444
     /tmp/ccOWj8hl.s:100381  .debug_str:00000000000354ac .LASF6445
     /tmp/ccOWj8hl.s:92447  .debug_str:0000000000014c66 .LASF6446
     /tmp/ccOWj8hl.s:99389  .debug_str:00000000000313a4 .LASF6447
     /tmp/ccOWj8hl.s:100457  .debug_str:0000000000035a2a .LASF6448
     /tmp/ccOWj8hl.s:104263  .debug_str:000000000004503b .LASF6449
     /tmp/ccOWj8hl.s:100191  .debug_str:00000000000348c7 .LASF6450
     /tmp/ccOWj8hl.s:100459  .debug_str:0000000000035a30 .LASF6451
     /tmp/ccOWj8hl.s:98473  .debug_str:000000000002d671 .LASF6452
     /tmp/ccOWj8hl.s:88191  .debug_str:000000000000394a .LASF6453
     /tmp/ccOWj8hl.s:100461  .debug_str:0000000000035a36 .LASF6454
     /tmp/ccOWj8hl.s:92465  .debug_str:0000000000014d89 .LASF6455
     /tmp/ccOWj8hl.s:91267  .debug_str:000000000000ffc6 .LASF6456
     /tmp/ccOWj8hl.s:100463  .debug_str:0000000000035a3c .LASF6457
     /tmp/ccOWj8hl.s:105155  .debug_str:0000000000048ca5 .LASF6458
     /tmp/ccOWj8hl.s:91269  .debug_str:000000000000ffd0 .LASF6459
     /tmp/ccOWj8hl.s:100465  .debug_str:0000000000035a42 .LASF6460
     /tmp/ccOWj8hl.s:88211  .debug_str:0000000000003a78 .LASF6461
     /tmp/ccOWj8hl.s:96871  .debug_str:0000000000026d55 .LASF6462
     /tmp/ccOWj8hl.s:97643  .debug_str:0000000000029f63 .LASF6463
     /tmp/ccOWj8hl.s:90421  .debug_str:000000000000d00b .LASF6464
     /tmp/ccOWj8hl.s:105527  .debug_str:000000000004a7fe .LASF6465
     /tmp/ccOWj8hl.s:100469  .debug_str:0000000000035a57 .LASF6466
     /tmp/ccOWj8hl.s:87467  .debug_str:0000000000000746 .LASF6467
     /tmp/ccOWj8hl.s:105531  .debug_str:000000000004a837 .LASF6468
     /tmp/ccOWj8hl.s:100471  .debug_str:0000000000035a5d .LASF6469
     /tmp/ccOWj8hl.s:100285  .debug_str:0000000000034f46 .LASF6470
     /tmp/ccOWj8hl.s:91059  .debug_str:000000000000f49c .LASF6471
     /tmp/ccOWj8hl.s:100473  .debug_str:0000000000035a63 .LASF6472
     /tmp/ccOWj8hl.s:94373  .debug_str:000000000001c8de .LASF6473
     /tmp/ccOWj8hl.s:105923  .debug_str:000000000004c2c8 .LASF6474
     /tmp/ccOWj8hl.s:100475  .debug_str:0000000000035a69 .LASF6475
     /tmp/ccOWj8hl.s:88361  .debug_str:00000000000044c4 .LASF6476
     /tmp/ccOWj8hl.s:99399  .debug_str:0000000000031443 .LASF6477
     /tmp/ccOWj8hl.s:100529  .debug_str:0000000000035e5c .LASF6478
     /tmp/ccOWj8hl.s:100311  .debug_str:000000000003507d .LASF6479
     /tmp/ccOWj8hl.s:96615  .debug_str:0000000000025c01 .LASF6480
     /tmp/ccOWj8hl.s:100531  .debug_str:0000000000035e62 .LASF6481
     /tmp/ccOWj8hl.s:94395  .debug_str:000000000001ca54 .LASF6482
     /tmp/ccOWj8hl.s:88235  .debug_str:0000000000003c25 .LASF6483
     /tmp/ccOWj8hl.s:100533  .debug_str:0000000000035e68 .LASF6484
     /tmp/ccOWj8hl.s:88377  .debug_str:000000000000464a .LASF6485
     /tmp/ccOWj8hl.s:92491  .debug_str:0000000000014fbb .LASF6486
     /tmp/ccOWj8hl.s:100535  .debug_str:0000000000035e6e .LASF6487
     /tmp/ccOWj8hl.s:101293  .debug_str:0000000000038acd .LASF6488
     /tmp/ccOWj8hl.s:92493  .debug_str:0000000000014fc7 .LASF6489
     /tmp/ccOWj8hl.s:100537  .debug_str:0000000000035e74 .LASF6490
     /tmp/ccOWj8hl.s:95361  .debug_str:0000000000020d89 .LASF6491
     /tmp/ccOWj8hl.s:92713  .debug_str:0000000000015d7c .LASF6492
     /tmp/ccOWj8hl.s:100539  .debug_str:0000000000035e7a .LASF6493
     /tmp/ccOWj8hl.s:89287  .debug_str:000000000000830e .LASF6494
     /tmp/ccOWj8hl.s:88057  .debug_str:000000000000302f .LASF6495
     /tmp/ccOWj8hl.s:100541  .debug_str:0000000000035e80 .LASF6496
     /tmp/ccOWj8hl.s:102117  .debug_str:000000000003c275 .LASF6497
     /tmp/ccOWj8hl.s:88061  .debug_str:000000000000307b .LASF6498
     /tmp/ccOWj8hl.s:100543  .debug_str:0000000000035e86 .LASF6499
     /tmp/ccOWj8hl.s:96283  .debug_str:00000000000245ef .LASF6500
     /tmp/ccOWj8hl.s:96389  .debug_str:0000000000024d08 .LASF6501
     /tmp/ccOWj8hl.s:100545  .debug_str:0000000000035e8c .LASF6502
     /tmp/ccOWj8hl.s:90213  .debug_str:000000000000c28e .LASF6503
     /tmp/ccOWj8hl.s:95897  .debug_str:00000000000231a0 .LASF6504
     /tmp/ccOWj8hl.s:100547  .debug_str:0000000000035e92 .LASF6505
     /tmp/ccOWj8hl.s:103053  .debug_str:0000000000040106 .LASF6506
     /tmp/ccOWj8hl.s:105595  .debug_str:000000000004ad19 .LASF6507
     /tmp/ccOWj8hl.s:100607  .debug_str:000000000003626d .LASF6508
     /tmp/ccOWj8hl.s:96305  .debug_str:00000000000247d4 .LASF6509
     /tmp/ccOWj8hl.s:95513  .debug_str:00000000000217ea .LASF6510
     /tmp/ccOWj8hl.s:97931  .debug_str:000000000002b239 .LASF6511
     /tmp/ccOWj8hl.s:90235  .debug_str:000000000000c41a .LASF6512
     /tmp/ccOWj8hl.s:101267  .debug_str:00000000000388e7 .LASF6513
     /tmp/ccOWj8hl.s:100611  .debug_str:000000000003627e .LASF6514
     /tmp/ccOWj8hl.s:103077  .debug_str:00000000000402d6 .LASF6515
     /tmp/ccOWj8hl.s:91877  .debug_str:0000000000012943 .LASF6516
     /tmp/ccOWj8hl.s:100613  .debug_str:0000000000036284 .LASF6517
     /tmp/ccOWj8hl.s:97269  .debug_str:0000000000028821 .LASF6518
     /tmp/ccOWj8hl.s:92575  .debug_str:000000000001545e .LASF6519
     /tmp/ccOWj8hl.s:100615  .debug_str:000000000003628a .LASF6520
     /tmp/ccOWj8hl.s:91199  .debug_str:000000000000fc33 .LASF6521
     /tmp/ccOWj8hl.s:92579  .debug_str:000000000001547b .LASF6522
     /tmp/ccOWj8hl.s:100617  .debug_str:0000000000036290 .LASF6523
     /tmp/ccOWj8hl.s:103999  .debug_str:0000000000043e59 .LASF6524
     /tmp/ccOWj8hl.s:102119  .debug_str:000000000003c295 .LASF6525
     /tmp/ccOWj8hl.s:100619  .debug_str:0000000000036296 .LASF6526
     /tmp/ccOWj8hl.s:98231  .debug_str:000000000002c556 .LASF6527
     /tmp/ccOWj8hl.s:87543  .debug_str:0000000000000c17 .LASF6528
     /tmp/ccOWj8hl.s:100621  .debug_str:000000000003629c .LASF6529
     /tmp/ccOWj8hl.s:92185  .debug_str:0000000000013bdf .LASF6530
     /tmp/ccOWj8hl.s:88135  .debug_str:00000000000034d6 .LASF6531
     /tmp/ccOWj8hl.s:100623  .debug_str:00000000000362a2 .LASF6532
     /tmp/ccOWj8hl.s:104895  .debug_str:0000000000047a8c .LASF6533
     /tmp/ccOWj8hl.s:99309  .debug_str:0000000000030e24 .LASF6534
     /tmp/ccOWj8hl.s:97949  .debug_str:000000000002b35b .LASF6535
     /tmp/ccOWj8hl.s:99119  .debug_str:000000000003004f .LASF6536
     /tmp/ccOWj8hl.s:97631  .debug_str:0000000000029e9d .LASF6537
     /tmp/ccOWj8hl.s:100707  .debug_str:00000000000367d3 .LASF6538
     /tmp/ccOWj8hl.s:92379  .debug_str:00000000000147a4 .LASF6539
     /tmp/ccOWj8hl.s:97633  .debug_str:0000000000029eab .LASF6540
     /tmp/ccOWj8hl.s:100709  .debug_str:00000000000367d9 .LASF6541
     /tmp/ccOWj8hl.s:105081  .debug_str:00000000000487a4 .LASF6542
     /tmp/ccOWj8hl.s:91383  .debug_str:00000000000107a8 .LASF6543
     /tmp/ccOWj8hl.s:100711  .debug_str:00000000000367df .LASF6544
     /tmp/ccOWj8hl.s:99301  .debug_str:0000000000030dcd .LASF6545
     /tmp/ccOWj8hl.s:93079  .debug_str:0000000000017616 .LASF6546
     /tmp/ccOWj8hl.s:100713  .debug_str:00000000000367e5 .LASF6547
     /tmp/ccOWj8hl.s:93307  .debug_str:000000000001841e .LASF6548
     /tmp/ccOWj8hl.s:93083  .debug_str:000000000001765e .LASF6549
     /tmp/ccOWj8hl.s:100715  .debug_str:00000000000367eb .LASF6550
     /tmp/ccOWj8hl.s:87385  .debug_str:00000000000001d4 .LASF6551
     /tmp/ccOWj8hl.s:92643  .debug_str:000000000001586e .LASF6552
     /tmp/ccOWj8hl.s:100717  .debug_str:00000000000367f1 .LASF6553
     /tmp/ccOWj8hl.s:102733  .debug_str:000000000003ec15 .LASF6554
     /tmp/ccOWj8hl.s:91047  .debug_str:000000000000f3fe .LASF6555
     /tmp/ccOWj8hl.s:100719  .debug_str:00000000000367f7 .LASF6556
     /tmp/ccOWj8hl.s:94309  .debug_str:000000000001c43b .LASF6557
     /tmp/ccOWj8hl.s:98605  .debug_str:000000000002df45 .LASF6558
     /tmp/ccOWj8hl.s:100721  .debug_str:00000000000367fd .LASF6559
     /tmp/ccOWj8hl.s:88287  .debug_str:0000000000004007 .LASF6560
     /tmp/ccOWj8hl.s:103923  .debug_str:00000000000439c6 .LASF6561
     /tmp/ccOWj8hl.s:100723  .debug_str:0000000000036803 .LASF6562
     /tmp/ccOWj8hl.s:101215  .debug_str:00000000000385ab .LASF6563
     /tmp/ccOWj8hl.s:105325  .debug_str:0000000000049868 .LASF6564
     /tmp/ccOWj8hl.s:100725  .debug_str:0000000000036809 .LASF6565
     /tmp/ccOWj8hl.s:95273  .debug_str:0000000000020832 .LASF6566
     /tmp/ccOWj8hl.s:95435  .debug_str:0000000000021217 .LASF6567
     /tmp/ccOWj8hl.s:100781  .debug_str:0000000000036bcd .LASF6568
     /tmp/ccOWj8hl.s:88307  .debug_str:00000000000041c3 .LASF6569
     /tmp/ccOWj8hl.s:97463  .debug_str:000000000002942d .LASF6570
     /tmp/ccOWj8hl.s:100783  .debug_str:0000000000036bd3 .LASF6571
     /tmp/ccOWj8hl.s:101231  .debug_str:000000000003865e .LASF6572
     /tmp/ccOWj8hl.s:101707  .debug_str:000000000003a797 .LASF6573
     /tmp/ccOWj8hl.s:100785  .debug_str:0000000000036bd9 .LASF6574
     /tmp/ccOWj8hl.s:95287  .debug_str:000000000002090c .LASF6575
     /tmp/ccOWj8hl.s:101711  .debug_str:000000000003a7bd .LASF6576
     /tmp/ccOWj8hl.s:100787  .debug_str:0000000000036bdf .LASF6577
     /tmp/ccOWj8hl.s:89217  .debug_str:0000000000007e29 .LASF6578
     /tmp/ccOWj8hl.s:99731  .debug_str:0000000000032a76 .LASF6579
     /tmp/ccOWj8hl.s:100789  .debug_str:0000000000036be5 .LASF6580
     /tmp/ccOWj8hl.s:102037  .debug_str:000000000003bde9 .LASF6581
     /tmp/ccOWj8hl.s:93733  .debug_str:000000000001a0a9 .LASF6582
     /tmp/ccOWj8hl.s:100791  .debug_str:0000000000036beb .LASF6583
     /tmp/ccOWj8hl.s:96193  .debug_str:0000000000024196 .LASF6584
     /tmp/ccOWj8hl.s:93737  .debug_str:000000000001a0d6 .LASF6585
     /tmp/ccOWj8hl.s:100793  .debug_str:0000000000036bf1 .LASF6586
     /tmp/ccOWj8hl.s:90127  .debug_str:000000000000bc83 .LASF6587
     /tmp/ccOWj8hl.s:93719  .debug_str:0000000000019fe1 .LASF6588
     /tmp/ccOWj8hl.s:100795  .debug_str:0000000000036bf7 .LASF6589
     /tmp/ccOWj8hl.s:102961  .debug_str:000000000003fad1 .LASF6590
     /tmp/ccOWj8hl.s:87891  .debug_str:0000000000002404 .LASF6591
     /tmp/ccOWj8hl.s:100797  .debug_str:0000000000036bfd .LASF6592
     /tmp/ccOWj8hl.s:97171  .debug_str:0000000000028142 .LASF6593
     /tmp/ccOWj8hl.s:103977  .debug_str:0000000000043d4d .LASF6594
     /tmp/ccOWj8hl.s:100799  .debug_str:0000000000036c03 .LASF6595
     /tmp/ccOWj8hl.s:98929  .debug_str:000000000002f44b .LASF6596
     /tmp/ccOWj8hl.s:102359  .debug_str:000000000003d227 .LASF6597
     /tmp/ccOWj8hl.s:100859  .debug_str:0000000000036fcb .LASF6598
     /tmp/ccOWj8hl.s:102995  .debug_str:000000000003fcb8 .LASF6599
     /tmp/ccOWj8hl.s:105795  .debug_str:000000000004b961 .LASF6600
     /tmp/ccOWj8hl.s:100861  .debug_str:0000000000036fd1 .LASF6601
     /tmp/ccOWj8hl.s:97191  .debug_str:00000000000282b5 .LASF6602
     /tmp/ccOWj8hl.s:102163  .debug_str:000000000003c5ab .LASF6603
     /tmp/ccOWj8hl.s:100863  .debug_str:0000000000036fd7 .LASF6604
     /tmp/ccOWj8hl.s:91123  .debug_str:000000000000f7b7 .LASF6605
     /tmp/ccOWj8hl.s:88657  .debug_str:0000000000005992 .LASF6606
     /tmp/ccOWj8hl.s:100865  .debug_str:0000000000036fdd .LASF6607
     /tmp/ccOWj8hl.s:103929  .debug_str:0000000000043a15 .LASF6608
     /tmp/ccOWj8hl.s:97347  .debug_str:0000000000028cc4 .LASF6609
     /tmp/ccOWj8hl.s:100867  .debug_str:0000000000036fe3 .LASF6610
     /tmp/ccOWj8hl.s:98159  .debug_str:000000000002c080 .LASF6611
     /tmp/ccOWj8hl.s:100751  .debug_str:00000000000369ed .LASF6612
     /tmp/ccOWj8hl.s:100869  .debug_str:0000000000036fe9 .LASF6613
     /tmp/ccOWj8hl.s:92109  .debug_str:0000000000013764 .LASF6614
     /tmp/ccOWj8hl.s:96541  .debug_str:00000000000257b4 .LASF6615
     /tmp/ccOWj8hl.s:100871  .debug_str:0000000000036fef .LASF6616
     /tmp/ccOWj8hl.s:104815  .debug_str:000000000004743c .LASF6617
     /tmp/ccOWj8hl.s:92823  .debug_str:00000000000164bb .LASF6618
     /tmp/ccOWj8hl.s:100873  .debug_str:0000000000036ff5 .LASF6619
     /tmp/ccOWj8hl.s:99035  .debug_str:000000000002fb30 .LASF6620
     /tmp/ccOWj8hl.s:92827  .debug_str:00000000000164dc .LASF6621
     /tmp/ccOWj8hl.s:100875  .debug_str:0000000000036ffb .LASF6622
     /tmp/ccOWj8hl.s:93055  .debug_str:0000000000017494 .LASF6623
     /tmp/ccOWj8hl.s:96591  .debug_str:00000000000259fa .LASF6624
     /tmp/ccOWj8hl.s:100877  .debug_str:0000000000037001 .LASF6625
     /tmp/ccOWj8hl.s:105779  .debug_str:000000000004b88f .LASF6626
     /tmp/ccOWj8hl.s:96893  .debug_str:0000000000026ef4 .LASF6627
     /tmp/ccOWj8hl.s:100943  .debug_str:0000000000037447 .LASF6628
     /tmp/ccOWj8hl.s:99057  .debug_str:000000000002fc57 .LASF6629
     /tmp/ccOWj8hl.s:99791  .debug_str:0000000000032ec1 .LASF6630
     /tmp/ccOWj8hl.s:100945  .debug_str:000000000003744d .LASF6631
     /tmp/ccOWj8hl.s:93073  .debug_str:00000000000175c2 .LASF6632
     /tmp/ccOWj8hl.s:99117  .debug_str:0000000000030041 .LASF6633
     /tmp/ccOWj8hl.s:98531  .debug_str:000000000002da60 .LASF6634
     /tmp/ccOWj8hl.s:93485  .debug_str:0000000000019053 .LASF6635
     /tmp/ccOWj8hl.s:102273  .debug_str:000000000003cceb .LASF6636
     /tmp/ccOWj8hl.s:100949  .debug_str:0000000000037470 .LASF6637
     /tmp/ccOWj8hl.s:99965  .debug_str:0000000000033ad3 .LASF6638
     /tmp/ccOWj8hl.s:88125  .debug_str:000000000000343d .LASF6639
     /tmp/ccOWj8hl.s:98537  .debug_str:000000000002dab9 .LASF6640
     /tmp/ccOWj8hl.s:94067  .debug_str:000000000001b44e .LASF6641
     /tmp/ccOWj8hl.s:93651  .debug_str:0000000000019bfa .LASF6642
     /tmp/ccOWj8hl.s:100953  .debug_str:0000000000037494 .LASF6643
     /tmp/ccOWj8hl.s:88087  .debug_str:0000000000003246 .LASF6644
     /tmp/ccOWj8hl.s:91929  .debug_str:0000000000012c03 .LASF6645
     /tmp/ccOWj8hl.s:100955  .debug_str:000000000003749a .LASF6646
     /tmp/ccOWj8hl.s:99247  .debug_str:0000000000030a17 .LASF6647
     /tmp/ccOWj8hl.s:101795  .debug_str:000000000003ad1f .LASF6648
     /tmp/ccOWj8hl.s:100957  .debug_str:00000000000374a0 .LASF6649
     /tmp/ccOWj8hl.s:95039  .debug_str:000000000001f7f8 .LASF6650
     /tmp/ccOWj8hl.s:88045  .debug_str:0000000000002f97 .LASF6651
     /tmp/ccOWj8hl.s:100959  .debug_str:00000000000374a6 .LASF6652
     /tmp/ccOWj8hl.s:88969  .debug_str:0000000000006ea0 .LASF6653
     /tmp/ccOWj8hl.s:95847  .debug_str:0000000000022ea1 .LASF6654
     /tmp/ccOWj8hl.s:100961  .debug_str:00000000000374ac .LASF6655
     /tmp/ccOWj8hl.s:101819  .debug_str:000000000003aed8 .LASF6656
     /tmp/ccOWj8hl.s:100659  .debug_str:0000000000036537 .LASF6657
     /tmp/ccOWj8hl.s:90677  .debug_str:000000000000df42 .LASF6658
     /tmp/ccOWj8hl.s:88937  .debug_str:0000000000006c6a .LASF6659
     /tmp/ccOWj8hl.s:100663  .debug_str:000000000003657e .LASF6660
     /tmp/ccOWj8hl.s:91907  .debug_str:0000000000012b0f .LASF6661
     /tmp/ccOWj8hl.s:101793  .debug_str:000000000003acfe .LASF6662
     /tmp/ccOWj8hl.s:93493  .debug_str:0000000000019100 .LASF6663
     /tmp/ccOWj8hl.s:91911  .debug_str:0000000000012b35 .LASF6664
     /tmp/ccOWj8hl.s:93781  .debug_str:000000000001a31e .LASF6665
     /tmp/ccOWj8hl.s:96227  .debug_str:00000000000243f8 .LASF6666
     /tmp/ccOWj8hl.s:91915  .debug_str:0000000000012b44 .LASF6667
     /tmp/ccOWj8hl.s:89849  .debug_str:000000000000a8f1 .LASF6668
     /tmp/ccOWj8hl.s:96229  .debug_str:0000000000024407 .LASF6669
     /tmp/ccOWj8hl.s:90685  .debug_str:000000000000dfbb .LASF6670
     /tmp/ccOWj8hl.s:102663  .debug_str:000000000003e744 .LASF6671
     /tmp/ccOWj8hl.s:95289  .debug_str:000000000002092c .LASF6672
     /tmp/ccOWj8hl.s:90687  .debug_str:000000000000dfc2 .LASF6673
     /tmp/ccOWj8hl.s:96857  .debug_str:0000000000026c11 .LASF6674
     /tmp/ccOWj8hl.s:93119  .debug_str:00000000000178be .LASF6675
     /tmp/ccOWj8hl.s:90689  .debug_str:000000000000dfc9 .LASF6676
     /tmp/ccOWj8hl.s:90781  .debug_str:000000000000e3af .LASF6677
     /tmp/ccOWj8hl.s:89977  .debug_str:000000000000b29b .LASF6678
     /tmp/ccOWj8hl.s:90691  .debug_str:000000000000dfd0 .LASF6679
     /tmp/ccOWj8hl.s:103639  .debug_str:000000000004278e .LASF6680
     /tmp/ccOWj8hl.s:96443  .debug_str:0000000000025118 .LASF6681
     /tmp/ccOWj8hl.s:90693  .debug_str:000000000000dfd7 .LASF6682
     /tmp/ccOWj8hl.s:97827  .debug_str:000000000002abb3 .LASF6683
     /tmp/ccOWj8hl.s:96445  .debug_str:0000000000025129 .LASF6684
     /tmp/ccOWj8hl.s:90695  .debug_str:000000000000dfde .LASF6685
     /tmp/ccOWj8hl.s:91793  .debug_str:00000000000122f1 .LASF6686
     /tmp/ccOWj8hl.s:103035  .debug_str:000000000003ffa3 .LASF6687
     /tmp/ccOWj8hl.s:90749  .debug_str:000000000000e2c9 .LASF6688
     /tmp/ccOWj8hl.s:103661  .debug_str:00000000000428a4 .LASF6689
     /tmp/ccOWj8hl.s:91947  .debug_str:0000000000012d61 .LASF6690
     /tmp/ccOWj8hl.s:90751  .debug_str:000000000000e2d0 .LASF6691
     /tmp/ccOWj8hl.s:97845  .debug_str:000000000002acc5 .LASF6692
     /tmp/ccOWj8hl.s:91949  .debug_str:0000000000012d72 .LASF6693
     /tmp/ccOWj8hl.s:90753  .debug_str:000000000000e2d7 .LASF6694
     /tmp/ccOWj8hl.s:91807  .debug_str:00000000000123da .LASF6695
     /tmp/ccOWj8hl.s:89029  .debug_str:0000000000007283 .LASF6696
     /tmp/ccOWj8hl.s:92065  .debug_str:0000000000013491 .LASF6697
     /tmp/ccOWj8hl.s:104533  .debug_str:000000000004623b .LASF6698
     /tmp/ccOWj8hl.s:98935  .debug_str:000000000002f48a .LASF6699
     /tmp/ccOWj8hl.s:90757  .debug_str:000000000000e302 .LASF6700
     /tmp/ccOWj8hl.s:98755  .debug_str:000000000002e992 .LASF6701
     /tmp/ccOWj8hl.s:98941  .debug_str:000000000002f4d3 .LASF6702
     /tmp/ccOWj8hl.s:90759  .debug_str:000000000000e309 .LASF6703
     /tmp/ccOWj8hl.s:92755  .debug_str:0000000000016053 .LASF6704
     /tmp/ccOWj8hl.s:89587  .debug_str:0000000000009788 .LASF6705
     /tmp/ccOWj8hl.s:90761  .debug_str:000000000000e310 .LASF6706
     /tmp/ccOWj8hl.s:88301  .debug_str:000000000000416d .LASF6707
     /tmp/ccOWj8hl.s:87441  .debug_str:00000000000005c2 .LASF6708
     /tmp/ccOWj8hl.s:90763  .debug_str:000000000000e317 .LASF6709
     /tmp/ccOWj8hl.s:99673  .debug_str:0000000000032684 .LASF6710
     /tmp/ccOWj8hl.s:89127  .debug_str:000000000000783b .LASF6711
     /tmp/ccOWj8hl.s:90765  .debug_str:000000000000e31e .LASF6712
     /tmp/ccOWj8hl.s:93715  .debug_str:0000000000019fb5 .LASF6713
     /tmp/ccOWj8hl.s:98983  .debug_str:000000000002f804 .LASF6714
     /tmp/ccOWj8hl.s:90767  .debug_str:000000000000e325 .LASF6715
     /tmp/ccOWj8hl.s:87743  .debug_str:0000000000001a1e .LASF6716
     /tmp/ccOWj8hl.s:94919  .debug_str:000000000001ef33 .LASF6717
     /tmp/ccOWj8hl.s:90845  .debug_str:000000000000e837 .LASF6718
     /tmp/ccOWj8hl.s:104983  .debug_str:00000000000480ed .LASF6719
     /tmp/ccOWj8hl.s:99075  .debug_str:000000000002fd5f .LASF6720
     /tmp/ccOWj8hl.s:90847  .debug_str:000000000000e83e .LASF6721
     /tmp/ccOWj8hl.s:93735  .debug_str:000000000001a0b5 .LASF6722
     /tmp/ccOWj8hl.s:92219  .debug_str:0000000000013da8 .LASF6723
     /tmp/ccOWj8hl.s:90849  .debug_str:000000000000e845 .LASF6724
     /tmp/ccOWj8hl.s:87763  .debug_str:0000000000001b6f .LASF6725
     /tmp/ccOWj8hl.s:94645  .debug_str:000000000001db49 .LASF6726
     /tmp/ccOWj8hl.s:90851  .debug_str:000000000000e84c .LASF6727
     /tmp/ccOWj8hl.s:104593  .debug_str:000000000004663d .LASF6728
     /tmp/ccOWj8hl.s:94647  .debug_str:000000000001db58 .LASF6729
     /tmp/ccOWj8hl.s:90853  .debug_str:000000000000e853 .LASF6730
     /tmp/ccOWj8hl.s:94709  .debug_str:000000000001e067 .LASF6731
     /tmp/ccOWj8hl.s:88299  .debug_str:0000000000004160 .LASF6732
     /tmp/ccOWj8hl.s:90855  .debug_str:000000000000e85a .LASF6733
     /tmp/ccOWj8hl.s:88689  .debug_str:0000000000005b69 .LASF6734
     /tmp/ccOWj8hl.s:103015  .debug_str:000000000003fe23 .LASF6735
     /tmp/ccOWj8hl.s:93553  .debug_str:0000000000019508 .LASF6736
     /tmp/ccOWj8hl.s:101559  .debug_str:0000000000039d29 .LASF6737
     /tmp/ccOWj8hl.s:87773  .debug_str:0000000000001c15 .LASF6738
     /tmp/ccOWj8hl.s:90859  .debug_str:000000000000e889 .LASF6739
     /tmp/ccOWj8hl.s:87695  .debug_str:0000000000001671 .LASF6740
     /tmp/ccOWj8hl.s:105883  .debug_str:000000000004bffc .LASF6741
     /tmp/ccOWj8hl.s:90861  .debug_str:000000000000e890 .LASF6742
     /tmp/ccOWj8hl.s:105773  .debug_str:000000000004b848 .LASF6743
     /tmp/ccOWj8hl.s:102043  .debug_str:000000000003be59 .LASF6744
     /tmp/ccOWj8hl.s:90863  .debug_str:000000000000e897 .LASF6745
     /tmp/ccOWj8hl.s:102405  .debug_str:000000000003d4e6 .LASF6746
     /tmp/ccOWj8hl.s:94299  .debug_str:000000000001c377 .LASF6747
     /tmp/ccOWj8hl.s:92371  .debug_str:0000000000014757 .LASF6748
     /tmp/ccOWj8hl.s:102225  .debug_str:000000000003c9b4 .LASF6749
     /tmp/ccOWj8hl.s:94471  .debug_str:000000000001cfcf .LASF6750
     /tmp/ccOWj8hl.s:90921  .debug_str:000000000000ec21 .LASF6751
     /tmp/ccOWj8hl.s:89559  .debug_str:000000000000960b .LASF6752
     /tmp/ccOWj8hl.s:102741  .debug_str:000000000003ecae .LASF6753
     /tmp/ccOWj8hl.s:90923  .debug_str:000000000000ec28 .LASF6754
     /tmp/ccOWj8hl.s:102429  .debug_str:000000000003d66b .LASF6755
     /tmp/ccOWj8hl.s:91963  .debug_str:0000000000012e22 .LASF6756
     /tmp/ccOWj8hl.s:90925  .debug_str:000000000000ec2f .LASF6757
     /tmp/ccOWj8hl.s:96621  .debug_str:0000000000025c53 .LASF6758
     /tmp/ccOWj8hl.s:99773  .debug_str:0000000000032d4f .LASF6759
     /tmp/ccOWj8hl.s:90927  .debug_str:000000000000ec36 .LASF6760
     /tmp/ccOWj8hl.s:90515  .debug_str:000000000000d58a .LASF6761
     /tmp/ccOWj8hl.s:88879  .debug_str:000000000000687b .LASF6762
     /tmp/ccOWj8hl.s:90929  .debug_str:000000000000ec3d .LASF6763
     /tmp/ccOWj8hl.s:103369  .debug_str:0000000000041644 .LASF6764
     /tmp/ccOWj8hl.s:92353  .debug_str:0000000000014622 .LASF6765
     /tmp/ccOWj8hl.s:92395  .debug_str:00000000000148d6 .LASF6766
     /tmp/ccOWj8hl.s:97589  .debug_str:0000000000029c82 .LASF6767
     /tmp/ccOWj8hl.s:100301  .debug_str:0000000000035035 .LASF6768
     /tmp/ccOWj8hl.s:90933  .debug_str:000000000000ec72 .LASF6769
     /tmp/ccOWj8hl.s:88821  .debug_str:0000000000006420 .LASF6770
     /tmp/ccOWj8hl.s:100667  .debug_str:00000000000365b6 .LASF6771
     /tmp/ccOWj8hl.s:90935  .debug_str:000000000000ec79 .LASF6772
     /tmp/ccOWj8hl.s:104301  .debug_str:000000000004528d .LASF6773
     /tmp/ccOWj8hl.s:98589  .debug_str:000000000002dde7 .LASF6774
     /tmp/ccOWj8hl.s:92403  .debug_str:000000000001496c .LASF6775
     /tmp/ccOWj8hl.s:101143  .debug_str:00000000000380b8 .LASF6776
     /tmp/ccOWj8hl.s:95079  .debug_str:000000000001fa43 .LASF6777
     /tmp/ccOWj8hl.s:91001  .debug_str:000000000000f174 .LASF6778
     /tmp/ccOWj8hl.s:99533  .debug_str:0000000000031d84 .LASF6779
     /tmp/ccOWj8hl.s:92121  .debug_str:00000000000137f1 .LASF6780
     /tmp/ccOWj8hl.s:91003  .debug_str:000000000000f17b .LASF6781
     /tmp/ccOWj8hl.s:104321  .debug_str:00000000000453c6 .LASF6782
     /tmp/ccOWj8hl.s:88655  .debug_str:0000000000005987 .LASF6783
     /tmp/ccOWj8hl.s:91005  .debug_str:000000000000f182 .LASF6784
     /tmp/ccOWj8hl.s:98539  .debug_str:000000000002dabf .LASF6785
     /tmp/ccOWj8hl.s:92589  .debug_str:000000000001550a .LASF6786
     /tmp/ccOWj8hl.s:91007  .debug_str:000000000000f189 .LASF6787
     /tmp/ccOWj8hl.s:92513  .debug_str:00000000000150ce .LASF6788
     /tmp/ccOWj8hl.s:92569  .debug_str:000000000001540a .LASF6789
     /tmp/ccOWj8hl.s:91009  .debug_str:000000000000f190 .LASF6790
     /tmp/ccOWj8hl.s:105219  .debug_str:00000000000490eb .LASF6791
     /tmp/ccOWj8hl.s:91565  .debug_str:000000000001138a .LASF6792
     /tmp/ccOWj8hl.s:91011  .debug_str:000000000000f197 .LASF6793
     /tmp/ccOWj8hl.s:92553  .debug_str:00000000000152b7 .LASF6794
     /tmp/ccOWj8hl.s:94171  .debug_str:000000000001bb64 .LASF6795
     /tmp/ccOWj8hl.s:92539  .debug_str:0000000000015245 .LASF6796
     /tmp/ccOWj8hl.s:98739  .debug_str:000000000002e84b .LASF6797
     /tmp/ccOWj8hl.s:97905  .debug_str:000000000002b0cf .LASF6798
     /tmp/ccOWj8hl.s:92541  .debug_str:000000000001524c .LASF6799
     /tmp/ccOWj8hl.s:87523  .debug_str:0000000000000ad2 .LASF6800
     /tmp/ccOWj8hl.s:99603  .debug_str:0000000000032228 .LASF6801
     /tmp/ccOWj8hl.s:92543  .debug_str:0000000000015253 .LASF6802
     /tmp/ccOWj8hl.s:100339  .debug_str:0000000000035288 .LASF6803
     /tmp/ccOWj8hl.s:88647  .debug_str:000000000000591a .LASF6804
     /tmp/ccOWj8hl.s:92545  .debug_str:000000000001525a .LASF6805
     /tmp/ccOWj8hl.s:94433  .debug_str:000000000001cd11 .LASF6806
     /tmp/ccOWj8hl.s:102675  .debug_str:000000000003e845 .LASF6807
     /tmp/ccOWj8hl.s:91089  .debug_str:000000000000f67c .LASF6808
     /tmp/ccOWj8hl.s:87537  .debug_str:0000000000000b9c .LASF6809
     /tmp/ccOWj8hl.s:93363  .debug_str:000000000001881d .LASF6810
     /tmp/ccOWj8hl.s:91091  .debug_str:000000000000f683 .LASF6811
     /tmp/ccOWj8hl.s:102739  .debug_str:000000000003ec8d .LASF6812
     /tmp/ccOWj8hl.s:103967  .debug_str:0000000000043c8d .LASF6813
     /tmp/ccOWj8hl.s:91093  .debug_str:000000000000f68a .LASF6814
     /tmp/ccOWj8hl.s:94455  .debug_str:000000000001cec0 .LASF6815
     /tmp/ccOWj8hl.s:89723  .debug_str:000000000000a098 .LASF6816
     /tmp/ccOWj8hl.s:91095  .debug_str:000000000000f691 .LASF6817
     /tmp/ccOWj8hl.s:104007  .debug_str:0000000000043f07 .LASF6818
     /tmp/ccOWj8hl.s:98179  .debug_str:000000000002c1ce .LASF6819
     /tmp/ccOWj8hl.s:91097  .debug_str:000000000000f698 .LASF6820
     /tmp/ccOWj8hl.s:101343  .debug_str:0000000000038e3b .LASF6821
     /tmp/ccOWj8hl.s:91499  .debug_str:0000000000010ee1 .LASF6822
     /tmp/ccOWj8hl.s:91099  .debug_str:000000000000f69f .LASF6823
     /tmp/ccOWj8hl.s:95427  .debug_str:000000000002117a .LASF6824
     /tmp/ccOWj8hl.s:104825  .debug_str:00000000000474ff .LASF6825
     /tmp/ccOWj8hl.s:91101  .debug_str:000000000000f6a6 .LASF6826
     /tmp/ccOWj8hl.s:89337  .debug_str:0000000000008628 .LASF6827
     /tmp/ccOWj8hl.s:93559  .debug_str:0000000000019572 .LASF6828
     /tmp/ccOWj8hl.s:91103  .debug_str:000000000000f6ad .LASF6829
     /tmp/ccOWj8hl.s:102183  .debug_str:000000000003c6ea .LASF6830
     /tmp/ccOWj8hl.s:105613  .debug_str:000000000004ae42 .LASF6831
     /tmp/ccOWj8hl.s:91105  .debug_str:000000000000f6b4 .LASF6832
     /tmp/ccOWj8hl.s:96355  .debug_str:0000000000024ab7 .LASF6833
     /tmp/ccOWj8hl.s:87791  .debug_str:0000000000001d28 .LASF6834
     /tmp/ccOWj8hl.s:91107  .debug_str:000000000000f6bb .LASF6835
     /tmp/ccOWj8hl.s:90273  .debug_str:000000000000c659 .LASF6836
     /tmp/ccOWj8hl.s:89067  .debug_str:00000000000074b1 .LASF6837
     /tmp/ccOWj8hl.s:91151  .debug_str:000000000000f9a8 .LASF6838
     /tmp/ccOWj8hl.s:102355  .debug_str:000000000003d1ed .LASF6839
     /tmp/ccOWj8hl.s:97811  .debug_str:000000000002aad9 .LASF6840
     /tmp/ccOWj8hl.s:91153  .debug_str:000000000000f9af .LASF6841
     /tmp/ccOWj8hl.s:96523  .debug_str:0000000000025657 .LASF6842
     /tmp/ccOWj8hl.s:101323  .debug_str:0000000000038d4f .LASF6843
     /tmp/ccOWj8hl.s:91155  .debug_str:000000000000f9b6 .LASF6844
     /tmp/ccOWj8hl.s:90437  .debug_str:000000000000d118 .LASF6845
     /tmp/ccOWj8hl.s:102305  .debug_str:000000000003ceee .LASF6846
     /tmp/ccOWj8hl.s:94505  .debug_str:000000000001d24d .LASF6847
     /tmp/ccOWj8hl.s:103295  .debug_str:0000000000041178 .LASF6848
     /tmp/ccOWj8hl.s:102077  .debug_str:000000000003c0f3 .LASF6849
     /tmp/ccOWj8hl.s:91159  .debug_str:000000000000f9de .LASF6850
     /tmp/ccOWj8hl.s:97513  .debug_str:00000000000296a4 .LASF6851
     /tmp/ccOWj8hl.s:92685  .debug_str:0000000000015b38 .LASF6852
     /tmp/ccOWj8hl.s:91161  .debug_str:000000000000f9e5 .LASF6853
     /tmp/ccOWj8hl.s:87573  .debug_str:0000000000000e3c .LASF6854
     /tmp/ccOWj8hl.s:101227  .debug_str:0000000000038635 .LASF6855
     /tmp/ccOWj8hl.s:91163  .debug_str:000000000000f9ec .LASF6856
     /tmp/ccOWj8hl.s:93707  .debug_str:0000000000019f06 .LASF6857
     /tmp/ccOWj8hl.s:99253  .debug_str:0000000000030abc .LASF6858
     /tmp/ccOWj8hl.s:91165  .debug_str:000000000000f9f3 .LASF6859
     /tmp/ccOWj8hl.s:98443  .debug_str:000000000002d3e9 .LASF6860
     /tmp/ccOWj8hl.s:98435  .debug_str:000000000002d351 .LASF6861
     /tmp/ccOWj8hl.s:91167  .debug_str:000000000000f9fa .LASF6862
     /tmp/ccOWj8hl.s:105825  .debug_str:000000000004bb79 .LASF6863
     /tmp/ccOWj8hl.s:94181  .debug_str:000000000001bbec .LASF6864
     /tmp/ccOWj8hl.s:91169  .debug_str:000000000000fa01 .LASF6865
     /tmp/ccOWj8hl.s:105123  .debug_str:0000000000048a57 .LASF6866
     /tmp/ccOWj8hl.s:87713  .debug_str:00000000000017fe .LASF6867
     /tmp/ccOWj8hl.s:92977  .debug_str:0000000000016f6c .LASF6868
     /tmp/ccOWj8hl.s:98465  .debug_str:000000000002d5bd .LASF6869
     /tmp/ccOWj8hl.s:89589  .debug_str:0000000000009794 .LASF6870
     /tmp/ccOWj8hl.s:92981  .debug_str:0000000000016fa7 .LASF6871
     /tmp/ccOWj8hl.s:92457  .debug_str:0000000000014d0b .LASF6872
     /tmp/ccOWj8hl.s:89593  .debug_str:00000000000097b6 .LASF6873
     /tmp/ccOWj8hl.s:91237  .debug_str:000000000000fe61 .LASF6874
     /tmp/ccOWj8hl.s:105149  .debug_str:0000000000048c2f .LASF6875
     /tmp/ccOWj8hl.s:100825  .debug_str:0000000000036db4 .LASF6876
     /tmp/ccOWj8hl.s:91239  .debug_str:000000000000fe68 .LASF6877
     /tmp/ccOWj8hl.s:91235  .debug_str:000000000000fe40 .LASF6878
     /tmp/ccOWj8hl.s:100803  .debug_str:0000000000036c2c .LASF6879
     /tmp/ccOWj8hl.s:91241  .debug_str:000000000000fe6f .LASF6880
     /tmp/ccOWj8hl.s:93371  .debug_str:0000000000018887 .LASF6881
     /tmp/ccOWj8hl.s:100807  .debug_str:0000000000036c76 .LASF6882
     /tmp/ccOWj8hl.s:91243  .debug_str:000000000000fe76 .LASF6883
     /tmp/ccOWj8hl.s:87451  .debug_str:0000000000000653 .LASF6884
     /tmp/ccOWj8hl.s:101113  .debug_str:0000000000037e8f .LASF6885
     /tmp/ccOWj8hl.s:91245  .debug_str:000000000000fe7d .LASF6886
     /tmp/ccOWj8hl.s:100269  .debug_str:0000000000034e55 .LASF6887
     /tmp/ccOWj8hl.s:96367  .debug_str:0000000000024b74 .LASF6888
     /tmp/ccOWj8hl.s:91247  .debug_str:000000000000fe84 .LASF6889
     /tmp/ccOWj8hl.s:94363  .debug_str:000000000001c847 .LASF6890
     /tmp/ccOWj8hl.s:96371  .debug_str:0000000000024bc3 .LASF6891
     /tmp/ccOWj8hl.s:91249  .debug_str:000000000000fe8b .LASF6892
     /tmp/ccOWj8hl.s:88347  .debug_str:00000000000043ef .LASF6893
     /tmp/ccOWj8hl.s:102065  .debug_str:000000000003c003 .LASF6894
     /tmp/ccOWj8hl.s:92999  .debug_str:00000000000170a7 .LASF6895
     /tmp/ccOWj8hl.s:90381  .debug_str:000000000000cd67 .LASF6896
     /tmp/ccOWj8hl.s:93967  .debug_str:000000000001ae9f .LASF6897
     /tmp/ccOWj8hl.s:91321  .debug_str:00000000000103bc .LASF6898
     /tmp/ccOWj8hl.s:94375  .debug_str:000000000001c8fe .LASF6899
     /tmp/ccOWj8hl.s:93971  .debug_str:000000000001aeca .LASF6900
     /tmp/ccOWj8hl.s:93135  .debug_str:00000000000179c9 .LASF6901
     /tmp/ccOWj8hl.s:88363  .debug_str:00000000000044e4 .LASF6902
     /tmp/ccOWj8hl.s:101277  .debug_str:000000000003899e .LASF6903
     /tmp/ccOWj8hl.s:93139  .debug_str:0000000000017a11 .LASF6904
     /tmp/ccOWj8hl.s:101281  .debug_str:00000000000389d9 .LASF6905
     /tmp/ccOWj8hl.s:89395  .debug_str:0000000000008a7c .LASF6906
     /tmp/ccOWj8hl.s:93143  .debug_str:0000000000017a1f .LASF6907
     /tmp/ccOWj8hl.s:95343  .debug_str:0000000000020bfe .LASF6908
     /tmp/ccOWj8hl.s:89399  .debug_str:0000000000008aa7 .LASF6909
     /tmp/ccOWj8hl.s:91329  .debug_str:000000000001042b .LASF6910
     /tmp/ccOWj8hl.s:89273  .debug_str:00000000000081ff .LASF6911
     /tmp/ccOWj8hl.s:92529  .debug_str:00000000000151aa .LASF6912
     /tmp/ccOWj8hl.s:91331  .debug_str:0000000000010432 .LASF6913
     /tmp/ccOWj8hl.s:102093  .debug_str:000000000003c1bf .LASF6914
     /tmp/ccOWj8hl.s:94879  .debug_str:000000000001ec93 .LASF6915
     /tmp/ccOWj8hl.s:91333  .debug_str:0000000000010439 .LASF6916
     /tmp/ccOWj8hl.s:96267  .debug_str:000000000002450a .LASF6917
     /tmp/ccOWj8hl.s:94881  .debug_str:000000000001eca1 .LASF6918
     /tmp/ccOWj8hl.s:91335  .debug_str:0000000000010440 .LASF6919
     /tmp/ccOWj8hl.s:90193  .debug_str:000000000000c113 .LASF6920
     /tmp/ccOWj8hl.s:98347  .debug_str:000000000002cdb4 .LASF6921
     /tmp/ccOWj8hl.s:93159  .debug_str:0000000000017a99 .LASF6922
     /tmp/ccOWj8hl.s:103039  .debug_str:000000000003ffde .LASF6923
     /tmp/ccOWj8hl.s:90291  .debug_str:000000000000c7c4 .LASF6924
     /tmp/ccOWj8hl.s:91339  .debug_str:0000000000010471 .LASF6925
     /tmp/ccOWj8hl.s:97235  .debug_str:00000000000285a0 .LASF6926
     /tmp/ccOWj8hl.s:90295  .debug_str:000000000000c807 .LASF6927
     /tmp/ccOWj8hl.s:91411  .debug_str:000000000001098d .LASF6928
     /tmp/ccOWj8hl.s:90223  .debug_str:000000000000c34c .LASF6929
     /tmp/ccOWj8hl.s:93633  .debug_str:0000000000019ac0 .LASF6930
     /tmp/ccOWj8hl.s:91413  .debug_str:0000000000010994 .LASF6931
     /tmp/ccOWj8hl.s:103061  .debug_str:00000000000401af .LASF6932
     /tmp/ccOWj8hl.s:104305  .debug_str:00000000000452c1 .LASF6933
     /tmp/ccOWj8hl.s:91415  .debug_str:000000000001099b .LASF6934
     /tmp/ccOWj8hl.s:97255  .debug_str:00000000000286d6 .LASF6935
     /tmp/ccOWj8hl.s:104311  .debug_str:0000000000045311 .LASF6936
     /tmp/ccOWj8hl.s:95237  .debug_str:0000000000020596 .LASF6937
     /tmp/ccOWj8hl.s:104367  .debug_str:000000000004568a .LASF6938
     /tmp/ccOWj8hl.s:92743  .debug_str:0000000000015f5f .LASF6939
     /tmp/ccOWj8hl.s:91419  .debug_str:00000000000109cc .LASF6940
     /tmp/ccOWj8hl.s:103989  .debug_str:0000000000043db9 .LASF6941
     /tmp/ccOWj8hl.s:104123  .debug_str:00000000000446fb .LASF6942
     /tmp/ccOWj8hl.s:91421  .debug_str:00000000000109d3 .LASF6943
     /tmp/ccOWj8hl.s:98217  .debug_str:000000000002c4ac .LASF6944
     /tmp/ccOWj8hl.s:104127  .debug_str:0000000000044737 .LASF6945
     /tmp/ccOWj8hl.s:91423  .debug_str:00000000000109da .LASF6946
     /tmp/ccOWj8hl.s:92165  .debug_str:0000000000013a96 .LASF6947
     /tmp/ccOWj8hl.s:102455  .debug_str:000000000003d804 .LASF6948
     /tmp/ccOWj8hl.s:91425  .debug_str:00000000000109e1 .LASF6949
     /tmp/ccOWj8hl.s:91357  .debug_str:0000000000010595 .LASF6950
     /tmp/ccOWj8hl.s:97395  .debug_str:0000000000028f9b .LASF6951
     /tmp/ccOWj8hl.s:91427  .debug_str:00000000000109e8 .LASF6952
     /tmp/ccOWj8hl.s:99099  .debug_str:000000000002ff07 .LASF6953
     /tmp/ccOWj8hl.s:100695  .debug_str:000000000003673a .LASF6954
     /tmp/ccOWj8hl.s:91429  .debug_str:00000000000109ef .LASF6955
     /tmp/ccOWj8hl.s:93113  .debug_str:0000000000017833 .LASF6956
     /tmp/ccOWj8hl.s:100487  .debug_str:0000000000035b87 .LASF6957
     /tmp/ccOWj8hl.s:95899  .debug_str:00000000000231ad .LASF6958
     /tmp/ccOWj8hl.s:100705  .debug_str:00000000000367b2 .LASF6959
     /tmp/ccOWj8hl.s:100491  .debug_str:0000000000035bbe .LASF6960
     /tmp/ccOWj8hl.s:95901  .debug_str:00000000000231b4 .LASF6961
     /tmp/ccOWj8hl.s:94781  .debug_str:000000000001e529 .LASF6962
     /tmp/ccOWj8hl.s:100739  .debug_str:0000000000036904 .LASF6963
     /tmp/ccOWj8hl.s:95903  .debug_str:00000000000231bb .LASF6964
     /tmp/ccOWj8hl.s:88755  .debug_str:0000000000005fa0 .LASF6965
     /tmp/ccOWj8hl.s:96041  .debug_str:0000000000023a78 .LASF6966
     /tmp/ccOWj8hl.s:95905  .debug_str:00000000000231c2 .LASF6967
     /tmp/ccOWj8hl.s:101629  .debug_str:000000000003a1f9 .LASF6968
     /tmp/ccOWj8hl.s:96045  .debug_str:0000000000023a97 .LASF6969
     /tmp/ccOWj8hl.s:95907  .debug_str:00000000000231c9 .LASF6970
     /tmp/ccOWj8hl.s:95699  .debug_str:0000000000022424 .LASF6971
     /tmp/ccOWj8hl.s:92631  .debug_str:000000000001580b .LASF6972
     /tmp/ccOWj8hl.s:95909  .debug_str:00000000000231d0 .LASF6973
     /tmp/ccOWj8hl.s:105841  .debug_str:000000000004bcbb .LASF6974
     /tmp/ccOWj8hl.s:94515  .debug_str:000000000001d2dc .LASF6975
     /tmp/ccOWj8hl.s:95911  .debug_str:00000000000231d7 .LASF6976
     /tmp/ccOWj8hl.s:105249  .debug_str:0000000000049375 .LASF6977
     /tmp/ccOWj8hl.s:100703  .debug_str:00000000000367a2 .LASF6978
     /tmp/ccOWj8hl.s:95913  .debug_str:00000000000231de .LASF6979
     /tmp/ccOWj8hl.s:96663  .debug_str:0000000000025f9e .LASF6980
     /tmp/ccOWj8hl.s:104223  .debug_str:0000000000044d80 .LASF6981
     /tmp/ccOWj8hl.s:95915  .debug_str:00000000000231e5 .LASF6982
     /tmp/ccOWj8hl.s:90567  .debug_str:000000000000d8af .LASF6983
     /tmp/ccOWj8hl.s:101747  .debug_str:000000000003aa12 .LASF6984
     /tmp/ccOWj8hl.s:95917  .debug_str:00000000000231ec .LASF6985
     /tmp/ccOWj8hl.s:103423  .debug_str:0000000000041a54 .LASF6986
     /tmp/ccOWj8hl.s:89165  .debug_str:0000000000007a91 .LASF6987
     /tmp/ccOWj8hl.s:95973  .debug_str:00000000000236bb .LASF6988
     /tmp/ccOWj8hl.s:96685  .debug_str:00000000000260fa .LASF6989
     /tmp/ccOWj8hl.s:89167  .debug_str:0000000000007aa0 .LASF6990
     /tmp/ccOWj8hl.s:95975  .debug_str:00000000000236c2 .LASF6991
     /tmp/ccOWj8hl.s:90595  .debug_str:000000000000da96 .LASF6992
     /tmp/ccOWj8hl.s:89407  .debug_str:0000000000008b12 .LASF6993
     /tmp/ccOWj8hl.s:95977  .debug_str:00000000000236c9 .LASF6994
     /tmp/ccOWj8hl.s:103449  .debug_str:0000000000041bbb .LASF6995
     /tmp/ccOWj8hl.s:103503  .debug_str:0000000000041f33 .LASF6996
     /tmp/ccOWj8hl.s:95979  .debug_str:00000000000236d0 .LASF6997
     /tmp/ccOWj8hl.s:97667  .debug_str:000000000002a12e .LASF6998
     /tmp/ccOWj8hl.s:103507  .debug_str:0000000000041f4c .LASF6999
     /tmp/ccOWj8hl.s:102285  .debug_str:000000000003cdd5 .LASF7000
     /tmp/ccOWj8hl.s:91629  .debug_str:000000000001183f .LASF7001
     /tmp/ccOWj8hl.s:93309  .debug_str:000000000001843e .LASF7002
     /tmp/ccOWj8hl.s:95983  .debug_str:0000000000023716 .LASF7003
     /tmp/ccOWj8hl.s:104365  .debug_str:0000000000045669 .LASF7004
     /tmp/ccOWj8hl.s:89655  .debug_str:0000000000009bec .LASF7005
     /tmp/ccOWj8hl.s:95985  .debug_str:000000000002371d .LASF7006
     /tmp/ccOWj8hl.s:98581  .debug_str:000000000002dd65 .LASF7007
     /tmp/ccOWj8hl.s:89659  .debug_str:0000000000009c00 .LASF7008
     /tmp/ccOWj8hl.s:95987  .debug_str:0000000000023724 .LASF7009
     /tmp/ccOWj8hl.s:92557  .debug_str:000000000001531b .LASF7010
     /tmp/ccOWj8hl.s:102059  .debug_str:000000000003bfb4 .LASF7011
     /tmp/ccOWj8hl.s:95989  .debug_str:000000000002372b .LASF7012
     /tmp/ccOWj8hl.s:105271  .debug_str:00000000000494fb .LASF7013
     /tmp/ccOWj8hl.s:100323  .debug_str:0000000000035170 .LASF7014
     /tmp/ccOWj8hl.s:95991  .debug_str:0000000000023732 .LASF7015
     /tmp/ccOWj8hl.s:99487  .debug_str:0000000000031a62 .LASF7016
     /tmp/ccOWj8hl.s:95969  .debug_str:00000000000236a0 .LASF7017
     /tmp/ccOWj8hl.s:96065  .debug_str:0000000000023bfb .LASF7018
     /tmp/ccOWj8hl.s:89697  .debug_str:0000000000009ea8 .LASF7019
     /tmp/ccOWj8hl.s:103983  .debug_str:0000000000043d9c .LASF7020
     /tmp/ccOWj8hl.s:96067  .debug_str:0000000000023c02 .LASF7021
     /tmp/ccOWj8hl.s:95895  .debug_str:000000000002317f .LASF7022
     /tmp/ccOWj8hl.s:103985  .debug_str:0000000000043da7 .LASF7023
     /tmp/ccOWj8hl.s:102445  .debug_str:000000000003d795 .LASF7024
     /tmp/ccOWj8hl.s:99513  .debug_str:0000000000031c09 .LASF7025
     /tmp/ccOWj8hl.s:104289  .debug_str:000000000004519e .LASF7026
     /tmp/ccOWj8hl.s:96071  .debug_str:0000000000023c3e .LASF7027
     /tmp/ccOWj8hl.s:93527  .debug_str:0000000000019300 .LASF7028
     /tmp/ccOWj8hl.s:88649  .debug_str:0000000000005929 .LASF7029
     /tmp/ccOWj8hl.s:96073  .debug_str:0000000000023c45 .LASF7030
     /tmp/ccOWj8hl.s:87583  .debug_str:0000000000000eed .LASF7031
     /tmp/ccOWj8hl.s:98315  .debug_str:000000000002cb58 .LASF7032
     /tmp/ccOWj8hl.s:96075  .debug_str:0000000000023c4c .LASF7033
     /tmp/ccOWj8hl.s:100419  .debug_str:0000000000035736 .LASF7034
     /tmp/ccOWj8hl.s:89229  .debug_str:0000000000007f07 .LASF7035
     /tmp/ccOWj8hl.s:96077  .debug_str:0000000000023c53 .LASF7036
     /tmp/ccOWj8hl.s:94495  .debug_str:000000000001d1c5 .LASF7037
     /tmp/ccOWj8hl.s:99411  .debug_str:0000000000031535 .LASF7038
     /tmp/ccOWj8hl.s:96079  .debug_str:0000000000023c5a .LASF7039
     /tmp/ccOWj8hl.s:88483  .debug_str:0000000000004d8d .LASF7040
     /tmp/ccOWj8hl.s:98209  .debug_str:000000000002c43c .LASF7041
     /tmp/ccOWj8hl.s:96081  .debug_str:0000000000023c61 .LASF7042
     /tmp/ccOWj8hl.s:101379  .debug_str:0000000000039045 .LASF7043
     /tmp/ccOWj8hl.s:98253  .debug_str:000000000002c6d8 .LASF7044
     /tmp/ccOWj8hl.s:96083  .debug_str:0000000000023c68 .LASF7045
     /tmp/ccOWj8hl.s:95465  .debug_str:0000000000021457 .LASF7046
     /tmp/ccOWj8hl.s:99493  .debug_str:0000000000031afd .LASF7047
     /tmp/ccOWj8hl.s:96155  .debug_str:000000000002405a .LASF7048
     /tmp/ccOWj8hl.s:101065  .debug_str:0000000000037b60 .LASF7049
     /tmp/ccOWj8hl.s:92739  .debug_str:0000000000015f3c .LASF7050
     /tmp/ccOWj8hl.s:96157  .debug_str:0000000000024061 .LASF7051
     /tmp/ccOWj8hl.s:101401  .debug_str:00000000000391b8 .LASF7052
     /tmp/ccOWj8hl.s:101529  .debug_str:0000000000039b65 .LASF7053
     /tmp/ccOWj8hl.s:96159  .debug_str:0000000000024068 .LASF7054
     /tmp/ccOWj8hl.s:95479  .debug_str:0000000000021556 .LASF7055
     /tmp/ccOWj8hl.s:100359  .debug_str:0000000000035433 .LASF7056
     /tmp/ccOWj8hl.s:96161  .debug_str:000000000002406f .LASF7057
     /tmp/ccOWj8hl.s:89391  .debug_str:0000000000008a3c .LASF7058
     /tmp/ccOWj8hl.s:104865  .debug_str:0000000000047890 .LASF7059
     /tmp/ccOWj8hl.s:96163  .debug_str:0000000000024076 .LASF7060
     /tmp/ccOWj8hl.s:92669  .debug_str:0000000000015a02 .LASF7061
     /tmp/ccOWj8hl.s:97865  .debug_str:000000000002ae54 .LASF7062
     /tmp/ccOWj8hl.s:96165  .debug_str:000000000002407d .LASF7063
     /tmp/ccOWj8hl.s:96407  .debug_str:0000000000024dfb .LASF7064
     /tmp/ccOWj8hl.s:97867  .debug_str:000000000002ae60 .LASF7065
     /tmp/ccOWj8hl.s:96167  .debug_str:0000000000024084 .LASF7066
     /tmp/ccOWj8hl.s:90331  .debug_str:000000000000ca2f .LASF7067
     /tmp/ccOWj8hl.s:97869  .debug_str:000000000002ae6c .LASF7068
     /tmp/ccOWj8hl.s:96169  .debug_str:000000000002408b .LASF7069
     /tmp/ccOWj8hl.s:103189  .debug_str:0000000000040ade .LASF7070
     /tmp/ccOWj8hl.s:92779  .debug_str:00000000000161d5 .LASF7071
     /tmp/ccOWj8hl.s:96171  .debug_str:0000000000024092 .LASF7072
     /tmp/ccOWj8hl.s:97401  .debug_str:0000000000028fe4 .LASF7073
     /tmp/ccOWj8hl.s:88983  .debug_str:0000000000006f6c .LASF7074
     /tmp/ccOWj8hl.s:96173  .debug_str:0000000000024099 .LASF7075
     /tmp/ccOWj8hl.s:91309  .debug_str:00000000000102f5 .LASF7076
     /tmp/ccOWj8hl.s:92785  .debug_str:000000000001622c .LASF7077
     /tmp/ccOWj8hl.s:96239  .debug_str:0000000000024480 .LASF7078
     /tmp/ccOWj8hl.s:103215  .debug_str:0000000000040cae .LASF7079
     /tmp/ccOWj8hl.s:96579  .debug_str:000000000002596a .LASF7080
     /tmp/ccOWj8hl.s:96241  .debug_str:0000000000024487 .LASF7081
     /tmp/ccOWj8hl.s:97421  .debug_str:00000000000290eb .LASF7082
     /tmp/ccOWj8hl.s:99717  .debug_str:00000000000329b3 .LASF7083
     /tmp/ccOWj8hl.s:96243  .debug_str:000000000002448e .LASF7084
     /tmp/ccOWj8hl.s:91343  .debug_str:0000000000010488 .LASF7085
     /tmp/ccOWj8hl.s:90487  .debug_str:000000000000d3d5 .LASF7086
     /tmp/ccOWj8hl.s:96245  .debug_str:0000000000024495 .LASF7087
     /tmp/ccOWj8hl.s:104121  .debug_str:00000000000446da .LASF7088
     /tmp/ccOWj8hl.s:96965  .debug_str:00000000000273b9 .LASF7089
     /tmp/ccOWj8hl.s:96247  .debug_str:000000000002449c .LASF7090
     /tmp/ccOWj8hl.s:89803  .debug_str:000000000000a5f4 .LASF7091
     /tmp/ccOWj8hl.s:90491  .debug_str:000000000000d404 .LASF7092
     /tmp/ccOWj8hl.s:96249  .debug_str:00000000000244a3 .LASF7093
     /tmp/ccOWj8hl.s:99701  .debug_str:00000000000328ef .LASF7094
     /tmp/ccOWj8hl.s:105755  .debug_str:000000000004b75d .LASF7095
     /tmp/ccOWj8hl.s:96251  .debug_str:00000000000244aa .LASF7096
     /tmp/ccOWj8hl.s:105029  .debug_str:00000000000483f7 .LASF7097
     /tmp/ccOWj8hl.s:105757  .debug_str:000000000004b767 .LASF7098
     /tmp/ccOWj8hl.s:96253  .debug_str:00000000000244b1 .LASF7099
     /tmp/ccOWj8hl.s:89385  .debug_str:00000000000089b7 .LASF7100
     /tmp/ccOWj8hl.s:105759  .debug_str:000000000004b771 .LASF7101
     /tmp/ccOWj8hl.s:96255  .debug_str:00000000000244b8 .LASF7102
     /tmp/ccOWj8hl.s:93245  .debug_str:0000000000017fe7 .LASF7103
     /tmp/ccOWj8hl.s:105761  .debug_str:000000000004b77b .LASF7104
     /tmp/ccOWj8hl.s:96257  .debug_str:00000000000244bf .LASF7105
     /tmp/ccOWj8hl.s:105971  .debug_str:000000000004c606 .LASF7106
     /tmp/ccOWj8hl.s:91735  .debug_str:0000000000011f27 .LASF7107
     /tmp/ccOWj8hl.s:96329  .debug_str:0000000000024951 .LASF7108
     /tmp/ccOWj8hl.s:100123  .debug_str:00000000000344c0 .LASF7109
     /tmp/ccOWj8hl.s:99501  .debug_str:0000000000031b82 .LASF7110
     /tmp/ccOWj8hl.s:90735  .debug_str:000000000000e26f .LASF7111
     /tmp/ccOWj8hl.s:98635  .debug_str:000000000002e13d .LASF7112
     /tmp/ccOWj8hl.s:99503  .debug_str:0000000000031b8e .LASF7113
     /tmp/ccOWj8hl.s:90739  .debug_str:000000000000e28b .LASF7114
     /tmp/ccOWj8hl.s:92623  .debug_str:0000000000015772 .LASF7115
     /tmp/ccOWj8hl.s:99505  .debug_str:0000000000031b9a .LASF7116
     /tmp/ccOWj8hl.s:92077  .debug_str:000000000001354d .LASF7117
     /tmp/ccOWj8hl.s:105349  .debug_str:00000000000499ab .LASF7118
     /tmp/ccOWj8hl.s:102327  .debug_str:000000000003d035 .LASF7119
     /tmp/ccOWj8hl.s:92799  .debug_str:00000000000162eb .LASF7120
     /tmp/ccOWj8hl.s:95649  .debug_str:00000000000220c1 .LASF7121
     /tmp/ccOWj8hl.s:101549  .debug_str:0000000000039ca8 .LASF7122
     /tmp/ccOWj8hl.s:101025  .debug_str:0000000000037842 .LASF7123
     /tmp/ccOWj8hl.s:98759  .debug_str:000000000002e9d1 .LASF7124
     /tmp/ccOWj8hl.s:90719  .debug_str:000000000000e174 .LASF7125
     /tmp/ccOWj8hl.s:103213  .debug_str:0000000000040c88 .LASF7126
     /tmp/ccOWj8hl.s:102457  .debug_str:000000000003d816 .LASF7127
     /tmp/ccOWj8hl.s:90679  .debug_str:000000000000df49 .LASF7128
     /tmp/ccOWj8hl.s:94583  .debug_str:000000000001d758 .LASF7129
     /tmp/ccOWj8hl.s:102343  .debug_str:000000000003d134 .LASF7130
     /tmp/ccOWj8hl.s:89083  .debug_str:000000000000756f .LASF7131
     /tmp/ccOWj8hl.s:91693  .debug_str:0000000000011c2c .LASF7132
     /tmp/ccOWj8hl.s:102453  .debug_str:000000000003d7f8 .LASF7133
     /tmp/ccOWj8hl.s:99825  .debug_str:00000000000330ff .LASF7134
     /tmp/ccOWj8hl.s:101339  .debug_str:0000000000038e1d .LASF7135
     /tmp/ccOWj8hl.s:103447  .debug_str:0000000000041bad .LASF7136
     /tmp/ccOWj8hl.s:96505  .debug_str:0000000000025530 .LASF7137
     /tmp/ccOWj8hl.s:94153  .debug_str:000000000001ba1c .LASF7138
     /tmp/ccOWj8hl.s:97471  .debug_str:00000000000294a0 .LASF7139
     /tmp/ccOWj8hl.s:99197  .debug_str:0000000000030666 .LASF7140
     /tmp/ccOWj8hl.s:101249  .debug_str:00000000000387a9 .LASF7141
     /tmp/ccOWj8hl.s:90665  .debug_str:000000000000de3b .LASF7142
     /tmp/ccOWj8hl.s:104233  .debug_str:0000000000044e1c .LASF7143
     /tmp/ccOWj8hl.s:103597  .debug_str:00000000000424d9 .LASF7144
     /tmp/ccOWj8hl.s:94945  .debug_str:000000000001f172 .LASF7145
     /tmp/ccOWj8hl.s:93453  .debug_str:0000000000018e38 .LASF7146
     /tmp/ccOWj8hl.s:88393  .debug_str:0000000000004751 .LASF7147
     /tmp/ccOWj8hl.s:90229  .debug_str:000000000000c39e .LASF7148
     /tmp/ccOWj8hl.s:95127  .debug_str:000000000001fdd0 .LASF7149
     /tmp/ccOWj8hl.s:103121  .debug_str:0000000000040608 .LASF7150
     /tmp/ccOWj8hl.s:88229  .debug_str:0000000000003bad .LASF7151
     /tmp/ccOWj8hl.s:102635  .debug_str:000000000003e4f5 .LASF7152
     /tmp/ccOWj8hl.s:93717  .debug_str:0000000000019fd6 .LASF7153
     /tmp/ccOWj8hl.s:102213  .debug_str:000000000003c8d7 .LASF7154
     /tmp/ccOWj8hl.s:87901  .debug_str:00000000000024c7 .LASF7155
     /tmp/ccOWj8hl.s:101855  .debug_str:000000000003b161 .LASF7156
     /tmp/ccOWj8hl.s:91365  .debug_str:0000000000010643 .LASF7157
     /tmp/ccOWj8hl.s:99719  .debug_str:00000000000329bb .LASF7158
     /tmp/ccOWj8hl.s:104265  .debug_str:000000000004505b .LASF7159
     /tmp/ccOWj8hl.s:100801  .debug_str:0000000000036c09 .LASF7160
     /tmp/ccOWj8hl.s:88507  .debug_str:0000000000004f0b .LASF7161
     /tmp/ccOWj8hl.s:96715  .debug_str:000000000002636e .LASF7162
     /tmp/ccOWj8hl.s:87395  .debug_str:0000000000000267 .LASF7163
     /tmp/ccOWj8hl.s:97473  .debug_str:00000000000294c8 .LASF7164
     /tmp/ccOWj8hl.s:97195  .debug_str:00000000000282e8 .LASF7165
     /tmp/ccOWj8hl.s:91631  .debug_str:0000000000011860 .LASF7166
     /tmp/ccOWj8hl.s:96783  .debug_str:0000000000026788 .LASF7167
     /tmp/ccOWj8hl.s:88677  .debug_str:0000000000005b00 .LASF7168
     /tmp/ccOWj8hl.s:102859  .debug_str:000000000003f49d .LASF7169
     /tmp/ccOWj8hl.s:102817  .debug_str:000000000003f187 .LASF7170
     /tmp/ccOWj8hl.s:89959  .debug_str:000000000000b109 .LASF7171
     /tmp/ccOWj8hl.s:104519  .debug_str:000000000004617c .LASF7172
     /tmp/ccOWj8hl.s:105161  .debug_str:0000000000048cfc .LASF7173
     /tmp/ccOWj8hl.s:102749  .debug_str:000000000003ecef .LASF7174
     /tmp/ccOWj8hl.s:88603  .debug_str:000000000000562e .LASF7175
     /tmp/ccOWj8hl.s:92401  .debug_str:0000000000014945 .LASF7176
     /tmp/ccOWj8hl.s:92819  .debug_str:0000000000016494 .LASF7177
     /tmp/ccOWj8hl.s:98845  .debug_str:000000000002ef81 .LASF7178
     /tmp/ccOWj8hl.s:99743  .debug_str:0000000000032b22 .LASF7179
     /tmp/ccOWj8hl.s:97695  .debug_str:000000000002a307 .LASF7180
     /tmp/ccOWj8hl.s:105783  .debug_str:000000000004b8e5 .LASF7181
     /tmp/ccOWj8hl.s:95469  .debug_str:0000000000021491 .LASF7182
     /tmp/ccOWj8hl.s:103651  .debug_str:0000000000042829 .LASF7183
     /tmp/ccOWj8hl.s:100895  .debug_str:000000000003711e .LASF7184
     /tmp/ccOWj8hl.s:95451  .debug_str:000000000002132d .LASF7185
     /tmp/ccOWj8hl.s:93193  .debug_str:0000000000017c78 .LASF7186
     /tmp/ccOWj8hl.s:101511  .debug_str:0000000000039a2e .LASF7187
     /tmp/ccOWj8hl.s:90777  .debug_str:000000000000e378 .LASF7188
     /tmp/ccOWj8hl.s:99185  .debug_str:00000000000305a9 .LASF7189
     /tmp/ccOWj8hl.s:100897  .debug_str:0000000000037125 .LASF7190
     /tmp/ccOWj8hl.s:89363  .debug_str:0000000000008841 .LASF7191
     /tmp/ccOWj8hl.s:101671  .debug_str:000000000003a50a .LASF7192
     /tmp/ccOWj8hl.s:99085  .debug_str:000000000002fe36 .LASF7193
     /tmp/ccOWj8hl.s:100145  .debug_str:000000000003462a .LASF7194
     /tmp/ccOWj8hl.s:98229  .debug_str:000000000002c542 .LASF7195
     /tmp/ccOWj8hl.s:103779  .debug_str:0000000000043084 .LASF7196
     /tmp/ccOWj8hl.s:98707  .debug_str:000000000002e5cf .LASF7197
     /tmp/ccOWj8hl.s:104699  .debug_str:0000000000046ce9 .LASF7198
     /tmp/ccOWj8hl.s:103781  .debug_str:0000000000043092 .LASF7199
     /tmp/ccOWj8hl.s:92697  .debug_str:0000000000015bee .LASF7200
     /tmp/ccOWj8hl.s:96607  .debug_str:0000000000025b4e .LASF7201
     /tmp/ccOWj8hl.s:103783  .debug_str:00000000000430a0 .LASF7202
     /tmp/ccOWj8hl.s:105419  .debug_str:0000000000049f9b .LASF7203
     /tmp/ccOWj8hl.s:95689  .debug_str:000000000002239a .LASF7204
     /tmp/ccOWj8hl.s:101451  .debug_str:000000000003958a .LASF7205
     /tmp/ccOWj8hl.s:99619  .debug_str:00000000000322ac .LASF7206
     /tmp/ccOWj8hl.s:89541  .debug_str:00000000000094cd .LASF7207
     /tmp/ccOWj8hl.s:103787  .debug_str:00000000000430f0 .LASF7208
     /tmp/ccOWj8hl.s:93653  .debug_str:0000000000019c08 .LASF7209
     /tmp/ccOWj8hl.s:92687  .debug_str:0000000000015b45 .LASF7210
     /tmp/ccOWj8hl.s:103789  .debug_str:00000000000430fe .LASF7211
     /tmp/ccOWj8hl.s:101187  .debug_str:000000000003838d .LASF7212
     /tmp/ccOWj8hl.s:102955  .debug_str:000000000003fa91 .LASF7213
     /tmp/ccOWj8hl.s:98399  .debug_str:000000000002d0cd .LASF7214
     /tmp/ccOWj8hl.s:98401  .debug_str:000000000002d0df .LASF7215
     /tmp/ccOWj8hl.s:98405  .debug_str:000000000002d11d .LASF7216
     /tmp/ccOWj8hl.s:101387  .debug_str:00000000000390c2 .LASF7217
     /tmp/ccOWj8hl.s:104033  .debug_str:00000000000440d7 .LASF7218
     /tmp/ccOWj8hl.s:102963  .debug_str:000000000003faf1 .LASF7219
     /tmp/ccOWj8hl.s:102965  .debug_str:000000000003fb03 .LASF7220
     /tmp/ccOWj8hl.s:102967  .debug_str:000000000003fb15 .LASF7221
     /tmp/ccOWj8hl.s:102969  .debug_str:000000000003fb27 .LASF7222
     /tmp/ccOWj8hl.s:101389  .debug_str:00000000000390d1 .LASF7223
     /tmp/ccOWj8hl.s:98261  .debug_str:000000000002c75b .LASF7224
     /tmp/ccOWj8hl.s:100385  .debug_str:00000000000354ba .LASF7225
     /tmp/ccOWj8hl.s:104173  .debug_str:0000000000044a84 .LASF7226
     /tmp/ccOWj8hl.s:96421  .debug_str:0000000000024f3a .LASF7227
     /tmp/ccOWj8hl.s:100135  .debug_str:0000000000034581 .LASF7228
     /tmp/ccOWj8hl.s:101425  .debug_str:000000000003938a .LASF7229
     /tmp/ccOWj8hl.s:103743  .debug_str:0000000000042e15 .LASF7230
     /tmp/ccOWj8hl.s:102309  .debug_str:000000000003cf2d .LASF7231
     /tmp/ccOWj8hl.s:105805  .debug_str:000000000004ba1d .LASF7232
     /tmp/ccOWj8hl.s:92617  .debug_str:00000000000156f9 .LASF7233
     /tmp/ccOWj8hl.s:103749  .debug_str:0000000000042e6f .LASF7234
     /tmp/ccOWj8hl.s:87671  .debug_str:00000000000014ba .LASF7235
     /tmp/ccOWj8hl.s:104729  .debug_str:0000000000046ec1 .LASF7236
     /tmp/ccOWj8hl.s:101905  .debug_str:000000000003b546 .LASF7237
     /tmp/ccOWj8hl.s:87415  .debug_str:00000000000003b3 .LASF7238
     /tmp/ccOWj8hl.s:97021  .debug_str:0000000000027825 .LASF7239
     /tmp/ccOWj8hl.s:88955  .debug_str:0000000000006dd2 .LASF7240
     /tmp/ccOWj8hl.s:88803  .debug_str:00000000000062e7 .LASF7241
     /tmp/ccOWj8hl.s:97909  .debug_str:000000000002b0ed .LASF7242
     /tmp/ccOWj8hl.s:97911  .debug_str:000000000002b105 .LASF7243
     /tmp/ccOWj8hl.s:97913  .debug_str:000000000002b11d .LASF7244
     /tmp/ccOWj8hl.s:97915  .debug_str:000000000002b135 .LASF7245
     /tmp/ccOWj8hl.s:103301  .debug_str:0000000000041215 .LASF7246
     /tmp/ccOWj8hl.s:105687  .debug_str:000000000004b2be .LASF7247
     /tmp/ccOWj8hl.s:97917  .debug_str:000000000002b14d .LASF7248
     /tmp/ccOWj8hl.s:91013  .debug_str:000000000000f19e .LASF7249
     /tmp/ccOWj8hl.s:91015  .debug_str:000000000000f1bc .LASF7250
     /tmp/ccOWj8hl.s:91017  .debug_str:000000000000f1da .LASF7251
     /tmp/ccOWj8hl.s:91019  .debug_str:000000000000f1f8 .LASF7252
     /tmp/ccOWj8hl.s:91021  .debug_str:000000000000f216 .LASF7253
     /tmp/ccOWj8hl.s:94791  .debug_str:000000000001e5e2 .LASF7254
     /tmp/ccOWj8hl.s:90707  .debug_str:000000000000e0d4 .LASF7255
     /tmp/ccOWj8hl.s:94795  .debug_str:000000000001e60f .LASF7256
     /tmp/ccOWj8hl.s:94797  .debug_str:000000000001e62c .LASF7257
     /tmp/ccOWj8hl.s:94799  .debug_str:000000000001e649 .LASF7258
     /tmp/ccOWj8hl.s:105865  .debug_str:000000000004becd .LASF7259
     /tmp/ccOWj8hl.s:105867  .debug_str:000000000004bee7 .LASF7260
     /tmp/ccOWj8hl.s:105869  .debug_str:000000000004bf01 .LASF7261
     /tmp/ccOWj8hl.s:105871  .debug_str:000000000004bf1b .LASF7262
     /tmp/ccOWj8hl.s:105873  .debug_str:000000000004bf35 .LASF7263
     /tmp/ccOWj8hl.s:100549  .debug_str:0000000000035e98 .LASF7264
     /tmp/ccOWj8hl.s:102695  .debug_str:000000000003e9b1 .LASF7265
     /tmp/ccOWj8hl.s:103303  .debug_str:000000000004122d .LASF7266
     /tmp/ccOWj8hl.s:102347  .debug_str:000000000003d15f .LASF7267
     /tmp/ccOWj8hl.s:99921  .debug_str:00000000000337e4 .LASF7268
     /tmp/ccOWj8hl.s:89033  .debug_str:00000000000072c2 .LASF7269
     /tmp/ccOWj8hl.s:89035  .debug_str:00000000000072df .LASF7270
     /tmp/ccOWj8hl.s:99931  .debug_str:0000000000033875 .LASF7271
     /tmp/ccOWj8hl.s:87955  .debug_str:0000000000002898 .LASF7272
     /tmp/ccOWj8hl.s:97787  .debug_str:000000000002a914 .LASF7273
     /tmp/ccOWj8hl.s:89039  .debug_str:000000000000731e .LASF7274
     /tmp/ccOWj8hl.s:98119  .debug_str:000000000002be06 .LASF7275
     /tmp/ccOWj8hl.s:98121  .debug_str:000000000002be29 .LASF7276
     /tmp/ccOWj8hl.s:98123  .debug_str:000000000002be4c .LASF7277
     /tmp/ccOWj8hl.s:98125  .debug_str:000000000002be6f .LASF7278
     /tmp/ccOWj8hl.s:98127  .debug_str:000000000002be92 .LASF7279
     /tmp/ccOWj8hl.s:95063  .debug_str:000000000001f956 .LASF7280
     /tmp/ccOWj8hl.s:95065  .debug_str:000000000001f978 .LASF7281
     /tmp/ccOWj8hl.s:96119  .debug_str:0000000000023e55 .LASF7282
     /tmp/ccOWj8hl.s:95069  .debug_str:000000000001f9ab .LASF7283
     /tmp/ccOWj8hl.s:95071  .debug_str:000000000001f9cd .LASF7284
     /tmp/ccOWj8hl.s:97713  .debug_str:000000000002a44a .LASF7285
     /tmp/ccOWj8hl.s:97715  .debug_str:000000000002a469 .LASF7286
     /tmp/ccOWj8hl.s:97717  .debug_str:000000000002a488 .LASF7287
     /tmp/ccOWj8hl.s:100779  .debug_str:0000000000036bae .LASF7288
     /tmp/ccOWj8hl.s:97721  .debug_str:000000000002a4b5 .LASF7289
     /tmp/ccOWj8hl.s:97833  .debug_str:000000000002abfa .LASF7290
     /tmp/ccOWj8hl.s:102851  .debug_str:000000000003f3ed .LASF7291
     /tmp/ccOWj8hl.s:87957  .debug_str:00000000000028b5 .LASF7292
     /tmp/ccOWj8hl.s:95045  .debug_str:000000000001f867 .LASF7293
     /tmp/ccOWj8hl.s:99535  .debug_str:0000000000031da5 .LASF7294
     /tmp/ccOWj8hl.s:99537  .debug_str:0000000000031dbd .LASF7295
     /tmp/ccOWj8hl.s:99539  .debug_str:0000000000031dd5 .LASF7296
     /tmp/ccOWj8hl.s:99541  .debug_str:0000000000031ded .LASF7297
     /tmp/ccOWj8hl.s:94259  .debug_str:000000000001c0e4 .LASF7298
     /tmp/ccOWj8hl.s:93771  .debug_str:000000000001a25c .LASF7299
     /tmp/ccOWj8hl.s:99543  .debug_str:0000000000031e05 .LASF7300
     /tmp/ccOWj8hl.s:92727  .debug_str:0000000000015e8e .LASF7301
     /tmp/ccOWj8hl.s:92729  .debug_str:0000000000015eac .LASF7302
     /tmp/ccOWj8hl.s:92731  .debug_str:0000000000015eca .LASF7303
     /tmp/ccOWj8hl.s:97983  .debug_str:000000000002b500 .LASF7304
     /tmp/ccOWj8hl.s:92735  .debug_str:0000000000015efa .LASF7305
     /tmp/ccOWj8hl.s:96447  .debug_str:000000000002513a .LASF7306
     /tmp/ccOWj8hl.s:96449  .debug_str:0000000000025157 .LASF7307
     /tmp/ccOWj8hl.s:96451  .debug_str:0000000000025174 .LASF7308
     /tmp/ccOWj8hl.s:96453  .debug_str:0000000000025191 .LASF7309
     /tmp/ccOWj8hl.s:96455  .debug_str:00000000000251ae .LASF7310
     /tmp/ccOWj8hl.s:88853  .debug_str:00000000000066a6 .LASF7311
     /tmp/ccOWj8hl.s:88855  .debug_str:00000000000066c0 .LASF7312
     /tmp/ccOWj8hl.s:88857  .debug_str:00000000000066da .LASF7313
     /tmp/ccOWj8hl.s:88859  .debug_str:00000000000066f4 .LASF7314
     /tmp/ccOWj8hl.s:88861  .debug_str:000000000000670e .LASF7315
     /tmp/ccOWj8hl.s:92139  .debug_str:0000000000013923 .LASF7316
     /tmp/ccOWj8hl.s:99751  .debug_str:0000000000032bcc .LASF7317
     /tmp/ccOWj8hl.s:94263  .debug_str:000000000001c118 .LASF7318
     /tmp/ccOWj8hl.s:87795  .debug_str:0000000000001d5f .LASF7319
     /tmp/ccOWj8hl.s:91451  .debug_str:0000000000010b49 .LASF7320
     /tmp/ccOWj8hl.s:91453  .debug_str:0000000000010b60 .LASF7321
     /tmp/ccOWj8hl.s:91455  .debug_str:0000000000010b77 .LASF7322
     /tmp/ccOWj8hl.s:105469  .debug_str:000000000004a405 .LASF7323
     /tmp/ccOWj8hl.s:92223  .debug_str:0000000000013dc5 .LASF7324
     /tmp/ccOWj8hl.s:96011  .debug_str:000000000002388a .LASF7325
     /tmp/ccOWj8hl.s:91459  .debug_str:0000000000010b9f .LASF7326
     /tmp/ccOWj8hl.s:102295  .debug_str:000000000003ce5d .LASF7327
     /tmp/ccOWj8hl.s:102297  .debug_str:000000000003ce7a .LASF7328
     /tmp/ccOWj8hl.s:102299  .debug_str:000000000003ce97 .LASF7329
     /tmp/ccOWj8hl.s:102301  .debug_str:000000000003ceb4 .LASF7330
     /tmp/ccOWj8hl.s:102303  .debug_str:000000000003ced1 .LASF7331
     /tmp/ccOWj8hl.s:92263  .debug_str:0000000000014023 .LASF7332
     /tmp/ccOWj8hl.s:92265  .debug_str:000000000001403f .LASF7333
     /tmp/ccOWj8hl.s:87895  .debug_str:0000000000002455 .LASF7334
     /tmp/ccOWj8hl.s:92269  .debug_str:000000000001408b .LASF7335
     /tmp/ccOWj8hl.s:92271  .debug_str:00000000000140a7 .LASF7336
     /tmp/ccOWj8hl.s:98107  .debug_str:000000000002bd4f .LASF7337
     /tmp/ccOWj8hl.s:98109  .debug_str:000000000002bd68 .LASF7338
     /tmp/ccOWj8hl.s:98111  .debug_str:000000000002bd81 .LASF7339
     /tmp/ccOWj8hl.s:98113  .debug_str:000000000002bd9a .LASF7340
     /tmp/ccOWj8hl.s:98115  .debug_str:000000000002bdb3 .LASF7341
     /tmp/ccOWj8hl.s:99335  .debug_str:0000000000030fe9 .LASF7342
     /tmp/ccOWj8hl.s:101235  .debug_str:00000000000386a7 .LASF7343
     /tmp/ccOWj8hl.s:92225  .debug_str:0000000000013ddc .LASF7344
     /tmp/ccOWj8hl.s:93313  .debug_str:000000000001847d .LASF7345
     /tmp/ccOWj8hl.s:92299  .debug_str:000000000001425a .LASF7346
     /tmp/ccOWj8hl.s:92301  .debug_str:000000000001427d .LASF7347
     /tmp/ccOWj8hl.s:92303  .debug_str:00000000000142a0 .LASF7348
     /tmp/ccOWj8hl.s:92305  .debug_str:00000000000142c3 .LASF7349
     /tmp/ccOWj8hl.s:92307  .debug_str:00000000000142e6 .LASF7350
     /tmp/ccOWj8hl.s:105727  .debug_str:000000000004b5dc .LASF7351
     /tmp/ccOWj8hl.s:102993  .debug_str:000000000003fc82 .LASF7352
     /tmp/ccOWj8hl.s:104451  .debug_str:0000000000045cb6 .LASF7353
     /tmp/ccOWj8hl.s:102979  .debug_str:000000000003fba8 .LASF7354
     /tmp/ccOWj8hl.s:102981  .debug_str:000000000003fbcc .LASF7355
     /tmp/ccOWj8hl.s:103653  .debug_str:0000000000042836 .LASF7356
     /tmp/ccOWj8hl.s:102985  .debug_str:000000000003fbfc .LASF7357
     /tmp/ccOWj8hl.s:102987  .debug_str:000000000003fc20 .LASF7358
     /tmp/ccOWj8hl.s:98557  .debug_str:000000000002dbd5 .LASF7359
     /tmp/ccOWj8hl.s:105639  .debug_str:000000000004affc .LASF7360
     /tmp/ccOWj8hl.s:94953  .debug_str:000000000001f267 .LASF7361
     /tmp/ccOWj8hl.s:90361  .debug_str:000000000000cc1e .LASF7362
     /tmp/ccOWj8hl.s:98011  .debug_str:000000000002b69a .LASF7363
     /tmp/ccOWj8hl.s:105103  .debug_str:0000000000048931 .LASF7364
     /tmp/ccOWj8hl.s:98375  .debug_str:000000000002cfb2 .LASF7365
     /tmp/ccOWj8hl.s:94963  .debug_str:000000000001f382 .LASF7366
     /tmp/ccOWj8hl.s:89003  .debug_str:0000000000007086 .LASF7367
     /tmp/ccOWj8hl.s:100657  .debug_str:0000000000036530 .LASF7368
     /tmp/ccOWj8hl.s:90939  .debug_str:000000000000ec97 .LASF7369
     /tmp/ccOWj8hl.s:89781  .debug_str:000000000000a481 .LASF7370
     /tmp/ccOWj8hl.s:94233  .debug_str:000000000001bef7 .LASF7371
     /tmp/ccOWj8hl.s:89617  .debug_str:000000000000998e .LASF7372
     /tmp/ccOWj8hl.s:89097  .debug_str:00000000000076c0 .LASF7373
     /tmp/ccOWj8hl.s:97215  .debug_str:000000000002846b .LASF7374
     /tmp/ccOWj8hl.s:103805  .debug_str:0000000000043225 .LASF7375
     /tmp/ccOWj8hl.s:97771  .debug_str:000000000002a7d8 .LASF7376
     /tmp/ccOWj8hl.s:88797  .debug_str:000000000000626b .LASF7377
     /tmp/ccOWj8hl.s:92717  .debug_str:0000000000015ddc .LASF7378
     /tmp/ccOWj8hl.s:105939  .debug_str:000000000004c3c4 .LASF7379
     /tmp/ccOWj8hl.s:90569  .debug_str:000000000000d8d0 .LASF7380
     /tmp/ccOWj8hl.s:105305  .debug_str:0000000000049742 .LASF7381
     /tmp/ccOWj8hl.s:105307  .debug_str:0000000000049761 .LASF7382
     /tmp/ccOWj8hl.s:105309  .debug_str:0000000000049780 .LASF7383
     /tmp/ccOWj8hl.s:102431  .debug_str:000000000003d68c .LASF7384
     /tmp/ccOWj8hl.s:94155  .debug_str:000000000001ba2a .LASF7385
     /tmp/ccOWj8hl.s:93035  .debug_str:00000000000172cd .LASF7386
     /tmp/ccOWj8hl.s:105313  .debug_str:00000000000497ad .LASF7387
     /tmp/ccOWj8hl.s:100747  .debug_str:0000000000036999 .LASF7388
     /tmp/ccOWj8hl.s:100399  .debug_str:00000000000355e0 .LASF7389
     /tmp/ccOWj8hl.s:96569  .debug_str:00000000000258d9 .LASF7390
     /tmp/ccOWj8hl.s:96571  .debug_str:00000000000258f6 .LASF7391
     /tmp/ccOWj8hl.s:96573  .debug_str:0000000000025913 .LASF7392
     /tmp/ccOWj8hl.s:96575  .debug_str:0000000000025930 .LASF7393
     /tmp/ccOWj8hl.s:96577  .debug_str:000000000002594d .LASF7394
     /tmp/ccOWj8hl.s:88163  .debug_str:00000000000036f2 .LASF7395
     /tmp/ccOWj8hl.s:105215  .debug_str:000000000004909c .LASF7396
     /tmp/ccOWj8hl.s:99983  .debug_str:0000000000033bed .LASF7397
     /tmp/ccOWj8hl.s:98035  .debug_str:000000000002b83b .LASF7398
     /tmp/ccOWj8hl.s:99721  .debug_str:00000000000329c8 .LASF7399
     /tmp/ccOWj8hl.s:87433  .debug_str:000000000000052b .LASF7400
     /tmp/ccOWj8hl.s:101287  .debug_str:0000000000038a54 .LASF7401
     /tmp/ccOWj8hl.s:99829  .debug_str:0000000000033139 .LASF7402
     /tmp/ccOWj8hl.s:99831  .debug_str:0000000000033155 .LASF7403
     /tmp/ccOWj8hl.s:91065  .debug_str:000000000000f4de .LASF7404
     /tmp/ccOWj8hl.s:99835  .debug_str:000000000003317f .LASF7405
     /tmp/ccOWj8hl.s:105929  .debug_str:000000000004c320 .LASF7406
     /tmp/ccOWj8hl.s:97135  .debug_str:0000000000027ede .LASF7407
     /tmp/ccOWj8hl.s:99837  .debug_str:000000000003319b .LASF7408
     /tmp/ccOWj8hl.s:97693  .debug_str:000000000002a2f0 .LASF7409
     /tmp/ccOWj8hl.s:104349  .debug_str:0000000000045559 .LASF7410
     /tmp/ccOWj8hl.s:89323  .debug_str:0000000000008578 .LASF7411
     /tmp/ccOWj8hl.s:101441  .debug_str:00000000000394e7 .LASF7412
     /tmp/ccOWj8hl.s:105073  .debug_str:000000000004870b .LASF7413
     /tmp/ccOWj8hl.s:97141  .debug_str:0000000000027f3e .LASF7414
     /tmp/ccOWj8hl.s:102317  .debug_str:000000000003cfa7 .LASF7415
     /tmp/ccOWj8hl.s:102233  .debug_str:000000000003ca09 .LASF7416
     /tmp/ccOWj8hl.s:94909  .debug_str:000000000001ee9f .LASF7417
     /tmp/ccOWj8hl.s:96885  .debug_str:0000000000026e50 .LASF7418
     /tmp/ccOWj8hl.s:92387  .debug_str:0000000000014845 .LASF7419
     /tmp/ccOWj8hl.s:97309  .debug_str:0000000000028ac2 .LASF7420
     /tmp/ccOWj8hl.s:105895  .debug_str:000000000004c0d3 .LASF7421
     /tmp/ccOWj8hl.s:92915  .debug_str:0000000000016b7a .LASF7422
     /tmp/ccOWj8hl.s:99379  .debug_str:0000000000031308 .LASF7423
     /tmp/ccOWj8hl.s:103707  .debug_str:0000000000042bc5 .LASF7424
     /tmp/ccOWj8hl.s:88643  .debug_str:00000000000058d1 .LASF7425
     /tmp/ccOWj8hl.s:105989  .debug_str:000000000004c70b .LASF7426
     /tmp/ccOWj8hl.s:89985  .debug_str:000000000000b2fe .LASF7427
     /tmp/ccOWj8hl.s:100573  .debug_str:000000000003605e .LASF7428
     /tmp/ccOWj8hl.s:99223  .debug_str:0000000000030854 .LASF7429
     /tmp/ccOWj8hl.s:96437  .debug_str:00000000000250a2 .LASF7430
     /tmp/ccOWj8hl.s:88997  .debug_str:0000000000007029 .LASF7431
     /tmp/ccOWj8hl.s:91989  .debug_str:0000000000012fda .LASF7432
     /tmp/ccOWj8hl.s:89069  .debug_str:00000000000074bf .LASF7433
     /tmp/ccOWj8hl.s:93289  .debug_str:00000000000182c3 .LASF7434
     /tmp/ccOWj8hl.s:105197  .debug_str:0000000000048f74 .LASF7435
     /tmp/ccOWj8hl.s:101369  .debug_str:0000000000038fbf .LASF7436
     /tmp/ccOWj8hl.s:96339  .debug_str:00000000000249dc .LASF7437
     /tmp/ccOWj8hl.s:91805  .debug_str:00000000000123c9 .LASF7438
     /tmp/ccOWj8hl.s:92857  .debug_str:0000000000016742 .LASF7439
     /tmp/ccOWj8hl.s:95717  .debug_str:0000000000022561 .LASF7440
     /tmp/ccOWj8hl.s:91405  .debug_str:0000000000010936 .LASF7441
     /tmp/ccOWj8hl.s:103221  .debug_str:0000000000040d16 .LASF7442
     /tmp/ccOWj8hl.s:98827  .debug_str:000000000002ee4c .LASF7443
     /tmp/ccOWj8hl.s:94631  .debug_str:000000000001da4a .LASF7444
     /tmp/ccOWj8hl.s:87679  .debug_str:0000000000001510 .LASF7445
     /tmp/ccOWj8hl.s:101377  .debug_str:000000000003903a .LASF7446
     /tmp/ccOWj8hl.s:94469  .debug_str:000000000001cfc4 .LASF7447
     /tmp/ccOWj8hl.s:90129  .debug_str:000000000000bca3 .LASF7448
     /tmp/ccOWj8hl.s:99227  .debug_str:00000000000308b9 .LASF7449
     /tmp/ccOWj8hl.s:100179  .debug_str:0000000000034856 .LASF7450
     /tmp/ccOWj8hl.s:95461  .debug_str:0000000000021416 .LASF7451
     /tmp/ccOWj8hl.s:97955  .debug_str:000000000002b38a .LASF7452
     /tmp/ccOWj8hl.s:92501  .debug_str:0000000000015027 .LASF7453
     /tmp/ccOWj8hl.s:96933  .debug_str:000000000002718d .LASF7454
     /tmp/ccOWj8hl.s:89577  .debug_str:0000000000009713 .LASF7455
     /tmp/ccOWj8hl.s:90997  .debug_str:000000000000f11a .LASF7456
     /tmp/ccOWj8hl.s:95147  .debug_str:000000000001ff10 .LASF7457
     /tmp/ccOWj8hl.s:90993  .debug_str:000000000000f0f0 .LASF7458
     /tmp/ccOWj8hl.s:95145  .debug_str:000000000001fef7 .LASF7459
     /tmp/ccOWj8hl.s:93613  .debug_str:00000000000198e2 .LASF7460
     /tmp/ccOWj8hl.s:94739  .debug_str:000000000001e297 .LASF7461
     /tmp/ccOWj8hl.s:104629  .debug_str:0000000000046839 .LASF7462
     /tmp/ccOWj8hl.s:93381  .debug_str:0000000000018942 .LASF7463
     /tmp/ccOWj8hl.s:91995  .debug_str:0000000000013028 .LASF7464
     /tmp/ccOWj8hl.s:90435  .debug_str:000000000000d102 .LASF7465
     /tmp/ccOWj8hl.s:91781  .debug_str:0000000000012225 .LASF7466
     /tmp/ccOWj8hl.s:94149  .debug_str:000000000001b9dd .LASF7467
     /tmp/ccOWj8hl.s:102419  .debug_str:000000000003d5da .LASF7468
     /tmp/ccOWj8hl.s:102423  .debug_str:000000000003d608 .LASF7469
     /tmp/ccOWj8hl.s:98069  .debug_str:000000000002ba7d .LASF7470
     /tmp/ccOWj8hl.s:90547  .debug_str:000000000000d7a0 .LASF7471
     /tmp/ccOWj8hl.s:92659  .debug_str:0000000000015959 .LASF7472
     /tmp/ccOWj8hl.s:99113  .debug_str:000000000002fffc .LASF7473
     /tmp/ccOWj8hl.s:104749  .debug_str:0000000000047054 .LASF7474
     /tmp/ccOWj8hl.s:94701  .debug_str:000000000001dff5 .LASF7475
     /tmp/ccOWj8hl.s:96137  .debug_str:0000000000023f8d .LASF7476
     /tmp/ccOWj8hl.s:92597  .debug_str:000000000001557c .LASF7477
     /tmp/ccOWj8hl.s:88725  .debug_str:0000000000005de3 .LASF7478
     /tmp/ccOWj8hl.s:104461  .debug_str:0000000000045d7d .LASF7479
     /tmp/ccOWj8hl.s:92179  .debug_str:0000000000013bae .LASF7480
     /tmp/ccOWj8hl.s:88351  .debug_str:0000000000004429 .LASF7481
     /tmp/ccOWj8hl.s:90415  .debug_str:000000000000cfc7 .LASF7482
     /tmp/ccOWj8hl.s:96179  .debug_str:00000000000240f9 .LASF7483
     /tmp/ccOWj8hl.s:101505  .debug_str:00000000000399b0 .LASF7484
     /tmp/ccOWj8hl.s:99341  .debug_str:000000000003105e .LASF7485
     /tmp/ccOWj8hl.s:97877  .debug_str:000000000002af06 .LASF7486
     /tmp/ccOWj8hl.s:101009  .debug_str:000000000003777c .LASF7487
     /tmp/ccOWj8hl.s:88553  .debug_str:0000000000005246 .LASF7488
     /tmp/ccOWj8hl.s:100013  .debug_str:0000000000033daa .LASF7489
     /tmp/ccOWj8hl.s:102847  .debug_str:000000000003f3ba .LASF7490
     /tmp/ccOWj8hl.s:92757  .debug_str:0000000000016074 .LASF7491
     /tmp/ccOWj8hl.s:91051  .debug_str:000000000000f41c .LASF7492
     /tmp/ccOWj8hl.s:103413  .debug_str:0000000000041998 .LASF7493
     /tmp/ccOWj8hl.s:96741  .debug_str:00000000000264d2 .LASF7494
     /tmp/ccOWj8hl.s:100499  .debug_str:0000000000035c18 .LASF7495
     /tmp/ccOWj8hl.s:104841  .debug_str:000000000004764e .LASF7496
     /tmp/ccOWj8hl.s:100821  .debug_str:0000000000036d6b .LASF7497
     /tmp/ccOWj8hl.s:97621  .debug_str:0000000000029e10 .LASF7498
     /tmp/ccOWj8hl.s:88511  .debug_str:0000000000004f39 .LASF7499
     /tmp/ccOWj8hl.s:102765  .debug_str:000000000003edf3 .LASF7500
     /tmp/ccOWj8hl.s:103569  .debug_str:000000000004231a .LASF7501
     /tmp/ccOWj8hl.s:105661  .debug_str:000000000004b164 .LASF7502
     /tmp/ccOWj8hl.s:94703  .debug_str:000000000001e003 .LASF7503
     /tmp/ccOWj8hl.s:96215  .debug_str:00000000000242ff .LASF7504
     /tmp/ccOWj8hl.s:87703  .debug_str:000000000000171a .LASF7505
     /tmp/ccOWj8hl.s:99569  .debug_str:0000000000031fe4 .LASF7506
     /tmp/ccOWj8hl.s:88559  .debug_str:0000000000005295 .LASF7507
     /tmp/ccOWj8hl.s:87947  .debug_str:0000000000002831 .LASF7508
     /tmp/ccOWj8hl.s:96377  .debug_str:0000000000024c27 .LASF7509
     /tmp/ccOWj8hl.s:89299  .debug_str:00000000000083c8 .LASF7510
     /tmp/ccOWj8hl.s:93101  .debug_str:0000000000017762 .LASF7511
     /tmp/ccOWj8hl.s:93167  .debug_str:0000000000017b1c .LASF7512
     /tmp/ccOWj8hl.s:95893  .debug_str:0000000000023172 .LASF7513
     /tmp/ccOWj8hl.s:97083  .debug_str:0000000000027b03 .LASF7514
     /tmp/ccOWj8hl.s:88121  .debug_str:0000000000003401 .LASF7515
     /tmp/ccOWj8hl.s:93645  .debug_str:0000000000019baa .LASF7516
     /tmp/ccOWj8hl.s:102211  .debug_str:000000000003c8b2 .LASF7517
     /tmp/ccOWj8hl.s:91857  .debug_str:00000000000127df .LASF7518
     /tmp/ccOWj8hl.s:103521  .debug_str:0000000000042034 .LASF7519
     /tmp/ccOWj8hl.s:91853  .debug_str:00000000000127b5 .LASF7520
     /tmp/ccOWj8hl.s:103259  .debug_str:0000000000040f28 .LASF7521
     /tmp/ccOWj8hl.s:98877  .debug_str:000000000002f14e .LASF7522
     /tmp/ccOWj8hl.s:94175  .debug_str:000000000001bbb1 .LASF7523
     /tmp/ccOWj8hl.s:99371  .debug_str:0000000000031277 .LASF7524
     /tmp/ccOWj8hl.s:102135  .debug_str:000000000003c3ba .LASF7525
     /tmp/ccOWj8hl.s:100769  .debug_str:0000000000036b14 .LASF7526
     /tmp/ccOWj8hl.s:95165  .debug_str:00000000000200a2 .LASF7527
     /tmp/ccOWj8hl.s:97245  .debug_str:0000000000028677 .LASF7528
     /tmp/ccOWj8hl.s:104227  .debug_str:0000000000044da7 .LASF7529
     /tmp/ccOWj8hl.s:100575  .debug_str:000000000003606d .LASF7530
     /tmp/ccOWj8hl.s:104237  .debug_str:0000000000044e48 .LASF7531
     /tmp/ccOWj8hl.s:92309  .debug_str:0000000000014309 .LASF7532
     /tmp/ccOWj8hl.s:87513  .debug_str:0000000000000a5c .LASF7533
     /tmp/ccOWj8hl.s:104029  .debug_str:00000000000440ac .LASF7534
     /tmp/ccOWj8hl.s:105121  .debug_str:0000000000048a47 .LASF7535
     /tmp/ccOWj8hl.s:102057  .debug_str:000000000003bfa7 .LASF7536
     /tmp/ccOWj8hl.s:102539  .debug_str:000000000003dddb .LASF7537
     /tmp/ccOWj8hl.s:105801  .debug_str:000000000004b9e6 .LASF7538
     /tmp/ccOWj8hl.s:97669  .debug_str:000000000002a14f .LASF7539
     /tmp/ccOWj8hl.s:104673  .debug_str:0000000000046b3c .LASF7540
     /tmp/ccOWj8hl.s:91951  .debug_str:0000000000012d83 .LASF7541
     /tmp/ccOWj8hl.s:89317  .debug_str:000000000000852b .LASF7542
     /tmp/ccOWj8hl.s:105933  .debug_str:000000000004c33e .LASF7543
     /tmp/ccOWj8hl.s:88397  .debug_str:000000000000478c .LASF7544
     /tmp/ccOWj8hl.s:103227  .debug_str:0000000000040d6a .LASF7545
     /tmp/ccOWj8hl.s:92803  .debug_str:0000000000016340 .LASF7546
     /tmp/ccOWj8hl.s:95015  .debug_str:000000000001f6ba .LASF7547
     /tmp/ccOWj8hl.s:90503  .debug_str:000000000000d4a7 .LASF7548
     /tmp/ccOWj8hl.s:90243  .debug_str:000000000000c4cf .LASF7549
     /tmp/ccOWj8hl.s:96521  .debug_str:000000000002564e .LASF7550
     /tmp/ccOWj8hl.s:98345  .debug_str:000000000002cd91 .LASF7551
     /tmp/ccOWj8hl.s:92561  .debug_str:0000000000015367 .LASF7552
     /tmp/ccOWj8hl.s:95331  .debug_str:0000000000020afc .LASF7553
     /tmp/ccOWj8hl.s:97657  .debug_str:000000000002a021 .LASF7554
     /tmp/ccOWj8hl.s:89879  .debug_str:000000000000ab00 .LASF7555
     /tmp/ccOWj8hl.s:96347  .debug_str:0000000000024a59 .LASF7556
     /tmp/ccOWj8hl.s:96317  .debug_str:00000000000248a7 .LASF7557
     /tmp/ccOWj8hl.s:96323  .debug_str:00000000000248e7 .LASF7558
     /tmp/ccOWj8hl.s:88929  .debug_str:0000000000006bed .LASF7559
     /tmp/ccOWj8hl.s:98103  .debug_str:000000000002bd25 .LASF7560
     /tmp/ccOWj8hl.s:98089  .debug_str:000000000002bbd8 .LASF7561
     /tmp/ccOWj8hl.s:102335  .debug_str:000000000003d0e3 .LASF7562
     /tmp/ccOWj8hl.s:88425  .debug_str:00000000000049d9 .LASF7563
     /tmp/ccOWj8hl.s:104977  .debug_str:00000000000480b6 .LASF7564
     /tmp/ccOWj8hl.s:98647  .debug_str:000000000002e1e3 .LASF7565
     /tmp/ccOWj8hl.s:104615  .debug_str:000000000004673f .LASF7566
     /tmp/ccOWj8hl.s:101219  .debug_str:00000000000385f8 .LASF7567
     /tmp/ccOWj8hl.s:96515  .debug_str:00000000000255dc .LASF7568
     /tmp/ccOWj8hl.s:92131  .debug_str:0000000000013870 .LASF7569
     /tmp/ccOWj8hl.s:88629  .debug_str:0000000000005815 .LASF7570
     /tmp/ccOWj8hl.s:103043  .debug_str:0000000000040022 .LASF7571
     /tmp/ccOWj8hl.s:97319  .debug_str:0000000000028b80 .LASF7572
     /tmp/ccOWj8hl.s:97321  .debug_str:0000000000028b8e .LASF7573
     /tmp/ccOWj8hl.s:97323  .debug_str:0000000000028b9c .LASF7574
     /tmp/ccOWj8hl.s:97325  .debug_str:0000000000028baa .LASF7575
     /tmp/ccOWj8hl.s:97327  .debug_str:0000000000028bb8 .LASF7576
     /tmp/ccOWj8hl.s:97329  .debug_str:0000000000028bc6 .LASF7577
     /tmp/ccOWj8hl.s:97331  .debug_str:0000000000028bd4 .LASF7578
     /tmp/ccOWj8hl.s:97333  .debug_str:0000000000028be2 .LASF7579
     /tmp/ccOWj8hl.s:97335  .debug_str:0000000000028bf0 .LASF7580
     /tmp/ccOWj8hl.s:97337  .debug_str:0000000000028bfe .LASF7581
     /tmp/ccOWj8hl.s:104891  .debug_str:0000000000047a48 .LASF7582
     /tmp/ccOWj8hl.s:89897  .debug_str:000000000000aca5 .LASF7583
     /tmp/ccOWj8hl.s:100073  .debug_str:0000000000034162 .LASF7584
     /tmp/ccOWj8hl.s:95923  .debug_str:000000000002324f .LASF7585
     /tmp/ccOWj8hl.s:88477  .debug_str:0000000000004d5d .LASF7586
     /tmp/ccOWj8hl.s:103193  .debug_str:0000000000040b28 .LASF7587
     /tmp/ccOWj8hl.s:95339  .debug_str:0000000000020b91 .LASF7588
     /tmp/ccOWj8hl.s:92637  .debug_str:0000000000015839 .LASF7589
     /tmp/ccOWj8hl.s:103203  .debug_str:0000000000040b97 .LASF7590
     /tmp/ccOWj8hl.s:88359  .debug_str:00000000000044a0 .LASF7591
     /tmp/ccOWj8hl.s:87445  .debug_str:00000000000005f0 .LASF7592
     /tmp/ccOWj8hl.s:94577  .debug_str:000000000001d6d3 .LASF7593
     /tmp/ccOWj8hl.s:91201  .debug_str:000000000000fc53 .LASF7594
     /tmp/ccOWj8hl.s:105615  .debug_str:000000000004ae52 .LASF7595
     /tmp/ccOWj8hl.s:90015  .debug_str:000000000000b57b .LASF7596
     /tmp/ccOWj8hl.s:97373  .debug_str:0000000000028e2f .LASF7597
     /tmp/ccOWj8hl.s:100183  .debug_str:0000000000034883 .LASF7598
     /tmp/ccOWj8hl.s:103647  .debug_str:0000000000042803 .LASF7599
     /tmp/ccOWj8hl.s:104097  .debug_str:000000000004450b .LASF7600
     /tmp/ccOWj8hl.s:91779  .debug_str:0000000000012212 .LASF7601
     /tmp/ccOWj8hl.s:103649  .debug_str:0000000000042816 .LASF7602
     /tmp/ccOWj8hl.s:98329  .debug_str:000000000002cc69 .LASF7603
     /tmp/ccOWj8hl.s:93199  .debug_str:0000000000017ca6 .LASF7604
     /tmp/ccOWj8hl.s:88457  .debug_str:0000000000004bb4 .LASF7605
     /tmp/ccOWj8hl.s:103847  .debug_str:000000000004349f .LASF7606
     /tmp/ccOWj8hl.s:93201  .debug_str:0000000000017cb8 .LASF7607
     /tmp/ccOWj8hl.s:100115  .debug_str:000000000003443c .LASF7608
     /tmp/ccOWj8hl.s:98071  .debug_str:000000000002ba86 .LASF7609
     /tmp/ccOWj8hl.s:93203  .debug_str:0000000000017cca .LASF7610
     /tmp/ccOWj8hl.s:88461  .debug_str:0000000000004bf2 .LASF7611
     /tmp/ccOWj8hl.s:92023  .debug_str:00000000000131f5 .LASF7612
     /tmp/ccOWj8hl.s:95539  .debug_str:0000000000021986 .LASF7613
     /tmp/ccOWj8hl.s:100121  .debug_str:00000000000344ae .LASF7614
     /tmp/ccOWj8hl.s:104727  .debug_str:0000000000046e9b .LASF7615
     /tmp/ccOWj8hl.s:91669  .debug_str:0000000000011af5 .LASF7616
     /tmp/ccOWj8hl.s:105023  .debug_str:00000000000483a2 .LASF7617
     /tmp/ccOWj8hl.s:89709  .debug_str:0000000000009fa0 .LASF7618
     /tmp/ccOWj8hl.s:91671  .debug_str:0000000000011b07 .LASF7619
     /tmp/ccOWj8hl.s:105605  .debug_str:000000000004ad98 .LASF7620
     /tmp/ccOWj8hl.s:102535  .debug_str:000000000003dd73 .LASF7621
     /tmp/ccOWj8hl.s:91673  .debug_str:0000000000011b19 .LASF7622
     /tmp/ccOWj8hl.s:105033  .debug_str:000000000004842d .LASF7623
     /tmp/ccOWj8hl.s:96729  .debug_str:0000000000026406 .LASF7624
     /tmp/ccOWj8hl.s:92577  .debug_str:000000000001546b .LASF7625
     /tmp/ccOWj8hl.s:87499  .debug_str:000000000000096e .LASF7626
     /tmp/ccOWj8hl.s:98133  .debug_str:000000000002beee .LASF7627
     /tmp/ccOWj8hl.s:100675  .debug_str:000000000003660f .LASF7628
     /tmp/ccOWj8hl.s:93519  .debug_str:0000000000019288 .LASF7629
     /tmp/ccOWj8hl.s:98953  .debug_str:000000000002f5bb .LASF7630
     /tmp/ccOWj8hl.s:92787  .debug_str:0000000000016236 .LASF7631
     /tmp/ccOWj8hl.s:103421  .debug_str:0000000000041a3e .LASF7632
     /tmp/ccOWj8hl.s:87973  .debug_str:0000000000002a36 .LASF7633
     /tmp/ccOWj8hl.s:97825  .debug_str:000000000002aba0 .LASF7634
     /tmp/ccOWj8hl.s:89369  .debug_str:00000000000088b4 .LASF7635
     /tmp/ccOWj8hl.s:91981  .debug_str:0000000000012f6a .LASF7636
     /tmp/ccOWj8hl.s:92805  .debug_str:0000000000016354 .LASF7637
     /tmp/ccOWj8hl.s:99071  .debug_str:000000000002fd2a .LASF7638
     /tmp/ccOWj8hl.s:96311  .debug_str:0000000000024840 .LASF7639
     /tmp/ccOWj8hl.s:102971  .debug_str:000000000003fb39 .LASF7640
     /tmp/ccOWj8hl.s:87661  .debug_str:000000000000142c .LASF7641
     /tmp/ccOWj8hl.s:105637  .debug_str:000000000004afdc .LASF7642
     /tmp/ccOWj8hl.s:102983  .debug_str:000000000003fbf0 .LASF7643
     /tmp/ccOWj8hl.s:95157  .debug_str:000000000001fff5 .LASF7644
     /tmp/ccOWj8hl.s:95753  .debug_str:000000000002278d .LASF7645
     /tmp/ccOWj8hl.s:96315  .debug_str:000000000002489b .LASF7646
     /tmp/ccOWj8hl.s:88265  .debug_str:0000000000003e59 .LASF7647
     /tmp/ccOWj8hl.s:98515  .debug_str:000000000002d93a .LASF7648
     /tmp/ccOWj8hl.s:103533  .debug_str:0000000000042134 .LASF7649
     /tmp/ccOWj8hl.s:104997  .debug_str:00000000000481f9 .LASF7650
     /tmp/ccOWj8hl.s:89313  .debug_str:00000000000084e5 .LASF7651
     /tmp/ccOWj8hl.s:89831  .debug_str:000000000000a7ba .LASF7652
     /tmp/ccOWj8hl.s:92521  .debug_str:0000000000015155 .LASF7653
     /tmp/ccOWj8hl.s:100335  .debug_str:000000000003524a .LASF7654
     /tmp/ccOWj8hl.s:97035  .debug_str:00000000000278e6 .LASF7655
     /tmp/ccOWj8hl.s:89257  .debug_str:000000000000811d .LASF7656
     /tmp/ccOWj8hl.s:94687  .debug_str:000000000001deb1 .LASF7657
     /tmp/ccOWj8hl.s:92227  .debug_str:0000000000013df3 .LASF7658
     /tmp/ccOWj8hl.s:93067  .debug_str:0000000000017566 .LASF7659
     /tmp/ccOWj8hl.s:103997  .debug_str:0000000000043e36 .LASF7660
     /tmp/ccOWj8hl.s:87841  .debug_str:00000000000020ec .LASF7661
     /tmp/ccOWj8hl.s:105703  .debug_str:000000000004b3fe .LASF7662
     /tmp/ccOWj8hl.s:100503  .debug_str:0000000000035c64 .LASF7663
     /tmp/ccOWj8hl.s:99547  .debug_str:0000000000031e3e .LASF7664
     /tmp/ccOWj8hl.s:87627  .debug_str:00000000000011f6 .LASF7665
     /tmp/ccOWj8hl.s:95415  .debug_str:0000000000021072 .LASF7666
     /tmp/ccOWj8hl.s:100973  .debug_str:0000000000037592 .LASF7667
     /tmp/ccOWj8hl.s:100425  .debug_str:00000000000357b7 .LASF7668
     /tmp/ccOWj8hl.s:104449  .debug_str:0000000000045c8e .LASF7669
     /tmp/ccOWj8hl.s:104195  .debug_str:0000000000044bbc .LASF7670
     /tmp/ccOWj8hl.s:98579  .debug_str:000000000002dd4f .LASF7671
     /tmp/ccOWj8hl.s:93647  .debug_str:0000000000019bb5 .LASF7672
     /tmp/ccOWj8hl.s:104769  .debug_str:0000000000047148 .LASF7673
     /tmp/ccOWj8hl.s:95501  .debug_str:00000000000216e9 .LASF7674
     /tmp/ccOWj8hl.s:104497  .debug_str:000000000004601c .LASF7675
     /tmp/ccOWj8hl.s:101321  .debug_str:0000000000038d37 .LASF7676
     /tmp/ccOWj8hl.s:98497  .debug_str:000000000002d86c .LASF7677
     /tmp/ccOWj8hl.s:101763  .debug_str:000000000003aaf9 .LASF7678
     /tmp/ccOWj8hl.s:87961  .debug_str:00000000000028fd .LASF7679
     /tmp/ccOWj8hl.s:95873  .debug_str:0000000000023037 .LASF7680
     /tmp/ccOWj8hl.s:96731  .debug_str:000000000002642c .LASF7681
     /tmp/ccOWj8hl.s:91795  .debug_str:0000000000012312 .LASF7682
     /tmp/ccOWj8hl.s:101881  .debug_str:000000000003b326 .LASF7683
     /tmp/ccOWj8hl.s:97789  .debug_str:000000000002a94b .LASF7684
     /tmp/ccOWj8hl.s:98847  .debug_str:000000000002ef8d .LASF7685
     /tmp/ccOWj8hl.s:92991  .debug_str:0000000000017044 .LASF7686
     /tmp/ccOWj8hl.s:104467  .debug_str:0000000000045dbd .LASF7687
     /tmp/ccOWj8hl.s:96651  .debug_str:0000000000025ec5 .LASF7688
     /tmp/ccOWj8hl.s:91261  .debug_str:000000000000ff58 .LASF7689
     /tmp/ccOWj8hl.s:88401  .debug_str:00000000000047d5 .LASF7690
     /tmp/ccOWj8hl.s:102835  .debug_str:000000000003f2f2 .LASF7691
     /tmp/ccOWj8hl.s:88407  .debug_str:0000000000004848 .LASF7692
     /tmp/ccOWj8hl.s:92559  .debug_str:000000000001533c .LASF7693
     /tmp/ccOWj8hl.s:90317  .debug_str:000000000000c97a .LASF7694
     /tmp/ccOWj8hl.s:96149  .debug_str:0000000000024019 .LASF7695
     /tmp/ccOWj8hl.s:101145  .debug_str:00000000000380d9 .LASF7696
     /tmp/ccOWj8hl.s:94897  .debug_str:000000000001edc3 .LASF7697
     /tmp/ccOWj8hl.s:96619  .debug_str:0000000000025c39 .LASF7698
     /tmp/ccOWj8hl.s:95759  .debug_str:00000000000227e5 .LASF7699
     /tmp/ccOWj8hl.s:92505  .debug_str:0000000000015054 .LASF7700
     /tmp/ccOWj8hl.s:95213  .debug_str:00000000000203cd .LASF7701
     /tmp/ccOWj8hl.s:98225  .debug_str:000000000002c50d .LASF7702
     /tmp/ccOWj8hl.s:87607  .debug_str:00000000000010a4 .LASF7703
     /tmp/ccOWj8hl.s:90523  .debug_str:000000000000d617 .LASF7704
     /tmp/ccOWj8hl.s:103621  .debug_str:0000000000042671 .LASF7705
     /tmp/ccOWj8hl.s:94063  .debug_str:000000000001b409 .LASF7706
     /tmp/ccOWj8hl.s:101661  .debug_str:000000000003a437 .LASF7707
     /tmp/ccOWj8hl.s:91769  .debug_str:000000000001214c .LASF7708
     /tmp/ccOWj8hl.s:99365  .debug_str:0000000000031214 .LASF7709
     /tmp/ccOWj8hl.s:88979  .debug_str:0000000000006f4e .LASF7710
     /tmp/ccOWj8hl.s:93343  .debug_str:00000000000186ac .LASF7711
     /tmp/ccOWj8hl.s:97683  .debug_str:000000000002a230 .LASF7712
     /tmp/ccOWj8hl.s:100069  .debug_str:0000000000034121 .LASF7713
     /tmp/ccOWj8hl.s:94321  .debug_str:000000000001c505 .LASF7714
     /tmp/ccOWj8hl.s:103361  .debug_str:00000000000415ec .LASF7715
     /tmp/ccOWj8hl.s:91531  .debug_str:000000000001110d .LASF7716
     /tmp/ccOWj8hl.s:98429  .debug_str:000000000002d30b .LASF7717
     /tmp/ccOWj8hl.s:92525  .debug_str:0000000000015189 .LASF7718
     /tmp/ccOWj8hl.s:103199  .debug_str:0000000000040b7f .LASF7719
     /tmp/ccOWj8hl.s:102827  .debug_str:000000000003f23b .LASF7720
     /tmp/ccOWj8hl.s:97389  .debug_str:0000000000028f59 .LASF7721
     /tmp/ccOWj8hl.s:104955  .debug_str:0000000000047ef6 .LASF7722
     /tmp/ccOWj8hl.s:92253  .debug_str:0000000000013f23 .LASF7723
     /tmp/ccOWj8hl.s:92951  .debug_str:0000000000016df9 .LASF7724
     /tmp/ccOWj8hl.s:101677  .debug_str:000000000003a537 .LASF7725
     /tmp/ccOWj8hl.s:102153  .debug_str:000000000003c4d4 .LASF7726
     /tmp/ccOWj8hl.s:91111  .debug_str:000000000000f6e3 .LASF7727
     /tmp/ccOWj8hl.s:99973  .debug_str:0000000000033b48 .LASF7728
     /tmp/ccOWj8hl.s:94417  .debug_str:000000000001cc02 .LASF7729
     /tmp/ccOWj8hl.s:98269  .debug_str:000000000002c7e2 .LASF7730
     /tmp/ccOWj8hl.s:94847  .debug_str:000000000001ea19 .LASF7731
     /tmp/ccOWj8hl.s:103509  .debug_str:0000000000041f5b .LASF7732
     /tmp/ccOWj8hl.s:103843  .debug_str:0000000000043452 .LASF7733
     /tmp/ccOWj8hl.s:87599  .debug_str:0000000000001047 .LASF7734
     /tmp/ccOWj8hl.s:104985  .debug_str:000000000004810e .LASF7735
     /tmp/ccOWj8hl.s:105967  .debug_str:000000000004c5e7 .LASF7736
     /tmp/ccOWj8hl.s:95859  .debug_str:0000000000022f57 .LASF7737
     /tmp/ccOWj8hl.s:90727  .debug_str:000000000000e1dc .LASF7738
     /tmp/ccOWj8hl.s:103243  .debug_str:0000000000040e2a .LASF7739
     /tmp/ccOWj8hl.s:90637  .debug_str:000000000000dd66 .LASF7740
     /tmp/ccOWj8hl.s:87401  .debug_str:00000000000002b6 .LASF7741
     /tmp/ccOWj8hl.s:103235  .debug_str:0000000000040dd7 .LASF7742
     /tmp/ccOWj8hl.s:93283  .debug_str:000000000001824f .LASF7743
     /tmp/ccOWj8hl.s:91431  .debug_str:00000000000109f6 .LASF7744
     /tmp/ccOWj8hl.s:92883  .debug_str:0000000000016942 .LASF7745
     /tmp/ccOWj8hl.s:95299  .debug_str:000000000002098b .LASF7746
     /tmp/ccOWj8hl.s:93225  .debug_str:0000000000017e33 .LASF7747
     /tmp/ccOWj8hl.s:94405  .debug_str:000000000001cb05 .LASF7748
     /tmp/ccOWj8hl.s:92593  .debug_str:000000000001555a .LASF7749
     /tmp/ccOWj8hl.s:97903  .debug_str:000000000002b0a6 .LASF7750
     /tmp/ccOWj8hl.s:96629  .debug_str:0000000000025cb8 .LASF7751
     /tmp/ccOWj8hl.s:98931  .debug_str:000000000002f46b .LASF7752
     /tmp/ccOWj8hl.s:103089  .debug_str:000000000004035a .LASF7753
     /tmp/ccOWj8hl.s:97545  .debug_str:0000000000029969 .LASF7754
     /tmp/ccOWj8hl.s:103581  .debug_str:00000000000423a8 .LASF7755
     /tmp/ccOWj8hl.s:96537  .debug_str:0000000000025773 .LASF7756
     /tmp/ccOWj8hl.s:97535  .debug_str:00000000000298e1 .LASF7757
     /tmp/ccOWj8hl.s:103577  .debug_str:0000000000042376 .LASF7758
     /tmp/ccOWj8hl.s:100583  .debug_str:00000000000360e3 .LASF7759
     /tmp/ccOWj8hl.s:103349  .debug_str:0000000000041518 .LASF7760
     /tmp/ccOWj8hl.s:90745  .debug_str:000000000000e2ae .LASF7761
     /tmp/ccOWj8hl.s:94315  .debug_str:000000000001c49e .LASF7762
     /tmp/ccOWj8hl.s:103339  .debug_str:00000000000414b9 .LASF7763
     /tmp/ccOWj8hl.s:90743  .debug_str:000000000000e2a4 .LASF7764
     /tmp/ccOWj8hl.s:91919  .debug_str:0000000000012b8c .LASF7765
     /tmp/ccOWj8hl.s:87399  .debug_str:00000000000002a5 .LASF7766
     /tmp/ccOWj8hl.s:87365  .debug_str:0000000000000058 .LASF7767
     /tmp/ccOWj8hl.s:89203  .debug_str:0000000000007d25 .LASF7768
     /tmp/ccOWj8hl.s:90457  .debug_str:000000000000d27b .LASF7769
     /tmp/ccOWj8hl.s:90423  .debug_str:000000000000d02b .LASF7770
     /tmp/ccOWj8hl.s:105877  .debug_str:000000000004bf8c .LASF7771
     /tmp/ccOWj8hl.s:93901  .debug_str:000000000001aaa2 .LASF7772
     /tmp/ccOWj8hl.s:88437  .debug_str:0000000000004a7d .LASF7773
     /tmp/ccOWj8hl.s:92889  .debug_str:0000000000016996 .LASF7774
     /tmp/ccOWj8hl.s:100755  .debug_str:0000000000036a10 .LASF7775
     /tmp/ccOWj8hl.s:101531  .debug_str:0000000000039b6e .LASF7776
     /tmp/ccOWj8hl.s:101273  .debug_str:0000000000038966 .LASF7777
     /tmp/ccOWj8hl.s:90629  .debug_str:000000000000dd06 .LASF7778
     /tmp/ccOWj8hl.s:90445  .debug_str:000000000000d1b2 .LASF7779
     /tmp/ccOWj8hl.s:95335  .debug_str:0000000000020b53 .LASF7780
     /tmp/ccOWj8hl.s:100765  .debug_str:0000000000036ada .LASF7781
     /tmp/ccOWj8hl.s:101539  .debug_str:0000000000039c07 .LASF7782
     /tmp/ccOWj8hl.s:102089  .debug_str:000000000003c191 .LASF7783
     /tmp/ccOWj8hl.s:90509  .debug_str:000000000000d4f6 .LASF7784
     /tmp/ccOWj8hl.s:90033  .debug_str:000000000000b69f .LASF7785
     /tmp/ccOWj8hl.s:87665  .debug_str:0000000000001448 .LASF7786
     /tmp/ccOWj8hl.s:100349  .debug_str:000000000003536a .LASF7787
     /tmp/ccOWj8hl.s:87939  .debug_str:00000000000027bf .LASF7788
     /tmp/ccOWj8hl.s:96507  .debug_str:0000000000025536 .LASF7789
     /tmp/ccOWj8hl.s:100351  .debug_str:0000000000035382 .LASF7790
     /tmp/ccOWj8hl.s:95107  .debug_str:000000000001fc5d .LASF7791
     /tmp/ccOWj8hl.s:102511  .debug_str:000000000003db95 .LASF7792
     /tmp/ccOWj8hl.s:105385  .debug_str:0000000000049cb5 .LASF7793
     /tmp/ccOWj8hl.s:93085  .debug_str:000000000001766c .LASF7794
     /tmp/ccOWj8hl.s:98713  .debug_str:000000000002e638 .LASF7795
     /tmp/ccOWj8hl.s:105387  .debug_str:0000000000049ccd .LASF7796
     /tmp/ccOWj8hl.s:93087  .debug_str:0000000000017684 .LASF7797
     /tmp/ccOWj8hl.s:92703  .debug_str:0000000000015c97 .LASF7798
     /tmp/ccOWj8hl.s:92899  .debug_str:0000000000016a38 .LASF7799
     /tmp/ccOWj8hl.s:98317  .debug_str:000000000002cb6c .LASF7800
     /tmp/ccOWj8hl.s:91379  .debug_str:0000000000010774 .LASF7801
     /tmp/ccOWj8hl.s:91861  .debug_str:000000000001280c .LASF7802
     /tmp/ccOWj8hl.s:98319  .debug_str:000000000002cb84 .LASF7803
     /tmp/ccOWj8hl.s:104151  .debug_str:00000000000448fc .LASF7804
     /tmp/ccOWj8hl.s:97077  .debug_str:0000000000027aab .LASF7805
     /tmp/ccOWj8hl.s:103305  .debug_str:0000000000041245 .LASF7806
     /tmp/ccOWj8hl.s:103037  .debug_str:000000000003ffb2 .LASF7807
     /tmp/ccOWj8hl.s:97079  .debug_str:0000000000027ac3 .LASF7808
     /tmp/ccOWj8hl.s:103307  .debug_str:000000000004125d .LASF7809
     /tmp/ccOWj8hl.s:89777  .debug_str:000000000000a419 .LASF7810
     /tmp/ccOWj8hl.s:102085  .debug_str:000000000003c161 .LASF7811
     /tmp/ccOWj8hl.s:98695  .debug_str:000000000002e4e9 .LASF7812
     /tmp/ccOWj8hl.s:96035  .debug_str:00000000000239f8 .LASF7813
     /tmp/ccOWj8hl.s:102087  .debug_str:000000000003c179 .LASF7814
     /tmp/ccOWj8hl.s:89681  .debug_str:0000000000009d43 .LASF7815
     /tmp/ccOWj8hl.s:89995  .debug_str:000000000000b41e .LASF7816
     /tmp/ccOWj8hl.s:88493  .debug_str:0000000000004e1c .LASF7817
     /tmp/ccOWj8hl.s:94965  .debug_str:000000000001f3aa .LASF7818
     /tmp/ccOWj8hl.s:88753  .debug_str:0000000000005f74 .LASF7819
     /tmp/ccOWj8hl.s:88495  .debug_str:0000000000004e34 .LASF7820
     /tmp/ccOWj8hl.s:94967  .debug_str:000000000001f3c2 .LASF7821
     /tmp/ccOWj8hl.s:101627  .debug_str:000000000003a1cd .LASF7822
     /tmp/ccOWj8hl.s:93681  .debug_str:0000000000019d50 .LASF7823
     /tmp/ccOWj8hl.s:100025  .debug_str:0000000000033e70 .LASF7824
     /tmp/ccOWj8hl.s:97151  .debug_str:0000000000027fc4 .LASF7825
     /tmp/ccOWj8hl.s:93683  .debug_str:0000000000019d68 .LASF7826
     /tmp/ccOWj8hl.s:100027  .debug_str:0000000000033e88 .LASF7827
     /tmp/ccOWj8hl.s:94571  .debug_str:000000000001d65d .LASF7828
     /tmp/ccOWj8hl.s:98851  .debug_str:000000000002efa9 .LASF7829
     /tmp/ccOWj8hl.s:105057  .debug_str:0000000000048611 .LASF7830
     /tmp/ccOWj8hl.s:93387  .debug_str:00000000000189b5 .LASF7831
     /tmp/ccOWj8hl.s:98853  .debug_str:000000000002efc1 .LASF7832
     /tmp/ccOWj8hl.s:105059  .debug_str:0000000000048629 .LASF7833
     /tmp/ccOWj8hl.s:87465  .debug_str:000000000000071a .LASF7834
     /tmp/ccOWj8hl.s:103889  .debug_str:00000000000436fb .LASF7835
     /tmp/ccOWj8hl.s:91549  .debug_str:0000000000011256 .LASF7836
     /tmp/ccOWj8hl.s:104787  .debug_str:000000000004724f .LASF7837
     /tmp/ccOWj8hl.s:103891  .debug_str:0000000000043713 .LASF7838
     /tmp/ccOWj8hl.s:91551  .debug_str:000000000001126e .LASF7839
     /tmp/ccOWj8hl.s:99015  .debug_str:000000000002f9dd .LASF7840
     /tmp/ccOWj8hl.s:90253  .debug_str:000000000000c54e .LASF7841
     /tmp/ccOWj8hl.s:96757  .debug_str:00000000000265ef .LASF7842
     /tmp/ccOWj8hl.s:97933  .debug_str:000000000002b23f .LASF7843
     /tmp/ccOWj8hl.s:90255  .debug_str:000000000000c566 .LASF7844
     /tmp/ccOWj8hl.s:93793  .debug_str:000000000001a3e7 .LASF7845
     /tmp/ccOWj8hl.s:91891  .debug_str:0000000000012a2c .LASF7846
     /tmp/ccOWj8hl.s:105511  .debug_str:000000000004a728 .LASF7847
     /tmp/ccOWj8hl.s:91715  .debug_str:0000000000011dc6 .LASF7848
     /tmp/ccOWj8hl.s:94065  .debug_str:000000000001b421 .LASF7849
     /tmp/ccOWj8hl.s:105513  .debug_str:000000000004a741 .LASF7850
     /tmp/ccOWj8hl.s:91717  .debug_str:0000000000011ddf .LASF7851
     /tmp/ccOWj8hl.s:88085  .debug_str:0000000000003219 .LASF7852
     /tmp/ccOWj8hl.s:91991  .debug_str:0000000000012ff6 .LASF7853
     /tmp/ccOWj8hl.s:101265  .debug_str:00000000000388ce .LASF7854
     /tmp/ccOWj8hl.s:105601  .debug_str:000000000004ad4b .LASF7855
     /tmp/ccOWj8hl.s:91993  .debug_str:000000000001300f .LASF7856
     /tmp/ccOWj8hl.s:96913  .debug_str:0000000000027044 .LASF7857
     /tmp/ccOWj8hl.s:99793  .debug_str:0000000000032ed1 .LASF7858
     /tmp/ccOWj8hl.s:95281  .debug_str:00000000000208cd .LASF7859
     /tmp/ccOWj8hl.s:101951  .debug_str:000000000003b84e .LASF7860
     /tmp/ccOWj8hl.s:98691  .debug_str:000000000002e492 .LASF7861
     /tmp/ccOWj8hl.s:95283  .debug_str:00000000000208e6 .LASF7862
     /tmp/ccOWj8hl.s:101953  .debug_str:000000000003b867 .LASF7863
     /tmp/ccOWj8hl.s:92675  .debug_str:0000000000015aa8 .LASF7864
     /tmp/ccOWj8hl.s:105399  .debug_str:0000000000049dd9 .LASF7865
     /tmp/ccOWj8hl.s:88343  .debug_str:00000000000043bd .LASF7866
     /tmp/ccOWj8hl.s:91349  .debug_str:00000000000104f2 .LASF7867
     /tmp/ccOWj8hl.s:102219  .debug_str:000000000003c93e .LASF7868
     /tmp/ccOWj8hl.s:88345  .debug_str:00000000000043d6 .LASF7869
     /tmp/ccOWj8hl.s:104125  .debug_str:000000000004470a .LASF7870
     /tmp/ccOWj8hl.s:88631  .debug_str:0000000000005820 .LASF7871
     /tmp/ccOWj8hl.s:93521  .debug_str:0000000000019299 .LASF7872
     /tmp/ccOWj8hl.s:103007  .debug_str:000000000003fda9 .LASF7873
     /tmp/ccOWj8hl.s:88633  .debug_str:0000000000005839 .LASF7874
     /tmp/ccOWj8hl.s:101739  .debug_str:000000000003a976 .LASF7875
     /tmp/ccOWj8hl.s:97203  .debug_str:0000000000028382 .LASF7876
     /tmp/ccOWj8hl.s:93839  .debug_str:000000000001a68a .LASF7877
     /tmp/ccOWj8hl.s:98721  .debug_str:000000000002e6d3 .LASF7878
     /tmp/ccOWj8hl.s:96007  .debug_str:0000000000023852 .LASF7879
     /tmp/ccOWj8hl.s:88505  .debug_str:0000000000004ef2 .LASF7880
     /tmp/ccOWj8hl.s:98723  .debug_str:000000000002e6ec .LASF7881
     /tmp/ccOWj8hl.s:89965  .debug_str:000000000000b174 .LASF7882
     /tmp/ccOWj8hl.s:100119  .debug_str:0000000000034490 .LASF7883
     /tmp/ccOWj8hl.s:92809  .debug_str:0000000000016381 .LASF7884
     /tmp/ccOWj8hl.s:98733  .debug_str:000000000002e7ce .LASF7885
     /tmp/ccOWj8hl.s:99609  .debug_str:0000000000032269 .LASF7886
     /tmp/ccOWj8hl.s:89447  .debug_str:0000000000008e07 .LASF7887
     /tmp/ccOWj8hl.s:99059  .debug_str:000000000002fc77 .LASF7888
     /tmp/ccOWj8hl.s:99611  .debug_str:0000000000032276 .LASF7889
     /tmp/ccOWj8hl.s:91587  .debug_str:000000000001151b .LASF7890
     /tmp/ccOWj8hl.s:93075  .debug_str:00000000000175e2 .LASF7891
     /tmp/ccOWj8hl.s:99613  .debug_str:0000000000032283 .LASF7892
     /tmp/ccOWj8hl.s:89453  .debug_str:0000000000008e4b .LASF7893
     /tmp/ccOWj8hl.s:99969  .debug_str:0000000000033b0f .LASF7894
     /tmp/ccOWj8hl.s:98247  .debug_str:000000000002c68b .LASF7895
     /tmp/ccOWj8hl.s:88927  .debug_str:0000000000006be1 .LASF7896
     /tmp/ccOWj8hl.s:94179  .debug_str:000000000001bbcc .LASF7897
     /tmp/ccOWj8hl.s:102099  .debug_str:000000000003c1ec .LASF7898
     /tmp/ccOWj8hl.s:93909  .debug_str:000000000001ab2e .LASF7899
     /tmp/ccOWj8hl.s:105065  .debug_str:000000000004869e .LASF7900
     /tmp/ccOWj8hl.s:91507  .debug_str:0000000000010f64 .LASF7901
     /tmp/ccOWj8hl.s:101407  .debug_str:000000000003922b .LASF7902
     /tmp/ccOWj8hl.s:91885  .debug_str:00000000000129c2 .LASF7903
     /tmp/ccOWj8hl.s:99927  .debug_str:000000000003383b .LASF7904
     /tmp/ccOWj8hl.s:94119  .debug_str:000000000001b80b .LASF7905
     /tmp/ccOWj8hl.s:87489  .debug_str:00000000000008c8 .LASF7906
     /tmp/ccOWj8hl.s:95077  .debug_str:000000000001fa31 .LASF7907
     /tmp/ccOWj8hl.s:99105  .debug_str:000000000002ff7a .LASF7908
     /tmp/ccOWj8hl.s:103681  .debug_str:00000000000429de .LASF7909
     /tmp/ccOWj8hl.s:92923  .debug_str:0000000000016bf5 .LASF7910
     /tmp/ccOWj8hl.s:97073  .debug_str:0000000000027a7c .LASF7911
     /tmp/ccOWj8hl.s:101769  .debug_str:000000000003ab43 .LASF7912
     /tmp/ccOWj8hl.s:103145  .debug_str:00000000000407f1 .LASF7913
     /tmp/ccOWj8hl.s:99821  .debug_str:00000000000330a2 .LASF7914
     /tmp/ccOWj8hl.s:100169  .debug_str:00000000000347bf .LASF7915
     /tmp/ccOWj8hl.s:87781  .debug_str:0000000000001c6f .LASF7916
     /tmp/ccOWj8hl.s:101289  .debug_str:0000000000038a7b .LASF7917
     /tmp/ccOWj8hl.s:94331  .debug_str:000000000001c5b7 .LASF7918
     /tmp/ccOWj8hl.s:102689  .debug_str:000000000003e962 .LASF7919
     /tmp/ccOWj8hl.s:105665  .debug_str:000000000004b181 .LASF7920
     /tmp/ccOWj8hl.s:102763  .debug_str:000000000003edce .LASF7921
     /tmp/ccOWj8hl.s:92113  .debug_str:0000000000013797 .LASF7922
     /tmp/ccOWj8hl.s:98019  .debug_str:000000000002b70d .LASF7923
     /tmp/ccOWj8hl.s:97939  .debug_str:000000000002b287 .LASF7924
     /tmp/ccOWj8hl.s:102207  .debug_str:000000000003c8a0 .LASF7925
     /tmp/ccOWj8hl.s:98241  .debug_str:000000000002c628 .LASF7926
     /tmp/ccOWj8hl.s:99763  .debug_str:0000000000032c9d .LASF7927
     /tmp/ccOWj8hl.s:88131  .debug_str:00000000000034ad .LASF7928
     /tmp/ccOWj8hl.s:98037  .debug_str:000000000002b84f .LASF7929
     /tmp/ccOWj8hl.s:97857  .debug_str:000000000002ad90 .LASF7930
     /tmp/ccOWj8hl.s:94511  .debug_str:000000000001d2b7 .LASF7931
     /tmp/ccOWj8hl.s:97503  .debug_str:0000000000029608 .LASF7932
     /tmp/ccOWj8hl.s:87515  .debug_str:0000000000000a6d .LASF7933
     /tmp/ccOWj8hl.s:96353  .debug_str:0000000000024aa7 .LASF7934
     /tmp/ccOWj8hl.s:99581  .debug_str:000000000003207a .LASF7935
     /tmp/ccOWj8hl.s:96787  .debug_str:00000000000267af .LASF7936
     /tmp/ccOWj8hl.s:93741  .debug_str:000000000001a11b .LASF7937
     /tmp/ccOWj8hl.s:105969  .debug_str:000000000004c5fd .LASF7938
     /tmp/ccOWj8hl.s:94943  .debug_str:000000000001f155 .LASF7939
     /tmp/ccOWj8hl.s:89783  .debug_str:000000000000a498 .LASF7940
     /tmp/ccOWj8hl.s:99707  .debug_str:000000000003293b .LASF7941
     /tmp/ccOWj8hl.s:105973  .debug_str:000000000004c627 .LASF7942
     /tmp/ccOWj8hl.s:89335  .debug_str:000000000000861d .LASF7943
     /tmp/ccOWj8hl.s:89111  .debug_str:0000000000007784 .LASF7944
     /tmp/ccOWj8hl.s:95357  .debug_str:0000000000020d3f .LASF7945
     /tmp/ccOWj8hl.s:104589  .debug_str:0000000000046619 .LASF7946
     /tmp/ccOWj8hl.s:90881  .debug_str:000000000000e97a .LASF7947
     /tmp/ccOWj8hl.s:99027  .debug_str:000000000002faa8 .LASF7948
     /tmp/ccOWj8hl.s:94803  .debug_str:000000000001e686 .LASF7949
     /tmp/ccOWj8hl.s:89121  .debug_str:00000000000077ec .LASF7950
     /tmp/ccOWj8hl.s:93467  .debug_str:0000000000018ed1 .LASF7951
     /tmp/ccOWj8hl.s:92031  .debug_str:000000000001326e .LASF7952
     /tmp/ccOWj8hl.s:104913  .debug_str:0000000000047bd9 .LASF7953
     /tmp/ccOWj8hl.s:101197  .debug_str:0000000000038438 .LASF7954
     /tmp/ccOWj8hl.s:105931  .debug_str:000000000004c336 .LASF7955
     /tmp/ccOWj8hl.s:90497  .debug_str:000000000000d456 .LASF7956
     /tmp/ccOWj8hl.s:88311  .debug_str:0000000000004204 .LASF7957
     /tmp/ccOWj8hl.s:88385  .debug_str:00000000000046ca .LASF7958
     /tmp/ccOWj8hl.s:91755  .debug_str:000000000001207d .LASF7959
     /tmp/ccOWj8hl.s:104547  .debug_str:0000000000046339 .LASF7960
     /tmp/ccOWj8hl.s:91037  .debug_str:000000000000f366 .LASF7961
     /tmp/ccOWj8hl.s:90565  .debug_str:000000000000d8a8 .LASF7962
     /tmp/ccOWj8hl.s:93039  .debug_str:0000000000017342 .LASF7963
     /tmp/ccOWj8hl.s:91025  .debug_str:000000000000f24b .LASF7964
     /tmp/ccOWj8hl.s:100939  .debug_str:00000000000373f7 .LASF7965
     /tmp/ccOWj8hl.s:95295  .debug_str:000000000002095b .LASF7966
     /tmp/ccOWj8hl.s:100517  .debug_str:0000000000035d6e .LASF7967
     /tmp/ccOWj8hl.s:103777  .debug_str:000000000004307c .LASF7968
     /tmp/ccOWj8hl.s:92035  .debug_str:0000000000013292 .LASF7969
     /tmp/ccOWj8hl.s:87511  .debug_str:0000000000000a54 .LASF7970
     /tmp/ccOWj8hl.s:105663  .debug_str:000000000004b179 .LASF7971
     /tmp/ccOWj8hl.s:100985  .debug_str:0000000000037655 .LASF7972
     /tmp/ccOWj8hl.s:95023  .debug_str:000000000001f743 .LASF7973
     /tmp/ccOWj8hl.s:91913  .debug_str:0000000000012b3c .LASF7974
     /tmp/ccOWj8hl.s:98685  .debug_str:000000000002e450 .LASF7975
     /tmp/ccOWj8hl.s:91463  .debug_str:0000000000010bd0 .LASF7976
     /tmp/ccOWj8hl.s:101341  .debug_str:0000000000038e34 .LASF7977
     /tmp/ccOWj8hl.s:98569  .debug_str:000000000002dc8e .LASF7978
     /tmp/ccOWj8hl.s:95583  .debug_str:0000000000021c58 .LASF7979
     /tmp/ccOWj8hl.s:98909  .debug_str:000000000002f355 .LASF7980
     /tmp/ccOWj8hl.s:88695  .debug_str:0000000000005bca .LASF7981
     /tmp/ccOWj8hl.s:104107  .debug_str:00000000000445b3 .LASF7982
     /tmp/ccOWj8hl.s:90013  .debug_str:000000000000b572 .LASF7983
     /tmp/ccOWj8hl.s:99801  .debug_str:0000000000032f7e .LASF7984
     /tmp/ccOWj8hl.s:91545  .debug_str:0000000000011216 .LASF7985
     /tmp/ccOWj8hl.s:100565  .debug_str:0000000000035fb9 .LASF7986
     /tmp/ccOWj8hl.s:87565  .debug_str:0000000000000dba .LASF7987
     /tmp/ccOWj8hl.s:100633  .debug_str:000000000003635b .LASF7988
     /tmp/ccOWj8hl.s:103871  .debug_str:00000000000435d7 .LASF7989
     /tmp/ccOWj8hl.s:104203  .debug_str:0000000000044c3e .LASF7990
     /tmp/ccOWj8hl.s:89867  .debug_str:000000000000aa80 .LASF7991
     /tmp/ccOWj8hl.s:99787  .debug_str:0000000000032e78 .LASF7992
     /tmp/ccOWj8hl.s:95197  .debug_str:00000000000202d0 .LASF7993
     /tmp/ccOWj8hl.s:94475  .debug_str:000000000001d013 .LASF7994
     /tmp/ccOWj8hl.s:103629  .debug_str:00000000000426ec .LASF7995
     /tmp/ccOWj8hl.s:87539  .debug_str:0000000000000bbd .LASF7996
     /tmp/ccOWj8hl.s:96271  .debug_str:0000000000024544 .LASF7997
     /tmp/ccOWj8hl.s:101259  .debug_str:0000000000038849 .LASF7998
     /tmp/ccOWj8hl.s:105435  .debug_str:000000000004a11d .LASF7999
     /tmp/ccOWj8hl.s:100827  .debug_str:0000000000036dc4 .LASF8000
     /tmp/ccOWj8hl.s:93973  .debug_str:000000000001aed9 .LASF8001
     /tmp/ccOWj8hl.s:94579  .debug_str:000000000001d6f2 .LASF8002
     /tmp/ccOWj8hl.s:101385  .debug_str:00000000000390b0 .LASF8003
     /tmp/ccOWj8hl.s:102533  .debug_str:000000000003dd61 .LASF8004
     /tmp/ccOWj8hl.s:95935  .debug_str:00000000000233ef .LASF8005
     /tmp/ccOWj8hl.s:90085  .debug_str:000000000000b9db .LASF8006
     /tmp/ccOWj8hl.s:93561  .debug_str:0000000000019584 .LASF8007
     /tmp/ccOWj8hl.s:96647  .debug_str:0000000000025e73 .LASF8008
     /tmp/ccOWj8hl.s:94859  .debug_str:000000000001eb10 .LASF8009
     /tmp/ccOWj8hl.s:97509  .debug_str:0000000000029674 .LASF8010
     /tmp/ccOWj8hl.s:92233  .debug_str:0000000000013e1c .LASF8011
     /tmp/ccOWj8hl.s:105175  .debug_str:0000000000048ddd .LASF8012
     /tmp/ccOWj8hl.s:101357  .debug_str:0000000000038f22 .LASF8013
     /tmp/ccOWj8hl.s:102493  .debug_str:000000000003da66 .LASF8014
     /tmp/ccOWj8hl.s:94625  .debug_str:000000000001d9cd .LASF8015
     /tmp/ccOWj8hl.s:102707  .debug_str:000000000003ea8c .LASF8016
     /tmp/ccOWj8hl.s:90607  .debug_str:000000000000db37 .LASF8017
     /tmp/ccOWj8hl.s:90627  .debug_str:000000000000dcf4 .LASF8018
     /tmp/ccOWj8hl.s:103457  .debug_str:0000000000041c3a .LASF8019
     /tmp/ccOWj8hl.s:89055  .debug_str:00000000000073e8 .LASF8020
     /tmp/ccOWj8hl.s:100245  .debug_str:0000000000034cbf .LASF8021
     /tmp/ccOWj8hl.s:103523  .debug_str:000000000004204b .LASF8022
     /tmp/ccOWj8hl.s:100089  .debug_str:0000000000034238 .LASF8023
     /tmp/ccOWj8hl.s:89793  .debug_str:000000000000a507 .LASF8024
     /tmp/ccOWj8hl.s:99715  .debug_str:00000000000329ac .LASF8025
     /tmp/ccOWj8hl.s:96107  .debug_str:0000000000023d80 .LASF8026
     /tmp/ccOWj8hl.s:102105  .debug_str:000000000003c204 .LASF8027
     /tmp/ccOWj8hl.s:99869  .debug_str:000000000003343a .LASF8028
     /tmp/ccOWj8hl.s:93987  .debug_str:000000000001af96 .LASF8029
     /tmp/ccOWj8hl.s:92971  .debug_str:0000000000016f37 .LASF8030
     /tmp/ccOWj8hl.s:92789  .debug_str:000000000001624c .LASF8031
     /tmp/ccOWj8hl.s:96489  .debug_str:000000000002541e .LASF8032
     /tmp/ccOWj8hl.s:101355  .debug_str:0000000000038f1a .LASF8033
     /tmp/ccOWj8hl.s:89115  .debug_str:00000000000077ac .LASF8034
     /tmp/ccOWj8hl.s:95765  .debug_str:0000000000022833 .LASF8035
     /tmp/ccOWj8hl.s:99963  .debug_str:0000000000033ac3 .LASF8036
     /tmp/ccOWj8hl.s:87613  .debug_str:000000000000111a .LASF8037
     /tmp/ccOWj8hl.s:96405  .debug_str:0000000000024dd7 .LASF8038
     /tmp/ccOWj8hl.s:101015  .debug_str:00000000000377e0 .LASF8039
     /tmp/ccOWj8hl.s:88383  .debug_str:00000000000046be .LASF8040
     /tmp/ccOWj8hl.s:101617  .debug_str:000000000003a0f6 .LASF8041
     /tmp/ccOWj8hl.s:99029  .debug_str:000000000002facc .LASF8042
     /tmp/ccOWj8hl.s:96391  .debug_str:0000000000024d14 .LASF8043
     /tmp/ccOWj8hl.s:93413  .debug_str:0000000000018b58 .LASF8044
     /tmp/ccOWj8hl.s:94195  .debug_str:000000000001bc80 .LASF8045
     /tmp/ccOWj8hl.s:100579  .debug_str:00000000000360a5 .LASF8046
     /tmp/ccOWj8hl.s:103557  .debug_str:0000000000042270 .LASF8047
     /tmp/ccOWj8hl.s:103367  .debug_str:0000000000041634 .LASF8048
     /tmp/ccOWj8hl.s:105837  .debug_str:000000000004bc8b .LASF8049
     /tmp/ccOWj8hl.s:96025  .debug_str:000000000002397b .LASF8050
     /tmp/ccOWj8hl.s:92781  .debug_str:00000000000161df .LASF8051
     /tmp/ccOWj8hl.s:95067  .debug_str:000000000001f99a .LASF8052
     /tmp/ccOWj8hl.s:100401  .debug_str:0000000000035616 .LASF8053
     /tmp/ccOWj8hl.s:97349  .debug_str:0000000000028cd0 .LASF8054
     /tmp/ccOWj8hl.s:103853  .debug_str:0000000000043522 .LASF8055
     /tmp/ccOWj8hl.s:98411  .debug_str:000000000002d160 .LASF8056
     /tmp/ccOWj8hl.s:97351  .debug_str:0000000000028ce3 .LASF8057
     /tmp/ccOWj8hl.s:103855  .debug_str:0000000000043535 .LASF8058
     /tmp/ccOWj8hl.s:94033  .debug_str:000000000001b250 .LASF8059
     /tmp/ccOWj8hl.s:97353  .debug_str:0000000000028cf6 .LASF8060
     /tmp/ccOWj8hl.s:96719  .debug_str:000000000002638b .LASF8061
     /tmp/ccOWj8hl.s:105089  .debug_str:0000000000048828 .LASF8062
     /tmp/ccOWj8hl.s:96785  .debug_str:000000000002679c .LASF8063
     /tmp/ccOWj8hl.s:103859  .debug_str:0000000000043555 .LASF8064
     /tmp/ccOWj8hl.s:99313  .debug_str:0000000000030e5d .LASF8065
     /tmp/ccOWj8hl.s:97357  .debug_str:0000000000028d2a .LASF8066
     /tmp/ccOWj8hl.s:103861  .debug_str:0000000000043568 .LASF8067
     /tmp/ccOWj8hl.s:93317  .debug_str:00000000000184ba .LASF8068
     /tmp/ccOWj8hl.s:97359  .debug_str:0000000000028d3d .LASF8069
     /tmp/ccOWj8hl.s:103863  .debug_str:000000000004357b .LASF8070
     /tmp/ccOWj8hl.s:87391  .debug_str:0000000000000217 .LASF8071
     /tmp/ccOWj8hl.s:97361  .debug_str:0000000000028d50 .LASF8072
     /tmp/ccOWj8hl.s:103865  .debug_str:000000000004358e .LASF8073
     /tmp/ccOWj8hl.s:100209  .debug_str:00000000000349f9 .LASF8074
     /tmp/ccOWj8hl.s:97363  .debug_str:0000000000028d63 .LASF8075
     /tmp/ccOWj8hl.s:103867  .debug_str:00000000000435a1 .LASF8076
     /tmp/ccOWj8hl.s:94317  .debug_str:000000000001c4bc .LASF8077
     /tmp/ccOWj8hl.s:97595  .debug_str:0000000000029cf3 .LASF8078
     /tmp/ccOWj8hl.s:94553  .debug_str:000000000001d5a2 .LASF8079
     /tmp/ccOWj8hl.s:100213  .debug_str:0000000000034a41 .LASF8080
     /tmp/ccOWj8hl.s:103537  .debug_str:0000000000042160 .LASF8081
     /tmp/ccOWj8hl.s:94555  .debug_str:000000000001d5b5 .LASF8082
     /tmp/ccOWj8hl.s:98237  .debug_str:000000000002c5cb .LASF8083
     /tmp/ccOWj8hl.s:87853  .debug_str:00000000000021c2 .LASF8084
     /tmp/ccOWj8hl.s:94557  .debug_str:000000000001d5c8 .LASF8085
     /tmp/ccOWj8hl.s:92195  .debug_str:0000000000013c84 .LASF8086
     /tmp/ccOWj8hl.s:87855  .debug_str:00000000000021d5 .LASF8087
     /tmp/ccOWj8hl.s:94559  .debug_str:000000000001d5db .LASF8088
     /tmp/ccOWj8hl.s:104905  .debug_str:0000000000047b49 .LASF8089
     /tmp/ccOWj8hl.s:103545  .debug_str:00000000000421ac .LASF8090
     /tmp/ccOWj8hl.s:94561  .debug_str:000000000001d5ee .LASF8091
     /tmp/ccOWj8hl.s:94053  .debug_str:000000000001b366 .LASF8092
     /tmp/ccOWj8hl.s:87859  .debug_str:0000000000002228 .LASF8093
     /tmp/ccOWj8hl.s:94563  .debug_str:000000000001d601 .LASF8094
     /tmp/ccOWj8hl.s:93419  .debug_str:0000000000018bce .LASF8095
     /tmp/ccOWj8hl.s:87861  .debug_str:000000000000223b .LASF8096
     /tmp/ccOWj8hl.s:94565  .debug_str:000000000001d614 .LASF8097
     /tmp/ccOWj8hl.s:105861  .debug_str:000000000004be67 .LASF8098
     /tmp/ccOWj8hl.s:87863  .debug_str:000000000000224e .LASF8099
     /tmp/ccOWj8hl.s:94567  .debug_str:000000000001d627 .LASF8100
     /tmp/ccOWj8hl.s:100019  .debug_str:0000000000033df3 .LASF8101
     /tmp/ccOWj8hl.s:104821  .debug_str:00000000000474ab .LASF8102
     /tmp/ccOWj8hl.s:97267  .debug_str:000000000002880e .LASF8103
     /tmp/ccOWj8hl.s:104935  .debug_str:0000000000047d7e .LASF8104
     /tmp/ccOWj8hl.s:95449  .debug_str:000000000002131a .LASF8105
     /tmp/ccOWj8hl.s:87637  .debug_str:000000000000129c .LASF8106
     /tmp/ccOWj8hl.s:92039  .debug_str:00000000000132c3 .LASF8107
     /tmp/ccOWj8hl.s:94287  .debug_str:000000000001c297 .LASF8108
     /tmp/ccOWj8hl.s:99229  .debug_str:00000000000308ca .LASF8109
     /tmp/ccOWj8hl.s:98169  .debug_str:000000000002c106 .LASF8110
     /tmp/ccOWj8hl.s:95953  .debug_str:0000000000023511 .LASF8111
     /tmp/ccOWj8hl.s:101105  .debug_str:0000000000037e25 .LASF8112
     /tmp/ccOWj8hl.s:105267  .debug_str:00000000000494be .LASF8113
     /tmp/ccOWj8hl.s:96261  .debug_str:00000000000244dc .LASF8114
     /tmp/ccOWj8hl.s:93205  .debug_str:0000000000017cdc .LASF8115
     /tmp/ccOWj8hl.s:89185  .debug_str:0000000000007be4 .LASF8116
     /tmp/ccOWj8hl.s:99753  .debug_str:0000000000032be3 .LASF8117
     /tmp/ccOWj8hl.s:105793  .debug_str:000000000004b957 .LASF8118
     /tmp/ccOWj8hl.s:89561  .debug_str:000000000000962c .LASF8119
     /tmp/ccOWj8hl.s:100295  .debug_str:0000000000034fc3 .LASF8120
     /tmp/ccOWj8hl.s:99165  .debug_str:0000000000030465 .LASF8121
     /tmp/ccOWj8hl.s:88659  .debug_str:00000000000059a0 .LASF8122
     /tmp/ccOWj8hl.s:102189  .debug_str:000000000003c752 .LASF8123
     /tmp/ccOWj8hl.s:98505  .debug_str:000000000002d8b8 .LASF8124
     /tmp/ccOWj8hl.s:91577  .debug_str:0000000000011431 .LASF8125
     /tmp/ccOWj8hl.s:100009  .debug_str:0000000000033d8d .LASF8126
     /tmp/ccOWj8hl.s:103273  .debug_str:0000000000041015 .LASF8127
     /tmp/ccOWj8hl.s:94369  .debug_str:000000000001c8b2 .LASF8128
     /tmp/ccOWj8hl.s:105119  .debug_str:0000000000048a40 .LASF8129
     /tmp/ccOWj8hl.s:101409  .debug_str:0000000000039246 .LASF8130
     /tmp/ccOWj8hl.s:88463  .debug_str:0000000000004c04 .LASF8131
     /tmp/ccOWj8hl.s:103505  .debug_str:0000000000041f42 .LASF8132
     /tmp/ccOWj8hl.s:88481  .debug_str:0000000000004d83 .LASF8133
     /tmp/ccOWj8hl.s:103067  .debug_str:0000000000040234 .LASF8134
     /tmp/ccOWj8hl.s:100383  .debug_str:00000000000354b2 .LASF8135
     /tmp/ccOWj8hl.s:103665  .debug_str:00000000000428e5 .LASF8136
     /tmp/ccOWj8hl.s:97737  .debug_str:000000000002a5c0 .LASF8137
     /tmp/ccOWj8hl.s:91711  .debug_str:0000000000011d90 .LASF8138
     /tmp/ccOWj8hl.s:104069  .debug_str:0000000000044309 .LASF8139
     /tmp/ccOWj8hl.s:95615  .debug_str:0000000000021e41 .LASF8140
     /tmp/ccOWj8hl.s:91185  .debug_str:000000000000fb34 .LASF8141
     /tmp/ccOWj8hl.s:89981  .debug_str:000000000000b2c8 .LASF8142
     /tmp/ccOWj8hl.s:104553  .debug_str:0000000000046387 .LASF8143
     /tmp/ccOWj8hl.s:105285  .debug_str:000000000004963b .LASF8144
     /tmp/ccOWj8hl.s:89651  .debug_str:0000000000009bcf .LASF8145
     /tmp/ccOWj8hl.s:90397  .debug_str:000000000000ce8b .LASF8146
     /tmp/ccOWj8hl.s:95181  .debug_str:00000000000201eb .LASF8147
     /tmp/ccOWj8hl.s:91537  .debug_str:0000000000011172 .LASF8148
     /tmp/ccOWj8hl.s:102871  .debug_str:000000000003f55c .LASF8149
     /tmp/ccOWj8hl.s:90545  .debug_str:000000000000d795 .LASF8150
     /tmp/ccOWj8hl.s:104215  .debug_str:0000000000044d1c .LASF8151
     /tmp/ccOWj8hl.s:87505  .debug_str:0000000000000a05 .LASF8152
     /tmp/ccOWj8hl.s:89743  .debug_str:000000000000a1fb .LASF8153
     /tmp/ccOWj8hl.s:104163  .debug_str:00000000000449e5 .LASF8154
     /tmp/ccOWj8hl.s:102141  .debug_str:000000000003c416 .LASF8155
     /tmp/ccOWj8hl.s:96679  .debug_str:00000000000260a9 .LASF8156
     /tmp/ccOWj8hl.s:88441  .debug_str:0000000000004ab5 .LASF8157
     /tmp/ccOWj8hl.s:104089  .debug_str:0000000000044450 .LASF8158
     /tmp/ccOWj8hl.s:93591  .debug_str:00000000000196db .LASF8159
     /tmp/ccOWj8hl.s:96971  .debug_str:0000000000027428 .LASF8160
     /tmp/ccOWj8hl.s:94675  .debug_str:000000000001ddd5 .LASF8161
     /tmp/ccOWj8hl.s:87487  .debug_str:00000000000008b8 .LASF8162
     /tmp/ccOWj8hl.s:88219  .debug_str:0000000000003afa .LASF8163
     /tmp/ccOWj8hl.s:97445  .debug_str:0000000000029314 .LASF8164
     /tmp/ccOWj8hl.s:104273  .debug_str:00000000000450b2 .LASF8165
     /tmp/ccOWj8hl.s:96043  .debug_str:0000000000023a87 .LASF8166
     /tmp/ccOWj8hl.s:87987  .debug_str:0000000000002b01 .LASF8167
     /tmp/ccOWj8hl.s:91645  .debug_str:0000000000011932 .LASF8168
     /tmp/ccOWj8hl.s:98291  .debug_str:000000000002c9b3 .LASF8169
     /tmp/ccOWj8hl.s:93507  .debug_str:00000000000191b7 .LASF8170
     /tmp/ccOWj8hl.s:92487  .debug_str:0000000000014f82 .LASF8171
     /tmp/ccOWj8hl.s:101365  .debug_str:0000000000038f92 .LASF8172
     /tmp/ccOWj8hl.s:93295  .debug_str:0000000000018313 .LASF8173
     /tmp/ccOWj8hl.s:96265  .debug_str:00000000000244fa .LASF8174
     /tmp/ccOWj8hl.s:90303  .debug_str:000000000000c878 .LASF8175
     /tmp/ccOWj8hl.s:99405  .debug_str:00000000000314ca .LASF8176
     /tmp/ccOWj8hl.s:97487  .debug_str:000000000002956c .LASF8177
     /tmp/ccOWj8hl.s:97893  .debug_str:000000000002b01a .LASF8178
     /tmp/ccOWj8hl.s:101885  .debug_str:000000000003b380 .LASF8179
     /tmp/ccOWj8hl.s:100291  .debug_str:0000000000034f8c .LASF8180
     /tmp/ccOWj8hl.s:103733  .debug_str:0000000000042daf .LASF8181
     /tmp/ccOWj8hl.s:96609  .debug_str:0000000000025b69 .LASF8182
     /tmp/ccOWj8hl.s:98805  .debug_str:000000000002ecf0 .LASF8183
     /tmp/ccOWj8hl.s:89623  .debug_str:00000000000099d1 .LASF8184
     /tmp/ccOWj8hl.s:100773  .debug_str:0000000000036b3b .LASF8185
     /tmp/ccOWj8hl.s:92047  .debug_str:000000000001333a .LASF8186
     /tmp/ccOWj8hl.s:92351  .debug_str:0000000000014607 .LASF8187
     /tmp/ccOWj8hl.s:94157  .debug_str:000000000001ba46 .LASF8188
     /tmp/ccOWj8hl.s:93649  .debug_str:0000000000019bdf .LASF8189
     /tmp/ccOWj8hl.s:93983  .debug_str:000000000001af5d .LASF8190
     /tmp/ccOWj8hl.s:89031  .debug_str:0000000000007293 .LASF8191
     /tmp/ccOWj8hl.s:91043  .debug_str:000000000000f3b1 .LASF8192
     /tmp/ccOWj8hl.s:98545  .debug_str:000000000002db25 .LASF8193
     /tmp/ccOWj8hl.s:91557  .debug_str:00000000000112e9 .LASF8194
     /tmp/ccOWj8hl.s:92633  .debug_str:000000000001581c .LASF8195
     /tmp/ccOWj8hl.s:95041  .debug_str:000000000001f818 .LASF8196
     /tmp/ccOWj8hl.s:92025  .debug_str:000000000001321b .LASF8197
     /tmp/ccOWj8hl.s:89259  .debug_str:0000000000008128 .LASF8198
     /tmp/ccOWj8hl.s:97501  .debug_str:00000000000295fa .LASF8199
     /tmp/ccOWj8hl.s:99145  .debug_str:0000000000030280 .LASF8200
     /tmp/ccOWj8hl.s:105977  .debug_str:000000000004c67a .LASF8201
     /tmp/ccOWj8hl.s:88119  .debug_str:00000000000033f3 .LASF8202
     /tmp/ccOWj8hl.s:96945  .debug_str:0000000000027257 .LASF8203
     /tmp/ccOWj8hl.s:105397  .debug_str:0000000000049dcc .LASF8204
     /tmp/ccOWj8hl.s:88865  .debug_str:0000000000006746 .LASF8205
     /tmp/ccOWj8hl.s:96847  .debug_str:0000000000026b79 .LASF8206
     /tmp/ccOWj8hl.s:90097  .debug_str:000000000000ba97 .LASF8207
     /tmp/ccOWj8hl.s:99675  .debug_str:00000000000326a5 .LASF8208
     /tmp/ccOWj8hl.s:98131  .debug_str:000000000002beca .LASF8209
     /tmp/ccOWj8hl.s:94767  .debug_str:000000000001e4ae .LASF8210
     /tmp/ccOWj8hl.s:104079  .debug_str:000000000004438a .LASF8211
     /tmp/ccOWj8hl.s:97863  .debug_str:000000000002ae30 .LASF8212
     /tmp/ccOWj8hl.s:105083  .debug_str:00000000000487c4 .LASF8213
     /tmp/ccOWj8hl.s:98833  .debug_str:000000000002eea2 .LASF8214
     /tmp/ccOWj8hl.s:93053  .debug_str:0000000000017477 .LASF8215
     /tmp/ccOWj8hl.s:91231  .debug_str:000000000000fe0c .LASF8216
     /tmp/ccOWj8hl.s:94883  .debug_str:000000000001ecaf .LASF8217
     /tmp/ccOWj8hl.s:101501  .debug_str:0000000000039953 .LASF8218
     /tmp/ccOWj8hl.s:94359  .debug_str:000000000001c817 .LASF8219
     /tmp/ccOWj8hl.s:90089  .debug_str:000000000000ba0b .LASF8220
     /tmp/ccOWj8hl.s:88993  .debug_str:0000000000006fe1 .LASF8221
     /tmp/ccOWj8hl.s:102907  .debug_str:000000000003f800 .LASF8222
     /tmp/ccOWj8hl.s:96237  .debug_str:000000000002446a .LASF8223
     /tmp/ccOWj8hl.s:88249  .debug_str:0000000000003d13 .LASF8224
     /tmp/ccOWj8hl.s:93463  .debug_str:0000000000018e94 .LASF8225
     /tmp/ccOWj8hl.s:105497  .debug_str:000000000004a615 .LASF8226
     /tmp/ccOWj8hl.s:88143  .debug_str:000000000000359b .LASF8227
     /tmp/ccOWj8hl.s:97605  .debug_str:0000000000029d89 .LASF8228
     /tmp/ccOWj8hl.s:90815  .debug_str:000000000000e5d2 .LASF8229
     /tmp/ccOWj8hl.s:99001  .debug_str:000000000002f945 .LASF8230
     /tmp/ccOWj8hl.s:100265  .debug_str:0000000000034e16 .LASF8231
     /tmp/ccOWj8hl.s:103543  .debug_str:00000000000421a4 .LASF8232
     /tmp/ccOWj8hl.s:92997  .debug_str:000000000001708b .LASF8233
     /tmp/ccOWj8hl.s:100273  .debug_str:0000000000034e96 .LASF8234
     /tmp/ccOWj8hl.s:103551  .debug_str:000000000004221b .LASF8235
     /tmp/ccOWj8hl.s:103735  .debug_str:0000000000042dbd .LASF8236
     /tmp/ccOWj8hl.s:102403  .debug_str:000000000003d4d4 .LASF8237
     /tmp/ccOWj8hl.s:98903  .debug_str:000000000002f2e7 .LASF8238
     /tmp/ccOWj8hl.s:97127  .debug_str:0000000000027e67 .LASF8239
     /tmp/ccOWj8hl.s:104953  .debug_str:0000000000047eef .LASF8240
     /tmp/ccOWj8hl.s:101337  .debug_str:0000000000038e16 .LASF8241
     /tmp/ccOWj8hl.s:96667  .debug_str:0000000000025fd2 .LASF8242
     /tmp/ccOWj8hl.s:98793  .debug_str:000000000002ec39 .LASF8243
     /tmp/ccOWj8hl.s:99193  .debug_str:000000000003063b .LASF8244
     /tmp/ccOWj8hl.s:98151  .debug_str:000000000002c00b .LASF8245
     /tmp/ccOWj8hl.s:104993  .debug_str:00000000000481ce .LASF8246
     /tmp/ccOWj8hl.s:104513  .debug_str:0000000000046119 .LASF8247
     /tmp/ccOWj8hl.s:103343  .debug_str:00000000000414c9 .LASF8248
     /tmp/ccOWj8hl.s:105437  .debug_str:000000000004a144 .LASF8249
     /tmp/ccOWj8hl.s:100907  .debug_str:00000000000371d8 .LASF8250
     /tmp/ccOWj8hl.s:100415  .debug_str:00000000000356e6 .LASF8251
     /tmp/ccOWj8hl.s:91407  .debug_str:0000000000010941 .LASF8252
     /tmp/ccOWj8hl.s:96211  .debug_str:00000000000242dd .LASF8253
     /tmp/ccOWj8hl.s:87977  .debug_str:0000000000002a7b .LASF8254
     /tmp/ccOWj8hl.s:90643  .debug_str:000000000000dd84 .LASF8255
     /tmp/ccOWj8hl.s:93417  .debug_str:0000000000018bb5 .LASF8256
     /tmp/ccOWj8hl.s:95661  .debug_str:00000000000221a6 .LASF8257
     /tmp/ccOWj8hl.s:101837  .debug_str:000000000003afc8 .LASF8258
     /tmp/ccOWj8hl.s:100447  .debug_str:0000000000035989 .LASF8259
     /tmp/ccOWj8hl.s:99957  .debug_str:0000000000033a69 .LASF8260
     /tmp/ccOWj8hl.s:105109  .debug_str:000000000004898b .LASF8261
     /tmp/ccOWj8hl.s:99867  .debug_str:0000000000033423 .LASF8262
     /tmp/ccOWj8hl.s:92391  .debug_str:000000000001489d .LASF8263
     /tmp/ccOWj8hl.s:95885  .debug_str:00000000000230cd .LASF8264
     /tmp/ccOWj8hl.s:96907  .debug_str:0000000000027011 .LASF8265
     /tmp/ccOWj8hl.s:96983  .debug_str:0000000000027519 .LASF8266
     /tmp/ccOWj8hl.s:90737  .debug_str:000000000000e277 .LASF8267
     /tmp/ccOWj8hl.s:97281  .debug_str:00000000000288e6 .LASF8268
     /tmp/ccOWj8hl.s:105577  .debug_str:000000000004abac .LASF8269
     /tmp/ccOWj8hl.s:92377  .debug_str:000000000001478d .LASF8270
     /tmp/ccOWj8hl.s:92331  .debug_str:000000000001448b .LASF8271
     /tmp/ccOWj8hl.s:95571  .debug_str:0000000000021b4c .LASF8272
     /tmp/ccOWj8hl.s:89327  .debug_str:00000000000085a8 .LASF8273
     /tmp/ccOWj8hl.s:93545  .debug_str:00000000000194b2 .LASF8274
     /tmp/ccOWj8hl.s:94123  .debug_str:000000000001b833 .LASF8275
     /tmp/ccOWj8hl.s:105651  .debug_str:000000000004b0fa .LASF8276
     /tmp/ccOWj8hl.s:89631  .debug_str:0000000000009a4e .LASF8277
     /tmp/ccOWj8hl.s:103477  .debug_str:0000000000041d93 .LASF8278
     /tmp/ccOWj8hl.s:93263  .debug_str:000000000001814e .LASF8279
     /tmp/ccOWj8hl.s:103439  .debug_str:0000000000041b49 .LASF8280
     /tmp/ccOWj8hl.s:104415  .debug_str:0000000000045a35 .LASF8281
     /tmp/ccOWj8hl.s:98649  .debug_str:000000000002e206 .LASF8282
     /tmp/ccOWj8hl.s:91997  .debug_str:0000000000013036 .LASF8283
     /tmp/ccOWj8hl.s:89767  .debug_str:000000000000a351 .LASF8284
     /tmp/ccOWj8hl.s:91923  .debug_str:0000000000012bc4 .LASF8285
     /tmp/ccOWj8hl.s:102925  .debug_str:000000000003f943 .LASF8286
     /tmp/ccOWj8hl.s:98303  .debug_str:000000000002ca69 .LASF8287
     /tmp/ccOWj8hl.s:95051  .debug_str:000000000001f8cc .LASF8288
     /tmp/ccOWj8hl.s:99381  .debug_str:0000000000031317 .LASF8289
     /tmp/ccOWj8hl.s:105107  .debug_str:000000000004896c .LASF8290
     /tmp/ccOWj8hl.s:100035  .debug_str:0000000000033f1f .LASF8291
     /tmp/ccOWj8hl.s:105151  .debug_str:0000000000048c50 .LASF8292
     /tmp/ccOWj8hl.s:105447  .debug_str:000000000004a22b .LASF8293
     /tmp/ccOWj8hl.s:90305  .debug_str:000000000000c888 .LASF8294
     /tmp/ccOWj8hl.s:98371  .debug_str:000000000002cf78 .LASF8295
     /tmp/ccOWj8hl.s:102069  .debug_str:000000000003c03e .LASF8296
     /tmp/ccOWj8hl.s:100509  .debug_str:0000000000035cd1 .LASF8297
     /tmp/ccOWj8hl.s:88735  .debug_str:0000000000005e97 .LASF8298
     /tmp/ccOWj8hl.s:105043  .debug_str:0000000000048511 .LASF8299
     /tmp/ccOWj8hl.s:89361  .debug_str:0000000000008836 .LASF8300
     /tmp/ccOWj8hl.s:103809  .debug_str:0000000000043254 .LASF8301
     /tmp/ccOWj8hl.s:95531  .debug_str:00000000000218f4 .LASF8302
     /tmp/ccOWj8hl.s:98289  .debug_str:000000000002c9a8 .LASF8303
     /tmp/ccOWj8hl.s:93895  .debug_str:000000000001aa4b .LASF8304
     /tmp/ccOWj8hl.s:103347  .debug_str:00000000000414f9 .LASF8305
     /tmp/ccOWj8hl.s:105181  .debug_str:0000000000048e4c .LASF8306
     /tmp/ccOWj8hl.s:101019  .debug_str:000000000003780d .LASF8307
     /tmp/ccOWj8hl.s:99147  .debug_str:00000000000302a2 .LASF8308
     /tmp/ccOWj8hl.s:103333  .debug_str:0000000000041459 .LASF8309
     /tmp/ccOWj8hl.s:97773  .debug_str:000000000002a80c .LASF8310
     /tmp/ccOWj8hl.s:93107  .debug_str:00000000000177c0 .LASF8311
     /tmp/ccOWj8hl.s:91593  .debug_str:000000000001158a .LASF8312
     /tmp/ccOWj8hl.s:95931  .debug_str:0000000000023318 .LASF8313
     /tmp/ccOWj8hl.s:90353  .debug_str:000000000000cb94 .LASF8314
     /tmp/ccOWj8hl.s:97383  .debug_str:0000000000028f01 .LASF8315
     /tmp/ccOWj8hl.s:92967  .debug_str:0000000000016f0d .LASF8316
     /tmp/ccOWj8hl.s:90367  .debug_str:000000000000cc8f .LASF8317
     /tmp/ccOWj8hl.s:101863  .debug_str:000000000003b1ee .LASF8318
     /tmp/ccOWj8hl.s:94043  .debug_str:000000000001b2cc .LASF8319
     /tmp/ccOWj8hl.s:104639  .debug_str:0000000000046917 .LASF8320
     /tmp/ccOWj8hl.s:102091  .debug_str:000000000003c1ae .LASF8321
     /tmp/ccOWj8hl.s:94185  .debug_str:000000000001bc1f .LASF8322
     /tmp/ccOWj8hl.s:105097  .debug_str:00000000000488c8 .LASF8323
     /tmp/ccOWj8hl.s:89379  .debug_str:0000000000008948 .LASF8324
     /tmp/ccOWj8hl.s:95413  .debug_str:0000000000021059 .LASF8325
     /tmp/ccOWj8hl.s:100923  .debug_str:00000000000372f9 .LASF8326
     /tmp/ccOWj8hl.s:102639  .debug_str:000000000003e580 .LASF8327
     /tmp/ccOWj8hl.s:91211  .debug_str:000000000000fce3 .LASF8328
     /tmp/ccOWj8hl.s:100567  .debug_str:0000000000035fc0 .LASF8329
     /tmp/ccOWj8hl.s:88115  .debug_str:00000000000033b5 .LASF8330
     /tmp/ccOWj8hl.s:97719  .debug_str:000000000002a4a7 .LASF8331
     /tmp/ccOWj8hl.s:105225  .debug_str:000000000004915f .LASF8332
     /tmp/ccOWj8hl.s:102007  .debug_str:000000000003bbc3 .LASF8333
     /tmp/ccOWj8hl.s:100287  .debug_str:0000000000034f66 .LASF8334
     /tmp/ccOWj8hl.s:104829  .debug_str:0000000000047547 .LASF8335
     /tmp/ccOWj8hl.s:91457  .debug_str:0000000000010b8e .LASF8336
     /tmp/ccOWj8hl.s:89265  .debug_str:0000000000008159 .LASF8337
     /tmp/ccOWj8hl.s:102475  .debug_str:000000000003d8da .LASF8338
     /tmp/ccOWj8hl.s:90385  .debug_str:000000000000cdb8 .LASF8339
     /tmp/ccOWj8hl.s:105585  .debug_str:000000000004ac4d .LASF8340
     /tmp/ccOWj8hl.s:92563  .debug_str:0000000000015375 .LASF8341
     /tmp/ccOWj8hl.s:89483  .debug_str:0000000000009014 .LASF8342
     /tmp/ccOWj8hl.s:96845  .debug_str:0000000000026b68 .LASF8343
     /tmp/ccOWj8hl.s:89377  .debug_str:0000000000008923 .LASF8344
     /tmp/ccOWj8hl.s:93279  .debug_str:0000000000018229 .LASF8345
     /tmp/ccOWj8hl.s:89871  .debug_str:000000000000aa96 .LASF8346
     /tmp/ccOWj8hl.s:92437  .debug_str:0000000000014bc7 .LASF8347
     /tmp/ccOWj8hl.s:92993  .debug_str:0000000000017054 .LASF8348
     /tmp/ccOWj8hl.s:89873  .debug_str:000000000000aaa8 .LASF8349
     /tmp/ccOWj8hl.s:105133  .debug_str:0000000000048b0e .LASF8350
     /tmp/ccOWj8hl.s:90349  .debug_str:000000000000cb70 .LASF8351
     /tmp/ccOWj8hl.s:89909  .debug_str:000000000000ad5f .LASF8352
     /tmp/ccOWj8hl.s:90137  .debug_str:000000000000bce3 .LASF8353
     /tmp/ccOWj8hl.s:94457  .debug_str:000000000001cee1 .LASF8354
     /tmp/ccOWj8hl.s:101557  .debug_str:0000000000039d11 .LASF8355
     /tmp/ccOWj8hl.s:99783  .debug_str:0000000000032e23 .LASF8356
     /tmp/ccOWj8hl.s:97619  .debug_str:0000000000029dfa .LASF8357
     /tmp/ccOWj8hl.s:92957  .debug_str:0000000000016e83 .LASF8358
     /tmp/ccOWj8hl.s:100685  .debug_str:00000000000366d0 .LASF8359
     /tmp/ccOWj8hl.s:98001  .debug_str:000000000002b606 .LASF8360
     /tmp/ccOWj8hl.s:95305  .debug_str:00000000000209cf .LASF8361
     /tmp/ccOWj8hl.s:102815  .debug_str:000000000003f160 .LASF8362
     /tmp/ccOWj8hl.s:88479  .debug_str:0000000000004d6e .LASF8363
     /tmp/ccOWj8hl.s:100041  .debug_str:0000000000033f76 .LASF8364
     /tmp/ccOWj8hl.s:104397  .debug_str:00000000000458bd .LASF8365
     /tmp/ccOWj8hl.s:94719  .debug_str:000000000001e106 .LASF8366
     /tmp/ccOWj8hl.s:98417  .debug_str:000000000002d1d7 .LASF8367
     /tmp/ccOWj8hl.s:89007  .debug_str:00000000000070cf .LASF8368
     /tmp/ccOWj8hl.s:96955  .debug_str:0000000000027304 .LASF8369
     /tmp/ccOWj8hl.s:105127  .debug_str:0000000000048a91 .LASF8370
     /tmp/ccOWj8hl.s:103461  .debug_str:0000000000041c6b .LASF8371
     /tmp/ccOWj8hl.s:96039  .debug_str:0000000000023a59 .LASF8372
     /tmp/ccOWj8hl.s:97583  .debug_str:0000000000029c0b .LASF8373
     /tmp/ccOWj8hl.s:90319  .debug_str:000000000000c987 .LASF8374
     /tmp/ccOWj8hl.s:93817  .debug_str:000000000001a55c .LASF8375
     /tmp/ccOWj8hl.s:92763  .debug_str:00000000000160b5 .LASF8376
     /tmp/ccOWj8hl.s:100229  .debug_str:0000000000034b54 .LASF8377
     /tmp/ccOWj8hl.s:100157  .debug_str:0000000000034718 .LASF8378
     /tmp/ccOWj8hl.s:103009  .debug_str:000000000003fdd6 .LASF8379
     /tmp/ccOWj8hl.s:91609  .debug_str:00000000000116cb .LASF8380
     /tmp/ccOWj8hl.s:87971  .debug_str:0000000000002a28 .LASF8381
     /tmp/ccOWj8hl.s:94933  .debug_str:000000000001f07f .LASF8382
     /tmp/ccOWj8hl.s:94163  .debug_str:000000000001bad1 .LASF8383
     /tmp/ccOWj8hl.s:98477  .debug_str:000000000002d6d8 .LASF8384
     /tmp/ccOWj8hl.s:102325  .debug_str:000000000003d021 .LASF8385
     /tmp/ccOWj8hl.s:105263  .debug_str:0000000000049476 .LASF8386
     /tmp/ccOWj8hl.s:101101  .debug_str:0000000000037dd8 .LASF8387
     /tmp/ccOWj8hl.s:100885  .debug_str:0000000000037047 .LASF8388
     /tmp/ccOWj8hl.s:102499  .debug_str:000000000003dac9 .LASF8389
     /tmp/ccOWj8hl.s:104767  .debug_str:0000000000047136 .LASF8390
     /tmp/ccOWj8hl.s:93949  .debug_str:000000000001ad70 .LASF8391
     /tmp/ccOWj8hl.s:100991  .debug_str:00000000000376a5 .LASF8392
     /tmp/ccOWj8hl.s:88487  .debug_str:0000000000004dba .LASF8393
     /tmp/ccOWj8hl.s:102023  .debug_str:000000000003bcde .LASF8394
     /tmp/ccOWj8hl.s:96201  .debug_str:0000000000024227 .LASF8395
     /tmp/ccOWj8hl.s:93777  .debug_str:000000000001a2d5 .LASF8396
     /tmp/ccOWj8hl.s:91961  .debug_str:0000000000012e0d .LASF8397
     /tmp/ccOWj8hl.s:92855  .debug_str:0000000000016719 .LASF8398
     /tmp/ccOWj8hl.s:99163  .debug_str:000000000003044e .LASF8399
     /tmp/ccOWj8hl.s:97679  .debug_str:000000000002a1fd .LASF8400
     /tmp/ccOWj8hl.s:96771  .debug_str:00000000000266bb .LASF8401
     /tmp/ccOWj8hl.s:93407  .debug_str:0000000000018b30 .LASF8402
     /tmp/ccOWj8hl.s:94775  .debug_str:000000000001e4f6 .LASF8403
     /tmp/ccOWj8hl.s:101373  .debug_str:0000000000038fdf .LASF8404
     /tmp/ccOWj8hl.s:88595  .debug_str:0000000000005588 .LASF8405
     /tmp/ccOWj8hl.s:90501  .debug_str:000000000000d490 .LASF8406
     /tmp/ccOWj8hl.s:101247  .debug_str:000000000003877e .LASF8407
     /tmp/ccOWj8hl.s:90399  .debug_str:000000000000ceab .LASF8408
     /tmp/ccOWj8hl.s:89837  .debug_str:000000000000a7f4 .LASF8409
     /tmp/ccOWj8hl.s:97449  .debug_str:0000000000029370 .LASF8410
     /tmp/ccOWj8hl.s:104529  .debug_str:0000000000046226 .LASF8411
     /tmp/ccOWj8hl.s:89497  .debug_str:0000000000009128 .LASF8412
     /tmp/ccOWj8hl.s:104307  .debug_str:00000000000452d0 .LASF8413
     /tmp/ccOWj8hl.s:104551  .debug_str:000000000004637d .LASF8414
     /tmp/ccOWj8hl.s:89523  .debug_str:000000000000932c .LASF8415
     /tmp/ccOWj8hl.s:104003  .debug_str:0000000000043ebb .LASF8416
     /tmp/ccOWj8hl.s:88223  .debug_str:0000000000003b4d .LASF8417
     /tmp/ccOWj8hl.s:97013  .debug_str:000000000002778f .LASF8418
     /tmp/ccOWj8hl.s:100839  .debug_str:0000000000036e88 .LASF8419
     /tmp/ccOWj8hl.s:90259  .debug_str:000000000000c59b .LASF8420
     /tmp/ccOWj8hl.s:102247  .debug_str:000000000003cb21 .LASF8421
     /tmp/ccOWj8hl.s:103437  .debug_str:0000000000041b20 .LASF8422
     /tmp/ccOWj8hl.s:97871  .debug_str:000000000002ae78 .LASF8423
     /tmp/ccOWj8hl.s:103151  .debug_str:0000000000040864 .LASF8424
     /tmp/ccOWj8hl.s:87571  .debug_str:0000000000000e0e .LASF8425
     /tmp/ccOWj8hl.s:92599  .debug_str:0000000000015591 .LASF8426
     /tmp/ccOWj8hl.s:89839  .debug_str:000000000000a819 .LASF8427
     /tmp/ccOWj8hl.s:93215  .debug_str:0000000000017d6e .LASF8428
     /tmp/ccOWj8hl.s:98439  .debug_str:000000000002d386 .LASF8429
     /tmp/ccOWj8hl.s:88489  .debug_str:0000000000004dce .LASF8430
     /tmp/ccOWj8hl.s:89811  .debug_str:000000000000a672 .LASF8431
     /tmp/ccOWj8hl.s:100361  .debug_str:000000000003543e .LASF8432
     /tmp/ccOWj8hl.s:87999  .debug_str:0000000000002c04 .LASF8433
     /tmp/ccOWj8hl.s:92989  .debug_str:0000000000017013 .LASF8434
     /tmp/ccOWj8hl.s:100109  .debug_str:00000000000343de .LASF8435
     /tmp/ccOWj8hl.s:98683  .debug_str:000000000002e43d .LASF8436
     /tmp/ccOWj8hl.s:89129  .debug_str:0000000000007849 .LASF8437
     /tmp/ccOWj8hl.s:105515  .debug_str:000000000004a75a .LASF8438
     /tmp/ccOWj8hl.s:96789  .debug_str:00000000000267d3 .LASF8439
     /tmp/ccOWj8hl.s:89605  .debug_str:0000000000009880 .LASF8440
     /tmp/ccOWj8hl.s:99203  .debug_str:00000000000306c4 .LASF8441
     /tmp/ccOWj8hl.s:105189  .debug_str:0000000000048ee4 .LASF8442
     /tmp/ccOWj8hl.s:98213  .debug_str:000000000002c46a .LASF8443
     /tmp/ccOWj8hl.s:95311  .debug_str:0000000000020a1c .LASF8444
     /tmp/ccOWj8hl.s:105371  .debug_str:0000000000049b5f .LASF8445
     /tmp/ccOWj8hl.s:87699  .debug_str:00000000000016c1 .LASF8446
     /tmp/ccOWj8hl.s:88517  .debug_str:0000000000004f96 .LASF8447
     /tmp/ccOWj8hl.s:105187  .debug_str:0000000000048ed7 .LASF8448
     /tmp/ccOWj8hl.s:101429  .debug_str:00000000000393d2 .LASF8449
     /tmp/ccOWj8hl.s:99875  .debug_str:000000000003347d .LASF8450
     /tmp/ccOWj8hl.s:99999  .debug_str:0000000000033ce6 .LASF8451
     /tmp/ccOWj8hl.s:95083  .debug_str:000000000001fa92 .LASF8452
     /tmp/ccOWj8hl.s:101967  .debug_str:000000000003b978 .LASF8453
     /tmp/ccOWj8hl.s:92917  .debug_str:0000000000016b8d .LASF8454
     /tmp/ccOWj8hl.s:90837  .debug_str:000000000000e7ae .LASF8455
     /tmp/ccOWj8hl.s:98551  .debug_str:000000000002db87 .LASF8456
     /tmp/ccOWj8hl.s:89133  .debug_str:0000000000007887 .LASF8457
     /tmp/ccOWj8hl.s:89639  .debug_str:0000000000009b05 .LASF8458
     /tmp/ccOWj8hl.s:91517  .debug_str:000000000001101e .LASF8459
     /tmp/ccOWj8hl.s:104715  .debug_str:0000000000046dc2 .LASF8460
     /tmp/ccOWj8hl.s:93915  .debug_str:000000000001ab96 .LASF8461
     /tmp/ccOWj8hl.s:96543  .debug_str:00000000000257be .LASF8462
     /tmp/ccOWj8hl.s:93237  .debug_str:0000000000017f5c .LASF8463
     /tmp/ccOWj8hl.s:96863  .debug_str:0000000000026ca3 .LASF8464
     /tmp/ccOWj8hl.s:95575  .debug_str:0000000000021bb1 .LASF8465
     /tmp/ccOWj8hl.s:102667  .debug_str:000000000003e7a3 .LASF8466
     /tmp/ccOWj8hl.s:105807  .debug_str:000000000004ba32 .LASF8467
     /tmp/ccOWj8hl.s:103263  .debug_str:0000000000040f63 .LASF8468
     /tmp/ccOWj8hl.s:93727  .debug_str:000000000001a076 .LASF8469
     /tmp/ccOWj8hl.s:99111  .debug_str:000000000002ffdb .LASF8470
     /tmp/ccOWj8hl.s:90593  .debug_str:000000000000da89 .LASF8471
     /tmp/ccOWj8hl.s:105763  .debug_str:000000000004b785 .LASF8472
     /tmp/ccOWj8hl.s:98265  .debug_str:000000000002c7ac .LASF8473
     /tmp/ccOWj8hl.s:101991  .debug_str:000000000003baec .LASF8474
     /tmp/ccOWj8hl.s:105079  .debug_str:0000000000048798 .LASF8475
     /tmp/ccOWj8hl.s:90795  .debug_str:000000000000e48f .LASF8476
     /tmp/ccOWj8hl.s:91203  .debug_str:000000000000fc86 .LASF8477
     /tmp/ccOWj8hl.s:101471  .debug_str:0000000000039706 .LASF8478
     /tmp/ccOWj8hl.s:101159  .debug_str:00000000000381ef .LASF8479
     /tmp/ccOWj8hl.s:91205  .debug_str:000000000000fc96 .LASF8480
     /tmp/ccOWj8hl.s:101473  .debug_str:0000000000039716 .LASF8481
     /tmp/ccOWj8hl.s:88527  .debug_str:0000000000005049 .LASF8482
     /tmp/ccOWj8hl.s:92723  .debug_str:0000000000015e5b .LASF8483
     /tmp/ccOWj8hl.s:94307  .debug_str:000000000001c42b .LASF8484
     /tmp/ccOWj8hl.s:88975  .debug_str:0000000000006f14 .LASF8485
     /tmp/ccOWj8hl.s:101607  .debug_str:000000000003a0a1 .LASF8486
     /tmp/ccOWj8hl.s:96791  .debug_str:00000000000267e5 .LASF8487
     /tmp/ccOWj8hl.s:101827  .debug_str:000000000003af4d .LASF8488
     /tmp/ccOWj8hl.s:101609  .debug_str:000000000003a0b1 .LASF8489
     /tmp/ccOWj8hl.s:93023  .debug_str:000000000001724c .LASF8490
     /tmp/ccOWj8hl.s:95921  .debug_str:000000000002322b .LASF8491
     /tmp/ccOWj8hl.s:101611  .debug_str:000000000003a0c1 .LASF8492
     /tmp/ccOWj8hl.s:93025  .debug_str:000000000001725c .LASF8493
     /tmp/ccOWj8hl.s:98423  .debug_str:000000000002d28a .LASF8494
     /tmp/ccOWj8hl.s:101613  .debug_str:000000000003a0d1 .LASF8495
     /tmp/ccOWj8hl.s:93027  .debug_str:000000000001726c .LASF8496
     /tmp/ccOWj8hl.s:102719  .debug_str:000000000003eafa .LASF8497
     /tmp/ccOWj8hl.s:95173  .debug_str:0000000000020122 .LASF8498
     /tmp/ccOWj8hl.s:98267  .debug_str:000000000002c7cd .LASF8499
     /tmp/ccOWj8hl.s:92099  .debug_str:0000000000013674 .LASF8500
     /tmp/ccOWj8hl.s:92411  .debug_str:00000000000149c0 .LASF8501
     /tmp/ccOWj8hl.s:101605  .debug_str:000000000003a091 .LASF8502
     /tmp/ccOWj8hl.s:92159  .debug_str:0000000000013a56 .LASF8503
     /tmp/ccOWj8hl.s:98653  .debug_str:000000000002e226 .LASF8504
     /tmp/ccOWj8hl.s:90161  .debug_str:000000000000bf02 .LASF8505
     /tmp/ccOWj8hl.s:105243  .debug_str:0000000000049305 .LASF8506
     /tmp/ccOWj8hl.s:88317  .debug_str:000000000000423f .LASF8507
     /tmp/ccOWj8hl.s:90163  .debug_str:000000000000bf18 .LASF8508
     /tmp/ccOWj8hl.s:98437  .debug_str:000000000002d35c .LASF8509
     /tmp/ccOWj8hl.s:88319  .debug_str:0000000000004255 .LASF8510
     /tmp/ccOWj8hl.s:90165  .debug_str:000000000000bf2e .LASF8511
     /tmp/ccOWj8hl.s:92423  .debug_str:0000000000014abf .LASF8512
     /tmp/ccOWj8hl.s:88321  .debug_str:000000000000426b .LASF8513
     /tmp/ccOWj8hl.s:90167  .debug_str:000000000000bf44 .LASF8514
     /tmp/ccOWj8hl.s:105117  .debug_str:0000000000048a16 .LASF8515
     /tmp/ccOWj8hl.s:88323  .debug_str:0000000000004281 .LASF8516
     /tmp/ccOWj8hl.s:90169  .debug_str:000000000000bf5a .LASF8517
     /tmp/ccOWj8hl.s:99509  .debug_str:0000000000031bab .LASF8518
     /tmp/ccOWj8hl.s:88325  .debug_str:0000000000004297 .LASF8519
     /tmp/ccOWj8hl.s:90171  .debug_str:000000000000bf70 .LASF8520
     /tmp/ccOWj8hl.s:93523  .debug_str:00000000000192b2 .LASF8521
     /tmp/ccOWj8hl.s:88327  .debug_str:00000000000042ad .LASF8522
     /tmp/ccOWj8hl.s:90173  .debug_str:000000000000bf86 .LASF8523
     /tmp/ccOWj8hl.s:87581  .debug_str:0000000000000ec3 .LASF8524
     /tmp/ccOWj8hl.s:88329  .debug_str:00000000000042c3 .LASF8525
     /tmp/ccOWj8hl.s:90175  .debug_str:000000000000bf9c .LASF8526
     /tmp/ccOWj8hl.s:100417  .debug_str:000000000003570c .LASF8527
     /tmp/ccOWj8hl.s:94673  .debug_str:000000000001ddc6 .LASF8528
     /tmp/ccOWj8hl.s:98177  .debug_str:000000000002c1bf .LASF8529
     /tmp/ccOWj8hl.s:101695  .debug_str:000000000003a684 .LASF8530
     /tmp/ccOWj8hl.s:92073  .debug_str:000000000001351c .LASF8531
     /tmp/ccOWj8hl.s:100849  .debug_str:0000000000036eef .LASF8532
     /tmp/ccOWj8hl.s:95801  .debug_str:0000000000022aed .LASF8533
     /tmp/ccOWj8hl.s:98907  .debug_str:000000000002f33c .LASF8534
     /tmp/ccOWj8hl.s:89247  .debug_str:0000000000008064 .LASF8535
     /tmp/ccOWj8hl.s:96101  .debug_str:0000000000023d38 .LASF8536
     /tmp/ccOWj8hl.s:94997  .debug_str:000000000001f5a0 .LASF8537
     /tmp/ccOWj8hl.s:99601  .debug_str:0000000000032211 .LASF8538
     /tmp/ccOWj8hl.s:104765  .debug_str:000000000004710b .LASF8539
     /tmp/ccOWj8hl.s:102187  .debug_str:000000000003c742 .LASF8540
     /tmp/ccOWj8hl.s:96717  .debug_str:000000000002637b .LASF8541
     /tmp/ccOWj8hl.s:101073  .debug_str:0000000000037bf7 .LASF8542
     /tmp/ccOWj8hl.s:103249  .debug_str:0000000000040e6d .LASF8543
     /tmp/ccOWj8hl.s:103095  .debug_str:00000000000403dd .LASF8544
     /tmp/ccOWj8hl.s:93537  .debug_str:00000000000193de .LASF8545
     /tmp/ccOWj8hl.s:95739  .debug_str:00000000000226d7 .LASF8546
     /tmp/ccOWj8hl.s:91397  .debug_str:00000000000108a0 .LASF8547
     /tmp/ccOWj8hl.s:91775  .debug_str:00000000000121bf .LASF8548
     /tmp/ccOWj8hl.s:95813  .debug_str:0000000000022bd6 .LASF8549
     /tmp/ccOWj8hl.s:91525  .debug_str:0000000000011096 .LASF8550
     /tmp/ccOWj8hl.s:97703  .debug_str:000000000002a3a2 .LASF8551
     /tmp/ccOWj8hl.s:92237  .debug_str:0000000000013e7f .LASF8552
     /tmp/ccOWj8hl.s:91643  .debug_str:0000000000011928 .LASF8553
     /tmp/ccOWj8hl.s:89973  .debug_str:000000000000b261 .LASF8554
     /tmp/ccOWj8hl.s:102923  .debug_str:000000000003f938 .LASF8555
     /tmp/ccOWj8hl.s:103173  .debug_str:00000000000409ce .LASF8556
     /tmp/ccOWj8hl.s:97405  .debug_str:0000000000029019 .LASF8557
     /tmp/ccOWj8hl.s:101659  .debug_str:000000000003a421 .LASF8558
     /tmp/ccOWj8hl.s:105815  .debug_str:000000000004baaf .LASF8559
     /tmp/ccOWj8hl.s:101097  .debug_str:0000000000037d96 .LASF8560
     /tmp/ccOWj8hl.s:102935  .debug_str:000000000003f9bc .LASF8561
     /tmp/ccOWj8hl.s:96905  .debug_str:0000000000027002 .LASF8562
     /tmp/ccOWj8hl.s:96801  .debug_str:0000000000026876 .LASF8563
     /tmp/ccOWj8hl.s:91109  .debug_str:000000000000f6c2 .LASF8564
     /tmp/ccOWj8hl.s:105251  .debug_str:0000000000049396 .LASF8565
     /tmp/ccOWj8hl.s:105237  .debug_str:000000000004925b .LASF8566
     /tmp/ccOWj8hl.s:101809  .debug_str:000000000003ae3c .LASF8567
     /tmp/ccOWj8hl.s:97355  .debug_str:0000000000028d09 .LASF8568
     /tmp/ccOWj8hl.s:97441  .debug_str:00000000000292c1 .LASF8569
     /tmp/ccOWj8hl.s:99549  .debug_str:0000000000031e4c .LASF8570
     /tmp/ccOWj8hl.s:105669  .debug_str:000000000004b1b2 .LASF8571
     /tmp/ccOWj8hl.s:97087  .debug_str:0000000000027b3d .LASF8572
     /tmp/ccOWj8hl.s:91061  .debug_str:000000000000f4ae .LASF8573
     /tmp/ccOWj8hl.s:101729  .debug_str:000000000003a8f7 .LASF8574
     /tmp/ccOWj8hl.s:105925  .debug_str:000000000004c2d8 .LASF8575
     /tmp/ccOWj8hl.s:102313  .debug_str:000000000003cf67 .LASF8576
     /tmp/ccOWj8hl.s:89131  .debug_str:0000000000007870 .LASF8577
     /tmp/ccOWj8hl.s:97317  .debug_str:0000000000028b55 .LASF8578
     /tmp/ccOWj8hl.s:101631  .debug_str:000000000003a21a .LASF8579
     /tmp/ccOWj8hl.s:88035  .debug_str:0000000000002f1a .LASF8580
     /tmp/ccOWj8hl.s:88281  .debug_str:0000000000003f84 .LASF8581
     /tmp/ccOWj8hl.s:101633  .debug_str:000000000003a233 .LASF8582
     /tmp/ccOWj8hl.s:88037  .debug_str:0000000000002f33 .LASF8583
     /tmp/ccOWj8hl.s:94413  .debug_str:000000000001cb9c .LASF8584
     /tmp/ccOWj8hl.s:101635  .debug_str:000000000003a24c .LASF8585
     /tmp/ccOWj8hl.s:88039  .debug_str:0000000000002f4c .LASF8586
     /tmp/ccOWj8hl.s:95267  .debug_str:00000000000207ea .LASF8587
     /tmp/ccOWj8hl.s:101637  .debug_str:000000000003a265 .LASF8588
     /tmp/ccOWj8hl.s:88041  .debug_str:0000000000002f65 .LASF8589
     /tmp/ccOWj8hl.s:89191  .debug_str:0000000000007c3e .LASF8590
     /tmp/ccOWj8hl.s:101639  .debug_str:000000000003a27e .LASF8591
     /tmp/ccOWj8hl.s:88043  .debug_str:0000000000002f7e .LASF8592
     /tmp/ccOWj8hl.s:102019  .debug_str:000000000003bc7d .LASF8593
     /tmp/ccOWj8hl.s:103589  .debug_str:0000000000042428 .LASF8594
     /tmp/ccOWj8hl.s:103081  .debug_str:0000000000040305 .LASF8595
     /tmp/ccOWj8hl.s:97795  .debug_str:000000000002a9c6 .LASF8596
     /tmp/ccOWj8hl.s:93183  .debug_str:0000000000017c1d .LASF8597
     /tmp/ccOWj8hl.s:95713  .debug_str:0000000000022526 .LASF8598
     /tmp/ccOWj8hl.s:95737  .debug_str:00000000000226b6 .LASF8599
     /tmp/ccOWj8hl.s:97733  .debug_str:000000000002a569 .LASF8600
     /tmp/ccOWj8hl.s:91953  .debug_str:0000000000012da0 .LASF8601
     /tmp/ccOWj8hl.s:95793  .debug_str:0000000000022a5e .LASF8602
     /tmp/ccOWj8hl.s:90459  .debug_str:000000000000d28c .LASF8603
     /tmp/ccOWj8hl.s:98989  .debug_str:000000000002f853 .LASF8604
     /tmp/ccOWj8hl.s:99125  .debug_str:00000000000300dc .LASF8605
     /tmp/ccOWj8hl.s:94079  .debug_str:000000000001b56f .LASF8606
     /tmp/ccOWj8hl.s:103695  .debug_str:0000000000042b04 .LASF8607
     /tmp/ccOWj8hl.s:99453  .debug_str:0000000000031800 .LASF8608
     /tmp/ccOWj8hl.s:98535  .debug_str:000000000002daad .LASF8609
     /tmp/ccOWj8hl.s:92125  .debug_str:000000000001382e .LASF8610
     /tmp/ccOWj8hl.s:95851  .debug_str:0000000000022ec6 .LASF8611
     /tmp/ccOWj8hl.s:93291  .debug_str:00000000000182d0 .LASF8612
     /tmp/ccOWj8hl.s:92639  .debug_str:0000000000015849 .LASF8613
     /tmp/ccOWj8hl.s:101851  .debug_str:000000000003b118 .LASF8614
     /tmp/ccOWj8hl.s:93191  .debug_str:0000000000017c64 .LASF8615
     /tmp/ccOWj8hl.s:92693  .debug_str:0000000000015bc7 .LASF8616
     /tmp/ccOWj8hl.s:101245  .debug_str:0000000000038756 .LASF8617
     /tmp/ccOWj8hl.s:88275  .debug_str:0000000000003f10 .LASF8618
     /tmp/ccOWj8hl.s:87953  .debug_str:0000000000002884 .LASF8619
     /tmp/ccOWj8hl.s:95175  .debug_str:0000000000020137 .LASF8620
     /tmp/ccOWj8hl.s:88331  .debug_str:00000000000042d9 .LASF8621
     /tmp/ccOWj8hl.s:98623  .debug_str:000000000002e09b .LASF8622
     /tmp/ccOWj8hl.s:105403  .debug_str:0000000000049e1d .LASF8623
     /tmp/ccOWj8hl.s:89169  .debug_str:0000000000007aaf .LASF8624
     /tmp/ccOWj8hl.s:97957  .debug_str:000000000002b397 .LASF8625
     /tmp/ccOWj8hl.s:104843  .debug_str:000000000004765f .LASF8626
     /tmp/ccOWj8hl.s:99645  .debug_str:0000000000032469 .LASF8627
     /tmp/ccOWj8hl.s:104463  .debug_str:0000000000045d8b .LASF8628
     /tmp/ccOWj8hl.s:97623  .debug_str:0000000000029e1e .LASF8629
     /tmp/ccOWj8hl.s:89051  .debug_str:00000000000073c2 .LASF8630
     /tmp/ccOWj8hl.s:104511  .debug_str:0000000000046106 .LASF8631
     /tmp/ccOWj8hl.s:94445  .debug_str:000000000001cdfb .LASF8632
     /tmp/ccOWj8hl.s:89053  .debug_str:00000000000073d5 .LASF8633
     /tmp/ccOWj8hl.s:94593  .debug_str:000000000001d838 .LASF8634
     /tmp/ccOWj8hl.s:103877  .debug_str:0000000000043613 .LASF8635
     /tmp/ccOWj8hl.s:99887  .debug_str:0000000000033554 .LASF8636
     /tmp/ccOWj8hl.s:88585  .debug_str:00000000000054f5 .LASF8637
     /tmp/ccOWj8hl.s:102863  .debug_str:000000000003f4e1 .LASF8638
     /tmp/ccOWj8hl.s:99889  .debug_str:0000000000033568 .LASF8639
     /tmp/ccOWj8hl.s:88587  .debug_str:0000000000005509 .LASF8640
     /tmp/ccOWj8hl.s:97081  .debug_str:0000000000027adb .LASF8641
     /tmp/ccOWj8hl.s:99891  .debug_str:000000000003357c .LASF8642
     /tmp/ccOWj8hl.s:88589  .debug_str:000000000000551d .LASF8643
     /tmp/ccOWj8hl.s:91147  .debug_str:000000000000f94a .LASF8644
     /tmp/ccOWj8hl.s:99893  .debug_str:0000000000033590 .LASF8645
     /tmp/ccOWj8hl.s:95271  .debug_str:000000000002081e .LASF8646
     /tmp/ccOWj8hl.s:90697  .debug_str:000000000000dfe5 .LASF8647
     /tmp/ccOWj8hl.s:99895  .debug_str:00000000000335a4 .LASF8648
     /tmp/ccOWj8hl.s:88593  .debug_str:0000000000005574 .LASF8649
     /tmp/ccOWj8hl.s:98049  .debug_str:000000000002b90b .LASF8650
     /tmp/ccOWj8hl.s:92769  .debug_str:0000000000016100 .LASF8651
     /tmp/ccOWj8hl.s:90101  .debug_str:000000000000bac9 .LASF8652
     /tmp/ccOWj8hl.s:87949  .debug_str:000000000000283f .LASF8653
     /tmp/ccOWj8hl.s:89143  .debug_str:0000000000007915 .LASF8654
     /tmp/ccOWj8hl.s:95711  .debug_str:0000000000022514 .LASF8655
     /tmp/ccOWj8hl.s:96231  .debug_str:0000000000024416 .LASF8656
     /tmp/ccOWj8hl.s:89145  .debug_str:0000000000007927 .LASF8657
     /tmp/ccOWj8hl.s:90105  .debug_str:000000000000bae7 .LASF8658
     /tmp/ccOWj8hl.s:105653  .debug_str:000000000004b10b .LASF8659
     /tmp/ccOWj8hl.s:87721  .debug_str:0000000000001863 .LASF8660
     /tmp/ccOWj8hl.s:88681  .debug_str:0000000000005b22 .LASF8661
     /tmp/ccOWj8hl.s:104297  .debug_str:000000000004522c .LASF8662
     /tmp/ccOWj8hl.s:87723  .debug_str:0000000000001875 .LASF8663
     /tmp/ccOWj8hl.s:88683  .debug_str:0000000000005b34 .LASF8664
     /tmp/ccOWj8hl.s:98511  .debug_str:000000000002d8f4 .LASF8665
     /tmp/ccOWj8hl.s:103327  .debug_str:000000000004140d .LASF8666
     /tmp/ccOWj8hl.s:88685  .debug_str:0000000000005b46 .LASF8667
     /tmp/ccOWj8hl.s:92489  .debug_str:0000000000014f95 .LASF8668
     /tmp/ccOWj8hl.s:104457  .debug_str:0000000000045d57 .LASF8669
     /tmp/ccOWj8hl.s:98501  .debug_str:000000000002d893 .LASF8670
     /tmp/ccOWj8hl.s:95053  .debug_str:000000000001f8d7 .LASF8671
     /tmp/ccOWj8hl.s:103165  .debug_str:0000000000040947 .LASF8672
     /tmp/ccOWj8hl.s:104667  .debug_str:0000000000046b08 .LASF8673
     /tmp/ccOWj8hl.s:98621  .debug_str:000000000002e075 .LASF8674
     /tmp/ccOWj8hl.s:87823  .debug_str:0000000000001f84 .LASF8675
     /tmp/ccOWj8hl.s:99667  .debug_str:0000000000032602 .LASF8676
     /tmp/ccOWj8hl.s:100065  .debug_str:00000000000340db .LASF8677
     /tmp/ccOWj8hl.s:91745  .debug_str:0000000000011fb0 .LASF8678
     /tmp/ccOWj8hl.s:104927  .debug_str:0000000000047d17 .LASF8679
     /tmp/ccOWj8hl.s:96641  .debug_str:0000000000025db8 .LASF8680
     /tmp/ccOWj8hl.s:94229  .debug_str:000000000001bedf .LASF8681
     /tmp/ccOWj8hl.s:104217  .debug_str:0000000000044d27 .LASF8682
     /tmp/ccOWj8hl.s:92879  .debug_str:00000000000168d5 .LASF8683
     /tmp/ccOWj8hl.s:97273  .debug_str:000000000002884b .LASF8684
     /tmp/ccOWj8hl.s:103159  .debug_str:00000000000408fc .LASF8685
     /tmp/ccOWj8hl.s:101587  .debug_str:0000000000039f5d .LASF8686
     /tmp/ccOWj8hl.s:92037  .debug_str:00000000000132ae .LASF8687
     /tmp/ccOWj8hl.s:96303  .debug_str:00000000000247bf .LASF8688
     /tmp/ccOWj8hl.s:96555  .debug_str:0000000000025869 .LASF8689
     /tmp/ccOWj8hl.s:96177  .debug_str:00000000000240dc .LASF8690
     /tmp/ccOWj8hl.s:89905  .debug_str:000000000000acf9 .LASF8691
     /tmp/ccOWj8hl.s:103837  .debug_str:00000000000433df .LASF8692
     /tmp/ccOWj8hl.s:94717  .debug_str:000000000001e0e9 .LASF8693
     /tmp/ccOWj8hl.s:88469  .debug_str:0000000000004c9b .LASF8694
     /tmp/ccOWj8hl.s:105567  .debug_str:000000000004aac7 .LASF8695
     /tmp/ccOWj8hl.s:88239  .debug_str:0000000000003c77 .LASF8696
     /tmp/ccOWj8hl.s:96273  .debug_str:0000000000024557 .LASF8697
     /tmp/ccOWj8hl.s:99907  .debug_str:000000000003368e .LASF8698
     /tmp/ccOWj8hl.s:96209  .debug_str:00000000000242c9 .LASF8699
     /tmp/ccOWj8hl.s:103131  .debug_str:00000000000406c6 .LASF8700
     /tmp/ccOWj8hl.s:97185  .debug_str:000000000002823f .LASF8701
     /tmp/ccOWj8hl.s:102595  .debug_str:000000000003e201 .LASF8702
     /tmp/ccOWj8hl.s:88355  .debug_str:0000000000004476 .LASF8703
     /tmp/ccOWj8hl.s:97313  .debug_str:0000000000028b13 .LASF8704
     /tmp/ccOWj8hl.s:104591  .debug_str:0000000000046629 .LASF8705
     /tmp/ccOWj8hl.s:103473  .debug_str:0000000000041d49 .LASF8706
     /tmp/ccOWj8hl.s:105247  .debug_str:000000000004934d .LASF8707
     /tmp/ccOWj8hl.s:88749  .debug_str:0000000000005f3b .LASF8708
     /tmp/ccOWj8hl.s:99795  .debug_str:0000000000032efe .LASF8709
     /tmp/ccOWj8hl.s:96409  .debug_str:0000000000024e1c .LASF8710
     /tmp/ccOWj8hl.s:90633  .debug_str:000000000000dd28 .LASF8711
     /tmp/ccOWj8hl.s:96627  .debug_str:0000000000025ca3 .LASF8712
     /tmp/ccOWj8hl.s:103353  .debug_str:0000000000041562 .LASF8713
     /tmp/ccOWj8hl.s:94133  .debug_str:000000000001b8ca .LASF8714
     /tmp/ccOWj8hl.s:99179  .debug_str:0000000000030571 .LASF8715
     /tmp/ccOWj8hl.s:96991  .debug_str:00000000000275d0 .LASF8716
     /tmp/ccOWj8hl.s:89759  .debug_str:000000000000a2d6 .LASF8717
     /tmp/ccOWj8hl.s:103443  .debug_str:0000000000041b84 .LASF8718
     /tmp/ccOWj8hl.s:104897  .debug_str:0000000000047aac .LASF8719
     /tmp/ccOWj8hl.s:90657  .debug_str:000000000000ddd9 .LASF8720
     /tmp/ccOWj8hl.s:95019  .debug_str:000000000001f6f9 .LASF8721
     /tmp/ccOWj8hl.s:98455  .debug_str:000000000002d525 .LASF8722
     /tmp/ccOWj8hl.s:92311  .debug_str:0000000000014316 .LASF8723
     /tmp/ccOWj8hl.s:103795  .debug_str:0000000000043139 .LASF8724
     /tmp/ccOWj8hl.s:103913  .debug_str:00000000000438fd .LASF8725
     /tmp/ccOWj8hl.s:90067  .debug_str:000000000000b8d2 .LASF8726
     /tmp/ccOWj8hl.s:92741  .debug_str:0000000000015f47 .LASF8727
     /tmp/ccOWj8hl.s:105525  .debug_str:000000000004a7d2 .LASF8728
     /tmp/ccOWj8hl.s:103363  .debug_str:00000000000415fa .LASF8729
     /tmp/ccOWj8hl.s:99579  .debug_str:000000000003206b .LASF8730
     /tmp/ccOWj8hl.s:98323  .debug_str:000000000002cbd2 .LASF8731
     /tmp/ccOWj8hl.s:93699  .debug_str:0000000000019ebc .LASF8732
     /tmp/ccOWj8hl.s:101459  .debug_str:0000000000039619 .LASF8733
     /tmp/ccOWj8hl.s:95085  .debug_str:000000000001fab7 .LASF8734
     /tmp/ccOWj8hl.s:89999  .debug_str:000000000000b477 .LASF8735
     /tmp/ccOWj8hl.s:105491  .debug_str:000000000004a5bf .LASF8736
     /tmp/ccOWj8hl.s:101447  .debug_str:0000000000039521 .LASF8737
     /tmp/ccOWj8hl.s:104995  .debug_str:00000000000481e2 .LASF8738
     /tmp/ccOWj8hl.s:90937  .debug_str:000000000000ec80 .LASF8739
     /tmp/ccOWj8hl.s:99123  .debug_str:00000000000300b1 .LASF8740
     /tmp/ccOWj8hl.s:87975  .debug_str:0000000000002a60 .LASF8741
     /tmp/ccOWj8hl.s:100215  .debug_str:0000000000034a68 .LASF8742
     /tmp/ccOWj8hl.s:97465  .debug_str:000000000002943b .LASF8743
     /tmp/ccOWj8hl.s:100453  .debug_str:0000000000035a0e .LASF8744
     /tmp/ccOWj8hl.s:98227  .debug_str:000000000002c532 .LASF8745
     /tmp/ccOWj8hl.s:100743  .debug_str:0000000000036939 .LASF8746
     /tmp/ccOWj8hl.s:92901  .debug_str:0000000000016a50 .LASF8747
     /tmp/ccOWj8hl.s:87805  .debug_str:0000000000001e14 .LASF8748
     /tmp/ccOWj8hl.s:92175  .debug_str:0000000000013b4d .LASF8749
     /tmp/ccOWj8hl.s:90661  .debug_str:000000000000de09 .LASF8750
     /tmp/ccOWj8hl.s:100563  .debug_str:0000000000035fa5 .LASF8751
     /tmp/ccOWj8hl.s:103247  .debug_str:0000000000040e45 .LASF8752
     /tmp/ccOWj8hl.s:93273  .debug_str:00000000000181ca .LASF8753
     /tmp/ccOWj8hl.s:97907  .debug_str:000000000002b0da .LASF8754
     /tmp/ccOWj8hl.s:89241  .debug_str:0000000000007fe3 .LASF8755
     /tmp/ccOWj8hl.s:96917  .debug_str:0000000000027080 .LASF8756
     /tmp/ccOWj8hl.s:95773  .debug_str:00000000000228f8 .LASF8757
     /tmp/ccOWj8hl.s:105343  .debug_str:0000000000049949 .LASF8758
     /tmp/ccOWj8hl.s:96919  .debug_str:000000000002709d .LASF8759
     /tmp/ccOWj8hl.s:95775  .debug_str:0000000000022915 .LASF8760
     /tmp/ccOWj8hl.s:99551  .debug_str:0000000000031e64 .LASF8761
     /tmp/ccOWj8hl.s:105803  .debug_str:000000000004ba00 .LASF8762
     /tmp/ccOWj8hl.s:100947  .debug_str:0000000000037453 .LASF8763
     /tmp/ccOWj8hl.s:103549  .debug_str:00000000000421ea .LASF8764
     /tmp/ccOWj8hl.s:101961  .debug_str:000000000003b8ee .LASF8765
     /tmp/ccOWj8hl.s:88721  .debug_str:0000000000005db0 .LASF8766
     /tmp/ccOWj8hl.s:92435  .debug_str:0000000000014b96 .LASF8767
     /tmp/ccOWj8hl.s:103959  .debug_str:0000000000043c34 .LASF8768
     /tmp/ccOWj8hl.s:91789  .debug_str:00000000000122bd .LASF8769
     /tmp/ccOWj8hl.s:102379  .debug_str:000000000003d32c .LASF8770
     /tmp/ccOWj8hl.s:103961  .debug_str:0000000000043c4f .LASF8771
     /tmp/ccOWj8hl.s:100639  .debug_str:00000000000363db .LASF8772
     /tmp/ccOWj8hl.s:96551  .debug_str:0000000000025820 .LASF8773
     /tmp/ccOWj8hl.s:90325  .debug_str:000000000000c9d8 .LASF8774
     /tmp/ccOWj8hl.s:96999  .debug_str:0000000000027685 .LASF8775
     /tmp/ccOWj8hl.s:95279  .debug_str:000000000002089e .LASF8776
     /tmp/ccOWj8hl.s:90327  .debug_str:000000000000c9f3 .LASF8777
     /tmp/ccOWj8hl.s:92127  .debug_str:000000000001383a .LASF8778
     /tmp/ccOWj8hl.s:89209  .debug_str:0000000000007da0 .LASF8779
     /tmp/ccOWj8hl.s:96047  .debug_str:0000000000023aa6 .LASF8780
     /tmp/ccOWj8hl.s:94827  .debug_str:000000000001e839 .LASF8781
     /tmp/ccOWj8hl.s:87479  .debug_str:0000000000000816 .LASF8782
     /tmp/ccOWj8hl.s:96049  .debug_str:0000000000023ac3 .LASF8783
     /tmp/ccOWj8hl.s:94829  .debug_str:000000000001e856 .LASF8784
     /tmp/ccOWj8hl.s:97371  .debug_str:0000000000028dfe .LASF8785
     /tmp/ccOWj8hl.s:101239  .debug_str:00000000000386f2 .LASF8786
     /tmp/ccOWj8hl.s:99923  .debug_str:0000000000033801 .LASF8787
     /tmp/ccOWj8hl.s:99031  .debug_str:000000000002fade .LASF8788
     /tmp/ccOWj8hl.s:101241  .debug_str:000000000003870f .LASF8789
     /tmp/ccOWj8hl.s:99925  .debug_str:000000000003381e .LASF8790
     /tmp/ccOWj8hl.s:93047  .debug_str:00000000000173e4 .LASF8791
     /tmp/ccOWj8hl.s:105911  .debug_str:000000000004c1e8 .LASF8792
     /tmp/ccOWj8hl.s:89715  .debug_str:000000000000a00c .LASF8793
     /tmp/ccOWj8hl.s:93367  .debug_str:0000000000018841 .LASF8794
     /tmp/ccOWj8hl.s:105913  .debug_str:000000000004c201 .LASF8795
     /tmp/ccOWj8hl.s:89717  .debug_str:000000000000a025 .LASF8796
     /tmp/ccOWj8hl.s:87449  .debug_str:0000000000000626 .LASF8797
     /tmp/ccOWj8hl.s:89289  .debug_str:000000000000832e .LASF8798
     /tmp/ccOWj8hl.s:101621  .debug_str:000000000003a14b .LASF8799
     /tmp/ccOWj8hl.s:90953  .debug_str:000000000000ed85 .LASF8800
     /tmp/ccOWj8hl.s:90245  .debug_str:000000000000c4dd .LASF8801
     /tmp/ccOWj8hl.s:93979  .debug_str:000000000001af32 .LASF8802
     /tmp/ccOWj8hl.s:104871  .debug_str:00000000000478bf .LASF8803
     /tmp/ccOWj8hl.s:89433  .debug_str:0000000000008d23 .LASF8804
     /tmp/ccOWj8hl.s:105813  .debug_str:000000000004baa3 .LASF8805
     /tmp/ccOWj8hl.s:87835  .debug_str:0000000000002078 .LASF8806
     /tmp/ccOWj8hl.s:104657  .debug_str:0000000000046a55 .LASF8807
     /tmp/ccOWj8hl.s:90915  .debug_str:000000000000ebe1 .LASF8808
     /tmp/ccOWj8hl.s:103441  .debug_str:0000000000041b5d .LASF8809
     /tmp/ccOWj8hl.s:94889  .debug_str:000000000001ed10 .LASF8810
     /tmp/ccOWj8hl.s:98651  .debug_str:000000000002e214 .LASF8811
     /tmp/ccOWj8hl.s:92381  .debug_str:00000000000147c4 .LASF8812
     /tmp/ccOWj8hl.s:89591  .debug_str:000000000000979f .LASF8813
     /tmp/ccOWj8hl.s:96187  .debug_str:0000000000024152 .LASF8814
     /tmp/ccOWj8hl.s:90819  .debug_str:000000000000e63f .LASF8815
     /tmp/ccOWj8hl.s:98555  .debug_str:000000000002dbc4 .LASF8816
     /tmp/ccOWj8hl.s:94189  .debug_str:000000000001bc47 .LASF8817
     /tmp/ccOWj8hl.s:97499  .debug_str:00000000000295d5 .LASF8818
     /tmp/ccOWj8hl.s:95655  .debug_str:0000000000022138 .LASF8819
     /tmp/ccOWj8hl.s:102785  .debug_str:000000000003ef6f .LASF8820
     /tmp/ccOWj8hl.s:104649  .debug_str:00000000000469e7 .LASF8821
     /tmp/ccOWj8hl.s:99499  .debug_str:0000000000031b6c .LASF8822
     /tmp/ccOWj8hl.s:97785  .debug_str:000000000002a8fe .LASF8823
     /tmp/ccOWj8hl.s:90985  .debug_str:000000000000f00c .LASF8824
     /tmp/ccOWj8hl.s:97629  .debug_str:0000000000029e88 .LASF8825
     /tmp/ccOWj8hl.s:103637  .debug_str:0000000000042779 .LASF8826
     /tmp/ccOWj8hl.s:94905  .debug_str:000000000001ee5b .LASF8827
     /tmp/ccOWj8hl.s:98187  .debug_str:000000000002c267 .LASF8828
     /tmp/ccOWj8hl.s:94435  .debug_str:000000000001cd32 .LASF8829
     /tmp/ccOWj8hl.s:100741  .debug_str:0000000000036911 .LASF8830
     /tmp/ccOWj8hl.s:96089  .debug_str:0000000000023cb4 .LASF8831
     /tmp/ccOWj8hl.s:102385  .debug_str:000000000003d3b1 .LASF8832
     /tmp/ccOWj8hl.s:105139  .debug_str:0000000000048b86 .LASF8833
     /tmp/ccOWj8hl.s:97995  .debug_str:000000000002b5d6 .LASF8834
     /tmp/ccOWj8hl.s:93501  .debug_str:0000000000019154 .LASF8835
     /tmp/ccOWj8hl.s:103559  .debug_str:0000000000042294 .LASF8836
     /tmp/ccOWj8hl.s:105315  .debug_str:00000000000497cc .LASF8837
     /tmp/ccOWj8hl.s:92059  .debug_str:000000000001342b .LASF8838
     /tmp/ccOWj8hl.s:90369  .debug_str:000000000000ccb4 .LASF8839
     /tmp/ccOWj8hl.s:104507  .debug_str:00000000000460d3 .LASF8840
     /tmp/ccOWj8hl.s:88723  .debug_str:0000000000005dcd .LASF8841
     /tmp/ccOWj8hl.s:93689  .debug_str:0000000000019df7 .LASF8842
     /tmp/ccOWj8hl.s:96601  .debug_str:0000000000025adb .LASF8843
     /tmp/ccOWj8hl.s:91371  .debug_str:00000000000106d7 .LASF8844
     /tmp/ccOWj8hl.s:102563  .debug_str:000000000003dfc5 .LASF8845
     /tmp/ccOWj8hl.s:95035  .debug_str:000000000001f7cd .LASF8846
     /tmp/ccOWj8hl.s:89187  .debug_str:0000000000007c01 .LASF8847
     /tmp/ccOWj8hl.s:105693  .debug_str:000000000004b34f .LASF8848
     /tmp/ccOWj8hl.s:103995  .debug_str:0000000000043e22 .LASF8849
     /tmp/ccOWj8hl.s:96639  .debug_str:0000000000025da4 .LASF8850
     /tmp/ccOWj8hl.s:89189  .debug_str:0000000000007c16 .LASF8851
     /tmp/ccOWj8hl.s:103833  .debug_str:000000000004339b .LASF8852
     /tmp/ccOWj8hl.s:104811  .debug_str:00000000000473fb .LASF8853
     /tmp/ccOWj8hl.s:89789  .debug_str:000000000000a4bf .LASF8854
     /tmp/ccOWj8hl.s:91641  .debug_str:000000000001190b .LASF8855
     /tmp/ccOWj8hl.s:89113  .debug_str:000000000000778f .LASF8856
     /tmp/ccOWj8hl.s:101131  .debug_str:0000000000037fe4 .LASF8857
     /tmp/ccOWj8hl.s:93149  .debug_str:0000000000017a34 .LASF8858
     /tmp/ccOWj8hl.s:93151  .debug_str:0000000000017a43 .LASF8859
     /tmp/ccOWj8hl.s:93153  .debug_str:0000000000017a52 .LASF8860
     /tmp/ccOWj8hl.s:95207  .debug_str:0000000000020338 .LASF8861
     /tmp/ccOWj8hl.s:93541  .debug_str:000000000001944e .LASF8862
     /tmp/ccOWj8hl.s:93365  .debug_str:0000000000018828 .LASF8863
     /tmp/ccOWj8hl.s:95161  .debug_str:0000000000020044 .LASF8864
     /tmp/ccOWj8hl.s:102645  .debug_str:000000000003e5e2 .LASF8865
     /tmp/ccOWj8hl.s:91761  .debug_str:00000000000120d3 .LASF8866
     /tmp/ccOWj8hl.s:100673  .debug_str:00000000000365f1 .LASF8867
     /tmp/ccOWj8hl.s:90675  .debug_str:000000000000df2a .LASF8868
     /tmp/ccOWj8hl.s:91605  .debug_str:0000000000011679 .LASF8869
     /tmp/ccOWj8hl.s:95151  .debug_str:000000000001ff65 .LASF8870
     /tmp/ccOWj8hl.s:88557  .debug_str:000000000000527d .LASF8871
     /tmp/ccOWj8hl.s:88923  .debug_str:0000000000006bbc .LASF8872
     /tmp/ccOWj8hl.s:92239  .debug_str:0000000000013e89 .LASF8873
     /tmp/ccOWj8hl.s:91895  .debug_str:0000000000012a7e .LASF8874
     /tmp/ccOWj8hl.s:102603  .debug_str:000000000003e27d .LASF8875
     /tmp/ccOWj8hl.s:105067  .debug_str:00000000000486be .LASF8876
     /tmp/ccOWj8hl.s:102601  .debug_str:000000000003e274 .LASF8877
     /tmp/ccOWj8hl.s:102901  .debug_str:000000000003f7c5 .LASF8878
     /tmp/ccOWj8hl.s:102473  .debug_str:000000000003d8d5 .LASF8879
     /tmp/ccOWj8hl.s:93007  .debug_str:000000000001711e .LASF8880
     /tmp/ccOWj8hl.s:98625  .debug_str:000000000002e0b1 .LASF8881
     /tmp/ccOWj8hl.s:92019  .debug_str:000000000001319f .LASF8882
     /tmp/ccOWj8hl.s:96009  .debug_str:000000000002387f .LASF8883
     /tmp/ccOWj8hl.s:102169  .debug_str:000000000003c611 .LASF8884
     /tmp/ccOWj8hl.s:101865  .debug_str:000000000003b200 .LASF8885
     /tmp/ccOWj8hl.s:93157  .debug_str:0000000000017a8a .LASF8886
     /tmp/ccOWj8hl.s:97411  .debug_str:000000000002908c .LASF8887
     /tmp/ccOWj8hl.s:88641  .debug_str:00000000000058bd .LASF8888
     /tmp/ccOWj8hl.s:98667  .debug_str:000000000002e333 .LASF8889
     /tmp/ccOWj8hl.s:97251  .debug_str:00000000000286b6 .LASF8890
     /tmp/ccOWj8hl.s:96153  .debug_str:000000000002404c .LASF8891
     /tmp/ccOWj8hl.s:95483  .debug_str:00000000000215b3 .LASF8892
     /tmp/ccOWj8hl.s:89059  .debug_str:0000000000007448 .LASF8893
     /tmp/ccOWj8hl.s:103201  .debug_str:0000000000040b8d .LASF8894
     /tmp/ccOWj8hl.s:98077  .debug_str:000000000002bb02 .LASF8895
     /tmp/ccOWj8hl.s:97123  .debug_str:0000000000027e41 .LASF8896
     /tmp/ccOWj8hl.s:95193  .debug_str:00000000000202ab .LASF8897
     /tmp/ccOWj8hl.s:92759  .debug_str:0000000000016082 .LASF8898
     /tmp/ccOWj8hl.s:102481  .debug_str:000000000003d97e .LASF8899
     /tmp/ccOWj8hl.s:102613  .debug_str:000000000003e352 .LASF8900
     /tmp/ccOWj8hl.s:87717  .debug_str:000000000000183f .LASF8901
     /tmp/ccOWj8hl.s:94099  .debug_str:000000000001b6a7 .LASF8902
     /tmp/ccOWj8hl.s:99727  .debug_str:0000000000032a42 .LASF8903
     /tmp/ccOWj8hl.s:91439  .debug_str:0000000000010a6a .LASF8904
     /tmp/ccOWj8hl.s:95601  .debug_str:0000000000021d7f .LASF8905
     /tmp/ccOWj8hl.s:89757  .debug_str:000000000000a2d0 .LASF8906
     /tmp/ccOWj8hl.s:95735  .debug_str:000000000002269f .LASF8907
     /tmp/ccOWj8hl.s:97105  .debug_str:0000000000027ccd .LASF8908
     /tmp/ccOWj8hl.s:91959  .debug_str:0000000000012e06 .LASF8909
     /tmp/ccOWj8hl.s:93975  .debug_str:000000000001aeea .LASF8910
     /tmp/ccOWj8hl.s:104399  .debug_str:00000000000458e6 .LASF8911
     /tmp/ccOWj8hl.s:88717  .debug_str:0000000000005d6e .LASF8912
     /tmp/ccOWj8hl.s:97963  .debug_str:000000000002b3ff .LASF8913
     /tmp/ccOWj8hl.s:97295  .debug_str:0000000000028a05 .LASF8914
     /tmp/ccOWj8hl.s:90811  .debug_str:000000000000e5b3 .LASF8915
     /tmp/ccOWj8hl.s:90047  .debug_str:000000000000b7b8 .LASF8916
     /tmp/ccOWj8hl.s:90941  .debug_str:000000000000eca3 .LASF8917
     /tmp/ccOWj8hl.s:89833  .debug_str:000000000000a7d6 .LASF8918
     /tmp/ccOWj8hl.s:104759  .debug_str:00000000000470c5 .LASF8919
     /tmp/ccOWj8hl.s:104055  .debug_str:000000000004421f .LASF8920
     /tmp/ccOWj8hl.s:103073  .debug_str:00000000000402b8 .LASF8921
     /tmp/ccOWj8hl.s:88711  .debug_str:0000000000005d07 .LASF8922
     /tmp/ccOWj8hl.s:90621  .debug_str:000000000000dc59 .LASF8923
     /tmp/ccOWj8hl.s:101675  .debug_str:000000000003a52d .LASF8924
     /tmp/ccOWj8hl.s:91495  .debug_str:0000000000010e75 .LASF8925
     /tmp/ccOWj8hl.s:97023  .debug_str:0000000000027839 .LASF8926
     /tmp/ccOWj8hl.s:88925  .debug_str:0000000000006bd7 .LASF8927
     /tmp/ccOWj8hl.s:92893  .debug_str:00000000000169e2 .LASF8928
     /tmp/ccOWj8hl.s:89911  .debug_str:000000000000ad70 .LASF8929
     /tmp/ccOWj8hl.s:99025  .debug_str:000000000002fa81 .LASF8930
     /tmp/ccOWj8hl.s:87389  .debug_str:000000000000020d .LASF8931
     /tmp/ccOWj8hl.s:102439  .debug_str:000000000003d718 .LASF8932
     /tmp/ccOWj8hl.s:93455  .debug_str:0000000000018e3e .LASF8933
     /tmp/ccOWj8hl.s:97641  .debug_str:0000000000029f3d .LASF8934
     /tmp/ccOWj8hl.s:96401  .debug_str:0000000000024da4 .LASF8935
     /tmp/ccOWj8hl.s:101107  .debug_str:0000000000037e39 .LASF8936
     /tmp/ccOWj8hl.s:88747  .debug_str:0000000000005f2f .LASF8937
     /tmp/ccOWj8hl.s:99021  .debug_str:000000000002fa5a .LASF8938
     /tmp/ccOWj8hl.s:96951  .debug_str:000000000002729f .LASF8939
     /tmp/ccOWj8hl.s:88303  .debug_str:000000000000418e .LASF8940
     /tmp/ccOWj8hl.s:104671  .debug_str:0000000000046b2f .LASF8941
     /tmp/ccOWj8hl.s:96513  .debug_str:00000000000255ce .LASF8942
     /tmp/ccOWj8hl.s:93807  .debug_str:000000000001a4e2 .LASF8943
     /tmp/ccOWj8hl.s:96221  .debug_str:0000000000024361 .LASF8944
     /tmp/ccOWj8hl.s:93641  .debug_str:0000000000019b76 .LASF8945
     /tmp/ccOWj8hl.s:105009  .debug_str:00000000000482bf .LASF8946
     /tmp/ccOWj8hl.s:93783  .debug_str:000000000001a33f .LASF8947
     /tmp/ccOWj8hl.s:96727  .debug_str:00000000000263f5 .LASF8948
     /tmp/ccOWj8hl.s:101761  .debug_str:000000000003aae8 .LASF8949
     /tmp/ccOWj8hl.s:87885  .debug_str:000000000000239f .LASF8950
     /tmp/ccOWj8hl.s:88091  .debug_str:0000000000003287 .LASF8951
     /tmp/ccOWj8hl.s:97553  .debug_str:00000000000299f9 .LASF8952
     /tmp/ccOWj8hl.s:93787  .debug_str:000000000001a383 .LASF8953
     /tmp/ccOWj8hl.s:100455  .debug_str:0000000000035a1e .LASF8954
     /tmp/ccOWj8hl.s:97033  .debug_str:00000000000278da .LASF8955
     /tmp/ccOWj8hl.s:99637  .debug_str:00000000000323c9 .LASF8956
     /tmp/ccOWj8hl.s:87417  .debug_str:00000000000003c4 .LASF8957
     /tmp/ccOWj8hl.s:95865  .debug_str:0000000000022fad .LASF8958
     /tmp/ccOWj8hl.s:93361  .debug_str:0000000000018817 .LASF8959
     /tmp/ccOWj8hl.s:87657  .debug_str:00000000000013e2 .LASF8960
     /tmp/ccOWj8hl.s:95315  .debug_str:0000000000020a3b .LASF8961
     /tmp/ccOWj8hl.s:90609  .debug_str:000000000000db61 .LASF8962
     /tmp/ccOWj8hl.s:99017  .debug_str:000000000002fa09 .LASF8963
     /tmp/ccOWj8hl.s:104037  .debug_str:0000000000044138 .LASF8964
     /tmp/ccOWj8hl.s:95269  .debug_str:0000000000020817 .LASF8965
     /tmp/ccOWj8hl.s:100819  .debug_str:0000000000036d5f .LASF8966
     /tmp/ccOWj8hl.s:95009  .debug_str:000000000001f666 .LASF8967
     /tmp/ccOWj8hl.s:95265  .debug_str:00000000000207e3 .LASF8968
     /tmp/ccOWj8hl.s:103255  .debug_str:0000000000040edc .LASF8969
     /tmp/ccOWj8hl.s:97139  .debug_str:0000000000027f16 .LASF8970
     /tmp/ccOWj8hl.s:89809  .debug_str:000000000000a668 .LASF8971
     /tmp/ccOWj8hl.s:89119  .debug_str:00000000000077c6 .LASF8972
     /tmp/ccOWj8hl.s:97461  .debug_str:0000000000029426 .LASF8973
     /tmp/ccOWj8hl.s:103885  .debug_str:00000000000436b2 .LASF8974
     /tmp/ccOWj8hl.s:102715  .debug_str:000000000003eac4 .LASF8975
     /tmp/ccOWj8hl.s:94819  .debug_str:000000000001e7a2 .LASF8976
     /tmp/ccOWj8hl.s:95647  .debug_str:00000000000220ba .LASF8977
     /tmp/ccOWj8hl.s:103027  .debug_str:000000000003ff31 .LASF8978
     /tmp/ccOWj8hl.s:98785  .debug_str:000000000002eb81 .LASF8979
     /tmp/ccOWj8hl.s:99221  .debug_str:0000000000030849 .LASF8980
     /tmp/ccOWj8hl.s:88773  .debug_str:00000000000060c7 .LASF8981
     /tmp/ccOWj8hl.s:105347  .debug_str:00000000000499a5 .LASF8982
     /tmp/ccOWj8hl.s:103965  .debug_str:0000000000043c86 .LASF8983
     /tmp/ccOWj8hl.s:88449  .debug_str:0000000000004b4b .LASF8984
     /tmp/ccOWj8hl.s:94279  .debug_str:000000000001c22b .LASF8985
     /tmp/ccOWj8hl.s:103197  .debug_str:0000000000040b76 .LASF8986
     /tmp/ccOWj8hl.s:102001  .debug_str:000000000003bb87 .LASF8987
     /tmp/ccOWj8hl.s:94979  .debug_str:000000000001f47b .LASF8988
     /tmp/ccOWj8hl.s:94981  .debug_str:000000000001f485 .LASF8989
     /tmp/ccOWj8hl.s:104541  .debug_str:00000000000462d1 .LASF8990
     /tmp/ccOWj8hl.s:94985  .debug_str:000000000001f4c8 .LASF8991
     /tmp/ccOWj8hl.s:99809  .debug_str:0000000000033002 .LASF8992
     /tmp/ccOWj8hl.s:98641  .debug_str:000000000002e1a1 .LASF8993
     /tmp/ccOWj8hl.s:103829  .debug_str:0000000000043371 .LASF8994
     /tmp/ccOWj8hl.s:97249  .debug_str:00000000000286ab .LASF8995
     /tmp/ccOWj8hl.s:93479  .debug_str:0000000000018fdb .LASF8996
     /tmp/ccOWj8hl.s:89109  .debug_str:000000000000777c .LASF8997
     /tmp/ccOWj8hl.s:88027  .debug_str:0000000000002e8f .LASF8998
     /tmp/ccOWj8hl.s:93265  .debug_str:0000000000018162 .LASF8999
     /tmp/ccOWj8hl.s:89665  .debug_str:0000000000009c48 .LASF9000
     /tmp/ccOWj8hl.s:91553  .debug_str:0000000000011286 .LASF9001
     /tmp/ccOWj8hl.s:89667  .debug_str:0000000000009c53 .LASF9002
     /tmp/ccOWj8hl.s:97759  .debug_str:000000000002a70b .LASF9003
     /tmp/ccOWj8hl.s:89669  .debug_str:0000000000009c5e .LASF9004
     /tmp/ccOWj8hl.s:94265  .debug_str:000000000001c130 .LASF9005
     /tmp/ccOWj8hl.s:89671  .debug_str:0000000000009c69 .LASF9006
     /tmp/ccOWj8hl.s:88253  .debug_str:0000000000003d50 .LASF9007
     /tmp/ccOWj8hl.s:99947  .debug_str:00000000000339b1 .LASF9008
     /tmp/ccOWj8hl.s:88599  .debug_str:00000000000055d9 .LASF9009
     /tmp/ccOWj8hl.s:97053  .debug_str:00000000000279ea .LASF9010
     /tmp/ccOWj8hl.s:103395  .debug_str:0000000000041833 .LASF9011
     /tmp/ccOWj8hl.s:97055  .debug_str:00000000000279f4 .LASF9012
     /tmp/ccOWj8hl.s:104153  .debug_str:0000000000044928 .LASF9013
     /tmp/ccOWj8hl.s:97057  .debug_str:00000000000279fe .LASF9014
     /tmp/ccOWj8hl.s:91573  .debug_str:00000000000113e9 .LASF9015
     /tmp/ccOWj8hl.s:97059  .debug_str:0000000000027a08 .LASF9016
     /tmp/ccOWj8hl.s:104319  .debug_str:00000000000453a0 .LASF9017
     /tmp/ccOWj8hl.s:97061  .debug_str:0000000000027a12 .LASF9018
     /tmp/ccOWj8hl.s:102417  .debug_str:000000000003d5b4 .LASF9019
     /tmp/ccOWj8hl.s:97063  .debug_str:0000000000027a1c .LASF9020
     /tmp/ccOWj8hl.s:92509  .debug_str:0000000000015097 .LASF9021
     /tmp/ccOWj8hl.s:97065  .debug_str:0000000000027a26 .LASF9022
     /tmp/ccOWj8hl.s:105217  .debug_str:00000000000490c5 .LASF9023
     /tmp/ccOWj8hl.s:96095  .debug_str:0000000000023d0a .LASF9024
     /tmp/ccOWj8hl.s:90585  .debug_str:000000000000d9ec .LASF9025
     /tmp/ccOWj8hl.s:93287  .debug_str:000000000001829a .LASF9026
     /tmp/ccOWj8hl.s:97577  .debug_str:0000000000029bad .LASF9027
     /tmp/ccOWj8hl.s:91501  .debug_str:0000000000010ef5 .LASF9028
     /tmp/ccOWj8hl.s:92327  .debug_str:0000000000014457 .LASF9029
     /tmp/ccOWj8hl.s:103699  .debug_str:0000000000042b35 .LASF9030
     /tmp/ccOWj8hl.s:91209  .debug_str:000000000000fcbd .LASF9031
     /tmp/ccOWj8hl.s:102621  .debug_str:000000000003e3c0 .LASF9032
     /tmp/ccOWj8hl.s:104725  .debug_str:0000000000046e8f .LASF9033
     /tmp/ccOWj8hl.s:101931  .debug_str:000000000003b70b .LASF9034
     /tmp/ccOWj8hl.s:92163  .debug_str:0000000000013a8e .LASF9035
     /tmp/ccOWj8hl.s:87749  .debug_str:0000000000001a99 .LASF9036
     /tmp/ccOWj8hl.s:98015  .debug_str:000000000002b6c3 .LASF9037
     /tmp/ccOWj8hl.s:104839  .debug_str:0000000000047627 .LASF9038
     /tmp/ccOWj8hl.s:101243  .debug_str:000000000003872c .LASF9039
     /tmp/ccOWj8hl.s:99055  .debug_str:000000000002fc49 .LASF9040
     /tmp/ccOWj8hl.s:103329  .debug_str:000000000004141f .LASF9041
     /tmp/ccOWj8hl.s:95001  .debug_str:000000000001f5ec .LASF9042
     /tmp/ccOWj8hl.s:98923  .debug_str:000000000002f407 .LASF9043
     /tmp/ccOWj8hl.s:91655  .debug_str:00000000000119be .LASF9044
     /tmp/ccOWj8hl.s:91867  .debug_str:0000000000012868 .LASF9045
     /tmp/ccOWj8hl.s:93871  .debug_str:000000000001a832 .LASF9046
     /tmp/ccOWj8hl.s:95029  .debug_str:000000000001f777 .LASF9047
     /tmp/ccOWj8hl.s:96463  .debug_str:0000000000025234 .LASF9048
     /tmp/ccOWj8hl.s:89263  .debug_str:000000000000814d .LASF9049
     /tmp/ccOWj8hl.s:98223  .debug_str:000000000002c4fc .LASF9050
     /tmp/ccOWj8hl.s:93441  .debug_str:0000000000018d50 .LASF9051
     /tmp/ccOWj8hl.s:92681  .debug_str:0000000000015b1e .LASF9052
     /tmp/ccOWj8hl.s:103739  .debug_str:0000000000042def .LASF9053
     /tmp/ccOWj8hl.s:93411  .debug_str:0000000000018b4e .LASF9054
     /tmp/ccOWj8hl.s:97003  .debug_str:00000000000276d8 .LASF9055
     /tmp/ccOWj8hl.s:87555  .debug_str:0000000000000cf8 .LASF9056
     /tmp/ccOWj8hl.s:94061  .debug_str:000000000001b3f8 .LASF9057
     /tmp/ccOWj8hl.s:100467  .debug_str:0000000000035a48 .LASF9058
     /tmp/ccOWj8hl.s:98933  .debug_str:000000000002f480 .LASF9059
     /tmp/ccOWj8hl.s:95631  .debug_str:0000000000021f96 .LASF9060
     /tmp/ccOWj8hl.s:96709  .debug_str:000000000002632d .LASF9061
     /tmp/ccOWj8hl.s:95433  .debug_str:0000000000021211 .LASF9062
     /tmp/ccOWj8hl.s:87747  .debug_str:0000000000001a75 .LASF9063
     /tmp/ccOWj8hl.s:90337  .debug_str:000000000000caa3 .LASF9064
     /tmp/ccOWj8hl.s:90081  .debug_str:000000000000b9b9 .LASF9065
     /tmp/ccOWj8hl.s:98215  .debug_str:000000000002c49e .LASF9066
     /tmp/ccOWj8hl.s:94131  .debug_str:000000000001b8a0 .LASF9067
     /tmp/ccOWj8hl.s:97977  .debug_str:000000000002b4e4 .LASF9068
     /tmp/ccOWj8hl.s:97979  .debug_str:000000000002b4e9 .LASF9069
     /tmp/ccOWj8hl.s:89079  .debug_str:0000000000007565 .LASF9070
     /tmp/ccOWj8hl.s:89081  .debug_str:000000000000756a .LASF9071
     /tmp/ccOWj8hl.s:105011  .debug_str:00000000000482d4 .LASF9072
     /tmp/ccOWj8hl.s:101687  .debug_str:000000000003a5cf .LASF9073
     /tmp/ccOWj8hl.s:102947  .debug_str:000000000003fa71 .LASF9074
     /tmp/ccOWj8hl.s:102949  .debug_str:000000000003fa77 .LASF9075
     /tmp/ccOWj8hl.s:102953  .debug_str:000000000003fa8b .LASF9076
     /tmp/ccOWj8hl.s:102957  .debug_str:000000000003faa3 .LASF9077
     /tmp/ccOWj8hl.s:93395  .debug_str:0000000000018a22 .LASF9078
     /tmp/ccOWj8hl.s:103391  .debug_str:000000000004180d .LASF9079
     /tmp/ccOWj8hl.s:88179  .debug_str:0000000000003875 .LASF9080
     /tmp/ccOWj8hl.s:95199  .debug_str:00000000000202eb .LASF9081
     /tmp/ccOWj8hl.s:97729  .debug_str:000000000002a50f .LASF9082
     /tmp/ccOWj8hl.s:102893  .debug_str:000000000003f713 .LASF9083
     /tmp/ccOWj8hl.s:91521  .debug_str:0000000000011065 .LASF9084
     /tmp/ccOWj8hl.s:98027  .debug_str:000000000002b7ae .LASF9085
     /tmp/ccOWj8hl.s:88003  .debug_str:0000000000002c41 .LASF9086
     /tmp/ccOWj8hl.s:88063  .debug_str:0000000000003087 .LASF9087
     /tmp/ccOWj8hl.s:95817  .debug_str:0000000000022c1c .LASF9088
     /tmp/ccOWj8hl.s:98029  .debug_str:000000000002b7b7 .LASF9089
     /tmp/ccOWj8hl.s:97613  .debug_str:0000000000029dc0 .LASF9090
     /tmp/ccOWj8hl.s:93743  .debug_str:000000000001a124 .LASF9091
     /tmp/ccOWj8hl.s:89049  .debug_str:00000000000073b0 .LASF9092
     /tmp/ccOWj8hl.s:98541  .debug_str:000000000002dae0 .LASF9093
     /tmp/ccOWj8hl.s:88509  .debug_str:0000000000004f21 .LASF9094
     /tmp/ccOWj8hl.s:95743  .debug_str:000000000002270c .LASF9095
     /tmp/ccOWj8hl.s:105523  .debug_str:000000000004a7c6 .LASF9096
     /tmp/ccOWj8hl.s:94715  .debug_str:000000000001e0d9 .LASF9097
     /tmp/ccOWj8hl.s:105785  .debug_str:000000000004b8f2 .LASF9098
     /tmp/ccOWj8hl.s:89401  .debug_str:0000000000008ab6 .LASF9099
     /tmp/ccOWj8hl.s:87941  .debug_str:00000000000027d7 .LASF9100
     /tmp/ccOWj8hl.s:102997  .debug_str:000000000003fcd8 .LASF9101
     /tmp/ccOWj8hl.s:102307  .debug_str:000000000003cf00 .LASF9102
     /tmp/ccOWj8hl.s:96665  .debug_str:0000000000025fbf .LASF9103
     /tmp/ccOWj8hl.s:101111  .debug_str:0000000000037e7c .LASF9104
     /tmp/ccOWj8hl.s:104181  .debug_str:0000000000044ae2 .LASF9105
     /tmp/ccOWj8hl.s:93061  .debug_str:00000000000174df .LASF9106
     /tmp/ccOWj8hl.s:89737  .debug_str:000000000000a1a8 .LASF9107
     /tmp/ccOWj8hl.s:101847  .debug_str:000000000003b0a9 .LASF9108
     /tmp/ccOWj8hl.s:99303  .debug_str:0000000000030ded .LASF9109
     /tmp/ccOWj8hl.s:97897  .debug_str:000000000002b06b .LASF9110
     /tmp/ccOWj8hl.s:92191  .debug_str:0000000000013c40 .LASF9111
     /tmp/ccOWj8hl.s:94643  .debug_str:000000000001db1a .LASF9112
     /tmp/ccOWj8hl.s:101129  .debug_str:0000000000037fdc .LASF9113
     /tmp/ccOWj8hl.s:102567  .debug_str:000000000003dff5 .LASF9114
     /tmp/ccOWj8hl.s:93801  .debug_str:000000000001a4b4 .LASF9115
     /tmp/ccOWj8hl.s:93811  .debug_str:000000000001a4fb .LASF9116
     /tmp/ccOWj8hl.s:97807  .debug_str:000000000002aac6 .LASF9117
     /tmp/ccOWj8hl.s:100325  .debug_str:000000000003517f .LASF9118
     /tmp/ccOWj8hl.s:97901  .debug_str:000000000002b09e .LASF9119
     /tmp/ccOWj8hl.s:91681  .debug_str:0000000000011b8e .LASF9120
     /tmp/ccOWj8hl.s:94449  .debug_str:000000000001ce38 .LASF9121
     /tmp/ccOWj8hl.s:94025  .debug_str:000000000001b1e4 .LASF9122
     /tmp/ccOWj8hl.s:105891  .debug_str:000000000004c0a7 .LASF9123
     /tmp/ccOWj8hl.s:87527  .debug_str:0000000000000b0c .LASF9124
     /tmp/ccOWj8hl.s:87649  .debug_str:0000000000001389 .LASF9125
     /tmp/ccOWj8hl.s:93625  .debug_str:00000000000199d7 .LASF9126
     /tmp/ccOWj8hl.s:88811  .debug_str:0000000000006378 .LASF9127
     /tmp/ccOWj8hl.s:96235  .debug_str:0000000000024461 .LASF9128
     /tmp/ccOWj8hl.s:102565  .debug_str:000000000003dfee .LASF9129
     /tmp/ccOWj8hl.s:93809  .debug_str:000000000001a4f1 .LASF9130
     /tmp/ccOWj8hl.s:97475  .debug_str:00000000000294d7 .LASF9131
     /tmp/ccOWj8hl.s:93345  .debug_str:00000000000186d6 .LASF9132
     /tmp/ccOWj8hl.s:87651  .debug_str:0000000000001394 .LASF9133
     /tmp/ccOWj8hl.s:87683  .debug_str:0000000000001552 .LASF9134
     /tmp/ccOWj8hl.s:100445  .debug_str:0000000000035982 .LASF9135
     /tmp/ccOWj8hl.s:94599  .debug_str:000000000001d85f .LASF9136
     /tmp/ccOWj8hl.s:94601  .debug_str:000000000001d869 .LASF9137
     /tmp/ccOWj8hl.s:94603  .debug_str:000000000001d873 .LASF9138
     /tmp/ccOWj8hl.s:94605  .debug_str:000000000001d87d .LASF9139
     /tmp/ccOWj8hl.s:94607  .debug_str:000000000001d887 .LASF9140
     /tmp/ccOWj8hl.s:99571  .debug_str:0000000000031ff2 .LASF9141
     /tmp/ccOWj8hl.s:94609  .debug_str:000000000001d891 .LASF9142
     /tmp/ccOWj8hl.s:90771  .debug_str:000000000000e357 .LASF9143
     /tmp/ccOWj8hl.s:90773  .debug_str:000000000000e362 .LASF9144
     /tmp/ccOWj8hl.s:105413  .debug_str:0000000000049f47 .LASF9145
     /tmp/ccOWj8hl.s:102711  .debug_str:000000000003eaae .LASF9146
     /tmp/ccOWj8hl.s:88941  .debug_str:0000000000006cbb .LASF9147
     /tmp/ccOWj8hl.s:95553  .debug_str:0000000000021a53 .LASF9148
     /tmp/ccOWj8hl.s:89107  .debug_str:0000000000007770 .LASF9149
     /tmp/ccOWj8hl.s:102713  .debug_str:000000000003eab9 .LASF9150
     /tmp/ccOWj8hl.s:101797  .debug_str:000000000003ad29 .LASF9151
     /tmp/ccOWj8hl.s:87815  .debug_str:0000000000001ee2 .LASF9152
     /tmp/ccOWj8hl.s:93195  .debug_str:0000000000017c85 .LASF9153
     /tmp/ccOWj8hl.s:95871  .debug_str:0000000000023010 .LASF9154
     /tmp/ccOWj8hl.s:101989  .debug_str:000000000003bae1 .LASF9155
     /tmp/ccOWj8hl.s:101643  .debug_str:000000000003a2bc .LASF9156
     /tmp/ccOWj8hl.s:87797  .debug_str:0000000000001d91 .LASF9157
     /tmp/ccOWj8hl.s:91817  .debug_str:000000000001247f .LASF9158
     /tmp/ccOWj8hl.s:94813  .debug_str:000000000001e739 .LASF9159
     /tmp/ccOWj8hl.s:95939  .debug_str:000000000002344a .LASF9160
     /tmp/ccOWj8hl.s:91401  .debug_str:00000000000108d4 .LASF9161
     /tmp/ccOWj8hl.s:95941  .debug_str:0000000000023455 .LASF9162
     /tmp/ccOWj8hl.s:103387  .debug_str:00000000000417a2 .LASF9163
     /tmp/ccOWj8hl.s:92293  .debug_str:0000000000014239 .LASF9164
     /tmp/ccOWj8hl.s:105461  .debug_str:000000000004a34c .LASF9165
     /tmp/ccOWj8hl.s:92295  .debug_str:0000000000014244 .LASF9166
     /tmp/ccOWj8hl.s:99659  .debug_str:000000000003258c .LASF9167
     /tmp/ccOWj8hl.s:92297  .debug_str:000000000001424f .LASF9168
     /tmp/ccOWj8hl.s:93697  .debug_str:0000000000019e95 .LASF9169
     /tmp/ccOWj8hl.s:95275  .debug_str:0000000000020852 .LASF9170
     /tmp/ccOWj8hl.s:100585  .debug_str:0000000000036101 .LASF9171
     /tmp/ccOWj8hl.s:92095  .debug_str:000000000001365e .LASF9172
     /tmp/ccOWj8hl.s:89345  .debug_str:00000000000086c2 .LASF9173
     /tmp/ccOWj8hl.s:92097  .debug_str:0000000000013669 .LASF9174
     /tmp/ccOWj8hl.s:102191  .debug_str:000000000003c75e .LASF9175
     /tmp/ccOWj8hl.s:92431  .debug_str:0000000000014b7c .LASF9176
     /tmp/ccOWj8hl.s:103501  .debug_str:0000000000041f0c .LASF9177
     /tmp/ccOWj8hl.s:100609  .debug_str:0000000000036273 .LASF9178
     /tmp/ccOWj8hl.s:97701  .debug_str:000000000002a37b .LASF9179
     /tmp/ccOWj8hl.s:92439  .debug_str:0000000000014bed .LASF9180
     /tmp/ccOWj8hl.s:103267  .debug_str:0000000000040f8b .LASF9181
     /tmp/ccOWj8hl.s:98783  .debug_str:000000000002eb77 .LASF9182
     /tmp/ccOWj8hl.s:87631  .debug_str:0000000000001218 .LASF9183
     /tmp/ccOWj8hl.s:93751  .debug_str:000000000001a17a .LASF9184
     /tmp/ccOWj8hl.s:105901  .debug_str:000000000004c10c .LASF9185
     /tmp/ccOWj8hl.s:93753  .debug_str:000000000001a185 .LASF9186
     /tmp/ccOWj8hl.s:99325  .debug_str:0000000000030f2a .LASF9187
     /tmp/ccOWj8hl.s:90023  .debug_str:000000000000b623 .LASF9188
     /tmp/ccOWj8hl.s:89251  .debug_str:00000000000080a7 .LASF9189
     /tmp/ccOWj8hl.s:90025  .debug_str:000000000000b62e .LASF9190
     /tmp/ccOWj8hl.s:95635  .debug_str:0000000000021fc0 .LASF9191
     /tmp/ccOWj8hl.s:90027  .debug_str:000000000000b639 .LASF9192
     /tmp/ccOWj8hl.s:89563  .debug_str:000000000000964a .LASF9193
     /tmp/ccOWj8hl.s:102209  .debug_str:000000000003c8a8 .LASF9194
     /tmp/ccOWj8hl.s:93439  .debug_str:0000000000018d2a .LASF9195
     /tmp/ccOWj8hl.s:97041  .debug_str:0000000000027951 .LASF9196
     /tmp/ccOWj8hl.s:97043  .debug_str:0000000000027965 .LASF9197
     /tmp/ccOWj8hl.s:97045  .debug_str:0000000000027979 .LASF9198
     /tmp/ccOWj8hl.s:96097  .debug_str:0000000000023d16 .LASF9199
     /tmp/ccOWj8hl.s:96099  .debug_str:0000000000023d27 .LASF9200
     /tmp/ccOWj8hl.s:87831  .debug_str:0000000000002045 .LASF9201
     /tmp/ccOWj8hl.s:96103  .debug_str:0000000000023d65 .LASF9202
     /tmp/ccOWj8hl.s:103767  .debug_str:0000000000042fe6 .LASF9203
     /tmp/ccOWj8hl.s:89077  .debug_str:0000000000007553 .LASF9204
     /tmp/ccOWj8hl.s:96185  .debug_str:000000000002413d .LASF9205
     /tmp/ccOWj8hl.s:92409  .debug_str:00000000000149b1 .LASF9206
     /tmp/ccOWj8hl.s:92433  .debug_str:0000000000014b87 .LASF9207
     /tmp/ccOWj8hl.s:105329  .debug_str:00000000000498a8 .LASF9208
     /tmp/ccOWj8hl.s:90903  .debug_str:000000000000eb0e .LASF9209
     /tmp/ccOWj8hl.s:99425  .debug_str:0000000000031623 .LASF9210
     /tmp/ccOWj8hl.s:104559  .debug_str:0000000000046426 .LASF9211
     /tmp/ccOWj8hl.s:103317  .debug_str:000000000004133b .LASF9212
     /tmp/ccOWj8hl.s:91613  .debug_str:000000000001170d .LASF9213
     /tmp/ccOWj8hl.s:94221  .debug_str:000000000001be68 .LASF9214
     /tmp/ccOWj8hl.s:97921  .debug_str:000000000002b195 .LASF9215
     /tmp/ccOWj8hl.s:100407  .debug_str:000000000003567e .LASF9216
     /tmp/ccOWj8hl.s:103237  .debug_str:0000000000040de1 .LASF9217
     /tmp/ccOWj8hl.s:88485  .debug_str:0000000000004dae .LASF9218
     /tmp/ccOWj8hl.s:95391  .debug_str:0000000000020f00 .LASF9219
     /tmp/ccOWj8hl.s:94313  .debug_str:000000000001c48d .LASF9314
     /tmp/ccOWj8hl.s:99183  .debug_str:000000000003059e .LASF9220
     /tmp/ccOWj8hl.s:89297  .debug_str:00000000000083b9 .LASF9221
     /tmp/ccOWj8hl.s:88893  .debug_str:000000000000695f .LASF9222
     /tmp/ccOWj8hl.s:93965  .debug_str:000000000001ae96 .LASF9223
     /tmp/ccOWj8hl.s:97725  .debug_str:000000000002a4f6 .LASF9224
     /tmp/ccOWj8hl.s:96397  .debug_str:0000000000024d8b .LASF9225
     /tmp/ccOWj8hl.s:98393  .debug_str:000000000002d087 .LASF9226
     /tmp/ccOWj8hl.s:89751  .debug_str:000000000000a285 .LASF9227
     /tmp/ccOWj8hl.s:95611  .debug_str:0000000000021e02 .LASF9228
     /tmp/ccOWj8hl.s:98799  .debug_str:000000000002ec8c .LASF9229
     /tmp/ccOWj8hl.s:94915  .debug_str:000000000001ef12 .LASF9230
     /tmp/ccOWj8hl.s:101165  .debug_str:0000000000038267 .LASF9231
     /tmp/ccOWj8hl.s:101167  .debug_str:0000000000038272 .LASF9232
     /tmp/ccOWj8hl.s:101169  .debug_str:000000000003827d .LASF9233
     /tmp/ccOWj8hl.s:101171  .debug_str:0000000000038288 .LASF9234
     /tmp/ccOWj8hl.s:88105  .debug_str:0000000000003302 .LASF9235
     /tmp/ccOWj8hl.s:94777  .debug_str:000000000001e508 .LASF9236
     /tmp/ccOWj8hl.s:100003  .debug_str:0000000000033d39 .LASF9237
     /tmp/ccOWj8hl.s:91277  .debug_str:0000000000010037 .LASF9238
     /tmp/ccOWj8hl.s:105553  .debug_str:000000000004a9ed .LASF9239
     /tmp/ccOWj8hl.s:103607  .debug_str:00000000000425ac .LASF9240
     /tmp/ccOWj8hl.s:89569  .debug_str:00000000000096a6 .LASF9241
     /tmp/ccOWj8hl.s:103135  .debug_str:000000000004071d .LASF9242
     /tmp/ccOWj8hl.s:104947  .debug_str:0000000000047e88 .LASF9243
     /tmp/ccOWj8hl.s:96359  .debug_str:0000000000024aeb .LASF9244
     /tmp/ccOWj8hl.s:91305  .debug_str:00000000000102a5 .LASF9245
     /tmp/ccOWj8hl.s:93877  .debug_str:000000000001a8be .LASF9246
     /tmp/ccOWj8hl.s:98519  .debug_str:000000000002d993 .LASF9247
     /tmp/ccOWj8hl.s:87409  .debug_str:0000000000000356 .LASF9248
     /tmp/ccOWj8hl.s:97121  .debug_str:0000000000027e35 .LASF9249
     /tmp/ccOWj8hl.s:101783  .debug_str:000000000003ac58 .LASF9250
     /tmp/ccOWj8hl.s:91749  .debug_str:0000000000012003 .LASF9251
     /tmp/ccOWj8hl.s:105137  .debug_str:0000000000048b73 .LASF9252
     /tmp/ccOWj8hl.s:91815  .debug_str:000000000001246f .LASF9253
     /tmp/ccOWj8hl.s:95027  .debug_str:000000000001f764 .LASF9254
     /tmp/ccOWj8hl.s:91899  .debug_str:0000000000012a9d .LASF9255
     /tmp/ccOWj8hl.s:95111  .debug_str:000000000001fc9e .LASF9256
     /tmp/ccOWj8hl.s:91969  .debug_str:0000000000012e91 .LASF9257
     /tmp/ccOWj8hl.s:95183  .debug_str:00000000000201f4 .LASF9258
     /tmp/ccOWj8hl.s:92049  .debug_str:0000000000013355 .LASF9259
     /tmp/ccOWj8hl.s:95255  .debug_str:000000000002074a .LASF9260
     /tmp/ccOWj8hl.s:103741  .debug_str:0000000000042dfd .LASF9261
     /tmp/ccOWj8hl.s:102179  .debug_str:000000000003c6b4 .LASF9262
     /tmp/ccOWj8hl.s:92155  .debug_str:0000000000013a0a .LASF9263
     /tmp/ccOWj8hl.s:88795  .debug_str:000000000000625e .LASF9264
     /tmp/ccOWj8hl.s:101133  .debug_str:0000000000038001 .LASF9265
     /tmp/ccOWj8hl.s:104681  .debug_str:0000000000046bb4 .LASF9266
     /tmp/ccOWj8hl.s:104719  .debug_str:0000000000046e09 .LASF9267
     /tmp/ccOWj8hl.s:89099  .debug_str:00000000000076ca .LASF9268
     /tmp/ccOWj8hl.s:89495  .debug_str:000000000000911e .LASF9269
     /tmp/ccOWj8hl.s:88991  .debug_str:0000000000006fd4 .LASF9270
     /tmp/ccOWj8hl.s:105299  .debug_str:00000000000496f8 .LASF9271
     /tmp/ccOWj8hl.s:91687  .debug_str:0000000000011bdf .LASF9272
     /tmp/ccOWj8hl.s:100087  .debug_str:000000000003422c .LASF9273
     /tmp/ccOWj8hl.s:104867  .debug_str:000000000004789b .LASF9274
     /tmp/ccOWj8hl.s:103839  .debug_str:0000000000043410 .LASF9275
     /tmp/ccOWj8hl.s:89799  .debug_str:000000000000a5bc .LASF9276
     /tmp/ccOWj8hl.s:100647  .debug_str:0000000000036470 .LASF9277
     /tmp/ccOWj8hl.s:92635  .debug_str:0000000000015829 .LASF9278
     /tmp/ccOWj8hl.s:94399  .debug_str:000000000001ca99 .LASF9279
     /tmp/ccOWj8hl.s:93923  .debug_str:000000000001abf0 .LASF9280
     /tmp/ccOWj8hl.s:91879  .debug_str:0000000000012952 .LASF9281
     /tmp/ccOWj8hl.s:104063  .debug_str:00000000000442ae .LASF9282
     /tmp/ccOWj8hl.s:100389  .debug_str:00000000000354f7 .LASF9283
     /tmp/ccOWj8hl.s:95671  .debug_str:000000000002223c .LASF9284
     /tmp/ccOWj8hl.s:96385  .debug_str:0000000000024cc0 .LASF9285
     /tmp/ccOWj8hl.s:105297  .debug_str:00000000000496e5 .LASF9286
     /tmp/ccOWj8hl.s:92285  .debug_str:000000000001419a .LASF9287
     /tmp/ccOWj8hl.s:105597  .debug_str:000000000004ad24 .LASF9288
     /tmp/ccOWj8hl.s:90051  .debug_str:000000000000b7ee .LASF9289
     /tmp/ccOWj8hl.s:89619  .debug_str:0000000000009998 .LASF9290
     /tmp/ccOWj8hl.s:100891  .debug_str:00000000000370d4 .LASF9295
     /tmp/ccOWj8hl.s:899    .text.copy_switch_code:0000000000000000 .LFB30
     /tmp/ccOWj8hl.s:953    .text.copy_switch_code:000000000000006c .LFE30
     /tmp/ccOWj8hl.s:94365  .debug_str:000000000001c868 .LASF9291
     /tmp/ccOWj8hl.s:98407  .debug_str:000000000002d12f .LASF9292
     /tmp/ccOWj8hl.s:89371  .debug_str:00000000000088c7 .LASF9293
     /tmp/ccOWj8hl.s:91863  .debug_str:0000000000012824 .LASF9297
     /tmp/ccOWj8hl.s:853    .text.sgmii_pll_lock_scb:0000000000000000 .LFB29
     /tmp/ccOWj8hl.s:892    .text.sgmii_pll_lock_scb:0000000000000038 .LFE29
     /tmp/ccOWj8hl.s:90279  .debug_str:000000000000c6b3 .LASF9294
     /tmp/ccOWj8hl.s:102797  .debug_str:000000000003f03b .LASF9296
     /tmp/ccOWj8hl.s:741    .text.sgmii_pll_config_scb:0000000000000000 .LFB28
     /tmp/ccOWj8hl.s:846    .text.sgmii_pll_config_scb:00000000000000b8 .LFE28
     /tmp/ccOWj8hl.s:94177  .debug_str:000000000001bbc5 .LASF9300
     /tmp/ccOWj8hl.s:99023  .debug_str:000000000002fa65 .LASF9301
     /tmp/ccOWj8hl.s:708    .text.ddr_pll_config_scb_turn_off:0000000000000000 .LFB27
     /tmp/ccOWj8hl.s:734    .text.ddr_pll_config_scb_turn_off:0000000000000022 .LFE27
     /tmp/ccOWj8hl.s:104119  .debug_str:00000000000446c9 .LASF9298
     /tmp/ccOWj8hl.s:662    .text.ddr_pll_lock_scb:0000000000000000 .LFB26
     /tmp/ccOWj8hl.s:701    .text.ddr_pll_lock_scb:0000000000000038 .LFE26
     /tmp/ccOWj8hl.s:104483  .debug_str:0000000000045f3b .LASF9299
     /tmp/ccOWj8hl.s:504    .text.ddr_pll_config:0000000000000000 .LFB25
     /tmp/ccOWj8hl.s:655    .text.ddr_pll_config:0000000000000144 .LFE25
     /tmp/ccOWj8hl.s:98831  .debug_str:000000000002ee8a .LASF9302
     /tmp/ccOWj8hl.s:473    .text.flag_mss_pll_lock_error:0000000000000000 .LFB24
     /tmp/ccOWj8hl.s:497    .text.flag_mss_pll_lock_error:0000000000000010 .LFE24
     /tmp/ccOWj8hl.s:92657  .debug_str:000000000001594a .LASF9303
     /tmp/ccOWj8hl.s:327    .text.mss_pll_config:0000000000000000 .LFB23
     /tmp/ccOWj8hl.s:466    .text.mss_pll_config:0000000000000106 .LFE23
     /tmp/ccOWj8hl.s:96105  .debug_str:0000000000023d76 .LASF9304
     /tmp/ccOWj8hl.s:103993  .debug_str:0000000000043e11 .LASF9305
     /tmp/ccOWj8hl.s:267    .text.sgmii_mux_config:0000000000000000 .LFB22
     /tmp/ccOWj8hl.s:320    .text.sgmii_mux_config:000000000000004a .LFE22
     /tmp/ccOWj8hl.s:92335  .debug_str:00000000000144cd .LASF9307
     /tmp/ccOWj8hl.s:191    .ram_codetext:0000000000000000 .LFB21
     /tmp/ccOWj8hl.s:260    .ram_codetext:000000000000006c .LFE21
     /tmp/ccOWj8hl.s:101347  .debug_str:0000000000038e7e .LASF9306
     /tmp/ccOWj8hl.s:104613  .debug_str:0000000000046724 .LASF9308
     /tmp/ccOWj8hl.s:114    .text.mss_mux_pre_mss_pll_config:0000000000000000 .LFB20
     /tmp/ccOWj8hl.s:185    .text.mss_mux_pre_mss_pll_config:0000000000000078 .LFE20
     /tmp/ccOWj8hl.s:103427  .debug_str:0000000000041a8b .LASF9309
     /tmp/ccOWj8hl.s:63     .text.set_RTC_divisor:0000000000000000 .LFB19
     /tmp/ccOWj8hl.s:108    .text.set_RTC_divisor:000000000000004a .LFE19
     /tmp/ccOWj8hl.s:968    .debug_info:0000000000000000 .Ldebug_info0
     /tmp/ccOWj8hl.s:70117  .debug_macro:0000000000000000 .Ldebug_macro2
     /tmp/ccOWj8hl.s:97007  .debug_str:000000000002773d .LASF324
     /tmp/ccOWj8hl.s:71094  .debug_macro:0000000000000000 .Ldebug_macro3
     /tmp/ccOWj8hl.s:71258  .debug_macro:0000000000000000 .Ldebug_macro4
     /tmp/ccOWj8hl.s:93679  .debug_str:0000000000019d45 .LASF383
     /tmp/ccOWj8hl.s:102433  .debug_str:000000000003d6ab .LASF384
     /tmp/ccOWj8hl.s:100155  .debug_str:0000000000034707 .LASF385
     /tmp/ccOWj8hl.s:71278  .debug_macro:0000000000000000 .Ldebug_macro5
     /tmp/ccOWj8hl.s:71298  .debug_macro:0000000000000000 .Ldebug_macro6
     /tmp/ccOWj8hl.s:71363  .debug_macro:0000000000000000 .Ldebug_macro7
     /tmp/ccOWj8hl.s:71404  .debug_macro:0000000000000000 .Ldebug_macro8
     /tmp/ccOWj8hl.s:71526  .debug_macro:0000000000000000 .Ldebug_macro9
     /tmp/ccOWj8hl.s:71582  .debug_macro:0000000000000000 .Ldebug_macro10
     /tmp/ccOWj8hl.s:93281  .debug_str:000000000001823b .LASF539
     /tmp/ccOWj8hl.s:71794  .debug_macro:0000000000000000 .Ldebug_macro11
     /tmp/ccOWj8hl.s:71805  .debug_macro:0000000000000000 .Ldebug_macro12
     /tmp/ccOWj8hl.s:73604  .debug_macro:0000000000000000 .Ldebug_macro13
     /tmp/ccOWj8hl.s:94421  .debug_str:000000000001cc5d .LASF1162
     /tmp/ccOWj8hl.s:73675  .debug_macro:0000000000000000 .Ldebug_macro14
     /tmp/ccOWj8hl.s:102341  .debug_str:000000000003d119 .LASF3353
     /tmp/ccOWj8hl.s:80250  .debug_macro:0000000000000000 .Ldebug_macro15
     /tmp/ccOWj8hl.s:80267  .debug_macro:0000000000000000 .Ldebug_macro16
     /tmp/ccOWj8hl.s:80290  .debug_macro:0000000000000000 .Ldebug_macro17
     /tmp/ccOWj8hl.s:80307  .debug_macro:0000000000000000 .Ldebug_macro18
     /tmp/ccOWj8hl.s:80336  .debug_macro:0000000000000000 .Ldebug_macro19
     /tmp/ccOWj8hl.s:80395  .debug_macro:0000000000000000 .Ldebug_macro20
     /tmp/ccOWj8hl.s:80418  .debug_macro:0000000000000000 .Ldebug_macro21
     /tmp/ccOWj8hl.s:80477  .debug_macro:0000000000000000 .Ldebug_macro22
     /tmp/ccOWj8hl.s:83236  .debug_macro:0000000000000000 .Ldebug_macro23
     /tmp/ccOWj8hl.s:83280  .debug_macro:0000000000000000 .Ldebug_macro24
     /tmp/ccOWj8hl.s:83366  .debug_macro:0000000000000000 .Ldebug_macro25
     /tmp/ccOWj8hl.s:83395  .debug_macro:0000000000000000 .Ldebug_macro26
     /tmp/ccOWj8hl.s:83454  .debug_macro:0000000000000000 .Ldebug_macro27
     /tmp/ccOWj8hl.s:83516  .debug_macro:0000000000000000 .Ldebug_macro28
     /tmp/ccOWj8hl.s:83578  .debug_macro:0000000000000000 .Ldebug_macro29
     /tmp/ccOWj8hl.s:83640  .debug_macro:0000000000000000 .Ldebug_macro30
     /tmp/ccOWj8hl.s:83702  .debug_macro:0000000000000000 .Ldebug_macro31
     /tmp/ccOWj8hl.s:83764  .debug_macro:0000000000000000 .Ldebug_macro32
     /tmp/ccOWj8hl.s:83820  .debug_macro:0000000000000000 .Ldebug_macro33
     /tmp/ccOWj8hl.s:83876  .debug_macro:0000000000000000 .Ldebug_macro34
     /tmp/ccOWj8hl.s:83908  .debug_macro:0000000000000000 .Ldebug_macro35
     /tmp/ccOWj8hl.s:83928  .debug_macro:0000000000000000 .Ldebug_macro36
     /tmp/ccOWj8hl.s:83960  .debug_macro:0000000000000000 .Ldebug_macro37
     /tmp/ccOWj8hl.s:83992  .debug_macro:0000000000000000 .Ldebug_macro38
     /tmp/ccOWj8hl.s:84012  .debug_macro:0000000000000000 .Ldebug_macro39
     /tmp/ccOWj8hl.s:84032  .debug_macro:0000000000000000 .Ldebug_macro40
     /tmp/ccOWj8hl.s:84064  .debug_macro:0000000000000000 .Ldebug_macro41
     /tmp/ccOWj8hl.s:84078  .debug_macro:0000000000000000 .Ldebug_macro42
     /tmp/ccOWj8hl.s:84179  .debug_macro:0000000000000000 .Ldebug_macro43
     /tmp/ccOWj8hl.s:84196  .debug_macro:0000000000000000 .Ldebug_macro44
     /tmp/ccOWj8hl.s:84234  .debug_macro:0000000000000000 .Ldebug_macro45
     /tmp/ccOWj8hl.s:84257  .debug_macro:0000000000000000 .Ldebug_macro46
     /tmp/ccOWj8hl.s:84385  .debug_macro:0000000000000000 .Ldebug_macro47
     /tmp/ccOWj8hl.s:84399  .debug_macro:0000000000000000 .Ldebug_macro48
     /tmp/ccOWj8hl.s:84413  .debug_macro:0000000000000000 .Ldebug_macro49
     /tmp/ccOWj8hl.s:84469  .debug_macro:0000000000000000 .Ldebug_macro50
     /tmp/ccOWj8hl.s:85584  .debug_macro:0000000000000000 .Ldebug_macro51
     /tmp/ccOWj8hl.s:85616  .debug_macro:0000000000000000 .Ldebug_macro52
     /tmp/ccOWj8hl.s:85636  .debug_macro:0000000000000000 .Ldebug_macro53
     /tmp/ccOWj8hl.s:85680  .debug_macro:0000000000000000 .Ldebug_macro54
     /tmp/ccOWj8hl.s:85727  .debug_macro:0000000000000000 .Ldebug_macro55
     /tmp/ccOWj8hl.s:85774  .debug_macro:0000000000000000 .Ldebug_macro56
     /tmp/ccOWj8hl.s:85809  .debug_macro:0000000000000000 .Ldebug_macro57
     /tmp/ccOWj8hl.s:85832  .debug_macro:0000000000000000 .Ldebug_macro58
     /tmp/ccOWj8hl.s:87457  .debug_str:00000000000006a3 .LASF5147
     /tmp/ccOWj8hl.s:85849  .debug_macro:0000000000000000 .Ldebug_macro59
     /tmp/ccOWj8hl.s:104411  .debug_str:00000000000459e1 .LASF5302
     /tmp/ccOWj8hl.s:86316  .debug_macro:0000000000000000 .Ldebug_macro60
     /tmp/ccOWj8hl.s:86333  .debug_macro:0000000000000000 .Ldebug_macro61
     /tmp/ccOWj8hl.s:86347  .debug_macro:0000000000000000 .Ldebug_macro62
     /tmp/ccOWj8hl.s:86664  .debug_macro:0000000000000000 .Ldebug_macro63
     /tmp/ccOWj8hl.s:86684  .debug_macro:0000000000000000 .Ldebug_macro64
     /tmp/ccOWj8hl.s:98141  .debug_str:000000000002bf66 .LASF5458
     /tmp/ccOWj8hl.s:86806  .debug_macro:0000000000000000 .Ldebug_macro65
     /tmp/ccOWj8hl.s:86868  .debug_macro:0000000000000000 .Ldebug_macro66
     /tmp/ccOWj8hl.s:96849  .debug_str:0000000000026b9a .LASF5480
     /tmp/ccOWj8hl.s:86879  .debug_macro:0000000000000000 .Ldebug_macro67
     /tmp/ccOWj8hl.s:86908  .debug_macro:0000000000000000 .Ldebug_macro68
     /tmp/ccOWj8hl.s:101221  .debug_str:0000000000038603 .LASF5505
     /tmp/ccOWj8hl.s:86961  .debug_macro:0000000000000000 .Ldebug_macro69
     /tmp/ccOWj8hl.s:105165  .debug_str:0000000000048d30 .LASF5525
     /tmp/ccOWj8hl.s:87023  .debug_macro:0000000000000000 .Ldebug_macro70
     /tmp/ccOWj8hl.s:87091  .debug_macro:0000000000000000 .Ldebug_macro71
     /tmp/ccOWj8hl.s:87114  .debug_macro:0000000000000000 .Ldebug_macro72
     /tmp/ccOWj8hl.s:87194  .debug_macro:0000000000000000 .Ldebug_macro73
     /tmp/ccOWj8hl.s:87325  .debug_macro:0000000000000000 .Ldebug_macro74
     /tmp/ccOWj8hl.s:87345  .debug_macro:0000000000000000 .Ldebug_macro75
     /tmp/ccOWj8hl.s:92029  .debug_str:0000000000013263 .LASF0
     /tmp/ccOWj8hl.s:98661  .debug_str:000000000002e2da .LASF1
     /tmp/ccOWj8hl.s:95951  .debug_str:00000000000234ff .LASF2
     /tmp/ccOWj8hl.s:96019  .debug_str:0000000000023913 .LASF3
     /tmp/ccOWj8hl.s:90597  .debug_str:000000000000dab7 .LASF4
     /tmp/ccOWj8hl.s:90775  .debug_str:000000000000e36d .LASF5
     /tmp/ccOWj8hl.s:101153  .debug_str:000000000003816f .LASF6
     /tmp/ccOWj8hl.s:89557  .debug_str:00000000000095f5 .LASF7
     /tmp/ccOWj8hl.s:87931  .debug_str:000000000000275d .LASF8
     /tmp/ccOWj8hl.s:87621  .debug_str:000000000000119b .LASF9
     /tmp/ccOWj8hl.s:100691  .debug_str:000000000003671d .LASF10
     /tmp/ccOWj8hl.s:104221  .debug_str:0000000000044d6d .LASF11
     /tmp/ccOWj8hl.s:98365  .debug_str:000000000002cee9 .LASF12
     /tmp/ccOWj8hl.s:94215  .debug_str:000000000001be08 .LASF13
     /tmp/ccOWj8hl.s:90351  .debug_str:000000000000cb81 .LASF14
     /tmp/ccOWj8hl.s:89585  .debug_str:0000000000009771 .LASF15
     /tmp/ccOWj8hl.s:103345  .debug_str:00000000000414f1 .LASF16
     /tmp/ccOWj8hl.s:91325  .debug_str:00000000000103dd .LASF17
     /tmp/ccOWj8hl.s:93131  .debug_str:000000000001799d .LASF18
     /tmp/ccOWj8hl.s:104177  .debug_str:0000000000044aae .LASF19
     /tmp/ccOWj8hl.s:103919  .debug_str:0000000000043995 .LASF20
     /tmp/ccOWj8hl.s:95303  .debug_str:00000000000209bc .LASF21
     /tmp/ccOWj8hl.s:88915  .debug_str:0000000000006b20 .LASF22
     /tmp/ccOWj8hl.s:90713  .debug_str:000000000000e11c .LASF23
     /tmp/ccOWj8hl.s:102751  .debug_str:000000000003ecff .LASF24
     /tmp/ccOWj8hl.s:101083  .debug_str:0000000000037c7c .LASF25
     /tmp/ccOWj8hl.s:90265  .debug_str:000000000000c5da .LASF26
     /tmp/ccOWj8hl.s:89325  .debug_str:000000000000858f .LASF27
     /tmp/ccOWj8hl.s:102633  .debug_str:000000000003e4d8 .LASF28
     /tmp/ccOWj8hl.s:100969  .debug_str:0000000000037545 .LASF29
     /tmp/ccOWj8hl.s:92849  .debug_str:000000000001669b .LASF30
     /tmp/ccOWj8hl.s:100093  .debug_str:0000000000034269 .LASF31
     /tmp/ccOWj8hl.s:89021  .debug_str:00000000000071f1 .LASF32
     /tmp/ccOWj8hl.s:97821  .debug_str:000000000002ab6c .LASF33
     /tmp/ccOWj8hl.s:97507  .debug_str:0000000000029654 .LASF34
     /tmp/ccOWj8hl.s:90093  .debug_str:000000000000ba62 .LASF35
     /tmp/ccOWj8hl.s:92247  .debug_str:0000000000013ef6 .LASF36
     /tmp/ccOWj8hl.s:96735  .debug_str:000000000002645d .LASF37
     /tmp/ccOWj8hl.s:105879  .debug_str:000000000004bfb1 .LASF38
     /tmp/ccOWj8hl.s:95809  .debug_str:0000000000022b8a .LASF39
     /tmp/ccOWj8hl.s:96929  .debug_str:000000000002714f .LASF40
     /tmp/ccOWj8hl.s:92209  .debug_str:0000000000013d31 .LASF41
     /tmp/ccOWj8hl.s:88785  .debug_str:0000000000006190 .LASF42
     /tmp/ccOWj8hl.s:101567  .debug_str:0000000000039dc9 .LASF43
     /tmp/ccOWj8hl.s:88083  .debug_str:0000000000003200 .LASF44
     /tmp/ccOWj8hl.s:102505  .debug_str:000000000003db5a .LASF45
     /tmp/ccOWj8hl.s:88757  .debug_str:0000000000005fc1 .LASF46
     /tmp/ccOWj8hl.s:101079  .debug_str:0000000000037c45 .LASF47
     /tmp/ccOWj8hl.s:98101  .debug_str:000000000002bd02 .LASF48
     /tmp/ccOWj8hl.s:94467  .debug_str:000000000001cfa7 .LASF49
     /tmp/ccOWj8hl.s:90099  .debug_str:000000000000baa7 .LASF50
     /tmp/ccOWj8hl.s:88973  .debug_str:0000000000006ef4 .LASF51
     /tmp/ccOWj8hl.s:93219  .debug_str:0000000000017dee .LASF52
     /tmp/ccOWj8hl.s:99841  .debug_str:00000000000331fb .LASF53
     /tmp/ccOWj8hl.s:87775  .debug_str:0000000000001c20 .LASF54
     /tmp/ccOWj8hl.s:90221  .debug_str:000000000000c329 .LASF55
     /tmp/ccOWj8hl.s:103917  .debug_str:000000000004396c .LASF56
     /tmp/ccOWj8hl.s:102395  .debug_str:000000000003d459 .LASF57
     /tmp/ccOWj8hl.s:105037  .debug_str:0000000000048498 .LASF58
     /tmp/ccOWj8hl.s:103561  .debug_str:00000000000422b8 .LASF59
     /tmp/ccOWj8hl.s:98067  .debug_str:000000000002ba65 .LASF60
     /tmp/ccOWj8hl.s:103623  .debug_str:000000000004269c .LASF61
     /tmp/ccOWj8hl.s:97049  .debug_str:00000000000279a8 .LASF62
     /tmp/ccOWj8hl.s:102293  .debug_str:000000000003ce3c .LASF63
     /tmp/ccOWj8hl.s:96417  .debug_str:0000000000024ee1 .LASF64
     /tmp/ccOWj8hl.s:97723  .debug_str:000000000002a4d4 .LASF65
     /tmp/ccOWj8hl.s:99047  .debug_str:000000000002fbc9 .LASF66
     /tmp/ccOWj8hl.s:94517  .debug_str:000000000001d2ed .LASF67
     /tmp/ccOWj8hl.s:103685  .debug_str:0000000000042a33 .LASF68
     /tmp/ccOWj8hl.s:101455  .debug_str:00000000000395b9 .LASF69
     /tmp/ccOWj8hl.s:105881  .debug_str:000000000004bfca .LASF70
     /tmp/ccOWj8hl.s:92761  .debug_str:000000000001609e .LASF71
     /tmp/ccOWj8hl.s:87879  .debug_str:000000000000237a .LASF72
     /tmp/ccOWj8hl.s:104131  .debug_str:0000000000044772 .LASF73
     /tmp/ccOWj8hl.s:96319  .debug_str:00000000000248ba .LASF74
     /tmp/ccOWj8hl.s:92807  .debug_str:0000000000016360 .LASF75
     /tmp/ccOWj8hl.s:95651  .debug_str:00000000000220cc .LASF76
     /tmp/ccOWj8hl.s:89367  .debug_str:000000000000889b .LASF77
     /tmp/ccOWj8hl.s:99269  .debug_str:0000000000030bbb .LASF78
     /tmp/ccOWj8hl.s:97407  .debug_str:0000000000029038 .LASF79
     /tmp/ccOWj8hl.s:98813  .debug_str:000000000002ed6d .LASF80
     /tmp/ccOWj8hl.s:92003  .debug_str:00000000000130b0 .LASF81
     /tmp/ccOWj8hl.s:89535  .debug_str:000000000000943c .LASF82
     /tmp/ccOWj8hl.s:89565  .debug_str:0000000000009671 .LASF83
     /tmp/ccOWj8hl.s:91213  .debug_str:000000000000fcef .LASF84
     /tmp/ccOWj8hl.s:97767  .debug_str:000000000002a799 .LASF85
     /tmp/ccOWj8hl.s:99427  .debug_str:000000000003163b .LASF86
     /tmp/ccOWj8hl.s:95999  .debug_str:00000000000237d7 .LASF87
     /tmp/ccOWj8hl.s:104495  .debug_str:0000000000046009 .LASF88
     /tmp/ccOWj8hl.s:88849  .debug_str:0000000000006679 .LASF89
     /tmp/ccOWj8hl.s:96661  .debug_str:0000000000025f89 .LASF90
     /tmp/ccOWj8hl.s:93471  .debug_str:0000000000018f2e .LASF91
     /tmp/ccOWj8hl.s:95663  .debug_str:00000000000221d3 .LASF92
     /tmp/ccOWj8hl.s:104515  .debug_str:000000000004612d .LASF93
     /tmp/ccOWj8hl.s:104929  .debug_str:0000000000047d30 .LASF94
     /tmp/ccOWj8hl.s:93827  .debug_str:000000000001a5fc .LASF95
     /tmp/ccOWj8hl.s:95263  .debug_str:00000000000207cf .LASF96
     /tmp/ccOWj8hl.s:90603  .debug_str:000000000000daec .LASF97
     /tmp/ccOWj8hl.s:99265  .debug_str:0000000000030b80 .LASF98
     /tmp/ccOWj8hl.s:101201  .debug_str:000000000003849a .LASF99
     /tmp/ccOWj8hl.s:100627  .debug_str:00000000000362c3 .LASF100
     /tmp/ccOWj8hl.s:88053  .debug_str:0000000000003008 .LASF101
     /tmp/ccOWj8hl.s:97927  .debug_str:000000000002b201 .LASF102
     /tmp/ccOWj8hl.s:90271  .debug_str:000000000000c637 .LASF103
     /tmp/ccOWj8hl.s:97805  .debug_str:000000000002aab3 .LASF104
     /tmp/ccOWj8hl.s:95875  .debug_str:000000000002304c .LASF105
     /tmp/ccOWj8hl.s:97617  .debug_str:0000000000029ddf .LASF106
     /tmp/ccOWj8hl.s:88423  .debug_str:00000000000049b5 .LASF107
     /tmp/ccOWj8hl.s:100283  .debug_str:0000000000034f2e .LASF108
     /tmp/ccOWj8hl.s:98765  .debug_str:000000000002ea34 .LASF109
     /tmp/ccOWj8hl.s:101075  .debug_str:0000000000037c1b .LASF110
     /tmp/ccOWj8hl.s:90417  .debug_str:000000000000cfda .LASF111
     /tmp/ccOWj8hl.s:101027  .debug_str:0000000000037851 .LASF112
     /tmp/ccOWj8hl.s:87525  .debug_str:0000000000000af3 .LASF113
     /tmp/ccOWj8hl.s:102913  .debug_str:000000000003f85f .LASF114
     /tmp/ccOWj8hl.s:104293  .debug_str:00000000000451f3 .LASF115
     /tmp/ccOWj8hl.s:96217  .debug_str:0000000000024313 .LASF116
     /tmp/ccOWj8hl.s:91773  .debug_str:0000000000012197 .LASF117
     /tmp/ccOWj8hl.s:92317  .debug_str:00000000000143a8 .LASF118
     /tmp/ccOWj8hl.s:100277  .debug_str:0000000000034ee1 .LASF119
     /tmp/ccOWj8hl.s:98105  .debug_str:000000000002bd36 .LASF120
     /tmp/ccOWj8hl.s:91145  .debug_str:000000000000f93b .LASF121
     /tmp/ccOWj8hl.s:92547  .debug_str:0000000000015261 .LASF122
     /tmp/ccOWj8hl.s:91341  .debug_str:0000000000010478 .LASF123
     /tmp/ccOWj8hl.s:93425  .debug_str:0000000000018c3b .LASF124
     /tmp/ccOWj8hl.s:100771  .debug_str:0000000000036b26 .LASF125
     /tmp/ccOWj8hl.s:102289  .debug_str:000000000003cdfc .LASF126
     /tmp/ccOWj8hl.s:101943  .debug_str:000000000003b7d6 .LASF127
     /tmp/ccOWj8hl.s:101195  .debug_str:000000000003841b .LASF128
     /tmp/ccOWj8hl.s:97237  .debug_str:00000000000285c1 .LASF129
     /tmp/ccOWj8hl.s:101823  .debug_str:000000000003af1a .LASF130
     /tmp/ccOWj8hl.s:91515  .debug_str:0000000000011006 .LASF131
     /tmp/ccOWj8hl.s:95417  .debug_str:0000000000021094 .LASF132
     /tmp/ccOWj8hl.s:97307  .debug_str:0000000000028aaa .LASF133
     /tmp/ccOWj8hl.s:91869  .debug_str:0000000000012874 .LASF134
     /tmp/ccOWj8hl.s:104053  .debug_str:0000000000044207 .LASF135
     /tmp/ccOWj8hl.s:93163  .debug_str:0000000000017ac7 .LASF136
     /tmp/ccOWj8hl.s:102287  .debug_str:000000000003cddc .LASF137
     /tmp/ccOWj8hl.s:94389  .debug_str:000000000001c9f5 .LASF138
     /tmp/ccOWj8hl.s:100347  .debug_str:0000000000035341 .LASF139
     /tmp/ccOWj8hl.s:92451  .debug_str:0000000000014cab .LASF140
     /tmp/ccOWj8hl.s:105063  .debug_str:000000000004868a .LASF141
     /tmp/ccOWj8hl.s:97155  .debug_str:0000000000028038 .LASF142
     /tmp/ccOWj8hl.s:96139  .debug_str:0000000000023f9b .LASF143
     /tmp/ccOWj8hl.s:91571  .debug_str:00000000000113d1 .LASF144
     /tmp/ccOWj8hl.s:90195  .debug_str:000000000000c134 .LASF145
     /tmp/ccOWj8hl.s:91157  .debug_str:000000000000f9bd .LASF146
     /tmp/ccOWj8hl.s:91927  .debug_str:0000000000012bed .LASF147
     /tmp/ccOWj8hl.s:94793  .debug_str:000000000001e5ff .LASF148
     /tmp/ccOWj8hl.s:98811  .debug_str:000000000002ed59 .LASF149
     /tmp/ccOWj8hl.s:102337  .debug_str:000000000003d0f2 .LASF150
     /tmp/ccOWj8hl.s:93513  .debug_str:000000000001921d .LASF151
     /tmp/ccOWj8hl.s:96269  .debug_str:000000000002452b .LASF152
     /tmp/ccOWj8hl.s:89513  .debug_str:0000000000009299 .LASF153
     /tmp/ccOWj8hl.s:102745  .debug_str:000000000003ecc8 .LASF154
     /tmp/ccOWj8hl.s:91897  .debug_str:0000000000012a87 .LASF155
     /tmp/ccOWj8hl.s:104109  .debug_str:00000000000445bc .LASF156
     /tmp/ccOWj8hl.s:97941  .debug_str:000000000002b2ac .LASF157
     /tmp/ccOWj8hl.s:88597  .debug_str:000000000000559f .LASF158
     /tmp/ccOWj8hl.s:88845  .debug_str:00000000000065f7 .LASF159
     /tmp/ccOWj8hl.s:105335  .debug_str:000000000004990e .LASF160
     /tmp/ccOWj8hl.s:89301  .debug_str:00000000000083e1 .LASF161
     /tmp/ccOWj8hl.s:104859  .debug_str:0000000000047814 .LASF162
     /tmp/ccOWj8hl.s:91639  .debug_str:00000000000118fa .LASF163
     /tmp/ccOWj8hl.s:92459  .debug_str:0000000000014d2c .LASF164
     /tmp/ccOWj8hl.s:104611  .debug_str:0000000000046715 .LASF165
     /tmp/ccOWj8hl.s:99107  .debug_str:000000000002ff8c .LASF166
     /tmp/ccOWj8hl.s:91721  .debug_str:0000000000011e29 .LASF167
     /tmp/ccOWj8hl.s:87869  .debug_str:00000000000022b8 .LASF168
     /tmp/ccOWj8hl.s:98157  .debug_str:000000000002c069 .LASF169
     /tmp/ccOWj8hl.s:101283  .debug_str:00000000000389fa .LASF170
     /tmp/ccOWj8hl.s:99789  .debug_str:0000000000032e7f .LASF171
     /tmp/ccOWj8hl.s:98601  .debug_str:000000000002deea .LASF172
     /tmp/ccOWj8hl.s:89847  .debug_str:000000000000a8ac .LASF173
     /tmp/ccOWj8hl.s:101463  .debug_str:000000000003964a .LASF174
     /tmp/ccOWj8hl.s:99043  .debug_str:000000000002fb9a .LASF175
     /tmp/ccOWj8hl.s:91935  .debug_str:0000000000012c77 .LASF176
     /tmp/ccOWj8hl.s:91859  .debug_str:00000000000127f4 .LASF177
     /tmp/ccOWj8hl.s:100597  .debug_str:00000000000361dc .LASF178
     /tmp/ccOWj8hl.s:89813  .debug_str:000000000000a6a2 .LASF179
     /tmp/ccOWj8hl.s:99815  .debug_str:0000000000033069 .LASF180
     /tmp/ccOWj8hl.s:91971  .debug_str:0000000000012ea1 .LASF181
     /tmp/ccOWj8hl.s:104981  .debug_str:00000000000480d1 .LASF182
     /tmp/ccOWj8hl.s:89583  .debug_str:000000000000975a .LASF183
     /tmp/ccOWj8hl.s:104225  .debug_str:0000000000044d8e .LASF184
     /tmp/ccOWj8hl.s:95557  .debug_str:0000000000021a71 .LASF185
     /tmp/ccOWj8hl.s:92751  .debug_str:0000000000015fef .LASF186
     /tmp/ccOWj8hl.s:96411  .debug_str:0000000000024e42 .LASF187
     /tmp/ccOWj8hl.s:88473  .debug_str:0000000000004cfe .LASF188
     /tmp/ccOWj8hl.s:88353  .debug_str:000000000000443a .LASF189
     /tmp/ccOWj8hl.s:91839  .debug_str:000000000001268b .LASF190
     /tmp/ccOWj8hl.s:105563  .debug_str:000000000004aa89 .LASF191
     /tmp/ccOWj8hl.s:102027  .debug_str:000000000003bd38 .LASF192
     /tmp/ccOWj8hl.s:94697  .debug_str:000000000001df99 .LASF193
     /tmp/ccOWj8hl.s:88357  .debug_str:000000000000448a .LASF194
     /tmp/ccOWj8hl.s:102367  .debug_str:000000000003d29b .LASF195
     /tmp/ccOWj8hl.s:103793  .debug_str:0000000000043120 .LASF196
     /tmp/ccOWj8hl.s:95723  .debug_str:00000000000225b2 .LASF197
     /tmp/ccOWj8hl.s:87423  .debug_str:0000000000000408 .LASF198
     /tmp/ccOWj8hl.s:88077  .debug_str:000000000000319f .LASF199
     /tmp/ccOWj8hl.s:102933  .debug_str:000000000003f9a4 .LASF200
     /tmp/ccOWj8hl.s:98327  .debug_str:000000000002cc2e .LASF201
     /tmp/ccOWj8hl.s:104453  .debug_str:0000000000045cdb .LASF202
     /tmp/ccOWj8hl.s:100975  .debug_str:00000000000375a6 .LASF203
     /tmp/ccOWj8hl.s:88537  .debug_str:00000000000050dd .LASF204
     /tmp/ccOWj8hl.s:104421  .debug_str:0000000000045a8c .LASF205
     /tmp/ccOWj8hl.s:95863  .debug_str:0000000000022f94 .LASF206
     /tmp/ccOWj8hl.s:102917  .debug_str:000000000003f8bf .LASF207
     /tmp/ccOWj8hl.s:94497  .debug_str:000000000001d1e6 .LASF208
     /tmp/ccOWj8hl.s:97575  .debug_str:0000000000029b97 .LASF209
     /tmp/ccOWj8hl.s:92861  .debug_str:0000000000016790 .LASF210
     /tmp/ccOWj8hl.s:90527  .debug_str:000000000000d653 .LASF211
     /tmp/ccOWj8hl.s:105679  .debug_str:000000000004b243 .LASF212
     /tmp/ccOWj8hl.s:103033  .debug_str:000000000003ff8c .LASF213
     /tmp/ccOWj8hl.s:92929  .debug_str:0000000000016c4c .LASF214
     /tmp/ccOWj8hl.s:96131  .debug_str:0000000000023f06 .LASF215
     /tmp/ccOWj8hl.s:94483  .debug_str:000000000001d0a9 .LASF216
     /tmp/ccOWj8hl.s:92707  .debug_str:0000000000015cf2 .LASF217
     /tmp/ccOWj8hl.s:99691  .debug_str:0000000000032817 .LASF218
     /tmp/ccOWj8hl.s:90145  .debug_str:000000000000bd7b .LASF219
     /tmp/ccOWj8hl.s:95521  .debug_str:000000000002187e .LASF220
     /tmp/ccOWj8hl.s:105483  .debug_str:000000000004a531 .LASF221
     /tmp/ccOWj8hl.s:101977  .debug_str:000000000003ba15 .LASF222
     /tmp/ccOWj8hl.s:92111  .debug_str:0000000000013784 .LASF223
     /tmp/ccOWj8hl.s:103485  .debug_str:0000000000041e03 .LASF224
     /tmp/ccOWj8hl.s:105207  .debug_str:000000000004900d .LASF225
     /tmp/ccOWj8hl.s:93483  .debug_str:0000000000019037 .LASF226
     /tmp/ccOWj8hl.s:101903  .debug_str:000000000003b528 .LASF227
     /tmp/ccOWj8hl.s:96125  .debug_str:0000000000023ec7 .LASF228
     /tmp/ccOWj8hl.s:100625  .debug_str:00000000000362a8 .LASF229
     /tmp/ccOWj8hl.s:89573  .debug_str:00000000000096d7 .LASF230
     /tmp/ccOWj8hl.s:89853  .debug_str:000000000000a931 .LASF231
     /tmp/ccOWj8hl.s:93621  .debug_str:000000000001997b .LASF232
     /tmp/ccOWj8hl.s:91361  .debug_str:00000000000105cd .LASF233
     /tmp/ccOWj8hl.s:88607  .debug_str:0000000000005656 .LASF234
     /tmp/ccOWj8hl.s:101591  .debug_str:0000000000039f96 .LASF235
     /tmp/ccOWj8hl.s:98867  .debug_str:000000000002f0a2 .LASF236
     /tmp/ccOWj8hl.s:91053  .debug_str:000000000000f431 .LASF237
     /tmp/ccOWj8hl.s:90711  .debug_str:000000000000e105 .LASF238
     /tmp/ccOWj8hl.s:104881  .debug_str:000000000004798c .LASF239
     /tmp/ccOWj8hl.s:93031  .debug_str:0000000000017298 .LASF240
     /tmp/ccOWj8hl.s:94355  .debug_str:000000000001c7ce .LASF241
     /tmp/ccOWj8hl.s:88813  .debug_str:0000000000006380 .LASF242
     /tmp/ccOWj8hl.s:91921  .debug_str:0000000000012baa .LASF243
     /tmp/ccOWj8hl.s:103635  .debug_str:000000000004275f .LASF244
     /tmp/ccOWj8hl.s:99975  .debug_str:0000000000033b5b .LASF245
     /tmp/ccOWj8hl.s:93009  .debug_str:0000000000017126 .LASF246
     /tmp/ccOWj8hl.s:102699  .debug_str:000000000003e9d9 .LASF247
     /tmp/ccOWj8hl.s:95653  .debug_str:00000000000220f3 .LASF248
     /tmp/ccOWj8hl.s:99971  .debug_str:0000000000033b30 .LASF249
     /tmp/ccOWj8hl.s:94431  .debug_str:000000000001ccf7 .LASF250
     /tmp/ccOWj8hl.s:104505  .debug_str:00000000000460b8 .LASF251
     /tmp/ccOWj8hl.s:93823  .debug_str:000000000001a5b0 .LASF252
     /tmp/ccOWj8hl.s:100497  .debug_str:0000000000035c00 .LASF253
     /tmp/ccOWj8hl.s:88157  .debug_str:00000000000036a0 .LASF254
     /tmp/ccOWj8hl.s:101493  .debug_str:0000000000039897 .LASF255
     /tmp/ccOWj8hl.s:88883  .debug_str:00000000000068a1 .LASF256
     /tmp/ccOWj8hl.s:89157  .debug_str:0000000000007a0e .LASF257
     /tmp/ccOWj8hl.s:104803  .debug_str:00000000000473a6 .LASF258
     /tmp/ccOWj8hl.s:102779  .debug_str:000000000003ef09 .LASF259
     /tmp/ccOWj8hl.s:90913  .debug_str:000000000000eba2 .LASF260
     /tmp/ccOWj8hl.s:94529  .debug_str:000000000001d3ab .LASF261
     /tmp/ccOWj8hl.s:103887  .debug_str:00000000000436ba .LASF262
     /tmp/ccOWj8hl.s:101663  .debug_str:000000000003a44f .LASF263
     /tmp/ccOWj8hl.s:97753  .debug_str:000000000002a6c7 .LASF264
     /tmp/ccOWj8hl.s:90069  .debug_str:000000000000b8ea .LASF265
     /tmp/ccOWj8hl.s:95495  .debug_str:0000000000021656 .LASF266
     /tmp/ccOWj8hl.s:98221  .debug_str:000000000002c4e7 .LASF267
     /tmp/ccOWj8hl.s:94809  .debug_str:000000000001e6e7 .LASF268
     /tmp/ccOWj8hl.s:100553  .debug_str:0000000000035ed3 .LASF269
     /tmp/ccOWj8hl.s:99139  .debug_str:0000000000030205 .LASF270
     /tmp/ccOWj8hl.s:90889  .debug_str:000000000000e9f3 .LASF271
     /tmp/ccOWj8hl.s:104971  .debug_str:0000000000048045 .LASF272
     /tmp/ccOWj8hl.s:92027  .debug_str:000000000001323c .LASF273
     /tmp/ccOWj8hl.s:94447  .debug_str:000000000001ce22 .LASF274
     /tmp/ccOWj8hl.s:100999  .debug_str:0000000000037704 .LASF275
     /tmp/ccOWj8hl.s:96657  .debug_str:0000000000025f35 .LASF276
     /tmp/ccOWj8hl.s:87509  .debug_str:0000000000000a3d .LASF277
     /tmp/ccOWj8hl.s:100321  .debug_str:000000000003514a .LASF278
     /tmp/ccOWj8hl.s:99233  .debug_str:00000000000308ff .LASF279
     /tmp/ccOWj8hl.s:105093  .debug_str:0000000000048869 .LASF280
     /tmp/ccOWj8hl.s:97491  .debug_str:0000000000029586 .LASF281
     /tmp/ccOWj8hl.s:102487  .debug_str:000000000003d9f1 .LASF282
     /tmp/ccOWj8hl.s:87733  .debug_str:000000000000192a .LASF283
     /tmp/ccOWj8hl.s:105983  .debug_str:000000000004c6cc .LASF284
     /tmp/ccOWj8hl.s:99249  .debug_str:0000000000030a37 .LASF285
     /tmp/ccOWj8hl.s:99037  .debug_str:000000000002fb50 .LASF286
     /tmp/ccOWj8hl.s:92701  .debug_str:0000000000015c52 .LASF287
     /tmp/ccOWj8hl.s:105675  .debug_str:000000000004b215 .LASF288
     /tmp/ccOWj8hl.s:104419  .debug_str:0000000000045a75 .LASF289
     /tmp/ccOWj8hl.s:92947  .debug_str:0000000000016db7 .LASF290
     /tmp/ccOWj8hl.s:89515  .debug_str:00000000000092ad .LASF291
     /tmp/ccOWj8hl.s:101641  .debug_str:000000000003a297 .LASF292
     /tmp/ccOWj8hl.s:103359  .debug_str:00000000000415c7 .LASF293
     /tmp/ccOWj8hl.s:100409  .debug_str:0000000000035690 .LASF294
     /tmp/ccOWj8hl.s:89071  .debug_str:00000000000074f5 .LASF295
     /tmp/ccOWj8hl.s:97145  .debug_str:0000000000027f7c .LASF296
     /tmp/ccOWj8hl.s:89037  .debug_str:00000000000072fc .LASF297
     /tmp/ccOWj8hl.s:102409  .debug_str:000000000003d51f .LASF298
     /tmp/ccOWj8hl.s:89921  .debug_str:000000000000ae33 .LASF299
     /tmp/ccOWj8hl.s:102583  .debug_str:000000000003e121 .LASF300
     /tmp/ccOWj8hl.s:92427  .debug_str:0000000000014b22 .LASF301
     /tmp/ccOWj8hl.s:102523  .debug_str:000000000003dc89 .LASF302
     /tmp/ccOWj8hl.s:104143  .debug_str:000000000004486e .LASF303
     /tmp/ccOWj8hl.s:96495  .debug_str:00000000000254ab .LASF304
     /tmp/ccOWj8hl.s:101115  .debug_str:0000000000037e9b .LASF305
     /tmp/ccOWj8hl.s:99289  .debug_str:0000000000030cf6 .LASF306
     /tmp/ccOWj8hl.s:95681  .debug_str:0000000000022305 .LASF307
     /tmp/ccOWj8hl.s:104447  .debug_str:0000000000045c79 .LASF308
     /tmp/ccOWj8hl.s:104459  .debug_str:0000000000045d69 .LASF309
     /tmp/ccOWj8hl.s:98719  .debug_str:000000000002e6bc .LASF310
     /tmp/ccOWj8hl.s:89093  .debug_str:0000000000007672 .LASF311
     /tmp/ccOWj8hl.s:87517  .debug_str:0000000000000a8e .LASF312
     /tmp/ccOWj8hl.s:100993  .debug_str:00000000000376cb .LASF313
     /tmp/ccOWj8hl.s:99433  .debug_str:00000000000316c8 .LASF314
     /tmp/ccOWj8hl.s:100261  .debug_str:0000000000034dda .LASF315
     /tmp/ccOWj8hl.s:87585  .debug_str:0000000000000f0e .LASF316
     /tmp/ccOWj8hl.s:94371  .debug_str:000000000001c8ce .LASF317
     /tmp/ccOWj8hl.s:95527  .debug_str:00000000000218ca .LASF318
     /tmp/ccOWj8hl.s:94875  .debug_str:000000000001ec61 .LASF319
     /tmp/ccOWj8hl.s:104685  .debug_str:0000000000046bee .LASF320
     /tmp/ccOWj8hl.s:102251  .debug_str:000000000003cb44 .LASF321
     /tmp/ccOWj8hl.s:98875  .debug_str:000000000002f136 .LASF322
     /tmp/ccOWj8hl.s:92581  .debug_str:0000000000015488 .LASF323
     /tmp/ccOWj8hl.s:105945  .debug_str:000000000004c430 .LASF325
     /tmp/ccOWj8hl.s:93315  .debug_str:00000000000184ae .LASF326
     /tmp/ccOWj8hl.s:96457  .debug_str:00000000000251cb .LASF327
     /tmp/ccOWj8hl.s:101685  .debug_str:000000000003a5c3 .LASF328
     /tmp/ccOWj8hl.s:89355  .debug_str:00000000000087a3 .LASF329
     /tmp/ccOWj8hl.s:104601  .debug_str:00000000000466a4 .LASF330
     /tmp/ccOWj8hl.s:104075  .debug_str:000000000004435b .LASF331
     /tmp/ccOWj8hl.s:94747  .debug_str:000000000001e328 .LASF332
     /tmp/ccOWj8hl.s:93213  .debug_str:0000000000017d5d .LASF333
     /tmp/ccOWj8hl.s:92319  .debug_str:00000000000143bc .LASF334
     /tmp/ccOWj8hl.s:104041  .debug_str:0000000000044155 .LASF335
     /tmp/ccOWj8hl.s:97841  .debug_str:000000000002ac80 .LASF336
     /tmp/ccOWj8hl.s:103083  .debug_str:0000000000040319 .LASF337
     /tmp/ccOWj8hl.s:101759  .debug_str:000000000003aadc .LASF338
     /tmp/ccOWj8hl.s:102159  .debug_str:000000000003c576 .LASF339
     /tmp/ccOWj8hl.s:95757  .debug_str:00000000000227dc .LASF340
     /tmp/ccOWj8hl.s:104963  .debug_str:0000000000047fb4 .LASF341
     /tmp/ccOWj8hl.s:102509  .debug_str:000000000003db8b .LASF342
     /tmp/ccOWj8hl.s:98977  .debug_str:000000000002f7ac .LASF343
     /tmp/ccOWj8hl.s:101873  .debug_str:000000000003b287 .LASF344
     /tmp/ccOWj8hl.s:90341  .debug_str:000000000000cad9 .LASF345
     /tmp/ccOWj8hl.s:104501  .debug_str:0000000000046069 .LASF346
     /tmp/ccOWj8hl.s:102459  .debug_str:000000000003d81b .LASF347
     /tmp/ccOWj8hl.s:89023  .debug_str:000000000000721e .LASF348
     /tmp/ccOWj8hl.s:87945  .debug_str:000000000000281b .LASF349
     /tmp/ccOWj8hl.s:91831  .debug_str:00000000000125bf .LASF350
     /tmp/ccOWj8hl.s:94925  .debug_str:000000000001efa8 .LASF351
     /tmp/ccOWj8hl.s:98679  .debug_str:000000000002e419 .LASF352
     /tmp/ccOWj8hl.s:89283  .debug_str:00000000000082c4 .LASF353
     /tmp/ccOWj8hl.s:94217  .debug_str:000000000001be1b .LASF354
     /tmp/ccOWj8hl.s:89321  .debug_str:000000000000856a .LASF355
     /tmp/ccOWj8hl.s:99615  .debug_str:0000000000032290 .LASF356
     /tmp/ccOWj8hl.s:97607  .debug_str:0000000000029d9f .LASF357
     /tmp/ccOWj8hl.s:92959  .debug_str:0000000000016e99 .LASF358
     /tmp/ccOWj8hl.s:98561  .debug_str:000000000002dc00 .LASF359
     /tmp/ccOWj8hl.s:105957  .debug_str:000000000004c521 .LASF360
     /tmp/ccOWj8hl.s:104581  .debug_str:00000000000465a5 .LASF361
     /tmp/ccOWj8hl.s:100333  .debug_str:000000000003523f .LASF362
     /tmp/ccOWj8hl.s:95409  .debug_str:0000000000021030 .LASF363
     /tmp/ccOWj8hl.s:89141  .debug_str:0000000000007902 .LASF364
     /tmp/ccOWj8hl.s:104363  .debug_str:0000000000045657 .LASF365
     /tmp/ccOWj8hl.s:88453  .debug_str:0000000000004b8e .LASF366
     /tmp/ccOWj8hl.s:104979  .debug_str:00000000000480bf .LASF367
     /tmp/ccOWj8hl.s:96901  .debug_str:0000000000026fae .LASF368
     /tmp/ccOWj8hl.s:102943  .debug_str:000000000003fa3e .LASF369
     /tmp/ccOWj8hl.s:91293  .debug_str:00000000000101a0 .LASF370
     /tmp/ccOWj8hl.s:102353  .debug_str:000000000003d1df .LASF371
     /tmp/ccOWj8hl.s:101295  .debug_str:0000000000038aed .LASF372
     /tmp/ccOWj8hl.s:98053  .debug_str:000000000002b957 .LASF373
     /tmp/ccOWj8hl.s:96545  .debug_str:00000000000257ce .LASF374
     /tmp/ccOWj8hl.s:91049  .debug_str:000000000000f410 .LASF375
     /tmp/ccOWj8hl.s:93999  .debug_str:000000000001b082 .LASF376
     /tmp/ccOWj8hl.s:99977  .debug_str:0000000000033b99 .LASF377
     /tmp/ccOWj8hl.s:90563  .debug_str:000000000000d89c .LASF378
     /tmp/ccOWj8hl.s:93327  .debug_str:00000000000185a5 .LASF379
     /tmp/ccOWj8hl.s:97495  .debug_str:00000000000295ba .LASF380
     /tmp/ccOWj8hl.s:97137  .debug_str:0000000000027f0e .LASF381
     /tmp/ccOWj8hl.s:105667  .debug_str:000000000004b192 .LASF382
     /tmp/ccOWj8hl.s:93423  .debug_str:0000000000018c25 .LASF386
     /tmp/ccOWj8hl.s:100131  .debug_str:000000000003452c .LASF387
     /tmp/ccOWj8hl.s:97481  .debug_str:000000000002951e .LASF388
     /tmp/ccOWj8hl.s:92117  .debug_str:00000000000137c6 .LASF389
     /tmp/ccOWj8hl.s:100777  .debug_str:0000000000036b96 .LASF390
     /tmp/ccOWj8hl.s:98047  .debug_str:000000000002b8b7 .LASF391
     /tmp/ccOWj8hl.s:88737  .debug_str:0000000000005ea8 .LASF392
     /tmp/ccOWj8hl.s:102041  .debug_str:000000000003be49 .LASF393
     /tmp/ccOWj8hl.s:87475  .debug_str:00000000000007ca .LASF394
     /tmp/ccOWj8hl.s:92279  .debug_str:000000000001412d .LASF395
     /tmp/ccOWj8hl.s:94479  .debug_str:000000000001d060 .LASF396
     /tmp/ccOWj8hl.s:93903  .debug_str:000000000001aab0 .LASF397
     /tmp/ccOWj8hl.s:92355  .debug_str:000000000001462e .LASF398
     /tmp/ccOWj8hl.s:97391  .debug_str:0000000000028f73 .LASF399
     /tmp/ccOWj8hl.s:102231  .debug_str:000000000003c9f8 .LASF400
     /tmp/ccOWj8hl.s:102647  .debug_str:000000000003e5fa .LASF401
     /tmp/ccOWj8hl.s:100845  .debug_str:0000000000036ec9 .LASF402
     /tmp/ccOWj8hl.s:92461  .debug_str:0000000000014d40 .LASF403
     /tmp/ccOWj8hl.s:93355  .debug_str:0000000000018786 .LASF404
     /tmp/ccOWj8hl.s:96259  .debug_str:00000000000244c6 .LASF405
     /tmp/ccOWj8hl.s:98383  .debug_str:000000000002cffa .LASF406
     /tmp/ccOWj8hl.s:90493  .debug_str:000000000000d410 .LASF407
     /tmp/ccOWj8hl.s:93937  .debug_str:000000000001ac67 .LASF408
     /tmp/ccOWj8hl.s:93593  .debug_str:00000000000196e3 .LASF409
     /tmp/ccOWj8hl.s:90411  .debug_str:000000000000cf8e .LASF410
     /tmp/ccOWj8hl.s:93001  .debug_str:00000000000170ae .LASF411
     /tmp/ccOWj8hl.s:103401  .debug_str:00000000000418aa .LASF412
     /tmp/ccOWj8hl.s:91275  .debug_str:0000000000010027 .LASF413
     /tmp/ccOWj8hl.s:88207  .debug_str:0000000000003a42 .LASF414
     /tmp/ccOWj8hl.s:92079  .debug_str:0000000000013555 .LASF415
     /tmp/ccOWj8hl.s:103709  .debug_str:0000000000042bee .LASF416
     /tmp/ccOWj8hl.s:93185  .debug_str:0000000000017c2a .LASF417
     /tmp/ccOWj8hl.s:91075  .debug_str:000000000000f5a2 .LASF418
     /tmp/ccOWj8hl.s:98549  .debug_str:000000000002db6c .LASF419
     /tmp/ccOWj8hl.s:101735  .debug_str:000000000003a943 .LASF420
     /tmp/ccOWj8hl.s:99159  .debug_str:00000000000303ef .LASF421
     /tmp/ccOWj8hl.s:99041  .debug_str:000000000002fb94 .LASF422
     /tmp/ccOWj8hl.s:103497  .debug_str:0000000000041eca .LASF423
     /tmp/ccOWj8hl.s:87719  .debug_str:0000000000001847 .LASF424
     /tmp/ccOWj8hl.s:100177  .debug_str:000000000003484f .LASF425
     /tmp/ccOWj8hl.s:97819  .debug_str:000000000002ab63 .LASF426
     /tmp/ccOWj8hl.s:92201  .debug_str:0000000000013ccf .LASF427
     /tmp/ccOWj8hl.s:97101  .debug_str:0000000000027ca2 .LASF428
     /tmp/ccOWj8hl.s:105711  .debug_str:000000000004b49f .LASF429
     /tmp/ccOWj8hl.s:98763  .debug_str:000000000002ea2a .LASF430
     /tmp/ccOWj8hl.s:99507  .debug_str:0000000000031ba6 .LASF431
     /tmp/ccOWj8hl.s:87821  .debug_str:0000000000001f7a .LASF432
     /tmp/ccOWj8hl.s:90151  .debug_str:000000000000be27 .LASF433
     /tmp/ccOWj8hl.s:98631  .debug_str:000000000002e12c .LASF434
     /tmp/ccOWj8hl.s:96821  .debug_str:00000000000269bc .LASF435
     /tmp/ccOWj8hl.s:104531  .debug_str:0000000000046230 .LASF436
     /tmp/ccOWj8hl.s:100809  .debug_str:0000000000036c84 .LASF437
     /tmp/ccOWj8hl.s:99703  .debug_str:0000000000032910 .LASF438
     /tmp/ccOWj8hl.s:103745  .debug_str:0000000000042e3f .LASF439
     /tmp/ccOWj8hl.s:99997  .debug_str:0000000000033cd5 .LASF440
     /tmp/ccOWj8hl.s:94039  .debug_str:000000000001b2a8 .LASF441
     /tmp/ccOWj8hl.s:100049  .debug_str:000000000003403a .LASF442
     /tmp/ccOWj8hl.s:99271  .debug_str:0000000000030bde .LASF443
     /tmp/ccOWj8hl.s:93221  .debug_str:0000000000017e0d .LASF444
     /tmp/ccOWj8hl.s:104753  .debug_str:0000000000047098 .LASF445
     /tmp/ccOWj8hl.s:90587  .debug_str:000000000000d9f9 .LASF446
     /tmp/ccOWj8hl.s:100693  .debug_str:0000000000036730 .LASF447
     /tmp/ccOWj8hl.s:88833  .debug_str:0000000000006521 .LASF448
     /tmp/ccOWj8hl.s:91385  .debug_str:00000000000107b4 .LASF449
     /tmp/ccOWj8hl.s:94109  .debug_str:000000000001b783 .LASF450
     /tmp/ccOWj8hl.s:100933  .debug_str:00000000000373a7 .LASF451
     /tmp/ccOWj8hl.s:105899  .debug_str:000000000004c0fe .LASF452
     /tmp/ccOWj8hl.s:99677  .debug_str:00000000000326b5 .LASF453
     /tmp/ccOWj8hl.s:95143  .debug_str:000000000001fee5 .LASF454
     /tmp/ccOWj8hl.s:101223  .debug_str:0000000000038613 .LASF455
     /tmp/ccOWj8hl.s:92527  .debug_str:0000000000015197 .LASF456
     /tmp/ccOWj8hl.s:104247  .debug_str:0000000000044ef8 .LASF457
     /tmp/ccOWj8hl.s:94785  .debug_str:000000000001e560 .LASF458
     /tmp/ccOWj8hl.s:102003  .debug_str:000000000003bb94 .LASF459
     /tmp/ccOWj8hl.s:97297  .debug_str:0000000000028a2c .LASF460
     /tmp/ccOWj8hl.s:87629  .debug_str:0000000000001204 .LASF461
     /tmp/ccOWj8hl.s:96589  .debug_str:00000000000259e6 .LASF462
     /tmp/ccOWj8hl.s:103455  .debug_str:0000000000041c27 .LASF463
     /tmp/ccOWj8hl.s:95849  .debug_str:0000000000022eb2 .LASF464
     /tmp/ccOWj8hl.s:103123  .debug_str:0000000000040614 .LASF465
     /tmp/ccOWj8hl.s:104679  .debug_str:0000000000046ba0 .LASF466
     /tmp/ccOWj8hl.s:98689  .debug_str:000000000002e47d .LASF467
     /tmp/ccOWj8hl.s:87521  .debug_str:0000000000000abe .LASF468
     /tmp/ccOWj8hl.s:100101  .debug_str:000000000003434b .LASF469
     /tmp/ccOWj8hl.s:104133  .debug_str:0000000000044786 .LASF470
     /tmp/ccOWj8hl.s:98727  .debug_str:000000000002e745 .LASF471
     /tmp/ccOWj8hl.s:91559  .debug_str:000000000001130b .LASF472
     /tmp/ccOWj8hl.s:99813  .debug_str:000000000003304f .LASF473
     /tmp/ccOWj8hl.s:88697  .debug_str:0000000000005be6 .LASF474
     /tmp/ccOWj8hl.s:102323  .debug_str:000000000003d008 .LASF475
     /tmp/ccOWj8hl.s:95201  .debug_str:00000000000202fd .LASF476
     /tmp/ccOWj8hl.s:87387  .debug_str:00000000000001f4 .LASF477
     /tmp/ccOWj8hl.s:94759  .debug_str:000000000001e41b .LASF478
     /tmp/ccOWj8hl.s:95541  .debug_str:0000000000021998 .LASF479
     /tmp/ccOWj8hl.s:103251  .debug_str:0000000000040e87 .LASF480
     /tmp/ccOWj8hl.s:104561  .debug_str:0000000000046434 .LASF481
     /tmp/ccOWj8hl.s:96805  .debug_str:00000000000268a6 .LASF482
     /tmp/ccOWj8hl.s:94937  .debug_str:000000000001f0c3 .LASF483
     /tmp/ccOWj8hl.s:98815  .debug_str:000000000002ed7d .LASF484
     /tmp/ccOWj8hl.s:97851  .debug_str:000000000002ad28 .LASF485
     /tmp/ccOWj8hl.s:93991  .debug_str:000000000001afea .LASF486
     /tmp/ccOWj8hl.s:105455  .debug_str:000000000004a2e3 .LASF487
     /tmp/ccOWj8hl.s:90919  .debug_str:000000000000ec07 .LASF488
     /tmp/ccOWj8hl.s:103979  .debug_str:0000000000043d5a .LASF489
     /tmp/ccOWj8hl.s:97161  .debug_str:0000000000028092 .LASF490
     /tmp/ccOWj8hl.s:88761  .debug_str:0000000000006015 .LASF491
     /tmp/ccOWj8hl.s:103975  .debug_str:0000000000043d25 .LASF492
     /tmp/ccOWj8hl.s:91771  .debug_str:0000000000012178 .LASF493
     /tmp/ccOWj8hl.s:95529  .debug_str:00000000000218da .LASF494
     /tmp/ccOWj8hl.s:104175  .debug_str:0000000000044a92 .LASF495
     /tmp/ccOWj8hl.s:87909  .debug_str:0000000000002589 .LASF496
     /tmp/ccOWj8hl.s:98925  .debug_str:000000000002f410 .LASF497
     /tmp/ccOWj8hl.s:105885  .debug_str:000000000004c005 .LASF498
     /tmp/ccOWj8hl.s:102413  .debug_str:000000000003d56d .LASF499
     /tmp/ccOWj8hl.s:88455  .debug_str:0000000000004b9a .LASF500
     /tmp/ccOWj8hl.s:88995  .debug_str:000000000000700d .LASF501
     /tmp/ccOWj8hl.s:104379  .debug_str:0000000000045791 .LASF502
     /tmp/ccOWj8hl.s:100477  .debug_str:0000000000035a6f .LASF503
     /tmp/ccOWj8hl.s:103747  .debug_str:0000000000042e47 .LASF504
     /tmp/ccOWj8hl.s:90579  .debug_str:000000000000d999 .LASF505
     /tmp/ccOWj8hl.s:91621  .debug_str:0000000000011794 .LASF506
     /tmp/ccOWj8hl.s:104537  .debug_str:0000000000046275 .LASF507
     /tmp/ccOWj8hl.s:87685  .debug_str:0000000000001579 .LASF508
     /tmp/ccOWj8hl.s:95619  .debug_str:0000000000021e84 .LASF509
     /tmp/ccOWj8hl.s:87765  .debug_str:0000000000001b90 .LASF510
     /tmp/ccOWj8hl.s:88931  .debug_str:0000000000006bfe .LASF511
     /tmp/ccOWj8hl.s:98195  .debug_str:000000000002c319 .LASF512
     /tmp/ccOWj8hl.s:97975  .debug_str:000000000002b4be .LASF513
     /tmp/ccOWj8hl.s:99281  .debug_str:0000000000030c56 .LASF514
     /tmp/ccOWj8hl.s:104943  .debug_str:0000000000047e3d .LASF515
     /tmp/ccOWj8hl.s:99489  .debug_str:0000000000031a83 .LASF516
     /tmp/ccOWj8hl.s:101583  .debug_str:0000000000039f1a .LASF517
     /tmp/ccOWj8hl.s:103883  .debug_str:0000000000043695 .LASF518
     /tmp/ccOWj8hl.s:92115  .debug_str:00000000000137a8 .LASF519
     /tmp/ccOWj8hl.s:93805  .debug_str:000000000001a4ca .LASF520
     /tmp/ccOWj8hl.s:98343  .debug_str:000000000002cd65 .LASF521
     /tmp/ccOWj8hl.s:103493  .debug_str:0000000000041e7c .LASF522
     /tmp/ccOWj8hl.s:99955  .debug_str:0000000000033a4b .LASF523
     /tmp/ccOWj8hl.s:104019  .debug_str:0000000000043fba .LASF524
     /tmp/ccOWj8hl.s:98025  .debug_str:000000000002b794 .LASF525
     /tmp/ccOWj8hl.s:96833  .debug_str:0000000000026a80 .LASF526
     /tmp/ccOWj8hl.s:95261  .debug_str:00000000000207b7 .LASF527
     /tmp/ccOWj8hl.s:99981  .debug_str:0000000000033bd5 .LASF528
     /tmp/ccOWj8hl.s:105519  .debug_str:000000000004a797 .LASF529
     /tmp/ccOWj8hl.s:105357  .debug_str:0000000000049a50 .LASF530
     /tmp/ccOWj8hl.s:102373  .debug_str:000000000003d2f0 .LASF531
     /tmp/ccOWj8hl.s:100257  .debug_str:0000000000034da7 .LASF532
     /tmp/ccOWj8hl.s:92573  .debug_str:0000000000015446 .LASF533
     /tmp/ccOWj8hl.s:100151  .debug_str:00000000000346af .LASF534
     /tmp/ccOWj8hl.s:104651  .debug_str:0000000000046a11 .LASF535
     /tmp/ccOWj8hl.s:103921  .debug_str:00000000000439ac .LASF536
     /tmp/ccOWj8hl.s:95621  .debug_str:0000000000021ea8 .LASF537
     /tmp/ccOWj8hl.s:92033  .debug_str:0000000000013276 .LASF538
     /tmp/ccOWj8hl.s:88907  .debug_str:0000000000006a9d .LASF540
     /tmp/ccOWj8hl.s:104969  .debug_str:0000000000047ff9 .LASF541
     /tmp/ccOWj8hl.s:94223  .debug_str:000000000001be92 .LASF542
     /tmp/ccOWj8hl.s:94619  .debug_str:000000000001d94e .LASF543
     /tmp/ccOWj8hl.s:101013  .debug_str:0000000000037798 .LASF544
     /tmp/ccOWj8hl.s:95825  .debug_str:0000000000022cb4 .LASF545
     /tmp/ccOWj8hl.s:100045  .debug_str:0000000000033fb8 .LASF546
     /tmp/ccOWj8hl.s:104743  .debug_str:0000000000046fab .LASF547
     /tmp/ccOWj8hl.s:91073  .debug_str:000000000000f560 .LASF548
     /tmp/ccOWj8hl.s:95845  .debug_str:0000000000022e5f .LASF549
     /tmp/ccOWj8hl.s:100393  .debug_str:0000000000035551 .LASF550
     /tmp/ccOWj8hl.s:104973  .debug_str:000000000004805e .LASF551
     /tmp/ccOWj8hl.s:90975  .debug_str:000000000000ef60 .LASF552
     /tmp/ccOWj8hl.s:94069  .debug_str:000000000001b46e .LASF553
     /tmp/ccOWj8hl.s:91255  .debug_str:000000000000fed1 .LASF554
     /tmp/ccOWj8hl.s:103563  .debug_str:00000000000422cf .LASF555
     /tmp/ccOWj8hl.s:94837  .debug_str:000000000001e904 .LASF556
     /tmp/ccOWj8hl.s:100887  .debug_str:0000000000037050 .LASF557
     /tmp/ccOWj8hl.s:88367  .debug_str:0000000000004533 .LASF558
     /tmp/ccOWj8hl.s:90003  .debug_str:000000000000b4ac .LASF559
     /tmp/ccOWj8hl.s:99327  .debug_str:0000000000030f51 .LASF560
     /tmp/ccOWj8hl.s:89633  .debug_str:0000000000009a5f .LASF561
     /tmp/ccOWj8hl.s:99121  .debug_str:000000000003006f .LASF562
     /tmp/ccOWj8hl.s:104851  .debug_str:000000000004774a .LASF563
     /tmp/ccOWj8hl.s:95471  .debug_str:000000000002149e .LASF564
     /tmp/ccOWj8hl.s:94241  .debug_str:000000000001bf96 .LASF565
     /tmp/ccOWj8hl.s:95277  .debug_str:000000000002085c .LASF566
     /tmp/ccOWj8hl.s:99157  .debug_str:00000000000303ad .LASF567
     /tmp/ccOWj8hl.s:90121  .debug_str:000000000000bbf6 .LASF568
     /tmp/ccOWj8hl.s:89895  .debug_str:000000000000ac63 .LASF569
     /tmp/ccOWj8hl.s:99209  .debug_str:0000000000030735 .LASF570
     /tmp/ccOWj8hl.s:87403  .debug_str:00000000000002d4 .LASF571
     /tmp/ccOWj8hl.s:98993  .debug_str:000000000002f89e .LASF572
     /tmp/ccOWj8hl.s:104731  .debug_str:0000000000046ed3 .LASF573
     /tmp/ccOWj8hl.s:95353  .debug_str:0000000000020cc7 .LASF574
     /tmp/ccOWj8hl.s:104543  .debug_str:00000000000462db .LASF575
     /tmp/ccOWj8hl.s:95163  .debug_str:0000000000020060 .LASF576
     /tmp/ccOWj8hl.s:89963  .debug_str:000000000000b132 .LASF577
     /tmp/ccOWj8hl.s:99293  .debug_str:0000000000030d53 .LASF578
     /tmp/ccOWj8hl.s:89771  .debug_str:000000000000a394 .LASF579
     /tmp/ccOWj8hl.s:99083  .debug_str:000000000002fdf4 .LASF580
     /tmp/ccOWj8hl.s:89387  .debug_str:00000000000089d8 .LASF581
     /tmp/ccOWj8hl.s:96925  .debug_str:00000000000270f1 .LASF582
     /tmp/ccOWj8hl.s:104631  .debug_str:0000000000046849 .LASF583
     /tmp/ccOWj8hl.s:95241  .debug_str:00000000000205c5 .LASF584
     /tmp/ccOWj8hl.s:104443  .debug_str:0000000000045c01 .LASF585
     /tmp/ccOWj8hl.s:95043  .debug_str:000000000001f825 .LASF586
     /tmp/ccOWj8hl.s:89865  .debug_str:000000000000aa3e .LASF587
     /tmp/ccOWj8hl.s:99177  .debug_str:000000000003052f .LASF588
     /tmp/ccOWj8hl.s:89649  .debug_str:0000000000009b8d .LASF589
     /tmp/ccOWj8hl.s:98961  .debug_str:000000000002f637 .LASF590
     /tmp/ccOWj8hl.s:96005  .debug_str:0000000000023818 .LASF591
     /tmp/ccOWj8hl.s:90203  .debug_str:000000000000c1be .LASF592
     /tmp/ccOWj8hl.s:103275  .debug_str:000000000004101d .LASF593
     /tmp/ccOWj8hl.s:103133  .debug_str:00000000000406da .LASF594
     /tmp/ccOWj8hl.s:96903  .debug_str:0000000000026fbf .LASF595
     /tmp/ccOWj8hl.s:99653  .debug_str:00000000000324e9 .LASF596
     /tmp/ccOWj8hl.s:90673  .debug_str:000000000000dee3 .LASF597
     /tmp/ccOWj8hl.s:105185  .debug_str:0000000000048e90 .LASF598
     /tmp/ccOWj8hl.s:92473  .debug_str:0000000000014e34 .LASF599
     /tmp/ccOWj8hl.s:105909  .debug_str:000000000004c1a5 .LASF600
     /tmp/ccOWj8hl.s:94755  .debug_str:000000000001e3a0 .LASF601
     /tmp/ccOWj8hl.s:103689  .debug_str:0000000000042a62 .LASF602
     /tmp/ccOWj8hl.s:103385  .debug_str:000000000004175b .LASF603
     /tmp/ccOWj8hl.s:103127  .debug_str:000000000004065e .LASF604
     /tmp/ccOWj8hl.s:87735  .debug_str:0000000000001942 .LASF605
     /tmp/ccOWj8hl.s:102597  .debug_str:000000000003e215 .LASF606
     /tmp/ccOWj8hl.s:96533  .debug_str:0000000000025710 .LASF607
     /tmp/ccOWj8hl.s:100239  .debug_str:0000000000034c16 .LASF608
     /tmp/ccOWj8hl.s:94745  .debug_str:000000000001e2e1 .LASF609
     /tmp/ccOWj8hl.s:94453  .debug_str:000000000001ce79 .LASF610
     /tmp/ccOWj8hl.s:92591  .debug_str:0000000000015519 .LASF611
     /tmp/ccOWj8hl.s:105391  .debug_str:0000000000049d1e .LASF612
     /tmp/ccOWj8hl.s:99361  .debug_str:00000000000311b3 .LASF613
     /tmp/ccOWj8hl.s:94931  .debug_str:000000000001f038 .LASF614
     /tmp/ccOWj8hl.s:98697  .debug_str:000000000002e501 .LASF615
     /tmp/ccOWj8hl.s:98441  .debug_str:000000000002d3a2 .LASF616
     /tmp/ccOWj8hl.s:87867  .debug_str:0000000000002277 .LASF617
     /tmp/ccOWj8hl.s:98669  .debug_str:000000000002e33d .LASF618
     /tmp/ccOWj8hl.s:101291  .debug_str:0000000000038a8c .LASF619
     /tmp/ccOWj8hl.s:89507  .debug_str:0000000000009209 .LASF620
     /tmp/ccOWj8hl.s:91473  .debug_str:0000000000010ccd .LASF621
     /tmp/ccOWj8hl.s:105373  .debug_str:0000000000049b65 .LASF622
     /tmp/ccOWj8hl.s:100345  .debug_str:0000000000035300 .LASF623
     /tmp/ccOWj8hl.s:88289  .debug_str:0000000000004027 .LASF624
     /tmp/ccOWj8hl.s:87591  .debug_str:0000000000000f81 .LASF625
     /tmp/ccOWj8hl.s:98235  .debug_str:000000000002c590 .LASF626
     /tmp/ccOWj8hl.s:96313  .debug_str:0000000000024860 .LASF627
     /tmp/ccOWj8hl.s:105395  .debug_str:0000000000049d91 .LASF628
     /tmp/ccOWj8hl.s:105179  .debug_str:0000000000048e11 .LASF629
     /tmp/ccOWj8hl.s:105915  .debug_str:000000000004c21a .LASF630
     /tmp/ccOWj8hl.s:92481  .debug_str:0000000000014ef0 .LASF631
     /tmp/ccOWj8hl.s:97803  .debug_str:000000000002aa73 .LASF632
     /tmp/ccOWj8hl.s:102857  .debug_str:000000000003f45d .LASF633
     /tmp/ccOWj8hl.s:101781  .debug_str:000000000003ac18 .LASF634
     /tmp/ccOWj8hl.s:88233  .debug_str:0000000000003be5 .LASF635
     /tmp/ccOWj8hl.s:91279  .debug_str:0000000000010044 .LASF636
     /tmp/ccOWj8hl.s:98775  .debug_str:000000000002ead4 .LASF637
     /tmp/ccOWj8hl.s:103895  .debug_str:000000000004376d .LASF638
     /tmp/ccOWj8hl.s:98743  .debug_str:000000000002e882 .LASF639
     /tmp/ccOWj8hl.s:104113  .debug_str:000000000004462a .LASF640
     /tmp/ccOWj8hl.s:94681  .debug_str:000000000001de54 .LASF641
     /tmp/ccOWj8hl.s:103785  .debug_str:00000000000430ae .LASF642
     /tmp/ccOWj8hl.s:94461  .debug_str:000000000001cf0c .LASF643
     /tmp/ccOWj8hl.s:100331  .debug_str:00000000000351fd .LASF644
     /tmp/ccOWj8hl.s:90681  .debug_str:000000000000df55 .LASF645
     /tmp/ccOWj8hl.s:100117  .debug_str:000000000003444e .LASF646
     /tmp/ccOWj8hl.s:90449  .debug_str:000000000000d1ce .LASF647
     /tmp/ccOWj8hl.s:99777  .debug_str:0000000000032d78 .LASF648
     /tmp/ccOWj8hl.s:102537  .debug_str:000000000003dd99 .LASF649
     /tmp/ccOWj8hl.s:104001  .debug_str:0000000000043e79 .LASF650
     /tmp/ccOWj8hl.s:94173  .debug_str:000000000001bb6f .LASF651
     /tmp/ccOWj8hl.s:103669  .debug_str:00000000000428fb .LASF652
     /tmp/ccOWj8hl.s:94351  .debug_str:000000000001c74b .LASF653
     /tmp/ccOWj8hl.s:100205  .debug_str:000000000003499f .LASF654
     /tmp/ccOWj8hl.s:90539  .debug_str:000000000000d717 .LASF655
     /tmp/ccOWj8hl.s:100001  .debug_str:0000000000033cf7 .LASF656
     /tmp/ccOWj8hl.s:87989  .debug_str:0000000000002b25 .LASF657
     /tmp/ccOWj8hl.s:99657  .debug_str:000000000003254a .LASF658
     /tmp/ccOWj8hl.s:89967  .debug_str:000000000000b1a1 .LASF659
     /tmp/ccOWj8hl.s:103893  .debug_str:000000000004372b .LASF660
     /tmp/ccOWj8hl.s:94425  .debug_str:000000000001cc85 .LASF661
     /tmp/ccOWj8hl.s:97299  .debug_str:0000000000028a3f .LASF662
     /tmp/ccOWj8hl.s:88987  .debug_str:0000000000006f87 .LASF663
     /tmp/ccOWj8hl.s:98821  .debug_str:000000000002edec .LASF664
     /tmp/ccOWj8hl.s:94169  .debug_str:000000000001bb4e .LASF665
     /tmp/ccOWj8hl.s:95205  .debug_str:0000000000020323 .LASF666
     /tmp/ccOWj8hl.s:100011  .debug_str:0000000000033d95 .LASF667
     /tmp/ccOWj8hl.s:89427  .debug_str:0000000000008cc4 .LASF668
     /tmp/ccOWj8hl.s:92655  .debug_str:0000000000015935 .LASF669
     /tmp/ccOWj8hl.s:105789  .debug_str:000000000004b906 .LASF670
     /tmp/ccOWj8hl.s:95297  .debug_str:0000000000020976 .LASF671
     /tmp/ccOWj8hl.s:93431  .debug_str:0000000000018caa .LASF672
     /tmp/ccOWj8hl.s:105195  .debug_str:0000000000048f61 .LASF673
     /tmp/ccOWj8hl.s:98491  .debug_str:000000000002d7f7 .LASF674
     /tmp/ccOWj8hl.s:98567  .debug_str:000000000002dc77 .LASF675
     /tmp/ccOWj8hl.s:95869  .debug_str:0000000000022ffb .LASF676
     /tmp/ccOWj8hl.s:88349  .debug_str:0000000000004410 .LASF677
     /tmp/ccOWj8hl.s:98341  .debug_str:000000000002cd4c .LASF678
     /tmp/ccOWj8hl.s:100181  .debug_str:000000000003486a .LASF679
     /tmp/ccOWj8hl.s:100005  .debug_str:0000000000033d41 .LASF680
     /tmp/ccOWj8hl.s:91491  .debug_str:0000000000010e48 .LASF681
     /tmp/ccOWj8hl.s:101949  .debug_str:000000000003b835 .LASF682
     /tmp/ccOWj8hl.s:93489  .debug_str:00000000000190a7 .LASF683
     /tmp/ccOWj8hl.s:103713  .debug_str:0000000000042c0c .LASF684
     /tmp/ccOWj8hl.s:95313  .debug_str:0000000000020a22 .LASF685
     /tmp/ccOWj8hl.s:91791  .debug_str:00000000000122d8 .LASF686
     /tmp/ccOWj8hl.s:105521  .debug_str:000000000004a7ad .LASF687
     /tmp/ccOWj8hl.s:93731  .debug_str:000000000001a090 .LASF688
     /tmp/ccOWj8hl.s:103909  .debug_str:00000000000438bd .LASF689
     /tmp/ccOWj8hl.s:95523  .debug_str:0000000000021895 .LASF690
     /tmp/ccOWj8hl.s:105631  .debug_str:000000000004af60 .LASF691
     /tmp/ccOWj8hl.s:97393  .debug_str:0000000000028f82 .LASF692
     /tmp/ccOWj8hl.s:88919  .debug_str:0000000000006b6a .LASF693
     /tmp/ccOWj8hl.s:99259  .debug_str:0000000000030b16 .LASF694
     /tmp/ccOWj8hl.s:90631  .debug_str:000000000000dd0f .LASF695
     /tmp/ccOWj8hl.s:105917  .debug_str:000000000004c25a .LASF696
     /tmp/ccOWj8hl.s:103469  .debug_str:0000000000041d08 .LASF697
     /tmp/ccOWj8hl.s:88967  .debug_str:0000000000006e87 .LASF698
     /tmp/ccOWj8hl.s:99319  .debug_str:0000000000030ed5 .LASF699
     /tmp/ccOWj8hl.s:90875  .debug_str:000000000000e919 .LASF700
     /tmp/ccOWj8hl.s:101257  .debug_str:0000000000038830 .LASF701
     /tmp/ccOWj8hl.s:101779  .debug_str:000000000003abff .LASF702
     /tmp/ccOWj8hl.s:102927  .debug_str:000000000003f95a .LASF703
     /tmp/ccOWj8hl.s:94545  .debug_str:000000000001d521 .LASF704
     /tmp/ccOWj8hl.s:104807  .debug_str:00000000000473d2 .LASF705
     /tmp/ccOWj8hl.s:89945  .debug_str:000000000000b00e .LASF706
     /tmp/ccOWj8hl.s:92965  .debug_str:0000000000016ef4 .LASF707
     /tmp/ccOWj8hl.s:103185  .debug_str:0000000000040aa0 .LASF708
     /tmp/ccOWj8hl.s:104091  .debug_str:0000000000044470 .LASF709
     /tmp/ccOWj8hl.s:90995  .debug_str:000000000000f107 .LASF710
     /tmp/ccOWj8hl.s:102659  .debug_str:000000000003e6ed .LASF711
     /tmp/ccOWj8hl.s:95693  .debug_str:00000000000223db .LASF712
     /tmp/ccOWj8hl.s:88539  .debug_str:000000000000511f .LASF713
     /tmp/ccOWj8hl.s:100289  .debug_str:0000000000034f78 .LASF714
     /tmp/ccOWj8hl.s:99443  .debug_str:000000000003175b .LASF715
     /tmp/ccOWj8hl.s:92887  .debug_str:0000000000016983 .LASF716
     /tmp/ccOWj8hl.s:92085  .debug_str:00000000000135aa .LASF717
     /tmp/ccOWj8hl.s:103737  .debug_str:0000000000042dd9 .LASF718
     /tmp/ccOWj8hl.s:96587  .debug_str:00000000000259d0 .LASF719
     /tmp/ccOWj8hl.s:92161  .debug_str:0000000000013a7a .LASF720
     /tmp/ccOWj8hl.s:91077  .debug_str:000000000000f5bc .LASF721
     /tmp/ccOWj8hl.s:99803  .debug_str:0000000000032f9b .LASF722
     /tmp/ccOWj8hl.s:104957  .debug_str:0000000000047f10 .LASF723
     /tmp/ccOWj8hl.s:92897  .debug_str:0000000000016a23 .LASF724
     /tmp/ccOWj8hl.s:93179  .debug_str:0000000000017bfa .LASF725
     /tmp/ccOWj8hl.s:105543  .debug_str:000000000004a91c .LASF726
     /tmp/ccOWj8hl.s:97223  .debug_str:00000000000284f9 .LASF727
     /tmp/ccOWj8hl.s:88605  .debug_str:000000000000563b .LASF728
     /tmp/ccOWj8hl.s:99011  .debug_str:000000000002f9b1 .LASF729
     /tmp/ccOWj8hl.s:90531  .debug_str:000000000000d68a .LASF730
     /tmp/ccOWj8hl.s:100935  .debug_str:00000000000373b2 .LASF731
     /tmp/ccOWj8hl.s:94907  .debug_str:000000000001ee84 .LASF732
     /tmp/ccOWj8hl.s:102577  .debug_str:000000000003e0a3 .LASF733
     /tmp/ccOWj8hl.s:94207  .debug_str:000000000001bd3c .LASF734
     /tmp/ccOWj8hl.s:96851  .debug_str:0000000000026ba6 .LASF735
     /tmp/ccOWj8hl.s:88257  .debug_str:0000000000003dc0 .LASF736
     /tmp/ccOWj8hl.s:98617  .debug_str:000000000002e03e .LASF737
     /tmp/ccOWj8hl.s:89955  .debug_str:000000000000b0d1 .LASF738
     /tmp/ccOWj8hl.s:102757  .debug_str:000000000003ed6e .LASF739
     /tmp/ccOWj8hl.s:92017  .debug_str:0000000000013183 .LASF740
     /tmp/ccOWj8hl.s:102217  .debug_str:000000000003c922 .LASF741
     /tmp/ccOWj8hl.s:93813  .debug_str:000000000001a501 .LASF742
     /tmp/ccOWj8hl.s:103963  .debug_str:0000000000043c6a .LASF743
     /tmp/ccOWj8hl.s:95581  .debug_str:0000000000021c3c .LASF744
     /tmp/ccOWj8hl.s:92075  .debug_str:0000000000013531 .LASF745
     /tmp/ccOWj8hl.s:102271  .debug_str:000000000003cccf .LASF746
     /tmp/ccOWj8hl.s:94055  .debug_str:000000000001b38d .LASF747
     /tmp/ccOWj8hl.s:104185  .debug_str:0000000000044b19 .LASF748
     /tmp/ccOWj8hl.s:95835  .debug_str:0000000000022daa .LASF749
     /tmp/ccOWj8hl.s:92711  .debug_str:0000000000015d60 .LASF750
     /tmp/ccOWj8hl.s:97681  .debug_str:000000000002a214 .LASF751
     /tmp/ccOWj8hl.s:89179  .debug_str:0000000000007b75 .LASF752
     /tmp/ccOWj8hl.s:88101  .debug_str:00000000000032db .LASF753
     /tmp/ccOWj8hl.s:90943  .debug_str:000000000000ecaa .LASF754
     /tmp/ccOWj8hl.s:87549  .debug_str:0000000000000c80 .LASF755
     /tmp/ccOWj8hl.s:97889  .debug_str:000000000002aff4 .LASF756
     /tmp/ccOWj8hl.s:92083  .debug_str:000000000001357f .LASF757
     /tmp/ccOWj8hl.s:88071  .debug_str:0000000000003121 .LASF758
     /tmp/ccOWj8hl.s:99597  .debug_str:00000000000321b2 .LASF759
     /tmp/ccOWj8hl.s:93481  .debug_str:0000000000019002 .LASF760
     /tmp/ccOWj8hl.s:99495  .debug_str:0000000000031b08 .LASF761
     /tmp/ccOWj8hl.s:96037  .debug_str:0000000000023a24 .LASF762
     /tmp/ccOWj8hl.s:101089  .debug_str:0000000000037d0f .LASF763
     /tmp/ccOWj8hl.s:95517  .debug_str:0000000000021817 .LASF764
     /tmp/ccOWj8hl.s:102075  .debug_str:000000000003c0c0 .LASF765
     /tmp/ccOWj8hl.s:94999  .debug_str:000000000001f5b7 .LASF766
     /tmp/ccOWj8hl.s:101757  .debug_str:000000000003aaa9 .LASF767
     /tmp/ccOWj8hl.s:91441  .debug_str:0000000000010a82 .LASF768
     /tmp/ccOWj8hl.s:104579  .debug_str:0000000000046572 .LASF769
     /tmp/ccOWj8hl.s:103373  .debug_str:0000000000041673 .LASF770
     /tmp/ccOWj8hl.s:93567  .debug_str:00000000000195c0 .LASF771
     /tmp/ccOWj8hl.s:93333  .debug_str:00000000000185f5 .LASF772
     /tmp/ccOWj8hl.s:92939  .debug_str:0000000000016ce4 .LASF773
     /tmp/ccOWj8hl.s:92715  .debug_str:0000000000015d86 .LASF774
     /tmp/ccOWj8hl.s:92323  .debug_str:00000000000143e8 .LASF775
     /tmp/ccOWj8hl.s:92093  .debug_str:0000000000013608 .LASF776
     /tmp/ccOWj8hl.s:91709  .debug_str:0000000000011d3a .LASF777
     /tmp/ccOWj8hl.s:91465  .debug_str:0000000000010bd7 .LASF778
     /tmp/ccOWj8hl.s:91035  .debug_str:000000000000f310 .LASF779
     /tmp/ccOWj8hl.s:91285  .debug_str:00000000000100c5 .LASF780
     /tmp/ccOWj8hl.s:89529  .debug_str:00000000000093a0 .LASF781
     /tmp/ccOWj8hl.s:87905  .debug_str:0000000000002518 .LASF782
     /tmp/ccOWj8hl.s:104845  .debug_str:0000000000047689 .LASF783
     /tmp/ccOWj8hl.s:89931  .debug_str:000000000000aeba .LASF784
     /tmp/ccOWj8hl.s:94689  .debug_str:000000000001ded0 .LASF785
     /tmp/ccOWj8hl.s:99473  .debug_str:000000000003197e .LASF786
     /tmp/ccOWj8hl.s:104137  .debug_str:00000000000447b9 .LASF787
     /tmp/ccOWj8hl.s:89991  .debug_str:000000000000b384 .LASF788
     /tmp/ccOWj8hl.s:94939  .debug_str:000000000001f0dd .LASF789
     /tmp/ccOWj8hl.s:89971  .debug_str:000000000000b20a .LASF790
     /tmp/ccOWj8hl.s:100479  .debug_str:0000000000035a95 .LASF791
     /tmp/ccOWj8hl.s:104961  .debug_str:0000000000047f5d .LASF792
     /tmp/ccOWj8hl.s:101699  .debug_str:000000000003a6d9 .LASF793
     /tmp/ccOWj8hl.s:94959  .debug_str:000000000001f307 .LASF794
     /tmp/ccOWj8hl.s:105241  .debug_str:00000000000492ac .LASF795
     /tmp/ccOWj8hl.s:96953  .debug_str:00000000000272ab .LASF796
     /tmp/ccOWj8hl.s:88569  .debug_str:0000000000005332 .LASF797
     /tmp/ccOWj8hl.s:98945  .debug_str:000000000002f50b .LASF798
     /tmp/ccOWj8hl.s:90513  .debug_str:000000000000d531 .LASF799
     /tmp/ccOWj8hl.s:94733  .debug_str:000000000001e219 .LASF800
     /tmp/ccOWj8hl.s:105035  .debug_str:000000000004843f .LASF801
     /tmp/ccOWj8hl.s:98285  .debug_str:000000000002c946 .LASF802
     /tmp/ccOWj8hl.s:96021  .debug_str:0000000000023925 .LASF803
     /tmp/ccOWj8hl.s:101517  .debug_str:0000000000039a6d .LASF804
     /tmp/ccOWj8hl.s:99347  .debug_str:00000000000310b9 .LASF805
     /tmp/ccOWj8hl.s:97409  .debug_str:0000000000029051 .LASF806
     /tmp/ccOWj8hl.s:95219  .debug_str:0000000000020442 .LASF807
     /tmp/ccOWj8hl.s:98897  .debug_str:000000000002f254 .LASF808
     /tmp/ccOWj8hl.s:97423  .debug_str:000000000002910c .LASF809
     /tmp/ccOWj8hl.s:91031  .debug_str:000000000000f2a3 .LASF810
     /tmp/ccOWj8hl.s:90779  .debug_str:000000000000e385 .LASF811
     /tmp/ccOWj8hl.s:92443  .debug_str:0000000000014c23 .LASF812
     /tmp/ccOWj8hl.s:92699  .debug_str:0000000000015c16 .LASF813
     /tmp/ccOWj8hl.s:89311  .debug_str:00000000000084c0 .LASF814
     /tmp/ccOWj8hl.s:97697  .debug_str:000000000002a314 .LASF815
     /tmp/ccOWj8hl.s:94805  .debug_str:000000000001e696 .LASF816
     /tmp/ccOWj8hl.s:94311  .debug_str:000000000001c45b .LASF817
     /tmp/ccOWj8hl.s:102591  .debug_str:000000000003e18e .LASF818
     /tmp/ccOWj8hl.s:102177  .debug_str:000000000003c67e .LASF819
     /tmp/ccOWj8hl.s:88079  .debug_str:00000000000031b7 .LASF820
     /tmp/ccOWj8hl.s:97965  .debug_str:000000000002b40a .LASF821
     /tmp/ccOWj8hl.s:105941  .debug_str:000000000004c3de .LASF822
     /tmp/ccOWj8hl.s:105709  .debug_str:000000000004b467 .LASF823
     /tmp/ccOWj8hl.s:97001  .debug_str:00000000000276a0 .LASF824
     /tmp/ccOWj8hl.s:94637  .debug_str:000000000001da84 .LASF825
     /tmp/ccOWj8hl.s:93437  .debug_str:0000000000018cf6 .LASF826
     /tmp/ccOWj8hl.s:99155  .debug_str:000000000003037b .LASF827
     /tmp/ccOWj8hl.s:96865  .debug_str:0000000000026cc7 .LASF828
     /tmp/ccOWj8hl.s:101571  .debug_str:0000000000039e0c .LASF829
     /tmp/ccOWj8hl.s:87529  .debug_str:0000000000000b15 .LASF830
     /tmp/ccOWj8hl.s:97797  .debug_str:000000000002a9ee .LASF831
     /tmp/ccOWj8hl.s:103411  .debug_str:0000000000041964 .LASF832
     /tmp/ccOWj8hl.s:99383  .debug_str:0000000000031322 .LASF833
     /tmp/ccOWj8hl.s:90439  .debug_str:000000000000d139 .LASF834
     /tmp/ccOWj8hl.s:103239  .debug_str:0000000000040de8 .LASF835
     /tmp/ccOWj8hl.s:96841  .debug_str:0000000000026b17 .LASF836
     /tmp/ccOWj8hl.s:87587  .debug_str:0000000000000f1f .LASF837
     /tmp/ccOWj8hl.s:96279  .debug_str:00000000000245a2 .LASF838
     /tmp/ccOWj8hl.s:100263  .debug_str:0000000000034de8 .LASF839
     /tmp/ccOWj8hl.s:102853  .debug_str:000000000003f409 .LASF840
     /tmp/ccOWj8hl.s:88885  .debug_str:00000000000068bf .LASF841
     /tmp/ccOWj8hl.s:90787  .debug_str:000000000000e416 .LASF842
     /tmp/ccOWj8hl.s:95779  .debug_str:000000000002295c .LASF843
     /tmp/ccOWj8hl.s:96707  .debug_str:00000000000262ff .LASF844
     /tmp/ccOWj8hl.s:102789  .debug_str:000000000003ef9e .LASF845
     /tmp/ccOWj8hl.s:97091  .debug_str:0000000000027b88 .LASF846
     /tmp/ccOWj8hl.s:95955  .debug_str:0000000000023525 .LASF847
     /tmp/ccOWj8hl.s:94893  .debug_str:000000000001ed5a .LASF848
     /tmp/ccOWj8hl.s:88117  .debug_str:00000000000033c3 .LASF849
     /tmp/ccOWj8hl.s:101489  .debug_str:0000000000039839 .LASF850
     /tmp/ccOWj8hl.s:93421  .debug_str:0000000000018bf5 .LASF851
     /tmp/ccOWj8hl.s:103021  .debug_str:000000000003fe9e .LASF852
     /tmp/ccOWj8hl.s:105025  .debug_str:00000000000483b4 .LASF853
     /tmp/ccOWj8hl.s:95475  .debug_str:0000000000021508 .LASF854
     /tmp/ccOWj8hl.s:95397  .debug_str:0000000000020f2d .LASF855
     /tmp/ccOWj8hl.s:100501  .debug_str:0000000000035c26 .LASF856
     /tmp/ccOWj8hl.s:98239  .debug_str:000000000002c5f2 .LASF857
     /tmp/ccOWj8hl.s:104445  .debug_str:0000000000045c43 .LASF858
     /tmp/ccOWj8hl.s:91975  .debug_str:0000000000012efe .LASF859
     /tmp/ccOWj8hl.s:98447  .debug_str:000000000002d430 .LASF860
     /tmp/ccOWj8hl.s:96291  .debug_str:000000000002469d .LASF861
     /tmp/ccOWj8hl.s:94693  .debug_str:000000000001df4f .LASF862
     /tmp/ccOWj8hl.s:93795  .debug_str:000000000001a3ff .LASF863
     /tmp/ccOWj8hl.s:88443  .debug_str:0000000000004ac1 .LASF864
     /tmp/ccOWj8hl.s:94935  .debug_str:000000000001f08d .LASF865
     /tmp/ccOWj8hl.s:98355  .debug_str:000000000002ce1c .LASF866
     /tmp/ccOWj8hl.s:105799  .debug_str:000000000004b9ae .LASF867
     /tmp/ccOWj8hl.s:93491  .debug_str:00000000000190c0 .LASF868
     /tmp/ccOWj8hl.s:100963  .debug_str:00000000000374b2 .LASF869
     /tmp/ccOWj8hl.s:94533  .debug_str:000000000001d416 .LASF870
     /tmp/ccOWj8hl.s:87659  .debug_str:00000000000013ea .LASF871
     /tmp/ccOWj8hl.s:100917  .debug_str:0000000000037278 .LASF872
     /tmp/ccOWj8hl.s:87897  .debug_str:0000000000002471 .LASF873
     /tmp/ccOWj8hl.s:97429  .debug_str:000000000002919c .LASF874
     /tmp/ccOWj8hl.s:99243  .debug_str:00000000000309d1 .LASF875
     /tmp/ccOWj8hl.s:105919  .debug_str:000000000004c273 .LASF876
     /tmp/ccOWj8hl.s:94145  .debug_str:000000000001b985 .LASF877
     /tmp/ccOWj8hl.s:100971  .debug_str:000000000003755f .LASF878
     /tmp/ccOWj8hl.s:93065  .debug_str:0000000000017533 .LASF879
     /tmp/ccOWj8hl.s:95815  .debug_str:0000000000022be9 .LASF880
     /tmp/ccOWj8hl.s:101875  .debug_str:000000000003b291 .LASF881
     /tmp/ccOWj8hl.s:87563  .debug_str:0000000000000d87 .LASF882
     /tmp/ccOWj8hl.s:97627  .debug_str:0000000000029e55 .LASF883
     /tmp/ccOWj8hl.s:104275  .debug_str:00000000000450c2 .LASF884
     /tmp/ccOWj8hl.s:96699  .debug_str:000000000002622a .LASF885
     /tmp/ccOWj8hl.s:103801  .debug_str:00000000000431ad .LASF886
     /tmp/ccOWj8hl.s:101971  .debug_str:000000000003b9b1 .LASF887
     /tmp/ccOWj8hl.s:104751  .debug_str:0000000000047063 .LASF888
     /tmp/ccOWj8hl.s:87927  .debug_str:00000000000026e6 .LASF889
     /tmp/ccOWj8hl.s:91665  .debug_str:0000000000011a95 .LASF890
     /tmp/ccOWj8hl.s:94379  .debug_str:000000000001c935 .LASF891
     /tmp/ccOWj8hl.s:97109  .debug_str:0000000000027d17 .LASF892
     /tmp/ccOWj8hl.s:99911  .debug_str:00000000000336f8 .LASF893
     /tmp/ccOWj8hl.s:102503  .debug_str:000000000003db25 .LASF894
     /tmp/ccOWj8hl.s:94585  .debug_str:000000000001d77e .LASF895
     /tmp/ccOWj8hl.s:96393  .debug_str:0000000000024d26 .LASF896
     /tmp/ccOWj8hl.s:89695  .debug_str:0000000000009e73 .LASF897
     /tmp/ccOWj8hl.s:101861  .debug_str:000000000003b1b9 .LASF898
     /tmp/ccOWj8hl.s:104491  .debug_str:0000000000045fc0 .LASF899
     /tmp/ccOWj8hl.s:88637  .debug_str:0000000000005860 .LASF900
     /tmp/ccOWj8hl.s:91311  .debug_str:0000000000010316 .LASF901
     /tmp/ccOWj8hl.s:94107  .debug_str:000000000001b74e .LASF902
     /tmp/ccOWj8hl.s:96961  .debug_str:000000000002737a .LASF903
     /tmp/ccOWj8hl.s:99629  .debug_str:000000000003235d .LASF904
     /tmp/ccOWj8hl.s:90577  .debug_str:000000000000d964 .LASF905
     /tmp/ccOWj8hl.s:93349  .debug_str:000000000001871d .LASF906
     /tmp/ccOWj8hl.s:96069  .debug_str:0000000000023c09 .LASF907
     /tmp/ccOWj8hl.s:91195  .debug_str:000000000000fbf1 .LASF908
     /tmp/ccOWj8hl.s:101619  .debug_str:000000000003a116 .LASF909
     /tmp/ccOWj8hl.s:104371  .debug_str:00000000000456da .LASF910
     /tmp/ccOWj8hl.s:98023  .debug_str:000000000002b75f .LASF911
     /tmp/ccOWj8hl.s:91177  .debug_str:000000000000fa80 .LASF912
     /tmp/ccOWj8hl.s:93963  .debug_str:000000000001ae61 .LASF913
     /tmp/ccOWj8hl.s:96669  .debug_str:0000000000025fed .LASF914
     /tmp/ccOWj8hl.s:87691  .debug_str:000000000000160c .LASF915
     /tmp/ccOWj8hl.s:90293  .debug_str:000000000000c7d2 .LASF916
     /tmp/ccOWj8hl.s:93211  .debug_str:0000000000017d28 .LASF917
     /tmp/ccOWj8hl.s:95937  .debug_str:0000000000023415 .LASF918
     /tmp/ccOWj8hl.s:98671  .debug_str:000000000002e382 .LASF919
     /tmp/ccOWj8hl.s:101477  .debug_str:0000000000039754 .LASF920
     /tmp/ccOWj8hl.s:104073  .debug_str:0000000000044326 .LASF921
     /tmp/ccOWj8hl.s:88213  .debug_str:0000000000003a98 .LASF922
     /tmp/ccOWj8hl.s:90877  .debug_str:000000000000e932 .LASF923
     /tmp/ccOWj8hl.s:93635  .debug_str:0000000000019ad1 .LASF924
     /tmp/ccOWj8hl.s:103403  .debug_str:00000000000418be .LASF925
     /tmp/ccOWj8hl.s:94661  .debug_str:000000000001dc80 .LASF926
     /tmp/ccOWj8hl.s:95503  .debug_str:0000000000021700 .LASF927
     /tmp/ccOWj8hl.s:90363  .debug_str:000000000000cc37 .LASF928
     /tmp/ccOWj8hl.s:95659  .debug_str:0000000000022171 .LASF929
     /tmp/ccOWj8hl.s:98565  .debug_str:000000000002dc42 .LASF930
     /tmp/ccOWj8hl.s:101237  .debug_str:00000000000386bd .LASF931
     /tmp/ccOWj8hl.s:103951  .debug_str:0000000000043bc4 .LASF932
     /tmp/ccOWj8hl.s:87943  .debug_str:00000000000027e6 .LASF933
     /tmp/ccOWj8hl.s:90543  .debug_str:000000000000d760 .LASF934
     /tmp/ccOWj8hl.s:100507  .debug_str:0000000000035c9c .LASF935
     /tmp/ccOWj8hl.s:103119  .debug_str:00000000000405d3 .LASF936
     /tmp/ccOWj8hl.s:99933  .debug_str:0000000000033892 .LASF937
     /tmp/ccOWj8hl.s:89883  .debug_str:000000000000ab30 .LASF938
     /tmp/ccOWj8hl.s:94789  .debug_str:000000000001e592 .LASF939
     /tmp/ccOWj8hl.s:98419  .debug_str:000000000002d1f5 .LASF940
     /tmp/ccOWj8hl.s:97875  .debug_str:000000000002aebb .LASF941
     /tmp/ccOWj8hl.s:97339  .debug_str:0000000000028c0c .LASF942
     /tmp/ccOWj8hl.s:96597  .debug_str:0000000000025a77 .LASF943
     /tmp/ccOWj8hl.s:104937  .debug_str:0000000000047da5 .LASF944
     /tmp/ccOWj8hl.s:91801  .debug_str:0000000000012353 .LASF945
     /tmp/ccOWj8hl.s:103845  .debug_str:0000000000043466 .LASF946
     /tmp/ccOWj8hl.s:90289  .debug_str:000000000000c795 .LASF947
     /tmp/ccOWj8hl.s:97747  .debug_str:000000000002a644 .LASF948
     /tmp/ccOWj8hl.s:91283  .debug_str:0000000000010096 .LASF949
     /tmp/ccOWj8hl.s:102677  .debug_str:000000000003e84e .LASF950
     /tmp/ccOWj8hl.s:90201  .debug_str:000000000000c18f .LASF951
     /tmp/ccOWj8hl.s:99441  .debug_str:000000000003172e .LASF952
     /tmp/ccOWj8hl.s:100635  .debug_str:0000000000036363 .LASF953
     /tmp/ccOWj8hl.s:101269  .debug_str:00000000000388fd .LASF954
     /tmp/ccOWj8hl.s:104991  .debug_str:000000000004819f .LASF955
     /tmp/ccOWj8hl.s:102937  .debug_str:000000000003f9cb .LASF956
     /tmp/ccOWj8hl.s:91837  .debug_str:0000000000012642 .LASF957
     /tmp/ccOWj8hl.s:100391  .debug_str:0000000000035508 .LASF958
     /tmp/ccOWj8hl.s:89907  .debug_str:000000000000ad16 .LASF959
     /tmp/ccOWj8hl.s:98591  .debug_str:000000000002ddf3 .LASF960
     /tmp/ccOWj8hl.s:88255  .debug_str:0000000000003d77 .LASF961
     /tmp/ccOWj8hl.s:96705  .debug_str:00000000000262b6 .LASF962
     /tmp/ccOWj8hl.s:105061  .debug_str:0000000000048641 .LASF963
     /tmp/ccOWj8hl.s:94845  .debug_str:000000000001e9d0 .LASF964
     /tmp/ccOWj8hl.s:104389  .debug_str:0000000000045803 .LASF965
     /tmp/ccOWj8hl.s:88113  .debug_str:000000000000336c .LASF966
     /tmp/ccOWj8hl.s:87819  .debug_str:0000000000001f2c .LASF967
     /tmp/ccOWj8hl.s:94251  .debug_str:000000000001c057 .LASF968
     /tmp/ccOWj8hl.s:105937  .debug_str:000000000004c376 .LASF969
     /tmp/ccOWj8hl.s:88171  .debug_str:00000000000037aa .LASF970
     /tmp/ccOWj8hl.s:95731  .debug_str:0000000000022633 .LASF971
     /tmp/ccOWj8hl.s:92055  .debug_str:00000000000133b5 .LASF972
     /tmp/ccOWj8hl.s:89537  .debug_str:000000000000945e .LASF973
     /tmp/ccOWj8hl.s:94209  .debug_str:000000000001bd57 .LASF974
     /tmp/ccOWj8hl.s:102257  .debug_str:000000000003cb7f .LASF975
     /tmp/ccOWj8hl.s:89843  .debug_str:000000000000a850 .LASF976
     /tmp/ccOWj8hl.s:92753  .debug_str:0000000000016007 .LASF977
     /tmp/ccOWj8hl.s:99153  .debug_str:000000000003032f .LASF978
     /tmp/ccOWj8hl.s:105171  .debug_str:0000000000048d81 .LASF979
     /tmp/ccOWj8hl.s:92881  .debug_str:00000000000168f6 .LASF980
     /tmp/ccOWj8hl.s:99133  .debug_str:0000000000030178 .LASF981
     /tmp/ccOWj8hl.s:105365  .debug_str:0000000000049aba .LASF982
     /tmp/ccOWj8hl.s:93217  .debug_str:0000000000017da0 .LASF983
     /tmp/ccOWj8hl.s:99643  .debug_str:000000000003241b .LASF984
     /tmp/ccOWj8hl.s:100029  .debug_str:0000000000033ea0 .LASF985
     /tmp/ccOWj8hl.s:93601  .debug_str:000000000001979d .LASF986
     /tmp/ccOWj8hl.s:93555  .debug_str:000000000001950f .LASF987
     /tmp/ccOWj8hl.s:88417  .debug_str:0000000000004918 .LASF988
     /tmp/ccOWj8hl.s:89805  .debug_str:000000000000a615 .LASF989
     /tmp/ccOWj8hl.s:90049  .debug_str:000000000000b7be .LASF990
     /tmp/ccOWj8hl.s:88771  .debug_str:0000000000006097 .LASF991
     /tmp/ccOWj8hl.s:102839  .debug_str:000000000003f31f .LASF992
     /tmp/ccOWj8hl.s:92875  .debug_str:0000000000016885 .LASF993
     /tmp/ccOWj8hl.s:94401  .debug_str:000000000001caa7 .LASF994
     /tmp/ccOWj8hl.s:100981  .debug_str:0000000000037604 .LASF995
     /tmp/ccOWj8hl.s:97675  .debug_str:000000000002a1bc .LASF996
     /tmp/ccOWj8hl.s:94275  .debug_str:000000000001c1db .LASF997
     /tmp/ccOWj8hl.s:103527  .debug_str:000000000004208e .LASF998
     /tmp/ccOWj8hl.s:103519  .debug_str:0000000000042015 .LASF999
     /tmp/ccOWj8hl.s:94655  .debug_str:000000000001dbe7 .LASF1000
     /tmp/ccOWj8hl.s:103459  .debug_str:0000000000041c4c .LASF1001
     /tmp/ccOWj8hl.s:96327  .debug_str:0000000000024928 .LASF1002
     /tmp/ccOWj8hl.s:99497  .debug_str:0000000000031b41 .LASF1003
     /tmp/ccOWj8hl.s:91041  .debug_str:000000000000f38a .LASF1004
     /tmp/ccOWj8hl.s:102161  .debug_str:000000000003c582 .LASF1005
     /tmp/ccOWj8hl.s:104061  .debug_str:0000000000044283 .LASF1006
     /tmp/ccOWj8hl.s:97345  .debug_str:0000000000028c9d .LASF1007
     /tmp/ccOWj8hl.s:102657  .debug_str:000000000003e6c6 .LASF1008
     /tmp/ccOWj8hl.s:96859  .debug_str:0000000000026c32 .LASF1009
     /tmp/ccOWj8hl.s:104697  .debug_str:0000000000046cbc .LASF1010
     /tmp/ccOWj8hl.s:100921  .debug_str:00000000000372cc .LASF1011
     /tmp/ccOWj8hl.s:87393  .debug_str:000000000000023e .LASF1012
     /tmp/ccOWj8hl.s:95569  .debug_str:0000000000021b23 .LASF1013
     /tmp/ccOWj8hl.s:88581  .debug_str:000000000000549a .LASF1014
     /tmp/ccOWj8hl.s:92565  .debug_str:000000000001539b .LASF1015
     /tmp/ccOWj8hl.s:104479  .debug_str:0000000000045ed6 .LASF1016
     /tmp/ccOWj8hl.s:96519  .debug_str:0000000000025621 .LASF1017
     /tmp/ccOWj8hl.s:95109  .debug_str:000000000001fc75 .LASF1018
     /tmp/ccOWj8hl.s:91763  .debug_str:00000000000120eb .LASF1019
     /tmp/ccOWj8hl.s:88963  .debug_str:0000000000006e52 .LASF1020
     /tmp/ccOWj8hl.s:96547  .debug_str:00000000000257df .LASF1021
     /tmp/ccOWj8hl.s:98959  .debug_str:000000000002f60e .LASF1022
     /tmp/ccOWj8hl.s:92339  .debug_str:0000000000014504 .LASF1023
     /tmp/ccOWj8hl.s:92619  .debug_str:0000000000015728 .LASF1024
     /tmp/ccOWj8hl.s:93869  .debug_str:000000000001a809 .LASF1025
     /tmp/ccOWj8hl.s:97129  .debug_str:0000000000027e8d .LASF1026
     /tmp/ccOWj8hl.s:93353  .debug_str:0000000000018763 .LASF1027
     /tmp/ccOWj8hl.s:87813  .debug_str:0000000000001ec3 .LASF1028
     /tmp/ccOWj8hl.s:99285  .debug_str:0000000000030ca6 .LASF1029
     /tmp/ccOWj8hl.s:101913  .debug_str:000000000003b5db .LASF1030
     /tmp/ccOWj8hl.s:94075  .debug_str:000000000001b50d .LASF1031
     /tmp/ccOWj8hl.s:104711  .debug_str:0000000000046d80 .LASF1032
     /tmp/ccOWj8hl.s:87845  .debug_str:0000000000002140 .LASF1033
     /tmp/ccOWj8hl.s:96373  .debug_str:0000000000024bd1 .LASF1034
     /tmp/ccOWj8hl.s:102517  .debug_str:000000000003dc2e .LASF1035
     /tmp/ccOWj8hl.s:99235  .debug_str:0000000000030919 .LASF1036
     /tmp/ccOWj8hl.s:95807  .debug_str:0000000000022b65 .LASF1037
     /tmp/ccOWj8hl.s:92397  .debug_str:00000000000148dd .LASF1038
     /tmp/ccOWj8hl.s:103981  .debug_str:0000000000043d76 .LASF1039
     /tmp/ccOWj8hl.s:90451  .debug_str:000000000000d210 .LASF1040
     /tmp/ccOWj8hl.s:88419  .debug_str:0000000000004966 .LASF1041
     /tmp/ccOWj8hl.s:91219  .debug_str:000000000000fd32 .LASF1042
     /tmp/ccOWj8hl.s:102889  .debug_str:000000000003f69e .LASF1043
     /tmp/ccOWj8hl.s:105401  .debug_str:0000000000049df2 .LASF1044
     /tmp/ccOWj8hl.s:92949  .debug_str:0000000000016dce .LASF1045
     /tmp/ccOWj8hl.s:99217  .debug_str:00000000000307db .LASF1046
     /tmp/ccOWj8hl.s:105279  .debug_str:00000000000495b7 .LASF1047
     /tmp/ccOWj8hl.s:92853  .debug_str:00000000000166ee .LASF1048
     /tmp/ccOWj8hl.s:91667  .debug_str:0000000000011aca .LASF1049
     /tmp/ccOWj8hl.s:97971  .debug_str:000000000002b47b .LASF1050
     /tmp/ccOWj8hl.s:104017  .debug_str:0000000000043f8f .LASF1051
     /tmp/ccOWj8hl.s:91535  .debug_str:0000000000011147 .LASF1052
     /tmp/ccOWj8hl.s:97847  .debug_str:000000000002ace6 .LASF1053
     /tmp/ccOWj8hl.s:103231  .debug_str:0000000000040d96 .LASF1054
     /tmp/ccOWj8hl.s:88939  .debug_str:0000000000006c8b .LASF1055
     /tmp/ccOWj8hl.s:102909  .debug_str:000000000003f816 .LASF1056
     /tmp/ccOWj8hl.s:98597  .debug_str:000000000002de8d .LASF1057
     /tmp/ccOWj8hl.s:94865  .debug_str:000000000001eb6f .LASF1058
     /tmp/ccOWj8hl.s:91119  .debug_str:000000000000f779 .LASF1059
     /tmp/ccOWj8hl.s:90309  .debug_str:000000000000c8c7 .LASF1060
     /tmp/ccOWj8hl.s:102415  .debug_str:000000000003d58c .LASF1061
     /tmp/ccOWj8hl.s:94691  .debug_str:000000000001df27 .LASF1062
     /tmp/ccOWj8hl.s:105287  .debug_str:0000000000049647 .LASF1063
     /tmp/ccOWj8hl.s:95129  .debug_str:000000000001fde1 .LASF1064
     /tmp/ccOWj8hl.s:89457  .debug_str:0000000000008e70 .LASF1065
     /tmp/ccOWj8hl.s:100489  .debug_str:0000000000035b96 .LASF1066
     /tmp/ccOWj8hl.s:92469  .debug_str:0000000000014dca .LASF1067
     /tmp/ccOWj8hl.s:103315  .debug_str:0000000000041313 .LASF1068
     /tmp/ccOWj8hl.s:95443  .debug_str:00000000000212b5 .LASF1069
     /tmp/ccOWj8hl.s:99475  .debug_str:00000000000319d5 .LASF1070
     /tmp/ccOWj8hl.s:89679  .debug_str:0000000000009d19 .LASF1071
     /tmp/ccOWj8hl.s:99135  .debug_str:00000000000301c6 .LASF1072
     /tmp/ccOWj8hl.s:89409  .debug_str:0000000000008b1f .LASF1073
     /tmp/ccOWj8hl.s:98731  .debug_str:000000000002e7a4 .LASF1074
     /tmp/ccOWj8hl.s:89181  .debug_str:0000000000007b91 .LASF1075
     /tmp/ccOWj8hl.s:98493  .debug_str:000000000002d807 .LASF1076
     /tmp/ccOWj8hl.s:88947  .debug_str:0000000000006d33 .LASF1077
     /tmp/ccOWj8hl.s:101319  .debug_str:0000000000038d0d .LASF1078
     /tmp/ccOWj8hl.s:88713  .debug_str:0000000000005d12 .LASF1079
     /tmp/ccOWj8hl.s:98009  .debug_str:000000000002b670 .LASF1080
     /tmp/ccOWj8hl.s:90147  .debug_str:000000000000bdbe .LASF1081
     /tmp/ccOWj8hl.s:94499  .debug_str:000000000001d1f9 .LASF1082
     /tmp/ccOWj8hl.s:89741  .debug_str:000000000000a1d1 .LASF1083
     /tmp/ccOWj8hl.s:99205  .debug_str:00000000000306e4 .LASF1084
     /tmp/ccOWj8hl.s:101963  .debug_str:000000000003b90b .LASF1085
     /tmp/ccOWj8hl.s:98943  .debug_str:000000000002f4e1 .LASF1086
     /tmp/ccOWj8hl.s:89249  .debug_str:000000000000807d .LASF1087
     /tmp/ccOWj8hl.s:98711  .debug_str:000000000002e60e .LASF1088
     /tmp/ccOWj8hl.s:89009  .debug_str:0000000000007101 .LASF1089
     /tmp/ccOWj8hl.s:90307  .debug_str:000000000000c89d .LASF1090
     /tmp/ccOWj8hl.s:90463  .debug_str:000000000000d2a9 .LASF1091
     /tmp/ccOWj8hl.s:99769  .debug_str:0000000000032d0c .LASF1092
     /tmp/ccOWj8hl.s:90231  .debug_str:000000000000c3c7 .LASF1093
     /tmp/ccOWj8hl.s:99529  .debug_str:0000000000031d41 .LASF1094
     /tmp/ccOWj8hl.s:94519  .debug_str:000000000001d306 .LASF1095
     /tmp/ccOWj8hl.s:99277  .debug_str:0000000000030c12 .LASF1096
     /tmp/ccOWj8hl.s:89729  .debug_str:000000000000a111 .LASF1097
     /tmp/ccOWj8hl.s:99019  .debug_str:000000000002fa30 .LASF1098
     /tmp/ccOWj8hl.s:89461  .debug_str:0000000000008eae .LASF1099
     /tmp/ccOWj8hl.s:98771  .debug_str:000000000002ea90 .LASF1100
     /tmp/ccOWj8hl.s:90823  .debug_str:000000000000e69b .LASF1101
     /tmp/ccOWj8hl.s:100231  .debug_str:0000000000034b7f .LASF1102
     /tmp/ccOWj8hl.s:90537  .debug_str:000000000000d6ed .LASF1103
     /tmp/ccOWj8hl.s:99979  .debug_str:0000000000033bab .LASF1104
     /tmp/ccOWj8hl.s:90297  .debug_str:000000000000c815 .LASF1105
     /tmp/ccOWj8hl.s:99755  .debug_str:0000000000032bed .LASF1106
     /tmp/ccOWj8hl.s:90037  .debug_str:000000000000b6f7 .LASF1107
     /tmp/ccOWj8hl.s:99343  .debug_str:0000000000031067 .LASF1108
     /tmp/ccOWj8hl.s:89801  .debug_str:000000000000a5ca .LASF1109
     /tmp/ccOWj8hl.s:105317  .debug_str:00000000000497e5 .LASF1110
     /tmp/ccOWj8hl.s:91337  .debug_str:0000000000010447 .LASF1111
     /tmp/ccOWj8hl.s:100577  .debug_str:000000000003607b .LASF1112
     /tmp/ccOWj8hl.s:91069  .debug_str:000000000000f51c .LASF1113
     /tmp/ccOWj8hl.s:100309  .debug_str:0000000000035053 .LASF1114
     /tmp/ccOWj8hl.s:90549  .debug_str:000000000000d7c3 .LASF1115
     /tmp/ccOWj8hl.s:100037  .debug_str:0000000000033f36 .LASF1116
     /tmp/ccOWj8hl.s:90359  .debug_str:000000000000cbf4 .LASF1117
     /tmp/ccOWj8hl.s:99827  .debug_str:000000000003310f .LASF1118
     /tmp/ccOWj8hl.s:90109  .debug_str:000000000000bb33 .LASF1119
     /tmp/ccOWj8hl.s:99585  .debug_str:00000000000320bc .LASF1120
     /tmp/ccOWj8hl.s:91705  .debug_str:0000000000011cfd .LASF1121
     /tmp/ccOWj8hl.s:101095  .debug_str:0000000000037d6c .LASF1122
     /tmp/ccOWj8hl.s:91417  .debug_str:00000000000109a2 .LASF1123
     /tmp/ccOWj8hl.s:100649  .debug_str:000000000003647c .LASF1124
     /tmp/ccOWj8hl.s:91363  .debug_str:000000000001060e .LASF1125
     /tmp/ccOWj8hl.s:92187  .debug_str:0000000000013bff .LASF1126
     /tmp/ccOWj8hl.s:87363  .debug_str:0000000000000021 .LASF1127
     /tmp/ccOWj8hl.s:101173  .debug_str:0000000000038293 .LASF1128
     /tmp/ccOWj8hl.s:95209  .debug_str:0000000000020355 .LASF1129
     /tmp/ccOWj8hl.s:103167  .debug_str:0000000000040959 .LASF1130
     /tmp/ccOWj8hl.s:88051  .debug_str:0000000000002fd7 .LASF1131
     /tmp/ccOWj8hl.s:88411  .debug_str:0000000000004895 .LASF1132
     /tmp/ccOWj8hl.s:88825  .debug_str:0000000000006455 .LASF1133
     /tmp/ccOWj8hl.s:89173  .debug_str:0000000000007afb .LASF1134
     /tmp/ccOWj8hl.s:91965  .debug_str:0000000000012e2d .LASF1135
     /tmp/ccOWj8hl.s:92287  .debug_str:00000000000141ab .LASF1136
     /tmp/ccOWj8hl.s:99851  .debug_str:00000000000332a9 .LASF1137
     /tmp/ccOWj8hl.s:102263  .debug_str:000000000003cbf8 .LASF1138
     /tmp/ccOWj8hl.s:104723  .debug_str:0000000000046e58 .LASF1139
     /tmp/ccOWj8hl.s:88827  .debug_str:0000000000006486 .LASF1140
     /tmp/ccOWj8hl.s:104911  .debug_str:0000000000047bb7 .LASF1141
     /tmp/ccOWj8hl.s:88209  .debug_str:0000000000003a56 .LASF1142
     /tmp/ccOWj8hl.s:103041  .debug_str:000000000003ffff .LASF1143
     /tmp/ccOWj8hl.s:103659  .debug_str:0000000000042887 .LASF1144
     /tmp/ccOWj8hl.s:102437  .debug_str:000000000003d6f7 .LASF1145
     /tmp/ccOWj8hl.s:102619  .debug_str:000000000003e39f .LASF1146
     /tmp/ccOWj8hl.s:93375  .debug_str:00000000000188d5 .LASF1147
     /tmp/ccOWj8hl.s:93019  .debug_str:0000000000017208 .LASF1148
     /tmp/ccOWj8hl.s:105677  .debug_str:000000000004b22a .LASF1149
     /tmp/ccOWj8hl.s:97453  .debug_str:00000000000293cc .LASF1150
     /tmp/ccOWj8hl.s:91129  .debug_str:000000000000f806 .LASF1151
     /tmp/ccOWj8hl.s:99595  .debug_str:000000000003219c .LASF1152
     /tmp/ccOWj8hl.s:89581  .debug_str:0000000000009744 .LASF1153
     /tmp/ccOWj8hl.s:87371  .debug_str:00000000000000ad .LASF1154
     /tmp/ccOWj8hl.s:95487  .debug_str:00000000000215eb .LASF1155
     /tmp/ccOWj8hl.s:95727  .debug_str:0000000000022608 .LASF1156
     /tmp/ccOWj8hl.s:101527  .debug_str:0000000000039b4b .LASF1157
     /tmp/ccOWj8hl.s:103627  .debug_str:00000000000426d7 .LASF1158
     /tmp/ccOWj8hl.s:105051  .debug_str:00000000000485ac .LASF1159
     /tmp/ccOWj8hl.s:94913  .debug_str:000000000001eef2 .LASF1160
     /tmp/ccOWj8hl.s:98529  .debug_str:000000000002da37 .LASF1161
     /tmp/ccOWj8hl.s:91373  .debug_str:00000000000106ec .LASF1163
     /tmp/ccOWj8hl.s:104439  .debug_str:0000000000045bdb .LASF1164
     /tmp/ccOWj8hl.s:92595  .debug_str:000000000001556f .LASF1165
     /tmp/ccOWj8hl.s:97069  .debug_str:0000000000027a5d .LASF1166
     /tmp/ccOWj8hl.s:92453  .debug_str:0000000000014cce .LASF1167
     /tmp/ccOWj8hl.s:92393  .debug_str:00000000000148c8 .LASF1168
     /tmp/ccOWj8hl.s:98499  .debug_str:000000000002d884 .LASF1169
     /tmp/ccOWj8hl.s:87419  .debug_str:00000000000003d0 .LASF1170
     /tmp/ccOWj8hl.s:92683  .debug_str:0000000000015b27 .LASF1171
     /tmp/ccOWj8hl.s:94707  .debug_str:000000000001e051 .LASF1172
     /tmp/ccOWj8hl.s:95799  .debug_str:0000000000022ac9 .LASF1173
     /tmp/ccOWj8hl.s:102869  .debug_str:000000000003f54b .LASF1174
     /tmp/ccOWj8hl.s:90867  .debug_str:000000000000e8b7 .LASF1175
     /tmp/ccOWj8hl.s:97289  .debug_str:000000000002896b .LASF1176
     /tmp/ccOWj8hl.s:88851  .debug_str:000000000000668b .LASF1177
     /tmp/ccOWj8hl.s:89719  .debug_str:000000000000a03e .LASF1178
     /tmp/ccOWj8hl.s:97637  .debug_str:0000000000029ef2 .LASF1179
     /tmp/ccOWj8hl.s:89713  .debug_str:0000000000009fe5 .LASF1180
     /tmp/ccOWj8hl.s:94549  .debug_str:000000000001d54a .LASF1181
     /tmp/ccOWj8hl.s:99463  .debug_str:00000000000318af .LASF1182
     /tmp/ccOWj8hl.s:104047  .debug_str:00000000000441b8 .LASF1183
     /tmp/ccOWj8hl.s:88049  .debug_str:0000000000002faf .LASF1184
     /tmp/ccOWj8hl.s:97159  .debug_str:0000000000028072 .LASF1185
     /tmp/ccOWj8hl.s:88427  .debug_str:00000000000049e9 .LASF1186
     /tmp/ccOWj8hl.s:90519  .debug_str:000000000000d5d7 .LASF1187
     /tmp/ccOWj8hl.s:105921  .debug_str:000000000004c2a6 .LASF1188
     /tmp/ccOWj8hl.s:96937  .debug_str:00000000000271cd .LASF1189
     /tmp/ccOWj8hl.s:105621  .debug_str:000000000004aeaf .LASF1190
     /tmp/ccOWj8hl.s:97285  .debug_str:0000000000028920 .LASF1191
     /tmp/ccOWj8hl.s:104117  .debug_str:00000000000446a4 .LASF1192
     /tmp/ccOWj8hl.s:103177  .debug_str:0000000000040a03 .LASF1193
     /tmp/ccOWj8hl.s:90891  .debug_str:000000000000ea0f .LASF1194
     /tmp/ccOWj8hl.s:104605  .debug_str:00000000000466c1 .LASF1195
     /tmp/ccOWj8hl.s:93885  .debug_str:000000000001a939 .LASF1196
     /tmp/ccOWj8hl.s:93383  .debug_str:0000000000018950 .LASF1197
     /tmp/ccOWj8hl.s:97263  .debug_str:0000000000028787 .LASF1198
     /tmp/ccOWj8hl.s:89237  .debug_str:0000000000007f87 .LASF1199
     /tmp/ccOWj8hl.s:91369  .debug_str:0000000000010693 .LASF1200
     /tmp/ccOWj8hl.s:99261  .debug_str:0000000000030b2f .LASF1201
     /tmp/ccOWj8hl.s:90623  .debug_str:000000000000dc80 .LASF1202
     /tmp/ccOWj8hl.s:104499  .debug_str:0000000000046047 .LASF1203
     /tmp/ccOWj8hl.s:93445  .debug_str:0000000000018da1 .LASF1204
     /tmp/ccOWj8hl.s:105723  .debug_str:000000000004b5aa .LASF1205
     /tmp/ccOWj8hl.s:91173  .debug_str:000000000000fa2d .LASF1206
     /tmp/ccOWj8hl.s:99631  .debug_str:0000000000032392 .LASF1207
     /tmp/ccOWj8hl.s:105569  .debug_str:000000000004aaf8 .LASF1208
     /tmp/ccOWj8hl.s:98615  .debug_str:000000000002e01f .LASF1209
     /tmp/ccOWj8hl.s:96659  .debug_str:0000000000025f4b .LASF1210
     /tmp/ccOWj8hl.s:99415  .debug_str:000000000003156f .LASF1211
     /tmp/ccOWj8hl.s:93639  .debug_str:0000000000019b32 .LASF1212
     /tmp/ccOWj8hl.s:100355  .debug_str:00000000000353cd .LASF1213
     /tmp/ccOWj8hl.s:102803  .debug_str:000000000003f0a0 .LASF1214
     /tmp/ccOWj8hl.s:101669  .debug_str:000000000003a4f0 .LASF1215
     /tmp/ccOWj8hl.s:93993  .debug_str:000000000001b010 .LASF1216
     /tmp/ccOWj8hl.s:97959  .debug_str:000000000002b3ad .LASF1217
     /tmp/ccOWj8hl.s:105147  .debug_str:0000000000048c0d .LASF1218
     /tmp/ccOWj8hl.s:91217  .debug_str:000000000000fd08 .LASF1219
     /tmp/ccOWj8hl.s:90237  .debug_str:000000000000c43a .LASF1220
     /tmp/ccOWj8hl.s:89947  .debug_str:000000000000b027 .LASF1221
     /tmp/ccOWj8hl.s:87753  .debug_str:0000000000001acd .LASF1222
     /tmp/ccOWj8hl.s:99141  .debug_str:000000000003021b .LASF1223
     /tmp/ccOWj8hl.s:92441  .debug_str:0000000000014bf8 .LASF1224
     /tmp/ccOWj8hl.s:90733  .debug_str:000000000000e23c .LASF1225
     /tmp/ccOWj8hl.s:99351  .debug_str:000000000003110a .LASF1226
     /tmp/ccOWj8hl.s:94679  .debug_str:000000000001de21 .LASF1227
     /tmp/ccOWj8hl.s:93277  .debug_str:00000000000181fe .LASF1228
     /tmp/ccOWj8hl.s:100007  .debug_str:0000000000033d5a .LASF1229
     /tmp/ccOWj8hl.s:89487  .debug_str:0000000000009041 .LASF1230
     /tmp/ccOWj8hl.s:98787  .debug_str:000000000002ebaa .LASF1231
     /tmp/ccOWj8hl.s:102811  .debug_str:000000000003f12a .LASF1232
     /tmp/ccOWj8hl.s:94387  .debug_str:000000000001c9ce .LASF1233
     /tmp/ccOWj8hl.s:105683  .debug_str:000000000004b269 .LASF1234
     /tmp/ccOWj8hl.s:102807  .debug_str:000000000003f0fc .LASF1235
     /tmp/ccOWj8hl.s:105705  .debug_str:000000000004b416 .LASF1236
     /tmp/ccOWj8hl.s:90427  .debug_str:000000000000d077 .LASF1237
     /tmp/ccOWj8hl.s:105191  .debug_str:0000000000048f04 .LASF1238
     /tmp/ccOWj8hl.s:94613  .debug_str:000000000001d8da .LASF1239
     /tmp/ccOWj8hl.s:104575  .debug_str:0000000000046544 .LASF1240
     /tmp/ccOWj8hl.s:88525  .debug_str:0000000000005027 .LASF1241
     /tmp/ccOWj8hl.s:92903  .debug_str:0000000000016a65 .LASF1242
     /tmp/ccOWj8hl.s:103099  .debug_str:0000000000040410 .LASF1243
     /tmp/ccOWj8hl.s:93243  .debug_str:0000000000017fc5 .LASF1244
     /tmp/ccOWj8hl.s:95927  .debug_str:00000000000232af .LASF1245
     /tmp/ccOWj8hl.s:95371  .debug_str:0000000000020e3f .LASF1246
     /tmp/ccOWj8hl.s:105893  .debug_str:000000000004c0b1 .LASF1247
     /tmp/ccOWj8hl.s:99127  .debug_str:0000000000030103 .LASF1248
     /tmp/ccOWj8hl.s:89571  .debug_str:00000000000096bc .LASF1249
     /tmp/ccOWj8hl.s:96233  .debug_str:000000000002443c .LASF1250
     /tmp/ccOWj8hl.s:99665  .debug_str:00000000000325d5 .LASF1251
     /tmp/ccOWj8hl.s:87551  .debug_str:0000000000000c9c .LASF1252
     /tmp/ccOWj8hl.s:90825  .debug_str:000000000000e6c5 .LASF1253
     /tmp/ccOWj8hl.s:90485  .debug_str:000000000000d3b0 .LASF1254
     /tmp/ccOWj8hl.s:104907  .debug_str:0000000000047b70 .LASF1255
     /tmp/ccOWj8hl.s:97515  .debug_str:00000000000296c5 .LASF1256
     /tmp/ccOWj8hl.s:96337  .debug_str:00000000000249af .LASF1257
     /tmp/ccOWj8hl.s:90191  .debug_str:000000000000c0f1 .LASF1258
     /tmp/ccOWj8hl.s:95473  .debug_str:00000000000214e0 .LASF1259
     /tmp/ccOWj8hl.s:99461  .debug_str:0000000000031879 .LASF1260
     /tmp/ccOWj8hl.s:104395  .debug_str:00000000000458a7 .LASF1261
     /tmp/ccOWj8hl.s:105951  .debug_str:000000000004c490 .LASF1262
     /tmp/ccOWj8hl.s:101745  .debug_str:000000000003a9ed .LASF1263
     /tmp/ccOWj8hl.s:97655  .debug_str:000000000002a004 .LASF1264
     /tmp/ccOWj8hl.s:92995  .debug_str:0000000000017066 .LASF1265
     /tmp/ccOWj8hl.s:89151  .debug_str:0000000000007999 .LASF1266
     /tmp/ccOWj8hl.s:102945  .debug_str:000000000003fa4c .LASF1267
     /tmp/ccOWj8hl.s:99521  .debug_str:0000000000031cb0 .LASF1268
     /tmp/ccOWj8hl.s:94337  .debug_str:000000000001c60a .LASF1269
     /tmp/ccOWj8hl.s:90909  .debug_str:000000000000eb67 .LASF1270
     /tmp/ccOWj8hl.s:104229  .debug_str:0000000000044db5 .LASF1271
     /tmp/ccOWj8hl.s:104431  .debug_str:0000000000045b71 .LASF1272
     /tmp/ccOWj8hl.s:93499  .debug_str:0000000000019131 .LASF1273
     /tmp/ccOWj8hl.s:96023  .debug_str:0000000000023960 .LASF1274
     /tmp/ccOWj8hl.s:103465  .debug_str:0000000000041cbd .LASF1275
     /tmp/ccOWj8hl.s:87519  .debug_str:0000000000000aa3 .LASF1276
     /tmp/ccOWj8hl.s:94843  .debug_str:000000000001e9ad .LASF1277
     /tmp/ccOWj8hl.s:97855  .debug_str:000000000002ad75 .LASF1278
     /tmp/ccOWj8hl.s:92041  .debug_str:00000000000132ea .LASF1279
     /tmp/ccOWj8hl.s:89205  .debug_str:0000000000007d4a .LASF1280
     /tmp/ccOWj8hl.s:100241  .debug_str:0000000000034c5d .LASF1281
     /tmp/ccOWj8hl.s:102777  .debug_str:000000000003eeef .LASF1282
     /tmp/ccOWj8hl.s:92173  .debug_str:0000000000013b2b .LASF1283
     /tmp/ccOWj8hl.s:101367  .debug_str:0000000000038fa5 .LASF1284
     /tmp/ccOWj8hl.s:102147  .debug_str:000000000003c478 .LASF1285
     /tmp/ccOWj8hl.s:88743  .debug_str:0000000000005f09 .LASF1286
     /tmp/ccOWj8hl.s:96365  .debug_str:0000000000024b52 .LASF1287
     /tmp/ccOWj8hl.s:99067  .debug_str:000000000002fce3 .LASF1288
     /tmp/ccOWj8hl.s:87575  .debug_str:0000000000000e5d .LASF1289
     /tmp/ccOWj8hl.s:100149  .debug_str:0000000000034695 .LASF1290
     /tmp/ccOWj8hl.s:92533  .debug_str:00000000000151cb .LASF1291
     /tmp/ccOWj8hl.s:91653  .debug_str:00000000000119a4 .LASF1292
     /tmp/ccOWj8hl.s:102491  .debug_str:000000000003da44 .LASF1293
     /tmp/ccOWj8hl.s:102573  .debug_str:000000000003e044 .LASF1294
     /tmp/ccOWj8hl.s:94629  .debug_str:000000000001da27 .LASF1295
     /tmp/ccOWj8hl.s:105101  .debug_str:0000000000048916 .LASF1296
     /tmp/ccOWj8hl.s:103697  .debug_str:0000000000042b12 .LASF1297
     /tmp/ccOWj8hl.s:93843  .debug_str:000000000001a6b5 .LASF1298
     /tmp/ccOWj8hl.s:101205  .debug_str:00000000000384e4 .LASF1299
     /tmp/ccOWj8hl.s:105085  .debug_str:00000000000487cd .LASF1300
     /tmp/ccOWj8hl.s:92375  .debug_str:0000000000014769 .LASF1301
     /tmp/ccOWj8hl.s:98749  .debug_str:000000000002e925 .LASF1302
     /tmp/ccOWj8hl.s:95591  .debug_str:0000000000021ce1 .LASF1303
     /tmp/ccOWj8hl.s:87995  .debug_str:0000000000002ba1 .LASF1304
     /tmp/ccOWj8hl.s:94407  .debug_str:000000000001cb1a .LASF1305
     /tmp/ccOWj8hl.s:101041  .debug_str:0000000000037939 .LASF1306
     /tmp/ccOWj8hl.s:93861  .debug_str:000000000001a774 .LASF1307
     /tmp/ccOWj8hl.s:100313  .debug_str:000000000003509d .LASF1308
     /tmp/ccOWj8hl.s:102469  .debug_str:000000000003d88d .LASF1309
     /tmp/ccOWj8hl.s:97125  .debug_str:0000000000027e4b .LASF1310
     /tmp/ccOWj8hl.s:98387  .debug_str:000000000002d01d .LASF1311
     /tmp/ccOWj8hl.s:95837  .debug_str:0000000000022dc6 .LASF1312
     /tmp/ccOWj8hl.s:96183  .debug_str:000000000002411d .LASF1313
     /tmp/ccOWj8hl.s:94325  .debug_str:000000000001c549 .LASF1314
     /tmp/ccOWj8hl.s:87653  .debug_str:000000000000139f .LASF1315
     /tmp/ccOWj8hl.s:102389  .debug_str:000000000003d3cf .LASF1316
     /tmp/ccOWj8hl.s:90301  .debug_str:000000000000c859 .LASF1317
     /tmp/ccOWj8hl.s:93393  .debug_str:00000000000189fb .LASF1318
     /tmp/ccOWj8hl.s:98279  .debug_str:000000000002c8ca .LASF1319
     /tmp/ccOWj8hl.s:98337  .debug_str:000000000002cd0c .LASF1320
     /tmp/ccOWj8hl.s:90489  .debug_str:000000000000d3e1 .LASF1321
     /tmp/ccOWj8hl.s:95485  .debug_str:00000000000215c0 .LASF1322
     /tmp/ccOWj8hl.s:100905  .debug_str:00000000000371b5 .LASF1323
     /tmp/ccOWj8hl.s:97817  .debug_str:000000000002ab38 .LASF1324
     /tmp/ccOWj8hl.s:92349  .debug_str:00000000000145e4 .LASF1325
     /tmp/ccOWj8hl.s:96769  .debug_str:0000000000026690 .LASF1326
     /tmp/ccOWj8hl.s:95679  .debug_str:00000000000222e2 .LASF1327
     /tmp/ccOWj8hl.s:87959  .debug_str:00000000000028d2 .LASF1328
     /tmp/ccOWj8hl.s:87655  .debug_str:00000000000013bf .LASF1329
     /tmp/ccOWj8hl.s:98085  .debug_str:000000000002bb90 .LASF1330
     /tmp/ccOWj8hl.s:105839  .debug_str:000000000004bc9b .LASF1331
     /tmp/ccOWj8hl.s:102143  .debug_str:000000000003c435 .LASF1332
     /tmp/ccOWj8hl.s:97533  .debug_str:00000000000298c1 .LASF1333
     /tmp/ccOWj8hl.s:88621  .debug_str:000000000000576f .LASF1334
     /tmp/ccOWj8hl.s:103663  .debug_str:00000000000428c5 .LASF1335
     /tmp/ccOWj8hl.s:87569  .debug_str:0000000000000de6 .LASF1336
     /tmp/ccOWj8hl.s:95733  .debug_str:000000000002267f .LASF1337
     /tmp/ccOWj8hl.s:97687  .debug_str:000000000002a275 .LASF1338
     /tmp/ccOWj8hl.s:103013  .debug_str:000000000003fe03 .LASF1339
     /tmp/ccOWj8hl.s:102485  .debug_str:000000000003d9c9 .LASF1340
     /tmp/ccOWj8hl.s:99451  .debug_str:00000000000317e0 .LASF1341
     /tmp/ccOWj8hl.s:102691  .debug_str:000000000003e973 .LASF1342
     /tmp/ccOWj8hl.s:92407  .debug_str:0000000000014991 .LASF1343
     /tmp/ccOWj8hl.s:104317  .debug_str:0000000000045378 .LASF1344
     /tmp/ccOWj8hl.s:101017  .debug_str:00000000000377ec .LASF1345
     /tmp/ccOWj8hl.s:92871  .debug_str:0000000000016815 .LASF1346
     /tmp/ccOWj8hl.s:99849  .debug_str:0000000000033289 .LASF1347
     /tmp/ccOWj8hl.s:103471  .debug_str:0000000000041d21 .LASF1348
     /tmp/ccOWj8hl.s:93041  .debug_str:000000000001735d .LASF1349
     /tmp/ccOWj8hl.s:88831  .debug_str:00000000000064f8 .LASF1350
     /tmp/ccOWj8hl.s:88429  .debug_str:0000000000004a11 .LASF1351
     /tmp/ccOWj8hl.s:92865  .debug_str:00000000000167b7 .LASF1352
     /tmp/ccOWj8hl.s:102543  .debug_str:000000000003de2f .LASF1353
     /tmp/ccOWj8hl.s:105253  .debug_str:00000000000493b7 .LASF1354
     /tmp/ccOWj8hl.s:98097  .debug_str:000000000002bc9f .LASF1355
     /tmp/ccOWj8hl.s:95777  .debug_str:0000000000022932 .LASF1356
     /tmp/ccOWj8hl.s:95125  .debug_str:000000000001fdaf .LASF1357
     /tmp/ccOWj8hl.s:97837  .debug_str:000000000002ac3c .LASF1358
     /tmp/ccOWj8hl.s:94493  .debug_str:000000000001d1a4 .LASF1359
     /tmp/ccOWj8hl.s:93879  .debug_str:000000000001a8d4 .LASF1360
     /tmp/ccOWj8hl.s:89769  .debug_str:000000000000a373 .LASF1361
     /tmp/ccOWj8hl.s:103101  .debug_str:000000000004042c .LASF1362
     /tmp/ccOWj8hl.s:103931  .debug_str:0000000000043a35 .LASF1363
     /tmp/ccOWj8hl.s:94143  .debug_str:000000000001b95c .LASF1364
     /tmp/ccOWj8hl.s:90535  .debug_str:000000000000d6cc .LASF1365
     /tmp/ccOWj8hl.s:103191  .debug_str:0000000000040aff .LASF1366
     /tmp/ccOWj8hl.s:90079  .debug_str:000000000000b996 .LASF1367
     /tmp/ccOWj8hl.s:102401  .debug_str:000000000003d4a9 .LASF1368
     /tmp/ccOWj8hl.s:104625  .debug_str:00000000000467fb .LASF1369
     /tmp/ccOWj8hl.s:97899  .debug_str:000000000002b076 .LASF1370
     /tmp/ccOWj8hl.s:103831  .debug_str:0000000000043381 .LASF1371
     /tmp/ccOWj8hl.s:89243  .debug_str:000000000000800a .LASF1372
     /tmp/ccOWj8hl.s:96429  .debug_str:0000000000024fe5 .LASF1373
     /tmp/ccOWj8hl.s:100951  .debug_str:0000000000037476 .LASF1374
     /tmp/ccOWj8hl.s:102215  .debug_str:000000000003c8fc .LASF1375
     /tmp/ccOWj8hl.s:92405  .debug_str:0000000000014973 .LASF1376
     /tmp/ccOWj8hl.s:93791  .debug_str:000000000001a3c1 .LASF1377
     /tmp/ccOWj8hl.s:103797  .debug_str:0000000000043153 .LASF1378
     /tmp/ccOWj8hl.s:103059  .debug_str:000000000004018a .LASF1379
     /tmp/ccOWj8hl.s:104619  .debug_str:0000000000046788 .LASF1380
     /tmp/ccOWj8hl.s:89705  .debug_str:0000000000009f4e .LASF1381
     /tmp/ccOWj8hl.s:99231  .debug_str:00000000000308de .LASF1382
     /tmp/ccOWj8hl.s:95243  .debug_str:0000000000020607 .LASF1383
     /tmp/ccOWj8hl.s:93881  .debug_str:000000000001a8fd .LASF1384
     /tmp/ccOWj8hl.s:105071  .debug_str:00000000000486e2 .LASF1385
     /tmp/ccOWj8hl.s:104025  .debug_str:000000000004405d .LASF1386
     /tmp/ccOWj8hl.s:96335  .debug_str:0000000000024986 .LASF1387
     /tmp/ccOWj8hl.s:95633  .debug_str:0000000000021f9f .LASF1388
     /tmp/ccOWj8hl.s:89645  .debug_str:0000000000009b43 .LASF1389
     /tmp/ccOWj8hl.s:105747  .debug_str:000000000004b70c .LASF1390
     /tmp/ccOWj8hl.s:97665  .debug_str:000000000002a105 .LASF1391
     /tmp/ccOWj8hl.s:91931  .debug_str:0000000000012c0e .LASF1392
     /tmp/ccOWj8hl.s:98779  .debug_str:000000000002eb3e .LASF1393
     /tmp/ccOWj8hl.s:102139  .debug_str:000000000003c3f8 .LASF1394
     /tmp/ccOWj8hl.s:88147  .debug_str:00000000000035de .LASF1395
     /tmp/ccOWj8hl.s:96683  .debug_str:00000000000260dc .LASF1396
     /tmp/ccOWj8hl.s:99087  .debug_str:000000000002fe44 .LASF1397
     /tmp/ccOWj8hl.s:98757  .debug_str:000000000002e9b3 .LASF1398
     /tmp/ccOWj8hl.s:90225  .debug_str:000000000000c36d .LASF1399
     /tmp/ccOWj8hl.s:89017  .debug_str:00000000000071ab .LASF1400
     /tmp/ccOWj8hl.s:95491  .debug_str:000000000002160d .LASF1401
     /tmp/ccOWj8hl.s:99363  .debug_str:00000000000311f6 .LASF1402
     /tmp/ccOWj8hl.s:105355  .debug_str:0000000000049a2a .LASF1403
     /tmp/ccOWj8hl.s:93745  .debug_str:000000000001a138 .LASF1404
     /tmp/ccOWj8hl.s:97377  .debug_str:0000000000028e75 .LASF1405
     /tmp/ccOWj8hl.s:97823  .debug_str:000000000002ab81 .LASF1406
     /tmp/ccOWj8hl.s:87469  .debug_str:0000000000000766 .LASF1407
     /tmp/ccOWj8hl.s:104485  .debug_str:0000000000045f4a .LASF1408
     /tmp/ccOWj8hl.s:105415  .debug_str:0000000000049f52 .LASF1409
     /tmp/ccOWj8hl.s:91883  .debug_str:00000000000129a3 .LASF1410
     /tmp/ccOWj8hl.s:94343  .debug_str:000000000001c68f .LASF1411
     /tmp/ccOWj8hl.s:98513  .debug_str:000000000002d91a .LASF1412
     /tmp/ccOWj8hl.s:94651  .debug_str:000000000001db7f .LASF1413
     /tmp/ccOWj8hl.s:93863  .debug_str:000000000001a796 .LASF1414
     /tmp/ccOWj8hl.s:103717  .debug_str:0000000000042c5c .LASF1415
     /tmp/ccOWj8hl.s:89137  .debug_str:00000000000078a9 .LASF1416
     /tmp/ccOWj8hl.s:105383  .debug_str:0000000000049c8d .LASF1417
     /tmp/ccOWj8hl.s:100219  .debug_str:0000000000034ac6 .LASF1418
     /tmp/ccOWj8hl.s:103139  .debug_str:000000000004076f .LASF1419
     /tmp/ccOWj8hl.s:97201  .debug_str:0000000000028363 .LASF1420
     /tmp/ccOWj8hl.s:99321  .debug_str:0000000000030eee .LASF1421
     /tmp/ccOWj8hl.s:97303  .debug_str:0000000000028a7b .LASF1422
     /tmp/ccOWj8hl.s:89579  .debug_str:000000000000971d .LASF1423
     /tmp/ccOWj8hl.s:102615  .debug_str:000000000003e35c .LASF1424
     /tmp/ccOWj8hl.s:104945  .debug_str:0000000000047e61 .LASF1425
     /tmp/ccOWj8hl.s:98165  .debug_str:000000000002c0cf .LASF1426
     /tmp/ccOWj8hl.s:89685  .debug_str:0000000000009d7c .LASF1427
     /tmp/ccOWj8hl.s:101751  .debug_str:000000000003aa34 .LASF1428
     /tmp/ccOWj8hl.s:101997  .debug_str:000000000003bb4c .LASF1429
     /tmp/ccOWj8hl.s:100929  .debug_str:0000000000037370 .LASF1430
     /tmp/ccOWj8hl.s:90407  .debug_str:000000000000cf46 .LASF1431
     /tmp/ccOWj8hl.s:97639  .debug_str:0000000000029f1d .LASF1432
     /tmp/ccOWj8hl.s:99469  .debug_str:000000000003192c .LASF1433
     /tmp/ccOWj8hl.s:87421  .debug_str:00000000000003f2 .LASF1434
     /tmp/ccOWj8hl.s:89851  .debug_str:000000000000a912 .LASF1435
     /tmp/ccOWj8hl.s:93465  .debug_str:0000000000018eaa .LASF1436
     /tmp/ccOWj8hl.s:89711  .debug_str:0000000000009fc6 .LASF1437
     /tmp/ccOWj8hl.s:96499  .debug_str:00000000000254d6 .LASF1438
     /tmp/ccOWj8hl.s:102421  .debug_str:000000000003d5e6 .LASF1439
     /tmp/ccOWj8hl.s:93255  .debug_str:0000000000018078 .LASF1440
     /tmp/ccOWj8hl.s:105719  .debug_str:000000000004b551 .LASF1441
     /tmp/ccOWj8hl.s:93859  .debug_str:000000000001a74a .LASF1442
     /tmp/ccOWj8hl.s:100039  .debug_str:0000000000033f60 .LASF1443
     /tmp/ccOWj8hl.s:104477  .debug_str:0000000000045eb5 .LASF1444
     /tmp/ccOWj8hl.s:102265  .debug_str:000000000003cc2f .LASF1445
     /tmp/ccOWj8hl.s:98613  .debug_str:000000000002dffe .LASF1446
     /tmp/ccOWj8hl.s:103375  .debug_str:00000000000416c9 .LASF1447
     /tmp/ccOWj8hl.s:102837  .debug_str:000000000003f309 .LASF1448
     /tmp/ccOWj8hl.s:96461  .debug_str:0000000000025217 .LASF1449
     /tmp/ccOWj8hl.s:89163  .debug_str:0000000000007a6c .LASF1450
     /tmp/ccOWj8hl.s:97433  .debug_str:000000000002921a .LASF1451
     /tmp/ccOWj8hl.s:97015  .debug_str:000000000002779c .LASF1452
     /tmp/ccOWj8hl.s:92043  .debug_str:000000000001330d .LASF1453
     /tmp/ccOWj8hl.s:98915  .debug_str:000000000002f38d .LASF1454
     /tmp/ccOWj8hl.s:92841  .debug_str:00000000000165dd .LASF1455
     /tmp/ccOWj8hl.s:97647  .debug_str:0000000000029f81 .LASF1456
     /tmp/ccOWj8hl.s:89449  .debug_str:0000000000008e14 .LASF1457
     /tmp/ccOWj8hl.s:103925  .debug_str:00000000000439d6 .LASF1458
     /tmp/ccOWj8hl.s:98599  .debug_str:000000000002deb7 .LASF1459
     /tmp/ccOWj8hl.s:88535  .debug_str:00000000000050bc .LASF1460
     /tmp/ccOWj8hl.s:90281  .debug_str:000000000000c6ba .LASF1461
     /tmp/ccOWj8hl.s:88261  .debug_str:0000000000003e09 .LASF1462
     /tmp/ccOWj8hl.s:92745  .debug_str:0000000000015f6c .LASF1463
     /tmp/ccOWj8hl.s:89389  .debug_str:0000000000008a1a .LASF1464
     /tmp/ccOWj8hl.s:98639  .debug_str:000000000002e177 .LASF1465
     /tmp/ccOWj8hl.s:99853  .debug_str:00000000000332e0 .LASF1466
     /tmp/ccOWj8hl.s:96503  .debug_str:0000000000025512 .LASF1467
     /tmp/ccOWj8hl.s:96673  .debug_str:000000000002603b .LASF1468
     /tmp/ccOWj8hl.s:91723  .debug_str:0000000000011e43 .LASF1469
     /tmp/ccOWj8hl.s:100595  .debug_str:00000000000361be .LASF1470
     /tmp/ccOWj8hl.s:90803  .debug_str:000000000000e4fa .LASF1471
     /tmp/ccOWj8hl.s:88159  .debug_str:00000000000036b2 .LASF1472
     /tmp/ccOWj8hl.s:105599  .debug_str:000000000004ad2e .LASF1473
     /tmp/ccOWj8hl.s:98081  .debug_str:000000000002bb48 .LASF1474
     /tmp/ccOWj8hl.s:100561  .debug_str:0000000000035f82 .LASF1475
     /tmp/ccOWj8hl.s:105345  .debug_str:000000000004997a .LASF1476
     /tmp/ccOWj8hl.s:95075  .debug_str:000000000001fa15 .LASF1477
     /tmp/ccOWj8hl.s:95189  .debug_str:0000000000020243 .LASF1478
     /tmp/ccOWj8hl.s:100429  .debug_str:0000000000035802 .LASF1479
     /tmp/ccOWj8hl.s:90215  .debug_str:000000000000c2ae .LASF1480
     /tmp/ccOWj8hl.s:100083  .debug_str:0000000000034201 .LASF1481
     /tmp/ccOWj8hl.s:99771  .debug_str:0000000000032d36 .LASF1482
     /tmp/ccOWj8hl.s:90005  .debug_str:000000000000b4ee .LASF1483
     /tmp/ccOWj8hl.s:91611  .debug_str:00000000000116f5 .LASF1484
     /tmp/ccOWj8hl.s:97233  .debug_str:000000000002857f .LASF1485
     /tmp/ccOWj8hl.s:90389  .debug_str:000000000000ce0b .LASF1486
     /tmp/ccOWj8hl.s:102031  .debug_str:000000000003bd87 .LASF1487
     /tmp/ccOWj8hl.s:87951  .debug_str:0000000000002865 .LASF1488
     /tmp/ccOWj8hl.s:99079  .debug_str:000000000002fd91 .LASF1489
     /tmp/ccOWj8hl.s:101141  .debug_str:000000000003809f .LASF1490
     /tmp/ccOWj8hl.s:102561  .debug_str:000000000003dfa4 .LASF1491
     /tmp/ccOWj8hl.s:93331  .debug_str:00000000000185dc .LASF1492
     /tmp/ccOWj8hl.s:98295  .debug_str:000000000002c9d6 .LASF1493
     /tmp/ccOWj8hl.s:98859  .debug_str:000000000002f01c .LASF1494
     /tmp/ccOWj8hl.s:92207  .debug_str:0000000000013d10 .LASF1495
     /tmp/ccOWj8hl.s:98769  .debug_str:000000000002ea67 .LASF1496
     /tmp/ccOWj8hl.s:90379  .debug_str:000000000000cd53 .LASF1497
     /tmp/ccOWj8hl.s:95797  .debug_str:0000000000022aa9 .LASF1498
     /tmp/ccOWj8hl.s:98745  .debug_str:000000000002e8c2 .LASF1499
     /tmp/ccOWj8hl.s:91977  .debug_str:0000000000012f34 .LASF1500
     /tmp/ccOWj8hl.s:87829  .debug_str:000000000000201f .LASF1501
     /tmp/ccOWj8hl.s:94073  .debug_str:000000000001b4e9 .LASF1502
     /tmp/ccOWj8hl.s:90517  .debug_str:000000000000d5ab .LASF1503
     /tmp/ccOWj8hl.s:101117  .debug_str:0000000000037eb7 .LASF1504
     /tmp/ccOWj8hl.s:98777  .debug_str:000000000002eb14 .LASF1505
     /tmp/ccOWj8hl.s:93985  .debug_str:000000000001af78 .LASF1506
     /tmp/ccOWj8hl.s:97301  .debug_str:0000000000028a55 .LASF1507
     /tmp/ccOWj8hl.s:103727  .debug_str:0000000000042d4b .LASF1508
     /tmp/ccOWj8hl.s:89435  .debug_str:0000000000008d2f .LASF1509
     /tmp/ccOWj8hl.s:101895  .debug_str:000000000003b45e .LASF1510
     /tmp/ccOWj8hl.s:95683  .debug_str:000000000002231a .LASF1511
     /tmp/ccOWj8hl.s:98895  .debug_str:000000000002f23a .LASF1512
     /tmp/ccOWj8hl.s:89625  .debug_str:00000000000099df .LASF1513
     /tmp/ccOWj8hl.s:93003  .debug_str:00000000000170c3 .LASF1514
     /tmp/ccOWj8hl.s:90157  .debug_str:000000000000bea8 .LASF1515
     /tmp/ccOWj8hl.s:98153  .debug_str:000000000002c026 .LASF1516
     /tmp/ccOWj8hl.s:90911  .debug_str:000000000000eb84 .LASF1517
     /tmp/ccOWj8hl.s:94441  .debug_str:000000000001cdbc .LASF1518
     /tmp/ccOWj8hl.s:91133  .debug_str:000000000000f82e .LASF1519
     /tmp/ccOWj8hl.s:96479  .debug_str:000000000002536d .LASF1520
     /tmp/ccOWj8hl.s:91393  .debug_str:0000000000010841 .LASF1521
     /tmp/ccOWj8hl.s:102855  .debug_str:000000000003f437 .LASF1522
     /tmp/ccOWj8hl.s:104027  .debug_str:000000000004407e .LASF1523
     /tmp/ccOWj8hl.s:88751  .debug_str:0000000000005f4d .LASF1524
     /tmp/ccOWj8hl.s:90947  .debug_str:000000000000ecd9 .LASF1525
     /tmp/ccOWj8hl.s:98825  .debug_str:000000000002ee25 .LASF1526
     /tmp/ccOWj8hl.s:102333  .debug_str:000000000003d0b4 .LASF1527
     /tmp/ccOWj8hl.s:95943  .debug_str:0000000000023460 .LASF1528
     /tmp/ccOWj8hl.s:102237  .debug_str:000000000003ca6d .LASF1529
     /tmp/ccOWj8hl.s:88707  .debug_str:0000000000005cc7 .LASF1530
     /tmp/ccOWj8hl.s:93889  .debug_str:000000000001a992 .LASF1531
     /tmp/ccOWj8hl.s:104893  .debug_str:0000000000047a62 .LASF1532
     /tmp/ccOWj8hl.s:97585  .debug_str:0000000000029c2a .LASF1533
     /tmp/ccOWj8hl.s:93911  .debug_str:000000000001ab3a .LASF1534
     /tmp/ccOWj8hl.s:95695  .debug_str:00000000000223f1 .LASF1535
     /tmp/ccOWj8hl.s:88503  .debug_str:0000000000004ec3 .LASF1536
     /tmp/ccOWj8hl.s:95115  .debug_str:000000000001fcd9 .LASF1537
     /tmp/ccOWj8hl.s:91513  .debug_str:0000000000010fd6 .LASF1538
     /tmp/ccOWj8hl.s:87757  .debug_str:0000000000001b16 .LASF1539
     /tmp/ccOWj8hl.s:93833  .debug_str:000000000001a63a .LASF1540
     /tmp/ccOWj8hl.s:103115  .debug_str:0000000000040567 .LASF1541
     /tmp/ccOWj8hl.s:96855  .debug_str:0000000000026be1 .LASF1542
     /tmp/ccOWj8hl.s:94589  .debug_str:000000000001d7cd .LASF1543
     /tmp/ccOWj8hl.s:88031  .debug_str:0000000000002ed3 .LASF1544
     /tmp/ccOWj8hl.s:99311  .debug_str:0000000000030e34 .LASF1545
     /tmp/ccOWj8hl.s:93509  .debug_str:00000000000191da .LASF1546
     /tmp/ccOWj8hl.s:102447  .debug_str:000000000003d79c .LASF1547
     /tmp/ccOWj8hl.s:104009  .debug_str:0000000000043f28 .LASF1548
     /tmp/ccOWj8hl.s:89177  .debug_str:0000000000007b4c .LASF1549
     /tmp/ccOWj8hl.s:93301  .debug_str:0000000000018399 .LASF1550
     /tmp/ccOWj8hl.s:101331  .debug_str:0000000000038dd5 .LASF1551
     /tmp/ccOWj8hl.s:104171  .debug_str:0000000000044a5e .LASF1552
     /tmp/ccOWj8hl.s:99257  .debug_str:0000000000030ae8 .LASF1553
     /tmp/ccOWj8hl.s:104633  .debug_str:000000000004688b .LASF1554
     /tmp/ccOWj8hl.s:95347  .debug_str:0000000000020c58 .LASF1555
     /tmp/ccOWj8hl.s:99523  .debug_str:0000000000031ccd .LASF1556
     /tmp/ccOWj8hl.s:89043  .debug_str:0000000000007344 .LASF1557
     /tmp/ccOWj8hl.s:104549  .debug_str:0000000000046355 .LASF1558
     /tmp/ccOWj8hl.s:93229  .debug_str:0000000000017e96 .LASF1559
     /tmp/ccOWj8hl.s:100483  .debug_str:0000000000035b35 .LASF1560
     /tmp/ccOWj8hl.s:100163  .debug_str:0000000000034767 .LASF1561
     /tmp/ccOWj8hl.s:94817  .debug_str:000000000001e779 .LASF1562
     /tmp/ccOWj8hl.s:96921  .debug_str:00000000000270ba .LASF1563
     /tmp/ccOWj8hl.s:104665  .debug_str:0000000000046adf .LASF1564
     /tmp/ccOWj8hl.s:88333  .debug_str:00000000000042ef .LASF1565
     /tmp/ccOWj8hl.s:96053  .debug_str:0000000000023b1c .LASF1566
     /tmp/ccOWj8hl.s:88293  .debug_str:00000000000040bd .LASF1567
     /tmp/ccOWj8hl.s:102173  .debug_str:000000000003c627 .LASF1568
     /tmp/ccOWj8hl.s:89331  .debug_str:00000000000085d1 .LASF1569
     /tmp/ccOWj8hl.s:104745  .debug_str:0000000000046fed .LASF1570
     /tmp/ccOWj8hl.s:99695  .debug_str:000000000003287f .LASF1571
     /tmp/ccOWj8hl.s:105099  .debug_str:00000000000488ed .LASF1572
     /tmp/ccOWj8hl.s:95545  .debug_str:00000000000219c7 .LASF1573
     /tmp/ccOWj8hl.s:93655  .debug_str:0000000000019c30 .LASF1574
     /tmp/ccOWj8hl.s:105557  .debug_str:000000000004aa0f .LASF1575
     /tmp/ccOWj8hl.s:90839  .debug_str:000000000000e7cd .LASF1576
     /tmp/ccOWj8hl.s:102181  .debug_str:000000000003c6ca .LASF1577
     /tmp/ccOWj8hl.s:102881  .debug_str:000000000003f5fb .LASF1578
     /tmp/ccOWj8hl.s:104179  .debug_str:0000000000044ac0 .LASF1579
     /tmp/ccOWj8hl.s:96205  .debug_str:0000000000024286 .LASF1580
     /tmp/ccOWj8hl.s:97651  .debug_str:0000000000029fb9 .LASF1581
     /tmp/ccOWj8hl.s:103825  .debug_str:0000000000043313 .LASF1582
     /tmp/ccOWj8hl.s:87367  .debug_str:0000000000000069 .LASF1583
     /tmp/ccOWj8hl.s:95455  .debug_str:000000000002138d .LASF1584
     /tmp/ccOWj8hl.s:97479  .debug_str:00000000000294ef .LASF1585
     /tmp/ccOWj8hl.s:92203  .debug_str:0000000000013cd4 .LASF1586
     /tmp/ccOWj8hl.s:88601  .debug_str:00000000000055ff .LASF1587
     /tmp/ccOWj8hl.s:101817  .debug_str:000000000003aeaf .LASF1588
     /tmp/ccOWj8hl.s:96583  .debug_str:000000000002598a .LASF1589
     /tmp/ccOWj8hl.s:87925  .debug_str:00000000000026bf .LASF1590
     /tmp/ccOWj8hl.s:97569  .debug_str:0000000000029b1a .LASF1591
     /tmp/ccOWj8hl.s:98287  .debug_str:000000000002c981 .LASF1592
     /tmp/ccOWj8hl.s:88703  .debug_str:0000000000005c57 .LASF1593
     /tmp/ccOWj8hl.s:92937  .debug_str:0000000000016cbe .LASF1594
     /tmp/ccOWj8hl.s:89855  .debug_str:000000000000a970 .LASF1595
     /tmp/ccOWj8hl.s:103063  .debug_str:00000000000401d0 .LASF1596
     /tmp/ccOWj8hl.s:101279  .debug_str:00000000000389ab .LASF1597
     /tmp/ccOWj8hl.s:95691  .debug_str:00000000000223b5 .LASF1598
     /tmp/ccOWj8hl.s:94403  .debug_str:000000000001cad7 .LASF1599
     /tmp/ccOWj8hl.s:105201  .debug_str:0000000000048fc0 .LASF1600
     /tmp/ccOWj8hl.s:105361  .debug_str:0000000000049a70 .LASF1601
     /tmp/ccOWj8hl.s:95831  .debug_str:0000000000022d59 .LASF1602
     /tmp/ccOWj8hl.s:91485  .debug_str:0000000000010dcb .LASF1603
     /tmp/ccOWj8hl.s:100589  .debug_str:0000000000036142 .LASF1604
     /tmp/ccOWj8hl.s:94851  .debug_str:000000000001ea63 .LASF1605
     /tmp/ccOWj8hl.s:101453  .debug_str:0000000000039598 .LASF1606
     /tmp/ccOWj8hl.s:94303  .debug_str:000000000001c3e2 .LASF1607
     /tmp/ccOWj8hl.s:91509  .debug_str:0000000000010f7f .LASF1608
     /tmp/ccOWj8hl.s:88783  .debug_str:0000000000006169 .LASF1609
     /tmp/ccOWj8hl.s:98887  .debug_str:000000000002f1ce .LASF1610
     /tmp/ccOWj8hl.s:92343  .debug_str:0000000000014576 .LASF1611
     /tmp/ccOWj8hl.s:105163  .debug_str:0000000000048d0c .LASF1612
     /tmp/ccOWj8hl.s:94357  .debug_str:000000000001c7eb .LASF1613
     /tmp/ccOWj8hl.s:91317  .debug_str:000000000001036e .LASF1614
     /tmp/ccOWj8hl.s:103535  .debug_str:0000000000042146 .LASF1615
     /tmp/ccOWj8hl.s:97925  .debug_str:000000000002b1df .LASF1616
     /tmp/ccOWj8hl.s:98839  .debug_str:000000000002ef0c .LASF1617
     /tmp/ccOWj8hl.s:88205  .debug_str:0000000000003a20 .LASF1618
     /tmp/ccOWj8hl.s:87979  .debug_str:0000000000002aa1 .LASF1619
     /tmp/ccOWj8hl.s:89807  .debug_str:000000000000a645 .LASF1620
     /tmp/ccOWj8hl.s:102071  .debug_str:000000000003c067 .LASF1621
     /tmp/ccOWj8hl.s:99077  .debug_str:000000000002fd6e .LASF1622
     /tmp/ccOWj8hl.s:89941  .debug_str:000000000000afdc .LASF1623
     /tmp/ccOWj8hl.s:100387  .debug_str:00000000000354d4 .LASF1624
     /tmp/ccOWj8hl.s:103937  .debug_str:0000000000043aa0 .LASF1625
     /tmp/ccOWj8hl.s:90699  .debug_str:000000000000e00d .LASF1626
     /tmp/ccOWj8hl.s:87837  .debug_str:0000000000002098 .LASF1627
     /tmp/ccOWj8hl.s:94569  .debug_str:000000000001d63a .LASF1628
     /tmp/ccOWj8hl.s:101947  .debug_str:000000000003b81a .LASF1629
     /tmp/ccOWj8hl.s:103643  .debug_str:00000000000427bd .LASF1630
     /tmp/ccOWj8hl.s:101209  .debug_str:0000000000038535 .LASF1631
     /tmp/ccOWj8hl.s:103815  .debug_str:000000000004329e .LASF1632
     /tmp/ccOWj8hl.s:96565  .debug_str:00000000000258b6 .LASF1633
     /tmp/ccOWj8hl.s:94319  .debug_str:000000000001c4e3 .LASF1634
     /tmp/ccOWj8hl.s:88563  .debug_str:00000000000052e0 .LASF1635
     /tmp/ccOWj8hl.s:99557  .debug_str:0000000000031ee8 .LASF1636
     /tmp/ccOWj8hl.s:102671  .debug_str:000000000003e7e9 .LASF1637
     /tmp/ccOWj8hl.s:93013  .debug_str:000000000001718e .LASF1638
     /tmp/ccOWj8hl.s:105069  .debug_str:00000000000486c7 .LASF1639
     /tmp/ccOWj8hl.s:92007  .debug_str:0000000000013112 .LASF1640
     /tmp/ccOWj8hl.s:100587  .debug_str:0000000000036127 .LASF1641
     /tmp/ccOWj8hl.s:105831  .debug_str:000000000004bc02 .LASF1642
     /tmp/ccOWj8hl.s:103463  .debug_str:0000000000041ca2 .LASF1643
     /tmp/ccOWj8hl.s:105265  .debug_str:000000000004949e .LASF1644
     /tmp/ccOWj8hl.s:95113  .debug_str:000000000001fcb1 .LASF1645
     /tmp/ccOWj8hl.s:87547  .debug_str:0000000000000c60 .LASF1646
     /tmp/ccOWj8hl.s:104101  .debug_str:0000000000044568 .LASF1647
     /tmp/ccOWj8hl.s:92909  .debug_str:0000000000016af6 .LASF1648
     /tmp/ccOWj8hl.s:104585  .debug_str:00000000000465db .LASF1649
     /tmp/ccOWj8hl.s:89551  .debug_str:000000000000958f .LASF1650
     /tmp/ccOWj8hl.s:95167  .debug_str:00000000000200ab .LASF1651
     /tmp/ccOWj8hl.s:96349  .debug_str:0000000000024a6a .LASF1652
     /tmp/ccOWj8hl.s:96475  .debug_str:0000000000025308 .LASF1653
     /tmp/ccOWj8hl.s:91685  .debug_str:0000000000011bbe .LASF1654
     /tmp/ccOWj8hl.s:105475  .debug_str:000000000004a481 .LASF1655
     /tmp/ccOWj8hl.s:100379  .debug_str:000000000003548b .LASF1656
     /tmp/ccOWj8hl.s:90477  .debug_str:000000000000d30f .LASF1657
     /tmp/ccOWj8hl.s:89413  .debug_str:0000000000008b58 .LASF1658
     /tmp/ccOWj8hl.s:99917  .debug_str:0000000000033785 .LASF1659
     /tmp/ccOWj8hl.s:102843  .debug_str:000000000003f361 .LASF1660
     /tmp/ccOWj8hl.s:97163  .debug_str:00000000000280bd .LASF1661
     /tmp/ccOWj8hl.s:98397  .debug_str:000000000002d0ad .LASF1662
     /tmp/ccOWj8hl.s:91443  .debug_str:0000000000010ab7 .LASF1663
     /tmp/ccOWj8hl.s:94941  .debug_str:000000000001f134 .LASF1664
     /tmp/ccOWj8hl.s:98735  .debug_str:000000000002e800 .LASF1665
     /tmp/ccOWj8hl.s:95093  .debug_str:000000000001fb54 .LASF1666
     /tmp/ccOWj8hl.s:89015  .debug_str:0000000000007182 .LASF1667
     /tmp/ccOWj8hl.s:92867  .debug_str:00000000000167e1 .LASF1668
     /tmp/ccOWj8hl.s:92833  .debug_str:0000000000016532 .LASF1669
     /tmp/ccOWj8hl.s:88089  .debug_str:0000000000003266 .LASF1670
     /tmp/ccOWj8hl.s:101935  .debug_str:000000000003b741 .LASF1671
     /tmp/ccOWj8hl.s:88515  .debug_str:0000000000004f7c .LASF1672
     /tmp/ccOWj8hl.s:88817  .debug_str:00000000000063ca .LASF1673
     /tmp/ccOWj8hl.s:100197  .debug_str:0000000000034921 .LASF1674
     /tmp/ccOWj8hl.s:97469  .debug_str:0000000000029485 .LASF1675
     /tmp/ccOWj8hl.s:102861  .debug_str:000000000003f4c2 .LASF1676
     /tmp/ccOWj8hl.s:103579  .debug_str:0000000000042380 .LASF1677
     /tmp/ccOWj8hl.s:101665  .debug_str:000000000003a495 .LASF1678
     /tmp/ccOWj8hl.s:92621  .debug_str:0000000000015753 .LASF1679
     /tmp/ccOWj8hl.s:95703  .debug_str:0000000000022452 .LASF1680
     /tmp/ccOWj8hl.s:88669  .debug_str:0000000000005a90 .LASF1681
     /tmp/ccOWj8hl.s:90973  .debug_str:000000000000ef41 .LASF1682
     /tmp/ccOWj8hl.s:94225  .debug_str:000000000001bea8 .LASF1683
     /tmp/ccOWj8hl.s:98773  .debug_str:000000000002eaba .LASF1684
     /tmp/ccOWj8hl.s:105245  .debug_str:000000000004932f .LASF1685
     /tmp/ccOWj8hl.s:104335  .debug_str:000000000004548b .LASF1686
     /tmp/ccOWj8hl.s:98155  .debug_str:000000000002c04e .LASF1687
     /tmp/ccOWj8hl.s:104343  .debug_str:00000000000454f5 .LASF1688
     /tmp/ccOWj8hl.s:97887  .debug_str:000000000002afcc .LASF1689
     /tmp/ccOWj8hl.s:101513  .debug_str:0000000000039a3b .LASF1690
     /tmp/ccOWj8hl.s:94035  .debug_str:000000000001b277 .LASF1691
     /tmp/ccOWj8hl.s:105765  .debug_str:000000000004b792 .LASF1692
     /tmp/ccOWj8hl.s:89791  .debug_str:000000000000a4eb .LASF1693
     /tmp/ccOWj8hl.s:102425  .debug_str:000000000003d614 .LASF1694
     /tmp/ccOWj8hl.s:95795  .debug_str:0000000000022a80 .LASF1695
     /tmp/ccOWj8hl.s:99765  .debug_str:0000000000032cb9 .LASF1696
     /tmp/ccOWj8hl.s:104813  .debug_str:0000000000047413 .LASF1697
     /tmp/ccOWj8hl.s:89467  .debug_str:0000000000008f2c .LASF1698
     /tmp/ccOWj8hl.s:99757  .debug_str:0000000000032c17 .LASF1699
     /tmp/ccOWj8hl.s:103489  .debug_str:0000000000041e45 .LASF1700
     /tmp/ccOWj8hl.s:90029  .debug_str:000000000000b644 .LASF1701
     /tmp/ccOWj8hl.s:91601  .debug_str:0000000000011629 .LASF1702
     /tmp/ccOWj8hl.s:91433  .debug_str:0000000000010a14 .LASF1703
     /tmp/ccOWj8hl.s:105473  .debug_str:000000000004a45f .LASF1704
     /tmp/ccOWj8hl.s:100641  .debug_str:00000000000363f6 .LASF1705
     /tmp/ccOWj8hl.s:89341  .debug_str:0000000000008684 .LASF1706
     /tmp/ccOWj8hl.s:104295  .debug_str:0000000000045202 .LASF1707
     /tmp/ccOWj8hl.s:103515  .debug_str:0000000000041fc7 .LASF1708
     /tmp/ccOWj8hl.s:94821  .debug_str:000000000001e7a7 .LASF1709
     /tmp/ccOWj8hl.s:102009  .debug_str:000000000003bbd5 .LASF1710
     /tmp/ccOWj8hl.s:101811  .debug_str:000000000003ae5d .LASF1711
     /tmp/ccOWj8hl.s:97549  .debug_str:00000000000299ab .LASF1712
     /tmp/ccOWj8hl.s:92215  .debug_str:0000000000013d78 .LASF1713
     /tmp/ccOWj8hl.s:90077  .debug_str:000000000000b974 .LASF1714
     /tmp/ccOWj8hl.s:93725  .debug_str:000000000001a04c .LASF1715
     /tmp/ccOWj8hl.s:104077  .debug_str:0000000000044368 .LASF1716
     /tmp/ccOWj8hl.s:102793  .debug_str:000000000003f003 .LASF1717
     /tmp/ccOWj8hl.s:87991  .debug_str:0000000000002b67 .LASF1718
     /tmp/ccOWj8hl.s:87849  .debug_str:000000000000217f .LASF1719
     /tmp/ccOWj8hl.s:87485  .debug_str:0000000000000896 .LASF1720
     /tmp/ccOWj8hl.s:97085  .debug_str:0000000000027b13 .LASF1721
     /tmp/ccOWj8hl.s:99723  .debug_str:00000000000329dc .LASF1722
     /tmp/ccOWj8hl.s:102617  .debug_str:000000000003e37b .LASF1723
     /tmp/ccOWj8hl.s:93175  .debug_str:0000000000017bab .LASF1724
     /tmp/ccOWj8hl.s:101533  .debug_str:0000000000039b77 .LASF1725
     /tmp/ccOWj8hl.s:97117  .debug_str:0000000000027dd0 .LASF1726
     /tmp/ccOWj8hl.s:103495  .debug_str:0000000000041ea3 .LASF1727
     /tmp/ccOWj8hl.s:101717  .debug_str:000000000003a81f .LASF1728
     /tmp/ccOWj8hl.s:95623  .debug_str:0000000000021ec2 .LASF1729
     /tmp/ccOWj8hl.s:98301  .debug_str:000000000002ca32 .LASF1730
     /tmp/ccOWj8hl.s:101969  .debug_str:000000000003b983 .LASF1731
     /tmp/ccOWj8hl.s:93165  .debug_str:0000000000017ae6 .LASF1732
     /tmp/ccOWj8hl.s:99669  .debug_str:0000000000032619 .LASF1733
     /tmp/ccOWj8hl.s:103169  .debug_str:0000000000040988 .LASF1734
     /tmp/ccOWj8hl.s:101585  .debug_str:0000000000039f36 .LASF1735
     /tmp/ccOWj8hl.s:93447  .debug_str:0000000000018de5 .LASF1736
     /tmp/ccOWj8hl.s:99413  .debug_str:0000000000031547 .LASF1737
     /tmp/ccOWj8hl.s:87693  .debug_str:0000000000001641 .LASF1738
     /tmp/ccOWj8hl.s:89149  .debug_str:0000000000007970 .LASF1739
     /tmp/ccOWj8hl.s:89601  .debug_str:0000000000009820 .LASF1740
     /tmp/ccOWj8hl.s:96703  .debug_str:000000000002628c .LASF1741
     /tmp/ccOWj8hl.s:101697  .debug_str:000000000003a6a7 .LASF1742
     /tmp/ccOWj8hl.s:94991  .debug_str:000000000001f529 .LASF1743
     /tmp/ccOWj8hl.s:91703  .debug_str:0000000000011ccb .LASF1744
     /tmp/ccOWj8hl.s:101121  .debug_str:0000000000037f10 .LASF1745
     /tmp/ccOWj8hl.s:100329  .debug_str:00000000000351ca .LASF1746
     /tmp/ccOWj8hl.s:104889  .debug_str:0000000000047a1a .LASF1747
     /tmp/ccOWj8hl.s:95441  .debug_str:000000000002127f .LASF1748
     /tmp/ccOWj8hl.s:100857  .debug_str:0000000000036f9d .LASF1749
     /tmp/ccOWj8hl.s:105467  .debug_str:000000000004a3cf .LASF1750
     /tmp/ccOWj8hl.s:98701  .debug_str:000000000002e573 .LASF1751
     /tmp/ccOWj8hl.s:99679  .debug_str:00000000000326c5 .LASF1752
     /tmp/ccOWj8hl.s:96689  .debug_str:0000000000026147 .LASF1753
     /tmp/ccOWj8hl.s:93873  .debug_str:000000000001a83e .LASF1754
     /tmp/ccOWj8hl.s:105277  .debug_str:0000000000049587 .LASF1755
     /tmp/ccOWj8hl.s:102895  .debug_str:000000000003f728 .LASF1756
     /tmp/ccOWj8hl.s:97919  .debug_str:000000000002b165 .LASF1757
     /tmp/ccOWj8hl.s:96293  .debug_str:00000000000246d3 .LASF1758
     /tmp/ccOWj8hl.s:94015  .debug_str:000000000001b16c .LASF1759
     /tmp/ccOWj8hl.s:101507  .debug_str:00000000000399c5 .LASF1760
     /tmp/ccOWj8hl.s:90181  .debug_str:000000000000c011 .LASF1761
     /tmp/ccOWj8hl.s:89347  .debug_str:00000000000086e9 .LASF1762
     /tmp/ccOWj8hl.s:99873  .debug_str:0000000000033458 .LASF1763
     /tmp/ccOWj8hl.s:90483  .debug_str:000000000000d383 .LASF1764
     /tmp/ccOWj8hl.s:102899  .debug_str:000000000003f7a4 .LASF1765
     /tmp/ccOWj8hl.s:105835  .debug_str:000000000004bc63 .LASF1766
     /tmp/ccOWj8hl.s:95791  .debug_str:0000000000022a2e .LASF1767
     /tmp/ccOWj8hl.s:102721  .debug_str:000000000003eb1e .LASF1768
     /tmp/ccOWj8hl.s:98761  .debug_str:000000000002e9fa .LASF1769
     /tmp/ccOWj8hl.s:90843  .debug_str:000000000000e80d .LASF1770
     /tmp/ccOWj8hl.s:97291  .debug_str:000000000002898f .LASF1771
     /tmp/ccOWj8hl.s:87871  .debug_str:00000000000022cd .LASF1772
     /tmp/ccOWj8hl.s:88715  .debug_str:0000000000005d3c .LASF1773
     /tmp/ccOWj8hl.s:88529  .debug_str:000000000000506d .LASF1774
     /tmp/ccOWj8hl.s:99089  .debug_str:000000000002fe6a .LASF1775
     /tmp/ccOWj8hl.s:96381  .debug_str:0000000000024c69 .LASF1776
     /tmp/ccOWj8hl.s:105541  .debug_str:000000000004a8e8 .LASF1777
     /tmp/ccOWj8hl.s:98911  .debug_str:000000000002f35d .LASF1778
     /tmp/ccOWj8hl.s:91233  .debug_str:000000000000fe1e .LASF1779
     /tmp/ccOWj8hl.s:87439  .debug_str:0000000000000598 .LASF1780
     /tmp/ccOWj8hl.s:91387  .debug_str:00000000000107c2 .LASF1781
     /tmp/ccOWj8hl.s:93457  .debug_str:0000000000018e48 .LASF1782
     /tmp/ccOWj8hl.s:105707  .debug_str:000000000004b442 .LASF1783
     /tmp/ccOWj8hl.s:97551  .debug_str:00000000000299cc .LASF1784
     /tmp/ccOWj8hl.s:87377  .debug_str:0000000000000116 .LASF1785
     /tmp/ccOWj8hl.s:95547  .debug_str:00000000000219e7 .LASF1786
     /tmp/ccOWj8hl.s:105227  .debug_str:0000000000049181 .LASF1787
     /tmp/ccOWj8hl.s:94527  .debug_str:000000000001d377 .LASF1788
     /tmp/ccOWj8hl.s:99561  .debug_str:0000000000031f22 .LASF1789
     /tmp/ccOWj8hl.s:104741  .debug_str:0000000000046f7c .LASF1790
     /tmp/ccOWj8hl.s:97813  .debug_str:000000000002aae9 .LASF1791
     /tmp/ccOWj8hl.s:89123  .debug_str:00000000000077fc .LASF1792
     /tmp/ccOWj8hl.s:93945  .debug_str:000000000001ad2a .LASF1793
     /tmp/ccOWj8hl.s:101491  .debug_str:0000000000039869 .LASF1794
     /tmp/ccOWj8hl.s:89047  .debug_str:0000000000007389 .LASF1795
     /tmp/ccOWj8hl.s:99263  .debug_str:0000000000030b51 .LASF1796
     /tmp/ccOWj8hl.s:102959  .debug_str:000000000003faa9 .LASF1797
     /tmp/ccOWj8hl.s:90021  .debug_str:000000000000b5f3 .LASF1798
     /tmp/ccOWj8hl.s:88639  .debug_str:0000000000005895 .LASF1799
     /tmp/ccOWj8hl.s:102319  .debug_str:000000000003cfbe .LASF1800
     /tmp/ccOWj8hl.s:101535  .debug_str:0000000000039b9b .LASF1801
     /tmp/ccOWj8hl.s:98577  .debug_str:000000000002dd1e .LASF1802
     /tmp/ccOWj8hl.s:89103  .debug_str:0000000000007719 .LASF1803
     /tmp/ccOWj8hl.s:100071  .debug_str:000000000003412e .LASF1804
     /tmp/ccOWj8hl.s:103701  .debug_str:0000000000042b3f .LASF1805
     /tmp/ccOWj8hl.s:88129  .debug_str:0000000000003479 .LASF1806
     /tmp/ccOWj8hl.s:101731  .debug_str:000000000003a910 .LASF1807
     /tmp/ccOWj8hl.s:101031  .debug_str:0000000000037882 .LASF1808
     /tmp/ccOWj8hl.s:99741  .debug_str:0000000000032af6 .LASF1809
     /tmp/ccOWj8hl.s:95121  .debug_str:000000000001fd68 .LASF1810
     /tmp/ccOWj8hl.s:100255  .debug_str:0000000000034d79 .LASF1811
     /tmp/ccOWj8hl.s:92603  .debug_str:00000000000155ca .LASF1812
     /tmp/ccOWj8hl.s:92677  .debug_str:0000000000015ad5 .LASF1813
     /tmp/ccOWj8hl.s:103183  .debug_str:0000000000040a6a .LASF1814
     /tmp/ccOWj8hl.s:88945  .debug_str:0000000000006d05 .LASF1815
     /tmp/ccOWj8hl.s:91829  .debug_str:0000000000012589 .LASF1816
     /tmp/ccOWj8hl.s:88365  .debug_str:0000000000004505 .LASF1817
     /tmp/ccOWj8hl.s:98073  .debug_str:000000000002baac .LASF1818
     /tmp/ccOWj8hl.s:101467  .debug_str:00000000000396ab .LASF1819
     /tmp/ccOWj8hl.s:103547  .debug_str:00000000000421bf .LASF1820
     /tmp/ccOWj8hl.s:100067  .debug_str:0000000000034106 .LASF1821
     /tmp/ccOWj8hl.s:94961  .debug_str:000000000001f360 .LASF1822
     /tmp/ccOWj8hl.s:101561  .debug_str:0000000000039d4a .LASF1823
     /tmp/ccOWj8hl.s:91575  .debug_str:000000000001140f .LASF1824
     /tmp/ccOWj8hl.s:103055  .debug_str:0000000000040126 .LASF1825
     /tmp/ccOWj8hl.s:97601  .debug_str:0000000000029d5d .LASF1826
     /tmp/ccOWj8hl.s:94213  .debug_str:000000000001bddc .LASF1827
     /tmp/ccOWj8hl.s:94507  .debug_str:000000000001d254 .LASF1828
     /tmp/ccOWj8hl.s:91825  .debug_str:0000000000012533 .LASF1829
     /tmp/ccOWj8hl.s:95091  .debug_str:000000000001fb30 .LASF1830
     /tmp/ccOWj8hl.s:95823  .debug_str:0000000000022c88 .LASF1831
     /tmp/ccOWj8hl.s:103163  .debug_str:0000000000040921 .LASF1832
     /tmp/ccOWj8hl.s:90931  .debug_str:000000000000ec44 .LASF1833
     /tmp/ccOWj8hl.s:93619  .debug_str:0000000000019955 .LASF1834
     /tmp/ccOWj8hl.s:94711  .debug_str:000000000001e088 .LASF1835
     /tmp/ccOWj8hl.s:95705  .debug_str:000000000002247a .LASF1836
     /tmp/ccOWj8hl.s:95715  .debug_str:0000000000022533 .LASF1837
     /tmp/ccOWj8hl.s:96749  .debug_str:000000000002654d .LASF1838
     /tmp/ccOWj8hl.s:98469  .debug_str:000000000002d629 .LASF1839
     /tmp/ccOWj8hl.s:90087  .debug_str:000000000000b9f1 .LASF1840
     /tmp/ccOWj8hl.s:97089  .debug_str:0000000000027b69 .LASF1841
     /tmp/ccOWj8hl.s:92281  .debug_str:000000000001413b .LASF1842
     /tmp/ccOWj8hl.s:98129  .debug_str:000000000002beb5 .LASF1843
     /tmp/ccOWj8hl.s:95857  .debug_str:0000000000022f31 .LASF1844
     /tmp/ccOWj8hl.s:105327  .debug_str:000000000004987a .LASF1845
     /tmp/ccOWj8hl.s:97989  .debug_str:000000000002b569 .LASF1846
     /tmp/ccOWj8hl.s:104409  .debug_str:00000000000459b6 .LASF1847
     /tmp/ccOWj8hl.s:102005  .debug_str:000000000003bba8 .LASF1848
     /tmp/ccOWj8hl.s:92721  .debug_str:0000000000015e38 .LASF1849
     /tmp/ccOWj8hl.s:89707  .debug_str:0000000000009f75 .LASF1850
     /tmp/ccOWj8hl.s:94877  .debug_str:000000000001ec70 .LASF1851
     /tmp/ccOWj8hl.s:95769  .debug_str:0000000000022889 .LASF1852
     /tmp/ccOWj8hl.s:103873  .debug_str:00000000000435df .LASF1853
     /tmp/ccOWj8hl.s:101859  .debug_str:000000000003b18e .LASF1854
     /tmp/ccOWj8hl.s:100079  .debug_str:000000000003419a .LASF1855
     /tmp/ccOWj8hl.s:89105  .debug_str:0000000000007745 .LASF1856
     /tmp/ccOWj8hl.s:99305  .debug_str:0000000000030df8 .LASF1857
     /tmp/ccOWj8hl.s:95221  .debug_str:000000000002047d .LASF1858
     /tmp/ccOWj8hl.s:102243  .debug_str:000000000003caea .LASF1859
     /tmp/ccOWj8hl.s:93517  .debug_str:000000000001925b .LASF1860
     /tmp/ccOWj8hl.s:96343  .debug_str:0000000000024a0f .LASF1861
     /tmp/ccOWj8hl.s:92069  .debug_str:00000000000134af .LASF1862
     /tmp/ccOWj8hl.s:90189  .debug_str:000000000000c0cc .LASF1863
     /tmp/ccOWj8hl.s:91301  .debug_str:0000000000010249 .LASF1864
     /tmp/ccOWj8hl.s:104773  .debug_str:0000000000047175 .LASF1865
     /tmp/ccOWj8hl.s:89997  .debug_str:000000000000b44a .LASF1866
     /tmp/ccOWj8hl.s:97051  .debug_str:00000000000279c5 .LASF1867
     /tmp/ccOWj8hl.s:88613  .debug_str:00000000000056e6 .LASF1868
     /tmp/ccOWj8hl.s:87609  .debug_str:00000000000010bb .LASF1869
     /tmp/ccOWj8hl.s:90365  .debug_str:000000000000cc6c .LASF1870
     /tmp/ccOWj8hl.s:93529  .debug_str:0000000000019321 .LASF1871
     /tmp/ccOWj8hl.s:105417  .debug_str:0000000000049f78 .LASF1872
     /tmp/ccOWj8hl.s:91777  .debug_str:00000000000121e7 .LASF1873
     /tmp/ccOWj8hl.s:101683  .debug_str:000000000003a5a0 .LASF1874
     /tmp/ccOWj8hl.s:105517  .debug_str:000000000004a76c .LASF1875
     /tmp/ccOWj8hl.s:98065  .debug_str:000000000002ba42 .LASF1876
     /tmp/ccOWj8hl.s:92907  .debug_str:0000000000016acb .LASF1877
     /tmp/ccOWj8hl.s:94167  .debug_str:000000000001bb2b .LASF1878
     /tmp/ccOWj8hl.s:98917  .debug_str:000000000002f3b8 .LASF1879
     /tmp/ccOWj8hl.s:103571  .debug_str:000000000004233d .LASF1880
     /tmp/ccOWj8hl.s:105981  .debug_str:000000000004c69f .LASF1881
     /tmp/ccOWj8hl.s:97689  .debug_str:000000000002a29d .LASF1882
     /tmp/ccOWj8hl.s:104067  .debug_str:00000000000442dc .LASF1883
     /tmp/ccOWj8hl.s:91569  .debug_str:00000000000113ac .LASF1884
     /tmp/ccOWj8hl.s:103355  .debug_str:000000000004158b .LASF1885
     /tmp/ccOWj8hl.s:104235  .debug_str:0000000000044e23 .LASF1886
     /tmp/ccOWj8hl.s:104345  .debug_str:0000000000045514 .LASF1887
     /tmp/ccOWj8hl.s:98373  .debug_str:000000000002cf8d .LASF1888
     /tmp/ccOWj8hl.s:100757  .debug_str:0000000000036a19 .LASF1889
     /tmp/ccOWj8hl.s:90729  .debug_str:000000000000e206 .LASF1890
     /tmp/ccOWj8hl.s:90383  .debug_str:000000000000cd88 .LASF1891
     /tmp/ccOWj8hl.s:100221  .debug_str:0000000000034ae5 .LASF1892
     /tmp/ccOWj8hl.s:95551  .debug_str:0000000000021a23 .LASF1893
     /tmp/ccOWj8hl.s:90785  .debug_str:000000000000e3ee .LASF1894
     /tmp/ccOWj8hl.s:100731  .debug_str:000000000003684b .LASF1895
     /tmp/ccOWj8hl.s:100279  .debug_str:0000000000034efa .LASF1896
     /tmp/ccOWj8hl.s:102717  .debug_str:000000000003eaca .LASF1897
     /tmp/ccOWj8hl.s:90857  .debug_str:000000000000e861 .LASF1898
     /tmp/ccOWj8hl.s:92267  .debug_str:000000000001405b .LASF1899
     /tmp/ccOWj8hl.s:89673  .debug_str:0000000000009c74 .LASF1900
     /tmp/ccOWj8hl.s:87921  .debug_str:0000000000002656 .LASF1901
     /tmp/ccOWj8hl.s:101655  .debug_str:000000000003a3b8 .LASF1902
     /tmp/ccOWj8hl.s:98281  .debug_str:000000000002c8eb .LASF1903
     /tmp/ccOWj8hl.s:92891  .debug_str:00000000000169b8 .LASF1904
     /tmp/ccOWj8hl.s:88611  .debug_str:00000000000056c5 .LASF1905
     /tmp/ccOWj8hl.s:103051  .debug_str:00000000000400dd .LASF1906
     /tmp/ccOWj8hl.s:88807  .debug_str:0000000000006326 .LASF1907
     /tmp/ccOWj8hl.s:87641  .debug_str:00000000000012d5 .LASF1908
     /tmp/ccOWj8hl.s:105487  .debug_str:000000000004a57c .LASF1909
     /tmp/ccOWj8hl.s:97743  .debug_str:000000000002a609 .LASF1910
     /tmp/ccOWj8hl.s:99033  .debug_str:000000000002fb0f .LASF1911
     /tmp/ccOWj8hl.s:95811  .debug_str:0000000000022bad .LASF1912
     /tmp/ccOWj8hl.s:98051  .debug_str:000000000002b933 .LASF1913
     /tmp/ccOWj8hl.s:103517  .debug_str:0000000000041fe9 .LASF1914
     /tmp/ccOWj8hl.s:92515  .debug_str:00000000000150ef .LASF1915
     /tmp/ccOWj8hl.s:105633  .debug_str:000000000004af79 .LASF1916
     /tmp/ccOWj8hl.s:91657  .debug_str:00000000000119cd .LASF1917
     /tmp/ccOWj8hl.s:92455  .debug_str:0000000000014ce2 .LASF1918
     /tmp/ccOWj8hl.s:103869  .debug_str:00000000000435b4 .LASF1919
     /tmp/ccOWj8hl.s:96383  .debug_str:0000000000024c95 .LASF1920
     /tmp/ccOWj8hl.s:95493  .debug_str:0000000000021633 .LASF1921
     /tmp/ccOWj8hl.s:88127  .debug_str:000000000000344e .LASF1922
     /tmp/ccOWj8hl.s:105587  .debug_str:000000000004ac5f .LASF1923
     /tmp/ccOWj8hl.s:98245  .debug_str:000000000002c660 .LASF1924
     /tmp/ccOWj8hl.s:97451  .debug_str:00000000000293a9 .LASF1925
     /tmp/ccOWj8hl.s:89333  .debug_str:00000000000085f2 .LASF1926
     /tmp/ccOWj8hl.s:105905  .debug_str:000000000004c16e .LASF1927
     /tmp/ccOWj8hl.s:91489  .debug_str:0000000000010e20 .LASF1928
     /tmp/ccOWj8hl.s:105819  .debug_str:000000000004bad3 .LASF1929
     /tmp/ccOWj8hl.s:99733  .debug_str:0000000000032a80 .LASF1930
     /tmp/ccOWj8hl.s:105617  .debug_str:000000000004ae72 .LASF1931
     /tmp/ccOWj8hl.s:96605  .debug_str:0000000000025b2d .LASF1932
     /tmp/ccOWj8hl.s:97037  .debug_str:00000000000278f1 .LASF1933
     /tmp/ccOWj8hl.s:93947  .debug_str:000000000001ad50 .LASF1934
     /tmp/ccOWj8hl.s:90869  .debug_str:000000000000e8cd .LASF1935
     /tmp/ccOWj8hl.s:87361  .debug_str:0000000000000000 .LASF1936
     /tmp/ccOWj8hl.s:91873  .debug_str:00000000000128de .LASF1937
     /tmp/ccOWj8hl.s:97699  .debug_str:000000000002a35a .LASF1938
     /tmp/ccOWj8hl.s:101867  .debug_str:000000000003b207 .LASF1939
     /tmp/ccOWj8hl.s:104213  .debug_str:0000000000044cfc .LASF1940
     /tmp/ccOWj8hl.s:92257  .debug_str:0000000000013f94 .LASF1941
     /tmp/ccOWj8hl.s:93049  .debug_str:0000000000017415 .LASF1942
     /tmp/ccOWj8hl.s:101525  .debug_str:0000000000039b20 .LASF1943
     /tmp/ccOWj8hl.s:90983  .debug_str:000000000000efeb .LASF1944
     /tmp/ccOWj8hl.s:91351  .debug_str:000000000001051f .LASF1945
     /tmp/ccOWj8hl.s:97011  .debug_str:000000000002776f .LASF1946
     /tmp/ccOWj8hl.s:98889  .debug_str:000000000002f1f1 .LASF1947
     /tmp/ccOWj8hl.s:95257  .debug_str:000000000002075d .LASF1948
     /tmp/ccOWj8hl.s:91827  .debug_str:000000000001255f .LASF1949
     /tmp/ccOWj8hl.s:105351  .debug_str:00000000000499cd .LASF1950
     /tmp/ccOWj8hl.s:88577  .debug_str:000000000000542c .LASF1951
     /tmp/ccOWj8hl.s:90797  .debug_str:000000000000e4af .LASF1952
     /tmp/ccOWj8hl.s:98693  .debug_str:000000000002e4bf .LASF1953
     /tmp/ccOWj8hl.s:88575  .debug_str:000000000000540a .LASF1954
     /tmp/ccOWj8hl.s:89817  .debug_str:000000000000a6c6 .LASF1955
     /tmp/ccOWj8hl.s:101753  .debug_str:000000000003aa55 .LASF1956
     /tmp/ccOWj8hl.s:91251  .debug_str:000000000000fe92 .LASF1957
     /tmp/ccOWj8hl.s:104243  .debug_str:0000000000044eb8 .LASF1958
     /tmp/ccOWj8hl.s:102519  .debug_str:000000000003dc53 .LASF1959
     /tmp/ccOWj8hl.s:105565  .debug_str:000000000004aa9f .LASF1960
     /tmp/ccOWj8hl.s:94305  .debug_str:000000000001c40b .LASF1961
     /tmp/ccOWj8hl.s:96995  .debug_str:0000000000027619 .LASF1962
     /tmp/ccOWj8hl.s:87731  .debug_str:000000000000190b .LASF1963
     /tmp/ccOWj8hl.s:98057  .debug_str:000000000002b9a0 .LASF1964
     /tmp/ccOWj8hl.s:103615  .debug_str:00000000000425fe .LASF1965
     /tmp/ccOWj8hl.s:91683  .debug_str:0000000000011b96 .LASF1966
     /tmp/ccOWj8hl.s:95231  .debug_str:000000000002052d .LASF1967
     /tmp/ccOWj8hl.s:101701  .debug_str:000000000003a730 .LASF1968
     /tmp/ccOWj8hl.s:95889  .debug_str:000000000002310c .LASF1969
     /tmp/ccOWj8hl.s:93161  .debug_str:0000000000017aa0 .LASF1970
     /tmp/ccOWj8hl.s:87833  .debug_str:0000000000002056 .LASF1971
     /tmp/ccOWj8hl.s:104465  .debug_str:0000000000045d93 .LASF1972
     /tmp/ccOWj8hl.s:88545  .debug_str:000000000000518e .LASF1973
     /tmp/ccOWj8hl.s:90957  .debug_str:000000000000edcb .LASF1974
     /tmp/ccOWj8hl.s:90671  .debug_str:000000000000dec4 .LASF1975
     /tmp/ccOWj8hl.s:95861  .debug_str:0000000000022f6d .LASF1976
     /tmp/ccOWj8hl.s:101301  .debug_str:0000000000038b55 .LASF1977
     /tmp/ccOWj8hl.s:88405  .debug_str:000000000000481f .LASF1978
     /tmp/ccOWj8hl.s:92919  .debug_str:0000000000016b98 .LASF1979
     /tmp/ccOWj8hl.s:99039  .debug_str:000000000002fb6b .LASF1980
     /tmp/ccOWj8hl.s:103129  .debug_str:00000000000406a5 .LASF1981
     /tmp/ccOWj8hl.s:90177  .debug_str:000000000000bfb2 .LASF1982
     /tmp/ccOWj8hl.s:94727  .debug_str:000000000001e1b5 .LASF1983
     /tmp/ccOWj8hl.s:100293  .debug_str:0000000000034f9a .LASF1984
     /tmp/ccOWj8hl.s:97443  .debug_str:00000000000292f6 .LASF1985
     /tmp/ccOWj8hl.s:88691  .debug_str:0000000000005b8a .LASF1986
     /tmp/ccOWj8hl.s:105453  .debug_str:000000000004a2c7 .LASF1987
     /tmp/ccOWj8hl.s:101029  .debug_str:0000000000037860 .LASF1988
     /tmp/ccOWj8hl.s:89939  .debug_str:000000000000afb2 .LASF1989
     /tmp/ccOWj8hl.s:89901  .debug_str:000000000000accc .LASF1990
     /tmp/ccOWj8hl.s:101057  .debug_str:0000000000037ab5 .LASF1991
     /tmp/ccOWj8hl.s:98203  .debug_str:000000000002c3a6 .LASF1992
     /tmp/ccOWj8hl.s:99575  .debug_str:0000000000032033 .LASF1993
     /tmp/ccOWj8hl.s:96895  .debug_str:0000000000026f01 .LASF1994
     /tmp/ccOWj8hl.s:104339  .debug_str:00000000000454c2 .LASF1995
     /tmp/ccOWj8hl.s:102649  .debug_str:000000000003e60d .LASF1996
     /tmp/ccOWj8hl.s:99447  .debug_str:00000000000317a8 .LASF1997
     /tmp/ccOWj8hl.s:93155  .debug_str:0000000000017a61 .LASF1998
     /tmp/ccOWj8hl.s:88309  .debug_str:00000000000041e3 .LASF1999
     /tmp/ccOWj8hl.s:92135  .debug_str:00000000000138c2 .LASF2000
     /tmp/ccOWj8hl.s:101151  .debug_str:000000000003814e .LASF2001
     /tmp/ccOWj8hl.s:90635  .debug_str:000000000000dd3d .LASF2002
     /tmp/ccOWj8hl.s:103593  .debug_str:0000000000042478 .LASF2003
     /tmp/ccOWj8hl.s:91849  .debug_str:000000000001277a .LASF2004
     /tmp/ccOWj8hl.s:98807  .debug_str:000000000002ecfe .LASF2005
     /tmp/ccOWj8hl.s:98403  .debug_str:000000000002d0f1 .LASF2006
     /tmp/ccOWj8hl.s:92737  .debug_str:0000000000015f18 .LASF2007
     /tmp/ccOWj8hl.s:98607  .debug_str:000000000002df57 .LASF2008
     /tmp/ccOWj8hl.s:105381  .debug_str:0000000000049c69 .LASF2009
     /tmp/ccOWj8hl.s:95803  .debug_str:0000000000022b16 .LASF2010
     /tmp/ccOWj8hl.s:99515  .debug_str:0000000000031c2a .LASF2011
     /tmp/ccOWj8hl.s:95141  .debug_str:000000000001feb9 .LASF2012
     /tmp/ccOWj8hl.s:93443  .debug_str:0000000000018d7d .LASF2013
     /tmp/ccOWj8hl.s:93637  .debug_str:0000000000019b06 .LASF2014
     /tmp/ccOWj8hl.s:97397  .debug_str:0000000000028fab .LASF2015
     /tmp/ccOWj8hl.s:99471  .debug_str:0000000000031954 .LASF2016
     /tmp/ccOWj8hl.s:89881  .debug_str:000000000000ab0e .LASF2017
     /tmp/ccOWj8hl.s:101925  .debug_str:000000000003b664 .LASF2018
     /tmp/ccOWj8hl.s:104253  .debug_str:0000000000044f4b .LASF2019
     /tmp/ccOWj8hl.s:90505  .debug_str:000000000000d4bb .LASF2020
     /tmp/ccOWj8hl.s:99061  .debug_str:000000000002fc98 .LASF2021
     /tmp/ccOWj8hl.s:100919  .debug_str:00000000000372b2 .LASF2022
     /tmp/ccOWj8hl.s:90409  .debug_str:000000000000cf6c .LASF2023
     /tmp/ccOWj8hl.s:92367  .debug_str:0000000000014704 .LASF2024
     /tmp/ccOWj8hl.s:100811  .debug_str:0000000000036c91 .LASF2025
     /tmp/ccOWj8hl.s:104521  .debug_str:00000000000461a6 .LASF2026
     /tmp/ccOWj8hl.s:92791  .debug_str:0000000000016255 .LASF2027
     /tmp/ccOWj8hl.s:101959  .debug_str:000000000003b8d3 .LASF2028
     /tmp/ccOWj8hl.s:96837  .debug_str:0000000000026ab3 .LASF2029
     /tmp/ccOWj8hl.s:99173  .debug_str:00000000000304f0 .LASF2030
     /tmp/ccOWj8hl.s:87405  .debug_str:0000000000000316 .LASF2031
     /tmp/ccOWj8hl.s:98947  .debug_str:000000000002f564 .LASF2032
     /tmp/ccOWj8hl.s:97017  .debug_str:00000000000277bf .LASF2033
     /tmp/ccOWj8hl.s:95363  .debug_str:0000000000020da9 .LASF2034
     /tmp/ccOWj8hl.s:88111  .debug_str:0000000000003349 .LASF2035
     /tmp/ccOWj8hl.s:101251  .debug_str:00000000000387b8 .LASF2036
     /tmp/ccOWj8hl.s:88933  .debug_str:0000000000006c27 .LASF2037
     /tmp/ccOWj8hl.s:103953  .debug_str:0000000000043bf9 .LASF2038
     /tmp/ccOWj8hl.s:99279  .debug_str:0000000000030c3c .LASF2039
     /tmp/ccOWj8hl.s:95563  .debug_str:0000000000021ada .LASF2040
     /tmp/ccOWj8hl.s:97227  .debug_str:000000000002851d .LASF2041
     /tmp/ccOWj8hl.s:90455  .debug_str:000000000000d258 .LASF2042
     /tmp/ccOWj8hl.s:88625  .debug_str:00000000000057de .LASF2043
     /tmp/ccOWj8hl.s:101383  .debug_str:000000000003908d .LASF2044
     /tmp/ccOWj8hl.s:105697  .debug_str:000000000004b393 .LASF2045
     /tmp/ccOWj8hl.s:93775  .debug_str:000000000001a2b1 .LASF2046
     /tmp/ccOWj8hl.s:89397  .debug_str:0000000000008a8b .LASF2047
     /tmp/ccOWj8hl.s:103071  .debug_str:0000000000040294 .LASF2048
     /tmp/ccOWj8hl.s:97599  .debug_str:0000000000029d46 .LASF2049
     /tmp/ccOWj8hl.s:91079  .debug_str:000000000000f5d0 .LASF2050
     /tmp/ccOWj8hl.s:91057  .debug_str:000000000000f479 .LASF2051
     /tmp/ccOWj8hl.s:101421  .debug_str:000000000003932b .LASF2052
     /tmp/ccOWj8hl.s:101397  .debug_str:0000000000039162 .LASF2053
     /tmp/ccOWj8hl.s:93057  .debug_str:00000000000174b4 .LASF2054
     /tmp/ccOWj8hl.s:92859  .debug_str:000000000001676d .LASF2055
     /tmp/ccOWj8hl.s:103269  .debug_str:0000000000040fb2 .LASF2056
     /tmp/ccOWj8hl.s:103599  .debug_str:00000000000424e9 .LASF2057
     /tmp/ccOWj8hl.s:94295  .debug_str:000000000001c341 .LASF2058
     /tmp/ccOWj8hl.s:97113  .debug_str:0000000000027d95 .LASF2059
     /tmp/ccOWj8hl.s:89545  .debug_str:000000000000950f .LASF2060
     /tmp/ccOWj8hl.s:87673  .debug_str:00000000000014cc .LASF2061
     /tmp/ccOWj8hl.s:99967  .debug_str:0000000000033af3 .LASF2062
     /tmp/ccOWj8hl.s:90443  .debug_str:000000000000d18e .LASF2063
     /tmp/ccOWj8hl.s:96351  .debug_str:0000000000024a8b .LASF2064
     /tmp/ccOWj8hl.s:100493  .debug_str:0000000000035bcd .LASF2065
     /tmp/ccOWj8hl.s:93711  .debug_str:0000000000019f56 .LASF2066
     /tmp/ccOWj8hl.s:93883  .debug_str:000000000001a91e .LASF2067
     /tmp/ccOWj8hl.s:97775  .debug_str:000000000002a821 .LASF2068
     /tmp/ccOWj8hl.s:104031  .debug_str:00000000000440bc .LASF2069
     /tmp/ccOWj8hl.s:89539  .debug_str:00000000000094aa .LASF2070
     /tmp/ccOWj8hl.s:95641  .debug_str:0000000000022040 .LASF2071
     /tmp/ccOWj8hl.s:96275  .debug_str:0000000000024574 .LASF2072
     /tmp/ccOWj8hl.s:105777  .debug_str:000000000004b874 .LASF2073
     /tmp/ccOWj8hl.s:105847  .debug_str:000000000004bd5e .LASF2074
     /tmp/ccOWj8hl.s:100103  .debug_str:0000000000034360 .LASF2075
     /tmp/ccOWj8hl.s:90755  .debug_str:000000000000e2de .LASF2076
     /tmp/ccOWj8hl.s:104083  .debug_str:00000000000443c9 .LASF2077
     /tmp/ccOWj8hl.s:102701  .debug_str:000000000003ea1a .LASF2078
     /tmp/ccOWj8hl.s:101335  .debug_str:0000000000038dfa .LASF2079
     /tmp/ccOWj8hl.s:93401  .debug_str:0000000000018a87 .LASF2080
     /tmp/ccOWj8hl.s:104755  .debug_str:00000000000470a1 .LASF2081
     /tmp/ccOWj8hl.s:103261  .debug_str:0000000000040f3f .LASF2082
     /tmp/ccOWj8hl.s:98657  .debug_str:000000000002e27e .LASF2083
     /tmp/ccOWj8hl.s:96433  .debug_str:000000000002504f .LASF2084
     /tmp/ccOWj8hl.s:104887  .debug_str:00000000000479f7 .LASF2085
     /tmp/ccOWj8hl.s:87889  .debug_str:00000000000023e9 .LASF2086
     /tmp/ccOWj8hl.s:96539  .debug_str:0000000000025791 .LASF2087
     /tmp/ccOWj8hl.s:93551  .debug_str:00000000000194ed .LASF2088
     /tmp/ccOWj8hl.s:87983  .debug_str:0000000000002ac5 .LASF2089
     /tmp/ccOWj8hl.s:89745  .debug_str:000000000000a206 .LASF2090
     /tmp/ccOWj8hl.s:98899  .debug_str:000000000002f296 .LASF2091
     /tmp/ccOWj8hl.s:105853  .debug_str:000000000004bdda .LASF2092
     /tmp/ccOWj8hl.s:89663  .debug_str:0000000000009c24 .LASF2093
     /tmp/ccOWj8hl.s:96927  .debug_str:0000000000027133 .LASF2094
     /tmp/ccOWj8hl.s:99175  .debug_str:000000000003050b .LASF2095
     /tmp/ccOWj8hl.s:96633  .debug_str:0000000000025d0d .LASF2096
     /tmp/ccOWj8hl.s:90683  .debug_str:000000000000df97 .LASF2097
     /tmp/ccOWj8hl.s:91957  .debug_str:0000000000012dea .LASF2098
     /tmp/ccOWj8hl.s:99705  .debug_str:0000000000032917 .LASF2099
     /tmp/ccOWj8hl.s:104777  .debug_str:00000000000471a8 .LASF2100
     /tmp/ccOWj8hl.s:93623  .debug_str:00000000000199ba .LASF2101
     /tmp/ccOWj8hl.s:94285  .debug_str:000000000001c272 .LASF2102
     /tmp/ccOWj8hl.s:102753  .debug_str:000000000003ed19 .LASF2103
     /tmp/ccOWj8hl.s:97261  .debug_str:0000000000028763 .LASF2104
     /tmp/ccOWj8hl.s:97673  .debug_str:000000000002a19b .LASF2105
     /tmp/ccOWj8hl.s:87727  .debug_str:00000000000018ce .LASF2106
     /tmp/ccOWj8hl.s:94987  .debug_str:000000000001f4d2 .LASF2107
     /tmp/ccOWj8hl.s:91081  .debug_str:000000000000f5eb .LASF2108
     /tmp/ccOWj8hl.s:92549  .debug_str:000000000001527d .LASF2109
     /tmp/ccOWj8hl.s:100451  .debug_str:00000000000359e5 .LASF2110
     /tmp/ccOWj8hl.s:92767  .debug_str:00000000000160e4 .LASF2111
     /tmp/ccOWj8hl.s:99567  .debug_str:0000000000031fc0 .LASF2112
     /tmp/ccOWj8hl.s:99255  .debug_str:0000000000030ac9 .LASF2113
     /tmp/ccOWj8hl.s:99745  .debug_str:0000000000032b48 .LASF2114
     /tmp/ccOWj8hl.s:105177  .debug_str:0000000000048df2 .LASF2115
     /tmp/ccOWj8hl.s:90907  .debug_str:000000000000eb40 .LASF2116
     /tmp/ccOWj8hl.s:96853  .debug_str:0000000000026bc2 .LASF2117
     /tmp/ccOWj8hl.s:101055  .debug_str:0000000000037a8e .LASF2118
     /tmp/ccOWj8hl.s:88781  .debug_str:0000000000006149 .LASF2119
     /tmp/ccOWj8hl.s:104473  .debug_str:0000000000045e51 .LASF2120
     /tmp/ccOWj8hl.s:93021  .debug_str:000000000001721b .LASF2121
     /tmp/ccOWj8hl.s:102113  .debug_str:000000000003c241 .LASF2122
     /tmp/ccOWj8hl.s:90669  .debug_str:000000000000de93 .LASF2123
     /tmp/ccOWj8hl.s:102013  .debug_str:000000000003bc22 .LASF2124
     /tmp/ccOWj8hl.s:90233  .debug_str:000000000000c3f1 .LASF2125
     /tmp/ccOWj8hl.s:104705  .debug_str:0000000000046d29 .LASF2126
     /tmp/ccOWj8hl.s:95087  .debug_str:000000000001fadf .LASF2127
     /tmp/ccOWj8hl.s:102283  .debug_str:000000000003cd92 .LASF2128
     /tmp/ccOWj8hl.s:105321  .debug_str:0000000000049828 .LASF2129
     /tmp/ccOWj8hl.s:93627  .debug_str:00000000000199fe .LASF2130
     /tmp/ccOWj8hl.s:96975  .debug_str:000000000002745f .LASF2131
     /tmp/ccOWj8hl.s:100237  .debug_str:0000000000034bd3 .LASF2132
     /tmp/ccOWj8hl.s:105507  .debug_str:000000000004a6ce .LASF2133
     /tmp/ccOWj8hl.s:95179  .debug_str:00000000000201ab .LASF2134
     /tmp/ccOWj8hl.s:100661  .debug_str:0000000000036546 .LASF2135
     /tmp/ccOWj8hl.s:105001  .debug_str:000000000004821d .LASF2136
     /tmp/ccOWj8hl.s:92283  .debug_str:0000000000014162 .LASF2137
     /tmp/ccOWj8hl.s:96425  .debug_str:0000000000024f79 .LASF2138
     /tmp/ccOWj8hl.s:102489  .debug_str:000000000003da0c .LASF2139
     /tmp/ccOWj8hl.s:87647  .debug_str:0000000000001349 .LASF2140
     /tmp/ccOWj8hl.s:101551  .debug_str:0000000000039cb4 .LASF2141
     /tmp/ccOWj8hl.s:95965  .debug_str:0000000000023625 .LASF2142
     /tmp/ccOWj8hl.s:88921  .debug_str:0000000000006b83 .LASF2143
     /tmp/ccOWj8hl.s:103703  .debug_str:0000000000042b6b .LASF2144
     /tmp/ccOWj8hl.s:90269  .debug_str:000000000000c5fb .LASF2145
     /tmp/ccOWj8hl.s:96819  .debug_str:0000000000026978 .LASF2146
     /tmp/ccOWj8hl.s:98451  .debug_str:000000000002d4a8 .LASF2147
     /tmp/ccOWj8hl.s:105153  .debug_str:0000000000048c67 .LASF2148
     /tmp/ccOWj8hl.s:104469  .debug_str:0000000000045de1 .LASF2149
     /tmp/ccOWj8hl.s:105427  .debug_str:000000000004a04e .LASF2150
     /tmp/ccOWj8hl.s:95929  .debug_str:00000000000232df .LASF2151
     /tmp/ccOWj8hl.s:98099  .debug_str:000000000002bcc1 .LASF2152
     /tmp/ccOWj8hl.s:101849  .debug_str:000000000003b0d8 .LASF2153
     /tmp/ccOWj8hl.s:102393  .debug_str:000000000003d411 .LASF2154
     /tmp/ccOWj8hl.s:102267  .debug_str:000000000003cc58 .LASF2155
     /tmp/ccOWj8hl.s:93169  .debug_str:0000000000017b2c .LASF2156
     /tmp/ccOWj8hl.s:101299  .debug_str:0000000000038b19 .LASF2157
     /tmp/ccOWj8hl.s:87687  .debug_str:00000000000015a2 .LASF2158
     /tmp/ccOWj8hl.s:96511  .debug_str:0000000000025592 .LASF2159
     /tmp/ccOWj8hl.s:96889  .debug_str:0000000000026e78 .LASF2160
     /tmp/ccOWj8hl.s:91843  .debug_str:00000000000126e8 .LASF2161
     /tmp/ccOWj8hl.s:105889  .debug_str:000000000004c063 .LASF2162
     /tmp/ccOWj8hl.s:93605  .debug_str:0000000000019820 .LASF2163
     /tmp/ccOWj8hl.s:105131  .debug_str:0000000000048acd .LASF2164
     /tmp/ccOWj8hl.s:88801  .debug_str:00000000000062ae .LASF2165
     /tmp/ccOWj8hl.s:95675  .debug_str:0000000000022265 .LASF2166
     /tmp/ccOWj8hl.s:102879  .debug_str:000000000003f5c2 .LASF2167
     /tmp/ccOWj8hl.s:104675  .debug_str:0000000000046b55 .LASF2168
     /tmp/ccOWj8hl.s:98283  .debug_str:000000000002c90d .LASF2169
     /tmp/ccOWj8hl.s:91265  .debug_str:000000000000ff85 .LASF2170
     /tmp/ccOWj8hl.s:95345  .debug_str:0000000000020c1f .LASF2171
     /tmp/ccOWj8hl.s:93505  .debug_str:0000000000019176 .LASF2172
     /tmp/ccOWj8hl.s:96485  .debug_str:00000000000253ce .LASF2173
     /tmp/ccOWj8hl.s:89675  .debug_str:0000000000009c93 .LASF2174
     /tmp/ccOWj8hl.s:102483  .debug_str:000000000003d98c .LASF2175
     /tmp/ccOWj8hl.s:91823  .debug_str:00000000000124ee .LASF2176
     /tmp/ccOWj8hl.s:88905  .debug_str:0000000000006a66 .LASF2177
     /tmp/ccOWj8hl.s:105843  .debug_str:000000000004bcdc .LASF2178
     /tmp/ccOWj8hl.s:103253  .debug_str:0000000000040ea5 .LASF2179
     /tmp/ccOWj8hl.s:105545  .debug_str:000000000004a937 .LASF2180
     /tmp/ccOWj8hl.s:100527  .debug_str:0000000000035e22 .LASF2181
     /tmp/ccOWj8hl.s:88387  .debug_str:00000000000046d2 .LASF2182
     /tmp/ccOWj8hl.s:99291  .debug_str:0000000000030d12 .LASF2183
     /tmp/ccOWj8hl.s:100481  .debug_str:0000000000035aec .LASF2184
     /tmp/ccOWj8hl.s:91597  .debug_str:00000000000115b0 .LASF2185
     /tmp/ccOWj8hl.s:89863  .debug_str:000000000000a9f6 .LASF2186
     /tmp/ccOWj8hl.s:103911  .debug_str:00000000000438d6 .LASF2187
     /tmp/ccOWj8hl.s:91403  .debug_str:00000000000108fb .LASF2188
     /tmp/ccOWj8hl.s:89101  .debug_str:00000000000076d6 .LASF2189
     /tmp/ccOWj8hl.s:101841  .debug_str:000000000003b011 .LASF2190
     /tmp/ccOWj8hl.s:99219  .debug_str:0000000000030806 .LASF2191
     /tmp/ccOWj8hl.s:93347  .debug_str:00000000000186e2 .LASF2192
     /tmp/ccOWj8hl.s:90343  .debug_str:000000000000cae3 .LASF2193
     /tmp/ccOWj8hl.s:95577  .debug_str:0000000000021bc0 .LASF2194
     /tmp/ccOWj8hl.s:105199  .debug_str:0000000000048f80 .LASF2195
     /tmp/ccOWj8hl.s:90965  .debug_str:000000000000ee79 .LASF2196
     /tmp/ccOWj8hl.s:96635  .debug_str:0000000000025d29 .LASF2197
     /tmp/ccOWj8hl.s:88561  .debug_str:00000000000052a8 .LASF2198
     /tmp/ccOWj8hl.s:87825  .debug_str:0000000000001f9b .LASF2199
     /tmp/ccOWj8hl.s:88911  .debug_str:0000000000006ad6 .LASF2200
     /tmp/ccOWj8hl.s:97947  .debug_str:000000000002b31b .LASF2201
     /tmp/ccOWj8hl.s:87917  .debug_str:0000000000002603 .LASF2202
     /tmp/ccOWj8hl.s:105643  .debug_str:000000000004b039 .LASF2203
     /tmp/ccOWj8hl.s:94983  .debug_str:000000000001f48f .LASF2204
     /tmp/ccOWj8hl.s:88337  .debug_str:0000000000004329 .LASF2205
     /tmp/ccOWj8hl.s:95481  .debug_str:0000000000021577 .LASF2206
     /tmp/ccOWj8hl.s:87807  .debug_str:0000000000001e29 .LASF2207
     /tmp/ccOWj8hl.s:104139  .debug_str:0000000000044810 .LASF2208
     /tmp/ccOWj8hl.s:94765  .debug_str:000000000001e470 .LASF2209
     /tmp/ccOWj8hl.s:91651  .debug_str:000000000001196e .LASF2210
     /tmp/ccOWj8hl.s:94871  .debug_str:000000000001ebdc .LASF2211
     /tmp/ccOWj8hl.s:101839  .debug_str:000000000003afd8 .LASF2212
     /tmp/ccOWj8hl.s:101575  .debug_str:0000000000039e6d .LASF2213
     /tmp/ccOWj8hl.s:103257  .debug_str:0000000000040ee8 .LASF2214
     /tmp/ccOWj8hl.s:103271  .debug_str:0000000000040fcd .LASF2215
     /tmp/ccOWj8hl.s:96693  .debug_str:000000000002618c .LASF2216
     /tmp/ccOWj8hl.s:97765  .debug_str:000000000002a752 .LASF2217
     /tmp/ccOWj8hl.s:87561  .debug_str:0000000000000d4b .LASF2218
     /tmp/ccOWj8hl.s:97593  .debug_str:0000000000029caf .LASF2219
     /tmp/ccOWj8hl.s:101563  .debug_str:0000000000039d74 .LASF2220
     /tmp/ccOWj8hl.s:87893  .debug_str:0000000000002411 .LASF2221
     /tmp/ccOWj8hl.s:96987  .debug_str:000000000002757e .LASF2222
     /tmp/ccOWj8hl.s:97293  .debug_str:00000000000289c1 .LASF2223
     /tmp/ccOWj8hl.s:99591  .debug_str:000000000003212c .LASF2224
     /tmp/ccOWj8hl.s:102673  .debug_str:000000000003e804 .LASF2225
     /tmp/ccOWj8hl.s:95005  .debug_str:000000000001f61a .LASF2226
     /tmp/ccOWj8hl.s:99241  .debug_str:0000000000030990 .LASF2227
     /tmp/ccOWj8hl.s:90059  .debug_str:000000000000b841 .LASF2228
     /tmp/ccOWj8hl.s:89493  .debug_str:00000000000090dd .LASF2229
     /tmp/ccOWj8hl.s:104219  .debug_str:0000000000044d34 .LASF2230
     /tmp/ccOWj8hl.s:98789  .debug_str:000000000002ebdd .LASF2231
     /tmp/ccOWj8hl.s:91375  .debug_str:00000000000106fa .LASF2232
     /tmp/ccOWj8hl.s:98627  .debug_str:000000000002e0bb .LASF2233
     /tmp/ccOWj8hl.s:92911  .debug_str:0000000000016b17 .LASF2234
     /tmp/ccOWj8hl.s:100421  .debug_str:0000000000035757 .LASF2235
     /tmp/ccOWj8hl.s:105875  .debug_str:000000000004bf4f .LASF2236
     /tmp/ccOWj8hl.s:94539  .debug_str:000000000001d48e .LASF2237
     /tmp/ccOWj8hl.s:98563  .debug_str:000000000002dc0b .LASF2238
     /tmp/ccOWj8hl.s:101137  .debug_str:0000000000038024 .LASF2239
     /tmp/ccOWj8hl.s:97343  .debug_str:0000000000028c66 .LASF2240
     /tmp/ccOWj8hl.s:105627  .debug_str:000000000004aefd .LASF2241
     /tmp/ccOWj8hl.s:89889  .debug_str:000000000000abd2 .LASF2242
     /tmp/ccOWj8hl.s:96061  .debug_str:0000000000023b76 .LASF2243
     /tmp/ccOWj8hl.s:102735  .debug_str:000000000003ec35 .LASF2244
     /tmp/ccOWj8hl.s:97111  .debug_str:0000000000027d4c .LASF2245
     /tmp/ccOWj8hl.s:101667  .debug_str:000000000003a4b0 .LASF2246
     /tmp/ccOWj8hl.s:105451  .debug_str:000000000004a27f .LASF2247
     /tmp/ccOWj8hl.s:103087  .debug_str:0000000000040333 .LASF2248
     /tmp/ccOWj8hl.s:87877  .debug_str:000000000000233f .LASF2249
     /tmp/ccOWj8hl.s:94591  .debug_str:000000000001d7f5 .LASF2250
     /tmp/ccOWj8hl.s:103105  .debug_str:0000000000040490 .LASF2251
     /tmp/ccOWj8hl.s:104489  .debug_str:0000000000045f7d .LASF2252
     /tmp/ccOWj8hl.s:89725  .debug_str:000000000000a0a8 .LASF2253
     /tmp/ccOWj8hl.s:95841  .debug_str:0000000000022e0a .LASF2254
     /tmp/ccOWj8hl.s:100737  .debug_str:00000000000368cc .LASF2255
     /tmp/ccOWj8hl.s:98997  .debug_str:000000000002f8f2 .LASF2256
     /tmp/ccOWj8hl.s:92171  .debug_str:0000000000013af3 .LASF2257
     /tmp/ccOWj8hl.s:87857  .debug_str:00000000000021e8 .LASF2258
     /tmp/ccOWj8hl.s:95259  .debug_str:000000000002077f .LASF2259
     /tmp/ccOWj8hl.s:96631  .debug_str:0000000000025ccd .LASF2260
     /tmp/ccOWj8hl.s:94165  .debug_str:000000000001baf3 .LASF2261
     /tmp/ccOWj8hl.s:89085  .debug_str:000000000000757b .LASF2262
     /tmp/ccOWj8hl.s:94451  .debug_str:000000000001ce41 .LASF2263
     /tmp/ccOWj8hl.s:93955  .debug_str:000000000001adb4 .LASF2264
     /tmp/ccOWj8hl.s:100893  .debug_str:00000000000370e5 .LASF2265
     /tmp/ccOWj8hl.s:91917  .debug_str:0000000000012b4b .LASF2266
     /tmp/ccOWj8hl.s:100519  .debug_str:0000000000035d76 .LASF2267
     /tmp/ccOWj8hl.s:97731  .debug_str:000000000002a525 .LASF2268
     /tmp/ccOWj8hl.s:91259  .debug_str:000000000000ff22 .LASF2269
     /tmp/ccOWj8hl.s:102665  .debug_str:000000000003e765 .LASF2270
     /tmp/ccOWj8hl.s:97427  .debug_str:0000000000029166 .LASF2271
     /tmp/ccOWj8hl.s:102775  .debug_str:000000000003eeb1 .LASF2272
     /tmp/ccOWj8hl.s:89139  .debug_str:00000000000078c9 .LASF2273
     /tmp/ccOWj8hl.s:104823  .debug_str:00000000000474be .LASF2274
     /tmp/ccOWj8hl.s:102531  .debug_str:000000000003dd21 .LASF2275
     /tmp/ccOWj8hl.s:103971  .debug_str:0000000000043cb5 .LASF2276
     /tmp/ccOWj8hl.s:91757  .debug_str:0000000000012085 .LASF2277
     /tmp/ccOWj8hl.s:102127  .debug_str:000000000003c2d9 .LASF2278
     /tmp/ccOWj8hl.s:92627  .debug_str:00000000000157be .LASF2279
     /tmp/ccOWj8hl.s:102479  .debug_str:000000000003d93a .LASF2280
     /tmp/ccOWj8hl.s:87843  .debug_str:0000000000002104 .LASF2281
     /tmp/ccOWj8hl.s:95191  .debug_str:0000000000020267 .LASF2282
     /tmp/ccOWj8hl.s:101957  .debug_str:000000000003b897 .LASF2283
     /tmp/ccOWj8hl.s:88237  .debug_str:0000000000003c33 .LASF2284
     /tmp/ccOWj8hl.s:105389  .debug_str:0000000000049ce5 .LASF2285
     /tmp/ccOWj8hl.s:93427  .debug_str:0000000000018c5c .LASF2286
     /tmp/ccOWj8hl.s:100925  .debug_str:0000000000037326 .LASF2287
     /tmp/ccOWj8hl.s:102513  .debug_str:000000000003dbc1 .LASF2288
     /tmp/ccOWj8hl.s:96309  .debug_str:0000000000024807 .LASF2289
     /tmp/ccOWj8hl.s:93137  .debug_str:00000000000179d0 .LASF2290
     /tmp/ccOWj8hl.s:91467  .debug_str:0000000000010c2d .LASF2291
     /tmp/ccOWj8hl.s:102235  .debug_str:000000000003ca2c .LASF2292
     /tmp/ccOWj8hl.s:98325  .debug_str:000000000002cbf5 .LASF2293
     /tmp/ccOWj8hl.s:102055  .debug_str:000000000003bf66 .LASF2294
     /tmp/ccOWj8hl.s:96677  .debug_str:000000000002606f .LASF2295
     /tmp/ccOWj8hl.s:92471  .debug_str:0000000000014df2 .LASF2296
     /tmp/ccOWj8hl.s:92831  .debug_str:00000000000164f5 .LASF2297
     /tmp/ccOWj8hl.s:98659  .debug_str:000000000002e295 .LASF2298
     /tmp/ccOWj8hl.s:95625  .debug_str:0000000000021ef1 .LASF2299
     /tmp/ccOWj8hl.s:105767  .debug_str:000000000004b7ba .LASF2300
     /tmp/ccOWj8hl.s:91139  .debug_str:000000000000f8df .LASF2301
     /tmp/ccOWj8hl.s:100899  .debug_str:000000000003712c .LASF2302
     /tmp/ccOWj8hl.s:98117  .debug_str:000000000002bdcc .LASF2303
     /tmp/ccOWj8hl.s:87929  .debug_str:000000000000271b .LASF2304
     /tmp/ccOWj8hl.s:87595  .debug_str:0000000000000fe1 .LASF2305
     /tmp/ccOWj8hl.s:93629  .debug_str:0000000000019a41 .LASF2306
     /tmp/ccOWj8hl.s:98725  .debug_str:000000000002e705 .LASF2307
     /tmp/ccOWj8hl.s:91503  .debug_str:0000000000010efb .LASF2308
     /tmp/ccOWj8hl.s:102277  .debug_str:000000000003cd44 .LASF2309
     /tmp/ccOWj8hl.s:101741  .debug_str:000000000003a98f .LASF2310
     /tmp/ccOWj8hl.s:99103  .debug_str:000000000002ff37 .LASF2311
     /tmp/ccOWj8hl.s:93765  .debug_str:000000000001a1ea .LASF2312
     /tmp/ccOWj8hl.s:91327  .debug_str:00000000000103e8 .LASF2313
     /tmp/ccOWj8hl.s:105003  .debug_str:000000000004825d .LASF2314
     /tmp/ccOWj8hl.s:101285  .debug_str:0000000000038a11 .LASF2315
     /tmp/ccOWj8hl.s:105737  .debug_str:000000000004b63b .LASF2316
     /tmp/ccOWj8hl.s:88059  .debug_str:000000000000303b .LASF2317
     /tmp/ccOWj8hl.s:97439  .debug_str:0000000000029289 .LASF2318
     /tmp/ccOWj8hl.s:98175  .debug_str:000000000002c17f .LASF2319
     /tmp/ccOWj8hl.s:88819  .debug_str:00000000000063e8 .LASF2320
     /tmp/ccOWj8hl.s:89267  .debug_str:000000000000816a .LASF2321
     /tmp/ccOWj8hl.s:99143  .debug_str:0000000000030248 .LASF2322
     /tmp/ccOWj8hl.s:99401  .debug_str:000000000003144e .LASF2323
     /tmp/ccOWj8hl.s:98173  .debug_str:000000000002c147 .LASF2324
     /tmp/ccOWj8hl.s:88447  .debug_str:0000000000004b0b .LASF2325
     /tmp/ccOWj8hl.s:88029  .debug_str:0000000000002e9a .LASF2326
     /tmp/ccOWj8hl.s:103149  .debug_str:0000000000040823 .LASF2327
     /tmp/ccOWj8hl.s:105463  .debug_str:000000000004a373 .LASF2328
     /tmp/ccOWj8hl.s:104721  .debug_str:0000000000046e14 .LASF2329
     /tmp/ccOWj8hl.s:104827  .debug_str:0000000000047511 .LASF2330
     /tmp/ccOWj8hl.s:92005  .debug_str:00000000000130d4 .LASF2331
     /tmp/ccOWj8hl.s:103125  .debug_str:0000000000040628 .LASF2332
     /tmp/ccOWj8hl.s:92107  .debug_str:0000000000013726 .LASF2333
     /tmp/ccOWj8hl.s:95233  .debug_str:000000000002054d .LASF2334
     /tmp/ccOWj8hl.s:89223  .debug_str:0000000000007e9d .LASF2335
     /tmp/ccOWj8hl.s:89373  .debug_str:00000000000088ce .LASF2336
     /tmp/ccOWj8hl.s:104793  .debug_str:00000000000472ec .LASF2337
     /tmp/ccOWj8hl.s:105377  .debug_str:0000000000049be6 .LASF2338
     /tmp/ccOWj8hl.s:87923  .debug_str:0000000000002678 .LASF2339
     /tmp/ccOWj8hl.s:97791  .debug_str:000000000002a971 .LASF2340
     /tmp/ccOWj8hl.s:96301  .debug_str:000000000002477b .LASF2341
     /tmp/ccOWj8hl.s:105791  .debug_str:000000000004b91b .LASF2342
     /tmp/ccOWj8hl.s:88903  .debug_str:0000000000006a22 .LASF2343
     /tmp/ccOWj8hl.s:103591  .debug_str:000000000004243c .LASF2344
     /tmp/ccOWj8hl.s:98193  .debug_str:000000000002c2d5 .LASF2345
     /tmp/ccOWj8hl.s:92851  .debug_str:00000000000166b5 .LASF2346
     /tmp/ccOWj8hl.s:97239  .debug_str:00000000000285d8 .LASF2347
     /tmp/ccOWj8hl.s:88065  .debug_str:0000000000003094 .LASF2348
     /tmp/ccOWj8hl.s:94465  .debug_str:000000000001cf66 .LASF2349
     /tmp/ccOWj8hl.s:102155  .debug_str:000000000003c4f5 .LASF2350
     /tmp/ccOWj8hl.s:96593  .debug_str:0000000000025a09 .LASF2351
     /tmp/ccOWj8hl.s:97525  .debug_str:0000000000029807 .LASF2352
     /tmp/ccOWj8hl.s:105591  .debug_str:000000000004acad .LASF2353
     /tmp/ccOWj8hl.s:103407  .debug_str:00000000000418fd .LASF2354
     /tmp/ccOWj8hl.s:105559  .debug_str:000000000004aa2f .LASF2355
     /tmp/ccOWj8hl.s:104939  .debug_str:0000000000047dca .LASF2356
     /tmp/ccOWj8hl.s:104231  .debug_str:0000000000044dda .LASF2357
     /tmp/ccOWj8hl.s:97895  .debug_str:000000000002b02e .LASF2358
     /tmp/ccOWj8hl.s:104427  .debug_str:0000000000045b14 .LASF2359
     /tmp/ccOWj8hl.s:89441  .debug_str:0000000000008d9f .LASF2360
     /tmp/ccOWj8hl.s:91273  .debug_str:000000000000ffe8 .LASF2361
     /tmp/ccOWj8hl.s:103841  .debug_str:000000000004341b .LASF2362
     /tmp/ccOWj8hl.s:95981  .debug_str:00000000000236d7 .LASF2363
     /tmp/ccOWj8hl.s:105955  .debug_str:000000000004c4e7 .LASF2364
     /tmp/ccOWj8hl.s:98655  .debug_str:000000000002e23c .LASF2365
     /tmp/ccOWj8hl.s:89885  .debug_str:000000000000ab65 .LASF2366
     /tmp/ccOWj8hl.s:90283  .debug_str:000000000000c6e3 .LASF2367
     /tmp/ccOWj8hl.s:103091  .debug_str:0000000000040383 .LASF2368
     /tmp/ccOWj8hl.s:92389  .debug_str:0000000000014855 .LASF2369
     /tmp/ccOWj8hl.s:101523  .debug_str:0000000000039af9 .LASF2370
     /tmp/ccOWj8hl.s:99565  .debug_str:0000000000031f85 .LASF2371
     /tmp/ccOWj8hl.s:105409  .debug_str:0000000000049eaa .LASF2372
     /tmp/ccOWj8hl.s:90961  .debug_str:000000000000ee11 .LASF2373
     /tmp/ccOWj8hl.s:96831  .debug_str:0000000000026a3d .LASF2374
     /tmp/ccOWj8hl.s:101449  .debug_str:000000000003954f .LASF2375
     /tmp/ccOWj8hl.s:88019  .debug_str:0000000000002de4 .LASF2376
     /tmp/ccOWj8hl.s:92235  .debug_str:0000000000013e47 .LASF2377
     /tmp/ccOWj8hl.s:96959  .debug_str:000000000002733a .LASF2378
     /tmp/ccOWj8hl.s:89917  .debug_str:000000000000ade3 .LASF2379
     /tmp/ccOWj8hl.s:89295  .debug_str:0000000000008379 .LASF2380
     /tmp/ccOWj8hl.s:94045  .debug_str:000000000001b2de .LASF2381
     /tmp/ccOWj8hl.s:99429  .debug_str:000000000003164d .LASF2382
     /tmp/ccOWj8hl.s:104167  .debug_str:0000000000044a09 .LASF2383
     /tmp/ccOWj8hl.s:90553  .debug_str:000000000000d7fc .LASF2384
     /tmp/ccOWj8hl.s:98751  .debug_str:000000000002e941 .LASF2385
     /tmp/ccOWj8hl.s:98611  .debug_str:000000000002dfbe .LASF2386
     /tmp/ccOWj8hl.s:94211  .debug_str:000000000001bda3 .LASF2387
     /tmp/ccOWj8hl.s:90967  .debug_str:000000000000eeb1 .LASF2388
     /tmp/ccOWj8hl.s:91875  .debug_str:0000000000012907 .LASF2389
     /tmp/ccOWj8hl.s:100081  .debug_str:00000000000341bd .LASF2390
     /tmp/ccOWj8hl.s:102773  .debug_str:000000000003ee7b .LASF2391
     /tmp/ccOWj8hl.s:100047  .debug_str:0000000000033ffc .LASF2392
     /tmp/ccOWj8hl.s:90179  .debug_str:000000000000bfdb .LASF2393
     /tmp/ccOWj8hl.s:100153  .debug_str:00000000000346c9 .LASF2394
     /tmp/ccOWj8hl.s:95643  .debug_str:000000000002205b .LASF2395
     /tmp/ccOWj8hl.s:93285  .debug_str:0000000000018259 .LASF2396
     /tmp/ccOWj8hl.s:99699  .debug_str:00000000000328af .LASF2397
     /tmp/ccOWj8hl.s:103299  .debug_str:00000000000411cd .LASF2398
     /tmp/ccOWj8hl.s:100629  .debug_str:00000000000362d5 .LASF2399
     /tmp/ccOWj8hl.s:87725  .debug_str:0000000000001887 .LASF2400
     /tmp/ccOWj8hl.s:102703  .debug_str:000000000003ea3e .LASF2401
     /tmp/ccOWj8hl.s:89503  .debug_str:0000000000009179 .LASF2402
     /tmp/ccOWj8hl.s:98257  .debug_str:000000000002c6f6 .LASF2403
     /tmp/ccOWj8hl.s:98797  .debug_str:000000000002ec48 .LASF2404
     /tmp/ccOWj8hl.s:93377  .debug_str:00000000000188f1 .LASF2405
     /tmp/ccOWj8hl.s:89095  .debug_str:000000000000767c .LASF2406
     /tmp/ccOWj8hl.s:97107  .debug_str:0000000000027cde .LASF2407
     /tmp/ccOWj8hl.s:100571  .debug_str:000000000003601d .LASF2408
     /tmp/ccOWj8hl.s:97199  .debug_str:000000000002832a .LASF2409
     /tmp/ccOWj8hl.s:96369  .debug_str:0000000000024b82 .LASF2410
     /tmp/ccOWj8hl.s:102083  .debug_str:000000000003c128 .LASF2411
     /tmp/ccOWj8hl.s:100095  .debug_str:0000000000034290 .LASF2412
     /tmp/ccOWj8hl.s:99909  .debug_str:00000000000336bf .LASF2413
     /tmp/ccOWj8hl.s:90387  .debug_str:000000000000cdca .LASF2414
     /tmp/ccOWj8hl.s:101803  .debug_str:000000000003ad99 .LASF2415
     /tmp/ccOWj8hl.s:101987  .debug_str:000000000003baa0 .LASF2416
     /tmp/ccOWj8hl.s:94381  .debug_str:000000000001c96a .LASF2417
     /tmp/ccOWj8hl.s:95095  .debug_str:000000000001fb75 .LASF2418
     /tmp/ccOWj8hl.s:96603  .debug_str:0000000000025af0 .LASF2419
     /tmp/ccOWj8hl.s:88169  .debug_str:0000000000003765 .LASF2420
     /tmp/ccOWj8hl.s:102185  .debug_str:000000000003c70b .LASF2421
     /tmp/ccOWj8hl.s:105087  .debug_str:00000000000487e9 .LASF2422
     /tmp/ccOWj8hl.s:95021  .debug_str:000000000001f70c .LASF2423
     /tmp/ccOWj8hl.s:91045  .debug_str:000000000000f3bf .LASF2424
     /tmp/ccOWj8hl.s:95429  .debug_str:000000000002119b .LASF2425
     /tmp/ccOWj8hl.s:99397  .debug_str:0000000000031401 .LASF2426
     /tmp/ccOWj8hl.s:94581  .debug_str:000000000001d717 .LASF2427
     /tmp/ccOWj8hl.s:105607  .debug_str:000000000004adaa .LASF2428
     /tmp/ccOWj8hl.s:94653  .debug_str:000000000001dba7 .LASF2429
     /tmp/ccOWj8hl.s:93093  .debug_str:00000000000176cc .LASF2430
     /tmp/ccOWj8hl.s:102315  .debug_str:000000000003cf7e .LASF2431
     /tmp/ccOWj8hl.s:105833  .debug_str:000000000004bc25 .LASF2432
     /tmp/ccOWj8hl.s:95507  .debug_str:0000000000021746 .LASF2433
     /tmp/ccOWj8hl.s:97527  .debug_str:0000000000029840 .LASF2434
     /tmp/ccOWj8hl.s:94197  .debug_str:000000000001bc90 .LASF2435
     /tmp/ccOWj8hl.s:88897  .debug_str:00000000000069b1 .LASF2436
     /tmp/ccOWj8hl.s:99681  .debug_str:00000000000326fb .LASF2437
     /tmp/ccOWj8hl.s:105423  .debug_str:000000000004a004 .LASF2438
     /tmp/ccOWj8hl.s:98905  .debug_str:000000000002f2f9 .LASF2439
     /tmp/ccOWj8hl.s:97097  .debug_str:0000000000027c20 .LASF2440
     /tmp/ccOWj8hl.s:90999  .debug_str:000000000000f131 .LASF2441
     /tmp/ccOWj8hl.s:94105  .debug_str:000000000001b713 .LASF2442
     /tmp/ccOWj8hl.s:100147  .debug_str:0000000000034652 .LASF2443
     /tmp/ccOWj8hl.s:105193  .debug_str:0000000000048f26 .LASF2444
     /tmp/ccOWj8hl.s:91367  .debug_str:0000000000010650 .LASF2445
     /tmp/ccOWj8hl.s:98747  .debug_str:000000000002e8ea .LASF2446
     /tmp/ccOWj8hl.s:99337  .debug_str:0000000000031002 .LASF2447
     /tmp/ccOWj8hl.s:95995  .debug_str:0000000000023781 .LASF2448
     /tmp/ccOWj8hl.s:88009  .debug_str:0000000000002cd7 .LASF2449
     /tmp/ccOWj8hl.s:102593  .debug_str:000000000003e1c2 .LASF2450
     /tmp/ccOWj8hl.s:105443  .debug_str:000000000004a1ad .LASF2451
     /tmp/ccOWj8hl.s:87669  .debug_str:0000000000001481 .LASF2452
     /tmp/ccOWj8hl.s:96839  .debug_str:0000000000026ad6 .LASF2453
     /tmp/ccOWj8hl.s:93691  .debug_str:0000000000019e21 .LASF2454
     /tmp/ccOWj8hl.s:92313  .debug_str:0000000000014330 .LASF2455
     /tmp/ccOWj8hl.s:98093  .debug_str:000000000002bc1e .LASF2456
     /tmp/ccOWj8hl.s:101103  .debug_str:0000000000037de1 .LASF2457
     /tmp/ccOWj8hl.s:100275  .debug_str:0000000000034e9e .LASF2458
     /tmp/ccOWj8hl.s:99251  .debug_str:0000000000030a71 .LASF2459
     /tmp/ccOWj8hl.s:89935  .debug_str:000000000000af57 .LASF2460
     /tmp/ccOWj8hl.s:89089  .debug_str:00000000000075fc .LASF2461
     /tmp/ccOWj8hl.s:94861  .debug_str:000000000001eb27 .LASF2462
     /tmp/ccOWj8hl.s:96697  .debug_str:00000000000261e3 .LASF2463
     /tmp/ccOWj8hl.s:90091  .debug_str:000000000000ba23 .LASF2464
     /tmp/ccOWj8hl.s:97099  .debug_str:0000000000027c5b .LASF2465
     /tmp/ccOWj8hl.s:104257  .debug_str:0000000000044f99 .LASF2466
     /tmp/ccOWj8hl.s:96223  .debug_str:000000000002436f .LASF2467
     /tmp/ccOWj8hl.s:95707  .debug_str:00000000000224a0 .LASF2468
     /tmp/ccOWj8hl.s:105281  .debug_str:00000000000495e2 .LASF2469
     /tmp/ccOWj8hl.s:90835  .debug_str:000000000000e772 .LASF2470
     /tmp/ccOWj8hl.s:98055  .debug_str:000000000002b95c .LASF2471
     /tmp/ccOWj8hl.s:104925  .debug_str:0000000000047cdb .LASF2472
     /tmp/ccOWj8hl.s:89025  .debug_str:000000000000722f .LASF2473
     /tmp/ccOWj8hl.s:102131  .debug_str:000000000003c345 .LASF2474
     /tmp/ccOWj8hl.s:105379  .debug_str:0000000000049c25 .LASF2475
     /tmp/ccOWj8hl.s:87545  .debug_str:0000000000000c24 .LASF2476
     /tmp/ccOWj8hl.s:98307  .debug_str:000000000002caa1 .LASF2477
     /tmp/ccOWj8hl.s:88141  .debug_str:000000000000355e .LASF2478
     /tmp/ccOWj8hl.s:90901  .debug_str:000000000000eac9 .LASF2479
     /tmp/ccOWj8hl.s:100829  .debug_str:0000000000036dd5 .LASF2480
     /tmp/ccOWj8hl.s:102529  .debug_str:000000000003dcd9 .LASF2481
     /tmp/ccOWj8hl.s:94639  .debug_str:000000000001dab8 .LASF2482
     /tmp/ccOWj8hl.s:89465  .debug_str:0000000000008eea .LASF2483
     /tmp/ccOWj8hl.s:90107  .debug_str:000000000000baf9 .LASF2484
     /tmp/ccOWj8hl.s:96225  .debug_str:00000000000243b6 .LASF2485
     /tmp/ccOWj8hl.s:90009  .debug_str:000000000000b524 .LASF2486
     /tmp/ccOWj8hl.s:105259  .debug_str:000000000004941f .LASF2487
     /tmp/ccOWj8hl.s:102223  .debug_str:000000000003c970 .LASF2488
     /tmp/ccOWj8hl.s:104557  .debug_str:00000000000463da .LASF2489
     /tmp/ccOWj8hl.s:100253  .debug_str:0000000000034d36 .LASF2490
     /tmp/ccOWj8hl.s:87437  .debug_str:000000000000054d .LASF2491
     /tmp/ccOWj8hl.s:92913  .debug_str:0000000000016b51 .LASF2492
     /tmp/ccOWj8hl.s:98369  .debug_str:000000000002cf3a .LASF2493
     /tmp/ccOWj8hl.s:88471  .debug_str:0000000000004cb8 .LASF2494
     /tmp/ccOWj8hl.s:101497  .debug_str:00000000000398cb .LASF2495
     /tmp/ccOWj8hl.s:102579  .debug_str:000000000003e0be .LASF2496
     /tmp/ccOWj8hl.s:99949  .debug_str:00000000000339bb .LASF2497
     /tmp/ccOWj8hl.s:89933  .debug_str:000000000000af11 .LASF2498
     /tmp/ccOWj8hl.s:90991  .debug_str:000000000000f0b5 .LASF2499
     /tmp/ccOWj8hl.s:93063  .debug_str:00000000000174f0 .LASF2500
     /tmp/ccOWj8hl.s:104475  .debug_str:0000000000045e7a .LASF2501
     /tmp/ccOWj8hl.s:87767  .debug_str:0000000000001bb6 .LASF2502
     /tmp/ccOWj8hl.s:104951  .debug_str:0000000000047eb4 .LASF2503
     /tmp/ccOWj8hl.s:97883  .debug_str:000000000002af7f .LASF2504
     /tmp/ccOWj8hl.s:92817  .debug_str:0000000000016459 .LASF2505
     /tmp/ccOWj8hl.s:89005  .debug_str:000000000000708c .LASF2506
     /tmp/ccOWj8hl.s:91785  .debug_str:000000000001226d .LASF2507
     /tmp/ccOWj8hl.s:97019  .debug_str:00000000000277e2 .LASF2508
     /tmp/ccOWj8hl.s:96467  .debug_str:000000000002524c .LASF2509
     /tmp/ccOWj8hl.s:103851  .debug_str:00000000000434de .LASF2510
     /tmp/ccOWj8hl.s:94611  .debug_str:000000000001d89b .LASF2511
     /tmp/ccOWj8hl.s:91117  .debug_str:000000000000f732 .LASF2512
     /tmp/ccOWj8hl.s:94921  .debug_str:000000000001ef42 .LASF2513
     /tmp/ccOWj8hl.s:102915  .debug_str:000000000003f87e .LASF2514
     /tmp/ccOWj8hl.s:101415  .debug_str:0000000000039286 .LASF2515
     /tmp/ccOWj8hl.s:88951  .debug_str:0000000000006d7f .LASF2516
     /tmp/ccOWj8hl.s:103309  .debug_str:0000000000041275 .LASF2517
     /tmp/ccOWj8hl.s:98427  .debug_str:000000000002d2c7 .LASF2518
     /tmp/ccOWj8hl.s:98185  .debug_str:000000000002c224 .LASF2519
     /tmp/ccOWj8hl.s:99903  .debug_str:000000000003361b .LASF2520
     /tmp/ccOWj8hl.s:89423  .debug_str:0000000000008c3f .LASF2521
     /tmp/ccOWj8hl.s:105015  .debug_str:0000000000048313 .LASF2522
     /tmp/ccOWj8hl.s:95453  .debug_str:000000000002134e .LASF2523
     /tmp/ccOWj8hl.s:93069  .debug_str:0000000000017575 .LASF2524
     /tmp/ccOWj8hl.s:103757  .debug_str:0000000000042f22 .LASF2525
     /tmp/ccOWj8hl.s:95499  .debug_str:00000000000216a2 .LASF2526
     /tmp/ccOWj8hl.s:90149  .debug_str:000000000000bde8 .LASF2527
     /tmp/ccOWj8hl.s:87997  .debug_str:0000000000002bbd .LASF2528
     /tmp/ccOWj8hl.s:89779  .debug_str:000000000000a445 .LASF2529
     /tmp/ccOWj8hl.s:91477  .debug_str:0000000000010d3c .LASF2530
     /tmp/ccOWj8hl.s:96491  .debug_str:000000000002543b .LASF2531
     /tmp/ccOWj8hl.s:95827  .debug_str:0000000000022cfa .LASF2532
     /tmp/ccOWj8hl.s:91675  .debug_str:0000000000011b2b .LASF2533
     /tmp/ccOWj8hl.s:92797  .debug_str:00000000000162a7 .LASF2534
     /tmp/ccOWj8hl.s:105713  .debug_str:000000000004b4a7 .LASF2535
     /tmp/ccOWj8hl.s:95579  .debug_str:0000000000021bf8 .LASF2536
     /tmp/ccOWj8hl.s:92921  .debug_str:0000000000016bb9 .LASF2537
     /tmp/ccOWj8hl.s:95421  .debug_str:00000000000210cc .LASF2538
     /tmp/ccOWj8hl.s:98005  .debug_str:000000000002b620 .LASF2539
     /tmp/ccOWj8hl.s:90035  .debug_str:000000000000b6b2 .LASF2540
     /tmp/ccOWj8hl.s:93905  .debug_str:000000000001aac0 .LASF2541
     /tmp/ccOWj8hl.s:92021  .debug_str:00000000000131ad .LASF2542
     /tmp/ccOWj8hl.s:93081  .debug_str:0000000000017624 .LASF2543
     /tmp/ccOWj8hl.s:94003  .debug_str:000000000001b0d0 .LASF2544
     /tmp/ccOWj8hl.s:88663  .debug_str:00000000000059fc .LASF2545
     /tmp/ccOWj8hl.s:98673  .debug_str:000000000002e3b7 .LASF2546
     /tmp/ccOWj8hl.s:91939  .debug_str:0000000000012cbc .LASF2547
     /tmp/ccOWj8hl.s:104291  .debug_str:00000000000451ae .LASF2548
     /tmp/ccOWj8hl.s:99623  .debug_str:00000000000322eb .LASF2549
     /tmp/ccOWj8hl.s:91561  .debug_str:0000000000011325 .LASF2550
     /tmp/ccOWj8hl.s:93005  .debug_str:00000000000170db .LASF2551
     /tmp/ccOWj8hl.s:87711  .debug_str:00000000000017b3 .LASF2552
     /tmp/ccOWj8hl.s:89469  .debug_str:0000000000008f4e .LASF2553
     /tmp/ccOWj8hl.s:94551  .debug_str:000000000001d579 .LASF2554
     /tmp/ccOWj8hl.s:101983  .debug_str:000000000003ba58 .LASF2555
     /tmp/ccOWj8hl.s:94975  .debug_str:000000000001f43d .LASF2556
     /tmp/ccOWj8hl.s:95497  .debug_str:0000000000021671 .LASF2557
     /tmp/ccOWj8hl.s:101831  .debug_str:000000000003af83 .LASF2558
     /tmp/ccOWj8hl.s:99073  .debug_str:000000000002fd36 .LASF2559
     /tmp/ccOWj8hl.s:103771  .debug_str:000000000004302f .LASF2560
     /tmp/ccOWj8hl.s:104403  .debug_str:0000000000045925 .LASF2561
     /tmp/ccOWj8hl.s:88549  .debug_str:00000000000051c7 .LASF2562
     /tmp/ccOWj8hl.s:96525  .debug_str:0000000000025678 .LASF2563
     /tmp/ccOWj8hl.s:101311  .debug_str:0000000000038c70 .LASF2564
     /tmp/ccOWj8hl.s:90183  .debug_str:000000000000c041 .LASF2565
     /tmp/ccOWj8hl.s:89795  .debug_str:000000000000a50e .LASF2566
     /tmp/ccOWj8hl.s:101427  .debug_str:000000000003939a .LASF2567
     /tmp/ccOWj8hl.s:101923  .debug_str:000000000003b624 .LASF2568
     /tmp/ccOWj8hl.s:88283  .debug_str:0000000000003fb1 .LASF2569
     /tmp/ccOWj8hl.s:100655  .debug_str:00000000000364f0 .LASF2570
     /tmp/ccOWj8hl.s:94891  .debug_str:000000000001ed22 .LASF2571
     /tmp/ccOWj8hl.s:91881  .debug_str:0000000000012963 .LASF2572
     /tmp/ccOWj8hl.s:94885  .debug_str:000000000001ecc1 .LASF2573
     /tmp/ccOWj8hl.s:101877  .debug_str:000000000003b2c4 .LASF2574
     /tmp/ccOWj8hl.s:93825  .debug_str:000000000001a5c4 .LASF2575
     /tmp/ccOWj8hl.s:96985  .debug_str:000000000002753e .LASF2576
     /tmp/ccOWj8hl.s:98149  .debug_str:000000000002bfd2 .LASF2577
     /tmp/ccOWj8hl.s:101927  .debug_str:000000000003b68e .LASF2578
     /tmp/ccOWj8hl.s:88759  .debug_str:0000000000005fd9 .LASF2579
     /tmp/ccOWj8hl.s:95559  .debug_str:0000000000021a84 .LASF2580
     /tmp/ccOWj8hl.s:99885  .debug_str:000000000003351e .LASF2581
     /tmp/ccOWj8hl.s:104747  .debug_str:0000000000047016 .LASF2582
     /tmp/ccOWj8hl.s:105781  .debug_str:000000000004b8af .LASF2583
     /tmp/ccOWj8hl.s:89765  .debug_str:000000000000a313 .LASF2584
     /tmp/ccOWj8hl.s:105049  .debug_str:0000000000048573 .LASF2585
     /tmp/ccOWj8hl.s:96441  .debug_str:00000000000250d7 .LASF2586
     /tmp/ccOWj8hl.s:92157  .debug_str:0000000000013a16 .LASF2587
     /tmp/ccOWj8hl.s:93713  .debug_str:0000000000019f6d .LASF2588
     /tmp/ccOWj8hl.s:89279  .debug_str:0000000000008276 .LASF2589
     /tmp/ccOWj8hl.s:98475  .debug_str:000000000002d691 .LASF2590
     /tmp/ccOWj8hl.s:99709  .debug_str:0000000000032942 .LASF2591
     /tmp/ccOWj8hl.s:105077  .debug_str:0000000000048754 .LASF2592
     /tmp/ccOWj8hl.s:95149  .debug_str:000000000001ff29 .LASF2593
     /tmp/ccOWj8hl.s:95627  .debug_str:0000000000021f28 .LASF2594
     /tmp/ccOWj8hl.s:99081  .debug_str:000000000002fdb8 .LASF2595
     /tmp/ccOWj8hl.s:101713  .debug_str:000000000003a7c9 .LASF2596
     /tmp/ccOWj8hl.s:102781  .debug_str:000000000003ef23 .LASF2597
     /tmp/ccOWj8hl.s:103419  .debug_str:00000000000419fd .LASF2598
     /tmp/ccOWj8hl.s:94895  .debug_str:000000000001ed8a .LASF2599
     /tmp/ccOWj8hl.s:94353  .debug_str:000000000001c78d .LASF2600
     /tmp/ccOWj8hl.s:97381  .debug_str:0000000000028ec8 .LASF2601
     /tmp/ccOWj8hl.s:103141  .debug_str:0000000000040796 .LASF2602
     /tmp/ccOWj8hl.s:95103  .debug_str:000000000001fc0a .LASF2603
     /tmp/ccOWj8hl.s:93597  .debug_str:0000000000019724 .LASF2604
     /tmp/ccOWj8hl.s:93799  .debug_str:000000000001a47b .LASF2605
     /tmp/ccOWj8hl.s:93403  .debug_str:0000000000018aab .LASF2606
     /tmp/ccOWj8hl.s:99855  .debug_str:00000000000332f4 .LASF2607
     /tmp/ccOWj8hl.s:91741  .debug_str:0000000000011f61 .LASF2608
     /tmp/ccOWj8hl.s:97311  .debug_str:0000000000028ad6 .LASF2609
     /tmp/ccOWj8hl.s:98729  .debug_str:000000000002e75f .LASF2610
     /tmp/ccOWj8hl.s:88917  .debug_str:0000000000006b33 .LASF2611
     /tmp/ccOWj8hl.s:93815  .debug_str:000000000001a51d .LASF2612
     /tmp/ccOWj8hl.s:103109  .debug_str:00000000000404fa .LASF2613
     /tmp/ccOWj8hl.s:91803  .debug_str:000000000001238a .LASF2614
     /tmp/ccOWj8hl.s:88379  .debug_str:000000000000466a .LASF2615
     /tmp/ccOWj8hl.s:105539  .debug_str:000000000004a8a6 .LASF2616
     /tmp/ccOWj8hl.s:91377  .debug_str:0000000000010733 .LASF2617
     /tmp/ccOWj8hl.s:88787  .debug_str:00000000000061a8 .LASF2618
     /tmp/ccOWj8hl.s:101689  .debug_str:000000000003a5d4 .LASF2619
     /tmp/ccOWj8hl.s:99941  .debug_str:0000000000033928 .LASF2620
     /tmp/ccOWj8hl.s:102887  .debug_str:000000000003f677 .LASF2621
     /tmp/ccOWj8hl.s:95725  .debug_str:00000000000225cd .LASF2622
     /tmp/ccOWj8hl.s:94219  .debug_str:000000000001be25 .LASF2623
     /tmp/ccOWj8hl.s:92837  .debug_str:000000000001656c .LASF2624
     /tmp/ccOWj8hl.s:104093  .debug_str:0000000000044489 .LASF2625
     /tmp/ccOWj8hl.s:103029  .debug_str:000000000003ff3e .LASF2626
     /tmp/ccOWj8hl.s:100097  .debug_str:00000000000342d1 .LASF2627
     /tmp/ccOWj8hl.s:87789  .debug_str:0000000000001cf0 .LASF2628
     /tmp/ccOWj8hl.s:101307  .debug_str:0000000000038bef .LASF2629
     /tmp/ccOWj8hl.s:99883  .debug_str:00000000000334e6 .LASF2630
     /tmp/ccOWj8hl.s:92071  .debug_str:00000000000134dc .LASF2631
     /tmp/ccOWj8hl.s:89637  .debug_str:0000000000009acd .LASF2632
     /tmp/ccOWj8hl.s:102039  .debug_str:000000000003be09 .LASF2633
     /tmp/ccOWj8hl.s:99985  .debug_str:0000000000033c00 .LASF2634
     /tmp/ccOWj8hl.s:88271  .debug_str:0000000000003ec0 .LASF2635
     /tmp/ccOWj8hl.s:98991  .debug_str:000000000002f866 .LASF2636
     /tmp/ccOWj8hl.s:101303  .debug_str:0000000000038b76 .LASF2637
     /tmp/ccOWj8hl.s:92463  .debug_str:0000000000014d50 .LASF2638
     /tmp/ccOWj8hl.s:105421  .debug_str:0000000000049fc3 .LASF2639
     /tmp/ccOWj8hl.s:93897  .debug_str:000000000001aa56 .LASF2640
     /tmp/ccOWj8hl.s:105209  .debug_str:000000000004901f .LASF2641
     /tmp/ccOWj8hl.s:105609  .debug_str:000000000004adf3 .LASF2642
     /tmp/ccOWj8hl.s:97861  .debug_str:000000000002adf2 .LASF2643
     /tmp/ccOWj8hl.s:91149  .debug_str:000000000000f972 .LASF2644
     /tmp/ccOWj8hl.s:100431  .debug_str:0000000000035822 .LASF2645
     /tmp/ccOWj8hl.s:92345  .debug_str:00000000000145a1 .LASF2646
     /tmp/ccOWj8hl.s:99857  .debug_str:000000000003332e .LASF2647
     /tmp/ccOWj8hl.s:102167  .debug_str:000000000003c5d1 .LASF2648
     /tmp/ccOWj8hl.s:94439  .debug_str:000000000001cd74 .LASF2649
     /tmp/ccOWj8hl.s:103179  .debug_str:0000000000040a1e .LASF2650
     /tmp/ccOWj8hl.s:93943  .debug_str:000000000001ace3 .LASF2651
     /tmp/ccOWj8hl.s:104647  .debug_str:00000000000469ab .LASF2652
     /tmp/ccOWj8hl.s:103879  .debug_str:000000000004363a .LASF2653
     /tmp/ccOWj8hl.s:100143  .debug_str:00000000000345ee .LASF2654
     /tmp/ccOWj8hl.s:87611  .debug_str:00000000000010d6 .LASF2655
     /tmp/ccOWj8hl.s:95431  .debug_str:00000000000211d5 .LASF2656
     /tmp/ccOWj8hl.s:99725  .debug_str:00000000000329fe .LASF2657
     /tmp/ccOWj8hl.s:89949  .debug_str:000000000000b057 .LASF2658
     /tmp/ccOWj8hl.s:88241  .debug_str:0000000000003c94 .LASF2659
     /tmp/ccOWj8hl.s:103945  .debug_str:0000000000043b5a .LASF2660
     /tmp/ccOWj8hl.s:103045  .debug_str:0000000000040047 .LASF2661
     /tmp/ccOWj8hl.s:99445  .debug_str:000000000003176f .LASF2662
     /tmp/ccOWj8hl.s:87817  .debug_str:0000000000001eeb .LASF2663
     /tmp/ccOWj8hl.s:94853  .debug_str:000000000001ea80 .LASF2664
     /tmp/ccOWj8hl.s:97219  .debug_str:0000000000028480 .LASF2665
     /tmp/ccOWj8hl.s:91027  .debug_str:000000000000f252 .LASF2666
     /tmp/ccOWj8hl.s:97027  .debug_str:0000000000027862 .LASF2667
     /tmp/ccOWj8hl.s:89057  .debug_str:000000000000740e .LASF2668
     /tmp/ccOWj8hl.s:102329  .debug_str:000000000003d040 .LASF2669
     /tmp/ccOWj8hl.s:100569  .debug_str:0000000000035fe0 .LASF2670
     /tmp/ccOWj8hl.s:102683  .debug_str:000000000003e8c3 .LASF2671
     /tmp/ccOWj8hl.s:101503  .debug_str:0000000000039979 .LASF2672
     /tmp/ccOWj8hl.s:88887  .debug_str:00000000000068e9 .LASF2673
     /tmp/ccOWj8hl.s:97177  .debug_str:00000000000281a1 .LASF2674
     /tmp/ccOWj8hl.s:94077  .debug_str:000000000001b530 .LASF2675
     /tmp/ccOWj8hl.s:103943  .debug_str:0000000000043b20 .LASF2676
     /tmp/ccOWj8hl.s:98143  .debug_str:000000000002bf72 .LASF2677
     /tmp/ccOWj8hl.s:100515  .debug_str:0000000000035d2d .LASF2678
     /tmp/ccOWj8hl.s:104239  .debug_str:0000000000044e56 .LASF2679
     /tmp/ccOWj8hl.s:100341  .debug_str:00000000000352a9 .LASF2680
     /tmp/ccOWj8hl.s:87811  .debug_str:0000000000001e7b .LASF2681
     /tmp/ccOWj8hl.s:103811  .debug_str:000000000004325f .LASF2682
     /tmp/ccOWj8hl.s:97859  .debug_str:000000000002adb7 .LASF2683
     /tmp/ccOWj8hl.s:94929  .debug_str:000000000001eff5 .LASF2684
     /tmp/ccOWj8hl.s:89207  .debug_str:0000000000007d65 .LASF2685
     /tmp/ccOWj8hl.s:102973  .debug_str:000000000003fb45 .LASF2686
     /tmp/ccOWj8hl.s:98609  .debug_str:000000000002df83 .LASF2687
     /tmp/ccOWj8hl.s:94573  .debug_str:000000000001d689 .LASF2688
     /tmp/ccOWj8hl.s:92945  .debug_str:0000000000016d7f .LASF2689
     /tmp/ccOWj8hl.s:92101  .debug_str:000000000001369d .LASF2690
     /tmp/ccOWj8hl.s:93247  .debug_str:0000000000018008 .LASF2691
     /tmp/ccOWj8hl.s:89277  .debug_str:0000000000008236 .LASF2692
     /tmp/ccOWj8hl.s:104539  .debug_str:0000000000046299 .LASF2693
     /tmp/ccOWj8hl.s:93385  .debug_str:0000000000018975 .LASF2694
     /tmp/ccOWj8hl.s:105013  .debug_str:00000000000482db .LASF2695
     /tmp/ccOWj8hl.s:103351  .debug_str:0000000000041522 .LASF2696
     /tmp/ccOWj8hl.s:104035  .debug_str:0000000000044100 .LASF2697
     /tmp/ccOWj8hl.s:92537  .debug_str:0000000000015205 .LASF2698
     /tmp/ccOWj8hl.s:91289  .debug_str:0000000000010138 .LASF2699
     /tmp/ccOWj8hl.s:90239  .debug_str:000000000000c462 .LASF2700
     /tmp/ccOWj8hl.s:98969  .debug_str:000000000002f707 .LASF2701
     /tmp/ccOWj8hl.s:96431  .debug_str:000000000002500b .LASF2702
     /tmp/ccOWj8hl.s:96745  .debug_str:000000000002650f .LASF2703
     /tmp/ccOWj8hl.s:105715  .debug_str:000000000004b4e3 .LASF2704
     /tmp/ccOWj8hl.s:98855  .debug_str:000000000002efd9 .LASF2705
     /tmp/ccOWj8hl.s:96285  .debug_str:000000000002460f .LASF2706
     /tmp/ccOWj8hl.s:98547  .debug_str:000000000002db33 .LASF2707
     /tmp/ccOWj8hl.s:103281  .debug_str:00000000000410a3 .LASF2708
     /tmp/ccOWj8hl.s:93685  .debug_str:0000000000019d80 .LASF2709
     /tmp/ccOWj8hl.s:95341  .debug_str:0000000000020bb6 .LASF2710
     /tmp/ccOWj8hl.s:104043  .debug_str:0000000000044165 .LASF2711
     /tmp/ccOWj8hl.s:98487  .debug_str:000000000002d796 .LASF2712
     /tmp/ccOWj8hl.s:105823  .debug_str:000000000004bb3d .LASF2713
     /tmp/ccOWj8hl.s:105961  .debug_str:000000000004c55a .LASF2714
     /tmp/ccOWj8hl.s:96287  .debug_str:000000000002464d .LASF2715
     /tmp/ccOWj8hl.s:92363  .debug_str:00000000000146a7 .LASF2716
     /tmp/ccOWj8hl.s:94031  .debug_str:000000000001b214 .LASF2717
     /tmp/ccOWj8hl.s:105689  .debug_str:000000000004b2f0 .LASF2718
     /tmp/ccOWj8hl.s:102755  .debug_str:000000000003ed35 .LASF2719
     /tmp/ccOWj8hl.s:91819  .debug_str:0000000000012489 .LASF2720
     /tmp/ccOWj8hl.s:91319  .debug_str:0000000000010383 .LASF2721
     /tmp/ccOWj8hl.s:101049  .debug_str:00000000000379d0 .LASF2722
     /tmp/ccOWj8hl.s:105235  .debug_str:0000000000049222 .LASF2723
     /tmp/ccOWj8hl.s:99465  .debug_str:00000000000318c7 .LASF2724
     /tmp/ccOWj8hl.s:100775  .debug_str:0000000000036b5d .LASF2725
     /tmp/ccOWj8hl.s:100557  .debug_str:0000000000035f12 .LASF2726
     /tmp/ccOWj8hl.s:87839  .debug_str:00000000000020b3 .LASF2727
     /tmp/ccOWj8hl.s:103915  .debug_str:000000000004392b .LASF2728
     /tmp/ccOWj8hl.s:97243  .debug_str:000000000002863d .LASF2729
     /tmp/ccOWj8hl.s:94485  .debug_str:000000000001d0e5 .LASF2730
     /tmp/ccOWj8hl.s:102559  .debug_str:000000000003df67 .LASF2731
     /tmp/ccOWj8hl.s:98033  .debug_str:000000000002b7f6 .LASF2732
     /tmp/ccOWj8hl.s:87553  .debug_str:0000000000000cc1 .LASF2733
     /tmp/ccOWj8hl.s:102729  .debug_str:000000000003ebd1 .LASF2734
     /tmp/ccOWj8hl.s:90987  .debug_str:000000000000f036 .LASF2735
     /tmp/ccOWj8hl.s:88653  .debug_str:0000000000005948 .LASF2736
     /tmp/ccOWj8hl.s:91409  .debug_str:0000000000010953 .LASF2737
     /tmp/ccOWj8hl.s:95457  .debug_str:00000000000213b4 .LASF2738
     /tmp/ccOWj8hl.s:104503  .debug_str:0000000000046077 .LASF2739
     /tmp/ccOWj8hl.s:100941  .debug_str:00000000000373fe .LASF2740
     /tmp/ccOWj8hl.s:88571  .debug_str:000000000000538b .LASF2741
     /tmp/ccOWj8hl.s:98313  .debug_str:000000000002cb10 .LASF2742
     /tmp/ccOWj8hl.s:101381  .debug_str:0000000000039066 .LASF2743
     /tmp/ccOWj8hl.s:99553  .debug_str:0000000000031e95 .LASF2744
     /tmp/ccOWj8hl.s:104989  .debug_str:000000000004815c .LASF2745
     /tmp/ccOWj8hl.s:104391  .debug_str:000000000004584c .LASF2746
     /tmp/ccOWj8hl.s:96063  .debug_str:0000000000023bb8 .LASF2747
     /tmp/ccOWj8hl.s:95967  .debug_str:0000000000023665 .LASF2748
     /tmp/ccOWj8hl.s:87633  .debug_str:000000000000123e .LASF2749
     /tmp/ccOWj8hl.s:98205  .debug_str:000000000002c3cf .LASF2750
     /tmp/ccOWj8hl.s:105367  .debug_str:0000000000049b08 .LASF2751
     /tmp/ccOWj8hl.s:89509  .debug_str:000000000000924e .LASF2752
     /tmp/ccOWj8hl.s:102361  .debug_str:000000000003d232 .LASF2753
     /tmp/ccOWj8hl.s:97517  .debug_str:00000000000296ea .LASF2754
     /tmp/ccOWj8hl.s:96875  .debug_str:0000000000026d75 .LASF2755
     /tmp/ccOWj8hl.s:91511  .debug_str:0000000000010f9e .LASF2756
     /tmp/ccOWj8hl.s:104883  .debug_str:000000000004799e .LASF2757
     /tmp/ccOWj8hl.s:101481  .debug_str:00000000000397ac .LASF2758
     /tmp/ccOWj8hl.s:102679  .debug_str:000000000003e87b .LASF2759
     /tmp/ccOWj8hl.s:90615  .debug_str:000000000000dba5 .LASF2760
     /tmp/ccOWj8hl.s:93913  .debug_str:000000000001ab55 .LASF2761
     /tmp/ccOWj8hl.s:103933  .debug_str:0000000000043a56 .LASF2762
     /tmp/ccOWj8hl.s:87459  .debug_str:00000000000006b3 .LASF2763
     /tmp/ccOWj8hl.s:99919  .debug_str:00000000000337ae .LASF2764
     /tmp/ccOWj8hl.s:95171  .debug_str:00000000000200e4 .LASF2765
     /tmp/ccOWj8hl.s:97093  .debug_str:0000000000027bbe .LASF2766
     /tmp/ccOWj8hl.s:95425  .debug_str:000000000002113c .LASF2767
     /tmp/ccOWj8hl.s:93227  .debug_str:0000000000017e5d .LASF2768
     /tmp/ccOWj8hl.s:88137  .debug_str:00000000000034e3 .LASF2769
     /tmp/ccOWj8hl.s:100759  .debug_str:0000000000036a46 .LASF2770
     /tmp/ccOWj8hl.s:95993  .debug_str:0000000000023739 .LASF2771
     /tmp/ccOWj8hl.s:93477  .debug_str:0000000000018f9c .LASF2772
     /tmp/ccOWj8hl.s:102833  .debug_str:000000000003f2ab .LASF2773
     /tmp/ccOWj8hl.s:96175  .debug_str:00000000000240a0 .LASF2774
     /tmp/ccOWj8hl.s:95117  .debug_str:000000000001fd01 .LASF2775
     /tmp/ccOWj8hl.s:105949  .debug_str:000000000004c454 .LASF2776
     /tmp/ccOWj8hl.s:87429  .debug_str:00000000000004a4 .LASF2777
     /tmp/ccOWj8hl.s:103753  .debug_str:0000000000042eae .LASF2778
     /tmp/ccOWj8hl.s:96899  .debug_str:0000000000026f6a .LASF2779
     /tmp/ccOWj8hl.s:101887  .debug_str:000000000003b3a8 .LASF2780
     /tmp/ccOWj8hl.s:102051  .debug_str:000000000003bee5 .LASF2781
     /tmp/ccOWj8hl.s:101993  .debug_str:000000000003baf8 .LASF2782
     /tmp/ccOWj8hl.s:104455  .debug_str:0000000000045d16 .LASF2783
     /tmp/ccOWj8hl.s:92691  .debug_str:0000000000015b8e .LASF2784
     /tmp/ccOWj8hl.s:95013  .debug_str:000000000001f679 .LASF2785
     /tmp/ccOWj8hl.s:87915  .debug_str:00000000000025ca .LASF2786
     /tmp/ccOWj8hl.s:104021  .debug_str:0000000000043fd9 .LASF2787
     /tmp/ccOWj8hl.s:98865  .debug_str:000000000002f069 .LASF2788
     /tmp/ccOWj8hl.s:98869  .debug_str:000000000002f0bc .LASF2789
     /tmp/ccOWj8hl.s:95767  .debug_str:000000000002284f .LASF2790
     /tmp/ccOWj8hl.s:102687  .debug_str:000000000003e920 .LASF2791
     /tmp/ccOWj8hl.s:88835  .debug_str:000000000000652e .LASF2792
     /tmp/ccOWj8hl.s:92341  .debug_str:0000000000014531 .LASF2793
     /tmp/ccOWj8hl.s:89303  .debug_str:00000000000083f8 .LASF2794
     /tmp/ccOWj8hl.s:98017  .debug_str:000000000002b6ce .LASF2795
     /tmp/ccOWj8hl.s:103715  .debug_str:0000000000042c25 .LASF2796
     /tmp/ccOWj8hl.s:102501  .debug_str:000000000003dae6 .LASF2797
     /tmp/ccOWj8hl.s:87477  .debug_str:00000000000007dc .LASF2798
     /tmp/ccOWj8hl.s:99151  .debug_str:00000000000302ed .LASF2799
     /tmp/ccOWj8hl.s:89307  .debug_str:0000000000008441 .LASF2800
     /tmp/ccOWj8hl.s:97735  .debug_str:000000000002a577 .LASF2801
     /tmp/ccOWj8hl.s:98715  .debug_str:000000000002e664 .LASF2802
     /tmp/ccOWj8hl.s:102157  .debug_str:000000000003c52e .LASF2803
     /tmp/ccOWj8hl.s:100523  .debug_str:0000000000035df2 .LASF2804
     /tmp/ccOWj8hl.s:88067  .debug_str:00000000000030cd .LASF2805
     /tmp/ccOWj8hl.s:101965  .debug_str:000000000003b935 .LASF2806
     /tmp/ccOWj8hl.s:100967  .debug_str:000000000003750a .LASF2807
     /tmp/ccOWj8hl.s:93891  .debug_str:000000000001a9c3 .LASF2808
     /tmp/ccOWj8hl.s:92413  .debug_str:00000000000149d0 .LASF2809
     /tmp/ccOWj8hl.s:100217  .debug_str:0000000000034a83 .LASF2810
     /tmp/ccOWj8hl.s:103217  .debug_str:0000000000040ccf .LASF2811
     /tmp/ccOWj8hl.s:102053  .debug_str:000000000003bf26 .LASF2812
     /tmp/ccOWj8hl.s:94823  .debug_str:000000000001e7d1 .LASF2813
     /tmp/ccOWj8hl.s:103595  .debug_str:0000000000042499 .LASF2814
     /tmp/ccOWj8hl.s:104903  .debug_str:0000000000047b11 .LASF2815
     /tmp/ccOWj8hl.s:94969  .debug_str:000000000001f3da .LASF2816
     /tmp/ccOWj8hl.s:92955  .debug_str:0000000000016e4b .LASF2817
     /tmp/ccOWj8hl.s:104789  .debug_str:000000000004727b .LASF2818
     /tmp/ccOWj8hl.s:88733  .debug_str:0000000000005e5f .LASF2819
     /tmp/ccOWj8hl.s:94103  .debug_str:000000000001b6d3 .LASF2820
     /tmp/ccOWj8hl.s:103335  .debug_str:000000000004146e .LASF2821
     /tmp/ccOWj8hl.s:97367  .debug_str:0000000000028d8e .LASF2822
     /tmp/ccOWj8hl.s:91955  .debug_str:0000000000012dae .LASF2823
     /tmp/ccOWj8hl.s:97431  .debug_str:00000000000291d6 .LASF2824
     /tmp/ccOWj8hl.s:104087  .debug_str:000000000004441a .LASF2825
     /tmp/ccOWj8hl.s:103065  .debug_str:00000000000401f6 .LASF2826
     /tmp/ccOWj8hl.s:91591  .debug_str:0000000000011554 .LASF2827
     /tmp/ccOWj8hl.s:103325  .debug_str:00000000000413cf .LASF2828
     /tmp/ccOWj8hl.s:91599  .debug_str:00000000000115f0 .LASF2829
     /tmp/ccOWj8hl.s:91701  .debug_str:0000000000011c8a .LASF2830
     /tmp/ccOWj8hl.s:95251  .debug_str:00000000000206d1 .LASF2831
     /tmp/ccOWj8hl.s:102921  .debug_str:000000000003f8f0 .LASF2832
     /tmp/ccOWj8hl.s:88573  .debug_str:00000000000053cb .LASF2833
     /tmp/ccOWj8hl.s:88623  .debug_str:0000000000005797 .LASF2834
     /tmp/ccOWj8hl.s:101271  .debug_str:000000000003892a .LASF2835
     /tmp/ccOWj8hl.s:90185  .debug_str:000000000000c07c .LASF2836
     /tmp/ccOWj8hl.s:97187  .debug_str:0000000000028267 .LASF2837
     /tmp/ccOWj8hl.s:101623  .debug_str:000000000003a15c .LASF2838
     /tmp/ccOWj8hl.s:94927  .debug_str:000000000001efb9 .LASF2839
     /tmp/ccOWj8hl.s:87903  .debug_str:00000000000024d4 .LASF2840
     /tmp/ccOWj8hl.s:89213  .debug_str:0000000000007ddb .LASF2841
     /tmp/ccOWj8hl.s:98979  .debug_str:000000000002f7b5 .LASF2842
     /tmp/ccOWj8hl.s:103211  .debug_str:0000000000040c4f .LASF2843
     /tmp/ccOWj8hl.s:89269  .debug_str:00000000000081aa .LASF2844
     /tmp/ccOWj8hl.s:101315  .debug_str:0000000000038cc9 .LASF2845
     /tmp/ccOWj8hl.s:98575  .debug_str:000000000002dcdd .LASF2846
     /tmp/ccOWj8hl.s:94085  .debug_str:000000000001b5fb .LASF2847
     /tmp/ccOWj8hl.s:88867  .debug_str:0000000000006753 .LASF2848
     /tmp/ccOWj8hl.s:101901  .debug_str:000000000003b4ef .LASF2849
     /tmp/ccOWj8hl.s:88667  .debug_str:0000000000005a4f .LASF2850
     /tmp/ccOWj8hl.s:91135  .debug_str:000000000000f85f .LASF2851
     /tmp/ccOWj8hl.s:95687  .debug_str:0000000000022358 .LASF2852
     /tmp/ccOWj8hl.s:91353  .debug_str:0000000000010548 .LASF2853
     /tmp/ccOWj8hl.s:98095  .debug_str:000000000002bc5a .LASF2854
     /tmp/ccOWj8hl.s:102029  .debug_str:000000000003bd50 .LASF2855
     /tmp/ccOWj8hl.s:93037  .debug_str:0000000000017303 .LASF2856
     /tmp/ccOWj8hl.s:97783  .debug_str:000000000002a8c7 .LASF2857
     /tmp/ccOWj8hl.s:99215  .debug_str:000000000003079c .LASF2858
     /tmp/ccOWj8hl.s:95573  .debug_str:0000000000021b77 .LASF2859
     /tmp/ccOWj8hl.s:87739  .debug_str:00000000000019a7 .LASF2860
     /tmp/ccOWj8hl.s:91223  .debug_str:000000000000fd7a .LASF2861
     /tmp/ccOWj8hl.s:94955  .debug_str:000000000001f27d .LASF2862
     /tmp/ccOWj8hl.s:90019  .debug_str:000000000000b5b3 .LASF2863
     /tmp/ccOWj8hl.s:103023  .debug_str:000000000003fed0 .LASF2864
     /tmp/ccOWj8hl.s:89221  .debug_str:0000000000007e74 .LASF2865
     /tmp/ccOWj8hl.s:90155  .debug_str:000000000000be6a .LASF2866
     /tmp/ccOWj8hl.s:93941  .debug_str:000000000001ac9d .LASF2867
     /tmp/ccOWj8hl.s:89609  .debug_str:00000000000098c9 .LASF2868
     /tmp/ccOWj8hl.s:102025  .debug_str:000000000003bcf2 .LASF2869
     /tmp/ccOWj8hl.s:92151  .debug_str:000000000001398d .LASF2870
     /tmp/ccOWj8hl.s:91497  .debug_str:0000000000010e9b .LASF2871
     /tmp/ccOWj8hl.s:96725  .debug_str:00000000000263ba .LASF2872
     /tmp/ccOWj8hl.s:89201  .debug_str:0000000000007ce2 .LASF2873
     /tmp/ccOWj8hl.s:88151  .debug_str:0000000000003625 .LASF2874
     /tmp/ccOWj8hl.s:99811  .debug_str:000000000003300c .LASF2875
     /tmp/ccOWj8hl.s:98495  .debug_str:000000000002d831 .LASF2876
     /tmp/ccOWj8hl.s:105533  .debug_str:000000000004a841 .LASF2877
     /tmp/ccOWj8hl.s:105903  .debug_str:000000000004c133 .LASF2878
     /tmp/ccOWj8hl.s:92399  .debug_str:0000000000014902 .LASF2879
     /tmp/ccOWj8hl.s:88873  .debug_str:00000000000067dd .LASF2880
     /tmp/ccOWj8hl.s:102891  .debug_str:000000000003f6d0 .LASF2881
     /tmp/ccOWj8hl.s:89383  .debug_str:000000000000897b .LASF2882
     /tmp/ccOWj8hl.s:105429  .debug_str:000000000004a08c .LASF2883
     /tmp/ccOWj8hl.s:89823  .debug_str:000000000000a72e .LASF2884
     /tmp/ccOWj8hl.s:101773  .debug_str:000000000003ab99 .LASF2885
     /tmp/ccOWj8hl.s:96969  .debug_str:00000000000273ef .LASF2886
     /tmp/ccOWj8hl.s:91833  .debug_str:00000000000125d1 .LASF2887
     /tmp/ccOWj8hl.s:102845  .debug_str:000000000003f381 .LASF2888
     /tmp/ccOWj8hl.s:101309  .debug_str:0000000000038c2f .LASF2889
     /tmp/ccOWj8hl.s:96477  .debug_str:0000000000025331 .LASF2890
     /tmp/ccOWj8hl.s:99839  .debug_str:00000000000331b7 .LASF2891
     /tmp/ccOWj8hl.s:103803  .debug_str:00000000000431e2 .LASF2892
     /tmp/ccOWj8hl.s:93015  .debug_str:00000000000171b1 .LASF2893
     /tmp/ccOWj8hl.s:88895  .debug_str:000000000000696f .LASF2894
     /tmp/ccOWj8hl.s:104313  .debug_str:0000000000045320 .LASF2895
     /tmp/ccOWj8hl.s:101581  .debug_str:0000000000039edb .LASF2896
     /tmp/ccOWj8hl.s:92873  .debug_str:000000000001683e .LASF2897
     /tmp/ccOWj8hl.s:94509  .debug_str:000000000001d278 .LASF2898
     /tmp/ccOWj8hl.s:89691  .debug_str:0000000000009de5 .LASF2899
     /tmp/ccOWj8hl.s:92153  .debug_str:00000000000139cb .LASF2900
     /tmp/ccOWj8hl.s:92419  .debug_str:0000000000014a5f .LASF2901
     /tmp/ccOWj8hl.s:90285  .debug_str:000000000000c72c .LASF2902
     /tmp/ccOWj8hl.s:102575  .debug_str:000000000003e05f .LASF2903
     /tmp/ccOWj8hl.s:105375  .debug_str:0000000000049baa .LASF2904
     /tmp/ccOWj8hl.s:97537  .debug_str:00000000000298eb .LASF2905
     /tmp/ccOWj8hl.s:104879  .debug_str:0000000000047950 .LASF2906
     /tmp/ccOWj8hl.s:87827  .debug_str:0000000000001fdb .LASF2907
     /tmp/ccOWj8hl.s:91541  .debug_str:00000000000111a3 .LASF2908
     /tmp/ccOWj8hl.s:99161  .debug_str:000000000003040a .LASF2909
     /tmp/ccOWj8hl.s:104637  .debug_str:00000000000468db .LASF2910
     /tmp/ccOWj8hl.s:96861  .debug_str:0000000000026c5f .LASF2911
     /tmp/ccOWj8hl.s:102627  .debug_str:000000000003e442 .LASF2912
     /tmp/ccOWj8hl.s:99423  .debug_str:00000000000315de .LASF2913
     /tmp/ccOWj8hl.s:88413  .debug_str:00000000000048c6 .LASF2914
     /tmp/ccOWj8hl.s:91299  .debug_str:0000000000010201 .LASF2915
     /tmp/ccOWj8hl.s:94811  .debug_str:000000000001e6ff .LASF2916
     /tmp/ccOWj8hl.s:93531  .debug_str:000000000001934c .LASF2917
     /tmp/ccOWj8hl.s:98079  .debug_str:000000000002bb0e .LASF2918
     /tmp/ccOWj8hl.s:98277  .debug_str:000000000002c888 .LASF2919
     /tmp/ccOWj8hl.s:101125  .debug_str:0000000000037f69 .LASF2920
     /tmp/ccOWj8hl.s:101051  .debug_str:0000000000037a11 .LASF2921
     /tmp/ccOWj8hl.s:89749  .debug_str:000000000000a241 .LASF2922
     /tmp/ccOWj8hl.s:95249  .debug_str:0000000000020685 .LASF2923
     /tmp/ccOWj8hl.s:100357  .debug_str:00000000000353f0 .LASF2924
     /tmp/ccOWj8hl.s:98467  .debug_str:000000000002d5de .LASF2925
     /tmp/ccOWj8hl.s:101647  .debug_str:000000000003a2e7 .LASF2926
     /tmp/ccOWj8hl.s:105273  .debug_str:000000000004951c .LASF2927
     /tmp/ccOWj8hl.s:102275  .debug_str:000000000003ccfe .LASF2928
     /tmp/ccOWj8hl.s:104621  .debug_str:00000000000467a7 .LASF2929
     /tmp/ccOWj8hl.s:93617  .debug_str:000000000001990f .LASF2930
     /tmp/ccOWj8hl.s:94659  .debug_str:000000000001dc42 .LASF2931
     /tmp/ccOWj8hl.s:103583  .debug_str:00000000000423b2 .LASF2932
     /tmp/ccOWj8hl.s:90425  .debug_str:000000000000d03c .LASF2933
     /tmp/ccOWj8hl.s:101537  .debug_str:0000000000039bc4 .LASF2934
     /tmp/ccOWj8hl.s:100835  .debug_str:0000000000036e36 .LASF2935
     /tmp/ccOWj8hl.s:92775  .debug_str:000000000001615b .LASF2936
     /tmp/ccOWj8hl.s:92275  .debug_str:00000000000140db .LASF2937
     /tmp/ccOWj8hl.s:99315  .debug_str:0000000000030e84 .LASF2938
     /tmp/ccOWj8hl.s:102477  .debug_str:000000000003d8ff .LASF2939
     /tmp/ccOWj8hl.s:94113  .debug_str:000000000001b79b .LASF2940
     /tmp/ccOWj8hl.s:101541  .debug_str:0000000000039c10 .LASF2941
     /tmp/ccOWj8hl.s:101899  .debug_str:000000000003b4ac .LASF2942
     /tmp/ccOWj8hl.s:92783  .debug_str:00000000000161f0 .LASF2943
     /tmp/ccOWj8hl.s:102609  .debug_str:000000000003e2eb .LASF2944
     /tmp/ccOWj8hl.s:104199  .debug_str:0000000000044be2 .LASF2945
     /tmp/ccOWj8hl.s:98453  .debug_str:000000000002d4de .LASF2946
     /tmp/ccOWj8hl.s:92425  .debug_str:0000000000014ae9 .LASF2947
     /tmp/ccOWj8hl.s:89087  .debug_str:00000000000075bb .LASF2948
     /tmp/ccOWj8hl.s:98517  .debug_str:000000000002d95a .LASF2949
     /tmp/ccOWj8hl.s:90141  .debug_str:000000000000bd31 .LASF2950
     /tmp/ccOWj8hl.s:101929  .debug_str:000000000003b6cf .LASF2951
     /tmp/ccOWj8hl.s:96997  .debug_str:0000000000027641 .LASF2952
     /tmp/ccOWj8hl.s:103017  .debug_str:000000000003fe2e .LASF2953
     /tmp/ccOWj8hl.s:91933  .debug_str:0000000000012c2c .LASF2954
     /tmp/ccOWj8hl.s:103069  .debug_str:0000000000040252 .LASF2955
     /tmp/ccOWj8hl.s:95821  .debug_str:0000000000022c3e .LASF2956
     /tmp/ccOWj8hl.s:104095  .debug_str:00000000000444cc .LASF2957
     /tmp/ccOWj8hl.s:100631  .debug_str:0000000000036314 .LASF2958
     /tmp/ccOWj8hl.s:97505  .debug_str:0000000000029615 .LASF2959
     /tmp/ccOWj8hl.s:98533  .debug_str:000000000002da66 .LASF2960
     /tmp/ccOWj8hl.s:105685  .debug_str:000000000004b27f .LASF2961
     /tmp/ccOWj8hl.s:88829  .debug_str:00000000000064b1 .LASF2962
     /tmp/ccOWj8hl.s:99689  .debug_str:00000000000327db .LASF2963
     /tmp/ccOWj8hl.s:104211  .debug_str:0000000000044cb8 .LASF2964
     /tmp/ccOWj8hl.s:94949  .debug_str:000000000001f1e0 .LASF2965
     /tmp/ccOWj8hl.s:94627  .debug_str:000000000001d9e3 .LASF2966
     /tmp/ccOWj8hl.s:103603  .debug_str:0000000000042533 .LASF2967
     /tmp/ccOWj8hl.s:89349  .debug_str:0000000000008721 .LASF2968
     /tmp/ccOWj8hl.s:100805  .debug_str:0000000000036c3a .LASF2969
     /tmp/ccOWj8hl.s:94341  .debug_str:000000000001c64b .LASF2970
     /tmp/ccOWj8hl.s:91307  .debug_str:00000000000102b9 .LASF2971
     /tmp/ccOWj8hl.s:101651  .debug_str:000000000003a340 .LASF2972
     /tmp/ccOWj8hl.s:92587  .debug_str:00000000000154cd .LASF2973
     /tmp/ccOWj8hl.s:105481  .debug_str:000000000004a4ec .LASF2974
     /tmp/ccOWj8hl.s:97597  .debug_str:0000000000029d06 .LASF2975
     /tmp/ccOWj8hl.s:90989  .debug_str:000000000000f06d .LASF2976
     /tmp/ccOWj8hl.s:98389  .debug_str:000000000002d03d .LASF2977
     /tmp/ccOWj8hl.s:95957  .debug_str:0000000000023558 .LASF2978
     /tmp/ccOWj8hl.s:88839  .debug_str:000000000000658f .LASF2979
     /tmp/ccOWj8hl.s:93539  .debug_str:000000000001940c .LASF2980
     /tmp/ccOWj8hl.s:93611  .debug_str:00000000000198a5 .LASF2981
     /tmp/ccOWj8hl.s:93893  .debug_str:000000000001aa06 .LASF2982
     /tmp/ccOWj8hl.s:98273  .debug_str:000000000002c827 .LASF2983
     /tmp/ccOWj8hl.s:89505  .debug_str:00000000000091bd .LASF2984
     /tmp/ccOWj8hl.s:101395  .debug_str:000000000003911f .LASF2985
     /tmp/ccOWj8hl.s:88875  .debug_str:0000000000006818 .LASF2986
     /tmp/ccOWj8hl.s:95307  .debug_str:00000000000209e2 .LASF2987
     /tmp/ccOWj8hl.s:98593  .debug_str:000000000002de3c .LASF2988
     /tmp/ccOWj8hl.s:92483  .debug_str:0000000000014f30 .LASF2989
     /tmp/ccOWj8hl.s:89927  .debug_str:000000000000ae6b .LASF2990
     /tmp/ccOWj8hl.s:102443  .debug_str:000000000003d74f .LASF2991
     /tmp/ccOWj8hl.s:89309  .debug_str:0000000000008482 .LASF2992
     /tmp/ccOWj8hl.s:93797  .debug_str:000000000001a435 .LASF2993
     /tmp/ccOWj8hl.s:103103  .debug_str:0000000000040455 .LASF2994
     /tmp/ccOWj8hl.s:99373  .debug_str:0000000000031292 .LASF2995
     /tmp/ccOWj8hl.s:94705  .debug_str:000000000001e016 .LASF2996
     /tmp/ccOWj8hl.s:104023  .debug_str:000000000004401a .LASF2997
     /tmp/ccOWj8hl.s:96473  .debug_str:00000000000252cd .LASF2998
     /tmp/ccOWj8hl.s:100645  .debug_str:000000000003642d .LASF2999
     /tmp/ccOWj8hl.s:96637  .debug_str:0000000000025d69 .LASF3000
     /tmp/ccOWj8hl.s:91871  .debug_str:000000000001289b .LASF3001
     /tmp/ccOWj8hl.s:95593  .debug_str:0000000000021d05 .LASF3002
     /tmp/ccOWj8hl.s:99797  .debug_str:0000000000032f10 .LASF3003
     /tmp/ccOWj8hl.s:88017  .debug_str:0000000000002da8 .LASF3004
     /tmp/ccOWj8hl.s:99845  .debug_str:000000000003322b .LASF3005
     /tmp/ccOWj8hl.s:87497  .debug_str:000000000000092f .LASF3006
     /tmp/ccOWj8hl.s:94873  .debug_str:000000000001ec1a .LASF3007
     /tmp/ccOWj8hl.s:101893  .debug_str:000000000003b425 .LASF3008
     /tmp/ccOWj8hl.s:88705  .debug_str:0000000000005c86 .LASF3009
     /tmp/ccOWj8hl.s:93989  .debug_str:000000000001afb1 .LASF3010
     /tmp/ccOWj8hl.s:94249  .debug_str:000000000001c016 .LASF3011
     /tmp/ccOWj8hl.s:88551  .debug_str:000000000000520a .LASF3012
     /tmp/ccOWj8hl.s:93233  .debug_str:0000000000017ee1 .LASF3013
     /tmp/ccOWj8hl.s:98967  .debug_str:000000000002f6c4 .LASF3014
     /tmp/ccOWj8hl.s:102049  .debug_str:000000000003be9a .LASF3015
     /tmp/ccOWj8hl.s:93977  .debug_str:000000000001aef0 .LASF3016
     /tmp/ccOWj8hl.s:98421  .debug_str:000000000002d240 .LASF3017
     /tmp/ccOWj8hl.s:93051  .debug_str:0000000000017438 .LASF3018
     /tmp/ccOWj8hl.s:104413  .debug_str:00000000000459ee .LASF3019
     /tmp/ccOWj8hl.s:105135  .debug_str:0000000000048b34 .LASF3020
     /tmp/ccOWj8hl.s:96643  .debug_str:0000000000025de5 .LASF3021
     /tmp/ccOWj8hl.s:97005  .debug_str:00000000000276fe .LASF3022
     /tmp/ccOWj8hl.s:89693  .debug_str:0000000000009e2c .LASF3023
     /tmp/ccOWj8hl.s:104919  .debug_str:0000000000047c30 .LASF3024
     /tmp/ccOWj8hl.s:105827  .debug_str:000000000004bb9a .LASF3025
     /tmp/ccOWj8hl.s:100441  .debug_str:0000000000035919 .LASF3026
     /tmp/ccOWj8hl.s:99169  .debug_str:00000000000304a2 .LASF3027
     /tmp/ccOWj8hl.s:95677  .debug_str:00000000000222a6 .LASF3028
     /tmp/ccOWj8hl.s:101085  .debug_str:0000000000037c90 .LASF3029
     /tmp/ccOWj8hl.s:100433  .debug_str:0000000000035860 .LASF3030
     /tmp/ccOWj8hl.s:91391  .debug_str:00000000000107fd .LASF3031
     /tmp/ccOWj8hl.s:88959  .debug_str:0000000000006dfb .LASF3032
     /tmp/ccOWj8hl.s:91183  .debug_str:000000000000faf0 .LASF3033
     /tmp/ccOWj8hl.s:101431  .debug_str:00000000000393f3 .LASF3034
     /tmp/ccOWj8hl.s:98333  .debug_str:000000000002ccb3 .LASF3035
     /tmp/ccOWj8hl.s:87787  .debug_str:0000000000001cb0 .LASF3036
     /tmp/ccOWj8hl.s:93257  .debug_str:00000000000180a2 .LASF3037
     /tmp/ccOWj8hl.s:91747  .debug_str:0000000000011fc9 .LASF3038
     /tmp/ccOWj8hl.s:98449  .debug_str:000000000002d466 .LASF3039
     /tmp/ccOWj8hl.s:89239  .debug_str:0000000000007fa9 .LASF3040
     /tmp/ccOWj8hl.s:103137  .debug_str:000000000004072d .LASF3041
     /tmp/ccOWj8hl.s:102201  .debug_str:000000000003c831 .LASF3042
     /tmp/ccOWj8hl.s:103529  .debug_str:00000000000420ad .LASF3043
     /tmp/ccOWj8hl.s:99385  .debug_str:0000000000031358 .LASF3044
     /tmp/ccOWj8hl.s:95177  .debug_str:000000000002015f .LASF3045
     /tmp/ccOWj8hl.s:95081  .debug_str:000000000001fa4f .LASF3046
     /tmp/ccOWj8hl.s:89489  .debug_str:000000000000906c .LASF3047
     /tmp/ccOWj8hl.s:88609  .debug_str:000000000000569c .LASF3048
     /tmp/ccOWj8hl.s:102655  .debug_str:000000000003e688 .LASF3049
     /tmp/ccOWj8hl.s:104059  .debug_str:000000000004423d .LASF3050
     /tmp/ccOWj8hl.s:94273  .debug_str:000000000001c19d .LASF3051
     /tmp/ccOWj8hl.s:92649  .debug_str:00000000000158bf .LASF3052
     /tmp/ccOWj8hl.s:104407  .debug_str:0000000000045978 .LASF3053
     /tmp/ccOWj8hl.s:102605  .debug_str:000000000003e286 .LASF3054
     /tmp/ccOWj8hl.s:97259  .debug_str:0000000000028728 .LASF3055
     /tmp/ccOWj8hl.s:100889  .debug_str:0000000000037091 .LASF3056
     /tmp/ccOWj8hl.s:88645  .debug_str:00000000000058df .LASF3057
     /tmp/ccOWj8hl.s:88221  .debug_str:0000000000003b0a .LASF3058
     /tmp/ccOWj8hl.s:102239  .debug_str:000000000003ca9d .LASF3059
     /tmp/ccOWj8hl.s:98357  .debug_str:000000000002ce52 .LASF3060
     /tmp/ccOWj8hl.s:90347  .debug_str:000000000000cb35 .LASF3061
     /tmp/ccOWj8hl.s:89439  .debug_str:0000000000008d5c .LASF3062
     /tmp/ccOWj8hl.s:89339  .debug_str:0000000000008649 .LASF3063
     /tmp/ccOWj8hl.s:103209  .debug_str:0000000000040c0c .LASF3064
     /tmp/ccOWj8hl.s:99517  .debug_str:0000000000031c4e .LASF3065
     /tmp/ccOWj8hl.s:97181  .debug_str:00000000000281f0 .LASF3066
     /tmp/ccOWj8hl.s:93865  .debug_str:000000000001a7b6 .LASF3067
     /tmp/ccOWj8hl.s:91187  .debug_str:000000000000fb3c .LASF3068
     /tmp/ccOWj8hl.s:102133  .debug_str:000000000003c381 .LASF3069
     /tmp/ccOWj8hl.s:94957  .debug_str:000000000001f2c6 .LASF3070
     /tmp/ccOWj8hl.s:89365  .debug_str:0000000000008862 .LASF3071
     /tmp/ccOWj8hl.s:94083  .debug_str:000000000001b5ba .LASF3072
     /tmp/ccOWj8hl.s:94201  .debug_str:000000000001bce0 .LASF3073
     /tmp/ccOWj8hl.s:100327  .debug_str:0000000000035186 .LASF3074
     /tmp/ccOWj8hl.s:92555  .debug_str:00000000000152d8 .LASF3075
     /tmp/ccOWj8hl.s:102727  .debug_str:000000000003eb86 .LASF3076
     /tmp/ccOWj8hl.s:103721  .debug_str:0000000000042c8e .LASF3077
     /tmp/ccOWj8hl.s:101499  .debug_str:0000000000039909 .LASF3078
     /tmp/ccOWj8hl.s:104617  .debug_str:0000000000046749 .LASF3079
     /tmp/ccOWj8hl.s:101161  .debug_str:0000000000038213 .LASF3080
     /tmp/ccOWj8hl.s:100107  .debug_str:000000000003439f .LASF3081
     /tmp/ccOWj8hl.s:91471  .debug_str:0000000000010c86 .LASF3082
     /tmp/ccOWj8hl.s:95399  .debug_str:0000000000020f73 .LASF3083
     /tmp/ccOWj8hl.s:100677  .debug_str:0000000000036620 .LASF3084
     /tmp/ccOWj8hl.s:91663  .debug_str:0000000000011a59 .LASF3085
     /tmp/ccOWj8hl.s:89357  .debug_str:00000000000087b0 .LASF3086
     /tmp/ccOWj8hl.s:105701  .debug_str:000000000004b3c2 .LASF3087
     /tmp/ccOWj8hl.s:100813  .debug_str:0000000000036cb3 .LASF3088
     /tmp/ccOWj8hl.s:101255  .debug_str:00000000000387f4 .LASF3089
     /tmp/ccOWj8hl.s:93321  .debug_str:000000000001850c .LASF3090
     /tmp/ccOWj8hl.s:96459  .debug_str:00000000000251db .LASF3091
     /tmp/ccOWj8hl.s:88523  .debug_str:0000000000004fe3 .LASF3092
     /tmp/ccOWj8hl.s:101405  .debug_str:00000000000391ef .LASF3093
     /tmp/ccOWj8hl.s:88341  .debug_str:0000000000004379 .LASF3094
     /tmp/ccOWj8hl.s:103799  .debug_str:0000000000043170 .LASF3095
     /tmp/ccOWj8hl.s:96415  .debug_str:0000000000024e9c .LASF3096
     /tmp/ccOWj8hl.s:96897  .debug_str:0000000000026f2a .LASF3097
     /tmp/ccOWj8hl.s:101883  .debug_str:000000000003b338 .LASF3098
     /tmp/ccOWj8hl.s:90159  .debug_str:000000000000bec8 .LASF3099
     /tmp/ccOWj8hl.s:90217  .debug_str:000000000000c2d6 .LASF3100
     /tmp/ccOWj8hl.s:104517  .debug_str:0000000000046142 .LASF3101
     /tmp/ccOWj8hl.s:105501  .debug_str:000000000004a659 .LASF3102
     /tmp/ccOWj8hl.s:92749  .debug_str:0000000000015fb2 .LASF3103
     /tmp/ccOWj8hl.s:91999  .debug_str:0000000000013044 .LASF3104
     /tmp/ccOWj8hl.s:92611  .debug_str:0000000000015695 .LASF3105
     /tmp/ccOWj8hl.s:100449  .debug_str:0000000000035999 .LASF3106
     /tmp/ccOWj8hl.s:103725  .debug_str:0000000000042d08 .LASF3107
     /tmp/ccOWj8hl.s:102383  .debug_str:000000000003d366 .LASF3108
     /tmp/ccOWj8hl.s:105301  .debug_str:0000000000049706 .LASF3109
     /tmp/ccOWj8hl.s:88013  .debug_str:0000000000002d54 .LASF3110
     /tmp/ccOWj8hl.s:101157  .debug_str:00000000000381a9 .LASF3111
     /tmp/ccOWj8hl.s:98367  .debug_str:000000000002cefc .LASF3112
     /tmp/ccOWj8hl.s:101725  .debug_str:000000000003a886 .LASF3113
     /tmp/ccOWj8hl.s:89703  .debug_str:0000000000009f10 .LASF3114
     /tmp/ccOWj8hl.s:92815  .debug_str:0000000000016413 .LASF3115
     /tmp/ccOWj8hl.s:102801  .debug_str:000000000003f065 .LASF3116
     /tmp/ccOWj8hl.s:94699  .debug_str:000000000001dfb2 .LASF3117
     /tmp/ccOWj8hl.s:101353  .debug_str:0000000000038edf .LASF3118
     /tmp/ccOWj8hl.s:104565  .debug_str:0000000000046472 .LASF3119
     /tmp/ccOWj8hl.s:92813  .debug_str:00000000000163d8 .LASF3120
     /tmp/ccOWj8hl.s:95945  .debug_str:0000000000023488 .LASF3121
     /tmp/ccOWj8hl.s:102999  .debug_str:000000000003fce9 .LASF3122
     /tmp/ccOWj8hl.s:105845  .debug_str:000000000004bd1b .LASF3123
     /tmp/ccOWj8hl.s:103525  .debug_str:0000000000042053 .LASF3124
     /tmp/ccOWj8hl.s:95159  .debug_str:0000000000020001 .LASF3125
     /tmp/ccOWj8hl.s:94291  .debug_str:000000000001c2ef .LASF3126
     /tmp/ccOWj8hl.s:94289  .debug_str:000000000001c2ab .LASF3127
     /tmp/ccOWj8hl.s:87427  .debug_str:0000000000000465 .LASF3128
     /tmp/ccOWj8hl.s:99779  .debug_str:0000000000032dba .LASF3129
     /tmp/ccOWj8hl.s:97635  .debug_str:0000000000029eb9 .LASF3130
     /tmp/ccOWj8hl.s:98021  .debug_str:000000000002b71e .LASF3131
     /tmp/ccOWj8hl.s:103679  .debug_str:00000000000429a5 .LASF3132
     /tmp/ccOWj8hl.s:101349  .debug_str:0000000000038e8c .LASF3133
     /tmp/ccOWj8hl.s:99563  .debug_str:0000000000031f49 .LASF3134
     /tmp/ccOWj8hl.s:88467  .debug_str:0000000000004c57 .LASF3135
     /tmp/ccOWj8hl.s:105471  .debug_str:000000000004a41c .LASF3136
     /tmp/ccOWj8hl.s:91635  .debug_str:00000000000118a6 .LASF3137
     /tmp/ccOWj8hl.s:98973  .debug_str:000000000002f752 .LASF3138
     /tmp/ccOWj8hl.s:93127  .debug_str:000000000001792f .LASF3139
     /tmp/ccOWj8hl.s:104915  .debug_str:0000000000047be1 .LASF3140
     /tmp/ccOWj8hl.s:92671  .debug_str:0000000000015a23 .LASF3141
     /tmp/ccOWj8hl.s:98199  .debug_str:000000000002c351 .LASF3142
     /tmp/ccOWj8hl.s:103939  .debug_str:0000000000043abb .LASF3143
     /tmp/ccOWj8hl.s:99913  .debug_str:000000000003372d .LASF3144
     /tmp/ccOWj8hl.s:96645  .debug_str:0000000000025e2c .LASF3145
     /tmp/ccOWj8hl.s:97275  .debug_str:000000000002885d .LASF3146
     /tmp/ccOWj8hl.s:95771  .debug_str:00000000000228b4 .LASF3147
     /tmp/ccOWj8hl.s:92429  .debug_str:0000000000014b40 .LASF3148
     /tmp/ccOWj8hl.s:104781  .debug_str:00000000000471e3 .LASF3149
     /tmp/ccOWj8hl.s:87803  .debug_str:0000000000001dd8 .LASF3150
     /tmp/ccOWj8hl.s:95365  .debug_str:0000000000020dc4 .LASF3151
     /tmp/ccOWj8hl.s:101909  .debug_str:000000000003b57d .LASF3152
     /tmp/ccOWj8hl.s:104377  .debug_str:000000000004574d .LASF3153
     /tmp/ccOWj8hl.s:89013  .debug_str:0000000000007146 .LASF3154
     /tmp/ccOWj8hl.s:104357  .debug_str:00000000000455e2 .LASF3155
     /tmp/ccOWj8hl.s:100133  .debug_str:0000000000034544 .LASF3156
     /tmp/ccOWj8hl.s:92843  .debug_str:0000000000016610 .LASF3157
     /tmp/ccOWj8hl.s:105797  .debug_str:000000000004b96e .LASF3158
     /tmp/ccOWj8hl.s:97153  .debug_str:0000000000027ff0 .LASF3159
     /tmp/ccOWj8hl.s:88719  .debug_str:0000000000005d76 .LASF3160
     /tmp/ccOWj8hl.s:103311  .debug_str:00000000000412b1 .LASF3161
     /tmp/ccOWj8hl.s:103057  .debug_str:0000000000040150 .LASF3162
     /tmp/ccOWj8hl.s:89359  .debug_str:00000000000087f4 .LASF3163
     /tmp/ccOWj8hl.s:101039  .debug_str:00000000000378fc .LASF3164
     /tmp/ccOWj8hl.s:90951  .debug_str:000000000000ed40 .LASF3165
     /tmp/ccOWj8hl.s:89677  .debug_str:0000000000009cd5 .LASF3166
     /tmp/ccOWj8hl.s:105821  .debug_str:000000000004baf1 .LASF3167
     /tmp/ccOWj8hl.s:93357  .debug_str:000000000001879b .LASF3168
     /tmp/ccOWj8hl.s:90887  .debug_str:000000000000e9a8 .LASF3169
     /tmp/ccOWj8hl.s:87801  .debug_str:0000000000001daf .LASF3170
     /tmp/ccOWj8hl.s:97207  .debug_str:00000000000283b5 .LASF3171
     /tmp/ccOWj8hl.s:101199  .debug_str:0000000000038454 .LASF3172
     /tmp/ccOWj8hl.s:99687  .debug_str:000000000003279d .LASF3173
     /tmp/ccOWj8hl.s:92385  .debug_str:00000000000147ff .LASF3174
     /tmp/ccOWj8hl.s:91659  .debug_str:00000000000119ee .LASF3175
     /tmp/ccOWj8hl.s:102825  .debug_str:000000000003f1f5 .LASF3176
     /tmp/ccOWj8hl.s:105353  .debug_str:00000000000499ef .LASF3177
     /tmp/ccOWj8hl.s:89993  .debug_str:000000000000b3db .LASF3178
     /tmp/ccOWj8hl.s:98525  .debug_str:000000000002d9d9 .LASF3179
     /tmp/ccOWj8hl.s:103001  .debug_str:000000000003fd24 .LASF3180
     /tmp/ccOWj8hl.s:101179  .debug_str:000000000003832c .LASF3181
     /tmp/ccOWj8hl.s:94367  .debug_str:000000000001c86f .LASF3182
     /tmp/ccOWj8hl.s:92605  .debug_str:0000000000015600 .LASF3183
     /tmp/ccOWj8hl.s:87431  .debug_str:00000000000004e8 .LASF3184
     /tmp/ccOWj8hl.s:91585  .debug_str:00000000000114e0 .LASF3185
     /tmp/ccOWj8hl.s:93473  .debug_str:0000000000018f40 .LASF3186
     /tmp/ccOWj8hl.s:99953  .debug_str:0000000000033a0f .LASF3187
     /tmp/ccOWj8hl.s:93405  .debug_str:0000000000018aec .LASF3188
     /tmp/ccOWj8hl.s:88501  .debug_str:0000000000004e84 .LASF3189
     /tmp/ccOWj8hl.s:87425  .debug_str:000000000000041e .LASF3190
     /tmp/ccOWj8hl.s:102571  .debug_str:000000000003e00b .LASF3191
     /tmp/ccOWj8hl.s:96361  .debug_str:0000000000024afd .LASF3192
     /tmp/ccOWj8hl.s:87967  .debug_str:00000000000029ba .LASF3193
     /tmp/ccOWj8hl.s:93723  .debug_str:000000000001a00b .LASF3194
     /tmp/ccOWj8hl.s:91527  .debug_str:00000000000110a9 .LASF3195
     /tmp/ccOWj8hl.s:101603  .debug_str:000000000003a04d .LASF3196
     /tmp/ccOWj8hl.s:94665  .debug_str:000000000001dcd1 .LASF3197
     /tmp/ccOWj8hl.s:92261  .debug_str:0000000000013fd8 .LASF3198
     /tmp/ccOWj8hl.s:87379  .debug_str:0000000000000143 .LASF3199
     /tmp/ccOWj8hl.s:95333  .debug_str:0000000000020b09 .LASF3200
     /tmp/ccOWj8hl.s:87701  .debug_str:00000000000016db .LASF3201
     /tmp/ccOWj8hl.s:95891  .debug_str:000000000002312b .LASF3202
     /tmp/ccOWj8hl.s:101417  .debug_str:00000000000392bf .LASF3203
     /tmp/ccOWj8hl.s:87503  .debug_str:00000000000009be .LASF3204
     /tmp/ccOWj8hl.s:101657  .debug_str:000000000003a3e2 .LASF3205
     /tmp/ccOWj8hl.s:99823  .debug_str:00000000000330b8 .LASF3206
     /tmp/ccOWj8hl.s:89001  .debug_str:000000000000704a .LASF3207
     /tmp/ccOWj8hl.s:88847  .debug_str:0000000000006635 .LASF3208
     /tmp/ccOWj8hl.s:103153  .debug_str:000000000004087e .LASF3209
     /tmp/ccOWj8hl.s:94947  .debug_str:000000000001f19c .LASF3210
     /tmp/ccOWj8hl.s:100745  .debug_str:000000000003695d .LASF3211
     /tmp/ccOWj8hl.s:96773  .debug_str:00000000000266e6 .LASF3212
     /tmp/ccOWj8hl.s:99749  .debug_str:0000000000032b90 .LASF3213
     /tmp/ccOWj8hl.s:105769  .debug_str:000000000004b7f9 .LASF3214
     /tmp/ccOWj8hl.s:89245  .debug_str:0000000000008028 .LASF3215
     /tmp/ccOWj8hl.s:105741  .debug_str:000000000004b694 .LASF3216
     /tmp/ccOWj8hl.s:104921  .debug_str:0000000000047c6c .LASF3217
     /tmp/ccOWj8hl.s:94409  .debug_str:000000000001cb3e .LASF3218
     /tmp/ccOWj8hl.s:89255  .debug_str:00000000000080dd .LASF3219
     /tmp/ccOWj8hl.s:98485  .debug_str:000000000002d74e .LASF3220
     /tmp/ccOWj8hl.s:91689  .debug_str:0000000000011beb .LASF3221
     /tmp/ccOWj8hl.s:101679  .debug_str:000000000003a544 .LASF3222
     /tmp/ccOWj8hl.s:105953  .debug_str:000000000004c4ad .LASF3223
     /tmp/ccOWj8hl.s:87707  .debug_str:000000000000174e .LASF3224
     /tmp/ccOWj8hl.s:105459  .debug_str:000000000004a30f .LASF3225
     /tmp/ccOWj8hl.s:90703  .debug_str:000000000000e073 .LASF3226
     /tmp/ccOWj8hl.s:100439  .debug_str:00000000000358d5 .LASF3227
     /tmp/ccOWj8hl.s:105439  .debug_str:000000000004a156 .LASF3228
     /tmp/ccOWj8hl.s:90701  .debug_str:000000000000e030 .LASF3229
     /tmp/ccOWj8hl.s:101059  .debug_str:0000000000037ad6 .LASF3230
     /tmp/ccOWj8hl.s:100017  .debug_str:0000000000033dca .LASF3231
     /tmp/ccOWj8hl.s:101805  .debug_str:000000000003add2 .LASF3232
     /tmp/ccOWj8hl.s:94487  .debug_str:000000000001d127 .LASF3233
     /tmp/ccOWj8hl.s:92673  .debug_str:0000000000015a6a .LASF3234
     /tmp/ccOWj8hl.s:91137  .debug_str:000000000000f899 .LASF3235
     /tmp/ccOWj8hl.s:103049  .debug_str:000000000004009f .LASF3236
     /tmp/ccOWj8hl.s:88373  .debug_str:00000000000045c9 .LASF3237
     /tmp/ccOWj8hl.s:94477  .debug_str:000000000001d025 .LASF3238
     /tmp/ccOWj8hl.s:90619  .debug_str:000000000000dc16 .LASF3239
     /tmp/ccOWj8hl.s:103417  .debug_str:00000000000419c2 .LASF3240
     /tmp/ccOWj8hl.s:100763  .debug_str:0000000000036a97 .LASF3241
     /tmp/ccOWj8hl.s:97279  .debug_str:00000000000288ab .LASF3242
     /tmp/ccOWj8hl.s:91973  .debug_str:0000000000012ebb .LASF3243
     /tmp/ccOWj8hl.s:105291  .debug_str:0000000000049681 .LASF3244
     /tmp/ccOWj8hl.s:89425  .debug_str:0000000000008c81 .LASF3245
     /tmp/ccOWj8hl.s:104299  .debug_str:0000000000045252 .LASF3246
     /tmp/ccOWj8hl.s:103693  .debug_str:0000000000042ac1 .LASF3247
     /tmp/ccOWj8hl.s:89891  .debug_str:000000000000ac0c .LASF3248
     /tmp/ccOWj8hl.s:100315  .debug_str:00000000000350ba .LASF3249
     /tmp/ccOWj8hl.s:90247  .debug_str:000000000000c4ef .LASF3250
     /tmp/ccOWj8hl.s:102545  .debug_str:000000000003de51 .LASF3251
     /tmp/ccOWj8hl.s:101109  .debug_str:0000000000037e43 .LASF3252
     /tmp/ccOWj8hl.s:89285  .debug_str:00000000000082cd .LASF3253
     /tmp/ccOWj8hl.s:88277  .debug_str:0000000000003f24 .LASF3254
     /tmp/ccOWj8hl.s:102651  .debug_str:000000000003e636 .LASF3255
     /tmp/ccOWj8hl.s:96977  .debug_str:000000000002749a .LASF3256
     /tmp/ccOWj8hl.s:101423  .debug_str:0000000000039346 .LASF3257
     /tmp/ccOWj8hl.s:92255  .debug_str:0000000000013f51 .LASF3258
     /tmp/ccOWj8hl.s:94951  .debug_str:000000000001f21c .LASF3259
     /tmp/ccOWj8hl.s:99671  .debug_str:0000000000032642 .LASF3260
     /tmp/ccOWj8hl.s:101691  .debug_str:000000000003a614 .LASF3261
     /tmp/ccOWj8hl.s:100909  .debug_str:00000000000371ea .LASF3262
     /tmp/ccOWj8hl.s:93543  .debug_str:000000000001946b .LASF3263
     /tmp/ccOWj8hl.s:105573  .debug_str:000000000004ab4d .LASF3264
     /tmp/ccOWj8hl.s:102629  .debug_str:000000000003e47f .LASF3265
     /tmp/ccOWj8hl.s:91445  .debug_str:0000000000010adf .LASF3266
     /tmp/ccOWj8hl.s:93241  .debug_str:0000000000017f7e .LASF3267
     /tmp/ccOWj8hl.s:94657  .debug_str:000000000001dc06 .LASF3268
     /tmp/ccOWj8hl.s:94347  .debug_str:000000000001c6e4 .LASF3269
     /tmp/ccOWj8hl.s:91555  .debug_str:00000000000112ad .LASF3270
     /tmp/ccOWj8hl.s:103389  .debug_str:00000000000417c9 .LASF3271
     /tmp/ccOWj8hl.s:103907  .debug_str:0000000000043881 .LASF3272
     /tmp/ccOWj8hl.s:93887  .debug_str:000000000001a94e .LASF3273
     /tmp/ccOWj8hl.s:99403  .debug_str:000000000003148e .LASF3274
     /tmp/ccOWj8hl.s:103117  .debug_str:000000000004058f .LASF3275
     /tmp/ccOWj8hl.s:105115  .debug_str:00000000000489da .LASF3276
     /tmp/ccOWj8hl.s:102897  .debug_str:000000000003f760 .LASF3277
     /tmp/ccOWj8hl.s:94671  .debug_str:000000000001dd89 .LASF3278
     /tmp/ccOWj8hl.s:93533  .debug_str:000000000001938e .LASF3279
     /tmp/ccOWj8hl.s:100521  .debug_str:0000000000035db2 .LASF3280
     /tmp/ccOWj8hl.s:92133  .debug_str:000000000001387a .LASF3281
     /tmp/ccOWj8hl.s:99527  .debug_str:0000000000031d07 .LASF3282
     /tmp/ccOWj8hl.s:104157  .debug_str:000000000004496f .LASF3283
     /tmp/ccOWj8hl.s:104471  .debug_str:0000000000045e17 .LASF3284
     /tmp/ccOWj8hl.s:103531  .debug_str:00000000000420f2 .LASF3285
     /tmp/ccOWj8hl.s:89987  .debug_str:000000000000b306 .LASF3286
     /tmp/ccOWj8hl.s:92953  .debug_str:0000000000016e06 .LASF3287
     /tmp/ccOWj8hl.s:88269  .debug_str:0000000000003e7c .LASF3288
     /tmp/ccOWj8hl.s:96611  .debug_str:0000000000025b8b .LASF3289
     /tmp/ccOWj8hl.s:105855  .debug_str:000000000004bdf6 .LASF3290
     /tmp/ccOWj8hl.s:101175  .debug_str:00000000000382ca .LASF3291
     /tmp/ccOWj8hl.s:92503  .debug_str:0000000000015039 .LASF3292
     /tmp/ccOWj8hl.s:97029  .debug_str:00000000000278a3 .LASF3293
     /tmp/ccOWj8hl.s:95637  .debug_str:0000000000021fe7 .LASF3294
     /tmp/ccOWj8hl.s:88617  .debug_str:000000000000571d .LASF3295
     /tmp/ccOWj8hl.s:91125  .debug_str:000000000000f7d7 .LASF3296
     /tmp/ccOWj8hl.s:96113  .debug_str:0000000000023dc7 .LASF3297
     /tmp/ccOWj8hl.s:96931  .debug_str:0000000000027172 .LASF3298
     /tmp/ccOWj8hl.s:94237  .debug_str:000000000001bf3f .LASF3299
     /tmp/ccOWj8hl.s:94531  .debug_str:000000000001d3ea .LASF3300
     /tmp/ccOWj8hl.s:100605  .debug_str:0000000000036252 .LASF3301
     /tmp/ccOWj8hl.s:104049  .debug_str:00000000000441d7 .LASF3302
     /tmp/ccOWj8hl.s:101213  .debug_str:0000000000038585 .LASF3303
     /tmp/ccOWj8hl.s:101275  .debug_str:0000000000038983 .LASF3304
     /tmp/ccOWj8hl.s:95369  .debug_str:0000000000020e21 .LASF3305
     /tmp/ccOWj8hl.s:88727  .debug_str:0000000000005df4 .LASF3306
     /tmp/ccOWj8hl.s:104147  .debug_str:00000000000448a8 .LASF3307
     /tmp/ccOWj8hl.s:102397  .debug_str:000000000003d47c .LASF3308
     /tmp/ccOWj8hl.s:103435  .debug_str:0000000000041afa .LASF3309
     /tmp/ccOWj8hl.s:92679  .debug_str:0000000000015b03 .LASF3310
     /tmp/ccOWj8hl.s:96483  .debug_str:00000000000253b0 .LASF3311
     /tmp/ccOWj8hl.s:90391  .debug_str:000000000000ce2c .LASF3312
     /tmp/ccOWj8hl.s:96623  .debug_str:0000000000025c74 .LASF3313
     /tmp/ccOWj8hl.s:87615  .debug_str:000000000000112a .LASF3314
     /tmp/ccOWj8hl.s:100167  .debug_str:0000000000034799 .LASF3315
     /tmp/ccOWj8hl.s:90431  .debug_str:000000000000d0ca .LASF3316
     /tmp/ccOWj8hl.s:99781  .debug_str:0000000000032e01 .LASF3317
     /tmp/ccOWj8hl.s:91713  .debug_str:0000000000011d9c .LASF3318
     /tmp/ccOWj8hl.s:92167  .debug_str:0000000000013ab7 .LASF3319
     /tmp/ccOWj8hl.s:99367  .debug_str:000000000003122a .LASF3320
     /tmp/ccOWj8hl.s:99353  .debug_str:0000000000031135 .LASF3321
     /tmp/ccOWj8hl.s:100137  .debug_str:0000000000034592 .LASF3322
     /tmp/ccOWj8hl.s:88949  .debug_str:0000000000006d5d .LASF3323
     /tmp/ccOWj8hl.s:89293  .debug_str:000000000000834d .LASF3324
     /tmp/ccOWj8hl.s:89225  .debug_str:0000000000007ede .LASF3325
     /tmp/ccOWj8hl.s:91909  .debug_str:0000000000012b16 .LASF3326
     /tmp/ccOWj8hl.s:96681  .debug_str:00000000000260b5 .LASF3327
     /tmp/ccOWj8hl.s:91983  .debug_str:0000000000012f91 .LASF3328
     /tmp/ccOWj8hl.s:105691  .debug_str:000000000004b334 .LASF3329
     /tmp/ccOWj8hl.s:94763  .debug_str:000000000001e44d .LASF3330
     /tmp/ccOWj8hl.s:93939  .debug_str:000000000001ac78 .LASF3331
     /tmp/ccOWj8hl.s:94397  .debug_str:000000000001ca74 .LASF3332
     /tmp/ccOWj8hl.s:99333  .debug_str:0000000000030fc4 .LASF3333
     /tmp/ccOWj8hl.s:95509  .debug_str:000000000002178c .LASF3334
     /tmp/ccOWj8hl.s:91633  .debug_str:0000000000011883 .LASF3335
     /tmp/ccOWj8hl.s:89607  .debug_str:00000000000098a6 .LASF3336
     /tmp/ccOWj8hl.s:96811  .debug_str:0000000000026904 .LASF3337
     /tmp/ccOWj8hl.s:95119  .debug_str:000000000001fd45 .LASF3338
     /tmp/ccOWj8hl.s:87705  .debug_str:000000000000172d .LASF3339
     /tmp/ccOWj8hl.s:99747  .debug_str:0000000000032b6f .LASF3340
     /tmp/ccOWj8hl.s:103941  .debug_str:0000000000043b02 .LASF3341
     /tmp/ccOWj8hl.s:98039  .debug_str:000000000002b862 .LASF3342
     /tmp/ccOWj8hl.s:91987  .debug_str:0000000000012fb6 .LASF3343
     /tmp/ccOWj8hl.s:91523  .debug_str:0000000000011075 .LASF3344
     /tmp/ccOWj8hl.s:90829  .debug_str:000000000000e703 .LASF3345
     /tmp/ccOWj8hl.s:99545  .debug_str:0000000000031e1d .LASF3346
     /tmp/ccOWj8hl.s:98871  .debug_str:000000000002f0fd .LASF3347
     /tmp/ccOWj8hl.s:88837  .debug_str:000000000000656b .LASF3348
     /tmp/ccOWj8hl.s:98299  .debug_str:000000000002ca10 .LASF3349
     /tmp/ccOWj8hl.s:98737  .debug_str:000000000002e829 .LASF3350
     /tmp/ccOWj8hl.s:101907  .debug_str:000000000003b559 .LASF3351
     /tmp/ccOWj8hl.s:95215  .debug_str:00000000000203de .LASF3352
     /tmp/ccOWj8hl.s:99467  .debug_str:0000000000031908 .LASF3354
     /tmp/ccOWj8hl.s:102905  .debug_str:000000000003f7e7 .LASF3355
     /tmp/ccOWj8hl.s:89343  .debug_str:00000000000086a6 .LASF3356
     /tmp/ccOWj8hl.s:98619  .debug_str:000000000002e05a .LASF3357
     /tmp/ccOWj8hl.s:98263  .debug_str:000000000002c784 .LASF3358
     /tmp/ccOWj8hl.s:98509  .debug_str:000000000002d8d3 .LASF3359
     /tmp/ccOWj8hl.s:97709  .debug_str:000000000002a410 .LASF3360
     /tmp/ccOWj8hl.s:101911  .debug_str:000000000003b5b9 .LASF3361
     /tmp/ccOWj8hl.s:88389  .debug_str:0000000000004714 .LASF3362
     /tmp/ccOWj8hl.s:104923  .debug_str:0000000000047ca9 .LASF3363
     /tmp/ccOWj8hl.s:96031  .debug_str:00000000000239ca .LASF3364
     /tmp/ccOWj8hl.s:93773  .debug_str:000000000001a28e .LASF3365
     /tmp/ccOWj8hl.s:95789  .debug_str:0000000000022a07 .LASF3366
     /tmp/ccOWj8hl.s:105589  .debug_str:000000000004ac82 .LASF3367
     /tmp/ccOWj8hl.s:104245  .debug_str:0000000000044ed5 .LASF3368
     /tmp/ccOWj8hl.s:98843  .debug_str:000000000002ef5e .LASF3369
     /tmp/ccOWj8hl.s:101479  .debug_str:0000000000039789 .LASF3370
     /tmp/ccOWj8hl.s:105111  .debug_str:00000000000489a2 .LASF3371
     /tmp/ccOWj8hl.s:91695  .debug_str:0000000000011c37 .LASF3372
     /tmp/ccOWj8hl.s:101253  .debug_str:00000000000387cf .LASF3373
     /tmp/ccOWj8hl.s:96403  .debug_str:0000000000024daf .LASF3374
     /tmp/ccOWj8hl.s:104987  .debug_str:0000000000048136 .LASF3375
     /tmp/ccOWj8hl.s:88055  .debug_str:000000000000301d .LASF3376
     /tmp/ccOWj8hl.s:94377  .debug_str:000000000001c91f .LASF3377
     /tmp/ccOWj8hl.s:99137  .debug_str:00000000000301f0 .LASF3378
     /tmp/ccOWj8hl.s:104801  .debug_str:0000000000047389 .LASF3379
     /tmp/ccOWj8hl.s:88445  .debug_str:0000000000004af7 .LASF3380
     /tmp/ccOWj8hl.s:98863  .debug_str:000000000002f052 .LASF3381
     /tmp/ccOWj8hl.s:92651  .debug_str:0000000000015905 .LASF3382
     /tmp/ccOWj8hl.s:91359  .debug_str:00000000000105b6 .LASF3383
     /tmp/ccOWj8hl.s:99559  .debug_str:0000000000031f0b .LASF3384
     /tmp/ccOWj8hl.s:88675  .debug_str:0000000000005ae9 .LASF3385
     /tmp/ccOWj8hl.s:103881  .debug_str:000000000004367e .LASF3386
     /tmp/ccOWj8hl.s:104597  .debug_str:000000000004667a .LASF3387
     /tmp/ccOWj8hl.s:91943  .debug_str:0000000000012d29 .LASF3388
     /tmp/ccOWj8hl.s:101483  .debug_str:00000000000397e4 .LASF3389
     /tmp/ccOWj8hl.s:97179  .debug_str:00000000000281d8 .LASF3390
     /tmp/ccOWj8hl.s:97341  .debug_str:0000000000028c57 .LASF3391
     /tmp/ccOWj8hl.s:105457  .debug_str:000000000004a302 .LASF3392
     /tmp/ccOWj8hl.s:101225  .debug_str:0000000000038626 .LASF3393
     /tmp/ccOWj8hl.s:91141  .debug_str:000000000000f916 .LASF3394
     /tmp/ccOWj8hl.s:105449  .debug_str:000000000004a256 .LASF3395
     /tmp/ccOWj8hl.s:102625  .debug_str:000000000003e404 .LASF3396
     /tmp/ccOWj8hl.s:87741  .debug_str:00000000000019e9 .LASF3397
     /tmp/ccOWj8hl.s:94723  .debug_str:000000000001e150 .LASF3398
     /tmp/ccOWj8hl.s:90821  .debug_str:000000000000e66a .LASF3399
     /tmp/ccOWj8hl.s:92231  .debug_str:0000000000013e0e .LASF3400
     /tmp/ccOWj8hl.s:88217  .debug_str:0000000000003ad7 .LASF3401
     /tmp/ccOWj8hl.s:104161  .debug_str:00000000000449c0 .LASF3402
     /tmp/ccOWj8hl.s:98331  .debug_str:000000000002cc90 .LASF3403
     /tmp/ccOWj8hl.s:98823  .debug_str:000000000002ee08 .LASF3404
     /tmp/ccOWj8hl.s:104563  .debug_str:0000000000046451 .LASF3405
     /tmp/ccOWj8hl.s:105489  .debug_str:000000000004a59e .LASF3406
     /tmp/ccOWj8hl.s:97529  .debug_str:000000000002987e .LASF3407
     /tmp/ccOWj8hl.s:103633  .debug_str:0000000000042717 .LASF3408
     /tmp/ccOWj8hl.s:94301  .debug_str:000000000001c382 .LASF3409
     /tmp/ccOWj8hl.s:104739  .debug_str:0000000000046f6d .LASF3410
     /tmp/ccOWj8hl.s:105775  .debug_str:000000000004b869 .LASF3411
     /tmp/ccOWj8hl.s:97809  .debug_str:000000000002aace .LASF3412
     /tmp/ccOWj8hl.s:98633  .debug_str:000000000002e134 .LASF3413
     /tmp/ccOWj8hl.s:99387  .debug_str:000000000003139c .LASF3414
     /tmp/ccOWj8hl.s:88391  .debug_str:0000000000004749 .LASF3415
     /tmp/ccOWj8hl.s:100841  .debug_str:0000000000036ea9 .LASF3416
     /tmp/ccOWj8hl.s:102527  .debug_str:000000000003dcbc .LASF3417
     /tmp/ccOWj8hl.s:105157  .debug_str:0000000000048cc5 .LASF3418
     /tmp/ccOWj8hl.s:98709  .debug_str:000000000002e5f7 .LASF3419
     /tmp/ccOWj8hl.s:105495  .debug_str:000000000004a5fe .LASF3420
     /tmp/ccOWj8hl.s:103541  .debug_str:000000000004218d .LASF3421
     /tmp/ccOWj8hl.s:102813  .debug_str:000000000003f149 .LASF3422
     /tmp/ccOWj8hl.s:98975  .debug_str:000000000002f794 .LASF3423
     /tmp/ccOWj8hl.s:90599  .debug_str:000000000000dac9 .LASF3424
     /tmp/ccOWj8hl.s:101099  .debug_str:0000000000037dc0 .LASF3425
     /tmp/ccOWj8hl.s:97425  .debug_str:000000000002914e .LASF3426
     /tmp/ccOWj8hl.s:97399  .debug_str:0000000000028fcd .LASF3427
     /tmp/ccOWj8hl.s:98955  .debug_str:000000000002f5e0 .LASF3428
     /tmp/ccOWj8hl.s:89135  .debug_str:0000000000007892 .LASF3429
     /tmp/ccOWj8hl.s:94783  .debug_str:000000000001e54a .LASF3430
     /tmp/ccOWj8hl.s:88433  .debug_str:0000000000004a5d .LASF3431
     /tmp/ccOWj8hl.s:101069  .debug_str:0000000000037b8e .LASF3432
     /tmp/ccOWj8hl.s:105571  .debug_str:000000000004ab36 .LASF3433
     /tmp/ccOWj8hl.s:100753  .debug_str:00000000000369f9 .LASF3434
     /tmp/ccOWj8hl.s:98883  .debug_str:000000000002f19a .LASF3435
     /tmp/ccOWj8hl.s:93253  .debug_str:0000000000018062 .LASF3436
     /tmp/ccOWj8hl.s:95327  .debug_str:0000000000020abf .LASF3437
     /tmp/ccOWj8hl.s:100233  .debug_str:0000000000034ba9 .LASF3438
     /tmp/ccOWj8hl.s:101005  .debug_str:0000000000037749 .LASF3439
     /tmp/ccOWj8hl.s:88243  .debug_str:0000000000003cd5 .LASF3440
     /tmp/ccOWj8hl.s:103113  .debug_str:0000000000040545 .LASF3441
     /tmp/ccOWj8hl.s:97149  .debug_str:0000000000027fac .LASF3442
     /tmp/ccOWj8hl.s:96993  .debug_str:00000000000275f9 .LASF3443
     /tmp/ccOWj8hl.s:104189  .debug_str:0000000000044b67 .LASF3444
     /tmp/ccOWj8hl.s:105655  .debug_str:000000000004b131 .LASF3445
     /tmp/ccOWj8hl.s:90063  .debug_str:000000000000b8ae .LASF3446
     /tmp/ccOWj8hl.s:104599  .debug_str:000000000004668c .LASF3447
     /tmp/ccOWj8hl.s:97707  .debug_str:000000000002a3f9 .LASF3448
     /tmp/ccOWj8hl.s:89819  .debug_str:000000000000a6f0 .LASF3449
     /tmp/ccOWj8hl.s:98741  .debug_str:000000000002e86c .LASF3450
     /tmp/ccOWj8hl.s:105897  .debug_str:000000000004c0e7 .LASF3451
     /tmp/ccOWj8hl.s:94027  .debug_str:000000000001b1ed .LASF3452
     /tmp/ccOWj8hl.s:104429  .debug_str:0000000000045b59 .LASF3453
     /tmp/ccOWj8hl.s:90481  .debug_str:000000000000d363 .LASF3454
     /tmp/ccOWj8hl.s:92321  .debug_str:00000000000143d0 .LASF3455
     /tmp/ccOWj8hl.s:95155  .debug_str:000000000001ffe0 .LASF3456
     /tmp/ccOWj8hl.s:95137  .debug_str:000000000001fe6a .LASF3457
     /tmp/ccOWj8hl.s:95395  .debug_str:0000000000020f18 .LASF3458
     /tmp/ccOWj8hl.s:87435  .debug_str:0000000000000538 .LASF3459
     /tmp/ccOWj8hl.s:97131  .debug_str:0000000000027eb0 .LASF3460
     /tmp/ccOWj8hl.s:103807  .debug_str:000000000004323f .LASF3461
     /tmp/ccOWj8hl.s:103289  .debug_str:0000000000041137 .LASF3462
     /tmp/ccOWj8hl.s:104015  .debug_str:0000000000043f7a .LASF3463
     /tmp/ccOWj8hl.s:101703  .debug_str:000000000003a758 .LASF3464
     /tmp/ccOWj8hl.s:100091  .debug_str:0000000000034254 .LASF3465
     /tmp/ccOWj8hl.s:104603  .debug_str:00000000000466b0 .LASF3466
     /tmp/ccOWj8hl.s:100247  .debug_str:0000000000034cc7 .LASF3467
     /tmp/ccOWj8hl.s:105173  .debug_str:0000000000048dcd .LASF3468
     /tmp/ccOWj8hl.s:89463  .debug_str:0000000000008ed8 .LASF3469
     /tmp/ccOWj8hl.s:88231  .debug_str:0000000000003bd3 .LASF3470
     /tmp/ccOWj8hl.s:104341  .debug_str:00000000000454e3 .LASF3471
     /tmp/ccOWj8hl.s:92863  .debug_str:00000000000167a1 .LASF3472
     /tmp/ccOWj8hl.s:103337  .debug_str:00000000000414a7 .LASF3473
     /tmp/ccOWj8hl.s:101035  .debug_str:00000000000378cf .LASF3474
     /tmp/ccOWj8hl.s:92847  .debug_str:0000000000016672 .LASF3475
     /tmp/ccOWj8hl.s:99345  .debug_str:0000000000031091 .LASF3476
     /tmp/ccOWj8hl.s:104279  .debug_str:0000000000045108 .LASF3477
     /tmp/ccOWj8hl.s:89661  .debug_str:0000000000009c0b .LASF3478
     /tmp/ccOWj8hl.s:90433  .debug_str:000000000000d0e9 .LASF3479
     /tmp/ccOWj8hl.s:103147  .debug_str:0000000000040807 .LASF3480
     /tmp/ccOWj8hl.s:101973  .debug_str:000000000003b9e6 .LASF3481
     /tmp/ccOWj8hl.s:88665  .debug_str:0000000000005a36 .LASF3482
     /tmp/ccOWj8hl.s:98965  .debug_str:000000000002f6b1 .LASF3483
     /tmp/ccOWj8hl.s:105699  .debug_str:000000000004b3af .LASF3484
     /tmp/ccOWj8hl.s:96721  .debug_str:000000000002639e .LASF3485
     /tmp/ccOWj8hl.s:98595  .debug_str:000000000002de7a .LASF3486
     /tmp/ccOWj8hl.s:98353  .debug_str:000000000002ce03 .LASF3487
     /tmp/ccOWj8hl.s:100837  .debug_str:0000000000036e71 .LASF3488
     /tmp/ccOWj8hl.s:99951  .debug_str:00000000000339f9 .LASF3489
     /tmp/ccOWj8hl.s:102799  .debug_str:000000000003f050 .LASF3490
     /tmp/ccOWj8hl.s:91479  .debug_str:0000000000010d80 .LASF3491
     /tmp/ccOWj8hl.s:92243  .debug_str:0000000000013ec0 .LASF3492
     /tmp/ccOWj8hl.s:91039  .debug_str:000000000000f36d .LASF3493
     /tmp/ccOWj8hl.s:90313  .debug_str:000000000000c929 .LASF3494
     /tmp/ccOWj8hl.s:104201  .debug_str:0000000000044c21 .LASF3495
     /tmp/ccOWj8hl.s:90573  .debug_str:000000000000d92a .LASF3496
     /tmp/ccOWj8hl.s:92067  .debug_str:0000000000013498 .LASF3497
     /tmp/ccOWj8hl.s:101177  .debug_str:0000000000038315 .LASF3498
     /tmp/ccOWj8hl.s:95603  .debug_str:0000000000021d8c .LASF3499
     /tmp/ccOWj8hl.s:103111  .debug_str:0000000000040531 .LASF3500
     /tmp/ccOWj8hl.s:99275  .debug_str:0000000000030bf8 .LASF3501
     /tmp/ccOWj8hl.s:95829  .debug_str:0000000000022d3e .LASF3502
     /tmp/ccOWj8hl.s:98571  .debug_str:000000000002dca9 .LASF3503
     /tmp/ccOWj8hl.s:92169  .debug_str:0000000000013ad7 .LASF3504
     /tmp/ccOWj8hl.s:95599  .debug_str:0000000000021d63 .LASF3505
     /tmp/ccOWj8hl.s:103969  .debug_str:0000000000043c98 .LASF3506
     /tmp/ccOWj8hl.s:98275  .debug_str:000000000002c86b .LASF3507
     /tmp/ccOWj8hl.s:90575  .debug_str:000000000000d947 .LASF3508
     /tmp/ccOWj8hl.s:105927  .debug_str:000000000004c305 .LASF3509
     /tmp/ccOWj8hl.s:92895  .debug_str:0000000000016a08 .LASF3510
     /tmp/ccOWj8hl.s:98521  .debug_str:000000000002d9a8 .LASF3511
     /tmp/ccOWj8hl.s:98995  .debug_str:000000000002f8e0 .LASF3512
     /tmp/ccOWj8hl.s:91221  .debug_str:000000000000fd68 .LASF3513
     /tmp/ccOWj8hl.s:88981  .debug_str:0000000000006f64 .LASF3514
     /tmp/ccOWj8hl.s:98663  .debug_str:000000000002e2f3 .LASF3515
     /tmp/ccOWj8hl.s:97603  .debug_str:0000000000029d81 .LASF3516
     /tmp/ccOWj8hl.s:105659  .debug_str:000000000004b15c .LASF3517
     /tmp/ccOWj8hl.s:105169  .debug_str:0000000000048d69 .LASF3518
     /tmp/ccOWj8hl.s:103759  .debug_str:0000000000042f61 .LASF3519
     /tmp/ccOWj8hl.s:98957  .debug_str:000000000002f5f7 .LASF3520
     /tmp/ccOWj8hl.s:94383  .debug_str:000000000001c9a4 .LASF3521
     /tmp/ccOWj8hl.s:90979  .debug_str:000000000000efa8 .LASF3522
     /tmp/ccOWj8hl.s:101593  .debug_str:0000000000039fae .LASF3523
     /tmp/ccOWj8hl.s:94751  .debug_str:000000000001e358 .LASF3524
     /tmp/ccOWj8hl.s:95745  .debug_str:0000000000022714 .LASF3525
     /tmp/ccOWj8hl.s:94243  .debug_str:000000000001bfd8 .LASF3526
     /tmp/ccOWj8hl.s:95819  .debug_str:0000000000022c2c .LASF3527
     /tmp/ccOWj8hl.s:94771  .debug_str:000000000001e4d0 .LASF3528
     /tmp/ccOWj8hl.s:101589  .debug_str:0000000000039f83 .LASF3529
     /tmp/ccOWj8hl.s:99187  .debug_str:00000000000305b6 .LASF3530
     /tmp/ccOWj8hl.s:104435  .debug_str:0000000000045bbe .LASF3531
     /tmp/ccOWj8hl.s:101317  .debug_str:0000000000038d02 .LASF3532
     /tmp/ccOWj8hl.s:96277  .debug_str:0000000000024597 .LASF3533
     /tmp/ccOWj8hl.s:92249  .debug_str:0000000000013f09 .LASF3534
     /tmp/ccOWj8hl.s:90187  .debug_str:000000000000c0c0 .LASF3535
     /tmp/ccOWj8hl.s:99357  .debug_str:0000000000031183 .LASF3536
     /tmp/ccOWj8hl.s:98861  .debug_str:000000000002f045 .LASF3537
     /tmp/ccOWj8hl.s:98507  .debug_str:000000000002d8c4 .LASF3538
     /tmp/ccOWj8hl.s:97165  .debug_str:00000000000280e5 .LASF3539
     /tmp/ccOWj8hl.s:96803  .debug_str:0000000000026899 .LASF3540
     /tmp/ccOWj8hl.s:91743  .debug_str:0000000000011fa3 .LASF3541
     /tmp/ccOWj8hl.s:96197  .debug_str:00000000000241f0 .LASF3542
     /tmp/ccOWj8hl.s:101011  .debug_str:000000000003778a .LASF3543
     /tmp/ccOWj8hl.s:89925  .debug_str:000000000000ae5d .LASF3544
     /tmp/ccOWj8hl.s:96027  .debug_str:000000000002399f .LASF3545
     /tmp/ccOWj8hl.s:96527  .debug_str:00000000000256b3 .LASF3546
     /tmp/ccOWj8hl.s:103181  .debug_str:0000000000040a5d .LASF3547
     /tmp/ccOWj8hl.s:103817  .debug_str:00000000000432c0 .LASF3548
     /tmp/ccOWj8hl.s:92229  .debug_str:0000000000013e02 .LASF3549
     /tmp/ccOWj8hl.s:99627  .debug_str:0000000000032343 .LASF3550
     /tmp/ccOWj8hl.s:104331  .debug_str:000000000004545f .LASF3551
     /tmp/ccOWj8hl.s:93103  .debug_str:000000000001777f .LASF3552
     /tmp/ccOWj8hl.s:93701  .debug_str:0000000000019ed0 .LASF3553
     /tmp/ccOWj8hl.s:93095  .debug_str:0000000000017714 .LASF3554
     /tmp/ccOWj8hl.s:95881  .debug_str:00000000000230a9 .LASF3555
     /tmp/ccOWj8hl.s:93409  .debug_str:0000000000018b42 .LASF3556
     /tmp/ccOWj8hl.s:100125  .debug_str:00000000000344e1 .LASF3557
     /tmp/ccOWj8hl.s:87533  .debug_str:0000000000000b70 .LASF3558
     /tmp/ccOWj8hl.s:87677  .debug_str:0000000000001504 .LASF3559
     /tmp/ccOWj8hl.s:98359  .debug_str:000000000002ce95 .LASF3560
     /tmp/ccOWj8hl.s:91181  .debug_str:000000000000fae4 .LASF3561
     /tmp/ccOWj8hl.s:88767  .debug_str:0000000000006075 .LASF3562
     /tmp/ccOWj8hl.s:103357  .debug_str:00000000000415b8 .LASF3563
     /tmp/ccOWj8hl.s:93351  .debug_str:0000000000018752 .LASF3564
     /tmp/ccOWj8hl.s:88579  .debug_str:0000000000005456 .LASF3565
     /tmp/ccOWj8hl.s:104405  .debug_str:0000000000045960 .LASF3566
     /tmp/ccOWj8hl.s:92641  .debug_str:0000000000015856 .LASF3567
     /tmp/ccOWj8hl.s:105041  .debug_str:00000000000484fc .LASF3568
     /tmp/ccOWj8hl.s:95669  .debug_str:0000000000022224 .LASF3569
     /tmp/ccOWj8hl.s:104347  .debug_str:0000000000045541 .LASF3570
     /tmp/ccOWj8hl.s:103277  .debug_str:0000000000041057 .LASF3571
     /tmp/ccOWj8hl.s:105645  .debug_str:000000000004b079 .LASF3572
     /tmp/ccOWj8hl.s:99713  .debug_str:000000000003298a .LASF3573
     /tmp/ccOWj8hl.s:90589  .debug_str:000000000000da03 .LASF3574
     /tmp/ccOWj8hl.s:97663  .debug_str:000000000002a099 .LASF3575
     /tmp/ccOWj8hl.s:90817  .debug_str:000000000000e5e8 .LASF3576
     /tmp/ccOWj8hl.s:102637  .debug_str:000000000003e509 .LASF3577
     /tmp/ccOWj8hl.s:87965  .debug_str:0000000000002937 .LASF3578
     /tmp/ccOWj8hl.s:97521  .debug_str:0000000000029752 .LASF3579
     /tmp/ccOWj8hl.s:104653  .debug_str:0000000000046a29 .LASF3580
     /tmp/ccOWj8hl.s:89979  .debug_str:000000000000b2ae .LASF3581
     /tmp/ccOWj8hl.s:98377  .debug_str:000000000002cfc0 .LASF3582
     /tmp/ccOWj8hl.s:104051  .debug_str:00000000000441f5 .LASF3583
     /tmp/ccOWj8hl.s:99617  .debug_str:000000000003229d .LASF3584
     /tmp/ccOWj8hl.s:93207  .debug_str:0000000000017ce5 .LASF3585
     /tmp/ccOWj8hl.s:87567  .debug_str:0000000000000dd5 .LASF3586
     /tmp/ccOWj8hl.s:104285  .debug_str:0000000000045175 .LASF3587
     /tmp/ccOWj8hl.s:104805  .debug_str:00000000000473c1 .LASF3588
     /tmp/ccOWj8hl.s:90111  .debug_str:000000000000bb5d .LASF3589
     /tmp/ccOWj8hl.s:99937  .debug_str:00000000000338df .LASF3590
     /tmp/ccOWj8hl.s:99091  .debug_str:000000000002fe9c .LASF3591
     /tmp/ccOWj8hl.s:101023  .debug_str:0000000000037830 .LASF3592
     /tmp/ccOWj8hl.s:91617  .debug_str:000000000001174f .LASF3593
     /tmp/ccOWj8hl.s:91281  .debug_str:0000000000010084 .LASF3594
     /tmp/ccOWj8hl.s:88183  .debug_str:00000000000038b1 .LASF3595
     /tmp/ccOWj8hl.s:94029  .debug_str:000000000001b204 .LASF3596
     /tmp/ccOWj8hl.s:95505  .debug_str:0000000000021735 .LASF3597
     /tmp/ccOWj8hl.s:93835  .debug_str:000000000001a669 .LASF3598
     /tmp/ccOWj8hl.s:95567  .debug_str:0000000000021b15 .LASF3599
     /tmp/ccOWj8hl.s:100159  .debug_str:000000000003472e .LASF3600
     /tmp/ccOWj8hl.s:90117  .debug_str:000000000000bbb9 .LASF3601
     /tmp/ccOWj8hl.s:105725  .debug_str:000000000004b5cb .LASF3602
     /tmp/ccOWj8hl.s:98879  .debug_str:000000000002f16a .LASF3603
     /tmp/ccOWj8hl.s:96213  .debug_str:00000000000242ef .LASF3604
     /tmp/ccOWj8hl.s:102653  .debug_str:000000000003e677 .LASF3605
     /tmp/ccOWj8hl.s:88415  .debug_str:0000000000004906 .LASF3606
     /tmp/ccOWj8hl.s:96501  .debug_str:00000000000254fd .LASF3607
     /tmp/ccOWj8hl.s:94737  .debug_str:000000000001e285 .LASF3608
     /tmp/ccOWj8hl.s:92499  .debug_str:0000000000015016 .LASF3609
     /tmp/ccOWj8hl.s:105113  .debug_str:00000000000489c7 .LASF3610
     /tmp/ccOWj8hl.s:99661  .debug_str:00000000000325b3 .LASF3611
     /tmp/ccOWj8hl.s:99005  .debug_str:000000000002f97d .LASF3612
     /tmp/ccOWj8hl.s:92629  .debug_str:00000000000157fa .LASF3613
     /tmp/ccOWj8hl.s:88953  .debug_str:0000000000006dc0 .LASF3614
     /tmp/ccOWj8hl.s:94049  .debug_str:000000000001b328 .LASF3615
     /tmp/ccOWj8hl.s:95673  .debug_str:000000000002224f .LASF3616
     /tmp/ccOWj8hl.s:89073  .debug_str:0000000000007513 .LASF3617
     /tmp/ccOWj8hl.s:92835  .debug_str:000000000001655b .LASF3618
     /tmp/ccOWj8hl.s:101981  .debug_str:000000000003ba48 .LASF3619
     /tmp/ccOWj8hl.s:94769  .debug_str:000000000001e4be .LASF3620
     /tmp/ccOWj8hl.s:95535  .debug_str:0000000000021941 .LASF3621
     /tmp/ccOWj8hl.s:94097  .debug_str:000000000001b698 .LASF3622
     /tmp/ccOWj8hl.s:96289  .debug_str:0000000000024689 .LASF3623
     /tmp/ccOWj8hl.s:97543  .debug_str:0000000000029954 .LASF3624
     /tmp/ccOWj8hl.s:101485  .debug_str:00000000000397f9 .LASF3625
     /tmp/ccOWj8hl.s:104071  .debug_str:0000000000044315 .LASF3626
     /tmp/ccOWj8hl.s:96363  .debug_str:0000000000024b3e .LASF3627
     /tmp/ccOWj8hl.s:97953  .debug_str:000000000002b379 .LASF3628
     /tmp/ccOWj8hl.s:103613  .debug_str:00000000000425ea .LASF3629
     /tmp/ccOWj8hl.s:96331  .debug_str:0000000000024958 .LASF3630
     /tmp/ccOWj8hl.s:105283  .debug_str:0000000000049626 .LASF3631
     /tmp/ccOWj8hl.s:90219  .debug_str:000000000000c318 .LASF3632
     /tmp/ccOWj8hl.s:95595  .debug_str:0000000000021d40 .LASF3633
     /tmp/ccOWj8hl.s:94205  .debug_str:000000000001bd2b .LASF3634
     /tmp/ccOWj8hl.s:101673  .debug_str:000000000003a519 .LASF3635
     /tmp/ccOWj8hl.s:104527  .debug_str:0000000000046211 .LASF3636
     /tmp/ccOWj8hl.s:94695  .debug_str:000000000001df85 .LASF3637
     /tmp/ccOWj8hl.s:94257  .debug_str:000000000001c0d4 .LASF3638
     /tmp/ccOWj8hl.s:101361  .debug_str:0000000000038f66 .LASF3639
     /tmp/ccOWj8hl.s:102821  .debug_str:000000000003f1cb .LASF3640
     /tmp/ccOWj8hl.s:105619  .debug_str:000000000004ae9b .LASF3641
     /tmp/ccOWj8hl.s:105729  .debug_str:000000000004b5f8 .LASF3642
     /tmp/ccOWj8hl.s:90267  .debug_str:000000000000c5e9 .LASF3643
     /tmp/ccOWj8hl.s:103479  .debug_str:0000000000041db8 .LASF3644
     /tmp/ccOWj8hl.s:102521  .debug_str:000000000003dc73 .LASF3645
     /tmp/ccOWj8hl.s:87799  .debug_str:0000000000001d9c .LASF3646
     /tmp/ccOWj8hl.s:88769  .debug_str:0000000000006081 .LASF3647
     /tmp/ccOWj8hl.s:89829  .debug_str:000000000000a7a3 .LASF3648
     /tmp/ccOWj8hl.s:99417  .debug_str:0000000000031591 .LASF3649
     /tmp/ccOWj8hl.s:96815  .debug_str:0000000000026953 .LASF3650
     /tmp/ccOWj8hl.s:97739  .debug_str:000000000002a5dc .LASF3651
     /tmp/ccOWj8hl.s:104333  .debug_str:0000000000045475 .LASF3652
     /tmp/ccOWj8hl.s:103491  .debug_str:0000000000041e67 .LASF3653
     /tmp/ccOWj8hl.s:94683  .debug_str:000000000001de96 .LASF3654
     /tmp/ccOWj8hl.s:94121  .debug_str:000000000001b81e .LASF3655
     /tmp/ccOWj8hl.s:97541  .debug_str:0000000000029942 .LASF3656
     /tmp/ccOWj8hl.s:104487  .debug_str:0000000000045f68 .LASF3657
     /tmp/ccOWj8hl.s:87865  .debug_str:0000000000002261 .LASF3658
     /tmp/ccOWj8hl.s:99737  .debug_str:0000000000032ab1 .LASF3659
     /tmp/ccOWj8hl.s:103957  .debug_str:0000000000043c27 .LASF3660
     /tmp/ccOWj8hl.s:94203  .debug_str:000000000001bd1c .LASF3661
     /tmp/ccOWj8hl.s:103283  .debug_str:00000000000410e4 .LASF3662
     /tmp/ccOWj8hl.s:90345  .debug_str:000000000000cb26 .LASF3663
     /tmp/ccOWj8hl.s:99435  .debug_str:00000000000316d6 .LASF3664
     /tmp/ccOWj8hl.s:94429  .debug_str:000000000001cce8 .LASF3665
     /tmp/ccOWj8hl.s:94503  .debug_str:000000000001d23d .LASF3666
     /tmp/ccOWj8hl.s:95393  .debug_str:0000000000020f09 .LASF3667
     /tmp/ccOWj8hl.s:100165  .debug_str:0000000000034788 .LASF3668
     /tmp/ccOWj8hl.s:93187  .debug_str:0000000000017c3f .LASF3669
     /tmp/ccOWj8hl.s:100761  .debug_str:0000000000036a86 .LASF3670
     /tmp/ccOWj8hl.s:95169  .debug_str:00000000000200d4 .LASF3671
     /tmp/ccOWj8hl.s:97829  .debug_str:000000000002abd4 .LASF3672
     /tmp/ccOWj8hl.s:87751  .debug_str:0000000000001abd .LASF3673
     /tmp/ccOWj8hl.s:98921  .debug_str:000000000002f3f9 .LASF3674
     /tmp/ccOWj8hl.s:99697  .debug_str:00000000000328a0 .LASF3675
     /tmp/ccOWj8hl.s:99483  .debug_str:0000000000031a21 .LASF3676
     /tmp/ccOWj8hl.s:105019  .debug_str:0000000000048367 .LASF3677
     /tmp/ccOWj8hl.s:91355  .debug_str:0000000000010585 .LASF3678
     /tmp/ccOWj8hl.s:90249  .debug_str:000000000000c52e .LASF3679
     /tmp/ccOWj8hl.s:89899  .debug_str:000000000000acbc .LASF3680
     /tmp/ccOWj8hl.s:96399  .debug_str:0000000000024d95 .LASF3681
     /tmp/ccOWj8hl.s:93803  .debug_str:000000000001a4ba .LASF3682
     /tmp/ccOWj8hl.s:92329  .debug_str:0000000000014479 .LASF3683
     /tmp/ccOWj8hl.s:101615  .debug_str:000000000003a0e1 .LASF3684
     /tmp/ccOWj8hl.s:87729  .debug_str:00000000000018f7 .LASF3685
     /tmp/ccOWj8hl.s:88823  .debug_str:0000000000006441 .LASF3686
     /tmp/ccOWj8hl.s:98293  .debug_str:000000000002c9c2 .LASF3687
     /tmp/ccOWj8hl.s:88199  .debug_str:00000000000039bc .LASF3688
     /tmp/ccOWj8hl.s:104039  .debug_str:0000000000044140 .LASF3689
     /tmp/ccOWj8hl.s:88033  .debug_str:0000000000002f03 .LASF3690
     /tmp/ccOWj8hl.s:95323  .debug_str:0000000000020a7c .LASF3691
     /tmp/ccOWj8hl.s:89903  .debug_str:000000000000ace3 .LASF3692
     /tmp/ccOWj8hl.s:96923  .debug_str:00000000000270db .LASF3693
     /tmp/ccOWj8hl.s:96763  .debug_str:0000000000026627 .LASF3694
     /tmp/ccOWj8hl.s:101577  .debug_str:0000000000039eae .LASF3695
     /tmp/ccOWj8hl.s:93189  .debug_str:0000000000017c4f .LASF3696
     /tmp/ccOWj8hl.s:89375  .debug_str:000000000000890e .LASF3697
     /tmp/ccOWj8hl.s:93563  .debug_str:000000000001959a .LASF3698
     /tmp/ccOWj8hl.s:96033  .debug_str:00000000000239e4 .LASF3699
     /tmp/ccOWj8hl.s:94245  .debug_str:000000000001bfea .LASF3700
     /tmp/ccOWj8hl.s:91787  .debug_str:00000000000122a8 .LASF3701
     /tmp/ccOWj8hl.s:96015  .debug_str:00000000000238ef .LASF3702
     /tmp/ccOWj8hl.s:97157  .debug_str:000000000002805d .LASF3703
     /tmp/ccOWj8hl.s:105269  .debug_str:00000000000494e6 .LASF3704
     /tmp/ccOWj8hl.s:92205  .debug_str:0000000000013cfb .LASF3705
     /tmp/ccOWj8hl.s:94255  .debug_str:000000000001c0be .LASF3706
     /tmp/ccOWj8hl.s:98523  .debug_str:000000000002d9c3 .LASF3707
     /tmp/ccOWj8hl.s:97945  .debug_str:000000000002b306 .LASF3708
     /tmp/ccOWj8hl.s:101147  .debug_str:00000000000380fa .LASF3709
     /tmp/ccOWj8hl.s:90419  .debug_str:000000000000cff5 .LASF3710
     /tmp/ccOWj8hl.s:98587  .debug_str:000000000002ddd1 .LASF3711
     /tmp/ccOWj8hl.s:94141  .debug_str:000000000001b946 .LASF3712
     /tmp/ccOWj8hl.s:96909  .debug_str:0000000000027022 .LASF3713
     /tmp/ccOWj8hl.s:98219  .debug_str:000000000002c4cd .LASF3714
     /tmp/ccOWj8hl.s:102227  .debug_str:000000000003c9d5 .LASF3715
     /tmp/ccOWj8hl.s:102931  .debug_str:000000000003f98b .LASF3716
     /tmp/ccOWj8hl.s:102371  .debug_str:000000000003d2d8 .LASF3717
     /tmp/ccOWj8hl.s:97559  .debug_str:0000000000029a68 .LASF3718
     /tmp/ccOWj8hl.s:101189  .debug_str:00000000000383b5 .LASF3719
     /tmp/ccOWj8hl.s:88693  .debug_str:0000000000005bb0 .LASF3720
     /tmp/ccOWj8hl.s:99531  .debug_str:0000000000031d6b .LASF3721
     /tmp/ccOWj8hl.s:104909  .debug_str:0000000000047b9d .LASF3722
     /tmp/ccOWj8hl.s:102823  .debug_str:000000000003f1dc .LASF3723
     /tmp/ccOWj8hl.s:92601  .debug_str:00000000000155af .LASF3724
     /tmp/ccOWj8hl.s:87495  .debug_str:0000000000000915 .LASF3725
     /tmp/ccOWj8hl.s:89893  .debug_str:000000000000ac48 .LASF3726
     /tmp/ccOWj8hl.s:95419  .debug_str:00000000000210b2 .LASF3727
     /tmp/ccOWj8hl.s:103821  .debug_str:00000000000432d8 .LASF3728
     /tmp/ccOWj8hl.s:99655  .debug_str:0000000000032530 .LASF3729
     /tmp/ccOWj8hl.s:89275  .debug_str:0000000000008220 .LASF3730
     /tmp/ccOWj8hl.s:105985  .debug_str:000000000004c6e5 .LASF3731
     /tmp/ccOWj8hl.s:93249  .debug_str:0000000000018040 .LASF3732
     /tmp/ccOWj8hl.s:95225  .debug_str:00000000000204d9 .LASF3733
     /tmp/ccOWj8hl.s:95037  .debug_str:000000000001f7e2 .LASF3734
     /tmp/ccOWj8hl.s:100395  .debug_str:0000000000035593 .LASF3735
     /tmp/ccOWj8hl.s:99045  .debug_str:000000000002fbaf .LASF3736
     /tmp/ccOWj8hl.s:101791  .debug_str:000000000003ace5 .LASF3737
     /tmp/ccOWj8hl.s:96281  .debug_str:00000000000245d6 .LASF3738
     /tmp/ccOWj8hl.s:94543  .debug_str:000000000001d509 .LASF3739
     /tmp/ccOWj8hl.s:98489  .debug_str:000000000002d7dd .LASF3740
     /tmp/ccOWj8hl.s:98425  .debug_str:000000000002d2ae .LASF3741
     /tmp/ccOWj8hl.s:104135  .debug_str:000000000004479f .LASF3742
     /tmp/ccOWj8hl.s:87935  .debug_str:0000000000002781 .LASF3743
     /tmp/ccOWj8hl.s:96191  .debug_str:000000000002417c .LASF3744
     /tmp/ccOWj8hl.s:102339  .debug_str:000000000003d100 .LASF3745
     /tmp/ccOWj8hl.s:98791  .debug_str:000000000002ec1e .LASF3746
     /tmp/ccOWj8hl.s:98395  .debug_str:000000000002d093 .LASF3747
     /tmp/ccOWj8hl.s:88765  .debug_str:000000000000605a .LASF3748
     /tmp/ccOWj8hl.s:105363  .debug_str:0000000000049aa0 .LASF3749
     /tmp/ccOWj8hl.s:95997  .debug_str:00000000000237bd .LASF3750
     /tmp/ccOWj8hl.s:90053  .debug_str:000000000000b7f9 .LASF3751
     /tmp/ccOWj8hl.s:89739  .debug_str:000000000000a1bb .LASF3752
     /tmp/ccOWj8hl.s:93379  .debug_str:000000000001892d .LASF3753
     /tmp/ccOWj8hl.s:98919  .debug_str:000000000002f3e3 .LASF3754
     /tmp/ccOWj8hl.s:91855  .debug_str:00000000000127ca .LASF3755
     /tmp/ccOWj8hl.s:89199  .debug_str:0000000000007cd1 .LASF3756
     /tmp/ccOWj8hl.s:91799  .debug_str:000000000001233d .LASF3757
     /tmp/ccOWj8hl.s:105505  .debug_str:000000000004a6b8 .LASF3758
     /tmp/ccOWj8hl.s:98137  .debug_str:000000000002bf39 .LASF3759
     /tmp/ccOWj8hl.s:103155  .debug_str:00000000000408ba .LASF3760
     /tmp/ccOWj8hl.s:101003  .debug_str:0000000000037734 .LASF3761
     /tmp/ccOWj8hl.s:93335  .debug_str:000000000001864b .LASF3762
     /tmp/ccOWj8hl.s:99211  .debug_str:0000000000030777 .LASF3763
     /tmp/ccOWj8hl.s:89045  .debug_str:0000000000007373 .LASF3764
     /tmp/ccOWj8hl.s:103171  .debug_str:00000000000409b9 .LASF3765
     /tmp/ccOWj8hl.s:88805  .debug_str:0000000000006310 .LASF3766
     /tmp/ccOWj8hl.s:92825  .debug_str:00000000000164c7 .LASF3767
     /tmp/ccOWj8hl.s:93449  .debug_str:0000000000018e14 .LASF3768
     /tmp/ccOWj8hl.s:98041  .debug_str:000000000002b887 .LASF3769
     /tmp/ccOWj8hl.s:93029  .debug_str:000000000001727c .LASF3770
     /tmp/ccOWj8hl.s:96775  .debug_str:000000000002672a .LASF3771
     /tmp/ccOWj8hl.s:89215  .debug_str:0000000000007e14 .LASF3772
     /tmp/ccOWj8hl.s:90709  .debug_str:000000000000e0f1 .LASF3773
     /tmp/ccOWj8hl.s:93171  .debug_str:0000000000017b73 .LASF3774
     /tmp/ccOWj8hl.s:97993  .debug_str:000000000002b5c4 .LASF3775
     /tmp/ccOWj8hl.s:96357  .debug_str:0000000000024ad8 .LASF3776
     /tmp/ccOWj8hl.s:95971  .debug_str:00000000000236a9 .LASF3777
     /tmp/ccOWj8hl.s:88793  .debug_str:000000000000624b .LASF3778
     /tmp/ccOWj8hl.s:104999  .debug_str:000000000004820b .LASF3779
     /tmp/ccOWj8hl.s:91191  .debug_str:000000000000fba8 .LASF3780
     /tmp/ccOWj8hl.s:104277  .debug_str:00000000000450f5 .LASF3781
     /tmp/ccOWj8hl.s:97403  .debug_str:0000000000029005 .LASF3782
     /tmp/ccOWj8hl.s:93829  .debug_str:000000000001a613 .LASF3783
     /tmp/ccOWj8hl.s:92245  .debug_str:0000000000013ee2 .LASF3784
     /tmp/ccOWj8hl.s:95123  .debug_str:000000000001fd9c .LASF3785
     /tmp/ccOWj8hl.s:89125  .debug_str:0000000000007829 .LASF3786
     /tmp/ccOWj8hl.s:98415  .debug_str:000000000002d1c0 .LASF3787
     /tmp/ccOWj8hl.s:97459  .debug_str:000000000002940f .LASF3788
     /tmp/ccOWj8hl.s:88709  .debug_str:0000000000005cf0 .LASF3789
     /tmp/ccOWj8hl.s:92523  .debug_str:0000000000015171 .LASF3790
     /tmp/ccOWj8hl.s:101555  .debug_str:0000000000039cfa .LASF3791
     /tmp/ccOWj8hl.s:104819  .debug_str:0000000000047493 .LASF3792
     /tmp/ccOWj8hl.s:101327  .debug_str:0000000000038d9d .LASF3793
     /tmp/ccOWj8hl.s:97133  .debug_str:0000000000027ec5 .LASF3794
     /tmp/ccOWj8hl.s:98717  .debug_str:000000000002e6a4 .LASF3795
     /tmp/ccOWj8hl.s:102391  .debug_str:000000000003d3f7 .LASF3796
     /tmp/ccOWj8hl.s:105611  .debug_str:000000000004ae29 .LASF3797
     /tmp/ccOWj8hl.s:90583  .debug_str:000000000000d9d2 .LASF3798
     /tmp/ccOWj8hl.s:92325  .debug_str:000000000001443e .LASF3799
     /tmp/ccOWj8hl.s:97951  .debug_str:000000000002b361 .LASF3800
     /tmp/ccOWj8hl.s:95747  .debug_str:0000000000022726 .LASF3801
     /tmp/ccOWj8hl.s:96111  .debug_str:0000000000023daf .LASF3802
     /tmp/ccOWj8hl.s:95783  .debug_str:00000000000229ac .LASF3803
     /tmp/ccOWj8hl.s:96825  .debug_str:00000000000269dd .LASF3804
     /tmp/ccOWj8hl.s:101443  .debug_str:0000000000039502 .LASF3805
     /tmp/ccOWj8hl.s:89859  .debug_str:000000000000a9d2 .LASF3806
     /tmp/ccOWj8hl.s:89445  .debug_str:0000000000008df0 .LASF3807
     /tmp/ccOWj8hl.s:99881  .debug_str:00000000000334cf .LASF3808
     /tmp/ccOWj8hl.s:105979  .debug_str:000000000004c688 .LASF3809
     /tmp/ccOWj8hl.s:87993  .debug_str:0000000000002b89 .LASF3810
     /tmp/ccOWj8hl.s:101191  .debug_str:00000000000383ce .LASF3811
     /tmp/ccOWj8hl.s:96779  .debug_str:0000000000026757 .LASF3812
     /tmp/ccOWj8hl.s:89261  .debug_str:0000000000008136 .LASF3813
     /tmp/ccOWj8hl.s:103587  .debug_str:000000000004240f .LASF3814
     /tmp/ccOWj8hl.s:92241  .debug_str:0000000000013ea8 .LASF3815
     /tmp/ccOWj8hl.s:104783  .debug_str:0000000000047227 .LASF3816
     /tmp/ccOWj8hl.s:104375  .debug_str:0000000000045734 .LASF3817
     /tmp/ccOWj8hl.s:95195  .debug_str:00000000000202b6 .LASF3818
     /tmp/ccOWj8hl.s:88069  .debug_str:0000000000003108 .LASF3819
     /tmp/ccOWj8hl.s:99987  .debug_str:0000000000033c38 .LASF3820
     /tmp/ccOWj8hl.s:87447  .debug_str:000000000000060f .LASF3821
     /tmp/ccOWj8hl.s:105859  .debug_str:000000000004be4f .LASF3822
     /tmp/ccOWj8hl.s:87783  .debug_str:0000000000001c80 .LASF3823
     /tmp/ccOWj8hl.s:98233  .debug_str:000000000002c576 .LASF3824
     /tmp/ccOWj8hl.s:105947  .debug_str:000000000004c43b .LASF3825
     /tmp/ccOWj8hl.s:105091  .debug_str:000000000004884f .LASF3826
     /tmp/ccOWj8hl.s:89835  .debug_str:000000000000a7db .LASF3827
     /tmp/ccOWj8hl.s:104057  .debug_str:0000000000044224 .LASF3828
     /tmp/ccOWj8hl.s:94335  .debug_str:000000000001c5f2 .LASF3829
     /tmp/ccOWj8hl.s:105369  .debug_str:0000000000049b48 .LASF3830
     /tmp/ccOWj8hl.s:96949  .debug_str:0000000000027288 .LASF3831
     /tmp/ccOWj8hl.s:96691  .debug_str:0000000000026175 .LASF3832
     /tmp/ccOWj8hl.s:89763  .debug_str:000000000000a2fc .LASF3833
     /tmp/ccOWj8hl.s:87907  .debug_str:0000000000002571 .LASF3834
     /tmp/ccOWj8hl.s:103585  .debug_str:00000000000423f8 .LASF3835
     /tmp/ccOWj8hl.s:94731  .debug_str:000000000001e201 .LASF3836
     /tmp/ccOWj8hl.s:93125  .debug_str:0000000000017918 .LASF3837
     /tmp/ccOWj8hl.s:96141  .debug_str:0000000000023fab .LASF3838
     /tmp/ccOWj8hl.s:94649  .debug_str:000000000001db67 .LASF3839
     /tmp/ccOWj8hl.s:88381  .debug_str:00000000000046a4 .LASF3840
     /tmp/ccOWj8hl.s:88193  .debug_str:0000000000003956 .LASF3841
     /tmp/ccOWj8hl.s:93223  .debug_str:0000000000017e19 .LASF3842
     /tmp/ccOWj8hl.s:90321  .debug_str:000000000000c9ba .LASF3843
     /tmp/ccOWj8hl.s:97365  .debug_str:0000000000028d76 .LASF3844
     /tmp/ccOWj8hl.s:94187  .debug_str:000000000001bc30 .LASF3845
     /tmp/ccOWj8hl.s:104013  .debug_str:0000000000043f62 .LASF3846
     /tmp/ccOWj8hl.s:97649  .debug_str:0000000000029fa2 .LASF3847
     /tmp/ccOWj8hl.s:88521  .debug_str:0000000000004fc9 .LASF3848
     /tmp/ccOWj8hl.s:100883  .debug_str:000000000003702e .LASF3849
     /tmp/ccOWj8hl.s:101721  .debug_str:000000000003a861 .LASF3850
     /tmp/ccOWj8hl.s:90895  .debug_str:000000000000ea5c .LASF3851
     /tmp/ccOWj8hl.s:95055  .debug_str:000000000001f8fd .LASF3852
     /tmp/ccOWj8hl.s:88145  .debug_str:00000000000035c5 .LASF3853
     /tmp/ccOWj8hl.s:101047  .debug_str:00000000000379b6 .LASF3854
     /tmp/ccOWj8hl.s:101363  .debug_str:0000000000038f79 .LASF3855
     /tmp/ccOWj8hl.s:102205  .debug_str:000000000003c887 .LASF3856
     /tmp/ccOWj8hl.s:99555  .debug_str:0000000000031ed0 .LASF3857
     /tmp/ccOWj8hl.s:103949  .debug_str:0000000000043bad .LASF3858
     /tmp/ccOWj8hl.s:97755  .debug_str:000000000002a6df .LASF3859
     /tmp/ccOWj8hl.s:94741  .debug_str:000000000001e2bc .LASF3860
     /tmp/ccOWj8hl.s:91595  .debug_str:000000000001159a .LASF3861
     /tmp/ccOWj8hl.s:89785  .debug_str:000000000000a49f .LASF3862
     /tmp/ccOWj8hl.s:88531  .debug_str:0000000000005097 .LASF3863
     /tmp/ccOWj8hl.s:89517  .debug_str:00000000000092bd .LASF3864
     /tmp/ccOWj8hl.s:100833  .debug_str:0000000000036e20 .LASF3865
     /tmp/ccOWj8hl.s:98339  .debug_str:000000000002cd35 .LASF3866
     /tmp/ccOWj8hl.s:90275  .debug_str:000000000000c67a .LASF3867
     /tmp/ccOWj8hl.s:101955  .debug_str:000000000003b880 .LASF3868
     /tmp/ccOWj8hl.s:96989  .debug_str:00000000000275ba .LASF3869
     /tmp/ccOWj8hl.s:95721  .debug_str:000000000002259b .LASF3870
     /tmp/ccOWj8hl.s:105857  .debug_str:000000000004be39 .LASF3871
     /tmp/ccOWj8hl.s:96423  .debug_str:0000000000024f62 .LASF3872
     /tmp/ccOWj8hl.s:89761  .debug_str:000000000000a2e6 .LASF3873
     /tmp/ccOWj8hl.s:100127  .debug_str:00000000000344ed .LASF3874
     /tmp/ccOWj8hl.s:105479  .debug_str:000000000004a4d6 .LASF3875
     /tmp/ccOWj8hl.s:100983  .debug_str:000000000003763b .LASF3876
     /tmp/ccOWj8hl.s:91739  .debug_str:0000000000011f48 .LASF3877
     /tmp/ccOWj8hl.s:102145  .debug_str:000000000003c45d .LASF3878
     /tmp/ccOWj8hl.s:87645  .debug_str:000000000000132f .LASF3879
     /tmp/ccOWj8hl.s:99847  .debug_str:000000000003326f .LASF3880
     /tmp/ccOWj8hl.s:94411  .debug_str:000000000001cb83 .LASF3881
     /tmp/ccOWj8hl.s:92063  .debug_str:0000000000013476 .LASF3882
     /tmp/ccOWj8hl.s:90813  .debug_str:000000000000e5b8 .LASF3883
     /tmp/ccOWj8hl.s:93475  .debug_str:0000000000018f83 .LASF3884
     /tmp/ccOWj8hl.s:89415  .debug_str:0000000000008b79 .LASF3885
     /tmp/ccOWj8hl.s:91767  .debug_str:0000000000012132 .LASF3886
     /tmp/ccOWj8hl.s:105555  .debug_str:000000000004a9f6 .LASF3887
     /tmp/ccOWj8hl.s:94501  .debug_str:000000000001d223 .LASF3888
     /tmp/ccOWj8hl.s:102911  .debug_str:000000000003f846 .LASF3889
     /tmp/ccOWj8hl.s:95949  .debug_str:00000000000234e4 .LASF3890
     /tmp/ccOWj8hl.s:95105  .debug_str:000000000001fc43 .LASF3891
     /tmp/ccOWj8hl.s:103539  .debug_str:0000000000042173 .LASF3892
     /tmp/ccOWj8hl.s:101579  .debug_str:0000000000039ec2 .LASF3893
     /tmp/ccOWj8hl.s:92129  .debug_str:0000000000013855 .LASF3894
     /tmp/ccOWj8hl.s:96553  .debug_str:000000000002584f .LASF3895
     /tmp/ccOWj8hl.s:105125  .debug_str:0000000000048a78 .LASF3896
     /tmp/ccOWj8hl.s:101737  .debug_str:000000000003a95e .LASF3897
     /tmp/ccOWj8hl.s:91647  .debug_str:0000000000011941 .LASF3898
     /tmp/ccOWj8hl.s:103445  .debug_str:0000000000041b94 .LASF3899
     /tmp/ccOWj8hl.s:94815  .debug_str:000000000001e75f .LASF3900
     /tmp/ccOWj8hl.s:105407  .debug_str:0000000000049e91 .LASF3901
     /tmp/ccOWj8hl.s:93721  .debug_str:0000000000019ff0 .LASF3902
     /tmp/ccOWj8hl.s:102939  .debug_str:000000000003f9f8 .LASF3903
     /tmp/ccOWj8hl.s:91461  .debug_str:0000000000010bb6 .LASF3904
     /tmp/ccOWj8hl.s:97419  .debug_str:00000000000290d2 .LASF3905
     /tmp/ccOWj8hl.s:104713  .debug_str:0000000000046da7 .LASF3906
     /tmp/ccOWj8hl.s:98183  .debug_str:000000000002c20a .LASF3907
     /tmp/ccOWj8hl.s:90801  .debug_str:000000000000e4e1 .LASF3908
     /tmp/ccOWj8hl.s:97973  .debug_str:000000000002b4a6 .LASF3909
     /tmp/ccOWj8hl.s:91229  .debug_str:000000000000fdf2 .LASF3910
     /tmp/ccOWj8hl.s:103849  .debug_str:00000000000434c5 .LASF3911
     /tmp/ccOWj8hl.s:89699  .debug_str:0000000000009ec9 .LASF3912
     /tmp/ccOWj8hl.s:87785  .debug_str:0000000000001c97 .LASF3913
     /tmp/ccOWj8hl.s:91113  .debug_str:000000000000f6f6 .LASF3914
     /tmp/ccOWj8hl.s:105943  .debug_str:000000000004c416 .LASF3915
     /tmp/ccOWj8hl.s:99589  .debug_str:0000000000032112 .LASF3916
     /tmp/ccOWj8hl.s:105561  .debug_str:000000000004aa70 .LASF3917
     /tmp/ccOWj8hl.s:87623  .debug_str:00000000000011ae .LASF3918
     /tmp/ccOWj8hl.s:103093  .debug_str:00000000000403c3 .LASF3919
     /tmp/ccOWj8hl.s:104287  .debug_str:0000000000045185 .LASF3920
     /tmp/ccOWj8hl.s:92943  .debug_str:0000000000016d67 .LASF3921
     /tmp/ccOWj8hl.s:95411  .debug_str:000000000002103f .LASF3922
     /tmp/ccOWj8hl.s:87985  .debug_str:0000000000002ae8 .LASF3923
     /tmp/ccOWj8hl.s:92933  .debug_str:0000000000016c93 .LASF3924
     /tmp/ccOWj8hl.s:101709  .debug_str:000000000003a7a3 .LASF3925
     /tmp/ccOWj8hl.s:101681  .debug_str:000000000003a586 .LASF3926
     /tmp/ccOWj8hl.s:92969  .debug_str:0000000000016f1e .LASF3927
     /tmp/ccOWj8hl.s:101037  .debug_str:00000000000378e1 .LASF3928
     /tmp/ccOWj8hl.s:96887  .debug_str:0000000000026e5e .LASF3929
     /tmp/ccOWj8hl.s:98163  .debug_str:000000000002c0b6 .LASF3930
     /tmp/ccOWj8hl.s:99063  .debug_str:000000000002fcba .LASF3931
     /tmp/ccOWj8hl.s:105965  .debug_str:000000000004c5cd .LASF3932
     /tmp/ccOWj8hl.s:101813  .debug_str:000000000003ae86 .LASF3933
     /tmp/ccOWj8hl.s:87635  .debug_str:0000000000001281 .LASF3934
     /tmp/ccOWj8hl.s:91437  .debug_str:0000000000010a50 .LASF3935
     /tmp/ccOWj8hl.s:98251  .debug_str:000000000002c6be .LASF3936
     /tmp/ccOWj8hl.s:94253  .debug_str:000000000001c0a5 .LASF3937
     /tmp/ccOWj8hl.s:96797  .debug_str:0000000000026849 .LASF3938
     /tmp/ccOWj8hl.s:100075  .debug_str:0000000000034179 .LASF3939
     /tmp/ccOWj8hl.s:105331  .debug_str:00000000000498ba .LASF3940
     /tmp/ccOWj8hl.s:99935  .debug_str:00000000000338c7 .LASF3941
     /tmp/ccOWj8hl.s:105551  .debug_str:000000000004a9dc .LASF3942
     /tmp/ccOWj8hl.s:97305  .debug_str:0000000000028a9a .LASF3943
     /tmp/ccOWj8hl.s:104707  .debug_str:0000000000046d50 .LASF3944
     /tmp/ccOWj8hl.s:89531  .debug_str:00000000000093f9 .LASF3945
     /tmp/ccOWj8hl.s:97071  .debug_str:0000000000027a6b .LASF3946
     /tmp/ccOWj8hl.s:99663  .debug_str:00000000000325c5 .LASF3947
     /tmp/ccOWj8hl.s:101749  .debug_str:000000000003aa23 .LASF3948
     /tmp/ccOWj8hl.s:95293  .debug_str:000000000002094b .LASF3949
     /tmp/ccOWj8hl.s:88687  .debug_str:0000000000005b58 .LASF3950
     /tmp/ccOWj8hl.s:104251  .debug_str:0000000000044f3b .LASF3951
     /tmp/ccOWj8hl.s:95317  .debug_str:0000000000020a43 .LASF3952
     /tmp/ccOWj8hl.s:104809  .debug_str:00000000000473eb .LASF3953
     /tmp/ccOWj8hl.s:99819  .debug_str:000000000003308f .LASF3954
     /tmp/ccOWj8hl.s:105625  .debug_str:000000000004aee6 .LASF3955
     /tmp/ccOWj8hl.s:103031  .debug_str:000000000003ff79 .LASF3956
     /tmp/ccOWj8hl.s:101975  .debug_str:000000000003b9fe .LASF3957
     /tmp/ccOWj8hl.s:87847  .debug_str:000000000000216b .LASF3958
     /tmp/ccOWj8hl.s:103813  .debug_str:0000000000043286 .LASF3959
     /tmp/ccOWj8hl.s:94269  .debug_str:000000000001c169 .LASF3960
     /tmp/ccOWj8hl.s:92961  .debug_str:0000000000016ea3 .LASF3961
     /tmp/ccOWj8hl.s:88877  .debug_str:0000000000006863 .LASF3962
     /tmp/ccOWj8hl.s:99871  .debug_str:0000000000033441 .LASF3963
     /tmp/ccOWj8hl.s:103897  .debug_str:00000000000437ad .LASF3964
     /tmp/ccOWj8hl.s:101515  .debug_str:0000000000039a56 .LASF3965
     /tmp/ccOWj8hl.s:96599  .debug_str:0000000000025ac2 .LASF3966
     /tmp/ccOWj8hl.s:100987  .debug_str:0000000000037671 .LASF3967
     /tmp/ccOWj8hl.s:98603  .debug_str:000000000002df2c .LASF3968
     /tmp/ccOWj8hl.s:100207  .debug_str:00000000000349e1 .LASF3969
     /tmp/ccOWj8hl.s:104359  .debug_str:0000000000045626 .LASF3970
     /tmp/ccOWj8hl.s:95319  .debug_str:0000000000020a54 .LASF3971
     /tmp/ccOWj8hl.s:88881  .debug_str:0000000000006889 .LASF3972
     /tmp/ccOWj8hl.s:87397  .debug_str:000000000000028e .LASF3973
     /tmp/ccOWj8hl.s:89961  .debug_str:000000000000b119 .LASF3974
     /tmp/ccOWj8hl.s:102033  .debug_str:000000000003bdb0 .LASF3975
     /tmp/ccOWj8hl.s:95367  .debug_str:0000000000020e08 .LASF3976
     /tmp/ccOWj8hl.s:104735  .debug_str:0000000000046f43 .LASF3977
     /tmp/ccOWj8hl.s:92221  .debug_str:0000000000013db5 .LASF3978
     /tmp/ccOWj8hl.s:91925  .debug_str:0000000000012bdb .LASF3979
     /tmp/ccOWj8hl.s:100965  .debug_str:00000000000374f2 .LASF3980
     /tmp/ccOWj8hl.s:88081  .debug_str:00000000000031e9 .LASF3981
     /tmp/ccOWj8hl.s:102125  .debug_str:000000000003c2c7 .LASF3982
     /tmp/ccOWj8hl.s:91677  .debug_str:0000000000011b67 .LASF3983
     /tmp/ccOWj8hl.s:93099  .debug_str:000000000001774e .LASF3984
     /tmp/ccOWj8hl.s:100437  .debug_str:00000000000358c2 .LASF3985
     /tmp/ccOWj8hl.s:90263  .debug_str:000000000000c5c4 .LASF3986
     /tmp/ccOWj8hl.s:97831  .debug_str:000000000002abe5 .LASF3987
     /tmp/ccOWj8hl.s:98043  .debug_str:000000000002b89c .LASF3988
     /tmp/ccOWj8hl.s:103245  .debug_str:0000000000040e34 .LASF3989
     /tmp/ccOWj8hl.s:96799  .debug_str:0000000000026864 .LASF3990
     /tmp/ccOWj8hl.s:93459  .debug_str:0000000000018e72 .LASF3991
     /tmp/ccOWj8hl.s:88097  .debug_str:00000000000032ae .LASF3992
     /tmp/ccOWj8hl.s:96625  .debug_str:0000000000025c8f .LASF3993
     /tmp/ccOWj8hl.s:89641  .debug_str:0000000000009b24 .LASF3994
     /tmp/ccOWj8hl.s:98503  .debug_str:000000000002d8a5 .LASF3995
     /tmp/ccOWj8hl.s:102061  .debug_str:000000000003bfc5 .LASF3996
     /tmp/ccOWj8hl.s:91649  .debug_str:000000000001195b .LASF3997
     /tmp/ccOWj8hl.s:92147  .debug_str:000000000001396e .LASF3998
     /tmp/ccOWj8hl.s:100343  .debug_str:00000000000352e9 .LASF3999
     /tmp/ccOWj8hl.s:96307  .debug_str:00000000000247f4 .LASF4000
     /tmp/ccOWj8hl.s:105261  .debug_str:0000000000049464 .LASF4001
     /tmp/ccOWj8hl.s:97189  .debug_str:00000000000282a3 .LASF4002
     /tmp/ccOWj8hl.s:105005  .debug_str:0000000000048298 .LASF4003
     /tmp/ccOWj8hl.s:96957  .debug_str:0000000000027327 .LASF4004
     /tmp/ccOWj8hl.s:91731  .debug_str:0000000000011ee5 .LASF4005
     /tmp/ccOWj8hl.s:103773  .debug_str:0000000000043056 .LASF4006
     /tmp/ccOWj8hl.s:101351  .debug_str:0000000000038ecd .LASF4007
     /tmp/ccOWj8hl.s:104577  .debug_str:0000000000046560 .LASF4008
     /tmp/ccOWj8hl.s:100015  .debug_str:0000000000033db9 .LASF4009
     /tmp/ccOWj8hl.s:101007  .debug_str:0000000000037769 .LASF4010
     /tmp/ccOWj8hl.s:90057  .debug_str:000000000000b82f .LASF4011
     /tmp/ccOWj8hl.s:102441  .debug_str:000000000003d73e .LASF4012
     /tmp/ccOWj8hl.s:100185  .debug_str:0000000000034896 .LASF4013
     /tmp/ccOWj8hl.s:94633  .debug_str:000000000001da55 .LASF4014
     /tmp/ccOWj8hl.s:105289  .debug_str:000000000004966f .LASF4015
     /tmp/ccOWj8hl.s:100139  .debug_str:00000000000345b1 .LASF4016
     /tmp/ccOWj8hl.s:92531  .debug_str:00000000000151ba .LASF4017
     /tmp/ccOWj8hl.s:90945  .debug_str:000000000000ecc6 .LASF4018
     /tmp/ccOWj8hl.s:97981  .debug_str:000000000002b4ee .LASF4019
     /tmp/ccOWj8hl.s:104493  .debug_str:0000000000045ff5 .LASF4020
     /tmp/ccOWj8hl.s:90879  .debug_str:000000000000e967 .LASF4021
     /tmp/ccOWj8hl.s:97253  .debug_str:00000000000286c2 .LASF4022
     /tmp/ccOWj8hl.s:101801  .debug_str:000000000003ad86 .LASF4023
     /tmp/ccOWj8hl.s:87675  .debug_str:00000000000014f0 .LASF4024
     /tmp/ccOWj8hl.s:88251  .debug_str:0000000000003d3d .LASF4025
     /tmp/ccOWj8hl.s:97985  .debug_str:000000000002b51e .LASF4026
     /tmp/ccOWj8hl.s:98385  .debug_str:000000000002d00b .LASF4027
     /tmp/ccOWj8hl.s:90115  .debug_str:000000000000bba6 .LASF4028
     /tmp/ccOWj8hl.s:102589  .debug_str:000000000003e17c .LASF4029
     /tmp/ccOWj8hl.s:94139  .debug_str:000000000001b934 .LASF4030
     /tmp/ccOWj8hl.s:98937  .debug_str:000000000002f498 .LASF4031
     /tmp/ccOWj8hl.s:105203  .debug_str:0000000000048fe8 .LASF4032
     /tmp/ccOWj8hl.s:101715  .debug_str:000000000003a80d .LASF4033
     /tmp/ccOWj8hl.s:91493  .debug_str:0000000000010e61 .LASF4034
     /tmp/ccOWj8hl.s:103513  .debug_str:0000000000041fb4 .LASF4035
     /tmp/ccOWj8hl.s:101767  .debug_str:000000000003ab2f .LASF4036
     /tmp/ccOWj8hl.s:89511  .debug_str:0000000000009286 .LASF4037
     /tmp/ccOWj8hl.s:95403  .debug_str:0000000000020fe2 .LASF4038
     /tmp/ccOWj8hl.s:98391  .debug_str:000000000002d077 .LASF4039
     /tmp/ccOWj8hl.s:91121  .debug_str:000000000000f7a3 .LASF4040
     /tmp/ccOWj8hl.s:94773  .debug_str:000000000001e4e3 .LASF4041
     /tmp/ccOWj8hl.s:90261  .debug_str:000000000000c5b0 .LASF4042
     /tmp/ccOWj8hl.s:90133  .debug_str:000000000000bcc4 .LASF4043
     /tmp/ccOWj8hl.s:90747  .debug_str:000000000000e2b8 .LASF4044
     /tmp/ccOWj8hl.s:99863  .debug_str:00000000000333e8 .LASF4045
     /tmp/ccOWj8hl.s:92383  .debug_str:00000000000147ea .LASF4046
     /tmp/ccOWj8hl.s:88999  .debug_str:0000000000007036 .LASF4047
     /tmp/ccOWj8hl.s:104655  .debug_str:0000000000046a41 .LASF4048
     /tmp/ccOWj8hl.s:96189  .debug_str:0000000000024169 .LASF4049
     /tmp/ccOWj8hl.s:99323  .debug_str:0000000000030f15 .LASF4050
     /tmp/ccOWj8hl.s:89475  .debug_str:0000000000008fa9 .LASF4051
     /tmp/ccOWj8hl.s:102631  .debug_str:000000000003e4c6 .LASF4052
     /tmp/ccOWj8hl.s:98255  .debug_str:000000000002c6e5 .LASF4053
     /tmp/ccOWj8hl.s:92695  .debug_str:0000000000015bdb .LASF4054
     /tmp/ccOWj8hl.s:104701  .debug_str:0000000000046cf9 .LASF4055
     /tmp/ccOWj8hl.s:102725  .debug_str:000000000003eb71 .LASF4056
     /tmp/ccOWj8hl.s:97485  .debug_str:0000000000029558 .LASF4057
     /tmp/ccOWj8hl.s:105657  .debug_str:000000000004b148 .LASF4058
     /tmp/ccOWj8hl.s:104303  .debug_str:00000000000452ae .LASF4059
     /tmp/ccOWj8hl.s:96585  .debug_str:00000000000259bb .LASF4060
     /tmp/ccOWj8hl.s:96001  .debug_str:00000000000237ee .LASF4061
     /tmp/ccOWj8hl.s:100113  .debug_str:000000000003442a .LASF4062
     /tmp/ccOWj8hl.s:94537  .debug_str:000000000001d47a .LASF4063
     /tmp/ccOWj8hl.s:93981  .debug_str:000000000001af44 .LASF4064
     /tmp/ccOWj8hl.s:99605  .debug_str:0000000000032239 .LASF4065
     /tmp/ccOWj8hl.s:98297  .debug_str:000000000002c9f3 .LASF4066
     /tmp/ccOWj8hl.s:98705  .debug_str:000000000002e5b3 .LASF4067
     /tmp/ccOWj8hl.s:101521  .debug_str:0000000000039ae1 .LASF4068
     /tmp/ccOWj8hl.s:101985  .debug_str:000000000003ba89 .LASF4069
     /tmp/ccOWj8hl.s:90055  .debug_str:000000000000b813 .LASF4070
     /tmp/ccOWj8hl.s:93607  .debug_str:0000000000019859 .LASF4071
     /tmp/ccOWj8hl.s:88001  .debug_str:0000000000002c21 .LASF4072
     /tmp/ccOWj8hl.s:89393  .debug_str:0000000000008a5d .LASF4073
     /tmp/ccOWj8hl.s:93547  .debug_str:00000000000194be .LASF4074
     /tmp/ccOWj8hl.s:92975  .debug_str:0000000000016f58 .LASF4075
     /tmp/ccOWj8hl.s:104885  .debug_str:00000000000479de .LASF4076
     /tmp/ccOWj8hl.s:92535  .debug_str:00000000000151ed .LASF4077
     /tmp/ccOWj8hl.s:90659  .debug_str:000000000000ddec .LASF4078
     /tmp/ccOWj8hl.s:94339  .debug_str:000000000001c62f .LASF4079
     /tmp/ccOWj8hl.s:96529  .debug_str:00000000000256c0 .LASF4080
     /tmp/ccOWj8hl.s:95047  .debug_str:000000000001f89e .LASF4081
     /tmp/ccOWj8hl.s:104545  .debug_str:000000000004631d .LASF4082
     /tmp/ccOWj8hl.s:90095  .debug_str:000000000000ba7c .LASF4083
     /tmp/ccOWj8hl.s:93695  .debug_str:0000000000019e75 .LASF4084
     /tmp/ccOWj8hl.s:102607  .debug_str:000000000003e2cc .LASF4085
     /tmp/ccOWj8hl.s:91315  .debug_str:000000000001035b .LASF4086
     /tmp/ccOWj8hl.s:93867  .debug_str:000000000001a7f5 .LASF4087
     /tmp/ccOWj8hl.s:97563  .debug_str:0000000000029ac3 .LASF4088
     /tmp/ccOWj8hl.s:91253  .debug_str:000000000000feb9 .LASF4089
     /tmp/ccOWj8hl.s:101461  .debug_str:000000000003962d .LASF4090
     /tmp/ccOWj8hl.s:92983  .debug_str:0000000000016fae .LASF4091
     /tmp/ccOWj8hl.s:89553  .debug_str:00000000000095b0 .LASF4092
     /tmp/ccOWj8hl.s:91207  .debug_str:000000000000fca6 .LASF4093
     /tmp/ccOWj8hl.s:96807  .debug_str:00000000000268be .LASF4094
     /tmp/ccOWj8hl.s:90001  .debug_str:000000000000b491 .LASF4095
     /tmp/ccOWj8hl.s:95185  .debug_str:0000000000020207 .LASF4096
     /tmp/ccOWj8hl.s:94489  .debug_str:000000000001d16d .LASF4097
     /tmp/ccOWj8hl.s:104209  .debug_str:0000000000044ca5 .LASF4098
     /tmp/ccOWj8hl.s:104045  .debug_str:00000000000441a4 .LASF4099
     /tmp/ccOWj8hl.s:91797  .debug_str:0000000000012324 .LASF4100
     /tmp/ccOWj8hl.s:94491  .debug_str:000000000001d18c .LASF4101
     /tmp/ccOWj8hl.s:90529  .debug_str:000000000000d66d .LASF4102
     /tmp/ccOWj8hl.s:96333  .debug_str:000000000002496a .LASF4103
     /tmp/ccOWj8hl.s:101495  .debug_str:00000000000398b3 .LASF4104
     /tmp/ccOWj8hl.s:99449  .debug_str:00000000000317c9 .LASF4105
     /tmp/ccOWj8hl.s:93549  .debug_str:00000000000194d1 .LASF4106
     /tmp/ccOWj8hl.s:105695  .debug_str:000000000004b378 .LASF4107
     /tmp/ccOWj8hl.s:98881  .debug_str:000000000002f17a .LASF4108
     /tmp/ccOWj8hl.s:97929  .debug_str:000000000002b21a .LASF4109
     /tmp/ccOWj8hl.s:88095  .debug_str:000000000000329f .LASF4110
     /tmp/ccOWj8hl.s:100505  .debug_str:0000000000035c90 .LASF4111
     /tmp/ccOWj8hl.s:95285  .debug_str:00000000000208ff .LASF4112
     /tmp/ccOWj8hl.s:99213  .debug_str:000000000003078c .LASF4113
     /tmp/ccOWj8hl.s:91759  .debug_str:00000000000120c4 .LASF4114
     /tmp/ccOWj8hl.s:97277  .debug_str:0000000000028899 .LASF4115
     /tmp/ccOWj8hl.s:89459  .debug_str:0000000000008e98 .LASF4116
     /tmp/ccOWj8hl.s:97757  .debug_str:000000000002a6f5 .LASF4117
     /tmp/ccOWj8hl.s:105849  .debug_str:000000000004bd81 .LASF4118
     /tmp/ccOWj8hl.s:88195  .debug_str:000000000000396f .LASF4119
     /tmp/ccOWj8hl.s:93111  .debug_str:000000000001781d .LASF4120
     /tmp/ccOWj8hl.s:98139  .debug_str:000000000002bf50 .LASF4121
     /tmp/ccOWj8hl.s:101595  .debug_str:0000000000039fcd .LASF4122
     /tmp/ccOWj8hl.s:99877  .debug_str:000000000003348e .LASF4123
     /tmp/ccOWj8hl.s:92793  .debug_str:0000000000016277 .LASF4124
     /tmp/ccOWj8hl.s:94327  .debug_str:000000000001c571 .LASF4125
     /tmp/ccOWj8hl.s:94235  .debug_str:000000000001bf28 .LASF4126
     /tmp/ccOWj8hl.s:88679  .debug_str:0000000000005b0b .LASF4127
     /tmp/ccOWj8hl.s:88371  .debug_str:00000000000045b2 .LASF4128
     /tmp/ccOWj8hl.s:101889  .debug_str:000000000003b3e1 .LASF4129
     /tmp/ccOWj8hl.s:104869  .debug_str:00000000000478a8 .LASF4130
     /tmp/ccOWj8hl.s:98311  .debug_str:000000000002caf9 .LASF4131
     /tmp/ccOWj8hl.s:102737  .debug_str:000000000003ec76 .LASF4132
     /tmp/ccOWj8hl.s:94887  .debug_str:000000000001ecf9 .LASF4133
     /tmp/ccOWj8hl.s:103047  .debug_str:0000000000040088 .LASF4134
     /tmp/ccOWj8hl.s:92987  .debug_str:0000000000016ffc .LASF4135
     /tmp/ccOWj8hl.s:89943  .debug_str:000000000000aff7 .LASF4136
     /tmp/ccOWj8hl.s:105907  .debug_str:000000000004c18e .LASF4137
     /tmp/ccOWj8hl.s:88185  .debug_str:00000000000038c2 .LASF4138
     /tmp/ccOWj8hl.s:88267  .debug_str:0000000000003e65 .LASF4139
     /tmp/ccOWj8hl.s:100085  .debug_str:0000000000034215 .LASF4140
     /tmp/ccOWj8hl.s:95049  .debug_str:000000000001f8b5 .LASF4141
     /tmp/ccOWj8hl.s:94423  .debug_str:000000000001cc6e .LASF4142
     /tmp/ccOWj8hl.s:105053  .debug_str:00000000000485cc .LASF4143
     /tmp/ccOWj8hl.s:94247  .debug_str:000000000001bfff .LASF4144
     /tmp/ccOWj8hl.s:105537  .debug_str:000000000004a894 .LASF4145
     /tmp/ccOWj8hl.s:99267  .debug_str:0000000000030bad .LASF4146
     /tmp/ccOWj8hl.s:90799  .debug_str:000000000000e4d1 .LASF4147
     /tmp/ccOWj8hl.s:92081  .debug_str:000000000001356a .LASF4148
     /tmp/ccOWj8hl.s:98483  .debug_str:000000000002d73b .LASF4149
     /tmp/ccOWj8hl.s:102193  .debug_str:000000000003c785 .LASF4150
     /tmp/ccOWj8hl.s:88021  .debug_str:0000000000002e27 .LASF4151
     /tmp/ccOWj8hl.s:88567  .debug_str:000000000000531f .LASF4152
     /tmp/ccOWj8hl.s:98981  .debug_str:000000000002f7f6 .LASF4153
     /tmp/ccOWj8hl.s:92011  .debug_str:0000000000013159 .LASF4154
     /tmp/ccOWj8hl.s:87667  .debug_str:000000000000146f .LASF4155
     /tmp/ccOWj8hl.s:89253  .debug_str:00000000000080ce .LASF4156
     /tmp/ccOWj8hl.s:102875  .debug_str:000000000003f58c .LASF4157
     /tmp/ccOWj8hl.s:88913  .debug_str:0000000000006b0e .LASF4158
     /tmp/ccOWj8hl.s:94743  .debug_str:000000000001e2d3 .LASF4159
     /tmp/ccOWj8hl.s:87663  .debug_str:0000000000001438 .LASF4160
     /tmp/ccOWj8hl.s:94977  .debug_str:000000000001f466 .LASF4161
     /tmp/ccOWj8hl.s:89473  .debug_str:0000000000008f96 .LASF4162
     /tmp/ccOWj8hl.s:99295  .debug_str:0000000000030d95 .LASF4163
     /tmp/ccOWj8hl.s:100927  .debug_str:000000000003735f .LASF4164
     /tmp/ccOWj8hl.s:103775  .debug_str:0000000000043069 .LASF4165
     /tmp/ccOWj8hl.s:104967  .debug_str:0000000000047feb .LASF4166
     /tmp/ccOWj8hl.s:98703  .debug_str:000000000002e5a1 .LASF4167
     /tmp/ccOWj8hl.s:88155  .debug_str:000000000000368e .LASF4168
     /tmp/ccOWj8hl.s:89117  .debug_str:00000000000077b4 .LASF4169
     /tmp/ccOWj8hl.s:94267  .debug_str:000000000001c157 .LASF4170
     /tmp/ccOWj8hl.s:97193  .debug_str:00000000000282d5 .LASF4171
     /tmp/ccOWj8hl.s:105303  .debug_str:000000000004972f .LASF4172
     /tmp/ccOWj8hl.s:95007  .debug_str:000000000001f653 .LASF4173
     /tmp/ccOWj8hl.s:103161  .debug_str:000000000004090e .LASF4174
     /tmp/ccOWj8hl.s:95543  .debug_str:00000000000219b4 .LASF4175
     /tmp/ccOWj8hl.s:101077  .debug_str:0000000000037c32 .LASF4176
     /tmp/ccOWj8hl.s:90447  .debug_str:000000000000d1bb .LASF4177
     /tmp/ccOWj8hl.s:104441  .debug_str:0000000000045bee .LASF4178
     /tmp/ccOWj8hl.s:90917  .debug_str:000000000000ebf4 .LASF4179
     /tmp/ccOWj8hl.s:98999  .debug_str:000000000002f932 .LASF4180
     /tmp/ccOWj8hl.s:101775  .debug_str:000000000003abe0 .LASF4181
     /tmp/ccOWj8hl.s:91257  .debug_str:000000000000ff0e .LASF4182
     /tmp/ccOWj8hl.s:99625  .debug_str:000000000003232f .LASF4183
     /tmp/ccOWj8hl.s:103927  .debug_str:0000000000043a01 .LASF4184
     /tmp/ccOWj8hl.s:97497  .debug_str:00000000000295c1 .LASF4185
     /tmp/ccOWj8hl.s:105581  .debug_str:000000000004ac02 .LASF4186
     /tmp/ccOWj8hl.s:91851  .debug_str:00000000000127a3 .LASF4187
     /tmp/ccOWj8hl.s:87413  .debug_str:00000000000003a2 .LASF4188
     /tmp/ccOWj8hl.s:95729  .debug_str:0000000000022622 .LASF4189
     /tmp/ccOWj8hl.s:89929  .debug_str:000000000000aea9 .LASF4190
     /tmp/ccOWj8hl.s:104159  .debug_str:00000000000449b1 .LASF4191
     /tmp/ccOWj8hl.s:101553  .debug_str:0000000000039cec .LASF4192
     /tmp/ccOWj8hl.s:101371  .debug_str:0000000000038fcc .LASF4193
     /tmp/ccOWj8hl.s:91175  .debug_str:000000000000fa6f .LASF4194
     /tmp/ccOWj8hl.s:93077  .debug_str:0000000000017603 .LASF4195
     /tmp/ccOWj8hl.s:91023  .debug_str:000000000000f234 .LASF4196
     /tmp/ccOWj8hl.s:97115  .debug_str:0000000000027db9 .LASF4197
     /tmp/ccOWj8hl.s:102461  .debug_str:000000000003d82d .LASF4198
     /tmp/ccOWj8hl.s:94917  .debug_str:000000000001ef1c .LASF4199
     /tmp/ccOWj8hl.s:103075  .debug_str:00000000000402bf .LASF4200
     /tmp/ccOWj8hl.s:92653  .debug_str:000000000001591e .LASF4201
     /tmp/ccOWj8hl.s:101001  .debug_str:000000000003771d .LASF4202
     /tmp/ccOWj8hl.s:103399  .debug_str:0000000000041892 .LASF4203
     /tmp/ccOWj8hl.s:100727  .debug_str:000000000003680f .LASF4204
     /tmp/ccOWj8hl.s:94513  .debug_str:000000000001d2c4 .LASF4205
     /tmp/ccOWj8hl.s:102685  .debug_str:000000000003e908 .LASF4206
     /tmp/ccOWj8hl.s:92273  .debug_str:00000000000140c3 .LASF4207
     /tmp/ccOWj8hl.s:89455  .debug_str:0000000000008e58 .LASF4208
     /tmp/ccOWj8hl.s:90017  .debug_str:000000000000b59b .LASF4209
     /tmp/ccOWj8hl.s:98471  .debug_str:000000000002d659 .LASF4210
     /tmp/ccOWj8hl.s:99993  .debug_str:0000000000033c8f .LASF4211
     /tmp/ccOWj8hl.s:100203  .debug_str:0000000000034987 .LASF4212
     /tmp/ccOWj8hl.s:88201  .debug_str:00000000000039d1 .LASF4213
     /tmp/ccOWj8hl.s:104525  .debug_str:00000000000461f9 .LASF4214
     /tmp/ccOWj8hl.s:88075  .debug_str:0000000000003187 .LASF4215
     /tmp/ccOWj8hl.s:94361  .debug_str:000000000001c82f .LASF4216
     /tmp/ccOWj8hl.s:90789  .debug_str:000000000000e440 .LASF4217
     /tmp/ccOWj8hl.s:92119  .debug_str:00000000000137d9 .LASF4218
     /tmp/ccOWj8hl.s:92773  .debug_str:0000000000016143 .LASF4219
     /tmp/ccOWj8hl.s:94041  .debug_str:000000000001b2b4 .LASF4220
     /tmp/ccOWj8hl.s:98349  .debug_str:000000000002cdc0 .LASF4221
     /tmp/ccOWj8hl.s:87779  .debug_str:0000000000001c57 .LASF4222
     /tmp/ccOWj8hl.s:98637  .debug_str:000000000002e15f .LASF4223
     /tmp/ccOWj8hl.s:88099  .debug_str:00000000000032c3 .LASF4224
     /tmp/ccOWj8hl.s:93557  .debug_str:000000000001955d .LASF4225
     /tmp/ccOWj8hl.s:101825  .debug_str:000000000003af38 .LASF4226
     /tmp/ccOWj8hl.s:91143  .debug_str:000000000000f926 .LASF4227
     /tmp/ccOWj8hl.s:102551  .debug_str:000000000003dedb .LASF4228
     /tmp/ccOWj8hl.s:91483  .debug_str:0000000000010db6 .LASF4229
     /tmp/ccOWj8hl.s:98927  .debug_str:000000000002f436 .LASF4230
     /tmp/ccOWj8hl.s:104587  .debug_str:0000000000046604 .LASF4231
     /tmp/ccOWj8hl.s:105007  .debug_str:00000000000482a9 .LASF4232
     /tmp/ccOWj8hl.s:92519  .debug_str:000000000001513f .LASF4233
     /tmp/ccOWj8hl.s:100847  .debug_str:0000000000036ed9 .LASF4234
     /tmp/ccOWj8hl.s:104975  .debug_str:00000000000480a0 .LASF4235
     /tmp/ccOWj8hl.s:98675  .debug_str:000000000002e3f9 .LASF4236
     /tmp/ccOWj8hl.s:88133  .debug_str:00000000000034c0 .LASF4237
     /tmp/ccOWj8hl.s:96487  .debug_str:0000000000025408 .LASF4238
     /tmp/ccOWj8hl.s:104623  .debug_str:00000000000467e5 .LASF4239
     /tmp/ccOWj8hl.s:94293  .debug_str:000000000001c32b .LASF4240
     /tmp/ccOWj8hl.s:102291  .debug_str:000000000003ce26 .LASF4241
     /tmp/ccOWj8hl.s:93197  .debug_str:0000000000017c90 .LASF4242
     /tmp/ccOWj8hl.s:102769  .debug_str:000000000003ee33 .LASF4243
     /tmp/ccOWj8hl.s:92357  .debug_str:0000000000014646 .LASF4244
     /tmp/ccOWj8hl.s:100681  .debug_str:000000000003668f .LASF4245
     /tmp/ccOWj8hl.s:90073  .debug_str:000000000000b913 .LASF4246
     /tmp/ccOWj8hl.s:98161  .debug_str:000000000002c0a0 .LASF4247
     /tmp/ccOWj8hl.s:88015  .debug_str:0000000000002d92 .LASF4248
     /tmp/ccOWj8hl.s:96181  .debug_str:0000000000024107 .LASF4249
     /tmp/ccOWj8hl.s:104351  .debug_str:000000000004558a .LASF4250
     /tmp/ccOWj8hl.s:94001  .debug_str:000000000001b0ba .LASF4251
     /tmp/ccOWj8hl.s:104771  .debug_str:000000000004715f .LASF4252
     /tmp/ccOWj8hl.s:88977  .debug_str:0000000000006f38 .LASF4253
     /tmp/ccOWj8hl.s:103791  .debug_str:000000000004310c .LASF4254
     /tmp/ccOWj8hl.s:105205  .debug_str:0000000000048ffb .LASF4255
     /tmp/ccOWj8hl.s:94899  .debug_str:000000000001eddd .LASF4256
     /tmp/ccOWj8hl.s:94037  .debug_str:000000000001b296 .LASF4257
     /tmp/ccOWj8hl.s:93461  .debug_str:0000000000018e83 .LASF4258
     /tmp/ccOWj8hl.s:104337  .debug_str:00000000000454b2 .LASF4259
     /tmp/ccOWj8hl.s:94779  .debug_str:000000000001e516 .LASF4260
     /tmp/ccOWj8hl.s:97849  .debug_str:000000000002ad11 .LASF4261
     /tmp/ccOWj8hl.s:89231  .debug_str:0000000000007f19 .LASF4262
     /tmp/ccOWj8hl.s:99621  .debug_str:00000000000322d4 .LASF4263
     /tmp/ccOWj8hl.s:91063  .debug_str:000000000000f4c7 .LASF4264
     /tmp/ccOWj8hl.s:98873  .debug_str:000000000002f11f .LASF4265
     /tmp/ccOWj8hl.s:91699  .debug_str:0000000000011c73 .LASF4266
     /tmp/ccOWj8hl.s:92277  .debug_str:0000000000014116 .LASF4267
     /tmp/ccOWj8hl.s:101787  .debug_str:000000000003ac98 .LASF4268
     /tmp/ccOWj8hl.s:101599  .debug_str:000000000003a006 .LASF4269
     /tmp/ccOWj8hl.s:103393  .debug_str:000000000004181b .LASF4270
     /tmp/ccOWj8hl.s:103691  .debug_str:0000000000042aa9 .LASF4271
     /tmp/ccOWj8hl.s:89877  .debug_str:000000000000aae8 .LASF4272
     /tmp/ccOWj8hl.s:96869  .debug_str:0000000000026d3d .LASF4273
     /tmp/ccOWj8hl.s:100193  .debug_str:00000000000348d5 .LASF4274
     /tmp/ccOWj8hl.s:96823  .debug_str:00000000000269c5 .LASF4275
     /tmp/ccOWj8hl.s:102149  .debug_str:000000000003c49a .LASF4276
     /tmp/ccOWj8hl.s:100319  .debug_str:0000000000035132 .LASF4277
     /tmp/ccOWj8hl.s:95883  .debug_str:00000000000230b5 .LASF4278
     /tmp/ccOWj8hl.s:101135  .debug_str:000000000003800c .LASF4279
     /tmp/ccOWj8hl.s:97645  .debug_str:0000000000029f69 .LASF4280
     /tmp/ccOWj8hl.s:91083  .debug_str:000000000000f612 .LASF4281
     /tmp/ccOWj8hl.s:99409  .debug_str:000000000003151d .LASF4282
     /tmp/ccOWj8hl.s:90833  .debug_str:000000000000e75a .LASF4283
     /tmp/ccOWj8hl.s:90841  .debug_str:000000000000e7f5 .LASF4284
     /tmp/ccOWj8hl.s:92765  .debug_str:00000000000160cc .LASF4285
     /tmp/ccOWj8hl.s:102991  .debug_str:000000000003fc6a .LASF4286
     /tmp/ccOWj8hl.s:94463  .debug_str:000000000001cf4e .LASF4287
     /tmp/ccOWj8hl.s:89919  .debug_str:000000000000ae1b .LASF4288
     /tmp/ccOWj8hl.s:100405  .debug_str:0000000000035666 .LASF4289
     /tmp/ccOWj8hl.s:101391  .debug_str:00000000000390e0 .LASF4290
     /tmp/ccOWj8hl.s:100699  .debug_str:0000000000036764 .LASF4291
     /tmp/ccOWj8hl.s:87471  .debug_str:000000000000078d .LASF4292
     /tmp/ccOWj8hl.s:101465  .debug_str:0000000000039693 .LASF4293
     /tmp/ccOWj8hl.s:92973  .debug_str:0000000000016f40 .LASF4294
     /tmp/ccOWj8hl.s:103229  .debug_str:0000000000040d7e .LASF4295
     /tmp/ccOWj8hl.s:102377  .debug_str:000000000003d314 .LASF4296
     /tmp/ccOWj8hl.s:100995  .debug_str:00000000000376dc .LASF4297
     /tmp/ccOWj8hl.s:96695  .debug_str:00000000000261cb .LASF4298
     /tmp/ccOWj8hl.s:93705  .debug_str:0000000000019eed .LASF4299
     /tmp/ccOWj8hl.s:103025  .debug_str:000000000003ff18 .LASF4300
     /tmp/ccOWj8hl.s:95565  .debug_str:0000000000021afc .LASF4301
     /tmp/ccOWj8hl.s:99339  .debug_str:0000000000031045 .LASF4302
     /tmp/ccOWj8hl.s:100697  .debug_str:000000000003674b .LASF4303
     /tmp/ccOWj8hl.s:104899  .debug_str:0000000000047ad0 .LASF4304
     /tmp/ccOWj8hl.s:99049  .debug_str:000000000002fbf0 .LASF4305
     /tmp/ccOWj8hl.s:90441  .debug_str:000000000000d175 .LASF4306
     /tmp/ccOWj8hl.s:100879  .debug_str:0000000000037007 .LASF4307
     /tmp/ccOWj8hl.s:92365  .debug_str:00000000000146eb .LASF4308
     /tmp/ccOWj8hl.s:87761  .debug_str:0000000000001b56 .LASF4309
     /tmp/ccOWj8hl.s:98171  .debug_str:000000000002c12e .LASF4310
     /tmp/ccOWj8hl.s:89499  .debug_str:0000000000009132 .LASF4311
     /tmp/ccOWj8hl.s:99915  .debug_str:000000000003376c .LASF4312
     /tmp/ccOWj8hl.s:91389  .debug_str:00000000000107e4 .LASF4313
     /tmp/ccOWj8hl.s:96671  .debug_str:0000000000026022 .LASF4314
     /tmp/ccOWj8hl.s:93121  .debug_str:00000000000178cc .LASF4315
     /tmp/ccOWj8hl.s:96835  .debug_str:0000000000026a9a .LASF4316
     /tmp/ccOWj8hl.s:102165  .debug_str:000000000003c5b8 .LASF4317
     /tmp/ccOWj8hl.s:105129  .debug_str:0000000000048ab4 .LASF4318
     /tmp/ccOWj8hl.s:100687  .debug_str:00000000000366fa .LASF4319
     /tmp/ccOWj8hl.s:93369  .debug_str:000000000001886e .LASF4320
     /tmp/ccOWj8hl.s:101091  .debug_str:0000000000037d42 .LASF4321
     /tmp/ccOWj8hl.s:89161  .debug_str:0000000000007a55 .LASF4322
     /tmp/ccOWj8hl.s:102831  .debug_str:000000000003f28d .LASF4323
     /tmp/ccOWj8hl.s:90007  .debug_str:000000000000b50f .LASF4324
     /tmp/ccOWj8hl.s:94297  .debug_str:000000000001c35d .LASF4325
     /tmp/ccOWj8hl.s:104761  .debug_str:00000000000470cb .LASF4326
     /tmp/ccOWj8hl.s:97839  .debug_str:000000000002ac65 .LASF4327
     /tmp/ccOWj8hl.s:102279  .debug_str:000000000003cd6b .LASF4328
     /tmp/ccOWj8hl.s:100413  .debug_str:00000000000356d1 .LASF4329
     /tmp/ccOWj8hl.s:102585  .debug_str:000000000003e13e .LASF4330
     /tmp/ccOWj8hl.s:93693  .debug_str:0000000000019e5a .LASF4331
     /tmp/ccOWj8hl.s:104417  .debug_str:0000000000045a5d .LASF4332
     /tmp/ccOWj8hl.s:93231  .debug_str:0000000000017ec6 .LASF4333
     /tmp/ccOWj8hl.s:97751  .debug_str:000000000002a6ad .LASF4334
     /tmp/ccOWj8hl.s:97173  .debug_str:0000000000028162 .LASF4335
     /tmp/ccOWj8hl.s:99843  .debug_str:0000000000033214 .LASF4336
     /tmp/ccOWj8hl.s:91623  .debug_str:00000000000117b6 .LASF4337
     /tmp/ccOWj8hl.s:105233  .debug_str:00000000000491fa .LASF4338
     /tmp/ccOWj8hl.s:97881  .debug_str:000000000002af58 .LASF4339
     /tmp/ccOWj8hl.s:88187  .debug_str:00000000000038d9 .LASF4340
     /tmp/ccOWj8hl.s:105145  .debug_str:0000000000048bea .LASF4341
     /tmp/ccOWj8hl.s:103645  .debug_str:00000000000427e0 .LASF4342
     /tmp/ccOWj8hl.s:89061  .debug_str:0000000000007454 .LASF4343
     /tmp/ccOWj8hl.s:98063  .debug_str:000000000002ba1f .LASF4344
     /tmp/ccOWj8hl.s:103279  .debug_str:0000000000041073 .LASF4345
     /tmp/ccOWj8hl.s:97523  .debug_str:00000000000297d7 .LASF4346
     /tmp/ccOWj8hl.s:91941  .debug_str:0000000000012cf9 .LASF4347
     /tmp/ccOWj8hl.s:87577  .debug_str:0000000000000e7f .LASF4348
     /tmp/ccOWj8hl.s:97477  .debug_str:00000000000294e1 .LASF4349
     /tmp/ccOWj8hl.s:97379  .debug_str:0000000000028e9b .LASF4350
     /tmp/ccOWj8hl.s:96295  .debug_str:000000000002470b .LASF4351
     /tmp/ccOWj8hl.s:102411  .debug_str:000000000003d540 .LASF4352
     /tmp/ccOWj8hl.s:94729  .debug_str:000000000001e1d6 .LASF4353
     /tmp/ccOWj8hl.s:99069  .debug_str:000000000002fcfd .LASF4354
     /tmp/ccOWj8hl.s:93105  .debug_str:0000000000017795 .LASF4355
     /tmp/ccOWj8hl.s:90605  .debug_str:000000000000db0a .LASF4356
     /tmp/ccOWj8hl.s:90479  .debug_str:000000000000d338 .LASF4357
     /tmp/ccOWj8hl.s:91661  .debug_str:0000000000011a2c .LASF4358
     /tmp/ccOWj8hl.s:89613  .debug_str:000000000000992a .LASF4359
     /tmp/ccOWj8hl.s:90613  .debug_str:000000000000db7e .LASF4360
     /tmp/ccOWj8hl.s:96655  .debug_str:0000000000025f0b .LASF4361
     /tmp/ccOWj8hl.s:100901  .debug_str:000000000003716b .LASF4362
     /tmp/ccOWj8hl.s:99199  .debug_str:000000000003066c .LASF4363
     /tmp/ccOWj8hl.s:98259  .debug_str:000000000002c732 .LASF4364
     /tmp/ccOWj8hl.s:102067  .debug_str:000000000003c014 .LASF4365
     /tmp/ccOWj8hl.s:97483  .debug_str:000000000002952b .LASF4366
     /tmp/ccOWj8hl.s:104733  .debug_str:0000000000046f15 .LASF4367
     /tmp/ccOWj8hl.s:87963  .debug_str:0000000000002912 .LASF4368
     /tmp/ccOWj8hl.s:100679  .debug_str:0000000000036667 .LASF4369
     /tmp/ccOWj8hl.s:97009  .debug_str:0000000000027748 .LASF4370
     /tmp/ccOWj8hl.s:99943  .debug_str:0000000000033970 .LASF4371
     /tmp/ccOWj8hl.s:100129  .debug_str:0000000000034504 .LASF4372
     /tmp/ccOWj8hl.s:87483  .debug_str:0000000000000869 .LASF4373
     /tmp/ccOWj8hl.s:93767  .debug_str:000000000001a225 .LASF4374
     /tmp/ccOWj8hl.s:88161  .debug_str:00000000000036c5 .LASF4375
     /tmp/ccOWj8hl.s:90721  .debug_str:000000000000e180 .LASF4376
     /tmp/ccOWj8hl.s:89527  .debug_str:0000000000009372 .LASF4377
     /tmp/ccOWj8hl.s:96115  .debug_str:0000000000023ded .LASF4378
     /tmp/ccOWj8hl.s:102989  .debug_str:000000000003fc44 .LASF4379
     /tmp/ccOWj8hl.s:90591  .debug_str:000000000000da60 .LASF4380
     /tmp/ccOWj8hl.s:92105  .debug_str:00000000000136fd .LASF4381
     /tmp/ccOWj8hl.s:90893  .debug_str:000000000000ea2e .LASF4382
     /tmp/ccOWj8hl.s:97691  .debug_str:000000000002a2c2 .LASF4383
     /tmp/ccOWj8hl.s:104387  .debug_str:00000000000457f6 .LASF4384
     /tmp/ccOWj8hl.s:99391  .debug_str:00000000000313b4 .LASF4385
     /tmp/ccOWj8hl.s:105141  .debug_str:0000000000048ba6 .LASF4386
     /tmp/ccOWj8hl.s:100767  .debug_str:0000000000036ae3 .LASF4387
     /tmp/ccOWj8hl.s:93609  .debug_str:0000000000019874 .LASF4388
     /tmp/ccOWj8hl.s:95963  .debug_str:00000000000235f4 .LASF4389
     /tmp/ccOWj8hl.s:99457  .debug_str:0000000000031830 .LASF4390
     /tmp/ccOWj8hl.s:103433  .debug_str:0000000000041aca .LASF4391
     /tmp/ccOWj8hl.s:92123  .debug_str:00000000000137fe .LASF4392
     /tmp/ccOWj8hl.s:92061  .debug_str:0000000000013444 .LASF4393
     /tmp/ccOWj8hl.s:102771  .debug_str:000000000003ee49 .LASF4394
     /tmp/ccOWj8hl.s:104433  .debug_str:0000000000045b8c .LASF4395
     /tmp/ccOWj8hl.s:93311  .debug_str:000000000001844b .LASF4396
     /tmp/ccOWj8hl.s:94903  .debug_str:000000000001ee29 .LASF4397
     /tmp/ccOWj8hl.s:102331  .debug_str:000000000003d082 .LASF4398
     /tmp/ccOWj8hl.s:95519  .debug_str:000000000002184c .LASF4399
     /tmp/ccOWj8hl.s:92709  .debug_str:0000000000015d2e .LASF4400
     /tmp/ccOWj8hl.s:101509  .debug_str:00000000000399fd .LASF4401
     /tmp/ccOWj8hl.s:97745  .debug_str:000000000002a633 .LASF4402
     /tmp/ccOWj8hl.s:92777  .debug_str:000000000001619e .LASF4403
     /tmp/ccOWj8hl.s:96203  .debug_str:000000000002424f .LASF4404
     /tmp/ccOWj8hl.s:96133  .debug_str:0000000000023f1f .LASF4405
     /tmp/ccOWj8hl.s:88465  .debug_str:0000000000004c1f .LASF4406
     /tmp/ccOWj8hl.s:90949  .debug_str:000000000000ed08 .LASF4407
     /tmp/ccOWj8hl.s:103723  .debug_str:0000000000042cd0 .LASF4408
     /tmp/ccOWj8hl.s:88165  .debug_str:0000000000003701 .LASF4409
     /tmp/ccOWj8hl.s:91751  .debug_str:0000000000012013 .LASF4410
     /tmp/ccOWj8hl.s:104425  .debug_str:0000000000045adc .LASF4411
     /tmp/ccOWj8hl.s:98583  .debug_str:000000000002dd86 .LASF4412
     /tmp/ccOWj8hl.s:92495  .debug_str:0000000000014fd3 .LASF4413
     /tmp/ccOWj8hl.s:95139  .debug_str:000000000001fe81 .LASF4414
     /tmp/ccOWj8hl.s:94415  .debug_str:000000000001cbc9 .LASF4415
     /tmp/ccOWj8hl.s:103205  .debug_str:0000000000040ba7 .LASF4416
     /tmp/ccOWj8hl.s:93359  .debug_str:00000000000187de .LASF4417
     /tmp/ccOWj8hl.s:102199  .debug_str:000000000003c7f8 .LASF4418
     /tmp/ccOWj8hl.s:92369  .debug_str:000000000001471e .LASF4419
     /tmp/ccOWj8hl.s:101305  .debug_str:0000000000038bb6 .LASF4420
     /tmp/ccOWj8hl.s:90011  .debug_str:000000000000b561 .LASF4421
     /tmp/ccOWj8hl.s:88619  .debug_str:0000000000005738 .LASF4422
     /tmp/ccOWj8hl.s:89721  .debug_str:000000000000a061 .LASF4423
     /tmp/ccOWj8hl.s:103729  .debug_str:0000000000042d68 .LASF4424
     /tmp/ccOWj8hl.s:90311  .debug_str:000000000000c8f1 .LASF4425
     /tmp/ccOWj8hl.s:88779  .debug_str:0000000000006111 .LASF4426
     /tmp/ccOWj8hl.s:97221  .debug_str:00000000000284c1 .LASF4427
     /tmp/ccOWj8hl.s:97435  .debug_str:0000000000029235 .LASF4428
     /tmp/ccOWj8hl.s:102269  .debug_str:000000000003cc97 .LASF4429
     /tmp/ccOWj8hl.s:97991  .debug_str:000000000002b58c .LASF4430
     /tmp/ccOWj8hl.s:93599  .debug_str:0000000000019765 .LASF4431
     /tmp/ccOWj8hl.s:104691  .debug_str:0000000000046c4d .LASF4432
     /tmp/ccOWj8hl.s:98841  .debug_str:000000000002ef26 .LASF4433
     /tmp/ccOWj8hl.s:104861  .debug_str:000000000004782c .LASF4434
     /tmp/ccOWj8hl.s:93469  .debug_str:0000000000018ef5 .LASF4435
     /tmp/ccOWj8hl.s:92963  .debug_str:0000000000016ebb .LASF4436
     /tmp/ccOWj8hl.s:105635  .debug_str:000000000004afa3 .LASF4437
     /tmp/ccOWj8hl.s:99761  .debug_str:0000000000032c64 .LASF4438
     /tmp/ccOWj8hl.s:93739  .debug_str:000000000001a0e2 .LASF4439
     /tmp/ccOWj8hl.s:98687  .debug_str:000000000002e46c .LASF4440
     /tmp/ccOWj8hl.s:96093  .debug_str:0000000000023cd3 .LASF4441
     /tmp/ccOWj8hl.s:91543  .debug_str:00000000000111df .LASF4442
     /tmp/ccOWj8hl.s:97229  .debug_str:0000000000028538 .LASF4443
     /tmp/ccOWj8hl.s:92479  .debug_str:0000000000014eb8 .LASF4444
     /tmp/ccOWj8hl.s:96765  .debug_str:000000000002663b .LASF4445
     /tmp/ccOWj8hl.s:98819  .debug_str:000000000002edb4 .LASF4446
     /tmp/ccOWj8hl.s:90725  .debug_str:000000000000e1a4 .LASF4447
     /tmp/ccOWj8hl.s:97547  .debug_str:0000000000029973 .LASF4448
     /tmp/ccOWj8hl.s:99939  .debug_str:00000000000338f0 .LASF4449
     /tmp/ccOWj8hl.s:104115  .debug_str:000000000004466c .LASF4450
     /tmp/ccOWj8hl.s:98963  .debug_str:000000000002f679 .LASF4451
     /tmp/ccOWj8hl.s:92177  .debug_str:0000000000013b76 .LASF4452
     /tmp/ccOWj8hl.s:97661  .debug_str:000000000002a060 .LASF4453
     /tmp/ccOWj8hl.s:91547  .debug_str:000000000001121d .LASF4454
     /tmp/ccOWj8hl.s:93677  .debug_str:0000000000019d0c .LASF4455
     /tmp/ccOWj8hl.s:88011  .debug_str:0000000000002d1b .LASF4456
     /tmp/ccOWj8hl.s:92291  .debug_str:0000000000014200 .LASF4457
     /tmp/ccOWj8hl.s:104941  .debug_str:0000000000047e04 .LASF4458
     /tmp/ccOWj8hl.s:100033  .debug_str:0000000000033f0e .LASF4459
     /tmp/ccOWj8hl.s:102669  .debug_str:000000000003e7b2 .LASF4460
     /tmp/ccOWj8hl.s:95879  .debug_str:0000000000023072 .LASF4461
     /tmp/ccOWj8hl.s:90617  .debug_str:000000000000dbde .LASF4462
     /tmp/ccOWj8hl.s:96117  .debug_str:0000000000023e1d .LASF4463
     /tmp/ccOWj8hl.s:98665  .debug_str:000000000002e2fb .LASF4464
     /tmp/ccOWj8hl.s:88699  .debug_str:0000000000005bfe .LASF4465
     /tmp/ccOWj8hl.s:96891  .debug_str:0000000000026ebc .LASF4466
     /tmp/ccOWj8hl.s:87715  .debug_str:0000000000001807 .LASF4467
     /tmp/ccOWj8hl.s:89521  .debug_str:00000000000092f4 .LASF4468
     /tmp/ccOWj8hl.s:97685  .debug_str:000000000002a23d .LASF4469
     /tmp/ccOWj8hl.s:91579  .debug_str:0000000000011451 .LASF4470
     /tmp/ccOWj8hl.s:104261  .debug_str:0000000000045003 .LASF4471
     /tmp/ccOWj8hl.s:90041  .debug_str:000000000000b73a .LASF4472
     /tmp/ccOWj8hl.s:105183  .debug_str:0000000000048e57 .LASF4473
     /tmp/ccOWj8hl.s:96943  .debug_str:000000000002721e .LASF4474
     /tmp/ccOWj8hl.s:90807  .debug_str:000000000000e552 .LASF4475
     /tmp/ccOWj8hl.s:92811  .debug_str:000000000001639f .LASF4476
     /tmp/ccOWj8hl.s:105649  .debug_str:000000000004b0c1 .LASF4477
     /tmp/ccOWj8hl.s:98431  .debug_str:000000000002d32d .LASF4478
     /tmp/ccOWj8hl.s:100427  .debug_str:00000000000357cb .LASF4479
     /tmp/ccOWj8hl.s:96737  .debug_str:0000000000026478 .LASF4480
     /tmp/ccOWj8hl.s:88791  .debug_str:0000000000006213 .LASF4481
     /tmp/ccOWj8hl.s:105047  .debug_str:000000000004853b .LASF4482
     /tmp/ccOWj8hl.s:95919  .debug_str:00000000000231f3 .LASF4483
     /tmp/ccOWj8hl.s:96435  .debug_str:000000000002506a .LASF4484
     /tmp/ccOWj8hl.s:94989  .debug_str:000000000001f4f1 .LASF4485
     /tmp/ccOWj8hl.s:104355  .debug_str:00000000000455aa .LASF4486
     /tmp/ccOWj8hl.s:97209  .debug_str:00000000000283f3 .LASF4487
     /tmp/ccOWj8hl.s:95709  .debug_str:00000000000224dc .LASF4488
     /tmp/ccOWj8hl.s:100733  .debug_str:000000000003687b .LASF4489
     /tmp/ccOWj8hl.s:97987  .debug_str:000000000002b531 .LASF4490
     /tmp/ccOWj8hl.s:95033  .debug_str:000000000001f794 .LASF4491
     /tmp/ccOWj8hl.s:95511  .debug_str:00000000000217b1 .LASF4492
     /tmp/ccOWj8hl.s:102865  .debug_str:000000000003f509 .LASF4493
     /tmp/ccOWj8hl.s:103397  .debug_str:0000000000041859 .LASF4494
     /tmp/ccOWj8hl.s:89615  .debug_str:0000000000009955 .LASF4495
     /tmp/ccOWj8hl.s:90113  .debug_str:000000000000bb6d .LASF4496
     /tmp/ccOWj8hl.s:96087  .debug_str:0000000000023ca4 .LASF4497
     /tmp/ccOWj8hl.s:97213  .debug_str:0000000000028434 .LASF4498
     /tmp/ccOWj8hl.s:91085  .debug_str:000000000000f62a .LASF4499
     /tmp/ccOWj8hl.s:103827  .debug_str:000000000004333a .LASF4500
     /tmp/ccOWj8hl.s:100267  .debug_str:0000000000034e1e .LASF4501
     /tmp/ccOWj8hl.s:101435  .debug_str:0000000000039458 .LASF4502
     /tmp/ccOWj8hl.s:91519  .debug_str:000000000001102e .LASF4503
     /tmp/ccOWj8hl.s:98835  .debug_str:000000000002eeab .LASF4504
     /tmp/ccOWj8hl.s:90429  .debug_str:000000000000d093 .LASF4505
     /tmp/ccOWj8hl.s:105445  .debug_str:000000000004a1f4 .LASF4506
     /tmp/ccOWj8hl.s:99593  .debug_str:0000000000032165 .LASF4507
     /tmp/ccOWj8hl.s:100749  .debug_str:00000000000369b5 .LASF4508
     /tmp/ccOWj8hl.s:94757  .debug_str:000000000001e3e3 .LASF4509
     /tmp/ccOWj8hl.s:104401  .debug_str:00000000000458ed .LASF4510
     /tmp/ccOWj8hl.s:101457  .debug_str:00000000000395e1 .LASF4511
     /tmp/ccOWj8hl.s:104847  .debug_str:00000000000476e2 .LASF4512
     /tmp/ccOWj8hl.s:104481  .debug_str:0000000000045f03 .LASF4513
     /tmp/ccOWj8hl.s:90131  .debug_str:000000000000bcb4 .LASF4514
     /tmp/ccOWj8hl.s:100099  .debug_str:0000000000034314 .LASF4515
     /tmp/ccOWj8hl.s:103379  .debug_str:00000000000416fe .LASF4516
     /tmp/ccOWj8hl.s:103991  .debug_str:0000000000043dda .LASF4517
     /tmp/ccOWj8hl.s:89147  .debug_str:0000000000007939 .LASF4518
     /tmp/ccOWj8hl.s:104111  .debug_str:00000000000445f3 .LASF4519
     /tmp/ccOWj8hl.s:88197  .debug_str:0000000000003985 .LASF4520
     /tmp/ccOWj8hl.s:97167  .debug_str:00000000000280f2 .LASF4521
     /tmp/ccOWj8hl.s:104817  .debug_str:000000000004745c .LASF4522
     /tmp/ccOWj8hl.s:93235  .debug_str:0000000000017f25 .LASF4523
     /tmp/ccOWj8hl.s:92925  .debug_str:0000000000016c07 .LASF4524
     /tmp/ccOWj8hl.s:93259  .debug_str:00000000000180ea .LASF4525
     /tmp/ccOWj8hl.s:88399  .debug_str:000000000000479d .LASF4526
     /tmp/ccOWj8hl.s:100021  .debug_str:0000000000033e1a .LASF4527
     /tmp/ccOWj8hl.s:94071  .debug_str:000000000001b4b1 .LASF4528
     /tmp/ccOWj8hl.s:88007  .debug_str:0000000000002c9f .LASF4529
     /tmp/ccOWj8hl.s:100817  .debug_str:0000000000036d27 .LASF4530
     /tmp/ccOWj8hl.s:93391  .debug_str:00000000000189eb .LASF4531
     /tmp/ccOWj8hl.s:102767  .debug_str:000000000003edfc .LASF4532
     /tmp/ccOWj8hl.s:105547  .debug_str:000000000004a976 .LASF4533
     /tmp/ccOWj8hl.s:95787  .debug_str:00000000000229d0 .LASF4534
     /tmp/ccOWj8hl.s:104555  .debug_str:00000000000463a3 .LASF4535
     /tmp/ccOWj8hl.s:94835  .debug_str:000000000001e8cd .LASF4536
     /tmp/ccOWj8hl.s:97039  .debug_str:000000000002791a .LASF4537
     /tmp/ccOWj8hl.s:104255  .debug_str:0000000000044f62 .LASF4538
     /tmp/ccOWj8hl.s:88203  .debug_str:00000000000039e9 .LASF4539
     /tmp/ccOWj8hl.s:101545  .debug_str:0000000000039c73 .LASF4540
     /tmp/ccOWj8hl.s:95253  .debug_str:0000000000020711 .LASF4541
     /tmp/ccOWj8hl.s:94481  .debug_str:000000000001d070 .LASF4542
     /tmp/ccOWj8hl.s:94239  .debug_str:000000000001bf5d .LASF4543
     /tmp/ccOWj8hl.s:88005  .debug_str:0000000000002c66 .LASF4544
     /tmp/ccOWj8hl.s:99735  .debug_str:0000000000032aa1 .LASF4545
     /tmp/ccOWj8hl.s:99109  .debug_str:000000000002ffa4 .LASF4546
     /tmp/ccOWj8hl.s:104661  .debug_str:0000000000046a73 .LASF4547
     /tmp/ccOWj8hl.s:98809  .debug_str:000000000002ed22 .LASF4548
     /tmp/ccOWj8hl.s:88175  .debug_str:0000000000003825 .LASF4549
     /tmp/ccOWj8hl.s:105583  .debug_str:000000000004ac16 .LASF4550
     /tmp/ccOWj8hl.s:94753  .debug_str:000000000001e369 .LASF4551
     /tmp/ccOWj8hl.s:93687  .debug_str:0000000000019dc0 .LASF4552
     /tmp/ccOWj8hl.s:87681  .debug_str:000000000000151b .LASF4553
     /tmp/ccOWj8hl.s:105735  .debug_str:000000000004b62b .LASF4554
     /tmp/ccOWj8hl.s:96419  .debug_str:0000000000024f03 .LASF4555
     /tmp/ccOWj8hl.s:93415  .debug_str:0000000000018b7e .LASF4556
     /tmp/ccOWj8hl.s:92315  .debug_str:0000000000014371 .LASF4557
     /tmp/ccOWj8hl.s:104959  .debug_str:0000000000047f26 .LASF4558
     /tmp/ccOWj8hl.s:99115  .debug_str:000000000003000a .LASF4559
     /tmp/ccOWj8hl.s:96325  .debug_str:00000000000248f1 .LASF4560
     /tmp/ccOWj8hl.s:105721  .debug_str:000000000004b573 .LASF4561
     /tmp/ccOWj8hl.s:102197  .debug_str:000000000003c7c1 .LASF4562
     /tmp/ccOWj8hl.s:101093  .debug_str:0000000000037d5d .LASF4563
     /tmp/ccOWj8hl.s:101127  .debug_str:0000000000037fa6 .LASF4564
     /tmp/ccOWj8hl.s:105887  .debug_str:000000000004c02d .LASF4565
     /tmp/ccOWj8hl.s:96135  .debug_str:0000000000023f57 .LASF4566
     /tmp/ccOWj8hl.s:101799  .debug_str:000000000003ad50 .LASF4567
     /tmp/ccOWj8hl.s:105293  .debug_str:00000000000496bc .LASF4568
     /tmp/ccOWj8hl.s:92839  .debug_str:00000000000165a7 .LASF4569
     /tmp/ccOWj8hl.s:99651  .debug_str:00000000000324b3 .LASF4570
     /tmp/ccOWj8hl.s:93293  .debug_str:00000000000182dd .LASF4571
     /tmp/ccOWj8hl.s:102427  .debug_str:000000000003d635 .LASF4572
     /tmp/ccOWj8hl.s:103731  .debug_str:0000000000042da0 .LASF4573
     /tmp/ccOWj8hl.s:105671  .debug_str:000000000004b1ca .LASF4574
     /tmp/ccOWj8hl.s:93631  .debug_str:0000000000019a8a .LASF4575
     /tmp/ccOWj8hl.s:92475  .debug_str:0000000000014e75 .LASF4576
     /tmp/ccOWj8hl.s:87745  .debug_str:0000000000001a3f .LASF4577
     /tmp/ccOWj8hl.s:89549  .debug_str:0000000000009559 .LASF4578
     /tmp/ccOWj8hl.s:94541  .debug_str:000000000001d4d3 .LASF4579
     /tmp/ccOWj8hl.s:101193  .debug_str:00000000000383e5 .LASF4580
     /tmp/ccOWj8hl.s:101439  .debug_str:00000000000394b1 .LASF4581
     /tmp/ccOWj8hl.s:97247  .debug_str:000000000002869a .LASF4582
     /tmp/ccOWj8hl.s:101053  .debug_str:0000000000037a56 .LASF4583
     /tmp/ccOWj8hl.s:87887  .debug_str:00000000000023b1 .LASF4584
     /tmp/ccOWj8hl.s:105341  .debug_str:0000000000049938 .LASF4585
     /tmp/ccOWj8hl.s:98409  .debug_str:000000000002d13a .LASF4586
     /tmp/ccOWj8hl.s:95329  .debug_str:0000000000020ad6 .LASF4587
     /tmp/ccOWj8hl.s:88403  .debug_str:00000000000047f9 .LASF4588
     /tmp/ccOWj8hl.s:103429  .debug_str:0000000000041a9b .LASF4589
     /tmp/ccOWj8hl.s:102045  .debug_str:000000000003be64 .LASF4590
     /tmp/ccOWj8hl.s:99519  .debug_str:0000000000031c8a .LASF4591
     /tmp/ccOWj8hl.s:92051  .debug_str:0000000000013365 .LASF4592
     /tmp/ccOWj8hl.s:104081  .debug_str:000000000004439a .LASF4593
     /tmp/ccOWj8hl.s:90045  .debug_str:000000000000b782 .LASF4594
     /tmp/ccOWj8hl.s:97749  .debug_str:000000000002a677 .LASF4595
     /tmp/ccOWj8hl.s:89171  .debug_str:0000000000007ac5 .LASF4596
     /tmp/ccOWj8hl.s:103475  .debug_str:0000000000041d5d .LASF4597
     /tmp/ccOWj8hl.s:87383  .debug_str:000000000000019e .LASF4598
     /tmp/ccOWj8hl.s:97447  .debug_str:0000000000029338 .LASF4599
     /tmp/ccOWj8hl.s:92137  .debug_str:00000000000138eb .LASF4600
     /tmp/ccOWj8hl.s:104283  .debug_str:0000000000045146 .LASF4601
     /tmp/ccOWj8hl.s:98321  .debug_str:000000000002cb9c .LASF4602
     /tmp/ccOWj8hl.s:101939  .debug_str:000000000003b778 .LASF4603
     /tmp/ccOWj8hl.s:101211  .debug_str:000000000003854f .LASF4604
     /tmp/ccOWj8hl.s:100299  .debug_str:0000000000034fff .LASF4605
     /tmp/ccOWj8hl.s:95355  .debug_str:0000000000020d09 .LASF4606
     /tmp/ccOWj8hl.s:93117  .debug_str:0000000000017886 .LASF4607
     /tmp/ccOWj8hl.s:93789  .debug_str:000000000001a389 .LASF4608
     /tmp/ccOWj8hl.s:105975  .debug_str:000000000004c642 .LASF4609
     /tmp/ccOWj8hl.s:99685  .debug_str:0000000000032765 .LASF4610
     /tmp/ccOWj8hl.s:93043  .debug_str:000000000001737e .LASF4611
     /tmp/ccOWj8hl.s:95387  .debug_str:0000000000020e9a .LASF4612
     /tmp/ccOWj8hl.s:89915  .debug_str:000000000000adab .LASF4613
     /tmp/ccOWj8hl.s:103175  .debug_str:00000000000409d9 .LASF4614
     /tmp/ccOWj8hl.s:100555  .debug_str:0000000000035ee8 .LASF4615
     /tmp/ccOWj8hl.s:103769  .debug_str:0000000000042ff7 .LASF4616
     /tmp/ccOWj8hl.s:99641  .debug_str:000000000003240b .LASF4617
     /tmp/ccOWj8hl.s:100665  .debug_str:000000000003658d .LASF4618
     /tmp/ccOWj8hl.s:99989  .debug_str:0000000000033c50 .LASF4619
     /tmp/ccOWj8hl.s:95017  .debug_str:000000000001f6ce .LASF4620
     /tmp/ccOWj8hl.s:99013  .debug_str:000000000002f9cc .LASF4621
     /tmp/ccOWj8hl.s:97579  .debug_str:0000000000029bb3 .LASF4622
     /tmp/ccOWj8hl.s:94833  .debug_str:000000000001e8a8 .LASF4623
     /tmp/ccOWj8hl.s:97103  .debug_str:0000000000027ca8 .LASF4624
     /tmp/ccOWj8hl.s:91625  .debug_str:00000000000117e7 .LASF4625
     /tmp/ccOWj8hl.s:103601  .debug_str:000000000004250c .LASF4626
     /tmp/ccOWj8hl.s:91189  .debug_str:000000000000fb83 .LASF4627
     /tmp/ccOWj8hl.s:93951  .debug_str:000000000001ad82 .LASF4628
     /tmp/ccOWj8hl.s:102849  .debug_str:000000000003f3c8 .LASF4629
     /tmp/ccOWj8hl.s:100851  .debug_str:0000000000036f04 .LASF4630
     /tmp/ccOWj8hl.s:105745  .debug_str:000000000004b6e5 .LASF4631
     /tmp/ccOWj8hl.s:98781  .debug_str:000000000002eb64 .LASF4632
     /tmp/ccOWj8hl.s:103755  .debug_str:0000000000042eea .LASF4633
     /tmp/ccOWj8hl.s:90717  .debug_str:000000000000e13a .LASF4634
     /tmp/ccOWj8hl.s:92985  .debug_str:0000000000016fca .LASF4635
     /tmp/ccOWj8hl.s:100141  .debug_str:00000000000345c3 .LASF4636
     /tmp/ccOWj8hl.s:97561  .debug_str:0000000000029a82 .LASF4637
     /tmp/ccOWj8hl.s:98481  .debug_str:000000000002d728 .LASF4638
     /tmp/ccOWj8hl.s:90525  .debug_str:000000000000d62e .LASF4639
     /tmp/ccOWj8hl.s:99649  .debug_str:000000000003248c .LASF4640
     /tmp/ccOWj8hl.s:101853  .debug_str:000000000003b139 .LASF4641
     /tmp/ccOWj8hl.s:104583  .debug_str:00000000000465b0 .LASF4642
     /tmp/ccOWj8hl.s:92585  .debug_str:00000000000154a5 .LASF4643
     /tmp/ccOWj8hl.s:93907  .debug_str:000000000001ab00 .LASF4644
     /tmp/ccOWj8hl.s:91783  .debug_str:000000000001223e .LASF4645
     /tmp/ccOWj8hl.s:90805  .debug_str:000000000000e520 .LASF4646
     /tmp/ccOWj8hl.s:87643  .debug_str:00000000000012ff .LASF4647
     /tmp/ccOWj8hl.s:94825  .debug_str:000000000001e809 .LASF4648
     /tmp/ccOWj8hl.s:104573  .debug_str:0000000000046516 .LASF4649
     /tmp/ccOWj8hl.s:104259  .debug_str:0000000000044fd8 .LASF4650
     /tmp/ccOWj8hl.s:102111  .debug_str:000000000003c217 .LASF4651
     /tmp/ccOWj8hl.s:93319  .debug_str:00000000000184e1 .LASF4652
     /tmp/ccOWj8hl.s:95961  .debug_str:00000000000235ca .LASF4653
     /tmp/ccOWj8hl.s:104643  .debug_str:0000000000046956 .LASF4654
     /tmp/ccOWj8hl.s:92607  .debug_str:000000000001563b .LASF4655
     /tmp/ccOWj8hl.s:93115  .debug_str:0000000000017854 .LASF4656
     /tmp/ccOWj8hl.s:90339  .debug_str:000000000000caa9 .LASF4657
     /tmp/ccOWj8hl.s:105393  .debug_str:0000000000049d61 .LASF4658
     /tmp/ccOWj8hl.s:101649  .debug_str:000000000003a310 .LASF4659
     /tmp/ccOWj8hl.s:97843  .debug_str:000000000002ac95 .LASF4660
     /tmp/ccOWj8hl.s:105579  .debug_str:000000000004abd4 .LASF4661
     /tmp/ccOWj8hl.s:96395  .debug_str:0000000000024d5b .LASF4662
     /tmp/ccOWj8hl.s:103223  .debug_str:0000000000040d21 .LASF4663
     /tmp/ccOWj8hl.s:102829  .debug_str:000000000003f25d .LASF4664
     /tmp/ccOWj8hl.s:103751  .debug_str:0000000000042e81 .LASF4665
     /tmp/ccOWj8hl.s:101625  .debug_str:000000000003a1a0 .LASF4666
     /tmp/ccOWj8hl.s:91901  .debug_str:0000000000012aad .LASF4667
     /tmp/ccOWj8hl.s:89629  .debug_str:0000000000009a21 .LASF4668
     /tmp/ccOWj8hl.s:92647  .debug_str:0000000000015894 .LASF4669
     /tmp/ccOWj8hl.s:91607  .debug_str:000000000001169b .LASF4670
     /tmp/ccOWj8hl.s:96753  .debug_str:0000000000026593 .LASF4671
     /tmp/ccOWj8hl.s:89621  .debug_str:00000000000099a1 .LASF4672
     /tmp/ccOWj8hl.s:88799  .debug_str:0000000000006281 .LASF4673
     /tmp/ccOWj8hl.s:105275  .debug_str:000000000004955a .LASF4674
     /tmp/ccOWj8hl.s:91055  .debug_str:000000000000f44c .LASF4675
     /tmp/ccOWj8hl.s:95445  .debug_str:00000000000212dd .LASF4676
     /tmp/ccOWj8hl.s:98351  .debug_str:000000000002cdd8 .LASF4677
     /tmp/ccOWj8hl.s:97799  .debug_str:000000000002aa22 .LASF4678
     /tmp/ccOWj8hl.s:95447  .debug_str:000000000002130a .LASF4679
     /tmp/ccOWj8hl.s:94159  .debug_str:000000000001ba75 .LASF4680
     /tmp/ccOWj8hl.s:89481  .debug_str:0000000000008fe8 .LASF4681
     /tmp/ccOWj8hl.s:95763  .debug_str:000000000002281f .LASF4682
     /tmp/ccOWj8hl.s:87589  .debug_str:0000000000000f55 .LASF4683
     /tmp/ccOWj8hl.s:98829  .debug_str:000000000002ee5c .LASF4684
     /tmp/ccOWj8hl.s:92015  .debug_str:0000000000013173 .LASF4685
     /tmp/ccOWj8hl.s:94615  .debug_str:000000000001d90a .LASF4686
     /tmp/ccOWj8hl.s:100105  .debug_str:000000000003437c .LASF4687
     /tmp/ccOWj8hl.s:90981  .debug_str:000000000000efc8 .LASF4688
     /tmp/ccOWj8hl.s:96915  .debug_str:000000000002705d .LASF4689
     /tmp/ccOWj8hl.s:102611  .debug_str:000000000003e32f .LASF4690
     /tmp/ccOWj8hl.s:101743  .debug_str:000000000003a9ca .LASF4691
     /tmp/ccOWj8hl.s:95589  .debug_str:0000000000021cbe .LASF4692
     /tmp/ccOWj8hl.s:101547  .debug_str:0000000000039c85 .LASF4693
     /tmp/ccOWj8hl.s:103675  .debug_str:0000000000042971 .LASF4694
     /tmp/ccOWj8hl.s:95751  .debug_str:000000000002276a .LASF4695
     /tmp/ccOWj8hl.s:90413  .debug_str:000000000000cfa4 .LASF4696
     /tmp/ccOWj8hl.s:88943  .debug_str:0000000000006ce2 .LASF4697
     /tmp/ccOWj8hl.s:102015  .debug_str:000000000003bc43 .LASF4698
     /tmp/ccOWj8hl.s:95657  .debug_str:000000000002214e .LASF4699
     /tmp/ccOWj8hl.s:87453  .debug_str:0000000000000674 .LASF4700
     /tmp/ccOWj8hl.s:92211  .debug_str:0000000000013d4e .LASF4701
     /tmp/ccOWj8hl.s:102709  .debug_str:000000000003eaa2 .LASF4702
     /tmp/ccOWj8hl.s:93123  .debug_str:00000000000178e5 .LASF4703
     /tmp/ccOWj8hl.s:88173  .debug_str:00000000000037f8 .LASF4704
     /tmp/ccOWj8hl.s:103451  .debug_str:0000000000041bdc .LASF4705
     /tmp/ccOWj8hl.s:101087  .debug_str:0000000000037cd4 .LASF4706
     /tmp/ccOWj8hl.s:94669  .debug_str:000000000001dd4d .LASF4707
     /tmp/ccOWj8hl.s:101601  .debug_str:000000000003a01e .LASF4708
     /tmp/ccOWj8hl.s:101785  .debug_str:000000000003ac69 .LASF4709
     /tmp/ccOWj8hl.s:91937  .debug_str:0000000000012c8e .LASF4710
     /tmp/ccOWj8hl.s:101475  .debug_str:0000000000039726 .LASF4711
     /tmp/ccOWj8hl.s:89159  .debug_str:0000000000007a27 .LASF4712
     /tmp/ccOWj8hl.s:88513  .debug_str:0000000000004f4e .LASF4713
     /tmp/ccOWj8hl.s:98059  .debug_str:000000000002b9c7 .LASF4714
     /tmp/ccOWj8hl.s:89727  .debug_str:000000000000a0e3 .LASF4715
     /tmp/ccOWj8hl.s:91475  .debug_str:0000000000010d0e .LASF4716
     /tmp/ccOWj8hl.s:102465  .debug_str:000000000003d854 .LASF4717
     /tmp/ccOWj8hl.s:87625  .debug_str:00000000000011c9 .LASF4718
     /tmp/ccOWj8hl.s:98553  .debug_str:000000000002db92 .LASF4719
     /tmp/ccOWj8hl.s:91291  .debug_str:0000000000010171 .LASF4720
     /tmp/ccOWj8hl.s:89019  .debug_str:00000000000071c9 .LASF4721
     /tmp/ccOWj8hl.s:99865  .debug_str:00000000000333fb .LASF4722
     /tmp/ccOWj8hl.s:101433  .debug_str:0000000000039430 .LASF4723
     /tmp/ccOWj8hl.s:89471  .debug_str:0000000000008f6e .LASF4724
     /tmp/ccOWj8hl.s:96375  .debug_str:0000000000024bf9 .LASF4725
     /tmp/ccOWj8hl.s:96531  .debug_str:00000000000256d8 .LASF4726
     /tmp/ccOWj8hl.s:98135  .debug_str:000000000002bf12 .LASF4727
     /tmp/ccOWj8hl.s:91847  .debug_str:000000000001274f .LASF4728
     /tmp/ccOWj8hl.s:96379  .debug_str:0000000000024c35 .LASF4729
     /tmp/ccOWj8hl.s:89063  .debug_str:0000000000007477 .LASF4730
     /tmp/ccOWj8hl.s:105717  .debug_str:000000000004b521 .LASF4731
     /tmp/ccOWj8hl.s:90377  .debug_str:000000000000cd21 .LASF4732
     /tmp/ccOWj8hl.s:100591  .debug_str:0000000000036171 .LASF4733
     /tmp/ccOWj8hl.s:94473  .debug_str:000000000001cfdf .LASF4734
     /tmp/ccOWj8hl.s:102761  .debug_str:000000000003ed9d .LASF4735
     /tmp/ccOWj8hl.s:95389  .debug_str:0000000000020ed2 .LASF4736
     /tmp/ccOWj8hl.s:90241  .debug_str:000000000000c4a3 .LASF4737
     /tmp/ccOWj8hl.s:88123  .debug_str:0000000000003411 .LASF4738
     /tmp/ccOWj8hl.s:101845  .debug_str:000000000003b076 .LASF4739
     /tmp/ccOWj8hl.s:91889  .debug_str:0000000000012a03 .LASF4740
     /tmp/ccOWj8hl.s:96653  .debug_str:0000000000025ed5 .LASF4741
     /tmp/ccOWj8hl.s:101217  .debug_str:00000000000385cb .LASF4742
     /tmp/ccOWj8hl.s:90207  .debug_str:000000000000c21c .LASF4743
     /tmp/ccOWj8hl.s:93109  .debug_str:00000000000177e9 .LASF4744
     /tmp/ccOWj8hl.s:99573  .debug_str:0000000000032001 .LASF4745
     /tmp/ccOWj8hl.s:97853  .debug_str:000000000002ad4c .LASF4746
     /tmp/ccOWj8hl.s:93011  .debug_str:0000000000017164 .LASF4747
     /tmp/ccOWj8hl.s:96967  .debug_str:00000000000273c5 .LASF4748
     /tmp/ccOWj8hl.s:104689  .debug_str:0000000000046c17 .LASF4749
     /tmp/ccOWj8hl.s:104635  .debug_str:00000000000468b2 .LASF4750
     /tmp/ccOWj8hl.s:95245  .debug_str:0000000000020630 .LASF4751
     /tmp/ccOWj8hl.s:101755  .debug_str:000000000003aa74 .LASF4752
     /tmp/ccOWj8hl.s:96509  .debug_str:0000000000025562 .LASF4753
     /tmp/ccOWj8hl.s:104877  .debug_str:000000000004791e .LASF4754
     /tmp/ccOWj8hl.s:94281  .debug_str:000000000001c237 .LASF4755
     /tmp/ccOWj8hl.s:95867  .debug_str:0000000000022fd5 .LASF4756
     /tmp/ccOWj8hl.s:100513  .debug_str:0000000000035cfb .LASF4757
     /tmp/ccOWj8hl.s:93323  .debug_str:0000000000018550 .LASF4758
     /tmp/ccOWj8hl.s:91865  .debug_str:0000000000012837 .LASF4759
     /tmp/ccOWj8hl.s:96151  .debug_str:0000000000024026 .LASF4760
     /tmp/ccOWj8hl.s:87639  .debug_str:00000000000012af .LASF4761
     /tmp/ccOWj8hl.s:102819  .debug_str:000000000003f1a5 .LASF4762
     /tmp/ccOWj8hl.s:101693  .debug_str:000000000003a65e .LASF4763
     /tmp/ccOWj8hl.s:93373  .debug_str:00000000000188a8 .LASF4764
     /tmp/ccOWj8hl.s:94127  .debug_str:000000000001b865 .LASF4765
     /tmp/ccOWj8hl.s:96613  .debug_str:0000000000025bd7 .LASF4766
     /tmp/ccOWj8hl.s:100251  .debug_str:0000000000034d11 .LASF4767
     /tmp/ccOWj8hl.s:87473  .debug_str:00000000000007a5 .LASF4768
     /tmp/ccOWj8hl.s:94995  .debug_str:000000000001f57b .LASF4769
     /tmp/ccOWj8hl.s:91179  .debug_str:000000000000fab5 .LASF4770
     /tmp/ccOWj8hl.s:103297  .debug_str:0000000000041199 .LASF4771
     /tmp/ccOWj8hl.s:91615  .debug_str:000000000001171b .LASF4772
     /tmp/ccOWj8hl.s:99807  .debug_str:0000000000032fce .LASF4773
     /tmp/ccOWj8hl.s:93779  .debug_str:000000000001a2ea .LASF4774
     /tmp/ccOWj8hl.s:95833  .debug_str:0000000000022d76 .LASF4775
     /tmp/ccOWj8hl.s:102553  .debug_str:000000000003def0 .LASF4776
     /tmp/ccOWj8hl.s:87541  .debug_str:0000000000000be3 .LASF4777
     /tmp/ccOWj8hl.s:93487  .debug_str:0000000000019073 .LASF4778
     /tmp/ccOWj8hl.s:95439  .debug_str:000000000002124b .LASF4779
     /tmp/ccOWj8hl.s:92661  .debug_str:0000000000015967 .LASF4780
     /tmp/ccOWj8hl.s:100317  .debug_str:00000000000350fe .LASF4781
     /tmp/ccOWj8hl.s:104857  .debug_str:00000000000477e0 .LASF4782
     /tmp/ccOWj8hl.s:100195  .debug_str:00000000000348ed .LASF4783
     /tmp/ccOWj8hl.s:94161  .debug_str:000000000001ba9d .LASF4784
     /tmp/ccOWj8hl.s:94419  .debug_str:000000000001cc29 .LASF4785
     /tmp/ccOWj8hl.s:96493  .debug_str:0000000000025477 .LASF4786
     /tmp/ccOWj8hl.s:102021  .debug_str:000000000003bcaa .LASF4787
     /tmp/ccOWj8hl.s:88583  .debug_str:00000000000054c1 .LASF4788
     /tmp/ccOWj8hl.s:101043  .debug_str:0000000000037953 .LASF4789
     /tmp/ccOWj8hl.s:99511  .debug_str:0000000000031bd5 .LASF4790
     /tmp/ccOWj8hl.s:100485  .debug_str:0000000000035b52 .LASF4791
     /tmp/ccOWj8hl.s:104085  .debug_str:00000000000443e5 .LASF4792
     /tmp/ccOWj8hl.s:94521  .debug_str:000000000001d330 .LASF4793
     /tmp/ccOWj8hl.s:101871  .debug_str:000000000003b252 .LASF4794
     /tmp/ccOWj8hl.s:96085  .debug_str:0000000000023c6f .LASF4795
     /tmp/ccOWj8hl.s:90405  .debug_str:000000000000cf11 .LASF4796
     /tmp/ccOWj8hl.s:91193  .debug_str:000000000000fbbc .LASF4797
     /tmp/ccOWj8hl.s:96219  .debug_str:000000000002432c .LASF4798
     /tmp/ccOWj8hl.s:87969  .debug_str:00000000000029f3 .LASF4799
     /tmp/ccOWj8hl.s:98207  .debug_str:000000000002c407 .LASF4800
     /tmp/ccOWj8hl.s:95613  .debug_str:0000000000021e0c .LASF4801
     /tmp/ccOWj8hl.s:97555  .debug_str:0000000000029a20 .LASF4802
     /tmp/ccOWj8hl.s:88139  .debug_str:0000000000003524 .LASF4803
     /tmp/ccOWj8hl.s:89687  .debug_str:0000000000009da3 .LASF4804
     /tmp/ccOWj8hl.s:101155  .debug_str:0000000000038180 .LASF4805
     /tmp/ccOWj8hl.s:88935  .debug_str:0000000000006c41 .LASF4806
     /tmp/ccOWj8hl.s:89821  .debug_str:000000000000a706 .LASF4807
     /tmp/ccOWj8hl.s:99419  .debug_str:00000000000315a7 .LASF4808
     /tmp/ccOWj8hl.s:105075  .debug_str:000000000004871d .LASF4809
     /tmp/ccOWj8hl.s:105959  .debug_str:000000000004c52b .LASF4810
     /tmp/ccOWj8hl.s:103157  .debug_str:00000000000408ce .LASF4811
     /tmp/ccOWj8hl.s:89547  .debug_str:000000000000952b .LASF4812
     /tmp/ccOWj8hl.s:99583  .debug_str:000000000003208a .LASF4813
     /tmp/ccOWj8hl.s:101207  .debug_str:0000000000038508 .LASF4814
     /tmp/ccOWj8hl.s:104695  .debug_str:0000000000046c8f .LASF4815
     /tmp/ccOWj8hl.s:91227  .debug_str:000000000000fdc5 .LASF4816
     /tmp/ccOWj8hl.s:88263  .debug_str:0000000000003e35 .LASF4817
     /tmp/ccOWj8hl.s:101045  .debug_str:0000000000037987 .LASF4818
     /tmp/ccOWj8hl.s:99785  .debug_str:0000000000032e4f .LASF4819
     /tmp/ccOWj8hl.s:99097  .debug_str:000000000002fedb .LASF4820
     /tmp/ccOWj8hl.s:98527  .debug_str:000000000002da14 .LASF4821
     /tmp/ccOWj8hl.s:90533  .debug_str:000000000000d6a5 .LASF4822
     /tmp/ccOWj8hl.s:94721  .debug_str:000000000001e124 .LASF4823
     /tmp/ccOWj8hl.s:97025  .debug_str:000000000002783e .LASF4824
     /tmp/ccOWj8hl.s:104569  .debug_str:00000000000464d9 .LASF4825
     /tmp/ccOWj8hl.s:103673  .debug_str:000000000004294d .LASF4826
     /tmp/ccOWj8hl.s:100411  .debug_str:00000000000356ae .LASF4827
     /tmp/ccOWj8hl.s:104309  .debug_str:00000000000452ee .LASF4828
     /tmp/ccOWj8hl.s:93129  .debug_str:0000000000017979 .LASF4829
     /tmp/ccOWj8hl.s:104779  .debug_str:00000000000471bf .LASF4830
     /tmp/ccOWj8hl.s:87737  .debug_str:0000000000001983 .LASF4831
     /tmp/ccOWj8hl.s:92087  .debug_str:00000000000135c0 .LASF4832
     /tmp/ccOWj8hl.s:103003  .debug_str:000000000003fd67 .LASF4833
     /tmp/ccOWj8hl.s:88475  .debug_str:0000000000004d38 .LASF4834
     /tmp/ccOWj8hl.s:95617  .debug_str:0000000000021e61 .LASF4835
     /tmp/ccOWj8hl.s:100729  .debug_str:0000000000036827 .LASF4836
     /tmp/ccOWj8hl.s:99359  .debug_str:0000000000031190 .LASF4837
     /tmp/ccOWj8hl.s:105055  .debug_str:00000000000485e3 .LASF4838
     /tmp/ccOWj8hl.s:95755  .debug_str:00000000000227ad .LASF4839
     /tmp/ccOWj8hl.s:92941  .debug_str:0000000000016d3a .LASF4840
     /tmp/ccOWj8hl.s:104323  .debug_str:00000000000453e7 .LASF4841
     /tmp/ccOWj8hl.s:94621  .debug_str:000000000001d992 .LASF4842
     /tmp/ccOWj8hl.s:89405  .debug_str:0000000000008adf .LASF4843
     /tmp/ccOWj8hl.s:102555  .debug_str:000000000003df24 .LASF4844
     /tmp/ccOWj8hl.s:97567  .debug_str:0000000000029ae8 .LASF4845
     /tmp/ccOWj8hl.s:95533  .debug_str:0000000000021913 .LASF4846
     /tmp/ccOWj8hl.s:88499  .debug_str:0000000000004e60 .LASF4847
     /tmp/ccOWj8hl.s:88295  .debug_str:00000000000040e0 .LASF4848
     /tmp/ccOWj8hl.s:99355  .debug_str:0000000000031160 .LASF4849
     /tmp/ccOWj8hl.s:94147  .debug_str:000000000001b9b8 .LASF4850
     /tmp/ccOWj8hl.s:105829  .debug_str:000000000004bbde .LASF4851
     /tmp/ccOWj8hl.s:89091  .debug_str:0000000000007646 .LASF4852
     /tmp/ccOWj8hl.s:104141  .debug_str:0000000000044846 .LASF4853
     /tmp/ccOWj8hl.s:99995  .debug_str:0000000000033ca7 .LASF4854
     /tmp/ccOWj8hl.s:95325  .debug_str:0000000000020a93 .LASF4855
     /tmp/ccOWj8hl.s:101807  .debug_str:000000000003ae10 .LASF4856
     /tmp/ccOWj8hl.s:103765  .debug_str:0000000000042fb9 .LASF4857
     /tmp/ccOWj8hl.s:94329  .debug_str:000000000001c588 .LASF4858
     /tmp/ccOWj8hl.s:104369  .debug_str:00000000000456ab .LASF4859
     /tmp/ccOWj8hl.s:105963  .debug_str:000000000004c59e .LASF4860
     /tmp/ccOWj8hl.s:87697  .debug_str:0000000000001692 .LASF4861
     /tmp/ccOWj8hl.s:105255  .debug_str:00000000000493e1 .LASF4862
     /tmp/ccOWj8hl.s:93709  .debug_str:0000000000019f27 .LASF4863
     /tmp/ccOWj8hl.s:104193  .debug_str:0000000000044b8d .LASF4864
     /tmp/ccOWj8hl.s:97879  .debug_str:000000000002af29 .LASF4865
     /tmp/ccOWj8hl.s:90495  .debug_str:000000000000d427 .LASF4866
     /tmp/ccOWj8hl.s:89603  .debug_str:0000000000009851 .LASF4867
     /tmp/ccOWj8hl.s:95229  .debug_str:00000000000204fe .LASF4868
     /tmp/ccOWj8hl.s:101359  .debug_str:0000000000038f37 .LASF4869
     /tmp/ccOWj8hl.s:100051  .debug_str:0000000000034046 .LASF4870
     /tmp/ccOWj8hl.s:94391  .debug_str:000000000001ca15 .LASF4871
     /tmp/ccOWj8hl.s:100173  .debug_str:00000000000347f8 .LASF4872
     /tmp/ccOWj8hl.s:92571  .debug_str:0000000000015417 .LASF4873
     /tmp/ccOWj8hl.s:98031  .debug_str:000000000002b7c7 .LASF4874
     /tmp/ccOWj8hl.s:98363  .debug_str:000000000002ceba .LASF4875
     /tmp/ccOWj8hl.s:98801  .debug_str:000000000002ec94 .LASF4876
     /tmp/ccOWj8hl.s:97519  .debug_str:0000000000029722 .LASF4877
     /tmp/ccOWj8hl.s:102129  .debug_str:000000000003c320 .LASF4878
     /tmp/ccOWj8hl.s:88519  .debug_str:0000000000004fa3 .LASF4879
     /tmp/ccOWj8hl.s:91347  .debug_str:00000000000104c2 .LASF4880
     /tmp/ccOWj8hl.s:90511  .debug_str:000000000000d509 .LASF4881
     /tmp/ccOWj8hl.s:91821  .debug_str:00000000000124ca .LASF4882
     /tmp/ccOWj8hl.s:89319  .debug_str:0000000000008547 .LASF4883
     /tmp/ccOWj8hl.s:102883  .debug_str:000000000003f623 .LASF4884
     /tmp/ccOWj8hl.s:87755  .debug_str:0000000000001af2 .LASF4885
     /tmp/ccOWj8hl.s:91539  .debug_str:000000000001117b .LASF4886
     /tmp/ccOWj8hl.s:97241  .debug_str:0000000000028619 .LASF4887
     /tmp/ccOWj8hl.s:95349  .debug_str:0000000000020c87 .LASF4888
     /tmp/ccOWj8hl.s:96341  .debug_str:00000000000249ea .LASF4889
     /tmp/ccOWj8hl.s:99283  .debug_str:0000000000030c7f .LASF4890
     /tmp/ccOWj8hl.s:93515  .debug_str:0000000000019234 .LASF4891
     /tmp/ccOWj8hl.s:97653  .debug_str:0000000000029fdc .LASF4892
     /tmp/ccOWj8hl.s:104567  .debug_str:00000000000464b5 .LASF4893
     /tmp/ccOWj8hl.s:99587  .debug_str:00000000000320e6 .LASF4894
     /tmp/ccOWj8hl.s:98461  .debug_str:000000000002d587 .LASF4895
     /tmp/ccOWj8hl.s:98699  .debug_str:000000000002e548 .LASF4896
     /tmp/ccOWj8hl.s:90667  .debug_str:000000000000de64 .LASF4897
     /tmp/ccOWj8hl.s:104837  .debug_str:00000000000475fb .LASF4898
     /tmp/ccOWj8hl.s:94677  .debug_str:000000000001ddf1 .LASF4899
     /tmp/ccOWj8hl.s:96809  .debug_str:00000000000268da .LASF4900
     /tmp/ccOWj8hl.s:100161  .debug_str:000000000003473d .LASF4901
     /tmp/ccOWj8hl.s:96387  .debug_str:0000000000024cd1 .LASF4902
     /tmp/ccOWj8hl.s:90153  .debug_str:000000000000be33 .LASF4903
     /tmp/ccOWj8hl.s:99369  .debug_str:000000000003124d .LASF4904
     /tmp/ccOWj8hl.s:99167  .debug_str:0000000000030479 .LASF4905
     /tmp/ccOWj8hl.s:93959  .debug_str:000000000001ae1e .LASF4906
     /tmp/ccOWj8hl.s:95629  .debug_str:0000000000021f6c .LASF4907
     /tmp/ccOWj8hl.s:104853  .debug_str:000000000004778c .LASF4908
     /tmp/ccOWj8hl.s:102011  .debug_str:000000000003bbf6 .LASF4909
     /tmp/ccOWj8hl.s:96755  .debug_str:00000000000265c3 .LASF4910
     /tmp/ccOWj8hl.s:105493  .debug_str:000000000004a5d9 .LASF4911
     /tmp/ccOWj8hl.s:101945  .debug_str:000000000003b7ec .LASF4912
     /tmp/ccOWj8hl.s:88661  .debug_str:00000000000059c8 .LASF4913
     /tmp/ccOWj8hl.s:92507  .debug_str:0000000000015065 .LASF4914
     /tmp/ccOWj8hl.s:97571  .debug_str:0000000000029b49 .LASF4915
     /tmp/ccOWj8hl.s:88491  .debug_str:0000000000004dea .LASF4916
     /tmp/ccOWj8hl.s:95217  .debug_str:000000000002041e .LASF4917
     /tmp/ccOWj8hl.s:93325  .debug_str:0000000000018581 .LASF4918
     /tmp/ccOWj8hl.s:91603  .debug_str:000000000001164b .LASF4919
     /tmp/ccOWj8hl.s:95805  .debug_str:0000000000022b42 .LASF4920
     /tmp/ccOWj8hl.s:98083  .debug_str:000000000002bb6d .LASF4921
     /tmp/ccOWj8hl.s:104849  .debug_str:000000000004771a .LASF4922
     /tmp/ccOWj8hl.s:102885  .debug_str:000000000003f649 .LASF4923
     /tmp/ccOWj8hl.s:89773  .debug_str:000000000000a3d6 .LASF4924
     /tmp/ccOWj8hl.s:97143  .debug_str:0000000000027f50 .LASF4925
     /tmp/ccOWj8hl.s:104683  .debug_str:0000000000046bc1 .LASF4926
     /tmp/ccOWj8hl.s:95401  .debug_str:0000000000020fb2 .LASF4927
     /tmp/ccOWj8hl.s:92667  .debug_str:00000000000159cf .LASF4928
     /tmp/ccOWj8hl.s:91733  .debug_str:0000000000011ef7 .LASF4929
     /tmp/ccOWj8hl.s:100937  .debug_str:00000000000373cd .LASF4930
     /tmp/ccOWj8hl.s:103553  .debug_str:0000000000042223 .LASF4931
     /tmp/ccOWj8hl.s:88899  .debug_str:00000000000069ef .LASF4932
     /tmp/ccOWj8hl.s:101399  .debug_str:0000000000039185 .LASF4933
     /tmp/ccOWj8hl.s:103905  .debug_str:0000000000043850 .LASF4934
     /tmp/ccOWj8hl.s:99729  .debug_str:0000000000032a49 .LASF4935
     /tmp/ccOWj8hl.s:92001  .debug_str:0000000000013089 .LASF4936
     /tmp/ccOWj8hl.s:89543  .debug_str:00000000000094e8 .LASF4937
     /tmp/ccOWj8hl.s:103903  .debug_str:0000000000043829 .LASF4938
     /tmp/ccOWj8hl.s:102435  .debug_str:000000000003d6c6 .LASF4939
     /tmp/ccOWj8hl.s:99149  .debug_str:00000000000302c1 .LASF4940
     /tmp/ccOWj8hl.s:89595  .debug_str:00000000000097c1 .LASF4941
     /tmp/ccOWj8hl.s:98543  .debug_str:000000000002daf7 .LASF4942
     /tmp/ccOWj8hl.s:101941  .debug_str:000000000003b7ae .LASF4943
     /tmp/ccOWj8hl.s:92053  .debug_str:000000000001338b .LASF4944
     /tmp/ccOWj8hl.s:100853  .debug_str:0000000000036f2b .LASF4945
     /tmp/ccOWj8hl.s:91395  .debug_str:0000000000010873 .LASF4946
     /tmp/ccOWj8hl.s:95855  .debug_str:0000000000022f03 .LASF4947
     /tmp/ccOWj8hl.s:93821  .debug_str:000000000001a583 .LASF4948
     /tmp/ccOWj8hl.s:103901  .debug_str:00000000000437fb .LASF4949
     /tmp/ccOWj8hl.s:89235  .debug_str:0000000000007f59 .LASF4950
     /tmp/ccOWj8hl.s:90197  .debug_str:000000000000c14a .LASF4951
     /tmp/ccOWj8hl.s:90061  .debug_str:000000000000b87a .LASF4952
     /tmp/ccOWj8hl.s:104187  .debug_str:0000000000044b35 .LASF4953
     /tmp/ccOWj8hl.s:96121  .debug_str:0000000000023e77 .LASF4954
     /tmp/ccOWj8hl.s:95223  .debug_str:00000000000204a8 .LASF4955
     /tmp/ccOWj8hl.s:91583  .debug_str:00000000000114a6 .LASF4956
     /tmp/ccOWj8hl.s:101149  .debug_str:000000000003810f .LASF4957
     /tmp/ccOWj8hl.s:99431  .debug_str:000000000003168d .LASF4958
     /tmp/ccOWj8hl.s:101263  .debug_str:000000000003889b .LASF4959
     /tmp/ccOWj8hl.s:105485  .debug_str:000000000004a54a .LASF4960
     /tmp/ccOWj8hl.s:98837  .debug_str:000000000002eee2 .LASF4961
     /tmp/ccOWj8hl.s:89913  .debug_str:000000000000ad7b .LASF4962
     /tmp/ccOWj8hl.s:96345  .debug_str:0000000000024a34 .LASF4963
     /tmp/ccOWj8hl.s:103409  .debug_str:0000000000041936 .LASF4964
     /tmp/ccOWj8hl.s:104873  .debug_str:00000000000478e5 .LASF4965
     /tmp/ccOWj8hl.s:94849  .debug_str:000000000001ea32 .LASF4966
     /tmp/ccOWj8hl.s:102791  .debug_str:000000000003efd0 .LASF4967
     /tmp/ccOWj8hl.s:93045  .debug_str:00000000000173b6 .LASF4968
     /tmp/ccOWj8hl.s:100353  .debug_str:000000000003539a .LASF4969
     /tmp/ccOWj8hl.s:89989  .debug_str:000000000000b343 .LASF4970
     /tmp/ccOWj8hl.s:88909  .debug_str:0000000000006ab0 .LASF4971
     /tmp/ccOWj8hl.s:95247  .debug_str:000000000002065f .LASF4972
     /tmp/ccOWj8hl.s:89183  .debug_str:0000000000007bbb .LASF4973
     /tmp/ccOWj8hl.s:91719  .debug_str:0000000000011df8 .LASF4974
     /tmp/ccOWj8hl.s:100823  .debug_str:0000000000036d7e .LASF4975
     /tmp/ccOWj8hl.s:96195  .debug_str:00000000000241b6 .LASF4976
     /tmp/ccOWj8hl.s:101469  .debug_str:00000000000396ce .LASF4977
     /tmp/ccOWj8hl.s:97197  .debug_str:00000000000282f1 .LASF4978
     /tmp/ccOWj8hl.s:98901  .debug_str:000000000002f2b9 .LASF4979
     /tmp/ccOWj8hl.s:89525  .debug_str:0000000000009336 .LASF4980
     /tmp/ccOWj8hl.s:91753  .debug_str:000000000001204b .LASF4981
     /tmp/ccOWj8hl.s:97671  .debug_str:000000000002a169 .LASF4982
     /tmp/ccOWj8hl.s:103499  .debug_str:0000000000041eda .LASF4983
     /tmp/ccOWj8hl.s:90499  .debug_str:000000000000d45e .LASF4984
     /tmp/ccOWj8hl.s:96471  .debug_str:000000000002529b .LASF4985
     /tmp/ccOWj8hl.s:87617  .debug_str:0000000000001148 .LASF4986
     /tmp/ccOWj8hl.s:101203  .debug_str:00000000000384b2 .LASF4987
     /tmp/ccOWj8hl.s:90831  .debug_str:000000000000e728 .LASF4988
     /tmp/ccOWj8hl.s:89195  .debug_str:0000000000007c78 .LASF4989
     /tmp/ccOWj8hl.s:91813  .debug_str:000000000001243e .LASF4990
     /tmp/ccOWj8hl.s:93995  .debug_str:000000000001b031 .LASF4991
     /tmp/ccOWj8hl.s:94867  .debug_str:000000000001eba1 .LASF4992
     /tmp/ccOWj8hl.s:88167  .debug_str:0000000000003739 .LASF4993
     /tmp/ccOWj8hl.s:99639  .debug_str:00000000000323d5 .LASF4994
     /tmp/ccOWj8hl.s:104249  .debug_str:0000000000044f0b .LASF4995
     /tmp/ccOWj8hl.s:105529  .debug_str:000000000004a808 .LASF4996
     /tmp/ccOWj8hl.s:105105  .debug_str:0000000000048946 .LASF4997
     /tmp/ccOWj8hl.s:88279  .debug_str:0000000000003f5d .LASF4998
     /tmp/ccOWj8hl.s:88815  .debug_str:0000000000006398 .LASF4999
     /tmp/ccOWj8hl.s:101727  .debug_str:000000000003a8cc .LASF5000
     /tmp/ccOWj8hl.s:99189  .debug_str:00000000000305c1 .LASF5001
     /tmp/ccOWj8hl.s:97265  .debug_str:00000000000287d1 .LASF5002
     /tmp/ccOWj8hl.s:96013  .debug_str:00000000000238bb .LASF5003
     /tmp/ccOWj8hl.s:88107  .debug_str:000000000000330e .LASF5004
     /tmp/ccOWj8hl.s:91835  .debug_str:0000000000012612 .LASF5005
     /tmp/ccOWj8hl.s:97961  .debug_str:000000000002b3d6 .LASF5006
     /tmp/ccOWj8hl.s:96147  .debug_str:0000000000023fef .LASF5007
     /tmp/ccOWj8hl.s:92705  .debug_str:0000000000015cc3 .LASF5008
     /tmp/ccOWj8hl.s:92625  .debug_str:0000000000015794 .LASF5009
     /tmp/ccOWj8hl.s:104327  .debug_str:0000000000045425 .LASF5010
     /tmp/ccOWj8hl.s:97873  .debug_str:000000000002ae92 .LASF5011
     /tmp/ccOWj8hl.s:96743  .debug_str:00000000000264e0 .LASF5012
     /tmp/ccOWj8hl.s:91967  .debug_str:0000000000012e62 .LASF5013
     /tmp/ccOWj8hl.s:99739  .debug_str:0000000000032ac6 .LASF5014
     /tmp/ccOWj8hl.s:100815  .debug_str:0000000000036cf7 .LASF5015
     /tmp/ccOWj8hl.s:95959  .debug_str:000000000002359a .LASF5016
     /tmp/ccOWj8hl.s:101771  .debug_str:000000000003ab69 .LASF5017
     /tmp/ccOWj8hl.s:88809  .debug_str:0000000000006348 .LASF5018
     /tmp/ccOWj8hl.s:100581  .debug_str:00000000000360b5 .LASF5019
     /tmp/ccOWj8hl.s:88541  .debug_str:0000000000005135 .LASF5020
     /tmp/ccOWj8hl.s:94437  .debug_str:000000000001cd46 .LASF5021
     /tmp/ccOWj8hl.s:104205  .debug_str:0000000000044c5a .LASF5022
     /tmp/ccOWj8hl.s:101789  .debug_str:000000000003acb0 .LASF5023
     /tmp/ccOWj8hl.s:94051  .debug_str:000000000001b33d .LASF5024
     /tmp/ccOWj8hl.s:92689  .debug_str:0000000000015b60 .LASF5025
     /tmp/ccOWj8hl.s:100249  .debug_str:0000000000034cd8 .LASF5026
     /tmp/ccOWj8hl.s:104149  .debug_str:00000000000448c3 .LASF5027
     /tmp/ccOWj8hl.s:89953  .debug_str:000000000000b0a1 .LASF5028
     /tmp/ccOWj8hl.s:98629  .debug_str:000000000002e0fc .LASF5029
     /tmp/ccOWj8hl.s:87557  .debug_str:0000000000000d05 .LASF5030
     /tmp/ccOWj8hl.s:105095  .debug_str:000000000004889a .LASF5031
     /tmp/ccOWj8hl.s:91297  .debug_str:00000000000101d0 .LASF5032
     /tmp/ccOWj8hl.s:90031  .debug_str:000000000000b66e .LASF5033
     /tmp/ccOWj8hl.s:96617  .debug_str:0000000000025c0a .LASF5034
     /tmp/ccOWj8hl.s:92905  .debug_str:0000000000016a95 .LASF5035
     /tmp/ccOWj8hl.s:88409  .debug_str:000000000000485f .LASF5036
     /tmp/ccOWj8hl.s:88395  .debug_str:0000000000004760 .LASF5037
     /tmp/ccOWj8hl.s:94151  .debug_str:000000000001b9eb .LASF5038
     /tmp/ccOWj8hl.s:88989  .debug_str:0000000000006fa4 .LASF5039
     /tmp/ccOWj8hl.s:103683  .debug_str:0000000000042a04 .LASF5040
     /tmp/ccOWj8hl.s:94667  .debug_str:000000000001dd14 .LASF5041
     /tmp/ccOWj8hl.s:92359  .debug_str:000000000001465c .LASF5042
     /tmp/ccOWj8hl.s:97119  .debug_str:0000000000027dfc .LASF5043
     /tmp/ccOWj8hl.s:100111  .debug_str:00000000000343f1 .LASF5044
     /tmp/ccOWj8hl.s:101119  .debug_str:0000000000037ed9 .LASF5045
     /tmp/ccOWj8hl.s:104717  .debug_str:0000000000046dd2 .LASF5046
     /tmp/ccOWj8hl.s:103287  .debug_str:0000000000041100 .LASF5047
     /tmp/ccOWj8hl.s:105647  .debug_str:000000000004b08a .LASF5048
     /tmp/ccOWj8hl.s:94059  .debug_str:000000000001b3bf .LASF5049
     /tmp/ccOWj8hl.s:99859  .debug_str:000000000003336f .LASF5050
     /tmp/ccOWj8hl.s:104423  .debug_str:0000000000045aa3 .LASF5051
     /tmp/ccOWj8hl.s:105223  .debug_str:0000000000049126 .LASF5052
     /tmp/ccOWj8hl.s:94831  .debug_str:000000000001e873 .LASF5053
     /tmp/ccOWj8hl.s:100603  .debug_str:000000000003621d .LASF5054
     /tmp/ccOWj8hl.s:95749  .debug_str:000000000002273d .LASF5055
     /tmp/ccOWj8hl.s:94345  .debug_str:000000000001c6b6 .LASF5056
     /tmp/ccOWj8hl.s:104901  .debug_str:0000000000047ae9 .LASF5057
     /tmp/ccOWj8hl.s:105549  .debug_str:000000000004a9ad .LASF5058
     /tmp/ccOWj8hl.s:105499  .debug_str:000000000004a62b .LASF5059
     /tmp/ccOWj8hl.s:101393  .debug_str:00000000000390f2 .LASF5060
     /tmp/ccOWj8hl.s:96827  .debug_str:00000000000269f6 .LASF5061
     /tmp/ccOWj8hl.s:97257  .debug_str:00000000000286f7 .LASF5062
     /tmp/ccOWj8hl.s:105433  .debug_str:000000000004a0ed .LASF5063
     /tmp/ccOWj8hl.s:94183  .debug_str:000000000001bbf7 .LASF5064
     /tmp/ccOWj8hl.s:103323  .debug_str:00000000000413a3 .LASF5065
     /tmp/ccOWj8hl.s:95925  .debug_str:000000000002327a .LASF5066
     /tmp/ccOWj8hl.s:99767  .debug_str:0000000000032cda .LASF5067
     /tmp/ccOWj8hl.s:97581  .debug_str:0000000000029bda .LASF5068
     /tmp/ccOWj8hl.s:93299  .debug_str:0000000000018368 .LASF5069
     /tmp/ccOWj8hl.s:98243  .debug_str:000000000002c630 .LASF5070
     /tmp/ccOWj8hl.s:95537  .debug_str:0000000000021952 .LASF5071
     /tmp/ccOWj8hl.s:102281  .debug_str:000000000003cd82 .LASF5072
     /tmp/ccOWj8hl.s:101821  .debug_str:000000000003aef8 .LASF5073
     /tmp/ccOWj8hl.s:91303  .debug_str:0000000000010276 .LASF5074
     /tmp/ccOWj8hl.s:89983  .debug_str:000000000000b2d0 .LASF5075
     /tmp/ccOWj8hl.s:101543  .debug_str:0000000000039c4b .LASF5076
     /tmp/ccOWj8hl.s:92057  .debug_str:0000000000013401 .LASF5077
     /tmp/ccOWj8hl.s:98767  .debug_str:000000000002ea42 .LASF5078
     /tmp/ccOWj8hl.s:97385  .debug_str:0000000000028f12 .LASF5079
     /tmp/ccOWj8hl.s:101869  .debug_str:000000000003b230 .LASF5080
     /tmp/ccOWj8hl.s:100235  .debug_str:0000000000034bc1 .LASF5081
     /tmp/ccOWj8hl.s:100397  .debug_str:00000000000355ac .LASF5082
     /tmp/ccOWj8hl.s:97705  .debug_str:000000000002a3c9 .LASF5083
     /tmp/ccOWj8hl.s:103319  .debug_str:0000000000041365 .LASF5084
     /tmp/ccOWj8hl.s:103973  .debug_str:0000000000043cfd .LASF5085
     /tmp/ccOWj8hl.s:99297  .debug_str:0000000000030da4 .LASF5086
     /tmp/ccOWj8hl.s:90899  .debug_str:000000000000eaa0 .LASF5087
     /tmp/ccOWj8hl.s:102723  .debug_str:000000000003eb46 .LASF5088
     /tmp/ccOWj8hl.s:105213  .debug_str:0000000000049072 .LASF5089
     /tmp/ccOWj8hl.s:96427  .debug_str:0000000000024fb9 .LASF5090
     /tmp/ccOWj8hl.s:93261  .debug_str:0000000000018122 .LASF5091
     /tmp/ccOWj8hl.s:100911  .debug_str:0000000000037229 .LASF5092
     /tmp/ccOWj8hl.s:105167  .debug_str:0000000000048d41 .LASF5093
     /tmp/ccOWj8hl.s:98061  .debug_str:000000000002b9f5 .LASF5094
     /tmp/ccOWj8hl.s:90769  .debug_str:000000000000e32c .LASF5095
     /tmp/ccOWj8hl.s:96879  .debug_str:0000000000026dd1 .LASF5096
     /tmp/ccOWj8hl.s:105593  .debug_str:000000000004acee .LASF5097
     /tmp/ccOWj8hl.s:89075  .debug_str:0000000000007528 .LASF5098
     /tmp/ccOWj8hl.s:99051  .debug_str:000000000002fc09 .LASF5099
     /tmp/ccOWj8hl.s:88227  .debug_str:0000000000003b80 .LASF5100
     /tmp/ccOWj8hl.s:103365  .debug_str:0000000000041609 .LASF5101
     /tmp/ccOWj8hl.s:103019  .debug_str:000000000003fe71 .LASF5102
     /tmp/ccOWj8hl.s:103207  .debug_str:0000000000040be0 .LASF5103
     /tmp/ccOWj8hl.s:102495  .debug_str:000000000003da8f .LASF5104
     /tmp/ccOWj8hl.s:89501  .debug_str:000000000000914b .LASF5105
     /tmp/ccOWj8hl.s:105231  .debug_str:00000000000491ce .LASF5106
     /tmp/ccOWj8hl.s:93957  .debug_str:000000000001adf4 .LASF5107
     /tmp/ccOWj8hl.s:105477  .debug_str:000000000004a4aa .LASF5108
     /tmp/ccOWj8hl.s:100443  .debug_str:0000000000035955 .LASF5109
     /tmp/ccOWj8hl.s:96595  .debug_str:0000000000025a4a .LASF5110
     /tmp/ccOWj8hl.s:101419  .debug_str:00000000000392fe .LASF5111
     /tmp/ccOWj8hl.s:88259  .debug_str:0000000000003ddc .LASF5112
     /tmp/ccOWj8hl.s:102783  .debug_str:000000000003ef5c .LASF5113
     /tmp/ccOWj8hl.s:95133  .debug_str:000000000001fe2e .LASF5114
     /tmp/ccOWj8hl.s:94841  .debug_str:000000000001e984 .LASF5115
     /tmp/ccOWj8hl.s:91725  .debug_str:0000000000011e57 .LASF5116
     /tmp/ccOWj8hl.s:99201  .debug_str:000000000003069a .LASF5117
     /tmp/ccOWj8hl.s:103835  .debug_str:00000000000433b3 .LASF5118
     /tmp/ccOWj8hl.s:90401  .debug_str:000000000000ced0 .LASF5119
     /tmp/ccOWj8hl.s:100701  .debug_str:0000000000036778 .LASF5120
     /tmp/ccOWj8hl.s:99905  .debug_str:0000000000033666 .LASF5121
     /tmp/ccOWj8hl.s:93643  .debug_str:0000000000019b80 .LASF5122
     /tmp/ccOWj8hl.s:91033  .debug_str:000000000000f2e5 .LASF5123
     /tmp/ccOWj8hl.s:91845  .debug_str:0000000000012724 .LASF5124
     /tmp/ccOWj8hl.s:100403  .debug_str:000000000003563b .LASF5125
     /tmp/ccOWj8hl.s:90357  .debug_str:000000000000cbc9 .LASF5126
     /tmp/ccOWj8hl.s:91131  .debug_str:000000000000f81b .LASF5127
     /tmp/ccOWj8hl.s:95239  .debug_str:000000000002059d .LASF5128
     /tmp/ccOWj8hl.s:93091  .debug_str:00000000000176a2 .LASF5129
     /tmp/ccOWj8hl.s:93339  .debug_str:000000000001866a .LASF5130
     /tmp/ccOWj8hl.s:99929  .debug_str:000000000003384e .LASF5131
     /tmp/ccOWj8hl.s:103511  .debug_str:0000000000041f88 .LASF5132
     /tmp/ccOWj8hl.s:90211  .debug_str:000000000000c261 .LASF5133
     /tmp/ccOWj8hl.s:101891  .debug_str:000000000003b3f8 .LASF5134
     /tmp/ccOWj8hl.s:97067  .debug_str:0000000000027a30 .LASF5135
     /tmp/ccOWj8hl.s:88305  .debug_str:0000000000004199 .LASF5136
     /tmp/ccOWj8hl.s:104669  .debug_str:0000000000046b1a .LASF5137
     /tmp/ccOWj8hl.s:98271  .debug_str:000000000002c7fb .LASF5138
     /tmp/ccOWj8hl.s:104835  .debug_str:00000000000475cc .LASF5139
     /tmp/ccOWj8hl.s:88555  .debug_str:0000000000005254 .LASF5140
     /tmp/ccOWj8hl.s:95359  .debug_str:0000000000020d5e .LASF5141
     /tmp/ccOWj8hl.s:103617  .debug_str:000000000004261e .LASF5142
     /tmp/ccOWj8hl.s:95405  .debug_str:0000000000020ff3 .LASF5143
     /tmp/ccOWj8hl.s:99437  .debug_str:00000000000316e6 .LASF5144
     /tmp/ccOWj8hl.s:99799  .debug_str:0000000000032f53 .LASF5145
     /tmp/ccOWj8hl.s:90315  .debug_str:000000000000c947 .LASF5146
     /tmp/ccOWj8hl.s:105739  .debug_str:000000000004b673 .LASF5148
     /tmp/ccOWj8hl.s:90205  .debug_str:000000000000c1f8 .LASF5149
     /tmp/ccOWj8hl.s:95003  .debug_str:000000000001f5fe .LASF5150
     /tmp/ccOWj8hl.s:90329  .debug_str:000000000000ca0e .LASF5151
     /tmp/ccOWj8hl.s:97493  .debug_str:000000000002959d .LASF5152
     /tmp/ccOWj8hl.s:97943  .debug_str:000000000002b2e3 .LASF5153
     /tmp/ccOWj8hl.s:92259  .debug_str:0000000000013fbc .LASF5154
     /tmp/ccOWj8hl.s:91067  .debug_str:000000000000f4fa .LASF5155
     /tmp/ccOWj8hl.s:91295  .debug_str:00000000000101b3 .LASF5156
     /tmp/ccOWj8hl.s:102151  .debug_str:000000000003c4b2 .LASF5157
     /tmp/ccOWj8hl.s:98335  .debug_str:000000000002ccf8 .LASF5158
     /tmp/ccOWj8hl.s:89155  .debug_str:00000000000079f5 .LASF5159
     /tmp/ccOWj8hl.s:102123  .debug_str:000000000003c2aa .LASF5160
     /tmp/ccOWj8hl.s:94261  .debug_str:000000000001c0fc .LASF5161
     /tmp/ccOWj8hl.s:99961  .debug_str:0000000000033aa9 .LASF5162
     /tmp/ccOWj8hl.s:96941  .debug_str:0000000000027201 .LASF5163
     /tmp/ccOWj8hl.s:88889  .debug_str:0000000000006928 .LASF5164
     /tmp/ccOWj8hl.s:92885  .debug_str:0000000000016958 .LASF5165
     /tmp/ccOWj8hl.s:104099  .debug_str:0000000000044532 .LASF5166
     /tmp/ccOWj8hl.s:90123  .debug_str:000000000000bc38 .LASF5167
     /tmp/ccOWj8hl.s:87411  .debug_str:0000000000000369 .LASF5168
     /tmp/ccOWj8hl.s:94137  .debug_str:000000000001b8ff .LASF5169
     /tmp/ccOWj8hl.s:105333  .debug_str:00000000000498d3 .LASF5170
     /tmp/ccOWj8hl.s:101519  .debug_str:0000000000039aa8 .LASF5171
     /tmp/ccOWj8hl.s:102693  .debug_str:000000000003e99b .LASF5172
     /tmp/ccOWj8hl.s:94135  .debug_str:000000000001b8df .LASF5173
     /tmp/ccOWj8hl.s:88285  .debug_str:0000000000003fe9 .LASF5174
     /tmp/ccOWj8hl.s:94993  .debug_str:000000000001f553 .LASF5175
     /tmp/ccOWj8hl.s:100435  .debug_str:000000000003589c .LASF5176
     /tmp/ccOWj8hl.s:101345  .debug_str:0000000000038e5c .LASF5177
     /tmp/ccOWj8hl.s:91115  .debug_str:000000000000f711 .LASF5178
     /tmp/ccOWj8hl.s:89575  .debug_str:00000000000096f1 .LASF5179
     /tmp/ccOWj8hl.s:92337  .debug_str:00000000000144e9 .LASF5180
     /tmp/ccOWj8hl.s:102407  .debug_str:000000000003d507 .LASF5181
     /tmp/ccOWj8hl.s:99329  .debug_str:0000000000030f93 .LASF5182
     /tmp/ccOWj8hl.s:97741  .debug_str:000000000002a5f1 .LASF5183
     /tmp/ccOWj8hl.s:103011  .debug_str:000000000003fdec .LASF5184
     /tmp/ccOWj8hl.s:102079  .debug_str:000000000003c103 .LASF5185
     /tmp/ccOWj8hl.s:96877  .debug_str:0000000000026db5 .LASF5186
     /tmp/ccOWj8hl.s:92197  .debug_str:0000000000013cab .LASF5187
     /tmp/ccOWj8hl.s:91893  .debug_str:0000000000012a58 .LASF5188
     /tmp/ccOWj8hl.s:88431  .debug_str:0000000000004a33 .LASF5189
     /tmp/ccOWj8hl.s:97969  .debug_str:000000000002b468 .LASF5190
     /tmp/ccOWj8hl.s:99439  .debug_str:000000000003170a .LASF5191
     /tmp/ccOWj8hl.s:90521  .debug_str:000000000000d5f3 .LASF5192
     /tmp/ccOWj8hl.s:95587  .debug_str:0000000000021c8c .LASF5193
     /tmp/ccOWj8hl.s:97779  .debug_str:000000000002a883 .LASF5194
     /tmp/ccOWj8hl.s:102643  .debug_str:000000000003e5aa .LASF5195
     /tmp/ccOWj8hl.s:89485  .debug_str:0000000000009025 .LASF5196
     /tmp/ccOWj8hl.s:92725  .debug_str:0000000000015e6b .LASF5197
     /tmp/ccOWj8hl.s:95099  .debug_str:000000000001fbcd .LASF5198
     /tmp/ccOWj8hl.s:89329  .debug_str:00000000000085b4 .LASF5199
     /tmp/ccOWj8hl.s:105229  .debug_str:00000000000491ad .LASF5200
     /tmp/ccOWj8hl.s:100989  .debug_str:0000000000037689 .LASF5201
     /tmp/ccOWj8hl.s:93615  .debug_str:00000000000198ed .LASF5202
     /tmp/ccOWj8hl.s:100227  .debug_str:0000000000034b39 .LASF5203
     /tmp/ccOWj8hl.s:89403  .debug_str:0000000000008ac5 .LASF5204
     /tmp/ccOWj8hl.s:87369  .debug_str:0000000000000098 .LASF5205
     /tmp/ccOWj8hl.s:99349  .debug_str:00000000000310f4 .LASF5206
     /tmp/ccOWj8hl.s:91679  .debug_str:0000000000011b78 .LASF5207
     /tmp/ccOWj8hl.s:94901  .debug_str:000000000001edee .LASF5208
     /tmp/ccOWj8hl.s:96867  .debug_str:0000000000026cff .LASF5209
     /tmp/ccOWj8hl.s:101325  .debug_str:0000000000038d5f .LASF5210
     /tmp/ccOWj8hl.s:105039  .debug_str:00000000000484c0 .LASF5211
     /tmp/ccOWj8hl.s:98091  .debug_str:000000000002bbe2 .LASF5212
     /tmp/ccOWj8hl.s:88871  .debug_str:00000000000067a0 .LASF5213
     /tmp/ccOWj8hl.s:99599  .debug_str:00000000000321f3 .LASF5214
     /tmp/ccOWj8hl.s:90969  .debug_str:000000000000eef2 .LASF5215
     /tmp/ccOWj8hl.s:104855  .debug_str:00000000000477b5 .LASF5216
     /tmp/ccOWj8hl.s:89419  .debug_str:0000000000008bab .LASF5217
     /tmp/ccOWj8hl.s:88023  .debug_str:0000000000002e38 .LASF5218
     /tmp/ccOWj8hl.s:87493  .debug_str:0000000000000900 .LASF5219
     /tmp/ccOWj8hl.s:98181  .debug_str:000000000002c1dc .LASF5220
     /tmp/ccOWj8hl.s:89555  .debug_str:00000000000095c8 .LASF5221
     /tmp/ccOWj8hl.s:95463  .debug_str:000000000002142a .LASF5222
     /tmp/ccOWj8hl.s:89775  .debug_str:000000000000a404 .LASF5223
     /tmp/ccOWj8hl.s:97997  .debug_str:000000000002b5e6 .LASF5224
     /tmp/ccOWj8hl.s:102261  .debug_str:000000000003cbe6 .LASF5225
     /tmp/ccOWj8hl.s:88985  .debug_str:0000000000006f76 .LASF5226
     /tmp/ccOWj8hl.s:94057  .debug_str:000000000001b3a9 .LASF5227
     /tmp/ccOWj8hl.s:90119  .debug_str:000000000000bbc7 .LASF5228
     /tmp/ccOWj8hl.s:97659  .debug_str:000000000002a030 .LASF5229
     /tmp/ccOWj8hl.s:103107  .debug_str:00000000000404cb .LASF5230
     /tmp/ccOWj8hl.s:93595  .debug_str:00000000000196f3 .LASF5231
     /tmp/ccOWj8hl.s:104791  .debug_str:00000000000472bb .LASF5232
     /tmp/ccOWj8hl.s:96973  .debug_str:0000000000027430 .LASF5233
     /tmp/ccOWj8hl.s:90625  .debug_str:000000000000dcc4 .LASF5234
     /tmp/ccOWj8hl.s:99407  .debug_str:00000000000314ee .LASF5235
     /tmp/ccOWj8hl.s:99485  .debug_str:0000000000031a31 .LASF5236
     /tmp/ccOWj8hl.s:89755  .debug_str:000000000000a29f .LASF5237
     /tmp/ccOWj8hl.s:95423  .debug_str:0000000000021110 .LASF5238
     /tmp/ccOWj8hl.s:97967  .debug_str:000000000002b43c .LASF5239
     /tmp/ccOWj8hl.s:105021  .debug_str:0000000000048376 .LASF5240
     /tmp/ccOWj8hl.s:96935  .debug_str:00000000000271a1 .LASF5241
     /tmp/ccOWj8hl.s:102195  .debug_str:000000000003c794 .LASF5242
     /tmp/ccOWj8hl.s:101705  .debug_str:000000000003a76a .LASF5243
     /tmp/ccOWj8hl.s:100043  .debug_str:0000000000033f8b .LASF5244
     /tmp/ccOWj8hl.s:94923  .debug_str:000000000001ef7b .LASF5245
     /tmp/ccOWj8hl.s:97095  .debug_str:0000000000027bf4 .LASF5246
     /tmp/ccOWj8hl.s:95609  .debug_str:0000000000021dd6 .LASF5247
     /tmp/ccOWj8hl.s:88777  .debug_str:00000000000060e5 .LASF5248
     /tmp/ccOWj8hl.s:102941  .debug_str:000000000003fa12 .LASF5249
     /tmp/ccOWj8hl.s:87873  .debug_str:00000000000022f7 .LASF5250
     /tmp/ccOWj8hl.s:92517  .debug_str:0000000000015111 .LASF5251
     /tmp/ccOWj8hl.s:96795  .debug_str:000000000002681b .LASF5252
     /tmp/ccOWj8hl.s:91729  .debug_str:0000000000011eb7 .LASF5253
     /tmp/ccOWj8hl.s:89735  .debug_str:000000000000a17a .LASF5254
     /tmp/ccOWj8hl.s:103481  .debug_str:0000000000041dcb .LASF5255
     /tmp/ccOWj8hl.s:104795  .debug_str:0000000000047334 .LASF5256
     /tmp/ccOWj8hl.s:93785  .debug_str:000000000001a355 .LASF5257
     /tmp/ccOWj8hl.s:100651  .debug_str:00000000000364a6 .LASF5258
     /tmp/ccOWj8hl.s:94855  .debug_str:000000000001eab9 .LASF5259
     /tmp/ccOWj8hl.s:95585  .debug_str:0000000000021c60 .LASF5260
     /tmp/ccOWj8hl.s:102175  .debug_str:000000000003c652 .LASF5261
     /tmp/ccOWj8hl.s:88731  .debug_str:0000000000005e32 .LASF5262
     /tmp/ccOWj8hl.s:95639  .debug_str:0000000000022013 .LASF5263
     /tmp/ccOWj8hl.s:102369  .debug_str:000000000003d2ab .LASF5264
     /tmp/ccOWj8hl.s:90287  .debug_str:000000000000c768 .LASF5265
     /tmp/ccOWj8hl.s:89887  .debug_str:000000000000aba6 .LASF5266
     /tmp/ccOWj8hl.s:91533  .debug_str:000000000001111b .LASF5267
     /tmp/ccOWj8hl.s:96687  .debug_str:000000000002611b .LASF5268
     /tmp/ccOWj8hl.s:91589  .debug_str:0000000000011528 .LASF5269
     /tmp/ccOWj8hl.s:92931  .debug_str:0000000000016c65 .LASF5270
     /tmp/ccOWj8hl.s:97287  .debug_str:000000000002893d .LASF5271
     /tmp/ccOWj8hl.s:88153  .debug_str:0000000000003660 .LASF5272
     /tmp/ccOWj8hl.s:101123  .debug_str:0000000000037f3b .LASF5273
     /tmp/ccOWj8hl.s:90971  .debug_str:000000000000ef13 .LASF5274
     /tmp/ccOWj8hl.s:89875  .debug_str:000000000000aaba .LASF5275
     /tmp/ccOWj8hl.s:95887  .debug_str:00000000000230de .LASF5276
     /tmp/ccOWj8hl.s:102351  .debug_str:000000000003d1b1 .LASF5277
     /tmp/ccOWj8hl.s:92181  .debug_str:0000000000013bbc .LASF5278
     /tmp/ccOWj8hl.s:105431  .debug_str:000000000004a0d0 .LASF5279
     /tmp/ccOWj8hl.s:102399  .debug_str:000000000003d49a .LASF5280
     /tmp/ccOWj8hl.s:90125  .debug_str:000000000000bc73 .LASF5281
     /tmp/ccOWj8hl.s:89733  .debug_str:000000000000a16b .LASF5282
     /tmp/ccOWj8hl.s:95337  .debug_str:0000000000020b70 .LASF5283
     /tmp/ccOWj8hl.s:89477  .debug_str:0000000000008fbd .LASF5284
     /tmp/ccOWj8hl.s:89647  .debug_str:0000000000009b6c .LASF5285
     /tmp/ccOWj8hl.s:95741  .debug_str:00000000000226eb .LASF5286
     /tmp/ccOWj8hl.s:87605  .debug_str:0000000000001083 .LASF5287
     /tmp/ccOWj8hl.s:91447  .debug_str:0000000000010b1e .LASF5288
     /tmp/ccOWj8hl.s:94427  .debug_str:000000000001ccc7 .LASF5289
     /tmp/ccOWj8hl.s:100211  .debug_str:0000000000034a20 .LASF5290
     /tmp/ccOWj8hl.s:93275  .debug_str:00000000000181dd .LASF5291
     /tmp/ccOWj8hl.s:94617  .debug_str:000000000001d92d .LASF5292
     /tmp/ccOWj8hl.s:94101  .debug_str:000000000001b6b2 .LASF5293
     /tmp/ccOWj8hl.s:102035  .debug_str:000000000003bdc8 .LASF5294
     /tmp/ccOWj8hl.s:88149  .debug_str:0000000000003604 .LASF5295
     /tmp/ccOWj8hl.s:88701  .debug_str:0000000000005c36 .LASF5296
     /tmp/ccOWj8hl.s:104933  .debug_str:0000000000047d5d .LASF5297
     /tmp/ccOWj8hl.s:89351  .debug_str:0000000000008765 .LASF5298
     /tmp/ccOWj8hl.s:99711  .debug_str:000000000003297e .LASF5299
     /tmp/ccOWj8hl.s:103187  .debug_str:0000000000040ab9 .LASF5300
     /tmp/ccOWj8hl.s:99491  .debug_str:0000000000031aa9 .LASF5301
     /tmp/ccOWj8hl.s:97557  .debug_str:0000000000029a55 .LASF5303
     /tmp/ccOWj8hl.s:92143  .debug_str:0000000000013951 .LASF5304
     /tmp/ccOWj8hl.s:100225  .debug_str:0000000000034b30 .LASF5305
     /tmp/ccOWj8hl.s:89683  .debug_str:0000000000009d5b .LASF5306
     /tmp/ccOWj8hl.s:87373  .debug_str:00000000000000fa .LASF5307
     /tmp/ccOWj8hl.s:105935  .debug_str:000000000004c35a .LASF5308
     /tmp/ccOWj8hl.s:98413  .debug_str:000000000002d187 .LASF5309
     /tmp/ccOWj8hl.s:95135  .debug_str:000000000001fe59 .LASF5310
     /tmp/ccOWj8hl.s:102587  .debug_str:000000000003e159 .LASF5311
     /tmp/ccOWj8hl.s:87709  .debug_str:0000000000001790 .LASF5312
     /tmp/ccOWj8hl.s:96739  .debug_str:00000000000264af .LASF5313
     /tmp/ccOWj8hl.s:93177  .debug_str:0000000000017bd7 .LASF5314
     /tmp/ccOWj8hl.s:102471  .debug_str:000000000003d8b2 .LASF5315
     /tmp/ccOWj8hl.s:101233  .debug_str:000000000003867e .LASF5316
     /tmp/ccOWj8hl.s:99395  .debug_str:00000000000313e4 .LASF5317
     /tmp/ccOWj8hl.s:102877  .debug_str:000000000003f59e .LASF5318
     /tmp/ccOWj8hl.s:97835  .debug_str:000000000002ac19 .LASF5319
     /tmp/ccOWj8hl.s:90257  .debug_str:000000000000c57e .LASF5320
     /tmp/ccOWj8hl.s:95101  .debug_str:000000000001fbee .LASF5321
     /tmp/ccOWj8hl.s:94663  .debug_str:000000000001dcb5 .LASF5322
     /tmp/ccOWj8hl.s:100669  .debug_str:00000000000365c0 .LASF5323
     /tmp/ccOWj8hl.s:87899  .debug_str:00000000000024ab .LASF5324
     /tmp/ccOWj8hl.s:93969  .debug_str:000000000001aeae .LASF5325
     /tmp/ccOWj8hl.s:99959  .debug_str:0000000000033a8d .LASF5326
     /tmp/ccOWj8hl.s:92845  .debug_str:0000000000016655 .LASF5327
     /tmp/ccOWj8hl.s:99897  .debug_str:00000000000335b8 .LASF5328
     /tmp/ccOWj8hl.s:102017  .debug_str:000000000003bc66 .LASF5329
     /tmp/ccOWj8hl.s:90783  .debug_str:000000000000e3d0 .LASF5330
     /tmp/ccOWj8hl.s:104595  .debug_str:000000000004665e .LASF5331
     /tmp/ccOWj8hl.s:89627  .debug_str:0000000000009a01 .LASF5332
     /tmp/ccOWj8hl.s:104361  .debug_str:000000000004563e .LASF5333
     /tmp/ccOWj8hl.s:102203  .debug_str:000000000003c86e .LASF5334
     /tmp/ccOWj8hl.s:90039  .debug_str:000000000000b721 .LASF5335
     /tmp/ccOWj8hl.s:92795  .debug_str:000000000001628e .LASF5336
     /tmp/ccOWj8hl.s:96145  .debug_str:0000000000023fd6 .LASF5337
     /tmp/ccOWj8hl.s:103225  .debug_str:0000000000040d51 .LASF5338
     /tmp/ccOWj8hl.s:90865  .debug_str:000000000000e89e .LASF5339
     /tmp/ccOWj8hl.s:89841  .debug_str:000000000000a837 .LASF5340
     /tmp/ccOWj8hl.s:98753  .debug_str:000000000002e979 .LASF5341
     /tmp/ccOWj8hl.s:96981  .debug_str:0000000000027500 .LASF5342
     /tmp/ccOWj8hl.s:96297  .debug_str:0000000000024736 .LASF5343
     /tmp/ccOWj8hl.s:94277  .debug_str:000000000001c212 .LASF5344
     /tmp/ccOWj8hl.s:92045  .debug_str:0000000000013321 .LASF5345
     /tmp/ccOWj8hl.s:88547  .debug_str:00000000000051ae .LASF5346
     /tmp/ccOWj8hl.s:95467  .debug_str:0000000000021478 .LASF5347
     /tmp/ccOWj8hl.s:104571  .debug_str:00000000000464fd .LASF5348
     /tmp/ccOWj8hl.s:101565  .debug_str:0000000000039db0 .LASF5349
     /tmp/ccOWj8hl.s:100511  .debug_str:0000000000035ce2 .LASF5350
     /tmp/ccOWj8hl.s:92421  .debug_str:0000000000014aa6 .LASF5351
     /tmp/ccOWj8hl.s:92091  .debug_str:00000000000135ef .LASF5352
     /tmp/ccOWj8hl.s:92445  .debug_str:0000000000014c4d .LASF5353
     /tmp/ccOWj8hl.s:104687  .debug_str:0000000000046bfe .LASF5354
     /tmp/ccOWj8hl.s:104797  .debug_str:0000000000047362 .LASF5355
     /tmp/ccOWj8hl.s:103097  .debug_str:00000000000403f7 .LASF5356
     /tmp/ccOWj8hl.s:100931  .debug_str:000000000003738e .LASF5357
     /tmp/ccOWj8hl.s:96711  .debug_str:000000000002633e .LASF5358
     /tmp/ccOWj8hl.s:96781  .debug_str:000000000002676f .LASF5359
     /tmp/ccOWj8hl.s:95025  .debug_str:000000000001f74b .LASF5360
     /tmp/ccOWj8hl.s:102903  .debug_str:000000000003f7ce .LASF5361
     /tmp/ccOWj8hl.s:101033  .debug_str:00000000000378b6 .LASF5362
     /tmp/ccOWj8hl.s:90905  .debug_str:000000000000eb27 .LASF5363
     /tmp/ccOWj8hl.s:96843  .debug_str:0000000000026b4f .LASF5364
     /tmp/ccOWj8hl.s:104737  .debug_str:0000000000046f5b .LASF5365
     /tmp/ccOWj8hl.s:94911  .debug_str:000000000001eedc .LASF5366
     /tmp/ccOWj8hl.s:101185  .debug_str:0000000000038373 .LASF5367
     /tmp/ccOWj8hl.s:104169  .debug_str:0000000000044a41 .LASF5368
     /tmp/ccOWj8hl.s:101297  .debug_str:0000000000038afc .LASF5369
     /tmp/ccOWj8hl.s:95853  .debug_str:0000000000022ee6 .LASF5370
     /tmp/ccOWj8hl.s:89011  .debug_str:000000000000712b .LASF5371
     /tmp/ccOWj8hl.s:92663  .debug_str:000000000001599b .LASF5372
     /tmp/ccOWj8hl.s:105221  .debug_str:000000000004910c .LASF5373
     /tmp/ccOWj8hl.s:91581  .debug_str:0000000000011489 .LASF5374
     /tmp/ccOWj8hl.s:103761  .debug_str:0000000000042f79 .LASF5375
     /tmp/ccOWj8hl.s:87407  .debug_str:0000000000000339 .LASF5376
     /tmp/ccOWj8hl.s:104065  .debug_str:00000000000442c1 .LASF5377
     /tmp/ccOWj8hl.s:97457  .debug_str:00000000000293f4 .LASF5378
     /tmp/ccOWj8hl.s:101081  .debug_str:0000000000037c62 .LASF5379
     /tmp/ccOWj8hl.s:96767  .debug_str:0000000000026673 .LASF5380
     /tmp/ccOWj8hl.s:94117  .debug_str:000000000001b7ef .LASF5381
     /tmp/ccOWj8hl.s:98573  .debug_str:000000000002dcc5 .LASF5382
     /tmp/ccOWj8hl.s:90199  .debug_str:000000000000c177 .LASF5383
     /tmp/ccOWj8hl.s:98643  .debug_str:000000000002e1ae .LASF5384
     /tmp/ccOWj8hl.s:99007  .debug_str:000000000002f98f .LASF5385
     /tmp/ccOWj8hl.s:104383  .debug_str:00000000000457d5 .LASF5386
     /tmp/ccOWj8hl.s:101021  .debug_str:0000000000037818 .LASF5387
     /tmp/ccOWj8hl.s:93341  .debug_str:0000000000018694 .LASF5388
     /tmp/ccOWj8hl.s:96873  .debug_str:0000000000026d5d .LASF5389
     /tmp/ccOWj8hl.s:95351  .debug_str:0000000000020caf .LASF5390
     /tmp/ccOWj8hl.s:99607  .debug_str:0000000000032251 .LASF5391
     /tmp/ccOWj8hl.s:89937  .debug_str:000000000000af99 .LASF5392
     /tmp/ccOWj8hl.s:97793  .debug_str:000000000002a9ad .LASF5393
     /tmp/ccOWj8hl.s:104535  .debug_str:000000000004625c .LASF5394
     /tmp/ccOWj8hl.s:101979  .debug_str:000000000003ba2f .LASF5395
     /tmp/ccOWj8hl.s:91563  .debug_str:0000000000011371 .LASF5396
     /tmp/ccOWj8hl.s:103705  .debug_str:0000000000042bac .LASF5397
     /tmp/ccOWj8hl.s:87381  .debug_str:0000000000000185 .LASF5398
     /tmp/ccOWj8hl.s:90375  .debug_str:000000000000cd08 .LASF5399
     /tmp/ccOWj8hl.s:92417  .debug_str:0000000000014a46 .LASF5400
     /tmp/ccOWj8hl.s:99945  .debug_str:0000000000033998 .LASF5401
     /tmp/ccOWj8hl.s:91697  .debug_str:0000000000011c5a .LASF5402
     /tmp/ccOWj8hl.s:104381  .debug_str:00000000000457bc .LASF5403
     /tmp/ccOWj8hl.s:87507  .debug_str:0000000000000a24 .LASF5404
     /tmp/ccOWj8hl.s:104165  .debug_str:00000000000449f0 .LASF5405
     /tmp/ccOWj8hl.s:100735  .debug_str:00000000000368b3 .LASF5406
     /tmp/ccOWj8hl.s:98949  .debug_str:000000000002f57f .LASF5407
     /tmp/ccOWj8hl.s:96207  .debug_str:00000000000242b0 .LASF5408
     /tmp/ccOWj8hl.s:95947  .debug_str:00000000000234cb .LASF5409
     /tmp/ccOWj8hl.s:93961  .debug_str:000000000001ae48 .LASF5410
     /tmp/ccOWj8hl.s:91737  .debug_str:0000000000011f2f .LASF5411
     /tmp/ccOWj8hl.s:102357  .debug_str:000000000003d20e .LASF5412
     /tmp/ccOWj8hl.s:100259  .debug_str:0000000000034dc1 .LASF5413
     /tmp/ccOWj8hl.s:105441  .debug_str:000000000004a1a2 .LASF5414
     /tmp/ccOWj8hl.s:87601  .debug_str:000000000000105b .LASF5415
     /tmp/ccOWj8hl.s:96123  .debug_str:0000000000023ea6 .LASF5416
     /tmp/ccOWj8hl.s:104393  .debug_str:0000000000045887 .LASF5417
     /tmp/ccOWj8hl.s:93303  .debug_str:00000000000183ca .LASF5418
     /tmp/ccOWj8hl.s:92373  .debug_str:000000000001475e .LASF5419
     /tmp/ccOWj8hl.s:91567  .debug_str:0000000000011397 .LASF5420
     /tmp/ccOWj8hl.s:105031  .debug_str:0000000000048418 .LASF5421
     /tmp/ccOWj8hl.s:91399  .debug_str:00000000000108b4 .LASF5422
     /tmp/ccOWj8hl.s:98075  .debug_str:000000000002bae2 .LASF5423
     /tmp/ccOWj8hl.s:92103  .debug_str:00000000000136dd .LASF5424
     /tmp/ccOWj8hl.s:91469  .debug_str:0000000000010c66 .LASF5425
     /tmp/ccOWj8hl.s:96413  .debug_str:0000000000024e7c .LASF5426
     /tmp/ccOWj8hl.s:90959  .debug_str:000000000000edf3 .LASF5427
     /tmp/ccOWj8hl.s:97387  .debug_str:0000000000028f3b .LASF5428
     /tmp/ccOWj8hl.s:90663  .debug_str:000000000000de1d .LASF5429
     /tmp/ccOWj8hl.s:94787  .debug_str:000000000001e574 .LASF5430
     /tmp/ccOWj8hl.s:88843  .debug_str:00000000000065d9 .LASF5431
     /tmp/ccOWj8hl.s:100023  .debug_str:0000000000033e52 .LASF5432
     /tmp/ccOWj8hl.s:100599  .debug_str:00000000000361ec .LASF5433
     /tmp/ccOWj8hl.s:101229  .debug_str:0000000000038640 .LASF5434
     /tmp/ccOWj8hl.s:96751  .debug_str:0000000000026575 .LASF5435
     /tmp/ccOWj8hl.s:103005  .debug_str:000000000003fd8b .LASF5436
     /tmp/ccOWj8hl.s:105623  .debug_str:000000000004aec8 .LASF5437
     /tmp/ccOWj8hl.s:104703  .debug_str:0000000000046d0b .LASF5438
     /tmp/ccOWj8hl.s:102507  .debug_str:000000000003db6d .LASF5439
     /tmp/ccOWj8hl.s:87593  .debug_str:0000000000000fc2 .LASF5440
     /tmp/ccOWj8hl.s:100903  .debug_str:0000000000037196 .LASF5441
     /tmp/ccOWj8hl.s:96029  .debug_str:00000000000239ab .LASF5442
     /tmp/ccOWj8hl.s:103453  .debug_str:0000000000041c08 .LASF5443
     /tmp/ccOWj8hl.s:98087  .debug_str:000000000002bbbb .LASF5444
     /tmp/ccOWj8hl.s:100031  .debug_str:0000000000033eee .LASF5445
     /tmp/ccOWj8hl.s:99805  .debug_str:0000000000032fae .LASF5446
     /tmp/ccOWj8hl.s:98885  .debug_str:000000000002f1b1 .LASF5447
     /tmp/ccOWj8hl.s:101329  .debug_str:0000000000038db4 .LASF5448
     /tmp/ccOWj8hl.s:87443  .debug_str:00000000000005d0 .LASF5449
     /tmp/ccOWj8hl.s:104709  .debug_str:0000000000046d61 .LASF5450
     /tmp/ccOWj8hl.s:99195  .debug_str:0000000000030642 .LASF5451
     /tmp/ccOWj8hl.s:101413  .debug_str:0000000000039269 .LASF5452
     /tmp/ccOWj8hl.s:102581  .debug_str:000000000003e104 .LASF5453
     /tmp/ccOWj8hl.s:98645  .debug_str:000000000002e1c6 .LASF5454
     /tmp/ccOWj8hl.s:104509  .debug_str:00000000000460e9 .LASF5455
     /tmp/ccOWj8hl.s:105503  .debug_str:000000000004a69b .LASF5456
     /tmp/ccOWj8hl.s:97075  .debug_str:0000000000027a8e .LASF5457
     /tmp/ccOWj8hl.s:91979  .debug_str:0000000000012f52 .LASF5459
     /tmp/ccOWj8hl.s:101719  .debug_str:000000000003a84e .LASF5460
     /tmp/ccOWj8hl.s:102641  .debug_str:000000000003e58c .LASF5461
     /tmp/ccOWj8hl.s:97769  .debug_str:000000000002a7aa .LASF5462
     /tmp/ccOWj8hl.s:103233  .debug_str:0000000000040dbe .LASF5463
     /tmp/ccOWj8hl.s:99991  .debug_str:0000000000033c79 .LASF5464
     /tmp/ccOWj8hl.s:98559  .debug_str:000000000002dbe9 .LASF5465
     /tmp/ccOWj8hl.s:95843  .debug_str:0000000000022e4d .LASF5466
     /tmp/ccOWj8hl.s:87759  .debug_str:0000000000001b3d .LASF5467
     /tmp/ccOWj8hl.s:91345  .debug_str:00000000000104a9 .LASF5468
     /tmp/ccOWj8hl.s:94971  .debug_str:000000000001f41a .LASF5469
     /tmp/ccOWj8hl.s:97031  .debug_str:00000000000278c1 .LASF5470
     /tmp/ccOWj8hl.s:103415  .debug_str:00000000000419a9 .LASF5471
     /tmp/ccOWj8hl.s:92665  .debug_str:00000000000159b6 .LASF5472
     /tmp/ccOWj8hl.s:103631  .debug_str:00000000000426fe .LASF5473
     /tmp/ccOWj8hl.s:102221  .debug_str:000000000003c957 .LASF5474
     /tmp/ccOWj8hl.s:105319  .debug_str:000000000004980f .LASF5475
     /tmp/ccOWj8hl.s:105239  .debug_str:0000000000049290 .LASF5476
     /tmp/ccOWj8hl.s:101897  .debug_str:000000000003b483 .LASF5477
     /tmp/ccOWj8hl.s:94231  .debug_str:000000000001beec .LASF5478
     /tmp/ccOWj8hl.s:87875  .debug_str:0000000000002325 .LASF5479
     /tmp/ccOWj8hl.s:89429  .debug_str:0000000000008cd9 .LASF5481
     /tmp/ccOWj8hl.s:98939  .debug_str:000000000002f4a9 .LASF5482
     /tmp/ccOWj8hl.s:93603  .debug_str:00000000000197eb .LASF5483
     /tmp/ccOWj8hl.s:96813  .debug_str:0000000000026927 .LASF5484
     /tmp/ccOWj8hl.s:101375  .debug_str:0000000000039005 .LASF5485
     /tmp/ccOWj8hl.s:98803  .debug_str:000000000002ecc4 .LASF5486
     /tmp/ccOWj8hl.s:94191  .debug_str:000000000001bc58 .LASF5487
     /tmp/ccOWj8hl.s:88177  .debug_str:000000000000385c .LASF5488
     /tmp/ccOWj8hl.s:92183  .debug_str:0000000000013bd0 .LASF5489
     /tmp/ccOWj8hl.s:95153  .debug_str:000000000001ff84 .LASF5490
     /tmp/ccOWj8hl.s:102249  .debug_str:000000000003cb36 .LASF5491
     /tmp/ccOWj8hl.s:103321  .debug_str:0000000000041392 .LASF5492
     /tmp/ccOWj8hl.s:92141  .debug_str:000000000001393d .LASF5493
     /tmp/ccOWj8hl.s:101437  .debug_str:000000000003948f .LASF5494
     /tmp/ccOWj8hl.s:105851  .debug_str:000000000004bd97 .LASF5495
     /tmp/ccOWj8hl.s:99287  .debug_str:0000000000030cc5 .LASF5496
     /tmp/ccOWj8hl.s:96793  .debug_str:00000000000267f5 .LASF5497
     /tmp/ccOWj8hl.s:104523  .debug_str:00000000000461c0 .LASF5498
     /tmp/ccOWj8hl.s:90705  .debug_str:000000000000e0b8 .LASF5499
     /tmp/ccOWj8hl.s:103241  .debug_str:0000000000040e1c .LASF5500
     /tmp/ccOWj8hl.s:87937  .debug_str:000000000000279a .LASF5501
     /tmp/ccOWj8hl.s:89797  .debug_str:000000000000a551 .LASF5502
     /tmp/ccOWj8hl.s:105809  .debug_str:000000000004ba55 .LASF5503
     /tmp/ccOWj8hl.s:105411  .debug_str:0000000000049eed .LASF5504
     /tmp/ccOWj8hl.s:100683  .debug_str:00000000000366a5 .LASF5506
     /tmp/ccOWj8hl.s:95561  .debug_str:0000000000021ac8 .LASF5507
     /tmp/ccOWj8hl.s:100281  .debug_str:0000000000034f22 .LASF5508
     /tmp/ccOWj8hl.s:93535  .debug_str:00000000000193d3 .LASF5509
     /tmp/ccOWj8hl.s:88961  .debug_str:0000000000006e37 .LASF5510
     /tmp/ccOWj8hl.s:95515  .debug_str:0000000000021802 .LASF5511
     /tmp/ccOWj8hl.s:100243  .debug_str:0000000000034c80 .LASF5512
     /tmp/ccOWj8hl.s:104155  .debug_str:000000000004494e .LASF5513
     /tmp/ccOWj8hl.s:91765  .debug_str:0000000000012114 .LASF5514
     /tmp/ccOWj8hl.s:100653  .debug_str:00000000000364d2 .LASF5515
     /tmp/ccOWj8hl.s:95437  .debug_str:0000000000021229 .LASF5516
     /tmp/ccOWj8hl.s:91945  .debug_str:0000000000012d3d .LASF5517
     /tmp/ccOWj8hl.s:88565  .debug_str:00000000000052fb .LASF5518
     /tmp/ccOWj8hl.s:104645  .debug_str:0000000000046987 .LASF5519
     /tmp/ccOWj8hl.s:88739  .debug_str:0000000000005ed5 .LASF5520
     /tmp/ccOWj8hl.s:99377  .debug_str:00000000000312f6 .LASF5521
     /tmp/ccOWj8hl.s:92089  .debug_str:00000000000135e3 .LASF5522
     /tmp/ccOWj8hl.s:90871  .debug_str:000000000000e8f5 .LASF5523
     /tmp/ccOWj8hl.s:103195  .debug_str:0000000000040b39 .LASF5524
     /tmp/ccOWj8hl.s:90251  .debug_str:000000000000c53d .LASF5526
     /tmp/ccOWj8hl.s:89857  .debug_str:000000000000a99e .LASF5527
     /tmp/ccOWj8hl.s:102451  .debug_str:000000000003d7e7 .LASF5528
     /tmp/ccOWj8hl.s:88971  .debug_str:0000000000006ec0 .LASF5529
     /tmp/ccOWj8hl.s:100915  .debug_str:0000000000037264 .LASF5530
     /tmp/ccOWj8hl.s:102541  .debug_str:000000000003ddf5 .LASF5531
     /tmp/ccOWj8hl.s:93565  .debug_str:00000000000195ae .LASF5532
     /tmp/ccOWj8hl.s:103899  .debug_str:00000000000437c5 .LASF5533
     /tmp/ccOWj8hl.s:96109  .debug_str:0000000000023d9b .LASF5534
     /tmp/ccOWj8hl.s:88375  .debug_str:000000000000460f .LASF5535
     /tmp/ccOWj8hl.s:92511  .debug_str:00000000000150bd .LASF5536
     /tmp/ccOWj8hl.s:102515  .debug_str:000000000003dc02 .LASF5537
     /tmp/ccOWj8hl.s:95097  .debug_str:000000000001fbb7 .LASF5538
     /tmp/ccOWj8hl.s:91727  .debug_str:0000000000011e82 .LASF5539
     /tmp/ccOWj8hl.s:88497  .debug_str:0000000000004e4c .LASF5540
     /tmp/ccOWj8hl.s:91627  .debug_str:000000000001180c .LASF5541
     /tmp/ccOWj8hl.s:99299  .debug_str:0000000000030db7 .LASF5542
     /tmp/ccOWj8hl.s:91619  .debug_str:0000000000011760 .LASF5543
     /tmp/ccOWj8hl.s:92193  .debug_str:0000000000013c6f .LASF5544
     /tmp/ccOWj8hl.s:93209  .debug_str:0000000000017cf5 .LASF5545
     /tmp/ccOWj8hl.s:102311  .debug_str:000000000003cf42 .LASF5546
     /tmp/ccOWj8hl.s:103609  .debug_str:00000000000425bc .LASF5547
     /tmp/ccOWj8hl.s:89701  .debug_str:0000000000009ee3 .LASF5548
     /tmp/ccOWj8hl.s:90963  .debug_str:000000000000ee4c .LASF5549
     /tmp/ccOWj8hl.s:96713  .debug_str:0000000000026357 .LASF5550
     /tmp/ccOWj8hl.s:95301  .debug_str:00000000000209a1 .LASF5551
     /tmp/ccOWj8hl.s:103265  .debug_str:0000000000040f70 .LASF5552
     /tmp/ccOWj8hl.s:103383  .debug_str:000000000004173f .LASF5553
     /tmp/ccOWj8hl.s:90873  .debug_str:000000000000e901 .LASF5554
     /tmp/ccOWj8hl.s:104627  .debug_str:000000000004681b .LASF5555
     /tmp/ccOWj8hl.s:92877  .debug_str:00000000000168b5 .LASF5556
     /tmp/ccOWj8hl.s:90955  .debug_str:000000000000edaa .LASF5557
     /tmp/ccOWj8hl.s:95073  .debug_str:000000000001f9ef .LASF5558
     /tmp/ccOWj8hl.s:99577  .debug_str:0000000000032054 .LASF5559
     /tmp/ccOWj8hl.s:97467  .debug_str:000000000002946a .LASF5560
     /tmp/ccOWj8hl.s:91087  .debug_str:000000000000f661 .LASF5561
     /tmp/ccOWj8hl.s:88421  .debug_str:000000000000499a .LASF5562
     /tmp/ccOWj8hl.s:101995  .debug_str:000000000003bb31 .LASF5563
     /tmp/ccOWj8hl.s:91071  .debug_str:000000000000f546 .LASF5564
     /tmp/ccOWj8hl.s:88891  .debug_str:0000000000006944 .LASF5565
     /tmp/ccOWj8hl.s:96127  .debug_str:0000000000023ee0 .LASF5566
     /tmp/ccOWj8hl.s:93399  .debug_str:0000000000018a6f .LASF5567
     /tmp/ccOWj8hl.s:90371  .debug_str:000000000000cce1 .LASF5568
     /tmp/ccOWj8hl.s:87919  .debug_str:000000000000263b .LASF5569
     /tmp/ccOWj8hl.s:92551  .debug_str:000000000001529e .LASF5570
     /tmp/ccOWj8hl.s:102787  .debug_str:000000000003ef85 .LASF5571
     /tmp/ccOWj8hl.s:104241  .debug_str:0000000000044e9f .LASF5572
     /tmp/ccOWj8hl.s:98361  .debug_str:000000000002cea1 .LASF5573
     /tmp/ccOWj8hl.s:87777  .debug_str:0000000000001c3e .LASF5574
     /tmp/ccOWj8hl.s:96481  .debug_str:0000000000025397 .LASF5575
     /tmp/ccOWj8hl.s:98893  .debug_str:000000000002f221 .LASF5576
     /tmp/ccOWj8hl.s:90083  .debug_str:000000000000b9c2 .LASF5577
     /tmp/ccOWj8hl.s:96649  .debug_str:0000000000025e9d .LASF5578
     /tmp/ccOWj8hl.s:97711  .debug_str:000000000002a42f .LASF5579
     /tmp/ccOWj8hl.s:102259  .debug_str:000000000003cbcb .LASF5580
     /tmp/ccOWj8hl.s:94443  .debug_str:000000000001cde5 .LASF5581
     /tmp/ccOWj8hl.s:99459  .debug_str:0000000000031861 .LASF5582
     /tmp/ccOWj8hl.s:95607  .debug_str:0000000000021dba .LASF5583
     /tmp/ccOWj8hl.s:89599  .debug_str:0000000000009803 .LASF5584
     /tmp/ccOWj8hl.s:104207  .debug_str:0000000000044c88 .LASF5585
     /tmp/ccOWj8hl.s:91029  .debug_str:000000000000f28b .LASF5586
     /tmp/ccOWj8hl.s:92289  .debug_str:00000000000141e2 .LASF5587
     /tmp/ccOWj8hl.s:94081  .debug_str:000000000001b57d .LASF5588
     /tmp/ccOWj8hl.s:98211  .debug_str:000000000002c44c .LASF5589
     /tmp/ccOWj8hl.s:103605  .debug_str:000000000004256f .LASF5590
     /tmp/ccOWj8hl.s:104609  .debug_str:00000000000466f9 .LASF5591
     /tmp/ccOWj8hl.s:94635  .debug_str:000000000001da68 .LASF5592
     /tmp/ccOWj8hl.s:92771  .debug_str:0000000000016112 .LASF5593
     /tmp/ccOWj8hl.s:103947  .debug_str:0000000000043b93 .LASF5594
     /tmp/ccOWj8hl.s:102137  .debug_str:000000000003c3d5 .LASF5595
     /tmp/ccOWj8hl.s:93329  .debug_str:00000000000185b0 .LASF5596
     /tmp/ccOWj8hl.s:90335  .debug_str:000000000000ca7d .LASF5597
     /tmp/ccOWj8hl.s:95719  .debug_str:000000000002256c .LASF5598
     /tmp/ccOWj8hl.s:89747  .debug_str:000000000000a221 .LASF5599
     /tmp/ccOWj8hl.s:96581  .debug_str:0000000000025974 .LASF5600
     /tmp/ccOWj8hl.s:89491  .debug_str:00000000000090b7 .LASF5601
     /tmp/ccOWj8hl.s:92449  .debug_str:0000000000014c86 .LASF5602
     /tmp/ccOWj8hl.s:97923  .debug_str:000000000002b1b1 .LASF5603
     /tmp/ccOWj8hl.s:88763  .debug_str:000000000000603b .LASF5604
     /tmp/ccOWj8hl.s:98379  .debug_str:000000000002cfde .LASF5605
     /tmp/ccOWj8hl.s:103467  .debug_str:0000000000041ce0 .LASF5606
     /tmp/ccOWj8hl.s:88297  .debug_str:0000000000004103 .LASF5607
     /tmp/ccOWj8hl.s:88789  .debug_str:00000000000061f1 .LASF5608
     /tmp/ccOWj8hl.s:90075  .debug_str:000000000000b929 .LASF5609
     /tmp/ccOWj8hl.s:90395  .debug_str:000000000000ce69 .LASF5610
     /tmp/ccOWj8hl.s:101879  .debug_str:000000000003b304 .LASF5611
     /tmp/ccOWj8hl.s:88291  .debug_str:000000000000406c .LASF5612
     /tmp/ccOWj8hl.s:101071  .debug_str:0000000000037ba6 .LASF5613
     /tmp/ccOWj8hl.s:103611  .debug_str:00000000000425cf .LASF5614
     /tmp/ccOWj8hl.s:97047  .debug_str:000000000002798d .LASF5615
     /tmp/ccOWj8hl.s:101139  .debug_str:0000000000038063 .LASF5616
     /tmp/ccOWj8hl.s:96051  .debug_str:0000000000023ae0 .LASF5617
     /tmp/ccOWj8hl.s:101063  .debug_str:0000000000037b48 .LASF5618
     /tmp/ccOWj8hl.s:97375  .debug_str:0000000000028e63 .LASF5619
     /tmp/ccOWj8hl.s:102977  .debug_str:000000000003fb96 .LASF5620
     /tmp/ccOWj8hl.s:89975  .debug_str:000000000000b27f .LASF5621
     /tmp/ccOWj8hl.s:89315  .debug_str:000000000000850b .LASF5622
     /tmp/ccOWj8hl.s:96439  .debug_str:00000000000250ad .LASF5623
     /tmp/ccOWj8hl.s:87793  .debug_str:0000000000001d38 .LASF5624
     /tmp/ccOWj8hl.s:96263  .debug_str:00000000000244e5 .LASF5625
     /tmp/ccOWj8hl.s:102525  .debug_str:000000000003dca8 .LASF5626
     /tmp/ccOWj8hl.s:98197  .debug_str:000000000002c33d .LASF5627
                           .group:0000000000000000 wm4.0.2cde0bba310258ac5fb120644dc52a54
                           .group:0000000000000000 wm4.stddef.h.39.a38874c8f8a57e66301090908ec2a69f
                           .group:0000000000000000 wm4.stdbool.h.29.07dce69c3b78884144b7f7bd19483461
                           .group:0000000000000000 wm4._newlib_version.h.4.9ba035841e762c3308916a0ce96032e7
                           .group:0000000000000000 wm4.features.h.33.318b64d71e0957639cfb30f1db1f7ec8
                           .group:0000000000000000 wm4._default_types.h.15.61e9869194cab90bdfa4c7fc42203a0e
                           .group:0000000000000000 wm4._intsup.h.10.b28b45fc63caeb010c3f7ee592257700
                           .group:0000000000000000 wm4._stdint.h.10.c24fa3af3bc1706662bb5593a907e841
                           .group:0000000000000000 wm4.stdint.h.23.d53047a68f4a85177f80b422d52785ed
                           .group:0000000000000000 wm4.mss_assert.h.10.09559128d1f6dbd833ab24347e71c76c
                           .group:0000000000000000 wm4.mss_legacy_defines.h.20.594d5f03b0f5314e3b2e801d98173479
                           .group:0000000000000000 wm4.mss_ddr_defs.h.18.58f9a87b5146acaefd5d9382d54140ba
                           .group:0000000000000000 wm4.mss_sysreg.h.19.614456a035a0cca3fd9d4348b0740228
                           .group:0000000000000000 wm4.mss_ddr_sgmii_regs.h.5543.4c565db9c25f7d4b45bd9b264c475c73
                           .group:0000000000000000 wm4.mss_io_config.h.18.b70207dea5a59bac7da73ad6eee375d0
                           .group:0000000000000000 wm4.mss_pll.h.192.d6d9146a5a36ce9e7f6a5ae2e7816970
                           .group:0000000000000000 wm4.mss_scb_nwc_regs.h.19.92192026ece1a0bf26c7a7af9a56e40a
                           .group:0000000000000000 wm4.mss_sw_config.h.37.2f79a8233593e640cb9660b9e2020907
                           .group:0000000000000000 wm4.atomic.h.33.7c17fdf64e267483cec1d3aead0473f4
                           .group:0000000000000000 wm4.bits.h.32.2ced66ae3bdb7651edf1ccfb67de7b38
                           .group:0000000000000000 wm4.encoding.h.34.68f898bac6356b153788044b6c29d177
                           .group:0000000000000000 wm4.fpga_design_config.h.28.572b3893a09debe9cb72c1441369aee0
                           .group:0000000000000000 wm4.hw_memory.h.28.20599cf485f90ffaa97f313798a86238
                           .group:0000000000000000 wm4.hw_apb_split.h.28.a2537f445f7a8784a4f064a3a60be381
                           .group:0000000000000000 wm4.hw_cache.h.28.aa59d0803f1283c480a862ba52ff4d4f
                           .group:0000000000000000 wm4.hw_pmp_hart0.h.28.354eeff78ff2eb91d2783e01dbe4e5a4
                           .group:0000000000000000 wm4.hw_pmp_hart1.h.28.0ab9e64d9d5e4b3cdd2ef9fae2ec18f2
                           .group:0000000000000000 wm4.hw_pmp_hart2.h.28.361fe83e7fd64067a0988f3e9bcd6e5d
                           .group:0000000000000000 wm4.hw_pmp_hart3.h.28.8c3eca8078d58a4979d23ae7fc3ceb35
                           .group:0000000000000000 wm4.hw_pmp_hart4.h.28.f8bf6b50f09effab3f4dfc16a44d5d0e
                           .group:0000000000000000 wm4.hw_mpu_fic0.h.28.3a719367ee0b56c20c7541cca5239296
                           .group:0000000000000000 wm4.hw_mpu_fic1.h.28.35d3b72b131707dc62529924d8a0d281
                           .group:0000000000000000 wm4.hw_mpu_fic2.h.28.88b1cd488fc04fd09199876067a670cb
                           .group:0000000000000000 wm4.hw_mpu_crypto.h.28.45628d14bd81b7ae15853711bd55f118
                           .group:0000000000000000 wm4.hw_mpu_gem0.h.28.e88b73a77e588162ac08b038acfe3e30
                           .group:0000000000000000 wm4.hw_mpu_gem1.h.28.dadc3a640dcfb61a8f24791560fa3605
                           .group:0000000000000000 wm4.hw_mpu_usb.h.28.0b0c25c65da87670d72dffa8e9b51ad6
                           .group:0000000000000000 wm4.hw_mpu_mmc.h.28.a5df85f7a87dfaafd939c0c9743b44a9
                           .group:0000000000000000 wm4.hw_mpu_scb.h.28.2b778d620a29a13b1a33733b3fefaf3e
                           .group:0000000000000000 wm4.hw_mpu_trace.h.28.dbb150e27983d45d78ea646dfe7486fe
                           .group:0000000000000000 wm4.hw_mssio_mux.h.28.b18396e0f5e6c83835b3b8e1dfadc1b4
                           .group:0000000000000000 wm4.hw_hsio_mux.h.28.924a66a0f83f27c24767fbfdaffeb21f
                           .group:0000000000000000 wm4.hw_sgmii_tip.h.28.c2c656c87ab558ebf9f510f55b530997
                           .group:0000000000000000 wm4.hw_ddr_options.h.28.583107ebf3250a7e99a4e34ca34040f9
                           .group:0000000000000000 wm4.hw_ddr_io_bank.h.28.09e373f4be71534c2b0bf629a50788a8
                           .group:0000000000000000 wm4.hw_ddr_mode.h.28.3ecff7868bb6c2027433e8aaf3a6e9d0
                           .group:0000000000000000 wm4.hw_ddr_off_mode.h.28.c8f0d4bcf68d083d8ff0335e558930e9
                           .group:0000000000000000 wm4.hw_ddr_segs.h.28.93c530a254cc8a9c015d0bae044125b2
                           .group:0000000000000000 wm4.hw_ddrc.h.28.d858943fbdd3e7761d52c974b21ea425
                           .group:0000000000000000 wm4.hw_mss_clks.h.28.53b1f012440894624f35e610477ed6d8
                           .group:0000000000000000 wm4.hw_clk_sysreg.h.28.adf2eb2b08eeb2ee56f6129328388395
                           .group:0000000000000000 wm4.hw_clk_mss_pll.h.28.f255323a7f4276a824501e07bd0f464a
                           .group:0000000000000000 wm4.hw_clk_sgmii_pll.h.28.b1aefe04f9cda949aee4586f0025e039
                           .group:0000000000000000 wm4.hw_clk_ddr_pll.h.28.8f0ed359dbfb59ae6f0aa1f29002d60d
                           .group:0000000000000000 wm4.hw_clk_mss_cfm.h.28.365f11189fcbf1e2f08db25b2ea1557a
                           .group:0000000000000000 wm4.hw_clk_sgmii_cfm.h.28.f59fda78ad3b4981ccbc9fbc0d90ca0a
                           .group:0000000000000000 wm4.hw_gen_peripherals.h.28.67a363af3ea61147ac365f904e7b6183
                           .group:0000000000000000 wm4.mss_ddr.h.335.a7fe38050b0f6ce3ee0df6f9cb324a9e
                           .group:0000000000000000 wm4.mss_clint.h.28.3d2c636f4c8175d64797a2e961db02ff
                           .group:0000000000000000 wm4.mss_h2f.h.21.7086260854010c63b41a469cd9f7486d
                           .group:0000000000000000 wm4.mss_hart_ints.h.20.df914e6570bee6a0a5e5635d9329f21b
                           .group:0000000000000000 wm4.mss_mpu.h.20.dd1fa2a8702d0e819fbbb263dc6428d1
                           .group:0000000000000000 wm4.mss_pmp.h.19.8f83d750289fe5e95625891444a65774
                           .group:0000000000000000 wm4.mss_plic.h.38.63bddd8b7aeec5445a0ab9c829719734
                           .group:0000000000000000 wm4.mss_seg.h.38.d7fedb2c993ff2eb58c3c1c5f57af66f
                           .group:0000000000000000 wm4.mss_util.h.31.57922375d48cf596b0783b975bb89aba
                           .group:0000000000000000 wm4.mss_mtrap.h.32.75bfcc4d9a15120a34cb2ee456cde55a
                           .group:0000000000000000 wm4.mss_l2_cache.h.430.934410ee5d62996f3b8869a34907e316
                           .group:0000000000000000 wm4.mss_axiswitch.h.110.fc13072c0144cbd8e516d1d4f8c599b2
                           .group:0000000000000000 wm4.mss_peripherals.h.19.9837bc1f8d1c62dfd266b4590a8830b2
                           .group:0000000000000000 wm4.mss_cfm.h.20.474baf099ef6f60b14912c934c5e47c6
                           .group:0000000000000000 wm4.mss_sgmii.h.18.7850ab5b5e05dabb42db8143f362bae8
                           .group:0000000000000000 wm4.system_startup.h.17.372727b49fdab2e286123d13f6b6542a
                           .group:0000000000000000 wm4.mss_ddr_debug.h.40.79a83a45aea2f09f97e5663e254e5e65

UNDEFINED SYMBOLS
CFG_DDR_SGMII_PHY
__sc_load
__sc_end
__sc_start
