   1              		.file	"mss_sgmii.c"
   2              		.option nopic
   3              		.attribute arch, "rv64i2p0_m2p0_a2p0_f2p0_d2p0_c2p0"
   4              		.attribute unaligned_access, 0
   5              		.attribute stack_align, 16
   6              		.text
   7              	.Ltext0:
   8              		.cfi_sections	.debug_frame
   9              		.section	.sbss.silicon_variant,"aw",@nobits
  10              		.align	2
  13              	silicon_variant:
  14 0000 00000000 		.zero	4
  15              		.section	.sbss.sro_dll_90_code,"aw",@nobits
  16              		.align	2
  19              	sro_dll_90_code:
  20 0000 00000000 		.zero	4
  21              		.section	.text.sgmii_setup,"ax",@progbits
  22              		.align	1
  23              		.globl	sgmii_setup
  25              	sgmii_setup:
  26              	.LFB23:
  27              		.file 1 "../src/platform/mpfs_hal/common/nwc/mss_sgmii.c"
   1:../src/platform/mpfs_hal/common/nwc/mss_sgmii.c **** /*******************************************************************************
   2:../src/platform/mpfs_hal/common/nwc/mss_sgmii.c ****  * Copyright 2019-2022 Microchip FPGA Embedded Systems Solutions.
   3:../src/platform/mpfs_hal/common/nwc/mss_sgmii.c ****  *
   4:../src/platform/mpfs_hal/common/nwc/mss_sgmii.c ****  * SPDX-License-Identifier: MIT
   5:../src/platform/mpfs_hal/common/nwc/mss_sgmii.c ****  *
   6:../src/platform/mpfs_hal/common/nwc/mss_sgmii.c ****  * MPFS HAL Embedded Software
   7:../src/platform/mpfs_hal/common/nwc/mss_sgmii.c ****  *
   8:../src/platform/mpfs_hal/common/nwc/mss_sgmii.c ****  */
   9:../src/platform/mpfs_hal/common/nwc/mss_sgmii.c **** 
  10:../src/platform/mpfs_hal/common/nwc/mss_sgmii.c **** /*******************************************************************************
  11:../src/platform/mpfs_hal/common/nwc/mss_sgmii.c ****  * @file mss_sgmii.c
  12:../src/platform/mpfs_hal/common/nwc/mss_sgmii.c ****  * @author Microchip-FPGA Embedded Systems Solutions
  13:../src/platform/mpfs_hal/common/nwc/mss_sgmii.c ****  * @brief sgmii related functions
  14:../src/platform/mpfs_hal/common/nwc/mss_sgmii.c ****  *
  15:../src/platform/mpfs_hal/common/nwc/mss_sgmii.c ****  */
  16:../src/platform/mpfs_hal/common/nwc/mss_sgmii.c **** 
  17:../src/platform/mpfs_hal/common/nwc/mss_sgmii.c **** #include <string.h>
  18:../src/platform/mpfs_hal/common/nwc/mss_sgmii.c **** #include <stdio.h>
  19:../src/platform/mpfs_hal/common/nwc/mss_sgmii.c **** #include "mpfs_hal/mss_hal.h"
  20:../src/platform/mpfs_hal/common/nwc/mss_sgmii.c **** #include "simulation.h"
  21:../src/platform/mpfs_hal/common/nwc/mss_sgmii.c **** 
  22:../src/platform/mpfs_hal/common/nwc/mss_sgmii.c **** #ifdef  MPFS_HAL_HW_CONFIG
  23:../src/platform/mpfs_hal/common/nwc/mss_sgmii.c **** 
  24:../src/platform/mpfs_hal/common/nwc/mss_sgmii.c **** static PART_TYPE silicon_variant = PART_NOT_DETERMINED;
  25:../src/platform/mpfs_hal/common/nwc/mss_sgmii.c **** 
  26:../src/platform/mpfs_hal/common/nwc/mss_sgmii.c **** /*
  27:../src/platform/mpfs_hal/common/nwc/mss_sgmii.c ****  * local functions
  28:../src/platform/mpfs_hal/common/nwc/mss_sgmii.c ****  */
  29:../src/platform/mpfs_hal/common/nwc/mss_sgmii.c **** static void setup_sgmii_rpc_per_config(void);
  30:../src/platform/mpfs_hal/common/nwc/mss_sgmii.c **** #ifdef SGMII_SUPPORT
  31:../src/platform/mpfs_hal/common/nwc/mss_sgmii.c **** static uint32_t sgmii_channel_setup(void);
  32:../src/platform/mpfs_hal/common/nwc/mss_sgmii.c **** #endif
  33:../src/platform/mpfs_hal/common/nwc/mss_sgmii.c **** 
  34:../src/platform/mpfs_hal/common/nwc/mss_sgmii.c **** /*
  35:../src/platform/mpfs_hal/common/nwc/mss_sgmii.c ****  * local variable
  36:../src/platform/mpfs_hal/common/nwc/mss_sgmii.c ****  */
  37:../src/platform/mpfs_hal/common/nwc/mss_sgmii.c **** static uint32_t sro_dll_90_code;
  38:../src/platform/mpfs_hal/common/nwc/mss_sgmii.c **** 
  39:../src/platform/mpfs_hal/common/nwc/mss_sgmii.c **** /*
  40:../src/platform/mpfs_hal/common/nwc/mss_sgmii.c ****  * local functions
  41:../src/platform/mpfs_hal/common/nwc/mss_sgmii.c ****  */
  42:../src/platform/mpfs_hal/common/nwc/mss_sgmii.c **** static void set_early_late_thresholds(uint8_t n_late_threshold, uint8_t p_early_threshold);
  43:../src/platform/mpfs_hal/common/nwc/mss_sgmii.c **** 
  44:../src/platform/mpfs_hal/common/nwc/mss_sgmii.c **** /*
  45:../src/platform/mpfs_hal/common/nwc/mss_sgmii.c ****  * extern functions
  46:../src/platform/mpfs_hal/common/nwc/mss_sgmii.c ****  */
  47:../src/platform/mpfs_hal/common/nwc/mss_sgmii.c **** extern void sgmii_mux_config(uint8_t option);
  48:../src/platform/mpfs_hal/common/nwc/mss_sgmii.c **** 
  49:../src/platform/mpfs_hal/common/nwc/mss_sgmii.c **** 
  50:../src/platform/mpfs_hal/common/nwc/mss_sgmii.c **** uint32_t sgmii_setup(void)
  51:../src/platform/mpfs_hal/common/nwc/mss_sgmii.c **** {
  28              		.loc 1 51 1
  29              		.cfi_startproc
  30 0000 4111     		addi	sp,sp,-16
  31              		.cfi_def_cfa_offset 16
  32 0002 06E4     		sd	ra,8(sp)
  33 0004 22E0     		sd	s0,0(sp)
  34              		.cfi_offset 1, -8
  35              		.cfi_offset 8, -16
  36 0006 0008     		addi	s0,sp,16
  37              		.cfi_def_cfa 8, 0
  52:../src/platform/mpfs_hal/common/nwc/mss_sgmii.c **** #ifdef SGMII_SUPPORT
  53:../src/platform/mpfs_hal/common/nwc/mss_sgmii.c ****     /*
  54:../src/platform/mpfs_hal/common/nwc/mss_sgmii.c ****      * Check if any tx/Rx channels enabled
  55:../src/platform/mpfs_hal/common/nwc/mss_sgmii.c ****      */
  56:../src/platform/mpfs_hal/common/nwc/mss_sgmii.c ****     if((LIBERO_SETTING_SGMII_MODE & (TX_RX_CH_EN_MASK<<TX_RX_CH_EN_OFFSET)) != 0U)
  57:../src/platform/mpfs_hal/common/nwc/mss_sgmii.c ****     {
  58:../src/platform/mpfs_hal/common/nwc/mss_sgmii.c ****         while (sgmii_channel_setup() != 0)
  38              		.loc 1 58 15
  39 0008 0100     		nop
  40              	.L2:
  41              		.loc 1 58 16 discriminator 1
  42 000a 97000000 		call	sgmii_channel_setup
  42      E7800000 
  43 0012 AA87     		mv	a5,a0
  44 0014 8127     		sext.w	a5,a5
  45              		.loc 1 58 15 discriminator 1
  46 0016 F5FB     		bne	a5,zero,.L2
  59:../src/platform/mpfs_hal/common/nwc/mss_sgmii.c ****         {
  60:../src/platform/mpfs_hal/common/nwc/mss_sgmii.c **** 
  61:../src/platform/mpfs_hal/common/nwc/mss_sgmii.c ****         }
  62:../src/platform/mpfs_hal/common/nwc/mss_sgmii.c ****     }
  63:../src/platform/mpfs_hal/common/nwc/mss_sgmii.c ****     else
  64:../src/platform/mpfs_hal/common/nwc/mss_sgmii.c ****     {
  65:../src/platform/mpfs_hal/common/nwc/mss_sgmii.c ****         sgmii_off_mode();
  66:../src/platform/mpfs_hal/common/nwc/mss_sgmii.c ****         sgmii_mux_config(RPC_REG_UPDATE);
  67:../src/platform/mpfs_hal/common/nwc/mss_sgmii.c ****     }
  68:../src/platform/mpfs_hal/common/nwc/mss_sgmii.c **** #else
  69:../src/platform/mpfs_hal/common/nwc/mss_sgmii.c ****     {
  70:../src/platform/mpfs_hal/common/nwc/mss_sgmii.c ****         sgmii_off_mode();
  71:../src/platform/mpfs_hal/common/nwc/mss_sgmii.c ****         sgmii_mux_config(RPC_REG_UPDATE);
  72:../src/platform/mpfs_hal/common/nwc/mss_sgmii.c ****     }
  73:../src/platform/mpfs_hal/common/nwc/mss_sgmii.c **** #endif
  74:../src/platform/mpfs_hal/common/nwc/mss_sgmii.c ****     return(0UL);
  47              		.loc 1 74 11
  48 0018 8147     		li	a5,0
  75:../src/platform/mpfs_hal/common/nwc/mss_sgmii.c **** }
  49              		.loc 1 75 1
  50 001a 3E85     		mv	a0,a5
  51 001c A260     		ld	ra,8(sp)
  52              		.cfi_restore 1
  53 001e 0264     		ld	s0,0(sp)
  54              		.cfi_restore 8
  55              		.cfi_def_cfa 2, 16
  56 0020 4101     		addi	sp,sp,16
  57              		.cfi_def_cfa_offset 0
  58 0022 8280     		jr	ra
  59              		.cfi_endproc
  60              	.LFE23:
  62              		.section	.text.sgmii_channel_setup,"ax",@progbits
  63              		.align	1
  65              	sgmii_channel_setup:
  66              	.LFB24:
  76:../src/platform/mpfs_hal/common/nwc/mss_sgmii.c **** 
  77:../src/platform/mpfs_hal/common/nwc/mss_sgmii.c **** 
  78:../src/platform/mpfs_hal/common/nwc/mss_sgmii.c **** /**
  79:../src/platform/mpfs_hal/common/nwc/mss_sgmii.c ****  *
  80:../src/platform/mpfs_hal/common/nwc/mss_sgmii.c ****  * @param sgmii_instruction
  81:../src/platform/mpfs_hal/common/nwc/mss_sgmii.c ****  * @return
  82:../src/platform/mpfs_hal/common/nwc/mss_sgmii.c ****  */
  83:../src/platform/mpfs_hal/common/nwc/mss_sgmii.c **** #ifdef SGMII_SUPPORT
  84:../src/platform/mpfs_hal/common/nwc/mss_sgmii.c **** static uint32_t sgmii_channel_setup(void)
  85:../src/platform/mpfs_hal/common/nwc/mss_sgmii.c **** {
  67              		.loc 1 85 1
  68              		.cfi_startproc
  69 0000 4111     		addi	sp,sp,-16
  70              		.cfi_def_cfa_offset 16
  71 0002 06E4     		sd	ra,8(sp)
  72 0004 22E0     		sd	s0,0(sp)
  73              		.cfi_offset 1, -8
  74              		.cfi_offset 8, -16
  75 0006 0008     		addi	s0,sp,16
  76              		.cfi_def_cfa 8, 0
  86:../src/platform/mpfs_hal/common/nwc/mss_sgmii.c ****     static SGMII_TRAINING_SM sgmii_training_state = SGMII_SETUP_INIT;
  87:../src/platform/mpfs_hal/common/nwc/mss_sgmii.c ****     static uint32_t status = SGMII_IN_SETUP;
  88:../src/platform/mpfs_hal/common/nwc/mss_sgmii.c ****     static uint32_t timer_out;
  89:../src/platform/mpfs_hal/common/nwc/mss_sgmii.c **** 
  90:../src/platform/mpfs_hal/common/nwc/mss_sgmii.c ****     /*
  91:../src/platform/mpfs_hal/common/nwc/mss_sgmii.c ****      * Initialise NWC
  92:../src/platform/mpfs_hal/common/nwc/mss_sgmii.c ****      *      Clocks
  93:../src/platform/mpfs_hal/common/nwc/mss_sgmii.c ****      *      SGMII
  94:../src/platform/mpfs_hal/common/nwc/mss_sgmii.c ****      *      DDR
  95:../src/platform/mpfs_hal/common/nwc/mss_sgmii.c ****      *      IOMUX
  96:../src/platform/mpfs_hal/common/nwc/mss_sgmii.c ****      */
  97:../src/platform/mpfs_hal/common/nwc/mss_sgmii.c **** 
  98:../src/platform/mpfs_hal/common/nwc/mss_sgmii.c ****     switch(sgmii_training_state)
  77              		.loc 1 98 5
  78 0008 97070000 		lla	a5,sgmii_training_state.14156
  78      93870700 
  79 0010 9C43     		lw	a5,0(a5)
  80 0012 BE86     		mv	a3,a5
  81 0014 3947     		li	a4,14
  82 0016 636BD750 		bgtu	a3,a4,.L5
  83 001a 13972700 		slli	a4,a5,2
  84 001e 97070000 		lla	a5,.L7
  84      93870700 
  85 0026 BA97     		add	a5,a4,a5
  86 0028 9C43     		lw	a5,0(a5)
  87 002a 1B870700 		sext.w	a4,a5
  88 002e 97070000 		lla	a5,.L7
  88      93870700 
  89 0036 BA97     		add	a5,a4,a5
  90 0038 8287     		jr	a5
  91              		.section	.rodata.sgmii_channel_setup,"a",@progbits
  92              		.align	2
  93              		.align	2
  94              	.L7:
  95 0000 00000000 		.word	.L21-.L7
  96 0004 00000000 		.word	.L20-.L7
  97 0008 00000000 		.word	.L19-.L7
  98 000c 00000000 		.word	.L18-.L7
  99 0010 00000000 		.word	.L17-.L7
 100 0014 00000000 		.word	.L16-.L7
 101 0018 00000000 		.word	.L15-.L7
 102 001c 00000000 		.word	.L14-.L7
 103 0020 00000000 		.word	.L13-.L7
 104 0024 00000000 		.word	.L12-.L7
 105 0028 00000000 		.word	.L11-.L7
 106 002c 00000000 		.word	.L10-.L7
 107 0030 00000000 		.word	.L9-.L7
 108 0034 00000000 		.word	.L8-.L7
 109 0038 00000000 		.word	.L6-.L7
 110              		.section	.text.sgmii_channel_setup
 111              	.L21:
  99:../src/platform/mpfs_hal/common/nwc/mss_sgmii.c ****     {
 100:../src/platform/mpfs_hal/common/nwc/mss_sgmii.c ****         case SGMII_SETUP_INIT:
 101:../src/platform/mpfs_hal/common/nwc/mss_sgmii.c ****             status = SGMII_IN_SETUP;
 112              		.loc 1 101 20
 113 003a 97070000 		lla	a5,status.14157
 113      93870700 
 114 0042 0547     		li	a4,1
 115 0044 98C3     		sw	a4,0(a5)
 102:../src/platform/mpfs_hal/common/nwc/mss_sgmii.c ****             CFG_DDR_SGMII_PHY->SOFT_RESET_SGMII.SOFT_RESET_SGMII = \
 116              		.loc 1 102 30
 117 0046 97070000 		lla	a5,CFG_DDR_SGMII_PHY
 117      93870700 
 118 004e 9863     		ld	a4,0(a5)
 119              		.loc 1 102 66
 120 0050 8567     		li	a5,4096
 121 0052 BA97     		add	a5,a4,a5
 122 0054 13071010 		li	a4,257
 123 0058 23A0E7C0 		sw	a4,-1024(a5)
 103:../src/platform/mpfs_hal/common/nwc/mss_sgmii.c ****                     (0x01 << 8U) | 1U; /* PERIPH   soft reset */
 104:../src/platform/mpfs_hal/common/nwc/mss_sgmii.c ****             CFG_DDR_SGMII_PHY->SOFT_RESET_SGMII.SOFT_RESET_SGMII = 1U;
 124              		.loc 1 104 30
 125 005c 97070000 		lla	a5,CFG_DDR_SGMII_PHY
 125      93870700 
 126 0064 9863     		ld	a4,0(a5)
 127              		.loc 1 104 66
 128 0066 8567     		li	a5,4096
 129 0068 BA97     		add	a5,a4,a5
 130 006a 0547     		li	a4,1
 131 006c 23A0E7C0 		sw	a4,-1024(a5)
 105:../src/platform/mpfs_hal/common/nwc/mss_sgmii.c ****             setup_sgmii_rpc_per_config();         /* load RPC SGMII_MODE register ext */
 132              		.loc 1 105 13
 133 0070 97000000 		call	setup_sgmii_rpc_per_config
 133      E7800000 
 106:../src/platform/mpfs_hal/common/nwc/mss_sgmii.c **** 
 107:../src/platform/mpfs_hal/common/nwc/mss_sgmii.c ****             /* Enable the Bank controller */
 108:../src/platform/mpfs_hal/common/nwc/mss_sgmii.c ****             /*
 109:../src/platform/mpfs_hal/common/nwc/mss_sgmii.c ****              * Set soft reset on IP to load RPC to SCB regs (dynamic mode)
 110:../src/platform/mpfs_hal/common/nwc/mss_sgmii.c ****              * Bring the sgmii bank controller out of reset =- ioscb_bank_ctrl_sgmii
 111:../src/platform/mpfs_hal/common/nwc/mss_sgmii.c ****              */
 112:../src/platform/mpfs_hal/common/nwc/mss_sgmii.c ****             IOSCB_BANK_CNTL_SGMII->soft_reset = 1U;  /* DPC_BITS NV_MAP  reset */
 134              		.loc 1 112 34
 135 0078 B707403E 		li	a5,1044381696
 136              		.loc 1 112 47
 137 007c 0547     		li	a4,1
 138 007e 98C3     		sw	a4,0(a5)
 113:../src/platform/mpfs_hal/common/nwc/mss_sgmii.c ****             sgmii_training_state = SGMII_IO_EN;
 139              		.loc 1 113 34
 140 0080 97070000 		lla	a5,sgmii_training_state.14156
 140      93870700 
 141 0088 0547     		li	a4,1
 142 008a 98C3     		sw	a4,0(a5)
 114:../src/platform/mpfs_hal/common/nwc/mss_sgmii.c ****             break;
 143              		.loc 1 114 13
 144 008c 45A1     		j	.L5
 145              	.L20:
 115:../src/platform/mpfs_hal/common/nwc/mss_sgmii.c **** 
 116:../src/platform/mpfs_hal/common/nwc/mss_sgmii.c ****         case SGMII_IO_EN:
 117:../src/platform/mpfs_hal/common/nwc/mss_sgmii.c ****             /*
 118:../src/platform/mpfs_hal/common/nwc/mss_sgmii.c ****              * Check the IO_EN signal here.
 119:../src/platform/mpfs_hal/common/nwc/mss_sgmii.c ****              * This is an output from the bank controller power detector, which are
 120:../src/platform/mpfs_hal/common/nwc/mss_sgmii.c ****              * turned on using MSS_IO_EN
 121:../src/platform/mpfs_hal/common/nwc/mss_sgmii.c ****              */
 122:../src/platform/mpfs_hal/common/nwc/mss_sgmii.c ****             /* aro_ioen_bnk  - PVT calibrator IOEN  */
 123:../src/platform/mpfs_hal/common/nwc/mss_sgmii.c ****             timer_out++;
 146              		.loc 1 123 22
 147 008e 97070000 		lla	a5,timer_out.14158
 147      93870700 
 148 0096 9C43     		lw	a5,0(a5)
 149 0098 8527     		addiw	a5,a5,1
 150 009a 1B870700 		sext.w	a4,a5
 151 009e 97070000 		lla	a5,timer_out.14158
 151      93870700 
 152 00a6 98C3     		sw	a4,0(a5)
 124:../src/platform/mpfs_hal/common/nwc/mss_sgmii.c ****             if((CFG_DDR_SGMII_PHY->PVT_STAT.PVT_STAT & (0x01U<<6U)) != 0U)
 153              		.loc 1 124 34
 154 00a8 97070000 		lla	a5,CFG_DDR_SGMII_PHY
 154      93870700 
 155 00b0 9863     		ld	a4,0(a5)
 156              		.loc 1 124 44
 157 00b2 8567     		li	a5,4096
 158 00b4 BA97     		add	a5,a4,a5
 159 00b6 83A707C2 		lw	a5,-992(a5)
 160 00ba 8127     		sext.w	a5,a5
 161              		.loc 1 124 54
 162 00bc 93F70704 		andi	a5,a5,64
 163 00c0 8127     		sext.w	a5,a5
 164              		.loc 1 124 15
 165 00c2 638A0744 		beq	a5,zero,.L36
 125:../src/platform/mpfs_hal/common/nwc/mss_sgmii.c ****             {
 126:../src/platform/mpfs_hal/common/nwc/mss_sgmii.c ****                 timer_out=0U;
 166              		.loc 1 126 26
 167 00c6 97070000 		lla	a5,timer_out.14158
 167      93870700 
 168 00ce 23A00700 		sw	zero,0(a5)
 127:../src/platform/mpfs_hal/common/nwc/mss_sgmii.c ****                 sgmii_training_state = SGMII_RAMP_TIMER;
 169              		.loc 1 127 38
 170 00d2 97070000 		lla	a5,sgmii_training_state.14156
 170      93870700 
 171 00da 0947     		li	a4,2
 172 00dc 98C3     		sw	a4,0(a5)
 128:../src/platform/mpfs_hal/common/nwc/mss_sgmii.c ****             }
 129:../src/platform/mpfs_hal/common/nwc/mss_sgmii.c ****             break;
 173              		.loc 1 129 13
 174 00de 25A9     		j	.L36
 175              	.L19:
 130:../src/platform/mpfs_hal/common/nwc/mss_sgmii.c **** 
 131:../src/platform/mpfs_hal/common/nwc/mss_sgmii.c ****         case SGMII_RAMP_TIMER:
 132:../src/platform/mpfs_hal/common/nwc/mss_sgmii.c ****             /*
 133:../src/platform/mpfs_hal/common/nwc/mss_sgmii.c ****              * IO power ramp wait time
 134:../src/platform/mpfs_hal/common/nwc/mss_sgmii.c ****              * After IOEN is received from power detectors DDR and SGMii, extra time
 135:../src/platform/mpfs_hal/common/nwc/mss_sgmii.c ****              * required for voltage to ramp.
 136:../src/platform/mpfs_hal/common/nwc/mss_sgmii.c ****              * This time will come from the user- Dependent on ramp time of power
 137:../src/platform/mpfs_hal/common/nwc/mss_sgmii.c ****              * supply
 138:../src/platform/mpfs_hal/common/nwc/mss_sgmii.c ****              * Approximately - Bank power timer (from ioen_in to ioen_out = 10uS)?
 139:../src/platform/mpfs_hal/common/nwc/mss_sgmii.c ****              *
 140:../src/platform/mpfs_hal/common/nwc/mss_sgmii.c ****              */
 141:../src/platform/mpfs_hal/common/nwc/mss_sgmii.c ****             timer_out++;
 176              		.loc 1 141 22
 177 00e0 97070000 		lla	a5,timer_out.14158
 177      93870700 
 178 00e8 9C43     		lw	a5,0(a5)
 179 00ea 8527     		addiw	a5,a5,1
 180 00ec 1B870700 		sext.w	a4,a5
 181 00f0 97070000 		lla	a5,timer_out.14158
 181      93870700 
 182 00f8 98C3     		sw	a4,0(a5)
 142:../src/platform/mpfs_hal/common/nwc/mss_sgmii.c ****             if(timer_out >= 0xFU)
 183              		.loc 1 142 26
 184 00fa 97070000 		lla	a5,timer_out.14158
 184      93870700 
 185 0102 9C43     		lw	a5,0(a5)
 186              		.loc 1 142 15
 187 0104 3E87     		mv	a4,a5
 188 0106 B947     		li	a5,14
 189 0108 63F9E740 		bleu	a4,a5,.L37
 143:../src/platform/mpfs_hal/common/nwc/mss_sgmii.c ****             {
 144:../src/platform/mpfs_hal/common/nwc/mss_sgmii.c ****                 timer_out=0U;
 190              		.loc 1 144 26
 191 010c 97070000 		lla	a5,timer_out.14158
 191      93870700 
 192 0114 23A00700 		sw	zero,0(a5)
 145:../src/platform/mpfs_hal/common/nwc/mss_sgmii.c ****                 sgmii_training_state = SGMII_IO_SETUP;
 193              		.loc 1 145 38
 194 0118 97070000 		lla	a5,sgmii_training_state.14156
 194      93870700 
 195 0120 0D47     		li	a4,3
 196 0122 98C3     		sw	a4,0(a5)
 146:../src/platform/mpfs_hal/common/nwc/mss_sgmii.c ****             }
 147:../src/platform/mpfs_hal/common/nwc/mss_sgmii.c ****             break;
 197              		.loc 1 147 13
 198 0124 DDAE     		j	.L37
 199              	.L18:
 148:../src/platform/mpfs_hal/common/nwc/mss_sgmii.c **** 
 149:../src/platform/mpfs_hal/common/nwc/mss_sgmii.c ****         case SGMII_IO_SETUP:
 150:../src/platform/mpfs_hal/common/nwc/mss_sgmii.c ****             /*
 151:../src/platform/mpfs_hal/common/nwc/mss_sgmii.c ****              * fixme- not sure if we should be setting this register
 152:../src/platform/mpfs_hal/common/nwc/mss_sgmii.c ****              * From regmap detail:
 153:../src/platform/mpfs_hal/common/nwc/mss_sgmii.c ****              * bit 8 of MSS_RESET_CR
 154:../src/platform/mpfs_hal/common/nwc/mss_sgmii.c ****              * Asserts a reset the SGMII block containing the MSS reference clock
 155:../src/platform/mpfs_hal/common/nwc/mss_sgmii.c ****              * input.
 156:../src/platform/mpfs_hal/common/nwc/mss_sgmii.c ****              * Warning that setting this bit causes the external reference clock
 157:../src/platform/mpfs_hal/common/nwc/mss_sgmii.c ****              * input to the
 158:../src/platform/mpfs_hal/common/nwc/mss_sgmii.c ****              * MSS PLL to disappear.
 159:../src/platform/mpfs_hal/common/nwc/mss_sgmii.c ****              * It is advisable to use the SGMII channel soft resets in the PHY
 160:../src/platform/mpfs_hal/common/nwc/mss_sgmii.c ****              * instead of this bit.
 161:../src/platform/mpfs_hal/common/nwc/mss_sgmii.c ****              * However if E51 software wants to set this bit, the MSS clock source
 162:../src/platform/mpfs_hal/common/nwc/mss_sgmii.c ****              * should be switched over to the standby source in advance.
 163:../src/platform/mpfs_hal/common/nwc/mss_sgmii.c ****              */
 164:../src/platform/mpfs_hal/common/nwc/mss_sgmii.c ****             SCB_REGS->MSS_RESET_CR.MSS_RESET_CR = 0;
 200              		.loc 1 164 21
 201 0126 97070000 		lla	a5,SCB_REGS
 201      93870700 
 202 012e 9C63     		ld	a5,0(a5)
 203              		.loc 1 164 49
 204 0130 23A00710 		sw	zero,256(a5)
 165:../src/platform/mpfs_hal/common/nwc/mss_sgmii.c **** 
 166:../src/platform/mpfs_hal/common/nwc/mss_sgmii.c ****             /*
 167:../src/platform/mpfs_hal/common/nwc/mss_sgmii.c ****              * I ran the sim past the place where we set the nvmap_reset in the
 168:../src/platform/mpfs_hal/common/nwc/mss_sgmii.c ****              * SOFT_RESET_SGMII register and it did not result in any
 169:../src/platform/mpfs_hal/common/nwc/mss_sgmii.c ****              * change from the DLL default bits.
 170:../src/platform/mpfs_hal/common/nwc/mss_sgmii.c ****              * But I traced the 'flashing' signal on one of these regs back to
 171:../src/platform/mpfs_hal/common/nwc/mss_sgmii.c ****              * 'dll0_soft_reset_nv_map' (not 'pll0_soft_reset_periph').
 172:../src/platform/mpfs_hal/common/nwc/mss_sgmii.c ****              * Now the only place I can find 'dll0_soft_reset_nv_map' is in SCB
 173:../src/platform/mpfs_hal/common/nwc/mss_sgmii.c ****              * space...ie 0x3e10_0000 SOFT_RESET register.
 174:../src/platform/mpfs_hal/common/nwc/mss_sgmii.c ****              *
 175:../src/platform/mpfs_hal/common/nwc/mss_sgmii.c ****              */
 176:../src/platform/mpfs_hal/common/nwc/mss_sgmii.c ****             /*
 177:../src/platform/mpfs_hal/common/nwc/mss_sgmii.c ****              * so we have to use scb register to reset as no APB register available
 178:../src/platform/mpfs_hal/common/nwc/mss_sgmii.c ****              * to soft reset the IP
 179:../src/platform/mpfs_hal/common/nwc/mss_sgmii.c ****              * ioscb_dll_sgmii
 180:../src/platform/mpfs_hal/common/nwc/mss_sgmii.c ****              * */
 181:../src/platform/mpfs_hal/common/nwc/mss_sgmii.c ****             IOSCB_DLL_SGMII->soft_reset = (0x01U << 0x00U);  /*  reset sgmii DLL */
 205              		.loc 1 181 28
 206 0134 B707103E 		li	a5,1041235968
 207              		.loc 1 181 41
 208 0138 0547     		li	a4,1
 209 013a 98C3     		sw	a4,0(a5)
 182:../src/platform/mpfs_hal/common/nwc/mss_sgmii.c **** 
 183:../src/platform/mpfs_hal/common/nwc/mss_sgmii.c ****             /*
 184:../src/platform/mpfs_hal/common/nwc/mss_sgmii.c ****               * I have discovered the problem with the tx channels (soft reset issue)
 185:../src/platform/mpfs_hal/common/nwc/mss_sgmii.c ****               * So we require the:
 186:../src/platform/mpfs_hal/common/nwc/mss_sgmii.c ****               *
 187:../src/platform/mpfs_hal/common/nwc/mss_sgmii.c ****               * sgmiiphy_lane 01 soft-reset register (0x3650_0000) to be written to
 188:../src/platform/mpfs_hal/common/nwc/mss_sgmii.c ****               * with 0x1 (to set the nv_map bit[0] =1 (self clears))
 189:../src/platform/mpfs_hal/common/nwc/mss_sgmii.c ****               * same for sgmiiphy_lane 23 soft-reset register (0x3651_0000).
 190:../src/platform/mpfs_hal/common/nwc/mss_sgmii.c ****               *
 191:../src/platform/mpfs_hal/common/nwc/mss_sgmii.c ****               * This will result in the rpc bits for the Lane controls to get loaded.
 192:../src/platform/mpfs_hal/common/nwc/mss_sgmii.c ****               * Not happening currently.
 193:../src/platform/mpfs_hal/common/nwc/mss_sgmii.c ****               *
 194:../src/platform/mpfs_hal/common/nwc/mss_sgmii.c ****               * The soft_reset_sgmii occurs in the mss_ddr.c line 436, so I suppose
 195:../src/platform/mpfs_hal/common/nwc/mss_sgmii.c ****               * we put the 2 new soft reset writes after that.
 196:../src/platform/mpfs_hal/common/nwc/mss_sgmii.c ****               *
 197:../src/platform/mpfs_hal/common/nwc/mss_sgmii.c ****               */
 198:../src/platform/mpfs_hal/common/nwc/mss_sgmii.c ****             {
 199:../src/platform/mpfs_hal/common/nwc/mss_sgmii.c ****                 /* sgmiiphy_lane 01 soft-reset register (0x3650_0000) */
 200:../src/platform/mpfs_hal/common/nwc/mss_sgmii.c ****                 SGMIIPHY_LANE01->soft_reset = 0x000000001U;
 210              		.loc 1 200 32
 211 013c B7075036 		li	a5,911212544
 212              		.loc 1 200 45
 213 0140 0547     		li	a4,1
 214 0142 98C3     		sw	a4,0(a5)
 201:../src/platform/mpfs_hal/common/nwc/mss_sgmii.c ****                 /* sgmiiphy_lane 23 soft-reset register (0x3650_0000) */
 202:../src/platform/mpfs_hal/common/nwc/mss_sgmii.c ****                 SGMIIPHY_LANE23->soft_reset = 0x000000001U;
 215              		.loc 1 202 32
 216 0144 B7075136 		li	a5,911278080
 217              		.loc 1 202 45
 218 0148 0547     		li	a4,1
 219 014a 98C3     		sw	a4,0(a5)
 203:../src/platform/mpfs_hal/common/nwc/mss_sgmii.c ****             }
 204:../src/platform/mpfs_hal/common/nwc/mss_sgmii.c **** 
 205:../src/platform/mpfs_hal/common/nwc/mss_sgmii.c ****             /*
 206:../src/platform/mpfs_hal/common/nwc/mss_sgmii.c ****              * Kick-off calibration, by taking calibration IP out of reset
 207:../src/platform/mpfs_hal/common/nwc/mss_sgmii.c ****              */
 208:../src/platform/mpfs_hal/common/nwc/mss_sgmii.c ****             /*
 209:../src/platform/mpfs_hal/common/nwc/mss_sgmii.c ****              * Soft reset
 210:../src/platform/mpfs_hal/common/nwc/mss_sgmii.c ****              */
 211:../src/platform/mpfs_hal/common/nwc/mss_sgmii.c ****             {
 212:../src/platform/mpfs_hal/common/nwc/mss_sgmii.c ****                 /* PVT soft reset - APB*/
 213:../src/platform/mpfs_hal/common/nwc/mss_sgmii.c ****                 /* reg_pvt_soft_reset_periph  */
 214:../src/platform/mpfs_hal/common/nwc/mss_sgmii.c ****                 CFG_DDR_SGMII_PHY->DYN_CNTL.DYN_CNTL        = (0x01U<< 10U) | (0x7FU<<0U);
 220              		.loc 1 214 34
 221 014c 97070000 		lla	a5,CFG_DDR_SGMII_PHY
 221      93870700 
 222 0154 9863     		ld	a4,0(a5)
 223              		.loc 1 214 61
 224 0156 8567     		li	a5,4096
 225 0158 BA97     		add	a5,a4,a5
 226 015a 1307F047 		li	a4,1151
 227 015e 23AEE7C0 		sw	a4,-996(a5)
 215:../src/platform/mpfs_hal/common/nwc/mss_sgmii.c ****                 /* reg_pvt_soft_reset_periph  */
 216:../src/platform/mpfs_hal/common/nwc/mss_sgmii.c ****                 CFG_DDR_SGMII_PHY->DYN_CNTL.DYN_CNTL        = (0x7FU<<0U);
 228              		.loc 1 216 34
 229 0162 97070000 		lla	a5,CFG_DDR_SGMII_PHY
 229      93870700 
 230 016a 9863     		ld	a4,0(a5)
 231              		.loc 1 216 61
 232 016c 8567     		li	a5,4096
 233 016e BA97     		add	a5,a4,a5
 234 0170 1307F007 		li	a4,127
 235 0174 23AEE7C0 		sw	a4,-996(a5)
 217:../src/platform/mpfs_hal/common/nwc/mss_sgmii.c ****                 /* PVT soft reset - SCB */
 218:../src/platform/mpfs_hal/common/nwc/mss_sgmii.c ****                 /* make sure out of reset */
 219:../src/platform/mpfs_hal/common/nwc/mss_sgmii.c ****                 IOSCB_IO_CALIB_SGMII->SOFT_RESET_IOCALIB    = 0x1U;
 236              		.loc 1 219 37
 237 0178 97070000 		lla	a5,IOSCB_IO_CALIB_SGMII
 237      93870700 
 238 0180 9C63     		ld	a5,0(a5)
 239              		.loc 1 219 61
 240 0182 0547     		li	a4,1
 241 0184 98C3     		sw	a4,0(a5)
 220:../src/platform/mpfs_hal/common/nwc/mss_sgmii.c ****                 /* make sure out of reset */
 221:../src/platform/mpfs_hal/common/nwc/mss_sgmii.c ****                 IOSCB_IO_CALIB_SGMII->SOFT_RESET_IOCALIB    = 0x0U;
 242              		.loc 1 221 37
 243 0186 97070000 		lla	a5,IOSCB_IO_CALIB_SGMII
 243      93870700 
 244 018e 9C63     		ld	a5,0(a5)
 245              		.loc 1 221 61
 246 0190 23A00700 		sw	zero,0(a5)
 222:../src/platform/mpfs_hal/common/nwc/mss_sgmii.c ****             }
 223:../src/platform/mpfs_hal/common/nwc/mss_sgmii.c ****             sgmii_training_state = SGMII_WAIT_FOR_CALIB_COMPLETE;
 247              		.loc 1 223 34
 248 0194 97070000 		lla	a5,sgmii_training_state.14156
 248      93870700 
 249 019c 1147     		li	a4,4
 250 019e 98C3     		sw	a4,0(a5)
 224:../src/platform/mpfs_hal/common/nwc/mss_sgmii.c ****             break;
 251              		.loc 1 224 13
 252 01a0 71A6     		j	.L5
 253              	.L17:
 225:../src/platform/mpfs_hal/common/nwc/mss_sgmii.c **** 
 226:../src/platform/mpfs_hal/common/nwc/mss_sgmii.c ****         case SGMII_WAIT_FOR_CALIB_COMPLETE:
 227:../src/platform/mpfs_hal/common/nwc/mss_sgmii.c ****             /*
 228:../src/platform/mpfs_hal/common/nwc/mss_sgmii.c ****              * Verify calibration
 229:../src/platform/mpfs_hal/common/nwc/mss_sgmii.c ****              * Bank 5 PVT calibrator can be controlled by MSS firmware through APB
 230:../src/platform/mpfs_hal/common/nwc/mss_sgmii.c ****              * registers to do initial calibration and re-calibration. During startup,
 231:../src/platform/mpfs_hal/common/nwc/mss_sgmii.c ****              * the initial calibration can be started by default when MSS releases SGMII
 232:../src/platform/mpfs_hal/common/nwc/mss_sgmii.c ****              * reset. Re-calibration is enabled by default with reg_pvt_calib_start/lock
 233:../src/platform/mpfs_hal/common/nwc/mss_sgmii.c ****              * bits being set to 1 before startup, and MSS firmware can start
 234:../src/platform/mpfs_hal/common/nwc/mss_sgmii.c ****              * re-calibration after startup by toggling  pvt_calib_start/lock bits per
 235:../src/platform/mpfs_hal/common/nwc/mss_sgmii.c ****              * PVT calibrator spec.
 236:../src/platform/mpfs_hal/common/nwc/mss_sgmii.c ****              *
 237:../src/platform/mpfs_hal/common/nwc/mss_sgmii.c ****              */
 238:../src/platform/mpfs_hal/common/nwc/mss_sgmii.c ****             if((CFG_DDR_SGMII_PHY->PVT_STAT.PVT_STAT & (1U << 14U)) == (1U << 14U))
 254              		.loc 1 238 34
 255 01a2 97070000 		lla	a5,CFG_DDR_SGMII_PHY
 255      93870700 
 256 01aa 9863     		ld	a4,0(a5)
 257              		.loc 1 238 44
 258 01ac 8567     		li	a5,4096
 259 01ae BA97     		add	a5,a4,a5
 260 01b0 83A707C2 		lw	a5,-992(a5)
 261 01b4 8127     		sext.w	a5,a5
 262              		.loc 1 238 54
 263 01b6 3E87     		mv	a4,a5
 264 01b8 9167     		li	a5,16384
 265 01ba F98F     		and	a5,a4,a5
 266 01bc 8127     		sext.w	a5,a5
 267              		.loc 1 238 15
 268 01be 3E87     		mv	a4,a5
 269 01c0 9167     		li	a5,16384
 270 01c2 631EF734 		bne	a4,a5,.L38
 239:../src/platform/mpfs_hal/common/nwc/mss_sgmii.c ****             {
 240:../src/platform/mpfs_hal/common/nwc/mss_sgmii.c ****                 sgmii_training_state = SGMII_ASSERT_CALIB_LOCK;
 271              		.loc 1 240 38
 272 01c6 97070000 		lla	a5,sgmii_training_state.14156
 272      93870700 
 273 01ce 1547     		li	a4,5
 274 01d0 98C3     		sw	a4,0(a5)
 241:../src/platform/mpfs_hal/common/nwc/mss_sgmii.c ****             }
 242:../src/platform/mpfs_hal/common/nwc/mss_sgmii.c ****             break;
 275              		.loc 1 242 13
 276 01d2 B1A6     		j	.L38
 277              	.L16:
 243:../src/platform/mpfs_hal/common/nwc/mss_sgmii.c **** 
 244:../src/platform/mpfs_hal/common/nwc/mss_sgmii.c ****         case SGMII_ASSERT_CALIB_LOCK:
 245:../src/platform/mpfs_hal/common/nwc/mss_sgmii.c ****             /*
 246:../src/platform/mpfs_hal/common/nwc/mss_sgmii.c ****              * now assert calib lock
 247:../src/platform/mpfs_hal/common/nwc/mss_sgmii.c ****              *    calibrated pcode and ncode will be written.
 248:../src/platform/mpfs_hal/common/nwc/mss_sgmii.c ****              * */
 249:../src/platform/mpfs_hal/common/nwc/mss_sgmii.c **** 
 250:../src/platform/mpfs_hal/common/nwc/mss_sgmii.c ****             CFG_DDR_SGMII_PHY->PVT_STAT.PVT_STAT |= 0x40000000UL;
 278              		.loc 1 250 50
 279 01d4 97070000 		lla	a5,CFG_DDR_SGMII_PHY
 279      93870700 
 280 01dc 9863     		ld	a4,0(a5)
 281 01de 8567     		li	a5,4096
 282 01e0 BA97     		add	a5,a4,a5
 283 01e2 83A707C2 		lw	a5,-992(a5)
 284 01e6 1B870700 		sext.w	a4,a5
 285 01ea 97070000 		lla	a5,CFG_DDR_SGMII_PHY
 285      93870700 
 286 01f2 9463     		ld	a3,0(a5)
 287 01f4 B7070040 		li	a5,1073741824
 288 01f8 D98F     		or	a5,a4,a5
 289 01fa 1B870700 		sext.w	a4,a5
 290 01fe 8567     		li	a5,4096
 291 0200 B697     		add	a5,a3,a5
 292 0202 23A0E7C2 		sw	a4,-992(a5)
 251:../src/platform/mpfs_hal/common/nwc/mss_sgmii.c ****             IOSCB_IO_CALIB_SGMII->IOC_REG0       |= (0x01U<<14U);
 293              		.loc 1 251 50
 294 0206 97070000 		lla	a5,IOSCB_IO_CALIB_SGMII
 294      93870700 
 295 020e 9C63     		ld	a5,0(a5)
 296 0210 DC43     		lw	a5,4(a5)
 297 0212 1B870700 		sext.w	a4,a5
 298 0216 97070000 		lla	a5,IOSCB_IO_CALIB_SGMII
 298      93870700 
 299 021e 9C63     		ld	a5,0(a5)
 300 0220 BA86     		mv	a3,a4
 301 0222 1167     		li	a4,16384
 302 0224 558F     		or	a4,a3,a4
 303 0226 0127     		sext.w	a4,a4
 304 0228 D8C3     		sw	a4,4(a5)
 252:../src/platform/mpfs_hal/common/nwc/mss_sgmii.c ****             sgmii_training_state = SGMII_SET_UP_PLL;
 305              		.loc 1 252 34
 306 022a 97070000 		lla	a5,sgmii_training_state.14156
 306      93870700 
 307 0232 1947     		li	a4,6
 308 0234 98C3     		sw	a4,0(a5)
 253:../src/platform/mpfs_hal/common/nwc/mss_sgmii.c ****             break;
 309              		.loc 1 253 13
 310 0236 DDAC     		j	.L5
 311              	.L15:
 254:../src/platform/mpfs_hal/common/nwc/mss_sgmii.c **** 
 255:../src/platform/mpfs_hal/common/nwc/mss_sgmii.c ****         case SGMII_SET_UP_PLL:
 256:../src/platform/mpfs_hal/common/nwc/mss_sgmii.c ****             /*
 257:../src/platform/mpfs_hal/common/nwc/mss_sgmii.c ****               * SGMii Step 3)   Wait for PLL and DLL lock
 258:../src/platform/mpfs_hal/common/nwc/mss_sgmii.c ****               * Delay codes generated
 259:../src/platform/mpfs_hal/common/nwc/mss_sgmii.c ****               */
 260:../src/platform/mpfs_hal/common/nwc/mss_sgmii.c **** 
 261:../src/platform/mpfs_hal/common/nwc/mss_sgmii.c ****             /* 0U => configure using scb, 1U => NVMAP reset */
 262:../src/platform/mpfs_hal/common/nwc/mss_sgmii.c ****             sgmii_mux_config(RPC_REG_UPDATE);
 312              		.loc 1 262 13
 313 0238 0545     		li	a0,1
 314 023a 97000000 		call	sgmii_mux_config
 314      E7800000 
 263:../src/platform/mpfs_hal/common/nwc/mss_sgmii.c ****             /* 0U => configure using scb, 1U => NVMAP reset */
 264:../src/platform/mpfs_hal/common/nwc/mss_sgmii.c ****             sgmii_pll_config_scb(RPC_REG_UPDATE);
 315              		.loc 1 264 13
 316 0242 0545     		li	a0,1
 317 0244 97000000 		call	sgmii_pll_config_scb
 317      E7800000 
 265:../src/platform/mpfs_hal/common/nwc/mss_sgmii.c **** 
 266:../src/platform/mpfs_hal/common/nwc/mss_sgmii.c ****             timer_out=0U;
 318              		.loc 1 266 22
 319 024c 97070000 		lla	a5,timer_out.14158
 319      93870700 
 320 0254 23A00700 		sw	zero,0(a5)
 267:../src/platform/mpfs_hal/common/nwc/mss_sgmii.c ****             sgmii_training_state = SGMII_WAIT_FOR_MSS_LOCK;
 321              		.loc 1 267 34
 322 0258 97070000 		lla	a5,sgmii_training_state.14156
 322      93870700 
 323 0260 1D47     		li	a4,7
 324 0262 98C3     		sw	a4,0(a5)
 268:../src/platform/mpfs_hal/common/nwc/mss_sgmii.c ****             break;
 325              		.loc 1 268 13
 326 0264 E1A4     		j	.L5
 327              	.L14:
 269:../src/platform/mpfs_hal/common/nwc/mss_sgmii.c **** 
 270:../src/platform/mpfs_hal/common/nwc/mss_sgmii.c ****         case SGMII_WAIT_FOR_MSS_LOCK:
 271:../src/platform/mpfs_hal/common/nwc/mss_sgmii.c ****             if (CFG_DDR_SGMII_PHY->PLL_CNTL.PLL_CNTL & (1U<<7U))
 328              		.loc 1 271 34
 329 0266 97070000 		lla	a5,CFG_DDR_SGMII_PHY
 329      93870700 
 330 026e 9863     		ld	a4,0(a5)
 331              		.loc 1 271 44
 332 0270 8567     		li	a5,4096
 333 0272 BA97     		add	a5,a4,a5
 334 0274 83A787C0 		lw	a5,-1016(a5)
 335 0278 8127     		sext.w	a5,a5
 336              		.loc 1 271 54
 337 027a 93F70708 		andi	a5,a5,128
 338 027e 8127     		sext.w	a5,a5
 339              		.loc 1 271 16
 340 0280 6381072A 		beq	a5,zero,.L39
 272:../src/platform/mpfs_hal/common/nwc/mss_sgmii.c ****             {
 273:../src/platform/mpfs_hal/common/nwc/mss_sgmii.c ****                 sgmii_training_state = SGMII_WAIT_FOR_DLL_LOCK;
 341              		.loc 1 273 38
 342 0284 97070000 		lla	a5,sgmii_training_state.14156
 342      93870700 
 343 028c 2147     		li	a4,8
 344 028e 98C3     		sw	a4,0(a5)
 274:../src/platform/mpfs_hal/common/nwc/mss_sgmii.c ****             }
 275:../src/platform/mpfs_hal/common/nwc/mss_sgmii.c ****             break;
 345              		.loc 1 275 13
 346 0290 49AC     		j	.L39
 347              	.L13:
 276:../src/platform/mpfs_hal/common/nwc/mss_sgmii.c **** 
 277:../src/platform/mpfs_hal/common/nwc/mss_sgmii.c ****         case SGMII_WAIT_FOR_DLL_LOCK:
 278:../src/platform/mpfs_hal/common/nwc/mss_sgmii.c ****             if (CFG_DDR_SGMII_PHY->RECAL_CNTL.RECAL_CNTL & (1U<<23U))
 348              		.loc 1 278 34
 349 0292 97070000 		lla	a5,CFG_DDR_SGMII_PHY
 349      93870700 
 350 029a 9863     		ld	a4,0(a5)
 351              		.loc 1 278 46
 352 029c 8567     		li	a5,4096
 353 029e BA97     		add	a5,a4,a5
 354 02a0 83A747C1 		lw	a5,-1004(a5)
 355 02a4 8127     		sext.w	a5,a5
 356              		.loc 1 278 58
 357 02a6 3E87     		mv	a4,a5
 358 02a8 B7078000 		li	a5,8388608
 359 02ac F98F     		and	a5,a4,a5
 360 02ae 8127     		sext.w	a5,a5
 361              		.loc 1 278 16
 362 02b0 638B0726 		beq	a5,zero,.L40
 279:../src/platform/mpfs_hal/common/nwc/mss_sgmii.c ****             {
 280:../src/platform/mpfs_hal/common/nwc/mss_sgmii.c ****                 sgmii_training_state = SGMII_TURN_ON_MACS;
 363              		.loc 1 280 38
 364 02b4 97070000 		lla	a5,sgmii_training_state.14156
 364      93870700 
 365 02bc 2547     		li	a4,9
 366 02be 98C3     		sw	a4,0(a5)
 281:../src/platform/mpfs_hal/common/nwc/mss_sgmii.c ****             }
 282:../src/platform/mpfs_hal/common/nwc/mss_sgmii.c ****             break;
 367              		.loc 1 282 13
 368 02c0 9DA4     		j	.L40
 369              	.L12:
 283:../src/platform/mpfs_hal/common/nwc/mss_sgmii.c **** 
 284:../src/platform/mpfs_hal/common/nwc/mss_sgmii.c ****         case SGMII_TURN_ON_MACS:
 285:../src/platform/mpfs_hal/common/nwc/mss_sgmii.c ****             /*
 286:../src/platform/mpfs_hal/common/nwc/mss_sgmii.c ****              * Provide mac clocks
 287:../src/platform/mpfs_hal/common/nwc/mss_sgmii.c ****              * The nw_config register for mac0 (0x2011_0004): I am forcing 'gigabit' and
 288:../src/platform/mpfs_hal/common/nwc/mss_sgmii.c ****              * 'tbi' bits = 11.
 289:../src/platform/mpfs_hal/common/nwc/mss_sgmii.c ****              * The same for Mac1.
 290:../src/platform/mpfs_hal/common/nwc/mss_sgmii.c ****              * This starts up the tx_mac_clocks for the 2 macs.
 291:../src/platform/mpfs_hal/common/nwc/mss_sgmii.c ****              *
 292:../src/platform/mpfs_hal/common/nwc/mss_sgmii.c ****              */
 293:../src/platform/mpfs_hal/common/nwc/mss_sgmii.c ****             /* the mac clocks need to be turned on when setting up the sgmii */
 294:../src/platform/mpfs_hal/common/nwc/mss_sgmii.c ****             (void)mss_config_clk_rst(MSS_PERIPH_MAC0, (uint8_t) MPFS_HAL_FIRST_HART, PERIPHERAL_ON)
 370              		.loc 1 294 19
 371 02c2 0146     		li	a2,0
 372 02c4 8145     		li	a1,0
 373 02c6 4145     		li	a0,16
 374 02c8 97000000 		call	mss_config_clk_rst
 374      E7800000 
 295:../src/platform/mpfs_hal/common/nwc/mss_sgmii.c ****             (void)mss_config_clk_rst(MSS_PERIPH_MAC0, (uint8_t) MPFS_HAL_FIRST_HART, PERIPHERAL_ON)
 375              		.loc 1 295 19
 376 02d0 0146     		li	a2,0
 377 02d2 8145     		li	a1,0
 378 02d4 4145     		li	a0,16
 379 02d6 97000000 		call	mss_config_clk_rst
 379      E7800000 
 296:../src/platform/mpfs_hal/common/nwc/mss_sgmii.c ****             GEM_A_LO->network_config |= (0x01U << 10U) | (0x01U << 11U);   /* GEM0 */
 380              		.loc 1 296 38
 381 02de B7071120 		li	a5,537985024
 382 02e2 9107     		addi	a5,a5,4
 383 02e4 DC43     		lw	a5,4(a5)
 384 02e6 1B870700 		sext.w	a4,a5
 385 02ea B7071120 		li	a5,537985024
 386 02ee 9107     		addi	a5,a5,4
 387 02f0 BA86     		mv	a3,a4
 388 02f2 0567     		li	a4,4096
 389 02f4 130707C0 		addi	a4,a4,-1024
 390 02f8 558F     		or	a4,a3,a4
 391 02fa 0127     		sext.w	a4,a4
 392 02fc D8C3     		sw	a4,4(a5)
 297:../src/platform/mpfs_hal/common/nwc/mss_sgmii.c ****             GEM_B_LO->network_config |= (0x01U << 10U) | (0x01U << 11U);   /* GEM1 */
 393              		.loc 1 297 38
 394 02fe B7271120 		li	a5,537993216
 395 0302 9107     		addi	a5,a5,4
 396 0304 DC43     		lw	a5,4(a5)
 397 0306 1B870700 		sext.w	a4,a5
 398 030a B7271120 		li	a5,537993216
 399 030e 9107     		addi	a5,a5,4
 400 0310 BA86     		mv	a3,a4
 401 0312 0567     		li	a4,4096
 402 0314 130707C0 		addi	a4,a4,-1024
 403 0318 558F     		or	a4,a3,a4
 404 031a 0127     		sext.w	a4,a4
 405 031c D8C3     		sw	a4,4(a5)
 298:../src/platform/mpfs_hal/common/nwc/mss_sgmii.c ****             sgmii_training_state = SGMII_DETERMINE_SILICON_VARIANT;
 406              		.loc 1 298 34
 407 031e 97070000 		lla	a5,sgmii_training_state.14156
 407      93870700 
 408 0326 2947     		li	a4,10
 409 0328 98C3     		sw	a4,0(a5)
 299:../src/platform/mpfs_hal/common/nwc/mss_sgmii.c ****             break;
 410              		.loc 1 299 13
 411 032a 09A4     		j	.L5
 412              	.L11:
 300:../src/platform/mpfs_hal/common/nwc/mss_sgmii.c **** 
 301:../src/platform/mpfs_hal/common/nwc/mss_sgmii.c ****         case SGMII_DETERMINE_SILICON_VARIANT:
 302:../src/platform/mpfs_hal/common/nwc/mss_sgmii.c ****             /*
 303:../src/platform/mpfs_hal/common/nwc/mss_sgmii.c ****              * Determine Silicon variant from generated dll generated sro_dll_90_code
 304:../src/platform/mpfs_hal/common/nwc/mss_sgmii.c ****              */
 305:../src/platform/mpfs_hal/common/nwc/mss_sgmii.c ****             sro_dll_90_code = ((CFG_DDR_SGMII_PHY->RECAL_CNTL.RECAL_CNTL >> 16U) & 0x7FU);
 413              		.loc 1 305 50
 414 032c 97070000 		lla	a5,CFG_DDR_SGMII_PHY
 414      93870700 
 415 0334 9863     		ld	a4,0(a5)
 416              		.loc 1 305 62
 417 0336 8567     		li	a5,4096
 418 0338 BA97     		add	a5,a4,a5
 419 033a 83A747C1 		lw	a5,-1004(a5)
 420 033e 8127     		sext.w	a5,a5
 421              		.loc 1 305 74
 422 0340 9BD70701 		srliw	a5,a5,16
 423 0344 8127     		sext.w	a5,a5
 424              		.loc 1 305 82
 425 0346 93F7F707 		andi	a5,a5,127
 426 034a 1B870700 		sext.w	a4,a5
 427              		.loc 1 305 29
 428 034e 97070000 		lla	a5,sro_dll_90_code
 428      93870700 
 429 0356 98C3     		sw	a4,0(a5)
 306:../src/platform/mpfs_hal/common/nwc/mss_sgmii.c **** 
 307:../src/platform/mpfs_hal/common/nwc/mss_sgmii.c ****             if(CFG_DDR_SGMII_PHY->SPARE_STAT.SPARE_STAT & (01U<<31U)) /* bit31 == 1 => post rev B s
 430              		.loc 1 307 33
 431 0358 97070000 		lla	a5,CFG_DDR_SGMII_PHY
 431      93870700 
 432 0360 9863     		ld	a4,0(a5)
 433              		.loc 1 307 45
 434 0362 8567     		li	a5,4096
 435 0364 BA97     		add	a5,a4,a5
 436 0366 83A787C2 		lw	a5,-984(a5)
 437 036a 8127     		sext.w	a5,a5
 438              		.loc 1 307 16
 439 036c 8127     		sext.w	a5,a5
 440              		.loc 1 307 15
 441 036e 63DF0700 		bge	a5,zero,.L27
 308:../src/platform/mpfs_hal/common/nwc/mss_sgmii.c ****             {
 309:../src/platform/mpfs_hal/common/nwc/mss_sgmii.c ****                 silicon_variant = PART_REVC_OR_LATER;
 442              		.loc 1 309 33
 443 0372 97070000 		lla	a5,silicon_variant
 443      93870700 
 444 037a 0547     		li	a4,1
 445 037c 98C3     		sw	a4,0(a5)
 310:../src/platform/mpfs_hal/common/nwc/mss_sgmii.c ****                 set_early_late_thresholds(LATE_EYE_WIDTH_PART_REVC_OR_LATER_PRE_TEST, EARLY_EYE_WID
 446              		.loc 1 310 17
 447 037e 9D45     		li	a1,7
 448 0380 1945     		li	a0,6
 449 0382 97000000 		call	set_early_late_thresholds
 449      E7800000 
 450 038a 99A0     		j	.L28
 451              	.L27:
 311:../src/platform/mpfs_hal/common/nwc/mss_sgmii.c ****             }
 312:../src/platform/mpfs_hal/common/nwc/mss_sgmii.c ****             else
 313:../src/platform/mpfs_hal/common/nwc/mss_sgmii.c ****             {
 314:../src/platform/mpfs_hal/common/nwc/mss_sgmii.c ****                 /*
 315:../src/platform/mpfs_hal/common/nwc/mss_sgmii.c ****                  * SS  part expect  < 13
 316:../src/platform/mpfs_hal/common/nwc/mss_sgmii.c ****                  * typical-typical  or FF expect  > 13
 317:../src/platform/mpfs_hal/common/nwc/mss_sgmii.c ****                  */
 318:../src/platform/mpfs_hal/common/nwc/mss_sgmii.c ****                 if(sro_dll_90_code < MIN_DLL_90_CODE_VALUE_INDICATING_TT_PART_REVB) /* SS part */
 452              		.loc 1 318 36
 453 038c 97070000 		lla	a5,sro_dll_90_code
 453      93870700 
 454 0394 9C43     		lw	a5,0(a5)
 455              		.loc 1 318 19
 456 0396 3E87     		mv	a4,a5
 457 0398 B147     		li	a5,12
 458 039a 63EFE700 		bgtu	a4,a5,.L29
 319:../src/platform/mpfs_hal/common/nwc/mss_sgmii.c ****                 {
 320:../src/platform/mpfs_hal/common/nwc/mss_sgmii.c ****                     silicon_variant = SS_PART_REVB;
 459              		.loc 1 320 37
 460 039e 97070000 		lla	a5,silicon_variant
 460      93870700 
 461 03a6 0947     		li	a4,2
 462 03a8 98C3     		sw	a4,0(a5)
 321:../src/platform/mpfs_hal/common/nwc/mss_sgmii.c ****                     set_early_late_thresholds(LATE_EYE_WIDTH_SS_PART_REVB, EARLY_EYE_WIDTH_SS_PART_
 463              		.loc 1 321 21
 464 03aa 9545     		li	a1,5
 465 03ac 1945     		li	a0,6
 466 03ae 97000000 		call	set_early_late_thresholds
 466      E7800000 
 467 03b6 29A8     		j	.L28
 468              	.L29:
 322:../src/platform/mpfs_hal/common/nwc/mss_sgmii.c ****                 }
 323:../src/platform/mpfs_hal/common/nwc/mss_sgmii.c ****                 else
 324:../src/platform/mpfs_hal/common/nwc/mss_sgmii.c ****                 {
 325:../src/platform/mpfs_hal/common/nwc/mss_sgmii.c ****                     silicon_variant = TT_PART_REVB;
 469              		.loc 1 325 37
 470 03b8 97070000 		lla	a5,silicon_variant
 470      93870700 
 471 03c0 0D47     		li	a4,3
 472 03c2 98C3     		sw	a4,0(a5)
 326:../src/platform/mpfs_hal/common/nwc/mss_sgmii.c ****                     set_early_late_thresholds(LATE_TT_PART_REVB, EARLY_TT_PART_REVB);
 473              		.loc 1 326 21
 474 03c4 9945     		li	a1,6
 475 03c6 1D45     		li	a0,7
 476 03c8 97000000 		call	set_early_late_thresholds
 476      E7800000 
 477              	.L28:
 327:../src/platform/mpfs_hal/common/nwc/mss_sgmii.c ****                 }
 328:../src/platform/mpfs_hal/common/nwc/mss_sgmii.c ****             }
 329:../src/platform/mpfs_hal/common/nwc/mss_sgmii.c ****             sgmii_training_state = SGMII_RESET_CHANNELS;
 478              		.loc 1 329 34
 479 03d0 97070000 		lla	a5,sgmii_training_state.14156
 479      93870700 
 480 03d8 2D47     		li	a4,11
 481 03da 98C3     		sw	a4,0(a5)
 330:../src/platform/mpfs_hal/common/nwc/mss_sgmii.c ****             break;
 482              		.loc 1 330 13
 483 03dc 81AA     		j	.L5
 484              	.L10:
 331:../src/platform/mpfs_hal/common/nwc/mss_sgmii.c **** 
 332:../src/platform/mpfs_hal/common/nwc/mss_sgmii.c ****         case SGMII_RESET_CHANNELS:
 333:../src/platform/mpfs_hal/common/nwc/mss_sgmii.c ****             /*
 334:../src/platform/mpfs_hal/common/nwc/mss_sgmii.c ****              * DLL soft reset                   - Already configured
 335:../src/platform/mpfs_hal/common/nwc/mss_sgmii.c ****              * PVT soft reset                   - Already configured
 336:../src/platform/mpfs_hal/common/nwc/mss_sgmii.c ****              * Bank controller soft reset       - Already configured
 337:../src/platform/mpfs_hal/common/nwc/mss_sgmii.c ****              * CLKMUX soft reset                - Already configured
 338:../src/platform/mpfs_hal/common/nwc/mss_sgmii.c ****              * Lane0 soft reset                 - must be soft reset here
 339:../src/platform/mpfs_hal/common/nwc/mss_sgmii.c ****              * Lane1 soft reset                 - must be soft reset here
 340:../src/platform/mpfs_hal/common/nwc/mss_sgmii.c ****              *
 341:../src/platform/mpfs_hal/common/nwc/mss_sgmii.c ****              *      __IO  uint32_t               reg_lane0_soft_reset_periph :1;  bit 13
 342:../src/platform/mpfs_hal/common/nwc/mss_sgmii.c ****              *      __IO  uint32_t               reg_lane1_soft_reset_periph :1;  bit 14
 343:../src/platform/mpfs_hal/common/nwc/mss_sgmii.c ****              */
 344:../src/platform/mpfs_hal/common/nwc/mss_sgmii.c ****             CFG_DDR_SGMII_PHY->DYN_CNTL.DYN_CNTL  = (1U << 14U)|(1U << 13U)|(0x7FU<<0U);
 485              		.loc 1 344 30
 486 03de 97070000 		lla	a5,CFG_DDR_SGMII_PHY
 486      93870700 
 487 03e6 9863     		ld	a4,0(a5)
 488              		.loc 1 344 51
 489 03e8 8567     		li	a5,4096
 490 03ea BA97     		add	a5,a4,a5
 491 03ec 1967     		li	a4,24576
 492 03ee 1307F707 		addi	a4,a4,127
 493 03f2 23AEE7C0 		sw	a4,-996(a5)
 345:../src/platform/mpfs_hal/common/nwc/mss_sgmii.c ****             CFG_DDR_SGMII_PHY->DYN_CNTL.DYN_CNTL  = (0U << 14U)|(0U << 13U)|(0x7FU<<0U);
 494              		.loc 1 345 30
 495 03f6 97070000 		lla	a5,CFG_DDR_SGMII_PHY
 495      93870700 
 496 03fe 9863     		ld	a4,0(a5)
 497              		.loc 1 345 51
 498 0400 8567     		li	a5,4096
 499 0402 BA97     		add	a5,a4,a5
 500 0404 1307F007 		li	a4,127
 501 0408 23AEE7C0 		sw	a4,-996(a5)
 346:../src/platform/mpfs_hal/common/nwc/mss_sgmii.c ****             if(silicon_variant == PART_REVC_OR_LATER)
 502              		.loc 1 346 32
 503 040c 97070000 		lla	a5,silicon_variant
 503      93870700 
 504 0414 9C43     		lw	a5,0(a5)
 505              		.loc 1 346 15
 506 0416 3E87     		mv	a4,a5
 507 0418 8547     		li	a5,1
 508 041a 631FF700 		bne	a4,a5,.L30
 347:../src/platform/mpfs_hal/common/nwc/mss_sgmii.c ****             {
 348:../src/platform/mpfs_hal/common/nwc/mss_sgmii.c ****                 timer_out=0U;
 509              		.loc 1 348 26
 510 041e 97070000 		lla	a5,timer_out.14158
 510      93870700 
 511 0426 23A00700 		sw	zero,0(a5)
 349:../src/platform/mpfs_hal/common/nwc/mss_sgmii.c ****                 sgmii_training_state = SGMII_WAIT_10MS;
 512              		.loc 1 349 38
 513 042a 97070000 		lla	a5,sgmii_training_state.14156
 513      93870700 
 514 0432 3147     		li	a4,12
 515 0434 98C3     		sw	a4,0(a5)
 350:../src/platform/mpfs_hal/common/nwc/mss_sgmii.c ****             }
 351:../src/platform/mpfs_hal/common/nwc/mss_sgmii.c ****             else
 352:../src/platform/mpfs_hal/common/nwc/mss_sgmii.c ****             {
 353:../src/platform/mpfs_hal/common/nwc/mss_sgmii.c ****                 sgmii_training_state = SGMII_CHANNELS_UP;
 354:../src/platform/mpfs_hal/common/nwc/mss_sgmii.c ****             }
 355:../src/platform/mpfs_hal/common/nwc/mss_sgmii.c ****             break;
 516              		.loc 1 355 13
 517 0436 DDA8     		j	.L5
 518              	.L30:
 353:../src/platform/mpfs_hal/common/nwc/mss_sgmii.c ****             }
 519              		.loc 1 353 38
 520 0438 97070000 		lla	a5,sgmii_training_state.14156
 520      93870700 
 521 0440 3947     		li	a4,14
 522 0442 98C3     		sw	a4,0(a5)
 523              		.loc 1 355 13
 524 0444 E5A0     		j	.L5
 525              	.L9:
 356:../src/platform/mpfs_hal/common/nwc/mss_sgmii.c **** 
 357:../src/platform/mpfs_hal/common/nwc/mss_sgmii.c ****         case SGMII_WAIT_10MS:
 358:../src/platform/mpfs_hal/common/nwc/mss_sgmii.c ****             timer_out++;
 526              		.loc 1 358 22
 527 0446 97070000 		lla	a5,timer_out.14158
 527      93870700 
 528 044e 9C43     		lw	a5,0(a5)
 529 0450 8527     		addiw	a5,a5,1
 530 0452 1B870700 		sext.w	a4,a5
 531 0456 97070000 		lla	a5,timer_out.14158
 531      93870700 
 532 045e 98C3     		sw	a4,0(a5)
 359:../src/platform/mpfs_hal/common/nwc/mss_sgmii.c ****             if(timer_out >= 0xFFFU)
 533              		.loc 1 359 26
 534 0460 97070000 		lla	a5,timer_out.14158
 534      93870700 
 535 0468 9C43     		lw	a5,0(a5)
 536              		.loc 1 359 15
 537 046a 3E87     		mv	a4,a5
 538 046c 8567     		li	a5,4096
 539 046e F917     		addi	a5,a5,-2
 540 0470 63FDE70A 		bleu	a4,a5,.L41
 360:../src/platform/mpfs_hal/common/nwc/mss_sgmii.c ****             {
 361:../src/platform/mpfs_hal/common/nwc/mss_sgmii.c ****                 timer_out=0U;
 541              		.loc 1 361 26
 542 0474 97070000 		lla	a5,timer_out.14158
 542      93870700 
 543 047c 23A00700 		sw	zero,0(a5)
 362:../src/platform/mpfs_hal/common/nwc/mss_sgmii.c ****                 sgmii_training_state = SGMII_CHECK_REVC_RESULT;
 544              		.loc 1 362 38
 545 0480 97070000 		lla	a5,sgmii_training_state.14156
 545      93870700 
 546 0488 3547     		li	a4,13
 547 048a 98C3     		sw	a4,0(a5)
 363:../src/platform/mpfs_hal/common/nwc/mss_sgmii.c ****             }
 364:../src/platform/mpfs_hal/common/nwc/mss_sgmii.c ****             break;
 548              		.loc 1 364 13
 549 048c 79A8     		j	.L41
 550              	.L8:
 365:../src/platform/mpfs_hal/common/nwc/mss_sgmii.c **** 
 366:../src/platform/mpfs_hal/common/nwc/mss_sgmii.c ****         case SGMII_CHECK_REVC_RESULT:
 367:../src/platform/mpfs_hal/common/nwc/mss_sgmii.c ****             if ( (CFG_DDR_SGMII_PHY->SPARE_STAT.SPARE_STAT & ARO_REF_PCODE_MASK) > ARO_REF_PCODE_RE
 551              		.loc 1 367 36
 552 048e 97070000 		lla	a5,CFG_DDR_SGMII_PHY
 552      93870700 
 553 0496 9863     		ld	a4,0(a5)
 554              		.loc 1 367 48
 555 0498 8567     		li	a5,4096
 556 049a BA97     		add	a5,a4,a5
 557 049c 83A787C2 		lw	a5,-984(a5)
 558 04a0 8127     		sext.w	a5,a5
 559              		.loc 1 367 60
 560 04a2 8217     		slli	a5,a5,32
 561 04a4 8193     		srli	a5,a5,32
 562 04a6 13F7F703 		andi	a4,a5,63
 563              		.loc 1 367 16
 564 04aa 93070004 		li	a5,64
 565 04ae 63F9E700 		bleu	a4,a5,.L33
 368:../src/platform/mpfs_hal/common/nwc/mss_sgmii.c ****             {
 369:../src/platform/mpfs_hal/common/nwc/mss_sgmii.c ****                 /* OK, we are good */
 370:../src/platform/mpfs_hal/common/nwc/mss_sgmii.c ****                 sgmii_training_state = SGMII_CHANNELS_UP;
 566              		.loc 1 370 38
 567 04b2 97070000 		lla	a5,sgmii_training_state.14156
 567      93870700 
 568 04ba 3947     		li	a4,14
 569 04bc 98C3     		sw	a4,0(a5)
 371:../src/platform/mpfs_hal/common/nwc/mss_sgmii.c ****             }
 372:../src/platform/mpfs_hal/common/nwc/mss_sgmii.c ****             else
 373:../src/platform/mpfs_hal/common/nwc/mss_sgmii.c ****             {
 374:../src/platform/mpfs_hal/common/nwc/mss_sgmii.c ****                 /* need to adjust eye values */
 375:../src/platform/mpfs_hal/common/nwc/mss_sgmii.c ****                 set_early_late_thresholds(LATE_EYE_WIDTH_PART_REVC_OR_LATER, EARLY_EYE_WIDTH_PART_R
 376:../src/platform/mpfs_hal/common/nwc/mss_sgmii.c ****                 /*
 377:../src/platform/mpfs_hal/common/nwc/mss_sgmii.c ****                  * Now reset the channels
 378:../src/platform/mpfs_hal/common/nwc/mss_sgmii.c ****                  */
 379:../src/platform/mpfs_hal/common/nwc/mss_sgmii.c ****                 CFG_DDR_SGMII_PHY->DYN_CNTL.DYN_CNTL  = (1U << 14U)|(1U << 13U)|(0x7FU<<0U);
 380:../src/platform/mpfs_hal/common/nwc/mss_sgmii.c ****                 CFG_DDR_SGMII_PHY->DYN_CNTL.DYN_CNTL  = (0U << 14U)|(0U << 13U)|(0x7FU<<0U);
 381:../src/platform/mpfs_hal/common/nwc/mss_sgmii.c ****                 /* OK, we are good */
 382:../src/platform/mpfs_hal/common/nwc/mss_sgmii.c ****                 sgmii_training_state = SGMII_CHANNELS_UP;
 383:../src/platform/mpfs_hal/common/nwc/mss_sgmii.c ****             }
 384:../src/platform/mpfs_hal/common/nwc/mss_sgmii.c ****             break;
 570              		.loc 1 384 13
 571 04be BDA0     		j	.L5
 572              	.L33:
 375:../src/platform/mpfs_hal/common/nwc/mss_sgmii.c ****                 /*
 573              		.loc 1 375 17
 574 04c0 9945     		li	a1,6
 575 04c2 1D45     		li	a0,7
 576 04c4 97000000 		call	set_early_late_thresholds
 576      E7800000 
 379:../src/platform/mpfs_hal/common/nwc/mss_sgmii.c ****                 CFG_DDR_SGMII_PHY->DYN_CNTL.DYN_CNTL  = (0U << 14U)|(0U << 13U)|(0x7FU<<0U);
 577              		.loc 1 379 34
 578 04cc 97070000 		lla	a5,CFG_DDR_SGMII_PHY
 578      93870700 
 579 04d4 9863     		ld	a4,0(a5)
 379:../src/platform/mpfs_hal/common/nwc/mss_sgmii.c ****                 CFG_DDR_SGMII_PHY->DYN_CNTL.DYN_CNTL  = (0U << 14U)|(0U << 13U)|(0x7FU<<0U);
 580              		.loc 1 379 55
 581 04d6 8567     		li	a5,4096
 582 04d8 BA97     		add	a5,a4,a5
 583 04da 1967     		li	a4,24576
 584 04dc 1307F707 		addi	a4,a4,127
 585 04e0 23AEE7C0 		sw	a4,-996(a5)
 380:../src/platform/mpfs_hal/common/nwc/mss_sgmii.c ****                 /* OK, we are good */
 586              		.loc 1 380 34
 587 04e4 97070000 		lla	a5,CFG_DDR_SGMII_PHY
 587      93870700 
 588 04ec 9863     		ld	a4,0(a5)
 380:../src/platform/mpfs_hal/common/nwc/mss_sgmii.c ****                 /* OK, we are good */
 589              		.loc 1 380 55
 590 04ee 8567     		li	a5,4096
 591 04f0 BA97     		add	a5,a4,a5
 592 04f2 1307F007 		li	a4,127
 593 04f6 23AEE7C0 		sw	a4,-996(a5)
 382:../src/platform/mpfs_hal/common/nwc/mss_sgmii.c ****             }
 594              		.loc 1 382 38
 595 04fa 97070000 		lla	a5,sgmii_training_state.14156
 595      93870700 
 596 0502 3947     		li	a4,14
 597 0504 98C3     		sw	a4,0(a5)
 598              		.loc 1 384 13
 599 0506 1DA0     		j	.L5
 600              	.L6:
 385:../src/platform/mpfs_hal/common/nwc/mss_sgmii.c **** 
 386:../src/platform/mpfs_hal/common/nwc/mss_sgmii.c ****         case SGMII_CHANNELS_UP:
 387:../src/platform/mpfs_hal/common/nwc/mss_sgmii.c ****             /*
 388:../src/platform/mpfs_hal/common/nwc/mss_sgmii.c ****              * SGMii Step 4)    Monitor the DLL codes for Voltage and Temp variation
 389:../src/platform/mpfs_hal/common/nwc/mss_sgmii.c ****              * MSS E51 software sets the magnitude value of variation to flag.
 390:../src/platform/mpfs_hal/common/nwc/mss_sgmii.c ****              * MSS E51 software can poll this flag.
 391:../src/platform/mpfs_hal/common/nwc/mss_sgmii.c ****              * Re-calibration, if needed, is controlled by E51 software if needed.
 392:../src/platform/mpfs_hal/common/nwc/mss_sgmii.c ****              * ML step 4- This is a monitoring step- to be run constantly in the back
 393:../src/platform/mpfs_hal/common/nwc/mss_sgmii.c ****              * ground
 394:../src/platform/mpfs_hal/common/nwc/mss_sgmii.c ****              */
 395:../src/platform/mpfs_hal/common/nwc/mss_sgmii.c ****             status = SGMII_FINISHED_SETUP;
 601              		.loc 1 395 20
 602 0508 97070000 		lla	a5,status.14157
 602      93870700 
 603 0510 23A00700 		sw	zero,0(a5)
 396:../src/platform/mpfs_hal/common/nwc/mss_sgmii.c ****             break;
 604              		.loc 1 396 13
 605 0514 21A8     		j	.L5
 606              	.L36:
 129:../src/platform/mpfs_hal/common/nwc/mss_sgmii.c **** 
 607              		.loc 1 129 13
 608 0516 0100     		nop
 609 0518 11A8     		j	.L5
 610              	.L37:
 147:../src/platform/mpfs_hal/common/nwc/mss_sgmii.c **** 
 611              		.loc 1 147 13
 612 051a 0100     		nop
 613 051c 01A8     		j	.L5
 614              	.L38:
 242:../src/platform/mpfs_hal/common/nwc/mss_sgmii.c **** 
 615              		.loc 1 242 13
 616 051e 0100     		nop
 617 0520 31A0     		j	.L5
 618              	.L39:
 275:../src/platform/mpfs_hal/common/nwc/mss_sgmii.c **** 
 619              		.loc 1 275 13
 620 0522 0100     		nop
 621 0524 21A0     		j	.L5
 622              	.L40:
 282:../src/platform/mpfs_hal/common/nwc/mss_sgmii.c **** 
 623              		.loc 1 282 13
 624 0526 0100     		nop
 625 0528 11A0     		j	.L5
 626              	.L41:
 364:../src/platform/mpfs_hal/common/nwc/mss_sgmii.c **** 
 627              		.loc 1 364 13
 628 052a 0100     		nop
 629              	.L5:
 397:../src/platform/mpfs_hal/common/nwc/mss_sgmii.c ****     } /* end of switch statement */
 398:../src/platform/mpfs_hal/common/nwc/mss_sgmii.c **** 
 399:../src/platform/mpfs_hal/common/nwc/mss_sgmii.c ****     return(status);
 630              		.loc 1 399 11
 631 052c 97070000 		lla	a5,status.14157
 631      93870700 
 632 0534 9C43     		lw	a5,0(a5)
 400:../src/platform/mpfs_hal/common/nwc/mss_sgmii.c **** }
 633              		.loc 1 400 1
 634 0536 3E85     		mv	a0,a5
 635 0538 A260     		ld	ra,8(sp)
 636              		.cfi_restore 1
 637 053a 0264     		ld	s0,0(sp)
 638              		.cfi_restore 8
 639              		.cfi_def_cfa 2, 16
 640 053c 4101     		addi	sp,sp,16
 641              		.cfi_def_cfa_offset 0
 642 053e 8280     		jr	ra
 643              		.cfi_endproc
 644              	.LFE24:
 646              		.section	.text.setup_sgmii_rpc_per_config,"ax",@progbits
 647              		.align	1
 649              	setup_sgmii_rpc_per_config:
 650              	.LFB25:
 401:../src/platform/mpfs_hal/common/nwc/mss_sgmii.c **** #endif
 402:../src/platform/mpfs_hal/common/nwc/mss_sgmii.c **** 
 403:../src/platform/mpfs_hal/common/nwc/mss_sgmii.c **** /**
 404:../src/platform/mpfs_hal/common/nwc/mss_sgmii.c ****  * setup_sgmii_rpc_per_config
 405:../src/platform/mpfs_hal/common/nwc/mss_sgmii.c ****  * Configures SGMII RPC TIP registers
 406:../src/platform/mpfs_hal/common/nwc/mss_sgmii.c ****  */
 407:../src/platform/mpfs_hal/common/nwc/mss_sgmii.c **** static void setup_sgmii_rpc_per_config(void)
 408:../src/platform/mpfs_hal/common/nwc/mss_sgmii.c **** {
 651              		.loc 1 408 1
 652              		.cfi_startproc
 653 0000 4111     		addi	sp,sp,-16
 654              		.cfi_def_cfa_offset 16
 655 0002 22E4     		sd	s0,8(sp)
 656              		.cfi_offset 8, -8
 657 0004 0008     		addi	s0,sp,16
 658              		.cfi_def_cfa 8, 0
 409:../src/platform/mpfs_hal/common/nwc/mss_sgmii.c ****     CFG_DDR_SGMII_PHY->SGMII_MODE.SGMII_MODE    = (LIBERO_SETTING_SGMII_MODE & ~REG_CDR_MOVE_STEP);
 659              		.loc 1 409 22
 660 0006 97070000 		lla	a5,CFG_DDR_SGMII_PHY
 660      93870700 
 661 000e 9863     		ld	a4,0(a5)
 662              		.loc 1 409 49
 663 0010 8567     		li	a5,4096
 664 0012 BA97     		add	a5,a4,a5
 665 0014 37F78008 		li	a4,142667776
 666 0018 1307F72F 		addi	a4,a4,767
 667 001c 23A2E7C0 		sw	a4,-1020(a5)
 410:../src/platform/mpfs_hal/common/nwc/mss_sgmii.c ****     CFG_DDR_SGMII_PHY->CH0_CNTL.CH0_CNTL        = LIBERO_SETTING_CH0_CNTL;
 668              		.loc 1 410 22
 669 0020 97070000 		lla	a5,CFG_DDR_SGMII_PHY
 669      93870700 
 670 0028 9863     		ld	a4,0(a5)
 671              		.loc 1 410 49
 672 002a 8567     		li	a5,4096
 673 002c BA97     		add	a5,a4,a5
 674 002e 3777F037 		li	a4,938504192
 675 0032 13070777 		addi	a4,a4,1904
 676 0036 23A6E7C0 		sw	a4,-1012(a5)
 411:../src/platform/mpfs_hal/common/nwc/mss_sgmii.c ****     CFG_DDR_SGMII_PHY->CH1_CNTL.CH1_CNTL        = LIBERO_SETTING_CH1_CNTL;
 677              		.loc 1 411 22
 678 003a 97070000 		lla	a5,CFG_DDR_SGMII_PHY
 678      93870700 
 679 0042 9863     		ld	a4,0(a5)
 680              		.loc 1 411 49
 681 0044 8567     		li	a5,4096
 682 0046 BA97     		add	a5,a4,a5
 683 0048 3777F037 		li	a4,938504192
 684 004c 13070777 		addi	a4,a4,1904
 685 0050 23A8E7C0 		sw	a4,-1008(a5)
 412:../src/platform/mpfs_hal/common/nwc/mss_sgmii.c ****     CFG_DDR_SGMII_PHY->RECAL_CNTL.RECAL_CNTL    = LIBERO_SETTING_RECAL_CNTL;
 686              		.loc 1 412 22
 687 0054 97070000 		lla	a5,CFG_DDR_SGMII_PHY
 687      93870700 
 688 005c 9863     		ld	a4,0(a5)
 689              		.loc 1 412 49
 690 005e 8567     		li	a5,4096
 691 0060 BA97     		add	a5,a4,a5
 692 0062 0967     		li	a4,8192
 693 0064 1307870C 		addi	a4,a4,200
 694 0068 23AAE7C0 		sw	a4,-1004(a5)
 413:../src/platform/mpfs_hal/common/nwc/mss_sgmii.c ****     CFG_DDR_SGMII_PHY->CLK_CNTL.CLK_CNTL        = LIBERO_SETTING_CLK_CNTL;
 695              		.loc 1 413 22
 696 006c 97070000 		lla	a5,CFG_DDR_SGMII_PHY
 696      93870700 
 697 0074 9863     		ld	a4,0(a5)
 698              		.loc 1 413 49
 699 0076 8567     		li	a5,4096
 700 0078 BA97     		add	a5,a4,a5
 701 007a 375700F0 		li	a4,-268414976
 702 007e 1307C70C 		addi	a4,a4,204
 703 0082 23ACE7C0 		sw	a4,-1000(a5)
 414:../src/platform/mpfs_hal/common/nwc/mss_sgmii.c ****     /* ibuffmx_p and _n rx1, bit 22 and 23 , rx0, bit 20 and 21 */
 415:../src/platform/mpfs_hal/common/nwc/mss_sgmii.c ****     CFG_DDR_SGMII_PHY->SPARE_CNTL.SPARE_CNTL    = LIBERO_SETTING_SPARE_CNTL;
 704              		.loc 1 415 22
 705 0086 97070000 		lla	a5,CFG_DDR_SGMII_PHY
 705      93870700 
 706 008e 9863     		ld	a4,0(a5)
 707              		.loc 1 415 49
 708 0090 8567     		li	a5,4096
 709 0092 BA97     		add	a5,a4,a5
 710 0094 370700FF 		li	a4,-16777216
 711 0098 23A2E7C2 		sw	a4,-988(a5)
 416:../src/platform/mpfs_hal/common/nwc/mss_sgmii.c ****     CFG_DDR_SGMII_PHY->PLL_CNTL.PLL_CNTL        = LIBERO_SETTING_PLL_CNTL;
 712              		.loc 1 416 22
 713 009c 97070000 		lla	a5,CFG_DDR_SGMII_PHY
 713      93870700 
 714 00a4 9863     		ld	a4,0(a5)
 715              		.loc 1 416 49
 716 00a6 8567     		li	a5,4096
 717 00a8 BA97     		add	a5,a4,a5
 718 00aa 37071480 		li	a4,-2146172928
 719 00ae 13071710 		addi	a4,a4,257
 720 00b2 23A4E7C0 		sw	a4,-1016(a5)
 417:../src/platform/mpfs_hal/common/nwc/mss_sgmii.c **** }
 721              		.loc 1 417 1
 722 00b6 0100     		nop
 723 00b8 2264     		ld	s0,8(sp)
 724              		.cfi_restore 8
 725              		.cfi_def_cfa 2, 16
 726 00ba 4101     		addi	sp,sp,16
 727              		.cfi_def_cfa_offset 0
 728 00bc 8280     		jr	ra
 729              		.cfi_endproc
 730              	.LFE25:
 732              		.section	.text.sgmii_off_mode,"ax",@progbits
 733              		.align	1
 734              		.globl	sgmii_off_mode
 736              	sgmii_off_mode:
 737              	.LFB26:
 418:../src/platform/mpfs_hal/common/nwc/mss_sgmii.c **** 
 419:../src/platform/mpfs_hal/common/nwc/mss_sgmii.c **** /**
 420:../src/platform/mpfs_hal/common/nwc/mss_sgmii.c ****  * SGMII Off mode
 421:../src/platform/mpfs_hal/common/nwc/mss_sgmii.c ****  */
 422:../src/platform/mpfs_hal/common/nwc/mss_sgmii.c **** void sgmii_off_mode(void)
 423:../src/platform/mpfs_hal/common/nwc/mss_sgmii.c **** {
 738              		.loc 1 423 1
 739              		.cfi_startproc
 740 0000 4111     		addi	sp,sp,-16
 741              		.cfi_def_cfa_offset 16
 742 0002 06E4     		sd	ra,8(sp)
 743 0004 22E0     		sd	s0,0(sp)
 744              		.cfi_offset 1, -8
 745              		.cfi_offset 8, -16
 746 0006 0008     		addi	s0,sp,16
 747              		.cfi_def_cfa 8, 0
 424:../src/platform/mpfs_hal/common/nwc/mss_sgmii.c ****     /*
 425:../src/platform/mpfs_hal/common/nwc/mss_sgmii.c ****      * do soft reset of SGMII TIP
 426:../src/platform/mpfs_hal/common/nwc/mss_sgmii.c ****      */
 427:../src/platform/mpfs_hal/common/nwc/mss_sgmii.c ****     CFG_DDR_SGMII_PHY->SOFT_RESET_SGMII.SOFT_RESET_SGMII = (0x01 << 8U) | 1U;
 748              		.loc 1 427 22
 749 0008 97070000 		lla	a5,CFG_DDR_SGMII_PHY
 749      93870700 
 750 0010 9863     		ld	a4,0(a5)
 751              		.loc 1 427 58
 752 0012 8567     		li	a5,4096
 753 0014 BA97     		add	a5,a4,a5
 754 0016 13071010 		li	a4,257
 755 001a 23A0E7C0 		sw	a4,-1024(a5)
 428:../src/platform/mpfs_hal/common/nwc/mss_sgmii.c ****     CFG_DDR_SGMII_PHY->SOFT_RESET_SGMII.SOFT_RESET_SGMII = 1U;
 756              		.loc 1 428 22
 757 001e 97070000 		lla	a5,CFG_DDR_SGMII_PHY
 757      93870700 
 758 0026 9863     		ld	a4,0(a5)
 759              		.loc 1 428 58
 760 0028 8567     		li	a5,4096
 761 002a BA97     		add	a5,a4,a5
 762 002c 0547     		li	a4,1
 763 002e 23A0E7C0 		sw	a4,-1024(a5)
 429:../src/platform/mpfs_hal/common/nwc/mss_sgmii.c **** 
 430:../src/platform/mpfs_hal/common/nwc/mss_sgmii.c ****     /*
 431:../src/platform/mpfs_hal/common/nwc/mss_sgmii.c ****      *
 432:../src/platform/mpfs_hal/common/nwc/mss_sgmii.c ****      */
 433:../src/platform/mpfs_hal/common/nwc/mss_sgmii.c ****     setup_sgmii_rpc_per_config();
 764              		.loc 1 433 5
 765 0032 97000000 		call	setup_sgmii_rpc_per_config
 765      E7800000 
 434:../src/platform/mpfs_hal/common/nwc/mss_sgmii.c **** 
 435:../src/platform/mpfs_hal/common/nwc/mss_sgmii.c ****     /*
 436:../src/platform/mpfs_hal/common/nwc/mss_sgmii.c ****      * Resetting the SCB register only required in already in dynamic mode. If
 437:../src/platform/mpfs_hal/common/nwc/mss_sgmii.c ****      * not reset, IO will not be configured.
 438:../src/platform/mpfs_hal/common/nwc/mss_sgmii.c ****      */
 439:../src/platform/mpfs_hal/common/nwc/mss_sgmii.c ****     IOSCB_DLL_SGMII->soft_reset = (0x01U << 0x00U);         /*  reset sgmii */
 766              		.loc 1 439 20
 767 003a B707103E 		li	a5,1041235968
 768              		.loc 1 439 33
 769 003e 0547     		li	a4,1
 770 0040 98C3     		sw	a4,0(a5)
 440:../src/platform/mpfs_hal/common/nwc/mss_sgmii.c **** 
 441:../src/platform/mpfs_hal/common/nwc/mss_sgmii.c **** }
 771              		.loc 1 441 1
 772 0042 0100     		nop
 773 0044 A260     		ld	ra,8(sp)
 774              		.cfi_restore 1
 775 0046 0264     		ld	s0,0(sp)
 776              		.cfi_restore 8
 777              		.cfi_def_cfa 2, 16
 778 0048 4101     		addi	sp,sp,16
 779              		.cfi_def_cfa_offset 0
 780 004a 8280     		jr	ra
 781              		.cfi_endproc
 782              	.LFE26:
 784              		.section	.text.ddr_pvt_calibration,"ax",@progbits
 785              		.align	1
 786              		.globl	ddr_pvt_calibration
 788              	ddr_pvt_calibration:
 789              	.LFB27:
 442:../src/platform/mpfs_hal/common/nwc/mss_sgmii.c **** 
 443:../src/platform/mpfs_hal/common/nwc/mss_sgmii.c **** /**
 444:../src/platform/mpfs_hal/common/nwc/mss_sgmii.c ****  *
 445:../src/platform/mpfs_hal/common/nwc/mss_sgmii.c ****  */
 446:../src/platform/mpfs_hal/common/nwc/mss_sgmii.c **** void ddr_pvt_calibration(void)
 447:../src/platform/mpfs_hal/common/nwc/mss_sgmii.c **** {
 790              		.loc 1 447 1
 791              		.cfi_startproc
 792 0000 0111     		addi	sp,sp,-32
 793              		.cfi_def_cfa_offset 32
 794 0002 22EC     		sd	s0,24(sp)
 795              		.cfi_offset 8, -8
 796 0004 0010     		addi	s0,sp,32
 797              		.cfi_def_cfa 8, 0
 448:../src/platform/mpfs_hal/common/nwc/mss_sgmii.c ****     /*
 449:../src/platform/mpfs_hal/common/nwc/mss_sgmii.c ****      * R3.1
 450:../src/platform/mpfs_hal/common/nwc/mss_sgmii.c ****      * PVT calibration
 451:../src/platform/mpfs_hal/common/nwc/mss_sgmii.c ****      * Wait for IOEN from power detectors DDR and SGMII - IO enable signal from
 452:../src/platform/mpfs_hal/common/nwc/mss_sgmii.c ****      * System Control powers on
 453:../src/platform/mpfs_hal/common/nwc/mss_sgmii.c ****      *
 454:../src/platform/mpfs_hal/common/nwc/mss_sgmii.c ****      * From DDR phy SAC spec:
 455:../src/platform/mpfs_hal/common/nwc/mss_sgmii.c ****      *      MSS processor releases dce bus to send RPC bits to IO buffer,
 456:../src/platform/mpfs_hal/common/nwc/mss_sgmii.c ****      *      setting each to it's programmed mode and then asserts
 457:../src/platform/mpfs_hal/common/nwc/mss_sgmii.c ****      *      ioen high at end of this state.
 458:../src/platform/mpfs_hal/common/nwc/mss_sgmii.c ****      *
 459:../src/platform/mpfs_hal/common/nwc/mss_sgmii.c ****      *
 460:../src/platform/mpfs_hal/common/nwc/mss_sgmii.c ****      *      Following verification required for MSS IO Calibration (DDRPHY,
 461:../src/platform/mpfs_hal/common/nwc/mss_sgmii.c ****      *      SGMII and MSSIO)
 462:../src/platform/mpfs_hal/common/nwc/mss_sgmii.c ****      *          Auto-calibration supply ramp time settings
 463:../src/platform/mpfs_hal/common/nwc/mss_sgmii.c ****      *          Calibration in reset until ioen_bnk goes high, timer complete
 464:../src/platform/mpfs_hal/common/nwc/mss_sgmii.c ****      *          and setup of bits complete
 465:../src/platform/mpfs_hal/common/nwc/mss_sgmii.c ****      *              scbclk divider setting (/1)
 466:../src/platform/mpfs_hal/common/nwc/mss_sgmii.c ****      *              calibration clkdiv setting
 467:../src/platform/mpfs_hal/common/nwc/mss_sgmii.c ****      *              VS bit settings
 468:../src/platform/mpfs_hal/common/nwc/mss_sgmii.c ****      *          Initial non-calibrated codes to IOs (functional max codes)
 469:../src/platform/mpfs_hal/common/nwc/mss_sgmii.c ****      *          Calibration signal transitions
 470:../src/platform/mpfs_hal/common/nwc/mss_sgmii.c ****      *              pvt_calib_status ,        r in reg     DYN_CNTL
 471:../src/platform/mpfs_hal/common/nwc/mss_sgmii.c ****      *              reg_calib_reset,        w/r in reg     IOC_REG6
 472:../src/platform/mpfs_hal/common/nwc/mss_sgmii.c ****      *              calib_clkdiv,           w/r in reg     IOC_REG6
 473:../src/platform/mpfs_hal/common/nwc/mss_sgmii.c ****      *              soft_reset_periph_b,
 474:../src/platform/mpfs_hal/common/nwc/mss_sgmii.c ****      *              calib_lock,             w/r in reg     IOC_REG0
 475:../src/platform/mpfs_hal/common/nwc/mss_sgmii.c ****      *              calib_start,            w/r in reg     IOC_REG0
 476:../src/platform/mpfs_hal/common/nwc/mss_sgmii.c ****      *              calib_intrpt              r in reg
 477:../src/platform/mpfs_hal/common/nwc/mss_sgmii.c ****      *          Final calibration codes
 478:../src/platform/mpfs_hal/common/nwc/mss_sgmii.c ****      *          Lane latching of codes
 479:../src/platform/mpfs_hal/common/nwc/mss_sgmii.c ****      *          IO Glitching
 480:../src/platform/mpfs_hal/common/nwc/mss_sgmii.c ****      */
 481:../src/platform/mpfs_hal/common/nwc/mss_sgmii.c ****     volatile uint32_t timer_out=0U;
 798              		.loc 1 481 23
 799 0006 232604FE 		sw	zero,-20(s0)
 482:../src/platform/mpfs_hal/common/nwc/mss_sgmii.c **** 
 483:../src/platform/mpfs_hal/common/nwc/mss_sgmii.c ****     #ifndef RENODE_DEBUG
 484:../src/platform/mpfs_hal/common/nwc/mss_sgmii.c ****     /* sro_ioen_out  */
 485:../src/platform/mpfs_hal/common/nwc/mss_sgmii.c ****     while((CFG_DDR_SGMII_PHY->IOC_REG1.IOC_REG1 & (1U<<4U)) == 0U)
 800              		.loc 1 485 10
 801 000a 01A8     		j	.L45
 802              	.L46:
 486:../src/platform/mpfs_hal/common/nwc/mss_sgmii.c ****     {
 487:../src/platform/mpfs_hal/common/nwc/mss_sgmii.c ****         timer_out++;
 803              		.loc 1 487 18
 804 000c 8327C4FE 		lw	a5,-20(s0)
 805 0010 8127     		sext.w	a5,a5
 806 0012 8527     		addiw	a5,a5,1
 807 0014 8127     		sext.w	a5,a5
 808 0016 2326F4FE 		sw	a5,-20(s0)
 809              	.L45:
 485:../src/platform/mpfs_hal/common/nwc/mss_sgmii.c ****     {
 810              		.loc 1 485 29
 811 001a 97070000 		lla	a5,CFG_DDR_SGMII_PHY
 811      93870700 
 812 0022 9C63     		ld	a5,0(a5)
 485:../src/platform/mpfs_hal/common/nwc/mss_sgmii.c ****     {
 813              		.loc 1 485 39
 814 0024 83A78720 		lw	a5,520(a5)
 815 0028 8127     		sext.w	a5,a5
 485:../src/platform/mpfs_hal/common/nwc/mss_sgmii.c ****     {
 816              		.loc 1 485 49
 817 002a C18B     		andi	a5,a5,16
 818 002c 8127     		sext.w	a5,a5
 485:../src/platform/mpfs_hal/common/nwc/mss_sgmii.c ****     {
 819              		.loc 1 485 10
 820 002e F9DF     		beq	a5,zero,.L46
 488:../src/platform/mpfs_hal/common/nwc/mss_sgmii.c ****         /*todo: add a fail break */
 489:../src/platform/mpfs_hal/common/nwc/mss_sgmii.c ****     }
 490:../src/platform/mpfs_hal/common/nwc/mss_sgmii.c ****     #endif
 491:../src/platform/mpfs_hal/common/nwc/mss_sgmii.c **** 
 492:../src/platform/mpfs_hal/common/nwc/mss_sgmii.c ****     /*
 493:../src/platform/mpfs_hal/common/nwc/mss_sgmii.c ****      * R3.2  Trigger timer and wait for completion
 494:../src/platform/mpfs_hal/common/nwc/mss_sgmii.c ****      * PVT calibration
 495:../src/platform/mpfs_hal/common/nwc/mss_sgmii.c ****      * After IOEN is received from power detectors DDR and SGMII, extra time
 496:../src/platform/mpfs_hal/common/nwc/mss_sgmii.c ****      * required for voltage to ramp.
 497:../src/platform/mpfs_hal/common/nwc/mss_sgmii.c ****      * This time will come from the user- Dependent on ramp time of power supply
 498:../src/platform/mpfs_hal/common/nwc/mss_sgmii.c ****      * Approximately - Bank power timer (from ioen_in to ioen_out = 10uS)?
 499:../src/platform/mpfs_hal/common/nwc/mss_sgmii.c ****      *
 500:../src/platform/mpfs_hal/common/nwc/mss_sgmii.c ****      */
 501:../src/platform/mpfs_hal/common/nwc/mss_sgmii.c ****     /*todo: implement proper timer- user will supply ramp time */
 502:../src/platform/mpfs_hal/common/nwc/mss_sgmii.c ****     timer_out=0U;
 821              		.loc 1 502 14
 822 0030 232604FE 		sw	zero,-20(s0)
 503:../src/platform/mpfs_hal/common/nwc/mss_sgmii.c ****     while(timer_out < 0xFU)
 823              		.loc 1 503 10
 824 0034 01A8     		j	.L47
 825              	.L48:
 504:../src/platform/mpfs_hal/common/nwc/mss_sgmii.c ****     {
 505:../src/platform/mpfs_hal/common/nwc/mss_sgmii.c ****         timer_out++;
 826              		.loc 1 505 18
 827 0036 8327C4FE 		lw	a5,-20(s0)
 828 003a 8127     		sext.w	a5,a5
 829 003c 8527     		addiw	a5,a5,1
 830 003e 8127     		sext.w	a5,a5
 831 0040 2326F4FE 		sw	a5,-20(s0)
 832              	.L47:
 503:../src/platform/mpfs_hal/common/nwc/mss_sgmii.c ****     while(timer_out < 0xFU)
 833              		.loc 1 503 21
 834 0044 8327C4FE 		lw	a5,-20(s0)
 835 0048 8127     		sext.w	a5,a5
 503:../src/platform/mpfs_hal/common/nwc/mss_sgmii.c ****     while(timer_out < 0xFU)
 836              		.loc 1 503 10
 837 004a 3E87     		mv	a4,a5
 838 004c B947     		li	a5,14
 839 004e E3F4E7FE 		bleu	a4,a5,.L48
 506:../src/platform/mpfs_hal/common/nwc/mss_sgmii.c ****     }
 507:../src/platform/mpfs_hal/common/nwc/mss_sgmii.c **** 
 508:../src/platform/mpfs_hal/common/nwc/mss_sgmii.c ****     /*
 509:../src/platform/mpfs_hal/common/nwc/mss_sgmii.c ****      * R3.2 Initiate calibration:
 510:../src/platform/mpfs_hal/common/nwc/mss_sgmii.c ****      *
 511:../src/platform/mpfs_hal/common/nwc/mss_sgmii.c ****      * IOC_REG6
 512:../src/platform/mpfs_hal/common/nwc/mss_sgmii.c ****      *  bit 2:1 reg_calib_clkdiv
 513:../src/platform/mpfs_hal/common/nwc/mss_sgmii.c ****      *  bit 0  reg_calib_reset
 514:../src/platform/mpfs_hal/common/nwc/mss_sgmii.c ****      *
 515:../src/platform/mpfs_hal/common/nwc/mss_sgmii.c ****      *      DDRIO:  calib_reset: 1 -> 0
 516:../src/platform/mpfs_hal/common/nwc/mss_sgmii.c ****      *      mss_write(0x20007000 + 0x21C,0x00000004);
 517:../src/platform/mpfs_hal/common/nwc/mss_sgmii.c ****      *      DDRIO: calib_rst_b: 0 -> 1
 518:../src/platform/mpfs_hal/common/nwc/mss_sgmii.c ****      *      mss_write(0x20007000 + 0x220,0x00000000);
 519:../src/platform/mpfs_hal/common/nwc/mss_sgmii.c ****      *      SGMII: calib_rst_b: 0 -> 1
 520:../src/platform/mpfs_hal/common/nwc/mss_sgmii.c ****      *      mss_write(0x20007000 + 0xC1C,0x00000000);
 521:../src/platform/mpfs_hal/common/nwc/mss_sgmii.c ****      *
 522:../src/platform/mpfs_hal/common/nwc/mss_sgmii.c ****      */
 523:../src/platform/mpfs_hal/common/nwc/mss_sgmii.c ****     /*
 524:../src/platform/mpfs_hal/common/nwc/mss_sgmii.c ****      * Soft reset
 525:../src/platform/mpfs_hal/common/nwc/mss_sgmii.c ****      */
 526:../src/platform/mpfs_hal/common/nwc/mss_sgmii.c ****     /* PVT soft reset - APB*/
 527:../src/platform/mpfs_hal/common/nwc/mss_sgmii.c ****     /* DDRIO:  calib_reset: 1 -> 0, clk divider changed - from 2 - to 3 */
 528:../src/platform/mpfs_hal/common/nwc/mss_sgmii.c ****     CFG_DDR_SGMII_PHY->IOC_REG6.IOC_REG6               =    0x00000006U;
 840              		.loc 1 528 22
 841 0052 97070000 		lla	a5,CFG_DDR_SGMII_PHY
 841      93870700 
 842 005a 9C63     		ld	a5,0(a5)
 843              		.loc 1 528 56
 844 005c 1947     		li	a4,6
 845 005e 23AEE720 		sw	a4,540(a5)
 529:../src/platform/mpfs_hal/common/nwc/mss_sgmii.c **** 
 530:../src/platform/mpfs_hal/common/nwc/mss_sgmii.c ****     /* PVT soft nv reset - SCB, should load from RPC */
 531:../src/platform/mpfs_hal/common/nwc/mss_sgmii.c ****     IOSCB_IO_CALIB_DDR->SOFT_RESET_IOCALIB       = 0x1U; /* make sure reset */
 846              		.loc 1 531 23
 847 0062 97070000 		lla	a5,IOSCB_IO_CALIB_DDR
 847      93870700 
 848 006a 9C63     		ld	a5,0(a5)
 849              		.loc 1 531 50
 850 006c 0547     		li	a4,1
 851 006e 98C3     		sw	a4,0(a5)
 532:../src/platform/mpfs_hal/common/nwc/mss_sgmii.c ****     IOSCB_IO_CALIB_DDR->SOFT_RESET_IOCALIB       = 0x0U; /* make sure reset */
 852              		.loc 1 532 23
 853 0070 97070000 		lla	a5,IOSCB_IO_CALIB_DDR
 853      93870700 
 854 0078 9C63     		ld	a5,0(a5)
 855              		.loc 1 532 50
 856 007a 23A00700 		sw	zero,0(a5)
 533:../src/platform/mpfs_hal/common/nwc/mss_sgmii.c **** 
 534:../src/platform/mpfs_hal/common/nwc/mss_sgmii.c ****     /*
 535:../src/platform/mpfs_hal/common/nwc/mss_sgmii.c ****      * R3.4 Wait for PVT calibration to complete
 536:../src/platform/mpfs_hal/common/nwc/mss_sgmii.c ****      * Check:
 537:../src/platform/mpfs_hal/common/nwc/mss_sgmii.c ****      * bit 2 sro_calib_status
 538:../src/platform/mpfs_hal/common/nwc/mss_sgmii.c ****      *
 539:../src/platform/mpfs_hal/common/nwc/mss_sgmii.c ****      * The G5 Memory controller needs to see that the IO calibration has
 540:../src/platform/mpfs_hal/common/nwc/mss_sgmii.c ****      * completed before kicking off DDR training.
 541:../src/platform/mpfs_hal/common/nwc/mss_sgmii.c ****      * It uses the calib_status signal as a flag for this.
 542:../src/platform/mpfs_hal/common/nwc/mss_sgmii.c ****      */
 543:../src/platform/mpfs_hal/common/nwc/mss_sgmii.c ****     timer_out=0U;
 857              		.loc 1 543 14
 858 007e 232604FE 		sw	zero,-20(s0)
 544:../src/platform/mpfs_hal/common/nwc/mss_sgmii.c ****     #ifndef RENODE_DEBUG
 545:../src/platform/mpfs_hal/common/nwc/mss_sgmii.c ****     {
 546:../src/platform/mpfs_hal/common/nwc/mss_sgmii.c ****         /* PVT I/O - sro_calib_status -  wait for calibration to complete */
 547:../src/platform/mpfs_hal/common/nwc/mss_sgmii.c ****         while((IOSCB_IO_CALIB_DDR->IOC_REG1 & 0x00000004U) == 0U)
 859              		.loc 1 547 14
 860 0082 01A8     		j	.L49
 861              	.L50:
 548:../src/platform/mpfs_hal/common/nwc/mss_sgmii.c ****         {
 549:../src/platform/mpfs_hal/common/nwc/mss_sgmii.c ****             timer_out++;
 862              		.loc 1 549 22
 863 0084 8327C4FE 		lw	a5,-20(s0)
 864 0088 8127     		sext.w	a5,a5
 865 008a 8527     		addiw	a5,a5,1
 866 008c 8127     		sext.w	a5,a5
 867 008e 2326F4FE 		sw	a5,-20(s0)
 868              	.L49:
 547:../src/platform/mpfs_hal/common/nwc/mss_sgmii.c ****         {
 869              		.loc 1 547 34
 870 0092 97070000 		lla	a5,IOSCB_IO_CALIB_DDR
 870      93870700 
 871 009a 9C63     		ld	a5,0(a5)
 872 009c 9C47     		lw	a5,8(a5)
 873 009e 8127     		sext.w	a5,a5
 547:../src/platform/mpfs_hal/common/nwc/mss_sgmii.c ****         {
 874              		.loc 1 547 45
 875 00a0 918B     		andi	a5,a5,4
 876 00a2 8127     		sext.w	a5,a5
 547:../src/platform/mpfs_hal/common/nwc/mss_sgmii.c ****         {
 877              		.loc 1 547 14
 878 00a4 E5D3     		beq	a5,zero,.L50
 550:../src/platform/mpfs_hal/common/nwc/mss_sgmii.c ****         }
 551:../src/platform/mpfs_hal/common/nwc/mss_sgmii.c ****         /* PVT I/O - sro_calib_status -  wait for calibration to complete */
 552:../src/platform/mpfs_hal/common/nwc/mss_sgmii.c ****         while((CFG_DDR_SGMII_PHY->IOC_REG1.IOC_REG1 & 0x00000004U) == 0U)
 879              		.loc 1 552 14
 880 00a6 01A8     		j	.L51
 881              	.L52:
 553:../src/platform/mpfs_hal/common/nwc/mss_sgmii.c ****         {
 554:../src/platform/mpfs_hal/common/nwc/mss_sgmii.c ****             timer_out++;
 882              		.loc 1 554 22
 883 00a8 8327C4FE 		lw	a5,-20(s0)
 884 00ac 8127     		sext.w	a5,a5
 885 00ae 8527     		addiw	a5,a5,1
 886 00b0 8127     		sext.w	a5,a5
 887 00b2 2326F4FE 		sw	a5,-20(s0)
 888              	.L51:
 552:../src/platform/mpfs_hal/common/nwc/mss_sgmii.c ****         {
 889              		.loc 1 552 33
 890 00b6 97070000 		lla	a5,CFG_DDR_SGMII_PHY
 890      93870700 
 891 00be 9C63     		ld	a5,0(a5)
 552:../src/platform/mpfs_hal/common/nwc/mss_sgmii.c ****         {
 892              		.loc 1 552 43
 893 00c0 83A78720 		lw	a5,520(a5)
 894 00c4 8127     		sext.w	a5,a5
 552:../src/platform/mpfs_hal/common/nwc/mss_sgmii.c ****         {
 895              		.loc 1 552 53
 896 00c6 918B     		andi	a5,a5,4
 897 00c8 8127     		sext.w	a5,a5
 552:../src/platform/mpfs_hal/common/nwc/mss_sgmii.c ****         {
 898              		.loc 1 552 14
 899 00ca F9DF     		beq	a5,zero,.L52
 555:../src/platform/mpfs_hal/common/nwc/mss_sgmii.c ****         }
 556:../src/platform/mpfs_hal/common/nwc/mss_sgmii.c ****     }
 557:../src/platform/mpfs_hal/common/nwc/mss_sgmii.c ****     #endif
 558:../src/platform/mpfs_hal/common/nwc/mss_sgmii.c ****     /*
 559:../src/platform/mpfs_hal/common/nwc/mss_sgmii.c ****      * now assert calib lock
 560:../src/platform/mpfs_hal/common/nwc/mss_sgmii.c ****      *
 561:../src/platform/mpfs_hal/common/nwc/mss_sgmii.c ****      * */
 562:../src/platform/mpfs_hal/common/nwc/mss_sgmii.c ****     {
 563:../src/platform/mpfs_hal/common/nwc/mss_sgmii.c ****         CFG_DDR_SGMII_PHY->IOC_REG0.IOC_REG0    &= ~(0x01U<<14U);
 900              		.loc 1 563 49
 901 00cc 97070000 		lla	a5,CFG_DDR_SGMII_PHY
 901      93870700 
 902 00d4 9C63     		ld	a5,0(a5)
 903 00d6 83A74720 		lw	a5,516(a5)
 904 00da 1B870700 		sext.w	a4,a5
 905 00de 97070000 		lla	a5,CFG_DDR_SGMII_PHY
 905      93870700 
 906 00e6 9C63     		ld	a5,0(a5)
 907 00e8 BA86     		mv	a3,a4
 908 00ea 7177     		li	a4,-16384
 909 00ec 7D17     		addi	a4,a4,-1
 910 00ee 758F     		and	a4,a3,a4
 911 00f0 0127     		sext.w	a4,a4
 912 00f2 23A2E720 		sw	a4,516(a5)
 564:../src/platform/mpfs_hal/common/nwc/mss_sgmii.c ****         IOSCB_IO_CALIB_DDR->IOC_REG0            &= ~(0x01U<<14U);
 913              		.loc 1 564 49
 914 00f6 97070000 		lla	a5,IOSCB_IO_CALIB_DDR
 914      93870700 
 915 00fe 9C63     		ld	a5,0(a5)
 916 0100 DC43     		lw	a5,4(a5)
 917 0102 1B870700 		sext.w	a4,a5
 918 0106 97070000 		lla	a5,IOSCB_IO_CALIB_DDR
 918      93870700 
 919 010e 9C63     		ld	a5,0(a5)
 920 0110 BA86     		mv	a3,a4
 921 0112 7177     		li	a4,-16384
 922 0114 7D17     		addi	a4,a4,-1
 923 0116 758F     		and	a4,a3,a4
 924 0118 0127     		sext.w	a4,a4
 925 011a D8C3     		sw	a4,4(a5)
 565:../src/platform/mpfs_hal/common/nwc/mss_sgmii.c ****         CFG_DDR_SGMII_PHY->IOC_REG0.IOC_REG0    |= (0x01U<<14U);
 926              		.loc 1 565 49
 927 011c 97070000 		lla	a5,CFG_DDR_SGMII_PHY
 927      93870700 
 928 0124 9C63     		ld	a5,0(a5)
 929 0126 83A74720 		lw	a5,516(a5)
 930 012a 1B870700 		sext.w	a4,a5
 931 012e 97070000 		lla	a5,CFG_DDR_SGMII_PHY
 931      93870700 
 932 0136 9C63     		ld	a5,0(a5)
 933 0138 BA86     		mv	a3,a4
 934 013a 1167     		li	a4,16384
 935 013c 558F     		or	a4,a3,a4
 936 013e 0127     		sext.w	a4,a4
 937 0140 23A2E720 		sw	a4,516(a5)
 566:../src/platform/mpfs_hal/common/nwc/mss_sgmii.c ****         IOSCB_IO_CALIB_DDR->IOC_REG0            |= (0x01U<<14U);
 938              		.loc 1 566 49
 939 0144 97070000 		lla	a5,IOSCB_IO_CALIB_DDR
 939      93870700 
 940 014c 9C63     		ld	a5,0(a5)
 941 014e DC43     		lw	a5,4(a5)
 942 0150 1B870700 		sext.w	a4,a5
 943 0154 97070000 		lla	a5,IOSCB_IO_CALIB_DDR
 943      93870700 
 944 015c 9C63     		ld	a5,0(a5)
 945 015e BA86     		mv	a3,a4
 946 0160 1167     		li	a4,16384
 947 0162 558F     		or	a4,a3,a4
 948 0164 0127     		sext.w	a4,a4
 949 0166 D8C3     		sw	a4,4(a5)
 567:../src/platform/mpfs_hal/common/nwc/mss_sgmii.c ****     }
 568:../src/platform/mpfs_hal/common/nwc/mss_sgmii.c **** }
 950              		.loc 1 568 1
 951 0168 0100     		nop
 952 016a 6264     		ld	s0,24(sp)
 953              		.cfi_restore 8
 954              		.cfi_def_cfa 2, 32
 955 016c 0561     		addi	sp,sp,32
 956              		.cfi_def_cfa_offset 0
 957 016e 8280     		jr	ra
 958              		.cfi_endproc
 959              	.LFE27:
 961              		.section	.text.ddr_pvt_recalibration,"ax",@progbits
 962              		.align	1
 963              		.globl	ddr_pvt_recalibration
 965              	ddr_pvt_recalibration:
 966              	.LFB28:
 569:../src/platform/mpfs_hal/common/nwc/mss_sgmii.c **** 
 570:../src/platform/mpfs_hal/common/nwc/mss_sgmii.c **** 
 571:../src/platform/mpfs_hal/common/nwc/mss_sgmii.c **** /**
 572:../src/platform/mpfs_hal/common/nwc/mss_sgmii.c ****  *
 573:../src/platform/mpfs_hal/common/nwc/mss_sgmii.c ****  */
 574:../src/platform/mpfs_hal/common/nwc/mss_sgmii.c **** void ddr_pvt_recalibration(void)
 575:../src/platform/mpfs_hal/common/nwc/mss_sgmii.c **** {
 967              		.loc 1 575 1
 968              		.cfi_startproc
 969 0000 0111     		addi	sp,sp,-32
 970              		.cfi_def_cfa_offset 32
 971 0002 22EC     		sd	s0,24(sp)
 972              		.cfi_offset 8, -8
 973 0004 0010     		addi	s0,sp,32
 974              		.cfi_def_cfa 8, 0
 576:../src/platform/mpfs_hal/common/nwc/mss_sgmii.c ****     volatile uint32_t timer_out=0U;
 975              		.loc 1 576 23
 976 0006 232604FE 		sw	zero,-20(s0)
 577:../src/platform/mpfs_hal/common/nwc/mss_sgmii.c **** 
 578:../src/platform/mpfs_hal/common/nwc/mss_sgmii.c ****     /*
 579:../src/platform/mpfs_hal/common/nwc/mss_sgmii.c ****      * now assert calib start
 580:../src/platform/mpfs_hal/common/nwc/mss_sgmii.c ****      *
 581:../src/platform/mpfs_hal/common/nwc/mss_sgmii.c ****      * */
 582:../src/platform/mpfs_hal/common/nwc/mss_sgmii.c ****     {
 583:../src/platform/mpfs_hal/common/nwc/mss_sgmii.c ****         CFG_DDR_SGMII_PHY->IOC_REG0.IOC_REG0    &= ~(0x01U<<13U);
 977              		.loc 1 583 49
 978 000a 97070000 		lla	a5,CFG_DDR_SGMII_PHY
 978      93870700 
 979 0012 9C63     		ld	a5,0(a5)
 980 0014 83A74720 		lw	a5,516(a5)
 981 0018 1B870700 		sext.w	a4,a5
 982 001c 97070000 		lla	a5,CFG_DDR_SGMII_PHY
 982      93870700 
 983 0024 9C63     		ld	a5,0(a5)
 984 0026 BA86     		mv	a3,a4
 985 0028 7977     		li	a4,-8192
 986 002a 7D17     		addi	a4,a4,-1
 987 002c 758F     		and	a4,a3,a4
 988 002e 0127     		sext.w	a4,a4
 989 0030 23A2E720 		sw	a4,516(a5)
 584:../src/platform/mpfs_hal/common/nwc/mss_sgmii.c ****         IOSCB_IO_CALIB_DDR->IOC_REG0            &= ~(0x01U<<13U);
 990              		.loc 1 584 49
 991 0034 97070000 		lla	a5,IOSCB_IO_CALIB_DDR
 991      93870700 
 992 003c 9C63     		ld	a5,0(a5)
 993 003e DC43     		lw	a5,4(a5)
 994 0040 1B870700 		sext.w	a4,a5
 995 0044 97070000 		lla	a5,IOSCB_IO_CALIB_DDR
 995      93870700 
 996 004c 9C63     		ld	a5,0(a5)
 997 004e BA86     		mv	a3,a4
 998 0050 7977     		li	a4,-8192
 999 0052 7D17     		addi	a4,a4,-1
 1000 0054 758F     		and	a4,a3,a4
 1001 0056 0127     		sext.w	a4,a4
 1002 0058 D8C3     		sw	a4,4(a5)
 585:../src/platform/mpfs_hal/common/nwc/mss_sgmii.c ****         CFG_DDR_SGMII_PHY->IOC_REG0.IOC_REG0    |= (0x01U<<13U);
 1003              		.loc 1 585 49
 1004 005a 97070000 		lla	a5,CFG_DDR_SGMII_PHY
 1004      93870700 
 1005 0062 9C63     		ld	a5,0(a5)
 1006 0064 83A74720 		lw	a5,516(a5)
 1007 0068 1B870700 		sext.w	a4,a5
 1008 006c 97070000 		lla	a5,CFG_DDR_SGMII_PHY
 1008      93870700 
 1009 0074 9C63     		ld	a5,0(a5)
 1010 0076 BA86     		mv	a3,a4
 1011 0078 0967     		li	a4,8192
 1012 007a 558F     		or	a4,a3,a4
 1013 007c 0127     		sext.w	a4,a4
 1014 007e 23A2E720 		sw	a4,516(a5)
 586:../src/platform/mpfs_hal/common/nwc/mss_sgmii.c ****         IOSCB_IO_CALIB_DDR->IOC_REG0            |= (0x01U<<13U);
 1015              		.loc 1 586 49
 1016 0082 97070000 		lla	a5,IOSCB_IO_CALIB_DDR
 1016      93870700 
 1017 008a 9C63     		ld	a5,0(a5)
 1018 008c DC43     		lw	a5,4(a5)
 1019 008e 1B870700 		sext.w	a4,a5
 1020 0092 97070000 		lla	a5,IOSCB_IO_CALIB_DDR
 1020      93870700 
 1021 009a 9C63     		ld	a5,0(a5)
 1022 009c BA86     		mv	a3,a4
 1023 009e 0967     		li	a4,8192
 1024 00a0 558F     		or	a4,a3,a4
 1025 00a2 0127     		sext.w	a4,a4
 1026 00a4 D8C3     		sw	a4,4(a5)
 587:../src/platform/mpfs_hal/common/nwc/mss_sgmii.c ****     }
 588:../src/platform/mpfs_hal/common/nwc/mss_sgmii.c **** 
 589:../src/platform/mpfs_hal/common/nwc/mss_sgmii.c ****     /*
 590:../src/platform/mpfs_hal/common/nwc/mss_sgmii.c ****      * R3.4 Wait for PVT calibration to complete
 591:../src/platform/mpfs_hal/common/nwc/mss_sgmii.c ****      * Check:
 592:../src/platform/mpfs_hal/common/nwc/mss_sgmii.c ****      * bit 2 sro_calib_status
 593:../src/platform/mpfs_hal/common/nwc/mss_sgmii.c ****      *
 594:../src/platform/mpfs_hal/common/nwc/mss_sgmii.c ****      * The G5 Memory controller needs to see that the IO calibration has
 595:../src/platform/mpfs_hal/common/nwc/mss_sgmii.c ****      * completed before kicking off DDR training.
 596:../src/platform/mpfs_hal/common/nwc/mss_sgmii.c ****      * It uses the calib_status signal as a flag for this.
 597:../src/platform/mpfs_hal/common/nwc/mss_sgmii.c ****      */
 598:../src/platform/mpfs_hal/common/nwc/mss_sgmii.c ****     timer_out=0U;
 1027              		.loc 1 598 14
 1028 00a6 232604FE 		sw	zero,-20(s0)
 599:../src/platform/mpfs_hal/common/nwc/mss_sgmii.c ****     #ifndef RENODE_DEBUG
 600:../src/platform/mpfs_hal/common/nwc/mss_sgmii.c ****     {
 601:../src/platform/mpfs_hal/common/nwc/mss_sgmii.c ****         /* PVT I/O - sro_calib_status -  wait for calibration to complete */
 602:../src/platform/mpfs_hal/common/nwc/mss_sgmii.c ****         while((IOSCB_IO_CALIB_DDR->IOC_REG1 & 0x00000004U) == 0U)
 1029              		.loc 1 602 14
 1030 00aa 01A8     		j	.L54
 1031              	.L55:
 603:../src/platform/mpfs_hal/common/nwc/mss_sgmii.c ****         {
 604:../src/platform/mpfs_hal/common/nwc/mss_sgmii.c ****             timer_out++;
 1032              		.loc 1 604 22
 1033 00ac 8327C4FE 		lw	a5,-20(s0)
 1034 00b0 8127     		sext.w	a5,a5
 1035 00b2 8527     		addiw	a5,a5,1
 1036 00b4 8127     		sext.w	a5,a5
 1037 00b6 2326F4FE 		sw	a5,-20(s0)
 1038              	.L54:
 602:../src/platform/mpfs_hal/common/nwc/mss_sgmii.c ****         {
 1039              		.loc 1 602 34
 1040 00ba 97070000 		lla	a5,IOSCB_IO_CALIB_DDR
 1040      93870700 
 1041 00c2 9C63     		ld	a5,0(a5)
 1042 00c4 9C47     		lw	a5,8(a5)
 1043 00c6 8127     		sext.w	a5,a5
 602:../src/platform/mpfs_hal/common/nwc/mss_sgmii.c ****         {
 1044              		.loc 1 602 45
 1045 00c8 918B     		andi	a5,a5,4
 1046 00ca 8127     		sext.w	a5,a5
 602:../src/platform/mpfs_hal/common/nwc/mss_sgmii.c ****         {
 1047              		.loc 1 602 14
 1048 00cc E5D3     		beq	a5,zero,.L55
 605:../src/platform/mpfs_hal/common/nwc/mss_sgmii.c ****         }
 606:../src/platform/mpfs_hal/common/nwc/mss_sgmii.c ****         /* PVT I/O - sro_calib_status -  wait for calibration to complete */
 607:../src/platform/mpfs_hal/common/nwc/mss_sgmii.c ****         while((CFG_DDR_SGMII_PHY->IOC_REG1.IOC_REG1 & 0x00000004U) == 0U)
 1049              		.loc 1 607 14
 1050 00ce 01A8     		j	.L56
 1051              	.L57:
 608:../src/platform/mpfs_hal/common/nwc/mss_sgmii.c ****         {
 609:../src/platform/mpfs_hal/common/nwc/mss_sgmii.c ****             timer_out++;
 1052              		.loc 1 609 22
 1053 00d0 8327C4FE 		lw	a5,-20(s0)
 1054 00d4 8127     		sext.w	a5,a5
 1055 00d6 8527     		addiw	a5,a5,1
 1056 00d8 8127     		sext.w	a5,a5
 1057 00da 2326F4FE 		sw	a5,-20(s0)
 1058              	.L56:
 607:../src/platform/mpfs_hal/common/nwc/mss_sgmii.c ****         {
 1059              		.loc 1 607 33
 1060 00de 97070000 		lla	a5,CFG_DDR_SGMII_PHY
 1060      93870700 
 1061 00e6 9C63     		ld	a5,0(a5)
 607:../src/platform/mpfs_hal/common/nwc/mss_sgmii.c ****         {
 1062              		.loc 1 607 43
 1063 00e8 83A78720 		lw	a5,520(a5)
 1064 00ec 8127     		sext.w	a5,a5
 607:../src/platform/mpfs_hal/common/nwc/mss_sgmii.c ****         {
 1065              		.loc 1 607 53
 1066 00ee 918B     		andi	a5,a5,4
 1067 00f0 8127     		sext.w	a5,a5
 607:../src/platform/mpfs_hal/common/nwc/mss_sgmii.c ****         {
 1068              		.loc 1 607 14
 1069 00f2 F9DF     		beq	a5,zero,.L57
 610:../src/platform/mpfs_hal/common/nwc/mss_sgmii.c ****         }
 611:../src/platform/mpfs_hal/common/nwc/mss_sgmii.c ****     }
 612:../src/platform/mpfs_hal/common/nwc/mss_sgmii.c ****     #endif
 613:../src/platform/mpfs_hal/common/nwc/mss_sgmii.c ****     /*
 614:../src/platform/mpfs_hal/common/nwc/mss_sgmii.c ****      * now assert calib lock
 615:../src/platform/mpfs_hal/common/nwc/mss_sgmii.c ****      *
 616:../src/platform/mpfs_hal/common/nwc/mss_sgmii.c ****      * */
 617:../src/platform/mpfs_hal/common/nwc/mss_sgmii.c ****     {
 618:../src/platform/mpfs_hal/common/nwc/mss_sgmii.c **** #if 0   /*
 619:../src/platform/mpfs_hal/common/nwc/mss_sgmii.c ****          * fixme: this appears to cause wite calibration to fail, investigating
 620:../src/platform/mpfs_hal/common/nwc/mss_sgmii.c ****          */
 621:../src/platform/mpfs_hal/common/nwc/mss_sgmii.c ****         CFG_DDR_SGMII_PHY->IOC_REG0.IOC_REG0    &= ~(0x01U<<14U);
 622:../src/platform/mpfs_hal/common/nwc/mss_sgmii.c ****         IOSCB_IO_CALIB_DDR->IOC_REG0            &= ~(0x01U<<14U);
 623:../src/platform/mpfs_hal/common/nwc/mss_sgmii.c ****         CFG_DDR_SGMII_PHY->IOC_REG0.IOC_REG0    |= (0x01U<<14U);
 624:../src/platform/mpfs_hal/common/nwc/mss_sgmii.c ****         IOSCB_IO_CALIB_DDR->IOC_REG0            |= (0x01U<<14U);
 625:../src/platform/mpfs_hal/common/nwc/mss_sgmii.c **** #endif
 626:../src/platform/mpfs_hal/common/nwc/mss_sgmii.c ****     }
 627:../src/platform/mpfs_hal/common/nwc/mss_sgmii.c **** }
 1070              		.loc 1 627 1
 1071 00f4 0100     		nop
 1072 00f6 6264     		ld	s0,24(sp)
 1073              		.cfi_restore 8
 1074              		.cfi_def_cfa 2, 32
 1075 00f8 0561     		addi	sp,sp,32
 1076              		.cfi_def_cfa_offset 0
 1077 00fa 8280     		jr	ra
 1078              		.cfi_endproc
 1079              	.LFE28:
 1081              		.section	.text.set_early_late_thresholds,"ax",@progbits
 1082              		.align	1
 1084              	set_early_late_thresholds:
 1085              	.LFB29:
 628:../src/platform/mpfs_hal/common/nwc/mss_sgmii.c **** 
 629:../src/platform/mpfs_hal/common/nwc/mss_sgmii.c **** /**
 630:../src/platform/mpfs_hal/common/nwc/mss_sgmii.c ****  * Set eye thresholds
 631:../src/platform/mpfs_hal/common/nwc/mss_sgmii.c ****  * @param n_late_threshold
 632:../src/platform/mpfs_hal/common/nwc/mss_sgmii.c ****  * @param p_early_threshold
 633:../src/platform/mpfs_hal/common/nwc/mss_sgmii.c ****  */
 634:../src/platform/mpfs_hal/common/nwc/mss_sgmii.c **** static void set_early_late_thresholds(uint8_t n_late_threshold, uint8_t p_early_threshold)
 635:../src/platform/mpfs_hal/common/nwc/mss_sgmii.c **** {
 1086              		.loc 1 635 1
 1087              		.cfi_startproc
 1088 0000 7971     		addi	sp,sp,-48
 1089              		.cfi_def_cfa_offset 48
 1090 0002 22F4     		sd	s0,40(sp)
 1091              		.cfi_offset 8, -8
 1092 0004 0018     		addi	s0,sp,48
 1093              		.cfi_def_cfa 8, 0
 1094 0006 AA87     		mv	a5,a0
 1095 0008 2E87     		mv	a4,a1
 1096 000a A30FF4FC 		sb	a5,-33(s0)
 1097 000e BA87     		mv	a5,a4
 1098 0010 230FF4FC 		sb	a5,-34(s0)
 636:../src/platform/mpfs_hal/common/nwc/mss_sgmii.c ****     uint32_t n_eye_values;
 637:../src/platform/mpfs_hal/common/nwc/mss_sgmii.c ****     uint32_t p_eye_value;
 638:../src/platform/mpfs_hal/common/nwc/mss_sgmii.c **** 
 639:../src/platform/mpfs_hal/common/nwc/mss_sgmii.c ****     /*
 640:../src/platform/mpfs_hal/common/nwc/mss_sgmii.c ****      * Set the N eye width value
 641:../src/platform/mpfs_hal/common/nwc/mss_sgmii.c ****      * bits 31:29 for CH1, bits 28:26  for CH0 in spare control (N eye width value)
 642:../src/platform/mpfs_hal/common/nwc/mss_sgmii.c ****      */
 643:../src/platform/mpfs_hal/common/nwc/mss_sgmii.c ****     n_eye_values = (uint32_t)(n_late_threshold << SHIFT_TO_CH0_N_EYE_VALUE);
 1099              		.loc 1 643 48
 1100 0014 8347F4FD 		lbu	a5,-33(s0)
 1101 0018 8127     		sext.w	a5,a5
 1102 001a 9B97A701 		slliw	a5,a5,26
 1103 001e 8127     		sext.w	a5,a5
 1104              		.loc 1 643 18
 1105 0020 2326F4FE 		sw	a5,-20(s0)
 644:../src/platform/mpfs_hal/common/nwc/mss_sgmii.c ****     n_eye_values |= (uint32_t)(n_late_threshold << SHIFT_TO_CH1_N_EYE_VALUE);
 1106              		.loc 1 644 49
 1107 0024 8347F4FD 		lbu	a5,-33(s0)
 1108 0028 8127     		sext.w	a5,a5
 1109 002a 9B97D701 		slliw	a5,a5,29
 1110 002e 8127     		sext.w	a5,a5
 1111              		.loc 1 644 21
 1112 0030 1B870700 		sext.w	a4,a5
 1113              		.loc 1 644 18
 1114 0034 8327C4FE 		lw	a5,-20(s0)
 1115 0038 D98F     		or	a5,a5,a4
 1116 003a 2326F4FE 		sw	a5,-20(s0)
 645:../src/platform/mpfs_hal/common/nwc/mss_sgmii.c **** 
 646:../src/platform/mpfs_hal/common/nwc/mss_sgmii.c ****     CFG_DDR_SGMII_PHY->SPARE_CNTL.SPARE_CNTL    = (LIBERO_SETTING_SPARE_CNTL & N_EYE_MASK) | n_eye_
 1117              		.loc 1 646 22
 1118 003e 97070000 		lla	a5,CFG_DDR_SGMII_PHY
 1118      93870700 
 1119 0046 9463     		ld	a3,0(a5)
 1120              		.loc 1 646 49
 1121 0048 0327C4FE 		lw	a4,-20(s0)
 1122 004c B7070003 		li	a5,50331648
 1123 0050 D98F     		or	a5,a4,a5
 1124 0052 1B870700 		sext.w	a4,a5
 1125 0056 8567     		li	a5,4096
 1126 0058 B697     		add	a5,a3,a5
 1127 005a 23A2E7C2 		sw	a4,-988(a5)
 647:../src/platform/mpfs_hal/common/nwc/mss_sgmii.c **** 
 648:../src/platform/mpfs_hal/common/nwc/mss_sgmii.c ****     /*
 649:../src/platform/mpfs_hal/common/nwc/mss_sgmii.c ****      * Set P values
 650:../src/platform/mpfs_hal/common/nwc/mss_sgmii.c ****      */
 651:../src/platform/mpfs_hal/common/nwc/mss_sgmii.c ****     p_eye_value = (uint32_t)(p_early_threshold << SHIFT_TO_REG_RX0_EYEWIDTH);
 1128              		.loc 1 651 48
 1129 005e 8347E4FD 		lbu	a5,-34(s0)
 1130 0062 8127     		sext.w	a5,a5
 1131 0064 9B975701 		slliw	a5,a5,21
 1132 0068 8127     		sext.w	a5,a5
 1133              		.loc 1 651 17
 1134 006a 2324F4FE 		sw	a5,-24(s0)
 652:../src/platform/mpfs_hal/common/nwc/mss_sgmii.c ****     CFG_DDR_SGMII_PHY->CH0_CNTL.CH0_CNTL        = ((LIBERO_SETTING_CH0_CNTL & REG_RX0_EYEWIDTH_P_MA
 1135              		.loc 1 652 22
 1136 006e 97070000 		lla	a5,CFG_DDR_SGMII_PHY
 1136      93870700 
 1137 0076 9463     		ld	a3,0(a5)
 1138              		.loc 1 652 49
 1139 0078 032784FE 		lw	a4,-24(s0)
 1140 007c B77710B7 		li	a5,-1223659520
 1141 0080 93870777 		addi	a5,a5,1904
 1142 0084 D98F     		or	a5,a4,a5
 1143 0086 1B870700 		sext.w	a4,a5
 1144 008a 8567     		li	a5,4096
 1145 008c B697     		add	a5,a3,a5
 1146 008e 23A6E7C0 		sw	a4,-1012(a5)
 653:../src/platform/mpfs_hal/common/nwc/mss_sgmii.c ****     CFG_DDR_SGMII_PHY->CH1_CNTL.CH1_CNTL        = ((LIBERO_SETTING_CH1_CNTL & REG_RX0_EYEWIDTH_P_MA
 1147              		.loc 1 653 22
 1148 0092 97070000 		lla	a5,CFG_DDR_SGMII_PHY
 1148      93870700 
 1149 009a 9463     		ld	a3,0(a5)
 1150              		.loc 1 653 49
 1151 009c 032784FE 		lw	a4,-24(s0)
 1152 00a0 B77710B7 		li	a5,-1223659520
 1153 00a4 93870777 		addi	a5,a5,1904
 1154 00a8 D98F     		or	a5,a4,a5
 1155 00aa 1B870700 		sext.w	a4,a5
 1156 00ae 8567     		li	a5,4096
 1157 00b0 B697     		add	a5,a3,a5
 1158 00b2 23A8E7C0 		sw	a4,-1008(a5)
 654:../src/platform/mpfs_hal/common/nwc/mss_sgmii.c **** 
 655:../src/platform/mpfs_hal/common/nwc/mss_sgmii.c **** }
 1159              		.loc 1 655 1
 1160 00b6 0100     		nop
 1161 00b8 2274     		ld	s0,40(sp)
 1162              		.cfi_restore 8
 1163              		.cfi_def_cfa 2, 48
 1164 00ba 4561     		addi	sp,sp,48
 1165              		.cfi_def_cfa_offset 0
 1166 00bc 8280     		jr	ra
 1167              		.cfi_endproc
 1168              	.LFE29:
 1170              		.section	.sbss.sgmii_training_state.14156,"aw",@nobits
 1171              		.align	2
 1174              	sgmii_training_state.14156:
 1175 0000 00000000 		.zero	4
 1176              		.section	.sdata.status.14157,"aw"
 1177              		.align	2
 1180              	status.14157:
 1181 0000 01000000 		.word	1
 1182              		.section	.sbss.timer_out.14158,"aw",@nobits
 1183              		.align	2
 1186              	timer_out.14158:
 1187 0000 00000000 		.zero	4
 1188              		.text
 1189              	.Letext0:
 1190              		.file 2 "/home/vinay/Desktop/soft_console/SoftConsole-v2022.2-RISC-V-747/riscv-unknown-elf-gcc/lib
 1191              		.file 3 "/home/vinay/Desktop/soft_console/SoftConsole-v2022.2-RISC-V-747/riscv-unknown-elf-gcc/ris
 1192              		.file 4 "/home/vinay/Desktop/soft_console/SoftConsole-v2022.2-RISC-V-747/riscv-unknown-elf-gcc/ris
 1193              		.file 5 "/home/vinay/Desktop/soft_console/SoftConsole-v2022.2-RISC-V-747/riscv-unknown-elf-gcc/ris
 1194              		.file 6 "/home/vinay/Desktop/soft_console/SoftConsole-v2022.2-RISC-V-747/riscv-unknown-elf-gcc/ris
 1195              		.file 7 "/home/vinay/Desktop/soft_console/SoftConsole-v2022.2-RISC-V-747/riscv-unknown-elf-gcc/ris
 1196              		.file 8 "/home/vinay/Desktop/softconsole_watershed/Water-shed/src/platform/mpfs_hal/common/nwc/mss
 1197              		.file 9 "/home/vinay/Desktop/softconsole_watershed/Water-shed/src/platform/mpfs_hal/common/nwc/mss
 1198              		.file 10 "/home/vinay/Desktop/softconsole_watershed/Water-shed/src/platform/mpfs_hal/common/nwc/ms
 1199              		.file 11 "/home/vinay/Desktop/softconsole_watershed/Water-shed/src/platform/mpfs_hal/common/mss_mp
 1200              		.file 12 "/home/vinay/Desktop/softconsole_watershed/Water-shed/src/platform/mpfs_hal/common/mss_pl
 1201              		.file 13 "/home/vinay/Desktop/softconsole_watershed/Water-shed/src/platform/mpfs_hal/common/nwc/ms
 1202              		.file 14 "/home/vinay/Desktop/softconsole_watershed/Water-shed/src/platform/mpfs_hal/common/mss_pe
 1203              		.file 15 "/home/vinay/Desktop/softconsole_watershed/Water-shed/src/platform/mpfs_hal/common/nwc/ms
 1204              		.file 16 "/home/vinay/Desktop/softconsole_watershed/Water-shed/src/platform/mpfs_hal/startup_gcc/s
DEFINED SYMBOLS
                            *ABS*:0000000000000000 mss_sgmii.c
     /tmp/ccghGiGC.s:13     .sbss.silicon_variant:0000000000000000 silicon_variant
     /tmp/ccghGiGC.s:19     .sbss.sro_dll_90_code:0000000000000000 sro_dll_90_code
     /tmp/ccghGiGC.s:25     .text.sgmii_setup:0000000000000000 sgmii_setup
     /tmp/ccghGiGC.s:29     .text.sgmii_setup:0000000000000000 .L0 
     /tmp/ccghGiGC.s:30     .text.sgmii_setup:0000000000000000 .L0 
     /tmp/ccghGiGC.s:31     .text.sgmii_setup:0000000000000002 .L0 
     /tmp/ccghGiGC.s:34     .text.sgmii_setup:0000000000000006 .L0 
     /tmp/ccghGiGC.s:35     .text.sgmii_setup:0000000000000006 .L0 
     /tmp/ccghGiGC.s:37     .text.sgmii_setup:0000000000000008 .L0 
     /tmp/ccghGiGC.s:39     .text.sgmii_setup:0000000000000008 .L0 
     /tmp/ccghGiGC.s:65     .text.sgmii_channel_setup:0000000000000000 sgmii_channel_setup
     /tmp/ccghGiGC.s:42     .text.sgmii_setup:000000000000000a .L0 
     /tmp/ccghGiGC.s:46     .text.sgmii_setup:0000000000000016 .L0 
     /tmp/ccghGiGC.s:48     .text.sgmii_setup:0000000000000018 .L0 
     /tmp/ccghGiGC.s:50     .text.sgmii_setup:000000000000001a .L0 
     /tmp/ccghGiGC.s:52     .text.sgmii_setup:000000000000001e .L0 
     /tmp/ccghGiGC.s:54     .text.sgmii_setup:0000000000000020 .L0 
     /tmp/ccghGiGC.s:55     .text.sgmii_setup:0000000000000020 .L0 
     /tmp/ccghGiGC.s:57     .text.sgmii_setup:0000000000000022 .L0 
     /tmp/ccghGiGC.s:59     .text.sgmii_setup:0000000000000024 .L0 
     /tmp/ccghGiGC.s:68     .text.sgmii_channel_setup:0000000000000000 .L0 
     /tmp/ccghGiGC.s:69     .text.sgmii_channel_setup:0000000000000000 .L0 
     /tmp/ccghGiGC.s:70     .text.sgmii_channel_setup:0000000000000002 .L0 
     /tmp/ccghGiGC.s:73     .text.sgmii_channel_setup:0000000000000006 .L0 
     /tmp/ccghGiGC.s:74     .text.sgmii_channel_setup:0000000000000006 .L0 
     /tmp/ccghGiGC.s:76     .text.sgmii_channel_setup:0000000000000008 .L0 
     /tmp/ccghGiGC.s:1174   .sbss.sgmii_training_state.14156:0000000000000000 sgmii_training_state.14156
     /tmp/ccghGiGC.s:78     .text.sgmii_channel_setup:0000000000000008 .L0 
     /tmp/ccghGiGC.s:1180   .sdata.status.14157:0000000000000000 status.14157
     /tmp/ccghGiGC.s:113    .text.sgmii_channel_setup:000000000000003a .L0 
     /tmp/ccghGiGC.s:117    .text.sgmii_channel_setup:0000000000000046 .L0 
     /tmp/ccghGiGC.s:120    .text.sgmii_channel_setup:0000000000000050 .L0 
     /tmp/ccghGiGC.s:125    .text.sgmii_channel_setup:000000000000005c .L0 
     /tmp/ccghGiGC.s:128    .text.sgmii_channel_setup:0000000000000066 .L0 
     /tmp/ccghGiGC.s:649    .text.setup_sgmii_rpc_per_config:0000000000000000 setup_sgmii_rpc_per_config
     /tmp/ccghGiGC.s:133    .text.sgmii_channel_setup:0000000000000070 .L0 
     /tmp/ccghGiGC.s:135    .text.sgmii_channel_setup:0000000000000078 .L0 
     /tmp/ccghGiGC.s:137    .text.sgmii_channel_setup:000000000000007c .L0 
     /tmp/ccghGiGC.s:140    .text.sgmii_channel_setup:0000000000000080 .L0 
     /tmp/ccghGiGC.s:144    .text.sgmii_channel_setup:000000000000008c .L0 
     /tmp/ccghGiGC.s:1186   .sbss.timer_out.14158:0000000000000000 timer_out.14158
     /tmp/ccghGiGC.s:147    .text.sgmii_channel_setup:000000000000008e .L0 
     /tmp/ccghGiGC.s:154    .text.sgmii_channel_setup:00000000000000a8 .L0 
     /tmp/ccghGiGC.s:157    .text.sgmii_channel_setup:00000000000000b2 .L0 
     /tmp/ccghGiGC.s:162    .text.sgmii_channel_setup:00000000000000bc .L0 
     /tmp/ccghGiGC.s:165    .text.sgmii_channel_setup:00000000000000c2 .L0 
     /tmp/ccghGiGC.s:167    .text.sgmii_channel_setup:00000000000000c6 .L0 
     /tmp/ccghGiGC.s:170    .text.sgmii_channel_setup:00000000000000d2 .L0 
     /tmp/ccghGiGC.s:174    .text.sgmii_channel_setup:00000000000000de .L0 
     /tmp/ccghGiGC.s:177    .text.sgmii_channel_setup:00000000000000e0 .L0 
     /tmp/ccghGiGC.s:184    .text.sgmii_channel_setup:00000000000000fa .L0 
     /tmp/ccghGiGC.s:187    .text.sgmii_channel_setup:0000000000000104 .L0 
     /tmp/ccghGiGC.s:191    .text.sgmii_channel_setup:000000000000010c .L0 
     /tmp/ccghGiGC.s:194    .text.sgmii_channel_setup:0000000000000118 .L0 
     /tmp/ccghGiGC.s:198    .text.sgmii_channel_setup:0000000000000124 .L0 
     /tmp/ccghGiGC.s:201    .text.sgmii_channel_setup:0000000000000126 .L0 
     /tmp/ccghGiGC.s:204    .text.sgmii_channel_setup:0000000000000130 .L0 
     /tmp/ccghGiGC.s:206    .text.sgmii_channel_setup:0000000000000134 .L0 
     /tmp/ccghGiGC.s:208    .text.sgmii_channel_setup:0000000000000138 .L0 
     /tmp/ccghGiGC.s:211    .text.sgmii_channel_setup:000000000000013c .L0 
     /tmp/ccghGiGC.s:213    .text.sgmii_channel_setup:0000000000000140 .L0 
     /tmp/ccghGiGC.s:216    .text.sgmii_channel_setup:0000000000000144 .L0 
     /tmp/ccghGiGC.s:218    .text.sgmii_channel_setup:0000000000000148 .L0 
     /tmp/ccghGiGC.s:221    .text.sgmii_channel_setup:000000000000014c .L0 
     /tmp/ccghGiGC.s:224    .text.sgmii_channel_setup:0000000000000156 .L0 
     /tmp/ccghGiGC.s:229    .text.sgmii_channel_setup:0000000000000162 .L0 
     /tmp/ccghGiGC.s:232    .text.sgmii_channel_setup:000000000000016c .L0 
     /tmp/ccghGiGC.s:237    .text.sgmii_channel_setup:0000000000000178 .L0 
     /tmp/ccghGiGC.s:240    .text.sgmii_channel_setup:0000000000000182 .L0 
     /tmp/ccghGiGC.s:243    .text.sgmii_channel_setup:0000000000000186 .L0 
     /tmp/ccghGiGC.s:246    .text.sgmii_channel_setup:0000000000000190 .L0 
     /tmp/ccghGiGC.s:248    .text.sgmii_channel_setup:0000000000000194 .L0 
     /tmp/ccghGiGC.s:252    .text.sgmii_channel_setup:00000000000001a0 .L0 
     /tmp/ccghGiGC.s:255    .text.sgmii_channel_setup:00000000000001a2 .L0 
     /tmp/ccghGiGC.s:258    .text.sgmii_channel_setup:00000000000001ac .L0 
     /tmp/ccghGiGC.s:263    .text.sgmii_channel_setup:00000000000001b6 .L0 
     /tmp/ccghGiGC.s:268    .text.sgmii_channel_setup:00000000000001be .L0 
     /tmp/ccghGiGC.s:272    .text.sgmii_channel_setup:00000000000001c6 .L0 
     /tmp/ccghGiGC.s:276    .text.sgmii_channel_setup:00000000000001d2 .L0 
     /tmp/ccghGiGC.s:279    .text.sgmii_channel_setup:00000000000001d4 .L0 
     /tmp/ccghGiGC.s:294    .text.sgmii_channel_setup:0000000000000206 .L0 
     /tmp/ccghGiGC.s:306    .text.sgmii_channel_setup:000000000000022a .L0 
     /tmp/ccghGiGC.s:310    .text.sgmii_channel_setup:0000000000000236 .L0 
     /tmp/ccghGiGC.s:313    .text.sgmii_channel_setup:0000000000000238 .L0 
     /tmp/ccghGiGC.s:316    .text.sgmii_channel_setup:0000000000000242 .L0 
     /tmp/ccghGiGC.s:319    .text.sgmii_channel_setup:000000000000024c .L0 
     /tmp/ccghGiGC.s:322    .text.sgmii_channel_setup:0000000000000258 .L0 
     /tmp/ccghGiGC.s:326    .text.sgmii_channel_setup:0000000000000264 .L0 
     /tmp/ccghGiGC.s:329    .text.sgmii_channel_setup:0000000000000266 .L0 
     /tmp/ccghGiGC.s:332    .text.sgmii_channel_setup:0000000000000270 .L0 
     /tmp/ccghGiGC.s:337    .text.sgmii_channel_setup:000000000000027a .L0 
     /tmp/ccghGiGC.s:340    .text.sgmii_channel_setup:0000000000000280 .L0 
     /tmp/ccghGiGC.s:342    .text.sgmii_channel_setup:0000000000000284 .L0 
     /tmp/ccghGiGC.s:346    .text.sgmii_channel_setup:0000000000000290 .L0 
     /tmp/ccghGiGC.s:349    .text.sgmii_channel_setup:0000000000000292 .L0 
     /tmp/ccghGiGC.s:352    .text.sgmii_channel_setup:000000000000029c .L0 
     /tmp/ccghGiGC.s:357    .text.sgmii_channel_setup:00000000000002a6 .L0 
     /tmp/ccghGiGC.s:362    .text.sgmii_channel_setup:00000000000002b0 .L0 
     /tmp/ccghGiGC.s:364    .text.sgmii_channel_setup:00000000000002b4 .L0 
     /tmp/ccghGiGC.s:368    .text.sgmii_channel_setup:00000000000002c0 .L0 
     /tmp/ccghGiGC.s:371    .text.sgmii_channel_setup:00000000000002c2 .L0 
     /tmp/ccghGiGC.s:376    .text.sgmii_channel_setup:00000000000002d0 .L0 
     /tmp/ccghGiGC.s:381    .text.sgmii_channel_setup:00000000000002de .L0 
     /tmp/ccghGiGC.s:394    .text.sgmii_channel_setup:00000000000002fe .L0 
     /tmp/ccghGiGC.s:407    .text.sgmii_channel_setup:000000000000031e .L0 
     /tmp/ccghGiGC.s:411    .text.sgmii_channel_setup:000000000000032a .L0 
     /tmp/ccghGiGC.s:414    .text.sgmii_channel_setup:000000000000032c .L0 
     /tmp/ccghGiGC.s:417    .text.sgmii_channel_setup:0000000000000336 .L0 
     /tmp/ccghGiGC.s:422    .text.sgmii_channel_setup:0000000000000340 .L0 
     /tmp/ccghGiGC.s:425    .text.sgmii_channel_setup:0000000000000346 .L0 
     /tmp/ccghGiGC.s:428    .text.sgmii_channel_setup:000000000000034e .L0 
     /tmp/ccghGiGC.s:431    .text.sgmii_channel_setup:0000000000000358 .L0 
     /tmp/ccghGiGC.s:434    .text.sgmii_channel_setup:0000000000000362 .L0 
     /tmp/ccghGiGC.s:439    .text.sgmii_channel_setup:000000000000036c .L0 
     /tmp/ccghGiGC.s:441    .text.sgmii_channel_setup:000000000000036e .L0 
     /tmp/ccghGiGC.s:443    .text.sgmii_channel_setup:0000000000000372 .L0 
     /tmp/ccghGiGC.s:447    .text.sgmii_channel_setup:000000000000037e .L0 
     /tmp/ccghGiGC.s:1084   .text.set_early_late_thresholds:0000000000000000 set_early_late_thresholds
     /tmp/ccghGiGC.s:453    .text.sgmii_channel_setup:000000000000038c .L0 
     /tmp/ccghGiGC.s:456    .text.sgmii_channel_setup:0000000000000396 .L0 
     /tmp/ccghGiGC.s:460    .text.sgmii_channel_setup:000000000000039e .L0 
     /tmp/ccghGiGC.s:464    .text.sgmii_channel_setup:00000000000003aa .L0 
     /tmp/ccghGiGC.s:470    .text.sgmii_channel_setup:00000000000003b8 .L0 
     /tmp/ccghGiGC.s:474    .text.sgmii_channel_setup:00000000000003c4 .L0 
     /tmp/ccghGiGC.s:479    .text.sgmii_channel_setup:00000000000003d0 .L0 
     /tmp/ccghGiGC.s:483    .text.sgmii_channel_setup:00000000000003dc .L0 
     /tmp/ccghGiGC.s:486    .text.sgmii_channel_setup:00000000000003de .L0 
     /tmp/ccghGiGC.s:489    .text.sgmii_channel_setup:00000000000003e8 .L0 
     /tmp/ccghGiGC.s:495    .text.sgmii_channel_setup:00000000000003f6 .L0 
     /tmp/ccghGiGC.s:498    .text.sgmii_channel_setup:0000000000000400 .L0 
     /tmp/ccghGiGC.s:503    .text.sgmii_channel_setup:000000000000040c .L0 
     /tmp/ccghGiGC.s:506    .text.sgmii_channel_setup:0000000000000416 .L0 
     /tmp/ccghGiGC.s:510    .text.sgmii_channel_setup:000000000000041e .L0 
     /tmp/ccghGiGC.s:513    .text.sgmii_channel_setup:000000000000042a .L0 
     /tmp/ccghGiGC.s:517    .text.sgmii_channel_setup:0000000000000436 .L0 
     /tmp/ccghGiGC.s:520    .text.sgmii_channel_setup:0000000000000438 .L0 
     /tmp/ccghGiGC.s:524    .text.sgmii_channel_setup:0000000000000444 .L0 
     /tmp/ccghGiGC.s:527    .text.sgmii_channel_setup:0000000000000446 .L0 
     /tmp/ccghGiGC.s:534    .text.sgmii_channel_setup:0000000000000460 .L0 
     /tmp/ccghGiGC.s:537    .text.sgmii_channel_setup:000000000000046a .L0 
     /tmp/ccghGiGC.s:542    .text.sgmii_channel_setup:0000000000000474 .L0 
     /tmp/ccghGiGC.s:545    .text.sgmii_channel_setup:0000000000000480 .L0 
     /tmp/ccghGiGC.s:549    .text.sgmii_channel_setup:000000000000048c .L0 
     /tmp/ccghGiGC.s:552    .text.sgmii_channel_setup:000000000000048e .L0 
     /tmp/ccghGiGC.s:555    .text.sgmii_channel_setup:0000000000000498 .L0 
     /tmp/ccghGiGC.s:560    .text.sgmii_channel_setup:00000000000004a2 .L0 
     /tmp/ccghGiGC.s:564    .text.sgmii_channel_setup:00000000000004aa .L0 
     /tmp/ccghGiGC.s:567    .text.sgmii_channel_setup:00000000000004b2 .L0 
     /tmp/ccghGiGC.s:571    .text.sgmii_channel_setup:00000000000004be .L0 
     /tmp/ccghGiGC.s:574    .text.sgmii_channel_setup:00000000000004c0 .L0 
     /tmp/ccghGiGC.s:578    .text.sgmii_channel_setup:00000000000004cc .L0 
     /tmp/ccghGiGC.s:581    .text.sgmii_channel_setup:00000000000004d6 .L0 
     /tmp/ccghGiGC.s:587    .text.sgmii_channel_setup:00000000000004e4 .L0 
     /tmp/ccghGiGC.s:590    .text.sgmii_channel_setup:00000000000004ee .L0 
     /tmp/ccghGiGC.s:595    .text.sgmii_channel_setup:00000000000004fa .L0 
     /tmp/ccghGiGC.s:599    .text.sgmii_channel_setup:0000000000000506 .L0 
     /tmp/ccghGiGC.s:602    .text.sgmii_channel_setup:0000000000000508 .L0 
     /tmp/ccghGiGC.s:605    .text.sgmii_channel_setup:0000000000000514 .L0 
     /tmp/ccghGiGC.s:608    .text.sgmii_channel_setup:0000000000000516 .L0 
     /tmp/ccghGiGC.s:612    .text.sgmii_channel_setup:000000000000051a .L0 
     /tmp/ccghGiGC.s:616    .text.sgmii_channel_setup:000000000000051e .L0 
     /tmp/ccghGiGC.s:620    .text.sgmii_channel_setup:0000000000000522 .L0 
     /tmp/ccghGiGC.s:624    .text.sgmii_channel_setup:0000000000000526 .L0 
     /tmp/ccghGiGC.s:628    .text.sgmii_channel_setup:000000000000052a .L0 
     /tmp/ccghGiGC.s:631    .text.sgmii_channel_setup:000000000000052c .L0 
     /tmp/ccghGiGC.s:634    .text.sgmii_channel_setup:0000000000000536 .L0 
     /tmp/ccghGiGC.s:636    .text.sgmii_channel_setup:000000000000053a .L0 
     /tmp/ccghGiGC.s:638    .text.sgmii_channel_setup:000000000000053c .L0 
     /tmp/ccghGiGC.s:639    .text.sgmii_channel_setup:000000000000053c .L0 
     /tmp/ccghGiGC.s:641    .text.sgmii_channel_setup:000000000000053e .L0 
     /tmp/ccghGiGC.s:643    .text.sgmii_channel_setup:0000000000000540 .L0 
     /tmp/ccghGiGC.s:652    .text.setup_sgmii_rpc_per_config:0000000000000000 .L0 
     /tmp/ccghGiGC.s:653    .text.setup_sgmii_rpc_per_config:0000000000000000 .L0 
     /tmp/ccghGiGC.s:654    .text.setup_sgmii_rpc_per_config:0000000000000002 .L0 
     /tmp/ccghGiGC.s:656    .text.setup_sgmii_rpc_per_config:0000000000000004 .L0 
     /tmp/ccghGiGC.s:658    .text.setup_sgmii_rpc_per_config:0000000000000006 .L0 
     /tmp/ccghGiGC.s:660    .text.setup_sgmii_rpc_per_config:0000000000000006 .L0 
     /tmp/ccghGiGC.s:663    .text.setup_sgmii_rpc_per_config:0000000000000010 .L0 
     /tmp/ccghGiGC.s:669    .text.setup_sgmii_rpc_per_config:0000000000000020 .L0 
     /tmp/ccghGiGC.s:672    .text.setup_sgmii_rpc_per_config:000000000000002a .L0 
     /tmp/ccghGiGC.s:678    .text.setup_sgmii_rpc_per_config:000000000000003a .L0 
     /tmp/ccghGiGC.s:681    .text.setup_sgmii_rpc_per_config:0000000000000044 .L0 
     /tmp/ccghGiGC.s:687    .text.setup_sgmii_rpc_per_config:0000000000000054 .L0 
     /tmp/ccghGiGC.s:690    .text.setup_sgmii_rpc_per_config:000000000000005e .L0 
     /tmp/ccghGiGC.s:696    .text.setup_sgmii_rpc_per_config:000000000000006c .L0 
     /tmp/ccghGiGC.s:699    .text.setup_sgmii_rpc_per_config:0000000000000076 .L0 
     /tmp/ccghGiGC.s:705    .text.setup_sgmii_rpc_per_config:0000000000000086 .L0 
     /tmp/ccghGiGC.s:708    .text.setup_sgmii_rpc_per_config:0000000000000090 .L0 
     /tmp/ccghGiGC.s:713    .text.setup_sgmii_rpc_per_config:000000000000009c .L0 
     /tmp/ccghGiGC.s:716    .text.setup_sgmii_rpc_per_config:00000000000000a6 .L0 
     /tmp/ccghGiGC.s:722    .text.setup_sgmii_rpc_per_config:00000000000000b6 .L0 
     /tmp/ccghGiGC.s:724    .text.setup_sgmii_rpc_per_config:00000000000000ba .L0 
     /tmp/ccghGiGC.s:725    .text.setup_sgmii_rpc_per_config:00000000000000ba .L0 
     /tmp/ccghGiGC.s:727    .text.setup_sgmii_rpc_per_config:00000000000000bc .L0 
     /tmp/ccghGiGC.s:729    .text.setup_sgmii_rpc_per_config:00000000000000be .L0 
     /tmp/ccghGiGC.s:736    .text.sgmii_off_mode:0000000000000000 sgmii_off_mode
     /tmp/ccghGiGC.s:739    .text.sgmii_off_mode:0000000000000000 .L0 
     /tmp/ccghGiGC.s:740    .text.sgmii_off_mode:0000000000000000 .L0 
     /tmp/ccghGiGC.s:741    .text.sgmii_off_mode:0000000000000002 .L0 
     /tmp/ccghGiGC.s:744    .text.sgmii_off_mode:0000000000000006 .L0 
     /tmp/ccghGiGC.s:745    .text.sgmii_off_mode:0000000000000006 .L0 
     /tmp/ccghGiGC.s:747    .text.sgmii_off_mode:0000000000000008 .L0 
     /tmp/ccghGiGC.s:749    .text.sgmii_off_mode:0000000000000008 .L0 
     /tmp/ccghGiGC.s:752    .text.sgmii_off_mode:0000000000000012 .L0 
     /tmp/ccghGiGC.s:757    .text.sgmii_off_mode:000000000000001e .L0 
     /tmp/ccghGiGC.s:760    .text.sgmii_off_mode:0000000000000028 .L0 
     /tmp/ccghGiGC.s:765    .text.sgmii_off_mode:0000000000000032 .L0 
     /tmp/ccghGiGC.s:767    .text.sgmii_off_mode:000000000000003a .L0 
     /tmp/ccghGiGC.s:769    .text.sgmii_off_mode:000000000000003e .L0 
     /tmp/ccghGiGC.s:772    .text.sgmii_off_mode:0000000000000042 .L0 
     /tmp/ccghGiGC.s:774    .text.sgmii_off_mode:0000000000000046 .L0 
     /tmp/ccghGiGC.s:776    .text.sgmii_off_mode:0000000000000048 .L0 
     /tmp/ccghGiGC.s:777    .text.sgmii_off_mode:0000000000000048 .L0 
     /tmp/ccghGiGC.s:779    .text.sgmii_off_mode:000000000000004a .L0 
     /tmp/ccghGiGC.s:781    .text.sgmii_off_mode:000000000000004c .L0 
     /tmp/ccghGiGC.s:788    .text.ddr_pvt_calibration:0000000000000000 ddr_pvt_calibration
     /tmp/ccghGiGC.s:791    .text.ddr_pvt_calibration:0000000000000000 .L0 
     /tmp/ccghGiGC.s:792    .text.ddr_pvt_calibration:0000000000000000 .L0 
     /tmp/ccghGiGC.s:793    .text.ddr_pvt_calibration:0000000000000002 .L0 
     /tmp/ccghGiGC.s:795    .text.ddr_pvt_calibration:0000000000000004 .L0 
     /tmp/ccghGiGC.s:797    .text.ddr_pvt_calibration:0000000000000006 .L0 
     /tmp/ccghGiGC.s:799    .text.ddr_pvt_calibration:0000000000000006 .L0 
     /tmp/ccghGiGC.s:801    .text.ddr_pvt_calibration:000000000000000a .L0 
     /tmp/ccghGiGC.s:804    .text.ddr_pvt_calibration:000000000000000c .L0 
     /tmp/ccghGiGC.s:811    .text.ddr_pvt_calibration:000000000000001a .L0 
     /tmp/ccghGiGC.s:814    .text.ddr_pvt_calibration:0000000000000024 .L0 
     /tmp/ccghGiGC.s:817    .text.ddr_pvt_calibration:000000000000002a .L0 
     /tmp/ccghGiGC.s:820    .text.ddr_pvt_calibration:000000000000002e .L0 
     /tmp/ccghGiGC.s:822    .text.ddr_pvt_calibration:0000000000000030 .L0 
     /tmp/ccghGiGC.s:824    .text.ddr_pvt_calibration:0000000000000034 .L0 
     /tmp/ccghGiGC.s:827    .text.ddr_pvt_calibration:0000000000000036 .L0 
     /tmp/ccghGiGC.s:834    .text.ddr_pvt_calibration:0000000000000044 .L0 
     /tmp/ccghGiGC.s:837    .text.ddr_pvt_calibration:000000000000004a .L0 
     /tmp/ccghGiGC.s:841    .text.ddr_pvt_calibration:0000000000000052 .L0 
     /tmp/ccghGiGC.s:844    .text.ddr_pvt_calibration:000000000000005c .L0 
     /tmp/ccghGiGC.s:847    .text.ddr_pvt_calibration:0000000000000062 .L0 
     /tmp/ccghGiGC.s:850    .text.ddr_pvt_calibration:000000000000006c .L0 
     /tmp/ccghGiGC.s:853    .text.ddr_pvt_calibration:0000000000000070 .L0 
     /tmp/ccghGiGC.s:856    .text.ddr_pvt_calibration:000000000000007a .L0 
     /tmp/ccghGiGC.s:858    .text.ddr_pvt_calibration:000000000000007e .L0 
     /tmp/ccghGiGC.s:860    .text.ddr_pvt_calibration:0000000000000082 .L0 
     /tmp/ccghGiGC.s:863    .text.ddr_pvt_calibration:0000000000000084 .L0 
     /tmp/ccghGiGC.s:870    .text.ddr_pvt_calibration:0000000000000092 .L0 
     /tmp/ccghGiGC.s:875    .text.ddr_pvt_calibration:00000000000000a0 .L0 
     /tmp/ccghGiGC.s:878    .text.ddr_pvt_calibration:00000000000000a4 .L0 
     /tmp/ccghGiGC.s:880    .text.ddr_pvt_calibration:00000000000000a6 .L0 
     /tmp/ccghGiGC.s:883    .text.ddr_pvt_calibration:00000000000000a8 .L0 
     /tmp/ccghGiGC.s:890    .text.ddr_pvt_calibration:00000000000000b6 .L0 
     /tmp/ccghGiGC.s:893    .text.ddr_pvt_calibration:00000000000000c0 .L0 
     /tmp/ccghGiGC.s:896    .text.ddr_pvt_calibration:00000000000000c6 .L0 
     /tmp/ccghGiGC.s:899    .text.ddr_pvt_calibration:00000000000000ca .L0 
     /tmp/ccghGiGC.s:901    .text.ddr_pvt_calibration:00000000000000cc .L0 
     /tmp/ccghGiGC.s:914    .text.ddr_pvt_calibration:00000000000000f6 .L0 
     /tmp/ccghGiGC.s:927    .text.ddr_pvt_calibration:000000000000011c .L0 
     /tmp/ccghGiGC.s:939    .text.ddr_pvt_calibration:0000000000000144 .L0 
     /tmp/ccghGiGC.s:951    .text.ddr_pvt_calibration:0000000000000168 .L0 
     /tmp/ccghGiGC.s:953    .text.ddr_pvt_calibration:000000000000016c .L0 
     /tmp/ccghGiGC.s:954    .text.ddr_pvt_calibration:000000000000016c .L0 
     /tmp/ccghGiGC.s:956    .text.ddr_pvt_calibration:000000000000016e .L0 
     /tmp/ccghGiGC.s:958    .text.ddr_pvt_calibration:0000000000000170 .L0 
     /tmp/ccghGiGC.s:965    .text.ddr_pvt_recalibration:0000000000000000 ddr_pvt_recalibration
     /tmp/ccghGiGC.s:968    .text.ddr_pvt_recalibration:0000000000000000 .L0 
     /tmp/ccghGiGC.s:969    .text.ddr_pvt_recalibration:0000000000000000 .L0 
     /tmp/ccghGiGC.s:970    .text.ddr_pvt_recalibration:0000000000000002 .L0 
     /tmp/ccghGiGC.s:972    .text.ddr_pvt_recalibration:0000000000000004 .L0 
     /tmp/ccghGiGC.s:974    .text.ddr_pvt_recalibration:0000000000000006 .L0 
     /tmp/ccghGiGC.s:976    .text.ddr_pvt_recalibration:0000000000000006 .L0 
     /tmp/ccghGiGC.s:978    .text.ddr_pvt_recalibration:000000000000000a .L0 
     /tmp/ccghGiGC.s:991    .text.ddr_pvt_recalibration:0000000000000034 .L0 
     /tmp/ccghGiGC.s:1004   .text.ddr_pvt_recalibration:000000000000005a .L0 
     /tmp/ccghGiGC.s:1016   .text.ddr_pvt_recalibration:0000000000000082 .L0 
     /tmp/ccghGiGC.s:1028   .text.ddr_pvt_recalibration:00000000000000a6 .L0 
     /tmp/ccghGiGC.s:1030   .text.ddr_pvt_recalibration:00000000000000aa .L0 
     /tmp/ccghGiGC.s:1033   .text.ddr_pvt_recalibration:00000000000000ac .L0 
     /tmp/ccghGiGC.s:1040   .text.ddr_pvt_recalibration:00000000000000ba .L0 
     /tmp/ccghGiGC.s:1045   .text.ddr_pvt_recalibration:00000000000000c8 .L0 
     /tmp/ccghGiGC.s:1048   .text.ddr_pvt_recalibration:00000000000000cc .L0 
     /tmp/ccghGiGC.s:1050   .text.ddr_pvt_recalibration:00000000000000ce .L0 
     /tmp/ccghGiGC.s:1053   .text.ddr_pvt_recalibration:00000000000000d0 .L0 
     /tmp/ccghGiGC.s:1060   .text.ddr_pvt_recalibration:00000000000000de .L0 
     /tmp/ccghGiGC.s:1063   .text.ddr_pvt_recalibration:00000000000000e8 .L0 
     /tmp/ccghGiGC.s:1066   .text.ddr_pvt_recalibration:00000000000000ee .L0 
     /tmp/ccghGiGC.s:1069   .text.ddr_pvt_recalibration:00000000000000f2 .L0 
     /tmp/ccghGiGC.s:1071   .text.ddr_pvt_recalibration:00000000000000f4 .L0 
     /tmp/ccghGiGC.s:1073   .text.ddr_pvt_recalibration:00000000000000f8 .L0 
     /tmp/ccghGiGC.s:1074   .text.ddr_pvt_recalibration:00000000000000f8 .L0 
     /tmp/ccghGiGC.s:1076   .text.ddr_pvt_recalibration:00000000000000fa .L0 
     /tmp/ccghGiGC.s:1078   .text.ddr_pvt_recalibration:00000000000000fc .L0 
     /tmp/ccghGiGC.s:1087   .text.set_early_late_thresholds:0000000000000000 .L0 
     /tmp/ccghGiGC.s:1088   .text.set_early_late_thresholds:0000000000000000 .L0 
     /tmp/ccghGiGC.s:1089   .text.set_early_late_thresholds:0000000000000002 .L0 
     /tmp/ccghGiGC.s:1091   .text.set_early_late_thresholds:0000000000000004 .L0 
     /tmp/ccghGiGC.s:1093   .text.set_early_late_thresholds:0000000000000006 .L0 
     /tmp/ccghGiGC.s:1100   .text.set_early_late_thresholds:0000000000000014 .L0 
     /tmp/ccghGiGC.s:1105   .text.set_early_late_thresholds:0000000000000020 .L0 
     /tmp/ccghGiGC.s:1107   .text.set_early_late_thresholds:0000000000000024 .L0 
     /tmp/ccghGiGC.s:1112   .text.set_early_late_thresholds:0000000000000030 .L0 
     /tmp/ccghGiGC.s:1114   .text.set_early_late_thresholds:0000000000000034 .L0 
     /tmp/ccghGiGC.s:1118   .text.set_early_late_thresholds:000000000000003e .L0 
     /tmp/ccghGiGC.s:1121   .text.set_early_late_thresholds:0000000000000048 .L0 
     /tmp/ccghGiGC.s:1129   .text.set_early_late_thresholds:000000000000005e .L0 
     /tmp/ccghGiGC.s:1134   .text.set_early_late_thresholds:000000000000006a .L0 
     /tmp/ccghGiGC.s:1136   .text.set_early_late_thresholds:000000000000006e .L0 
     /tmp/ccghGiGC.s:1139   .text.set_early_late_thresholds:0000000000000078 .L0 
     /tmp/ccghGiGC.s:1148   .text.set_early_late_thresholds:0000000000000092 .L0 
     /tmp/ccghGiGC.s:1151   .text.set_early_late_thresholds:000000000000009c .L0 
     /tmp/ccghGiGC.s:1160   .text.set_early_late_thresholds:00000000000000b6 .L0 
     /tmp/ccghGiGC.s:1162   .text.set_early_late_thresholds:00000000000000ba .L0 
     /tmp/ccghGiGC.s:1163   .text.set_early_late_thresholds:00000000000000ba .L0 
     /tmp/ccghGiGC.s:1165   .text.set_early_late_thresholds:00000000000000bc .L0 
     /tmp/ccghGiGC.s:1167   .text.set_early_late_thresholds:00000000000000be .L0 
     /tmp/ccghGiGC.s:62     .text.sgmii_setup:0000000000000024 .L0 
     /tmp/ccghGiGC.s:646    .text.sgmii_channel_setup:0000000000000540 .L0 
     /tmp/ccghGiGC.s:732    .text.setup_sgmii_rpc_per_config:00000000000000be .L0 
     /tmp/ccghGiGC.s:784    .text.sgmii_off_mode:000000000000004c .L0 
     /tmp/ccghGiGC.s:961    .text.ddr_pvt_calibration:0000000000000170 .L0 
     /tmp/ccghGiGC.s:1081   .text.ddr_pvt_recalibration:00000000000000fc .L0 
     /tmp/ccghGiGC.s:1170   .text.set_early_late_thresholds:00000000000000be .L0 
                     .debug_frame:0000000000000000 .L0 
     /tmp/ccghGiGC.s:40     .text.sgmii_setup:000000000000000a .L2
     /tmp/ccghGiGC.s:78     .text.sgmii_channel_setup:0000000000000008 .L0 
     /tmp/ccghGiGC.s:94     .rodata.sgmii_channel_setup:0000000000000000 .L7
     /tmp/ccghGiGC.s:84     .text.sgmii_channel_setup:000000000000001e .L0 
     /tmp/ccghGiGC.s:88     .text.sgmii_channel_setup:000000000000002e .L0 
     /tmp/ccghGiGC.s:113    .text.sgmii_channel_setup:000000000000003a .L0 
     /tmp/ccghGiGC.s:117    .text.sgmii_channel_setup:0000000000000046 .L0 
     /tmp/ccghGiGC.s:125    .text.sgmii_channel_setup:000000000000005c .L0 
     /tmp/ccghGiGC.s:140    .text.sgmii_channel_setup:0000000000000080 .L0 
     /tmp/ccghGiGC.s:147    .text.sgmii_channel_setup:000000000000008e .L0 
     /tmp/ccghGiGC.s:151    .text.sgmii_channel_setup:000000000000009e .L0 
     /tmp/ccghGiGC.s:154    .text.sgmii_channel_setup:00000000000000a8 .L0 
     /tmp/ccghGiGC.s:167    .text.sgmii_channel_setup:00000000000000c6 .L0 
     /tmp/ccghGiGC.s:170    .text.sgmii_channel_setup:00000000000000d2 .L0 
     /tmp/ccghGiGC.s:177    .text.sgmii_channel_setup:00000000000000e0 .L0 
     /tmp/ccghGiGC.s:181    .text.sgmii_channel_setup:00000000000000f0 .L0 
     /tmp/ccghGiGC.s:184    .text.sgmii_channel_setup:00000000000000fa .L0 
     /tmp/ccghGiGC.s:191    .text.sgmii_channel_setup:000000000000010c .L0 
     /tmp/ccghGiGC.s:194    .text.sgmii_channel_setup:0000000000000118 .L0 
     /tmp/ccghGiGC.s:201    .text.sgmii_channel_setup:0000000000000126 .L0 
     /tmp/ccghGiGC.s:221    .text.sgmii_channel_setup:000000000000014c .L0 
     /tmp/ccghGiGC.s:229    .text.sgmii_channel_setup:0000000000000162 .L0 
     /tmp/ccghGiGC.s:237    .text.sgmii_channel_setup:0000000000000178 .L0 
     /tmp/ccghGiGC.s:243    .text.sgmii_channel_setup:0000000000000186 .L0 
     /tmp/ccghGiGC.s:248    .text.sgmii_channel_setup:0000000000000194 .L0 
     /tmp/ccghGiGC.s:255    .text.sgmii_channel_setup:00000000000001a2 .L0 
     /tmp/ccghGiGC.s:272    .text.sgmii_channel_setup:00000000000001c6 .L0 
     /tmp/ccghGiGC.s:279    .text.sgmii_channel_setup:00000000000001d4 .L0 
     /tmp/ccghGiGC.s:285    .text.sgmii_channel_setup:00000000000001ea .L0 
     /tmp/ccghGiGC.s:294    .text.sgmii_channel_setup:0000000000000206 .L0 
     /tmp/ccghGiGC.s:298    .text.sgmii_channel_setup:0000000000000216 .L0 
     /tmp/ccghGiGC.s:306    .text.sgmii_channel_setup:000000000000022a .L0 
     /tmp/ccghGiGC.s:319    .text.sgmii_channel_setup:000000000000024c .L0 
     /tmp/ccghGiGC.s:322    .text.sgmii_channel_setup:0000000000000258 .L0 
     /tmp/ccghGiGC.s:329    .text.sgmii_channel_setup:0000000000000266 .L0 
     /tmp/ccghGiGC.s:342    .text.sgmii_channel_setup:0000000000000284 .L0 
     /tmp/ccghGiGC.s:349    .text.sgmii_channel_setup:0000000000000292 .L0 
     /tmp/ccghGiGC.s:364    .text.sgmii_channel_setup:00000000000002b4 .L0 
     /tmp/ccghGiGC.s:407    .text.sgmii_channel_setup:000000000000031e .L0 
     /tmp/ccghGiGC.s:414    .text.sgmii_channel_setup:000000000000032c .L0 
     /tmp/ccghGiGC.s:428    .text.sgmii_channel_setup:000000000000034e .L0 
     /tmp/ccghGiGC.s:431    .text.sgmii_channel_setup:0000000000000358 .L0 
     /tmp/ccghGiGC.s:443    .text.sgmii_channel_setup:0000000000000372 .L0 
     /tmp/ccghGiGC.s:453    .text.sgmii_channel_setup:000000000000038c .L0 
     /tmp/ccghGiGC.s:460    .text.sgmii_channel_setup:000000000000039e .L0 
     /tmp/ccghGiGC.s:470    .text.sgmii_channel_setup:00000000000003b8 .L0 
     /tmp/ccghGiGC.s:479    .text.sgmii_channel_setup:00000000000003d0 .L0 
     /tmp/ccghGiGC.s:486    .text.sgmii_channel_setup:00000000000003de .L0 
     /tmp/ccghGiGC.s:495    .text.sgmii_channel_setup:00000000000003f6 .L0 
     /tmp/ccghGiGC.s:503    .text.sgmii_channel_setup:000000000000040c .L0 
     /tmp/ccghGiGC.s:510    .text.sgmii_channel_setup:000000000000041e .L0 
     /tmp/ccghGiGC.s:513    .text.sgmii_channel_setup:000000000000042a .L0 
     /tmp/ccghGiGC.s:520    .text.sgmii_channel_setup:0000000000000438 .L0 
     /tmp/ccghGiGC.s:527    .text.sgmii_channel_setup:0000000000000446 .L0 
     /tmp/ccghGiGC.s:531    .text.sgmii_channel_setup:0000000000000456 .L0 
     /tmp/ccghGiGC.s:534    .text.sgmii_channel_setup:0000000000000460 .L0 
     /tmp/ccghGiGC.s:542    .text.sgmii_channel_setup:0000000000000474 .L0 
     /tmp/ccghGiGC.s:545    .text.sgmii_channel_setup:0000000000000480 .L0 
     /tmp/ccghGiGC.s:552    .text.sgmii_channel_setup:000000000000048e .L0 
     /tmp/ccghGiGC.s:567    .text.sgmii_channel_setup:00000000000004b2 .L0 
     /tmp/ccghGiGC.s:578    .text.sgmii_channel_setup:00000000000004cc .L0 
     /tmp/ccghGiGC.s:587    .text.sgmii_channel_setup:00000000000004e4 .L0 
     /tmp/ccghGiGC.s:595    .text.sgmii_channel_setup:00000000000004fa .L0 
     /tmp/ccghGiGC.s:602    .text.sgmii_channel_setup:0000000000000508 .L0 
     /tmp/ccghGiGC.s:631    .text.sgmii_channel_setup:000000000000052c .L0 
     /tmp/ccghGiGC.s:629    .text.sgmii_channel_setup:000000000000052c .L5
     /tmp/ccghGiGC.s:606    .text.sgmii_channel_setup:0000000000000516 .L36
     /tmp/ccghGiGC.s:610    .text.sgmii_channel_setup:000000000000051a .L37
     /tmp/ccghGiGC.s:614    .text.sgmii_channel_setup:000000000000051e .L38
     /tmp/ccghGiGC.s:618    .text.sgmii_channel_setup:0000000000000522 .L39
     /tmp/ccghGiGC.s:622    .text.sgmii_channel_setup:0000000000000526 .L40
     /tmp/ccghGiGC.s:451    .text.sgmii_channel_setup:000000000000038c .L27
     /tmp/ccghGiGC.s:477    .text.sgmii_channel_setup:00000000000003d0 .L28
     /tmp/ccghGiGC.s:468    .text.sgmii_channel_setup:00000000000003b8 .L29
     /tmp/ccghGiGC.s:518    .text.sgmii_channel_setup:0000000000000438 .L30
     /tmp/ccghGiGC.s:626    .text.sgmii_channel_setup:000000000000052a .L41
     /tmp/ccghGiGC.s:572    .text.sgmii_channel_setup:00000000000004c0 .L33
     /tmp/ccghGiGC.s:111    .text.sgmii_channel_setup:000000000000003a .L21
     /tmp/ccghGiGC.s:145    .text.sgmii_channel_setup:000000000000008e .L20
     /tmp/ccghGiGC.s:175    .text.sgmii_channel_setup:00000000000000e0 .L19
     /tmp/ccghGiGC.s:199    .text.sgmii_channel_setup:0000000000000126 .L18
     /tmp/ccghGiGC.s:253    .text.sgmii_channel_setup:00000000000001a2 .L17
     /tmp/ccghGiGC.s:277    .text.sgmii_channel_setup:00000000000001d4 .L16
     /tmp/ccghGiGC.s:311    .text.sgmii_channel_setup:0000000000000238 .L15
     /tmp/ccghGiGC.s:327    .text.sgmii_channel_setup:0000000000000266 .L14
     /tmp/ccghGiGC.s:347    .text.sgmii_channel_setup:0000000000000292 .L13
     /tmp/ccghGiGC.s:369    .text.sgmii_channel_setup:00000000000002c2 .L12
     /tmp/ccghGiGC.s:412    .text.sgmii_channel_setup:000000000000032c .L11
     /tmp/ccghGiGC.s:484    .text.sgmii_channel_setup:00000000000003de .L10
     /tmp/ccghGiGC.s:525    .text.sgmii_channel_setup:0000000000000446 .L9
     /tmp/ccghGiGC.s:550    .text.sgmii_channel_setup:000000000000048e .L8
     /tmp/ccghGiGC.s:600    .text.sgmii_channel_setup:0000000000000508 .L6
     /tmp/ccghGiGC.s:660    .text.setup_sgmii_rpc_per_config:0000000000000006 .L0 
     /tmp/ccghGiGC.s:669    .text.setup_sgmii_rpc_per_config:0000000000000020 .L0 
     /tmp/ccghGiGC.s:678    .text.setup_sgmii_rpc_per_config:000000000000003a .L0 
     /tmp/ccghGiGC.s:687    .text.setup_sgmii_rpc_per_config:0000000000000054 .L0 
     /tmp/ccghGiGC.s:696    .text.setup_sgmii_rpc_per_config:000000000000006c .L0 
     /tmp/ccghGiGC.s:705    .text.setup_sgmii_rpc_per_config:0000000000000086 .L0 
     /tmp/ccghGiGC.s:713    .text.setup_sgmii_rpc_per_config:000000000000009c .L0 
     /tmp/ccghGiGC.s:749    .text.sgmii_off_mode:0000000000000008 .L0 
     /tmp/ccghGiGC.s:757    .text.sgmii_off_mode:000000000000001e .L0 
     /tmp/ccghGiGC.s:811    .text.ddr_pvt_calibration:000000000000001a .L0 
     /tmp/ccghGiGC.s:841    .text.ddr_pvt_calibration:0000000000000052 .L0 
     /tmp/ccghGiGC.s:847    .text.ddr_pvt_calibration:0000000000000062 .L0 
     /tmp/ccghGiGC.s:853    .text.ddr_pvt_calibration:0000000000000070 .L0 
     /tmp/ccghGiGC.s:870    .text.ddr_pvt_calibration:0000000000000092 .L0 
     /tmp/ccghGiGC.s:890    .text.ddr_pvt_calibration:00000000000000b6 .L0 
     /tmp/ccghGiGC.s:901    .text.ddr_pvt_calibration:00000000000000cc .L0 
     /tmp/ccghGiGC.s:905    .text.ddr_pvt_calibration:00000000000000de .L0 
     /tmp/ccghGiGC.s:914    .text.ddr_pvt_calibration:00000000000000f6 .L0 
     /tmp/ccghGiGC.s:918    .text.ddr_pvt_calibration:0000000000000106 .L0 
     /tmp/ccghGiGC.s:927    .text.ddr_pvt_calibration:000000000000011c .L0 
     /tmp/ccghGiGC.s:931    .text.ddr_pvt_calibration:000000000000012e .L0 
     /tmp/ccghGiGC.s:939    .text.ddr_pvt_calibration:0000000000000144 .L0 
     /tmp/ccghGiGC.s:943    .text.ddr_pvt_calibration:0000000000000154 .L0 
     /tmp/ccghGiGC.s:809    .text.ddr_pvt_calibration:000000000000001a .L45
     /tmp/ccghGiGC.s:802    .text.ddr_pvt_calibration:000000000000000c .L46
     /tmp/ccghGiGC.s:832    .text.ddr_pvt_calibration:0000000000000044 .L47
     /tmp/ccghGiGC.s:825    .text.ddr_pvt_calibration:0000000000000036 .L48
     /tmp/ccghGiGC.s:868    .text.ddr_pvt_calibration:0000000000000092 .L49
     /tmp/ccghGiGC.s:861    .text.ddr_pvt_calibration:0000000000000084 .L50
     /tmp/ccghGiGC.s:888    .text.ddr_pvt_calibration:00000000000000b6 .L51
     /tmp/ccghGiGC.s:881    .text.ddr_pvt_calibration:00000000000000a8 .L52
     /tmp/ccghGiGC.s:978    .text.ddr_pvt_recalibration:000000000000000a .L0 
     /tmp/ccghGiGC.s:982    .text.ddr_pvt_recalibration:000000000000001c .L0 
     /tmp/ccghGiGC.s:991    .text.ddr_pvt_recalibration:0000000000000034 .L0 
     /tmp/ccghGiGC.s:995    .text.ddr_pvt_recalibration:0000000000000044 .L0 
     /tmp/ccghGiGC.s:1004   .text.ddr_pvt_recalibration:000000000000005a .L0 
     /tmp/ccghGiGC.s:1008   .text.ddr_pvt_recalibration:000000000000006c .L0 
     /tmp/ccghGiGC.s:1016   .text.ddr_pvt_recalibration:0000000000000082 .L0 
     /tmp/ccghGiGC.s:1020   .text.ddr_pvt_recalibration:0000000000000092 .L0 
     /tmp/ccghGiGC.s:1040   .text.ddr_pvt_recalibration:00000000000000ba .L0 
     /tmp/ccghGiGC.s:1060   .text.ddr_pvt_recalibration:00000000000000de .L0 
     /tmp/ccghGiGC.s:1038   .text.ddr_pvt_recalibration:00000000000000ba .L54
     /tmp/ccghGiGC.s:1031   .text.ddr_pvt_recalibration:00000000000000ac .L55
     /tmp/ccghGiGC.s:1058   .text.ddr_pvt_recalibration:00000000000000de .L56
     /tmp/ccghGiGC.s:1051   .text.ddr_pvt_recalibration:00000000000000d0 .L57
     /tmp/ccghGiGC.s:1118   .text.set_early_late_thresholds:000000000000003e .L0 
     /tmp/ccghGiGC.s:1136   .text.set_early_late_thresholds:000000000000006e .L0 
     /tmp/ccghGiGC.s:1148   .text.set_early_late_thresholds:0000000000000092 .L0 
     /tmp/ccghGiGC.s:68971  .debug_abbrev:0000000000000000 .Ldebug_abbrev0
     /tmp/ccghGiGC.s:98331  .debug_str:0000000000024d9b .LASF9733
     /tmp/ccghGiGC.s:99315  .debug_str:0000000000028a68 .LASF9734
     /tmp/ccghGiGC.s:108781  .debug_str:000000000004fae2 .LASF9735
     /tmp/ccghGiGC.s:69879  .debug_ranges:0000000000000000 .Ldebug_ranges0
     /tmp/ccghGiGC.s:89417  .debug_line:0000000000000000 .Ldebug_line0
     /tmp/ccghGiGC.s:69897  .debug_macro:0000000000000000 .Ldebug_macro0
     /tmp/ccghGiGC.s:107221  .debug_str:000000000004904c .LASF6046
     /tmp/ccghGiGC.s:95571  .debug_str:0000000000018fe8 .LASF6047
     /tmp/ccghGiGC.s:108733  .debug_str:000000000004f70a .LASF6048
     /tmp/ccghGiGC.s:101683  .debug_str:000000000003223d .LASF6049
     /tmp/ccghGiGC.s:100717  .debug_str:000000000002e3e6 .LASF6052
     /tmp/ccghGiGC.s:90187  .debug_str:000000000000357c .LASF6050
     /tmp/ccghGiGC.s:106771  .debug_str:00000000000472e9 .LASF6051
     /tmp/ccghGiGC.s:90563  .debug_str:0000000000004f0e .LASF6053
     /tmp/ccghGiGC.s:94267  .debug_str:0000000000013d06 .LASF6054
     /tmp/ccghGiGC.s:104957  .debug_str:000000000003f724 .LASF6055
     /tmp/ccghGiGC.s:100977  .debug_str:000000000002f4c2 .LASF6056
     /tmp/ccghGiGC.s:98047  .debug_str:0000000000023b93 .LASF6057
     /tmp/ccghGiGC.s:93737  .debug_str:0000000000011983 .LASF6058
     /tmp/ccghGiGC.s:90111  .debug_str:0000000000003090 .LASF6059
     /tmp/ccghGiGC.s:90751  .debug_str:0000000000005b33 .LASF6060
     /tmp/ccghGiGC.s:102239  .debug_str:0000000000034798 .LASF6061
     /tmp/ccghGiGC.s:102631  .debug_str:000000000003635c .LASF6062
     /tmp/ccghGiGC.s:103157  .debug_str:0000000000038512 .LASF6063
     /tmp/ccghGiGC.s:108095  .debug_str:000000000004cb2b .LASF6064
     /tmp/ccghGiGC.s:102215  .debug_str:00000000000345f3 .LASF6065
     /tmp/ccghGiGC.s:100557  .debug_str:000000000002d958 .LASF6066
     /tmp/ccghGiGC.s:90743  .debug_str:0000000000005a91 .LASF6067
     /tmp/ccghGiGC.s:95331  .debug_str:0000000000018122 .LASF6068
     /tmp/ccghGiGC.s:95491  .debug_str:0000000000018aa1 .LASF6073
     /tmp/ccghGiGC.s:107555  .debug_str:000000000004a552 .LASF6069
     /tmp/ccghGiGC.s:89539  .debug_str:0000000000000878 .LASF6070
     /tmp/ccghGiGC.s:104305  .debug_str:000000000003cbea .LASF6071
     /tmp/ccghGiGC.s:91535  .debug_str:000000000000904f .LASF6072
     /tmp/ccghGiGC.s:101219  .debug_str:00000000000304b7 .LASF6074
     /tmp/ccghGiGC.s:92673  .debug_str:000000000000dd6b .LASF6075
     /tmp/ccghGiGC.s:100135  .debug_str:000000000002bf16 .LASF6076
     /tmp/ccghGiGC.s:107331  .debug_str:00000000000497c6 .LASF6077
     /tmp/ccghGiGC.s:101711  .debug_str:0000000000032424 .LASF6078
     /tmp/ccghGiGC.s:98015  .debug_str:0000000000023964 .LASF6079
     /tmp/ccghGiGC.s:93815  .debug_str:0000000000011ed1 .LASF6080
     /tmp/ccghGiGC.s:97511  .debug_str:0000000000021725 .LASF6081
     /tmp/ccghGiGC.s:107951  .debug_str:000000000004c18d .LASF6082
     /tmp/ccghGiGC.s:90523  .debug_str:0000000000004c50 .LASF6083
     /tmp/ccghGiGC.s:104765  .debug_str:000000000003eb5b .LASF6084
     /tmp/ccghGiGC.s:90051  .debug_str:0000000000002c72 .LASF6085
     /tmp/ccghGiGC.s:93191  .debug_str:000000000000fa04 .LASF6086
     /tmp/ccghGiGC.s:104237  .debug_str:000000000003c7bb .LASF6087
     /tmp/ccghGiGC.s:100253  .debug_str:000000000002c6d4 .LASF6088
     /tmp/ccghGiGC.s:91587  .debug_str:000000000000937c .LASF6089
     /tmp/ccghGiGC.s:95577  .debug_str:0000000000019046 .LASF6090
     /tmp/ccghGiGC.s:99101  .debug_str:0000000000027bf4 .LASF6091
     /tmp/ccghGiGC.s:100225  .debug_str:000000000002c548 .LASF6092
     /tmp/ccghGiGC.s:100243  .debug_str:000000000002c654 .LASF6093
     /tmp/ccghGiGC.s:98957  .debug_str:00000000000272c7 .LASF6094
     /tmp/ccghGiGC.s:105737  .debug_str:0000000000042f4c .LASF6095
     /tmp/ccghGiGC.s:102397  .debug_str:0000000000035231 .LASF6096
     /tmp/ccghGiGC.s:104325  .debug_str:000000000003cd3f .LASF6097
     /tmp/ccghGiGC.s:98673  .debug_str:000000000002608e .LASF6098
     /tmp/ccghGiGC.s:90443  .debug_str:000000000000469f .LASF6099
     /tmp/ccghGiGC.s:93537  .debug_str:0000000000010d4e .LASF6100
     /tmp/ccghGiGC.s:93003  .debug_str:000000000000eecb .LASF6101
     /tmp/ccghGiGC.s:98353  .debug_str:0000000000024f98 .LASF6102
     /tmp/ccghGiGC.s:98211  .debug_str:000000000002465f .LASF6103
     /tmp/ccghGiGC.s:102689  .debug_str:0000000000036764 .LASF6104
     /tmp/ccghGiGC.s:107425  .debug_str:0000000000049e2e .LASF6105
     /tmp/ccghGiGC.s:95575  .debug_str:0000000000019041 .LASF6106
     /tmp/ccghGiGC.s:102155  .debug_str:0000000000034261 .LASF6107
     /tmp/ccghGiGC.s:103741  .debug_str:000000000003a4f5 .LASF6108
     /tmp/ccghGiGC.s:93845  .debug_str:00000000000120ab .LASF6109
     /tmp/ccghGiGC.s:96841  .debug_str:000000000001e8a5 .LASF6110
     /tmp/ccghGiGC.s:96243  .debug_str:000000000001be5f .LASF6111
     /tmp/ccghGiGC.s:102917  .debug_str:0000000000037662 .LASF6112
     /tmp/ccghGiGC.s:106767  .debug_str:00000000000472c5 .LASF6113
     /tmp/ccghGiGC.s:107915  .debug_str:000000000004beeb .LASF6114
     /tmp/ccghGiGC.s:100083  .debug_str:000000000002bcca .LASF6115
     /tmp/ccghGiGC.s:105899  .debug_str:0000000000043aa7 .LASF6116
     /tmp/ccghGiGC.s:99333  .debug_str:0000000000028bf6 .LASF6117
     /tmp/ccghGiGC.s:104935  .debug_str:000000000003f5bc .LASF6118
     /tmp/ccghGiGC.s:90695  .debug_str:0000000000005756 .LASF6119
     /tmp/ccghGiGC.s:101145  .debug_str:000000000002ffe7 .LASF6120
     /tmp/ccghGiGC.s:102113  .debug_str:0000000000033fb2 .LASF6121
     /tmp/ccghGiGC.s:105727  .debug_str:0000000000042eb6 .LASF6122
     /tmp/ccghGiGC.s:97471  .debug_str:000000000002147f .LASF6123
     /tmp/ccghGiGC.s:104385  .debug_str:000000000003d106 .LASF6124
     /tmp/ccghGiGC.s:94845  .debug_str:00000000000160b4 .LASF6125
     /tmp/ccghGiGC.s:96261  .debug_str:000000000001bf81 .LASF6126
     /tmp/ccghGiGC.s:101715  .debug_str:0000000000032459 .LASF6127
     /tmp/ccghGiGC.s:93353  .debug_str:0000000000010394 .LASF6128
     /tmp/ccghGiGC.s:101573  .debug_str:0000000000031bf2 .LASF6129
     /tmp/ccghGiGC.s:99131  .debug_str:0000000000027e1a .LASF6130
     /tmp/ccghGiGC.s:94447  .debug_str:0000000000014831 .LASF6131
     /tmp/ccghGiGC.s:100327  .debug_str:000000000002cb2d .LASF6132
     /tmp/ccghGiGC.s:106285  .debug_str:0000000000045376 .LASF6133
     /tmp/ccghGiGC.s:101515  .debug_str:0000000000031773 .LASF6134
     /tmp/ccghGiGC.s:104303  .debug_str:000000000003cbe2 .LASF6135
     /tmp/ccghGiGC.s:97849  .debug_str:0000000000022dd3 .LASF840
     /tmp/ccghGiGC.s:95437  .debug_str:000000000001880e .LASF6136
     /tmp/ccghGiGC.s:107247  .debug_str:0000000000049209 .LASF6137
     /tmp/ccghGiGC.s:103407  .debug_str:0000000000039297 .LASF6138
     /tmp/ccghGiGC.s:104613  .debug_str:000000000003e11e .LASF6139
     /tmp/ccghGiGC.s:107353  .debug_str:00000000000498f1 .LASF6140
     /tmp/ccghGiGC.s:101693  .debug_str:00000000000322f0 .LASF6141
     /tmp/ccghGiGC.s:107099  .debug_str:00000000000488c8 .LASF6142
     /tmp/ccghGiGC.s:91017  .debug_str:0000000000006ca9 .LASF6143
     /tmp/ccghGiGC.s:95663  .debug_str:000000000001969d .LASF6144
     /tmp/ccghGiGC.s:94181  .debug_str:00000000000137c7 .LASF6145
     /tmp/ccghGiGC.s:107289  .debug_str:00000000000494e0 .LASF6146
     /tmp/ccghGiGC.s:95161  .debug_str:00000000000175a6 .LASF6147
     /tmp/ccghGiGC.s:106617  .debug_str:00000000000468de .LASF6148
     /tmp/ccghGiGC.s:89435  .debug_str:000000000000013e .LASF6149
     /tmp/ccghGiGC.s:91107  .debug_str:00000000000073ca .LASF6150
     /tmp/ccghGiGC.s:96045  .debug_str:000000000001b10f .LASF6151
     /tmp/ccghGiGC.s:92085  .debug_str:000000000000b60b .LASF6152
     /tmp/ccghGiGC.s:93929  .debug_str:000000000001262f .LASF6153
     /tmp/ccghGiGC.s:108007  .debug_str:000000000004c4f8 .LASF6154
     /tmp/ccghGiGC.s:104389  .debug_str:000000000003d131 .LASF6155
     /tmp/ccghGiGC.s:101315  .debug_str:0000000000030b6f .LASF6156
     /tmp/ccghGiGC.s:96201  .debug_str:000000000001bb54 .LASF6157
     /tmp/ccghGiGC.s:92021  .debug_str:000000000000b0ed .LASF6158
     /tmp/ccghGiGC.s:100287  .debug_str:000000000002c8bd .LASF6159
     /tmp/ccghGiGC.s:107841  .debug_str:000000000004ba31 .LASF6160
     /tmp/ccghGiGC.s:94409  .debug_str:00000000000145a2 .LASF6161
     /tmp/ccghGiGC.s:95895  .debug_str:000000000001a694 .LASF6162
     /tmp/ccghGiGC.s:104127  .debug_str:000000000003bf70 .LASF9736
     /tmp/ccghGiGC.s:108803  .debug_str:000000000004fc53 .LASF6163
     /tmp/ccghGiGC.s:108021  .debug_str:000000000004c5ee .LASF6164
     /tmp/ccghGiGC.s:93313  .debug_str:0000000000010208 .LASF6165
     /tmp/ccghGiGC.s:102273  .debug_str:000000000003491e .LASF6166
     /tmp/ccghGiGC.s:107705  .debug_str:000000000004b00e .LASF6167
     /tmp/ccghGiGC.s:100279  .debug_str:000000000002c83b .LASF6168
     /tmp/ccghGiGC.s:93639  .debug_str:00000000000113e0 .LASF6169
     /tmp/ccghGiGC.s:106505  .debug_str:00000000000461dd .LASF6170
     /tmp/ccghGiGC.s:95501  .debug_str:0000000000018b49 .LASF6171
     /tmp/ccghGiGC.s:107497  .debug_str:000000000004a281 .LASF6172
     /tmp/ccghGiGC.s:94095  .debug_str:000000000001311d .LASF6173
     /tmp/ccghGiGC.s:93425  .debug_str:0000000000010706 .LASF6174
     /tmp/ccghGiGC.s:99989  .debug_str:000000000002b5cb .LASF6175
     /tmp/ccghGiGC.s:97179  .debug_str:000000000002007b .LASF6176
     /tmp/ccghGiGC.s:97779  .debug_str:00000000000228f4 .LASF6177
     /tmp/ccghGiGC.s:91555  .debug_str:0000000000009184 .LASF6178
     /tmp/ccghGiGC.s:90291  .debug_str:0000000000003c2e .LASF6179
     /tmp/ccghGiGC.s:101563  .debug_str:0000000000031b18 .LASF6180
     /tmp/ccghGiGC.s:105253  .debug_str:0000000000040987 .LASF6181
     /tmp/ccghGiGC.s:90333  .debug_str:0000000000003ee0 .LASF6182
     /tmp/ccghGiGC.s:108193  .debug_str:000000000004d25a .LASF6183
     /tmp/ccghGiGC.s:104787  .debug_str:000000000003ecc5 .LASF6184
     /tmp/ccghGiGC.s:100989  .debug_str:000000000002f58e .LASF6185
     /tmp/ccghGiGC.s:89531  .debug_str:00000000000007eb .LASF6186
     /tmp/ccghGiGC.s:101785  .debug_str:00000000000329a7 .LASF6187
     /tmp/ccghGiGC.s:106415  .debug_str:0000000000045c4e .LASF6188
     /tmp/ccghGiGC.s:95461  .debug_str:0000000000018960 .LASF6189
     /tmp/ccghGiGC.s:101839  .debug_str:0000000000032d5c .LASF6190
     /tmp/ccghGiGC.s:101775  .debug_str:000000000003292f .LASF6191
     /tmp/ccghGiGC.s:97571  .debug_str:0000000000021b12 .LASF6192
     /tmp/ccghGiGC.s:101565  .debug_str:0000000000031b2f .LASF6193
     /tmp/ccghGiGC.s:102283  .debug_str:00000000000349ed .LASF6194
     /tmp/ccghGiGC.s:102509  .debug_str:0000000000035ace .LASF6195
     /tmp/ccghGiGC.s:101803  .debug_str:0000000000032ace .LASF6196
     /tmp/ccghGiGC.s:108031  .debug_str:000000000004c695 .LASF6197
     /tmp/ccghGiGC.s:103945  .debug_str:000000000003b2f1 .LASF6198
     /tmp/ccghGiGC.s:94911  .debug_str:00000000000164e7 .LASF6199
     /tmp/ccghGiGC.s:97547  .debug_str:00000000000219ad .LASF6200
     /tmp/ccghGiGC.s:90489  .debug_str:00000000000049d8 .LASF6201
     /tmp/ccghGiGC.s:100687  .debug_str:000000000002e1bc .LASF6202
     /tmp/ccghGiGC.s:102553  .debug_str:0000000000035d68 .LASF6203
     /tmp/ccghGiGC.s:100297  .debug_str:000000000002c96b .LASF6204
     /tmp/ccghGiGC.s:101003  .debug_str:000000000002f6f0 .LASF6205
     /tmp/ccghGiGC.s:101721  .debug_str:00000000000324b6 .LASF6206
     /tmp/ccghGiGC.s:100713  .debug_str:000000000002e38c .LASF6207
     /tmp/ccghGiGC.s:106921  .debug_str:0000000000047cc2 .LASF6208
     /tmp/ccghGiGC.s:91317  .debug_str:00000000000080fa .LASF6209
     /tmp/ccghGiGC.s:93791  .debug_str:0000000000011d12 .LASF6210
     /tmp/ccghGiGC.s:96419  .debug_str:000000000001cb93 .LASF6211
     /tmp/ccghGiGC.s:89569  .debug_str:0000000000000a76 .LASF6212
     /tmp/ccghGiGC.s:104005  .debug_str:000000000003b76f .LASF6213
     /tmp/ccghGiGC.s:105365  .debug_str:00000000000412a1 .LASF6214
     /tmp/ccghGiGC.s:107209  .debug_str:0000000000048f8a .LASF6215
     /tmp/ccghGiGC.s:99623  .debug_str:0000000000029ec9 .LASF6216
     /tmp/ccghGiGC.s:101825  .debug_str:0000000000032c87 .LASF6217
     /tmp/ccghGiGC.s:89675  .debug_str:0000000000001190 .LASF6218
     /tmp/ccghGiGC.s:91865  .debug_str:000000000000a647 .LASF6219
     /tmp/ccghGiGC.s:94705  .debug_str:00000000000157cd .LASF6220
     /tmp/ccghGiGC.s:89769  .debug_str:00000000000017d0 .LASF6221
     /tmp/ccghGiGC.s:103259  .debug_str:0000000000038b1d .LASF6222
     /tmp/ccghGiGC.s:101025  .debug_str:000000000002f87d .LASF6223
     /tmp/ccghGiGC.s:94163  .debug_str:00000000000136b4 .LASF6224
     /tmp/ccghGiGC.s:107523  .debug_str:000000000004a3de .LASF6225
     /tmp/ccghGiGC.s:89695  .debug_str:00000000000012b6 .LASF6226
     /tmp/ccghGiGC.s:97929  .debug_str:00000000000232c0 .LASF6227
     /tmp/ccghGiGC.s:95301  .debug_str:0000000000017f61 .LASF6228
     /tmp/ccghGiGC.s:94435  .debug_str:000000000001476a .LASF6229
     /tmp/ccghGiGC.s:96621  .debug_str:000000000001d8dd .LASF6230
     /tmp/ccghGiGC.s:100715  .debug_str:000000000002e3b3 .LASF6231
     /tmp/ccghGiGC.s:108417  .debug_str:000000000004e2b2 .LASF6232
     /tmp/ccghGiGC.s:106215  .debug_str:0000000000044f38 .LASF6233
     /tmp/ccghGiGC.s:93749  .debug_str:0000000000011a2c .LASF6234
     /tmp/ccghGiGC.s:105075  .debug_str:000000000003fe97 .LASF6235
     /tmp/ccghGiGC.s:95105  .debug_str:00000000000171a3 .LASF6236
     /tmp/ccghGiGC.s:90591  .debug_str:000000000000506c .LASF6237
     /tmp/ccghGiGC.s:89609  .debug_str:0000000000000ccb .LASF6238
     /tmp/ccghGiGC.s:96213  .debug_str:000000000001bbee .LASF6239
     /tmp/ccghGiGC.s:106953  .debug_str:0000000000047ee4 .LASF6240
     /tmp/ccghGiGC.s:108517  .debug_str:000000000004e999 .LASF6241
     /tmp/ccghGiGC.s:103301  .debug_str:0000000000038ca2 .LASF6242
     /tmp/ccghGiGC.s:92549  .debug_str:000000000000d5d6 .LASF6243
     /tmp/ccghGiGC.s:92731  .debug_str:000000000000dff2 .LASF6244
     /tmp/ccghGiGC.s:108311  .debug_str:000000000004da00 .LASF6245
     /tmp/ccghGiGC.s:105927  .debug_str:0000000000043c57 .LASF6246
     /tmp/ccghGiGC.s:91441  .debug_str:00000000000089c1 .LASF6247
     /tmp/ccghGiGC.s:90165  .debug_str:0000000000003430 .LASF6248
     /tmp/ccghGiGC.s:91921  .debug_str:000000000000aa86 .LASF6249
     /tmp/ccghGiGC.s:95025  .debug_str:0000000000016cc8 .LASF6250
     /tmp/ccghGiGC.s:104255  .debug_str:000000000003c8df .LASF6251
     /tmp/ccghGiGC.s:91527  .debug_str:0000000000008f9f .LASF6252
     /tmp/ccghGiGC.s:90729  .debug_str:0000000000005987 .LASF6253
     /tmp/ccghGiGC.s:103141  .debug_str:0000000000038406 .LASF6254
     /tmp/ccghGiGC.s:103083  .debug_str:000000000003804b .LASF6255
     /tmp/ccghGiGC.s:103523  .debug_str:0000000000039886 .LASF6256
     /tmp/ccghGiGC.s:90449  .debug_str:00000000000046df .LASF6257
     /tmp/ccghGiGC.s:99319  .debug_str:0000000000028ac3 .LASF6258
     /tmp/ccghGiGC.s:107845  .debug_str:000000000004ba51 .LASF6259
     /tmp/ccghGiGC.s:99885  .debug_str:000000000002af50 .LASF6260
     /tmp/ccghGiGC.s:94865  .debug_str:00000000000161f9 .LASF6261
     /tmp/ccghGiGC.s:93041  .debug_str:000000000000f0f8 .LASF6262
     /tmp/ccghGiGC.s:90765  .debug_str:0000000000005c2a .LASF6263
     /tmp/ccghGiGC.s:105411  .debug_str:00000000000416da .LASF6264
     /tmp/ccghGiGC.s:104259  .debug_str:000000000003c940 .LASF6265
     /tmp/ccghGiGC.s:103175  .debug_str:0000000000038647 .LASF6266
     /tmp/ccghGiGC.s:92785  .debug_str:000000000000e327 .LASF6267
     /tmp/ccghGiGC.s:97483  .debug_str:000000000002152a .LASF6268
     /tmp/ccghGiGC.s:89943  .debug_str:000000000000253f .LASF6269
     /tmp/ccghGiGC.s:90811  .debug_str:0000000000005f18 .LASF6270
     /tmp/ccghGiGC.s:95423  .debug_str:000000000001871a .LASF6271
     /tmp/ccghGiGC.s:101945  .debug_str:000000000003341d .LASF6272
     /tmp/ccghGiGC.s:91707  .debug_str:0000000000009c1f .LASF6273
     /tmp/ccghGiGC.s:99227  .debug_str:000000000002842d .LASF6274
     /tmp/ccghGiGC.s:93547  .debug_str:0000000000010dfe .LASF6275
     /tmp/ccghGiGC.s:104343  .debug_str:000000000003ce48 .LASF6276
     /tmp/ccghGiGC.s:108333  .debug_str:000000000004dbe2 .LASF6277
     /tmp/ccghGiGC.s:108877  .debug_str:000000000005018f .LASF6278
     /tmp/ccghGiGC.s:102267  .debug_str:00000000000348fa .LASF6279
     /tmp/ccghGiGC.s:98421  .debug_str:000000000002537d .LASF6280
     /tmp/ccghGiGC.s:102269  .debug_str:0000000000034906 .LASF6281
     /tmp/ccghGiGC.s:103667  .debug_str:000000000003a045 .LASF6282
     /tmp/ccghGiGC.s:100017  .debug_str:000000000002b86f .LASF6283
     /tmp/ccghGiGC.s:96955  .debug_str:000000000001f001 .LASF6284
     /tmp/ccghGiGC.s:97063  .debug_str:000000000001f852 .LASF6285
     /tmp/ccghGiGC.s:101463  .debug_str:0000000000031470 .LASF6286
     /tmp/ccghGiGC.s:91655  .debug_str:0000000000009820 .LASF6287
     /tmp/ccghGiGC.s:96855  .debug_str:000000000001e98e .LASF6288
     /tmp/ccghGiGC.s:91831  .debug_str:000000000000a479 .LASF6289
     /tmp/ccghGiGC.s:96721  .debug_str:000000000001e056 .LASF6290
     /tmp/ccghGiGC.s:91625  .debug_str:0000000000009653 .LASF6291
     /tmp/ccghGiGC.s:99887  .debug_str:000000000002af6c .LASF6292
     /tmp/ccghGiGC.s:96557  .debug_str:000000000001d472 .LASF6293
     /tmp/ccghGiGC.s:107163  .debug_str:0000000000048c9c .LASF6294
     /tmp/ccghGiGC.s:91021  .debug_str:0000000000006ce4 .LASF6295
     /tmp/ccghGiGC.s:102837  .debug_str:00000000000370c7 .LASF6296
     /tmp/ccghGiGC.s:107909  .debug_str:000000000004beaa .LASF6297
     /tmp/ccghGiGC.s:108221  .debug_str:000000000004d40d .LASF6298
     /tmp/ccghGiGC.s:90427  .debug_str:00000000000045f0 .LASF6299
     /tmp/ccghGiGC.s:108237  .debug_str:000000000004d4df .LASF6300
     /tmp/ccghGiGC.s:92271  .debug_str:000000000000c329 .LASF6301
     /tmp/ccghGiGC.s:98023  .debug_str:00000000000239f3 .LASF6302
     /tmp/ccghGiGC.s:92775  .debug_str:000000000000e2f0 .LASF6303
     /tmp/ccghGiGC.s:98141  .debug_str:000000000002418b .LASF6304
     /tmp/ccghGiGC.s:100521  .debug_str:000000000002d70b .LASF6305
     /tmp/ccghGiGC.s:108557  .debug_str:000000000004ebed .LASF6306
     /tmp/ccghGiGC.s:98079  .debug_str:0000000000023d7d .LASF6307
     /tmp/ccghGiGC.s:99065  .debug_str:000000000002791f .LASF6308
     /tmp/ccghGiGC.s:95603  .debug_str:0000000000019226 .LASF6309
     /tmp/ccghGiGC.s:95605  .debug_str:0000000000019235 .LASF6310
     /tmp/ccghGiGC.s:95795  .debug_str:0000000000019f8a .LASF6311
     /tmp/ccghGiGC.s:94883  .debug_str:00000000000162d4 .LASF6312
     /tmp/ccghGiGC.s:102149  .debug_str:00000000000341ea .LASF6313
     /tmp/ccghGiGC.s:96925  .debug_str:000000000001ee60 .LASF6314
     /tmp/ccghGiGC.s:93119  .debug_str:000000000000f571 .LASF6315
     /tmp/ccghGiGC.s:93121  .debug_str:000000000000f580 .LASF6316
     /tmp/ccghGiGC.s:95237  .debug_str:0000000000017b1a .LASF6317
     /tmp/ccghGiGC.s:98499  .debug_str:000000000002579d .LASF6318
     /tmp/ccghGiGC.s:105645  .debug_str:000000000004298d .LASF6319
     /tmp/ccghGiGC.s:105051  .debug_str:000000000003fd43 .LASF6320
     /tmp/ccghGiGC.s:96927  .debug_str:000000000001ee6a .LASF6321
     /tmp/ccghGiGC.s:91451  .debug_str:0000000000008a9f .LASF6322
     /tmp/ccghGiGC.s:98605  .debug_str:0000000000025d40 .LASF6323
     /tmp/ccghGiGC.s:107115  .debug_str:0000000000048995 .LASF6324
     /tmp/ccghGiGC.s:96109  .debug_str:000000000001b4f3 .LASF6325
     /tmp/ccghGiGC.s:98273  .debug_str:0000000000024ab4 .LASF6326
     /tmp/ccghGiGC.s:103581  .debug_str:0000000000039b42 .LASF6327
     /tmp/ccghGiGC.s:100843  .debug_str:000000000002ec4d .LASF6328
     /tmp/ccghGiGC.s:106821  .debug_str:00000000000475ec .LASF6329
     /tmp/ccghGiGC.s:90379  .debug_str:0000000000004242 .LASF6330
     /tmp/ccghGiGC.s:93453  .debug_str:0000000000010931 .LASF6331
     /tmp/ccghGiGC.s:103743  .debug_str:000000000003a500 .LASF6332
     /tmp/ccghGiGC.s:106665  .debug_str:0000000000046be2 .LASF6333
     /tmp/ccghGiGC.s:98175  .debug_str:00000000000243de .LASF6334
     /tmp/ccghGiGC.s:105205  .debug_str:0000000000040648 .LASF6335
     /tmp/ccghGiGC.s:106161  .debug_str:0000000000044b0f .LASF6336
     /tmp/ccghGiGC.s:96523  .debug_str:000000000001d23f .LASF6337
     /tmp/ccghGiGC.s:108599  .debug_str:000000000004ee29 .LASF6338
     /tmp/ccghGiGC.s:97589  .debug_str:0000000000021cbc .LASF6339
     /tmp/ccghGiGC.s:92765  .debug_str:000000000000e259 .LASF6340
     /tmp/ccghGiGC.s:91993  .debug_str:000000000000af58 .LASF6341
     /tmp/ccghGiGC.s:90925  .debug_str:000000000000666c .LASF6342
     /tmp/ccghGiGC.s:90791  .debug_str:0000000000005da4 .LASF6343
     /tmp/ccghGiGC.s:92537  .debug_str:000000000000d521 .LASF6344
     /tmp/ccghGiGC.s:106167  .debug_str:0000000000044b9c .LASF6345
     /tmp/ccghGiGC.s:101925  .debug_str:00000000000332fc .LASF6346
     /tmp/ccghGiGC.s:105859  .debug_str:00000000000437a0 .LASF6347
     /tmp/ccghGiGC.s:107519  .debug_str:000000000004a39c .LASF6348
     /tmp/ccghGiGC.s:100397  .debug_str:000000000002d010 .LASF6349
     /tmp/ccghGiGC.s:106801  .debug_str:0000000000047467 .LASF6350
     /tmp/ccghGiGC.s:108209  .debug_str:000000000004d354 .LASF6351
     /tmp/ccghGiGC.s:102951  .debug_str:000000000003782d .LASF6352
     /tmp/ccghGiGC.s:99661  .debug_str:000000000002a162 .LASF6353
     /tmp/ccghGiGC.s:99673  .debug_str:000000000002a22a .LASF6354
     /tmp/ccghGiGC.s:92611  .debug_str:000000000000d9b0 .LASF6355
     /tmp/ccghGiGC.s:106355  .debug_str:00000000000457d1 .LASF6356
     /tmp/ccghGiGC.s:106131  .debug_str:000000000004496d .LASF6357
     /tmp/ccghGiGC.s:106357  .debug_str:00000000000457db .LASF6358
     /tmp/ccghGiGC.s:94297  .debug_str:0000000000013ee4 .LASF6359
     /tmp/ccghGiGC.s:106363  .debug_str:000000000004582d .LASF6360
     /tmp/ccghGiGC.s:105577  .debug_str:0000000000042499 .LASF6361
     /tmp/ccghGiGC.s:104545  .debug_str:000000000003db6a .LASF6362
     /tmp/ccghGiGC.s:92355  .debug_str:000000000000c83a .LASF6363
     /tmp/ccghGiGC.s:101427  .debug_str:0000000000031223 .LASF6364
     /tmp/ccghGiGC.s:92777  .debug_str:000000000000e2ff .LASF6365
     /tmp/ccghGiGC.s:92779  .debug_str:000000000000e309 .LASF6366
     /tmp/ccghGiGC.s:97663  .debug_str:00000000000221cf .LASF6367
     /tmp/ccghGiGC.s:92349  .debug_str:000000000000c7c1 .LASF6368
     /tmp/ccghGiGC.s:108683  .debug_str:000000000004f433 .LASF6369
     /tmp/ccghGiGC.s:94183  .debug_str:00000000000137de .LASF6370
     /tmp/ccghGiGC.s:92781  .debug_str:000000000000e313 .LASF6371
     /tmp/ccghGiGC.s:90079  .debug_str:0000000000002e28 .LASF6372
     /tmp/ccghGiGC.s:92783  .debug_str:000000000000e31d .LASF6373
     /tmp/ccghGiGC.s:94789  .debug_str:0000000000015df7 .LASF6374
     /tmp/ccghGiGC.s:102851  .debug_str:00000000000371a5 .LASF6375
     /tmp/ccghGiGC.s:92863  .debug_str:000000000000e867 .LASF6376
     /tmp/ccghGiGC.s:97147  .debug_str:000000000001fde1 .LASF6377
     /tmp/ccghGiGC.s:92865  .debug_str:000000000000e871 .LASF6378
     /tmp/ccghGiGC.s:100089  .debug_str:000000000002bced .LASF6379
     /tmp/ccghGiGC.s:93135  .debug_str:000000000000f70b .LASF6380
     /tmp/ccghGiGC.s:103497  .debug_str:0000000000039726 .LASF6381
     /tmp/ccghGiGC.s:91817  .debug_str:000000000000a3ba .LASF6382
     /tmp/ccghGiGC.s:106515  .debug_str:0000000000046271 .LASF6383
     /tmp/ccghGiGC.s:105097  .debug_str:000000000003fff2 .LASF6384
     /tmp/ccghGiGC.s:92869  .debug_str:000000000000e894 .LASF6385
     /tmp/ccghGiGC.s:92437  .debug_str:000000000000ce5d .LASF6386
     /tmp/ccghGiGC.s:100441  .debug_str:000000000002d26a .LASF6387
     /tmp/ccghGiGC.s:92871  .debug_str:000000000000e89e .LASF6388
     /tmp/ccghGiGC.s:91597  .debug_str:0000000000009462 .LASF6389
     /tmp/ccghGiGC.s:105113  .debug_str:00000000000400d9 .LASF6390
     /tmp/ccghGiGC.s:93917  .debug_str:000000000001258e .LASF6391
     /tmp/ccghGiGC.s:107737  .debug_str:000000000004b2f1 .LASF6392
     /tmp/ccghGiGC.s:101361  .debug_str:0000000000030e2e .LASF6393
     /tmp/ccghGiGC.s:91369  .debug_str:00000000000084bf .LASF6394
     /tmp/ccghGiGC.s:92873  .debug_str:000000000000e8a8 .LASF6395
     /tmp/ccghGiGC.s:107633  .debug_str:000000000004ab67 .LASF6396
     /tmp/ccghGiGC.s:92875  .debug_str:000000000000e8b2 .LASF6397
     /tmp/ccghGiGC.s:101917  .debug_str:0000000000033279 .LASF6398
     /tmp/ccghGiGC.s:90323  .debug_str:0000000000003e3c .LASF6399
     /tmp/ccghGiGC.s:92877  .debug_str:000000000000e8bc .LASF6400
     /tmp/ccghGiGC.s:99391  .debug_str:0000000000028fc7 .LASF6401
     /tmp/ccghGiGC.s:95775  .debug_str:0000000000019e0f .LASF6402
     /tmp/ccghGiGC.s:91027  .debug_str:0000000000006d50 .LASF6403
     /tmp/ccghGiGC.s:94777  .debug_str:0000000000015d62 .LASF6404
     /tmp/ccghGiGC.s:106075  .debug_str:000000000004459a .LASF6405
     /tmp/ccghGiGC.s:92879  .debug_str:000000000000e8c6 .LASF6406
     /tmp/ccghGiGC.s:99637  .debug_str:0000000000029fd4 .LASF6407
     /tmp/ccghGiGC.s:94637  .debug_str:00000000000153e4 .LASF6408
     /tmp/ccghGiGC.s:106481  .debug_str:000000000004604d .LASF6409
     /tmp/ccghGiGC.s:94915  .debug_str:0000000000016553 .LASF6410
     /tmp/ccghGiGC.s:96073  .debug_str:000000000001b2ee .LASF6411
     /tmp/ccghGiGC.s:107423  .debug_str:0000000000049e07 .LASF6412
     /tmp/ccghGiGC.s:89633  .debug_str:0000000000000e78 .LASF6413
     /tmp/ccghGiGC.s:99193  .debug_str:0000000000028224 .LASF6414
     /tmp/ccghGiGC.s:105453  .debug_str:000000000004199f .LASF6415
     /tmp/ccghGiGC.s:99321  .debug_str:0000000000028b06 .LASF6416
     /tmp/ccghGiGC.s:93061  .debug_str:000000000000f27b .LASF6417
     /tmp/ccghGiGC.s:106471  .debug_str:0000000000045f8b .LASF6418
     /tmp/ccghGiGC.s:106747  .debug_str:0000000000047136 .LASF6419
     /tmp/ccghGiGC.s:92947  .debug_str:000000000000ecb0 .LASF6420
     /tmp/ccghGiGC.s:92051  .debug_str:000000000000b3af .LASF6421
     /tmp/ccghGiGC.s:91393  .debug_str:0000000000008642 .LASF6422
     /tmp/ccghGiGC.s:94093  .debug_str:0000000000013116 .LASF6423
     /tmp/ccghGiGC.s:93963  .debug_str:0000000000012830 .LASF6424
     /tmp/ccghGiGC.s:106171  .debug_str:0000000000044bdf .LASF6425
     /tmp/ccghGiGC.s:104761  .debug_str:000000000003eb00 .LASF6426
     /tmp/ccghGiGC.s:99425  .debug_str:0000000000029263 .LASF6427
     /tmp/ccghGiGC.s:92107  .debug_str:000000000000b787 .LASF6428
     /tmp/ccghGiGC.s:105487  .debug_str:0000000000041bed .LASF6429
     /tmp/ccghGiGC.s:97209  .debug_str:00000000000202f5 .LASF6430
     /tmp/ccghGiGC.s:92681  .debug_str:000000000000ddbb .LASF6431
     /tmp/ccghGiGC.s:108447  .debug_str:000000000004e45d .LASF6432
     /tmp/ccghGiGC.s:94179  .debug_str:000000000001379d .LASF6433
     /tmp/ccghGiGC.s:93217  .debug_str:000000000000fc04 .LASF6434
     /tmp/ccghGiGC.s:104889  .debug_str:000000000003f2e1 .LASF6435
     /tmp/ccghGiGC.s:92683  .debug_str:000000000000ddc5 .LASF6436
     /tmp/ccghGiGC.s:96541  .debug_str:000000000001d36e .LASF6437
     /tmp/ccghGiGC.s:100311  .debug_str:000000000002ca2d .LASF6438
     /tmp/ccghGiGC.s:99195  .debug_str:000000000002823e .LASF6439
     /tmp/ccghGiGC.s:101417  .debug_str:000000000003119e .LASF6440
     /tmp/ccghGiGC.s:89523  .debug_str:0000000000000782 .LASF6441
     /tmp/ccghGiGC.s:90203  .debug_str:0000000000003622 .LASF6442
     /tmp/ccghGiGC.s:107669  .debug_str:000000000004adf1 .LASF6443
     /tmp/ccghGiGC.s:92825  .debug_str:000000000000e5de .LASF6444
     /tmp/ccghGiGC.s:92685  .debug_str:000000000000ddcf .LASF6445
     /tmp/ccghGiGC.s:92687  .debug_str:000000000000ddd9 .LASF6446
     /tmp/ccghGiGC.s:96161  .debug_str:000000000001b856 .LASF6447
     /tmp/ccghGiGC.s:106273  .debug_str:00000000000452c6 .LASF6448
     /tmp/ccghGiGC.s:100107  .debug_str:000000000002bd8c .LASF6449
     /tmp/ccghGiGC.s:101845  .debug_str:0000000000032e0e .LASF6450
     /tmp/ccghGiGC.s:99135  .debug_str:0000000000027e55 .LASF6451
     /tmp/ccghGiGC.s:91827  .debug_str:000000000000a45d .LASF6452
     /tmp/ccghGiGC.s:106465  .debug_str:0000000000045f34 .LASF6453
     /tmp/ccghGiGC.s:96443  .debug_str:000000000001cd46 .LASF6454
     /tmp/ccghGiGC.s:92805  .debug_str:000000000000e4bd .LASF6455
     /tmp/ccghGiGC.s:103335  .debug_str:0000000000038efe .LASF6456
     /tmp/ccghGiGC.s:99835  .debug_str:000000000002ac35 .LASF6457
     /tmp/ccghGiGC.s:92245  .debug_str:000000000000c1a2 .LASF6458
     /tmp/ccghGiGC.s:93025  .debug_str:000000000000efd3 .LASF6459
     /tmp/ccghGiGC.s:103511  .debug_str:00000000000397e5 .LASF6460
     /tmp/ccghGiGC.s:101641  .debug_str:0000000000031f8a .LASF6461
     /tmp/ccghGiGC.s:97601  .debug_str:0000000000021db0 .LASF6462
     /tmp/ccghGiGC.s:96869  .debug_str:000000000001ea8a .LASF6463
     /tmp/ccghGiGC.s:91475  .debug_str:0000000000008c16 .LASF6464
     /tmp/ccghGiGC.s:104177  .debug_str:000000000003c2e6 .LASF6465
     /tmp/ccghGiGC.s:96457  .debug_str:000000000001cddb .LASF6466
     /tmp/ccghGiGC.s:91809  .debug_str:000000000000a2f7 .LASF6467
     /tmp/ccghGiGC.s:106121  .debug_str:00000000000448f3 .LASF6468
     /tmp/ccghGiGC.s:107637  .debug_str:000000000004ab75 .LASF6469
     /tmp/ccghGiGC.s:103551  .debug_str:0000000000039975 .LASF6470
     /tmp/ccghGiGC.s:96977  .debug_str:000000000001f15c .LASF6471
     /tmp/ccghGiGC.s:90883  .debug_str:00000000000063ad .LASF6472
     /tmp/ccghGiGC.s:102529  .debug_str:0000000000035c07 .LASF6473
     /tmp/ccghGiGC.s:100443  .debug_str:000000000002d275 .LASF6474
     /tmp/ccghGiGC.s:97197  .debug_str:0000000000020217 .LASF6475
     /tmp/ccghGiGC.s:89437  .debug_str:0000000000000143 .LASF6476
     /tmp/ccghGiGC.s:94627  .debug_str:00000000000152e3 .LASF6477
     /tmp/ccghGiGC.s:98065  .debug_str:0000000000023ca6 .LASF6478
     /tmp/ccghGiGC.s:91377  .debug_str:000000000000851f .LASF6479
     /tmp/ccghGiGC.s:106683  .debug_str:0000000000046c9c .LASF6480
     /tmp/ccghGiGC.s:90683  .debug_str:0000000000005661 .LASF6481
     /tmp/ccghGiGC.s:105701  .debug_str:0000000000042d80 .LASF6482
     /tmp/ccghGiGC.s:98977  .debug_str:0000000000027400 .LASF6483
     /tmp/ccghGiGC.s:104777  .debug_str:000000000003ec1c .LASF6484
     /tmp/ccghGiGC.s:97099  .debug_str:000000000001faeb .LASF6485
     /tmp/ccghGiGC.s:92027  .debug_str:000000000000b18f .LASF6486
     /tmp/ccghGiGC.s:101655  .debug_str:0000000000032076 .LASF6487
     /tmp/ccghGiGC.s:94949  .debug_str:000000000001670b .LASF6488
     /tmp/ccghGiGC.s:108591  .debug_str:000000000004edca .LASF6489
     /tmp/ccghGiGC.s:103223  .debug_str:0000000000038878 .LASF6490
     /tmp/ccghGiGC.s:89979  .debug_str:0000000000002792 .LASF6491
     /tmp/ccghGiGC.s:100043  .debug_str:000000000002ba1c .LASF6492
     /tmp/ccghGiGC.s:102819  .debug_str:0000000000036ff9 .LASF6493
     /tmp/ccghGiGC.s:102995  .debug_str:0000000000037b1d .LASF6494
     /tmp/ccghGiGC.s:100073  .debug_str:000000000002bc09 .LASF6495
     /tmp/ccghGiGC.s:102835  .debug_str:00000000000370b8 .LASF6496
     /tmp/ccghGiGC.s:90773  .debug_str:0000000000005c83 .LASF6497
     /tmp/ccghGiGC.s:99353  .debug_str:0000000000028d4a .LASF6498
     /tmp/ccghGiGC.s:99083  .debug_str:0000000000027aba .LASF6499
     /tmp/ccghGiGC.s:92955  .debug_str:000000000000ed11 .LASF6500
     /tmp/ccghGiGC.s:92277  .debug_str:000000000000c367 .LASF6501
     /tmp/ccghGiGC.s:92313  .debug_str:000000000000c588 .LASF6502
     /tmp/ccghGiGC.s:100069  .debug_str:000000000002bbc2 .LASF6503
     /tmp/ccghGiGC.s:97895  .debug_str:00000000000230e4 .LASF6504
     /tmp/ccghGiGC.s:101837  .debug_str:0000000000032d48 .LASF6505
     /tmp/ccghGiGC.s:95629  .debug_str:000000000001938d .LASF6506
     /tmp/ccghGiGC.s:108155  .debug_str:000000000004cfa1 .LASF6507
     /tmp/ccghGiGC.s:106461  .debug_str:0000000000045ee4 .LASF6508
     /tmp/ccghGiGC.s:99599  .debug_str:0000000000029d39 .LASF6509
     /tmp/ccghGiGC.s:95639  .debug_str:00000000000194d8 .LASF6510
     /tmp/ccghGiGC.s:101137  .debug_str:000000000002ffa8 .LASF6511
     /tmp/ccghGiGC.s:92005  .debug_str:000000000000b037 .LASF6512
     /tmp/ccghGiGC.s:100507  .debug_str:000000000002d654 .LASF6513
     /tmp/ccghGiGC.s:94487  .debug_str:0000000000014ae3 .LASF6514
     /tmp/ccghGiGC.s:94541  .debug_str:0000000000014d5b .LASF6515
     /tmp/ccghGiGC.s:104523  .debug_str:000000000003d9f3 .LASF6516
     /tmp/ccghGiGC.s:99889  .debug_str:000000000002af7c .LASF6517
     /tmp/ccghGiGC.s:99687  .debug_str:000000000002a323 .LASF6518
     /tmp/ccghGiGC.s:104173  .debug_str:000000000003c2be .LASF6519
     /tmp/ccghGiGC.s:98463  .debug_str:00000000000255f9 .LASF6520
     /tmp/ccghGiGC.s:92621  .debug_str:000000000000da54 .LASF6521
     /tmp/ccghGiGC.s:97743  .debug_str:000000000002273c .LASF6522
     /tmp/ccghGiGC.s:97089  .debug_str:000000000001fa27 .LASF6523
     /tmp/ccghGiGC.s:103647  .debug_str:0000000000039f18 .LASF6524
     /tmp/ccghGiGC.s:103645  .debug_str:0000000000039f08 .LASF6525
     /tmp/ccghGiGC.s:101877  .debug_str:0000000000033042 .LASF6526
     /tmp/ccghGiGC.s:92145  .debug_str:000000000000ba3c .LASF6527
     /tmp/ccghGiGC.s:106627  .debug_str:000000000004694d .LASF6528
     /tmp/ccghGiGC.s:91915  .debug_str:000000000000aa39 .LASF6529
     /tmp/ccghGiGC.s:97563  .debug_str:0000000000021a9c .LASF6530
     /tmp/ccghGiGC.s:95585  .debug_str:00000000000190c6 .LASF6531
     /tmp/ccghGiGC.s:97745  .debug_str:0000000000022745 .LASF6532
     /tmp/ccghGiGC.s:102873  .debug_str:0000000000037323 .LASF6533
     /tmp/ccghGiGC.s:106827  .debug_str:000000000004766b .LASF6534
     /tmp/ccghGiGC.s:101007  .debug_str:000000000002f737 .LASF6535
     /tmp/ccghGiGC.s:104979  .debug_str:000000000003f846 .LASF6536
     /tmp/ccghGiGC.s:99107  .debug_str:0000000000027c3c .LASF6537
     /tmp/ccghGiGC.s:108661  .debug_str:000000000004f2d1 .LASF6538
     /tmp/ccghGiGC.s:97747  .debug_str:000000000002274e .LASF6539
     /tmp/ccghGiGC.s:104285  .debug_str:000000000003cb07 .LASF6540
     /tmp/ccghGiGC.s:104981  .debug_str:000000000003f854 .LASF6541
     /tmp/ccghGiGC.s:90985  .debug_str:0000000000006a6c .LASF6542
     /tmp/ccghGiGC.s:107273  .debug_str:00000000000493e5 .LASF6543
     /tmp/ccghGiGC.s:104093  .debug_str:000000000003bcd1 .LASF6544
     /tmp/ccghGiGC.s:99263  .debug_str:000000000002867a .LASF6545
     /tmp/ccghGiGC.s:99249  .debug_str:0000000000028579 .LASF6546
     /tmp/ccghGiGC.s:106971  .debug_str:0000000000048058 .LASF6547
     /tmp/ccghGiGC.s:98403  .debug_str:000000000002524a .LASF6548
     /tmp/ccghGiGC.s:92689  .debug_str:000000000000dde3 .LASF6549
     /tmp/ccghGiGC.s:97749  .debug_str:0000000000022757 .LASF6550
     /tmp/ccghGiGC.s:98045  .debug_str:0000000000023b70 .LASF6551
     /tmp/ccghGiGC.s:98075  .debug_str:0000000000023d50 .LASF6552
     /tmp/ccghGiGC.s:92345  .debug_str:000000000000c790 .LASF6553
     /tmp/ccghGiGC.s:92109  .debug_str:000000000000b792 .LASF6554
     /tmp/ccghGiGC.s:101237  .debug_str:00000000000305f1 .LASF6555
     /tmp/ccghGiGC.s:90029  .debug_str:0000000000002b4d .LASF6556
     /tmp/ccghGiGC.s:90997  .debug_str:0000000000006b53 .LASF6557
     /tmp/ccghGiGC.s:90283  .debug_str:0000000000003bab .LASF6558
     /tmp/ccghGiGC.s:93383  .debug_str:0000000000010538 .LASF6559
     /tmp/ccghGiGC.s:90871  .debug_str:00000000000062d4 .LASF6560
     /tmp/ccghGiGC.s:99931  .debug_str:000000000002b2f5 .LASF6561
     /tmp/ccghGiGC.s:105457  .debug_str:00000000000419f1 .LASF6562
     /tmp/ccghGiGC.s:92691  .debug_str:000000000000dded .LASF6563
     /tmp/ccghGiGC.s:97751  .debug_str:0000000000022760 .LASF6564
     /tmp/ccghGiGC.s:91785  .debug_str:000000000000a157 .LASF6565
     /tmp/ccghGiGC.s:98199  .debug_str:00000000000245a5 .LASF6566
     /tmp/ccghGiGC.s:105725  .debug_str:0000000000042ea8 .LASF6567
     /tmp/ccghGiGC.s:107561  .debug_str:000000000004a5c6 .LASF6568
     /tmp/ccghGiGC.s:107541  .debug_str:000000000004a4ce .LASF6569
     /tmp/ccghGiGC.s:92693  .debug_str:000000000000ddf7 .LASF6570
     /tmp/ccghGiGC.s:97753  .debug_str:0000000000022769 .LASF6571
     /tmp/ccghGiGC.s:105189  .debug_str:000000000004058d .LASF6572
     /tmp/ccghGiGC.s:91187  .debug_str:000000000000790b .LASF6573
     /tmp/ccghGiGC.s:108911  .debug_str:0000000000050391 .LASF6574
     /tmp/ccghGiGC.s:92695  .debug_str:000000000000de01 .LASF6575
     /tmp/ccghGiGC.s:97755  .debug_str:0000000000022772 .LASF6576
     /tmp/ccghGiGC.s:99063  .debug_str:00000000000278fc .LASF6577
     /tmp/ccghGiGC.s:90581  .debug_str:000000000000500f .LASF6578
     /tmp/ccghGiGC.s:101883  .debug_str:0000000000033097 .LASF6579
     /tmp/ccghGiGC.s:98709  .debug_str:00000000000262f5 .LASF6580
     /tmp/ccghGiGC.s:106195  .debug_str:0000000000044d9d .LASF6581
     /tmp/ccghGiGC.s:91963  .debug_str:000000000000ad00 .LASF6582
     /tmp/ccghGiGC.s:95729  .debug_str:0000000000019b04 .LASF6583
     /tmp/ccghGiGC.s:94293  .debug_str:0000000000013eb0 .LASF6584
     /tmp/ccghGiGC.s:90197  .debug_str:00000000000035d8 .LASF6585
     /tmp/ccghGiGC.s:101587  .debug_str:0000000000031cad .LASF6586
     /tmp/ccghGiGC.s:104481  .debug_str:000000000003d718 .LASF6587
     /tmp/ccghGiGC.s:91061  .debug_str:000000000000708c .LASF6588
     /tmp/ccghGiGC.s:90453  .debug_str:0000000000004739 .LASF6589
     /tmp/ccghGiGC.s:102335  .debug_str:0000000000034ea6 .LASF6590
     /tmp/ccghGiGC.s:107899  .debug_str:000000000004be1b .LASF6591
     /tmp/ccghGiGC.s:97315  .debug_str:0000000000020af6 .LASF6592
     /tmp/ccghGiGC.s:93393  .debug_str:00000000000105e8 .LASF6593
     /tmp/ccghGiGC.s:96439  .debug_str:000000000001ccf9 .LASF6594
     /tmp/ccghGiGC.s:99407  .debug_str:000000000002911f .LASF6595
     /tmp/ccghGiGC.s:93709  .debug_str:000000000001179c .LASF6596
     /tmp/ccghGiGC.s:99667  .debug_str:000000000002a1de .LASF6597
     /tmp/ccghGiGC.s:97857  .debug_str:0000000000022e2a .LASF6598
     /tmp/ccghGiGC.s:89547  .debug_str:00000000000008fd .LASF6599
     /tmp/ccghGiGC.s:103687  .debug_str:000000000003a13d .LASF6600
     /tmp/ccghGiGC.s:96729  .debug_str:000000000001e0d6 .LASF6601
     /tmp/ccghGiGC.s:105573  .debug_str:000000000004246b .LASF6602
     /tmp/ccghGiGC.s:107791  .debug_str:000000000004b690 .LASF6603
     /tmp/ccghGiGC.s:91227  .debug_str:0000000000007b69 .LASF6604
     /tmp/ccghGiGC.s:103843  .debug_str:000000000003ac0b .LASF6605
     /tmp/ccghGiGC.s:98985  .debug_str:0000000000027482 .LASF6606
     /tmp/ccghGiGC.s:106269  .debug_str:00000000000452a4 .LASF6607
     /tmp/ccghGiGC.s:99629  .debug_str:0000000000029f1d .LASF6608
     /tmp/ccghGiGC.s:105853  .debug_str:000000000004376c .LASF6609
     /tmp/ccghGiGC.s:104641  .debug_str:000000000003e2fe .LASF6610
     /tmp/ccghGiGC.s:96239  .debug_str:000000000001be41 .LASF6611
     /tmp/ccghGiGC.s:98987  .debug_str:000000000002748b .LASF6612
     /tmp/ccghGiGC.s:107105  .debug_str:0000000000048912 .LASF6613
     /tmp/ccghGiGC.s:95873  .debug_str:000000000001a4b2 .LASF6614
     /tmp/ccghGiGC.s:102725  .debug_str:0000000000036986 .LASF6615
     /tmp/ccghGiGC.s:97923  .debug_str:0000000000023280 .LASF6616
     /tmp/ccghGiGC.s:103217  .debug_str:00000000000387ec .LASF6617
     /tmp/ccghGiGC.s:96909  .debug_str:000000000001ed30 .LASF6618
     /tmp/ccghGiGC.s:101723  .debug_str:00000000000324f6 .LASF6619
     /tmp/ccghGiGC.s:98989  .debug_str:0000000000027494 .LASF6620
     /tmp/ccghGiGC.s:97355  .debug_str:0000000000020d38 .LASF6621
     /tmp/ccghGiGC.s:92797  .debug_str:000000000000e428 .LASF6622
     /tmp/ccghGiGC.s:107927  .debug_str:000000000004bfea .LASF6623
     /tmp/ccghGiGC.s:100923  .debug_str:000000000002f147 .LASF6624
     /tmp/ccghGiGC.s:98991  .debug_str:000000000002749d .LASF6625
     /tmp/ccghGiGC.s:90139  .debug_str:000000000000325f .LASF6626
     /tmp/ccghGiGC.s:92167  .debug_str:000000000000bbb5 .LASF6627
     /tmp/ccghGiGC.s:99681  .debug_str:000000000002a2c7 .LASF6628
     /tmp/ccghGiGC.s:95771  .debug_str:0000000000019dec .LASF6629
     /tmp/ccghGiGC.s:103735  .debug_str:000000000003a49e .LASF6630
     /tmp/ccghGiGC.s:104023  .debug_str:000000000003b8ac .LASF6631
     /tmp/ccghGiGC.s:94445  .debug_str:0000000000014827 .LASF6632
     /tmp/ccghGiGC.s:97023  .debug_str:000000000001f53b .LASF6633
     /tmp/ccghGiGC.s:99733  .debug_str:000000000002a67a .LASF6634
     /tmp/ccghGiGC.s:98995  .debug_str:00000000000274c0 .LASF6635
     /tmp/ccghGiGC.s:91127  .debug_str:0000000000007532 .LASF6636
     /tmp/ccghGiGC.s:108545  .debug_str:000000000004eaff .LASF6637
     /tmp/ccghGiGC.s:100727  .debug_str:000000000002e47c .LASF6638
     /tmp/ccghGiGC.s:101383  .debug_str:0000000000030f94 .LASF6639
     /tmp/ccghGiGC.s:102823  .debug_str:0000000000037037 .LASF6640
     /tmp/ccghGiGC.s:97437  .debug_str:0000000000021215 .LASF6641
     /tmp/ccghGiGC.s:97031  .debug_str:000000000001f5e2 .LASF6642
     /tmp/ccghGiGC.s:94917  .debug_str:000000000001655d .LASF6643
     /tmp/ccghGiGC.s:105691  .debug_str:0000000000042ce6 .LASF6644
     /tmp/ccghGiGC.s:91593  .debug_str:00000000000093bd .LASF6645
     /tmp/ccghGiGC.s:102847  .debug_str:0000000000037157 .LASF6646
     /tmp/ccghGiGC.s:104831  .debug_str:000000000003eeef .LASF6647
     /tmp/ccghGiGC.s:105639  .debug_str:0000000000042956 .LASF6648
     /tmp/ccghGiGC.s:97405  .debug_str:0000000000021017 .LASF6649
     /tmp/ccghGiGC.s:107807  .debug_str:000000000004b7e3 .LASF6650
     /tmp/ccghGiGC.s:99159  .debug_str:0000000000027fce .LASF6651
     /tmp/ccghGiGC.s:92489  .debug_str:000000000000d177 .LASF6652
     /tmp/ccghGiGC.s:100511  .debug_str:000000000002d671 .LASF6653
     /tmp/ccghGiGC.s:92007  .debug_str:000000000000b064 .LASF6654
     /tmp/ccghGiGC.s:107103  .debug_str:00000000000488ef .LASF6655
     /tmp/ccghGiGC.s:92593  .debug_str:000000000000d891 .LASF6656
     /tmp/ccghGiGC.s:102011  .debug_str:00000000000338a6 .LASF6657
     /tmp/ccghGiGC.s:102399  .debug_str:000000000003523e .LASF6658
     /tmp/ccghGiGC.s:98889  .debug_str:0000000000026e58 .LASF6659
     /tmp/ccghGiGC.s:98549  .debug_str:0000000000025abd .LASF6660
     /tmp/ccghGiGC.s:100515  .debug_str:000000000002d6b5 .LASF6661
     /tmp/ccghGiGC.s:89653  .debug_str:0000000000000ff1 .LASF6662
     /tmp/ccghGiGC.s:91607  .debug_str:0000000000009538 .LASF6663
     /tmp/ccghGiGC.s:105285  .debug_str:0000000000040c22 .LASF6664
     /tmp/ccghGiGC.s:104415  .debug_str:000000000003d2e1 .LASF6665
     /tmp/ccghGiGC.s:104795  .debug_str:000000000003ed74 .LASF6666
     /tmp/ccghGiGC.s:106449  .debug_str:0000000000045e1f .LASF6667
     /tmp/ccghGiGC.s:105435  .debug_str:0000000000041899 .LASF6668
     /tmp/ccghGiGC.s:107749  .debug_str:000000000004b3a1 .LASF6669
     /tmp/ccghGiGC.s:101527  .debug_str:0000000000031863 .LASF6670
     /tmp/ccghGiGC.s:104135  .debug_str:000000000003bfe4 .LASF6671
     /tmp/ccghGiGC.s:91201  .debug_str:00000000000079f1 .LASF6672
     /tmp/ccghGiGC.s:96685  .debug_str:000000000001ddc1 .LASF6673
     /tmp/ccghGiGC.s:91613  .debug_str:0000000000009580 .LASF6674
     /tmp/ccghGiGC.s:95673  .debug_str:0000000000019759 .LASF6675
     /tmp/ccghGiGC.s:89605  .debug_str:0000000000000c9c .LASF6676
     /tmp/ccghGiGC.s:105527  .debug_str:00000000000420d0 .LASF6677
     /tmp/ccghGiGC.s:97203  .debug_str:0000000000020298 .LASF6678
     /tmp/ccghGiGC.s:106421  .debug_str:0000000000045cb8 .LASF6679
     /tmp/ccghGiGC.s:108649  .debug_str:000000000004f202 .LASF6680
     /tmp/ccghGiGC.s:93901  .debug_str:00000000000124fc .LASF6681
     /tmp/ccghGiGC.s:104471  .debug_str:000000000003d625 .LASF6682
     /tmp/ccghGiGC.s:92421  .debug_str:000000000000cd3f .LASF6683
     /tmp/ccghGiGC.s:103191  .debug_str:0000000000038773 .LASF6684
     /tmp/ccghGiGC.s:96659  .debug_str:000000000001db9c .LASF6685
     /tmp/ccghGiGC.s:100259  .debug_str:000000000002c719 .LASF6686
     /tmp/ccghGiGC.s:106081  .debug_str:00000000000445f4 .LASF6687
     /tmp/ccghGiGC.s:91745  .debug_str:0000000000009f1a .LASF6688
     /tmp/ccghGiGC.s:100261  .debug_str:000000000002c729 .LASF6689
     /tmp/ccghGiGC.s:89529  .debug_str:00000000000007e2 .LASF6690
     /tmp/ccghGiGC.s:106561  .debug_str:00000000000465b0 .LASF6691
     /tmp/ccghGiGC.s:96461  .debug_str:000000000001ce1a .LASF6692
     /tmp/ccghGiGC.s:93487  .debug_str:0000000000010ae3 .LASF6693
     /tmp/ccghGiGC.s:107011  .debug_str:00000000000482e8 .LASF6694
     /tmp/ccghGiGC.s:101549  .debug_str:0000000000031a46 .LASF6695
     /tmp/ccghGiGC.s:96529  .debug_str:000000000001d2a1 .LASF6696
     /tmp/ccghGiGC.s:102323  .debug_str:0000000000034d7c .LASF6697
     /tmp/ccghGiGC.s:96371  .debug_str:000000000001c7d6 .LASF6698
     /tmp/ccghGiGC.s:95919  .debug_str:000000000001a817 .LASF6699
     /tmp/ccghGiGC.s:99211  .debug_str:0000000000028371 .LASF6700
     /tmp/ccghGiGC.s:103267  .debug_str:0000000000038b83 .LASF6701
     /tmp/ccghGiGC.s:98731  .debug_str:0000000000026477 .LASF6702
     /tmp/ccghGiGC.s:91907  .debug_str:000000000000a9b2 .LASF6703
     /tmp/ccghGiGC.s:102099  .debug_str:0000000000033f06 .LASF6704
     /tmp/ccghGiGC.s:95397  .debug_str:0000000000018585 .LASF6705
     /tmp/ccghGiGC.s:108489  .debug_str:000000000004e77a .LASF6706
     /tmp/ccghGiGC.s:102101  .debug_str:0000000000033f12 .LASF6707
     /tmp/ccghGiGC.s:104811  .debug_str:000000000003ee52 .LASF6708
     /tmp/ccghGiGC.s:102415  .debug_str:0000000000035351 .LASF6709
     /tmp/ccghGiGC.s:102103  .debug_str:0000000000033f1e .LASF6710
     /tmp/ccghGiGC.s:104813  .debug_str:000000000003ee58 .LASF6711
     /tmp/ccghGiGC.s:96171  .debug_str:000000000001b8f2 .LASF6712
     /tmp/ccghGiGC.s:100091  .debug_str:000000000002bcfe .LASF6713
     /tmp/ccghGiGC.s:105447  .debug_str:000000000004196c .LASF6714
     /tmp/ccghGiGC.s:104561  .debug_str:000000000003dcf4 .LASF6715
     /tmp/ccghGiGC.s:100093  .debug_str:000000000002bd08 .LASF6716
     /tmp/ccghGiGC.s:104817  .debug_str:000000000003ee6a .LASF6717
     /tmp/ccghGiGC.s:91339  .debug_str:000000000000826f .LASF6718
     /tmp/ccghGiGC.s:101141  .debug_str:000000000002ffd1 .LASF6719
     /tmp/ccghGiGC.s:104819  .debug_str:000000000003ee70 .LASF6720
     /tmp/ccghGiGC.s:97141  .debug_str:000000000001fd69 .LASF6721
     /tmp/ccghGiGC.s:100097  .debug_str:000000000002bd27 .LASF6722
     /tmp/ccghGiGC.s:95415  .debug_str:000000000001868d .LASF6723
     /tmp/ccghGiGC.s:97831  .debug_str:0000000000022c75 .LASF6724
     /tmp/ccghGiGC.s:108261  .debug_str:000000000004d643 .LASF6725
     /tmp/ccghGiGC.s:104823  .debug_str:000000000003eea8 .LASF6726
     /tmp/ccghGiGC.s:104333  .debug_str:000000000003cd8f .LASF6727
     /tmp/ccghGiGC.s:105119  .debug_str:000000000004012c .LASF6728
     /tmp/ccghGiGC.s:104825  .debug_str:000000000003eeae .LASF6729
     /tmp/ccghGiGC.s:97377  .debug_str:0000000000020e66 .LASF6730
     /tmp/ccghGiGC.s:90005  .debug_str:0000000000002985 .LASF6731
     /tmp/ccghGiGC.s:95467  .debug_str:00000000000189fa .LASF6732
     /tmp/ccghGiGC.s:93767  .debug_str:0000000000011b83 .LASF6733
     /tmp/ccghGiGC.s:90007  .debug_str:0000000000002990 .LASF6734
     /tmp/ccghGiGC.s:95469  .debug_str:0000000000018a01 .LASF6735
     /tmp/ccghGiGC.s:107101  .debug_str:00000000000488ce .LASF6736
     /tmp/ccghGiGC.s:104623  .debug_str:000000000003e1cb .LASF6737
     /tmp/ccghGiGC.s:92457  .debug_str:000000000000cfb9 .LASF6738
     /tmp/ccghGiGC.s:106085  .debug_str:0000000000044611 .LASF6739
     /tmp/ccghGiGC.s:104625  .debug_str:000000000003e1d4 .LASF6740
     /tmp/ccghGiGC.s:95473  .debug_str:0000000000018a0f .LASF6741
     /tmp/ccghGiGC.s:94759  .debug_str:0000000000015b66 .LASF6742
     /tmp/ccghGiGC.s:104627  .debug_str:000000000003e1dd .LASF6743
     /tmp/ccghGiGC.s:95475  .debug_str:0000000000018a16 .LASF6744
     /tmp/ccghGiGC.s:108049  .debug_str:000000000004c7d0 .LASF6745
     /tmp/ccghGiGC.s:104629  .debug_str:000000000003e1e6 .LASF6746
     /tmp/ccghGiGC.s:94505  .debug_str:0000000000014bfc .LASF6747
     /tmp/ccghGiGC.s:101993  .debug_str:0000000000033768 .LASF6748
     /tmp/ccghGiGC.s:104425  .debug_str:000000000003d3a2 .LASF6749
     /tmp/ccghGiGC.s:94509  .debug_str:0000000000014c2c .LASF6750
     /tmp/ccghGiGC.s:95737  .debug_str:0000000000019b71 .LASF6751
     /tmp/ccghGiGC.s:105237  .debug_str:0000000000040883 .LASF6752
     /tmp/ccghGiGC.s:102957  .debug_str:0000000000037897 .LASF6753
     /tmp/ccghGiGC.s:91693  .debug_str:0000000000009aea .LASF6754
     /tmp/ccghGiGC.s:95385  .debug_str:0000000000018498 .LASF6755
     /tmp/ccghGiGC.s:102959  .debug_str:000000000003789d .LASF6756
     /tmp/ccghGiGC.s:105079  .debug_str:000000000003fee6 .LASF6757
     /tmp/ccghGiGC.s:92963  .debug_str:000000000000edae .LASF6758
     /tmp/ccghGiGC.s:102961  .debug_str:00000000000378a3 .LASF6759
     /tmp/ccghGiGC.s:98943  .debug_str:00000000000271f0 .LASF6760
     /tmp/ccghGiGC.s:102077  .debug_str:0000000000033d35 .LASF6761
     /tmp/ccghGiGC.s:103023  .debug_str:0000000000037d26 .LASF6762
     /tmp/ccghGiGC.s:102925  .debug_str:00000000000376d1 .LASF6763
     /tmp/ccghGiGC.s:89899  .debug_str:0000000000002202 .LASF6764
     /tmp/ccghGiGC.s:103025  .debug_str:0000000000037d2c .LASF6765
     /tmp/ccghGiGC.s:105099  .debug_str:000000000003fffb .LASF6766
     /tmp/ccghGiGC.s:105499  .debug_str:0000000000041c99 .LASF6767
     /tmp/ccghGiGC.s:103027  .debug_str:0000000000037d32 .LASF6768
     /tmp/ccghGiGC.s:98963  .debug_str:0000000000027348 .LASF6769
     /tmp/ccghGiGC.s:97403  .debug_str:0000000000021009 .LASF6770
     /tmp/ccghGiGC.s:103029  .debug_str:0000000000037d38 .LASF6771
     /tmp/ccghGiGC.s:92671  .debug_str:000000000000dd4b .LASF6772
     /tmp/ccghGiGC.s:97407  .debug_str:000000000002103a .LASF6773
     /tmp/ccghGiGC.s:103031  .debug_str:0000000000037d3e .LASF6774
     /tmp/ccghGiGC.s:106105  .debug_str:00000000000447ad .LASF6775
     /tmp/ccghGiGC.s:100665  .debug_str:000000000002e074 .LASF6776
     /tmp/ccghGiGC.s:103033  .debug_str:0000000000037d44 .LASF6777
     /tmp/ccghGiGC.s:100009  .debug_str:000000000002b7e1 .LASF6778
     /tmp/ccghGiGC.s:108239  .debug_str:000000000004d4e8 .LASF6779
     /tmp/ccghGiGC.s:103035  .debug_str:0000000000037d4a .LASF6780
     /tmp/ccghGiGC.s:102117  .debug_str:000000000003400c .LASF6781
     /tmp/ccghGiGC.s:101581  .debug_str:0000000000031c75 .LASF6782
     /tmp/ccghGiGC.s:103037  .debug_str:0000000000037d50 .LASF6783
     /tmp/ccghGiGC.s:108375  .debug_str:000000000004df7d .LASF6784
     /tmp/ccghGiGC.s:102041  .debug_str:0000000000033b0c .LASF6785
     /tmp/ccghGiGC.s:99965  .debug_str:000000000002b4af .LASF6786
     /tmp/ccghGiGC.s:101001  .debug_str:000000000002f6d0 .LASF6787
     /tmp/ccghGiGC.s:95131  .debug_str:0000000000017372 .LASF6788
     /tmp/ccghGiGC.s:103041  .debug_str:0000000000037d77 .LASF6789
     /tmp/ccghGiGC.s:94739  .debug_str:0000000000015a23 .LASF6790
     /tmp/ccghGiGC.s:102007  .debug_str:000000000003386f .LASF6791
     /tmp/ccghGiGC.s:103115  .debug_str:0000000000038300 .LASF6792
     /tmp/ccghGiGC.s:107097  .debug_str:00000000000488a8 .LASF6793
     /tmp/ccghGiGC.s:102839  .debug_str:00000000000370d6 .LASF6794
     /tmp/ccghGiGC.s:103117  .debug_str:0000000000038306 .LASF6795
     /tmp/ccghGiGC.s:101019  .debug_str:000000000002f802 .LASF6796
     /tmp/ccghGiGC.s:90293  .debug_str:0000000000003c6a .LASF6797
     /tmp/ccghGiGC.s:103119  .debug_str:000000000003830c .LASF6798
     /tmp/ccghGiGC.s:94757  .debug_str:0000000000015b46 .LASF6799
     /tmp/ccghGiGC.s:93529  .debug_str:0000000000010ceb .LASF6800
     /tmp/ccghGiGC.s:103121  .debug_str:0000000000038312 .LASF6801
     /tmp/ccghGiGC.s:108045  .debug_str:000000000004c79a .LASF6802
     /tmp/ccghGiGC.s:93531  .debug_str:0000000000010cf5 .LASF6803
     /tmp/ccghGiGC.s:103123  .debug_str:0000000000038318 .LASF6804
     /tmp/ccghGiGC.s:90317  .debug_str:0000000000003dc9 .LASF6805
     /tmp/ccghGiGC.s:99309  .debug_str:0000000000028a08 .LASF6806
     /tmp/ccghGiGC.s:100125  .debug_str:000000000002be9d .LASF6807
     /tmp/ccghGiGC.s:92639  .debug_str:000000000000db72 .LASF6808
     /tmp/ccghGiGC.s:108437  .debug_str:000000000004e3c5 .LASF6809
     /tmp/ccghGiGC.s:103127  .debug_str:000000000003832d .LASF6810
     /tmp/ccghGiGC.s:89535  .debug_str:0000000000000831 .LASF6811
     /tmp/ccghGiGC.s:108441  .debug_str:000000000004e3fe .LASF6812
     /tmp/ccghGiGC.s:103129  .debug_str:0000000000038333 .LASF6813
     /tmp/ccghGiGC.s:102939  .debug_str:000000000003779c .LASF6814
     /tmp/ccghGiGC.s:93303  .debug_str:000000000001017a .LASF6815
     /tmp/ccghGiGC.s:103131  .debug_str:0000000000038339 .LASF6816
     /tmp/ccghGiGC.s:96709  .debug_str:000000000001df70 .LASF6817
     /tmp/ccghGiGC.s:108843  .debug_str:000000000004ff36 .LASF6818
     /tmp/ccghGiGC.s:103133  .debug_str:000000000003833f .LASF6819
     /tmp/ccghGiGC.s:90481  .debug_str:000000000000492a .LASF6820
     /tmp/ccghGiGC.s:102017  .debug_str:0000000000033928 .LASF6821
     /tmp/ccghGiGC.s:103195  .debug_str:0000000000038796 .LASF6822
     /tmp/ccghGiGC.s:102967  .debug_str:00000000000378e7 .LASF6823
     /tmp/ccghGiGC.s:99045  .debug_str:0000000000027804 .LASF6824
     /tmp/ccghGiGC.s:103197  .debug_str:000000000003879c .LASF6825
     /tmp/ccghGiGC.s:96731  .debug_str:000000000001e0e6 .LASF6826
     /tmp/ccghGiGC.s:90343  .debug_str:0000000000003fab .LASF6827
     /tmp/ccghGiGC.s:103199  .debug_str:00000000000387a2 .LASF6828
     /tmp/ccghGiGC.s:90497  .debug_str:0000000000004ab0 .LASF6829
     /tmp/ccghGiGC.s:94783  .debug_str:0000000000015da7 .LASF6830
     /tmp/ccghGiGC.s:103201  .debug_str:00000000000387a8 .LASF6831
     /tmp/ccghGiGC.s:103981  .debug_str:000000000003b52e .LASF6832
     /tmp/ccghGiGC.s:94785  .debug_str:0000000000015db3 .LASF6833
     /tmp/ccghGiGC.s:103203  .debug_str:00000000000387ae .LASF6834
     /tmp/ccghGiGC.s:97729  .debug_str:000000000002268a .LASF6835
     /tmp/ccghGiGC.s:95019  .debug_str:0000000000016c50 .LASF6836
     /tmp/ccghGiGC.s:103205  .debug_str:00000000000387b4 .LASF6837
     /tmp/ccghGiGC.s:91457  .debug_str:0000000000008b02 .LASF6838
     /tmp/ccghGiGC.s:90149  .debug_str:00000000000032da .LASF6839
     /tmp/ccghGiGC.s:103207  .debug_str:00000000000387ba .LASF6840
     /tmp/ccghGiGC.s:104833  .debug_str:000000000003eefa .LASF6841
     /tmp/ccghGiGC.s:90153  .debug_str:0000000000003326 .LASF6842
     /tmp/ccghGiGC.s:103209  .debug_str:00000000000387c0 .LASF6843
     /tmp/ccghGiGC.s:98691  .debug_str:0000000000026166 .LASF6844
     /tmp/ccghGiGC.s:98805  .debug_str:00000000000268bc .LASF6845
     /tmp/ccghGiGC.s:103211  .debug_str:00000000000387c6 .LASF6846
     /tmp/ccghGiGC.s:92425  .debug_str:000000000000cd80 .LASF6847
     /tmp/ccghGiGC.s:98295  .debug_str:0000000000024c13 .LASF6848
     /tmp/ccghGiGC.s:103213  .debug_str:00000000000387cc .LASF6849
     /tmp/ccghGiGC.s:105829  .debug_str:00000000000435b2 .LASF6850
     /tmp/ccghGiGC.s:108509  .debug_str:000000000004e907 .LASF6851
     /tmp/ccghGiGC.s:103273  .debug_str:0000000000038be6 .LASF6852
     /tmp/ccghGiGC.s:98715  .debug_str:000000000002637a .LASF6853
     /tmp/ccghGiGC.s:97883  .debug_str:0000000000023020 .LASF6854
     /tmp/ccghGiGC.s:100437  .debug_str:000000000002d238 .LASF6855
     /tmp/ccghGiGC.s:92445  .debug_str:000000000000cee4 .LASF6856
     /tmp/ccghGiGC.s:103951  .debug_str:000000000003b37c .LASF6857
     /tmp/ccghGiGC.s:103277  .debug_str:0000000000038bf7 .LASF6858
     /tmp/ccghGiGC.s:105851  .debug_str:000000000004374c .LASF6859
     /tmp/ccghGiGC.s:96857  .debug_str:000000000001e996 .LASF6860
     /tmp/ccghGiGC.s:103279  .debug_str:0000000000038bfd .LASF6861
     /tmp/ccghGiGC.s:99731  .debug_str:000000000002a65a .LASF6862
     /tmp/ccghGiGC.s:94875  .debug_str:00000000000162a0 .LASF6863
     /tmp/ccghGiGC.s:103281  .debug_str:0000000000038c03 .LASF6864
     /tmp/ccghGiGC.s:93455  .debug_str:000000000001093e .LASF6865
     /tmp/ccghGiGC.s:94879  .debug_str:00000000000162bd .LASF6866
     /tmp/ccghGiGC.s:103283  .debug_str:0000000000038c09 .LASF6867
     /tmp/ccghGiGC.s:106813  .debug_str:0000000000047526 .LASF6868
     /tmp/ccghGiGC.s:104835  .debug_str:000000000003ef1a .LASF6869
     /tmp/ccghGiGC.s:103285  .debug_str:0000000000038c0f .LASF6870
     /tmp/ccghGiGC.s:100759  .debug_str:000000000002e64d .LASF6871
     /tmp/ccghGiGC.s:89617  .debug_str:0000000000000d66 .LASF6872
     /tmp/ccghGiGC.s:103287  .debug_str:0000000000038c15 .LASF6873
     /tmp/ccghGiGC.s:94483  .debug_str:0000000000014a8c .LASF6874
     /tmp/ccghGiGC.s:90229  .debug_str:00000000000037be .LASF6875
     /tmp/ccghGiGC.s:103289  .debug_str:0000000000038c1b .LASF6876
     /tmp/ccghGiGC.s:107769  .debug_str:000000000004b518 .LASF6877
     /tmp/ccghGiGC.s:101919  .debug_str:0000000000033282 .LASF6878
     /tmp/ccghGiGC.s:100455  .debug_str:000000000002d35a .LASF6879
     /tmp/ccghGiGC.s:101709  .debug_str:0000000000032404 .LASF6880
     /tmp/ccghGiGC.s:100113  .debug_str:000000000002bdef .LASF6881
     /tmp/ccghGiGC.s:103369  .debug_str:00000000000390f7 .LASF6882
     /tmp/ccghGiGC.s:94669  .debug_str:00000000000155ac .LASF6883
     /tmp/ccghGiGC.s:100115  .debug_str:000000000002bdfd .LASF6884
     /tmp/ccghGiGC.s:103371  .debug_str:00000000000390fd .LASF6885
     /tmp/ccghGiGC.s:107965  .debug_str:000000000004c277 .LASF6886
     /tmp/ccghGiGC.s:93641  .debug_str:00000000000113e8 .LASF6887
     /tmp/ccghGiGC.s:103373  .debug_str:0000000000039103 .LASF6888
     /tmp/ccghGiGC.s:101911  .debug_str:000000000003322b .LASF6889
     /tmp/ccghGiGC.s:95405  .debug_str:0000000000018607 .LASF6890
     /tmp/ccghGiGC.s:103375  .debug_str:0000000000039109 .LASF6891
     /tmp/ccghGiGC.s:95641  .debug_str:00000000000194e8 .LASF6892
     /tmp/ccghGiGC.s:95409  .debug_str:000000000001864f .LASF6893
     /tmp/ccghGiGC.s:103377  .debug_str:000000000003910f .LASF6894
     /tmp/ccghGiGC.s:89447  .debug_str:0000000000000212 .LASF6895
     /tmp/ccghGiGC.s:94947  .debug_str:00000000000166f7 .LASF6896
     /tmp/ccghGiGC.s:103379  .debug_str:0000000000039115 .LASF6897
     /tmp/ccghGiGC.s:105489  .debug_str:0000000000041bf2 .LASF6898
     /tmp/ccghGiGC.s:93291  .debug_str:00000000000100dc .LASF6899
     /tmp/ccghGiGC.s:103381  .debug_str:000000000003911b .LASF6900
     /tmp/ccghGiGC.s:96645  .debug_str:000000000001da7a .LASF6901
     /tmp/ccghGiGC.s:101161  .debug_str:000000000003013e .LASF6902
     /tmp/ccghGiGC.s:103383  .debug_str:0000000000039121 .LASF6903
     /tmp/ccghGiGC.s:90395  .debug_str:0000000000004357 .LASF6904
     /tmp/ccghGiGC.s:106733  .debug_str:0000000000047060 .LASF6905
     /tmp/ccghGiGC.s:103385  .debug_str:0000000000039127 .LASF6906
     /tmp/ccghGiGC.s:103895  .debug_str:000000000003af97 .LASF6907
     /tmp/ccghGiGC.s:108225  .debug_str:000000000004d424 .LASF6908
     /tmp/ccghGiGC.s:103387  .debug_str:000000000003912d .LASF6909
     /tmp/ccghGiGC.s:97639  .debug_str:000000000002206a .LASF6910
     /tmp/ccghGiGC.s:97807  .debug_str:0000000000022acb .LASF6911
     /tmp/ccghGiGC.s:103445  .debug_str:00000000000394e3 .LASF6912
     /tmp/ccghGiGC.s:90419  .debug_str:000000000000457f .LASF6913
     /tmp/ccghGiGC.s:99939  .debug_str:000000000002b35c .LASF6914
     /tmp/ccghGiGC.s:103447  .debug_str:00000000000394e9 .LASF6915
     /tmp/ccghGiGC.s:103913  .debug_str:000000000003b0b9 .LASF6916
     /tmp/ccghGiGC.s:104399  .debug_str:000000000003d1fd .LASF6917
     /tmp/ccghGiGC.s:103449  .debug_str:00000000000394ef .LASF6918
     /tmp/ccghGiGC.s:97659  .debug_str:000000000002219f .LASF6919
     /tmp/ccghGiGC.s:104403  .debug_str:000000000003d223 .LASF6920
     /tmp/ccghGiGC.s:103451  .debug_str:00000000000394f5 .LASF6921
     /tmp/ccghGiGC.s:91375  .debug_str:00000000000084ff .LASF6922
     /tmp/ccghGiGC.s:102371  .debug_str:00000000000350a1 .LASF6923
     /tmp/ccghGiGC.s:103453  .debug_str:00000000000394fb .LASF6924
     /tmp/ccghGiGC.s:104751  .debug_str:000000000003ea5f .LASF6925
     /tmp/ccghGiGC.s:96077  .debug_str:000000000001b314 .LASF6926
     /tmp/ccghGiGC.s:103455  .debug_str:0000000000039501 .LASF6927
     /tmp/ccghGiGC.s:98599  .debug_str:0000000000025cd2 .LASF6928
     /tmp/ccghGiGC.s:96081  .debug_str:000000000001b341 .LASF6929
     /tmp/ccghGiGC.s:103457  .debug_str:0000000000039507 .LASF6930
     /tmp/ccghGiGC.s:92337  .debug_str:000000000000c73c .LASF6931
     /tmp/ccghGiGC.s:96063  .debug_str:000000000001b229 .LASF6932
     /tmp/ccghGiGC.s:103459  .debug_str:000000000003950d .LASF6933
     /tmp/ccghGiGC.s:105735  .debug_str:0000000000042f2c .LASF6934
     /tmp/ccghGiGC.s:89983  .debug_str:00000000000027c9 .LASF6935
     /tmp/ccghGiGC.s:103461  .debug_str:0000000000039513 .LASF6936
     /tmp/ccghGiGC.s:99625  .debug_str:0000000000029ee2 .LASF6937
     /tmp/ccghGiGC.s:89985  .debug_str:00000000000027d6 .LASF6938
     /tmp/ccghGiGC.s:103463  .debug_str:0000000000039519 .LASF6939
     /tmp/ccghGiGC.s:107165  .debug_str:0000000000048cac .LASF6940
     /tmp/ccghGiGC.s:105093  .debug_str:000000000003ffa7 .LASF6941
     /tmp/ccghGiGC.s:103529  .debug_str:0000000000039920 .LASF6942
     /tmp/ccghGiGC.s:105769  .debug_str:000000000004315c .LASF6943
     /tmp/ccghGiGC.s:108709  .debug_str:000000000004f587 .LASF6944
     /tmp/ccghGiGC.s:103531  .debug_str:0000000000039926 .LASF6945
     /tmp/ccghGiGC.s:99647  .debug_str:000000000002a068 .LASF6946
     /tmp/ccghGiGC.s:104881  .debug_str:000000000003f23b .LASF6947
     /tmp/ccghGiGC.s:103533  .debug_str:000000000003992c .LASF6948
     /tmp/ccghGiGC.s:93377  .debug_str:00000000000104ed .LASF6949
     /tmp/ccghGiGC.s:90797  .debug_str:0000000000005dff .LASF6950
     /tmp/ccghGiGC.s:103535  .debug_str:0000000000039932 .LASF6951
     /tmp/ccghGiGC.s:106741  .debug_str:00000000000470b9 .LASF6952
     /tmp/ccghGiGC.s:99813  .debug_str:000000000002ab2a .LASF6953
     /tmp/ccghGiGC.s:103537  .debug_str:0000000000039938 .LASF6954
     /tmp/ccghGiGC.s:100679  .debug_str:000000000002e14e .LASF6955
     /tmp/ccghGiGC.s:103417  .debug_str:0000000000039343 .LASF6956
     /tmp/ccghGiGC.s:103539  .debug_str:000000000003993e .LASF6957
     /tmp/ccghGiGC.s:94399  .debug_str:0000000000014530 .LASF6958
     /tmp/ccghGiGC.s:98969  .debug_str:00000000000273a9 .LASF6959
     /tmp/ccghGiGC.s:103541  .debug_str:0000000000039944 .LASF6960
     /tmp/ccghGiGC.s:107687  .debug_str:000000000004aee1 .LASF6961
     /tmp/ccghGiGC.s:95125  .debug_str:0000000000017345 .LASF6962
     /tmp/ccghGiGC.s:103543  .debug_str:000000000003994a .LASF6963
     /tmp/ccghGiGC.s:101623  .debug_str:0000000000031e9c .LASF6964
     /tmp/ccghGiGC.s:95129  .debug_str:0000000000017366 .LASF6965
     /tmp/ccghGiGC.s:103545  .debug_str:0000000000039950 .LASF6966
     /tmp/ccghGiGC.s:95381  .debug_str:0000000000018458 .LASF6967
     /tmp/ccghGiGC.s:99019  .debug_str:00000000000275ec .LASF6968
     /tmp/ccghGiGC.s:103547  .debug_str:0000000000039956 .LASF6969
     /tmp/ccghGiGC.s:108691  .debug_str:000000000004f485 .LASF6970
     /tmp/ccghGiGC.s:99335  .debug_str:0000000000028c03 .LASF6971
     /tmp/ccghGiGC.s:103611  .debug_str:0000000000039d8e .LASF6972
     /tmp/ccghGiGC.s:101645  .debug_str:0000000000031fc3 .LASF6973
     /tmp/ccghGiGC.s:102433  .debug_str:0000000000035514 .LASF6974
     /tmp/ccghGiGC.s:103613  .debug_str:0000000000039d94 .LASF6975
     /tmp/ccghGiGC.s:95399  .debug_str:000000000001858b .LASF6976
     /tmp/ccghGiGC.s:101707  .debug_str:00000000000323f6 .LASF6977
     /tmp/ccghGiGC.s:101083  .debug_str:000000000002fc67 .LASF6978
     /tmp/ccghGiGC.s:95837  .debug_str:000000000001a208 .LASF6979
     /tmp/ccghGiGC.s:104999  .debug_str:000000000003f9b5 .LASF6980
     /tmp/ccghGiGC.s:103617  .debug_str:0000000000039db7 .LASF6981
     /tmp/ccghGiGC.s:102617  .debug_str:0000000000036284 .LASF6982
     /tmp/ccghGiGC.s:90219  .debug_str:00000000000036f0 .LASF6983
     /tmp/ccghGiGC.s:101089  .debug_str:000000000002fcc0 .LASF6984
     /tmp/ccghGiGC.s:96395  .debug_str:000000000001c96c .LASF6985
     /tmp/ccghGiGC.s:95997  .debug_str:000000000001adf8 .LASF6986
     /tmp/ccghGiGC.s:103621  .debug_str:0000000000039ddb .LASF6987
     /tmp/ccghGiGC.s:90179  .debug_str:0000000000003518 .LASF6988
     /tmp/ccghGiGC.s:94209  .debug_str:000000000001395b .LASF6989
     /tmp/ccghGiGC.s:103623  .debug_str:0000000000039de1 .LASF6990
     /tmp/ccghGiGC.s:101847  .debug_str:0000000000032e21 .LASF6991
     /tmp/ccghGiGC.s:104501  .debug_str:000000000003d85c .LASF6992
     /tmp/ccghGiGC.s:103625  .debug_str:0000000000039de7 .LASF6993
     /tmp/ccghGiGC.s:97385  .debug_str:0000000000020eea .LASF6994
     /tmp/ccghGiGC.s:90137  .debug_str:0000000000003254 .LASF6995
     /tmp/ccghGiGC.s:101103  .debug_str:000000000002fd8e .LASF6996
     /tmp/ccghGiGC.s:91131  .debug_str:0000000000007555 .LASF6997
     /tmp/ccghGiGC.s:98245  .debug_str:000000000002491a .LASF6998
     /tmp/ccghGiGC.s:103629  .debug_str:0000000000039e15 .LASF6999
     /tmp/ccghGiGC.s:104527  .debug_str:000000000003da2c .LASF7000
     /tmp/ccghGiGC.s:103323  .debug_str:0000000000038e59 .LASF7001
     /tmp/ccghGiGC.s:92901  .debug_str:000000000000ea02 .LASF7002
     /tmp/ccghGiGC.s:91101  .debug_str:0000000000007352 .LASF7003
     /tmp/ccghGiGC.s:103327  .debug_str:0000000000038ea0 .LASF7004
     /tmp/ccghGiGC.s:94187  .debug_str:00000000000137ff .LASF7005
     /tmp/ccghGiGC.s:104499  .debug_str:000000000003d83b .LASF7006
     /tmp/ccghGiGC.s:95845  .debug_str:000000000001a2b5 .LASF7007
     /tmp/ccghGiGC.s:94191  .debug_str:0000000000013825 .LASF7008
     /tmp/ccghGiGC.s:96123  .debug_str:000000000001b5f2 .LASF7009
     /tmp/ccghGiGC.s:98637  .debug_str:0000000000025fa1 .LASF7010
     /tmp/ccghGiGC.s:92907  .debug_str:000000000000ea57 .LASF7011
     /tmp/ccghGiGC.s:92031  .debug_str:000000000000b1e4 .LASF7012
     /tmp/ccghGiGC.s:98639  .debug_str:0000000000025fb0 .LASF7013
     /tmp/ccghGiGC.s:92909  .debug_str:000000000000ea5e .LASF7014
     /tmp/ccghGiGC.s:105413  .debug_str:000000000004171b .LASF7015
     /tmp/ccghGiGC.s:97661  .debug_str:00000000000221bf .LASF7016
     /tmp/ccghGiGC.s:92911  .debug_str:000000000000ea65 .LASF7017
     /tmp/ccghGiGC.s:99293  .debug_str:00000000000288b0 .LASF7018
     /tmp/ccghGiGC.s:95447  .debug_str:00000000000188a6 .LASF7019
     /tmp/ccghGiGC.s:92913  .debug_str:000000000000ea6c .LASF7020
     /tmp/ccghGiGC.s:93015  .debug_str:000000000000ef2a .LASF7021
     /tmp/ccghGiGC.s:92175  .debug_str:000000000000bc6d .LASF7022
     /tmp/ccghGiGC.s:92915  .debug_str:000000000000ea73 .LASF7023
     /tmp/ccghGiGC.s:106435  .debug_str:0000000000045d61 .LASF7024
     /tmp/ccghGiGC.s:98861  .debug_str:0000000000026cc4 .LASF7025
     /tmp/ccghGiGC.s:92917  .debug_str:000000000000ea7a .LASF7026
     /tmp/ccghGiGC.s:100323  .debug_str:000000000002cad2 .LASF7027
     /tmp/ccghGiGC.s:98865  .debug_str:0000000000026ce7 .LASF7028
     /tmp/ccghGiGC.s:92919  .debug_str:000000000000ea81 .LASF7029
     /tmp/ccghGiGC.s:94075  .debug_str:0000000000012fef .LASF7030
     /tmp/ccghGiGC.s:105811  .debug_str:000000000004344f .LASF7031
     /tmp/ccghGiGC.s:92979  .debug_str:000000000000ee20 .LASF7032
     /tmp/ccghGiGC.s:106455  .debug_str:0000000000045e9b .LASF7033
     /tmp/ccghGiGC.s:94229  .debug_str:0000000000013a96 .LASF7034
     /tmp/ccghGiGC.s:92981  .debug_str:000000000000ee27 .LASF7035
     /tmp/ccghGiGC.s:100347  .debug_str:000000000002cc3c .LASF7036
     /tmp/ccghGiGC.s:94231  .debug_str:0000000000013aa7 .LASF7037
     /tmp/ccghGiGC.s:92983  .debug_str:000000000000ee2e .LASF7038
     /tmp/ccghGiGC.s:94091  .debug_str:00000000000130f5 .LASF7039
     /tmp/ccghGiGC.s:91189  .debug_str:000000000000791b .LASF7040
     /tmp/ccghGiGC.s:92985  .debug_str:000000000000ee35 .LASF7041
     /tmp/ccghGiGC.s:107385  .debug_str:0000000000049ac6 .LASF7042
     /tmp/ccghGiGC.s:101509  .debug_str:000000000003172a .LASF7043
     /tmp/ccghGiGC.s:92987  .debug_str:000000000000ee3c .LASF7044
     /tmp/ccghGiGC.s:101319  .debug_str:0000000000030b92 .LASF7045
     /tmp/ccghGiGC.s:101517  .debug_str:000000000003177c .LASF7046
     /tmp/ccghGiGC.s:92989  .debug_str:000000000000ee43 .LASF7047
     /tmp/ccghGiGC.s:95059  .debug_str:0000000000016f2b .LASF7048
     /tmp/ccghGiGC.s:91765  .debug_str:000000000000a025 .LASF7049
     /tmp/ccghGiGC.s:92991  .debug_str:000000000000ee4a .LASF7050
     /tmp/ccghGiGC.s:90409  .debug_str:00000000000044c9 .LASF7051
     /tmp/ccghGiGC.s:89507  .debug_str:000000000000068d .LASF7052
     /tmp/ccghGiGC.s:92993  .debug_str:000000000000ee51 .LASF7053
     /tmp/ccghGiGC.s:102311  .debug_str:0000000000034c3b .LASF7054
     /tmp/ccghGiGC.s:91289  .debug_str:0000000000007f4c .LASF7055
     /tmp/ccghGiGC.s:92995  .debug_str:000000000000ee58 .LASF7056
     /tmp/ccghGiGC.s:96059  .debug_str:000000000001b1fd .LASF7057
     /tmp/ccghGiGC.s:101561  .debug_str:0000000000031b07 .LASF7058
     /tmp/ccghGiGC.s:92997  .debug_str:000000000000ee5f .LASF7059
     /tmp/ccghGiGC.s:89829  .debug_str:0000000000001cfe .LASF7060
     /tmp/ccghGiGC.s:94341  .debug_str:0000000000014134 .LASF7061
     /tmp/ccghGiGC.s:93079  .debug_str:000000000000f3c0 .LASF7062
     /tmp/ccghGiGC.s:107861  .debug_str:000000000004bb2f .LASF7063
     /tmp/ccghGiGC.s:101665  .debug_str:0000000000032103 .LASF7064
     /tmp/ccghGiGC.s:93081  .debug_str:000000000000f3c7 .LASF7065
     /tmp/ccghGiGC.s:96079  .debug_str:000000000001b320 .LASF7066
     /tmp/ccghGiGC.s:94511  .debug_str:0000000000014c33 .LASF7067
     /tmp/ccghGiGC.s:93083  .debug_str:000000000000f3ce .LASF7068
     /tmp/ccghGiGC.s:89851  .debug_str:0000000000001eb3 .LASF7069
     /tmp/ccghGiGC.s:96981  .debug_str:000000000001f1b3 .LASF7070
     /tmp/ccghGiGC.s:93085  .debug_str:000000000000f3d5 .LASF7071
     /tmp/ccghGiGC.s:107451  .debug_str:0000000000049f94 .LASF7072
     /tmp/ccghGiGC.s:96983  .debug_str:000000000001f1c2 .LASF7073
     /tmp/ccghGiGC.s:93087  .debug_str:000000000000f3dc .LASF7074
     /tmp/ccghGiGC.s:97047  .debug_str:000000000001f707 .LASF7075
     /tmp/ccghGiGC.s:90407  .debug_str:00000000000044bc .LASF7076
     /tmp/ccghGiGC.s:93089  .debug_str:000000000000f3e3 .LASF7077
     /tmp/ccghGiGC.s:90829  .debug_str:000000000000600f .LASF7078
     /tmp/ccghGiGC.s:89859  .debug_str:0000000000001f7f .LASF7079
     /tmp/ccghGiGC.s:94527  .debug_str:0000000000014cca .LASF7080
     /tmp/ccghGiGC.s:104245  .debug_str:000000000003c822 .LASF7081
     /tmp/ccghGiGC.s:89863  .debug_str:0000000000001fbb .LASF7082
     /tmp/ccghGiGC.s:93093  .debug_str:000000000000f412 .LASF7083
     /tmp/ccghGiGC.s:89775  .debug_str:000000000000185b .LASF7084
     /tmp/ccghGiGC.s:108801  .debug_str:000000000004fc4a .LASF7085
     /tmp/ccghGiGC.s:93095  .debug_str:000000000000f419 .LASF7086
     /tmp/ccghGiGC.s:108685  .debug_str:000000000004f43e .LASF7087
     /tmp/ccghGiGC.s:104757  .debug_str:000000000003eacf .LASF7088
     /tmp/ccghGiGC.s:93097  .debug_str:000000000000f420 .LASF7089
     /tmp/ccghGiGC.s:105143  .debug_str:0000000000040294 .LASF7090
     /tmp/ccghGiGC.s:96635  .debug_str:000000000001d9b2 .LASF7091
     /tmp/ccghGiGC.s:94661  .debug_str:000000000001555f .LASF7092
     /tmp/ccghGiGC.s:104953  .debug_str:000000000003f6ea .LASF7093
     /tmp/ccghGiGC.s:96801  .debug_str:000000000001e5bd .LASF7094
     /tmp/ccghGiGC.s:93155  .debug_str:000000000000f88d .LASF7095
     /tmp/ccghGiGC.s:91733  .debug_str:0000000000009e2c .LASF7096
     /tmp/ccghGiGC.s:105497  .debug_str:0000000000041c8b .LASF7097
     /tmp/ccghGiGC.s:93157  .debug_str:000000000000f894 .LASF7098
     /tmp/ccghGiGC.s:105169  .debug_str:0000000000040444 .LASF7099
     /tmp/ccghGiGC.s:94245  .debug_str:0000000000013b7e .LASF7100
     /tmp/ccghGiGC.s:93159  .debug_str:000000000000f89b .LASF7101
     /tmp/ccghGiGC.s:99049  .debug_str:000000000002783c .LASF7102
     /tmp/ccghGiGC.s:102413  .debug_str:0000000000035348 .LASF7103
     /tmp/ccghGiGC.s:93161  .debug_str:000000000000f8a2 .LASF7104
     /tmp/ccghGiGC.s:92739  .debug_str:000000000000e0a7 .LASF7105
     /tmp/ccghGiGC.s:91039  .debug_str:0000000000006e76 .LASF7106
     /tmp/ccghGiGC.s:93163  .debug_str:000000000000f8a9 .LASF7107
     /tmp/ccghGiGC.s:106159  .debug_str:0000000000044aee .LASF7108
     /tmp/ccghGiGC.s:94643  .debug_str:000000000001542c .LASF7109
     /tmp/ccghGiGC.s:93165  .debug_str:000000000000f8b0 .LASF7110
     /tmp/ccghGiGC.s:100071  .debug_str:000000000002bbe8 .LASF7111
     /tmp/ccghGiGC.s:102955  .debug_str:000000000003788b .LASF7112
     /tmp/ccghGiGC.s:93167  .debug_str:000000000000f8b7 .LASF7113
     /tmp/ccghGiGC.s:90975  .debug_str:0000000000006994 .LASF7114
     /tmp/ccghGiGC.s:103331  .debug_str:0000000000038ed8 .LASF7115
     /tmp/ccghGiGC.s:93169  .debug_str:000000000000f8be .LASF7116
     /tmp/ccghGiGC.s:107139  .debug_str:0000000000048b3c .LASF7117
     /tmp/ccghGiGC.s:101143  .debug_str:000000000002ffdb .LASF7118
     /tmp/ccghGiGC.s:94691  .debug_str:0000000000015719 .LASF7119
     /tmp/ccghGiGC.s:103823  .debug_str:000000000003aa83 .LASF7120
     /tmp/ccghGiGC.s:97425  .debug_str:0000000000021135 .LASF7121
     /tmp/ccghGiGC.s:93245  .debug_str:000000000000fe54 .LASF7122
     /tmp/ccghGiGC.s:102157  .debug_str:000000000003426c .LASF7123
     /tmp/ccghGiGC.s:98219  .debug_str:00000000000246d2 .LASF7124
     /tmp/ccghGiGC.s:94821  .debug_str:0000000000015f93 .LASF7125
     /tmp/ccghGiGC.s:107159  .debug_str:0000000000048c72 .LASF7126
     /tmp/ccghGiGC.s:90795  .debug_str:0000000000005df4 .LASF7127
     /tmp/ccghGiGC.s:93249  .debug_str:000000000000fe6b .LASF7128
     /tmp/ccghGiGC.s:101091  .debug_str:000000000002fcc6 .LASF7129
     /tmp/ccghGiGC.s:94891  .debug_str:0000000000016378 .LASF7130
     /tmp/ccghGiGC.s:93251  .debug_str:000000000000fe72 .LASF7131
     /tmp/ccghGiGC.s:94805  .debug_str:0000000000015eba .LASF7132
     /tmp/ccghGiGC.s:94867  .debug_str:000000000001623b .LASF7133
     /tmp/ccghGiGC.s:93253  .debug_str:000000000000fe79 .LASF7134
     /tmp/ccghGiGC.s:108115  .debug_str:000000000004cc6b .LASF7135
     /tmp/ccghGiGC.s:93829  .debug_str:0000000000011fac .LASF7136
     /tmp/ccghGiGC.s:93255  .debug_str:000000000000fe80 .LASF7137
     /tmp/ccghGiGC.s:102061  .debug_str:0000000000033c1d .LASF7138
     /tmp/ccghGiGC.s:96503  .debug_str:000000000001d136 .LASF7139
     /tmp/ccghGiGC.s:94833  .debug_str:000000000001605b .LASF7140
     /tmp/ccghGiGC.s:101301  .debug_str:0000000000030a5d .LASF7141
     /tmp/ccghGiGC.s:100411  .debug_str:000000000002d0cf .LASF7142
     /tmp/ccghGiGC.s:94835  .debug_str:0000000000016062 .LASF7143
     /tmp/ccghGiGC.s:89595  .debug_str:0000000000000c16 .LASF7144
     /tmp/ccghGiGC.s:102231  .debug_str:0000000000034714 .LASF7145
     /tmp/ccghGiGC.s:94837  .debug_str:0000000000016069 .LASF7146
     /tmp/ccghGiGC.s:102997  .debug_str:0000000000037b2b .LASF7147
     /tmp/ccghGiGC.s:90787  .debug_str:0000000000005d87 .LASF7148
     /tmp/ccghGiGC.s:94839  .debug_str:0000000000016070 .LASF7149
     /tmp/ccghGiGC.s:96767  .debug_str:000000000001e375 .LASF7150
     /tmp/ccghGiGC.s:105427  .debug_str:0000000000041805 .LASF7151
     /tmp/ccghGiGC.s:93333  .debug_str:000000000001034e .LASF7152
     /tmp/ccghGiGC.s:89611  .debug_str:0000000000000ceb .LASF7153
     /tmp/ccghGiGC.s:95703  .debug_str:0000000000019940 .LASF7154
     /tmp/ccghGiGC.s:93335  .debug_str:0000000000010355 .LASF7155
     /tmp/ccghGiGC.s:105495  .debug_str:0000000000041c6a .LASF7156
     /tmp/ccghGiGC.s:106783  .debug_str:000000000004734f .LASF7157
     /tmp/ccghGiGC.s:93337  .debug_str:000000000001035c .LASF7158
     /tmp/ccghGiGC.s:96789  .debug_str:000000000001e502 .LASF7159
     /tmp/ccghGiGC.s:91899  .debug_str:000000000000a90f .LASF7160
     /tmp/ccghGiGC.s:93339  .debug_str:0000000000010363 .LASF7161
     /tmp/ccghGiGC.s:106823  .debug_str:000000000004761a .LASF7162
     /tmp/ccghGiGC.s:100703  .debug_str:000000000002e2df .LASF7163
     /tmp/ccghGiGC.s:93341  .debug_str:000000000001036a .LASF7164
     /tmp/ccghGiGC.s:104033  .debug_str:000000000003b8f6 .LASF7165
     /tmp/ccghGiGC.s:93761  .debug_str:0000000000011b21 .LASF7166
     /tmp/ccghGiGC.s:93343  .debug_str:0000000000010371 .LASF7167
     /tmp/ccghGiGC.s:97799  .debug_str:0000000000022a4c .LASF7168
     /tmp/ccghGiGC.s:107697  .debug_str:000000000004af8e .LASF7169
     /tmp/ccghGiGC.s:93345  .debug_str:0000000000010378 .LASF7170
     /tmp/ccghGiGC.s:91511  .debug_str:0000000000008e38 .LASF7171
     /tmp/ccghGiGC.s:95907  .debug_str:000000000001a76c .LASF7172
     /tmp/ccghGiGC.s:93347  .debug_str:000000000001037f .LASF7173
     /tmp/ccghGiGC.s:104901  .debug_str:000000000003f3ab .LASF7174
     /tmp/ccghGiGC.s:108527  .debug_str:000000000004ea2b .LASF7175
     /tmp/ccghGiGC.s:93349  .debug_str:0000000000010386 .LASF7176
     /tmp/ccghGiGC.s:98765  .debug_str:0000000000026667 .LASF7177
     /tmp/ccghGiGC.s:89881  .debug_str:00000000000020e6 .LASF7178
     /tmp/ccghGiGC.s:93351  .debug_str:000000000001038d .LASF7179
     /tmp/ccghGiGC.s:92485  .debug_str:000000000000d140 .LASF7180
     /tmp/ccghGiGC.s:91229  .debug_str:0000000000007b79 .LASF7181
     /tmp/ccghGiGC.s:93405  .debug_str:0000000000010684 .LASF7182
     /tmp/ccghGiGC.s:105087  .debug_str:000000000003ff51 .LASF7183
     /tmp/ccghGiGC.s:100307  .debug_str:000000000002c9f8 .LASF7184
     /tmp/ccghGiGC.s:93407  .debug_str:000000000001068b .LASF7185
     /tmp/ccghGiGC.s:98949  .debug_str:0000000000027246 .LASF7186
     /tmp/ccghGiGC.s:104015  .debug_str:000000000003b820 .LASF7187
     /tmp/ccghGiGC.s:95155  .debug_str:000000000001754b .LASF7188
     /tmp/ccghGiGC.s:92655  .debug_str:000000000000dc7f .LASF7189
     /tmp/ccghGiGC.s:105035  .debug_str:000000000003fc43 .LASF7190
     /tmp/ccghGiGC.s:96835  .debug_str:000000000001e83b .LASF7191
     /tmp/ccghGiGC.s:106087  .debug_str:0000000000044632 .LASF7192
     /tmp/ccghGiGC.s:90605  .debug_str:000000000000519f .LASF7193
     /tmp/ccghGiGC.s:93413  .debug_str:00000000000106dc .LASF7194
     /tmp/ccghGiGC.s:99991  .debug_str:000000000002b5e4 .LASF7195
     /tmp/ccghGiGC.s:94987  .debug_str:00000000000169f5 .LASF7196
     /tmp/ccghGiGC.s:93415  .debug_str:00000000000106e3 .LASF7197
     /tmp/ccghGiGC.s:89647  .debug_str:0000000000000f7e .LASF7198
     /tmp/ccghGiGC.s:103909  .debug_str:000000000003b090 .LASF7199
     /tmp/ccghGiGC.s:93417  .debug_str:00000000000106ea .LASF7200
     /tmp/ccghGiGC.s:96051  .debug_str:000000000001b14b .LASF7201
     /tmp/ccghGiGC.s:101853  .debug_str:0000000000032ec6 .LASF7202
     /tmp/ccghGiGC.s:93419  .debug_str:00000000000106f1 .LASF7203
     /tmp/ccghGiGC.s:100987  .debug_str:000000000002f56d .LASF7204
     /tmp/ccghGiGC.s:100979  .debug_str:000000000002f4d5 .LASF7205
     /tmp/ccghGiGC.s:93421  .debug_str:00000000000106f8 .LASF7206
     /tmp/ccghGiGC.s:108741  .debug_str:000000000004f7be .LASF7207
     /tmp/ccghGiGC.s:96511  .debug_str:000000000001d1b7 .LASF7208
     /tmp/ccghGiGC.s:93423  .debug_str:00000000000106ff .LASF7209
     /tmp/ccghGiGC.s:108009  .debug_str:000000000004c506 .LASF7210
     /tmp/ccghGiGC.s:89795  .debug_str:0000000000001aad .LASF7211
     /tmp/ccghGiGC.s:95299  .debug_str:0000000000017f5a .LASF7212
     /tmp/ccghGiGC.s:101009  .debug_str:000000000002f741 .LASF7213
     /tmp/ccghGiGC.s:91767  .debug_str:000000000000a031 .LASF7214
     /tmp/ccghGiGC.s:95303  .debug_str:0000000000017f95 .LASF7215
     /tmp/ccghGiGC.s:94749  .debug_str:0000000000015ac8 .LASF7216
     /tmp/ccghGiGC.s:91771  .debug_str:000000000000a053 .LASF7217
     /tmp/ccghGiGC.s:93499  .debug_str:0000000000010b89 .LASF7218
     /tmp/ccghGiGC.s:108037  .debug_str:000000000004c730 .LASF7219
     /tmp/ccghGiGC.s:103491  .debug_str:00000000000396f2 .LASF7220
     /tmp/ccghGiGC.s:93501  .debug_str:0000000000010b90 .LASF7221
     /tmp/ccghGiGC.s:93497  .debug_str:0000000000010b68 .LASF7222
     /tmp/ccghGiGC.s:103467  .debug_str:0000000000039542 .LASF7223
     /tmp/ccghGiGC.s:93503  .debug_str:0000000000010b97 .LASF7224
     /tmp/ccghGiGC.s:95711  .debug_str:00000000000199aa .LASF7225
     /tmp/ccghGiGC.s:103471  .debug_str:000000000003958c .LASF7226
     /tmp/ccghGiGC.s:93505  .debug_str:0000000000010b9e .LASF7227
     /tmp/ccghGiGC.s:89517  .debug_str:000000000000071e .LASF7228
     /tmp/ccghGiGC.s:103789  .debug_str:000000000003a80f .LASF7229
     /tmp/ccghGiGC.s:93507  .debug_str:0000000000010ba5 .LASF7230
     /tmp/ccghGiGC.s:102923  .debug_str:00000000000376b0 .LASF7231
     /tmp/ccghGiGC.s:98777  .debug_str:00000000000266e6 .LASF7232
     /tmp/ccghGiGC.s:93509  .debug_str:0000000000010bac .LASF7233
     /tmp/ccghGiGC.s:96697  .debug_str:000000000001de9f .LASF7234
     /tmp/ccghGiGC.s:98781  .debug_str:0000000000026735 .LASF7235
     /tmp/ccghGiGC.s:93511  .debug_str:0000000000010bb3 .LASF7236
     /tmp/ccghGiGC.s:90463  .debug_str:00000000000047ef .LASF7237
     /tmp/ccghGiGC.s:104779  .debug_str:000000000003ec46 .LASF7238
     /tmp/ccghGiGC.s:95323  .debug_str:00000000000180ab .LASF7239
     /tmp/ccghGiGC.s:92599  .debug_str:000000000000d8bf .LASF7240
     /tmp/ccghGiGC.s:96305  .debug_str:000000000001c2e2 .LASF7241
     /tmp/ccghGiGC.s:93577  .debug_str:0000000000011042 .LASF7242
     /tmp/ccghGiGC.s:96711  .debug_str:000000000001df90 .LASF7243
     /tmp/ccghGiGC.s:96309  .debug_str:000000000001c30d .LASF7244
     /tmp/ccghGiGC.s:93579  .debug_str:0000000000011049 .LASF7245
     /tmp/ccghGiGC.s:90483  .debug_str:000000000000494a .LASF7246
     /tmp/ccghGiGC.s:103965  .debug_str:000000000003b431 .LASF7247
     /tmp/ccghGiGC.s:93581  .debug_str:0000000000011050 .LASF7248
     /tmp/ccghGiGC.s:103969  .debug_str:000000000003b46c .LASF7249
     /tmp/ccghGiGC.s:91569  .debug_str:000000000000929f .LASF7250
     /tmp/ccghGiGC.s:95471  .debug_str:0000000000018a08 .LASF7251
     /tmp/ccghGiGC.s:97709  .debug_str:000000000002246f .LASF7252
     /tmp/ccghGiGC.s:91573  .debug_str:00000000000092ca .LASF7253
     /tmp/ccghGiGC.s:93585  .debug_str:000000000001106a .LASF7254
     /tmp/ccghGiGC.s:91443  .debug_str:0000000000008a06 .LASF7255
     /tmp/ccghGiGC.s:94823  .debug_str:0000000000015f9a .LASF7256
     /tmp/ccghGiGC.s:93587  .debug_str:0000000000011071 .LASF7257
     /tmp/ccghGiGC.s:104809  .debug_str:000000000003ee31 .LASF7258
     /tmp/ccghGiGC.s:97221  .debug_str:00000000000203bf .LASF7259
     /tmp/ccghGiGC.s:93589  .debug_str:0000000000011078 .LASF7260
     /tmp/ccghGiGC.s:98677  .debug_str:00000000000260a4 .LASF7261
     /tmp/ccghGiGC.s:97223  .debug_str:00000000000203cd .LASF7262
     /tmp/ccghGiGC.s:93591  .debug_str:000000000001107f .LASF7263
     /tmp/ccghGiGC.s:92403  .debug_str:000000000000cbb3 .LASF7264
     /tmp/ccghGiGC.s:100891  .debug_str:000000000002ef3e .LASF7265
     /tmp/ccghGiGC.s:95487  .debug_str:0000000000018a82 .LASF7266
     /tmp/ccghGiGC.s:105815  .debug_str:000000000004348a .LASF7267
     /tmp/ccghGiGC.s:92505  .debug_str:000000000000d2ec .LASF7268
     /tmp/ccghGiGC.s:93595  .debug_str:00000000000110b0 .LASF7269
     /tmp/ccghGiGC.s:99691  .debug_str:000000000002a35e .LASF7270
     /tmp/ccghGiGC.s:92509  .debug_str:000000000000d32f .LASF7271
     /tmp/ccghGiGC.s:93671  .debug_str:00000000000115e2 .LASF7272
     /tmp/ccghGiGC.s:92433  .debug_str:000000000000ce16 .LASF7273
     /tmp/ccghGiGC.s:95977  .debug_str:000000000001acab .LASF7274
     /tmp/ccghGiGC.s:93673  .debug_str:00000000000115e9 .LASF7275
     /tmp/ccghGiGC.s:105835  .debug_str:0000000000043625 .LASF7276
     /tmp/ccghGiGC.s:107145  .debug_str:0000000000048b7c .LASF7277
     /tmp/ccghGiGC.s:93675  .debug_str:00000000000115f0 .LASF7278
     /tmp/ccghGiGC.s:99715  .debug_str:000000000002a4f2 .LASF7279
     /tmp/ccghGiGC.s:91991  .debug_str:000000000000af49 .LASF7280
     /tmp/ccghGiGC.s:97603  .debug_str:0000000000021dc0 .LASF7281
     /tmp/ccghGiGC.s:107203  .debug_str:0000000000048f05 .LASF7282
     /tmp/ccghGiGC.s:95047  .debug_str:0000000000016e34 .LASF7283
     /tmp/ccghGiGC.s:93679  .debug_str:0000000000011621 .LASF7284
     /tmp/ccghGiGC.s:106803  .debug_str:000000000004746e .LASF7285
     /tmp/ccghGiGC.s:106945  .debug_str:0000000000047e86 .LASF7286
     /tmp/ccghGiGC.s:93681  .debug_str:0000000000011628 .LASF7287
     /tmp/ccghGiGC.s:100745  .debug_str:000000000002e5ac .LASF7288
     /tmp/ccghGiGC.s:106949  .debug_str:0000000000047ec2 .LASF7289
     /tmp/ccghGiGC.s:93683  .debug_str:000000000001162f .LASF7290
     /tmp/ccghGiGC.s:94463  .debug_str:0000000000014943 .LASF7291
     /tmp/ccghGiGC.s:105195  .debug_str:00000000000405cd .LASF7292
     /tmp/ccghGiGC.s:93685  .debug_str:0000000000011636 .LASF7293
     /tmp/ccghGiGC.s:93615  .debug_str:00000000000111d5 .LASF7294
     /tmp/ccghGiGC.s:99863  .debug_str:000000000002ae14 .LASF7295
     /tmp/ccghGiGC.s:93687  .debug_str:000000000001163d .LASF7296
     /tmp/ccghGiGC.s:101687  .debug_str:0000000000032275 .LASF7297
     /tmp/ccghGiGC.s:103357  .debug_str:000000000003905e .LASF7298
     /tmp/ccghGiGC.s:93689  .debug_str:0000000000011644 .LASF7299
     /tmp/ccghGiGC.s:95441  .debug_str:000000000001882b .LASF7300
     /tmp/ccghGiGC.s:103147  .debug_str:0000000000038482 .LASF7301
     /tmp/ccghGiGC.s:98297  .debug_str:0000000000024c20 .LASF7302
     /tmp/ccghGiGC.s:103367  .debug_str:00000000000390d6 .LASF7303
     /tmp/ccghGiGC.s:103151  .debug_str:00000000000384b9 .LASF7304
     /tmp/ccghGiGC.s:98299  .debug_str:0000000000024c27 .LASF7305
     /tmp/ccghGiGC.s:97121  .debug_str:000000000001fc2c .LASF7306
     /tmp/ccghGiGC.s:103403  .debug_str:0000000000039262 .LASF7307
     /tmp/ccghGiGC.s:98301  .debug_str:0000000000024c2e .LASF7308
     /tmp/ccghGiGC.s:90901  .debug_str:0000000000006501 .LASF7309
     /tmp/ccghGiGC.s:98447  .debug_str:0000000000025500 .LASF7310
     /tmp/ccghGiGC.s:98303  .debug_str:0000000000024c35 .LASF7311
     /tmp/ccghGiGC.s:104317  .debug_str:000000000003ccd3 .LASF7312
     /tmp/ccghGiGC.s:98451  .debug_str:000000000002551f .LASF7313
     /tmp/ccghGiGC.s:98305  .debug_str:0000000000024c3c .LASF7314
     /tmp/ccghGiGC.s:98077  .debug_str:0000000000023d5c .LASF7315
     /tmp/ccghGiGC.s:94935  .debug_str:0000000000016694 .LASF7316
     /tmp/ccghGiGC.s:98307  .debug_str:0000000000024c43 .LASF7317
     /tmp/ccghGiGC.s:108757  .debug_str:000000000004f8e9 .LASF7318
     /tmp/ccghGiGC.s:95901  .debug_str:000000000001a6f8 .LASF7319
     /tmp/ccghGiGC.s:98309  .debug_str:0000000000024c4a .LASF7320
     /tmp/ccghGiGC.s:108147  .debug_str:000000000004cf06 .LASF7321
     /tmp/ccghGiGC.s:103365  .debug_str:00000000000390c6 .LASF7322
     /tmp/ccghGiGC.s:98311  .debug_str:0000000000024c51 .LASF7323
     /tmp/ccghGiGC.s:99093  .debug_str:0000000000027b70 .LASF7324
     /tmp/ccghGiGC.s:107055  .debug_str:00000000000485bb .LASF7325
     /tmp/ccghGiGC.s:98313  .debug_str:0000000000024c58 .LASF7326
     /tmp/ccghGiGC.s:92791  .debug_str:000000000000e3ae .LASF7327
     /tmp/ccghGiGC.s:104445  .debug_str:000000000003d4be .LASF7328
     /tmp/ccghGiGC.s:98315  .debug_str:0000000000024c5f .LASF7329
     /tmp/ccghGiGC.s:106213  .debug_str:0000000000044f17 .LASF7330
     /tmp/ccghGiGC.s:91329  .debug_str:00000000000081d4 .LASF7331
     /tmp/ccghGiGC.s:98373  .debug_str:000000000002513b .LASF7332
     /tmp/ccghGiGC.s:99117  .debug_str:0000000000027cea .LASF7333
     /tmp/ccghGiGC.s:91331  .debug_str:00000000000081e3 .LASF7334
     /tmp/ccghGiGC.s:98375  .debug_str:0000000000025142 .LASF7335
     /tmp/ccghGiGC.s:92819  .debug_str:000000000000e593 .LASF7336
     /tmp/ccghGiGC.s:91581  .debug_str:0000000000009335 .LASF7337
     /tmp/ccghGiGC.s:98377  .debug_str:0000000000025149 .LASF7338
     /tmp/ccghGiGC.s:106235  .debug_str:0000000000045071 .LASF7339
     /tmp/ccghGiGC.s:106289  .debug_str:00000000000453a3 .LASF7340
     /tmp/ccghGiGC.s:98379  .debug_str:0000000000025150 .LASF7341
     /tmp/ccghGiGC.s:100151  .debug_str:000000000002c056 .LASF7342
     /tmp/ccghGiGC.s:106293  .debug_str:00000000000453bc .LASF7343
     /tmp/ccghGiGC.s:98381  .debug_str:0000000000025157 .LASF7344
     /tmp/ccghGiGC.s:93893  .debug_str:0000000000012446 .LASF7345
     /tmp/ccghGiGC.s:95643  .debug_str:0000000000019508 .LASF7346
     /tmp/ccghGiGC.s:98383  .debug_str:000000000002515e .LASF7347
     /tmp/ccghGiGC.s:107201  .debug_str:0000000000048ee4 .LASF7348
     /tmp/ccghGiGC.s:91829  .debug_str:000000000000a46e .LASF7349
     /tmp/ccghGiGC.s:98385  .debug_str:0000000000025165 .LASF7350
     /tmp/ccghGiGC.s:101133  .debug_str:000000000002ff4f .LASF7351
     /tmp/ccghGiGC.s:91833  .debug_str:000000000000a482 .LASF7352
     /tmp/ccghGiGC.s:98387  .debug_str:000000000002516c .LASF7353
     /tmp/ccghGiGC.s:94853  .debug_str:0000000000016123 .LASF7354
     /tmp/ccghGiGC.s:104773  .debug_str:000000000003ebf7 .LASF7355
     /tmp/ccghGiGC.s:98389  .debug_str:0000000000025173 .LASF7356
     /tmp/ccghGiGC.s:108169  .debug_str:000000000004d08c .LASF7357
     /tmp/ccghGiGC.s:102981  .debug_str:0000000000037a42 .LASF7358
     /tmp/ccghGiGC.s:98391  .debug_str:000000000002517a .LASF7359
     /tmp/ccghGiGC.s:102109  .debug_str:0000000000033f6b .LASF7360
     /tmp/ccghGiGC.s:98369  .debug_str:00000000000250fb .LASF7361
     /tmp/ccghGiGC.s:98471  .debug_str:00000000000256a1 .LASF7362
     /tmp/ccghGiGC.s:91873  .debug_str:000000000000a723 .LASF7363
     /tmp/ccghGiGC.s:106797  .debug_str:0000000000047451 .LASF7364
     /tmp/ccghGiGC.s:98473  .debug_str:00000000000256a8 .LASF7365
     /tmp/ccghGiGC.s:98293  .debug_str:0000000000024bf2 .LASF7366
     /tmp/ccghGiGC.s:106799  .debug_str:000000000004745c .LASF7367
     /tmp/ccghGiGC.s:105185  .debug_str:000000000004055e .LASF7368
     /tmp/ccghGiGC.s:104673  .debug_str:000000000003e529 .LASF7369
     /tmp/ccghGiGC.s:107125  .debug_str:0000000000048a6b .LASF7370
     /tmp/ccghGiGC.s:98477  .debug_str:00000000000256e4 .LASF7371
     /tmp/ccghGiGC.s:95875  .debug_str:000000000001a4d6 .LASF7372
     /tmp/ccghGiGC.s:90789  .debug_str:0000000000005d96 .LASF7373
     /tmp/ccghGiGC.s:98479  .debug_str:00000000000256eb .LASF7374
     /tmp/ccghGiGC.s:89657  .debug_str:000000000000102f .LASF7375
     /tmp/ccghGiGC.s:100855  .debug_str:000000000002ecb8 .LASF7376
     /tmp/ccghGiGC.s:98481  .debug_str:00000000000256f2 .LASF7377
     /tmp/ccghGiGC.s:103079  .debug_str:0000000000037fe8 .LASF7378
     /tmp/ccghGiGC.s:91389  .debug_str:0000000000008619 .LASF7379
     /tmp/ccghGiGC.s:98483  .debug_str:00000000000256f9 .LASF7380
     /tmp/ccghGiGC.s:96825  .debug_str:000000000001e7b3 .LASF7381
     /tmp/ccghGiGC.s:102031  .debug_str:0000000000033a5e .LASF7382
     /tmp/ccghGiGC.s:98485  .debug_str:0000000000025700 .LASF7383
     /tmp/ccghGiGC.s:90619  .debug_str:0000000000005254 .LASF7384
     /tmp/ccghGiGC.s:100735  .debug_str:000000000002e528 .LASF7385
     /tmp/ccghGiGC.s:98487  .debug_str:0000000000025707 .LASF7386
     /tmp/ccghGiGC.s:104067  .debug_str:000000000003bb1d .LASF7387
     /tmp/ccghGiGC.s:100783  .debug_str:000000000002e80a .LASF7388
     /tmp/ccghGiGC.s:98489  .debug_str:000000000002570e .LASF7389
     /tmp/ccghGiGC.s:97837  .debug_str:0000000000022cd6 .LASF7390
     /tmp/ccghGiGC.s:107539  .debug_str:000000000004a4c3 .LASF7391
     /tmp/ccghGiGC.s:98561  .debug_str:0000000000025b58 .LASF7392
     /tmp/ccghGiGC.s:103739  .debug_str:000000000003a4d4 .LASF7393
     /tmp/ccghGiGC.s:107543  .debug_str:000000000004a4d8 .LASF7394
     /tmp/ccghGiGC.s:98563  .debug_str:0000000000025b5f .LASF7395
     /tmp/ccghGiGC.s:104091  .debug_str:000000000003bcb0 .LASF7396
     /tmp/ccghGiGC.s:91471  .debug_str:0000000000008bd6 .LASF7397
     /tmp/ccghGiGC.s:98565  .debug_str:0000000000025b66 .LASF7398
     /tmp/ccghGiGC.s:97847  .debug_str:0000000000022db2 .LASF7399
     /tmp/ccghGiGC.s:103019  .debug_str:0000000000037cfe .LASF7400
     /tmp/ccghGiGC.s:98567  .debug_str:0000000000025b6d .LASF7401
     /tmp/ccghGiGC.s:91565  .debug_str:000000000000925f .LASF7402
     /tmp/ccghGiGC.s:107739  .debug_str:000000000004b31c .LASF7403
     /tmp/ccghGiGC.s:98569  .debug_str:0000000000025b74 .LASF7404
     /tmp/ccghGiGC.s:104963  .debug_str:000000000003f762 .LASF7405
     /tmp/ccghGiGC.s:100371  .debug_str:000000000002ce30 .LASF7406
     /tmp/ccghGiGC.s:98571  .debug_str:0000000000025b7b .LASF7407
     /tmp/ccghGiGC.s:98823  .debug_str:00000000000269a8 .LASF7408
     /tmp/ccghGiGC.s:100373  .debug_str:000000000002ce3c .LASF7409
     /tmp/ccghGiGC.s:98573  .debug_str:0000000000025b82 .LASF7410
     /tmp/ccghGiGC.s:92547  .debug_str:000000000000d5b5 .LASF7411
     /tmp/ccghGiGC.s:100375  .debug_str:000000000002ce48 .LASF7412
     /tmp/ccghGiGC.s:98575  .debug_str:0000000000025b89 .LASF7413
     /tmp/ccghGiGC.s:105973  .debug_str:0000000000043f19 .LASF7414
     /tmp/ccghGiGC.s:95083  .debug_str:00000000000170b5 .LASF7415
     /tmp/ccghGiGC.s:98577  .debug_str:0000000000025b90 .LASF7416
     /tmp/ccghGiGC.s:99869  .debug_str:000000000002ae5d .LASF7417
     /tmp/ccghGiGC.s:91143  .debug_str:00000000000075ed .LASF7418
     /tmp/ccghGiGC.s:98579  .debug_str:0000000000025b97 .LASF7419
     /tmp/ccghGiGC.s:93567  .debug_str:0000000000010f7d .LASF7420
     /tmp/ccghGiGC.s:95089  .debug_str:000000000001710c .LASF7421
     /tmp/ccghGiGC.s:98649  .debug_str:0000000000026029 .LASF7422
     /tmp/ccghGiGC.s:106001  .debug_str:0000000000044126 .LASF7423
     /tmp/ccghGiGC.s:99007  .debug_str:000000000002754c .LASF7424
     /tmp/ccghGiGC.s:98651  .debug_str:0000000000026030 .LASF7425
     /tmp/ccghGiGC.s:99897  .debug_str:000000000002b009 .LASF7426
     /tmp/ccghGiGC.s:102359  .debug_str:0000000000035022 .LASF7427
     /tmp/ccghGiGC.s:98653  .debug_str:0000000000026037 .LASF7428
     /tmp/ccghGiGC.s:93599  .debug_str:00000000000110c7 .LASF7429
     /tmp/ccghGiGC.s:92711  .debug_str:000000000000df09 .LASF7430
     /tmp/ccghGiGC.s:98655  .debug_str:000000000002603e .LASF7431
     /tmp/ccghGiGC.s:106941  .debug_str:0000000000047e4f .LASF7432
     /tmp/ccghGiGC.s:92713  .debug_str:000000000000df15 .LASF7433
     /tmp/ccghGiGC.s:98657  .debug_str:0000000000026045 .LASF7434
     /tmp/ccghGiGC.s:91981  .debug_str:000000000000ae9b .LASF7435
     /tmp/ccghGiGC.s:92715  .debug_str:000000000000df21 .LASF7436
     /tmp/ccghGiGC.s:98659  .debug_str:000000000002604c .LASF7437
     /tmp/ccghGiGC.s:102343  .debug_str:0000000000034f3f .LASF7438
     /tmp/ccghGiGC.s:108669  .debug_str:000000000004f33a .LASF7439
     /tmp/ccghGiGC.s:98661  .debug_str:0000000000026053 .LASF7440
     /tmp/ccghGiGC.s:107911  .debug_str:000000000004beb5 .LASF7441
     /tmp/ccghGiGC.s:108671  .debug_str:000000000004f344 .LASF7442
     /tmp/ccghGiGC.s:98663  .debug_str:000000000002605a .LASF7443
     /tmp/ccghGiGC.s:91559  .debug_str:00000000000091da .LASF7444
     /tmp/ccghGiGC.s:103839  .debug_str:000000000003abba .LASF7445
     /tmp/ccghGiGC.s:98665  .debug_str:0000000000026061 .LASF7446
     /tmp/ccghGiGC.s:95581  .debug_str:000000000001906d .LASF7447
     /tmp/ccghGiGC.s:108675  .debug_str:000000000004f37e .LASF7448
     /tmp/ccghGiGC.s:98667  .debug_str:0000000000026068 .LASF7449
     /tmp/ccghGiGC.s:108895  .debug_str:000000000005029d .LASF7450
     /tmp/ccghGiGC.s:94009  .debug_str:0000000000012b7e .LASF7451
     /tmp/ccghGiGC.s:98739  .debug_str:00000000000264cd .LASF7452
     /tmp/ccghGiGC.s:102769  .debug_str:0000000000036c83 .LASF7453
     /tmp/ccghGiGC.s:102123  .debug_str:000000000003406d .LASF7454
     /tmp/ccghGiGC.s:92965  .debug_str:000000000000edbc .LASF7455
     /tmp/ccghGiGC.s:101195  .debug_str:0000000000030331 .LASF7456
     /tmp/ccghGiGC.s:102125  .debug_str:0000000000034079 .LASF7457
     /tmp/ccghGiGC.s:92969  .debug_str:000000000000edd8 .LASF7458
     /tmp/ccghGiGC.s:94927  .debug_str:00000000000165fb .LASF7459
     /tmp/ccghGiGC.s:107553  .debug_str:000000000004a546 .LASF7460
     /tmp/ccghGiGC.s:94367  .debug_str:0000000000014319 .LASF7461
     /tmp/ccghGiGC.s:92465  .debug_str:000000000000cfff .LASF7462
     /tmp/ccghGiGC.s:105057  .debug_str:000000000003fd8a .LASF7463
     /tmp/ccghGiGC.s:95103  .debug_str:0000000000017199 .LASF7464
     /tmp/ccghGiGC.s:98027  .debug_str:0000000000023a20 .LASF7465
     /tmp/ccghGiGC.s:104235  .debug_str:000000000003c7af .LASF7466
     /tmp/ccghGiGC.s:103695  .debug_str:000000000003a181 .LASF7467
     /tmp/ccghGiGC.s:101323  .debug_str:0000000000030bd1 .LASF7468
     /tmp/ccghGiGC.s:92951  .debug_str:000000000000ecf4 .LASF7469
     /tmp/ccghGiGC.s:105999  .debug_str:0000000000044100 .LASF7470
     /tmp/ccghGiGC.s:105197  .debug_str:00000000000405df .LASF7471
     /tmp/ccghGiGC.s:92903  .debug_str:000000000000ea09 .LASF7472
     /tmp/ccghGiGC.s:96917  .debug_str:000000000001edbc .LASF7473
     /tmp/ccghGiGC.s:105073  .debug_str:000000000003fe89 .LASF7474
     /tmp/ccghGiGC.s:91245  .debug_str:0000000000007c37 .LASF7475
     /tmp/ccghGiGC.s:93965  .debug_str:0000000000012837 .LASF7476
     /tmp/ccghGiGC.s:105193  .debug_str:00000000000405c1 .LASF7477
     /tmp/ccghGiGC.s:102469  .debug_str:00000000000357a4 .LASF7478
     /tmp/ccghGiGC.s:104029  .debug_str:000000000003b8d8 .LASF7479
     /tmp/ccghGiGC.s:106233  .debug_str:0000000000045063 .LASF7480
     /tmp/ccghGiGC.s:98929  .debug_str:0000000000027138 .LASF7481
     /tmp/ccghGiGC.s:96485  .debug_str:000000000001cfee .LASF7482
     /tmp/ccghGiGC.s:99947  .debug_str:000000000002b3cf .LASF7483
     /tmp/ccghGiGC.s:101793  .debug_str:0000000000032a26 .LASF7484
     /tmp/ccghGiGC.s:103933  .debug_str:000000000003b23e .LASF7485
     /tmp/ccghGiGC.s:92889  .debug_str:000000000000e932 .LASF7486
     /tmp/ccghGiGC.s:107065  .debug_str:0000000000048657 .LASF7487
     /tmp/ccghGiGC.s:106389  .debug_str:0000000000045a8e .LASF7488
     /tmp/ccghGiGC.s:97287  .debug_str:000000000002086d .LASF7489
     /tmp/ccghGiGC.s:95797  .debug_str:0000000000019f98 .LASF7490
     /tmp/ccghGiGC.s:90515  .debug_str:0000000000004bcc .LASF7491
     /tmp/ccghGiGC.s:92439  .debug_str:000000000000ce68 .LASF7492
     /tmp/ccghGiGC.s:97479  .debug_str:00000000000214f1 .LASF7493
     /tmp/ccghGiGC.s:105901  .debug_str:0000000000043ab6 .LASF7494
     /tmp/ccghGiGC.s:90337  .debug_str:0000000000003f33 .LASF7495
     /tmp/ccghGiGC.s:105379  .debug_str:0000000000041421 .LASF7496
     /tmp/ccghGiGC.s:96061  .debug_str:000000000001b21e .LASF7497
     /tmp/ccghGiGC.s:104933  .debug_str:000000000003f597 .LASF7498
     /tmp/ccghGiGC.s:89993  .debug_str:0000000000002855 .LASF7499
     /tmp/ccghGiGC.s:104559  .debug_str:000000000003dce7 .LASF7500
     /tmp/ccghGiGC.s:93623  .debug_str:0000000000011283 .LASF7501
     /tmp/ccghGiGC.s:102361  .debug_str:000000000003502a .LASF7502
     /tmp/ccghGiGC.s:107287  .debug_str:00000000000494d7 .LASF7503
     /tmp/ccghGiGC.s:103465  .debug_str:000000000003951f .LASF7504
     /tmp/ccghGiGC.s:90647  .debug_str:00000000000053f8 .LASF7505
     /tmp/ccghGiGC.s:99149  .debug_str:0000000000027f64 .LASF7506
     /tmp/ccghGiGC.s:89459  .debug_str:00000000000002f9 .LASF7507
     /tmp/ccghGiGC.s:99949  .debug_str:000000000002b3f7 .LASF7508
     /tmp/ccghGiGC.s:99651  .debug_str:000000000002a09b .LASF7509
     /tmp/ccghGiGC.s:107583  .debug_str:000000000004a734 .LASF7510
     /tmp/ccghGiGC.s:99217  .debug_str:00000000000283b4 .LASF7511
     /tmp/ccghGiGC.s:90817  .debug_str:0000000000005fa6 .LASF7512
     /tmp/ccghGiGC.s:105631  .debug_str:00000000000428b1 .LASF7513
     /tmp/ccghGiGC.s:105587  .debug_str:0000000000042515 .LASF7514
     /tmp/ccghGiGC.s:92155  .debug_str:000000000000baca .LASF7515
     /tmp/ccghGiGC.s:107369  .debug_str:00000000000499b1 .LASF7516
     /tmp/ccghGiGC.s:108051  .debug_str:000000000004c7f1 .LASF7517
     /tmp/ccghGiGC.s:105505  .debug_str:0000000000041cd2 .LASF7518
     /tmp/ccghGiGC.s:90741  .debug_str:0000000000005a84 .LASF7519
     /tmp/ccghGiGC.s:94689  .debug_str:00000000000156f2 .LASF7520
     /tmp/ccghGiGC.s:95123  .debug_str:0000000000017333 .LASF7521
     /tmp/ccghGiGC.s:101411  .debug_str:000000000003116a .LASF7522
     /tmp/ccghGiGC.s:102383  .debug_str:000000000003514e .LASF7523
     /tmp/ccghGiGC.s:100183  .debug_str:000000000002c28e .LASF7524
     /tmp/ccghGiGC.s:100137  .debug_str:000000000002bf1f .LASF7525
     /tmp/ccghGiGC.s:97839  .debug_str:0000000000022cf7 .LASF7526
     /tmp/ccghGiGC.s:106445  .debug_str:0000000000045dee .LASF7527
     /tmp/ccghGiGC.s:103563  .debug_str:0000000000039a43 .LASF7528
     /tmp/ccghGiGC.s:97825  .debug_str:0000000000022bee .LASF7529
     /tmp/ccghGiGC.s:95525  .debug_str:0000000000018cc6 .LASF7530
     /tmp/ccghGiGC.s:104201  .debug_str:000000000003c507 .LASF7531
     /tmp/ccghGiGC.s:93011  .debug_str:000000000000eef3 .LASF7532
     /tmp/ccghGiGC.s:101779  .debug_str:0000000000032952 .LASF7533
     /tmp/ccghGiGC.s:103565  .debug_str:0000000000039a4a .LASF7534
     /tmp/ccghGiGC.s:91537  .debug_str:0000000000009054 .LASF7535
     /tmp/ccghGiGC.s:104363  .debug_str:000000000003cfe7 .LASF7536
     /tmp/ccghGiGC.s:101673  .debug_str:000000000003219e .LASF7537
     /tmp/ccghGiGC.s:102793  .debug_str:0000000000036e11 .LASF7538
     /tmp/ccghGiGC.s:100757  .debug_str:000000000002e639 .LASF7539
     /tmp/ccghGiGC.s:106577  .debug_str:0000000000046689 .LASF7540
     /tmp/ccghGiGC.s:101267  .debug_str:000000000003079b .LASF7541
     /tmp/ccghGiGC.s:90271  .debug_str:0000000000003aa6 .LASF7542
     /tmp/ccghGiGC.s:106579  .debug_str:0000000000046697 .LASF7543
     /tmp/ccghGiGC.s:95001  .debug_str:0000000000016adb .LASF7544
     /tmp/ccghGiGC.s:99037  .debug_str:0000000000027751 .LASF7545
     /tmp/ccghGiGC.s:106581  .debug_str:00000000000466a5 .LASF7546
     /tmp/ccghGiGC.s:108327  .debug_str:000000000004db3e .LASF7547
     /tmp/ccghGiGC.s:98069  .debug_str:0000000000023cf9 .LASF7548
     /tmp/ccghGiGC.s:104141  .debug_str:000000000003c054 .LASF7549
     /tmp/ccghGiGC.s:102251  .debug_str:0000000000034802 .LASF7550
     /tmp/ccghGiGC.s:91715  .debug_str:0000000000009ce3 .LASF7551
     /tmp/ccghGiGC.s:106585  .debug_str:00000000000466f5 .LASF7552
     /tmp/ccghGiGC.s:95999  .debug_str:000000000001ae06 .LASF7553
     /tmp/ccghGiGC.s:103105  .debug_str:0000000000038254 .LASF7554
     /tmp/ccghGiGC.s:106587  .debug_str:0000000000046703 .LASF7555
     /tmp/ccghGiGC.s:103867  .debug_str:000000000003ad9c .LASF7556
     /tmp/ccghGiGC.s:105729  .debug_str:0000000000042ec2 .LASF7557
     /tmp/ccghGiGC.s:100941  .debug_str:000000000002f221 .LASF7558
     /tmp/ccghGiGC.s:100943  .debug_str:000000000002f233 .LASF7559
     /tmp/ccghGiGC.s:100947  .debug_str:000000000002f271 .LASF7560
     /tmp/ccghGiGC.s:104075  .debug_str:000000000003bb9a .LASF7561
     /tmp/ccghGiGC.s:106853  .debug_str:0000000000047857 .LASF7562
     /tmp/ccghGiGC.s:100949  .debug_str:000000000002f283 .LASF7563
     /tmp/ccghGiGC.s:105739  .debug_str:0000000000042f52 .LASF7564
     /tmp/ccghGiGC.s:105741  .debug_str:0000000000042f64 .LASF7565
     /tmp/ccghGiGC.s:105743  .debug_str:0000000000042f76 .LASF7566
     /tmp/ccghGiGC.s:104077  .debug_str:000000000003bba9 .LASF7567
     /tmp/ccghGiGC.s:100791  .debug_str:000000000002e87b .LASF7568
     /tmp/ccghGiGC.s:103045  .debug_str:0000000000037d85 .LASF7569
     /tmp/ccghGiGC.s:107001  .debug_str:0000000000048277 .LASF7570
     /tmp/ccghGiGC.s:98837  .debug_str:0000000000026ae7 .LASF7571
     /tmp/ccghGiGC.s:102783  .debug_str:0000000000036d68 .LASF7572
     /tmp/ccghGiGC.s:104115  .debug_str:000000000003be6b .LASF7573
     /tmp/ccghGiGC.s:106539  .debug_str:000000000004640a .LASF7574
     /tmp/ccghGiGC.s:105039  .debug_str:000000000003fc82 .LASF7575
     /tmp/ccghGiGC.s:108717  .debug_str:000000000004f626 .LASF7576
     /tmp/ccghGiGC.s:94919  .debug_str:0000000000016573 .LASF7577
     /tmp/ccghGiGC.s:106547  .debug_str:0000000000046499 .LASF7578
     /tmp/ccghGiGC.s:89749  .debug_str:000000000000162f .LASF7579
     /tmp/ccghGiGC.s:107603  .debug_str:000000000004a8b6 .LASF7580
     /tmp/ccghGiGC.s:104611  .debug_str:000000000003e10b .LASF7581
     /tmp/ccghGiGC.s:89483  .debug_str:0000000000000496 .LASF7582
     /tmp/ccghGiGC.s:94355  .debug_str:0000000000014250 .LASF7583
     /tmp/ccghGiGC.s:91119  .debug_str:00000000000074a1 .LASF7584
     /tmp/ccghGiGC.s:90955  .debug_str:0000000000006868 .LASF7585
     /tmp/ccghGiGC.s:100415  .debug_str:000000000002d0ed .LASF7586
     /tmp/ccghGiGC.s:100417  .debug_str:000000000002d105 .LASF7587
     /tmp/ccghGiGC.s:100419  .debug_str:000000000002d11d .LASF7588
     /tmp/ccghGiGC.s:100421  .debug_str:000000000002d135 .LASF7589
     /tmp/ccghGiGC.s:106093  .debug_str:00000000000446cf .LASF7590
     /tmp/ccghGiGC.s:91669  .debug_str:0000000000009915 .LASF7591
     /tmp/ccghGiGC.s:100423  .debug_str:000000000002d14d .LASF7592
     /tmp/ccghGiGC.s:93257  .debug_str:000000000000fe87 .LASF7593
     /tmp/ccghGiGC.s:93259  .debug_str:000000000000fea5 .LASF7594
     /tmp/ccghGiGC.s:93261  .debug_str:000000000000fec3 .LASF7595
     /tmp/ccghGiGC.s:93263  .debug_str:000000000000fee1 .LASF7596
     /tmp/ccghGiGC.s:93265  .debug_str:000000000000feff .LASF7597
     /tmp/ccghGiGC.s:97131  .debug_str:000000000001fce5 .LASF7598
     /tmp/ccghGiGC.s:92937  .debug_str:000000000000ec1e .LASF7599
     /tmp/ccghGiGC.s:97135  .debug_str:000000000001fd12 .LASF7600
     /tmp/ccghGiGC.s:97137  .debug_str:000000000001fd2f .LASF7601
     /tmp/ccghGiGC.s:97139  .debug_str:000000000001fd4c .LASF7602
     /tmp/ccghGiGC.s:108783  .debug_str:000000000004fb21 .LASF7603
     /tmp/ccghGiGC.s:108785  .debug_str:000000000004fb3b .LASF7604
     /tmp/ccghGiGC.s:108787  .debug_str:000000000004fb55 .LASF7605
     /tmp/ccghGiGC.s:108789  .debug_str:000000000004fb6f .LASF7606
     /tmp/ccghGiGC.s:108791  .debug_str:000000000004fb89 .LASF7607
     /tmp/ccghGiGC.s:103215  .debug_str:00000000000387d2 .LASF7608
     /tmp/ccghGiGC.s:105451  .debug_str:0000000000041988 .LASF7609
     /tmp/ccghGiGC.s:106095  .debug_str:00000000000446e7 .LASF7610
     /tmp/ccghGiGC.s:105077  .debug_str:000000000003feb4 .LASF7611
     /tmp/ccghGiGC.s:102575  .debug_str:0000000000035f7c .LASF7612
     /tmp/ccghGiGC.s:91193  .debug_str:000000000000795a .LASF7613
     /tmp/ccghGiGC.s:91195  .debug_str:0000000000007977 .LASF7614
     /tmp/ccghGiGC.s:102585  .debug_str:000000000003606f .LASF7615
     /tmp/ccghGiGC.s:90053  .debug_str:0000000000002c7a .LASF7616
     /tmp/ccghGiGC.s:100283  .debug_str:000000000002c860 .LASF7617
     /tmp/ccghGiGC.s:91199  .debug_str:00000000000079d4 .LASF7618
     /tmp/ccghGiGC.s:100637  .debug_str:000000000002de85 .LASF7619
     /tmp/ccghGiGC.s:100639  .debug_str:000000000002dea8 .LASF7620
     /tmp/ccghGiGC.s:100641  .debug_str:000000000002decb .LASF7621
     /tmp/ccghGiGC.s:100643  .debug_str:000000000002deee .LASF7622
     /tmp/ccghGiGC.s:100645  .debug_str:000000000002df11 .LASF7623
     /tmp/ccghGiGC.s:97409  .debug_str:0000000000021048 .LASF7624
     /tmp/ccghGiGC.s:97411  .debug_str:000000000002106a .LASF7625
     /tmp/ccghGiGC.s:98527  .debug_str:0000000000025932 .LASF7626
     /tmp/ccghGiGC.s:97415  .debug_str:000000000002109d .LASF7627
     /tmp/ccghGiGC.s:97417  .debug_str:00000000000210bf .LASF7628
     /tmp/ccghGiGC.s:100205  .debug_str:000000000002c42c .LASF7629
     /tmp/ccghGiGC.s:100207  .debug_str:000000000002c44b .LASF7630
     /tmp/ccghGiGC.s:100209  .debug_str:000000000002c46a .LASF7631
     /tmp/ccghGiGC.s:103443  .debug_str:00000000000394c4 .LASF7632
     /tmp/ccghGiGC.s:100213  .debug_str:000000000002c497 .LASF7633
     /tmp/ccghGiGC.s:100333  .debug_str:000000000002cb5b .LASF7634
     /tmp/ccghGiGC.s:105623  .debug_str:0000000000042801 .LASF7635
     /tmp/ccghGiGC.s:90055  .debug_str:0000000000002c97 .LASF7636
     /tmp/ccghGiGC.s:97391  .debug_str:0000000000020f59 .LASF7637
     /tmp/ccghGiGC.s:102159  .debug_str:000000000003428d .LASF7638
     /tmp/ccghGiGC.s:102161  .debug_str:00000000000342a5 .LASF7639
     /tmp/ccghGiGC.s:102163  .debug_str:00000000000342bd .LASF7640
     /tmp/ccghGiGC.s:102165  .debug_str:00000000000342d5 .LASF7641
     /tmp/ccghGiGC.s:96595  .debug_str:000000000001d6f5 .LASF7642
     /tmp/ccghGiGC.s:96111  .debug_str:000000000001b502 .LASF7643
     /tmp/ccghGiGC.s:102167  .debug_str:00000000000342ed .LASF7644
     /tmp/ccghGiGC.s:95031  .debug_str:0000000000016d3f .LASF7645
     /tmp/ccghGiGC.s:95033  .debug_str:0000000000016d5d .LASF7646
     /tmp/ccghGiGC.s:105709  .debug_str:0000000000042dd8 .LASF7647
     /tmp/ccghGiGC.s:95037  .debug_str:0000000000016da0 .LASF7648
     /tmp/ccghGiGC.s:95039  .debug_str:0000000000016dbe .LASF7649
     /tmp/ccghGiGC.s:98867  .debug_str:0000000000026cf8 .LASF7650
     /tmp/ccghGiGC.s:98869  .debug_str:0000000000026d15 .LASF7651
     /tmp/ccghGiGC.s:98871  .debug_str:0000000000026d32 .LASF7652
     /tmp/ccghGiGC.s:98873  .debug_str:0000000000026d4f .LASF7653
     /tmp/ccghGiGC.s:98875  .debug_str:0000000000026d6c .LASF7654
     /tmp/ccghGiGC.s:91009  .debug_str:0000000000006c41 .LASF7655
     /tmp/ccghGiGC.s:91011  .debug_str:0000000000006c5b .LASF7656
     /tmp/ccghGiGC.s:91013  .debug_str:0000000000006c75 .LASF7657
     /tmp/ccghGiGC.s:91015  .debug_str:0000000000006c8f .LASF7658
     /tmp/ccghGiGC.s:108315  .debug_str:000000000004da63 .LASF7659
     /tmp/ccghGiGC.s:94431  .debug_str:000000000001473a .LASF7660
     /tmp/ccghGiGC.s:102389  .debug_str:00000000000351bc .LASF7661
     /tmp/ccghGiGC.s:96599  .debug_str:000000000001d729 .LASF7662
     /tmp/ccghGiGC.s:89885  .debug_str:0000000000002120 .LASF7663
     /tmp/ccghGiGC.s:93711  .debug_str:00000000000117a6 .LASF7664
     /tmp/ccghGiGC.s:93713  .debug_str:00000000000117bd .LASF7665
     /tmp/ccghGiGC.s:93715  .debug_str:00000000000117d4 .LASF7666
     /tmp/ccghGiGC.s:108379  .debug_str:000000000004dfd3 .LASF7667
     /tmp/ccghGiGC.s:94515  .debug_str:0000000000014c50 .LASF7668
     /tmp/ccghGiGC.s:90457  .debug_str:000000000000478c .LASF7669
     /tmp/ccghGiGC.s:93719  .debug_str:00000000000117fc .LASF7670
     /tmp/ccghGiGC.s:105025  .debug_str:000000000003fbb2 .LASF7671
     /tmp/ccghGiGC.s:105027  .debug_str:000000000003fbcf .LASF7672
     /tmp/ccghGiGC.s:105029  .debug_str:000000000003fbec .LASF7673
     /tmp/ccghGiGC.s:105031  .debug_str:000000000003fc09 .LASF7674
     /tmp/ccghGiGC.s:105033  .debug_str:000000000003fc26 .LASF7675
     /tmp/ccghGiGC.s:94555  .debug_str:0000000000014e6a .LASF7676
     /tmp/ccghGiGC.s:94557  .debug_str:0000000000014e86 .LASF7677
     /tmp/ccghGiGC.s:89987  .debug_str:00000000000027e3 .LASF7678
     /tmp/ccghGiGC.s:94561  .debug_str:0000000000014ed2 .LASF7679
     /tmp/ccghGiGC.s:94563  .debug_str:0000000000014eee .LASF7680
     /tmp/ccghGiGC.s:100625  .debug_str:000000000002ddce .LASF7681
     /tmp/ccghGiGC.s:100627  .debug_str:000000000002dde7 .LASF7682
     /tmp/ccghGiGC.s:100629  .debug_str:000000000002de00 .LASF7683
     /tmp/ccghGiGC.s:100631  .debug_str:000000000002de19 .LASF7684
     /tmp/ccghGiGC.s:100633  .debug_str:000000000002de32 .LASF7685
     /tmp/ccghGiGC.s:101949  .debug_str:000000000003345b .LASF7686
     /tmp/ccghGiGC.s:103917  .debug_str:000000000003b102 .LASF7687
     /tmp/ccghGiGC.s:94517  .debug_str:0000000000014c67 .LASF7688
     /tmp/ccghGiGC.s:95647  .debug_str:0000000000019547 .LASF7689
     /tmp/ccghGiGC.s:94591  .debug_str:000000000001508c .LASF7690
     /tmp/ccghGiGC.s:94593  .debug_str:00000000000150af .LASF7691
     /tmp/ccghGiGC.s:94595  .debug_str:00000000000150d2 .LASF7692
     /tmp/ccghGiGC.s:94597  .debug_str:00000000000150f5 .LASF7693
     /tmp/ccghGiGC.s:94599  .debug_str:0000000000015118 .LASF7694
     /tmp/ccghGiGC.s:108645  .debug_str:000000000004f1d5 .LASF7695
     /tmp/ccghGiGC.s:105767  .debug_str:0000000000043126 .LASF7696
     /tmp/ccghGiGC.s:107291  .debug_str:00000000000494e7 .LASF7697
     /tmp/ccghGiGC.s:105753  .debug_str:000000000004304c .LASF7698
     /tmp/ccghGiGC.s:105755  .debug_str:0000000000043070 .LASF7699
     /tmp/ccghGiGC.s:106447  .debug_str:0000000000045dfb .LASF7700
     /tmp/ccghGiGC.s:105759  .debug_str:00000000000430a0 .LASF7701
     /tmp/ccghGiGC.s:105761  .debug_str:00000000000430c4 .LASF7702
     /tmp/ccghGiGC.s:101109  .debug_str:000000000002fdd7 .LASF7703
     /tmp/ccghGiGC.s:108555  .debug_str:000000000004ebbf .LASF7704
     /tmp/ccghGiGC.s:97295  .debug_str:0000000000020936 .LASF7705
     /tmp/ccghGiGC.s:92577  .debug_str:000000000000d780 .LASF7706
     /tmp/ccghGiGC.s:100519  .debug_str:000000000002d6f2 .LASF7707
     /tmp/ccghGiGC.s:107987  .debug_str:000000000004c3d2 .LASF7708
     /tmp/ccghGiGC.s:100917  .debug_str:000000000002f106 .LASF7709
     /tmp/ccghGiGC.s:97305  .debug_str:0000000000020a45 .LASF7710
     /tmp/ccghGiGC.s:91165  .debug_str:00000000000076fe .LASF7711
     /tmp/ccghGiGC.s:103321  .debug_str:0000000000038e52 .LASF7712
     /tmp/ccghGiGC.s:93173  .debug_str:000000000000f8dc .LASF7713
     /tmp/ccghGiGC.s:91957  .debug_str:000000000000acd3 .LASF7714
     /tmp/ccghGiGC.s:96563  .debug_str:000000000001d499 .LASF7715
     /tmp/ccghGiGC.s:91791  .debug_str:000000000000a1de .LASF7716
     /tmp/ccghGiGC.s:91259  .debug_str:0000000000007d88 .LASF7717
     /tmp/ccghGiGC.s:99671  .debug_str:000000000002a21e .LASF7718
     /tmp/ccghGiGC.s:92495  .debug_str:000000000000d1f1 .LASF7719
     /tmp/ccghGiGC.s:99325  .debug_str:0000000000028b25 .LASF7720
     /tmp/ccghGiGC.s:97303  .debug_str:0000000000020a2f .LASF7721
     /tmp/ccghGiGC.s:95023  .debug_str:0000000000016cb0 .LASF7722
     /tmp/ccghGiGC.s:108859  .debug_str:0000000000050032 .LASF7723
     /tmp/ccghGiGC.s:92795  .debug_str:000000000000e3f4 .LASF7724
     /tmp/ccghGiGC.s:108203  .debug_str:000000000004d2f7 .LASF7725
     /tmp/ccghGiGC.s:108205  .debug_str:000000000004d316 .LASF7726
     /tmp/ccghGiGC.s:108207  .debug_str:000000000004d335 .LASF7727
     /tmp/ccghGiGC.s:102255  .debug_str:0000000000034841 .LASF7728
     /tmp/ccghGiGC.s:96487  .debug_str:000000000001cffc .LASF7729
     /tmp/ccghGiGC.s:95359  .debug_str:0000000000018287 .LASF7730
     /tmp/ccghGiGC.s:108211  .debug_str:000000000004d362 .LASF7731
     /tmp/ccghGiGC.s:103413  .debug_str:00000000000392ef .LASF7732
     /tmp/ccghGiGC.s:103059  .debug_str:0000000000037e92 .LASF7733
     /tmp/ccghGiGC.s:98997  .debug_str:00000000000274c9 .LASF7734
     /tmp/ccghGiGC.s:98999  .debug_str:00000000000274e6 .LASF7735
     /tmp/ccghGiGC.s:99001  .debug_str:0000000000027503 .LASF7736
     /tmp/ccghGiGC.s:101681  .debug_str:0000000000032220 .LASF7737
     /tmp/ccghGiGC.s:99005  .debug_str:000000000002752f .LASF7738
     /tmp/ccghGiGC.s:90265  .debug_str:0000000000003a33 .LASF7739
     /tmp/ccghGiGC.s:108111  .debug_str:000000000004cc1c .LASF7740
     /tmp/ccghGiGC.s:102635  .debug_str:000000000003637b .LASF7741
     /tmp/ccghGiGC.s:100543  .debug_str:000000000002d869 .LASF7742
     /tmp/ccghGiGC.s:102363  .debug_str:0000000000035037 .LASF7743
     /tmp/ccghGiGC.s:89499  .debug_str:00000000000005f6 .LASF7744
     /tmp/ccghGiGC.s:103975  .debug_str:000000000003b4e7 .LASF7745
     /tmp/ccghGiGC.s:102473  .debug_str:00000000000357de .LASF7746
     /tmp/ccghGiGC.s:102475  .debug_str:00000000000357fa .LASF7747
     /tmp/ccghGiGC.s:102477  .debug_str:0000000000035816 .LASF7748
     /tmp/ccghGiGC.s:102479  .debug_str:0000000000035832 .LASF7749
     /tmp/ccghGiGC.s:108849  .debug_str:000000000004ff8e .LASF7750
     /tmp/ccghGiGC.s:99585  .debug_str:0000000000029c67 .LASF7751
     /tmp/ccghGiGC.s:102481  .debug_str:000000000003584e .LASF7752
     /tmp/ccghGiGC.s:100181  .debug_str:000000000002c277 .LASF7753
     /tmp/ccghGiGC.s:107185  .debug_str:0000000000048dd0 .LASF7754
     /tmp/ccghGiGC.s:91495  .debug_str:0000000000008d70 .LASF7755
     /tmp/ccghGiGC.s:104131  .debug_str:000000000003bfb1 .LASF7756
     /tmp/ccghGiGC.s:107955  .debug_str:000000000004c1c0 .LASF7757
     /tmp/ccghGiGC.s:99593  .debug_str:0000000000029cd9 .LASF7758
     /tmp/ccghGiGC.s:105047  .debug_str:000000000003fcfc .LASF7759
     /tmp/ccghGiGC.s:104961  .debug_str:000000000003f73f .LASF7760
     /tmp/ccghGiGC.s:97249  .debug_str:00000000000205a7 .LASF7761
     /tmp/ccghGiGC.s:99323  .debug_str:0000000000028b17 .LASF7762
     /tmp/ccghGiGC.s:94677  .debug_str:000000000001564d .LASF7763
     /tmp/ccghGiGC.s:99775  .debug_str:000000000002a911 .LASF7764
     /tmp/ccghGiGC.s:108815  .debug_str:000000000004fd41 .LASF7765
     /tmp/ccghGiGC.s:95225  .debug_str:0000000000017a65 .LASF7766
     /tmp/ccghGiGC.s:101997  .debug_str:0000000000033797 .LASF7767
     /tmp/ccghGiGC.s:106501  .debug_str:000000000004619f .LASF7768
     /tmp/ccghGiGC.s:90783  .debug_str:0000000000005d3e .LASF7769
     /tmp/ccghGiGC.s:102571  .debug_str:0000000000035f3c .LASF7770
     /tmp/ccghGiGC.s:92183  .debug_str:000000000000bcd0 .LASF7771
     /tmp/ccghGiGC.s:103237  .debug_str:0000000000038983 .LASF7772
     /tmp/ccghGiGC.s:101823  .debug_str:0000000000032c5e .LASF7773
     /tmp/ccghGiGC.s:98855  .debug_str:0000000000026c5f .LASF7774
     /tmp/ccghGiGC.s:91159  .debug_str:00000000000076a5 .LASF7775
     /tmp/ccghGiGC.s:94271  .debug_str:0000000000013d38 .LASF7776
     /tmp/ccghGiGC.s:91231  .debug_str:0000000000007b87 .LASF7777
     /tmp/ccghGiGC.s:95623  .debug_str:000000000001933d .LASF7778
     /tmp/ccghGiGC.s:108091  .debug_str:000000000004cadf .LASF7779
     /tmp/ccghGiGC.s:104059  .debug_str:000000000003babd .LASF7780
     /tmp/ccghGiGC.s:98749  .debug_str:000000000002655f .LASF7781
     /tmp/ccghGiGC.s:94087  .debug_str:00000000000130c7 .LASF7782
     /tmp/ccghGiGC.s:95159  .debug_str:000000000001757b .LASF7783
     /tmp/ccghGiGC.s:98097  .debug_str:0000000000023eae .LASF7784
     /tmp/ccghGiGC.s:93663  .debug_str:0000000000011565 .LASF7785
     /tmp/ccghGiGC.s:106007  .debug_str:00000000000441a8 .LASF7786
     /tmp/ccghGiGC.s:101393  .debug_str:000000000003103a .LASF7787
     /tmp/ccghGiGC.s:96965  .debug_str:000000000001f0a0 .LASF7788
     /tmp/ccghGiGC.s:89759  .debug_str:00000000000016fa .LASF7789
     /tmp/ccghGiGC.s:104065  .debug_str:000000000003bb12 .LASF7790
     /tmp/ccghGiGC.s:96799  .debug_str:000000000001e5b2 .LASF7791
     /tmp/ccghGiGC.s:92339  .debug_str:000000000000c75c .LASF7792
     /tmp/ccghGiGC.s:101827  .debug_str:0000000000032cc3 .LASF7793
     /tmp/ccghGiGC.s:102827  .debug_str:0000000000037066 .LASF7794
     /tmp/ccghGiGC.s:97833  .debug_str:0000000000022c95 .LASF7795
     /tmp/ccghGiGC.s:100463  .debug_str:000000000002d3a6 .LASF7796
     /tmp/ccghGiGC.s:94793  .debug_str:0000000000015e13 .LASF7797
     /tmp/ccghGiGC.s:99379  .debug_str:0000000000028ee5 .LASF7798
     /tmp/ccghGiGC.s:91755  .debug_str:0000000000009fb0 .LASF7799
     /tmp/ccghGiGC.s:93241  .debug_str:000000000000fdfa .LASF7800
     /tmp/ccghGiGC.s:97503  .debug_str:0000000000021655 .LASF7801
     /tmp/ccghGiGC.s:93237  .debug_str:000000000000fdd0 .LASF7802
     /tmp/ccghGiGC.s:97501  .debug_str:000000000002163c .LASF7803
     /tmp/ccghGiGC.s:95953  .debug_str:000000000001aaae .LASF7804
     /tmp/ccghGiGC.s:97079  .debug_str:000000000001f989 .LASF7805
     /tmp/ccghGiGC.s:107485  .debug_str:000000000004a17d .LASF7806
     /tmp/ccghGiGC.s:95721  .debug_str:0000000000019a65 .LASF7807
     /tmp/ccghGiGC.s:94277  .debug_str:0000000000013d86 .LASF7808
     /tmp/ccghGiGC.s:92653  .debug_str:000000000000dc69 .LASF7809
     /tmp/ccghGiGC.s:94061  .debug_str:0000000000012edf .LASF7810
     /tmp/ccghGiGC.s:96481  .debug_str:000000000001cfaf .LASF7811
     /tmp/ccghGiGC.s:105155  .debug_str:0000000000040362 .LASF7812
     /tmp/ccghGiGC.s:105161  .debug_str:00000000000403d4 .LASF7813
     /tmp/ccghGiGC.s:100581  .debug_str:000000000002daad .LASF7814
     /tmp/ccghGiGC.s:92771  .debug_str:000000000000e2a3 .LASF7815
     /tmp/ccghGiGC.s:94965  .debug_str:0000000000016850 .LASF7816
     /tmp/ccghGiGC.s:96003  .debug_str:000000000001ae56 .LASF7817
     /tmp/ccghGiGC.s:107623  .debug_str:000000000004aa49 .LASF7818
     /tmp/ccghGiGC.s:97041  .debug_str:000000000001f6ab .LASF7819
     /tmp/ccghGiGC.s:98543  .debug_str:0000000000025a86 .LASF7820
     /tmp/ccghGiGC.s:106631  .debug_str:0000000000046974 .LASF7821
     /tmp/ccghGiGC.s:90867  .debug_str:0000000000006297 .LASF7822
     /tmp/ccghGiGC.s:107301  .debug_str:00000000000495ae .LASF7823
     /tmp/ccghGiGC.s:94477  .debug_str:0000000000014a5b .LASF7824
     /tmp/ccghGiGC.s:90467  .debug_str:0000000000004829 .LASF7825
     /tmp/ccghGiGC.s:92633  .debug_str:000000000000db2e .LASF7826
     /tmp/ccghGiGC.s:104727  .debug_str:000000000003e8ab .LASF7827
     /tmp/ccghGiGC.s:104195  .debug_str:000000000003c489 .LASF7828
     /tmp/ccghGiGC.s:101955  .debug_str:00000000000334d0 .LASF7829
     /tmp/ccghGiGC.s:100385  .debug_str:000000000002cf10 .LASF7830
     /tmp/ccghGiGC.s:103679  .debug_str:000000000003a0cd .LASF7831
     /tmp/ccghGiGC.s:90693  .debug_str:0000000000005748 .LASF7832
     /tmp/ccghGiGC.s:102665  .debug_str:00000000000365a2 .LASF7833
     /tmp/ccghGiGC.s:99459  .debug_str:00000000000294f5 .LASF7834
     /tmp/ccghGiGC.s:95061  .debug_str:0000000000016f4c .LASF7835
     /tmp/ccghGiGC.s:93295  .debug_str:00000000000100fa .LASF7836
     /tmp/ccghGiGC.s:106203  .debug_str:0000000000044e5b .LASF7837
     /tmp/ccghGiGC.s:99177  .debug_str:00000000000280f7 .LASF7838
     /tmp/ccghGiGC.s:103161  .debug_str:0000000000038532 .LASF7839
     /tmp/ccghGiGC.s:107713  .debug_str:000000000004b0a3 .LASF7840
     /tmp/ccghGiGC.s:103487  .debug_str:00000000000396a9 .LASF7841
     /tmp/ccghGiGC.s:100103  .debug_str:000000000002bd62 .LASF7842
     /tmp/ccghGiGC.s:90651  .debug_str:0000000000005426 .LASF7843
     /tmp/ccghGiGC.s:105533  .debug_str:0000000000042139 .LASF7844
     /tmp/ccghGiGC.s:106359  .debug_str:00000000000457e5 .LASF7845
     /tmp/ccghGiGC.s:108577  .debug_str:000000000004ed14 .LASF7846
     /tmp/ccghGiGC.s:97043  .debug_str:000000000001f6b9 .LASF7847
     /tmp/ccghGiGC.s:98625  .debug_str:0000000000025eac .LASF7848
     /tmp/ccghGiGC.s:89785  .debug_str:00000000000019c9 .LASF7849
     /tmp/ccghGiGC.s:102195  .debug_str:00000000000344be .LASF7850
     /tmp/ccghGiGC.s:90699  .debug_str:0000000000005776 .LASF7851
     /tmp/ccghGiGC.s:90045  .debug_str:0000000000002c1f .LASF7852
     /tmp/ccghGiGC.s:98789  .debug_str:00000000000267aa .LASF7853
     /tmp/ccghGiGC.s:91467  .debug_str:0000000000008bae .LASF7854
     /tmp/ccghGiGC.s:95427  .debug_str:0000000000018753 .LASF7855
     /tmp/ccghGiGC.s:95495  .debug_str:0000000000018adf .LASF7856
     /tmp/ccghGiGC.s:98291  .debug_str:0000000000024be5 .LASF7857
     /tmp/ccghGiGC.s:99531  .debug_str:000000000002989a .LASF7858
     /tmp/ccghGiGC.s:90215  .debug_str:00000000000036b4 .LASF7859
     /tmp/ccghGiGC.s:95991  .debug_str:000000000001ada8 .LASF7860
     /tmp/ccghGiGC.s:104931  .debug_str:000000000003f572 .LASF7861
     /tmp/ccghGiGC.s:94137  .debug_str:00000000000134c7 .LASF7862
     /tmp/ccghGiGC.s:106307  .debug_str:000000000004548f .LASF7863
     /tmp/ccghGiGC.s:94133  .debug_str:000000000001349d .LASF7864
     /tmp/ccghGiGC.s:106303  .debug_str:0000000000045459 .LASF7865
     /tmp/ccghGiGC.s:101447  .debug_str:0000000000031362 .LASF7866
     /tmp/ccghGiGC.s:96507  .debug_str:000000000001d183 .LASF7867
     /tmp/ccghGiGC.s:101989  .debug_str:000000000003370a .LASF7868
     /tmp/ccghGiGC.s:104851  .debug_str:000000000003f054 .LASF7869
     /tmp/ccghGiGC.s:103433  .debug_str:000000000003942a .LASF7870
     /tmp/ccghGiGC.s:97521  .debug_str:00000000000217dc .LASF7871
     /tmp/ccghGiGC.s:99701  .debug_str:000000000002a427 .LASF7872
     /tmp/ccghGiGC.s:107059  .debug_str:00000000000485e2 .LASF7873
     /tmp/ccghGiGC.s:103239  .debug_str:0000000000038992 .LASF7874
     /tmp/ccghGiGC.s:107069  .debug_str:0000000000048683 .LASF7875
     /tmp/ccghGiGC.s:94601  .debug_str:000000000001513b .LASF7876
     /tmp/ccghGiGC.s:89581  .debug_str:0000000000000b42 .LASF7877
     /tmp/ccghGiGC.s:106845  .debug_str:00000000000477e3 .LASF7878
     /tmp/ccghGiGC.s:108005  .debug_str:000000000004c4e8 .LASF7879
     /tmp/ccghGiGC.s:104771  .debug_str:000000000003ebea .LASF7880
     /tmp/ccghGiGC.s:105279  .debug_str:0000000000040b9f .LASF7881
     /tmp/ccghGiGC.s:108715  .debug_str:000000000004f60c .LASF7882
     /tmp/ccghGiGC.s:100153  .debug_str:000000000002c077 .LASF7883
     /tmp/ccghGiGC.s:107535  .debug_str:000000000004a484 .LASF7884
     /tmp/ccghGiGC.s:94233  .debug_str:0000000000013ab8 .LASF7885
     /tmp/ccghGiGC.s:91487  .debug_str:0000000000008d12 .LASF7886
     /tmp/ccghGiGC.s:108853  .debug_str:000000000004ffac .LASF7887
     /tmp/ccghGiGC.s:90519  .debug_str:0000000000004c07 .LASF7888
     /tmp/ccghGiGC.s:106013  .debug_str:00000000000441fc .LASF7889
     /tmp/ccghGiGC.s:95107  .debug_str:00000000000171ee .LASF7890
     /tmp/ccghGiGC.s:97359  .debug_str:0000000000020d85 .LASF7891
     /tmp/ccghGiGC.s:92727  .debug_str:000000000000dfc4 .LASF7892
     /tmp/ccghGiGC.s:92453  .debug_str:000000000000cf99 .LASF7893
     /tmp/ccghGiGC.s:98947  .debug_str:000000000002723d .LASF7894
     /tmp/ccghGiGC.s:100889  .debug_str:000000000002ef1b .LASF7895
     /tmp/ccghGiGC.s:94859  .debug_str:00000000000161b3 .LASF7896
     /tmp/ccghGiGC.s:97697  .debug_str:000000000002236d .LASF7897
     /tmp/ccghGiGC.s:100141  .debug_str:000000000002bf49 .LASF7898
     /tmp/ccghGiGC.s:92061  .debug_str:000000000000b428 .LASF7899
     /tmp/ccghGiGC.s:99617  .debug_str:0000000000029e74 .LASF7900
     /tmp/ccghGiGC.s:98727  .debug_str:000000000002644d .LASF7901
     /tmp/ccghGiGC.s:98733  .debug_str:000000000002648d .LASF7902
     /tmp/ccghGiGC.s:91089  .debug_str:000000000000724d .LASF7903
     /tmp/ccghGiGC.s:100621  .debug_str:000000000002dda4 .LASF7904
     /tmp/ccghGiGC.s:100605  .debug_str:000000000002dc55 .LASF7905
     /tmp/ccghGiGC.s:105065  .debug_str:000000000003fe38 .LASF7906
     /tmp/ccghGiGC.s:90553  .debug_str:0000000000004e74 .LASF7907
     /tmp/ccghGiGC.s:107855  .debug_str:000000000004baf8 .LASF7908
     /tmp/ccghGiGC.s:107113  .debug_str:0000000000048972 .LASF7909
     /tmp/ccghGiGC.s:107473  .debug_str:000000000004a0a3 .LASF7910
     /tmp/ccghGiGC.s:103899  .debug_str:000000000003afe4 .LASF7911
     /tmp/ccghGiGC.s:92793  .debug_str:000000000000e3cf .LASF7912
     /tmp/ccghGiGC.s:94421  .debug_str:0000000000014644 .LASF7913
     /tmp/ccghGiGC.s:90767  .debug_str:0000000000005c46 .LASF7914
     /tmp/ccghGiGC.s:105819  .debug_str:00000000000434ce .LASF7915
     /tmp/ccghGiGC.s:99785  .debug_str:000000000002a9e6 .LASF7916
     /tmp/ccghGiGC.s:99787  .debug_str:000000000002a9f4 .LASF7917
     /tmp/ccghGiGC.s:99789  .debug_str:000000000002aa02 .LASF7918
     /tmp/ccghGiGC.s:99791  .debug_str:000000000002aa10 .LASF7919
     /tmp/ccghGiGC.s:99793  .debug_str:000000000002aa1e .LASF7920
     /tmp/ccghGiGC.s:99795  .debug_str:000000000002aa2c .LASF7921
     /tmp/ccghGiGC.s:99797  .debug_str:000000000002aa3a .LASF7922
     /tmp/ccghGiGC.s:99799  .debug_str:000000000002aa48 .LASF7923
     /tmp/ccghGiGC.s:99801  .debug_str:000000000002aa56 .LASF7924
     /tmp/ccghGiGC.s:99803  .debug_str:000000000002aa64 .LASF7925
     /tmp/ccghGiGC.s:107765  .debug_str:000000000004b4d4 .LASF7926
     /tmp/ccghGiGC.s:92079  .debug_str:000000000000b5cd .LASF7927
     /tmp/ccghGiGC.s:102721  .debug_str:0000000000036958 .LASF7928
     /tmp/ccghGiGC.s:98321  .debug_str:0000000000024cc2 .LASF7929
     /tmp/ccghGiGC.s:90611  .debug_str:000000000000520e .LASF7930
     /tmp/ccghGiGC.s:105977  .debug_str:0000000000043f63 .LASF7931
     /tmp/ccghGiGC.s:97705  .debug_str:0000000000022402 .LASF7932
     /tmp/ccghGiGC.s:94941  .debug_str:00000000000166c2 .LASF7933
     /tmp/ccghGiGC.s:105987  .debug_str:0000000000043fd2 .LASF7934
     /tmp/ccghGiGC.s:90479  .debug_str:0000000000004906 .LASF7935
     /tmp/ccghGiGC.s:89511  .debug_str:00000000000006bb .LASF7936
     /tmp/ccghGiGC.s:96911  .debug_str:000000000001ed37 .LASF7937
     /tmp/ccghGiGC.s:93457  .debug_str:000000000001095e .LASF7938
     /tmp/ccghGiGC.s:108531  .debug_str:000000000004ea51 .LASF7939
     /tmp/ccghGiGC.s:92215  .debug_str:000000000000bf91 .LASF7940
     /tmp/ccghGiGC.s:99839  .debug_str:000000000002ac95 .LASF7941
     /tmp/ccghGiGC.s:102831  .debug_str:0000000000037092 .LASF7942
     /tmp/ccghGiGC.s:106441  .debug_str:0000000000045dc8 .LASF7943
     /tmp/ccghGiGC.s:106915  .debug_str:0000000000047c5a .LASF7944
     /tmp/ccghGiGC.s:96099  .debug_str:000000000001b463 .LASF7945
     /tmp/ccghGiGC.s:106443  .debug_str:0000000000045ddb .LASF7946
     /tmp/ccghGiGC.s:100871  .debug_str:000000000002edfc .LASF7947
     /tmp/ccghGiGC.s:95529  .debug_str:0000000000018ce9 .LASF7948
     /tmp/ccghGiGC.s:90589  .debug_str:000000000000505a .LASF7949
     /tmp/ccghGiGC.s:106655  .debug_str:0000000000046b39 .LASF7950
     /tmp/ccghGiGC.s:95531  .debug_str:0000000000018cfb .LASF7951
     /tmp/ccghGiGC.s:102761  .debug_str:0000000000036c01 .LASF7952
     /tmp/ccghGiGC.s:100583  .debug_str:000000000002dab6 .LASF7953
     /tmp/ccghGiGC.s:95533  .debug_str:0000000000018d0d .LASF7954
     /tmp/ccghGiGC.s:90593  .debug_str:0000000000005098 .LASF7955
     /tmp/ccghGiGC.s:94307  .debug_str:0000000000013f70 .LASF7956
     /tmp/ccghGiGC.s:97909  .debug_str:00000000000231b7 .LASF7957
     /tmp/ccghGiGC.s:95277  .debug_str:0000000000017e1b .LASF7958
     /tmp/ccghGiGC.s:107601  .debug_str:000000000004a890 .LASF7959
     /tmp/ccghGiGC.s:93937  .debug_str:00000000000126dc .LASF7960
     /tmp/ccghGiGC.s:107905  .debug_str:000000000004be60 .LASF7961
     /tmp/ccghGiGC.s:91885  .debug_str:000000000000a817 .LASF7962
     /tmp/ccghGiGC.s:93939  .debug_str:00000000000126ee .LASF7963
     /tmp/ccghGiGC.s:108223  .debug_str:000000000004d412 .LASF7964
     /tmp/ccghGiGC.s:105275  .debug_str:0000000000040b37 .LASF7965
     /tmp/ccghGiGC.s:93941  .debug_str:0000000000012700 .LASF7966
     /tmp/ccghGiGC.s:108521  .debug_str:000000000004e9ca .LASF7967
     /tmp/ccghGiGC.s:99165  .debug_str:0000000000028023 .LASF7968
     /tmp/ccghGiGC.s:94877  .debug_str:00000000000162ad .LASF7969
     /tmp/ccghGiGC.s:89565  .debug_str:0000000000000a4c .LASF7970
     /tmp/ccghGiGC.s:100651  .debug_str:000000000002df6d .LASF7971
     /tmp/ccghGiGC.s:106157  .debug_str:0000000000044add .LASF7972
     /tmp/ccghGiGC.s:95867  .debug_str:000000000001a45e .LASF7973
     /tmp/ccghGiGC.s:101529  .debug_str:0000000000031886 .LASF7974
     /tmp/ccghGiGC.s:95091  .debug_str:0000000000017116 .LASF7975
     /tmp/ccghGiGC.s:106211  .debug_str:0000000000044f01 .LASF7976
     /tmp/ccghGiGC.s:90071  .debug_str:0000000000002dac .LASF7977
     /tmp/ccghGiGC.s:100321  .debug_str:000000000002cabf .LASF7978
     /tmp/ccghGiGC.s:91543  .debug_str:00000000000090c7 .LASF7979
     /tmp/ccghGiGC.s:102805  .debug_str:0000000000036eff .LASF7980
     /tmp/ccghGiGC.s:95109  .debug_str:0000000000017202 .LASF7981
     /tmp/ccghGiGC.s:101661  .debug_str:00000000000320ce .LASF7982
     /tmp/ccghGiGC.s:98721  .debug_str:00000000000263e6 .LASF7983
     /tmp/ccghGiGC.s:105745  .debug_str:0000000000042f88 .LASF7984
     /tmp/ccghGiGC.s:89737  .debug_str:000000000000157e .LASF7985
     /tmp/ccghGiGC.s:108553  .debug_str:000000000004eb9f .LASF7986
     /tmp/ccghGiGC.s:105757  .debug_str:0000000000043094 .LASF7987
     /tmp/ccghGiGC.s:97513  .debug_str:000000000002172f .LASF7988
     /tmp/ccghGiGC.s:98133  .debug_str:0000000000024105 .LASF7989
     /tmp/ccghGiGC.s:98725  .debug_str:0000000000026441 .LASF7990
     /tmp/ccghGiGC.s:90371  .debug_str:00000000000041cd .LASF7991
     /tmp/ccghGiGC.s:101061  .debug_str:000000000002facb .LASF7992
     /tmp/ccghGiGC.s:106321  .debug_str:00000000000455a2 .LASF7993
     /tmp/ccghGiGC.s:107879  .debug_str:000000000004bcb7 .LASF7994
     /tmp/ccghGiGC.s:91483  .debug_str:0000000000008ccc .LASF7995
     /tmp/ccghGiGC.s:92011  .debug_str:000000000000b084 .LASF7996
     /tmp/ccghGiGC.s:94813  .debug_str:0000000000015f3e .LASF7997
     /tmp/ccghGiGC.s:102993  .debug_str:0000000000037aed .LASF7998
     /tmp/ccghGiGC.s:99481  .debug_str:0000000000029653 .LASF7999
     /tmp/ccghGiGC.s:91427  .debug_str:00000000000088f3 .LASF8000
     /tmp/ccghGiGC.s:97025  .debug_str:000000000001f544 .LASF8001
     /tmp/ccghGiGC.s:94519  .debug_str:0000000000014c7e .LASF8002
     /tmp/ccghGiGC.s:95393  .debug_str:000000000001852f .LASF8003
     /tmp/ccghGiGC.s:106811  .debug_str:0000000000047503 .LASF8004
     /tmp/ccghGiGC.s:89933  .debug_str:0000000000002482 .LASF8005
     /tmp/ccghGiGC.s:101985  .debug_str:00000000000336c8 .LASF8006
     /tmp/ccghGiGC.s:103165  .debug_str:000000000003857e .LASF8007
     /tmp/ccghGiGC.s:102171  .debug_str:0000000000034326 .LASF8008
     /tmp/ccghGiGC.s:89703  .debug_str:0000000000001332 .LASF8009
     /tmp/ccghGiGC.s:97787  .debug_str:000000000002295c .LASF8010
     /tmp/ccghGiGC.s:103641  .debug_str:0000000000039eb6 .LASF8011
     /tmp/ccghGiGC.s:103085  .debug_str:0000000000038069 .LASF8012
     /tmp/ccghGiGC.s:107175  .debug_str:0000000000048d40 .LASF8013
     /tmp/ccghGiGC.s:107025  .debug_str:00000000000483e7 .LASF8014
     /tmp/ccghGiGC.s:101131  .debug_str:000000000002ff39 .LASF8015
     /tmp/ccghGiGC.s:95993  .debug_str:000000000001adb3 .LASF8016
     /tmp/ccghGiGC.s:107641  .debug_str:000000000004abca .LASF8017
     /tmp/ccghGiGC.s:97869  .debug_str:0000000000022f0e .LASF8018
     /tmp/ccghGiGC.s:107339  .debug_str:0000000000049807 .LASF8019
     /tmp/ccghGiGC.s:104013  .debug_str:000000000003b808 .LASF8020
     /tmp/ccghGiGC.s:101043  .debug_str:000000000002f9fd .LASF8021
     /tmp/ccghGiGC.s:104461  .debug_str:000000000003d597 .LASF8022
     /tmp/ccghGiGC.s:90059  .debug_str:0000000000002cdf .LASF8023
     /tmp/ccghGiGC.s:98269  .debug_str:0000000000024a89 .LASF8024
     /tmp/ccghGiGC.s:99167  .debug_str:0000000000028049 .LASF8025
     /tmp/ccghGiGC.s:94077  .debug_str:0000000000013010 .LASF8026
     /tmp/ccghGiGC.s:95685  .debug_str:00000000000197f3 .LASF8027
     /tmp/ccghGiGC.s:100285  .debug_str:000000000002c897 .LASF8028
     /tmp/ccghGiGC.s:101415  .debug_str:000000000003118e .LASF8029
     /tmp/ccghGiGC.s:95313  .debug_str:0000000000018032 .LASF8030
     /tmp/ccghGiGC.s:107307  .debug_str:00000000000495ee .LASF8031
     /tmp/ccghGiGC.s:99463  .debug_str:0000000000029526 .LASF8032
     /tmp/ccghGiGC.s:97215  .debug_str:0000000000020382 .LASF8033
     /tmp/ccghGiGC.s:95153  .debug_str:0000000000017527 .LASF8034
     /tmp/ccghGiGC.s:105607  .debug_str:0000000000042698 .LASF8035
     /tmp/ccghGiGC.s:90533  .debug_str:0000000000004cd0 .LASF8036
     /tmp/ccghGiGC.s:94855  .debug_str:0000000000016144 .LASF8037
     /tmp/ccghGiGC.s:92531  .debug_str:000000000000d4c8 .LASF8038
     /tmp/ccghGiGC.s:107971  .debug_str:000000000004c2bc .LASF8039
     /tmp/ccghGiGC.s:103825  .debug_str:000000000003aaa4 .LASF8040
     /tmp/ccghGiGC.s:97239  .debug_str:00000000000204df .LASF8041
     /tmp/ccghGiGC.s:101167  .debug_str:00000000000301b7 .LASF8042
     /tmp/ccghGiGC.s:98139  .debug_str:000000000002415d .LASF8043
     /tmp/ccghGiGC.s:94797  .debug_str:0000000000015e40 .LASF8044
     /tmp/ccghGiGC.s:97573  .debug_str:0000000000021b53 .LASF8045
     /tmp/ccghGiGC.s:100753  .debug_str:000000000002e604 .LASF8046
     /tmp/ccghGiGC.s:89685  .debug_str:0000000000001212 .LASF8047
     /tmp/ccghGiGC.s:92747  .debug_str:000000000000e134 .LASF8048
     /tmp/ccghGiGC.s:106417  .debug_str:0000000000045c75 .LASF8049
     /tmp/ccghGiGC.s:96391  .debug_str:000000000001c927 .LASF8050
     /tmp/ccghGiGC.s:104351  .debug_str:000000000003cee8 .LASF8051
     /tmp/ccghGiGC.s:94049  .debug_str:0000000000012e0a .LASF8052
     /tmp/ccghGiGC.s:101981  .debug_str:000000000003368f .LASF8053
     /tmp/ccghGiGC.s:91139  .debug_str:00000000000075cf .LASF8054
     /tmp/ccghGiGC.s:95681  .debug_str:00000000000197bd .LASF8055
     /tmp/ccghGiGC.s:100169  .debug_str:000000000002c1a9 .LASF8056
     /tmp/ccghGiGC.s:102717  .debug_str:0000000000036917 .LASF8057
     /tmp/ccghGiGC.s:99561  .debug_str:0000000000029afd .LASF8058
     /tmp/ccghGiGC.s:106151  .debug_str:0000000000044a96 .LASF8059
     /tmp/ccghGiGC.s:93793  .debug_str:0000000000011d3a .LASF8060
     /tmp/ccghGiGC.s:100973  .debug_str:000000000002f48f .LASF8061
     /tmp/ccghGiGC.s:94817  .debug_str:0000000000015f72 .LASF8062
     /tmp/ccghGiGC.s:105983  .debug_str:0000000000043fba .LASF8063
     /tmp/ccghGiGC.s:105599  .debug_str:00000000000425e1 .LASF8064
     /tmp/ccghGiGC.s:99857  .debug_str:000000000002add2 .LASF8065
     /tmp/ccghGiGC.s:107833  .debug_str:000000000004b995 .LASF8066
     /tmp/ccghGiGC.s:94543  .debug_str:0000000000014d6a .LASF8067
     /tmp/ccghGiGC.s:95263  .debug_str:0000000000017d2a .LASF8068
     /tmp/ccghGiGC.s:104369  .debug_str:000000000003d014 .LASF8069
     /tmp/ccghGiGC.s:104871  .debug_str:000000000003f180 .LASF8070
     /tmp/ccghGiGC.s:93357  .debug_str:00000000000103bc .LASF8071
     /tmp/ccghGiGC.s:102625  .debug_str:00000000000362f9 .LASF8072
     /tmp/ccghGiGC.s:96751  .debug_str:000000000001e266 .LASF8073
     /tmp/ccghGiGC.s:100799  .debug_str:000000000002e902 .LASF8074
     /tmp/ccghGiGC.s:97187  .debug_str:000000000002014b .LASF8075
     /tmp/ccghGiGC.s:106295  .debug_str:00000000000453cb .LASF8076
     /tmp/ccghGiGC.s:106649  .debug_str:0000000000046ab0 .LASF8077
     /tmp/ccghGiGC.s:89677  .debug_str:00000000000011b5 .LASF8078
     /tmp/ccghGiGC.s:107863  .debug_str:000000000004bb50 .LASF8079
     /tmp/ccghGiGC.s:108891  .debug_str:000000000005027e .LASF8080
     /tmp/ccghGiGC.s:98257  .debug_str:00000000000249d0 .LASF8081
     /tmp/ccghGiGC.s:92959  .debug_str:000000000000ed5c .LASF8082
     /tmp/ccghGiGC.s:106031  .debug_str:00000000000442dd .LASF8083
     /tmp/ccghGiGC.s:92861  .debug_str:000000000000e85d .LASF8084
     /tmp/ccghGiGC.s:89465  .debug_str:0000000000000348 .LASF8085
     /tmp/ccghGiGC.s:106021  .debug_str:0000000000044269 .LASF8086
     /tmp/ccghGiGC.s:95617  .debug_str:00000000000192c9 .LASF8087
     /tmp/ccghGiGC.s:93691  .debug_str:000000000001164b .LASF8088
     /tmp/ccghGiGC.s:95189  .debug_str:000000000001779b .LASF8089
     /tmp/ccghGiGC.s:97671  .debug_str:000000000002221e .LASF8090
     /tmp/ccghGiGC.s:95557  .debug_str:0000000000018eaf .LASF8091
     /tmp/ccghGiGC.s:96741  .debug_str:000000000001e197 .LASF8092
     /tmp/ccghGiGC.s:94895  .debug_str:00000000000163c8 .LASF8093
     /tmp/ccghGiGC.s:100409  .debug_str:000000000002d0a6 .LASF8094
     /tmp/ccghGiGC.s:99059  .debug_str:00000000000278b0 .LASF8095
     /tmp/ccghGiGC.s:101503  .debug_str:00000000000316f9 .LASF8096
     /tmp/ccghGiGC.s:105863  .debug_str:00000000000437d0 .LASF8097
     /tmp/ccghGiGC.s:100023  .debug_str:000000000002b8a9 .LASF8098
     /tmp/ccghGiGC.s:106373  .debug_str:000000000004595d .LASF8099
     /tmp/ccghGiGC.s:98965  .debug_str:0000000000027368 .LASF8100
     /tmp/ccghGiGC.s:100013  .debug_str:000000000002b821 .LASF8101
     /tmp/ccghGiGC.s:106367  .debug_str:0000000000045907 .LASF8102
     /tmp/ccghGiGC.s:103249  .debug_str:0000000000038a5c .LASF8103
     /tmp/ccghGiGC.s:106139  .debug_str:00000000000449c2 .LASF8104
     /tmp/ccghGiGC.s:95363  .debug_str:00000000000182fc .LASF8105
     /tmp/ccghGiGC.s:96651  .debug_str:000000000001dadd .LASF8106
     /tmp/ccghGiGC.s:106129  .debug_str:0000000000044963 .LASF8107
     /tmp/ccghGiGC.s:92971  .debug_str:000000000000ede0 .LASF8108
     /tmp/ccghGiGC.s:94199  .debug_str:000000000001389a .LASF8109
     /tmp/ccghGiGC.s:89463  .debug_str:0000000000000337 .LASF8110
     /tmp/ccghGiGC.s:89427  .debug_str:000000000000009c .LASF8111
     /tmp/ccghGiGC.s:107815  .debug_str:000000000004b858 .LASF8112
     /tmp/ccghGiGC.s:92677  .debug_str:000000000000dd97 .LASF8113
     /tmp/ccghGiGC.s:92641  .debug_str:000000000000db92 .LASF8114
     /tmp/ccghGiGC.s:108795  .debug_str:000000000004fbda .LASF8115
     /tmp/ccghGiGC.s:96241  .debug_str:000000000001be51 .LASF8116
     /tmp/ccghGiGC.s:90565  .debug_str:0000000000004f18 .LASF8117
     /tmp/ccghGiGC.s:95197  .debug_str:000000000001782e .LASF8118
     /tmp/ccghGiGC.s:103421  .debug_str:0000000000039366 .LASF8119
     /tmp/ccghGiGC.s:92661  .debug_str:000000000000dcf5 .LASF8120
     /tmp/ccghGiGC.s:103957  .debug_str:000000000003b3e3 .LASF8121
     /tmp/ccghGiGC.s:92853  .debug_str:000000000000e7fd .LASF8122
     /tmp/ccghGiGC.s:92663  .debug_str:000000000000dcfe .LASF8123
     /tmp/ccghGiGC.s:97701  .debug_str:00000000000223c4 .LASF8124
     /tmp/ccghGiGC.s:103429  .debug_str:00000000000393f0 .LASF8125
     /tmp/ccghGiGC.s:92667  .debug_str:000000000000dd1a .LASF8126
     /tmp/ccghGiGC.s:104803  .debug_str:000000000003ede6 .LASF8127
     /tmp/ccghGiGC.s:92733  .debug_str:000000000000e013 .LASF8128
     /tmp/ccghGiGC.s:92233  .debug_str:000000000000c0b5 .LASF8129
     /tmp/ccghGiGC.s:89743  .debug_str:00000000000015bd .LASF8130
     /tmp/ccghGiGC.s:103007  .debug_str:0000000000037c0d .LASF8131
     /tmp/ccghGiGC.s:90035  .debug_str:0000000000002b9b .LASF8132
     /tmp/ccghGiGC.s:98931  .debug_str:000000000002713e .LASF8133
     /tmp/ccghGiGC.s:103009  .debug_str:0000000000037c25 .LASF8134
     /tmp/ccghGiGC.s:97459  .debug_str:0000000000021397 .LASF8135
     /tmp/ccghGiGC.s:105251  .debug_str:000000000004095b .LASF8136
     /tmp/ccghGiGC.s:108291  .debug_str:000000000004d89e .LASF8137
     /tmp/ccghGiGC.s:95411  .debug_str:000000000001865d .LASF8138
     /tmp/ccghGiGC.s:101273  .debug_str:0000000000030804 .LASF8139
     /tmp/ccghGiGC.s:108293  .debug_str:000000000004d8b6 .LASF8140
     /tmp/ccghGiGC.s:95413  .debug_str:0000000000018675 .LASF8141
     /tmp/ccghGiGC.s:95009  .debug_str:0000000000016b6b .LASF8142
     /tmp/ccghGiGC.s:95209  .debug_str:000000000001790b .LASF8143
     /tmp/ccghGiGC.s:100859  .debug_str:000000000002ecff .LASF8144
     /tmp/ccghGiGC.s:93637  .debug_str:00000000000113b4 .LASF8145
     /tmp/ccghGiGC.s:94141  .debug_str:00000000000134f4 .LASF8146
     /tmp/ccghGiGC.s:100861  .debug_str:000000000002ed17 .LASF8147
     /tmp/ccghGiGC.s:106977  .debug_str:00000000000480c2 .LASF8148
     /tmp/ccghGiGC.s:99525  .debug_str:0000000000029842 .LASF8149
     /tmp/ccghGiGC.s:106097  .debug_str:00000000000446ff .LASF8150
     /tmp/ccghGiGC.s:105813  .debug_str:000000000004345e .LASF8151
     /tmp/ccghGiGC.s:99527  .debug_str:000000000002985a .LASF8152
     /tmp/ccghGiGC.s:106099  .debug_str:0000000000044717 .LASF8153
     /tmp/ccghGiGC.s:99689  .debug_str:000000000002a332 .LASF8154
     /tmp/ccghGiGC.s:104799  .debug_str:000000000003edb6 .LASF8155
     /tmp/ccghGiGC.s:101255  .debug_str:00000000000306c6 .LASF8156
     /tmp/ccghGiGC.s:98441  .debug_str:0000000000025480 .LASF8157
     /tmp/ccghGiGC.s:104801  .debug_str:000000000003edce .LASF8158
     /tmp/ccghGiGC.s:91855  .debug_str:000000000000a5ac .LASF8159
     /tmp/ccghGiGC.s:92193  .debug_str:000000000000bdf0 .LASF8160
     /tmp/ccghGiGC.s:90631  .debug_str:00000000000052f6 .LASF8161
     /tmp/ccghGiGC.s:97307  .debug_str:0000000000020a6d .LASF8162
     /tmp/ccghGiGC.s:90899  .debug_str:00000000000064d5 .LASF8163
     /tmp/ccghGiGC.s:90633  .debug_str:000000000000530e .LASF8164
     /tmp/ccghGiGC.s:97309  .debug_str:0000000000020a85 .LASF8165
     /tmp/ccghGiGC.s:104315  .debug_str:000000000003cca7 .LASF8166
     /tmp/ccghGiGC.s:96023  .debug_str:000000000001af88 .LASF8167
     /tmp/ccghGiGC.s:102683  .debug_str:00000000000366e6 .LASF8168
     /tmp/ccghGiGC.s:99605  .debug_str:0000000000029d7b .LASF8169
     /tmp/ccghGiGC.s:96025  .debug_str:000000000001afa0 .LASF8170
     /tmp/ccghGiGC.s:102685  .debug_str:00000000000366fe .LASF8171
     /tmp/ccghGiGC.s:96905  .debug_str:000000000001ecc1 .LASF8172
     /tmp/ccghGiGC.s:101419  .debug_str:00000000000311aa .LASF8173
     /tmp/ccghGiGC.s:107939  .debug_str:000000000004c0c5 .LASF8174
     /tmp/ccghGiGC.s:95727  .debug_str:0000000000019ad8 .LASF8175
     /tmp/ccghGiGC.s:101421  .debug_str:00000000000311c2 .LASF8176
     /tmp/ccghGiGC.s:107941  .debug_str:000000000004c0dd .LASF8177
     /tmp/ccghGiGC.s:89533  .debug_str:0000000000000805 .LASF8178
     /tmp/ccghGiGC.s:106697  .debug_str:0000000000046d95 .LASF8179
     /tmp/ccghGiGC.s:93809  .debug_str:0000000000011e7a .LASF8180
     /tmp/ccghGiGC.s:107657  .debug_str:000000000004acc5 .LASF8181
     /tmp/ccghGiGC.s:106699  .debug_str:0000000000046dad .LASF8182
     /tmp/ccghGiGC.s:93811  .debug_str:0000000000011e92 .LASF8183
     /tmp/ccghGiGC.s:101595  .debug_str:0000000000031cf4 .LASF8184
     /tmp/ccghGiGC.s:92461  .debug_str:000000000000cfcf .LASF8185
     /tmp/ccghGiGC.s:99191  .debug_str:000000000002820c .LASF8186
     /tmp/ccghGiGC.s:100439  .debug_str:000000000002d23e .LASF8187
     /tmp/ccghGiGC.s:92463  .debug_str:000000000000cfe7 .LASF8188
     /tmp/ccghGiGC.s:96137  .debug_str:000000000001b6d7 .LASF8189
     /tmp/ccghGiGC.s:94167  .debug_str:00000000000136ef .LASF8190
     /tmp/ccghGiGC.s:108419  .debug_str:000000000004e2d4 .LASF8191
     /tmp/ccghGiGC.s:93989  .debug_str:0000000000012a0f .LASF8192
     /tmp/ccghGiGC.s:96393  .debug_str:000000000001c93f .LASF8193
     /tmp/ccghGiGC.s:108421  .debug_str:000000000004e2ed .LASF8194
     /tmp/ccghGiGC.s:93991  .debug_str:0000000000012a28 .LASF8195
     /tmp/ccghGiGC.s:90177  .debug_str:00000000000034eb .LASF8196
     /tmp/ccghGiGC.s:94273  .debug_str:0000000000013d54 .LASF8197
     /tmp/ccghGiGC.s:103949  .debug_str:000000000003b363 .LASF8198
     /tmp/ccghGiGC.s:108515  .debug_str:000000000004e96c .LASF8199
     /tmp/ccghGiGC.s:94275  .debug_str:0000000000013d6d .LASF8200
     /tmp/ccghGiGC.s:99355  .debug_str:0000000000028d53 .LASF8201
     /tmp/ccghGiGC.s:102435  .debug_str:0000000000035524 .LASF8202
     /tmp/ccghGiGC.s:97651  .debug_str:000000000002214c .LASF8203
     /tmp/ccghGiGC.s:104659  .debug_str:000000000003e440 .LASF8204
     /tmp/ccghGiGC.s:101251  .debug_str:000000000003066f .LASF8205
     /tmp/ccghGiGC.s:97653  .debug_str:0000000000022165 .LASF8206
     /tmp/ccghGiGC.s:104661  .debug_str:000000000003e459 .LASF8207
     /tmp/ccghGiGC.s:94977  .debug_str:0000000000016965 .LASF8208
     /tmp/ccghGiGC.s:108305  .debug_str:000000000004d992 .LASF8209
     /tmp/ccghGiGC.s:90459  .debug_str:00000000000047bd .LASF8210
     /tmp/ccghGiGC.s:93605  .debug_str:0000000000011131 .LASF8211
     /tmp/ccghGiGC.s:104941  .debug_str:000000000003f608 .LASF8212
     /tmp/ccghGiGC.s:90461  .debug_str:00000000000047d6 .LASF8213
     /tmp/ccghGiGC.s:106947  .debug_str:0000000000047e95 .LASF8214
     /tmp/ccghGiGC.s:90769  .debug_str:0000000000005c51 .LASF8215
     /tmp/ccghGiGC.s:95869  .debug_str:000000000001a46f .LASF8216
     /tmp/ccghGiGC.s:105781  .debug_str:000000000004324d .LASF8217
     /tmp/ccghGiGC.s:90771  .debug_str:0000000000005c6a .LASF8218
     /tmp/ccghGiGC.s:104433  .debug_str:000000000003d3f3 .LASF8219
     /tmp/ccghGiGC.s:99659  .debug_str:000000000002a135 .LASF8220
     /tmp/ccghGiGC.s:96177  .debug_str:000000000001b950 .LASF8221
     /tmp/ccghGiGC.s:101281  .debug_str:000000000003089f .LASF8222
     /tmp/ccghGiGC.s:98411  .debug_str:00000000000252be .LASF8223
     /tmp/ccghGiGC.s:90645  .debug_str:00000000000053df .LASF8224
     /tmp/ccghGiGC.s:101283  .debug_str:00000000000308b8 .LASF8225
     /tmp/ccghGiGC.s:92163  .debug_str:000000000000bb46 .LASF8226
     /tmp/ccghGiGC.s:102765  .debug_str:0000000000036c55 .LASF8227
     /tmp/ccghGiGC.s:95113  .debug_str:0000000000017220 .LASF8228
     /tmp/ccghGiGC.s:101295  .debug_str:00000000000309c2 .LASF8229
     /tmp/ccghGiGC.s:105167  .debug_str:0000000000040437 .LASF8230
     /tmp/ccghGiGC.s:91621  .debug_str:000000000000961d .LASF8231
     /tmp/ccghGiGC.s:101647  .debug_str:0000000000031fe3 .LASF8232
     /tmp/ccghGiGC.s:102241  .debug_str:000000000003479e .LASF8233
     /tmp/ccghGiGC.s:93853  .debug_str:0000000000012156 .LASF8234
     /tmp/ccghGiGC.s:99331  .debug_str:0000000000028bd5 .LASF8235
     /tmp/ccghGiGC.s:102243  .debug_str:00000000000347ab .LASF8236
     /tmp/ccghGiGC.s:91627  .debug_str:0000000000009661 .LASF8237
     /tmp/ccghGiGC.s:102621  .debug_str:00000000000362c0 .LASF8238
     /tmp/ccghGiGC.s:100775  .debug_str:000000000002e782 .LASF8239
     /tmp/ccghGiGC.s:91087  .debug_str:0000000000007241 .LASF8240
     /tmp/ccghGiGC.s:96509  .debug_str:000000000001d197 .LASF8241
     /tmp/ccghGiGC.s:104815  .debug_str:000000000003ee5e .LASF8242
     /tmp/ccghGiGC.s:96253  .debug_str:000000000001bef5 .LASF8243
     /tmp/ccghGiGC.s:107947  .debug_str:000000000004c152 .LASF8244
     /tmp/ccghGiGC.s:93769  .debug_str:0000000000011ba4 .LASF8245
     /tmp/ccghGiGC.s:104097  .debug_str:000000000003bd23 .LASF8246
     /tmp/ccghGiGC.s:94161  .debug_str:0000000000013685 .LASF8247
     /tmp/ccghGiGC.s:107359  .debug_str:0000000000049920 .LASF8248
     /tmp/ccghGiGC.s:96447  .debug_str:000000000001cd73 .LASF8249
     /tmp/ccghGiGC.s:89555  .debug_str:00000000000009a1 .LASF8250
     /tmp/ccghGiGC.s:97423  .debug_str:0000000000021123 .LASF8251
     /tmp/ccghGiGC.s:101695  .debug_str:00000000000322f6 .LASF8252
     /tmp/ccghGiGC.s:106475  .debug_str:0000000000045fd5 .LASF8253
     /tmp/ccghGiGC.s:95233  .debug_str:0000000000017ae0 .LASF8254
     /tmp/ccghGiGC.s:99521  .debug_str:0000000000029813 .LASF8255
     /tmp/ccghGiGC.s:104467  .debug_str:000000000003d5e2 .LASF8256
     /tmp/ccghGiGC.s:90617  .debug_str:000000000000523e .LASF8257
     /tmp/ccghGiGC.s:102465  .debug_str:0000000000035747 .LASF8258
     /tmp/ccghGiGC.s:102817  .debug_str:0000000000036fcf .LASF8259
     /tmp/ccghGiGC.s:92111  .debug_str:000000000000b79c .LASF8260
     /tmp/ccghGiGC.s:103977  .debug_str:000000000003b50e .LASF8261
     /tmp/ccghGiGC.s:96667  .debug_str:000000000001dc28 .LASF8262
     /tmp/ccghGiGC.s:105445  .debug_str:000000000004195b .LASF8263
     /tmp/ccghGiGC.s:108581  .debug_str:000000000004ed31 .LASF8264
     /tmp/ccghGiGC.s:105531  .debug_str:0000000000042114 .LASF8265
     /tmp/ccghGiGC.s:94403  .debug_str:0000000000014563 .LASF8266
     /tmp/ccghGiGC.s:100529  .debug_str:000000000002d780 .LASF8267
     /tmp/ccghGiGC.s:100445  .debug_str:000000000002d286 .LASF8268
     /tmp/ccghGiGC.s:104925  .debug_str:000000000003f537 .LASF8269
     /tmp/ccghGiGC.s:100769  .debug_str:000000000002e71f .LASF8270
     /tmp/ccghGiGC.s:102403  .debug_str:000000000003529a .LASF8271
     /tmp/ccghGiGC.s:90225  .debug_str:0000000000003760 .LASF8272
     /tmp/ccghGiGC.s:100545  .debug_str:000000000002d87d .LASF8273
     /tmp/ccghGiGC.s:100363  .debug_str:000000000002cd61 .LASF8274
     /tmp/ccghGiGC.s:96843  .debug_str:000000000001e8ad .LASF8275
     /tmp/ccghGiGC.s:99981  .debug_str:000000000002b548 .LASF8276
     /tmp/ccghGiGC.s:89583  .debug_str:0000000000000b53 .LASF8277
     /tmp/ccghGiGC.s:98763  .debug_str:0000000000026657 .LASF8278
     /tmp/ccghGiGC.s:102207  .debug_str:000000000003455b .LASF8279
     /tmp/ccghGiGC.s:99221  .debug_str:00000000000283db .LASF8280
     /tmp/ccghGiGC.s:96085  .debug_str:000000000001b386 .LASF8281
     /tmp/ccghGiGC.s:108893  .debug_str:0000000000050294 .LASF8282
     /tmp/ccghGiGC.s:97285  .debug_str:0000000000020850 .LASF8283
     /tmp/ccghGiGC.s:91959  .debug_str:000000000000acea .LASF8284
     /tmp/ccghGiGC.s:102349  .debug_str:0000000000034faa .LASF8285
     /tmp/ccghGiGC.s:108897  .debug_str:00000000000502be .LASF8286
     /tmp/ccghGiGC.s:91509  .debug_str:0000000000008e2d .LASF8287
     /tmp/ccghGiGC.s:91273  .debug_str:0000000000007e83 .LASF8288
     /tmp/ccghGiGC.s:97725  .debug_str:0000000000022640 .LASF8289
     /tmp/ccghGiGC.s:107447  .debug_str:0000000000049f70 .LASF8290
     /tmp/ccghGiGC.s:93117  .debug_str:000000000000f561 .LASF8291
     /tmp/ccghGiGC.s:101611  .debug_str:0000000000031df1 .LASF8292
     /tmp/ccghGiGC.s:97143  .debug_str:000000000001fd89 .LASF8293
     /tmp/ccghGiGC.s:91283  .debug_str:0000000000007f1c .LASF8294
     /tmp/ccghGiGC.s:95811  .debug_str:000000000001a031 .LASF8295
     /tmp/ccghGiGC.s:94315  .debug_str:0000000000013fe9 .LASF8296
     /tmp/ccghGiGC.s:107787  .debug_str:000000000004b649 .LASF8297
     /tmp/ccghGiGC.s:103877  .debug_str:000000000003ae47 .LASF8298
     /tmp/ccghGiGC.s:108851  .debug_str:000000000004ffa4 .LASF8299
     /tmp/ccghGiGC.s:92721  .debug_str:000000000000df73 .LASF8300
     /tmp/ccghGiGC.s:90425  .debug_str:00000000000045d4 .LASF8301
     /tmp/ccghGiGC.s:90507  .debug_str:0000000000004b45 .LASF8302
     /tmp/ccghGiGC.s:94029  .debug_str:0000000000012cad .LASF8303
     /tmp/ccghGiGC.s:107401  .debug_str:0000000000049bff .LASF8304
     /tmp/ccghGiGC.s:93281  .debug_str:000000000001004f .LASF8305
     /tmp/ccghGiGC.s:103631  .debug_str:0000000000039e1b .LASF8306
     /tmp/ccghGiGC.s:95365  .debug_str:0000000000018306 .LASF8307
     /tmp/ccghGiGC.s:93269  .debug_str:000000000000ff34 .LASF8308
     /tmp/ccghGiGC.s:103607  .debug_str:0000000000039d3e .LASF8309
     /tmp/ccghGiGC.s:97667  .debug_str:00000000000221ee .LASF8310
     /tmp/ccghGiGC.s:103181  .debug_str:00000000000386d7 .LASF8311
     /tmp/ccghGiGC.s:106575  .debug_str:0000000000046681 .LASF8312
     /tmp/ccghGiGC.s:96591  .debug_str:000000000001d6ab .LASF8313
     /tmp/ccghGiGC.s:89579  .debug_str:0000000000000b3a .LASF8314
     /tmp/ccghGiGC.s:108579  .debug_str:000000000004ed29 .LASF8315
     /tmp/ccghGiGC.s:103655  .debug_str:0000000000039fa6 .LASF8316
     /tmp/ccghGiGC.s:97369  .debug_str:0000000000020e26 .LASF8317
     /tmp/ccghGiGC.s:94193  .debug_str:000000000001382c .LASF8318
     /tmp/ccghGiGC.s:101243  .debug_str:000000000003061b .LASF8319
     /tmp/ccghGiGC.s:93723  .debug_str:000000000001182d .LASF8320
     /tmp/ccghGiGC.s:104031  .debug_str:000000000003b8ef .LASF8321
     /tmp/ccghGiGC.s:101119  .debug_str:000000000002fe65 .LASF8322
     /tmp/ccghGiGC.s:97957  .debug_str:00000000000234c4 .LASF8323
     /tmp/ccghGiGC.s:101479  .debug_str:0000000000031593 .LASF8324
     /tmp/ccghGiGC.s:90835  .debug_str:0000000000006070 .LASF8325
     /tmp/ccghGiGC.s:106927  .debug_str:0000000000047d21 .LASF8326
     /tmp/ccghGiGC.s:92213  .debug_str:000000000000bf88 .LASF8327
     /tmp/ccghGiGC.s:102443  .debug_str:00000000000355d5 .LASF8328
     /tmp/ccghGiGC.s:93805  .debug_str:0000000000011e3a .LASF8329
     /tmp/ccghGiGC.s:103229  .debug_str:00000000000388de .LASF8330
     /tmp/ccghGiGC.s:89639  .debug_str:0000000000000efd .LASF8331
     /tmp/ccghGiGC.s:103299  .debug_str:0000000000038c9a .LASF8332
     /tmp/ccghGiGC.s:106679  .debug_str:0000000000046c71 .LASF8333
     /tmp/ccghGiGC.s:107035  .debug_str:0000000000048485 .LASF8334
     /tmp/ccghGiGC.s:92049  .debug_str:000000000000b3a8 .LASF8335
     /tmp/ccghGiGC.s:102429  .debug_str:00000000000354cb .LASF8336
     /tmp/ccghGiGC.s:97557  .debug_str:0000000000021a56 .LASF8337
     /tmp/ccghGiGC.s:96805  .debug_str:000000000001e601 .LASF8338
     /tmp/ccghGiGC.s:106425  .debug_str:0000000000045cf0 .LASF8339
     /tmp/ccghGiGC.s:89613  .debug_str:0000000000000d0c .LASF8340
     /tmp/ccghGiGC.s:98681  .debug_str:00000000000260de .LASF8341
     /tmp/ccghGiGC.s:103943  .debug_str:000000000003b2de .LASF8342
     /tmp/ccghGiGC.s:108343  .debug_str:000000000004dcc0 .LASF8343
     /tmp/ccghGiGC.s:103493  .debug_str:0000000000039702 .LASF8344
     /tmp/ccghGiGC.s:96311  .debug_str:000000000001c31c .LASF8345
     /tmp/ccghGiGC.s:96913  .debug_str:000000000001ed56 .LASF8346
     /tmp/ccghGiGC.s:104073  .debug_str:000000000003bb88 .LASF8347
     /tmp/ccghGiGC.s:105273  .debug_str:0000000000040b25 .LASF8348
     /tmp/ccghGiGC.s:98333  .debug_str:0000000000024e62 .LASF8349
     /tmp/ccghGiGC.s:92291  .debug_str:000000000000c43e .LASF8350
     /tmp/ccghGiGC.s:101763  .debug_str:0000000000032869 .LASF8351
     /tmp/ccghGiGC.s:99077  .debug_str:0000000000027a32 .LASF8352
     /tmp/ccghGiGC.s:97199  .debug_str:0000000000020242 .LASF8353
     /tmp/ccghGiGC.s:99987  .debug_str:000000000002b5b4 .LASF8354
     /tmp/ccghGiGC.s:100263  .debug_str:000000000002c739 .LASF8355
     /tmp/ccghGiGC.s:108065  .debug_str:000000000004c908 .LASF8356
     /tmp/ccghGiGC.s:104045  .debug_str:000000000003b9df .LASF8357
     /tmp/ccghGiGC.s:105233  .debug_str:000000000004082c .LASF8358
     /tmp/ccghGiGC.s:96957  .debug_str:000000000001f00a .LASF8359
     /tmp/ccghGiGC.s:105463  .debug_str:0000000000041a4a .LASF8360
     /tmp/ccghGiGC.s:98239  .debug_str:000000000002489c .LASF8361
     /tmp/ccghGiGC.s:92851  .debug_str:000000000000e7eb .LASF8362
     /tmp/ccghGiGC.s:106243  .debug_str:00000000000450f0 .LASF8363
     /tmp/ccghGiGC.s:91217  .debug_str:0000000000007ab0 .LASF8364
     /tmp/ccghGiGC.s:102897  .debug_str:000000000003750b .LASF8365
     /tmp/ccghGiGC.s:106309  .debug_str:00000000000454a6 .LASF8366
     /tmp/ccghGiGC.s:102739  .debug_str:0000000000036a4f .LASF8367
     /tmp/ccghGiGC.s:91969  .debug_str:000000000000ad51 .LASF8368
     /tmp/ccghGiGC.s:102357  .debug_str:000000000003501b .LASF8369
     /tmp/ccghGiGC.s:98515  .debug_str:000000000002585d .LASF8370
     /tmp/ccghGiGC.s:92129  .debug_str:000000000000b93e .LASF8371
     /tmp/ccghGiGC.s:102519  .debug_str:0000000000035b9c .LASF8372
     /tmp/ccghGiGC.s:96325  .debug_str:000000000001c3e3 .LASF8373
     /tmp/ccghGiGC.s:95293  .debug_str:0000000000017f25 .LASF8374
     /tmp/ccghGiGC.s:95093  .debug_str:000000000001712c .LASF8375
     /tmp/ccghGiGC.s:98911  .debug_str:0000000000027003 .LASF8376
     /tmp/ccghGiGC.s:90701  .debug_str:0000000000005789 .LASF8377
     /tmp/ccghGiGC.s:91277  .debug_str:0000000000007eab .LASF8378
     /tmp/ccghGiGC.s:98147  .debug_str:00000000000241c5 .LASF8379
     /tmp/ccghGiGC.s:102615  .debug_str:0000000000036274 .LASF8380
     /tmp/ccghGiGC.s:89691  .debug_str:0000000000001288 .LASF8381
     /tmp/ccghGiGC.s:98821  .debug_str:0000000000026984 .LASF8382
     /tmp/ccghGiGC.s:103685  .debug_str:000000000003a131 .LASF8383
     /tmp/ccghGiGC.s:90505  .debug_str:0000000000004b39 .LASF8384
     /tmp/ccghGiGC.s:100189  .debug_str:000000000002c325 .LASF8385
     /tmp/ccghGiGC.s:101613  .debug_str:0000000000031e15 .LASF8386
     /tmp/ccghGiGC.s:98807  .debug_str:00000000000268c8 .LASF8387
     /tmp/ccghGiGC.s:95753  .debug_str:0000000000019cad .LASF8388
     /tmp/ccghGiGC.s:96525  .debug_str:000000000001d24b .LASF8389
     /tmp/ccghGiGC.s:103243  .debug_str:00000000000389ca .LASF8390
     /tmp/ccghGiGC.s:106347  .debug_str:000000000004573b .LASF8391
     /tmp/ccghGiGC.s:102193  .debug_str:00000000000344ae .LASF8392
     /tmp/ccghGiGC.s:108753  .debug_str:000000000004f8b9 .LASF8393
     /tmp/ccghGiGC.s:98431  .debug_str:0000000000025403 .LASF8394
     /tmp/ccghGiGC.s:95085  .debug_str:00000000000170bf .LASF8395
     /tmp/ccghGiGC.s:97413  .debug_str:000000000002108c .LASF8396
     /tmp/ccghGiGC.s:103061  .debug_str:0000000000037ec8 .LASF8397
     /tmp/ccghGiGC.s:99815  .debug_str:000000000002ab36 .LASF8398
     /tmp/ccghGiGC.s:106661  .debug_str:0000000000046bbc .LASF8399
     /tmp/ccghGiGC.s:100953  .debug_str:000000000002f2bb .LASF8400
     /tmp/ccghGiGC.s:99817  .debug_str:000000000002ab49 .LASF8401
     /tmp/ccghGiGC.s:106663  .debug_str:0000000000046bcf .LASF8402
     /tmp/ccghGiGC.s:96359  .debug_str:000000000001c72f .LASF8403
     /tmp/ccghGiGC.s:99819  .debug_str:000000000002ab5c .LASF8404
     /tmp/ccghGiGC.s:99155  .debug_str:0000000000027fa8 .LASF8405
     /tmp/ccghGiGC.s:107973  .debug_str:000000000004c2c9 .LASF8406
     /tmp/ccghGiGC.s:99219  .debug_str:00000000000283c8 .LASF8407
     /tmp/ccghGiGC.s:106667  .debug_str:0000000000046bef .LASF8408
     /tmp/ccghGiGC.s:101921  .debug_str:0000000000033292 .LASF8409
     /tmp/ccghGiGC.s:99823  .debug_str:000000000002ab90 .LASF8410
     /tmp/ccghGiGC.s:106669  .debug_str:0000000000046c02 .LASF8411
     /tmp/ccghGiGC.s:95653  .debug_str:00000000000195b2 .LASF8412
     /tmp/ccghGiGC.s:99825  .debug_str:000000000002aba3 .LASF8413
     /tmp/ccghGiGC.s:106671  .debug_str:0000000000046c15 .LASF8414
     /tmp/ccghGiGC.s:89455  .debug_str:00000000000002a9 .LASF8415
     /tmp/ccghGiGC.s:99827  .debug_str:000000000002abb6 .LASF8416
     /tmp/ccghGiGC.s:106673  .debug_str:0000000000046c28 .LASF8417
     /tmp/ccghGiGC.s:102859  .debug_str:0000000000037222 .LASF8418
     /tmp/ccghGiGC.s:99829  .debug_str:000000000002abc9 .LASF8419
     /tmp/ccghGiGC.s:106675  .debug_str:0000000000046c3b .LASF8420
     /tmp/ccghGiGC.s:96653  .debug_str:000000000001dafb .LASF8421
     /tmp/ccghGiGC.s:100077  .debug_str:000000000002bc59 .LASF8422
     /tmp/ccghGiGC.s:96887  .debug_str:000000000001ec06 .LASF8423
     /tmp/ccghGiGC.s:102863  .debug_str:000000000003726a .LASF8424
     /tmp/ccghGiGC.s:106325  .debug_str:00000000000455ce .LASF8425
     /tmp/ccghGiGC.s:96889  .debug_str:000000000001ec19 .LASF8426
     /tmp/ccghGiGC.s:100765  .debug_str:000000000002e6c2 .LASF8427
     /tmp/ccghGiGC.s:89945  .debug_str:0000000000002558 .LASF8428
     /tmp/ccghGiGC.s:96891  .debug_str:000000000001ec2c .LASF8429
     /tmp/ccghGiGC.s:94493  .debug_str:0000000000014b31 .LASF8430
     /tmp/ccghGiGC.s:89947  .debug_str:000000000000256b .LASF8431
     /tmp/ccghGiGC.s:96893  .debug_str:000000000001ec3f .LASF8432
     /tmp/ccghGiGC.s:107779  .debug_str:000000000004b5d0 .LASF8433
     /tmp/ccghGiGC.s:89949  .debug_str:000000000000257e .LASF8434
     /tmp/ccghGiGC.s:96895  .debug_str:000000000001ec52 .LASF8435
     /tmp/ccghGiGC.s:96379  .debug_str:000000000001c842 .LASF8436
     /tmp/ccghGiGC.s:89951  .debug_str:0000000000002591 .LASF8437
     /tmp/ccghGiGC.s:96897  .debug_str:000000000001ec65 .LASF8438
     /tmp/ccghGiGC.s:95759  .debug_str:0000000000019d23 .LASF8439
     /tmp/ccghGiGC.s:89953  .debug_str:00000000000025a4 .LASF8440
     /tmp/ccghGiGC.s:96899  .debug_str:000000000001ec78 .LASF8441
     /tmp/ccghGiGC.s:108779  .debug_str:000000000004fabb .LASF8442
     /tmp/ccghGiGC.s:106343  .debug_str:000000000004570c .LASF8443
     /tmp/ccghGiGC.s:96901  .debug_str:000000000001ec8b .LASF8444
     /tmp/ccghGiGC.s:102671  .debug_str:00000000000365eb .LASF8445
     /tmp/ccghGiGC.s:107693  .debug_str:000000000004af59 .LASF8446
     /tmp/ccghGiGC.s:99729  .debug_str:000000000002a647 .LASF8447
     /tmp/ccghGiGC.s:107811  .debug_str:000000000004b80c .LASF8448
     /tmp/ccghGiGC.s:97823  .debug_str:0000000000022bdb .LASF8449
     /tmp/ccghGiGC.s:89713  .debug_str:00000000000013d8 .LASF8450
     /tmp/ccghGiGC.s:94323  .debug_str:0000000000014035 .LASF8451
     /tmp/ccghGiGC.s:96625  .debug_str:000000000001d90e .LASF8452
     /tmp/ccghGiGC.s:101829  .debug_str:0000000000032cd4 .LASF8453
     /tmp/ccghGiGC.s:100689  .debug_str:000000000002e1d4 .LASF8454
     /tmp/ccghGiGC.s:98351  .debug_str:0000000000024f84 .LASF8455
     /tmp/ccghGiGC.s:103781  .debug_str:000000000003a7a5 .LASF8456
     /tmp/ccghGiGC.s:108165  .debug_str:000000000004d04f .LASF8457
     /tmp/ccghGiGC.s:98671  .debug_str:0000000000026085 .LASF8458
     /tmp/ccghGiGC.s:95535  .debug_str:0000000000018d1f .LASF8459
     /tmp/ccghGiGC.s:91347  .debug_str:00000000000082fe .LASF8460
     /tmp/ccghGiGC.s:102391  .debug_str:00000000000351d3 .LASF8461
     /tmp/ccghGiGC.s:108707  .debug_str:000000000004f57d .LASF8462
     /tmp/ccghGiGC.s:91735  .debug_str:0000000000009e4d .LASF8463
     /tmp/ccghGiGC.s:102949  .debug_str:0000000000037819 .LASF8464
     /tmp/ccghGiGC.s:101757  .debug_str:00000000000327e8 .LASF8465
     /tmp/ccghGiGC.s:90799  .debug_str:0000000000005e0d .LASF8466
     /tmp/ccghGiGC.s:104907  .debug_str:000000000003f3e9 .LASF8467
     /tmp/ccghGiGC.s:101051  .debug_str:000000000002fa49 .LASF8468
     /tmp/ccghGiGC.s:93841  .debug_str:0000000000012053 .LASF8469
     /tmp/ccghGiGC.s:102661  .debug_str:0000000000036585 .LASF8470
     /tmp/ccghGiGC.s:106063  .debug_str:00000000000444bb .LASF8471
     /tmp/ccghGiGC.s:96703  .debug_str:000000000001df1b .LASF8472
     /tmp/ccghGiGC.s:108003  .debug_str:000000000004c4e1 .LASF8473
     /tmp/ccghGiGC.s:104099  .debug_str:000000000003bd3e .LASF8474
     /tmp/ccghGiGC.s:90595  .debug_str:00000000000050aa .LASF8475
     /tmp/ccghGiGC.s:106291  .debug_str:00000000000453b2 .LASF8476
     /tmp/ccghGiGC.s:90615  .debug_str:0000000000005234 .LASF8477
     /tmp/ccghGiGC.s:105841  .debug_str:00000000000436aa .LASF8478
     /tmp/ccghGiGC.s:103043  .debug_str:0000000000037d7d .LASF8479
     /tmp/ccghGiGC.s:106459  .debug_str:0000000000045edc .LASF8480
     /tmp/ccghGiGC.s:100233  .debug_str:000000000002c5d0 .LASF8481
     /tmp/ccghGiGC.s:93985  .debug_str:00000000000129d9 .LASF8482
     /tmp/ccghGiGC.s:106887  .debug_str:0000000000047a7e .LASF8483
     /tmp/ccghGiGC.s:97993  .debug_str:0000000000023717 .LASF8484
     /tmp/ccghGiGC.s:93439  .debug_str:0000000000010832 .LASF8485
     /tmp/ccghGiGC.s:92179  .debug_str:000000000000bc9a .LASF8486
     /tmp/ccghGiGC.s:107407  .debug_str:0000000000049c4d .LASF8487
     /tmp/ccghGiGC.s:108183  .debug_str:000000000004d1b5 .LASF8488
     /tmp/ccghGiGC.s:91825  .debug_str:000000000000a451 .LASF8489
     /tmp/ccghGiGC.s:92615  .debug_str:000000000000d9e3 .LASF8490
     /tmp/ccghGiGC.s:97541  .debug_str:0000000000021971 .LASF8491
     /tmp/ccghGiGC.s:97325  .debug_str:0000000000020b52 .LASF8492
     /tmp/ccghGiGC.s:105643  .debug_str:0000000000042970 .LASF8493
     /tmp/ccghGiGC.s:92769  .debug_str:000000000000e298 .LASF8494
     /tmp/ccghGiGC.s:107047  .debug_str:0000000000048566 .LASF8495
     /tmp/ccghGiGC.s:94437  .debug_str:000000000001478b .LASF8496
     /tmp/ccghGiGC.s:91923  .debug_str:000000000000aaa3 .LASF8497
     /tmp/ccghGiGC.s:91097  .debug_str:0000000000007304 .LASF8498
     /tmp/ccghGiGC.s:104859  .debug_str:000000000003f0c2 .LASF8499
     /tmp/ccghGiGC.s:99111  .debug_str:0000000000027c84 .LASF8500
     /tmp/ccghGiGC.s:90567  .debug_str:0000000000004f26 .LASF8501
     /tmp/ccghGiGC.s:106907  .debug_str:0000000000047bc5 .LASF8502
     /tmp/ccghGiGC.s:95929  .debug_str:000000000001a896 .LASF8503
     /tmp/ccghGiGC.s:99415  .debug_str:0000000000029195 .LASF8504
     /tmp/ccghGiGC.s:97013  .debug_str:000000000001f468 .LASF8505
     /tmp/ccghGiGC.s:89553  .debug_str:0000000000000991 .LASF8506
     /tmp/ccghGiGC.s:90327  .debug_str:0000000000003e69 .LASF8507
     /tmp/ccghGiGC.s:99919  .debug_str:000000000002b216 .LASF8508
     /tmp/ccghGiGC.s:107107  .debug_str:000000000004891c .LASF8509
     /tmp/ccghGiGC.s:98449  .debug_str:000000000002550f .LASF8510
     /tmp/ccghGiGC.s:90085  .debug_str:0000000000002e68 .LASF8511
     /tmp/ccghGiGC.s:93909  .debug_str:000000000001253d .LASF8512
     /tmp/ccghGiGC.s:100823  .debug_str:000000000002eb04 .LASF8513
     /tmp/ccghGiGC.s:95857  .debug_str:000000000001a39f .LASF8514
     /tmp/ccghGiGC.s:94779  .debug_str:0000000000015d6e .LASF8515
     /tmp/ccghGiGC.s:104053  .debug_str:000000000003ba4f .LASF8516
     /tmp/ccghGiGC.s:107827  .debug_str:000000000004b950 .LASF8517
     /tmp/ccghGiGC.s:98675  .debug_str:0000000000026094 .LASF8518
     /tmp/ccghGiGC.s:92517  .debug_str:000000000000d3c6 .LASF8519
     /tmp/ccghGiGC.s:102023  .debug_str:00000000000339af .LASF8520
     /tmp/ccghGiGC.s:99963  .debug_str:000000000002b49b .LASF8521
     /tmp/ccghGiGC.s:100399  .debug_str:000000000002d01a .LASF8522
     /tmp/ccghGiGC.s:104593  .debug_str:000000000003df72 .LASF8523
     /tmp/ccghGiGC.s:102945  .debug_str:00000000000377e2 .LASF8524
     /tmp/ccghGiGC.s:98465  .debug_str:000000000002560e .LASF8525
     /tmp/ccghGiGC.s:99039  .debug_str:000000000002776c .LASF8526
     /tmp/ccghGiGC.s:101371  .debug_str:0000000000030ede .LASF8527
     /tmp/ccghGiGC.s:91797  .debug_str:000000000000a227 .LASF8528
     /tmp/ccghGiGC.s:103437  .debug_str:0000000000039451 .LASF8529
     /tmp/ccghGiGC.s:94333  .debug_str:00000000000140d6 .LASF8530
     /tmp/ccghGiGC.s:94641  .debug_str:0000000000015411 .LASF8531
     /tmp/ccghGiGC.s:96489  .debug_str:000000000001d018 .LASF8532
     /tmp/ccghGiGC.s:95995  .debug_str:000000000001addd .LASF8533
     /tmp/ccghGiGC.s:96321  .debug_str:000000000001c3aa .LASF8534
     /tmp/ccghGiGC.s:91191  .debug_str:000000000000792b .LASF8535
     /tmp/ccghGiGC.s:93287  .debug_str:000000000001008f .LASF8536
     /tmp/ccghGiGC.s:101097  .debug_str:000000000002fd2c .LASF8537
     /tmp/ccghGiGC.s:93817  .debug_str:0000000000011edb .LASF8538
     /tmp/ccghGiGC.s:94937  .debug_str:00000000000166a5 .LASF8539
     /tmp/ccghGiGC.s:97387  .debug_str:0000000000020f0a .LASF8540
     /tmp/ccghGiGC.s:94309  .debug_str:0000000000013f96 .LASF8541
     /tmp/ccghGiGC.s:91429  .debug_str:00000000000088fe .LASF8542
     /tmp/ccghGiGC.s:99979  .debug_str:000000000002b53a .LASF8543
     /tmp/ccghGiGC.s:101737  .debug_str:0000000000032603 .LASF8544
     /tmp/ccghGiGC.s:108901  .debug_str:0000000000050311 .LASF8545
     /tmp/ccghGiGC.s:90213  .debug_str:00000000000036a6 .LASF8546
     /tmp/ccghGiGC.s:99389  .debug_str:0000000000028fa5 .LASF8547
     /tmp/ccghGiGC.s:108303  .debug_str:000000000004d985 .LASF8548
     /tmp/ccghGiGC.s:91023  .debug_str:0000000000006d02 .LASF8549
     /tmp/ccghGiGC.s:99283  .debug_str:00000000000287e3 .LASF8550
     /tmp/ccghGiGC.s:92307  .debug_str:000000000000c539 .LASF8551
     /tmp/ccghGiGC.s:102313  .debug_str:0000000000034c5c .LASF8552
     /tmp/ccghGiGC.s:100649  .debug_str:000000000002df49 .LASF8553
     /tmp/ccghGiGC.s:97107  .debug_str:000000000001fb75 .LASF8554
     /tmp/ccghGiGC.s:106897  .debug_str:0000000000047aff .LASF8555
     /tmp/ccghGiGC.s:105105  .debug_str:0000000000040058 .LASF8556
     /tmp/ccghGiGC.s:107967  .debug_str:000000000004c297 .LASF8557
     /tmp/ccghGiGC.s:101399  .debug_str:000000000003108b .LASF8558
     /tmp/ccghGiGC.s:95379  .debug_str:000000000001843b .LASF8559
     /tmp/ccghGiGC.s:93493  .debug_str:0000000000010b34 .LASF8560
     /tmp/ccghGiGC.s:97225  .debug_str:00000000000203db .LASF8561
     /tmp/ccghGiGC.s:104191  .debug_str:000000000003c42c .LASF8562
     /tmp/ccghGiGC.s:96693  .debug_str:000000000001de6f .LASF8563
     /tmp/ccghGiGC.s:92295  .debug_str:000000000000c46e .LASF8564
     /tmp/ccghGiGC.s:91155  .debug_str:000000000000765d .LASF8565
     /tmp/ccghGiGC.s:105679  .debug_str:0000000000042c0d .LASF8566
     /tmp/ccghGiGC.s:98647  .debug_str:0000000000026013 .LASF8567
     /tmp/ccghGiGC.s:90353  .debug_str:0000000000004075 .LASF8568
     /tmp/ccghGiGC.s:95807  .debug_str:0000000000019ff4 .LASF8569
     /tmp/ccghGiGC.s:108405  .debug_str:000000000004e1c1 .LASF8570
     /tmp/ccghGiGC.s:90239  .debug_str:000000000000389d .LASF8571
     /tmp/ccghGiGC.s:100087  .debug_str:000000000002bcd7 .LASF8572
     /tmp/ccghGiGC.s:93049  .debug_str:000000000000f14d .LASF8573
     /tmp/ccghGiGC.s:101579  .debug_str:0000000000031c4b .LASF8574
     /tmp/ccghGiGC.s:102919  .debug_str:0000000000037671 .LASF8575
     /tmp/ccghGiGC.s:106331  .debug_str:0000000000045612 .LASF8576
     /tmp/ccghGiGC.s:95321  .debug_str:000000000001808f .LASF8577
     /tmp/ccghGiGC.s:102927  .debug_str:00000000000376f1 .LASF8578
     /tmp/ccghGiGC.s:106339  .debug_str:00000000000456d1 .LASF8579
     /tmp/ccghGiGC.s:106531  .debug_str:00000000000463af .LASF8580
     /tmp/ccghGiGC.s:105141  .debug_str:0000000000040282 .LASF8581
     /tmp/ccghGiGC.s:101475  .debug_str:000000000003153e .LASF8582
     /tmp/ccghGiGC.s:99577  .debug_str:0000000000029bf0 .LASF8583
     /tmp/ccghGiGC.s:107831  .debug_str:000000000004b98e .LASF8584
     /tmp/ccghGiGC.s:104027  .debug_str:000000000003b8d1 .LASF8585
     /tmp/ccghGiGC.s:99097  .debug_str:0000000000027ba4 .LASF8586
     /tmp/ccghGiGC.s:101359  .debug_str:0000000000030e27 .LASF8587
     /tmp/ccghGiGC.s:101787  .debug_str:00000000000329e4 .LASF8588
     /tmp/ccghGiGC.s:100669  .debug_str:000000000002e0bb .LASF8589
     /tmp/ccghGiGC.s:107873  .debug_str:000000000004bc54 .LASF8590
     /tmp/ccghGiGC.s:107357  .debug_str:000000000004990c .LASF8591
     /tmp/ccghGiGC.s:106133  .debug_str:0000000000044973 .LASF8592
     /tmp/ccghGiGC.s:108345  .debug_str:000000000004dce7 .LASF8593
     /tmp/ccghGiGC.s:103575  .debug_str:0000000000039acf .LASF8594
     /tmp/ccghGiGC.s:103075  .debug_str:0000000000037f98 .LASF8595
     /tmp/ccghGiGC.s:93667  .debug_str:0000000000011596 .LASF8596
     /tmp/ccghGiGC.s:98621  .debug_str:0000000000025e8a .LASF8597
     /tmp/ccghGiGC.s:90075  .debug_str:0000000000002de7 .LASF8598
     /tmp/ccghGiGC.s:92867  .debug_str:000000000000e87b .LASF8599
     /tmp/ccghGiGC.s:95757  .debug_str:0000000000019d0a .LASF8600
     /tmp/ccghGiGC.s:98039  .debug_str:0000000000023b05 .LASF8601
     /tmp/ccghGiGC.s:104539  .debug_str:000000000003dae6 .LASF8602
     /tmp/ccghGiGC.s:99017  .debug_str:00000000000275dc .LASF8603
     /tmp/ccghGiGC.s:106497  .debug_str:0000000000046162 .LASF8604
     /tmp/ccghGiGC.s:107993  .debug_str:000000000004c42c .LASF8605
     /tmp/ccghGiGC.s:102517  .debug_str:0000000000035b85 .LASF8606
     /tmp/ccghGiGC.s:94681  .debug_str:0000000000015678 .LASF8607
     /tmp/ccghGiGC.s:104829  .debug_str:000000000003eede .LASF8608
     /tmp/ccghGiGC.s:99349  .debug_str:0000000000028d20 .LASF8609
     /tmp/ccghGiGC.s:99429  .debug_str:00000000000292a6 .LASF8610
     /tmp/ccghGiGC.s:92967  .debug_str:000000000000edc4 .LASF8611
     /tmp/ccghGiGC.s:99745  .debug_str:000000000002a731 .LASF8612
     /tmp/ccghGiGC.s:108491  .debug_str:000000000004e79a .LASF8613
     /tmp/ccghGiGC.s:94667  .debug_str:0000000000015595 .LASF8614
     /tmp/ccghGiGC.s:94625  .debug_str:00000000000152cc .LASF8615
     /tmp/ccghGiGC.s:97945  .debug_str:00000000000233b0 .LASF8616
     /tmp/ccghGiGC.s:91501  .debug_str:0000000000008db8 .LASF8617
     /tmp/ccghGiGC.s:95893  .debug_str:000000000001a688 .LASF8618
     /tmp/ccghGiGC.s:96455  .debug_str:000000000001cdbb .LASF8619
     /tmp/ccghGiGC.s:108569  .debug_str:000000000004ecbe .LASF8620
     /tmp/ccghGiGC.s:91805  .debug_str:000000000000a2a4 .LASF8621
     /tmp/ccghGiGC.s:106263  .debug_str:000000000004523e .LASF8622
     /tmp/ccghGiGC.s:95597  .debug_str:00000000000191be .LASF8623
     /tmp/ccghGiGC.s:106227  .debug_str:000000000004500f .LASF8624
     /tmp/ccghGiGC.s:107251  .debug_str:0000000000049256 .LASF8625
     /tmp/ccghGiGC.s:101207  .debug_str:00000000000303da .LASF8626
     /tmp/ccghGiGC.s:94279  .debug_str:0000000000013d94 .LASF8627
     /tmp/ccghGiGC.s:91945  .debug_str:000000000000abcf .LASF8628
     /tmp/ccghGiGC.s:94203  .debug_str:00000000000138d3 .LASF8629
     /tmp/ccghGiGC.s:105697  .debug_str:0000000000042d50 .LASF8630
     /tmp/ccghGiGC.s:100835  .debug_str:000000000002ebb1 .LASF8631
     /tmp/ccghGiGC.s:97397  .debug_str:0000000000020fbe .LASF8632
     /tmp/ccghGiGC.s:93525  .debug_str:0000000000010c9f .LASF8633
     /tmp/ccghGiGC.s:107991  .debug_str:000000000004c40d .LASF8634
     /tmp/ccghGiGC.s:102693  .debug_str:000000000003677d .LASF8635
     /tmp/ccghGiGC.s:108039  .debug_str:000000000004c751 .LASF8636
     /tmp/ccghGiGC.s:108355  .debug_str:000000000004ddce .LASF8637
     /tmp/ccghGiGC.s:92519  .debug_str:000000000000d3d6 .LASF8638
     /tmp/ccghGiGC.s:100913  .debug_str:000000000002f0cc .LASF8639
     /tmp/ccghGiGC.s:104783  .debug_str:000000000003ec81 .LASF8640
     /tmp/ccghGiGC.s:103171  .debug_str:00000000000385eb .LASF8641
     /tmp/ccghGiGC.s:90877  .debug_str:000000000000634b .LASF8642
     /tmp/ccghGiGC.s:107925  .debug_str:000000000004bfc5 .LASF8643
     /tmp/ccghGiGC.s:101329  .debug_str:0000000000030c12 .LASF8644
     /tmp/ccghGiGC.s:106613  .debug_str:00000000000468ac .LASF8645
     /tmp/ccghGiGC.s:97901  .debug_str:000000000002312a .LASF8646
     /tmp/ccghGiGC.s:100821  .debug_str:000000000002eaf9 .LASF8647
     /tmp/ccghGiGC.s:96235  .debug_str:000000000001bdfa .LASF8648
     /tmp/ccghGiGC.s:106137  .debug_str:00000000000449a3 .LASF8649
     /tmp/ccghGiGC.s:108071  .debug_str:000000000004c977 .LASF8650
     /tmp/ccghGiGC.s:103689  .debug_str:000000000003a14c .LASF8651
     /tmp/ccghGiGC.s:101739  .debug_str:0000000000032625 .LASF8652
     /tmp/ccghGiGC.s:106123  .debug_str:0000000000044903 .LASF8653
     /tmp/ccghGiGC.s:100271  .debug_str:000000000002c7b8 .LASF8654
     /tmp/ccghGiGC.s:95433  .debug_str:00000000000187b1 .LASF8655
     /tmp/ccghGiGC.s:93859  .debug_str:00000000000121c5 .LASF8656
     /tmp/ccghGiGC.s:98329  .debug_str:0000000000024d8b .LASF8657
     /tmp/ccghGiGC.s:92571  .debug_str:000000000000d707 .LASF8658
     /tmp/ccghGiGC.s:99849  .debug_str:000000000002ad67 .LASF8659
     /tmp/ccghGiGC.s:95283  .debug_str:0000000000017e7f .LASF8660
     /tmp/ccghGiGC.s:92587  .debug_str:000000000000d820 .LASF8661
     /tmp/ccghGiGC.s:104567  .debug_str:000000000003dd74 .LASF8662
     /tmp/ccghGiGC.s:96367  .debug_str:000000000001c78c .LASF8663
     /tmp/ccghGiGC.s:107495  .debug_str:000000000004a25b .LASF8664
     /tmp/ccghGiGC.s:104805  .debug_str:000000000003ee03 .LASF8665
     /tmp/ccghGiGC.s:96515  .debug_str:000000000001d1ea .LASF8666
     /tmp/ccghGiGC.s:107981  .debug_str:000000000004c369 .LASF8667
     /tmp/ccghGiGC.s:91553  .debug_str:000000000000916b .LASF8668
     /tmp/ccghGiGC.s:97785  .debug_str:0000000000022943 .LASF8669
     /tmp/ccghGiGC.s:103591  .debug_str:0000000000039be8 .LASF8670
     /tmp/ccghGiGC.s:105387  .debug_str:0000000000041533 .LASF8671
     /tmp/ccghGiGC.s:93469  .debug_str:00000000000109f7 .LASF8672
     /tmp/ccghGiGC.s:103231  .debug_str:00000000000388e5 .LASF8673
     /tmp/ccghGiGC.s:90209  .debug_str:0000000000003668 .LASF8674
     /tmp/ccghGiGC.s:100211  .debug_str:000000000002c489 .LASF8675
     /tmp/ccghGiGC.s:108121  .debug_str:000000000004ccdf .LASF8676
     /tmp/ccghGiGC.s:104717  .debug_str:000000000003e7d1 .LASF8677
     /tmp/ccghGiGC.s:102941  .debug_str:00000000000377bc .LASF8678
     /tmp/ccghGiGC.s:107701  .debug_str:000000000004afd6 .LASF8679
     /tmp/ccghGiGC.s:93717  .debug_str:00000000000117eb .LASF8680
     /tmp/ccghGiGC.s:91435  .debug_str:000000000000892f .LASF8681
     /tmp/ccghGiGC.s:105213  .debug_str:00000000000406a2 .LASF8682
     /tmp/ccghGiGC.s:92603  .debug_str:000000000000d910 .LASF8683
     /tmp/ccghGiGC.s:108499  .debug_str:000000000004e83b .LASF8684
     /tmp/ccghGiGC.s:108913  .debug_str:00000000000503a2 .LASF8685
     /tmp/ccghGiGC.s:91659  .debug_str:0000000000009856 .LASF8686
     /tmp/ccghGiGC.s:99281  .debug_str:00000000000287d2 .LASF8687
     /tmp/ccghGiGC.s:91551  .debug_str:0000000000009146 .LASF8688
     /tmp/ccghGiGC.s:95613  .debug_str:00000000000192a3 .LASF8689
     /tmp/ccghGiGC.s:92053  .debug_str:000000000000b3be .LASF8690
     /tmp/ccghGiGC.s:94729  .debug_str:0000000000015984 .LASF8691
     /tmp/ccghGiGC.s:95315  .debug_str:0000000000018042 .LASF8692
     /tmp/ccghGiGC.s:92055  .debug_str:000000000000b3d0 .LASF8693
     /tmp/ccghGiGC.s:108019  .debug_str:000000000004c5c8 .LASF8694
     /tmp/ccghGiGC.s:92565  .debug_str:000000000000d6bf .LASF8695
     /tmp/ccghGiGC.s:92091  .debug_str:000000000000b67e .LASF8696
     /tmp/ccghGiGC.s:92347  .debug_str:000000000000c79c .LASF8697
     /tmp/ccghGiGC.s:96791  .debug_str:000000000001e523 .LASF8698
     /tmp/ccghGiGC.s:104243  .debug_str:000000000003c80a .LASF8699
     /tmp/ccghGiGC.s:102423  .debug_str:000000000003541c .LASF8700
     /tmp/ccghGiGC.s:100101  .debug_str:000000000002bd4c .LASF8701
     /tmp/ccghGiGC.s:95269  .debug_str:0000000000017db4 .LASF8702
     /tmp/ccghGiGC.s:103349  .debug_str:0000000000039004 .LASF8703
     /tmp/ccghGiGC.s:100509  .debug_str:000000000002d65e .LASF8704
     /tmp/ccghGiGC.s:97675  .debug_str:000000000002224f .LASF8705
     /tmp/ccghGiGC.s:105585  .debug_str:00000000000424ee .LASF8706
     /tmp/ccghGiGC.s:90613  .debug_str:000000000000521f .LASF8707
     /tmp/ccghGiGC.s:102699  .debug_str:00000000000367d4 .LASF8708
     /tmp/ccghGiGC.s:103819  .debug_str:000000000003aa41 .LASF8709
     /tmp/ccghGiGC.s:97057  .debug_str:000000000001f7d0 .LASF8710
     /tmp/ccghGiGC.s:100959  .debug_str:000000000002f332 .LASF8711
     /tmp/ccghGiGC.s:91169  .debug_str:0000000000007747 .LASF8712
     /tmp/ccghGiGC.s:99399  .debug_str:0000000000029071 .LASF8713
     /tmp/ccghGiGC.s:108013  .debug_str:000000000004c540 .LASF8714
     /tmp/ccghGiGC.s:106247  .debug_str:0000000000045121 .LASF8715
     /tmp/ccghGiGC.s:98445  .debug_str:00000000000254e1 .LASF8716
     /tmp/ccghGiGC.s:107093  .debug_str:0000000000048851 .LASF8717
     /tmp/ccghGiGC.s:92533  .debug_str:000000000000d4d5 .LASF8718
     /tmp/ccghGiGC.s:96159  .debug_str:000000000001b83f .LASF8719
     /tmp/ccghGiGC.s:95067  .debug_str:0000000000016f8d .LASF8720
     /tmp/ccghGiGC.s:102881  .debug_str:00000000000373a0 .LASF8721
     /tmp/ccghGiGC.s:91883  .debug_str:000000000000a801 .LASF8722
     /tmp/ccghGiGC.s:105783  .debug_str:000000000004327a .LASF8723
     /tmp/ccghGiGC.s:93875  .debug_str:0000000000012306 .LASF8724
     /tmp/ccghGiGC.s:90069  .debug_str:0000000000002d9e .LASF8725
     /tmp/ccghGiGC.s:97275  .debug_str:0000000000020796 .LASF8726
     /tmp/ccghGiGC.s:96495  .debug_str:000000000001d0a3 .LASF8727
     /tmp/ccghGiGC.s:101023  .debug_str:000000000002f869 .LASF8728
     /tmp/ccghGiGC.s:105055  .debug_str:000000000003fd76 .LASF8729
     /tmp/ccghGiGC.s:108161  .debug_str:000000000004d007 .LASF8730
     /tmp/ccghGiGC.s:103777  .debug_str:000000000003a758 .LASF8731
     /tmp/ccghGiGC.s:103555  .debug_str:000000000003999c .LASF8732
     /tmp/ccghGiGC.s:105239  .debug_str:000000000004088f .LASF8733
     /tmp/ccghGiGC.s:108543  .debug_str:000000000004eaed .LASF8734
     /tmp/ccghGiGC.s:96285  .debug_str:000000000001c16c .LASF8735
     /tmp/ccghGiGC.s:103661  .debug_str:0000000000039ff6 .LASF8736
     /tmp/ccghGiGC.s:90625  .debug_str:0000000000005294 .LASF8737
     /tmp/ccghGiGC.s:104737  .debug_str:000000000003e954 .LASF8738
     /tmp/ccghGiGC.s:98607  .debug_str:0000000000025d69 .LASF8739
     /tmp/ccghGiGC.s:96119  .debug_str:000000000001b5a9 .LASF8740
     /tmp/ccghGiGC.s:94243  .debug_str:0000000000013b69 .LASF8741
     /tmp/ccghGiGC.s:95157  .debug_str:0000000000017552 .LASF8742
     /tmp/ccghGiGC.s:101755  .debug_str:00000000000327d1 .LASF8743
     /tmp/ccghGiGC.s:100165  .debug_str:000000000002c176 .LASF8744
     /tmp/ccghGiGC.s:105229  .debug_str:00000000000407df .LASF8745
     /tmp/ccghGiGC.s:95747  .debug_str:0000000000019c53 .LASF8746
     /tmp/ccghGiGC.s:99591  .debug_str:0000000000029cc7 .LASF8747
     /tmp/ccghGiGC.s:90477  .debug_str:00000000000048e0 .LASF8748
     /tmp/ccghGiGC.s:90733  .debug_str:00000000000059de .LASF8749
     /tmp/ccghGiGC.s:92725  .debug_str:000000000000dfad .LASF8750
     /tmp/ccghGiGC.s:90897  .debug_str:00000000000064aa .LASF8751
     /tmp/ccghGiGC.s:92617  .debug_str:000000000000da03 .LASF8752
     /tmp/ccghGiGC.s:91517  .debug_str:0000000000008eb6 .LASF8753
     /tmp/ccghGiGC.s:99923  .debug_str:000000000002b272 .LASF8754
     /tmp/ccghGiGC.s:107379  .debug_str:0000000000049a90 .LASF8755
     /tmp/ccghGiGC.s:91673  .debug_str:0000000000009951 .LASF8756
     /tmp/ccghGiGC.s:107147  .debug_str:0000000000048b8b .LASF8757
     /tmp/ccghGiGC.s:107405  .debug_str:0000000000049c43 .LASF8758
     /tmp/ccghGiGC.s:91697  .debug_str:0000000000009b42 .LASF8759
     /tmp/ccghGiGC.s:106817  .debug_str:0000000000047588 .LASF8760
     /tmp/ccghGiGC.s:104903  .debug_str:000000000003f3cc .LASF8761
     /tmp/ccghGiGC.s:93449  .debug_str:00000000000108ef .LASF8762
     /tmp/ccghGiGC.s:103507  .debug_str:00000000000397b5 .LASF8763
     /tmp/ccghGiGC.s:92469  .debug_str:000000000000d03e .LASF8764
     /tmp/ccghGiGC.s:104973  .debug_str:000000000003f808 .LASF8765
     /tmp/ccghGiGC.s:106225  .debug_str:0000000000044fe6 .LASF8766
     /tmp/ccghGiGC.s:100377  .debug_str:000000000002ce54 .LASF8767
     /tmp/ccghGiGC.s:105935  .debug_str:0000000000043cb0 .LASF8768
     /tmp/ccghGiGC.s:89645  .debug_str:0000000000000f50 .LASF8769
     /tmp/ccghGiGC.s:94901  .debug_str:0000000000016421 .LASF8770
     /tmp/ccghGiGC.s:92019  .debug_str:000000000000b0cf .LASF8771
     /tmp/ccghGiGC.s:95547  .debug_str:0000000000018dea .LASF8772
     /tmp/ccghGiGC.s:100983  .debug_str:000000000002f50a .LASF8773
     /tmp/ccghGiGC.s:90627  .debug_str:00000000000052a8 .LASF8774
     /tmp/ccghGiGC.s:91989  .debug_str:000000000000af19 .LASF8775
     /tmp/ccghGiGC.s:103021  .debug_str:0000000000037d09 .LASF8776
     /tmp/ccghGiGC.s:90095  .debug_str:0000000000002f53 .LASF8777
     /tmp/ccghGiGC.s:95311  .debug_str:0000000000018001 .LASF8778
     /tmp/ccghGiGC.s:102759  .debug_str:0000000000036bee .LASF8779
     /tmp/ccghGiGC.s:101241  .debug_str:0000000000030608 .LASF8780
     /tmp/ccghGiGC.s:91291  .debug_str:0000000000007f5a .LASF8781
     /tmp/ccghGiGC.s:108425  .debug_str:000000000004e321 .LASF8782
     /tmp/ccghGiGC.s:99223  .debug_str:00000000000283ff .LASF8783
     /tmp/ccghGiGC.s:91779  .debug_str:000000000000a0d0 .LASF8784
     /tmp/ccghGiGC.s:101799  .debug_str:0000000000032a84 .LASF8785
     /tmp/ccghGiGC.s:108083  .debug_str:000000000004ca4f .LASF8786
     /tmp/ccghGiGC.s:100739  .debug_str:000000000002e556 .LASF8787
     /tmp/ccghGiGC.s:97679  .debug_str:000000000002229e .LASF8788
     /tmp/ccghGiGC.s:108275  .debug_str:000000000004d750 .LASF8789
     /tmp/ccghGiGC.s:90233  .debug_str:000000000000380c .LASF8790
     /tmp/ccghGiGC.s:90657  .debug_str:0000000000005483 .LASF8791
     /tmp/ccghGiGC.s:94611  .debug_str:00000000000151ee .LASF8792
     /tmp/ccghGiGC.s:104119  .debug_str:000000000003beb3 .LASF8793
     /tmp/ccghGiGC.s:102525  .debug_str:0000000000035bdf .LASF8794
     /tmp/ccghGiGC.s:102651  .debug_str:0000000000036474 .LASF8795
     /tmp/ccghGiGC.s:97429  .debug_str:0000000000021184 .LASF8796
     /tmp/ccghGiGC.s:104675  .debug_str:000000000003e54a .LASF8797
     /tmp/ccghGiGC.s:95227  .debug_str:0000000000017a78 .LASF8798
     /tmp/ccghGiGC.s:93071  .debug_str:000000000000f337 .LASF8799
     /tmp/ccghGiGC.s:96027  .debug_str:000000000001afb8 .LASF8800
     /tmp/ccghGiGC.s:91297  .debug_str:0000000000007fcb .LASF8801
     /tmp/ccghGiGC.s:91813  .debug_str:000000000000a35b .LASF8802
     /tmp/ccghGiGC.s:93779  .debug_str:0000000000011c4b .LASF8803
     /tmp/ccghGiGC.s:107587  .debug_str:000000000004a772 .LASF8804
     /tmp/ccghGiGC.s:96259  .debug_str:000000000001bf5d .LASF8805
     /tmp/ccghGiGC.s:102767  .debug_str:0000000000036c73 .LASF8806
     /tmp/ccghGiGC.s:95569  .debug_str:0000000000018fd8 .LASF8807
     /tmp/ccghGiGC.s:99301  .debug_str:0000000000028956 .LASF8808
     /tmp/ccghGiGC.s:97949  .debug_str:0000000000023415 .LASF8809
     /tmp/ccghGiGC.s:105417  .debug_str:000000000004174e .LASF8810
     /tmp/ccghGiGC.s:108719  .debug_str:000000000004f63b .LASF8811
     /tmp/ccghGiGC.s:106051  .debug_str:0000000000044443 .LASF8812
     /tmp/ccghGiGC.s:96071  .debug_str:000000000001b2e1 .LASF8813
     /tmp/ccghGiGC.s:101701  .debug_str:0000000000032357 .LASF8814
     /tmp/ccghGiGC.s:92817  .debug_str:000000000000e586 .LASF8815
     /tmp/ccghGiGC.s:94849  .debug_str:00000000000160d3 .LASF8816
     /tmp/ccghGiGC.s:100795  .debug_str:000000000002e8cc .LASF8817
     /tmp/ccghGiGC.s:104701  .debug_str:000000000003e6e1 .LASF8818
     /tmp/ccghGiGC.s:107961  .debug_str:000000000004c24d .LASF8819
     /tmp/ccghGiGC.s:93027  .debug_str:000000000000effc .LASF8820
     /tmp/ccghGiGC.s:93459  .debug_str:0000000000010991 .LASF8821
     /tmp/ccghGiGC.s:104161  .debug_str:000000000003c1e0 .LASF8822
     /tmp/ccghGiGC.s:103955  .debug_str:000000000003b3bf .LASF8823
     /tmp/ccghGiGC.s:93461  .debug_str:00000000000109a1 .LASF8824
     /tmp/ccghGiGC.s:104163  .debug_str:000000000003c1f0 .LASF8825
     /tmp/ccghGiGC.s:90667  .debug_str:0000000000005536 .LASF8826
     /tmp/ccghGiGC.s:95029  .debug_str:0000000000016d2f .LASF8827
     /tmp/ccghGiGC.s:95343  .debug_str:00000000000181cc .LASF8828
     /tmp/ccghGiGC.s:91135  .debug_str:0000000000007595 .LASF8829
     /tmp/ccghGiGC.s:104295  .debug_str:000000000003cba2 .LASF8830
     /tmp/ccghGiGC.s:95345  .debug_str:00000000000181dc .LASF8831
     /tmp/ccghGiGC.s:104535  .debug_str:000000000003daa1 .LASF8832
     /tmp/ccghGiGC.s:104297  .debug_str:000000000003cbb2 .LASF8833
     /tmp/ccghGiGC.s:95347  .debug_str:00000000000181ec .LASF8834
     /tmp/ccghGiGC.s:98319  .debug_str:0000000000024c9e .LASF8835
     /tmp/ccghGiGC.s:104299  .debug_str:000000000003cbc2 .LASF8836
     /tmp/ccghGiGC.s:95349  .debug_str:00000000000181fc .LASF8837
     /tmp/ccghGiGC.s:100965  .debug_str:000000000002f3e5 .LASF8838
     /tmp/ccghGiGC.s:104301  .debug_str:000000000003cbd2 .LASF8839
     /tmp/ccghGiGC.s:95351  .debug_str:000000000001820c .LASF8840
     /tmp/ccghGiGC.s:105475  .debug_str:0000000000041ad7 .LASF8841
     /tmp/ccghGiGC.s:97531  .debug_str:0000000000021874 .LASF8842
     /tmp/ccghGiGC.s:100797  .debug_str:000000000002e8ed .LASF8843
     /tmp/ccghGiGC.s:94389  .debug_str:0000000000014440 .LASF8844
     /tmp/ccghGiGC.s:94701  .debug_str:0000000000015782 .LASF8845
     /tmp/ccghGiGC.s:104293  .debug_str:000000000003cb92 .LASF8846
     /tmp/ccghGiGC.s:94457  .debug_str:0000000000014903 .LASF8847
     /tmp/ccghGiGC.s:90429  .debug_str:0000000000004605 .LASF8848
     /tmp/ccghGiGC.s:92371  .debug_str:000000000000c987 .LASF8849
     /tmp/ccghGiGC.s:108141  .debug_str:000000000004ce96 .LASF8850
     /tmp/ccghGiGC.s:90431  .debug_str:000000000000461b .LASF8851
     /tmp/ccghGiGC.s:92373  .debug_str:000000000000c99d .LASF8852
     /tmp/ccghGiGC.s:100981  .debug_str:000000000002f4e0 .LASF8853
     /tmp/ccghGiGC.s:90433  .debug_str:0000000000004631 .LASF8854
     /tmp/ccghGiGC.s:92375  .debug_str:000000000000c9b3 .LASF8855
     /tmp/ccghGiGC.s:94713  .debug_str:000000000001587c .LASF8856
     /tmp/ccghGiGC.s:90435  .debug_str:0000000000004647 .LASF8857
     /tmp/ccghGiGC.s:92377  .debug_str:000000000000c9c9 .LASF8858
     /tmp/ccghGiGC.s:108001  .debug_str:000000000004c4b7 .LASF8859
     /tmp/ccghGiGC.s:90437  .debug_str:000000000000465d .LASF8860
     /tmp/ccghGiGC.s:92379  .debug_str:000000000000c9df .LASF8861
     /tmp/ccghGiGC.s:102131  .debug_str:00000000000340a0 .LASF8862
     /tmp/ccghGiGC.s:90439  .debug_str:0000000000004673 .LASF8863
     /tmp/ccghGiGC.s:92381  .debug_str:000000000000c9f5 .LASF8864
     /tmp/ccghGiGC.s:95871  .debug_str:000000000001a488 .LASF8865
     /tmp/ccghGiGC.s:90441  .debug_str:0000000000004689 .LASF8866
     /tmp/ccghGiGC.s:92383  .debug_str:000000000000ca0b .LASF8867
     /tmp/ccghGiGC.s:89655  .debug_str:0000000000001005 .LASF8868
     /tmp/ccghGiGC.s:107041  .debug_str:00000000000484ec .LASF8869
     /tmp/ccghGiGC.s:92385  .debug_str:000000000000ca21 .LASF8870
     /tmp/ccghGiGC.s:103077  .debug_str:0000000000037fbe .LASF8871
     /tmp/ccghGiGC.s:105171  .debug_str:0000000000040465 .LASF8872
     /tmp/ccghGiGC.s:100701  .debug_str:000000000002e2d0 .LASF8873
     /tmp/ccghGiGC.s:104387  .debug_str:000000000003d10e .LASF8874
     /tmp/ccghGiGC.s:94363  .debug_str:00000000000142e8 .LASF8875
     /tmp/ccghGiGC.s:103517  .debug_str:000000000003981c .LASF8876
     /tmp/ccghGiGC.s:98191  .debug_str:0000000000024508 .LASF8877
     /tmp/ccghGiGC.s:95921  .debug_str:000000000001a828 .LASF8878
     /tmp/ccghGiGC.s:91419  .debug_str:000000000000887a .LASF8879
     /tmp/ccghGiGC.s:98509  .debug_str:0000000000025815 .LASF8880
     /tmp/ccghGiGC.s:97339  .debug_str:0000000000020c24 .LASF8881
     /tmp/ccghGiGC.s:102229  .debug_str:00000000000346fd .LASF8882
     /tmp/ccghGiGC.s:107639  .debug_str:000000000004ab9f .LASF8883
     /tmp/ccghGiGC.s:104905  .debug_str:000000000003f3d9 .LASF8884
     /tmp/ccghGiGC.s:99153  .debug_str:0000000000027f98 .LASF8885
     /tmp/ccghGiGC.s:103749  .debug_str:000000000003a576 .LASF8886
     /tmp/ccghGiGC.s:106039  .debug_str:0000000000044352 .LASF8887
     /tmp/ccghGiGC.s:105871  .debug_str:0000000000043867 .LASF8888
     /tmp/ccghGiGC.s:95885  .debug_str:000000000001a5b4 .LASF8889
     /tmp/ccghGiGC.s:98119  .debug_str:0000000000024024 .LASF8890
     /tmp/ccghGiGC.s:93655  .debug_str:00000000000114cf .LASF8891
     /tmp/ccghGiGC.s:94055  .debug_str:0000000000012e7d .LASF8892
     /tmp/ccghGiGC.s:98207  .debug_str:0000000000024619 .LASF8893
     /tmp/ccghGiGC.s:93787  .debug_str:0000000000011cc3 .LASF8894
     /tmp/ccghGiGC.s:100195  .debug_str:000000000002c38d .LASF8895
     /tmp/ccghGiGC.s:94529  .debug_str:0000000000014cd1 .LASF8896
     /tmp/ccghGiGC.s:93907  .debug_str:0000000000012533 .LASF8897
     /tmp/ccghGiGC.s:92171  .debug_str:000000000000bc33 .LASF8898
     /tmp/ccghGiGC.s:105695  .debug_str:0000000000042d45 .LASF8899
     /tmp/ccghGiGC.s:105959  .debug_str:0000000000043e2e .LASF8900
     /tmp/ccghGiGC.s:99875  .debug_str:000000000002aea9 .LASF8901
     /tmp/ccghGiGC.s:104349  .debug_str:000000000003ced2 .LASF8902
     /tmp/ccghGiGC.s:108731  .debug_str:000000000004f6f4 .LASF8903
     /tmp/ccghGiGC.s:103773  .debug_str:000000000003a716 .LASF8904
     /tmp/ccghGiGC.s:105707  .debug_str:0000000000042dc9 .LASF8905
     /tmp/ccghGiGC.s:99347  .debug_str:0000000000028d11 .LASF8906
     /tmp/ccghGiGC.s:99233  .debug_str:0000000000028480 .LASF8907
     /tmp/ccghGiGC.s:93355  .debug_str:000000000001039b .LASF8908
     /tmp/ccghGiGC.s:108149  .debug_str:000000000004cf27 .LASF8909
     /tmp/ccghGiGC.s:108135  .debug_str:000000000004cdec .LASF8910
     /tmp/ccghGiGC.s:104515  .debug_str:000000000003d97b .LASF8911
     /tmp/ccghGiGC.s:99821  .debug_str:000000000002ab6f .LASF8912
     /tmp/ccghGiGC.s:99915  .debug_str:000000000002b1c3 .LASF8913
     /tmp/ccghGiGC.s:102173  .debug_str:0000000000034334 .LASF8914
     /tmp/ccghGiGC.s:108585  .debug_str:000000000004ed62 .LASF8915
     /tmp/ccghGiGC.s:99535  .debug_str:00000000000298d4 .LASF8916
     /tmp/ccghGiGC.s:93305  .debug_str:000000000001018c .LASF8917
     /tmp/ccghGiGC.s:104421  .debug_str:000000000003d35d .LASF8918
     /tmp/ccghGiGC.s:108845  .debug_str:000000000004ff46 .LASF8919
     /tmp/ccghGiGC.s:105043  .debug_str:000000000003fcbc .LASF8920
     /tmp/ccghGiGC.s:91293  .debug_str:0000000000007f81 .LASF8921
     /tmp/ccghGiGC.s:99783  .debug_str:000000000002a9bb .LASF8922
     /tmp/ccghGiGC.s:104319  .debug_str:000000000003ccf4 .LASF8923
     /tmp/ccghGiGC.s:90127  .debug_str:00000000000031d7 .LASF8924
     /tmp/ccghGiGC.s:90387  .debug_str:00000000000042c6 .LASF8925
     /tmp/ccghGiGC.s:104321  .debug_str:000000000003cd0d .LASF8926
     /tmp/ccghGiGC.s:90129  .debug_str:00000000000031f0 .LASF8927
     /tmp/ccghGiGC.s:96747  .debug_str:000000000001e200 .LASF8928
     /tmp/ccghGiGC.s:104323  .debug_str:000000000003cd26 .LASF8929
     /tmp/ccghGiGC.s:90131  .debug_str:0000000000003209 .LASF8930
     /tmp/ccghGiGC.s:97633  .debug_str:0000000000022022 .LASF8931
     /tmp/ccghGiGC.s:103719  .debug_str:000000000003a2fc .LASF8932
     /tmp/ccghGiGC.s:90133  .debug_str:0000000000003222 .LASF8933
     /tmp/ccghGiGC.s:91353  .debug_str:0000000000008358 .LASF8934
     /tmp/ccghGiGC.s:104327  .debug_str:000000000003cd46 .LASF8935
     /tmp/ccghGiGC.s:90135  .debug_str:000000000000323b .LASF8936
     /tmp/ccghGiGC.s:104733  .debug_str:000000000003e8f3 .LASF8937
     /tmp/ccghGiGC.s:106381  .debug_str:00000000000459dd .LASF8938
     /tmp/ccghGiGC.s:105855  .debug_str:000000000004377b .LASF8939
     /tmp/ccghGiGC.s:100291  .debug_str:000000000002c8e5 .LASF8940
     /tmp/ccghGiGC.s:95509  .debug_str:0000000000018bd8 .LASF8941
     /tmp/ccghGiGC.s:98093  .debug_str:0000000000023e73 .LASF8942
     /tmp/ccghGiGC.s:98117  .debug_str:0000000000024003 .LASF8943
     /tmp/ccghGiGC.s:100229  .debug_str:000000000002c579 .LASF8944
     /tmp/ccghGiGC.s:94235  .debug_str:0000000000013ad5 .LASF8945
     /tmp/ccghGiGC.s:98183  .debug_str:0000000000024479 .LASF8946
     /tmp/ccghGiGC.s:92679  .debug_str:000000000000dda8 .LASF8947
     /tmp/ccghGiGC.s:101567  .debug_str:0000000000031b56 .LASF8948
     /tmp/ccghGiGC.s:101717  .debug_str:000000000003245f .LASF8949
     /tmp/ccghGiGC.s:96409  .debug_str:000000000001caa3 .LASF8950
     /tmp/ccghGiGC.s:106489  .debug_str:00000000000460fb .LASF8951
     /tmp/ccghGiGC.s:102075  .debug_str:0000000000033d13 .LASF8952
     /tmp/ccghGiGC.s:101087  .debug_str:000000000002fcb4 .LASF8953
     /tmp/ccghGiGC.s:94415  .debug_str:0000000000014608 .LASF8954
     /tmp/ccghGiGC.s:98249  .debug_str:000000000002493f .LASF8955
     /tmp/ccghGiGC.s:95625  .debug_str:000000000001934a .LASF8956
     /tmp/ccghGiGC.s:94943  .debug_str:00000000000166d2 .LASF8957
     /tmp/ccghGiGC.s:104557  .debug_str:000000000003dcc6 .LASF8958
     /tmp/ccghGiGC.s:95523  .debug_str:0000000000018cb2 .LASF8959
     /tmp/ccghGiGC.s:94997  .debug_str:0000000000016ab4 .LASF8960
     /tmp/ccghGiGC.s:103929  .debug_str:000000000003b206 .LASF8961
     /tmp/ccghGiGC.s:90381  .debug_str:0000000000004252 .LASF8962
     /tmp/ccghGiGC.s:97795  .debug_str:00000000000229fa .LASF8963
     /tmp/ccghGiGC.s:97533  .debug_str:0000000000021889 .LASF8964
     /tmp/ccghGiGC.s:90445  .debug_str:00000000000046a8 .LASF8965
     /tmp/ccghGiGC.s:101179  .debug_str:000000000003026e .LASF8966
     /tmp/ccghGiGC.s:108309  .debug_str:000000000004d9d6 .LASF8967
     /tmp/ccghGiGC.s:91333  .debug_str:00000000000081f2 .LASF8968
     /tmp/ccghGiGC.s:99401  .debug_str:0000000000029094 .LASF8969
     /tmp/ccghGiGC.s:107715  .debug_str:000000000004b0b4 .LASF8970
     /tmp/ccghGiGC.s:102281  .debug_str:00000000000349e5 .LASF8971
     /tmp/ccghGiGC.s:107303  .debug_str:00000000000495bc .LASF8972
     /tmp/ccghGiGC.s:100105  .debug_str:000000000002bd70 .LASF8973
     /tmp/ccghGiGC.s:91213  .debug_str:0000000000007a8a .LASF8974
     /tmp/ccghGiGC.s:107355  .debug_str:00000000000498f9 .LASF8975
     /tmp/ccghGiGC.s:96779  .debug_str:000000000001e426 .LASF8976
     /tmp/ccghGiGC.s:91215  .debug_str:0000000000007a9d .LASF8977
     /tmp/ccghGiGC.s:96923  .debug_str:000000000001ee4d .LASF8978
     /tmp/ccghGiGC.s:106685  .debug_str:0000000000046cad .LASF8979
     /tmp/ccghGiGC.s:102539  .debug_str:0000000000035cc7 .LASF8980
     /tmp/ccghGiGC.s:90723  .debug_str:000000000000594b .LASF8981
     /tmp/ccghGiGC.s:105635  .debug_str:00000000000428f5 .LASF8982
     /tmp/ccghGiGC.s:102541  .debug_str:0000000000035cdb .LASF8983
     /tmp/ccghGiGC.s:90725  .debug_str:000000000000595f .LASF8984
     /tmp/ccghGiGC.s:99529  .debug_str:0000000000029872 .LASF8985
     /tmp/ccghGiGC.s:102543  .debug_str:0000000000035cef .LASF8986
     /tmp/ccghGiGC.s:90727  .debug_str:0000000000005973 .LASF8987
     /tmp/ccghGiGC.s:93401  .debug_str:0000000000010626 .LASF8988
     /tmp/ccghGiGC.s:102545  .debug_str:0000000000035d03 .LASF8989
     /tmp/ccghGiGC.s:97637  .debug_str:0000000000022056 .LASF8990
     /tmp/ccghGiGC.s:92923  .debug_str:000000000000eaae .LASF8991
     /tmp/ccghGiGC.s:102547  .debug_str:0000000000035d17 .LASF8992
     /tmp/ccghGiGC.s:90731  .debug_str:00000000000059ca .LASF8993
     /tmp/ccghGiGC.s:100555  .debug_str:000000000002d930 .LASF8994
     /tmp/ccghGiGC.s:95073  .debug_str:0000000000016fe0 .LASF8995
     /tmp/ccghGiGC.s:98089  .debug_str:0000000000023e4f .LASF8996
     /tmp/ccghGiGC.s:90047  .debug_str:0000000000002c2d .LASF8997
     /tmp/ccghGiGC.s:91307  .debug_str:0000000000008059 .LASF8998
     /tmp/ccghGiGC.s:98091  .debug_str:0000000000023e61 .LASF8999
     /tmp/ccghGiGC.s:98641  .debug_str:0000000000025fbf .LASF9000
     /tmp/ccghGiGC.s:91309  .debug_str:000000000000806b .LASF9001
     /tmp/ccghGiGC.s:92315  .debug_str:000000000000c594 .LASF9002
     /tmp/ccghGiGC.s:108571  .debug_str:000000000004eccf .LASF9003
     /tmp/ccghGiGC.s:89805  .debug_str:0000000000001b1f .LASF9004
     /tmp/ccghGiGC.s:90821  .debug_str:0000000000005fc8 .LASF9005
     /tmp/ccghGiGC.s:107135  .debug_str:0000000000048b03 .LASF9006
     /tmp/ccghGiGC.s:89807  .debug_str:0000000000001b31 .LASF9007
     /tmp/ccghGiGC.s:90823  .debug_str:0000000000005fda .LASF9008
     /tmp/ccghGiGC.s:101057  .debug_str:000000000002fa85 .LASF9009
     /tmp/ccghGiGC.s:106117  .debug_str:00000000000448b7 .LASF9010
     /tmp/ccghGiGC.s:90825  .debug_str:0000000000005fec .LASF9011
     /tmp/ccghGiGC.s:94781  .debug_str:0000000000015d81 .LASF9012
     /tmp/ccghGiGC.s:107297  .debug_str:0000000000049588 .LASF9013
     /tmp/ccghGiGC.s:101047  .debug_str:000000000002fa24 .LASF9014
     /tmp/ccghGiGC.s:97399  .debug_str:0000000000020fc9 .LASF9015
     /tmp/ccghGiGC.s:105951  .debug_str:0000000000043da7 .LASF9016
     /tmp/ccghGiGC.s:107527  .debug_str:000000000004a426 .LASF9017
     /tmp/ccghGiGC.s:101177  .debug_str:0000000000030248 .LASF9018
     /tmp/ccghGiGC.s:89913  .debug_str:0000000000002319 .LASF9019
     /tmp/ccghGiGC.s:102303  .debug_str:0000000000034b8d .LASF9020
     /tmp/ccghGiGC.s:102713  .debug_str:00000000000368d1 .LASF9021
     /tmp/ccghGiGC.s:94019  .debug_str:0000000000012c07 .LASF9022
     /tmp/ccghGiGC.s:107803  .debug_str:000000000004b7a5 .LASF9023
     /tmp/ccghGiGC.s:99071  .debug_str:0000000000027977 .LASF9024
     /tmp/ccghGiGC.s:96559  .debug_str:000000000001d481 .LASF9025
     /tmp/ccghGiGC.s:107049  .debug_str:0000000000048571 .LASF9026
     /tmp/ccghGiGC.s:95185  .debug_str:000000000001772e .LASF9027
     /tmp/ccghGiGC.s:99737  .debug_str:000000000002a696 .LASF9028
     /tmp/ccghGiGC.s:105945  .debug_str:0000000000043d5c .LASF9029
     /tmp/ccghGiGC.s:104275  .debug_str:000000000003ca81 .LASF9030
     /tmp/ccghGiGC.s:94321  .debug_str:0000000000014020 .LASF9031
     /tmp/ccghGiGC.s:98713  .debug_str:0000000000026365 .LASF9032
     /tmp/ccghGiGC.s:98983  .debug_str:0000000000027459 .LASF9033
     /tmp/ccghGiGC.s:98583  .debug_str:0000000000025bda .LASF9034
     /tmp/ccghGiGC.s:92087  .debug_str:000000000000b618 .LASF9035
     /tmp/ccghGiGC.s:106643  .debug_str:0000000000046a3d .LASF9036
     /tmp/ccghGiGC.s:97055  .debug_str:000000000001f7b3 .LASF9037
     /tmp/ccghGiGC.s:90601  .debug_str:0000000000005141 .LASF9038
     /tmp/ccghGiGC.s:108481  .debug_str:000000000004e6b5 .LASF9039
     /tmp/ccghGiGC.s:90347  .debug_str:0000000000003ffd .LASF9040
     /tmp/ccghGiGC.s:98683  .debug_str:00000000000260f1 .LASF9041
     /tmp/ccghGiGC.s:102559  .debug_str:0000000000035e1c .LASF9042
     /tmp/ccghGiGC.s:98619  .debug_str:0000000000025e76 .LASF9043
     /tmp/ccghGiGC.s:105911  .debug_str:0000000000043b5d .LASF9044
     /tmp/ccghGiGC.s:99641  .debug_str:0000000000029ff2 .LASF9045
     /tmp/ccghGiGC.s:105337  .debug_str:00000000000410ee .LASF9046
     /tmp/ccghGiGC.s:90473  .debug_str:00000000000048b6 .LASF9047
     /tmp/ccghGiGC.s:99779  .debug_str:000000000002a962 .LASF9048
     /tmp/ccghGiGC.s:107449  .debug_str:0000000000049f80 .LASF9049
     /tmp/ccghGiGC.s:106259  .debug_str:00000000000451ff .LASF9050
     /tmp/ccghGiGC.s:108145  .debug_str:000000000004cede .LASF9051
     /tmp/ccghGiGC.s:90893  .debug_str:0000000000006471 .LASF9052
     /tmp/ccghGiGC.s:102437  .debug_str:0000000000035551 .LASF9053
     /tmp/ccghGiGC.s:98825  .debug_str:00000000000269c9 .LASF9054
     /tmp/ccghGiGC.s:92857  .debug_str:000000000000e81f .LASF9055
     /tmp/ccghGiGC.s:99057  .debug_str:000000000002789b .LASF9056
     /tmp/ccghGiGC.s:106143  .debug_str:0000000000044a0c .LASF9057
     /tmp/ccghGiGC.s:97475  .debug_str:00000000000214bb .LASF9058
     /tmp/ccghGiGC.s:101773  .debug_str:000000000003291a .LASF9059
     /tmp/ccghGiGC.s:99437  .debug_str:0000000000029334 .LASF9060
     /tmp/ccghGiGC.s:91937  .debug_str:000000000000ab54 .LASF9061
     /tmp/ccghGiGC.s:106779  .debug_str:0000000000047338 .LASF9062
     /tmp/ccghGiGC.s:107771  .debug_str:000000000004b538 .LASF9063
     /tmp/ccghGiGC.s:92881  .debug_str:000000000000e8d0 .LASF9064
     /tmp/ccghGiGC.s:97363  .debug_str:0000000000020dc4 .LASF9065
     /tmp/ccghGiGC.s:100999  .debug_str:000000000002f6a9 .LASF9066
     /tmp/ccghGiGC.s:94603  .debug_str:0000000000015148 .LASF9067
     /tmp/ccghGiGC.s:106595  .debug_str:000000000004674c .LASF9068
     /tmp/ccghGiGC.s:106723  .debug_str:0000000000046f97 .LASF9069
     /tmp/ccghGiGC.s:92273  .debug_str:000000000000c335 .LASF9070
     /tmp/ccghGiGC.s:95045  .debug_str:0000000000016e1c .LASF9071
     /tmp/ccghGiGC.s:108435  .debug_str:000000000004e399 .LASF9072
     /tmp/ccghGiGC.s:106153  .debug_str:0000000000044aa4 .LASF9073
     /tmp/ccghGiGC.s:102205  .debug_str:000000000003454c .LASF9074
     /tmp/ccghGiGC.s:100865  .debug_str:000000000002ed65 .LASF9075
     /tmp/ccghGiGC.s:96041  .debug_str:000000000001b0e4 .LASF9076
     /tmp/ccghGiGC.s:104151  .debug_str:000000000003c0f5 .LASF9077
     /tmp/ccghGiGC.s:97431  .debug_str:00000000000211a9 .LASF9078
     /tmp/ccghGiGC.s:92197  .debug_str:000000000000be49 .LASF9079
     /tmp/ccghGiGC.s:108399  .debug_str:000000000004e16b .LASF9080
     /tmp/ccghGiGC.s:104137  .debug_str:000000000003bfeb .LASF9081
     /tmp/ccghGiGC.s:107877  .debug_str:000000000004bca0 .LASF9082
     /tmp/ccghGiGC.s:93171  .debug_str:000000000000f8c5 .LASF9083
     /tmp/ccghGiGC.s:101713  .debug_str:000000000003242e .LASF9084
     /tmp/ccghGiGC.s:99603  .debug_str:0000000000029d60 .LASF9085
     /tmp/ccghGiGC.s:102865  .debug_str:0000000000037291 .LASF9086
     /tmp/ccghGiGC.s:99941  .debug_str:000000000002b36a .LASF9087
     /tmp/ccghGiGC.s:103111  .debug_str:00000000000382e4 .LASF9088
     /tmp/ccghGiGC.s:100755  .debug_str:000000000002e629 .LASF9089
     /tmp/ccghGiGC.s:103409  .debug_str:000000000003929e .LASF9090
     /tmp/ccghGiGC.s:95211  .debug_str:0000000000017923 .LASF9091
     /tmp/ccghGiGC.s:89895  .debug_str:00000000000021a9 .LASF9092
     /tmp/ccghGiGC.s:94473  .debug_str:00000000000149fa .LASF9093
     /tmp/ccghGiGC.s:92885  .debug_str:000000000000e900 .LASF9094
     /tmp/ccghGiGC.s:103227  .debug_str:00000000000388ca .LASF9095
     /tmp/ccghGiGC.s:106035  .debug_str:00000000000442f8 .LASF9096
     /tmp/ccghGiGC.s:95607  .debug_str:0000000000019244 .LASF9097
     /tmp/ccghGiGC.s:100413  .debug_str:000000000002d0da .LASF9098
     /tmp/ccghGiGC.s:91403  .debug_str:0000000000008734 .LASF9099
     /tmp/ccghGiGC.s:99359  .debug_str:0000000000028d8f .LASF9100
     /tmp/ccghGiGC.s:98159  .debug_str:00000000000242b9 .LASF9101
     /tmp/ccghGiGC.s:108243  .debug_str:000000000004d505 .LASF9102
     /tmp/ccghGiGC.s:99361  .debug_str:0000000000028dac .LASF9103
     /tmp/ccghGiGC.s:98161  .debug_str:00000000000242d6 .LASF9104
     /tmp/ccghGiGC.s:89591  .debug_str:0000000000000bba .LASF9105
     /tmp/ccghGiGC.s:104667  .debug_str:000000000003e4c5 .LASF9106
     /tmp/ccghGiGC.s:103615  .debug_str:0000000000039d9a .LASF9107
     /tmp/ccghGiGC.s:106337  .debug_str:00000000000456a0 .LASF9108
     /tmp/ccghGiGC.s:104669  .debug_str:000000000003e4e2 .LASF9109
     /tmp/ccghGiGC.s:90863  .debug_str:0000000000006264 .LASF9110
     /tmp/ccghGiGC.s:94727  .debug_str:0000000000015953 .LASF9111
     /tmp/ccghGiGC.s:106775  .debug_str:0000000000047302 .LASF9112
     /tmp/ccghGiGC.s:94071  .debug_str:0000000000012fbb .LASF9113
     /tmp/ccghGiGC.s:105117  .debug_str:00000000000400fd .LASF9114
     /tmp/ccghGiGC.s:106777  .debug_str:000000000004731d .LASF9115
     /tmp/ccghGiGC.s:103303  .debug_str:0000000000038ceb .LASF9116
     /tmp/ccghGiGC.s:98979  .debug_str:0000000000027410 .LASF9117
     /tmp/ccghGiGC.s:92541  .debug_str:000000000000d55e .LASF9118
     /tmp/ccghGiGC.s:99445  .debug_str:00000000000293e9 .LASF9119
     /tmp/ccghGiGC.s:97647  .debug_str:00000000000220ef .LASF9120
     /tmp/ccghGiGC.s:92543  .debug_str:000000000000d579 .LASF9121
     /tmp/ccghGiGC.s:94417  .debug_str:0000000000014614 .LASF9122
     /tmp/ccghGiGC.s:91367  .debug_str:0000000000008490 .LASF9123
     /tmp/ccghGiGC.s:98455  .debug_str:000000000002555a .LASF9124
     /tmp/ccghGiGC.s:97165  .debug_str:000000000001ff44 .LASF9125
     /tmp/ccghGiGC.s:89545  .debug_str:00000000000008cc .LASF9126
     /tmp/ccghGiGC.s:98457  .debug_str:0000000000025577 .LASF9127
     /tmp/ccghGiGC.s:97167  .debug_str:000000000001ff61 .LASF9128
     /tmp/ccghGiGC.s:99837  .debug_str:000000000002ac64 .LASF9129
     /tmp/ccghGiGC.s:103923  .debug_str:000000000003b1a2 .LASF9130
     /tmp/ccghGiGC.s:102577  .debug_str:0000000000035f99 .LASF9131
     /tmp/ccghGiGC.s:101615  .debug_str:0000000000031e27 .LASF9132
     /tmp/ccghGiGC.s:103925  .debug_str:000000000003b1bf .LASF9133
     /tmp/ccghGiGC.s:102579  .debug_str:0000000000035fb6 .LASF9134
     /tmp/ccghGiGC.s:95373  .debug_str:00000000000183a8 .LASF9135
     /tmp/ccghGiGC.s:108831  .debug_str:000000000004fe56 .LASF9136
     /tmp/ccghGiGC.s:91891  .debug_str:000000000000a883 .LASF9137
     /tmp/ccghGiGC.s:95707  .debug_str:0000000000019964 .LASF9138
     /tmp/ccghGiGC.s:108833  .debug_str:000000000004fe6f .LASF9139
     /tmp/ccghGiGC.s:91893  .debug_str:000000000000a89c .LASF9140
     /tmp/ccghGiGC.s:89515  .debug_str:00000000000006f1 .LASF9141
     /tmp/ccghGiGC.s:91459  .debug_str:0000000000008b22 .LASF9142
     /tmp/ccghGiGC.s:104309  .debug_str:000000000003cc25 .LASF9143
     /tmp/ccghGiGC.s:93189  .debug_str:000000000000f9df .LASF9144
     /tmp/ccghGiGC.s:92455  .debug_str:000000000000cfa7 .LASF9145
     /tmp/ccghGiGC.s:96317  .debug_str:000000000001c37f .LASF9146
     /tmp/ccghGiGC.s:107745  .debug_str:000000000004b34b .LASF9147
     /tmp/ccghGiGC.s:91609  .debug_str:000000000000954f .LASF9148
     /tmp/ccghGiGC.s:108729  .debug_str:000000000004f6e8 .LASF9149
     /tmp/ccghGiGC.s:89925  .debug_str:0000000000002403 .LASF9150
     /tmp/ccghGiGC.s:107517  .debug_str:000000000004a389 .LASF9151
     /tmp/ccghGiGC.s:93151  .debug_str:000000000000f860 .LASF9152
     /tmp/ccghGiGC.s:106229  .debug_str:0000000000045023 .LASF9153
     /tmp/ccghGiGC.s:97231  .debug_str:000000000002043c .LASF9154
     /tmp/ccghGiGC.s:101209  .debug_str:00000000000303e8 .LASF9155
     /tmp/ccghGiGC.s:94671  .debug_str:00000000000155cc .LASF9156
     /tmp/ccghGiGC.s:91769  .debug_str:000000000000a03c .LASF9157
     /tmp/ccghGiGC.s:98593  .debug_str:0000000000025c8e .LASF9158
     /tmp/ccghGiGC.s:93053  .debug_str:000000000000f1ba .LASF9159
     /tmp/ccghGiGC.s:101107  .debug_str:000000000002fdc6 .LASF9160
     /tmp/ccghGiGC.s:96519  .debug_str:000000000001d212 .LASF9161
     /tmp/ccghGiGC.s:99975  .debug_str:000000000002b504 .LASF9162
     /tmp/ccghGiGC.s:98033  .debug_str:0000000000023a97 .LASF9163
     /tmp/ccghGiGC.s:105555  .debug_str:0000000000042301 .LASF9164
     /tmp/ccghGiGC.s:107505  .debug_str:000000000004a300 .LASF9165
     /tmp/ccghGiGC.s:102121  .debug_str:0000000000034057 .LASF9166
     /tmp/ccghGiGC.s:100281  .debug_str:000000000002c84a .LASF9167
     /tmp/ccghGiGC.s:93227  .debug_str:000000000000fcba .LASF9168
     /tmp/ccghGiGC.s:100111  .debug_str:000000000002bdda .LASF9169
     /tmp/ccghGiGC.s:106433  .debug_str:0000000000045d4c .LASF9170
     /tmp/ccghGiGC.s:97247  .debug_str:000000000002057e .LASF9171
     /tmp/ccghGiGC.s:100711  .debug_str:000000000002e378 .LASF9172
     /tmp/ccghGiGC.s:96769  .debug_str:000000000001e396 .LASF9173
     /tmp/ccghGiGC.s:103405  .debug_str:000000000003926f .LASF9174
     /tmp/ccghGiGC.s:98495  .debug_str:000000000002575a .LASF9175
     /tmp/ccghGiGC.s:105123  .debug_str:0000000000040182 .LASF9176
     /tmp/ccghGiGC.s:108027  .debug_str:000000000004c64c .LASF9177
     /tmp/ccghGiGC.s:100503  .debug_str:000000000002d62e .LASF9178
     /tmp/ccghGiGC.s:95851  .debug_str:000000000001a306 .LASF9179
     /tmp/ccghGiGC.s:106349  .debug_str:000000000004575f .LASF9180
     /tmp/ccghGiGC.s:98857  .debug_str:0000000000026c6a .LASF9181
     /tmp/ccghGiGC.s:94347  .debug_str:00000000000141b9 .LASF9182
     /tmp/ccghGiGC.s:92589  .debug_str:000000000000d845 .LASF9183
     /tmp/ccghGiGC.s:107349  .debug_str:00000000000498be .LASF9184
     /tmp/ccghGiGC.s:90865  .debug_str:0000000000006281 .LASF9185
     /tmp/ccghGiGC.s:96033  .debug_str:000000000001b03a .LASF9186
     /tmp/ccghGiGC.s:99031  .debug_str:00000000000276de .LASF9187
     /tmp/ccghGiGC.s:93629  .debug_str:0000000000011317 .LASF9188
     /tmp/ccghGiGC.s:98743  .debug_str:00000000000264e0 .LASF9189
     /tmp/ccghGiGC.s:97381  .debug_str:0000000000020ebf .LASF9190
     /tmp/ccghGiGC.s:91349  .debug_str:000000000000831b .LASF9191
     /tmp/ccghGiGC.s:108611  .debug_str:000000000004ef1f .LASF9192
     /tmp/ccghGiGC.s:106807  .debug_str:00000000000474c6 .LASF9193
     /tmp/ccghGiGC.s:99069  .debug_str:0000000000027963 .LASF9194
     /tmp/ccghGiGC.s:91351  .debug_str:0000000000008330 .LASF9195
     /tmp/ccghGiGC.s:102097  .debug_str:0000000000033eee .LASF9196
     /tmp/ccghGiGC.s:107683  .debug_str:000000000004aea0 .LASF9197
     /tmp/ccghGiGC.s:91965  .debug_str:000000000000ad09 .LASF9198
     /tmp/ccghGiGC.s:93905  .debug_str:0000000000012516 .LASF9199
     /tmp/ccghGiGC.s:91275  .debug_str:0000000000007e8e .LASF9200
     /tmp/ccghGiGC.s:103809  .debug_str:000000000003a97e .LASF9201
     /tmp/ccghGiGC.s:95477  .debug_str:0000000000018a1d .LASF9202
     /tmp/ccghGiGC.s:95479  .debug_str:0000000000018a2c .LASF9203
     /tmp/ccghGiGC.s:95481  .debug_str:0000000000018a3b .LASF9204
     /tmp/ccghGiGC.s:97567  .debug_str:0000000000021abe .LASF9205
     /tmp/ccghGiGC.s:95889  .debug_str:000000000001a624 .LASF9206
     /tmp/ccghGiGC.s:95705  .debug_str:000000000001994b .LASF9207
     /tmp/ccghGiGC.s:97517  .debug_str:000000000002177e .LASF9208
     /tmp/ccghGiGC.s:105393  .debug_str:0000000000041595 .LASF9209
     /tmp/ccghGiGC.s:94035  .debug_str:0000000000012d03 .LASF9210
     /tmp/ccghGiGC.s:103337  .debug_str:0000000000038f13 .LASF9211
     /tmp/ccghGiGC.s:92897  .debug_str:000000000000e9da .LASF9212
     /tmp/ccghGiGC.s:93871  .debug_str:00000000000122b4 .LASF9213
     /tmp/ccghGiGC.s:97507  .debug_str:00000000000216aa .LASF9214
     /tmp/ccghGiGC.s:90697  .debug_str:000000000000575e .LASF9215
     /tmp/ccghGiGC.s:91083  .debug_str:000000000000721c .LASF9216
     /tmp/ccghGiGC.s:94531  .debug_str:0000000000014cdb .LASF9217
     /tmp/ccghGiGC.s:94171  .debug_str:0000000000013741 .LASF9218
     /tmp/ccghGiGC.s:105345  .debug_str:0000000000041157 .LASF9219
     /tmp/ccghGiGC.s:105341  .debug_str:0000000000041145 .LASF9220
     /tmp/ccghGiGC.s:105343  .debug_str:000000000004114e .LASF9221
     /tmp/ccghGiGC.s:105673  .debug_str:0000000000042bd2 .LASF9222
     /tmp/ccghGiGC.s:105211  .debug_str:000000000004069d .LASF9223
     /tmp/ccghGiGC.s:95333  .debug_str:000000000001812b .LASF9224
     /tmp/ccghGiGC.s:101183  .debug_str:000000000003028d .LASF9225
     /tmp/ccghGiGC.s:94303  .debug_str:0000000000013f1a .LASF9226
     /tmp/ccghGiGC.s:98413  .debug_str:00000000000252eb .LASF9227
     /tmp/ccghGiGC.s:101217  .debug_str:00000000000304a8 .LASF9228
     /tmp/ccghGiGC.s:104569  .debug_str:000000000003dd86 .LASF9229
     /tmp/ccghGiGC.s:95485  .debug_str:0000000000018a73 .LASF9230
     /tmp/ccghGiGC.s:99883  .debug_str:000000000002af45 .LASF9231
     /tmp/ccghGiGC.s:90781  .debug_str:0000000000005d2a .LASF9232
     /tmp/ccghGiGC.s:101227  .debug_str:0000000000030515 .LASF9233
     /tmp/ccghGiGC.s:99709  .debug_str:000000000002a4ac .LASF9234
     /tmp/ccghGiGC.s:98559  .debug_str:0000000000025b4a .LASF9235
     /tmp/ccghGiGC.s:97851  .debug_str:0000000000022dd8 .LASF9236
     /tmp/ccghGiGC.s:91221  .debug_str:0000000000007b10 .LASF9237
     /tmp/ccghGiGC.s:105985  .debug_str:0000000000043fc8 .LASF9238
     /tmp/ccghGiGC.s:100593  .debug_str:000000000002db7f .LASF9239
     /tmp/ccghGiGC.s:99573  .debug_str:0000000000029bca .LASF9240
     /tmp/ccghGiGC.s:97553  .debug_str:0000000000021a31 .LASF9241
     /tmp/ccghGiGC.s:95063  .debug_str:0000000000016f5a .LASF9242
     /tmp/ccghGiGC.s:105219  .debug_str:0000000000040719 .LASF9243
     /tmp/ccghGiGC.s:105355  .debug_str:000000000004122c .LASF9244
     /tmp/ccghGiGC.s:89799  .debug_str:0000000000001aee .LASF9245
     /tmp/ccghGiGC.s:96425  .debug_str:000000000001cbff .LASF9246
     /tmp/ccghGiGC.s:102367  .debug_str:000000000003506d .LASF9247
     /tmp/ccghGiGC.s:93699  .debug_str:00000000000116c7 .LASF9248
     /tmp/ccghGiGC.s:97977  .debug_str:000000000002365b .LASF9249
     /tmp/ccghGiGC.s:91935  .debug_str:000000000000ab4e .LASF9250
     /tmp/ccghGiGC.s:98115  .debug_str:0000000000023fec .LASF9251
     /tmp/ccghGiGC.s:99555  .debug_str:0000000000029a7e .LASF9252
     /tmp/ccghGiGC.s:106055  .debug_str:000000000004446b .LASF9253
     /tmp/ccghGiGC.s:101601  .debug_str:0000000000031d71 .LASF9254
     /tmp/ccghGiGC.s:107233  .debug_str:00000000000490ea .LASF9255
     /tmp/ccghGiGC.s:90859  .debug_str:0000000000006222 .LASF9256
     /tmp/ccghGiGC.s:100471  .debug_str:000000000002d415 .LASF9257
     /tmp/ccghGiGC.s:99759  .debug_str:000000000002a83c .LASF9258
     /tmp/ccghGiGC.s:93043  .debug_str:000000000000f120 .LASF9259
     /tmp/ccghGiGC.s:92251  .debug_str:000000000000c1fe .LASF9260
     /tmp/ccghGiGC.s:93175  .debug_str:000000000000f8e8 .LASF9261
     /tmp/ccghGiGC.s:92013  .debug_str:000000000000b0a0 .LASF9262
     /tmp/ccghGiGC.s:107635  .debug_str:000000000004ab6f .LASF9263
     /tmp/ccghGiGC.s:98769  .debug_str:000000000002669b .LASF9264
     /tmp/ccghGiGC.s:105847  .debug_str:000000000004372e .LASF9265
     /tmp/ccghGiGC.s:90851  .debug_str:00000000000061ad .LASF9266
     /tmp/ccghGiGC.s:92845  .debug_str:000000000000e750 .LASF9267
     /tmp/ccghGiGC.s:104367  .debug_str:000000000003d00a .LASF9268
     /tmp/ccghGiGC.s:93757  .debug_str:0000000000011ab5 .LASF9269
     /tmp/ccghGiGC.s:99467  .debug_str:0000000000029579 .LASF9270
     /tmp/ccghGiGC.s:91085  .debug_str:0000000000007237 .LASF9271
     /tmp/ccghGiGC.s:95201  .debug_str:000000000001787a .LASF9272
     /tmp/ccghGiGC.s:92093  .debug_str:000000000000b68f .LASF9273
     /tmp/ccghGiGC.s:101607  .debug_str:0000000000031dbb .LASF9274
     /tmp/ccghGiGC.s:89451  .debug_str:0000000000000273 .LASF9275
     /tmp/ccghGiGC.s:105179  .debug_str:00000000000404e1 .LASF9276
     /tmp/ccghGiGC.s:95799  .debug_str:0000000000019f9e .LASF9277
     /tmp/ccghGiGC.s:100121  .debug_str:000000000002be64 .LASF9278
     /tmp/ccghGiGC.s:90703  .debug_str:0000000000005791 .LASF9279
     /tmp/ccghGiGC.s:103783  .debug_str:000000000003a7b9 .LASF9280
     /tmp/ccghGiGC.s:90891  .debug_str:0000000000006465 .LASF9281
     /tmp/ccghGiGC.s:101603  .debug_str:0000000000031d77 .LASF9282
     /tmp/ccghGiGC.s:99395  .debug_str:000000000002900c .LASF9283
     /tmp/ccghGiGC.s:90411  .debug_str:00000000000044ea .LASF9284
     /tmp/ccghGiGC.s:107533  .debug_str:000000000004a477 .LASF9285
     /tmp/ccghGiGC.s:98939  .debug_str:00000000000271dc .LASF9286
     /tmp/ccghGiGC.s:106925  .debug_str:0000000000047d12 .LASF9287
     /tmp/ccghGiGC.s:98631  .debug_str:0000000000025f0e .LASF9288
     /tmp/ccghGiGC.s:95987  .debug_str:000000000001ad74 .LASF9289
     /tmp/ccghGiGC.s:107891  .debug_str:000000000004bd7d .LASF9290
     /tmp/ccghGiGC.s:96127  .debug_str:000000000001b62f .LASF9291
     /tmp/ccghGiGC.s:99163  .debug_str:0000000000028012 .LASF9292
     /tmp/ccghGiGC.s:104459  .debug_str:000000000003d586 .LASF9293
     /tmp/ccghGiGC.s:89977  .debug_str:0000000000002780 .LASF9294
     /tmp/ccghGiGC.s:90185  .debug_str:0000000000003571 .LASF9295
     /tmp/ccghGiGC.s:100031  .debug_str:000000000002b939 .LASF9296
     /tmp/ccghGiGC.s:96131  .debug_str:000000000001b673 .LASF9297
     /tmp/ccghGiGC.s:103113  .debug_str:00000000000382f4 .LASF9298
     /tmp/ccghGiGC.s:99477  .debug_str:000000000002961a .LASF9299
     /tmp/ccghGiGC.s:102271  .debug_str:0000000000034912 .LASF9300
     /tmp/ccghGiGC.s:97329  .debug_str:0000000000020b65 .LASF9301
     /tmp/ccghGiGC.s:98261  .debug_str:00000000000249ff .LASF9302
     /tmp/ccghGiGC.s:95701  .debug_str:000000000001993a .LASF9303
     /tmp/ccghGiGC.s:89733  .debug_str:0000000000001534 .LASF9304
     /tmp/ccghGiGC.s:97683  .debug_str:00000000000222bd .LASF9305
     /tmp/ccghGiGC.s:92833  .debug_str:000000000000e644 .LASF9306
     /tmp/ccghGiGC.s:101597  .debug_str:0000000000031d20 .LASF9307
     /tmp/ccghGiGC.s:106857  .debug_str:00000000000478b8 .LASF9308
     /tmp/ccghGiGC.s:97635  .debug_str:000000000002204f .LASF9309
     /tmp/ccghGiGC.s:103485  .debug_str:000000000003969d .LASF9310
     /tmp/ccghGiGC.s:97353  .debug_str:0000000000020d31 .LASF9311
     /tmp/ccghGiGC.s:97631  .debug_str:000000000002201b .LASF9312
     /tmp/ccghGiGC.s:106045  .debug_str:00000000000443d3 .LASF9313
     /tmp/ccghGiGC.s:99589  .debug_str:0000000000029c9f .LASF9314
     /tmp/ccghGiGC.s:91987  .debug_str:000000000000af0f .LASF9315
     /tmp/ccghGiGC.s:91281  .debug_str:0000000000007ef6 .LASF9316
     /tmp/ccghGiGC.s:99937  .debug_str:000000000002b355 .LASF9317
     /tmp/ccghGiGC.s:106693  .debug_str:0000000000046d4c .LASF9318
     /tmp/ccghGiGC.s:105471  .debug_str:0000000000041a99 .LASF9319
     /tmp/ccghGiGC.s:103295  .debug_str:0000000000038c4e .LASF9320
     /tmp/ccghGiGC.s:98025  .debug_str:0000000000023a19 .LASF9321
     /tmp/ccghGiGC.s:105801  .debug_str:00000000000433cf .LASF9322
     /tmp/ccghGiGC.s:101351  .debug_str:0000000000030d6f .LASF9323
     /tmp/ccghGiGC.s:101819  .debug_str:0000000000032c42 .LASF9324
     /tmp/ccghGiGC.s:90923  .debug_str:000000000000665d .LASF9325
     /tmp/ccghGiGC.s:108247  .debug_str:000000000004d561 .LASF9326
     /tmp/ccghGiGC.s:106781  .debug_str:0000000000047348 .LASF9327
     /tmp/ccghGiGC.s:100839  .debug_str:000000000002ebfc .LASF9328
     /tmp/ccghGiGC.s:90579  .debug_str:0000000000004fe6 .LASF9329
     /tmp/ccghGiGC.s:96617  .debug_str:000000000001d88c .LASF9330
     /tmp/ccghGiGC.s:105981  .debug_str:0000000000043fb1 .LASF9331
     /tmp/ccghGiGC.s:104711  .debug_str:000000000003e795 .LASF9332
     /tmp/ccghGiGC.s:97321  .debug_str:0000000000020b3e .LASF9333
     /tmp/ccghGiGC.s:97323  .debug_str:0000000000020b48 .LASF9334
     /tmp/ccghGiGC.s:107395  .debug_str:0000000000049b94 .LASF9335
     /tmp/ccghGiGC.s:97327  .debug_str:0000000000020b5b .LASF9336
     /tmp/ccghGiGC.s:102451  .debug_str:0000000000035659 .LASF9337
     /tmp/ccghGiGC.s:101201  .debug_str:0000000000030395 .LASF9338
     /tmp/ccghGiGC.s:106637  .debug_str:00000000000469e7 .LASF9339
     /tmp/ccghGiGC.s:99705  .debug_str:000000000002a467 .LASF9340
     /tmp/ccghGiGC.s:95829  .debug_str:000000000001a17a .LASF9341
     /tmp/ccghGiGC.s:102049  .debug_str:0000000000033b8a .LASF9342
     /tmp/ccghGiGC.s:91837  .debug_str:000000000000a4a6 .LASF9343
     /tmp/ccghGiGC.s:95601  .debug_str:00000000000191ff .LASF9344
     /tmp/ccghGiGC.s:91839  .debug_str:000000000000a4b1 .LASF9345
     /tmp/ccghGiGC.s:93813  .debug_str:0000000000011eaa .LASF9346
     /tmp/ccghGiGC.s:91841  .debug_str:000000000000a4bc .LASF9347
     /tmp/ccghGiGC.s:100257  .debug_str:000000000002c6f2 .LASF9348
     /tmp/ccghGiGC.s:91843  .debug_str:000000000000a4c7 .LASF9349
     /tmp/ccghGiGC.s:96603  .debug_str:000000000001d779 .LASF9350
     /tmp/ccghGiGC.s:91845  .debug_str:000000000000a4d2 .LASF9351
     /tmp/ccghGiGC.s:90359  .debug_str:00000000000040c4 .LASF9352
     /tmp/ccghGiGC.s:102601  .debug_str:00000000000361ab .LASF9353
     /tmp/ccghGiGC.s:90737  .debug_str:0000000000005a2f .LASF9354
     /tmp/ccghGiGC.s:99501  .debug_str:0000000000029781 .LASF9355
     /tmp/ccghGiGC.s:106185  .debug_str:0000000000044cdd .LASF9356
     /tmp/ccghGiGC.s:99503  .debug_str:000000000002978b .LASF9357
     /tmp/ccghGiGC.s:103593  .debug_str:0000000000039c15 .LASF9358
     /tmp/ccghGiGC.s:99505  .debug_str:0000000000029795 .LASF9359
     /tmp/ccghGiGC.s:93837  .debug_str:000000000001200b .LASF9360
     /tmp/ccghGiGC.s:99507  .debug_str:000000000002979f .LASF9361
     /tmp/ccghGiGC.s:107157  .debug_str:0000000000048c4c .LASF9362
     /tmp/ccghGiGC.s:99509  .debug_str:00000000000297a9 .LASF9363
     /tmp/ccghGiGC.s:103155  .debug_str:00000000000384ec .LASF9364
     /tmp/ccghGiGC.s:99511  .debug_str:00000000000297b3 .LASF9365
     /tmp/ccghGiGC.s:94801  .debug_str:0000000000015e83 .LASF9366
     /tmp/ccghGiGC.s:99513  .debug_str:00000000000297bd .LASF9367
     /tmp/ccghGiGC.s:108113  .debug_str:000000000004cc45 .LASF9368
     /tmp/ccghGiGC.s:98503  .debug_str:00000000000257e7 .LASF9369
     /tmp/ccghGiGC.s:92809  .debug_str:000000000000e4e9 .LASF9370
     /tmp/ccghGiGC.s:95621  .debug_str:0000000000019314 .LASF9371
     /tmp/ccghGiGC.s:100053  .debug_str:000000000002bad1 .LASF9372
     /tmp/ccghGiGC.s:93763  .debug_str:0000000000011b35 .LASF9373
     /tmp/ccghGiGC.s:94621  .debug_str:0000000000015296 .LASF9374
     /tmp/ccghGiGC.s:106493  .debug_str:000000000004612c .LASF9375
     /tmp/ccghGiGC.s:93467  .debug_str:00000000000109d1 .LASF9376
     /tmp/ccghGiGC.s:105363  .debug_str:000000000004129a .LASF9377
     /tmp/ccghGiGC.s:107599  .debug_str:000000000004a884 .LASF9378
     /tmp/ccghGiGC.s:104639  .debug_str:000000000003e2d6 .LASF9379
     /tmp/ccghGiGC.s:94461  .debug_str:000000000001493b .LASF9380
     /tmp/ccghGiGC.s:89837  .debug_str:0000000000001da5 .LASF9381
     /tmp/ccghGiGC.s:100525  .debug_str:000000000002d736 .LASF9382
     /tmp/ccghGiGC.s:107711  .debug_str:000000000004b07c .LASF9383
     /tmp/ccghGiGC.s:103927  .debug_str:000000000003b1dc .LASF9384
     /tmp/ccghGiGC.s:101643  .debug_str:0000000000031fb5 .LASF9385
     /tmp/ccghGiGC.s:106119  .debug_str:00000000000448c9 .LASF9386
     /tmp/ccghGiGC.s:97343  .debug_str:0000000000020c70 .LASF9387
     /tmp/ccghGiGC.s:101495  .debug_str:0000000000031677 .LASF9388
     /tmp/ccghGiGC.s:93921  .debug_str:00000000000125b9 .LASF9389
     /tmp/ccghGiGC.s:94145  .debug_str:000000000001353d .LASF9390
     /tmp/ccghGiGC.s:96209  .debug_str:000000000001bbac .LASF9391
     /tmp/ccghGiGC.s:97375  .debug_str:0000000000020e5a .LASF9392
     /tmp/ccghGiGC.s:98883  .debug_str:0000000000026df9 .LASF9393
     /tmp/ccghGiGC.s:91433  .debug_str:0000000000008923 .LASF9394
     /tmp/ccghGiGC.s:100751  .debug_str:000000000002e5f3 .LASF9395
     /tmp/ccghGiGC.s:95783  .debug_str:0000000000019ea6 .LASF9396
     /tmp/ccghGiGC.s:94983  .debug_str:00000000000169db .LASF9397
     /tmp/ccghGiGC.s:106535  .debug_str:00000000000463e1 .LASF9398
     /tmp/ccghGiGC.s:95751  .debug_str:0000000000019ca3 .LASF9399
     /tmp/ccghGiGC.s:99449  .debug_str:000000000002943c .LASF9400
     /tmp/ccghGiGC.s:89629  .debug_str:0000000000000e3b .LASF9401
     /tmp/ccghGiGC.s:96389  .debug_str:000000000001c916 .LASF9402
     /tmp/ccghGiGC.s:103125  .debug_str:000000000003831e .LASF9403
     /tmp/ccghGiGC.s:101507  .debug_str:0000000000031720 .LASF9404
     /tmp/ccghGiGC.s:98007  .debug_str:00000000000238e7 .LASF9405
     /tmp/ccghGiGC.s:99143  .debug_str:0000000000027f23 .LASF9406
     /tmp/ccghGiGC.s:97805  .debug_str:0000000000022ac5 .LASF9407
     /tmp/ccghGiGC.s:89681  .debug_str:00000000000011e9 .LASF9408
     /tmp/ccghGiGC.s:89835  .debug_str:0000000000001d81 .LASF9409
     /tmp/ccghGiGC.s:92553  .debug_str:000000000000d629 .LASF9410
     /tmp/ccghGiGC.s:92287  .debug_str:000000000000c41c .LASF9411
     /tmp/ccghGiGC.s:100741  .debug_str:000000000002e58a .LASF9412
     /tmp/ccghGiGC.s:96465  .debug_str:000000000001ce42 .LASF9413
     /tmp/ccghGiGC.s:100485  .debug_str:000000000002d51b .LASF9414
     /tmp/ccghGiGC.s:100487  .debug_str:000000000002d520 .LASF9415
     /tmp/ccghGiGC.s:91241  .debug_str:0000000000007c2d .LASF9416
     /tmp/ccghGiGC.s:91243  .debug_str:0000000000007c32 .LASF9417
     /tmp/ccghGiGC.s:107893  .debug_str:000000000004bd92 .LASF9418
     /tmp/ccghGiGC.s:104379  .debug_str:000000000003d09b .LASF9419
     /tmp/ccghGiGC.s:105721  .debug_str:0000000000042e9c .LASF9420
     /tmp/ccghGiGC.s:105723  .debug_str:0000000000042ea2 .LASF9421
     /tmp/ccghGiGC.s:98937  .debug_str:00000000000271d6 .LASF9422
     /tmp/ccghGiGC.s:98941  .debug_str:00000000000271ea .LASF9423
     /tmp/ccghGiGC.s:107029  .debug_str:0000000000048419 .LASF9424
     /tmp/ccghGiGC.s:95735  .debug_str:0000000000019b45 .LASF9425
     /tmp/ccghGiGC.s:106181  .debug_str:0000000000044cb7 .LASF9426
     /tmp/ccghGiGC.s:90281  .debug_str:0000000000003b81 .LASF9427
     /tmp/ccghGiGC.s:97559  .debug_str:0000000000021a71 .LASF9428
     /tmp/ccghGiGC.s:100221  .debug_str:000000000002c4ee .LASF9429
     /tmp/ccghGiGC.s:105665  .debug_str:0000000000042b20 .LASF9430
     /tmp/ccghGiGC.s:93783  .debug_str:0000000000011c92 .LASF9431
     /tmp/ccghGiGC.s:100537  .debug_str:000000000002d821 .LASF9432
     /tmp/ccghGiGC.s:90101  .debug_str:0000000000002fb0 .LASF9433
     /tmp/ccghGiGC.s:101485  .debug_str:00000000000315f0 .LASF9434
     /tmp/ccghGiGC.s:98213  .debug_str:0000000000024666 .LASF9435
     /tmp/ccghGiGC.s:100539  .debug_str:000000000002d82a .LASF9436
     /tmp/ccghGiGC.s:100095  .debug_str:000000000002bd12 .LASF9437
     /tmp/ccghGiGC.s:95769  .debug_str:0000000000019dd8 .LASF9438
     /tmp/ccghGiGC.s:91211  .debug_str:0000000000007a78 .LASF9439
     /tmp/ccghGiGC.s:101093  .debug_str:000000000002fce7 .LASF9440
     /tmp/ccghGiGC.s:90649  .debug_str:000000000000540e .LASF9441
     /tmp/ccghGiGC.s:105131  .debug_str:00000000000401f3 .LASF9442
     /tmp/ccghGiGC.s:108433  .debug_str:000000000004e38d .LASF9443
     /tmp/ccghGiGC.s:97053  .debug_str:000000000001f7a3 .LASF9444
     /tmp/ccghGiGC.s:108701  .debug_str:000000000004f522 .LASF9445
     /tmp/ccghGiGC.s:91575  .debug_str:00000000000092d9 .LASF9446
     /tmp/ccghGiGC.s:90037  .debug_str:0000000000002bb3 .LASF9447
     /tmp/ccghGiGC.s:105771  .debug_str:000000000004317c .LASF9448
     /tmp/ccghGiGC.s:105037  .debug_str:000000000003fc55 .LASF9449
     /tmp/ccghGiGC.s:99095  .debug_str:0000000000027b91 .LASF9450
     /tmp/ccghGiGC.s:103787  .debug_str:000000000003a7fc .LASF9451
     /tmp/ccghGiGC.s:107009  .debug_str:00000000000482d5 .LASF9452
     /tmp/ccghGiGC.s:95387  .debug_str:00000000000184a8 .LASF9453
     /tmp/ccghGiGC.s:101121  .debug_str:000000000002fe80 .LASF9454
     /tmp/ccghGiGC.s:104553  .debug_str:000000000003dc4e .LASF9455
     /tmp/ccghGiGC.s:101913  .debug_str:000000000003324b .LASF9456
     /tmp/ccghGiGC.s:100403  .debug_str:000000000002d06b .LASF9457
     /tmp/ccghGiGC.s:95175  .debug_str:000000000001765b .LASF9458
     /tmp/ccghGiGC.s:94489  .debug_str:0000000000014aed .LASF9459
     /tmp/ccghGiGC.s:97073  .debug_str:000000000001f94c .LASF9460
     /tmp/ccghGiGC.s:96979  .debug_str:000000000001f184 .LASF9461
     /tmp/ccghGiGC.s:103807  .debug_str:000000000003a976 .LASF9462
     /tmp/ccghGiGC.s:105307  .debug_str:0000000000040d96 .LASF9463
     /tmp/ccghGiGC.s:96145  .debug_str:000000000001b7a4 .LASF9464
     /tmp/ccghGiGC.s:96153  .debug_str:000000000001b7de .LASF9465
     /tmp/ccghGiGC.s:100303  .debug_str:000000000002c9e5 .LASF9466
     /tmp/ccghGiGC.s:102983  .debug_str:0000000000037a51 .LASF9467
     /tmp/ccghGiGC.s:100407  .debug_str:000000000002d09e .LASF9468
     /tmp/ccghGiGC.s:93949  .debug_str:0000000000012775 .LASF9469
     /tmp/ccghGiGC.s:96783  .debug_str:000000000001e47a .LASF9470
     /tmp/ccghGiGC.s:96351  .debug_str:000000000001c6c3 .LASF9471
     /tmp/ccghGiGC.s:108809  .debug_str:000000000004fcdd .LASF9472
     /tmp/ccghGiGC.s:89601  .debug_str:0000000000000c6b .LASF9473
     /tmp/ccghGiGC.s:89725  .debug_str:00000000000014c5 .LASF9474
     /tmp/ccghGiGC.s:95969  .debug_str:000000000001abe0 .LASF9475
     /tmp/ccghGiGC.s:90965  .debug_str:000000000000690c .LASF9476
     /tmp/ccghGiGC.s:98645  .debug_str:000000000002600a .LASF9477
     /tmp/ccghGiGC.s:105305  .debug_str:0000000000040d8f .LASF9478
     /tmp/ccghGiGC.s:96151  .debug_str:000000000001b7d4 .LASF9479
     /tmp/ccghGiGC.s:99951  .debug_str:000000000002b406 .LASF9480
     /tmp/ccghGiGC.s:95683  .debug_str:00000000000197e7 .LASF9481
     /tmp/ccghGiGC.s:89727  .debug_str:00000000000014d0 .LASF9482
     /tmp/ccghGiGC.s:89763  .debug_str:000000000000173c .LASF9483
     /tmp/ccghGiGC.s:103103  .debug_str:000000000003824d .LASF9484
     /tmp/ccghGiGC.s:96929  .debug_str:000000000001ee74 .LASF9485
     /tmp/ccghGiGC.s:96931  .debug_str:000000000001ee7e .LASF9486
     /tmp/ccghGiGC.s:96933  .debug_str:000000000001ee88 .LASF9487
     /tmp/ccghGiGC.s:96935  .debug_str:000000000001ee92 .LASF9488
     /tmp/ccghGiGC.s:96937  .debug_str:000000000001ee9c .LASF9489
     /tmp/ccghGiGC.s:102197  .debug_str:00000000000344cc .LASF9490
     /tmp/ccghGiGC.s:96939  .debug_str:000000000001eea6 .LASF9491
     /tmp/ccghGiGC.s:93005  .debug_str:000000000000eed2 .LASF9492
     /tmp/ccghGiGC.s:93007  .debug_str:000000000000eedd .LASF9493
     /tmp/ccghGiGC.s:108321  .debug_str:000000000004daea .LASF9494
     /tmp/ccghGiGC.s:105467  .debug_str:0000000000041a83 .LASF9495
     /tmp/ccghGiGC.s:91105  .debug_str:00000000000073a3 .LASF9496
     /tmp/ccghGiGC.s:97927  .debug_str:00000000000232b7 .LASF9497
     /tmp/ccghGiGC.s:91269  .debug_str:0000000000007e38 .LASF9498
     /tmp/ccghGiGC.s:105469  .debug_str:0000000000041a8e .LASF9499
     /tmp/ccghGiGC.s:104503  .debug_str:000000000003d866 .LASF9500
     /tmp/ccghGiGC.s:89905  .debug_str:0000000000002277 .LASF9501
     /tmp/ccghGiGC.s:100617  .debug_str:000000000002dd76 .LASF9502
     /tmp/ccghGiGC.s:98267  .debug_str:0000000000024a62 .LASF9503
     /tmp/ccghGiGC.s:104699  .debug_str:000000000003e6d6 .LASF9504
     /tmp/ccghGiGC.s:104331  .debug_str:000000000003cd84 .LASF9505
     /tmp/ccghGiGC.s:89887  .debug_str:0000000000002152 .LASF9506
     /tmp/ccghGiGC.s:94101  .debug_str:000000000001319a .LASF9507
     /tmp/ccghGiGC.s:97153  .debug_str:000000000001fe49 .LASF9508
     /tmp/ccghGiGC.s:98337  .debug_str:0000000000024ebd .LASF9509
     /tmp/ccghGiGC.s:93659  .debug_str:0000000000011503 .LASF9510
     /tmp/ccghGiGC.s:98339  .debug_str:0000000000024ec8 .LASF9511
     /tmp/ccghGiGC.s:106177  .debug_str:0000000000044c4c .LASF9512
     /tmp/ccghGiGC.s:94585  .debug_str:000000000001506b .LASF9513
     /tmp/ccghGiGC.s:108371  .debug_str:000000000004df1a .LASF9514
     /tmp/ccghGiGC.s:94587  .debug_str:0000000000015076 .LASF9515
     /tmp/ccghGiGC.s:102295  .debug_str:0000000000034b17 .LASF9516
     /tmp/ccghGiGC.s:94589  .debug_str:0000000000015081 .LASF9517
     /tmp/ccghGiGC.s:96039  .debug_str:000000000001b0bd .LASF9518
     /tmp/ccghGiGC.s:97641  .debug_str:000000000002208a .LASF9519
     /tmp/ccghGiGC.s:103251  .debug_str:0000000000038a7a .LASF9520
     /tmp/ccghGiGC.s:94385  .debug_str:000000000001442a .LASF9521
     /tmp/ccghGiGC.s:91519  .debug_str:0000000000008edb .LASF9522
     /tmp/ccghGiGC.s:94387  .debug_str:0000000000014435 .LASF9523
     /tmp/ccghGiGC.s:104909  .debug_str:000000000003f3f5 .LASF9524
     /tmp/ccghGiGC.s:94723  .debug_str:0000000000015939 .LASF9525
     /tmp/ccghGiGC.s:106287  .debug_str:000000000004537c .LASF9526
     /tmp/ccghGiGC.s:103275  .debug_str:0000000000038bec .LASF9527
     /tmp/ccghGiGC.s:100193  .debug_str:000000000002c366 .LASF9528
     /tmp/ccghGiGC.s:94731  .debug_str:00000000000159aa .LASF9529
     /tmp/ccghGiGC.s:93951  .debug_str:000000000001277d .LASF9530
     /tmp/ccghGiGC.s:101347  .debug_str:0000000000030d52 .LASF9531
     /tmp/ccghGiGC.s:89707  .debug_str:0000000000001354 .LASF9532
     /tmp/ccghGiGC.s:96095  .debug_str:000000000001b44d .LASF9533
     /tmp/ccghGiGC.s:108821  .debug_str:000000000004fd7a .LASF9534
     /tmp/ccghGiGC.s:96097  .debug_str:000000000001b458 .LASF9535
     /tmp/ccghGiGC.s:101939  .debug_str:000000000003339c .LASF9536
     /tmp/ccghGiGC.s:92223  .debug_str:000000000000c039 .LASF9537
     /tmp/ccghGiGC.s:91423  .debug_str:00000000000088bd .LASF9538
     /tmp/ccghGiGC.s:92225  .debug_str:000000000000c044 .LASF9539
     /tmp/ccghGiGC.s:98011  .debug_str:0000000000023911 .LASF9540
     /tmp/ccghGiGC.s:92227  .debug_str:000000000000c04f .LASF9541
     /tmp/ccghGiGC.s:91741  .debug_str:0000000000009ee1 .LASF9542
     /tmp/ccghGiGC.s:104929  .debug_str:000000000003f568 .LASF9543
     /tmp/ccghGiGC.s:95781  .debug_str:0000000000019e80 .LASF9544
     /tmp/ccghGiGC.s:99489  .debug_str:00000000000296e8 .LASF9545
     /tmp/ccghGiGC.s:99491  .debug_str:00000000000296fc .LASF9546
     /tmp/ccghGiGC.s:99493  .debug_str:0000000000029710 .LASF9547
     /tmp/ccghGiGC.s:98505  .debug_str:00000000000257f3 .LASF9548
     /tmp/ccghGiGC.s:98507  .debug_str:0000000000025804 .LASF9549
     /tmp/ccghGiGC.s:89921  .debug_str:00000000000023da .LASF9550
     /tmp/ccghGiGC.s:98511  .debug_str:0000000000025842 .LASF9551
     /tmp/ccghGiGC.s:106565  .debug_str:00000000000465eb .LASF9552
     /tmp/ccghGiGC.s:91239  .debug_str:0000000000007c1b .LASF9553
     /tmp/ccghGiGC.s:98591  .debug_str:0000000000025c79 .LASF9554
     /tmp/ccghGiGC.s:94699  .debug_str:0000000000015773 .LASF9555
     /tmp/ccghGiGC.s:94725  .debug_str:0000000000015944 .LASF9556
     /tmp/ccghGiGC.s:108229  .debug_str:000000000004d464 .LASF9557
     /tmp/ccghGiGC.s:105933  .debug_str:0000000000043c97 .LASF9558
     /tmp/ccghGiGC.s:102045  .debug_str:0000000000033b60 .LASF9559
     /tmp/ccghGiGC.s:107413  .debug_str:0000000000049cec .LASF9560
     /tmp/ccghGiGC.s:106109  .debug_str:00000000000447f5 .LASF9561
     /tmp/ccghGiGC.s:93879  .debug_str:0000000000012348 .LASF9562
     /tmp/ccghGiGC.s:96551  .debug_str:000000000001d40a .LASF9563
     /tmp/ccghGiGC.s:100429  .debug_str:000000000002d1c2 .LASF9564
     /tmp/ccghGiGC.s:103067  .debug_str:0000000000037f30 .LASF9565
     /tmp/ccghGiGC.s:106023  .debug_str:0000000000044273 .LASF9566
     /tmp/ccghGiGC.s:90621  .debug_str:0000000000005275 .LASF9567
     /tmp/ccghGiGC.s:97763  .debug_str:00000000000227ea .LASF9568
     /tmp/ccghGiGC.s:96649  .debug_str:000000000001dacc .LASF9599
     /tmp/ccghGiGC.s:101777  .debug_str:0000000000032947 .LASF9569
     /tmp/ccghGiGC.s:91465  .debug_str:0000000000008b9f .LASF9570
     /tmp/ccghGiGC.s:105303  .debug_str:0000000000040d86 .LASF9571
     /tmp/ccghGiGC.s:100217  .debug_str:000000000002c4d8 .LASF9572
     /tmp/ccghGiGC.s:98813  .debug_str:000000000002693f .LASF9573
     /tmp/ccghGiGC.s:100935  .debug_str:000000000002f1db .LASF9574
     /tmp/ccghGiGC.s:91931  .debug_str:000000000000ab2d .LASF9575
     /tmp/ccghGiGC.s:97991  .debug_str:000000000002370d .LASF9576
     /tmp/ccghGiGC.s:101365  .debug_str:0000000000030e7a .LASF9577
     /tmp/ccghGiGC.s:97255  .debug_str:000000000002061a .LASF9578
     /tmp/ccghGiGC.s:103845  .debug_str:000000000003ac18 .LASF9579
     /tmp/ccghGiGC.s:103847  .debug_str:000000000003ac23 .LASF9580
     /tmp/ccghGiGC.s:103849  .debug_str:000000000003ac2e .LASF9581
     /tmp/ccghGiGC.s:103851  .debug_str:000000000003ac39 .LASF9582
     /tmp/ccghGiGC.s:90199  .debug_str:00000000000035e3 .LASF9583
     /tmp/ccghGiGC.s:97117  .debug_str:000000000001fc0b .LASF9584
     /tmp/ccghGiGC.s:102655  .debug_str:00000000000364c7 .LASF9585
     /tmp/ccghGiGC.s:101855  .debug_str:0000000000032ed3 .LASF9586
     /tmp/ccghGiGC.s:108467  .debug_str:000000000004e5db .LASF9587
     /tmp/ccghGiGC.s:106219  .debug_str:0000000000044f90 .LASF9588
     /tmp/ccghGiGC.s:91747  .debug_str:0000000000009f3d .LASF9589
     /tmp/ccghGiGC.s:105919  .debug_str:0000000000043bef .LASF9590
     /tmp/ccghGiGC.s:107825  .debug_str:000000000004b940 .LASF9591
     /tmp/ccghGiGC.s:104857  .debug_str:000000000003f0b0 .LASF9592
     /tmp/ccghGiGC.s:93563  .debug_str:0000000000010f29 .LASF9593
     /tmp/ccghGiGC.s:96215  .debug_str:000000000001bc38 .LASF9594
     /tmp/ccghGiGC.s:101065  .debug_str:000000000002fb24 .LASF9595
     /tmp/ccghGiGC.s:89477  .debug_str:0000000000000439 .LASF9596
     /tmp/ccghGiGC.s:99571  .debug_str:0000000000029bbe .LASF9597
     /tmp/ccghGiGC.s:104489  .debug_str:000000000003d795 .LASF9598
     /tmp/ccghGiGC.s:102701  .debug_str:00000000000367e9 .LASF9600
     /tmp/ccghGiGC.s:100887  .debug_str:000000000002ef0d .LASF9601
     /tmp/ccghGiGC.s:102135  .debug_str:00000000000340fe .LASF9602
     /tmp/ccghGiGC.s:94025  .debug_str:0000000000012c6a .LASF9603
     /tmp/ccghGiGC.s:90949  .debug_str:000000000000682f .LASF9604
     /tmp/ccghGiGC.s:90951  .debug_str:0000000000006842 .LASF9605
     /tmp/ccghGiGC.s:90953  .debug_str:0000000000006855 .LASF9606
     /tmp/ccghGiGC.s:90551  .debug_str:0000000000004e61 .LASF9607
     /tmp/ccghGiGC.s:90957  .debug_str:0000000000006891 .LASF9608
     /tmp/ccghGiGC.s:107503  .debug_str:000000000004a2ef .LASF9609
     /tmp/ccghGiGC.s:93147  .debug_str:000000000000f810 .LASF9610
     /tmp/ccghGiGC.s:107507  .debug_str:000000000004a32a .LASF9611
     /tmp/ccghGiGC.s:107509  .debug_str:000000000004a33b .LASF9612
     /tmp/ccghGiGC.s:107511  .debug_str:000000000004a34c .LASF9613
     /tmp/ccghGiGC.s:93463  .debug_str:00000000000109b1 .LASF9614
     /tmp/ccghGiGC.s:93465  .debug_str:00000000000109c1 .LASF9615
     /tmp/ccghGiGC.s:96451  .debug_str:000000000001cd9b .LASF9616
     /tmp/ccghGiGC.s:96453  .debug_str:000000000001cdab .LASF9617
     /tmp/ccghGiGC.s:103931  .debug_str:000000000003b22e .LASF9618
     /tmp/ccghGiGC.s:96313  .debug_str:000000000001c32d .LASF9619
     /tmp/ccghGiGC.s:107189  .debug_str:0000000000048e17 .LASF9620
     /tmp/ccghGiGC.s:107191  .debug_str:0000000000048e27 .LASF9621
     /tmp/ccghGiGC.s:103567  .debug_str:0000000000039a51 .LASF9622
     /tmp/ccghGiGC.s:93473  .debug_str:0000000000010a15 .LASF9623
     /tmp/ccghGiGC.s:93475  .debug_str:0000000000010a26 .LASF9624
     /tmp/ccghGiGC.s:93477  .debug_str:0000000000010a37 .LASF9625
     /tmp/ccghGiGC.s:103979  .debug_str:000000000003b51f .LASF9626
     /tmp/ccghGiGC.s:95521  .debug_str:0000000000018ca0 .LASF9627
     /tmp/ccghGiGC.s:92595  .debug_str:000000000000d899 .LASF9628
     /tmp/ccghGiGC.s:96773  .debug_str:000000000001e3d8 .LASF9629
     /tmp/ccghGiGC.s:104341  .debug_str:000000000003ce35 .LASF9630
     /tmp/ccghGiGC.s:95111  .debug_str:000000000001720e .LASF9631
     /tmp/ccghGiGC.s:102533  .debug_str:0000000000035c48 .LASF9632
     /tmp/ccghGiGC.s:103187  .debug_str:0000000000038736 .LASF9633
     /tmp/ccghGiGC.s:96433  .debug_str:000000000001cca6 .LASF9634
     /tmp/ccghGiGC.s:97457  .debug_str:0000000000021388 .LASF9635
     /tmp/ccghGiGC.s:100847  .debug_str:000000000002ec78 .LASF9636
     /tmp/ccghGiGC.s:100849  .debug_str:000000000002ec88 .LASF9637
     /tmp/ccghGiGC.s:100851  .debug_str:000000000002ec98 .LASF9638
     /tmp/ccghGiGC.s:100853  .debug_str:000000000002eca8 .LASF9639
     /tmp/ccghGiGC.s:106919  .debug_str:0000000000047cb7 .LASF9640
     /tmp/ccghGiGC.s:95777  .debug_str:0000000000019e38 .LASF9641
     /tmp/ccghGiGC.s:98157  .debug_str:00000000000242a6 .LASF9642
     /tmp/ccghGiGC.s:105791  .debug_str:0000000000043302 .LASF9643
     /tmp/ccghGiGC.s:89573  .debug_str:0000000000000afd .LASF9644
     /tmp/ccghGiGC.s:107471  .debug_str:000000000004a08e .LASF9645
     /tmp/ccghGiGC.s:93481  .debug_str:0000000000010a7e .LASF9646
     /tmp/ccghGiGC.s:93101  .debug_str:000000000000f43d .LASF9647
     /tmp/ccghGiGC.s:98971  .debug_str:00000000000273b3 .LASF9648
     /tmp/ccghGiGC.s:93557  .debug_str:0000000000010ec4 .LASF9649
     /tmp/ccghGiGC.s:96103  .debug_str:000000000001b49e .LASF9650
     /tmp/ccghGiGC.s:104807  .debug_str:000000000003ee14 .LASF9651
     /tmp/ccghGiGC.s:99023  .debug_str:000000000002763c .LASF9652
     /tmp/ccghGiGC.s:108539  .debug_str:000000000004eacc .LASF9653
     /tmp/ccghGiGC.s:90145  .debug_str:00000000000032be .LASF9654
     /tmp/ccghGiGC.s:105925  .debug_str:0000000000043c4d .LASF9655
     /tmp/ccghGiGC.s:106739  .debug_str:00000000000470af .LASF9656
     /tmp/ccghGiGC.s:105929  .debug_str:0000000000043c71 .LASF9657
     /tmp/ccghGiGC.s:98877  .debug_str:0000000000026d89 .LASF9658
     /tmp/ccghGiGC.s:91997  .debug_str:000000000000af90 .LASF9659
     /tmp/ccghGiGC.s:103633  .debug_str:0000000000039e22 .LASF9660
     /tmp/ccghGiGC.s:108565  .debug_str:000000000004ec6f .LASF9661
     /tmp/ccghGiGC.s:90531  .debug_str:0000000000004cb9 .LASF9662
     /tmp/ccghGiGC.s:90911  .debug_str:00000000000065b5 .LASF9663
     /tmp/ccghGiGC.s:94925  .debug_str:00000000000165ec .LASF9664
     /tmp/ccghGiGC.s:92351  .debug_str:000000000000c7ea .LASF9665
     /tmp/ccghGiGC.s:95915  .debug_str:000000000001a7b6 .LASF9666
     /tmp/ccghGiGC.s:100465  .debug_str:000000000002d3b3 .LASF9667
     /tmp/ccghGiGC.s:108025  .debug_str:000000000004c63e .LASF9668
     /tmp/ccghGiGC.s:97731  .debug_str:00000000000226aa .LASF9669
     /tmp/ccghGiGC.s:91453  .debug_str:0000000000008aae .LASF9670
     /tmp/ccghGiGC.s:102673  .debug_str:0000000000036612 .LASF9671
     /tmp/ccghGiGC.s:98741  .debug_str:00000000000264d4 .LASF9672
     /tmp/ccghGiGC.s:104081  .debug_str:000000000003bbca .LASF9673
     /tmp/ccghGiGC.s:91793  .debug_str:000000000000a1e8 .LASF9674
     /tmp/ccghGiGC.s:96017  .debug_str:000000000001af26 .LASF9675
     /tmp/ccghGiGC.s:106563  .debug_str:00000000000465d3 .LASF9676
     /tmp/ccghGiGC.s:90073  .debug_str:0000000000002dd6 .LASF9677
     /tmp/ccghGiGC.s:93369  .debug_str:0000000000010481 .LASF9678
     /tmp/ccghGiGC.s:95163  .debug_str:00000000000175ae .LASF9679
     /tmp/ccghGiGC.s:106513  .debug_str:000000000004625e .LASF9680
     /tmp/ccghGiGC.s:95955  .debug_str:000000000001aab9 .LASF9681
     /tmp/ccghGiGC.s:106057  .debug_str:0000000000044472 .LASF9682
     /tmp/ccghGiGC.s:98819  .debug_str:0000000000026974 .LASF9683
     /tmp/ccghGiGC.s:103499  .debug_str:0000000000039731 .LASF9684
     /tmp/ccghGiGC.s:93743  .debug_str:00000000000119e4 .LASF9685
     /tmp/ccghGiGC.s:108445  .debug_str:000000000004e44b .LASF9686
     /tmp/ccghGiGC.s:94023  .debug_str:0000000000012c5a .LASF9687
     /tmp/ccghGiGC.s:93959  .debug_str:00000000000127e3 .LASF9688
     /tmp/ccghGiGC.s:94099  .debug_str:000000000001318a .LASF9689
     /tmp/ccghGiGC.s:97373  .debug_str:0000000000020e47 .LASF9690
     /tmp/ccghGiGC.s:94175  .debug_str:0000000000013760 .LASF9691
     /tmp/ccghGiGC.s:97463  .debug_str:00000000000213d8 .LASF9692
     /tmp/ccghGiGC.s:94251  .debug_str:0000000000013bed .LASF9693
     /tmp/ccghGiGC.s:97543  .debug_str:000000000002197a .LASF9694
     /tmp/ccghGiGC.s:94335  .debug_str:00000000000140f1 .LASF9695
     /tmp/ccghGiGC.s:97621  .debug_str:0000000000021f82 .LASF9696
     /tmp/ccghGiGC.s:102829  .debug_str:000000000003707a .LASF9697
     /tmp/ccghGiGC.s:104897  .debug_str:000000000003f375 .LASF9698
     /tmp/ccghGiGC.s:94453  .debug_str:00000000000148b7 .LASF9699
     /tmp/ccghGiGC.s:90945  .debug_str:0000000000006809 .LASF9700
     /tmp/ccghGiGC.s:103811  .debug_str:000000000003a99b .LASF9701
     /tmp/ccghGiGC.s:107545  .debug_str:000000000004a4e3 .LASF9702
     /tmp/ccghGiGC.s:107591  .debug_str:000000000004a7b9 .LASF9703
     /tmp/ccghGiGC.s:91261  .debug_str:0000000000007d92 .LASF9704
     /tmp/ccghGiGC.s:91671  .debug_str:0000000000009947 .LASF9705
     /tmp/ccghGiGC.s:91153  .debug_str:0000000000007650 .LASF9706
     /tmp/ccghGiGC.s:108197  .debug_str:000000000004d287 .LASF9707
     /tmp/ccghGiGC.s:93957  .debug_str:00000000000127d7 .LASF9708
     /tmp/ccghGiGC.s:102737  .debug_str:0000000000036a43 .LASF9709
     /tmp/ccghGiGC.s:107741  .debug_str:000000000004b327 .LASF9710
     /tmp/ccghGiGC.s:106645  .debug_str:0000000000046a6e .LASF9711
     /tmp/ccghGiGC.s:91977  .debug_str:000000000000ae63 .LASF9712
     /tmp/ccghGiGC.s:103309  .debug_str:0000000000038d73 .LASF9713
     /tmp/ccghGiGC.s:94939  .debug_str:00000000000166b2 .LASF9714
     /tmp/ccghGiGC.s:96735  .debug_str:000000000001e12b .LASF9715
     /tmp/ccghGiGC.s:96265  .debug_str:000000000001bfc8 .LASF9716
     /tmp/ccghGiGC.s:107179  .debug_str:0000000000048d7a .LASF9717
     /tmp/ccghGiGC.s:106881  .debug_str:0000000000047a23 .LASF9718
     /tmp/ccghGiGC.s:103049  .debug_str:0000000000037da9 .LASF9719
     /tmp/ccghGiGC.s:98051  .debug_str:0000000000023bb6 .LASF9720
     /tmp/ccghGiGC.s:98799  .debug_str:0000000000026855 .LASF9721
     /tmp/ccghGiGC.s:108195  .debug_str:000000000004d274 .LASF9722
     /tmp/ccghGiGC.s:94577  .debug_str:0000000000014fe1 .LASF9723
     /tmp/ccghGiGC.s:91161  .debug_str:00000000000076b2 .LASF9724
     /tmp/ccghGiGC.s:101765  .debug_str:000000000003287f .LASF9737
     /tmp/ccghGiGC.s:1085   .text.set_early_late_thresholds:0000000000000000 .LFB29
     /tmp/ccghGiGC.s:1168   .text.set_early_late_thresholds:00000000000000be .LFE29
     /tmp/ccghGiGC.s:101885  .debug_str:00000000000330a9 .LASF9725
     /tmp/ccghGiGC.s:90375  .debug_str:00000000000041f0 .LASF9726
     /tmp/ccghGiGC.s:98735  .debug_str:0000000000026497 .LASF9727
     /tmp/ccghGiGC.s:97905  .debug_str:0000000000023177 .LASF9728
     /tmp/ccghGiGC.s:89585  .debug_str:0000000000000b74 .LASF9730
     /tmp/ccghGiGC.s:966    .text.ddr_pvt_recalibration:0000000000000000 .LFB28
     /tmp/ccghGiGC.s:1079   .text.ddr_pvt_recalibration:00000000000000fc .LFE28
     /tmp/ccghGiGC.s:98513  .debug_str:0000000000025853 .LASF9729
     /tmp/ccghGiGC.s:94711  .debug_str:0000000000015868 .LASF9731
     /tmp/ccghGiGC.s:789    .text.ddr_pvt_calibration:0000000000000000 .LFB27
     /tmp/ccghGiGC.s:959    .text.ddr_pvt_calibration:0000000000000170 .LFE27
     /tmp/ccghGiGC.s:97985  .debug_str:00000000000236b6 .LASF9738
     /tmp/ccghGiGC.s:737    .text.sgmii_off_mode:0000000000000000 .LFB26
     /tmp/ccghGiGC.s:782    .text.sgmii_off_mode:000000000000004c .LFE26
     /tmp/ccghGiGC.s:105439  .debug_str:00000000000418e6 .LASF9739
     /tmp/ccghGiGC.s:650    .text.setup_sgmii_rpc_per_config:0000000000000000 .LFB25
     /tmp/ccghGiGC.s:730    .text.setup_sgmii_rpc_per_config:00000000000000be .LFE25
     /tmp/ccghGiGC.s:100829  .debug_str:000000000002eb44 .LASF9740
     /tmp/ccghGiGC.s:66     .text.sgmii_channel_setup:0000000000000000 .LFB24
     /tmp/ccghGiGC.s:644    .text.sgmii_channel_setup:0000000000000540 .LFE24
     /tmp/ccghGiGC.s:97443  .debug_str:0000000000021270 .LASF9732
     /tmp/ccghGiGC.s:93771  .debug_str:0000000000011bbf .LASF9741
     /tmp/ccghGiGC.s:26     .text.sgmii_setup:0000000000000000 .LFB23
     /tmp/ccghGiGC.s:60     .text.sgmii_setup:0000000000000024 .LFE23
     /tmp/ccghGiGC.s:1206   .debug_info:0000000000000000 .Ldebug_info0
     /tmp/ccghGiGC.s:70786  .debug_macro:0000000000000000 .Ldebug_macro2
     /tmp/ccghGiGC.s:92559  .debug_str:000000000000d669 .LASF324
     /tmp/ccghGiGC.s:100177  .debug_str:000000000002c23b .LASF325
     /tmp/ccghGiGC.s:103737  .debug_str:000000000003a4c5 .LASF326
     /tmp/ccghGiGC.s:71763  .debug_macro:0000000000000000 .Ldebug_macro3
     /tmp/ccghGiGC.s:71783  .debug_macro:0000000000000000 .Ldebug_macro4
     /tmp/ccghGiGC.s:95101  .debug_str:0000000000017187 .LASF341
     /tmp/ccghGiGC.s:71815  .debug_macro:0000000000000000 .Ldebug_macro5
     /tmp/ccghGiGC.s:71829  .debug_macro:0000000000000000 .Ldebug_macro6
     /tmp/ccghGiGC.s:71897  .debug_macro:0000000000000000 .Ldebug_macro7
     /tmp/ccghGiGC.s:71926  .debug_macro:0000000000000000 .Ldebug_macro8
     /tmp/ccghGiGC.s:100577  .debug_str:000000000002da86 .LASF382
     /tmp/ccghGiGC.s:71955  .debug_macro:0000000000000000 .Ldebug_macro9
     /tmp/ccghGiGC.s:72119  .debug_macro:0000000000000000 .Ldebug_macro10
     /tmp/ccghGiGC.s:72133  .debug_macro:0000000000000000 .Ldebug_macro11
     /tmp/ccghGiGC.s:102675  .debug_str:0000000000036623 .LASF441
     /tmp/ccghGiGC.s:72165  .debug_macro:0000000000000000 .Ldebug_macro12
     /tmp/ccghGiGC.s:72209  .debug_macro:0000000000000000 .Ldebug_macro13
     /tmp/ccghGiGC.s:72235  .debug_macro:0000000000000000 .Ldebug_macro14
     /tmp/ccghGiGC.s:72246  .debug_macro:0000000000000000 .Ldebug_macro15
     /tmp/ccghGiGC.s:72290  .debug_macro:0000000000000000 .Ldebug_macro16
     /tmp/ccghGiGC.s:91961  .debug_str:000000000000acf1 .LASF535
     /tmp/ccghGiGC.s:72469  .debug_macro:0000000000000000 .Ldebug_macro17
     /tmp/ccghGiGC.s:72837  .debug_macro:0000000000000000 .Ldebug_macro18
     /tmp/ccghGiGC.s:72848  .debug_macro:0000000000000000 .Ldebug_macro19
     /tmp/ccghGiGC.s:92831  .debug_str:000000000000e634 .LASF658
     /tmp/ccghGiGC.s:90759  .debug_str:0000000000005bbb .LASF659
     /tmp/ccghGiGC.s:107211  .debug_str:0000000000048faf .LASF660
     /tmp/ccghGiGC.s:72874  .debug_macro:0000000000000000 .Ldebug_macro20
     /tmp/ccghGiGC.s:101117  .debug_str:000000000002fe53 .LASF663
     /tmp/ccghGiGC.s:72891  .debug_macro:0000000000000000 .Ldebug_macro21
     /tmp/ccghGiGC.s:104335  .debug_str:000000000003cdaf .LASF666
     /tmp/ccghGiGC.s:72902  .debug_macro:0000000000000000 .Ldebug_macro22
     /tmp/ccghGiGC.s:72913  .debug_macro:0000000000000000 .Ldebug_macro23
     /tmp/ccghGiGC.s:93373  .debug_str:00000000000104c3 .LASF686
     /tmp/ccghGiGC.s:72969  .debug_macro:0000000000000000 .Ldebug_macro24
     /tmp/ccghGiGC.s:72986  .debug_macro:0000000000000000 .Ldebug_macro25
     /tmp/ccghGiGC.s:101609  .debug_str:0000000000031de2 .LASF704
     /tmp/ccghGiGC.s:101821  .debug_str:0000000000032c4d .LASF705
     /tmp/ccghGiGC.s:73030  .debug_macro:0000000000000000 .Ldebug_macro26
     /tmp/ccghGiGC.s:99747  .debug_str:000000000002a745 .LASF716
     /tmp/ccghGiGC.s:90259  .debug_str:00000000000039e1 .LASF717
     /tmp/ccghGiGC.s:73065  .debug_macro:0000000000000000 .Ldebug_macro27
     /tmp/ccghGiGC.s:73076  .debug_macro:0000000000000000 .Ldebug_macro28
     /tmp/ccghGiGC.s:73111  .debug_macro:0000000000000000 .Ldebug_macro29
     /tmp/ccghGiGC.s:99267  .debug_str:00000000000286d2 .LASF762
     /tmp/ccghGiGC.s:73212  .debug_macro:0000000000000000 .Ldebug_macro30
     /tmp/ccghGiGC.s:73229  .debug_macro:0000000000000000 .Ldebug_macro31
     /tmp/ccghGiGC.s:98771  .debug_str:00000000000266a0 .LASF776
     /tmp/ccghGiGC.s:94551  .debug_str:0000000000014e1f .LASF777
     /tmp/ccghGiGC.s:73261  .debug_macro:0000000000000000 .Ldebug_macro32
     /tmp/ccghGiGC.s:73275  .debug_macro:0000000000000000 .Ldebug_macro33
     /tmp/ccghGiGC.s:99453  .debug_str:00000000000294a1 .LASF830
     /tmp/ccghGiGC.s:73427  .debug_macro:0000000000000000 .Ldebug_macro34
     /tmp/ccghGiGC.s:96021  .debug_str:000000000001af7d .LASF836
     /tmp/ccghGiGC.s:73447  .debug_macro:0000000000000000 .Ldebug_macro35
     /tmp/ccghGiGC.s:73569  .debug_macro:0000000000000000 .Ldebug_macro36
     /tmp/ccghGiGC.s:95615  .debug_str:00000000000192b5 .LASF935
     /tmp/ccghGiGC.s:73781  .debug_macro:0000000000000000 .Ldebug_macro37
     /tmp/ccghGiGC.s:73792  .debug_macro:0000000000000000 .Ldebug_macro38
     /tmp/ccghGiGC.s:75591  .debug_macro:0000000000000000 .Ldebug_macro39
     /tmp/ccghGiGC.s:96755  .debug_str:000000000001e2c1 .LASF1558
     /tmp/ccghGiGC.s:75662  .debug_macro:0000000000000000 .Ldebug_macro40
     /tmp/ccghGiGC.s:105071  .debug_str:000000000003fe6e .LASF3749
     /tmp/ccghGiGC.s:82237  .debug_macro:0000000000000000 .Ldebug_macro41
     /tmp/ccghGiGC.s:82254  .debug_macro:0000000000000000 .Ldebug_macro42
     /tmp/ccghGiGC.s:82277  .debug_macro:0000000000000000 .Ldebug_macro43
     /tmp/ccghGiGC.s:82294  .debug_macro:0000000000000000 .Ldebug_macro44
     /tmp/ccghGiGC.s:82323  .debug_macro:0000000000000000 .Ldebug_macro45
     /tmp/ccghGiGC.s:82382  .debug_macro:0000000000000000 .Ldebug_macro46
     /tmp/ccghGiGC.s:82405  .debug_macro:0000000000000000 .Ldebug_macro47
     /tmp/ccghGiGC.s:82464  .debug_macro:0000000000000000 .Ldebug_macro48
     /tmp/ccghGiGC.s:85223  .debug_macro:0000000000000000 .Ldebug_macro49
     /tmp/ccghGiGC.s:85267  .debug_macro:0000000000000000 .Ldebug_macro50
     /tmp/ccghGiGC.s:85353  .debug_macro:0000000000000000 .Ldebug_macro51
     /tmp/ccghGiGC.s:85382  .debug_macro:0000000000000000 .Ldebug_macro52
     /tmp/ccghGiGC.s:85441  .debug_macro:0000000000000000 .Ldebug_macro53
     /tmp/ccghGiGC.s:85503  .debug_macro:0000000000000000 .Ldebug_macro54
     /tmp/ccghGiGC.s:85565  .debug_macro:0000000000000000 .Ldebug_macro55
     /tmp/ccghGiGC.s:85627  .debug_macro:0000000000000000 .Ldebug_macro56
     /tmp/ccghGiGC.s:85689  .debug_macro:0000000000000000 .Ldebug_macro57
     /tmp/ccghGiGC.s:85751  .debug_macro:0000000000000000 .Ldebug_macro58
     /tmp/ccghGiGC.s:85807  .debug_macro:0000000000000000 .Ldebug_macro59
     /tmp/ccghGiGC.s:85863  .debug_macro:0000000000000000 .Ldebug_macro60
     /tmp/ccghGiGC.s:85895  .debug_macro:0000000000000000 .Ldebug_macro61
     /tmp/ccghGiGC.s:85915  .debug_macro:0000000000000000 .Ldebug_macro62
     /tmp/ccghGiGC.s:85947  .debug_macro:0000000000000000 .Ldebug_macro63
     /tmp/ccghGiGC.s:85979  .debug_macro:0000000000000000 .Ldebug_macro64
     /tmp/ccghGiGC.s:85999  .debug_macro:0000000000000000 .Ldebug_macro65
     /tmp/ccghGiGC.s:86019  .debug_macro:0000000000000000 .Ldebug_macro66
     /tmp/ccghGiGC.s:86051  .debug_macro:0000000000000000 .Ldebug_macro67
     /tmp/ccghGiGC.s:86065  .debug_macro:0000000000000000 .Ldebug_macro68
     /tmp/ccghGiGC.s:86166  .debug_macro:0000000000000000 .Ldebug_macro69
     /tmp/ccghGiGC.s:86183  .debug_macro:0000000000000000 .Ldebug_macro70
     /tmp/ccghGiGC.s:86221  .debug_macro:0000000000000000 .Ldebug_macro71
     /tmp/ccghGiGC.s:86244  .debug_macro:0000000000000000 .Ldebug_macro72
     /tmp/ccghGiGC.s:86372  .debug_macro:0000000000000000 .Ldebug_macro73
     /tmp/ccghGiGC.s:86386  .debug_macro:0000000000000000 .Ldebug_macro74
     /tmp/ccghGiGC.s:86400  .debug_macro:0000000000000000 .Ldebug_macro75
     /tmp/ccghGiGC.s:86456  .debug_macro:0000000000000000 .Ldebug_macro76
     /tmp/ccghGiGC.s:87571  .debug_macro:0000000000000000 .Ldebug_macro77
     /tmp/ccghGiGC.s:87603  .debug_macro:0000000000000000 .Ldebug_macro78
     /tmp/ccghGiGC.s:87623  .debug_macro:0000000000000000 .Ldebug_macro79
     /tmp/ccghGiGC.s:87667  .debug_macro:0000000000000000 .Ldebug_macro80
     /tmp/ccghGiGC.s:87714  .debug_macro:0000000000000000 .Ldebug_macro81
     /tmp/ccghGiGC.s:87761  .debug_macro:0000000000000000 .Ldebug_macro82
     /tmp/ccghGiGC.s:87796  .debug_macro:0000000000000000 .Ldebug_macro83
     /tmp/ccghGiGC.s:87819  .debug_macro:0000000000000000 .Ldebug_macro84
     /tmp/ccghGiGC.s:89525  .debug_str:000000000000078e .LASF5543
     /tmp/ccghGiGC.s:87836  .debug_macro:0000000000000000 .Ldebug_macro85
     /tmp/ccghGiGC.s:93381  .debug_str:000000000001052b .LASF5698
     /tmp/ccghGiGC.s:88303  .debug_macro:0000000000000000 .Ldebug_macro86
     /tmp/ccghGiGC.s:88320  .debug_macro:0000000000000000 .Ldebug_macro87
     /tmp/ccghGiGC.s:88334  .debug_macro:0000000000000000 .Ldebug_macro88
     /tmp/ccghGiGC.s:88651  .debug_macro:0000000000000000 .Ldebug_macro89
     /tmp/ccghGiGC.s:88671  .debug_macro:0000000000000000 .Ldebug_macro90
     /tmp/ccghGiGC.s:100659  .debug_str:000000000002dfe5 .LASF5854
     /tmp/ccghGiGC.s:88793  .debug_macro:0000000000000000 .Ldebug_macro91
     /tmp/ccghGiGC.s:88855  .debug_macro:0000000000000000 .Ldebug_macro92
     /tmp/ccghGiGC.s:100065  .debug_str:000000000002bb84 .LASF5876
     /tmp/ccghGiGC.s:88866  .debug_macro:0000000000000000 .Ldebug_macro93
     /tmp/ccghGiGC.s:88895  .debug_macro:0000000000000000 .Ldebug_macro94
     /tmp/ccghGiGC.s:103903  .debug_str:000000000003b05e .LASF5901
     /tmp/ccghGiGC.s:88948  .debug_macro:0000000000000000 .Ldebug_macro95
     /tmp/ccghGiGC.s:108055  .debug_str:000000000004c825 .LASF5921
     /tmp/ccghGiGC.s:89010  .debug_macro:0000000000000000 .Ldebug_macro96
     /tmp/ccghGiGC.s:89078  .debug_macro:0000000000000000 .Ldebug_macro97
     /tmp/ccghGiGC.s:89101  .debug_macro:0000000000000000 .Ldebug_macro98
     /tmp/ccghGiGC.s:89181  .debug_macro:0000000000000000 .Ldebug_macro99
     /tmp/ccghGiGC.s:89312  .debug_macro:0000000000000000 .Ldebug_macro100
     /tmp/ccghGiGC.s:89332  .debug_macro:0000000000000000 .Ldebug_macro101
     /tmp/ccghGiGC.s:89346  .debug_macro:0000000000000000 .Ldebug_macro102
     /tmp/ccghGiGC.s:94313  .debug_str:0000000000013fde .LASF0
     /tmp/ccghGiGC.s:101221  .debug_str:00000000000304bc .LASF1
     /tmp/ccghGiGC.s:98349  .debug_str:0000000000024f72 .LASF2
     /tmp/ccghGiGC.s:98423  .debug_str:000000000002538c .LASF3
     /tmp/ccghGiGC.s:92821  .debug_str:000000000000e5b4 .LASF4
     /tmp/ccghGiGC.s:93009  .debug_str:000000000000eee8 .LASF5
     /tmp/ccghGiGC.s:103833  .debug_str:000000000003ab3a .LASF6
     /tmp/ccghGiGC.s:91731  .debug_str:0000000000009e16 .LASF7
     /tmp/ccghGiGC.s:90027  .debug_str:0000000000002b39 .LASF8
     /tmp/ccghGiGC.s:89697  .debug_str:00000000000012d7 .LASF9
     /tmp/ccghGiGC.s:103353  .debug_str:0000000000039041 .LASF10
     /tmp/ccghGiGC.s:107053  .debug_str:00000000000485a8 .LASF11
     /tmp/ccghGiGC.s:100907  .debug_str:000000000002f03d .LASF12
     /tmp/ccghGiGC.s:96545  .debug_str:000000000001d3aa .LASF13
     /tmp/ccghGiGC.s:92567  .debug_str:000000000000d6d0 .LASF14
     /tmp/ccghGiGC.s:91763  .debug_str:000000000000a00e .LASF15
     /tmp/ccghGiGC.s:106135  .debug_str:000000000004499b .LASF16
     /tmp/ccghGiGC.s:104463  .debug_str:000000000003d5c3 .LASF17
     /tmp/ccghGiGC.s:95459  .debug_str:000000000001894f .LASF18
     /tmp/ccghGiGC.s:107005  .debug_str:00000000000482a1 .LASF19
     /tmp/ccghGiGC.s:106729  .debug_str:000000000004702f .LASF20
     /tmp/ccghGiGC.s:107629  .debug_str:000000000004ab38 .LASF21
     /tmp/ccghGiGC.s:91075  .debug_str:0000000000007180 .LASF22
     /tmp/ccghGiGC.s:92945  .debug_str:000000000000ec9c .LASF23
     /tmp/ccghGiGC.s:105507  .debug_str:0000000000041ce2 .LASF24
     /tmp/ccghGiGC.s:103759  .debug_str:000000000003a5fd .LASF25
     /tmp/ccghGiGC.s:92475  .debug_str:000000000000d07d .LASF26
     /tmp/ccghGiGC.s:91497  .debug_str:0000000000008d87 .LASF27
     /tmp/ccghGiGC.s:105377  .debug_str:0000000000041404 .LASF28
     /tmp/ccghGiGC.s:103637  .debug_str:0000000000039e69 .LASF29
     /tmp/ccghGiGC.s:95151  .debug_str:000000000001750d .LASF30
     /tmp/ccghGiGC.s:102743  .debug_str:0000000000036a80 .LASF31
     /tmp/ccghGiGC.s:96179  .debug_str:000000000001b969 .LASF32
     /tmp/ccghGiGC.s:100317  .debug_str:000000000002ca8b .LASF33
     /tmp/ccghGiGC.s:99985  .debug_str:000000000002b594 .LASF34
     /tmp/ccghGiGC.s:92299  .debug_str:000000000000c4c5 .LASF35
     /tmp/ccghGiGC.s:94539  .debug_str:0000000000014d48 .LASF36
     /tmp/ccghGiGC.s:99171  .debug_str:0000000000028082 .LASF37
     /tmp/ccghGiGC.s:108797  .debug_str:000000000004fbff .LASF38
     /tmp/ccghGiGC.s:98203  .debug_str:00000000000245cd .LASF39
     /tmp/ccghGiGC.s:99373  .debug_str:0000000000028e8c .LASF40
     /tmp/ccghGiGC.s:94501  .debug_str:0000000000014bbc .LASF41
     /tmp/ccghGiGC.s:90935  .debug_str:000000000000673b .LASF42
     /tmp/ccghGiGC.s:104253  .debug_str:000000000003c8c5 .LASF43
     /tmp/ccghGiGC.s:90175  .debug_str:00000000000034d2 .LASF44
     /tmp/ccghGiGC.s:105245  .debug_str:0000000000040920 .LASF45
     /tmp/ccghGiGC.s:90903  .debug_str:0000000000006522 .LASF46
     /tmp/ccghGiGC.s:103755  .debug_str:000000000003a5c6 .LASF47
     /tmp/ccghGiGC.s:100619  .debug_str:000000000002dd81 .LASF48
     /tmp/ccghGiGC.s:96797  .debug_str:000000000001e595 .LASF49
     /tmp/ccghGiGC.s:108281  .debug_str:000000000004d7a9 .LASF50
     /tmp/ccghGiGC.s:91133  .debug_str:0000000000007575 .LASF51
     /tmp/ccghGiGC.s:95551  .debug_str:0000000000018e6a .LASF52
     /tmp/ccghGiGC.s:102485  .debug_str:00000000000358ae .LASF53
     /tmp/ccghGiGC.s:89865  .debug_str:0000000000001fc6 .LASF54
     /tmp/ccghGiGC.s:92431  .debug_str:000000000000cdf3 .LASF55
     /tmp/ccghGiGC.s:106727  .debug_str:0000000000047006 .LASF56
     /tmp/ccghGiGC.s:105133  .debug_str:00000000000401fb .LASF57
     /tmp/ccghGiGC.s:107919  .debug_str:000000000004bf4c .LASF58
     /tmp/ccghGiGC.s:106351  .debug_str:0000000000045783 .LASF59
     /tmp/ccghGiGC.s:100579  .debug_str:000000000002da95 .LASF60
     /tmp/ccghGiGC.s:106419  .debug_str:0000000000045ca0 .LASF61
     /tmp/ccghGiGC.s:99497  .debug_str:000000000002973f .LASF62
     /tmp/ccghGiGC.s:105023  .debug_str:000000000003fb91 .LASF63
     /tmp/ccghGiGC.s:98833  .debug_str:0000000000026a8e .LASF64
     /tmp/ccghGiGC.s:100215  .debug_str:000000000002c4b6 .LASF65
     /tmp/ccghGiGC.s:101635  .debug_str:0000000000031f35 .LASF66
     /tmp/ccghGiGC.s:96849  .debug_str:000000000001e916 .LASF67
     /tmp/ccghGiGC.s:106479  .debug_str:000000000004602a .LASF68
     /tmp/ccghGiGC.s:104147  .debug_str:000000000003c095 .LASF69
     /tmp/ccghGiGC.s:108799  .debug_str:000000000004fc18 .LASF70
     /tmp/ccghGiGC.s:95065  .debug_str:0000000000016f76 .LASF71
     /tmp/ccghGiGC.s:89973  .debug_str:0000000000002737 .LASF72
     /tmp/ccghGiGC.s:106955  .debug_str:0000000000047f10 .LASF73
     /tmp/ccghGiGC.s:98729  .debug_str:0000000000026460 .LASF74
     /tmp/ccghGiGC.s:105199  .debug_str:00000000000405e4 .LASF75
     /tmp/ccghGiGC.s:98029  .debug_str:0000000000023a2b .LASF76
     /tmp/ccghGiGC.s:91541  .debug_str:00000000000090ae .LASF77
     /tmp/ccghGiGC.s:101873  .debug_str:0000000000033016 .LASF78
     /tmp/ccghGiGC.s:99877  .debug_str:000000000002aec8 .LASF79
     /tmp/ccghGiGC.s:101379  .debug_str:0000000000030f5b .LASF80
     /tmp/ccghGiGC.s:94287  .debug_str:0000000000013e2b .LASF81
     /tmp/ccghGiGC.s:91709  .debug_str:0000000000009c52 .LASF82
     /tmp/ccghGiGC.s:91743  .debug_str:0000000000009f08 .LASF83
     /tmp/ccghGiGC.s:93471  .debug_str:0000000000010a03 .LASF84
     /tmp/ccghGiGC.s:100265  .debug_str:000000000002c764 .LASF85
     /tmp/ccghGiGC.s:102047  .debug_str:0000000000033b78 .LASF86
     /tmp/ccghGiGC.s:98399  .debug_str:000000000002521f .LASF87
     /tmp/ccghGiGC.s:107335  .debug_str:00000000000497e4 .LASF88
     /tmp/ccghGiGC.s:92749  .debug_str:000000000000e14b .LASF89
     /tmp/ccghGiGC.s:99091  .debug_str:0000000000027b5b .LASF90
     /tmp/ccghGiGC.s:95817  .debug_str:000000000001a09a .LASF91
     /tmp/ccghGiGC.s:98041  .debug_str:0000000000023b32 .LASF92
     /tmp/ccghGiGC.s:107363  .debug_str:0000000000049940 .LASF93
     /tmp/ccghGiGC.s:107805  .debug_str:000000000004b7be .LASF94
     /tmp/ccghGiGC.s:101689  .debug_str:0000000000032296 .LASF95
     /tmp/ccghGiGC.s:97629  .debug_str:0000000000022007 .LASF96
     /tmp/ccghGiGC.s:92827  .debug_str:000000000000e5e9 .LASF97
     /tmp/ccghGiGC.s:101869  .debug_str:0000000000032fdb .LASF98
     /tmp/ccghGiGC.s:103881  .debug_str:000000000003ae9c .LASF99
     /tmp/ccghGiGC.s:103293  .debug_str:0000000000038c3c .LASF100
     /tmp/ccghGiGC.s:98907  .debug_str:0000000000026fd8 .LASF101
     /tmp/ccghGiGC.s:100433  .debug_str:000000000002d200 .LASF102
     /tmp/ccghGiGC.s:92483  .debug_str:000000000000d11e .LASF103
     /tmp/ccghGiGC.s:100301  .debug_str:000000000002c9d2 .LASF104
     /tmp/ccghGiGC.s:98271  .debug_str:0000000000024a9e .LASF105
     /tmp/ccghGiGC.s:100099  .debug_str:000000000002bd31 .LASF106
     /tmp/ccghGiGC.s:90549  .debug_str:0000000000004e3d .LASF107
     /tmp/ccghGiGC.s:102937  .debug_str:0000000000037784 .LASF108
     /tmp/ccghGiGC.s:101327  .debug_str:0000000000030c04 .LASF109
     /tmp/ccghGiGC.s:105217  .debug_str:0000000000040702 .LASF110
     /tmp/ccghGiGC.s:92635  .debug_str:000000000000db41 .LASF111
     /tmp/ccghGiGC.s:103697  .debug_str:000000000003a190 .LASF112
     /tmp/ccghGiGC.s:89597  .debug_str:0000000000000c37 .LASF113
     /tmp/ccghGiGC.s:105685  .debug_str:0000000000042c6c .LASF114
     /tmp/ccghGiGC.s:107129  .debug_str:0000000000048ac0 .LASF115
     /tmp/ccghGiGC.s:98627  .debug_str:0000000000025ec0 .LASF116
     /tmp/ccghGiGC.s:94053  .debug_str:0000000000012e55 .LASF117
     /tmp/ccghGiGC.s:94609  .debug_str:00000000000151da .LASF118
     /tmp/ccghGiGC.s:102931  .debug_str:000000000003773c .LASF119
     /tmp/ccghGiGC.s:100623  .debug_str:000000000002ddb5 .LASF120
     /tmp/ccghGiGC.s:93399  .debug_str:0000000000010617 .LASF121
     /tmp/ccghGiGC.s:94841  .debug_str:0000000000016077 .LASF122
     /tmp/ccghGiGC.s:93597  .debug_str:00000000000110b7 .LASF123
     /tmp/ccghGiGC.s:95767  .debug_str:0000000000019db7 .LASF124
     /tmp/ccghGiGC.s:103435  .debug_str:000000000003943c .LASF125
     /tmp/ccghGiGC.s:105019  .debug_str:000000000003fb51 .LASF126
     /tmp/ccghGiGC.s:104651  .debug_str:000000000003e3c8 .LASF127
     /tmp/ccghGiGC.s:103875  .debug_str:000000000003ae2a .LASF128
     /tmp/ccghGiGC.s:99693  .debug_str:000000000002a37f .LASF129
     /tmp/ccghGiGC.s:104531  .debug_str:000000000003da6e .LASF130
     /tmp/ccghGiGC.s:93777  .debug_str:0000000000011c33 .LASF131
     /tmp/ccghGiGC.s:97789  .debug_str:000000000002297e .LASF132
     /tmp/ccghGiGC.s:99773  .debug_str:000000000002a8f9 .LASF133
     /tmp/ccghGiGC.s:94147  .debug_str:0000000000013549 .LASF134
     /tmp/ccghGiGC.s:106873  .debug_str:0000000000047981 .LASF135
     /tmp/ccghGiGC.s:104837  .debug_str:000000000003ef25 .LASF136
     /tmp/ccghGiGC.s:100697  .debug_str:000000000002e288 .LASF137
     /tmp/ccghGiGC.s:96725  .debug_str:000000000001e087 .LASF138
     /tmp/ccghGiGC.s:103005  .debug_str:0000000000037be4 .LASF139
     /tmp/ccghGiGC.s:94743  .debug_str:0000000000015a68 .LASF140
     /tmp/ccghGiGC.s:107945  .debug_str:000000000004c13e .LASF141
     /tmp/ccghGiGC.s:99609  .debug_str:0000000000029def .LASF142
     /tmp/ccghGiGC.s:98545  .debug_str:0000000000025a94 .LASF143
     /tmp/ccghGiGC.s:93835  .debug_str:0000000000011ff3 .LASF144
     /tmp/ccghGiGC.s:92405  .debug_str:000000000000cbd4 .LASF145
     /tmp/ccghGiGC.s:93411  .debug_str:00000000000106bb .LASF146
     /tmp/ccghGiGC.s:94207  .debug_str:0000000000013945 .LASF147
     /tmp/ccghGiGC.s:97133  .debug_str:000000000001fd02 .LASF148
     /tmp/ccghGiGC.s:101377  .debug_str:0000000000030f47 .LASF149
     /tmp/ccghGiGC.s:105067  .debug_str:000000000003fe47 .LASF150
     /tmp/ccghGiGC.s:95861  .debug_str:000000000001a3f3 .LASF151
     /tmp/ccghGiGC.s:98679  .debug_str:00000000000260c5 .LASF152
     /tmp/ccghGiGC.s:91687  .debug_str:0000000000009aaf .LASF153
     /tmp/ccghGiGC.s:105501  .debug_str:0000000000041ca5 .LASF154
     /tmp/ccghGiGC.s:94173  .debug_str:000000000001374a .LASF155
     /tmp/ccghGiGC.s:106929  .debug_str:0000000000047d2a .LASF156
     /tmp/ccghGiGC.s:100447  .debug_str:000000000002d2ab .LASF157
     /tmp/ccghGiGC.s:90735  .debug_str:00000000000059f5 .LASF158
     /tmp/ccghGiGC.s:91001  .debug_str:0000000000006b81 .LASF159
     /tmp/ccghGiGC.s:108235  .debug_str:000000000004d4ca .LASF160
     /tmp/ccghGiGC.s:105289  .debug_str:0000000000040c5c .LASF161
     /tmp/ccghGiGC.s:107733  .debug_str:000000000004b2a0 .LASF162
     /tmp/ccghGiGC.s:93903  .debug_str:0000000000012505 .LASF163
     /tmp/ccghGiGC.s:94751  .debug_str:0000000000015ae9 .LASF164
     /tmp/ccghGiGC.s:107469  .debug_str:000000000004a07f .LASF165
     /tmp/ccghGiGC.s:101697  .debug_str:0000000000032308 .LASF166
     /tmp/ccghGiGC.s:93995  .debug_str:0000000000012a72 .LASF167
     /tmp/ccghGiGC.s:89961  .debug_str:0000000000002630 .LASF168
     /tmp/ccghGiGC.s:100677  .debug_str:000000000002e137 .LASF169
     /tmp/ccghGiGC.s:103971  .debug_str:000000000003b48d .LASF170
     /tmp/ccghGiGC.s:102431  .debug_str:00000000000354d2 .LASF171
     /tmp/ccghGiGC.s:101157  .debug_str:00000000000300e3 .LASF172
     /tmp/ccghGiGC.s:92029  .debug_str:000000000000b19f .LASF173
     /tmp/ccghGiGC.s:104155  .debug_str:000000000003c126 .LASF174
     /tmp/ccghGiGC.s:101631  .debug_str:0000000000031f06 .LASF175
     /tmp/ccghGiGC.s:94215  .debug_str:00000000000139a1 .LASF176
     /tmp/ccghGiGC.s:94139  .debug_str:00000000000134dc .LASF177
     /tmp/ccghGiGC.s:103263  .debug_str:0000000000038b55 .LASF178
     /tmp/ccghGiGC.s:100569  .debug_str:000000000002da00 .LASF179
     /tmp/ccghGiGC.s:102459  .debug_str:00000000000356d7 .LASF180
     /tmp/ccghGiGC.s:94253  .debug_str:0000000000013bfd .LASF181
     /tmp/ccghGiGC.s:107859  .debug_str:000000000004bb13 .LASF182
     /tmp/ccghGiGC.s:91761  .debug_str:0000000000009ff7 .LASF183
     /tmp/ccghGiGC.s:107057  .debug_str:00000000000485c9 .LASF184
     /tmp/ccghGiGC.s:97931  .debug_str:00000000000232d5 .LASF185
     /tmp/ccghGiGC.s:95055  .debug_str:0000000000016ec7 .LASF186
     /tmp/ccghGiGC.s:98827  .debug_str:00000000000269ef .LASF187
     /tmp/ccghGiGC.s:90607  .debug_str:00000000000051af .LASF188
     /tmp/ccghGiGC.s:90469  .debug_str:000000000000483a .LASF189
     /tmp/ccghGiGC.s:94121  .debug_str:000000000001337a .LASF190
     /tmp/ccghGiGC.s:108477  .debug_str:000000000004e677 .LASF191
     /tmp/ccghGiGC.s:104741  .debug_str:000000000003e9ae .LASF192
     /tmp/ccghGiGC.s:97035  .debug_str:000000000001f60b .LASF193
     /tmp/ccghGiGC.s:90475  .debug_str:00000000000048ca .LASF194
     /tmp/ccghGiGC.s:105101  .debug_str:000000000004001b .LASF195
     /tmp/ccghGiGC.s:106593  .debug_str:0000000000046733 .LASF196
     /tmp/ccghGiGC.s:98103  .debug_str:0000000000023eff .LASF197
     /tmp/ccghGiGC.s:89489  .debug_str:00000000000004df .LASF198
     /tmp/ccghGiGC.s:90169  .debug_str:0000000000003471 .LASF199
     /tmp/ccghGiGC.s:105705  .debug_str:0000000000042db1 .LASF200
     /tmp/ccghGiGC.s:100869  .debug_str:000000000002edc1 .LASF201
     /tmp/ccghGiGC.s:107293  .debug_str:000000000004950c .LASF202
     /tmp/ccghGiGC.s:103643  .debug_str:0000000000039eca .LASF203
     /tmp/ccghGiGC.s:90677  .debug_str:00000000000055db .LASF204
     /tmp/ccghGiGC.s:107257  .debug_str:00000000000492ad .LASF205
     /tmp/ccghGiGC.s:98259  .debug_str:00000000000249e6 .LASF206
     /tmp/ccghGiGC.s:105689  .debug_str:0000000000042ccc .LASF207
     /tmp/ccghGiGC.s:96827  .debug_str:000000000001e7d4 .LASF208
     /tmp/ccghGiGC.s:100051  .debug_str:000000000002babb .LASF209
     /tmp/ccghGiGC.s:95167  .debug_str:00000000000175e9 .LASF210
     /tmp/ccghGiGC.s:92751  .debug_str:000000000000e15d .LASF211
     /tmp/ccghGiGC.s:108597  .debug_str:000000000004ee0d .LASF212
     /tmp/ccghGiGC.s:105807  .debug_str:000000000004342a .LASF213
     /tmp/ccghGiGC.s:95241  .debug_str:0000000000017b5d .LASF214
     /tmp/ccghGiGC.s:98537  .debug_str:00000000000259ff .LASF215
     /tmp/ccghGiGC.s:96813  .debug_str:000000000001e697 .LASF216
     /tmp/ccghGiGC.s:95013  .debug_str:0000000000016bc6 .LASF217
     /tmp/ccghGiGC.s:102331  .debug_str:0000000000034e2d .LASF218
     /tmp/ccghGiGC.s:90813  .debug_str:0000000000005f4c .LASF219
     /tmp/ccghGiGC.s:97891  .debug_str:00000000000230b4 .LASF220
     /tmp/ccghGiGC.s:108393  .debug_str:000000000004e0ff .LASF221
     /tmp/ccghGiGC.s:104687  .debug_str:000000000003e60a .LASF222
     /tmp/ccghGiGC.s:94401  .debug_str:0000000000014550 .LASF223
     /tmp/ccghGiGC.s:106271  .debug_str:00000000000452ae .LASF224
     /tmp/ccghGiGC.s:108103  .debug_str:000000000004cb80 .LASF225
     /tmp/ccghGiGC.s:95835  .debug_str:000000000001a1ec .LASF226
     /tmp/ccghGiGC.s:104609  .debug_str:000000000003e0ed .LASF227
     /tmp/ccghGiGC.s:95927  .debug_str:000000000001a87d .LASF228
     /tmp/ccghGiGC.s:103291  .debug_str:0000000000038c21 .LASF229
     /tmp/ccghGiGC.s:91751  .debug_str:0000000000009f74 .LASF230
     /tmp/ccghGiGC.s:92035  .debug_str:000000000000b224 .LASF231
     /tmp/ccghGiGC.s:95963  .debug_str:000000000001ab67 .LASF232
     /tmp/ccghGiGC.s:93619  .debug_str:000000000001120d .LASF233
     /tmp/ccghGiGC.s:90745  .debug_str:0000000000005aa3 .LASF234
     /tmp/ccghGiGC.s:104279  .debug_str:000000000003caba .LASF235
     /tmp/ccghGiGC.s:101437  .debug_str:00000000000312b6 .LASF236
     /tmp/ccghGiGC.s:93297  .debug_str:000000000001010f .LASF237
     /tmp/ccghGiGC.s:92943  .debug_str:000000000000ec85 .LASF238
     /tmp/ccghGiGC.s:107755  .debug_str:000000000004b418 .LASF239
     /tmp/ccghGiGC.s:95355  .debug_str:0000000000018238 .LASF240
     /tmp/ccghGiGC.s:96689  .debug_str:000000000001de26 .LASF241
     /tmp/ccghGiGC.s:90967  .debug_str:0000000000006914 .LASF242
     /tmp/ccghGiGC.s:103193  .debug_str:000000000003877c .LASF243
     /tmp/ccghGiGC.s:106431  .debug_str:0000000000045d32 .LASF244
     /tmp/ccghGiGC.s:102627  .debug_str:000000000003630c .LASF245
     /tmp/ccghGiGC.s:95335  .debug_str:0000000000018133 .LASF246
     /tmp/ccghGiGC.s:105455  .debug_str:00000000000419b0 .LASF247
     /tmp/ccghGiGC.s:98031  .debug_str:0000000000023a52 .LASF248
     /tmp/ccghGiGC.s:102623  .debug_str:00000000000362e1 .LASF249
     /tmp/ccghGiGC.s:96765  .debug_str:000000000001e35b .LASF250
     /tmp/ccghGiGC.s:107347  .debug_str:00000000000498a3 .LASF251
     /tmp/ccghGiGC.s:96165  .debug_str:000000000001b893 .LASF252
     /tmp/ccghGiGC.s:103159  .debug_str:000000000003851a .LASF253
     /tmp/ccghGiGC.s:90255  .debug_str:00000000000039bc .LASF254
     /tmp/ccghGiGC.s:104183  .debug_str:000000000003c370 .LASF255
     /tmp/ccghGiGC.s:91041  .debug_str:0000000000006e84 .LASF256
     /tmp/ccghGiGC.s:91321  .debug_str:0000000000008151 .LASF257
     /tmp/ccghGiGC.s:107675  .debug_str:000000000004ae4b .LASF258
     /tmp/ccghGiGC.s:105549  .debug_str:000000000004229b .LASF259
     /tmp/ccghGiGC.s:93149  .debug_str:000000000000f821 .LASF260
     /tmp/ccghGiGC.s:96863  .debug_str:000000000001e9e5 .LASF261
     /tmp/ccghGiGC.s:106695  .debug_str:0000000000046d54 .LASF262
     /tmp/ccghGiGC.s:104355  .debug_str:000000000003cf2c .LASF263
     /tmp/ccghGiGC.s:100247  .debug_str:000000000002c675 .LASF264
     /tmp/ccghGiGC.s:92275  .debug_str:000000000000c34d .LASF265
     /tmp/ccghGiGC.s:97863  .debug_str:0000000000022e7b .LASF266
     /tmp/ccghGiGC.s:101617  .debug_str:0000000000031e58 .LASF267
     /tmp/ccghGiGC.s:97149  .debug_str:000000000001fdea .LASF268
     /tmp/ccghGiGC.s:99371  .debug_str:0000000000028e77 .LASF269
     /tmp/ccghGiGC.s:101731  .debug_str:0000000000032588 .LASF270
     /tmp/ccghGiGC.s:92133  .debug_str:000000000000b960 .LASF271
     /tmp/ccghGiGC.s:107849  .debug_str:000000000004ba87 .LASF272
     /tmp/ccghGiGC.s:94311  .debug_str:0000000000013fb7 .LASF273
     /tmp/ccghGiGC.s:92105  .debug_str:000000000000b771 .LASF274
     /tmp/ccghGiGC.s:103669  .debug_str:000000000003a055 .LASF275
     /tmp/ccghGiGC.s:99087  .debug_str:0000000000027b07 .LASF276
     /tmp/ccghGiGC.s:89577  .debug_str:0000000000000b23 .LASF277
     /tmp/ccghGiGC.s:102979  .debug_str:0000000000037a1c .LASF278
     /tmp/ccghGiGC.s:101833  .debug_str:0000000000032d09 .LASF279
     /tmp/ccghGiGC.s:107977  .debug_str:000000000004c30a .LASF280
     /tmp/ccghGiGC.s:99967  .debug_str:000000000002b4b5 .LASF281
     /tmp/ccghGiGC.s:105225  .debug_str:000000000004078c .LASF282
     /tmp/ccghGiGC.s:89819  .debug_str:0000000000001c0a .LASF283
     /tmp/ccghGiGC.s:108907  .debug_str:0000000000050363 .LASF284
     /tmp/ccghGiGC.s:101849  .debug_str:0000000000032e41 .LASF285
     /tmp/ccghGiGC.s:101625  .debug_str:0000000000031ebc .LASF286
     /tmp/ccghGiGC.s:95007  .debug_str:0000000000016b26 .LASF287
     /tmp/ccghGiGC.s:108593  .debug_str:000000000004eddf .LASF288
     /tmp/ccghGiGC.s:107255  .debug_str:0000000000049296 .LASF289
     /tmp/ccghGiGC.s:95259  .debug_str:0000000000017ce8 .LASF290
     /tmp/ccghGiGC.s:91689  .debug_str:0000000000009ac3 .LASF291
     /tmp/ccghGiGC.s:104329  .debug_str:000000000003cd5f .LASF292
     /tmp/ccghGiGC.s:106149  .debug_str:0000000000044a71 .LASF293
     /tmp/ccghGiGC.s:103069  .debug_str:0000000000037f42 .LASF294
     /tmp/ccghGiGC.s:91233  .debug_str:0000000000007bbd .LASF295
     /tmp/ccghGiGC.s:99597  .debug_str:0000000000029d17 .LASF296
     /tmp/ccghGiGC.s:97207  .debug_str:00000000000202d3 .LASF297
     /tmp/ccghGiGC.s:105147  .debug_str:00000000000402cd .LASF298
     /tmp/ccghGiGC.s:92103  .debug_str:000000000000b752 .LASF299
     /tmp/ccghGiGC.s:105325  .debug_str:000000000004100e .LASF300
     /tmp/ccghGiGC.s:94717  .debug_str:00000000000158df .LASF301
     /tmp/ccghGiGC.s:105263  .debug_str:0000000000040a4d .LASF302
     /tmp/ccghGiGC.s:106969  .debug_str:0000000000048034 .LASF303
     /tmp/ccghGiGC.s:98917  .debug_str:0000000000027090 .LASF304
     /tmp/ccghGiGC.s:103793  .debug_str:000000000003a852 .LASF305
     /tmp/ccghGiGC.s:101897  .debug_str:0000000000033168 .LASF306
     /tmp/ccghGiGC.s:98061  .debug_str:0000000000023c64 .LASF307
     /tmp/ccghGiGC.s:107285  .debug_str:00000000000494c2 .LASF308
     /tmp/ccghGiGC.s:107299  .debug_str:000000000004959a .LASF309
     /tmp/ccghGiGC.s:101279  .debug_str:0000000000030888 .LASF310
     /tmp/ccghGiGC.s:91255  .debug_str:0000000000007d3a .LASF311
     /tmp/ccghGiGC.s:89587  .debug_str:0000000000000b8a .LASF312
     /tmp/ccghGiGC.s:103663  .debug_str:000000000003a01c .LASF313
     /tmp/ccghGiGC.s:102053  .debug_str:0000000000033bb7 .LASF314
     /tmp/ccghGiGC.s:102913  .debug_str:0000000000037626 .LASF315
     /tmp/ccghGiGC.s:89659  .debug_str:0000000000001050 .LASF316
     /tmp/ccghGiGC.s:96707  .debug_str:000000000001df60 .LASF317
     /tmp/ccghGiGC.s:97897  .debug_str:0000000000023100 .LASF318
     /tmp/ccghGiGC.s:97219  .debug_str:00000000000203b0 .LASF319
     /tmp/ccghGiGC.s:107549  .debug_str:000000000004a51d .LASF320
     /tmp/ccghGiGC.s:104977  .debug_str:000000000003f82b .LASF321
     /tmp/ccghGiGC.s:101445  .debug_str:000000000003134a .LASF322
     /tmp/ccghGiGC.s:94881  .debug_str:00000000000162ca .LASF323
     /tmp/ccghGiGC.s:95765  .debug_str:0000000000019da1 .LASF327
     /tmp/ccghGiGC.s:102777  .debug_str:0000000000036cef .LASF328
     /tmp/ccghGiGC.s:99957  .debug_str:000000000002b44d .LASF329
     /tmp/ccghGiGC.s:94405  .debug_str:0000000000014574 .LASF330
     /tmp/ccghGiGC.s:103441  .debug_str:00000000000394ac .LASF331
     /tmp/ccghGiGC.s:92419  .debug_str:000000000000cd29 .LASF332
     /tmp/ccghGiGC.s:105917  .debug_str:0000000000043bdb .LASF333
     /tmp/ccghGiGC.s:96205  .debug_str:000000000001bb75 .LASF334
     /tmp/ccghGiGC.s:95317  .debug_str:0000000000018054 .LASF335
     /tmp/ccghGiGC.s:106083  .debug_str:00000000000445fd .LASF336
     /tmp/ccghGiGC.s:95821  .debug_str:000000000001a0ef .LASF337
     /tmp/ccghGiGC.s:94337  .debug_str:0000000000014101 .LASF338
     /tmp/ccghGiGC.s:92757  .debug_str:000000000000e1af .LASF339
     /tmp/ccghGiGC.s:105421  .debug_str:0000000000041794 .LASF340
     /tmp/ccghGiGC.s:106943  .debug_str:0000000000047e70 .LASF342
     /tmp/ccghGiGC.s:97981  .debug_str:000000000002367c .LASF343
     /tmp/ccghGiGC.s:103017  .debug_str:0000000000037cd6 .LASF344
     /tmp/ccghGiGC.s:102803  .debug_str:0000000000036eee .LASF345
     /tmp/ccghGiGC.s:100553  .debug_str:000000000002d8dc .LASF346
     /tmp/ccghGiGC.s:90879  .debug_str:000000000000635c .LASF347
     /tmp/ccghGiGC.s:104755  .debug_str:000000000003eabf .LASF348
     /tmp/ccghGiGC.s:89541  .debug_str:0000000000000880 .LASF349
     /tmp/ccghGiGC.s:94571  .debug_str:0000000000014f74 .LASF350
     /tmp/ccghGiGC.s:96809  .debug_str:000000000001e64e .LASF351
     /tmp/ccghGiGC.s:93247  .debug_str:000000000000fe5b .LASF352
     /tmp/ccghGiGC.s:94645  .debug_str:0000000000015438 .LASF353
     /tmp/ccghGiGC.s:99859  .debug_str:000000000002adec .LASF354
     /tmp/ccghGiGC.s:104959  .debug_str:000000000003f72e .LASF355
     /tmp/ccghGiGC.s:105395  .debug_str:00000000000415ad .LASF356
     /tmp/ccghGiGC.s:103513  .debug_str:00000000000397f6 .LASF357
     /tmp/ccghGiGC.s:94753  .debug_str:0000000000015afd .LASF358
     /tmp/ccghGiGC.s:95695  .debug_str:00000000000198a9 .LASF359
     /tmp/ccghGiGC.s:98669  .debug_str:000000000002606f .LASF360
     /tmp/ccghGiGC.s:100925  .debug_str:000000000002f14e .LASF361
     /tmp/ccghGiGC.s:92717  .debug_str:000000000000df2d .LASF362
     /tmp/ccghGiGC.s:96273  .debug_str:000000000001c063 .LASF363
     /tmp/ccghGiGC.s:95931  .debug_str:000000000001a89e .LASF364
     /tmp/ccghGiGC.s:92629  .debug_str:000000000000daf5 .LASF365
     /tmp/ccghGiGC.s:96105  .debug_str:000000000001b4aa .LASF366
     /tmp/ccghGiGC.s:105415  .debug_str:000000000004173c .LASF367
     /tmp/ccghGiGC.s:108693  .debug_str:000000000004f4a5 .LASF368
     /tmp/ccghGiGC.s:89557  .debug_str:00000000000009c8 .LASF369
     /tmp/ccghGiGC.s:107133  .debug_str:0000000000048af9 .LASF370
     /tmp/ccghGiGC.s:101933  .debug_str:0000000000033359 .LASF371
     /tmp/ccghGiGC.s:99703  .debug_str:000000000002a44a .LASF372
     /tmp/ccghGiGC.s:101889  .debug_str:00000000000330e3 .LASF373
     /tmp/ccghGiGC.s:102613  .debug_str:0000000000036266 .LASF374
     /tmp/ccghGiGC.s:100591  .debug_str:000000000002db73 .LASF375
     /tmp/ccghGiGC.s:95785  .debug_str:0000000000019ed3 .LASF376
     /tmp/ccghGiGC.s:106913  .debug_str:0000000000047c41 .LASF377
     /tmp/ccghGiGC.s:95235  .debug_str:0000000000017af2 .LASF378
     /tmp/ccghGiGC.s:98601  .debug_str:0000000000025cf2 .LASF379
     /tmp/ccghGiGC.s:89871  .debug_str:0000000000002015 .LASF380
     /tmp/ccghGiGC.s:107671  .debug_str:000000000004adff .LASF381
     /tmp/ccghGiGC.s:108865  .debug_str:000000000005009e .LASF383
     /tmp/ccghGiGC.s:95651  .debug_str:00000000000195a6 .LASF384
     /tmp/ccghGiGC.s:95823  .debug_str:000000000001a112 .LASF385
     /tmp/ccghGiGC.s:104377  .debug_str:000000000003d08f .LASF386
     /tmp/ccghGiGC.s:91529  .debug_str:0000000000008fbc .LASF387
     /tmp/ccghGiGC.s:107461  .debug_str:000000000004a01f .LASF388
     /tmp/ccghGiGC.s:106893  .debug_str:0000000000047ad0 .LASF389
     /tmp/ccghGiGC.s:97087  .debug_str:000000000001fa1a .LASF390
     /tmp/ccghGiGC.s:95545  .debug_str:0000000000018dd9 .LASF391
     /tmp/ccghGiGC.s:94613  .debug_str:00000000000151fb .LASF392
     /tmp/ccghGiGC.s:106861  .debug_str:00000000000478d5 .LASF393
     /tmp/ccghGiGC.s:100343  .debug_str:000000000002cbf7 .LASF394
     /tmp/ccghGiGC.s:105857  .debug_str:000000000004378f .LASF395
     /tmp/ccghGiGC.s:104457  .debug_str:000000000003d57a .LASF396
     /tmp/ccghGiGC.s:104877  .debug_str:000000000003f222 .LASF397
     /tmp/ccghGiGC.s:98137  .debug_str:0000000000024154 .LASF398
     /tmp/ccghGiGC.s:107843  .debug_str:000000000004ba42 .LASF399
     /tmp/ccghGiGC.s:105249  .debug_str:0000000000040951 .LASF400
     /tmp/ccghGiGC.s:101555  .debug_str:0000000000031aaf .LASF401
     /tmp/ccghGiGC.s:104577  .debug_str:000000000003de0d .LASF402
     /tmp/ccghGiGC.s:92557  .debug_str:000000000000d65f .LASF403
     /tmp/ccghGiGC.s:107343  .debug_str:0000000000049854 .LASF404
     /tmp/ccghGiGC.s:98885  .debug_str:0000000000026e0a .LASF405
     /tmp/ccghGiGC.s:91183  .debug_str:00000000000078b6 .LASF406
     /tmp/ccghGiGC.s:90041  .debug_str:0000000000002bf7 .LASF407
     /tmp/ccghGiGC.s:94113  .debug_str:00000000000132ae .LASF408
     /tmp/ccghGiGC.s:97267  .debug_str:00000000000206bf .LASF409
     /tmp/ccghGiGC.s:101239  .debug_str:00000000000305fb .LASF410
     /tmp/ccghGiGC.s:107161  .debug_str:0000000000048c93 .LASF411
     /tmp/ccghGiGC.s:96547  .debug_str:000000000001d3bd .LASF412
     /tmp/ccghGiGC.s:91491  .debug_str:0000000000008d51 .LASF413
     /tmp/ccghGiGC.s:102247  .debug_str:00000000000347e6 .LASF414
     /tmp/ccghGiGC.s:95003  .debug_str:0000000000016b03 .LASF415
     /tmp/ccghGiGC.s:95271  .debug_str:0000000000017dca .LASF416
     /tmp/ccghGiGC.s:95965  .debug_str:000000000001aba6 .LASF417
     /tmp/ccghGiGC.s:108879  .debug_str:000000000005019d .LASF418
     /tmp/ccghGiGC.s:107439  .debug_str:0000000000049efc .LASF419
     /tmp/ccghGiGC.s:102991  .debug_str:0000000000037ae2 .LASF420
     /tmp/ccghGiGC.s:97781  .debug_str:000000000002291a .LASF421
     /tmp/ccghGiGC.s:91305  .debug_str:0000000000008046 .LASF422
     /tmp/ccghGiGC.s:90355  .debug_str:000000000000409f .LASF423
     /tmp/ccghGiGC.s:90585  .debug_str:0000000000005034 .LASF424
     /tmp/ccghGiGC.s:107857  .debug_str:000000000004bb01 .LASF425
     /tmp/ccghGiGC.s:99343  .debug_str:0000000000028cbd .LASF426
     /tmp/ccghGiGC.s:105717  .debug_str:0000000000042e69 .LASF427
     /tmp/ccghGiGC.s:93553  .debug_str:0000000000010e80 .LASF428
     /tmp/ccghGiGC.s:105085  .debug_str:000000000003ff43 .LASF429
     /tmp/ccghGiGC.s:103985  .debug_str:000000000003b569 .LASF430
     /tmp/ccghGiGC.s:100561  .debug_str:000000000002d984 .LASF431
     /tmp/ccghGiGC.s:98973  .debug_str:00000000000273be .LASF432
     /tmp/ccghGiGC.s:93293  .debug_str:00000000000100ee .LASF433
     /tmp/ccghGiGC.s:96335  .debug_str:000000000001c4b3 .LASF434
     /tmp/ccghGiGC.s:102629  .debug_str:000000000003634a .LASF435
     /tmp/ccghGiGC.s:98425  .debug_str:000000000002539e .LASF436
     /tmp/ccghGiGC.s:90525  .debug_str:0000000000004c5b .LASF437
     /tmp/ccghGiGC.s:99003  .debug_str:0000000000027520 .LASF438
     /tmp/ccghGiGC.s:97759  .debug_str:00000000000227b3 .LASF439
     /tmp/ccghGiGC.s:101995  .debug_str:0000000000033789 .LASF440
     /tmp/ccghGiGC.s:105173  .debug_str:0000000000040474 .LASF442
     /tmp/ccghGiGC.s:95325  .debug_str:00000000000180b2 .LASF443
     /tmp/ccghGiGC.s:106191  .debug_str:0000000000044d54 .LASF444
     /tmp/ccghGiGC.s:93535  .debug_str:0000000000010d3e .LASF445
     /tmp/ccghGiGC.s:90313  .debug_str:0000000000003d93 .LASF446
     /tmp/ccghGiGC.s:94369  .debug_str:0000000000014321 .LASF447
     /tmp/ccghGiGC.s:106503  .debug_str:00000000000461c8 .LASF448
     /tmp/ccghGiGC.s:95513  .debug_str:0000000000018c25 .LASF449
     /tmp/ccghGiGC.s:93319  .debug_str:0000000000010275 .LASF450
     /tmp/ccghGiGC.s:101101  .debug_str:000000000002fd73 .LASF451
     /tmp/ccghGiGC.s:104427  .debug_str:000000000003d3a9 .LASF452
     /tmp/ccghGiGC.s:101751  .debug_str:0000000000032772 .LASF453
     /tmp/ccghGiGC.s:101629  .debug_str:0000000000031f00 .LASF454
     /tmp/ccghGiGC.s:94259  .debug_str:0000000000013c90 .LASF455
     /tmp/ccghGiGC.s:98059  .debug_str:0000000000023c54 .LASF456
     /tmp/ccghGiGC.s:100315  .debug_str:000000000002ca82 .LASF457
     /tmp/ccghGiGC.s:101959  .debug_str:0000000000033503 .LASF458
     /tmp/ccghGiGC.s:104443  .debug_str:000000000003d4b0 .LASF459
     /tmp/ccghGiGC.s:96055  .debug_str:000000000001b19b .LASF460
     /tmp/ccghGiGC.s:89923  .debug_str:00000000000023eb .LASF461
     /tmp/ccghGiGC.s:99239  .debug_str:00000000000284c8 .LASF462
     /tmp/ccghGiGC.s:107785  .debug_str:000000000004b63e .LASF463
     /tmp/ccghGiGC.s:93107  .debug_str:000000000000f488 .LASF464
     /tmp/ccghGiGC.s:96781  .debug_str:000000000001e44d .LASF465
     /tmp/ccghGiGC.s:89497  .debug_str:00000000000005bf .LASF466
     /tmp/ccghGiGC.s:102405  .debug_str:00000000000352b6 .LASF467
     /tmp/ccghGiGC.s:91051  .debug_str:0000000000006f8d .LASF468
     /tmp/ccghGiGC.s:96227  .debug_str:000000000001bd23 .LASF469
     /tmp/ccghGiGC.s:95445  .debug_str:000000000001887e .LASF470
     /tmp/ccghGiGC.s:103813  .debug_str:000000000003a9a6 .LASF471
     /tmp/ccghGiGC.s:92399  .debug_str:000000000000cb67 .LASF472
     /tmp/ccghGiGC.s:102425  .debug_str:0000000000035448 .LASF473
     /tmp/ccghGiGC.s:96593  .debug_str:000000000001d6c7 .LASF474
     /tmp/ccghGiGC.s:93125  .debug_str:000000000000f5da .LASF475
     /tmp/ccghGiGC.s:106849  .debug_str:0000000000047812 .LASF476
     /tmp/ccghGiGC.s:90569  .debug_str:0000000000004f32 .LASF477
     /tmp/ccghGiGC.s:108079  .debug_str:000000000004ca1a .LASF478
     /tmp/ccghGiGC.s:105937  .debug_str:0000000000043cca .LASF479
     /tmp/ccghGiGC.s:108033  .debug_str:000000000004c6b0 .LASF480
     /tmp/ccghGiGC.s:97367  .debug_str:0000000000020e0e .LASF481
     /tmp/ccghGiGC.s:106711  .debug_str:0000000000046eab .LASF482
     /tmp/ccghGiGC.s:107571  .debug_str:000000000004a65f .LASF483
     /tmp/ccghGiGC.s:97529  .debug_str:000000000002185c .LASF484
     /tmp/ccghGiGC.s:106281  .debug_str:000000000004534e .LASF485
     /tmp/ccghGiGC.s:95489  .debug_str:0000000000018a89 .LASF486
     /tmp/ccghGiGC.s:101017  .debug_str:000000000002f7ed .LASF487
     /tmp/ccghGiGC.s:97733  .debug_str:00000000000226c0 .LASF488
     /tmp/ccghGiGC.s:99299  .debug_str:000000000002893f .LASF489
     /tmp/ccghGiGC.s:97261  .debug_str:0000000000020646 .LASF490
     /tmp/ccghGiGC.s:97995  .debug_str:0000000000023737 .LASF491
     /tmp/ccghGiGC.s:89779  .debug_str:00000000000018ab .LASF492
     /tmp/ccghGiGC.s:99225  .debug_str:0000000000028411 .LASF493
     /tmp/ccghGiGC.s:93127  .debug_str:000000000000f5fa .LASF494
     /tmp/ccghGiGC.s:90405  .debug_str:0000000000004453 .LASF495
     /tmp/ccghGiGC.s:97713  .debug_str:00000000000224c9 .LASF496
     /tmp/ccghGiGC.s:105309  .debug_str:0000000000040d9e .LASF497
     /tmp/ccghGiGC.s:102581  .debug_str:0000000000035fd3 .LASF498
     /tmp/ccghGiGC.s:96347  .debug_str:000000000001c5dd .LASF499
     /tmp/ccghGiGC.s:93109  .debug_str:000000000000f498 .LASF500
     /tmp/ccghGiGC.s:106333  .debug_str:000000000004561a .LASF501
     /tmp/ccghGiGC.s:105515  .debug_str:0000000000041d92 .LASF502
     /tmp/ccghGiGC.s:103091  .debug_str:00000000000380f2 .LASF503
     /tmp/ccghGiGC.s:105545  .debug_str:0000000000042227 .LASF504
     /tmp/ccghGiGC.s:104353  .debug_str:000000000003cf00 .LASF505
     /tmp/ccghGiGC.s:99245  .debug_str:000000000002851d .LASF506
     /tmp/ccghGiGC.s:98173  .debug_str:00000000000243b1 .LASF507
     /tmp/ccghGiGC.s:103653  .debug_str:0000000000039f79 .LASF508
     /tmp/ccghGiGC.s:106261  .debug_str:0000000000045213 .LASF509
     /tmp/ccghGiGC.s:92069  .debug_str:000000000000b4ce .LASF510
     /tmp/ccghGiGC.s:89981  .debug_str:0000000000002799 .LASF511
     /tmp/ccghGiGC.s:107537  .debug_str:000000000004a49d .LASF512
     /tmp/ccghGiGC.s:100055  .debug_str:000000000002bad7 .LASF513
     /tmp/ccghGiGC.s:101525  .debug_str:0000000000031835 .LASF514
     /tmp/ccghGiGC.s:103313  .debug_str:0000000000038da9 .LASF515
     /tmp/ccghGiGC.s:89883  .debug_str:00000000000020f6 .LASF516
     /tmp/ccghGiGC.s:98365  .debug_str:000000000002508b .LASF517
     /tmp/ccghGiGC.s:99363  .debug_str:0000000000028dc9 .LASF518
     /tmp/ccghGiGC.s:98371  .debug_str:0000000000025104 .LASF519
     /tmp/ccghGiGC.s:102079  .debug_str:0000000000033d43 .LASF520
     /tmp/ccghGiGC.s:104719  .debug_str:000000000003e7e3 .LASF521
     /tmp/ccghGiGC.s:108201  .debug_str:000000000004d2be .LASF522
     /tmp/ccghGiGC.s:94993  .debug_str:0000000000016a3e .LASF523
     /tmp/ccghGiGC.s:101073  .debug_str:000000000002fb91 .LASF524
     /tmp/ccghGiGC.s:91059  .debug_str:000000000000704f .LASF525
     /tmp/ccghGiGC.s:91999  .debug_str:000000000000afa1 .LASF526
     /tmp/ccghGiGC.s:93001  .debug_str:000000000000ee91 .LASF527
     /tmp/ccghGiGC.s:104347  .debug_str:000000000003cea6 .LASF528
     /tmp/ccghGiGC.s:96657  .debug_str:000000000001db44 .LASF529
     /tmp/ccghGiGC.s:106991  .debug_str:00000000000481c6 .LASF530
     /tmp/ccghGiGC.s:97277  .debug_str:00000000000207a4 .LASF531
     /tmp/ccghGiGC.s:102325  .debug_str:0000000000034da0 .LASF532
     /tmp/ccghGiGC.s:93571  .debug_str:0000000000010fd3 .LASF533
     /tmp/ccghGiGC.s:98003  .debug_str:000000000002389f .LASF534
     /tmp/ccghGiGC.s:102375  .debug_str:00000000000350cc .LASF536
     /tmp/ccghGiGC.s:107361  .debug_str:0000000000049933 .LASF537
     /tmp/ccghGiGC.s:108723  .debug_str:000000000004f68f .LASF538
     /tmp/ccghGiGC.s:101293  .debug_str:0000000000030989 .LASF539
     /tmp/ccghGiGC.s:97915  .debug_str:00000000000231f8 .LASF540
     /tmp/ccghGiGC.s:96623  .debug_str:000000000001d8f2 .LASF541
     /tmp/ccghGiGC.s:100201  .debug_str:000000000002c3fb .LASF542
     /tmp/ccghGiGC.s:101289  .debug_str:0000000000030930 .LASF543
     /tmp/ccghGiGC.s:90105  .debug_str:0000000000002ff0 .LASF544
     /tmp/ccghGiGC.s:94991  .debug_str:0000000000016a30 .LASF545
     /tmp/ccghGiGC.s:101901  .debug_str:00000000000331a4 .LASF546
     /tmp/ccghGiGC.s:93611  .debug_str:00000000000111b8 .LASF547
     /tmp/ccghGiGC.s:105923  .debug_str:0000000000043c41 .LASF548
     /tmp/ccghGiGC.s:107563  .debug_str:000000000004a5d0 .LASF549
     /tmp/ccghGiGC.s:99639  .debug_str:0000000000029fdf .LASF550
     /tmp/ccghGiGC.s:94319  .debug_str:000000000001400d .LASF551
     /tmp/ccghGiGC.s:99053  .debug_str:0000000000027878 .LASF552
     /tmp/ccghGiGC.s:89803  .debug_str:0000000000001b12 .LASF553
     /tmp/ccghGiGC.s:95941  .debug_str:000000000001a9a6 .LASF554
     /tmp/ccghGiGC.s:91413  .debug_str:00000000000087e9 .LASF555
     /tmp/ccghGiGC.s:102127  .debug_str:0000000000034085 .LASF556
     /tmp/ccghGiGC.s:92151  .debug_str:000000000000ba99 .LASF557
     /tmp/ccghGiGC.s:99431  .debug_str:00000000000292cb .LASF558
     /tmp/ccghGiGC.s:104247  .debug_str:000000000003c843 .LASF559
     /tmp/ccghGiGC.s:101899  .debug_str:0000000000033184 .LASF560
     /tmp/ccghGiGC.s:91629  .debug_str:000000000000966e .LASF561
     /tmp/ccghGiGC.s:102183  .debug_str:00000000000343dd .LASF562
     /tmp/ccghGiGC.s:98359  .debug_str:0000000000025014 .LASF563
     /tmp/ccghGiGC.s:91371  .debug_str:00000000000084cb .LASF564
     /tmp/ccghGiGC.s:102811  .debug_str:0000000000036f5f .LASF565
     /tmp/ccghGiGC.s:96223  .debug_str:000000000001bcc1 .LASF566
     /tmp/ccghGiGC.s:104947  .debug_str:000000000003f67e .LASF567
     /tmp/ccghGiGC.s:93819  .debug_str:0000000000011efd .LASF568
     /tmp/ccghGiGC.s:106429  .debug_str:0000000000045d1b .LASF569
     /tmp/ccghGiGC.s:92707  .debug_str:000000000000decb .LASF570
     /tmp/ccghGiGC.s:94407  .debug_str:0000000000014587 .LASF571
     /tmp/ccghGiGC.s:95827  .debug_str:000000000001a161 .LASF572
     /tmp/ccghGiGC.s:97077  .debug_str:000000000001f971 .LASF573
     /tmp/ccghGiGC.s:107329  .debug_str:00000000000497aa .LASF574
     /tmp/ccghGiGC.s:104251  .debug_str:000000000003c8a2 .LASF575
     /tmp/ccghGiGC.s:96245  .debug_str:000000000001be69 .LASF576
     /tmp/ccghGiGC.s:106701  .debug_str:0000000000046dc5 .LASF577
     /tmp/ccghGiGC.s:105649  .debug_str:00000000000429b2 .LASF578
     /tmp/ccghGiGC.s:91469  .debug_str:0000000000008bc7 .LASF579
     /tmp/ccghGiGC.s:104709  .debug_str:000000000003e77c .LASF580
     /tmp/ccghGiGC.s:90009  .debug_str:000000000000299b .LASF581
     /tmp/ccghGiGC.s:101011  .debug_str:000000000002f762 .LASF582
     /tmp/ccghGiGC.s:105865  .debug_str:00000000000437f9 .LASF583
     /tmp/ccghGiGC.s:96945  .debug_str:000000000001ef1f .LASF584
     /tmp/ccghGiGC.s:104585  .debug_str:000000000003decb .LASF585
     /tmp/ccghGiGC.s:105125  .debug_str:000000000004018e .LASF586
     /tmp/ccghGiGC.s:94907  .debug_str:0000000000016490 .LASF587
     /tmp/ccghGiGC.s:106027  .debug_str:00000000000442ae .LASF588
     /tmp/ccghGiGC.s:98553  .debug_str:0000000000025ae8 .LASF589
     /tmp/ccghGiGC.s:108743  .debug_str:000000000004f7df .LASF590
     /tmp/ccghGiGC.s:100427  .debug_str:000000000002d195 .LASF591
     /tmp/ccghGiGC.s:106407  .debug_str:0000000000045b90 .LASF592
     /tmp/ccghGiGC.s:93933  .debug_str:0000000000012678 .LASF593
     /tmp/ccghGiGC.s:97115  .debug_str:000000000001fbd6 .LASF594
     /tmp/ccghGiGC.s:105997  .debug_str:00000000000440c3 .LASF595
     /tmp/ccghGiGC.s:105081  .debug_str:000000000003ff06 .LASF596
     /tmp/ccghGiGC.s:90143  .debug_str:0000000000003294 .LASF597
     /tmp/ccghGiGC.s:104291  .debug_str:000000000003cb71 .LASF598
     /tmp/ccghGiGC.s:96669  .debug_str:000000000001dc4d .LASF599
     /tmp/ccghGiGC.s:107051  .debug_str:000000000004857e .LASF600
     /tmp/ccghGiGC.s:104103  .debug_str:000000000003bd82 .LASF601
     /tmp/ccghGiGC.s:108363  .debug_str:000000000004de86 .LASF602
     /tmp/ccghGiGC.s:100969  .debug_str:000000000002f422 .LASF603
     /tmp/ccghGiGC.s:94553  .debug_str:0000000000014e2f .LASF604
     /tmp/ccghGiGC.s:100857  .debug_str:000000000002eccc .LASF605
     /tmp/ccghGiGC.s:101395  .debug_str:000000000003104a .LASF606
     /tmp/ccghGiGC.s:102963  .debug_str:00000000000378a9 .LASF607
     /tmp/ccghGiGC.s:96219  .debug_str:000000000001bc77 .LASF608
     /tmp/ccghGiGC.s:105731  .debug_str:0000000000042ed4 .LASF609
     /tmp/ccghGiGC.s:91063  .debug_str:0000000000007098 .LASF610
     /tmp/ccghGiGC.s:102877  .debug_str:000000000003734f .LASF611
     /tmp/ccghGiGC.s:93981  .debug_str:0000000000012950 .LASF612
     /tmp/ccghGiGC.s:105109  .debug_str:0000000000040094 .LASF613
     /tmp/ccghGiGC.s:93225  .debug_str:000000000000fc6e .LASF614
     /tmp/ccghGiGC.s:107421  .debug_str:0000000000049d7b .LASF615
     /tmp/ccghGiGC.s:102427  .debug_str:000000000003546c .LASF616
     /tmp/ccghGiGC.s:92409  .debug_str:000000000000cc17 .LASF617
     /tmp/ccghGiGC.s:98415  .debug_str:00000000000252f6 .LASF618
     /tmp/ccghGiGC.s:90887  .debug_str:00000000000063d7 .LASF619
     /tmp/ccghGiGC.s:105749  .debug_str:0000000000042fd7 .LASF620
     /tmp/ccghGiGC.s:103339  .debug_str:0000000000038f31 .LASF621
     /tmp/ccghGiGC.s:91091  .debug_str:000000000000725e .LASF622
     /tmp/ccghGiGC.s:107117  .debug_str:00000000000489a5 .LASF623
     /tmp/ccghGiGC.s:95637  .debug_str:0000000000019461 .LASF624
     /tmp/ccghGiGC.s:92389  .debug_str:000000000000ca60 .LASF625
     /tmp/ccghGiGC.s:98535  .debug_str:00000000000259b1 .LASF626
     /tmp/ccghGiGC.s:98201  .debug_str:00000000000245b3 .LASF627
     /tmp/ccghGiGC.s:92311  .debug_str:000000000000c56f .LASF628
     /tmp/ccghGiGC.s:99417  .debug_str:000000000002919d .LASF629
     /tmp/ccghGiGC.s:108561  .debug_str:000000000004ec3c .LASF630
     /tmp/ccghGiGC.s:94213  .debug_str:0000000000013984 .LASF631
     /tmp/ccghGiGC.s:97613  .debug_str:0000000000021e80 .LASF632
     /tmp/ccghGiGC.s:89997  .debug_str:00000000000028a6 .LASF633
     /tmp/ccghGiGC.s:97583  .debug_str:0000000000021c2e .LASF634
     /tmp/ccghGiGC.s:103047  .debug_str:0000000000037d9f .LASF635
     /tmp/ccghGiGC.s:103963  .debug_str:000000000003b426 .LASF636
     /tmp/ccghGiGC.s:93583  .debug_str:0000000000011057 .LASF637
     /tmp/ccghGiGC.s:107015  .debug_str:0000000000048328 .LASF638
     /tmp/ccghGiGC.s:91149  .debug_str:0000000000007625 .LASF639
     /tmp/ccghGiGC.s:95967  .debug_str:000000000001abb1 .LASF640
     /tmp/ccghGiGC.s:100837  .debug_str:000000000002ebdc .LASF641
     /tmp/ccghGiGC.s:96967  .debug_str:000000000001f0ab .LASF642
     /tmp/ccghGiGC.s:102051  .debug_str:0000000000033b92 .LASF643
     /tmp/ccghGiGC.s:106201  .debug_str:0000000000044e0e .LASF644
     /tmp/ccghGiGC.s:92933  .debug_str:000000000000ebbb .LASF645
     /tmp/ccghGiGC.s:91179  .debug_str:0000000000007826 .LASF646
     /tmp/ccghGiGC.s:97051  .debug_str:000000000001f756 .LASF647
     /tmp/ccghGiGC.s:91181  .debug_str:0000000000007879 .LASF648
     /tmp/ccghGiGC.s:102461  .debug_str:00000000000356e7 .LASF649
     /tmp/ccghGiGC.s:97347  .debug_str:0000000000020c9e .LASF650
     /tmp/ccghGiGC.s:89849  .debug_str:0000000000001e62 .LASF651
     /tmp/ccghGiGC.s:96271  .debug_str:000000000001c018 .LASF652
     /tmp/ccghGiGC.s:102679  .debug_str:000000000003666e .LASF653
     /tmp/ccghGiGC.s:100777  .debug_str:000000000002e78e .LASF654
     /tmp/ccghGiGC.s:92423  .debug_str:000000000000cd51 .LASF655
     /tmp/ccghGiGC.s:101481  .debug_str:000000000003159b .LASF656
     /tmp/ccghGiGC.s:98533  .debug_str:00000000000259a4 .LASF657
     /tmp/ccghGiGC.s:94223  .debug_str:0000000000013a53 .LASF661
     /tmp/ccghGiGC.s:106621  .debug_str:0000000000046900 .LASF662
     /tmp/ccghGiGC.s:98783  .debug_str:0000000000026743 .LASF664
     /tmp/ccghGiGC.s:92899  .debug_str:000000000000e9f2 .LASF665
     /tmp/ccghGiGC.s:94265  .debug_str:0000000000013cee .LASF667
     /tmp/ccghGiGC.s:105809  .debug_str:0000000000043441 .LASF668
     /tmp/ccghGiGC.s:99169  .debug_str:0000000000028072 .LASF669
     /tmp/ccghGiGC.s:97499  .debug_str:000000000002162a .LASF670
     /tmp/ccghGiGC.s:103905  .debug_str:000000000003b06e .LASF671
     /tmp/ccghGiGC.s:94819  .debug_str:0000000000015f80 .LASF672
     /tmp/ccghGiGC.s:107079  .debug_str:0000000000048733 .LASF673
     /tmp/ccghGiGC.s:97125  .debug_str:000000000001fc63 .LASF674
     /tmp/ccghGiGC.s:104713  .debug_str:000000000003e7a2 .LASF675
     /tmp/ccghGiGC.s:99761  .debug_str:000000000002a863 .LASF676
     /tmp/ccghGiGC.s:89705  .debug_str:0000000000001340 .LASF677
     /tmp/ccghGiGC.s:100743  .debug_str:000000000002e598 .LASF678
     /tmp/ccghGiGC.s:106241  .debug_str:00000000000450dd .LASF679
     /tmp/ccghGiGC.s:98247  .debug_str:000000000002492b .LASF680
     /tmp/ccghGiGC.s:105903  .debug_str:0000000000043ac2 .LASF681
     /tmp/ccghGiGC.s:95455  .debug_str:0000000000018917 .LASF682
     /tmp/ccghGiGC.s:101247  .debug_str:0000000000030648 .LASF683
     /tmp/ccghGiGC.s:100063  .debug_str:000000000002bb70 .LASF684
     /tmp/ccghGiGC.s:102751  .debug_str:0000000000036b62 .LASF685
     /tmp/ccghGiGC.s:95815  .debug_str:000000000001a086 .LASF687
     /tmp/ccghGiGC.s:99977  .debug_str:000000000002b529 .LASF688
     /tmp/ccghGiGC.s:91151  .debug_str:000000000000763f .LASF689
     /tmp/ccghGiGC.s:101205  .debug_str:00000000000303bf .LASF690
     /tmp/ccghGiGC.s:108519  .debug_str:000000000004e9b9 .LASF691
     /tmp/ccghGiGC.s:97735  .debug_str:00000000000226d9 .LASF692
     /tmp/ccghGiGC.s:93607  .debug_str:000000000001115e .LASF693
     /tmp/ccghGiGC.s:107231  .debug_str:00000000000490d3 .LASF694
     /tmp/ccghGiGC.s:104951  .debug_str:000000000003f6d3 .LASF695
     /tmp/ccghGiGC.s:104589  .debug_str:000000000003df13 .LASF696
     /tmp/ccghGiGC.s:90331  .debug_str:0000000000003ebc .LASF697
     /tmp/ccghGiGC.s:92569  .debug_str:000000000000d6e3 .LASF698
     /tmp/ccghGiGC.s:108189  .debug_str:000000000004d1fb .LASF699
     /tmp/ccghGiGC.s:108725  .debug_str:000000000004f698 .LASF700
     /tmp/ccghGiGC.s:108587  .debug_str:000000000004ed7a .LASF701
     /tmp/ccghGiGC.s:92303  .debug_str:000000000000c504 .LASF702
     /tmp/ccghGiGC.s:90243  .debug_str:00000000000038e0 .LASF703
     /tmp/ccghGiGC.s:95517  .debug_str:0000000000018c7e .LASF706
     /tmp/ccghGiGC.s:91379  .debug_str:000000000000854a .LASF707
     /tmp/ccghGiGC.s:101505  .debug_str:000000000003170e .LASF708
     /tmp/ccghGiGC.s:104145  .debug_str:000000000003c083 .LASF709
     /tmp/ccghGiGC.s:100493  .debug_str:000000000002d577 .LASF710
     /tmp/ccghGiGC.s:95239  .debug_str:0000000000017b28 .LASF711
     /tmp/ccghGiGC.s:100801  .debug_str:000000000002e91b .LASF712
     /tmp/ccghGiGC.s:102657  .debug_str:00000000000364cf .LASF713
     /tmp/ccghGiGC.s:107625  .debug_str:000000000004aa58 .LASF714
     /tmp/ccghGiGC.s:106365  .debug_str:0000000000045837 .LASF715
     /tmp/ccghGiGC.s:102489  .debug_str:00000000000358de .LASF718
     /tmp/ccghGiGC.s:103901  .debug_str:000000000003afef .LASF719
     /tmp/ccghGiGC.s:107773  .debug_str:000000000004b55c .LASF720
     /tmp/ccghGiGC.s:92975  .debug_str:000000000000edfc .LASF721
     /tmp/ccghGiGC.s:107151  .debug_str:0000000000048bcc .LASF722
     /tmp/ccghGiGC.s:96089  .debug_str:000000000001b3be .LASF723
     /tmp/ccghGiGC.s:101789  .debug_str:00000000000329eb .LASF724
     /tmp/ccghGiGC.s:91933  .debug_str:000000000000ab39 .LASF725
     /tmp/ccghGiGC.s:108621  .debug_str:000000000004efce .LASF726
     /tmp/ccghGiGC.s:98609  .debug_str:0000000000025d91 .LASF727
     /tmp/ccghGiGC.s:107595  .debug_str:000000000004a808 .LASF728
     /tmp/ccghGiGC.s:103599  .debug_str:0000000000039c6a .LASF729
     /tmp/ccghGiGC.s:91205  .debug_str:0000000000007a29 .LASF730
     /tmp/ccghGiGC.s:100749  .debug_str:000000000002e5e7 .LASF731
     /tmp/ccghGiGC.s:101263  .debug_str:000000000003076a .LASF732
     /tmp/ccghGiGC.s:94695  .debug_str:000000000001573e .LASF733
     /tmp/ccghGiGC.s:98409  .debug_str:00000000000252ac .LASF734
     /tmp/ccghGiGC.s:100123  .debug_str:000000000002be8a .LASF735
     /tmp/ccghGiGC.s:95135  .debug_str:00000000000173bc .LASF736
     /tmp/ccghGiGC.s:98797  .debug_str:0000000000026843 .LASF737
     /tmp/ccghGiGC.s:101349  .debug_str:0000000000030d5c .LASF738
     /tmp/ccghGiGC.s:97655  .debug_str:000000000002217e .LASF739
     /tmp/ccghGiGC.s:102985  .debug_str:0000000000037a58 .LASF740
     /tmp/ccghGiGC.s:108317  .debug_str:000000000004da7d .LASF741
     /tmp/ccghGiGC.s:107525  .debug_str:000000000004a413 .LASF742
     /tmp/ccghGiGC.s:107265  .debug_str:000000000004937a .LASF743
     /tmp/ccghGiGC.s:103351  .debug_str:000000000003902e .LASF744
     /tmp/ccghGiGC.s:104211  .debug_str:000000000003c5ba .LASF745
     /tmp/ccghGiGC.s:89893  .debug_str:0000000000002199 .LASF746
     /tmp/ccghGiGC.s:92017  .debug_str:000000000000b0be .LASF747
     /tmp/ccghGiGC.s:93645  .debug_str:0000000000011402 .LASF748
     /tmp/ccghGiGC.s:92157  .debug_str:000000000000bada .LASF749
     /tmp/ccghGiGC.s:108657  .debug_str:000000000004f27c .LASF750
     /tmp/ccghGiGC.s:99925  .debug_str:000000000002b2ab .LASF751
     /tmp/ccghGiGC.s:100061  .debug_str:000000000002bb5f .LASF752
     /tmp/ccghGiGC.s:101591  .debug_str:0000000000031cd2 .LASF753
     /tmp/ccghGiGC.s:108297  .debug_str:000000000004d907 .LASF754
     /tmp/ccghGiGC.s:95909  .debug_str:000000000001a77e .LASF755
     /tmp/ccghGiGC.s:104967  .debug_str:000000000003f7b3 .LASF756
     /tmp/ccghGiGC.s:98757  .debug_str:00000000000265dc .LASF757
     /tmp/ccghGiGC.s:100269  .debug_str:000000000002c7a3 .LASF758
     /tmp/ccghGiGC.s:101425  .debug_str:0000000000031210 .LASF759
     /tmp/ccghGiGC.s:106951  .debug_str:0000000000047ed1 .LASF760
     /tmp/ccghGiGC.s:108529  .debug_str:000000000004ea3b .LASF761
     /tmp/ccghGiGC.s:96743  .debug_str:000000000001e1ac .LASF763
     /tmp/ccghGiGC.s:96303  .debug_str:000000000001c2d4 .LASF764
     /tmp/ccghGiGC.s:108081  .debug_str:000000000004ca42 .LASF765
     /tmp/ccghGiGC.s:90583  .debug_str:0000000000005029 .LASF766
     /tmp/ccghGiGC.s:89469  .debug_str:000000000000039f .LASF767
     /tmp/ccghGiGC.s:92249  .debug_str:000000000000c1e7 .LASF768
     /tmp/ccghGiGC.s:99763  .debug_str:000000000002a876 .LASF769
     /tmp/ccghGiGC.s:89625  .debug_str:0000000000000deb .LASF770
     /tmp/ccghGiGC.s:96463  .debug_str:000000000001ce28 .LASF771
     /tmp/ccghGiGC.s:91913  .debug_str:000000000000aa1f .LASF772
     /tmp/ccghGiGC.s:100325  .debug_str:000000000002caf3 .LASF773
     /tmp/ccghGiGC.s:101547  .debug_str:0000000000031a0e .LASF774
     /tmp/ccghGiGC.s:106397  .debug_str:0000000000045b24 .LASF775
     /tmp/ccghGiGC.s:92585  .debug_str:000000000000d80f .LASF778
     /tmp/ccghGiGC.s:103921  .debug_str:000000000003b14d .LASF779
     /tmp/ccghGiGC.s:89967  .debug_str:000000000000269d .LASF780
     /tmp/ccghGiGC.s:90391  .debug_str:000000000000432b .LASF781
     /tmp/ccghGiGC.s:101621  .debug_str:0000000000031e8e .LASF782
     /tmp/ccghGiGC.s:96269  .debug_str:000000000001c00b .LASF783
     /tmp/ccghGiGC.s:97819  .debug_str:0000000000022bbe .LASF784
     /tmp/ccghGiGC.s:104113  .debug_str:000000000003be5e .LASF785
     /tmp/ccghGiGC.s:98055  .debug_str:0000000000023c0a .LASF786
     /tmp/ccghGiGC.s:90857  .debug_str:0000000000006214 .LASF787
     /tmp/ccghGiGC.s:106403  .debug_str:0000000000045b6e .LASF788
     /tmp/ccghGiGC.s:103769  .debug_str:000000000003a6de .LASF789
     /tmp/ccghGiGC.s:108279  .debug_str:000000000004d79b .LASF790
     /tmp/ccghGiGC.s:103799  .debug_str:000000000003a8c7 .LASF791
     /tmp/ccghGiGC.s:92837  .debug_str:000000000000e68e .LASF792
     /tmp/ccghGiGC.s:95341  .debug_str:00000000000181be .LASF793
     /tmp/ccghGiGC.s:108213  .debug_str:000000000004d381 .LASF794
     /tmp/ccghGiGC.s:106591  .debug_str:0000000000046725 .LASF795
     /tmp/ccghGiGC.s:93047  .debug_str:000000000000f13f .LASF796
     /tmp/ccghGiGC.s:91285  .debug_str:0000000000007f2c .LASF797
     /tmp/ccghGiGC.s:101181  .debug_str:0000000000030284 .LASF798
     /tmp/ccghGiGC.s:99409  .debug_str:0000000000029129 .LASF799
     /tmp/ccghGiGC.s:105287  .debug_str:0000000000040c53 .LASF800
     /tmp/ccghGiGC.s:97435  .debug_str:000000000002120c .LASF801
     /tmp/ccghGiGC.s:102869  .debug_str:00000000000372ef .LASF802
     /tmp/ccghGiGC.s:104879  .debug_str:000000000003f22e .LASF803
     /tmp/ccghGiGC.s:104375  .debug_str:000000000003d07d .LASF804
     /tmp/ccghGiGC.s:95005  .debug_str:0000000000016b10 .LASF805
     /tmp/ccghGiGC.s:107337  .debug_str:00000000000497f7 .LASF806
     /tmp/ccghGiGC.s:103961  .debug_str:000000000003b41b .LASF807
     /tmp/ccghGiGC.s:94581  .debug_str:0000000000015027 .LASF808
     /tmp/ccghGiGC.s:89931  .debug_str:0000000000002477 .LASF809
     /tmp/ccghGiGC.s:92705  .debug_str:000000000000dec0 .LASF810
     /tmp/ccghGiGC.s:96581  .debug_str:000000000001d5d6 .LASF811
     /tmp/ccghGiGC.s:90019  .debug_str:0000000000002a65 .LASF812
     /tmp/ccghGiGC.s:105017  .debug_str:000000000003fb38 .LASF813
     /tmp/ccghGiGC.s:102849  .debug_str:000000000003718b .LASF814
     /tmp/ccghGiGC.s:101309  .debug_str:0000000000030afc .LASF815
     /tmp/ccghGiGC.s:106769  .debug_str:00000000000472cd .LASF816
     /tmp/ccghGiGC.s:97105  .debug_str:000000000001fb5d .LASF817
     /tmp/ccghGiGC.s:103987  .debug_str:000000000003b578 .LASF818
     /tmp/ccghGiGC.s:94205  .debug_str:00000000000138ea .LASF819
     /tmp/ccghGiGC.s:105621  .debug_str:00000000000427a8 .LASF820
     /tmp/ccghGiGC.s:90413  .debug_str:00000000000044f5 .LASF821
     /tmp/ccghGiGC.s:108249  .debug_str:000000000004d567 .LASF822
     /tmp/ccghGiGC.s:104821  .debug_str:000000000003ee76 .LASF823
     /tmp/ccghGiGC.s:103247  .debug_str:0000000000038a23 .LASF824
     /tmp/ccghGiGC.s:101115  .debug_str:000000000002fe39 .LASF825
     /tmp/ccghGiGC.s:91637  .debug_str:00000000000096f3 .LASF826
     /tmp/ccghGiGC.s:95973  .debug_str:000000000001ac4a .LASF827
     /tmp/ccghGiGC.s:102971  .debug_str:0000000000037924 .LASF828
     /tmp/ccghGiGC.s:96579  .debug_str:000000000001d5c9 .LASF829
     /tmp/ccghGiGC.s:92787  .debug_str:000000000000e369 .LASF831
     /tmp/ccghGiGC.s:94861  .debug_str:00000000000161c1 .LASF832
     /tmp/ccghGiGC.s:99971  .debug_str:000000000002b4e9 .LASF833
     /tmp/ccghGiGC.s:99587  .debug_str:0000000000029c97 .LASF834
     /tmp/ccghGiGC.s:108583  .debug_str:000000000004ed42 .LASF835
     /tmp/ccghGiGC.s:106283  .debug_str:0000000000045366 .LASF837
     /tmp/ccghGiGC.s:89801  .debug_str:0000000000001af6 .LASF838
     /tmp/ccghGiGC.s:102825  .debug_str:000000000003705f .LASF839
     /tmp/ccghGiGC.s:99551  .debug_str:0000000000029a53 .LASF841
     /tmp/ccghGiGC.s:108629  .debug_str:000000000004f09b .LASF842
     /tmp/ccghGiGC.s:101325  .debug_str:0000000000030bfa .LASF843
     /tmp/ccghGiGC.s:102129  .debug_str:000000000003409b .LASF844
     /tmp/ccghGiGC.s:89911  .debug_str:000000000000230f .LASF845
     /tmp/ccghGiGC.s:92361  .debug_str:000000000000c8ac .LASF846
     /tmp/ccghGiGC.s:101189  .debug_str:0000000000030308 .LASF847
     /tmp/ccghGiGC.s:99253  .debug_str:00000000000285d2 .LASF848
     /tmp/ccghGiGC.s:107381  .debug_str:0000000000049a9a .LASF849
     /tmp/ccghGiGC.s:103473  .debug_str:000000000003959a .LASF850
     /tmp/ccghGiGC.s:102345  .debug_str:0000000000034f60 .LASF851
     /tmp/ccghGiGC.s:106541  .debug_str:0000000000046434 .LASF852
     /tmp/ccghGiGC.s:102649  .debug_str:0000000000036463 .LASF853
     /tmp/ccghGiGC.s:96363  .debug_str:000000000001c768 .LASF854
     /tmp/ccghGiGC.s:102707  .debug_str:000000000003687f .LASF855
     /tmp/ccghGiGC.s:101875  .debug_str:0000000000033039 .LASF856
     /tmp/ccghGiGC.s:95553  .debug_str:0000000000018e89 .LASF857
     /tmp/ccghGiGC.s:107627  .debug_str:000000000004ab2f .LASF858
     /tmp/ccghGiGC.s:92811  .debug_str:000000000000e4f6 .LASF859
     /tmp/ccghGiGC.s:103355  .debug_str:0000000000039054 .LASF860
     /tmp/ccghGiGC.s:90989  .debug_str:0000000000006aab .LASF861
     /tmp/ccghGiGC.s:93643  .debug_str:00000000000113f4 .LASF862
     /tmp/ccghGiGC.s:96437  .debug_str:000000000001cceb .LASF863
     /tmp/ccghGiGC.s:103601  .debug_str:0000000000039cee .LASF864
     /tmp/ccghGiGC.s:108819  .debug_str:000000000004fd6c .LASF865
     /tmp/ccghGiGC.s:106957  .debug_str:0000000000047f24 .LASF866
     /tmp/ccghGiGC.s:103561  .debug_str:0000000000039a29 .LASF867
     /tmp/ccghGiGC.s:93821  .debug_str:0000000000011f19 .LASF868
     /tmp/ccghGiGC.s:102455  .debug_str:00000000000356a6 .LASF869
     /tmp/ccghGiGC.s:90837  .debug_str:000000000000608c .LASF870
     /tmp/ccghGiGC.s:105053  .debug_str:000000000003fd5d .LASF871
     /tmp/ccghGiGC.s:97561  .debug_str:0000000000021a83 .LASF872
     /tmp/ccghGiGC.s:106061  .debug_str:00000000000444a2 .LASF873
     /tmp/ccghGiGC.s:97097  .debug_str:000000000001faca .LASF874
     /tmp/ccghGiGC.s:97911  .debug_str:00000000000231c9 .LASF875
     /tmp/ccghGiGC.s:106041  .debug_str:000000000004436c .LASF876
     /tmp/ccghGiGC.s:107415  .debug_str:0000000000049cfa .LASF877
     /tmp/ccghGiGC.s:99237  .debug_str:00000000000284b0 .LASF878
     /tmp/ccghGiGC.s:97279  .debug_str:00000000000207be .LASF879
     /tmp/ccghGiGC.s:101381  .debug_str:0000000000030f6b .LASF880
     /tmp/ccghGiGC.s:100353  .debug_str:000000000002cc9f .LASF881
     /tmp/ccghGiGC.s:96329  .debug_str:000000000001c437 .LASF882
     /tmp/ccghGiGC.s:108365  .debug_str:000000000004deb1 .LASF883
     /tmp/ccghGiGC.s:93153  .debug_str:000000000000f873 .LASF884
     /tmp/ccghGiGC.s:106793  .debug_str:000000000004740f .LASF885
     /tmp/ccghGiGC.s:99615  .debug_str:0000000000029e49 .LASF886
     /tmp/ccghGiGC.s:90909  .debug_str:000000000000658f .LASF887
     /tmp/ccghGiGC.s:106791  .debug_str:00000000000473e7 .LASF888
     /tmp/ccghGiGC.s:94051  .debug_str:0000000000012e36 .LASF889
     /tmp/ccghGiGC.s:97899  .debug_str:0000000000023110 .LASF890
     /tmp/ccghGiGC.s:107003  .debug_str:0000000000048285 .LASF891
     /tmp/ccghGiGC.s:90003  .debug_str:000000000000295a .LASF892
     /tmp/ccghGiGC.s:101497  .debug_str:0000000000031680 .LASF893
     /tmp/ccghGiGC.s:95257  .debug_str:0000000000017cc0 .LASF894
     /tmp/ccghGiGC.s:105151  .debug_str:000000000004031b .LASF895
     /tmp/ccghGiGC.s:90587  .debug_str:0000000000005040 .LASF896
     /tmp/ccghGiGC.s:91157  .debug_str:0000000000007689 .LASF897
     /tmp/ccghGiGC.s:107327  .debug_str:000000000004977f .LASF898
     /tmp/ccghGiGC.s:103137  .debug_str:0000000000038389 .LASF899
     /tmp/ccghGiGC.s:106543  .debug_str:000000000004643c .LASF900
     /tmp/ccghGiGC.s:89643  .debug_str:0000000000000f29 .LASF901
     /tmp/ccghGiGC.s:93885  .debug_str:000000000001239b .LASF902
     /tmp/ccghGiGC.s:107389  .debug_str:0000000000049b00 .LASF903
     /tmp/ccghGiGC.s:89765  .debug_str:0000000000001763 .LASF904
     /tmp/ccghGiGC.s:97997  .debug_str:000000000002382d .LASF905
     /tmp/ccghGiGC.s:89855  .debug_str:0000000000001f16 .LASF906
     /tmp/ccghGiGC.s:106809  .debug_str:00000000000474da .LASF907
     /tmp/ccghGiGC.s:100719  .debug_str:000000000002e3ed .LASF908
     /tmp/ccghGiGC.s:100483  .debug_str:000000000002d4f5 .LASF909
     /tmp/ccghGiGC.s:101887  .debug_str:00000000000330ba .LASF910
     /tmp/ccghGiGC.s:107821  .debug_str:000000000004b8f5 .LASF911
     /tmp/ccghGiGC.s:102111  .debug_str:0000000000033f8c .LASF912
     /tmp/ccghGiGC.s:104271  .debug_str:000000000003ca3e .LASF913
     /tmp/ccghGiGC.s:106691  .debug_str:0000000000046d2f .LASF914
     /tmp/ccghGiGC.s:90577  .debug_str:0000000000004fc8 .LASF915
     /tmp/ccghGiGC.s:90973  .debug_str:000000000000697c .LASF916
     /tmp/ccghGiGC.s:100885  .debug_str:000000000002eee1 .LASF917
     /tmp/ccghGiGC.s:106279  .debug_str:0000000000045327 .LASF918
     /tmp/ccghGiGC.s:100081  .debug_str:000000000002bcac .LASF919
     /tmp/ccghGiGC.s:106835  .debug_str:00000000000476f1 .LASF920
     /tmp/ccghGiGC.s:100535  .debug_str:000000000002d807 .LASF921
     /tmp/ccghGiGC.s:99269  .debug_str:00000000000286e9 .LASF922
     /tmp/ccghGiGC.s:97627  .debug_str:0000000000021fef .LASF923
     /tmp/ccghGiGC.s:102633  .debug_str:0000000000036363 .LASF924
     /tmp/ccghGiGC.s:108429  .debug_str:000000000004e35e .LASF925
     /tmp/ccghGiGC.s:108259  .debug_str:000000000004d62b .LASF926
     /tmp/ccghGiGC.s:105111  .debug_str:00000000000400c1 .LASF927
     /tmp/ccghGiGC.s:102909  .debug_str:00000000000375f3 .LASF928
     /tmp/ccghGiGC.s:94873  .debug_str:0000000000016288 .LASF929
     /tmp/ccghGiGC.s:102799  .debug_str:0000000000036e96 .LASF930
     /tmp/ccghGiGC.s:93199  .debug_str:000000000000fa77 .LASF931
     /tmp/ccghGiGC.s:106731  .debug_str:0000000000047046 .LASF932
     /tmp/ccghGiGC.s:93323  .debug_str:00000000000102a3 .LASF933
     /tmp/ccghGiGC.s:94317  .debug_str:0000000000013ff1 .LASF934
     /tmp/ccghGiGC.s:91067  .debug_str:00000000000070fd .LASF936
     /tmp/ccghGiGC.s:108017  .debug_str:000000000004c57c .LASF937
     /tmp/ccghGiGC.s:96553  .debug_str:000000000001d434 .LASF938
     /tmp/ccghGiGC.s:96951  .debug_str:000000000001ef8b .LASF939
     /tmp/ccghGiGC.s:103683  .debug_str:000000000003a0e9 .LASF940
     /tmp/ccghGiGC.s:98221  .debug_str:00000000000246df .LASF941
     /tmp/ccghGiGC.s:102703  .debug_str:00000000000367fd .LASF942
     /tmp/ccghGiGC.s:107617  .debug_str:000000000004a9a0 .LASF943
     /tmp/ccghGiGC.s:93317  .debug_str:0000000000010233 .LASF944
     /tmp/ccghGiGC.s:98243  .debug_str:00000000000248d8 .LASF945
     /tmp/ccghGiGC.s:103053  .debug_str:0000000000037e03 .LASF946
     /tmp/ccghGiGC.s:107851  .debug_str:000000000004baa0 .LASF947
     /tmp/ccghGiGC.s:93215  .debug_str:000000000000fbc2 .LASF948
     /tmp/ccghGiGC.s:96397  .debug_str:000000000001c98c .LASF949
     /tmp/ccghGiGC.s:93517  .debug_str:0000000000010bf9 .LASF950
     /tmp/ccghGiGC.s:106353  .debug_str:000000000004579a .LASF951
     /tmp/ccghGiGC.s:97177  .debug_str:0000000000020036 .LASF952
     /tmp/ccghGiGC.s:103557  .debug_str:00000000000399a5 .LASF953
     /tmp/ccghGiGC.s:90487  .debug_str:0000000000004999 .LASF954
     /tmp/ccghGiGC.s:92201  .debug_str:000000000000be7e .LASF955
     /tmp/ccghGiGC.s:101941  .debug_str:00000000000333c3 .LASF956
     /tmp/ccghGiGC.s:91807  .debug_str:000000000000a2b5 .LASF957
     /tmp/ccghGiGC.s:96381  .debug_str:000000000001c869 .LASF958
     /tmp/ccghGiGC.s:107725  .debug_str:000000000004b1d6 .LASF959
     /tmp/ccghGiGC.s:97841  .debug_str:0000000000022d04 .LASF960
     /tmp/ccghGiGC.s:96571  .debug_str:000000000001d538 .LASF961
     /tmp/ccghGiGC.s:97643  .debug_str:0000000000022094 .LASF962
     /tmp/ccghGiGC.s:101749  .debug_str:0000000000032730 .LASF963
     /tmp/ccghGiGC.s:92331  .debug_str:000000000000c6af .LASF964
     /tmp/ccghGiGC.s:92077  .debug_str:000000000000b58b .LASF965
     /tmp/ccghGiGC.s:101805  .debug_str:0000000000032af5 .LASF966
     /tmp/ccghGiGC.s:89471  .debug_str:00000000000003b7 .LASF967
     /tmp/ccghGiGC.s:101571  .debug_str:0000000000031bb0 .LASF968
     /tmp/ccghGiGC.s:107605  .debug_str:000000000004a8c8 .LASF969
     /tmp/ccghGiGC.s:97721  .debug_str:00000000000225c8 .LASF970
     /tmp/ccghGiGC.s:107397  .debug_str:0000000000049b9e .LASF971
     /tmp/ccghGiGC.s:97519  .debug_str:000000000002179a .LASF972
     /tmp/ccghGiGC.s:92161  .debug_str:000000000000bb04 .LASF973
     /tmp/ccghGiGC.s:106217  .debug_str:0000000000044f4e .LASF974
     /tmp/ccghGiGC.s:91949  .debug_str:000000000000ac12 .LASF975
     /tmp/ccghGiGC.s:101671  .debug_str:000000000003215c .LASF976
     /tmp/ccghGiGC.s:91561  .debug_str:00000000000091fb .LASF977
     /tmp/ccghGiGC.s:99369  .debug_str:0000000000028e35 .LASF978
     /tmp/ccghGiGC.s:107487  .debug_str:000000000004a18d .LASF979
     /tmp/ccghGiGC.s:97607  .debug_str:0000000000021def .LASF980
     /tmp/ccghGiGC.s:107281  .debug_str:000000000004944a .LASF981
     /tmp/ccghGiGC.s:97389  .debug_str:0000000000020f17 .LASF982
     /tmp/ccghGiGC.s:92047  .debug_str:000000000000b366 .LASF983
     /tmp/ccghGiGC.s:101771  .debug_str:00000000000328d8 .LASF984
     /tmp/ccghGiGC.s:91823  .debug_str:000000000000a40f .LASF985
     /tmp/ccghGiGC.s:101537  .debug_str:0000000000031902 .LASF986
     /tmp/ccghGiGC.s:98405  .debug_str:0000000000025260 .LASF987
     /tmp/ccghGiGC.s:92415  .debug_str:000000000000cccb .LASF988
     /tmp/ccghGiGC.s:106065  .debug_str:00000000000444c3 .LASF989
     /tmp/ccghGiGC.s:105913  .debug_str:0000000000043b71 .LASF990
     /tmp/ccghGiGC.s:99345  .debug_str:0000000000028cce .LASF991
     /tmp/ccghGiGC.s:102289  .debug_str:0000000000034a65 .LASF992
     /tmp/ccghGiGC.s:101999  .debug_str:00000000000337a6 .LASF993
     /tmp/ccghGiGC.s:101703  .debug_str:0000000000032378 .LASF994
     /tmp/ccghGiGC.s:94765  .debug_str:0000000000015bf1 .LASF995
     /tmp/ccghGiGC.s:108829  .debug_str:000000000004fe13 .LASF996
     /tmp/ccghGiGC.s:102347  .debug_str:0000000000034f67 .LASF997
     /tmp/ccghGiGC.s:106483  .debug_str:0000000000046059 .LASF998
     /tmp/ccghGiGC.s:106175  .debug_str:0000000000044c05 .LASF999
     /tmp/ccghGiGC.s:105907  .debug_str:0000000000043af5 .LASF1000
     /tmp/ccghGiGC.s:89821  .debug_str:0000000000001c22 .LASF1001
     /tmp/ccghGiGC.s:105339  .debug_str:0000000000041102 .LASF1002
     /tmp/ccghGiGC.s:98961  .debug_str:0000000000027305 .LASF1003
     /tmp/ccghGiGC.s:102891  .debug_str:0000000000037462 .LASF1004
     /tmp/ccghGiGC.s:97085  .debug_str:000000000001f9d3 .LASF1005
     /tmp/ccghGiGC.s:96787  .debug_str:000000000001e4bb .LASF1006
     /tmp/ccghGiGC.s:94893  .debug_str:0000000000016387 .LASF1007
     /tmp/ccghGiGC.s:108283  .debug_str:000000000004d7cb .LASF1008
     /tmp/ccghGiGC.s:101977  .debug_str:000000000003362e .LASF1009
     /tmp/ccghGiGC.s:97273  .debug_str:000000000002074f .LASF1010
     /tmp/ccghGiGC.s:101257  .debug_str:00000000000306de .LASF1011
     /tmp/ccghGiGC.s:100985  .debug_str:000000000002f526 .LASF1012
     /tmp/ccghGiGC.s:89959  .debug_str:00000000000025ef .LASF1013
     /tmp/ccghGiGC.s:101229  .debug_str:000000000003051f .LASF1014
     /tmp/ccghGiGC.s:104055  .debug_str:000000000003ba62 .LASF1015
     /tmp/ccghGiGC.s:91683  .debug_str:0000000000009a32 .LASF1016
     /tmp/ccghGiGC.s:93733  .debug_str:000000000001192a .LASF1017
     /tmp/ccghGiGC.s:108277  .debug_str:000000000004d756 .LASF1018
     /tmp/ccghGiGC.s:103003  .debug_str:0000000000037ba3 .LASF1019
     /tmp/ccghGiGC.s:90397  .debug_str:0000000000004377 .LASF1020
     /tmp/ccghGiGC.s:89665  .debug_str:00000000000010c3 .LASF1021
     /tmp/ccghGiGC.s:100763  .debug_str:000000000002e687 .LASF1022
     /tmp/ccghGiGC.s:98723  .debug_str:0000000000026406 .LASF1023
     /tmp/ccghGiGC.s:108301  .debug_str:000000000004d94a .LASF1024
     /tmp/ccghGiGC.s:108069  .debug_str:000000000004c93c .LASF1025
     /tmp/ccghGiGC.s:108835  .debug_str:000000000004fe88 .LASF1026
     /tmp/ccghGiGC.s:94773  .debug_str:0000000000015cdc .LASF1027
     /tmp/ccghGiGC.s:100299  .debug_str:000000000002c992 .LASF1028
     /tmp/ccghGiGC.s:105629  .debug_str:0000000000042871 .LASF1029
     /tmp/ccghGiGC.s:93565  .debug_str:0000000000010f3d .LASF1030
     /tmp/ccghGiGC.s:90341  .debug_str:0000000000003f6b .LASF1031
     /tmp/ccghGiGC.s:104487  .debug_str:000000000003d755 .LASF1032
     /tmp/ccghGiGC.s:101339  .debug_str:0000000000030caf .LASF1033
     /tmp/ccghGiGC.s:106705  .debug_str:0000000000046e1d .LASF1034
     /tmp/ccghGiGC.s:101305  .debug_str:0000000000030a94 .LASF1035
     /tmp/ccghGiGC.s:106933  .debug_str:0000000000047d98 .LASF1036
     /tmp/ccghGiGC.s:97019  .debug_str:000000000001f4e7 .LASF1037
     /tmp/ccghGiGC.s:106583  .debug_str:00000000000466b3 .LASF1038
     /tmp/ccghGiGC.s:96793  .debug_str:000000000001e53b .LASF1039
     /tmp/ccghGiGC.s:102989  .debug_str:0000000000037aa0 .LASF1040
     /tmp/ccghGiGC.s:92905  .debug_str:000000000000ea15 .LASF1041
     /tmp/ccghGiGC.s:102763  .debug_str:0000000000036c13 .LASF1042
     /tmp/ccghGiGC.s:89853  .debug_str:0000000000001ed4 .LASF1043
     /tmp/ccghGiGC.s:102417  .debug_str:0000000000035371 .LASF1044
     /tmp/ccghGiGC.s:105277  .debug_str:0000000000040b5d .LASF1045
     /tmp/ccghGiGC.s:106815  .debug_str:0000000000047546 .LASF1046
     /tmp/ccghGiGC.s:96505  .debug_str:000000000001d141 .LASF1047
     /tmp/ccghGiGC.s:106463  .debug_str:0000000000045ef2 .LASF1048
     /tmp/ccghGiGC.s:96687  .debug_str:000000000001dde4 .LASF1049
     /tmp/ccghGiGC.s:102855  .debug_str:00000000000371c8 .LASF1050
     /tmp/ccghGiGC.s:92763  .debug_str:000000000000e217 .LASF1051
     /tmp/ccghGiGC.s:102653  .debug_str:0000000000036485 .LASF1052
     /tmp/ccghGiGC.s:90087  .debug_str:0000000000002e8c .LASF1053
     /tmp/ccghGiGC.s:102293  .debug_str:0000000000034ad5 .LASF1054
     /tmp/ccghGiGC.s:92165  .debug_str:000000000000bb73 .LASF1055
     /tmp/ccghGiGC.s:106703  .debug_str:0000000000046ddb .LASF1056
     /tmp/ccghGiGC.s:96759  .debug_str:000000000001e2e9 .LASF1057
     /tmp/ccghGiGC.s:99765  .debug_str:000000000002a88e .LASF1058
     /tmp/ccghGiGC.s:91147  .debug_str:0000000000007608 .LASF1059
     /tmp/ccghGiGC.s:101387  .debug_str:0000000000030fda .LASF1060
     /tmp/ccghGiGC.s:96501  .debug_str:000000000001d120 .LASF1061
     /tmp/ccghGiGC.s:97565  .debug_str:0000000000021aa9 .LASF1062
     /tmp/ccghGiGC.s:102663  .debug_str:000000000003658d .LASF1063
     /tmp/ccghGiGC.s:91603  .debug_str:00000000000094f0 .LASF1064
     /tmp/ccghGiGC.s:94959  .debug_str:00000000000167be .LASF1065
     /tmp/ccghGiGC.s:108703  .debug_str:000000000004f52c .LASF1066
     /tmp/ccghGiGC.s:97669  .debug_str:0000000000022209 .LASF1067
     /tmp/ccghGiGC.s:95773  .debug_str:0000000000019df9 .LASF1068
     /tmp/ccghGiGC.s:108089  .debug_str:000000000004cacc .LASF1069
     /tmp/ccghGiGC.s:101037  .debug_str:000000000002f988 .LASF1070
     /tmp/ccghGiGC.s:100359  .debug_str:000000000002cd2f .LASF1071
     /tmp/ccghGiGC.s:98265  .debug_str:0000000000024a4d .LASF1072
     /tmp/ccghGiGC.s:90465  .debug_str:0000000000004810 .LASF1073
     /tmp/ccghGiGC.s:100883  .debug_str:000000000002eec8 .LASF1074
     /tmp/ccghGiGC.s:100157  .debug_str:000000000002c0c3 .LASF1075
     /tmp/ccghGiGC.s:105831  .debug_str:00000000000435d2 .LASF1076
     /tmp/ccghGiGC.s:93753  .debug_str:0000000000011a88 .LASF1077
     /tmp/ccghGiGC.s:104657  .debug_str:000000000003e427 .LASF1078
     /tmp/ccghGiGC.s:95841  .debug_str:000000000001a25c .LASF1079
     /tmp/ccghGiGC.s:106507  .debug_str:00000000000461e6 .LASF1080
     /tmp/ccghGiGC.s:97681  .debug_str:00000000000222a4 .LASF1081
     /tmp/ccghGiGC.s:94073  .debug_str:0000000000012fd6 .LASF1082
     /tmp/ccghGiGC.s:108431  .debug_str:000000000004e374 .LASF1083
     /tmp/ccghGiGC.s:96075  .debug_str:000000000001b2fb .LASF1084
     /tmp/ccghGiGC.s:106719  .debug_str:0000000000046f57 .LASF1085
     /tmp/ccghGiGC.s:97893  .debug_str:00000000000230cb .LASF1086
     /tmp/ccghGiGC.s:108547  .debug_str:000000000004eb23 .LASF1087
     /tmp/ccghGiGC.s:99861  .debug_str:000000000002adfb .LASF1088
     /tmp/ccghGiGC.s:91079  .debug_str:00000000000071ca .LASF1089
     /tmp/ccghGiGC.s:101863  .debug_str:0000000000032f71 .LASF1090
     /tmp/ccghGiGC.s:92855  .debug_str:000000000000e806 .LASF1091
     /tmp/ccghGiGC.s:108837  .debug_str:000000000004fec8 .LASF1092
     /tmp/ccghGiGC.s:106255  .debug_str:00000000000451be .LASF1093
     /tmp/ccghGiGC.s:91129  .debug_str:000000000000753c .LASF1094
     /tmp/ccghGiGC.s:101927  .debug_str:000000000003330a .LASF1095
     /tmp/ccghGiGC.s:93111  .debug_str:000000000000f500 .LASF1096
     /tmp/ccghGiGC.s:103941  .debug_str:000000000003b2c5 .LASF1097
     /tmp/ccghGiGC.s:104483  .debug_str:000000000003d723 .LASF1098
     /tmp/ccghGiGC.s:105699  .debug_str:0000000000042d67 .LASF1099
     /tmp/ccghGiGC.s:96879  .debug_str:000000000001eb5b .LASF1100
     /tmp/ccghGiGC.s:107679  .debug_str:000000000004ae77 .LASF1101
     /tmp/ccghGiGC.s:92139  .debug_str:000000000000b9ba .LASF1102
     /tmp/ccghGiGC.s:95281  .debug_str:0000000000017e66 .LASF1103
     /tmp/ccghGiGC.s:105971  .debug_str:0000000000043f00 .LASF1104
     /tmp/ccghGiGC.s:106909  .debug_str:0000000000047be5 .LASF1105
     /tmp/ccghGiGC.s:93239  .debug_str:000000000000fde7 .LASF1106
     /tmp/ccghGiGC.s:105409  .debug_str:00000000000416c4 .LASF1107
     /tmp/ccghGiGC.s:98073  .debug_str:0000000000023d3a .LASF1108
     /tmp/ccghGiGC.s:90679  .debug_str:000000000000561d .LASF1109
     /tmp/ccghGiGC.s:102943  .debug_str:00000000000377ce .LASF1110
     /tmp/ccghGiGC.s:102063  .debug_str:0000000000033c3e .LASF1111
     /tmp/ccghGiGC.s:95195  .debug_str:000000000001781b .LASF1112
     /tmp/ccghGiGC.s:94375  .debug_str:0000000000014376 .LASF1113
     /tmp/ccghGiGC.s:106533  .debug_str:00000000000463cb .LASF1114
     /tmp/ccghGiGC.s:99015  .debug_str:00000000000275c6 .LASF1115
     /tmp/ccghGiGC.s:94459  .debug_str:0000000000014927 .LASF1116
     /tmp/ccghGiGC.s:93321  .debug_str:000000000001028f .LASF1117
     /tmp/ccghGiGC.s:102445  .debug_str:00000000000355f2 .LASF1118
     /tmp/ccghGiGC.s:107837  .debug_str:000000000004b9e4 .LASF1119
     /tmp/ccghGiGC.s:95205  .debug_str:00000000000178bb .LASF1120
     /tmp/ccghGiGC.s:95507  .debug_str:0000000000018bbd .LASF1121
     /tmp/ccghGiGC.s:108455  .debug_str:000000000004e4f5 .LASF1122
     /tmp/ccghGiGC.s:99679  .debug_str:000000000002a2ac .LASF1123
     /tmp/ccghGiGC.s:90669  .debug_str:000000000000555a .LASF1124
     /tmp/ccghGiGC.s:101589  .debug_str:0000000000031cb7 .LASF1125
     /tmp/ccghGiGC.s:92755  .debug_str:000000000000e194 .LASF1126
     /tmp/ccghGiGC.s:103603  .debug_str:0000000000039cf9 .LASF1127
     /tmp/ccghGiGC.s:94679  .debug_str:000000000001565d .LASF1128
     /tmp/ccghGiGC.s:105319  .debug_str:0000000000040f90 .LASF1129
     /tmp/ccghGiGC.s:96537  .debug_str:000000000001d307 .LASF1130
     /tmp/ccghGiGC.s:99287  .debug_str:0000000000028845 .LASF1131
     /tmp/ccghGiGC.s:90363  .debug_str:0000000000004134 .LASF1132
     /tmp/ccghGiGC.s:101173  .debug_str:0000000000030211 .LASF1133
     /tmp/ccghGiGC.s:92149  .debug_str:000000000000ba7d .LASF1134
     /tmp/ccghGiGC.s:108075  .debug_str:000000000004c9bb .LASF1135
     /tmp/ccghGiGC.s:94301  .debug_str:0000000000013efe .LASF1136
     /tmp/ccghGiGC.s:104939  .debug_str:000000000003f5ec .LASF1137
     /tmp/ccghGiGC.s:96155  .debug_str:000000000001b7e4 .LASF1138
     /tmp/ccghGiGC.s:92327  .debug_str:000000000000c664 .LASF1139
     /tmp/ccghGiGC.s:97955  .debug_str:00000000000234a8 .LASF1140
     /tmp/ccghGiGC.s:94365  .debug_str:00000000000142fd .LASF1141
     /tmp/ccghGiGC.s:104997  .debug_str:000000000003f999 .LASF1142
     /tmp/ccghGiGC.s:96383  .debug_str:000000000001c8ab .LASF1143
     /tmp/ccghGiGC.s:107013  .debug_str:000000000004830c .LASF1144
     /tmp/ccghGiGC.s:98231  .debug_str:00000000000247d5 .LASF1145
     /tmp/ccghGiGC.s:95017  .debug_str:0000000000016c34 .LASF1146
     /tmp/ccghGiGC.s:100167  .debug_str:000000000002c18d .LASF1147
     /tmp/ccghGiGC.s:91343  .debug_str:00000000000082b8 .LASF1148
     /tmp/ccghGiGC.s:102175  .debug_str:000000000003434c .LASF1149
     /tmp/ccghGiGC.s:93177  .debug_str:000000000000f8ef .LASF1150
     /tmp/ccghGiGC.s:89623  .debug_str:0000000000000dcf .LASF1151
     /tmp/ccghGiGC.s:100395  .debug_str:000000000002cff4 .LASF1152
     /tmp/ccghGiGC.s:94373  .debug_str:000000000001434b .LASF1153
     /tmp/ccghGiGC.s:90163  .debug_str:00000000000033f3 .LASF1154
     /tmp/ccghGiGC.s:102225  .debug_str:000000000003469e .LASF1155
     /tmp/ccghGiGC.s:95833  .debug_str:000000000001a1b7 .LASF1156
     /tmp/ccghGiGC.s:105301  .debug_str:0000000000040d4d .LASF1157
     /tmp/ccghGiGC.s:98443  .debug_str:00000000000254ac .LASF1158
     /tmp/ccghGiGC.s:103765  .debug_str:000000000003a690 .LASF1159
     /tmp/ccghGiGC.s:97887  .debug_str:000000000002304d .LASF1160
     /tmp/ccghGiGC.s:104789  .debug_str:000000000003ed03 .LASF1161
     /tmp/ccghGiGC.s:97341  .debug_str:0000000000020c3b .LASF1162
     /tmp/ccghGiGC.s:104455  .debug_str:000000000003d547 .LASF1163
     /tmp/ccghGiGC.s:93701  .debug_str:00000000000116df .LASF1164
     /tmp/ccghGiGC.s:107437  .debug_str:0000000000049ec9 .LASF1165
     /tmp/ccghGiGC.s:106163  .debug_str:0000000000044b1d .LASF1166
     /tmp/ccghGiGC.s:95917  .debug_str:000000000001a7c1 .LASF1167
     /tmp/ccghGiGC.s:95669  .debug_str:00000000000196ed .LASF1168
     /tmp/ccghGiGC.s:95251  .debug_str:0000000000017c25 .LASF1169
     /tmp/ccghGiGC.s:95021  .debug_str:0000000000016c5a .LASF1170
     /tmp/ccghGiGC.s:94617  .debug_str:0000000000015227 .LASF1171
     /tmp/ccghGiGC.s:94383  .debug_str:00000000000143d4 .LASF1172
     /tmp/ccghGiGC.s:93983  .debug_str:0000000000012983 .LASF1173
     /tmp/ccghGiGC.s:93725  .debug_str:0000000000011834 .LASF1174
     /tmp/ccghGiGC.s:93279  .debug_str:000000000000fff9 .LASF1175
     /tmp/ccghGiGC.s:93545  .debug_str:0000000000010da5 .LASF1176
     /tmp/ccghGiGC.s:91703  .debug_str:0000000000009bb6 .LASF1177
     /tmp/ccghGiGC.s:89999  .debug_str:00000000000028e9 .LASF1178
     /tmp/ccghGiGC.s:107717  .debug_str:000000000004b0de .LASF1179
     /tmp/ccghGiGC.s:92121  .debug_str:000000000000b846 .LASF1180
     /tmp/ccghGiGC.s:97027  .debug_str:000000000001f563 .LASF1181
     /tmp/ccghGiGC.s:102095  .debug_str:0000000000033e97 .LASF1182
     /tmp/ccghGiGC.s:106961  .debug_str:0000000000047f57 .LASF1183
     /tmp/ccghGiGC.s:92189  .debug_str:000000000000bd56 .LASF1184
     /tmp/ccghGiGC.s:97281  .debug_str:00000000000207d8 .LASF1185
     /tmp/ccghGiGC.s:92169  .debug_str:000000000000bbdc .LASF1186
     /tmp/ccghGiGC.s:103139  .debug_str:00000000000383af .LASF1187
     /tmp/ccghGiGC.s:96467  .debug_str:000000000001ce6c .LASF1188
     /tmp/ccghGiGC.s:104391  .debug_str:000000000003d13f .LASF1189
     /tmp/ccghGiGC.s:97301  .debug_str:00000000000209d6 .LASF1190
     /tmp/ccghGiGC.s:108139  .debug_str:000000000004ce3d .LASF1191
     /tmp/ccghGiGC.s:99397  .debug_str:0000000000029018 .LASF1192
     /tmp/ccghGiGC.s:90709  .debug_str:00000000000057d3 .LASF1193
     /tmp/ccghGiGC.s:101521  .debug_str:00000000000317b4 .LASF1194
     /tmp/ccghGiGC.s:92737  .debug_str:000000000000e04e .LASF1195
     /tmp/ccghGiGC.s:97071  .debug_str:000000000001f8f3 .LASF1196
     /tmp/ccghGiGC.s:107917  .debug_str:000000000004bef3 .LASF1197
     /tmp/ccghGiGC.s:100815  .debug_str:000000000002ea6c .LASF1198
     /tmp/ccghGiGC.s:98427  .debug_str:00000000000253ad .LASF1199
     /tmp/ccghGiGC.s:104207  .debug_str:000000000003c546 .LASF1200
     /tmp/ccghGiGC.s:101963  .debug_str:0000000000033534 .LASF1201
     /tmp/ccghGiGC.s:99881  .debug_str:000000000002af0a .LASF1202
     /tmp/ccghGiGC.s:97579  .debug_str:0000000000021bc8 .LASF1203
     /tmp/ccghGiGC.s:101469  .debug_str:00000000000314ab .LASF1204
     /tmp/ccghGiGC.s:99899  .debug_str:000000000002b02a .LASF1205
     /tmp/ccghGiGC.s:93275  .debug_str:000000000000ff8c .LASF1206
     /tmp/ccghGiGC.s:93013  .debug_str:000000000000ef00 .LASF1207
     /tmp/ccghGiGC.s:94735  .debug_str:00000000000159e0 .LASF1208
     /tmp/ccghGiGC.s:106451  .debug_str:0000000000045e42 .LASF1209
     /tmp/ccghGiGC.s:91481  .debug_str:0000000000008ca7 .LASF1210
     /tmp/ccghGiGC.s:100185  .debug_str:000000000002c29b .LASF1211
     /tmp/ccghGiGC.s:97145  .debug_str:000000000001fd99 .LASF1212
     /tmp/ccghGiGC.s:96647  .debug_str:000000000001da9a .LASF1213
     /tmp/ccghGiGC.s:105333  .debug_str:000000000004107b .LASF1214
     /tmp/ccghGiGC.s:104895  .debug_str:000000000003f33f .LASF1215
     /tmp/ccghGiGC.s:90171  .debug_str:0000000000003489 .LASF1216
     /tmp/ccghGiGC.s:100473  .debug_str:000000000002d420 .LASF1217
     /tmp/ccghGiGC.s:108861  .debug_str:000000000005004c .LASF1218
     /tmp/ccghGiGC.s:108627  .debug_str:000000000004f063 .LASF1219
     /tmp/ccghGiGC.s:99447  .debug_str:0000000000029404 .LASF1220
     /tmp/ccghGiGC.s:96973  .debug_str:000000000001f0ee .LASF1221
     /tmp/ccghGiGC.s:95779  .debug_str:0000000000019e4c .LASF1222
     /tmp/ccghGiGC.s:101747  .debug_str:00000000000326fe .LASF1223
     /tmp/ccghGiGC.s:99303  .debug_str:000000000002897a .LASF1224
     /tmp/ccghGiGC.s:104257  .debug_str:000000000003c908 .LASF1225
     /tmp/ccghGiGC.s:102757  .debug_str:0000000000036bb6 .LASF1226
     /tmp/ccghGiGC.s:100293  .debug_str:000000000002c90d .LASF1227
     /tmp/ccghGiGC.s:104477  .debug_str:000000000003d6d0 .LASF1228
     /tmp/ccghGiGC.s:102001  .debug_str:00000000000337ed .LASF1229
     /tmp/ccghGiGC.s:92657  .debug_str:000000000000dca0 .LASF1230
     /tmp/ccghGiGC.s:106025  .debug_str:000000000004427a .LASF1231
     /tmp/ccghGiGC.s:99277  .debug_str:0000000000028781 .LASF1232
     /tmp/ccghGiGC.s:89661  .debug_str:0000000000001061 .LASF1233
     /tmp/ccghGiGC.s:98687  .debug_str:0000000000026119 .LASF1234
     /tmp/ccghGiGC.s:102915  .debug_str:0000000000037634 .LASF1235
     /tmp/ccghGiGC.s:105625  .debug_str:000000000004281d .LASF1236
     /tmp/ccghGiGC.s:91043  .debug_str:0000000000006ea2 .LASF1237
     /tmp/ccghGiGC.s:93021  .debug_str:000000000000ef91 .LASF1238
     /tmp/ccghGiGC.s:98167  .debug_str:0000000000024358 .LASF1239
     /tmp/ccghGiGC.s:99141  .debug_str:0000000000027ef5 .LASF1240
     /tmp/ccghGiGC.s:105561  .debug_str:0000000000042340 .LASF1241
     /tmp/ccghGiGC.s:99539  .debug_str:000000000002991f .LASF1242
     /tmp/ccghGiGC.s:98355  .debug_str:0000000000024f9f .LASF1243
     /tmp/ccghGiGC.s:97235  .debug_str:0000000000020486 .LASF1244
     /tmp/ccghGiGC.s:90211  .debug_str:0000000000003676 .LASF1245
     /tmp/ccghGiGC.s:104179  .debug_str:000000000003c312 .LASF1246
     /tmp/ccghGiGC.s:95763  .debug_str:0000000000019d71 .LASF1247
     /tmp/ccghGiGC.s:105795  .debug_str:000000000004333c .LASF1248
     /tmp/ccghGiGC.s:107907  .debug_str:000000000004be72 .LASF1249
     /tmp/ccghGiGC.s:97845  .debug_str:0000000000022d6e .LASF1250
     /tmp/ccghGiGC.s:97769  .debug_str:0000000000022817 .LASF1251
     /tmp/ccghGiGC.s:103163  .debug_str:0000000000038540 .LASF1252
     /tmp/ccghGiGC.s:100767  .debug_str:000000000002e6e9 .LASF1253
     /tmp/ccghGiGC.s:107283  .debug_str:000000000004948c .LASF1254
     /tmp/ccghGiGC.s:94257  .debug_str:0000000000013c5a .LASF1255
     /tmp/ccghGiGC.s:100991  .debug_str:000000000002f5b4 .LASF1256
     /tmp/ccghGiGC.s:98701  .debug_str:0000000000026243 .LASF1257
     /tmp/ccghGiGC.s:97263  .debug_str:000000000002065c .LASF1258
     /tmp/ccghGiGC.s:96139  .debug_str:000000000001b6ef .LASF1259
     /tmp/ccghGiGC.s:90571  .debug_str:0000000000004f42 .LASF1260
     /tmp/ccghGiGC.s:93143  .debug_str:000000000000f7bd .LASF1261
     /tmp/ccghGiGC.s:91361  .debug_str:0000000000008404 .LASF1262
     /tmp/ccghGiGC.s:108713  .debug_str:000000000004f5d4 .LASF1263
     /tmp/ccghGiGC.s:95843  .debug_str:000000000001a275 .LASF1264
     /tmp/ccghGiGC.s:91197  .debug_str:0000000000007994 .LASF1265
     /tmp/ccghGiGC.s:96867  .debug_str:000000000001ea50 .LASF1266
     /tmp/ccghGiGC.s:89735  .debug_str:000000000000153c .LASF1267
     /tmp/ccghGiGC.s:103585  .debug_str:0000000000039b67 .LASF1268
     /tmp/ccghGiGC.s:89989  .debug_str:00000000000027ff .LASF1269
     /tmp/ccghGiGC.s:99905  .debug_str:000000000002b0ba .LASF1270
     /tmp/ccghGiGC.s:101843  .debug_str:0000000000032ddb .LASF1271
     /tmp/ccghGiGC.s:108839  .debug_str:000000000004fee1 .LASF1272
     /tmp/ccghGiGC.s:96477  .debug_str:000000000001cf57 .LASF1273
     /tmp/ccghGiGC.s:103639  .debug_str:0000000000039e83 .LASF1274
     /tmp/ccghGiGC.s:95391  .debug_str:00000000000184fc .LASF1275
     /tmp/ccghGiGC.s:98209  .debug_str:000000000002462c .LASF1276
     /tmp/ccghGiGC.s:104581  .debug_str:000000000003de58 .LASF1277
     /tmp/ccghGiGC.s:89637  .debug_str:0000000000000eca .LASF1278
     /tmp/ccghGiGC.s:100109  .debug_str:000000000002bda7 .LASF1279
     /tmp/ccghGiGC.s:107109  .debug_str:000000000004892c .LASF1280
     /tmp/ccghGiGC.s:99133  .debug_str:0000000000027e20 .LASF1281
     /tmp/ccghGiGC.s:106607  .debug_str:000000000004681f .LASF1282
     /tmp/ccghGiGC.s:104681  .debug_str:000000000003e5a6 .LASF1283
     /tmp/ccghGiGC.s:105617  .debug_str:000000000004274e .LASF1284
     /tmp/ccghGiGC.s:90931  .debug_str:00000000000066df .LASF1285
     /tmp/ccghGiGC.s:97969  .debug_str:00000000000235ac .LASF1286
     /tmp/ccghGiGC.s:96715  .debug_str:000000000001dfc7 .LASF1287
     /tmp/ccghGiGC.s:99559  .debug_str:0000000000029ac8 .LASF1288
     /tmp/ccghGiGC.s:102563  .debug_str:0000000000035e86 .LASF1289
     /tmp/ccghGiGC.s:105243  .debug_str:00000000000408eb .LASF1290
     /tmp/ccghGiGC.s:96013  .debug_str:000000000001aedf .LASF1291
     /tmp/ccghGiGC.s:98809  .debug_str:00000000000268da .LASF1292
     /tmp/ccghGiGC.s:91871  .debug_str:000000000000a6ee .LASF1293
     /tmp/ccghGiGC.s:104565  .debug_str:000000000003dd3f .LASF1294
     /tmp/ccghGiGC.s:106923  .debug_str:0000000000047cdd .LASF1295
     /tmp/ccghGiGC.s:90775  .debug_str:0000000000005c91 .LASF1296
     /tmp/ccghGiGC.s:93569  .debug_str:0000000000010f9e .LASF1297
     /tmp/ccghGiGC.s:96435  .debug_str:000000000001ccb6 .LASF1298
     /tmp/ccghGiGC.s:99405  .debug_str:00000000000290ea .LASF1299
     /tmp/ccghGiGC.s:102261  .debug_str:000000000003488e .LASF1300
     /tmp/ccghGiGC.s:92803  .debug_str:000000000000e488 .LASF1301
     /tmp/ccghGiGC.s:95689  .debug_str:0000000000019840 .LASF1302
     /tmp/ccghGiGC.s:98475  .debug_str:00000000000256af .LASF1303
     /tmp/ccghGiGC.s:93451  .debug_str:00000000000108fc .LASF1304
     /tmp/ccghGiGC.s:104307  .debug_str:000000000003cbf0 .LASF1305
     /tmp/ccghGiGC.s:107207  .debug_str:0000000000048f55 .LASF1306
     /tmp/ccghGiGC.s:100533  .debug_str:000000000002d7d2 .LASF1307
     /tmp/ccghGiGC.s:93431  .debug_str:000000000001077e .LASF1308
     /tmp/ccghGiGC.s:96299  .debug_str:000000000001c28c .LASF1309
     /tmp/ccghGiGC.s:99099  .debug_str:0000000000027bbf .LASF1310
     /tmp/ccghGiGC.s:89771  .debug_str:00000000000017f6 .LASF1311
     /tmp/ccghGiGC.s:92507  .debug_str:000000000000d2fa .LASF1312
     /tmp/ccghGiGC.s:95543  .debug_str:0000000000018da4 .LASF1313
     /tmp/ccghGiGC.s:98335  .debug_str:0000000000024e88 .LASF1314
     /tmp/ccghGiGC.s:101231  .debug_str:0000000000030564 .LASF1315
     /tmp/ccghGiGC.s:104167  .debug_str:000000000003c22e .LASF1316
     /tmp/ccghGiGC.s:106891  .debug_str:0000000000047a9b .LASF1317
     /tmp/ccghGiGC.s:90321  .debug_str:0000000000003e07 .LASF1318
     /tmp/ccghGiGC.s:93113  .debug_str:000000000000f519 .LASF1319
     /tmp/ccghGiGC.s:95979  .debug_str:000000000001acbc .LASF1320
     /tmp/ccghGiGC.s:106193  .debug_str:0000000000044d68 .LASF1321
     /tmp/ccghGiGC.s:96997  .debug_str:000000000001f2ea .LASF1322
     /tmp/ccghGiGC.s:97871  .debug_str:0000000000022f25 .LASF1323
     /tmp/ccghGiGC.s:92579  .debug_str:000000000000d799 .LASF1324
     /tmp/ccghGiGC.s:98037  .debug_str:0000000000023ad0 .LASF1325
     /tmp/ccghGiGC.s:107835  .debug_str:000000000004b9af .LASF1326
     /tmp/ccghGiGC.s:103919  .debug_str:000000000003b118 .LASF1327
     /tmp/ccghGiGC.s:106763  .debug_str:000000000004726e .LASF1328
     /tmp/ccghGiGC.s:90039  .debug_str:0000000000002bc2 .LASF1329
     /tmp/ccghGiGC.s:92767  .debug_str:000000000000e263 .LASF1330
     /tmp/ccghGiGC.s:103169  .debug_str:00000000000385b6 .LASF1331
     /tmp/ccghGiGC.s:94579  .debug_str:0000000000014ff2 .LASF1332
     /tmp/ccghGiGC.s:102587  .debug_str:000000000003608c .LASF1333
     /tmp/ccghGiGC.s:92065  .debug_str:000000000000b458 .LASF1334
     /tmp/ccghGiGC.s:97129  .debug_str:000000000001fc95 .LASF1335
     /tmp/ccghGiGC.s:100961  .debug_str:000000000002f350 .LASF1336
     /tmp/ccghGiGC.s:100383  .debug_str:000000000002cec5 .LASF1337
     /tmp/ccghGiGC.s:99805  .debug_str:000000000002aa72 .LASF1338
     /tmp/ccghGiGC.s:99027  .debug_str:000000000002767a .LASF1339
     /tmp/ccghGiGC.s:107813  .debug_str:000000000004b833 .LASF1340
     /tmp/ccghGiGC.s:94083  .debug_str:0000000000013051 .LASF1341
     /tmp/ccghGiGC.s:106653  .debug_str:0000000000046b00 .LASF1342
     /tmp/ccghGiGC.s:92503  .debug_str:000000000000d2bd .LASF1343
     /tmp/ccghGiGC.s:99893  .debug_str:000000000002afbd .LASF1344
     /tmp/ccghGiGC.s:93543  .debug_str:0000000000010d76 .LASF1345
     /tmp/ccghGiGC.s:105429  .debug_str:000000000004180e .LASF1346
     /tmp/ccghGiGC.s:92413  .debug_str:000000000000cc9c .LASF1347
     /tmp/ccghGiGC.s:96091  .debug_str:000000000001b3dd .LASF1348
     /tmp/ccghGiGC.s:100369  .debug_str:000000000002ce01 .LASF1349
     /tmp/ccghGiGC.s:103953  .debug_str:000000000003b392 .LASF1350
     /tmp/ccghGiGC.s:107871  .debug_str:000000000004bc25 .LASF1351
     /tmp/ccghGiGC.s:105711  .debug_str:0000000000042df6 .LASF1352
     /tmp/ccghGiGC.s:94119  .debug_str:0000000000013331 .LASF1353
     /tmp/ccghGiGC.s:103051  .debug_str:0000000000037dba .LASF1354
     /tmp/ccghGiGC.s:92089  .debug_str:000000000000b635 .LASF1355
     /tmp/ccghGiGC.s:101147  .debug_str:000000000002ffec .LASF1356
     /tmp/ccghGiGC.s:90361  .debug_str:00000000000040eb .LASF1357
     /tmp/ccghGiGC.s:99139  .debug_str:0000000000027eac .LASF1358
     /tmp/ccghGiGC.s:107943  .debug_str:000000000004c0f5 .LASF1359
     /tmp/ccghGiGC.s:97185  .debug_str:0000000000020102 .LASF1360
     /tmp/ccghGiGC.s:106043  .debug_str:000000000004438a .LASF1361
     /tmp/ccghGiGC.s:95401  .debug_str:00000000000185ab .LASF1362
     /tmp/ccghGiGC.s:89909  .debug_str:00000000000022c1 .LASF1363
     /tmp/ccghGiGC.s:96585  .debug_str:000000000001d62e .LASF1364
     /tmp/ccghGiGC.s:108857  .debug_str:000000000004ffe4 .LASF1365
     /tmp/ccghGiGC.s:90273  .debug_str:0000000000003ab6 .LASF1366
     /tmp/ccghGiGC.s:98111  .debug_str:0000000000023f80 .LASF1367
     /tmp/ccghGiGC.s:94343  .debug_str:0000000000014143 .LASF1368
     /tmp/ccghGiGC.s:91711  .debug_str:0000000000009c74 .LASF1369
     /tmp/ccghGiGC.s:96539  .debug_str:000000000001d322 .LASF1370
     /tmp/ccghGiGC.s:104983  .debug_str:000000000003f866 .LASF1371
     /tmp/ccghGiGC.s:92025  .debug_str:000000000000b143 .LASF1372
     /tmp/ccghGiGC.s:95057  .debug_str:0000000000016edf .LASF1373
     /tmp/ccghGiGC.s:101745  .debug_str:00000000000326b2 .LASF1374
     /tmp/ccghGiGC.s:108061  .debug_str:000000000004c876 .LASF1375
     /tmp/ccghGiGC.s:95187  .debug_str:000000000001774f .LASF1376
     /tmp/ccghGiGC.s:101725  .debug_str:00000000000324fb .LASF1377
     /tmp/ccghGiGC.s:108267  .debug_str:000000000004d695 .LASF1378
     /tmp/ccghGiGC.s:95549  .debug_str:0000000000018e1c .LASF1379
     /tmp/ccghGiGC.s:102279  .debug_str:0000000000034997 .LASF1380
     /tmp/ccghGiGC.s:102687  .debug_str:0000000000036716 .LASF1381
     /tmp/ccghGiGC.s:95939  .debug_str:000000000001a958 .LASF1382
     /tmp/ccghGiGC.s:95903  .debug_str:000000000001a709 .LASF1383
     /tmp/ccghGiGC.s:90543  .debug_str:0000000000004da0 .LASF1384
     /tmp/ccghGiGC.s:91983  .debug_str:000000000000aebc .LASF1385
     /tmp/ccghGiGC.s:92253  .debug_str:000000000000c204 .LASF1386
     /tmp/ccghGiGC.s:90921  .debug_str:000000000000662d .LASF1387
     /tmp/ccghGiGC.s:105611  .debug_str:00000000000426c5 .LASF1388
     /tmp/ccghGiGC.s:95181  .debug_str:00000000000176de .LASF1389
     /tmp/ccghGiGC.s:96737  .debug_str:000000000001e139 .LASF1390
     /tmp/ccghGiGC.s:103649  .debug_str:0000000000039f28 .LASF1391
     /tmp/ccghGiGC.s:100163  .debug_str:000000000002c13f .LASF1392
     /tmp/ccghGiGC.s:96613  .debug_str:000000000001d83c .LASF1393
     /tmp/ccghGiGC.s:106315  .debug_str:0000000000045519 .LASF1394
     /tmp/ccghGiGC.s:106305  .debug_str:0000000000045470 .LASF1395
     /tmp/ccghGiGC.s:96991  .debug_str:000000000001f251 .LASF1396
     /tmp/ccghGiGC.s:106245  .debug_str:0000000000045102 .LASF1397
     /tmp/ccghGiGC.s:98737  .debug_str:00000000000264a4 .LASF1398
     /tmp/ccghGiGC.s:102119  .debug_str:000000000003402c .LASF1399
     /tmp/ccghGiGC.s:93285  .debug_str:0000000000010068 .LASF1400
     /tmp/ccghGiGC.s:103393  .debug_str:000000000003916f .LASF1401
     /tmp/ccghGiGC.s:106879  .debug_str:00000000000479f8 .LASF1402
     /tmp/ccghGiGC.s:99811  .debug_str:000000000002ab03 .LASF1403
     /tmp/ccghGiGC.s:105407  .debug_str:000000000004169d .LASF1404
     /tmp/ccghGiGC.s:99295  .debug_str:00000000000288d1 .LASF1405
     /tmp/ccghGiGC.s:91545  .debug_str:00000000000090da .LASF1406
     /tmp/ccghGiGC.s:103589  .debug_str:0000000000039bbb .LASF1407
     /tmp/ccghGiGC.s:89457  .debug_str:00000000000002d0 .LASF1408
     /tmp/ccghGiGC.s:97943  .debug_str:0000000000023387 .LASF1409
     /tmp/ccghGiGC.s:94411  .debug_str:00000000000145b1 .LASF1410
     /tmp/ccghGiGC.s:94863  .debug_str:00000000000161cc .LASF1411
     /tmp/ccghGiGC.s:107319  .debug_str:00000000000496e7 .LASF1412
     /tmp/ccghGiGC.s:98945  .debug_str:0000000000027210 .LASF1413
     /tmp/ccghGiGC.s:97461  .debug_str:00000000000213af .LASF1414
     /tmp/ccghGiGC.s:94039  .debug_str:0000000000012d55 .LASF1415
     /tmp/ccghGiGC.s:91125  .debug_str:0000000000007507 .LASF1416
     /tmp/ccghGiGC.s:98975  .debug_str:00000000000273cf .LASF1417
     /tmp/ccghGiGC.s:101535  .debug_str:00000000000318d9 .LASF1418
     /tmp/ccghGiGC.s:94629  .debug_str:000000000001530e .LASF1419
     /tmp/ccghGiGC.s:94921  .debug_str:00000000000165a2 .LASF1420
     /tmp/ccghGiGC.s:96207  .debug_str:000000000001bb83 .LASF1421
     /tmp/ccghGiGC.s:99579  .debug_str:0000000000029c16 .LASF1422
     /tmp/ccghGiGC.s:95693  .debug_str:0000000000019886 .LASF1423
     /tmp/ccghGiGC.s:89903  .debug_str:0000000000002258 .LASF1424
     /tmp/ccghGiGC.s:101893  .debug_str:0000000000033118 .LASF1425
     /tmp/ccghGiGC.s:104621  .debug_str:000000000003e1a6 .LASF1426
     /tmp/ccghGiGC.s:96405  .debug_str:000000000001ca41 .LASF1427
     /tmp/ccghGiGC.s:107581  .debug_str:000000000004a70d .LASF1428
     /tmp/ccghGiGC.s:89937  .debug_str:00000000000024d6 .LASF1429
     /tmp/ccghGiGC.s:98785  .debug_str:0000000000026754 .LASF1430
     /tmp/ccghGiGC.s:105257  .debug_str:00000000000409f2 .LASF1431
     /tmp/ccghGiGC.s:101835  .debug_str:0000000000032d23 .LASF1432
     /tmp/ccghGiGC.s:98197  .debug_str:0000000000024580 .LASF1433
     /tmp/ccghGiGC.s:94685  .debug_str:00000000000156b1 .LASF1434
     /tmp/ccghGiGC.s:106795  .debug_str:000000000004742b .LASF1435
     /tmp/ccghGiGC.s:92669  .debug_str:000000000000dd23 .LASF1436
     /tmp/ccghGiGC.s:90545  .debug_str:0000000000004dee .LASF1437
     /tmp/ccghGiGC.s:93479  .debug_str:0000000000010a48 .LASF1438
     /tmp/ccghGiGC.s:105661  .debug_str:0000000000042aab .LASF1439
     /tmp/ccghGiGC.s:108307  .debug_str:000000000004d9ab .LASF1440
     /tmp/ccghGiGC.s:95261  .debug_str:0000000000017cff .LASF1441
     /tmp/ccghGiGC.s:101815  .debug_str:0000000000032bd4 .LASF1442
     /tmp/ccghGiGC.s:108177  .debug_str:000000000004d148 .LASF1443
     /tmp/ccghGiGC.s:95289  .debug_str:0000000000017ee1 .LASF1444
     /tmp/ccghGiGC.s:93935  .debug_str:00000000000126b1 .LASF1445
     /tmp/ccghGiGC.s:100479  .debug_str:000000000002d491 .LASF1446
     /tmp/ccghGiGC.s:106833  .debug_str:00000000000476c6 .LASF1447
     /tmp/ccghGiGC.s:93797  .debug_str:0000000000011d74 .LASF1448
     /tmp/ccghGiGC.s:100349  .debug_str:000000000002cc5d .LASF1449
     /tmp/ccghGiGC.s:106017  .debug_str:0000000000044228 .LASF1450
     /tmp/ccghGiGC.s:91103  .debug_str:0000000000007373 .LASF1451
     /tmp/ccghGiGC.s:105681  .debug_str:0000000000042c23 .LASF1452
     /tmp/ccghGiGC.s:101153  .debug_str:0000000000030086 .LASF1453
     /tmp/ccghGiGC.s:97205  .debug_str:00000000000202a1 .LASF1454
     /tmp/ccghGiGC.s:93371  .debug_str:0000000000010499 .LASF1455
     /tmp/ccghGiGC.s:92523  .debug_str:000000000000d415 .LASF1456
     /tmp/ccghGiGC.s:105153  .debug_str:000000000004033a .LASF1457
     /tmp/ccghGiGC.s:97029  .debug_str:000000000001f5ba .LASF1458
     /tmp/ccghGiGC.s:108185  .debug_str:000000000004d1c1 .LASF1459
     /tmp/ccghGiGC.s:97481  .debug_str:0000000000021502 .LASF1460
     /tmp/ccghGiGC.s:91631  .debug_str:000000000000968b .LASF1461
     /tmp/ccghGiGC.s:103149  .debug_str:0000000000038491 .LASF1462
     /tmp/ccghGiGC.s:94761  .debug_str:0000000000015b87 .LASF1463
     /tmp/ccghGiGC.s:106107  .debug_str:00000000000447cd .LASF1464
     /tmp/ccghGiGC.s:97815  .debug_str:0000000000022b69 .LASF1465
     /tmp/ccghGiGC.s:89603  .debug_str:0000000000000c74 .LASF1466
     /tmp/ccghGiGC.s:91853  .debug_str:000000000000a582 .LASF1467
     /tmp/ccghGiGC.s:101727  .debug_str:0000000000032549 .LASF1468
     /tmp/ccghGiGC.s:91583  .debug_str:0000000000009342 .LASF1469
     /tmp/ccghGiGC.s:103709  .debug_str:000000000003a23b .LASF1470
     /tmp/ccghGiGC.s:91345  .debug_str:00000000000082d4 .LASF1471
     /tmp/ccghGiGC.s:101039  .debug_str:000000000002f998 .LASF1472
     /tmp/ccghGiGC.s:91111  .debug_str:0000000000007402 .LASF1473
     /tmp/ccghGiGC.s:100787  .debug_str:000000000002e828 .LASF1474
     /tmp/ccghGiGC.s:90853  .debug_str:00000000000061b8 .LASF1475
     /tmp/ccghGiGC.s:100517  .debug_str:000000000002d6c8 .LASF1476
     /tmp/ccghGiGC.s:92357  .debug_str:000000000000c843 .LASF1477
     /tmp/ccghGiGC.s:96829  .debug_str:000000000001e7e7 .LASF1478
     /tmp/ccghGiGC.s:91919  .debug_str:000000000000aa5c .LASF1479
     /tmp/ccghGiGC.s:101801  .debug_str:0000000000032aa4 .LASF1480
     /tmp/ccghGiGC.s:104671  .debug_str:000000000003e4ff .LASF1481
     /tmp/ccghGiGC.s:101519  .debug_str:000000000003178a .LASF1482
     /tmp/ccghGiGC.s:91421  .debug_str:0000000000008893 .LASF1483
     /tmp/ccghGiGC.s:101271  .debug_str:00000000000307da .LASF1484
     /tmp/ccghGiGC.s:91171  .debug_str:0000000000007779 .LASF1485
     /tmp/ccghGiGC.s:92521  .debug_str:000000000000d3eb .LASF1486
     /tmp/ccghGiGC.s:105135  .debug_str:000000000004021e .LASF1487
     /tmp/ccghGiGC.s:102409  .debug_str:0000000000035305 .LASF1488
     /tmp/ccghGiGC.s:92441  .debug_str:000000000000ce91 .LASF1489
     /tmp/ccghGiGC.s:102153  .debug_str:0000000000034237 .LASF1490
     /tmp/ccghGiGC.s:96851  .debug_str:000000000001e92f .LASF1491
     /tmp/ccghGiGC.s:101881  .debug_str:000000000003306d .LASF1492
     /tmp/ccghGiGC.s:91905  .debug_str:000000000000a988 .LASF1493
     /tmp/ccghGiGC.s:101599  .debug_str:0000000000031d47 .LASF1494
     /tmp/ccghGiGC.s:91635  .debug_str:00000000000096c9 .LASF1495
     /tmp/ccghGiGC.s:101335  .debug_str:0000000000030c6b .LASF1496
     /tmp/ccghGiGC.s:93057  .debug_str:000000000000f224 .LASF1497
     /tmp/ccghGiGC.s:102883  .debug_str:00000000000373cb .LASF1498
     /tmp/ccghGiGC.s:92761  .debug_str:000000000000e1ed .LASF1499
     /tmp/ccghGiGC.s:99009  .debug_str:0000000000027556 .LASF1500
     /tmp/ccghGiGC.s:92511  .debug_str:000000000000d33d .LASF1501
     /tmp/ccghGiGC.s:102393  .debug_str:00000000000351dd .LASF1502
     /tmp/ccghGiGC.s:92239  .debug_str:000000000000c126 .LASF1503
     /tmp/ccghGiGC.s:101957  .debug_str:00000000000334d9 .LASF1504
     /tmp/ccghGiGC.s:91979  .debug_str:000000000000ae71 .LASF1505
     /tmp/ccghGiGC.s:108215  .debug_str:000000000004d38f .LASF1506
     /tmp/ccghGiGC.s:93593  .debug_str:0000000000011086 .LASF1507
     /tmp/ccghGiGC.s:103241  .debug_str:00000000000389a0 .LASF1508
     /tmp/ccghGiGC.s:93311  .debug_str:00000000000101de .LASF1509
     /tmp/ccghGiGC.s:102965  .debug_str:00000000000378bd .LASF1510
     /tmp/ccghGiGC.s:92773  .debug_str:000000000000e2c6 .LASF1511
     /tmp/ccghGiGC.s:102695  .debug_str:0000000000036794 .LASF1512
     /tmp/ccghGiGC.s:92575  .debug_str:000000000000d756 .LASF1513
     /tmp/ccghGiGC.s:102471  .debug_str:00000000000357b4 .LASF1514
     /tmp/ccghGiGC.s:92319  .debug_str:000000000000c5e0 .LASF1515
     /tmp/ccghGiGC.s:102211  .debug_str:000000000003459d .LASF1516
     /tmp/ccghGiGC.s:93979  .debug_str:0000000000012926 .LASF1517
     /tmp/ccghGiGC.s:103771  .debug_str:000000000003a6ec .LASF1518
     /tmp/ccghGiGC.s:93677  .debug_str:00000000000115f7 .LASF1519
     /tmp/ccghGiGC.s:103311  .debug_str:0000000000038d7f .LASF1520
     /tmp/ccghGiGC.s:93621  .debug_str:000000000001124e .LASF1521
     /tmp/ccghGiGC.s:94485  .debug_str:0000000000014aac .LASF1522
     /tmp/ccghGiGC.s:89421  .debug_str:0000000000000021 .LASF1523
     /tmp/ccghGiGC.s:103853  .debug_str:000000000003ac44 .LASF1524
     /tmp/ccghGiGC.s:97569  .debug_str:0000000000021adb .LASF1525
     /tmp/ccghGiGC.s:105953  .debug_str:0000000000043db9 .LASF1526
     /tmp/ccghGiGC.s:89809  .debug_str:0000000000001b43 .LASF1527
     /tmp/ccghGiGC.s:90537  .debug_str:0000000000004d1d .LASF1528
     /tmp/ccghGiGC.s:90979  .debug_str:00000000000069c9 .LASF1529
     /tmp/ccghGiGC.s:91337  .debug_str:000000000000823e .LASF1530
     /tmp/ccghGiGC.s:94247  .debug_str:0000000000013b89 .LASF1531
     /tmp/ccghGiGC.s:103791  .debug_str:000000000003a81b .LASF1532
     /tmp/ccghGiGC.s:102497  .debug_str:00000000000359a3 .LASF1533
     /tmp/ccghGiGC.s:104989  .debug_str:000000000003f8df .LASF1534
     /tmp/ccghGiGC.s:107597  .debug_str:000000000004a84d .LASF1535
     /tmp/ccghGiGC.s:90981  .debug_str:00000000000069fa .LASF1536
     /tmp/ccghGiGC.s:89955  .debug_str:00000000000025b7 .LASF1537
     /tmp/ccghGiGC.s:90315  .debug_str:0000000000003da7 .LASF1538
     /tmp/ccghGiGC.s:105817  .debug_str:00000000000434ab .LASF1539
     /tmp/ccghGiGC.s:106453  .debug_str:0000000000045e7e .LASF1540
     /tmp/ccghGiGC.s:105177  .debug_str:00000000000404c0 .LASF1541
     /tmp/ccghGiGC.s:105361  .debug_str:0000000000041279 .LASF1542
     /tmp/ccghGiGC.s:95715  .debug_str:00000000000199f8 .LASF1543
     /tmp/ccghGiGC.s:107137  .debug_str:0000000000048b29 .LASF1544
     /tmp/ccghGiGC.s:108595  .debug_str:000000000004edf4 .LASF1545
     /tmp/ccghGiGC.s:99929  .debug_str:000000000002b2df .LASF1546
     /tmp/ccghGiGC.s:93385  .debug_str:0000000000010549 .LASF1547
     /tmp/ccghGiGC.s:102223  .debug_str:0000000000034688 .LASF1548
     /tmp/ccghGiGC.s:91759  .debug_str:0000000000009fe1 .LASF1549
     /tmp/ccghGiGC.s:89433  .debug_str:00000000000000f1 .LASF1550
     /tmp/ccghGiGC.s:97855  .debug_str:0000000000022e10 .LASF1551
     /tmp/ccghGiGC.s:98107  .debug_str:0000000000023f55 .LASF1552
     /tmp/ccghGiGC.s:104217  .debug_str:000000000003c622 .LASF1553
     /tmp/ccghGiGC.s:106423  .debug_str:0000000000045cdb .LASF1554
     /tmp/ccghGiGC.s:107933  .debug_str:000000000004c060 .LASF1555
     /tmp/ccghGiGC.s:97253  .debug_str:00000000000205fa .LASF1556
     /tmp/ccghGiGC.s:101081  .debug_str:000000000002fc3e .LASF1557
     /tmp/ccghGiGC.s:93631  .debug_str:000000000001132c .LASF1559
     /tmp/ccghGiGC.s:107275  .debug_str:00000000000493f7 .LASF1560
     /tmp/ccghGiGC.s:94897  .debug_str:00000000000163dd .LASF1561
     /tmp/ccghGiGC.s:99517  .debug_str:00000000000297f4 .LASF1562
     /tmp/ccghGiGC.s:94745  .debug_str:0000000000015a8b .LASF1563
     /tmp/ccghGiGC.s:94683  .debug_str:00000000000156a3 .LASF1564
     /tmp/ccghGiGC.s:101045  .debug_str:000000000002fa15 .LASF1565
     /tmp/ccghGiGC.s:89485  .debug_str:00000000000004a7 .LASF1566
     /tmp/ccghGiGC.s:94985  .debug_str:00000000000169e4 .LASF1567
     /tmp/ccghGiGC.s:97009  .debug_str:000000000001f430 .LASF1568
     /tmp/ccghGiGC.s:98189  .debug_str:00000000000244e4 .LASF1569
     /tmp/ccghGiGC.s:105641  .debug_str:000000000004295f .LASF1570
     /tmp/ccghGiGC.s:93099  .debug_str:000000000000f427 .LASF1571
     /tmp/ccghGiGC.s:99753  .debug_str:000000000002a7a2 .LASF1572
     /tmp/ccghGiGC.s:91007  .debug_str:0000000000006c26 .LASF1573
     /tmp/ccghGiGC.s:91895  .debug_str:000000000000a8b5 .LASF1574
     /tmp/ccghGiGC.s:97921  .debug_str:0000000000023255 .LASF1575
     /tmp/ccghGiGC.s:91889  .debug_str:000000000000a85c .LASF1576
     /tmp/ccghGiGC.s:96883  .debug_str:000000000001ebae .LASF1577
     /tmp/ccghGiGC.s:102085  .debug_str:0000000000033dc8 .LASF1578
     /tmp/ccghGiGC.s:98001  .debug_str:0000000000023880 .LASF1579
     /tmp/ccghGiGC.s:90141  .debug_str:000000000000326c .LASF1580
     /tmp/ccghGiGC.s:99613  .debug_str:0000000000029e29 .LASF1581
     /tmp/ccghGiGC.s:90555  .debug_str:0000000000004e84 .LASF1582
     /tmp/ccghGiGC.s:92743  .debug_str:000000000000e0f4 .LASF1583
     /tmp/ccghGiGC.s:108841  .debug_str:000000000004ff14 .LASF1584
     /tmp/ccghGiGC.s:99383  .debug_str:0000000000028f25 .LASF1585
     /tmp/ccghGiGC.s:103751  .debug_str:000000000003a59a .LASF1586
     /tmp/ccghGiGC.s:99749  .debug_str:000000000002a757 .LASF1587
     /tmp/ccghGiGC.s:106937  .debug_str:0000000000047e12 .LASF1588
     /tmp/ccghGiGC.s:105963  .debug_str:0000000000043e63 .LASF1589
     /tmp/ccghGiGC.s:93129  .debug_str:000000000000f6a5 .LASF1590
     /tmp/ccghGiGC.s:107465  .debug_str:000000000004a03c .LASF1591
     /tmp/ccghGiGC.s:90501  .debug_str:0000000000004b0a .LASF1592
     /tmp/ccghGiGC.s:95723  .debug_str:0000000000019a73 .LASF1593
     /tmp/ccghGiGC.s:99723  .debug_str:000000000002a5a3 .LASF1594
     /tmp/ccghGiGC.s:91397  .debug_str:0000000000008699 .LASF1595
     /tmp/ccghGiGC.s:93627  .debug_str:00000000000112d3 .LASF1596
     /tmp/ccghGiGC.s:101865  .debug_str:0000000000032f8a .LASF1597
     /tmp/ccghGiGC.s:92847  .debug_str:000000000000e777 .LASF1598
     /tmp/ccghGiGC.s:107341  .debug_str:0000000000049832 .LASF1599
     /tmp/ccghGiGC.s:95789  .debug_str:0000000000019f01 .LASF1600
     /tmp/ccghGiGC.s:108641  .debug_str:000000000004f1a3 .LASF1601
     /tmp/ccghGiGC.s:93427  .debug_str:000000000001072b .LASF1602
     /tmp/ccghGiGC.s:102265  .debug_str:00000000000348db .LASF1603
     /tmp/ccghGiGC.s:108483  .debug_str:000000000004e6e6 .LASF1604
     /tmp/ccghGiGC.s:101171  .debug_str:00000000000301f2 .LASF1605
     /tmp/ccghGiGC.s:99089  .debug_str:0000000000027b1d .LASF1606
     /tmp/ccghGiGC.s:102035  .debug_str:0000000000033a98 .LASF1607
     /tmp/ccghGiGC.s:95985  .debug_str:000000000001ad30 .LASF1608
     /tmp/ccghGiGC.s:103013  .debug_str:0000000000037c70 .LASF1609
     /tmp/ccghGiGC.s:105571  .debug_str:000000000004241f .LASF1610
     /tmp/ccghGiGC.s:104361  .debug_str:000000000003cfcd .LASF1611
     /tmp/ccghGiGC.s:96331  .debug_str:000000000001c45d .LASF1612
     /tmp/ccghGiGC.s:100467  .debug_str:000000000002d3c3 .LASF1613
     /tmp/ccghGiGC.s:108035  .debug_str:000000000004c70e .LASF1614
     /tmp/ccghGiGC.s:106155  .debug_str:0000000000044ab3 .LASF1615
     /tmp/ccghGiGC.s:92447  .debug_str:000000000000cf04 .LASF1616
     /tmp/ccghGiGC.s:92141  .debug_str:000000000000b9d3 .LASF1617
     /tmp/ccghGiGC.s:89841  .debug_str:0000000000001dd9 .LASF1618
     /tmp/ccghGiGC.s:101733  .debug_str:000000000003259e .LASF1619
     /tmp/ccghGiGC.s:94733  .debug_str:00000000000159b5 .LASF1620
     /tmp/ccghGiGC.s:99695  .debug_str:000000000002a396 .LASF1621
     /tmp/ccghGiGC.s:101967  .debug_str:0000000000033585 .LASF1622
     /tmp/ccghGiGC.s:97017  .debug_str:000000000001f4b4 .LASF1623
     /tmp/ccghGiGC.s:95611  .debug_str:0000000000019278 .LASF1624
     /tmp/ccghGiGC.s:102659  .debug_str:0000000000036552 .LASF1625
     /tmp/ccghGiGC.s:91663  .debug_str:0000000000009883 .LASF1626
     /tmp/ccghGiGC.s:101353  .debug_str:0000000000030d98 .LASF1627
     /tmp/ccghGiGC.s:105581  .debug_str:00000000000424b8 .LASF1628
     /tmp/ccghGiGC.s:96723  .debug_str:000000000001e060 .LASF1629
     /tmp/ccghGiGC.s:108601  .debug_str:000000000004ee33 .LASF1630
     /tmp/ccghGiGC.s:105575  .debug_str:000000000004247b .LASF1631
     /tmp/ccghGiGC.s:108623  .debug_str:000000000004f012 .LASF1632
     /tmp/ccghGiGC.s:92645  .debug_str:000000000000dbde .LASF1633
     /tmp/ccghGiGC.s:108085  .debug_str:000000000004ca6f .LASF1634
     /tmp/ccghGiGC.s:96943  .debug_str:000000000001eeef .LASF1635
     /tmp/ccghGiGC.s:107431  .debug_str:0000000000049e7d .LASF1636
     /tmp/ccghGiGC.s:90665  .debug_str:0000000000005514 .LASF1637
     /tmp/ccghGiGC.s:95213  .debug_str:0000000000017938 .LASF1638
     /tmp/ccghGiGC.s:105875  .debug_str:000000000004389a .LASF1639
     /tmp/ccghGiGC.s:95579  .debug_str:000000000001904b .LASF1640
     /tmp/ccghGiGC.s:98325  .debug_str:0000000000024d22 .LASF1641
     /tmp/ccghGiGC.s:97741  .debug_str:0000000000022720 .LASF1642
     /tmp/ccghGiGC.s:108813  .debug_str:000000000004fd1f .LASF1643
     /tmp/ccghGiGC.s:101719  .debug_str:0000000000032486 .LASF1644
     /tmp/ccghGiGC.s:94201  .debug_str:00000000000138b8 .LASF1645
     /tmp/ccghGiGC.s:98643  .debug_str:0000000000025fe5 .LASF1646
     /tmp/ccghGiGC.s:102301  .debug_str:0000000000034b60 .LASF1647
     /tmp/ccghGiGC.s:90285  .debug_str:0000000000003bbd .LASF1648
     /tmp/ccghGiGC.s:93059  .debug_str:000000000000f24e .LASF1649
     /tmp/ccghGiGC.s:92709  .debug_str:000000000000dee4 .LASF1650
     /tmp/ccghGiGC.s:107781  .debug_str:000000000004b5f7 .LASF1651
     /tmp/ccghGiGC.s:99993  .debug_str:000000000002b605 .LASF1652
     /tmp/ccghGiGC.s:98747  .debug_str:0000000000026532 .LASF1653
     /tmp/ccghGiGC.s:92401  .debug_str:000000000000cb91 .LASF1654
     /tmp/ccghGiGC.s:97843  .debug_str:0000000000022d46 .LASF1655
     /tmp/ccghGiGC.s:102083  .debug_str:0000000000033d92 .LASF1656
     /tmp/ccghGiGC.s:107229  .debug_str:00000000000490bd .LASF1657
     /tmp/ccghGiGC.s:108871  .debug_str:00000000000500fe .LASF1658
     /tmp/ccghGiGC.s:104439  .debug_str:000000000003d442 .LASF1659
     /tmp/ccghGiGC.s:100139  .debug_str:000000000002bf2c .LASF1660
     /tmp/ccghGiGC.s:95319  .debug_str:000000000001806a .LASF1661
     /tmp/ccghGiGC.s:91315  .debug_str:00000000000080dd .LASF1662
     /tmp/ccghGiGC.s:105719  .debug_str:0000000000042e77 .LASF1663
     /tmp/ccghGiGC.s:102145  .debug_str:00000000000341a6 .LASF1664
     /tmp/ccghGiGC.s:96673  .debug_str:000000000001dca3 .LASF1665
     /tmp/ccghGiGC.s:93145  .debug_str:000000000000f7f3 .LASF1666
     /tmp/ccghGiGC.s:107061  .debug_str:00000000000485f0 .LASF1667
     /tmp/ccghGiGC.s:107267  .debug_str:000000000004938d .LASF1668
     /tmp/ccghGiGC.s:95849  .debug_str:000000000001a2e3 .LASF1669
     /tmp/ccghGiGC.s:98429  .debug_str:00000000000253e8 .LASF1670
     /tmp/ccghGiGC.s:106251  .debug_str:0000000000045173 .LASF1671
     /tmp/ccghGiGC.s:89589  .debug_str:0000000000000b9f .LASF1672
     /tmp/ccghGiGC.s:97183  .debug_str:00000000000200df .LASF1673
     /tmp/ccghGiGC.s:100361  .debug_str:000000000002cd46 .LASF1674
     /tmp/ccghGiGC.s:94325  .debug_str:000000000001405c .LASF1675
     /tmp/ccghGiGC.s:91363  .debug_str:000000000000843a .LASF1676
     /tmp/ccghGiGC.s:102893  .debug_str:00000000000374a9 .LASF1677
     /tmp/ccghGiGC.s:105547  .debug_str:0000000000042281 .LASF1678
     /tmp/ccghGiGC.s:94471  .debug_str:00000000000149d8 .LASF1679
     /tmp/ccghGiGC.s:104057  .debug_str:000000000003baa3 .LASF1680
     /tmp/ccghGiGC.s:104865  .debug_str:000000000003f124 .LASF1681
     /tmp/ccghGiGC.s:90885  .debug_str:00000000000063bd .LASF1682
     /tmp/ccghGiGC.s:98775  .debug_str:00000000000266c4 .LASF1683
     /tmp/ccghGiGC.s:101657  .debug_str:0000000000032087 .LASF1684
     /tmp/ccghGiGC.s:89649  .debug_str:0000000000000f9f .LASF1685
     /tmp/ccghGiGC.s:102797  .debug_str:0000000000036e7c .LASF1686
     /tmp/ccghGiGC.s:94827  .debug_str:0000000000015fbb .LASF1687
     /tmp/ccghGiGC.s:93919  .debug_str:000000000001259f .LASF1688
     /tmp/ccghGiGC.s:105231  .debug_str:000000000004080a .LASF1689
     /tmp/ccghGiGC.s:105315  .debug_str:0000000000040f31 .LASF1690
     /tmp/ccghGiGC.s:96963  .debug_str:000000000001f07d .LASF1691
     /tmp/ccghGiGC.s:107985  .debug_str:000000000004c3b7 .LASF1692
     /tmp/ccghGiGC.s:106491  .debug_str:0000000000046109 .LASF1693
     /tmp/ccghGiGC.s:96181  .debug_str:000000000001b996 .LASF1694
     /tmp/ccghGiGC.s:103885  .debug_str:000000000003aed7 .LASF1695
     /tmp/ccghGiGC.s:107969  .debug_str:000000000004c2a0 .LASF1696
     /tmp/ccghGiGC.s:94665  .debug_str:0000000000015571 .LASF1697
     /tmp/ccghGiGC.s:101313  .debug_str:0000000000030b53 .LASF1698
     /tmp/ccghGiGC.s:97965  .debug_str:000000000002354d .LASF1699
     /tmp/ccghGiGC.s:90091  .debug_str:0000000000002ef0 .LASF1700
     /tmp/ccghGiGC.s:103315  .debug_str:0000000000038dd0 .LASF1701
     /tmp/ccghGiGC.s:103711  .debug_str:000000000003a265 .LASF1702
     /tmp/ccghGiGC.s:96195  .debug_str:000000000001bad3 .LASF1703
     /tmp/ccghGiGC.s:102969  .debug_str:0000000000037907 .LASF1704
     /tmp/ccghGiGC.s:105207  .debug_str:0000000000040655 .LASF1705
     /tmp/ccghGiGC.s:99575  .debug_str:0000000000029bd4 .LASF1706
     /tmp/ccghGiGC.s:100929  .debug_str:000000000002f171 .LASF1707
     /tmp/ccghGiGC.s:98233  .debug_str:00000000000247f1 .LASF1708
     /tmp/ccghGiGC.s:95383  .debug_str:0000000000018478 .LASF1709
     /tmp/ccghGiGC.s:93207  .debug_str:000000000000fb0f .LASF1710
     /tmp/ccghGiGC.s:89731  .debug_str:0000000000001514 .LASF1711
     /tmp/ccghGiGC.s:105127  .debug_str:00000000000401b1 .LASF1712
     /tmp/ccghGiGC.s:92515  .debug_str:000000000000d3a7 .LASF1713
     /tmp/ccghGiGC.s:95733  .debug_str:0000000000019b1e .LASF1714
     /tmp/ccghGiGC.s:100809  .debug_str:000000000002e9f0 .LASF1715
     /tmp/ccghGiGC.s:106005  .debug_str:000000000004417f .LASF1716
     /tmp/ccghGiGC.s:102933  .debug_str:0000000000037755 .LASF1717
     /tmp/ccghGiGC.s:97853  .debug_str:0000000000022de5 .LASF1718
     /tmp/ccghGiGC.s:103573  .debug_str:0000000000039aac .LASF1719
     /tmp/ccghGiGC.s:100313  .debug_str:000000000002ca57 .LASF1720
     /tmp/ccghGiGC.s:94639  .debug_str:00000000000153ee .LASF1721
     /tmp/ccghGiGC.s:99203  .debug_str:00000000000282ad .LASF1722
     /tmp/ccghGiGC.s:105461  .debug_str:0000000000041a27 .LASF1723
     /tmp/ccghGiGC.s:90057  .debug_str:0000000000002cb4 .LASF1724
     /tmp/ccghGiGC.s:96661  .debug_str:000000000001dbbf .LASF1725
     /tmp/ccghGiGC.s:100601  .debug_str:000000000002dc0d .LASF1726
     /tmp/ccghGiGC.s:108755  .debug_str:000000000004f8c9 .LASF1727
     /tmp/ccghGiGC.s:104861  .debug_str:000000000003f0e1 .LASF1728
     /tmp/ccghGiGC.s:100011  .debug_str:000000000002b801 .LASF1729
     /tmp/ccghGiGC.s:101523  .debug_str:000000000003180d .LASF1730
     /tmp/ccghGiGC.s:106457  .debug_str:0000000000045ebc .LASF1731
     /tmp/ccghGiGC.s:97069  .debug_str:000000000001f8cb .LASF1732
     /tmp/ccghGiGC.s:98113  .debug_str:0000000000023fcc .LASF1733
     /tmp/ccghGiGC.s:100173  .debug_str:000000000002c1ee .LASF1734
     /tmp/ccghGiGC.s:105787  .debug_str:00000000000432a7 .LASF1735
     /tmp/ccghGiGC.s:105223  .debug_str:0000000000040764 .LASF1736
     /tmp/ccghGiGC.s:102073  .debug_str:0000000000033cf3 .LASF1737
     /tmp/ccghGiGC.s:96183  .debug_str:000000000001b9b2 .LASF1738
     /tmp/ccghGiGC.s:94697  .debug_str:0000000000015753 .LASF1739
     /tmp/ccghGiGC.s:107155  .debug_str:0000000000048c24 .LASF1740
     /tmp/ccghGiGC.s:108699  .debug_str:000000000004f501 .LASF1741
     /tmp/ccghGiGC.s:95177  .debug_str:000000000001766e .LASF1742
     /tmp/ccghGiGC.s:102495  .debug_str:0000000000035983 .LASF1743
     /tmp/ccghGiGC.s:106257  .debug_str:00000000000451d7 .LASF1744
     /tmp/ccghGiGC.s:95367  .debug_str:0000000000018321 .LASF1745
     /tmp/ccghGiGC.s:90987  .debug_str:0000000000006a82 .LASF1746
     /tmp/ccghGiGC.s:90557  .debug_str:0000000000004eac .LASF1747
     /tmp/ccghGiGC.s:95171  .debug_str:0000000000017610 .LASF1748
     /tmp/ccghGiGC.s:105281  .debug_str:0000000000040bb9 .LASF1749
     /tmp/ccghGiGC.s:108151  .debug_str:000000000004cf48 .LASF1750
     /tmp/ccghGiGC.s:100615  .debug_str:000000000002dd54 .LASF1751
     /tmp/ccghGiGC.s:98163  .debug_str:00000000000242f3 .LASF1752
     /tmp/ccghGiGC.s:97477  .debug_str:00000000000214d0 .LASF1753
     /tmp/ccghGiGC.s:100339  .debug_str:000000000002cbb3 .LASF1754
     /tmp/ccghGiGC.s:96823  .debug_str:000000000001e792 .LASF1755
     /tmp/ccghGiGC.s:96217  .debug_str:000000000001bc4e .LASF1756
     /tmp/ccghGiGC.s:91947  .debug_str:000000000000abf1 .LASF1757
     /tmp/ccghGiGC.s:105877  .debug_str:00000000000438b6 .LASF1758
     /tmp/ccghGiGC.s:106743  .debug_str:00000000000470d9 .LASF1759
     /tmp/ccghGiGC.s:96475  .debug_str:000000000001cf2e .LASF1760
     /tmp/ccghGiGC.s:95847  .debug_str:000000000001a2c2 .LASF1761
     /tmp/ccghGiGC.s:105975  .debug_str:0000000000043f3a .LASF1762
     /tmp/ccghGiGC.s:92285  .debug_str:000000000000c3f9 .LASF1763
     /tmp/ccghGiGC.s:105139  .debug_str:0000000000040257 .LASF1764
     /tmp/ccghGiGC.s:98019  .debug_str:000000000002399a .LASF1765
     /tmp/ccghGiGC.s:100405  .debug_str:000000000002d076 .LASF1766
     /tmp/ccghGiGC.s:106639  .debug_str:00000000000469f7 .LASF1767
     /tmp/ccghGiGC.s:91407  .debug_str:0000000000008774 .LASF1768
     /tmp/ccghGiGC.s:98847  .debug_str:0000000000026bbc .LASF1769
     /tmp/ccghGiGC.s:103619  .debug_str:0000000000039dbd .LASF1770
     /tmp/ccghGiGC.s:104937  .debug_str:000000000003f5c6 .LASF1771
     /tmp/ccghGiGC.s:94693  .debug_str:0000000000015720 .LASF1772
     /tmp/ccghGiGC.s:96135  .debug_str:000000000001b6b1 .LASF1773
     /tmp/ccghGiGC.s:106597  .debug_str:0000000000046766 .LASF1774
     /tmp/ccghGiGC.s:95035  .debug_str:0000000000016d7b .LASF1775
     /tmp/ccghGiGC.s:107477  .debug_str:000000000004a0ec .LASF1776
     /tmp/ccghGiGC.s:91879  .debug_str:000000000000a7af .LASF1777
     /tmp/ccghGiGC.s:101831  .debug_str:0000000000032ce8 .LASF1778
     /tmp/ccghGiGC.s:97609  .debug_str:0000000000021e31 .LASF1779
     /tmp/ccghGiGC.s:107383  .debug_str:0000000000049aa5 .LASF1780
     /tmp/ccghGiGC.s:107953  .debug_str:000000000004c197 .LASF1781
     /tmp/ccghGiGC.s:106841  .debug_str:0000000000047794 .LASF1782
     /tmp/ccghGiGC.s:98745  .debug_str:0000000000026509 .LASF1783
     /tmp/ccghGiGC.s:98009  .debug_str:00000000000238f0 .LASF1784
     /tmp/ccghGiGC.s:91819  .debug_str:000000000000a3c5 .LASF1785
     /tmp/ccghGiGC.s:108665  .debug_str:000000000004f305 .LASF1786
     /tmp/ccghGiGC.s:100149  .debug_str:000000000002c02d .LASF1787
     /tmp/ccghGiGC.s:94211  .debug_str:0000000000013966 .LASF1788
     /tmp/ccghGiGC.s:101343  .debug_str:0000000000030d19 .LASF1789
     /tmp/ccghGiGC.s:104855  .debug_str:000000000003f092 .LASF1790
     /tmp/ccghGiGC.s:90245  .debug_str:00000000000038fa .LASF1791
     /tmp/ccghGiGC.s:99115  .debug_str:0000000000027ccc .LASF1792
     /tmp/ccghGiGC.s:101675  .debug_str:00000000000321ac .LASF1793
     /tmp/ccghGiGC.s:101321  .debug_str:0000000000030bb3 .LASF1794
     /tmp/ccghGiGC.s:92435  .debug_str:000000000000ce37 .LASF1795
     /tmp/ccghGiGC.s:91177  .debug_str:0000000000007808 .LASF1796
     /tmp/ccghGiGC.s:97859  .debug_str:0000000000022e32 .LASF1797
     /tmp/ccghGiGC.s:101979  .debug_str:0000000000033671 .LASF1798
     /tmp/ccghGiGC.s:108257  .debug_str:000000000004d605 .LASF1799
     /tmp/ccghGiGC.s:92581  .debug_str:000000000000d7ce .LASF1800
     /tmp/ccghGiGC.s:99843  .debug_str:000000000002acdb .LASF1801
     /tmp/ccghGiGC.s:100319  .debug_str:000000000002caa0 .LASF1802
     /tmp/ccghGiGC.s:89537  .debug_str:0000000000000851 .LASF1803
     /tmp/ccghGiGC.s:107323  .debug_str:000000000004974c .LASF1804
     /tmp/ccghGiGC.s:108323  .debug_str:000000000004daf5 .LASF1805
     /tmp/ccghGiGC.s:94159  .debug_str:0000000000013666 .LASF1806
     /tmp/ccghGiGC.s:96679  .debug_str:000000000001dd28 .LASF1807
     /tmp/ccghGiGC.s:101059  .debug_str:000000000002faab .LASF1808
     /tmp/ccghGiGC.s:96987  .debug_str:000000000001f1e9 .LASF1809
     /tmp/ccghGiGC.s:96197  .debug_str:000000000001baf5 .LASF1810
     /tmp/ccghGiGC.s:106511  .debug_str:0000000000046236 .LASF1811
     /tmp/ccghGiGC.s:91301  .debug_str:0000000000007fed .LASF1812
     /tmp/ccghGiGC.s:108289  .debug_str:000000000004d876 .LASF1813
     /tmp/ccghGiGC.s:107399  .debug_str:0000000000049be0 .LASF1814
     /tmp/ccghGiGC.s:97173  .debug_str:000000000001ffd8 .LASF1815
     /tmp/ccghGiGC.s:99657  .debug_str:000000000002a116 .LASF1816
     /tmp/ccghGiGC.s:101931  .debug_str:0000000000033332 .LASF1817
     /tmp/ccghGiGC.s:99769  .debug_str:000000000002a8ca .LASF1818
     /tmp/ccghGiGC.s:91757  .debug_str:0000000000009fba .LASF1819
     /tmp/ccghGiGC.s:105357  .debug_str:0000000000041236 .LASF1820
     /tmp/ccghGiGC.s:107823  .debug_str:000000000004b919 .LASF1821
     /tmp/ccghGiGC.s:100685  .debug_str:000000000002e19d .LASF1822
     /tmp/ccghGiGC.s:91859  .debug_str:000000000000a5e5 .LASF1823
     /tmp/ccghGiGC.s:104449  .debug_str:000000000003d4e0 .LASF1824
     /tmp/ccghGiGC.s:104707  .debug_str:000000000003e753 .LASF1825
     /tmp/ccghGiGC.s:103597  .debug_str:0000000000039c4c .LASF1826
     /tmp/ccghGiGC.s:92625  .debug_str:000000000000daad .LASF1827
     /tmp/ccghGiGC.s:100119  .debug_str:000000000002be44 .LASF1828
     /tmp/ccghGiGC.s:102091  .debug_str:0000000000033e45 .LASF1829
     /tmp/ccghGiGC.s:89487  .debug_str:00000000000004c9 .LASF1830
     /tmp/ccghGiGC.s:92033  .debug_str:000000000000b205 .LASF1831
     /tmp/ccghGiGC.s:95809  .debug_str:000000000001a00a .LASF1832
     /tmp/ccghGiGC.s:91887  .debug_str:000000000000a83d .LASF1833
     /tmp/ccghGiGC.s:98923  .debug_str:00000000000270de .LASF1834
     /tmp/ccghGiGC.s:105159  .debug_str:00000000000403b2 .LASF1835
     /tmp/ccghGiGC.s:95589  .debug_str:00000000000190e8 .LASF1836
     /tmp/ccghGiGC.s:108637  .debug_str:000000000004f14a .LASF1837
     /tmp/ccghGiGC.s:96193  .debug_str:000000000001baa9 .LASF1838
     /tmp/ccghGiGC.s:102697  .debug_str:00000000000367be .LASF1839
     /tmp/ccghGiGC.s:107317  .debug_str:00000000000496c6 .LASF1840
     /tmp/ccghGiGC.s:104991  .debug_str:000000000003f916 .LASF1841
     /tmp/ccghGiGC.s:101169  .debug_str:00000000000301d1 .LASF1842
     /tmp/ccghGiGC.s:106165  .debug_str:0000000000044b73 .LASF1843
     /tmp/ccghGiGC.s:105609  .debug_str:00000000000426af .LASF1844
     /tmp/ccghGiGC.s:98881  .debug_str:0000000000026ddc .LASF1845
     /tmp/ccghGiGC.s:91327  .debug_str:00000000000081af .LASF1846
     /tmp/ccghGiGC.s:99909  .debug_str:000000000002b138 .LASF1847
     /tmp/ccghGiGC.s:99461  .debug_str:0000000000029503 .LASF1848
     /tmp/ccghGiGC.s:94327  .debug_str:000000000001407f .LASF1849
     /tmp/ccghGiGC.s:101487  .debug_str:00000000000315fd .LASF1850
     /tmp/ccghGiGC.s:95143  .debug_str:000000000001744f .LASF1851
     /tmp/ccghGiGC.s:100129  .debug_str:000000000002bebb .LASF1852
     /tmp/ccghGiGC.s:91623  .debug_str:000000000000962a .LASF1853
     /tmp/ccghGiGC.s:106735  .debug_str:0000000000047070 .LASF1854
     /tmp/ccghGiGC.s:101155  .debug_str:00000000000300b0 .LASF1855
     /tmp/ccghGiGC.s:90675  .debug_str:00000000000055ba .LASF1856
     /tmp/ccghGiGC.s:97237  .debug_str:00000000000204b6 .LASF1857
     /tmp/ccghGiGC.s:90367  .debug_str:000000000000417d .LASF1858
     /tmp/ccghGiGC.s:95049  .debug_str:0000000000016e41 .LASF1859
     /tmp/ccghGiGC.s:91563  .debug_str:000000000000923d .LASF1860
     /tmp/ccghGiGC.s:101199  .debug_str:000000000003036b .LASF1861
     /tmp/ccghGiGC.s:102499  .debug_str:00000000000359da .LASF1862
     /tmp/ccghGiGC.s:98927  .debug_str:000000000002711a .LASF1863
     /tmp/ccghGiGC.s:99105  .debug_str:0000000000027c16 .LASF1864
     /tmp/ccghGiGC.s:93997  .debug_str:0000000000012a8c .LASF1865
     /tmp/ccghGiGC.s:103261  .debug_str:0000000000038b37 .LASF1866
     /tmp/ccghGiGC.s:93035  .debug_str:000000000000f067 .LASF1867
     /tmp/ccghGiGC.s:90257  .debug_str:00000000000039ce .LASF1868
     /tmp/ccghGiGC.s:108513  .debug_str:000000000004e94f .LASF1869
     /tmp/ccghGiGC.s:100597  .debug_str:000000000002dbc5 .LASF1870
     /tmp/ccghGiGC.s:103225  .debug_str:00000000000388a7 .LASF1871
     /tmp/ccghGiGC.s:108245  .debug_str:000000000004d536 .LASF1872
     /tmp/ccghGiGC.s:97421  .debug_str:0000000000021107 .LASF1873
     /tmp/ccghGiGC.s:97549  .debug_str:00000000000219c9 .LASF1874
     /tmp/ccghGiGC.s:97983  .debug_str:0000000000023696 .LASF1875
     /tmp/ccghGiGC.s:100699  .debug_str:000000000002e2a8 .LASF1876
     /tmp/ccghGiGC.s:102733  .debug_str:0000000000036a18 .LASF1877
     /tmp/ccghGiGC.s:102411  .debug_str:000000000003532f .LASF1878
     /tmp/ccghGiGC.s:92203  .debug_str:000000000000bec0 .LASF1879
     /tmp/ccghGiGC.s:93877  .debug_str:0000000000012330 .LASF1880
     /tmp/ccghGiGC.s:106749  .debug_str:0000000000047144 .LASF1881
     /tmp/ccghGiGC.s:92607  .debug_str:000000000000d963 .LASF1882
     /tmp/ccghGiGC.s:104745  .debug_str:000000000003e9fd .LASF1883
     /tmp/ccghGiGC.s:90049  .debug_str:0000000000002c53 .LASF1884
     /tmp/ccghGiGC.s:101669  .debug_str:0000000000032135 .LASF1885
     /tmp/ccghGiGC.s:103821  .debug_str:000000000003aa6a .LASF1886
     /tmp/ccghGiGC.s:93367  .debug_str:0000000000010460 .LASF1887
     /tmp/ccghGiGC.s:95667  .debug_str:00000000000196d4 .LASF1888
     /tmp/ccghGiGC.s:100827  .debug_str:000000000002eb27 .LASF1889
     /tmp/ccghGiGC.s:101429  .debug_str:0000000000031230 .LASF1890
     /tmp/ccghGiGC.s:94499  .debug_str:0000000000014b9b .LASF1891
     /tmp/ccghGiGC.s:101333  .debug_str:0000000000030c42 .LASF1892
     /tmp/ccghGiGC.s:92597  .debug_str:000000000000d8ab .LASF1893
     /tmp/ccghGiGC.s:98187  .debug_str:00000000000244c4 .LASF1894
     /tmp/ccghGiGC.s:101307  .debug_str:0000000000030ad4 .LASF1895
     /tmp/ccghGiGC.s:107963  .debug_str:000000000004c259 .LASF1896
     /tmp/ccghGiGC.s:89919  .debug_str:00000000000023b4 .LASF1897
     /tmp/ccghGiGC.s:96403  .debug_str:000000000001ca1d .LASF1898
     /tmp/ccghGiGC.s:92741  .debug_str:000000000000e0c8 .LASF1899
     /tmp/ccghGiGC.s:103795  .debug_str:000000000003a86e .LASF1900
     /tmp/ccghGiGC.s:101341  .debug_str:0000000000030cef .LASF1901
     /tmp/ccghGiGC.s:96323  .debug_str:000000000001c3c5 .LASF1902
     /tmp/ccghGiGC.s:99767  .debug_str:000000000002a8a4 .LASF1903
     /tmp/ccghGiGC.s:106523  .debug_str:0000000000046338 .LASF1904
     /tmp/ccghGiGC.s:91611  .debug_str:000000000000955b .LASF1905
     /tmp/ccghGiGC.s:104601  .debug_str:000000000003e023 .LASF1906
     /tmp/ccghGiGC.s:98063  .debug_str:0000000000023c79 .LASF1907
     /tmp/ccghGiGC.s:101467  .debug_str:0000000000031491 .LASF1908
     /tmp/ccghGiGC.s:91799  .debug_str:000000000000a235 .LASF1909
     /tmp/ccghGiGC.s:95327  .debug_str:00000000000180c7 .LASF1910
     /tmp/ccghGiGC.s:92367  .debug_str:000000000000c92d .LASF1911
     /tmp/ccghGiGC.s:100671  .debug_str:000000000002e0d6 .LASF1912
     /tmp/ccghGiGC.s:97217  .debug_str:0000000000020392 .LASF1913
     /tmp/ccghGiGC.s:96775  .debug_str:000000000001e3e7 .LASF1914
     /tmp/ccghGiGC.s:93389  .debug_str:0000000000010571 .LASF1915
     /tmp/ccghGiGC.s:98899  .debug_str:0000000000026f3d .LASF1916
     /tmp/ccghGiGC.s:93651  .debug_str:0000000000011470 .LASF1917
     /tmp/ccghGiGC.s:105627  .debug_str:000000000004284b .LASF1918
     /tmp/ccghGiGC.s:106843  .debug_str:00000000000477b5 .LASF1919
     /tmp/ccghGiGC.s:90895  .debug_str:0000000000006483 .LASF1920
     /tmp/ccghGiGC.s:93183  .debug_str:000000000000f933 .LASF1921
     /tmp/ccghGiGC.s:101391  .debug_str:0000000000031013 .LASF1922
     /tmp/ccghGiGC.s:105063  .debug_str:000000000003fe09 .LASF1923
     /tmp/ccghGiGC.s:98341  .debug_str:0000000000024ed3 .LASF1924
     /tmp/ccghGiGC.s:104965  .debug_str:000000000003f783 .LASF1925
     /tmp/ccghGiGC.s:90847  .debug_str:000000000000616d .LASF1926
     /tmp/ccghGiGC.s:96229  .debug_str:000000000001bd41 .LASF1927
     /tmp/ccghGiGC.s:107767  .debug_str:000000000004b4ee .LASF1928
     /tmp/ccghGiGC.s:100067  .debug_str:000000000002bb90 .LASF1929
     /tmp/ccghGiGC.s:96255  .debug_str:000000000001bf01 .LASF1930
     /tmp/ccghGiGC.s:93895  .debug_str:0000000000012467 .LASF1931
     /tmp/ccghGiGC.s:90643  .debug_str:00000000000053b0 .LASF1932
     /tmp/ccghGiGC.s:97467  .debug_str:0000000000021413 .LASF1933
     /tmp/ccghGiGC.s:93775  .debug_str:0000000000011c03 .LASF1934
     /tmp/ccghGiGC.s:89845  .debug_str:0000000000001e22 .LASF1935
     /tmp/ccghGiGC.s:96173  .debug_str:000000000001b912 .LASF1936
     /tmp/ccghGiGC.s:105893  .debug_str:0000000000043a14 .LASF1937
     /tmp/ccghGiGC.s:99291  .debug_str:0000000000028880 .LASF1938
     /tmp/ccghGiGC.s:96919  .debug_str:000000000001ede2 .LASF1939
     /tmp/ccghGiGC.s:102015  .debug_str:00000000000338f8 .LASF1940
     /tmp/ccghGiGC.s:89971  .debug_str:000000000000270e .LASF1941
     /tmp/ccghGiGC.s:95859  .debug_str:000000000001a3c2 .LASF1942
     /tmp/ccghGiGC.s:105187  .debug_str:0000000000040565 .LASF1943
     /tmp/ccghGiGC.s:106825  .debug_str:000000000004763b .LASF1944
     /tmp/ccghGiGC.s:91341  .debug_str:000000000000828f .LASF1945
     /tmp/ccghGiGC.s:95633  .debug_str:00000000000193ec .LASF1946
     /tmp/ccghGiGC.s:95043  .debug_str:0000000000016e00 .LASF1947
     /tmp/ccghGiGC.s:106999  .debug_str:0000000000048251 .LASF1948
     /tmp/ccghGiGC.s:101861  .debug_str:0000000000032f43 .LASF1949
     /tmp/ccghGiGC.s:107489  .debug_str:000000000004a1cf .LASF1950
     /tmp/ccghGiGC.s:97715  .debug_str:0000000000022559 .LASF1951
     /tmp/ccghGiGC.s:102147  .debug_str:00000000000341c3 .LASF1952
     /tmp/ccghGiGC.s:91203  .debug_str:00000000000079fa .LASF1953
     /tmp/ccghGiGC.s:107403  .debug_str:0000000000049c1b .LASF1954
     /tmp/ccghGiGC.s:95561  .debug_str:0000000000018f12 .LASF1955
     /tmp/ccghGiGC.s:103143  .debug_str:0000000000038430 .LASF1956
     /tmp/ccghGiGC.s:106559  .debug_str:000000000004658f .LASF1957
     /tmp/ccghGiGC.s:97157  .debug_str:000000000001fe89 .LASF1958
     /tmp/ccghGiGC.s:99365  .debug_str:0000000000028dfe .LASF1959
     /tmp/ccghGiGC.s:95287  .debug_str:0000000000017eb8 .LASF1960
     /tmp/ccghGiGC.s:90447  .debug_str:00000000000046be .LASF1961
     /tmp/ccghGiGC.s:98461  .debug_str:00000000000255d0 .LASF1962
     /tmp/ccghGiGC.s:90401  .debug_str:000000000000440d .LASF1963
     /tmp/ccghGiGC.s:104891  .debug_str:000000000003f2e8 .LASF1964
     /tmp/ccghGiGC.s:91505  .debug_str:0000000000008de1 .LASF1965
     /tmp/ccghGiGC.s:107619  .debug_str:000000000004a9e2 .LASF1966
     /tmp/ccghGiGC.s:102337  .debug_str:0000000000034ecf .LASF1967
     /tmp/ccghGiGC.s:107983  .debug_str:000000000004c38e .LASF1968
     /tmp/ccghGiGC.s:97917  .debug_str:0000000000023207 .LASF1969
     /tmp/ccghGiGC.s:96001  .debug_str:000000000001ae2e .LASF1970
     /tmp/ccghGiGC.s:108471  .debug_str:000000000004e5fd .LASF1971
     /tmp/ccghGiGC.s:93073  .debug_str:000000000000f356 .LASF1972
     /tmp/ccghGiGC.s:104899  .debug_str:000000000003f38b .LASF1973
     /tmp/ccghGiGC.s:105653  .debug_str:0000000000042a08 .LASF1974
     /tmp/ccghGiGC.s:107007  .debug_str:00000000000482b3 .LASF1975
     /tmp/ccghGiGC.s:98615  .debug_str:0000000000025e34 .LASF1976
     /tmp/ccghGiGC.s:100133  .debug_str:000000000002bef3 .LASF1977
     /tmp/ccghGiGC.s:106633  .debug_str:0000000000046989 .LASF1978
     /tmp/ccghGiGC.s:89429  .debug_str:00000000000000ad .LASF1979
     /tmp/ccghGiGC.s:97829  .debug_str:0000000000022c4e .LASF1980
     /tmp/ccghGiGC.s:99955  .debug_str:000000000002b41e .LASF1981
     /tmp/ccghGiGC.s:94495  .debug_str:0000000000014b58 .LASF1982
     /tmp/ccghGiGC.s:90739  .debug_str:0000000000005a55 .LASF1983
     /tmp/ccghGiGC.s:104525  .debug_str:000000000003da03 .LASF1984
     /tmp/ccghGiGC.s:99011  .debug_str:0000000000027580 .LASF1985
     /tmp/ccghGiGC.s:92135  .debug_str:000000000000b97c .LASF1986
     /tmp/ccghGiGC.s:100047  .debug_str:000000000002ba5a .LASF1987
     /tmp/ccghGiGC.s:100817  .debug_str:000000000002eaa7 .LASF1988
     /tmp/ccghGiGC.s:90843  .debug_str:00000000000060fd .LASF1989
     /tmp/ccghGiGC.s:95249  .debug_str:0000000000017bff .LASF1990
     /tmp/ccghGiGC.s:92037  .debug_str:000000000000b263 .LASF1991
     /tmp/ccghGiGC.s:105837  .debug_str:0000000000043646 .LASF1992
     /tmp/ccghGiGC.s:103967  .debug_str:000000000003b43e .LASF1993
     /tmp/ccghGiGC.s:98071  .debug_str:0000000000023d14 .LASF1994
     /tmp/ccghGiGC.s:96739  .debug_str:000000000001e169 .LASF1995
     /tmp/ccghGiGC.s:108097  .debug_str:000000000004cb33 .LASF1996
     /tmp/ccghGiGC.s:108263  .debug_str:000000000004d64b .LASF1997
     /tmp/ccghGiGC.s:98227  .debug_str:0000000000024784 .LASF1998
     /tmp/ccghGiGC.s:93747  .debug_str:0000000000011a0b .LASF1999
     /tmp/ccghGiGC.s:103255  .debug_str:0000000000038abb .LASF2000
     /tmp/ccghGiGC.s:97191  .debug_str:0000000000020195 .LASF2001
     /tmp/ccghGiGC.s:104143  .debug_str:000000000003c062 .LASF2002
     /tmp/ccghGiGC.s:96639  .debug_str:000000000001da1d .LASF2003
     /tmp/ccghGiGC.s:93523  .debug_str:0000000000010c80 .LASF2004
     /tmp/ccghGiGC.s:90933  .debug_str:0000000000006714 .LASF2005
     /tmp/ccghGiGC.s:101459  .debug_str:0000000000031425 .LASF2006
     /tmp/ccghGiGC.s:94633  .debug_str:0000000000015380 .LASF2007
     /tmp/ccghGiGC.s:108053  .debug_str:000000000004c801 .LASF2008
     /tmp/ccghGiGC.s:96691  .debug_str:000000000001de43 .LASF2009
     /tmp/ccghGiGC.s:93573  .debug_str:0000000000010ff4 .LASF2010
     /tmp/ccghGiGC.s:106323  .debug_str:00000000000455b4 .LASF2011
     /tmp/ccghGiGC.s:100431  .debug_str:000000000002d1de .LASF2012
     /tmp/ccghGiGC.s:101405  .debug_str:00000000000310f5 .LASF2013
     /tmp/ccghGiGC.s:90309  .debug_str:0000000000003d59 .LASF2014
     /tmp/ccghGiGC.s:90077  .debug_str:0000000000002e0d .LASF2015
     /tmp/ccghGiGC.s:91985  .debug_str:000000000000aeec .LASF2016
     /tmp/ccghGiGC.s:104785  .debug_str:000000000003ecaa .LASF2017
     /tmp/ccghGiGC.s:101667  .debug_str:0000000000032112 .LASF2018
     /tmp/ccghGiGC.s:92131  .debug_str:000000000000b945 .LASF2019
     /tmp/ccghGiGC.s:105005  .debug_str:000000000003fa35 .LASF2020
     /tmp/ccghGiGC.s:89599  .debug_str:0000000000000c50 .LASF2021
     /tmp/ccghGiGC.s:92927  .debug_str:000000000000eb10 .LASF2022
     /tmp/ccghGiGC.s:89927  .debug_str:0000000000002423 .LASF2023
     /tmp/ccghGiGC.s:96903  .debug_str:000000000001ec9e .LASF2024
     /tmp/ccghGiGC.s:104655  .debug_str:000000000003e40c .LASF2025
     /tmp/ccghGiGC.s:106437  .debug_str:0000000000045d82 .LASF2026
     /tmp/ccghGiGC.s:103889  .debug_str:000000000003af28 .LASF2027
     /tmp/ccghGiGC.s:107695  .debug_str:000000000004af6c .LASF2028
     /tmp/ccghGiGC.s:98993  .debug_str:00000000000274a6 .LASF2029
     /tmp/ccghGiGC.s:96655  .debug_str:000000000001db22 .LASF2030
     /tmp/ccghGiGC.s:90673  .debug_str:000000000000559f .LASF2031
     /tmp/ccghGiGC.s:105297  .debug_str:0000000000040ced .LASF2032
     /tmp/ccghGiGC.s:105423  .debug_str:00000000000417a9 .LASF2033
     /tmp/ccghGiGC.s:95339  .debug_str:000000000001819b .LASF2034
     /tmp/ccghGiGC.s:107949  .debug_str:000000000004c172 .LASF2035
     /tmp/ccghGiGC.s:94291  .debug_str:0000000000013e8d .LASF2036
     /tmp/ccghGiGC.s:103253  .debug_str:0000000000038aa0 .LASF2037
     /tmp/ccghGiGC.s:108747  .debug_str:000000000004f830 .LASF2038
     /tmp/ccghGiGC.s:106249  .debug_str:0000000000045158 .LASF2039
     /tmp/ccghGiGC.s:108163  .debug_str:000000000004d02f .LASF2040
     /tmp/ccghGiGC.s:97465  .debug_str:00000000000213eb .LASF2041
     /tmp/ccghGiGC.s:89621  .debug_str:0000000000000daf .LASF2042
     /tmp/ccghGiGC.s:103525  .debug_str:00000000000398ca .LASF2043
     /tmp/ccghGiGC.s:96641  .debug_str:000000000001da46 .LASF2044
     /tmp/ccghGiGC.s:107443  .debug_str:0000000000049f32 .LASF2045
     /tmp/ccghGiGC.s:91725  .debug_str:0000000000009db0 .LASF2046
     /tmp/ccghGiGC.s:97523  .debug_str:00000000000217e5 .LASF2047
     /tmp/ccghGiGC.s:98759  .debug_str:00000000000265f1 .LASF2048
     /tmp/ccghGiGC.s:98895  .debug_str:0000000000026ed8 .LASF2049
     /tmp/ccghGiGC.s:93955  .debug_str:00000000000127b6 .LASF2050
     /tmp/ccghGiGC.s:108385  .debug_str:000000000004e04f .LASF2051
     /tmp/ccghGiGC.s:103039  .debug_str:0000000000037d56 .LASF2052
     /tmp/ccghGiGC.s:92697  .debug_str:000000000000de0b .LASF2053
     /tmp/ccghGiGC.s:91589  .debug_str:0000000000009384 .LASF2054
     /tmp/ccghGiGC.s:102569  .debug_str:0000000000035f13 .LASF2055
     /tmp/ccghGiGC.s:105613  .debug_str:00000000000426f5 .LASF2056
     /tmp/ccghGiGC.s:103627  .debug_str:0000000000039ded .LASF2057
     /tmp/ccghGiGC.s:100939  .debug_str:000000000002f201 .LASF2058
     /tmp/ccghGiGC.s:93703  .debug_str:0000000000011714 .LASF2059
     /tmp/ccghGiGC.s:97283  .debug_str:000000000002082f .LASF2060
     /tmp/ccghGiGC.s:101297  .debug_str:00000000000309f4 .LASF2061
     /tmp/ccghGiGC.s:97441  .debug_str:000000000002124f .LASF2062
     /tmp/ccghGiGC.s:91175  .debug_str:00000000000077df .LASF2063
     /tmp/ccghGiGC.s:95173  .debug_str:000000000001763a .LASF2064
     /tmp/ccghGiGC.s:102291  .debug_str:0000000000034aac .LASF2065
     /tmp/ccghGiGC.s:90181  .debug_str:0000000000003538 .LASF2066
     /tmp/ccghGiGC.s:104643  .debug_str:000000000003e30c .LASF2067
     /tmp/ccghGiGC.s:90655  .debug_str:0000000000005469 .LASF2068
     /tmp/ccghGiGC.s:90971  .debug_str:000000000000695e .LASF2069
     /tmp/ccghGiGC.s:102845  .debug_str:0000000000037130 .LASF2070
     /tmp/ccghGiGC.s:99945  .debug_str:000000000002b3b4 .LASF2071
     /tmp/ccghGiGC.s:105633  .debug_str:00000000000428d6 .LASF2072
     /tmp/ccghGiGC.s:106369  .debug_str:0000000000045911 .LASF2073
     /tmp/ccghGiGC.s:104357  .debug_str:000000000003cf72 .LASF2074
     /tmp/ccghGiGC.s:94923  .debug_str:00000000000165cd .LASF2075
     /tmp/ccghGiGC.s:98081  .debug_str:0000000000023d8a .LASF2076
     /tmp/ccghGiGC.s:90809  .debug_str:0000000000005efd .LASF2077
     /tmp/ccghGiGC.s:108041  .debug_str:000000000004c768 .LASF2078
     /tmp/ccghGiGC.s:96555  .debug_str:000000000001d44a .LASF2079
     /tmp/ccghGiGC.s:101337  .debug_str:0000000000030c95 .LASF2080
     /tmp/ccghGiGC.s:108143  .debug_str:000000000004cec0 .LASF2081
     /tmp/ccghGiGC.s:107171  .debug_str:0000000000048cf8 .LASF2082
     /tmp/ccghGiGC.s:100673  .debug_str:000000000002e0fe .LASF2083
     /tmp/ccghGiGC.s:103893  .debug_str:000000000003af78 .LASF2084
     /tmp/ccghGiGC.s:100393  .debug_str:000000000002cfcc .LASF2085
     /tmp/ccghGiGC.s:104203  .debug_str:000000000003c514 .LASF2086
     /tmp/ccghGiGC.s:105905  .debug_str:0000000000043ad6 .LASF2087
     /tmp/ccghGiGC.s:108677  .debug_str:000000000004f388 .LASF2088
     /tmp/ccghGiGC.s:91967  .debug_str:000000000000ad35 .LASF2089
     /tmp/ccghGiGC.s:105163  .debug_str:00000000000403e0 .LASF2090
     /tmp/ccghGiGC.s:98185  .debug_str:000000000002449b .LASF2091
     /tmp/ccghGiGC.s:103991  .debug_str:000000000003b5f0 .LASF2092
     /tmp/ccghGiGC.s:107685  .debug_str:000000000004aeb8 .LASF2093
     /tmp/ccghGiGC.s:91643  .debug_str:000000000000976e .LASF2094
     /tmp/ccghGiGC.s:102395  .debug_str:0000000000035207 .LASF2095
     /tmp/ccghGiGC.s:106275  .debug_str:00000000000452f0 .LASF2096
     /tmp/ccghGiGC.s:92229  .debug_str:000000000000c05a .LASF2097
     /tmp/ccghGiGC.s:93867  .debug_str:0000000000012264 .LASF2098
     /tmp/ccghGiGC.s:93693  .debug_str:0000000000011669 .LASF2099
     /tmp/ccghGiGC.s:108383  .debug_str:000000000004e02d .LASF2100
     /tmp/ccghGiGC.s:103305  .debug_str:0000000000038d06 .LASF2101
     /tmp/ccghGiGC.s:91515  .debug_str:0000000000008e94 .LASF2102
     /tmp/ccghGiGC.s:107131  .debug_str:0000000000048acf .LASF2103
     /tmp/ccghGiGC.s:106301  .debug_str:0000000000045437 .LASF2104
     /tmp/ccghGiGC.s:97159  .debug_str:000000000001feb2 .LASF2105
     /tmp/ccghGiGC.s:104721  .debug_str:000000000003e81a .LASF2106
     /tmp/ccghGiGC.s:104519  .debug_str:000000000003d9b1 .LASF2107
     /tmp/ccghGiGC.s:100027  .debug_str:000000000002b8eb .LASF2108
     /tmp/ccghGiGC.s:94507  .debug_str:0000000000014c03 .LASF2109
     /tmp/ccghGiGC.s:92283  .debug_str:000000000000c3d7 .LASF2110
     /tmp/ccghGiGC.s:96069  .debug_str:000000000001b2b7 .LASF2111
     /tmp/ccghGiGC.s:106895  .debug_str:0000000000047add .LASF2112
     /tmp/ccghGiGC.s:105565  .debug_str:00000000000423a5 .LASF2113
     /tmp/ccghGiGC.s:90089  .debug_str:0000000000002ece .LASF2114
     /tmp/ccghGiGC.s:89941  .debug_str:0000000000002515 .LASF2115
     /tmp/ccghGiGC.s:104791  .debug_str:000000000003ed36 .LASF2116
     /tmp/ccghGiGC.s:99533  .debug_str:00000000000298aa .LASF2117
     /tmp/ccghGiGC.s:102365  .debug_str:000000000003504b .LASF2118
     /tmp/ccghGiGC.s:105359  .debug_str:0000000000041255 .LASF2119
     /tmp/ccghGiGC.s:95503  .debug_str:0000000000018b6e .LASF2120
     /tmp/ccghGiGC.s:104221  .debug_str:000000000003c687 .LASF2121
     /tmp/ccghGiGC.s:99567  .debug_str:0000000000029b59 .LASF2122
     /tmp/ccghGiGC.s:99151  .debug_str:0000000000027f71 .LASF2123
     /tmp/ccghGiGC.s:104409  .debug_str:000000000003d285 .LASF2124
     /tmp/ccghGiGC.s:97999  .debug_str:0000000000023851 .LASF2125
     /tmp/ccghGiGC.s:100833  .debug_str:000000000002eb7a .LASF2126
     /tmp/ccghGiGC.s:104677  .debug_str:000000000003e555 .LASF2127
     /tmp/ccghGiGC.s:95493  .debug_str:0000000000018aa9 .LASF2128
     /tmp/ccghGiGC.s:102305  .debug_str:0000000000034ba4 .LASF2129
     /tmp/ccghGiGC.s:105955  .debug_str:0000000000043de8 .LASF2130
     /tmp/ccghGiGC.s:104273  .debug_str:000000000003ca5a .LASF2131
     /tmp/ccghGiGC.s:95791  .debug_str:0000000000019f45 .LASF2132
     /tmp/ccghGiGC.s:102033  .debug_str:0000000000033a70 .LASF2133
     /tmp/ccghGiGC.s:89773  .debug_str:000000000000182b .LASF2134
     /tmp/ccghGiGC.s:91313  .debug_str:00000000000080b4 .LASF2135
     /tmp/ccghGiGC.s:98589  .debug_str:0000000000025c48 .LASF2136
     /tmp/ccghGiGC.s:99137  .debug_str:0000000000027e82 .LASF2137
     /tmp/ccghGiGC.s:107567  .debug_str:000000000004a61b .LASF2138
     /tmp/ccghGiGC.s:97333  .debug_str:0000000000020bad .LASF2139
     /tmp/ccghGiGC.s:93977  .debug_str:00000000000128f4 .LASF2140
     /tmp/ccghGiGC.s:89593  .debug_str:0000000000000beb .LASF2141
     /tmp/ccghGiGC.s:102987  .debug_str:0000000000037a6d .LASF2142
     /tmp/ccghGiGC.s:107763  .debug_str:000000000004b4a6 .LASF2143
     /tmp/ccghGiGC.s:97813  .debug_str:0000000000022b33 .LASF2144
     /tmp/ccghGiGC.s:103527  .debug_str:00000000000398f2 .LASF2145
     /tmp/ccghGiGC.s:108377  .debug_str:000000000004df9d .LASF2146
     /tmp/ccghGiGC.s:101261  .debug_str:000000000003073c .LASF2147
     /tmp/ccghGiGC.s:102319  .debug_str:0000000000034d00 .LASF2148
     /tmp/ccghGiGC.s:99121  .debug_str:0000000000027d37 .LASF2149
     /tmp/ccghGiGC.s:96211  .debug_str:000000000001bbb8 .LASF2150
     /tmp/ccghGiGC.s:108175  .debug_str:000000000004d118 .LASF2151
     /tmp/ccghGiGC.s:105667  .debug_str:0000000000042b35 .LASF2152
     /tmp/ccghGiGC.s:100425  .debug_str:000000000002d165 .LASF2153
     /tmp/ccghGiGC.s:98703  .debug_str:0000000000026279 .LASF2154
     /tmp/ccghGiGC.s:96343  .debug_str:000000000001c565 .LASF2155
     /tmp/ccghGiGC.s:104197  .debug_str:000000000003c49e .LASF2156
     /tmp/ccghGiGC.s:92391  .debug_str:000000000000caac .LASF2157
     /tmp/ccghGiGC.s:91521  .debug_str:0000000000008f02 .LASF2158
     /tmp/ccghGiGC.s:102523  .debug_str:0000000000035bba .LASF2159
     /tmp/ccghGiGC.s:108179  .debug_str:000000000004d173 .LASF2160
     /tmp/ccghGiGC.s:105671  .debug_str:0000000000042bb1 .LASF2161
     /tmp/ccghGiGC.s:108751  .debug_str:000000000004f891 .LASF2162
     /tmp/ccghGiGC.s:98181  .debug_str:0000000000024449 .LASF2163
     /tmp/ccghGiGC.s:105477  .debug_str:0000000000041afb .LASF2164
     /tmp/ccghGiGC.s:96267  .debug_str:000000000001bfdb .LASF2165
     /tmp/ccghGiGC.s:93077  .debug_str:000000000000f396 .LASF2166
     /tmp/ccghGiGC.s:99755  .debug_str:000000000002a7c6 .LASF2167
     /tmp/ccghGiGC.s:89963  .debug_str:0000000000002645 .LASF2168
     /tmp/ccghGiGC.s:90855  .debug_str:00000000000061e2 .LASF2169
     /tmp/ccghGiGC.s:90671  .debug_str:0000000000005575 .LASF2170
     /tmp/ccghGiGC.s:101677  .debug_str:00000000000321d2 .LASF2171
     /tmp/ccghGiGC.s:98793  .debug_str:00000000000267ec .LASF2172
     /tmp/ccghGiGC.s:108453  .debug_str:000000000004e4c1 .LASF2173
     /tmp/ccghGiGC.s:101483  .debug_str:00000000000315d0 .LASF2174
     /tmp/ccghGiGC.s:93495  .debug_str:0000000000010b46 .LASF2175
     /tmp/ccghGiGC.s:89505  .debug_str:0000000000000663 .LASF2176
     /tmp/ccghGiGC.s:97011  .debug_str:000000000001f446 .LASF2177
     /tmp/ccghGiGC.s:95801  .debug_str:0000000000019fa8 .LASF2178
     /tmp/ccghGiGC.s:108625  .debug_str:000000000004f03e .LASF2179
     /tmp/ccghGiGC.s:100029  .debug_str:000000000002b90c .LASF2180
     /tmp/ccghGiGC.s:89439  .debug_str:0000000000000154 .LASF2181
     /tmp/ccghGiGC.s:104949  .debug_str:000000000003f69e .LASF2182
     /tmp/ccghGiGC.s:108123  .debug_str:000000000004cd01 .LASF2183
     /tmp/ccghGiGC.s:96861  .debug_str:000000000001e9b1 .LASF2184
     /tmp/ccghGiGC.s:102187  .debug_str:0000000000034410 .LASF2185
     /tmp/ccghGiGC.s:107615  .debug_str:000000000004a971 .LASF2186
     /tmp/ccghGiGC.s:100309  .debug_str:000000000002ca08 .LASF2187
     /tmp/ccghGiGC.s:95599  .debug_str:00000000000191d2 .LASF2188
     /tmp/ccghGiGC.s:96281  .debug_str:000000000001c126 .LASF2189
     /tmp/ccghGiGC.s:104181  .debug_str:000000000003c342 .LASF2190
     /tmp/ccghGiGC.s:91209  .debug_str:0000000000007a51 .LASF2191
     /tmp/ccghGiGC.s:101867  .debug_str:0000000000032fac .LASF2192
     /tmp/ccghGiGC.s:105733  .debug_str:0000000000042f04 .LASF2193
     /tmp/ccghGiGC.s:92221  .debug_str:000000000000c009 .LASF2194
     /tmp/ccghGiGC.s:90777  .debug_str:0000000000005cc6 .LASF2195
     /tmp/ccghGiGC.s:105049  .debug_str:000000000003fd13 .LASF2196
     /tmp/ccghGiGC.s:104223  .debug_str:000000000003c6ab .LASF2197
     /tmp/ccghGiGC.s:101129  .debug_str:000000000002ff08 .LASF2198
     /tmp/ccghGiGC.s:91265  .debug_str:0000000000007de1 .LASF2199
     /tmp/ccghGiGC.s:102719  .debug_str:0000000000036924 .LASF2200
     /tmp/ccghGiGC.s:106495  .debug_str:0000000000046136 .LASF2201
     /tmp/ccghGiGC.s:90223  .debug_str:000000000000372c .LASF2202
     /tmp/ccghGiGC.s:104423  .debug_str:000000000003d376 .LASF2203
     /tmp/ccghGiGC.s:103701  .debug_str:000000000003a1c1 .LASF2204
     /tmp/ccghGiGC.s:102381  .debug_str:0000000000035122 .LASF2205
     /tmp/ccghGiGC.s:97473  .debug_str:0000000000021487 .LASF2206
     /tmp/ccghGiGC.s:102907  .debug_str:00000000000375c5 .LASF2207
     /tmp/ccghGiGC.s:94905  .debug_str:000000000001645a .LASF2208
     /tmp/ccghGiGC.s:94979  .debug_str:0000000000016992 .LASF2209
     /tmp/ccghGiGC.s:105969  .debug_str:0000000000043eca .LASF2210
     /tmp/ccghGiGC.s:91109  .debug_str:00000000000073d4 .LASF2211
     /tmp/ccghGiGC.s:94111  .debug_str:0000000000013278 .LASF2212
     /tmp/ccghGiGC.s:90485  .debug_str:000000000000496b .LASF2213
     /tmp/ccghGiGC.s:100587  .debug_str:000000000002db1d .LASF2214
     /tmp/ccghGiGC.s:95923  .debug_str:000000000001a841 .LASF2215
     /tmp/ccghGiGC.s:106335  .debug_str:0000000000045675 .LASF2216
     /tmp/ccghGiGC.s:102715  .debug_str:00000000000368fc .LASF2217
     /tmp/ccghGiGC.s:91449  .debug_str:0000000000008a7d .LASF2218
     /tmp/ccghGiGC.s:98849  .debug_str:0000000000026be2 .LASF2219
     /tmp/ccghGiGC.s:93839  .debug_str:0000000000012031 .LASF2220
     /tmp/ccghGiGC.s:91547  .debug_str:0000000000009107 .LASF2221
     /tmp/ccghGiGC.s:105083  .debug_str:000000000003ff1f .LASF2222
     /tmp/ccghGiGC.s:96543  .debug_str:000000000001d37e .LASF2223
     /tmp/ccghGiGC.s:96837  .debug_str:000000000001e842 .LASF2224
     /tmp/ccghGiGC.s:107021  .debug_str:000000000004838c .LASF2225
     /tmp/ccghGiGC.s:97439  .debug_str:000000000002122b .LASF2226
     /tmp/ccghGiGC.s:89453  .debug_str:000000000000027d .LASF2227
     /tmp/ccghGiGC.s:105949  .debug_str:0000000000043d81 .LASF2228
     /tmp/ccghGiGC.s:105367  .debug_str:00000000000412de .LASF2229
     /tmp/ccghGiGC.s:95961  .debug_str:000000000001ab41 .LASF2230
     /tmp/ccghGiGC.s:97049  .debug_str:000000000001f728 .LASF2231
     /tmp/ccghGiGC.s:98083  .debug_str:0000000000023db2 .LASF2232
     /tmp/ccghGiGC.s:98095  .debug_str:0000000000023e80 .LASF2233
     /tmp/ccghGiGC.s:99183  .debug_str:000000000002816a .LASF2234
     /tmp/ccghGiGC.s:101015  .debug_str:000000000002f7bd .LASF2235
     /tmp/ccghGiGC.s:92293  .debug_str:000000000000c454 .LASF2236
     /tmp/ccghGiGC.s:99537  .debug_str:0000000000029900 .LASF2237
     /tmp/ccghGiGC.s:94573  .debug_str:0000000000014f82 .LASF2238
     /tmp/ccghGiGC.s:100647  .debug_str:000000000002df34 .LASF2239
     /tmp/ccghGiGC.s:98255  .debug_str:00000000000249aa .LASF2240
     /tmp/ccghGiGC.s:108227  .debug_str:000000000004d436 .LASF2241
     /tmp/ccghGiGC.s:100497  .debug_str:000000000002d5c1 .LASF2242
     /tmp/ccghGiGC.s:107245  .debug_str:00000000000491de .LASF2243
     /tmp/ccghGiGC.s:104715  .debug_str:000000000003e7b6 .LASF2244
     /tmp/ccghGiGC.s:95027  .debug_str:0000000000016d0c .LASF2245
     /tmp/ccghGiGC.s:91881  .debug_str:000000000000a7d6 .LASF2246
     /tmp/ccghGiGC.s:91005  .debug_str:0000000000006c03 .LASF2247
     /tmp/ccghGiGC.s:98153  .debug_str:0000000000024237 .LASF2248
     /tmp/ccghGiGC.s:106681  .debug_str:0000000000046c79 .LASF2249
     /tmp/ccghGiGC.s:104563  .debug_str:000000000003dd14 .LASF2250
     /tmp/ccghGiGC.s:102727  .debug_str:000000000003698d .LASF2251
     /tmp/ccghGiGC.s:91267  .debug_str:0000000000007e0d .LASF2252
     /tmp/ccghGiGC.s:101915  .debug_str:0000000000033256 .LASF2253
     /tmp/ccghGiGC.s:97581  .debug_str:0000000000021c03 .LASF2254
     /tmp/ccghGiGC.s:104971  .debug_str:000000000003f7e3 .LASF2255
     /tmp/ccghGiGC.s:95865  .debug_str:000000000001a431 .LASF2256
     /tmp/ccghGiGC.s:98753  .debug_str:0000000000026592 .LASF2257
     /tmp/ccghGiGC.s:94359  .debug_str:000000000001427b .LASF2258
     /tmp/ccghGiGC.s:107865  .debug_str:000000000004bb78 .LASF2259
     /tmp/ccghGiGC.s:93559  .debug_str:0000000000010ecd .LASF2260
     /tmp/ccghGiGC.s:107645  .debug_str:000000000004abf7 .LASF2261
     /tmp/ccghGiGC.s:92195  .debug_str:000000000000be1c .LASF2262
     /tmp/ccghGiGC.s:99499  .debug_str:000000000002975c .LASF2263
     /tmp/ccghGiGC.s:90753  .debug_str:0000000000005b3c .LASF2264
     /tmp/ccghGiGC.s:89687  .debug_str:0000000000001229 .LASF2265
     /tmp/ccghGiGC.s:92583  .debug_str:000000000000d7ec .LASF2266
     /tmp/ccghGiGC.s:95877  .debug_str:000000000001a4f7 .LASF2267
     /tmp/ccghGiGC.s:108325  .debug_str:000000000004db1b .LASF2268
     /tmp/ccghGiGC.s:94057  .debug_str:0000000000012ea5 .LASF2269
     /tmp/ccghGiGC.s:104233  .debug_str:000000000003c78c .LASF2270
     /tmp/ccghGiGC.s:108427  .debug_str:000000000004e333 .LASF2271
     /tmp/ccghGiGC.s:100575  .debug_str:000000000002da63 .LASF2272
     /tmp/ccghGiGC.s:95217  .debug_str:000000000001799e .LASF2273
     /tmp/ccghGiGC.s:96499  .debug_str:000000000001d0fd .LASF2274
     /tmp/ccghGiGC.s:101489  .debug_str:0000000000031628 .LASF2275
     /tmp/ccghGiGC.s:106361  .debug_str:0000000000045808 .LASF2276
     /tmp/ccghGiGC.s:108905  .debug_str:0000000000050336 .LASF2277
     /tmp/ccghGiGC.s:100175  .debug_str:000000000002c216 .LASF2278
     /tmp/ccghGiGC.s:106885  .debug_str:0000000000047a51 .LASF2279
     /tmp/ccghGiGC.s:93833  .debug_str:0000000000011fce .LASF2280
     /tmp/ccghGiGC.s:106145  .debug_str:0000000000044a35 .LASF2281
     /tmp/ccghGiGC.s:107067  .debug_str:000000000004865e .LASF2282
     /tmp/ccghGiGC.s:107181  .debug_str:0000000000048d8b .LASF2283
     /tmp/ccghGiGC.s:100915  .debug_str:000000000002f0e1 .LASF2284
     /tmp/ccghGiGC.s:103423  .debug_str:000000000003936f .LASF2285
     /tmp/ccghGiGC.s:92961  .debug_str:000000000000ed86 .LASF2286
     /tmp/ccghGiGC.s:92601  .debug_str:000000000000d8e0 .LASF2287
     /tmp/ccghGiGC.s:102871  .debug_str:00000000000372fb .LASF2288
     /tmp/ccghGiGC.s:97925  .debug_str:0000000000023287 .LASF2289
     /tmp/ccghGiGC.s:93019  .debug_str:000000000000ef69 .LASF2290
     /tmp/ccghGiGC.s:102709  .debug_str:000000000003688b .LASF2291
     /tmp/ccghGiGC.s:95285  .debug_str:0000000000017e90 .LASF2292
     /tmp/ccghGiGC.s:108673  .debug_str:000000000004f34e .LASF2293
     /tmp/ccghGiGC.s:93091  .debug_str:000000000000f3ea .LASF2294
     /tmp/ccghGiGC.s:94559  .debug_str:0000000000014ea2 .LASF2295
     /tmp/ccghGiGC.s:91847  .debug_str:000000000000a4dd .LASF2296
     /tmp/ccghGiGC.s:90015  .debug_str:00000000000029fc .LASF2297
     /tmp/ccghGiGC.s:104345  .debug_str:000000000003ce7c .LASF2298
     /tmp/ccghGiGC.s:100811  .debug_str:000000000002ea11 .LASF2299
     /tmp/ccghGiGC.s:95199  .debug_str:0000000000017850 .LASF2300
     /tmp/ccghGiGC.s:90749  .debug_str:0000000000005b12 .LASF2301
     /tmp/ccghGiGC.s:105827  .debug_str:0000000000043589 .LASF2302
     /tmp/ccghGiGC.s:90961  .debug_str:00000000000068ba .LASF2303
     /tmp/ccghGiGC.s:89717  .debug_str:0000000000001411 .LASF2304
     /tmp/ccghGiGC.s:104993  .debug_str:000000000003f93f .LASF2305
     /tmp/ccghGiGC.s:100239  .debug_str:000000000002c619 .LASF2306
     /tmp/ccghGiGC.s:101619  .debug_str:0000000000031e6d .LASF2307
     /tmp/ccghGiGC.s:98205  .debug_str:00000000000245f0 .LASF2308
     /tmp/ccghGiGC.s:100559  .debug_str:000000000002d960 .LASF2309
     /tmp/ccghGiGC.s:97109  .debug_str:000000000001fb85 .LASF2310
     /tmp/ccghGiGC.s:94807  .debug_str:0000000000015edb .LASF2311
     /tmp/ccghGiGC.s:108549  .debug_str:000000000004eb3c .LASF2312
     /tmp/ccghGiGC.s:93923  .debug_str:00000000000125c8 .LASF2313
     /tmp/ccghGiGC.s:94747  .debug_str:0000000000015a9f .LASF2314
     /tmp/ccghGiGC.s:106677  .debug_str:0000000000046c4e .LASF2315
     /tmp/ccghGiGC.s:98795  .debug_str:0000000000026818 .LASF2316
     /tmp/ccghGiGC.s:97861  .debug_str:0000000000022e58 .LASF2317
     /tmp/ccghGiGC.s:90221  .debug_str:0000000000003701 .LASF2318
     /tmp/ccghGiGC.s:108501  .debug_str:000000000004e84d .LASF2319
     /tmp/ccghGiGC.s:100773  .debug_str:000000000002e757 .LASF2320
     /tmp/ccghGiGC.s:99927  .debug_str:000000000002b2bc .LASF2321
     /tmp/ccghGiGC.s:91507  .debug_str:0000000000008e02 .LASF2322
     /tmp/ccghGiGC.s:108825  .debug_str:000000000004fddc .LASF2323
     /tmp/ccghGiGC.s:93751  .debug_str:0000000000011a60 .LASF2324
     /tmp/ccghGiGC.s:108735  .debug_str:000000000004f718 .LASF2325
     /tmp/ccghGiGC.s:102373  .debug_str:00000000000350ab .LASF2326
     /tmp/ccghGiGC.s:108533  .debug_str:000000000004ea71 .LASF2327
     /tmp/ccghGiGC.s:99035  .debug_str:0000000000027730 .LASF2328
     /tmp/ccghGiGC.s:99483  .debug_str:000000000002965e .LASF2329
     /tmp/ccghGiGC.s:96283  .debug_str:000000000001c14c .LASF2330
     /tmp/ccghGiGC.s:93103  .debug_str:000000000000f454 .LASF2331
     /tmp/ccghGiGC.s:89419  .debug_str:0000000000000000 .LASF2332
     /tmp/ccghGiGC.s:94151  .debug_str:00000000000135b3 .LASF2333
     /tmp/ccghGiGC.s:100191  .debug_str:000000000002c345 .LASF2334
     /tmp/ccghGiGC.s:104571  .debug_str:000000000003dd8d .LASF2335
     /tmp/ccghGiGC.s:107045  .debug_str:0000000000048546 .LASF2336
     /tmp/ccghGiGC.s:94547  .debug_str:0000000000014ddb .LASF2337
     /tmp/ccghGiGC.s:95375  .debug_str:00000000000183d9 .LASF2338
     /tmp/ccghGiGC.s:104215  .debug_str:000000000003c5f7 .LASF2339
     /tmp/ccghGiGC.s:93223  .debug_str:000000000000fc4d .LASF2340
     /tmp/ccghGiGC.s:93409  .debug_str:0000000000010692 .LASF2341
     /tmp/ccghGiGC.s:99457  .debug_str:00000000000294d5 .LASF2342
     /tmp/ccghGiGC.s:101461  .debug_str:0000000000031448 .LASF2343
     /tmp/ccghGiGC.s:97623  .debug_str:0000000000021f95 .LASF2344
     /tmp/ccghGiGC.s:94109  .debug_str:000000000001324e .LASF2345
     /tmp/ccghGiGC.s:108251  .debug_str:000000000004d597 .LASF2346
     /tmp/ccghGiGC.s:90717  .debug_str:00000000000058cd .LASF2347
     /tmp/ccghGiGC.s:93029  .debug_str:000000000000f01c .LASF2348
     /tmp/ccghGiGC.s:101253  .debug_str:000000000003069c .LASF2349
     /tmp/ccghGiGC.s:90715  .debug_str:00000000000058ab .LASF2350
     /tmp/ccghGiGC.s:91995  .debug_str:000000000000af66 .LASF2351
     /tmp/ccghGiGC.s:101287  .debug_str:0000000000030911 .LASF2352
     /tmp/ccghGiGC.s:93513  .debug_str:0000000000010bba .LASF2353
     /tmp/ccghGiGC.s:107075  .debug_str:00000000000486f3 .LASF2354
     /tmp/ccghGiGC.s:105259  .debug_str:0000000000040a17 .LASF2355
     /tmp/ccghGiGC.s:108479  .debug_str:000000000004e68d .LASF2356
     /tmp/ccghGiGC.s:90099  .debug_str:0000000000002f90 .LASF2357
     /tmp/ccghGiGC.s:99441  .debug_str:000000000002937d .LASF2358
     /tmp/ccghGiGC.s:89817  .debug_str:0000000000001beb .LASF2359
     /tmp/ccghGiGC.s:100565  .debug_str:000000000002d9cd .LASF2360
     /tmp/ccghGiGC.s:106409  .debug_str:0000000000045bc3 .LASF2361
     /tmp/ccghGiGC.s:106317  .debug_str:0000000000045538 .LASF2362
     /tmp/ccghGiGC.s:97595  .debug_str:0000000000021d29 .LASF2363
     /tmp/ccghGiGC.s:104393  .debug_str:000000000003d196 .LASF2364
     /tmp/ccghGiGC.s:98285  .debug_str:0000000000024b66 .LASF2365
     /tmp/ccghGiGC.s:94439  .debug_str:00000000000147aa .LASF2366
     /tmp/ccghGiGC.s:96341  .debug_str:000000000001c543 .LASF2367
     /tmp/ccghGiGC.s:107305  .debug_str:00000000000495c4 .LASF2368
     /tmp/ccghGiGC.s:90687  .debug_str:00000000000056a9 .LASF2369
     /tmp/ccghGiGC.s:93195  .debug_str:000000000000fa31 .LASF2370
     /tmp/ccghGiGC.s:92895  .debug_str:000000000000e9bb .LASF2371
     /tmp/ccghGiGC.s:91719  .debug_str:0000000000009d25 .LASF2372
     /tmp/ccghGiGC.s:103993  .debug_str:000000000003b611 .LASF2373
     /tmp/ccghGiGC.s:90529  .debug_str:0000000000004c90 .LASF2374
     /tmp/ccghGiGC.s:95229  .debug_str:0000000000017a83 .LASF2375
     /tmp/ccghGiGC.s:101627  .debug_str:0000000000031ed7 .LASF2376
     /tmp/ccghGiGC.s:105909  .debug_str:0000000000043b3c .LASF2377
     /tmp/ccghGiGC.s:92387  .debug_str:000000000000ca37 .LASF2378
     /tmp/ccghGiGC.s:97065  .debug_str:000000000001f87f .LASF2379
     /tmp/ccghGiGC.s:102947  .debug_str:00000000000377f0 .LASF2380
     /tmp/ccghGiGC.s:99917  .debug_str:000000000002b1f8 .LASF2381
     /tmp/ccghGiGC.s:90831  .debug_str:0000000000006030 .LASF2382
     /tmp/ccghGiGC.s:108361  .debug_str:000000000004de6a .LASF2383
     /tmp/ccghGiGC.s:103699  .debug_str:000000000003a19f .LASF2384
     /tmp/ccghGiGC.s:107673  .debug_str:000000000004ae21 .LASF2385
     /tmp/ccghGiGC.s:92083  .debug_str:000000000000b5f4 .LASF2386
     /tmp/ccghGiGC.s:103731  .debug_str:000000000003a432 .LASF2387
     /tmp/ccghGiGC.s:100729  .debug_str:000000000002e492 .LASF2388
     /tmp/ccghGiGC.s:102201  .debug_str:0000000000034514 .LASF2389
     /tmp/ccghGiGC.s:99337  .debug_str:0000000000028c10 .LASF2390
     /tmp/ccghGiGC.s:107173  .debug_str:0000000000048d1f .LASF2391
     /tmp/ccghGiGC.s:105397  .debug_str:00000000000415c0 .LASF2392
     /tmp/ccghGiGC.s:102069  .debug_str:0000000000033cbb .LASF2393
     /tmp/ccghGiGC.s:95483  .debug_str:0000000000018a4a .LASF2394
     /tmp/ccghGiGC.s:90423  .debug_str:00000000000045b3 .LASF2395
     /tmp/ccghGiGC.s:94427  .debug_str:00000000000146d9 .LASF2396
     /tmp/ccghGiGC.s:103831  .debug_str:000000000003ab19 .LASF2397
     /tmp/ccghGiGC.s:92859  .debug_str:000000000000e834 .LASF2398
     /tmp/ccghGiGC.s:106385  .debug_str:0000000000045a2d .LASF2399
     /tmp/ccghGiGC.s:94129  .debug_str:0000000000013462 .LASF2400
     /tmp/ccghGiGC.s:101373  .debug_str:0000000000030eec .LASF2401
     /tmp/ccghGiGC.s:100945  .debug_str:000000000002f245 .LASF2402
     /tmp/ccghGiGC.s:95041  .debug_str:0000000000016ddc .LASF2403
     /tmp/ccghGiGC.s:101163  .debug_str:0000000000030150 .LASF2404
     /tmp/ccghGiGC.s:108287  .debug_str:000000000004d852 .LASF2405
     /tmp/ccghGiGC.s:98193  .debug_str:0000000000024531 .LASF2406
     /tmp/ccghGiGC.s:102137  .debug_str:000000000003410d .LASF2407
     /tmp/ccghGiGC.s:97497  .debug_str:00000000000215fe .LASF2408
     /tmp/ccghGiGC.s:95787  .debug_str:0000000000019edd .LASF2409
     /tmp/ccghGiGC.s:95981  .debug_str:000000000001acf1 .LASF2410
     /tmp/ccghGiGC.s:99865  .debug_str:000000000002ae24 .LASF2411
     /tmp/ccghGiGC.s:102093  .debug_str:0000000000033e6d .LASF2412
     /tmp/ccghGiGC.s:92063  .debug_str:000000000000b436 .LASF2413
     /tmp/ccghGiGC.s:104633  .debug_str:000000000003e22f .LASF2414
     /tmp/ccghGiGC.s:107087  .debug_str:00000000000487c4 .LASF2415
     /tmp/ccghGiGC.s:92729  .debug_str:000000000000dfd8 .LASF2416
     /tmp/ccghGiGC.s:101649  .debug_str:0000000000032004 .LASF2417
     /tmp/ccghGiGC.s:103587  .debug_str:0000000000039ba1 .LASF2418
     /tmp/ccghGiGC.s:92627  .debug_str:000000000000dad3 .LASF2419
     /tmp/ccghGiGC.s:94657  .debug_str:000000000001550c .LASF2420
     /tmp/ccghGiGC.s:103475  .debug_str:00000000000395a7 .LASF2421
     /tmp/ccghGiGC.s:107371  .debug_str:00000000000499db .LASF2422
     /tmp/ccghGiGC.s:95095  .debug_str:0000000000017135 .LASF2423
     /tmp/ccghGiGC.s:91619  .debug_str:0000000000009602 .LASF2424
     /tmp/ccghGiGC.s:99273  .debug_str:000000000002871d .LASF2425
     /tmp/ccghGiGC.s:101767  .debug_str:0000000000032899 .LASF2426
     /tmp/ccghGiGC.s:89473  .debug_str:00000000000003f9 .LASF2427
     /tmp/ccghGiGC.s:99377  .debug_str:0000000000028eca .LASF2428
     /tmp/ccghGiGC.s:94523  .debug_str:0000000000014c99 .LASF2429
     /tmp/ccghGiGC.s:98043  .debug_str:0000000000023b55 .LASF2430
     /tmp/ccghGiGC.s:90205  .debug_str:000000000000362a .LASF2431
     /tmp/ccghGiGC.s:103935  .debug_str:000000000003b24d .LASF2432
     /tmp/ccghGiGC.s:91093  .debug_str:00000000000072c1 .LASF2433
     /tmp/ccghGiGC.s:106765  .debug_str:00000000000472a3 .LASF2434
     /tmp/ccghGiGC.s:89567  .debug_str:0000000000000a5c .LASF2435
     /tmp/ccghGiGC.s:97937  .debug_str:000000000002333e .LASF2436
     /tmp/ccghGiGC.s:99683  .debug_str:000000000002a2d0 .LASF2437
     /tmp/ccghGiGC.s:92675  .debug_str:000000000000dd74 .LASF2438
     /tmp/ccghGiGC.s:90763  .debug_str:0000000000005c0f .LASF2439
     /tmp/ccghGiGC.s:104071  .debug_str:000000000003bb65 .LASF2440
     /tmp/ccghGiGC.s:108615  .debug_str:000000000004ef63 .LASF2441
     /tmp/ccghGiGC.s:96117  .debug_str:000000000001b585 .LASF2442
     /tmp/ccghGiGC.s:91571  .debug_str:00000000000092ae .LASF2443
     /tmp/ccghGiGC.s:105845  .debug_str:000000000004370a .LASF2444
     /tmp/ccghGiGC.s:104429  .debug_str:000000000003d3c4 .LASF2445
     /tmp/ccghGiGC.s:107315  .debug_str:00000000000496ab .LASF2446
     /tmp/ccghGiGC.s:93301  .debug_str:0000000000010157 .LASF2447
     /tmp/ccghGiGC.s:104111  .debug_str:000000000003be43 .LASF2448
     /tmp/ccghGiGC.s:104087  .debug_str:000000000003bc5a .LASF2449
     /tmp/ccghGiGC.s:103983  .debug_str:000000000003b54e .LASF2450
     /tmp/ccghGiGC.s:95165  .debug_str:00000000000175c6 .LASF2451
     /tmp/ccghGiGC.s:106059  .debug_str:0000000000044487 .LASF2452
     /tmp/ccghGiGC.s:106391  .debug_str:0000000000045a9e .LASF2453
     /tmp/ccghGiGC.s:96631  .debug_str:000000000001d97c .LASF2454
     /tmp/ccghGiGC.s:99563  .debug_str:0000000000029b1e .LASF2455
     /tmp/ccghGiGC.s:98151  .debug_str:000000000002421b .LASF2456
     /tmp/ccghGiGC.s:89751  .debug_str:0000000000001641 .LASF2457
     /tmp/ccghGiGC.s:102619  .debug_str:00000000000362a4 .LASF2458
     /tmp/ccghGiGC.s:102731  .debug_str:00000000000369f4 .LASF2459
     /tmp/ccghGiGC.s:97801  .debug_str:0000000000022a6d .LASF2460
     /tmp/ccghGiGC.s:103153  .debug_str:00000000000384c8 .LASF2461
     /tmp/ccghGiGC.s:90063  .debug_str:0000000000002d19 .LASF2462
     /tmp/ccghGiGC.s:96221  .debug_str:000000000001bca6 .LASF2463
     /tmp/ccghGiGC.s:100273  .debug_str:000000000002c7cd .LASF2464
     /tmp/ccghGiGC.s:106851  .debug_str:000000000004783c .LASF2465
     /tmp/ccghGiGC.s:91713  .debug_str:0000000000009cc0 .LASF2466
     /tmp/ccghGiGC.s:90103  .debug_str:0000000000002fd5 .LASF2467
     /tmp/ccghGiGC.s:102551  .debug_str:0000000000035d45 .LASF2468
     /tmp/ccghGiGC.s:108689  .debug_str:000000000004f46a .LASF2469
     /tmp/ccghGiGC.s:108763  .debug_str:000000000004f96a .LASF2470
     /tmp/ccghGiGC.s:102753  .debug_str:0000000000036b77 .LASF2471
     /tmp/ccghGiGC.s:107239  .debug_str:0000000000049164 .LASF2472
     /tmp/ccghGiGC.s:106901  .debug_str:0000000000047b3e .LASF2473
     /tmp/ccghGiGC.s:105459  .debug_str:0000000000041a03 .LASF2474
     /tmp/ccghGiGC.s:104025  .debug_str:000000000003b8b5 .LASF2475
     /tmp/ccghGiGC.s:95741  .debug_str:0000000000019baa .LASF2476
     /tmp/ccghGiGC.s:101679  .debug_str:0000000000032204 .LASF2477
     /tmp/ccghGiGC.s:106049  .debug_str:000000000004441f .LASF2478
     /tmp/ccghGiGC.s:89425  .debug_str:0000000000000085 .LASF2479
     /tmp/ccghGiGC.s:98851  .debug_str:0000000000026c0c .LASF2480
     /tmp/ccghGiGC.s:107761  .debug_str:000000000004b483 .LASF2481
     /tmp/ccghGiGC.s:98921  .debug_str:00000000000270c3 .LASF2482
     /tmp/ccghGiGC.s:98967  .debug_str:0000000000027386 .LASF2483
     /tmp/ccghGiGC.s:95899  .debug_str:000000000001a6dd .LASF2484
     /tmp/ccghGiGC.s:90081  .debug_str:0000000000002e31 .LASF2485
     /tmp/ccghGiGC.s:91925  .debug_str:000000000000aaae .LASF2486
     /tmp/ccghGiGC.s:101471  .debug_str:00000000000314ed .LASF2487
     /tmp/ccghGiGC.s:108769  .debug_str:000000000004f9e6 .LASF2488
     /tmp/ccghGiGC.s:107453  .debug_str:0000000000049fb5 .LASF2489
     /tmp/ccghGiGC.s:94687  .debug_str:00000000000156d6 .LASF2490
     /tmp/ccghGiGC.s:101769  .debug_str:00000000000328b4 .LASF2491
     /tmp/ccghGiGC.s:96373  .debug_str:000000000001c7e8 .LASF2492
     /tmp/ccghGiGC.s:95071  .debug_str:0000000000016fbc .LASF2493
     /tmp/ccghGiGC.s:94239  .debug_str:0000000000013b1f .LASF2494
     /tmp/ccghGiGC.s:106371  .debug_str:0000000000045939 .LASF2495
     /tmp/ccghGiGC.s:107647  .debug_str:000000000004ac1c .LASF2496
     /tmp/ccghGiGC.s:94089  .debug_str:00000000000130d8 .LASF2497
     /tmp/ccghGiGC.s:97453  .debug_str:000000000002132a .LASF2498
     /tmp/ccghGiGC.s:105511  .debug_str:0000000000041d3d .LASF2499
     /tmp/ccghGiGC.s:99721  .debug_str:000000000002a57f .LASF2500
     /tmp/ccghGiGC.s:108761  .debug_str:000000000004f949 .LASF2501
     /tmp/ccghGiGC.s:99455  .debug_str:00000000000294ac .LASF2502
     /tmp/ccghGiGC.s:106847  .debug_str:00000000000477f3 .LASF2503
     /tmp/ccghGiGC.s:93325  .debug_str:00000000000102bd .LASF2504
     /tmp/ccghGiGC.s:94843  .debug_str:0000000000016093 .LASF2505
     /tmp/ccghGiGC.s:103109  .debug_str:00000000000382bb .LASF2506
     /tmp/ccghGiGC.s:108855  .debug_str:000000000004ffc8 .LASF2507
     /tmp/ccghGiGC.s:89813  .debug_str:0000000000001bb3 .LASF2508
     /tmp/ccghGiGC.s:101859  .debug_str:0000000000032f24 .LASF2509
     /tmp/ccghGiGC.s:102385  .debug_str:0000000000035174 .LASF2510
     /tmp/ccghGiGC.s:108067  .debug_str:000000000004c91d .LASF2511
     /tmp/ccghGiGC.s:98611  .debug_str:0000000000025dd6 .LASF2512
     /tmp/ccghGiGC.s:99289  .debug_str:0000000000028861 .LASF2513
     /tmp/ccghGiGC.s:103727  .debug_str:000000000003a3d3 .LASF2514
     /tmp/ccghGiGC.s:106221  .debug_str:0000000000044fa0 .LASF2515
     /tmp/ccghGiGC.s:107313  .debug_str:0000000000049682 .LASF2516
     /tmp/ccghGiGC.s:94351  .debug_str:0000000000014204 .LASF2517
     /tmp/ccghGiGC.s:105535  .debug_str:0000000000042142 .LASF2518
     /tmp/ccghGiGC.s:92893  .debug_str:000000000000e98a .LASF2519
     /tmp/ccghGiGC.s:91749  .debug_str:0000000000009f53 .LASF2520
     /tmp/ccghGiGC.s:92443  .debug_str:000000000000cebb .LASF2521
     /tmp/ccghGiGC.s:107575  .debug_str:000000000004a6b6 .LASF2522
     /tmp/ccghGiGC.s:97433  .debug_str:00000000000211d1 .LASF2523
     /tmp/ccghGiGC.s:105013  .debug_str:000000000003faca .LASF2524
     /tmp/ccghGiGC.s:108219  .debug_str:000000000004d3d2 .LASF2525
     /tmp/ccghGiGC.s:95971  .debug_str:000000000001ac07 .LASF2526
     /tmp/ccghGiGC.s:99421  .debug_str:00000000000291ec .LASF2527
     /tmp/ccghGiGC.s:102889  .debug_str:000000000003741f .LASF2528
     /tmp/ccghGiGC.s:108415  .debug_str:000000000004e27a .LASF2529
     /tmp/ccghGiGC.s:97539  .debug_str:0000000000021931 .LASF2530
     /tmp/ccghGiGC.s:103325  .debug_str:0000000000038e68 .LASF2531
     /tmp/ccghGiGC.s:107883  .debug_str:000000000004bcdb .LASF2532
     /tmp/ccghGiGC.s:94575  .debug_str:0000000000014fa9 .LASF2533
     /tmp/ccghGiGC.s:98841  .debug_str:0000000000026b26 .LASF2534
     /tmp/ccghGiGC.s:105227  .debug_str:00000000000407a7 .LASF2535
     /tmp/ccghGiGC.s:89723  .debug_str:0000000000001485 .LASF2536
     /tmp/ccghGiGC.s:104239  .debug_str:000000000003c7c4 .LASF2537
     /tmp/ccghGiGC.s:97951  .debug_str:0000000000023424 .LASF2538
     /tmp/ccghGiGC.s:91081  .debug_str:00000000000071e3 .LASF2539
     /tmp/ccghGiGC.s:105509  .debug_str:0000000000041cfc .LASF2540
     /tmp/ccghGiGC.s:92481  .debug_str:000000000000d0e2 .LASF2541
     /tmp/ccghGiGC.s:99251  .debug_str:000000000002858e .LASF2542
     /tmp/ccghGiGC.s:100995  .debug_str:000000000002f62c .LASF2543
     /tmp/ccghGiGC.s:94829  .debug_str:0000000000015fdd .LASF2544
     /tmp/ccghGiGC.s:107309  .debug_str:0000000000049612 .LASF2545
     /tmp/ccghGiGC.s:108335  .debug_str:000000000004dbf1 .LASF2546
     /tmp/ccghGiGC.s:98327  .debug_str:0000000000024d52 .LASF2547
     /tmp/ccghGiGC.s:91049  .debug_str:0000000000006f4c .LASF2548
     /tmp/ccghGiGC.s:96263  .debug_str:000000000001bf88 .LASF2549
     /tmp/ccghGiGC.s:96345  .debug_str:000000000001c595 .LASF2550
     /tmp/ccghGiGC.s:107573  .debug_str:000000000004a677 .LASF2551
     /tmp/ccghGiGC.s:95497  .debug_str:0000000000018aef .LASF2552
     /tmp/ccghGiGC.s:97331  .debug_str:0000000000020b71 .LASF2553
     /tmp/ccghGiGC.s:89767  .debug_str:000000000000178c .LASF2554
     /tmp/ccghGiGC.s:98935  .debug_str:000000000002719a .LASF2555
     /tmp/ccghGiGC.s:99327  .debug_str:0000000000028b59 .LASF2556
     /tmp/ccghGiGC.s:94123  .debug_str:00000000000133bb .LASF2557
     /tmp/ccghGiGC.s:108807  .debug_str:000000000004fc99 .LASF2558
     /tmp/ccghGiGC.s:95945  .debug_str:000000000001a9ec .LASF2559
     /tmp/ccghGiGC.s:99285  .debug_str:0000000000028804 .LASF2560
     /tmp/ccghGiGC.s:100481  .debug_str:000000000002d4bc .LASF2561
     /tmp/ccghGiGC.s:98053  .debug_str:0000000000023bc9 .LASF2562
     /tmp/ccghGiGC.s:105651  .debug_str:00000000000429cf .LASF2563
     /tmp/ccghGiGC.s:103397  .debug_str:00000000000391d0 .LASF2564
     /tmp/ccghGiGC.s:100813  .debug_str:000000000002ea33 .LASF2565
     /tmp/ccghGiGC.s:93527  .debug_str:0000000000010caa .LASF2566
     /tmp/ccghGiGC.s:97711  .debug_str:0000000000022490 .LASF2567
     /tmp/ccghGiGC.s:95855  .debug_str:000000000001a35e .LASF2568
     /tmp/ccghGiGC.s:98905  .debug_str:0000000000026f9e .LASF2569
     /tmp/ccghGiGC.s:91849  .debug_str:000000000000a4fc .LASF2570
     /tmp/ccghGiGC.s:105221  .debug_str:0000000000040727 .LASF2571
     /tmp/ccghGiGC.s:94107  .debug_str:0000000000013209 .LASF2572
     /tmp/ccghGiGC.s:91065  .debug_str:00000000000070c6 .LASF2573
     /tmp/ccghGiGC.s:108759  .debug_str:000000000004f90a .LASF2574
     /tmp/ccghGiGC.s:98497  .debug_str:0000000000025766 .LASF2575
     /tmp/ccghGiGC.s:108459  .debug_str:000000000004e525 .LASF2576
     /tmp/ccghGiGC.s:92925  .debug_str:000000000000ead6 .LASF2577
     /tmp/ccghGiGC.s:90509  .debug_str:0000000000004b4d .LASF2578
     /tmp/ccghGiGC.s:91665  .debug_str:00000000000098ae .LASF2579
     /tmp/ccghGiGC.s:104441  .debug_str:000000000003d467 .LASF2580
     /tmp/ccghGiGC.s:93863  .debug_str:00000000000121eb .LASF2581
     /tmp/ccghGiGC.s:92045  .debug_str:000000000000b31e .LASF2582
     /tmp/ccghGiGC.s:106721  .debug_str:0000000000046f70 .LASF2583
     /tmp/ccghGiGC.s:93661  .debug_str:000000000001152a .LASF2584
     /tmp/ccghGiGC.s:91263  .debug_str:0000000000007d9e .LASF2585
     /tmp/ccghGiGC.s:104543  .debug_str:000000000003db2f .LASF2586
     /tmp/ccghGiGC.s:101817  .debug_str:0000000000032bff .LASF2587
     /tmp/ccghGiGC.s:95687  .debug_str:0000000000019805 .LASF2588
     /tmp/ccghGiGC.s:101455  .debug_str:00000000000313c5 .LASF2589
     /tmp/ccghGiGC.s:101651  .debug_str:0000000000032026 .LASF2590
     /tmp/ccghGiGC.s:108093  .debug_str:000000000004caeb .LASF2591
     /tmp/ccghGiGC.s:108605  .debug_str:000000000004ee88 .LASF2592
     /tmp/ccghGiGC.s:91815  .debug_str:000000000000a37a .LASF2593
     /tmp/ccghGiGC.s:95897  .debug_str:000000000001a6a5 .LASF2594
     /tmp/ccghGiGC.s:89915  .debug_str:0000000000002330 .LASF2595
     /tmp/ccghGiGC.s:91071  .debug_str:0000000000007136 .LASF2596
     /tmp/ccghGiGC.s:100453  .debug_str:000000000002d31a .LASF2597
     /tmp/ccghGiGC.s:90011  .debug_str:00000000000029a9 .LASF2598
     /tmp/ccghGiGC.s:108559  .debug_str:000000000004ebfc .LASF2599
     /tmp/ccghGiGC.s:103879  .debug_str:000000000003ae63 .LASF2600
     /tmp/ccghGiGC.s:90451  .debug_str:00000000000046f8 .LASF2601
     /tmp/ccghGiGC.s:106651  .debug_str:0000000000046ac4 .LASF2602
     /tmp/ccghGiGC.s:89897  .debug_str:00000000000021be .LASF2603
     /tmp/ccghGiGC.s:106963  .debug_str:0000000000047fae .LASF2604
     /tmp/ccghGiGC.s:97103  .debug_str:000000000001fb1f .LASF2605
     /tmp/ccghGiGC.s:99393  .debug_str:0000000000028fd6 .LASF2606
     /tmp/ccghGiGC.s:97211  .debug_str:00000000000202fd .LASF2607
     /tmp/ccghGiGC.s:104541  .debug_str:000000000003daf6 .LASF2608
     /tmp/ccghGiGC.s:104263  .debug_str:000000000003c991 .LASF2609
     /tmp/ccghGiGC.s:106047  .debug_str:00000000000443df .LASF2610
     /tmp/ccghGiGC.s:92023  .debug_str:000000000000b0fb .LASF2611
     /tmp/ccghGiGC.s:99125  .debug_str:0000000000027d7c .LASF2612
     /tmp/ccghGiGC.s:105383  .debug_str:0000000000041475 .LASF2613
     /tmp/ccghGiGC.s:89635  .debug_str:0000000000000e8e .LASF2614
     /tmp/ccghGiGC.s:100075  .debug_str:000000000002bc15 .LASF2615
     /tmp/ccghGiGC.s:104249  .debug_str:000000000003c866 .LASF2616
     /tmp/ccghGiGC.s:101907  .debug_str:00000000000331d1 .LASF2617
     /tmp/ccghGiGC.s:99433  .debug_str:00000000000292e2 .LASF2618
     /tmp/ccghGiGC.s:99757  .debug_str:000000000002a7f8 .LASF2619
     /tmp/ccghGiGC.s:102219  .debug_str:0000000000034618 .LASF2620
     /tmp/ccghGiGC.s:105425  .debug_str:00000000000417c4 .LASF2621
     /tmp/ccghGiGC.s:97349  .debug_str:0000000000020ce5 .LASF2622
     /tmp/ccghGiGC.s:101841  .debug_str:0000000000032d9a .LASF2623
     /tmp/ccghGiGC.s:92265  .debug_str:000000000000c2a4 .LASF2624
     /tmp/ccghGiGC.s:90603  .debug_str:000000000000515e .LASF2625
     /tmp/ccghGiGC.s:97245  .debug_str:0000000000020545 .LASF2626
     /tmp/ccghGiGC.s:101355  .debug_str:0000000000030dcb .LASF2627
     /tmp/ccghGiGC.s:93633  .debug_str:000000000001133a .LASF2628
     /tmp/ccghGiGC.s:101185  .debug_str:0000000000030297 .LASF2629
     /tmp/ccghGiGC.s:95221  .debug_str:0000000000017a02 .LASF2630
     /tmp/ccghGiGC.s:103081  .debug_str:0000000000038009 .LASF2631
     /tmp/ccghGiGC.s:108511  .debug_str:000000000004e912 .LASF2632
     /tmp/ccghGiGC.s:96873  .debug_str:000000000001eac8 .LASF2633
     /tmp/ccghGiGC.s:101113  .debug_str:000000000002fe02 .LASF2634
     /tmp/ccghGiGC.s:103815  .debug_str:000000000003a9c6 .LASF2635
     /tmp/ccghGiGC.s:99809  .debug_str:000000000002aacc .LASF2636
     /tmp/ccghGiGC.s:91031  .debug_str:0000000000006d99 .LASF2637
     /tmp/ccghGiGC.s:92071  .debug_str:000000000000b4fa .LASF2638
     /tmp/ccghGiGC.s:98467  .debug_str:000000000002561c .LASF2639
     /tmp/ccghGiGC.s:105491  .debug_str:0000000000041c12 .LASF2640
     /tmp/ccghGiGC.s:103245  .debug_str:00000000000389da .LASF2641
     /tmp/ccghGiGC.s:104359  .debug_str:000000000003cf8d .LASF2642
     /tmp/ccghGiGC.s:108359  .debug_str:000000000004de22 .LASF2643
     /tmp/ccghGiGC.s:105861  .debug_str:00000000000437a9 .LASF2644
     /tmp/ccghGiGC.s:98085  .debug_str:0000000000023dd8 .LASF2645
     /tmp/ccghGiGC.s:96921  .debug_str:000000000001ee0a .LASF2646
     /tmp/ccghGiGC.s:105881  .debug_str:000000000004391a .LASF2647
     /tmp/ccghGiGC.s:98633  .debug_str:0000000000025f1c .LASF2648
     /tmp/ccghGiGC.s:91901  .debug_str:000000000000a91f .LASF2649
     /tmp/ccghGiGC.s:98237  .debug_str:0000000000024859 .LASF2650
     /tmp/ccghGiGC.s:103401  .debug_str:000000000003922a .LASF2651
     /tmp/ccghGiGC.s:101575  .debug_str:0000000000031bf8 .LASF2652
     /tmp/ccghGiGC.s:94469  .debug_str:00000000000149a0 .LASF2653
     /tmp/ccghGiGC.s:90471  .debug_str:0000000000004876 .LASF2654
     /tmp/ccghGiGC.s:97625  .debug_str:0000000000021fb7 .LASF2655
     /tmp/ccghGiGC.s:100491  .debug_str:000000000002d537 .LASF2656
     /tmp/ccghGiGC.s:96497  .debug_str:000000000001d0c5 .LASF2657
     /tmp/ccghGiGC.s:91247  .debug_str:0000000000007c43 .LASF2658
     /tmp/ccghGiGC.s:96785  .debug_str:000000000001e483 .LASF2659
     /tmp/ccghGiGC.s:96291  .debug_str:000000000001c1df .LASF2660
     /tmp/ccghGiGC.s:89467  .debug_str:0000000000000366 .LASF2661
     /tmp/ccghGiGC.s:94197  .debug_str:0000000000013859 .LASF2662
     /tmp/ccghGiGC.s:103185  .debug_str:00000000000386fa .LASF2663
     /tmp/ccghGiGC.s:100223  .debug_str:000000000002c504 .LASF2664
     /tmp/ccghGiGC.s:93521  .debug_str:0000000000010c4a .LASF2665
     /tmp/ccghGiGC.s:95749  .debug_str:0000000000019c65 .LASF2666
     /tmp/ccghGiGC.s:99903  .debug_str:000000000002b084 .LASF2667
     /tmp/ccghGiGC.s:105543  .debug_str:00000000000421e9 .LASF2668
     /tmp/ccghGiGC.s:91303  .debug_str:000000000000800d .LASF2669
     /tmp/ccghGiGC.s:100585  .debug_str:000000000002dadc .LASF2670
     /tmp/ccghGiGC.s:105271  .debug_str:0000000000040ae5 .LASF2671
     /tmp/ccghGiGC.s:106787  .debug_str:0000000000047377 .LASF2672
     /tmp/ccghGiGC.s:94031  .debug_str:0000000000012cb5 .LASF2673
     /tmp/ccghGiGC.s:104843  .debug_str:000000000003ef73 .LASF2674
     /tmp/ccghGiGC.s:94931  .debug_str:0000000000016647 .LASF2675
     /tmp/ccghGiGC.s:100187  .debug_str:000000000002c2e1 .LASF2676
     /tmp/ccghGiGC.s:89935  .debug_str:000000000000249a .LASF2677
     /tmp/ccghGiGC.s:97551  .debug_str:00000000000219ed .LASF2678
     /tmp/ccghGiGC.s:104665  .debug_str:000000000003e489 .LASF2679
     /tmp/ccghGiGC.s:90345  .debug_str:0000000000003fb9 .LASF2680
     /tmp/ccghGiGC.s:108295  .debug_str:000000000004d8ce .LASF2681
     /tmp/ccghGiGC.s:92699  .debug_str:000000000000de34 .LASF2682
     /tmp/ccghGiGC.s:104157  .debug_str:000000000003c16f .LASF2683
     /tmp/ccghGiGC.s:104579  .debug_str:000000000003de17 .LASF2684
     /tmp/ccghGiGC.s:98719  .debug_str:00000000000263ad .LASF2685
     /tmp/ccghGiGC.s:95465  .debug_str:00000000000189b9 .LASF2686
     /tmp/ccghGiGC.s:93727  .debug_str:000000000001188a .LASF2687
     /tmp/ccghGiGC.s:89753  .debug_str:0000000000001665 .LASF2688
     /tmp/ccghGiGC.s:100867  .debug_str:000000000002ed88 .LASF2689
     /tmp/ccghGiGC.s:104769  .debug_str:000000000003eba9 .LASF2690
     /tmp/ccghGiGC.s:99109  .debug_str:0000000000027c4a .LASF2691
     /tmp/ccghGiGC.s:94763  .debug_str:0000000000015baf .LASF2692
     /tmp/ccghGiGC.s:95133  .debug_str:000000000001737f .LASF2693
     /tmp/ccghGiGC.s:96619  .debug_str:000000000001d898 .LASF2694
     /tmp/ccghGiGC.s:94899  .debug_str:00000000000163ea .LASF2695
     /tmp/ccghGiGC.s:108679  .debug_str:000000000004f3b0 .LASF2696
     /tmp/ccghGiGC.s:90021  .debug_str:0000000000002a7e .LASF2697
     /tmp/ccghGiGC.s:93055  .debug_str:000000000000f1e5 .LASF2698
     /tmp/ccghGiGC.s:100635  .debug_str:000000000002de4b .LASF2699
     /tmp/ccghGiGC.s:90025  .debug_str:0000000000002af7 .LASF2700
     /tmp/ccghGiGC.s:89673  .debug_str:000000000000114f .LASF2701
     /tmp/ccghGiGC.s:102013  .debug_str:00000000000338af .LASF2702
     /tmp/ccghGiGC.s:101285  .debug_str:00000000000308d1 .LASF2703
     /tmp/ccghGiGC.s:93765  .debug_str:0000000000011b3b .LASF2704
     /tmp/ccghGiGC.s:105003  .debug_str:000000000003fa0e .LASF2705
     /tmp/ccghGiGC.s:105789  .debug_str:00000000000432c7 .LASF2706
     /tmp/ccghGiGC.s:101691  .debug_str:00000000000322ad .LASF2707
     /tmp/ccghGiGC.s:95207  .debug_str:00000000000178d0 .LASF2708
     /tmp/ccghGiGC.s:91279  .debug_str:0000000000007eb3 .LASF2709
     /tmp/ccghGiGC.s:107885  .debug_str:000000000004bd1b .LASF2710
     /tmp/ccghGiGC.s:103973  .debug_str:000000000003b4a4 .LASF2711
     /tmp/ccghGiGC.s:108653  .debug_str:000000000004f223 .LASF2712
     /tmp/ccghGiGC.s:90151  .debug_str:00000000000032e6 .LASF2713
     /tmp/ccghGiGC.s:99913  .debug_str:000000000002b18b .LASF2714
     /tmp/ccghGiGC.s:89757  .debug_str:00000000000016ba .LASF2715
     /tmp/ccghGiGC.s:90417  .debug_str:0000000000004547 .LASF2716
     /tmp/ccghGiGC.s:91437  .debug_str:0000000000008940 .LASF2717
     /tmp/ccghGiGC.s:101735  .debug_str:00000000000325cb .LASF2718
     /tmp/ccghGiGC.s:102019  .debug_str:0000000000033933 .LASF2719
     /tmp/ccghGiGC.s:100695  .debug_str:000000000002e250 .LASF2720
     /tmp/ccghGiGC.s:95511  .debug_str:0000000000018be5 .LASF2721
     /tmp/ccghGiGC.s:90123  .debug_str:0000000000003187 .LASF2722
     /tmp/ccghGiGC.s:94441  .debug_str:00000000000147d1 .LASF2723
     /tmp/ccghGiGC.s:108373  .debug_str:000000000004df41 .LASF2724
     /tmp/ccghGiGC.s:107593  .debug_str:000000000004a7c4 .LASF2725
     /tmp/ccghGiGC.s:107699  .debug_str:000000000004afa0 .LASF2726
     /tmp/ccghGiGC.s:94289  .debug_str:0000000000013e4f .LASF2727
     /tmp/ccghGiGC.s:105375  .debug_str:00000000000413ce .LASF2728
     /tmp/ccghGiGC.s:94397  .debug_str:00000000000144f2 .LASF2729
     /tmp/ccghGiGC.s:97597  .debug_str:0000000000021d49 .LASF2730
     /tmp/ccghGiGC.s:91383  .debug_str:000000000000858a .LASF2731
     /tmp/ccghGiGC.s:104007  .debug_str:000000000003b785 .LASF2732
     /tmp/ccghGiGC.s:107663  .debug_str:000000000004ad62 .LASF2733
     /tmp/ccghGiGC.s:93361  .debug_str:00000000000103ea .LASF2734
     /tmp/ccghGiGC.s:90017  .debug_str:0000000000002a1e .LASF2735
     /tmp/ccghGiGC.s:92117  .debug_str:000000000000b7f9 .LASF2736
     /tmp/ccghGiGC.s:98711  .debug_str:0000000000026321 .LASF2737
     /tmp/ccghGiGC.s:108705  .debug_str:000000000004f541 .LASF2738
     /tmp/ccghGiGC.s:92479  .debug_str:000000000000d09e .LASF2739
     /tmp/ccghGiGC.s:106383  .debug_str:00000000000459f1 .LASF2740
     /tmp/ccghGiGC.s:92205  .debug_str:000000000000bee1 .LASF2741
     /tmp/ccghGiGC.s:108631  .debug_str:000000000004f0a3 .LASF2742
     /tmp/ccghGiGC.s:100663  .debug_str:000000000002e033 .LASF2743
     /tmp/ccghGiGC.s:90157  .debug_str:0000000000003366 .LASF2744
     /tmp/ccghGiGC.s:89449  .debug_str:0000000000000232 .LASF2745
     /tmp/ccghGiGC.s:104873  .debug_str:000000000003f1a1 .LASF2746
     /tmp/ccghGiGC.s:99021  .debug_str:00000000000275fb .LASF2747
     /tmp/ccghGiGC.s:100003  .debug_str:000000000002b747 .LASF2748
     /tmp/ccghGiGC.s:108505  .debug_str:000000000004e89b .LASF2749
     /tmp/ccghGiGC.s:106197  .debug_str:0000000000044da7 .LASF2750
     /tmp/ccghGiGC.s:108473  .debug_str:000000000004e61d .LASF2751
     /tmp/ccghGiGC.s:99205  .debug_str:00000000000282d8 .LASF2752
     /tmp/ccghGiGC.s:107063  .debug_str:0000000000048615 .LASF2753
     /tmp/ccghGiGC.s:100401  .debug_str:000000000002d02e .LASF2754
     /tmp/ccghGiGC.s:107263  .debug_str:0000000000049335 .LASF2755
     /tmp/ccghGiGC.s:91617  .debug_str:00000000000095cb .LASF2756
     /tmp/ccghGiGC.s:93533  .debug_str:0000000000010cff .LASF2757
     /tmp/ccghGiGC.s:106647  .debug_str:0000000000046a79 .LASF2758
     /tmp/ccghGiGC.s:95191  .debug_str:00000000000177b1 .LASF2759
     /tmp/ccghGiGC.s:108875  .debug_str:0000000000050155 .LASF2760
     /tmp/ccghGiGC.s:101213  .debug_str:0000000000030436 .LASF2761
     /tmp/ccghGiGC.s:92067  .debug_str:000000000000b48d .LASF2762
     /tmp/ccghGiGC.s:92497  .debug_str:000000000000d20b .LASF2763
     /tmp/ccghGiGC.s:105867  .debug_str:000000000004380d .LASF2764
     /tmp/ccghGiGC.s:95853  .debug_str:000000000001a316 .LASF2765
     /tmp/ccghGiGC.s:104213  .debug_str:000000000003c5d0 .LASF2766
     /tmp/ccghGiGC.s:102191  .debug_str:0000000000034473 .LASF2767
     /tmp/ccghGiGC.s:94423  .debug_str:000000000001464e .LASF2768
     /tmp/ccghGiGC.s:93201  .debug_str:000000000000fa8f .LASF2769
     /tmp/ccghGiGC.s:99265  .debug_str:000000000002868f .LASF2770
     /tmp/ccghGiGC.s:104139  .debug_str:000000000003c019 .LASF2771
     /tmp/ccghGiGC.s:90117  .debug_str:00000000000030ea .LASF2772
     /tmp/ccghGiGC.s:100613  .debug_str:000000000002dd1c .LASF2773
     /tmp/ccghGiGC.s:99403  .debug_str:00000000000290aa .LASF2774
     /tmp/ccghGiGC.s:92099  .debug_str:000000000000b702 .LASF2775
     /tmp/ccghGiGC.s:91463  .debug_str:0000000000008b5f .LASF2776
     /tmp/ccghGiGC.s:96369  .debug_str:000000000001c79e .LASF2777
     /tmp/ccghGiGC.s:101299  .debug_str:0000000000030a1d .LASF2778
     /tmp/ccghGiGC.s:106995  .debug_str:00000000000481fc .LASF2779
     /tmp/ccghGiGC.s:105381  .debug_str:0000000000041435 .LASF2780
     /tmp/ccghGiGC.s:106601  .debug_str:00000000000467c0 .LASF2781
     /tmp/ccghGiGC.s:94127  .debug_str:0000000000013422 .LASF2782
     /tmp/ccghGiGC.s:95541  .debug_str:0000000000018d6b .LASF2783
     /tmp/ccghGiGC.s:104475  .debug_str:000000000003d68f .LASF2784
     /tmp/ccghGiGC.s:94153  .debug_str:00000000000135dc .LASF2785
     /tmp/ccghGiGC.s:102729  .debug_str:00000000000369b0 .LASF2786
     /tmp/ccghGiGC.s:105541  .debug_str:00000000000421b3 .LASF2787
     /tmp/ccghGiGC.s:102705  .debug_str:0000000000036841 .LASF2788
     /tmp/ccghGiGC.s:108727  .debug_str:000000000004f6b2 .LASF2789
     /tmp/ccghGiGC.s:102801  .debug_str:0000000000036eb0 .LASF2790
     /tmp/ccghGiGC.s:98021  .debug_str:00000000000239ba .LASF2791
     /tmp/ccghGiGC.s:95619  .debug_str:00000000000192d3 .LASF2792
     /tmp/ccghGiGC.s:102341  .debug_str:0000000000034eff .LASF2793
     /tmp/ccghGiGC.s:106091  .debug_str:0000000000044687 .LASF2794
     /tmp/ccghGiGC.s:92493  .debug_str:000000000000d1b2 .LASF2795
     /tmp/ccghGiGC.s:97151  .debug_str:000000000001fe02 .LASF2796
     /tmp/ccghGiGC.s:102511  .debug_str:0000000000035b0e .LASF2797
     /tmp/ccghGiGC.s:91679  .debug_str:00000000000099a2 .LASF2798
     /tmp/ccghGiGC.s:100159  .debug_str:000000000002c0dc .LASF2799
     /tmp/ccghGiGC.s:101363  .debug_str:0000000000030e36 .LASF2800
     /tmp/ccghGiGC.s:95717  .debug_str:0000000000019a14 .LASF2801
     /tmp/ccghGiGC.s:91257  .debug_str:0000000000007d44 .LASF2802
     /tmp/ccghGiGC.s:99557  .debug_str:0000000000029a8f .LASF2803
     /tmp/ccghGiGC.s:103235  .debug_str:0000000000038942 .LASF2804
     /tmp/ccghGiGC.s:99655  .debug_str:000000000002a0dd .LASF2805
     /tmp/ccghGiGC.s:98779  .debug_str:00000000000266f4 .LASF2806
     /tmp/ccghGiGC.s:104797  .debug_str:000000000003ed7d .LASF2807
     /tmp/ccghGiGC.s:102745  .debug_str:0000000000036aa7 .LASF2808
     /tmp/ccghGiGC.s:102561  .debug_str:0000000000035e4d .LASF2809
     /tmp/ccghGiGC.s:92605  .debug_str:000000000000d922 .LASF2810
     /tmp/ccghGiGC.s:92789  .debug_str:000000000000e375 .LASF2811
     /tmp/ccghGiGC.s:104697  .debug_str:000000000003e695 .LASF2812
     /tmp/ccghGiGC.s:96717  .debug_str:000000000001dffc .LASF2813
     /tmp/ccghGiGC.s:97445  .debug_str:0000000000021285 .LASF2814
     /tmp/ccghGiGC.s:99033  .debug_str:00000000000276f3 .LASF2815
     /tmp/ccghGiGC.s:107869  .debug_str:000000000004bbe0 .LASF2816
     /tmp/ccghGiGC.s:102277  .debug_str:0000000000034960 .LASF2817
     /tmp/ccghGiGC.s:107819  .debug_str:000000000004b8b6 .LASF2818
     /tmp/ccghGiGC.s:97365  .debug_str:0000000000020dd7 .LASF2819
     /tmp/ccghGiGC.s:93289  .debug_str:000000000001009d .LASF2820
     /tmp/ccghGiGC.s:94037  .debug_str:0000000000012d1b .LASF2821
     /tmp/ccghGiGC.s:90023  .debug_str:0000000000002ab5 .LASF2822
     /tmp/ccghGiGC.s:96915  .debug_str:000000000001ed7b .LASF2823
     /tmp/ccghGiGC.s:104555  .debug_str:000000000003dc7d .LASF2824
     /tmp/ccghGiGC.s:96989  .debug_str:000000000001f211 .LASF2825
     /tmp/ccghGiGC.s:95419  .debug_str:00000000000186bd .LASF2826
     /tmp/ccghGiGC.s:105045  .debug_str:000000000003fcd3 .LASF2827
     /tmp/ccghGiGC.s:108749  .debug_str:000000000004f853 .LASF2828
     /tmp/ccghGiGC.s:97875  .debug_str:0000000000022f6b .LASF2829
     /tmp/ccghGiGC.s:100005  .debug_str:000000000002b780 .LASF2830
     /tmp/ccghGiGC.s:96527  .debug_str:000000000001d25b .LASF2831
     /tmp/ccghGiGC.s:91057  .debug_str:0000000000007011 .LASF2832
     /tmp/ccghGiGC.s:102321  .debug_str:0000000000034d36 .LASF2833
     /tmp/ccghGiGC.s:108331  .debug_str:000000000004dba7 .LASF2834
     /tmp/ccghGiGC.s:101477  .debug_str:0000000000031550 .LASF2835
     /tmp/ccghGiGC.s:99547  .debug_str:00000000000299d1 .LASF2836
     /tmp/ccghGiGC.s:93243  .debug_str:000000000000fe11 .LASF2837
     /tmp/ccghGiGC.s:96431  .debug_str:000000000001cc6b .LASF2838
     /tmp/ccghGiGC.s:102795  .debug_str:0000000000036e39 .LASF2839
     /tmp/ccghGiGC.s:108087  .debug_str:000000000004ca91 .LASF2840
     /tmp/ccghGiGC.s:93625  .debug_str:0000000000011290 .LASF2841
     /tmp/ccghGiGC.s:101311  .debug_str:0000000000030b18 .LASF2842
     /tmp/ccghGiGC.s:101951  .debug_str:0000000000033474 .LASF2843
     /tmp/ccghGiGC.s:98395  .debug_str:00000000000251c9 .LASF2844
     /tmp/ccghGiGC.s:90107  .debug_str:0000000000003013 .LASF2845
     /tmp/ccghGiGC.s:105335  .debug_str:00000000000410af .LASF2846
     /tmp/ccghGiGC.s:108351  .debug_str:000000000004dd50 .LASF2847
     /tmp/ccghGiGC.s:89747  .debug_str:00000000000015f6 .LASF2848
     /tmp/ccghGiGC.s:99275  .debug_str:0000000000028740 .LASF2849
     /tmp/ccghGiGC.s:96035  .debug_str:000000000001b064 .LASF2850
     /tmp/ccghGiGC.s:94605  .debug_str:0000000000015162 .LASF2851
     /tmp/ccghGiGC.s:100609  .debug_str:000000000002dc9b .LASF2852
     /tmp/ccghGiGC.s:103779  .debug_str:000000000003a761 .LASF2853
     /tmp/ccghGiGC.s:102929  .debug_str:00000000000376f9 .LASF2854
     /tmp/ccghGiGC.s:101851  .debug_str:0000000000032e7b .LASF2855
     /tmp/ccghGiGC.s:92125  .debug_str:000000000000b8e3 .LASF2856
     /tmp/ccghGiGC.s:91251  .debug_str:0000000000007cc4 .LASF2857
     /tmp/ccghGiGC.s:97201  .debug_str:0000000000020259 .LASF2858
     /tmp/ccghGiGC.s:99129  .debug_str:0000000000027dd3 .LASF2859
     /tmp/ccghGiGC.s:92297  .debug_str:000000000000c486 .LASF2860
     /tmp/ccghGiGC.s:99549  .debug_str:0000000000029a0c .LASF2861
     /tmp/ccghGiGC.s:107091  .debug_str:0000000000048812 .LASF2862
     /tmp/ccghGiGC.s:94047  .debug_str:0000000000012dc3 .LASF2863
     /tmp/ccghGiGC.s:98087  .debug_str:0000000000023e13 .LASF2864
     /tmp/ccghGiGC.s:105157  .debug_str:000000000004036e .LASF2865
     /tmp/ccghGiGC.s:93069  .debug_str:000000000000f2fb .LASF2866
     /tmp/ccghGiGC.s:100563  .debug_str:000000000002d989 .LASF2867
     /tmp/ccghGiGC.s:107801  .debug_str:000000000004b769 .LASF2868
     /tmp/ccghGiGC.s:91185  .debug_str:00000000000078c7 .LASF2869
     /tmp/ccghGiGC.s:104847  .debug_str:000000000003efdf .LASF2870
     /tmp/ccghGiGC.s:108285  .debug_str:000000000004d80e .LASF2871
     /tmp/ccghGiGC.s:89619  .debug_str:0000000000000d73 .LASF2872
     /tmp/ccghGiGC.s:100841  .debug_str:000000000002ec09 .LASF2873
     /tmp/ccghGiGC.s:90237  .debug_str:0000000000003860 .LASF2874
     /tmp/ccghGiGC.s:93139  .debug_str:000000000000f75f .LASF2875
     /tmp/ccghGiGC.s:95247  .debug_str:0000000000017bbf .LASF2876
     /tmp/ccghGiGC.s:105269  .debug_str:0000000000040a9d .LASF2877
     /tmp/ccghGiGC.s:96975  .debug_str:000000000001f122 .LASF2878
     /tmp/ccghGiGC.s:91641  .debug_str:000000000000972c .LASF2879
     /tmp/ccghGiGC.s:92317  .debug_str:000000000000c5a6 .LASF2880
     /tmp/ccghGiGC.s:98635  .debug_str:0000000000025f5f .LASF2881
     /tmp/ccghGiGC.s:92209  .debug_str:000000000000bf3a .LASF2882
     /tmp/ccghGiGC.s:108157  .debug_str:000000000004cfb0 .LASF2883
     /tmp/ccghGiGC.s:104945  .debug_str:000000000003f63a .LASF2884
     /tmp/ccghGiGC.s:107411  .debug_str:0000000000049ca0 .LASF2885
     /tmp/ccghGiGC.s:102905  .debug_str:0000000000037582 .LASF2886
     /tmp/ccghGiGC.s:89503  .debug_str:0000000000000618 .LASF2887
     /tmp/ccghGiGC.s:95223  .debug_str:0000000000017a3c .LASF2888
     /tmp/ccghGiGC.s:100911  .debug_str:000000000002f08e .LASF2889
     /tmp/ccghGiGC.s:106819  .debug_str:00000000000475a6 .LASF2890
     /tmp/ccghGiGC.s:104187  .debug_str:000000000003c3a4 .LASF2891
     /tmp/ccghGiGC.s:105321  .debug_str:0000000000040fab .LASF2892
     /tmp/ccghGiGC.s:95463  .debug_str:000000000001897b .LASF2893
     /tmp/ccghGiGC.s:92123  .debug_str:000000000000b89d .LASF2894
     /tmp/ccghGiGC.s:93235  .debug_str:000000000000fd95 .LASF2895
     /tmp/ccghGiGC.s:95389  .debug_str:00000000000184b9 .LASF2896
     /tmp/ccghGiGC.s:104509  .debug_str:000000000003d8d6 .LASF2897
     /tmp/ccghGiGC.s:89857  .debug_str:0000000000001f3c .LASF2898
     /tmp/ccghGiGC.s:96185  .debug_str:000000000001b9da .LASF2899
     /tmp/ccghGiGC.s:100391  .debug_str:000000000002cf89 .LASF2900
     /tmp/ccghGiGC.s:95121  .debug_str:00000000000172f8 .LASF2901
     /tmp/ccghGiGC.s:91167  .debug_str:0000000000007704 .LASF2902
     /tmp/ccghGiGC.s:94067  .debug_str:0000000000012f6b .LASF2903
     /tmp/ccghGiGC.s:99465  .debug_str:0000000000029536 .LASF2904
     /tmp/ccghGiGC.s:98887  .debug_str:0000000000026e1c .LASF2905
     /tmp/ccghGiGC.s:106659  .debug_str:0000000000046b78 .LASF2906
     /tmp/ccghGiGC.s:96941  .debug_str:000000000001eeb0 .LASF2907
     /tmp/ccghGiGC.s:101569  .debug_str:0000000000031b69 .LASF2908
     /tmp/ccghGiGC.s:102199  .debug_str:00000000000344db .LASF2909
     /tmp/ccghGiGC.s:105687  .debug_str:0000000000042c8b .LASF2910
     /tmp/ccghGiGC.s:104107  .debug_str:000000000003bdcb .LASF2911
     /tmp/ccghGiGC.s:91115  .debug_str:000000000000744e .LASF2912
     /tmp/ccghGiGC.s:106101  .debug_str:000000000004472f .LASF2913
     /tmp/ccghGiGC.s:100971  .debug_str:000000000002f44b .LASF2914
     /tmp/ccghGiGC.s:100709  .debug_str:000000000002e335 .LASF2915
     /tmp/ccghGiGC.s:102555  .debug_str:0000000000035da9 .LASF2916
     /tmp/ccghGiGC.s:91599  .debug_str:000000000000946b .LASF2917
     /tmp/ccghGiGC.s:107897  .debug_str:000000000004bdd1 .LASF2918
     /tmp/ccghGiGC.s:97827  .debug_str:0000000000022c0f .LASF2919
     /tmp/ccghGiGC.s:95395  .debug_str:000000000001853e .LASF2920
     /tmp/ccghGiGC.s:106555  .debug_str:0000000000046538 .LASF2921
     /tmp/ccghGiGC.s:97867  .debug_str:0000000000022ec7 .LASF2922
     /tmp/ccghGiGC.s:92359  .debug_str:000000000000c86d .LASF2923
     /tmp/ccghGiGC.s:90093  .debug_str:0000000000002f0c .LASF2924
     /tmp/ccghGiGC.s:91955  .debug_str:000000000000ac97 .LASF2925
     /tmp/ccghGiGC.s:93739  .debug_str:000000000001198a .LASF2926
     /tmp/ccghGiGC.s:98913  .debug_str:0000000000027020 .LASF2927
     /tmp/ccghGiGC.s:98223  .debug_str:0000000000024725 .LASF2928
     /tmp/ccghGiGC.s:93943  .debug_str:0000000000012712 .LASF2929
     /tmp/ccghGiGC.s:101857  .debug_str:0000000000032ee0 .LASF2930
     /tmp/ccghGiGC.s:99113  .debug_str:0000000000027c90 .LASF2931
     /tmp/ccghGiGC.s:97953  .debug_str:0000000000023464 .LASF2932
     /tmp/ccghGiGC.s:95231  .debug_str:0000000000017aa4 .LASF2933
     /tmp/ccghGiGC.s:97793  .debug_str:00000000000229b6 .LASF2934
     /tmp/ccghGiGC.s:100513  .debug_str:000000000002d678 .LASF2935
     /tmp/ccghGiGC.s:92235  .debug_str:000000000000c0c8 .LASF2936
     /tmp/ccghGiGC.s:96247  .debug_str:000000000001be7c .LASF2937
     /tmp/ccghGiGC.s:94305  .debug_str:0000000000013f28 .LASF2938
     /tmp/ccghGiGC.s:95407  .debug_str:0000000000018615 .LASF2939
     /tmp/ccghGiGC.s:96339  .debug_str:000000000001c501 .LASF2940
     /tmp/ccghGiGC.s:90803  .debug_str:0000000000005e69 .LASF2941
     /tmp/ccghGiGC.s:101233  .debug_str:0000000000030599 .LASF2942
     /tmp/ccghGiGC.s:94219  .debug_str:00000000000139e6 .LASF2943
     /tmp/ccghGiGC.s:107127  .debug_str:0000000000048a7b .LASF2944
     /tmp/ccghGiGC.s:103135  .debug_str:0000000000038345 .LASF2945
     /tmp/ccghGiGC.s:93825  .debug_str:0000000000011f47 .LASF2946
     /tmp/ccghGiGC.s:95329  .debug_str:00000000000180df .LASF2947
     /tmp/ccghGiGC.s:89793  .debug_str:0000000000001a62 .LASF2948
     /tmp/ccghGiGC.s:91645  .debug_str:0000000000009790 .LASF2949
     /tmp/ccghGiGC.s:96885  .debug_str:000000000001ebdd .LASF2950
     /tmp/ccghGiGC.s:104693  .debug_str:000000000003e64d .LASF2951
     /tmp/ccghGiGC.s:97317  .debug_str:0000000000020b00 .LASF2952
     /tmp/ccghGiGC.s:97865  .debug_str:0000000000022e96 .LASF2953
     /tmp/ccghGiGC.s:104537  .debug_str:000000000003dac5 .LASF2954
     /tmp/ccghGiGC.s:101663  .debug_str:00000000000320da .LASF2955
     /tmp/ccghGiGC.s:106569  .debug_str:0000000000046634 .LASF2956
     /tmp/ccghGiGC.s:107237  .debug_str:0000000000049129 .LASF2957
     /tmp/ccghGiGC.s:90689  .debug_str:00000000000056c9 .LASF2958
     /tmp/ccghGiGC.s:98951  .debug_str:0000000000027267 .LASF2959
     /tmp/ccghGiGC.s:104003  .debug_str:000000000003b72c .LASF2960
     /tmp/ccghGiGC.s:92393  .debug_str:000000000000cadc .LASF2961
     /tmp/ccghGiGC.s:91971  .debug_str:000000000000ad58 .LASF2962
     /tmp/ccghGiGC.s:104117  .debug_str:000000000003be7b .LASF2963
     /tmp/ccghGiGC.s:104631  .debug_str:000000000003e1ef .LASF2964
     /tmp/ccghGiGC.s:90389  .debug_str:00000000000042f3 .LASF2965
     /tmp/ccghGiGC.s:103319  .debug_str:0000000000038e12 .LASF2966
     /tmp/ccghGiGC.s:97233  .debug_str:000000000002044e .LASF2967
     /tmp/ccghGiGC.s:94157  .debug_str:0000000000013626 .LASF2968
     /tmp/ccghGiGC.s:97227  .debug_str:00000000000203ed .LASF2969
     /tmp/ccghGiGC.s:104583  .debug_str:000000000003de8b .LASF2970
     /tmp/ccghGiGC.s:96167  .debug_str:000000000001b8a7 .LASF2971
     /tmp/ccghGiGC.s:98235  .debug_str:0000000000024819 .LASF2972
     /tmp/ccghGiGC.s:100667  .debug_str:000000000002e082 .LASF2973
     /tmp/ccghGiGC.s:104635  .debug_str:000000000003e259 .LASF2974
     /tmp/ccghGiGC.s:90905  .debug_str:000000000000653a .LASF2975
     /tmp/ccghGiGC.s:97933  .debug_str:00000000000232e8 .LASF2976
     /tmp/ccghGiGC.s:102537  .debug_str:0000000000035c91 .LASF2977
     /tmp/ccghGiGC.s:107621  .debug_str:000000000004aa0b .LASF2978
     /tmp/ccghGiGC.s:91019  .debug_str:0000000000006cae .LASF2979
     /tmp/ccghGiGC.s:91943  .debug_str:000000000000ab91 .LASF2980
     /tmp/ccghGiGC.s:107931  .debug_str:000000000004c027 .LASF2981
     /tmp/ccghGiGC.s:98859  .debug_str:0000000000026c83 .LASF2982
     /tmp/ccghGiGC.s:94455  .debug_str:00000000000148c3 .LASF2983
     /tmp/ccghGiGC.s:96057  .debug_str:000000000001b1b5 .LASF2984
     /tmp/ccghGiGC.s:106413  .debug_str:0000000000045c0f .LASF2985
     /tmp/ccghGiGC.s:101021  .debug_str:000000000002f822 .LASF2986
     /tmp/ccghGiGC.s:102351  .debug_str:0000000000034fb1 .LASF2987
     /tmp/ccghGiGC.s:107959  .debug_str:000000000004c209 .LASF2988
     /tmp/ccghGiGC.s:97505  .debug_str:000000000002166e .LASF2989
     /tmp/ccghGiGC.s:104017  .debug_str:000000000003b830 .LASF2990
     /tmp/ccghGiGC.s:94769  .debug_str:0000000000015c68 .LASF2991
     /tmp/ccghGiGC.s:104405  .debug_str:000000000003d22f .LASF2992
     /tmp/ccghGiGC.s:105551  .debug_str:00000000000422b5 .LASF2993
     /tmp/ccghGiGC.s:106209  .debug_str:0000000000044ec0 .LASF2994
     /tmp/ccghGiGC.s:94963  .debug_str:0000000000016817 .LASF2995
     /tmp/ccghGiGC.s:96421  .debug_str:000000000001cbaf .LASF2996
     /tmp/ccghGiGC.s:99847  .debug_str:000000000002ad2e .LASF2997
     /tmp/ccghGiGC.s:91415  .debug_str:000000000000880c .LASF2998
     /tmp/ccghGiGC.s:97455  .debug_str:000000000002134f .LASF2999
     /tmp/ccghGiGC.s:95935  .debug_str:000000000001a8df .LASF3000
     /tmp/ccghGiGC.s:96143  .debug_str:000000000001b76b .LASF3001
     /tmp/ccghGiGC.s:95743  .debug_str:0000000000019bce .LASF3002
     /tmp/ccghGiGC.s:102501  .debug_str:00000000000359ee .LASF3003
     /tmp/ccghGiGC.s:94015  .debug_str:0000000000012bb8 .LASF3004
     /tmp/ccghGiGC.s:99777  .debug_str:000000000002a925 .LASF3005
     /tmp/ccghGiGC.s:101291  .debug_str:0000000000030944 .LASF3006
     /tmp/ccghGiGC.s:91077  .debug_str:0000000000007193 .LASF3007
     /tmp/ccghGiGC.s:96157  .debug_str:000000000001b800 .LASF3008
     /tmp/ccghGiGC.s:105885  .debug_str:0000000000043984 .LASF3009
     /tmp/ccghGiGC.s:94085  .debug_str:0000000000013088 .LASF3010
     /tmp/ccghGiGC.s:90499  .debug_str:0000000000004ad0 .LASF3011
     /tmp/ccghGiGC.s:108451  .debug_str:000000000004e47f .LASF3012
     /tmp/ccghGiGC.s:93635  .debug_str:0000000000011373 .LASF3013
     /tmp/ccghGiGC.s:90937  .debug_str:0000000000006753 .LASF3014
     /tmp/ccghGiGC.s:104381  .debug_str:000000000003d0a0 .LASF3015
     /tmp/ccghGiGC.s:102595  .debug_str:0000000000036122 .LASF3016
     /tmp/ccghGiGC.s:105659  .debug_str:0000000000042a84 .LASF3017
     /tmp/ccghGiGC.s:98105  .debug_str:0000000000023f1a .LASF3018
     /tmp/ccghGiGC.s:96549  .debug_str:000000000001d3c7 .LASF3019
     /tmp/ccghGiGC.s:95139  .debug_str:00000000000173de .LASF3020
     /tmp/ccghGiGC.s:106911  .debug_str:0000000000047bfe .LASF3021
     /tmp/ccghGiGC.s:105803  .debug_str:00000000000433dc .LASF3022
     /tmp/ccghGiGC.s:102747  .debug_str:0000000000036ae8 .LASF3023
     /tmp/ccghGiGC.s:89879  .debug_str:00000000000020ae .LASF3024
     /tmp/ccghGiGC.s:103999  .debug_str:000000000003b6ab .LASF3025
     /tmp/ccghGiGC.s:102535  .debug_str:0000000000035c59 .LASF3026
     /tmp/ccghGiGC.s:94361  .debug_str:00000000000142a8 .LASF3027
     /tmp/ccghGiGC.s:91811  .debug_str:000000000000a323 .LASF3028
     /tmp/ccghGiGC.s:104753  .debug_str:000000000003ea7f .LASF3029
     /tmp/ccghGiGC.s:102637  .debug_str:000000000003638e .LASF3030
     /tmp/ccghGiGC.s:90377  .debug_str:0000000000004202 .LASF3031
     /tmp/ccghGiGC.s:92539  .debug_str:000000000000d526 .LASF3032
     /tmp/ccghGiGC.s:103995  .debug_str:000000000003b632 .LASF3033
     /tmp/ccghGiGC.s:94755  .debug_str:0000000000015b0d .LASF3034
     /tmp/ccghGiGC.s:108329  .debug_str:000000000004db66 .LASF3035
     /tmp/ccghGiGC.s:96237  .debug_str:000000000001be05 .LASF3036
     /tmp/ccghGiGC.s:108105  .debug_str:000000000004cb92 .LASF3037
     /tmp/ccghGiGC.s:108523  .debug_str:000000000004e9dc .LASF3038
     /tmp/ccghGiGC.s:100367  .debug_str:000000000002cdc3 .LASF3039
     /tmp/ccghGiGC.s:93403  .debug_str:000000000001064e .LASF3040
     /tmp/ccghGiGC.s:103089  .debug_str:00000000000380b4 .LASF3041
     /tmp/ccghGiGC.s:94635  .debug_str:00000000000153ab .LASF3042
     /tmp/ccghGiGC.s:102503  .debug_str:0000000000035a28 .LASF3043
     /tmp/ccghGiGC.s:104885  .debug_str:000000000003f261 .LASF3044
     /tmp/ccghGiGC.s:104549  .debug_str:000000000003dbc7 .LASF3045
     /tmp/ccghGiGC.s:105965  .debug_str:0000000000043e7e .LASF3046
     /tmp/ccghGiGC.s:96279  .debug_str:000000000001c0df .LASF3047
     /tmp/ccghGiGC.s:90779  .debug_str:0000000000005cee .LASF3048
     /tmp/ccghGiGC.s:106687  .debug_str:0000000000046cd4 .LASF3049
     /tmp/ccghGiGC.s:102791  .debug_str:0000000000036dd5 .LASF3050
     /tmp/ccghGiGC.s:89689  .debug_str:0000000000001244 .LASF3051
     /tmp/ccghGiGC.s:97803  .debug_str:0000000000022a89 .LASF3052
     /tmp/ccghGiGC.s:103863  .debug_str:000000000003ad3e .LASF3053
     /tmp/ccghGiGC.s:92143  .debug_str:000000000000ba03 .LASF3054
     /tmp/ccghGiGC.s:90349  .debug_str:000000000000401a .LASF3055
     /tmp/ccghGiGC.s:106757  .debug_str:0000000000047204 .LASF3056
     /tmp/ccghGiGC.s:105821  .debug_str:00000000000434f3 .LASF3057
     /tmp/ccghGiGC.s:102067  .debug_str:0000000000033c82 .LASF3058
     /tmp/ccghGiGC.s:89907  .debug_str:0000000000002280 .LASF3059
     /tmp/ccghGiGC.s:97193  .debug_str:00000000000201b2 .LASF3060
     /tmp/ccghGiGC.s:99675  .debug_str:000000000002a233 .LASF3061
     /tmp/ccghGiGC.s:93271  .debug_str:000000000000ff3b .LASF3062
     /tmp/ccghGiGC.s:99471  .debug_str:00000000000295a2 .LASF3063
     /tmp/ccghGiGC.s:91219  .debug_str:0000000000007ad6 .LASF3064
     /tmp/ccghGiGC.s:105059  .debug_str:000000000003fd95 .LASF3065
     /tmp/ccghGiGC.s:103233  .debug_str:0000000000038905 .LASF3066
     /tmp/ccghGiGC.s:105437  .debug_str:00000000000418a1 .LASF3067
     /tmp/ccghGiGC.s:104193  .debug_str:000000000003c452 .LASF3068
     /tmp/ccghGiGC.s:91047  .debug_str:0000000000006f0d .LASF3069
     /tmp/ccghGiGC.s:99631  .debug_str:0000000000029f41 .LASF3070
     /tmp/ccghGiGC.s:96407  .debug_str:000000000001ca64 .LASF3071
     /tmp/ccghGiGC.s:106755  .debug_str:00000000000471ca .LASF3072
     /tmp/ccghGiGC.s:100661  .debug_str:000000000002dff1 .LASF3073
     /tmp/ccghGiGC.s:103179  .debug_str:0000000000038696 .LASF3074
     /tmp/ccghGiGC.s:107071  .debug_str:0000000000048691 .LASF3075
     /tmp/ccghGiGC.s:102999  .debug_str:0000000000037b4c .LASF3076
     /tmp/ccghGiGC.s:89901  .debug_str:0000000000002210 .LASF3077
     /tmp/ccghGiGC.s:106615  .debug_str:00000000000468b7 .LASF3078
     /tmp/ccghGiGC.s:100365  .debug_str:000000000002cd88 .LASF3079
     /tmp/ccghGiGC.s:97271  .debug_str:000000000002070c .LASF3080
     /tmp/ccghGiGC.s:91365  .debug_str:0000000000008455 .LASF3081
     /tmp/ccghGiGC.s:105747  .debug_str:0000000000042f94 .LASF3082
     /tmp/ccghGiGC.s:101165  .debug_str:000000000003017c .LASF3083
     /tmp/ccghGiGC.s:96907  .debug_str:000000000001eced .LASF3084
     /tmp/ccghGiGC.s:104009  .debug_str:000000000003b7c5 .LASF3085
     /tmp/ccghGiGC.s:94391  .debug_str:0000000000014469 .LASF3086
     /tmp/ccghGiGC.s:95583  .debug_str:000000000001908e .LASF3087
     /tmp/ccghGiGC.s:91447  .debug_str:0000000000008a3d .LASF3088
     /tmp/ccghGiGC.s:107393  .debug_str:0000000000049b5c .LASF3089
     /tmp/ccghGiGC.s:95725  .debug_str:0000000000019a98 .LASF3090
     /tmp/ccghGiGC.s:107895  .debug_str:000000000004bd99 .LASF3091
     /tmp/ccghGiGC.s:106141  .debug_str:00000000000449cc .LASF3092
     /tmp/ccghGiGC.s:106855  .debug_str:0000000000047880 .LASF3093
     /tmp/ccghGiGC.s:94831  .debug_str:000000000001601b .LASF3094
     /tmp/ccghGiGC.s:93549  .debug_str:0000000000010e18 .LASF3095
     /tmp/ccghGiGC.s:92449  .debug_str:000000000000cf2c .LASF3096
     /tmp/ccghGiGC.s:101545  .debug_str:00000000000319d2 .LASF3097
     /tmp/ccghGiGC.s:89549  .debug_str:000000000000091f .LASF3098
     /tmp/ccghGiGC.s:99181  .debug_str:0000000000028134 .LASF3099
     /tmp/ccghGiGC.s:108633  .debug_str:000000000004f0dc .LASF3100
     /tmp/ccghGiGC.s:101423  .debug_str:00000000000311da .LASF3101
     /tmp/ccghGiGC.s:98693  .debug_str:0000000000026186 .LASF3102
     /tmp/ccghGiGC.s:101099  .debug_str:000000000002fd3a .LASF3103
     /tmp/ccghGiGC.s:106071  .debug_str:0000000000044549 .LASF3104
     /tmp/ccghGiGC.s:96029  .debug_str:000000000001afc3 .LASF3105
     /tmp/ccghGiGC.s:97707  .debug_str:0000000000022427 .LASF3106
     /tmp/ccghGiGC.s:106863  .debug_str:00000000000478e5 .LASF3107
     /tmp/ccghGiGC.s:101033  .debug_str:000000000002f927 .LASF3108
     /tmp/ccghGiGC.s:108739  .debug_str:000000000004f782 .LASF3109
     /tmp/ccghGiGC.s:108883  .debug_str:00000000000501d6 .LASF3110
     /tmp/ccghGiGC.s:98695  .debug_str:00000000000261c4 .LASF3111
     /tmp/ccghGiGC.s:94653  .debug_str:00000000000154af .LASF3112
     /tmp/ccghGiGC.s:96357  .debug_str:000000000001c6f3 .LASF3113
     /tmp/ccghGiGC.s:108607  .debug_str:000000000004eec0 .LASF3114
     /tmp/ccghGiGC.s:105513  .debug_str:0000000000041d59 .LASF3115
     /tmp/ccghGiGC.s:94103  .debug_str:00000000000131a4 .LASF3116
     /tmp/ccghGiGC.s:93575  .debug_str:0000000000011009 .LASF3117
     /tmp/ccghGiGC.s:103721  .debug_str:000000000003a315 .LASF3118
     /tmp/ccghGiGC.s:108133  .debug_str:000000000004cdb3 .LASF3119
     /tmp/ccghGiGC.s:102087  .debug_str:0000000000033de0 .LASF3120
     /tmp/ccghGiGC.s:103439  .debug_str:0000000000039473 .LASF3121
     /tmp/ccghGiGC.s:103221  .debug_str:0000000000038837 .LASF3122
     /tmp/ccghGiGC.s:89929  .debug_str:000000000000243e .LASF3123
     /tmp/ccghGiGC.s:106725  .debug_str:0000000000046fc5 .LASF3124
     /tmp/ccghGiGC.s:99699  .debug_str:000000000002a3ed .LASF3125
     /tmp/ccghGiGC.s:96815  .debug_str:000000000001e6d3 .LASF3126
     /tmp/ccghGiGC.s:105299  .debug_str:0000000000040d10 .LASF3127
     /tmp/ccghGiGC.s:98761  .debug_str:0000000000026612 .LASF3128
     /tmp/ccghGiGC.s:89627  .debug_str:0000000000000e04 .LASF3129
     /tmp/ccghGiGC.s:105485  .debug_str:0000000000041bae .LASF3130
     /tmp/ccghGiGC.s:93229  .debug_str:000000000000fce4 .LASF3131
     /tmp/ccghGiGC.s:90793  .debug_str:0000000000005db5 .LASF3132
     /tmp/ccghGiGC.s:93669  .debug_str:00000000000115a8 .LASF3133
     /tmp/ccghGiGC.s:92043  .debug_str:000000000000b2dc .LASF3134
     /tmp/ccghGiGC.s:107345  .debug_str:0000000000049862 .LASF3135
     /tmp/ccghGiGC.s:103609  .debug_str:0000000000039d45 .LASF3136
     /tmp/ccghGiGC.s:90711  .debug_str:000000000000582c .LASF3137
     /tmp/ccghGiGC.s:108773  .debug_str:000000000004fa45 .LASF3138
     /tmp/ccghGiGC.s:104069  .debug_str:000000000003bb3e .LASF3139
     /tmp/ccghGiGC.s:102179  .debug_str:000000000003438a .LASF3140
     /tmp/ccghGiGC.s:107867  .debug_str:000000000004bb9d .LASF3141
     /tmp/ccghGiGC.s:107225  .debug_str:0000000000049062 .LASF3142
     /tmp/ccghGiGC.s:98469  .debug_str:000000000002565e .LASF3143
     /tmp/ccghGiGC.s:98367  .debug_str:00000000000250c0 .LASF3144
     /tmp/ccghGiGC.s:89709  .debug_str:000000000000137a .LASF3145
     /tmp/ccghGiGC.s:100731  .debug_str:000000000002e4bb .LASF3146
     /tmp/ccghGiGC.s:108269  .debug_str:000000000004d6e3 .LASF3147
     /tmp/ccghGiGC.s:91685  .debug_str:0000000000009a77 .LASF3148
     /tmp/ccghGiGC.s:105095  .debug_str:000000000003ffb2 .LASF3149
     /tmp/ccghGiGC.s:99995  .debug_str:000000000002b62a .LASF3150
     /tmp/ccghGiGC.s:99313  .debug_str:0000000000028a28 .LASF3151
     /tmp/ccghGiGC.s:93773  .debug_str:0000000000011bcb .LASF3152
     /tmp/ccghGiGC.s:107757  .debug_str:000000000004b42a .LASF3153
     /tmp/ccghGiGC.s:104171  .debug_str:000000000003c286 .LASF3154
     /tmp/ccghGiGC.s:105433  .debug_str:0000000000041859 .LASF3155
     /tmp/ccghGiGC.s:92839  .debug_str:000000000000e69c .LASF3156
     /tmp/ccghGiGC.s:96257  .debug_str:000000000001bf1c .LASF3157
     /tmp/ccghGiGC.s:106745  .debug_str:00000000000470fa .LASF3158
     /tmp/ccghGiGC.s:89527  .debug_str:000000000000079e .LASF3159
     /tmp/ccghGiGC.s:102573  .debug_str:0000000000035f46 .LASF3160
     /tmp/ccghGiGC.s:97527  .debug_str:000000000002181e .LASF3161
     /tmp/ccghGiGC.s:99543  .debug_str:000000000002996f .LASF3162
     /tmp/ccghGiGC.s:97797  .debug_str:0000000000022a0e .LASF3163
     /tmp/ccghGiGC.s:95559  .debug_str:0000000000018ed9 .LASF3164
     /tmp/ccghGiGC.s:90231  .debug_str:00000000000037cb .LASF3165
     /tmp/ccghGiGC.s:104887  .debug_str:000000000003f2a1 .LASF3166
     /tmp/ccghGiGC.s:98393  .debug_str:0000000000025181 .LASF3167
     /tmp/ccghGiGC.s:95825  .debug_str:000000000001a122 .LASF3168
     /tmp/ccghGiGC.s:105605  .debug_str:0000000000042651 .LASF3169
     /tmp/ccghGiGC.s:98581  .debug_str:0000000000025b9e .LASF3170
     /tmp/ccghGiGC.s:97469  .debug_str:000000000002143b .LASF3171
     /tmp/ccghGiGC.s:108869  .debug_str:00000000000500c2 .LASF3172
     /tmp/ccghGiGC.s:89495  .debug_str:000000000000057b .LASF3173
     /tmp/ccghGiGC.s:106551  .debug_str:00000000000464c4 .LASF3174
     /tmp/ccghGiGC.s:99341  .debug_str:0000000000028c79 .LASF3175
     /tmp/ccghGiGC.s:104595  .debug_str:000000000003df9a .LASF3176
     /tmp/ccghGiGC.s:99297  .debug_str:00000000000288fe .LASF3177
     /tmp/ccghGiGC.s:104703  .debug_str:000000000003e6ed .LASF3178
     /tmp/ccghGiGC.s:107295  .debug_str:0000000000049547 .LASF3179
     /tmp/ccghGiGC.s:94995  .debug_str:0000000000016a7b .LASF3180
     /tmp/ccghGiGC.s:97357  .debug_str:0000000000020d44 .LASF3181
     /tmp/ccghGiGC.s:108697  .debug_str:000000000004f4c8 .LASF3182
     /tmp/ccghGiGC.s:106837  .debug_str:0000000000047710 .LASF3183
     /tmp/ccghGiGC.s:101435  .debug_str:000000000003127d .LASF3184
     /tmp/ccghGiGC.s:101439  .debug_str:00000000000312d0 .LASF3185
     /tmp/ccghGiGC.s:98149  .debug_str:00000000000241e1 .LASF3186
     /tmp/ccghGiGC.s:105443  .debug_str:0000000000041919 .LASF3187
     /tmp/ccghGiGC.s:90991  .debug_str:0000000000006ab8 .LASF3188
     /tmp/ccghGiGC.s:94631  .debug_str:000000000001533b .LASF3189
     /tmp/ccghGiGC.s:91473  .debug_str:0000000000008bdf .LASF3190
     /tmp/ccghGiGC.s:100527  .debug_str:000000000002d741 .LASF3191
     /tmp/ccghGiGC.s:106509  .debug_str:00000000000461ff .LASF3192
     /tmp/ccghGiGC.s:105241  .debug_str:00000000000408ac .LASF3193
     /tmp/ccghGiGC.s:89543  .debug_str:0000000000000892 .LASF3194
     /tmp/ccghGiGC.s:101743  .debug_str:0000000000032670 .LASF3195
     /tmp/ccghGiGC.s:91477  .debug_str:0000000000008c28 .LASF3196
     /tmp/ccghGiGC.s:100231  .debug_str:000000000002c587 .LASF3197
     /tmp/ccghGiGC.s:101275  .debug_str:0000000000030830 .LASF3198
     /tmp/ccghGiGC.s:104875  .debug_str:000000000003f1da .LASF3199
     /tmp/ccghGiGC.s:103189  .debug_str:000000000003874c .LASF3200
     /tmp/ccghGiGC.s:90159  .debug_str:000000000000339f .LASF3201
     /tmp/ccghGiGC.s:100355  .debug_str:000000000002ccc3 .LASF3202
     /tmp/ccghGiGC.s:103635  .debug_str:0000000000039e2e .LASF3203
     /tmp/ccghGiGC.s:96231  .debug_str:000000000001bd72 .LASF3204
     /tmp/ccghGiGC.s:94703  .debug_str:0000000000015792 .LASF3205
     /tmp/ccghGiGC.s:102867  .debug_str:00000000000372ac .LASF3206
     /tmp/ccghGiGC.s:106003  .debug_str:0000000000044147 .LASF3207
     /tmp/ccghGiGC.s:104767  .debug_str:000000000003eb69 .LASF3208
     /tmp/ccghGiGC.s:97161  .debug_str:000000000001fedc .LASF3209
     /tmp/ccghGiGC.s:106387  .debug_str:0000000000045a4e .LASF3210
     /tmp/ccghGiGC.s:107777  .debug_str:000000000004b598 .LASF3211
     /tmp/ccghGiGC.s:97311  .debug_str:0000000000020a9d .LASF3212
     /tmp/ccghGiGC.s:95267  .debug_str:0000000000017d7c .LASF3213
     /tmp/ccghGiGC.s:107659  .debug_str:000000000004acf1 .LASF3214
     /tmp/ccghGiGC.s:90875  .debug_str:0000000000006313 .LASF3215
     /tmp/ccghGiGC.s:96429  .debug_str:000000000001cc2b .LASF3216
     /tmp/ccghGiGC.s:106125  .debug_str:0000000000044918 .LASF3217
     /tmp/ccghGiGC.s:99833  .debug_str:000000000002abf4 .LASF3218
     /tmp/ccghGiGC.s:94237  .debug_str:0000000000013ae3 .LASF3219
     /tmp/ccghGiGC.s:99907  .debug_str:000000000002b0f4 .LASF3220
     /tmp/ccghGiGC.s:106905  .debug_str:0000000000047b8f .LASF3221
     /tmp/ccghGiGC.s:105839  .debug_str:000000000004366c .LASF3222
     /tmp/ccghGiGC.s:93857  .debug_str:000000000001218f .LASF3223
     /tmp/ccghGiGC.s:106115  .debug_str:0000000000044879 .LASF3224
     /tmp/ccghGiGC.s:93865  .debug_str:000000000001222b .LASF3225
     /tmp/ccghGiGC.s:93973  .debug_str:0000000000012895 .LASF3226
     /tmp/ccghGiGC.s:97617  .debug_str:0000000000021f09 .LASF3227
     /tmp/ccghGiGC.s:105693  .debug_str:0000000000042cfd .LASF3228
     /tmp/ccghGiGC.s:90713  .debug_str:000000000000586c .LASF3229
     /tmp/ccghGiGC.s:90761  .debug_str:0000000000005bc8 .LASF3230
     /tmp/ccghGiGC.s:102039  .debug_str:0000000000033ad0 .LASF3231
     /tmp/ccghGiGC.s:92395  .debug_str:000000000000cb17 .LASF3232
     /tmp/ccghGiGC.s:99643  .debug_str:000000000002a01a .LASF3233
     /tmp/ccghGiGC.s:104311  .debug_str:000000000003cc36 .LASF3234
     /tmp/ccghGiGC.s:97269  .debug_str:00000000000206d0 .LASF3235
     /tmp/ccghGiGC.s:89995  .debug_str:0000000000002862 .LASF3236
     /tmp/ccghGiGC.s:89729  .debug_str:00000000000014db .LASF3237
     /tmp/ccghGiGC.s:101557  .debug_str:0000000000031ab8 .LASF3238
     /tmp/ccghGiGC.s:105995  .debug_str:000000000004408a .LASF3239
     /tmp/ccghGiGC.s:91439  .debug_str:0000000000008980 .LASF3240
     /tmp/ccghGiGC.s:106623  .debug_str:0000000000046909 .LASF3241
     /tmp/ccghGiGC.s:101127  .debug_str:000000000002fec7 .LASF3242
     /tmp/ccghGiGC.s:96415  .debug_str:000000000001cb2f .LASF3243
     /tmp/ccghGiGC.s:91025  .debug_str:0000000000006d0f .LASF3244
     /tmp/ccghGiGC.s:104607  .debug_str:000000000003e0b4 .LASF3245
     /tmp/ccghGiGC.s:90807  .debug_str:0000000000005ebc .LASF3246
     /tmp/ccghGiGC.s:96881  .debug_str:000000000001eb74 .LASF3247
     /tmp/ccghGiGC.s:98067  .debug_str:0000000000023cb7 .LASF3248
     /tmp/ccghGiGC.s:93609  .debug_str:000000000001117b .LASF3249
     /tmp/ccghGiGC.s:100611  .debug_str:000000000002dcd7 .LASF3250
     /tmp/ccghGiGC.s:104743  .debug_str:000000000003e9c6 .LASF3251
     /tmp/ccghGiGC.s:95361  .debug_str:00000000000182bd .LASF3252
     /tmp/ccghGiGC.s:103577  .debug_str:0000000000039ae1 .LASF3253
     /tmp/ccghGiGC.s:101813  .debug_str:0000000000032b95 .LASF3254
     /tmp/ccghGiGC.s:97947  .debug_str:00000000000233db .LASF3255
     /tmp/ccghGiGC.s:89825  .debug_str:0000000000001c87 .LASF3256
     /tmp/ccghGiGC.s:93485  .debug_str:0000000000010aa2 .LASF3257
     /tmp/ccghGiGC.s:97297  .debug_str:000000000002094c .LASF3258
     /tmp/ccghGiGC.s:92219  .debug_str:000000000000bfc9 .LASF3259
     /tmp/ccghGiGC.s:105797  .debug_str:000000000004336e .LASF3260
     /tmp/ccghGiGC.s:91381  .debug_str:0000000000008561 .LASF3261
     /tmp/ccghGiGC.s:92365  .debug_str:000000000000c8ef .LASF3262
     /tmp/ccghGiGC.s:96277  .debug_str:000000000001c099 .LASF3263
     /tmp/ccghGiGC.s:91783  .debug_str:000000000000a119 .LASF3264
     /tmp/ccghGiGC.s:104739  .debug_str:000000000003e968 .LASF3265
     /tmp/ccghGiGC.s:94449  .debug_str:000000000001483a .LASF3266
     /tmp/ccghGiGC.s:93759  .debug_str:0000000000011adb .LASF3267
     /tmp/ccghGiGC.s:99161  .debug_str:0000000000027fd7 .LASF3268
     /tmp/ccghGiGC.s:91359  .debug_str:00000000000083c1 .LASF3269
     /tmp/ccghGiGC.s:90249  .debug_str:0000000000003941 .LASF3270
     /tmp/ccghGiGC.s:102453  .debug_str:0000000000035663 .LASF3271
     /tmp/ccghGiGC.s:101041  .debug_str:000000000002f9c2 .LASF3272
     /tmp/ccghGiGC.s:108443  .debug_str:000000000004e408 .LASF3273
     /tmp/ccghGiGC.s:108823  .debug_str:000000000004fda1 .LASF3274
     /tmp/ccghGiGC.s:96093  .debug_str:000000000001b40a .LASF3275
     /tmp/ccghGiGC.s:91033  .debug_str:0000000000006dd8 .LASF3276
     /tmp/ccghGiGC.s:105663  .debug_str:0000000000042add .LASF3277
     /tmp/ccghGiGC.s:91557  .debug_str:000000000000919e .LASF3278
     /tmp/ccghGiGC.s:108337  .debug_str:000000000004dc2f .LASF3279
     /tmp/ccghGiGC.s:92003  .debug_str:000000000000aff8 .LASF3280
     /tmp/ccghGiGC.s:104473  .debug_str:000000000003d648 .LASF3281
     /tmp/ccghGiGC.s:99413  .debug_str:000000000002915c .LASF3282
     /tmp/ccghGiGC.s:94115  .debug_str:00000000000132c0 .LASF3283
     /tmp/ccghGiGC.s:105615  .debug_str:0000000000042715 .LASF3284
     /tmp/ccghGiGC.s:104001  .debug_str:000000000003b6eb .LASF3285
     /tmp/ccghGiGC.s:98897  .debug_str:0000000000026f01 .LASF3286
     /tmp/ccghGiGC.s:102483  .debug_str:000000000003586a .LASF3287
     /tmp/ccghGiGC.s:106609  .debug_str:0000000000046854 .LASF3288
     /tmp/ccghGiGC.s:104219  .debug_str:000000000003c63c .LASF3289
     /tmp/ccghGiGC.s:91055  .debug_str:0000000000006fcf .LASF3290
     /tmp/ccghGiGC.s:107153  .debug_str:0000000000048bda .LASF3291
     /tmp/ccghGiGC.s:104269  .debug_str:000000000003c9ff .LASF3292
     /tmp/ccghGiGC.s:95179  .debug_str:0000000000017697 .LASF3293
     /tmp/ccghGiGC.s:96839  .debug_str:000000000001e866 .LASF3294
     /tmp/ccghGiGC.s:91867  .debug_str:000000000000a660 .LASF3295
     /tmp/ccghGiGC.s:94451  .debug_str:0000000000014878 .LASF3296
     /tmp/ccghGiGC.s:94709  .debug_str:0000000000015821 .LASF3297
     /tmp/ccghGiGC.s:92499  .debug_str:000000000000d254 .LASF3298
     /tmp/ccghGiGC.s:105317  .debug_str:0000000000040f4c .LASF3299
     /tmp/ccghGiGC.s:106829  .debug_str:0000000000047675 .LASF3300
     /tmp/ccghGiGC.s:100015  .debug_str:000000000002b82b .LASF3301
     /tmp/ccghGiGC.s:107753  .debug_str:000000000004b3dc .LASF3302
     /tmp/ccghGiGC.s:89917  .debug_str:0000000000002370 .LASF3303
     /tmp/ccghGiGC.s:93801  .debug_str:0000000000011dc7 .LASF3304
     /tmp/ccghGiGC.s:101753  .debug_str:000000000003278d .LASF3305
     /tmp/ccghGiGC.s:107493  .debug_str:000000000004a21f .LASF3306
     /tmp/ccghGiGC.s:102027  .debug_str:0000000000033a02 .LASF3307
     /tmp/ccghGiGC.s:105371  .debug_str:000000000004134a .LASF3308
     /tmp/ccghGiGC.s:102043  .debug_str:0000000000033b1b .LASF3309
     /tmp/ccghGiGC.s:90539  .debug_str:0000000000004d4e .LASF3310
     /tmp/ccghGiGC.s:91739  .debug_str:0000000000009e99 .LASF3311
     /tmp/ccghGiGC.s:102333  .debug_str:0000000000034e6c .LASF3312
     /tmp/ccghGiGC.s:95879  .debug_str:000000000001a522 .LASF3313
     /tmp/ccghGiGC.s:100595  .debug_str:000000000002db8b .LASF3314
     /tmp/ccghGiGC.s:100807  .debug_str:000000000002e9ae .LASF3315
     /tmp/ccghGiGC.s:103803  .debug_str:000000000003a903 .LASF3316
     /tmp/ccghGiGC.s:103723  .debug_str:000000000003a356 .LASF3317
     /tmp/ccghGiGC.s:91929  .debug_str:000000000000aae9 .LASF3318
     /tmp/ccghGiGC.s:97615  .debug_str:0000000000021ebd .LASF3319
     /tmp/ccghGiGC.s:103015  .debug_str:0000000000037c93 .LASF3320
     /tmp/ccghGiGC.s:101013  .debug_str:000000000002f772 .LASF3321
     /tmp/ccghGiGC.s:94721  .debug_str:0000000000015910 .LASF3322
     /tmp/ccghGiGC.s:108171  .debug_str:000000000004d0ad .LASF3323
     /tmp/ccghGiGC.s:105001  .debug_str:000000000003f9c8 .LASF3324
     /tmp/ccghGiGC.s:107479  .debug_str:000000000004a10b .LASF3325
     /tmp/ccghGiGC.s:95959  .debug_str:000000000001aafb .LASF3326
     /tmp/ccghGiGC.s:96995  .debug_str:000000000001f2ac .LASF3327
     /tmp/ccghGiGC.s:106375  .debug_str:0000000000045967 .LASF3328
     /tmp/ccghGiGC.s:92643  .debug_str:000000000000dba3 .LASF3329
     /tmp/ccghGiGC.s:104225  .debug_str:000000000003c6d4 .LASF3330
     /tmp/ccghGiGC.s:103503  .debug_str:000000000003975f .LASF3331
     /tmp/ccghGiGC.s:95079  .debug_str:000000000001703b .LASF3332
     /tmp/ccghGiGC.s:94567  .debug_str:0000000000014f22 .LASF3333
     /tmp/ccghGiGC.s:101923  .debug_str:00000000000332b9 .LASF3334
     /tmp/ccghGiGC.s:105215  .debug_str:00000000000406c7 .LASF3335
     /tmp/ccghGiGC.s:96441  .debug_str:000000000001cd03 .LASF3336
     /tmp/ccghGiGC.s:104227  .debug_str:000000000003c717 .LASF3337
     /tmp/ccghGiGC.s:104605  .debug_str:000000000003e071 .LASF3338
     /tmp/ccghGiGC.s:95087  .debug_str:00000000000170d0 .LASF3339
     /tmp/ccghGiGC.s:105351  .debug_str:00000000000411c5 .LASF3340
     /tmp/ccghGiGC.s:107031  .debug_str:0000000000048429 .LASF3341
     /tmp/ccghGiGC.s:100997  .debug_str:000000000002f662 .LASF3342
     /tmp/ccghGiGC.s:94715  .debug_str:00000000000158a6 .LASF3343
     /tmp/ccghGiGC.s:91249  .debug_str:0000000000007c83 .LASF3344
     /tmp/ccghGiGC.s:101063  .debug_str:000000000002faeb .LASF3345
     /tmp/ccghGiGC.s:92353  .debug_str:000000000000c7f9 .LASF3346
     /tmp/ccghGiGC.s:104637  .debug_str:000000000003e29a .LASF3347
     /tmp/ccghGiGC.s:99443  .debug_str:00000000000293a5 .LASF3348
     /tmp/ccghGiGC.s:108077  .debug_str:000000000004c9d7 .LASF3349
     /tmp/ccghGiGC.s:103173  .debug_str:00000000000385fc .LASF3350
     /tmp/ccghGiGC.s:105843  .debug_str:00000000000436c8 .LASF3351
     /tmp/ccghGiGC.s:98217  .debug_str:0000000000024688 .LASF3352
     /tmp/ccghGiGC.s:91401  .debug_str:00000000000086f5 .LASF3353
     /tmp/ccghGiGC.s:103297  .debug_str:0000000000038c53 .LASF3354
     /tmp/ccghGiGC.s:99983  .debug_str:000000000002b555 .LASF3355
     /tmp/ccghGiGC.s:101085  .debug_str:000000000002fc6d .LASF3356
     /tmp/ccghGiGC.s:108603  .debug_str:000000000004ee49 .LASF3357
     /tmp/ccghGiGC.s:90983  .debug_str:0000000000006a25 .LASF3358
     /tmp/ccghGiGC.s:102329  .debug_str:0000000000034df1 .LASF3359
     /tmp/ccghGiGC.s:107043  .debug_str:0000000000048502 .LASF3360
     /tmp/ccghGiGC.s:97291  .debug_str:00000000000208af .LASF3361
     /tmp/ccghGiGC.s:96961  .debug_str:000000000001f039 .LASF3362
     /tmp/ccghGiGC.s:106395  .debug_str:0000000000045ae8 .LASF3363
     /tmp/ccghGiGC.s:91523  .debug_str:0000000000008f3a .LASF3364
     /tmp/ccghGiGC.s:103469  .debug_str:0000000000039550 .LASF3365
     /tmp/ccghGiGC.s:96677  .debug_str:000000000001dce4 .LASF3366
     /tmp/ccghGiGC.s:97677  .debug_str:0000000000022262 .LASF3367
     /tmp/ccghGiGC.s:104339  .debug_str:000000000003cdf1 .LASF3368
     /tmp/ccghGiGC.s:94889  .debug_str:000000000001633b .LASF3369
     /tmp/ccghGiGC.s:108391  .debug_str:000000000004e0ba .LASF3370
     /tmp/ccghGiGC.s:100079  .debug_str:000000000002bc6c .LASF3371
     /tmp/ccghGiGC.s:93233  .debug_str:000000000000fd4d .LASF3372
     /tmp/ccghGiGC.s:100931  .debug_str:000000000002f191 .LASF3373
     /tmp/ccghGiGC.s:98357  .debug_str:0000000000024fd2 .LASF3374
     /tmp/ccghGiGC.s:90995  .debug_str:0000000000006b19 .LASF3375
     /tmp/ccghGiGC.s:95887  .debug_str:000000000001a5e2 .LASF3376
     /tmp/ccghGiGC.s:95951  .debug_str:000000000001aa71 .LASF3377
     /tmp/ccghGiGC.s:96233  .debug_str:000000000001bdb5 .LASF3378
     /tmp/ccghGiGC.s:100803  .debug_str:000000000002e94d .LASF3379
     /tmp/ccghGiGC.s:91681  .debug_str:00000000000099e6 .LASF3380
     /tmp/ccghGiGC.s:104085  .debug_str:000000000003bc17 .LASF3381
     /tmp/ccghGiGC.s:91035  .debug_str:0000000000006e13 .LASF3382
     /tmp/ccghGiGC.s:96705  .debug_str:000000000001df37 .LASF3383
     /tmp/ccghGiGC.s:101149  .debug_str:0000000000030035 .LASF3384
     /tmp/ccghGiGC.s:94775  .debug_str:0000000000015d1c .LASF3385
     /tmp/ccghGiGC.s:92115  .debug_str:000000000000b7bb .LASF3386
     /tmp/ccghGiGC.s:105183  .debug_str:0000000000040518 .LASF3387
     /tmp/ccghGiGC.s:91479  .debug_str:0000000000008c69 .LASF3388
     /tmp/ccghGiGC.s:96141  .debug_str:000000000001b725 .LASF3389
     /tmp/ccghGiGC.s:105879  .debug_str:00000000000438df .LASF3390
     /tmp/ccghGiGC.s:101991  .debug_str:0000000000033725 .LASF3391
     /tmp/ccghGiGC.s:97045  .debug_str:000000000001f6cc .LASF3392
     /tmp/ccghGiGC.s:106839  .debug_str:0000000000047751 .LASF3393
     /tmp/ccghGiGC.s:98893  .debug_str:0000000000026e9d .LASF3394
     /tmp/ccghGiGC.s:103307  .debug_str:0000000000038d30 .LASF3395
     /tmp/ccghGiGC.s:99067  .debug_str:0000000000027928 .LASF3396
     /tmp/ccghGiGC.s:94149  .debug_str:0000000000013570 .LASF3397
     /tmp/ccghGiGC.s:97967  .debug_str:0000000000023571 .LASF3398
     /tmp/ccghGiGC.s:102439  .debug_str:0000000000035563 .LASF3399
     /tmp/ccghGiGC.s:90115  .debug_str:00000000000030ae .LASF3400
     /tmp/ccghGiGC.s:95515  .debug_str:0000000000018c3a .LASF3401
     /tmp/ccghGiGC.s:89563  .debug_str:0000000000000a0d .LASF3402
     /tmp/ccghGiGC.s:97213  .debug_str:000000000002033b .LASF3403
     /tmp/ccghGiGC.s:104599  .debug_str:000000000003dfea .LASF3404
     /tmp/ccghGiGC.s:90845  .debug_str:000000000000612c .LASF3405
     /tmp/ccghGiGC.s:96327  .debug_str:000000000001c3fe .LASF3406
     /tmp/ccghGiGC.s:96583  .debug_str:000000000001d5ed .LASF3407
     /tmp/ccghGiGC.s:90691  .debug_str:000000000000570c .LASF3408
     /tmp/ccghGiGC.s:95565  .debug_str:0000000000018f5d .LASF3409
     /tmp/ccghGiGC.s:101543  .debug_str:000000000003198f .LASF3410
     /tmp/ccghGiGC.s:104763  .debug_str:000000000003eb10 .LASF3411
     /tmp/ccghGiGC.s:96315  .debug_str:000000000001c33d .LASF3412
     /tmp/ccghGiGC.s:100963  .debug_str:000000000002f39b .LASF3413
     /tmp/ccghGiGC.s:95377  .debug_str:00000000000183fc .LASF3414
     /tmp/ccghGiGC.s:107249  .debug_str:000000000004920f .LASF3415
     /tmp/ccghGiGC.s:108023  .debug_str:000000000004c5ff .LASF3416
     /tmp/ccghGiGC.s:99073  .debug_str:00000000000279a4 .LASF3417
     /tmp/ccghGiGC.s:99451  .debug_str:0000000000029462 .LASF3418
     /tmp/ccghGiGC.s:91869  .debug_str:000000000000a6a7 .LASF3419
     /tmp/ccghGiGC.s:107793  .debug_str:000000000004b6a0 .LASF3420
     /tmp/ccghGiGC.s:94063  .debug_str:0000000000012ef8 .LASF3421
     /tmp/ccghGiGC.s:103099  .debug_str:00000000000381e4 .LASF3422
     /tmp/ccghGiGC.s:101761  .debug_str:0000000000032825 .LASF3423
     /tmp/ccghGiGC.s:98057  .debug_str:0000000000023c18 .LASF3424
     /tmp/ccghGiGC.s:103761  .debug_str:000000000003a611 .LASF3425
     /tmp/ccghGiGC.s:93213  .debug_str:000000000000fb86 .LASF3426
     /tmp/ccghGiGC.s:93649  .debug_str:000000000001142c .LASF3427
     /tmp/ccghGiGC.s:91121  .debug_str:00000000000074b0 .LASF3428
     /tmp/ccghGiGC.s:93437  .debug_str:00000000000107ee .LASF3429
     /tmp/ccghGiGC.s:104121  .debug_str:000000000003bed4 .LASF3430
     /tmp/ccghGiGC.s:100875  .debug_str:000000000002ee46 .LASF3431
     /tmp/ccghGiGC.s:89877  .debug_str:000000000000206e .LASF3432
     /tmp/ccghGiGC.s:95591  .debug_str:0000000000019112 .LASF3433
     /tmp/ccghGiGC.s:94021  .debug_str:0000000000012c20 .LASF3434
     /tmp/ccghGiGC.s:100993  .debug_str:000000000002f5ea .LASF3435
     /tmp/ccghGiGC.s:91399  .debug_str:00000000000086bb .LASF3436
     /tmp/ccghGiGC.s:105921  .debug_str:0000000000043bff .LASF3437
     /tmp/ccghGiGC.s:104919  .debug_str:000000000003f4c8 .LASF3438
     /tmp/ccghGiGC.s:107123  .debug_str:0000000000048a26 .LASF3439
     /tmp/ccghGiGC.s:102003  .debug_str:0000000000033823 .LASF3440
     /tmp/ccghGiGC.s:97537  .debug_str:00000000000218e5 .LASF3441
     /tmp/ccghGiGC.s:97427  .debug_str:0000000000021141 .LASF3442
     /tmp/ccghGiGC.s:105009  .debug_str:000000000003fa6f .LASF3443
     /tmp/ccghGiGC.s:90747  .debug_str:0000000000005ae9 .LASF3444
     /tmp/ccghGiGC.s:105405  .debug_str:000000000004165f .LASF3445
     /tmp/ccghGiGC.s:106877  .debug_str:00000000000479b2 .LASF3446
     /tmp/ccghGiGC.s:96611  .debug_str:000000000001d7fe .LASF3447
     /tmp/ccghGiGC.s:94953  .debug_str:0000000000016748 .LASF3448
     /tmp/ccghGiGC.s:107243  .debug_str:00000000000491a0 .LASF3449
     /tmp/ccghGiGC.s:105347  .debug_str:0000000000041160 .LASF3450
     /tmp/ccghGiGC.s:99719  .debug_str:000000000002a544 .LASF3451
     /tmp/ccghGiGC.s:103559  .debug_str:00000000000399e6 .LASF3452
     /tmp/ccghGiGC.s:90785  .debug_str:0000000000005d4c .LASF3453
     /tmp/ccghGiGC.s:90329  .debug_str:0000000000003e79 .LASF3454
     /tmp/ccghGiGC.s:96187  .debug_str:000000000001ba15 .LASF3455
     /tmp/ccghGiGC.s:100899  .debug_str:000000000002efa6 .LASF3456
     /tmp/ccghGiGC.s:92563  .debug_str:000000000000d684 .LASF3457
     /tmp/ccghGiGC.s:91615  .debug_str:0000000000009588 .LASF3458
     /tmp/ccghGiGC.s:91513  .debug_str:0000000000008e59 .LASF3459
     /tmp/ccghGiGC.s:105993  .debug_str:0000000000044047 .LASF3460
     /tmp/ccghGiGC.s:102139  .debug_str:0000000000034131 .LASF3461
     /tmp/ccghGiGC.s:99635  .debug_str:0000000000029f90 .LASF3462
     /tmp/ccghGiGC.s:96199  .debug_str:000000000001bb15 .LASF3463
     /tmp/ccghGiGC.s:93441  .debug_str:000000000001083a .LASF3464
     /tmp/ccghGiGC.s:104849  .debug_str:000000000003f01b .LASF3465
     /tmp/ccghGiGC.s:97299  .debug_str:0000000000020995 .LASF3466
     /tmp/ccghGiGC.s:91539  .debug_str:0000000000009075 .LASF3467
     /tmp/ccghGiGC.s:96413  .debug_str:000000000001caee .LASF3468
     /tmp/ccghGiGC.s:96531  .debug_str:000000000001d2ab .LASF3469
     /tmp/ccghGiGC.s:92623  .debug_str:000000000000da69 .LASF3470
     /tmp/ccghGiGC.s:94851  .debug_str:00000000000160e0 .LASF3471
     /tmp/ccghGiGC.s:105483  .debug_str:0000000000041b63 .LASF3472
     /tmp/ccghGiGC.s:106517  .debug_str:000000000004627b .LASF3473
     /tmp/ccghGiGC.s:104189  .debug_str:000000000003c3e2 .LASF3474
     /tmp/ccghGiGC.s:107475  .debug_str:000000000004a0ad .LASF3475
     /tmp/ccghGiGC.s:103841  .debug_str:000000000003abc4 .LASF3476
     /tmp/ccghGiGC.s:104551  .debug_str:000000000003dc0f .LASF3477
     /tmp/ccghGiGC.s:93731  .debug_str:00000000000118e3 .LASF3478
     /tmp/ccghGiGC.s:97771  .debug_str:000000000002285d .LASF3479
     /tmp/ccghGiGC.s:103341  .debug_str:0000000000038f54 .LASF3480
     /tmp/ccghGiGC.s:93931  .debug_str:000000000001263c .LASF3481
     /tmp/ccghGiGC.s:91531  .debug_str:0000000000008fc9 .LASF3482
     /tmp/ccghGiGC.s:108619  .debug_str:000000000004ef92 .LASF3483
     /tmp/ccghGiGC.s:103477  .debug_str:00000000000395c9 .LASF3484
     /tmp/ccghGiGC.s:103939  .debug_str:000000000003b289 .LASF3485
     /tmp/ccghGiGC.s:95657  .debug_str:0000000000019604 .LASF3486
     /tmp/ccghGiGC.s:98879  .debug_str:0000000000026da0 .LASF3487
     /tmp/ccghGiGC.s:90663  .debug_str:00000000000054d0 .LASF3488
     /tmp/ccghGiGC.s:104095  .debug_str:000000000003bce7 .LASF3489
     /tmp/ccghGiGC.s:90455  .debug_str:0000000000004748 .LASF3490
     /tmp/ccghGiGC.s:106599  .debug_str:0000000000046783 .LASF3491
     /tmp/ccghGiGC.s:98831  .debug_str:0000000000026a49 .LASF3492
     /tmp/ccghGiGC.s:99339  .debug_str:0000000000028c39 .LASF3493
     /tmp/ccghGiGC.s:104591  .debug_str:000000000003df2a .LASF3494
     /tmp/ccghGiGC.s:92369  .debug_str:000000000000c94d .LASF3495
     /tmp/ccghGiGC.s:92427  .debug_str:000000000000cda0 .LASF3496
     /tmp/ccghGiGC.s:107367  .debug_str:0000000000049977 .LASF3497
     /tmp/ccghGiGC.s:108409  .debug_str:000000000004e205 .LASF3498
     /tmp/ccghGiGC.s:95053  .debug_str:0000000000016e8a .LASF3499
     /tmp/ccghGiGC.s:94281  .debug_str:0000000000013da2 .LASF3500
     /tmp/ccghGiGC.s:94913  .debug_str:000000000001650f .LASF3501
     /tmp/ccghGiGC.s:103107  .debug_str:000000000003826f .LASF3502
     /tmp/ccghGiGC.s:106521  .debug_str:00000000000462f5 .LASF3503
     /tmp/ccghGiGC.s:105121  .debug_str:0000000000040137 .LASF3504
     /tmp/ccghGiGC.s:108199  .debug_str:000000000004d295 .LASF3505
     /tmp/ccghGiGC.s:96065  .debug_str:000000000001b238 .LASF3506
     /tmp/ccghGiGC.s:103837  .debug_str:000000000003ab74 .LASF3507
     /tmp/ccghGiGC.s:100909  .debug_str:000000000002f050 .LASF3508
     /tmp/ccghGiGC.s:104417  .debug_str:000000000003d2ec .LASF3509
     /tmp/ccghGiGC.s:91877  .debug_str:000000000000a771 .LASF3510
     /tmp/ccghGiGC.s:95119  .debug_str:00000000000172b2 .LASF3511
     /tmp/ccghGiGC.s:105569  .debug_str:00000000000423e4 .LASF3512
     /tmp/ccghGiGC.s:97039  .debug_str:000000000001f668 .LASF3513
     /tmp/ccghGiGC.s:104043  .debug_str:000000000003b9a4 .LASF3514
     /tmp/ccghGiGC.s:107419  .debug_str:0000000000049d38 .LASF3515
     /tmp/ccghGiGC.s:95117  .debug_str:0000000000017277 .LASF3516
     /tmp/ccghGiGC.s:98343  .debug_str:0000000000024efb .LASF3517
     /tmp/ccghGiGC.s:105773  .debug_str:000000000004318d .LASF3518
     /tmp/ccghGiGC.s:91099  .debug_str:000000000000730f .LASF3519
     /tmp/ccghGiGC.s:106311  .debug_str:00000000000454ae .LASF3520
     /tmp/ccghGiGC.s:97515  .debug_str:000000000002173b .LASF3521
     /tmp/ccghGiGC.s:96289  .debug_str:000000000001c1a3 .LASF3522
     /tmp/ccghGiGC.s:96627  .debug_str:000000000001d922 .LASF3523
     /tmp/ccghGiGC.s:89493  .debug_str:000000000000053c .LASF3524
     /tmp/ccghGiGC.s:102419  .debug_str:00000000000353b3 .LASF3525
     /tmp/ccghGiGC.s:100117  .debug_str:000000000002be0b .LASF3526
     /tmp/ccghGiGC.s:100531  .debug_str:000000000002d791 .LASF3527
     /tmp/ccghGiGC.s:106473  .debug_str:0000000000045f9c .LASF3528
     /tmp/ccghGiGC.s:104039  .debug_str:000000000003b951 .LASF3529
     /tmp/ccghGiGC.s:102189  .debug_str:0000000000034437 .LASF3530
     /tmp/ccghGiGC.s:90599  .debug_str:00000000000050fd .LASF3531
     /tmp/ccghGiGC.s:108381  .debug_str:000000000004dfea .LASF3532
     /tmp/ccghGiGC.s:93899  .debug_str:00000000000124b1 .LASF3533
     /tmp/ccghGiGC.s:101551  .debug_str:0000000000031a55 .LASF3534
     /tmp/ccghGiGC.s:107377  .debug_str:0000000000049a46 .LASF3535
     /tmp/ccghGiGC.s:107789  .debug_str:000000000004b651 .LASF3536
     /tmp/ccghGiGC.s:94973  .debug_str:00000000000168e0 .LASF3537
     /tmp/ccghGiGC.s:100723  .debug_str:000000000002e425 .LASF3538
     /tmp/ccghGiGC.s:106751  .debug_str:0000000000047165 .LASF3539
     /tmp/ccghGiGC.s:102565  .debug_str:0000000000035ebb .LASF3540
     /tmp/ccghGiGC.s:99075  .debug_str:00000000000279eb .LASF3541
     /tmp/ccghGiGC.s:99739  .debug_str:000000000002a6a8 .LASF3542
     /tmp/ccghGiGC.s:98155  .debug_str:0000000000024262 .LASF3543
     /tmp/ccghGiGC.s:90573  .debug_str:0000000000004f78 .LASF3544
     /tmp/ccghGiGC.s:107651  .debug_str:000000000004ac57 .LASF3545
     /tmp/ccghGiGC.s:104083  .debug_str:000000000003bbdb .LASF3546
     /tmp/ccghGiGC.s:97037  .debug_str:000000000001f624 .LASF3547
     /tmp/ccghGiGC.s:104617  .debug_str:000000000003e148 .LASF3548
     /tmp/ccghGiGC.s:107215  .debug_str:0000000000048fd7 .LASF3549
     /tmp/ccghGiGC.s:91173  .debug_str:00000000000077a3 .LASF3550
     /tmp/ccghGiGC.s:107195  .debug_str:0000000000048e6f .LASF3551
     /tmp/ccghGiGC.s:102779  .debug_str:0000000000036d07 .LASF3552
     /tmp/ccghGiGC.s:95145  .debug_str:0000000000017482 .LASF3553
     /tmp/ccghGiGC.s:108711  .debug_str:000000000004f594 .LASF3554
     /tmp/ccghGiGC.s:99607  .debug_str:0000000000029da7 .LASF3555
     /tmp/ccghGiGC.s:90861  .debug_str:000000000000622a .LASF3556
     /tmp/ccghGiGC.s:106103  .debug_str:000000000004476b .LASF3557
     /tmp/ccghGiGC.s:105833  .debug_str:00000000000435eb .LASF3558
     /tmp/ccghGiGC.s:91533  .debug_str:000000000000900d .LASF3559
     /tmp/ccghGiGC.s:94263  .debug_str:0000000000013cb1 .LASF3560
     /tmp/ccghGiGC.s:93187  .debug_str:000000000000f99a .LASF3561
     /tmp/ccghGiGC.s:91851  .debug_str:000000000000a53e .LASF3562
     /tmp/ccghGiGC.s:108737  .debug_str:000000000004f736 .LASF3563
     /tmp/ccghGiGC.s:95697  .debug_str:00000000000198be .LASF3564
     /tmp/ccghGiGC.s:93123  .debug_str:000000000000f58f .LASF3565
     /tmp/ccghGiGC.s:89891  .debug_str:0000000000002170 .LASF3566
     /tmp/ccghGiGC.s:99663  .debug_str:000000000002a168 .LASF3567
     /tmp/ccghGiGC.s:108063  .debug_str:000000000004c8c2 .LASF3568
     /tmp/ccghGiGC.s:102327  .debug_str:0000000000034db3 .LASF3569
     /tmp/ccghGiGC.s:94675  .debug_str:0000000000015607 .LASF3570
     /tmp/ccghGiGC.s:101501  .debug_str:00000000000316bb .LASF3571
     /tmp/ccghGiGC.s:105597  .debug_str:000000000004259b .LASF3572
     /tmp/ccghGiGC.s:108253  .debug_str:000000000004d5b9 .LASF3573
     /tmp/ccghGiGC.s:92191  .debug_str:000000000000bdad .LASF3574
     /tmp/ccghGiGC.s:101077  .debug_str:000000000002fbe0 .LASF3575
     /tmp/ccghGiGC.s:105775  .debug_str:00000000000431c8 .LASF3576
     /tmp/ccghGiGC.s:103859  .debug_str:000000000003acdd .LASF3577
     /tmp/ccghGiGC.s:96701  .debug_str:000000000001ded8 .LASF3578
     /tmp/ccghGiGC.s:98585  .debug_str:0000000000025bf7 .LASF3579
     /tmp/ccghGiGC.s:102233  .debug_str:0000000000034725 .LASF3580
     /tmp/ccghGiGC.s:93851  .debug_str:000000000001211b .LASF3581
     /tmp/ccghGiGC.s:95819  .debug_str:000000000001a0ac .LASF3582
     /tmp/ccghGiGC.s:102607  .debug_str:00000000000361f4 .LASF3583
     /tmp/ccghGiGC.s:95745  .debug_str:0000000000019c0f .LASF3584
     /tmp/ccghGiGC.s:90641  .debug_str:0000000000005371 .LASF3585
     /tmp/ccghGiGC.s:89491  .debug_str:00000000000004f5 .LASF3586
     /tmp/ccghGiGC.s:105313  .debug_str:0000000000040ef8 .LASF3587
     /tmp/ccghGiGC.s:91045  .debug_str:0000000000006ecc .LASF3588
     /tmp/ccghGiGC.s:90065  .debug_str:0000000000002d30 .LASF3589
     /tmp/ccghGiGC.s:96067  .debug_str:000000000001b276 .LASF3590
     /tmp/ccghGiGC.s:93789  .debug_str:0000000000011cd6 .LASF3591
     /tmp/ccghGiGC.s:94961  .debug_str:00000000000167d3 .LASF3592
     /tmp/ccghGiGC.s:97001  .debug_str:000000000001f33b .LASF3593
     /tmp/ccghGiGC.s:90227  .debug_str:0000000000003773 .LASF3594
     /tmp/ccghGiGC.s:89441  .debug_str:0000000000000181 .LASF3595
     /tmp/ccghGiGC.s:97699  .debug_str:000000000002237a .LASF3596
     /tmp/ccghGiGC.s:89781  .debug_str:0000000000001953 .LASF3597
     /tmp/ccghGiGC.s:98287  .debug_str:0000000000024b85 .LASF3598
     /tmp/ccghGiGC.s:104109  .debug_str:000000000003be04 .LASF3599
     /tmp/ccghGiGC.s:89571  .debug_str:0000000000000ab6 .LASF3600
     /tmp/ccghGiGC.s:89811  .debug_str:0000000000001b74 .LASF3601
     /tmp/ccghGiGC.s:102467  .debug_str:000000000003575d .LASF3602
     /tmp/ccghGiGC.s:91163  .debug_str:00000000000076c2 .LASF3603
     /tmp/ccghGiGC.s:91003  .debug_str:0000000000006bbf .LASF3604
     /tmp/ccghGiGC.s:105939  .debug_str:0000000000043cde .LASF3605
     /tmp/ccghGiGC.s:96847  .debug_str:000000000001e8d2 .LASF3606
     /tmp/ccghGiGC.s:101211  .debug_str:00000000000303fa .LASF3607
     /tmp/ccghGiGC.s:99207  .debug_str:0000000000028312 .LASF3608
     /tmp/ccghGiGC.s:96191  .debug_str:000000000001ba6d .LASF3609
     /tmp/ccghGiGC.s:108681  .debug_str:000000000004f3ef .LASF3610
     /tmp/ccghGiGC.s:91411  .debug_str:00000000000087ad .LASF3611
     /tmp/ccghGiGC.s:108659  .debug_str:000000000004f28d .LASF3612
     /tmp/ccghGiGC.s:107795  .debug_str:000000000004b6dc .LASF3613
     /tmp/ccghGiGC.s:96745  .debug_str:000000000001e1bb .LASF3614
     /tmp/ccghGiGC.s:92513  .debug_str:000000000000d367 .LASF3615
     /tmp/ccghGiGC.s:101031  .debug_str:000000000002f8df .LASF3616
     /tmp/ccghGiGC.s:93961  .debug_str:00000000000127f6 .LASF3617
     /tmp/ccghGiGC.s:104371  .debug_str:000000000003d021 .LASF3618
     /tmp/ccghGiGC.s:108873  .debug_str:000000000005011b .LASF3619
     /tmp/ccghGiGC.s:89789  .debug_str:00000000000019fd .LASF3620
     /tmp/ccghGiGC.s:108369  .debug_str:000000000004dedd .LASF3621
     /tmp/ccghGiGC.s:92931  .debug_str:000000000000eb76 .LASF3622
     /tmp/ccghGiGC.s:103097  .debug_str:00000000000381a0 .LASF3623
     /tmp/ccghGiGC.s:108347  .debug_str:000000000004dcf9 .LASF3624
     /tmp/ccghGiGC.s:92929  .debug_str:000000000000eb33 .LASF3625
     /tmp/ccghGiGC.s:103733  .debug_str:000000000003a453 .LASF3626
     /tmp/ccghGiGC.s:102669  .debug_str:00000000000365c2 .LASF3627
     /tmp/ccghGiGC.s:104511  .debug_str:000000000003d911 .LASF3628
     /tmp/ccghGiGC.s:96817  .debug_str:000000000001e715 .LASF3629
     /tmp/ccghGiGC.s:94975  .debug_str:0000000000016927 .LASF3630
     /tmp/ccghGiGC.s:93391  .debug_str:00000000000105a2 .LASF3631
     /tmp/ccghGiGC.s:105825  .debug_str:000000000004354b .LASF3632
     /tmp/ccghGiGC.s:90493  .debug_str:0000000000004a2f .LASF3633
     /tmp/ccghGiGC.s:96807  .debug_str:000000000001e613 .LASF3634
     /tmp/ccghGiGC.s:92843  .debug_str:000000000000e70d .LASF3635
     /tmp/ccghGiGC.s:106207  .debug_str:0000000000044e85 .LASF3636
     /tmp/ccghGiGC.s:103427  .debug_str:00000000000393ad .LASF3637
     /tmp/ccghGiGC.s:99743  .debug_str:000000000002a6f6 .LASF3638
     /tmp/ccghGiGC.s:94255  .debug_str:0000000000013c17 .LASF3639
     /tmp/ccghGiGC.s:108191  .debug_str:000000000004d21f .LASF3640
     /tmp/ccghGiGC.s:91601  .debug_str:00000000000094ad .LASF3641
     /tmp/ccghGiGC.s:98165  .debug_str:000000000002431d .LASF3642
     /tmp/ccghGiGC.s:106487  .debug_str:00000000000460b8 .LASF3643
     /tmp/ccghGiGC.s:92073  .debug_str:000000000000b534 .LASF3644
     /tmp/ccghGiGC.s:102973  .debug_str:000000000003798c .LASF3645
     /tmp/ccghGiGC.s:92835  .debug_str:000000000000e64f .LASF3646
     /tmp/ccghGiGC.s:105283  .debug_str:0000000000040bdb .LASF3647
     /tmp/ccghGiGC.s:103785  .debug_str:000000000003a7c3 .LASF3648
     /tmp/ccghGiGC.s:91455  .debug_str:0000000000008ac1 .LASF3649
     /tmp/ccghGiGC.s:90383  .debug_str:0000000000004266 .LASF3650
     /tmp/ccghGiGC.s:105399  .debug_str:00000000000415e9 .LASF3651
     /tmp/ccghGiGC.s:99423  .debug_str:0000000000029227 .LASF3652
     /tmp/ccghGiGC.s:94857  .debug_str:000000000001616f .LASF3653
     /tmp/ccghGiGC.s:94545  .debug_str:0000000000014d98 .LASF3654
     /tmp/ccghGiGC.s:97293  .debug_str:00000000000208eb .LASF3655
     /tmp/ccghGiGC.s:102309  .debug_str:0000000000034bf9 .LASF3656
     /tmp/ccghGiGC.s:97973  .debug_str:00000000000235f5 .LASF3657
     /tmp/ccghGiGC.s:91271  .debug_str:0000000000007e44 .LASF3658
     /tmp/ccghGiGC.s:95891  .debug_str:000000000001a641 .LASF3659
     /tmp/ccghGiGC.s:108487  .debug_str:000000000004e73b .LASF3660
     /tmp/ccghGiGC.s:105373  .debug_str:0000000000041387 .LASF3661
     /tmp/ccghGiGC.s:93705  .debug_str:000000000001173c .LASF3662
     /tmp/ccghGiGC.s:95573  .debug_str:0000000000018ffa .LASF3663
     /tmp/ccghGiGC.s:96993  .debug_str:000000000001f270 .LASF3664
     /tmp/ccghGiGC.s:96683  .debug_str:000000000001dd7d .LASF3665
     /tmp/ccghGiGC.s:99255  .debug_str:00000000000285db .LASF3666
     /tmp/ccghGiGC.s:106179  .debug_str:0000000000044c73 .LASF3667
     /tmp/ccghGiGC.s:106717  .debug_str:0000000000046f1b .LASF3668
     /tmp/ccghGiGC.s:96225  .debug_str:000000000001bcdf .LASF3669
     /tmp/ccghGiGC.s:102021  .debug_str:0000000000033973 .LASF3670
     /tmp/ccghGiGC.s:105897  .debug_str:0000000000043a63 .LASF3671
     /tmp/ccghGiGC.s:107999  .debug_str:000000000004c47b .LASF3672
     /tmp/ccghGiGC.s:105669  .debug_str:0000000000042b6d .LASF3673
     /tmp/ccghGiGC.s:97007  .debug_str:000000000001f3f3 .LASF3674
     /tmp/ccghGiGC.s:95881  .debug_str:000000000001a564 .LASF3675
     /tmp/ccghGiGC.s:107689  .debug_str:000000000004af01 .LASF3676
     /tmp/ccghGiGC.s:94425  .debug_str:0000000000014691 .LASF3677
     /tmp/ccghGiGC.s:102151  .debug_str:00000000000341fd .LASF3678
     /tmp/ccghGiGC.s:106983  .debug_str:000000000004813c .LASF3679
     /tmp/ccghGiGC.s:107311  .debug_str:0000000000049648 .LASF3680
     /tmp/ccghGiGC.s:106319  .debug_str:0000000000045560 .LASF3681
     /tmp/ccghGiGC.s:92185  .debug_str:000000000000bcd8 .LASF3682
     /tmp/ccghGiGC.s:95265  .debug_str:0000000000017d37 .LASF3683
     /tmp/ccghGiGC.s:104723  .debug_str:000000000003e83b .LASF3684
     /tmp/ccghGiGC.s:99041  .debug_str:000000000002778e .LASF3685
     /tmp/ccghGiGC.s:108771  .debug_str:000000000004fa02 .LASF3686
     /tmp/ccghGiGC.s:103855  .debug_str:000000000003ac7b .LASF3687
     /tmp/ccghGiGC.s:94795  .debug_str:0000000000015e25 .LASF3688
     /tmp/ccghGiGC.s:99473  .debug_str:00000000000295e3 .LASF3689
     /tmp/ccghGiGC.s:98013  .debug_str:0000000000023938 .LASF3690
     /tmp/ccghGiGC.s:90755  .debug_str:0000000000005b69 .LASF3691
     /tmp/ccghGiGC.s:93379  .debug_str:000000000001050d .LASF3692
     /tmp/ccghGiGC.s:98521  .debug_str:00000000000258a4 .LASF3693
     /tmp/ccghGiGC.s:99375  .debug_str:0000000000028eaf .LASF3694
     /tmp/ccghGiGC.s:96567  .debug_str:000000000001d4e1 .LASF3695
     /tmp/ccghGiGC.s:96865  .debug_str:000000000001ea24 .LASF3696
     /tmp/ccghGiGC.s:103271  .debug_str:0000000000038bcb .LASF3697
     /tmp/ccghGiGC.s:106869  .debug_str:0000000000047951 .LASF3698
     /tmp/ccghGiGC.s:92309  .debug_str:000000000000c549 .LASF3699
     /tmp/ccghGiGC.s:103959  .debug_str:000000000003b400 .LASF3700
     /tmp/ccghGiGC.s:97739  .debug_str:0000000000022702 .LASF3701
     /tmp/ccghGiGC.s:90869  .debug_str:00000000000062a8 .LASF3702
     /tmp/ccghGiGC.s:106973  .debug_str:000000000004806e .LASF3703
     /tmp/ccghGiGC.s:93975  .debug_str:00000000000128d6 .LASF3704
     /tmp/ccghGiGC.s:106223  .debug_str:0000000000044fc0 .LASF3705
     /tmp/ccghGiGC.s:94981  .debug_str:00000000000169c0 .LASF3706
     /tmp/ccghGiGC.s:98903  .debug_str:0000000000026f80 .LASF3707
     /tmp/ccghGiGC.s:92609  .debug_str:000000000000d984 .LASF3708
     /tmp/ccghGiGC.s:99051  .debug_str:000000000002785d .LASF3709
     /tmp/ccghGiGC.s:89693  .debug_str:0000000000001298 .LASF3710
     /tmp/ccghGiGC.s:102815  .debug_str:0000000000036fa9 .LASF3711
     /tmp/ccghGiGC.s:92649  .debug_str:000000000000dc31 .LASF3712
     /tmp/ccghGiGC.s:102421  .debug_str:00000000000353fa .LASF3713
     /tmp/ccghGiGC.s:93987  .debug_str:00000000000129e5 .LASF3714
     /tmp/ccghGiGC.s:94465  .debug_str:0000000000014964 .LASF3715
     /tmp/ccghGiGC.s:101983  .debug_str:00000000000336a5 .LASF3716
     /tmp/ccghGiGC.s:101969  .debug_str:00000000000335b0 .LASF3717
     /tmp/ccghGiGC.s:102785  .debug_str:0000000000036d79 .LASF3718
     /tmp/ccghGiGC.s:91113  .debug_str:000000000000742c .LASF3719
     /tmp/ccghGiGC.s:91461  .debug_str:0000000000008b33 .LASF3720
     /tmp/ccghGiGC.s:91385  .debug_str:00000000000085cb .LASF3721
     /tmp/ccghGiGC.s:94189  .debug_str:0000000000013806 .LASF3722
     /tmp/ccghGiGC.s:105915  .debug_str:0000000000043bb4 .LASF3723
     /tmp/ccghGiGC.s:102457  .debug_str:00000000000356c0 .LASF3724
     /tmp/ccghGiGC.s:108609  .debug_str:000000000004ef04 .LASF3725
     /tmp/ccghGiGC.s:97101  .debug_str:000000000001fafc .LASF3726
     /tmp/ccghGiGC.s:96275  .debug_str:000000000001c074 .LASF3727
     /tmp/ccghGiGC.s:96733  .debug_str:000000000001e106 .LASF3728
     /tmp/ccghGiGC.s:101947  .debug_str:0000000000033436 .LASF3729
     /tmp/ccghGiGC.s:97877  .debug_str:0000000000022fb1 .LASF3730
     /tmp/ccghGiGC.s:93897  .debug_str:000000000001248e .LASF3731
     /tmp/ccghGiGC.s:91781  .debug_str:000000000000a0f6 .LASF3732
     /tmp/ccghGiGC.s:99243  .debug_str:00000000000284fa .LASF3733
     /tmp/ccghGiGC.s:89739  .debug_str:000000000000158a .LASF3734
     /tmp/ccghGiGC.s:89787  .debug_str:00000000000019dc .LASF3735
     /tmp/ccghGiGC.s:102387  .debug_str:000000000003519b .LASF3736
     /tmp/ccghGiGC.s:106753  .debug_str:00000000000471ac .LASF3737
     /tmp/ccghGiGC.s:100547  .debug_str:000000000002d890 .LASF3738
     /tmp/ccghGiGC.s:94269  .debug_str:0000000000013d14 .LASF3739
     /tmp/ccghGiGC.s:93785  .debug_str:0000000000011ca2 .LASF3740
     /tmp/ccghGiGC.s:93063  .debug_str:000000000000f28c .LASF3741
     /tmp/ccghGiGC.s:102169  .debug_str:0000000000034305 .LASF3742
     /tmp/ccghGiGC.s:101441  .debug_str:0000000000031311 .LASF3743
     /tmp/ccghGiGC.s:90993  .debug_str:0000000000006af5 .LASF3744
     /tmp/ccghGiGC.s:100831  .debug_str:000000000002eb58 .LASF3745
     /tmp/ccghGiGC.s:102177  .debug_str:0000000000034368 .LASF3746
     /tmp/ccghGiGC.s:104615  .debug_str:000000000003e124 .LASF3747
     /tmp/ccghGiGC.s:97575  .debug_str:0000000000021b64 .LASF3748
     /tmp/ccghGiGC.s:102089  .debug_str:0000000000033e21 .LASF3750
     /tmp/ccghGiGC.s:105677  .debug_str:0000000000042bf4 .LASF3751
     /tmp/ccghGiGC.s:105089  .debug_str:000000000003ff72 .LASF3752
     /tmp/ccghGiGC.s:101175  .debug_str:000000000003022d .LASF3753
     /tmp/ccghGiGC.s:100793  .debug_str:000000000002e8a4 .LASF3754
     /tmp/ccghGiGC.s:101055  .debug_str:000000000002fa64 .LASF3755
     /tmp/ccghGiGC.s:98801  .debug_str:0000000000026866 .LASF3756
     /tmp/ccghGiGC.s:104619  .debug_str:000000000003e184 .LASF3757
     /tmp/ccghGiGC.s:90511  .debug_str:0000000000004b8f .LASF3758
     /tmp/ccghGiGC.s:107797  .debug_str:000000000004b719 .LASF3759
     /tmp/ccghGiGC.s:98437  .debug_str:0000000000025452 .LASF3760
     /tmp/ccghGiGC.s:96113  .debug_str:000000000001b534 .LASF3761
     /tmp/ccghGiGC.s:98179  .debug_str:0000000000024422 .LASF3762
     /tmp/ccghGiGC.s:108503  .debug_str:000000000004e870 .LASF3763
     /tmp/ccghGiGC.s:107077  .debug_str:0000000000048710 .LASF3764
     /tmp/ccghGiGC.s:101409  .debug_str:0000000000031147 .LASF3765
     /tmp/ccghGiGC.s:104169  .debug_str:000000000003c263 .LASF3766
     /tmp/ccghGiGC.s:107995  .debug_str:000000000004c443 .LASF3767
     /tmp/ccghGiGC.s:93967  .debug_str:0000000000012842 .LASF3768
     /tmp/ccghGiGC.s:103937  .debug_str:000000000003b264 .LASF3769
     /tmp/ccghGiGC.s:104261  .debug_str:000000000003c969 .LASF3770
     /tmp/ccghGiGC.s:103861  .debug_str:000000000003ad18 .LASF3771
     /tmp/ccghGiGC.s:90147  .debug_str:00000000000032c8 .LASF3772
     /tmp/ccghGiGC.s:96713  .debug_str:000000000001dfb1 .LASF3773
     /tmp/ccghGiGC.s:101729  .debug_str:0000000000032573 .LASF3774
     /tmp/ccghGiGC.s:94285  .debug_str:0000000000013e0e .LASF3775
     /tmp/ccghGiGC.s:90575  .debug_str:0000000000004fb4 .LASF3776
     /tmp/ccghGiGC.s:101433  .debug_str:0000000000031266 .LASF3777
     /tmp/ccghGiGC.s:94955  .debug_str:000000000001678e .LASF3778
     /tmp/ccghGiGC.s:93617  .debug_str:00000000000111f6 .LASF3779
     /tmp/ccghGiGC.s:102185  .debug_str:00000000000343f9 .LASF3780
     /tmp/ccghGiGC.s:90815  .debug_str:0000000000005f8f .LASF3781
     /tmp/ccghGiGC.s:106689  .debug_str:0000000000046d18 .LASF3782
     /tmp/ccghGiGC.s:107457  .debug_str:0000000000049ff5 .LASF3783
     /tmp/ccghGiGC.s:94225  .debug_str:0000000000013a5e .LASF3784
     /tmp/ccghGiGC.s:104517  .debug_str:000000000003d99c .LASF3785
     /tmp/ccghGiGC.s:99633  .debug_str:0000000000029f78 .LASF3786
     /tmp/ccghGiGC.s:99807  .debug_str:000000000002aabd .LASF3787
     /tmp/ccghGiGC.s:108367  .debug_str:000000000004ded0 .LASF3788
     /tmp/ccghGiGC.s:103907  .debug_str:000000000003b081 .LASF3789
     /tmp/ccghGiGC.s:93395  .debug_str:00000000000105f2 .LASF3790
     /tmp/ccghGiGC.s:108357  .debug_str:000000000004ddf9 .LASF3791
     /tmp/ccghGiGC.s:105369  .debug_str:000000000004130c .LASF3792
     /tmp/ccghGiGC.s:89827  .debug_str:0000000000001cc9 .LASF3793
     /tmp/ccghGiGC.s:97061  .debug_str:000000000001f81a .LASF3794
     /tmp/ccghGiGC.s:95813  .debug_str:000000000001a055 .LASF3795
     /tmp/ccghGiGC.s:94525  .debug_str:0000000000014cbc .LASF3796
     /tmp/ccghGiGC.s:90325  .debug_str:0000000000003e46 .LASF3797
     /tmp/ccghGiGC.s:106989  .debug_str:00000000000481a1 .LASF3798
     /tmp/ccghGiGC.s:100873  .debug_str:000000000002ee23 .LASF3799
     /tmp/ccghGiGC.s:101389  .debug_str:0000000000030ff6 .LASF3800
     /tmp/ccghGiGC.s:107417  .debug_str:0000000000049d17 .LASF3801
     /tmp/ccghGiGC.s:108397  .debug_str:000000000004e14a .LASF3802
     /tmp/ccghGiGC.s:100007  .debug_str:000000000002b7be .LASF3803
     /tmp/ccghGiGC.s:96349  .debug_str:000000000001c67b .LASF3804
     /tmp/ccghGiGC.s:96637  .debug_str:000000000001d9bd .LASF3805
     /tmp/ccghGiGC.s:107613  .debug_str:000000000004a962 .LASF3806
     /tmp/ccghGiGC.s:108687  .debug_str:000000000004f45f .LASF3807
     /tmp/ccghGiGC.s:100305  .debug_str:000000000002c9ed .LASF3808
     /tmp/ccghGiGC.s:101191  .debug_str:0000000000030310 .LASF3809
     /tmp/ccghGiGC.s:102005  .debug_str:0000000000033867 .LASF3810
     /tmp/ccghGiGC.s:90513  .debug_str:0000000000004bc4 .LASF3811
     /tmp/ccghGiGC.s:103509  .debug_str:00000000000397d6 .LASF3812
     /tmp/ccghGiGC.s:105267  .debug_str:0000000000040a80 .LASF3813
     /tmp/ccghGiGC.s:108047  .debug_str:000000000004c7ba .LASF3814
     /tmp/ccghGiGC.s:101269  .debug_str:00000000000307c3 .LASF3815
     /tmp/ccghGiGC.s:108403  .debug_str:000000000004e1aa .LASF3816
     /tmp/ccghGiGC.s:106329  .debug_str:00000000000455fb .LASF3817
     /tmp/ccghGiGC.s:105583  .debug_str:00000000000424d7 .LASF3818
     /tmp/ccghGiGC.s:101553  .debug_str:0000000000031a97 .LASF3819
     /tmp/ccghGiGC.s:92823  .debug_str:000000000000e5c6 .LASF3820
     /tmp/ccghGiGC.s:103775  .debug_str:000000000003a740 .LASF3821
     /tmp/ccghGiGC.s:99901  .debug_str:000000000002b06c .LASF3822
     /tmp/ccghGiGC.s:99867  .debug_str:000000000002ae46 .LASF3823
     /tmp/ccghGiGC.s:101531  .debug_str:00000000000318ab .LASF3824
     /tmp/ccghGiGC.s:91299  .debug_str:0000000000007fd6 .LASF3825
     /tmp/ccghGiGC.s:97123  .debug_str:000000000001fc4d .LASF3826
     /tmp/ccghGiGC.s:90561  .debug_str:0000000000004ef8 .LASF3827
     /tmp/ccghGiGC.s:103745  .debug_str:000000000003a50d .LASF3828
     /tmp/ccghGiGC.s:108485  .debug_str:000000000004e724 .LASF3829
     /tmp/ccghGiGC.s:103419  .debug_str:000000000003934f .LASF3830
     /tmp/ccghGiGC.s:101453  .debug_str:00000000000313ae .LASF3831
     /tmp/ccghGiGC.s:95587  .debug_str:00000000000190d2 .LASF3832
     /tmp/ccghGiGC.s:97693  .debug_str:0000000000022330 .LASF3833
     /tmp/ccghGiGC.s:102885  .debug_str:00000000000373f5 .LASF3834
     /tmp/ccghGiGC.s:103675  .debug_str:000000000003a09a .LASF3835
     /tmp/ccghGiGC.s:90351  .debug_str:000000000000405b .LASF3836
     /tmp/ccghGiGC.s:105891  .debug_str:00000000000439f2 .LASF3837
     /tmp/ccghGiGC.s:99601  .debug_str:0000000000029d48 .LASF3838
     /tmp/ccghGiGC.s:99439  .debug_str:000000000002935d .LASF3839
     /tmp/ccghGiGC.s:107019  .debug_str:0000000000048375 .LASF3840
     /tmp/ccghGiGC.s:108573  .debug_str:000000000004ecf5 .LASF3841
     /tmp/ccghGiGC.s:92269  .debug_str:000000000000c311 .LASF3842
     /tmp/ccghGiGC.s:107459  .debug_str:000000000004a007 .LASF3843
     /tmp/ccghGiGC.s:100199  .debug_str:000000000002c3e4 .LASF3844
     /tmp/ccghGiGC.s:108271  .debug_str:000000000004d723 .LASF3845
     /tmp/ccghGiGC.s:101303  .debug_str:0000000000030a7e .LASF3846
     /tmp/ccghGiGC.s:108817  .debug_str:000000000004fd55 .LASF3847
     /tmp/ccghGiGC.s:96353  .debug_str:000000000001c6cc .LASF3848
     /tmp/ccghGiGC.s:93205  .debug_str:000000000000faf7 .LASF3849
     /tmp/ccghGiGC.s:92703  .debug_str:000000000000dea0 .LASF3850
     /tmp/ccghGiGC.s:94615  .debug_str:000000000001520f .LASF3851
     /tmp/ccghGiGC.s:94419  .debug_str:000000000001462f .LASF3852
     /tmp/ccghGiGC.s:97493  .debug_str:00000000000215af .LASF3853
     /tmp/ccghGiGC.s:97767  .debug_str:0000000000022802 .LASF3854
     /tmp/ccghGiGC.s:89501  .debug_str:0000000000000603 .LASF3855
     /tmp/ccghGiGC.s:99581  .debug_str:0000000000029c39 .LASF3856
     /tmp/ccghGiGC.s:106611  .debug_str:0000000000046897 .LASF3857
     /tmp/ccghGiGC.s:106079  .debug_str:00000000000445dd .LASF3858
     /tmp/ccghGiGC.s:106831  .debug_str:00000000000476b1 .LASF3859
     /tmp/ccghGiGC.s:104395  .debug_str:000000000003d1be .LASF3860
     /tmp/ccghGiGC.s:102741  .debug_str:0000000000036a6b .LASF3861
     /tmp/ccghGiGC.s:107463  .debug_str:000000000004a02b .LASF3862
     /tmp/ccghGiGC.s:102899  .debug_str:0000000000037513 .LASF3863
     /tmp/ccghGiGC.s:105559  .debug_str:0000000000042330 .LASF3864
     /tmp/ccghGiGC.s:91639  .debug_str:000000000000971a .LASF3865
     /tmp/ccghGiGC.s:90339  .debug_str:0000000000003f59 .LASF3866
     /tmp/ccghGiGC.s:107177  .debug_str:0000000000048d68 .LASF3867
     /tmp/ccghGiGC.s:95169  .debug_str:00000000000175fa .LASF3868
     /tmp/ccghGiGC.s:106127  .debug_str:0000000000044951 .LASF3869
     /tmp/ccghGiGC.s:103705  .debug_str:000000000003a20e .LASF3870
     /tmp/ccghGiGC.s:95149  .debug_str:00000000000174e4 .LASF3871
     /tmp/ccghGiGC.s:103479  .debug_str:000000000003960d .LASF3872
     /tmp/ccghGiGC.s:96115  .debug_str:000000000001b557 .LASF3873
     /tmp/ccghGiGC.s:91835  .debug_str:000000000000a48d .LASF3874
     /tmp/ccghGiGC.s:92651  .debug_str:000000000000dc50 .LASF3875
     /tmp/ccghGiGC.s:105931  .debug_str:0000000000043c7b .LASF3876
     /tmp/ccghGiGC.s:104683  .debug_str:000000000003e5db .LASF3877
     /tmp/ccghGiGC.s:90805  .debug_str:0000000000005ea3 .LASF3878
     /tmp/ccghGiGC.s:101541  .debug_str:000000000003197c .LASF3879
     /tmp/ccghGiGC.s:108617  .debug_str:000000000004ef7f .LASF3880
     /tmp/ccghGiGC.s:99157  .debug_str:0000000000027fbb .LASF3881
     /tmp/ccghGiGC.s:101151  .debug_str:0000000000030073 .LASF3882
     /tmp/ccghGiGC.s:100897  .debug_str:000000000002ef8d .LASF3883
     /tmp/ccghGiGC.s:98555  .debug_str:0000000000025b0d .LASF3884
     /tmp/ccghGiGC.s:102605  .debug_str:00000000000361de .LASF3885
     /tmp/ccghGiGC.s:105567  .debug_str:00000000000423cf .LASF3886
     /tmp/ccghGiGC.s:93741  .debug_str:00000000000119ce .LASF3887
     /tmp/ccghGiGC.s:94535  .debug_str:0000000000014d12 .LASF3888
     /tmp/ccghGiGC.s:104969  .debug_str:000000000003f7c6 .LASF3889
     /tmp/ccghGiGC.s:92527  .debug_str:000000000000d477 .LASF3890
     /tmp/ccghGiGC.s:107033  .debug_str:0000000000048468 .LASF3891
     /tmp/ccghGiGC.s:92799  .debug_str:000000000000e44e .LASF3892
     /tmp/ccghGiGC.s:94357  .debug_str:0000000000014264 .LASF3893
     /tmp/ccghGiGC.s:103857  .debug_str:000000000003acc6 .LASF3894
     /tmp/ccghGiGC.s:97979  .debug_str:0000000000023668 .LASF3895
     /tmp/ccghGiGC.s:105887  .debug_str:00000000000439bb .LASF3896
     /tmp/ccghGiGC.s:101879  .debug_str:0000000000033053 .LASF3897
     /tmp/ccghGiGC.s:98225  .debug_str:0000000000024769 .LASF3898
     /tmp/ccghGiGC.s:101123  .debug_str:000000000002fe93 .LASF3899
     /tmp/ccghGiGC.s:94467  .debug_str:0000000000014984 .LASF3900
     /tmp/ccghGiGC.s:97975  .debug_str:000000000002363f .LASF3901
     /tmp/ccghGiGC.s:106785  .debug_str:000000000004735a .LASF3902
     /tmp/ccghGiGC.s:100805  .debug_str:000000000002e991 .LASF3903
     /tmp/ccghGiGC.s:92801  .debug_str:000000000000e46b .LASF3904
     /tmp/ccghGiGC.s:108847  .debug_str:000000000004ff73 .LASF3905
     /tmp/ccghGiGC.s:95203  .debug_str:00000000000178a0 .LASF3906
     /tmp/ccghGiGC.s:101067  .debug_str:000000000002fb39 .LASF3907
     /tmp/ccghGiGC.s:93953  .debug_str:00000000000127a4 .LASF3908
     /tmp/ccghGiGC.s:90043  .debug_str:0000000000002c0d .LASF3909
     /tmp/ccghGiGC.s:91141  .debug_str:00000000000075e5 .LASF3910
     /tmp/ccghGiGC.s:101223  .debug_str:00000000000304d5 .LASF3911
     /tmp/ccghGiGC.s:100085  .debug_str:000000000002bccf .LASF3912
     /tmp/ccghGiGC.s:108575  .debug_str:000000000004ed0c .LASF3913
     /tmp/ccghGiGC.s:108059  .debug_str:000000000004c85e .LASF3914
     /tmp/ccghGiGC.s:106557  .debug_str:0000000000046577 .LASF3915
     /tmp/ccghGiGC.s:101533  .debug_str:00000000000318c2 .LASF3916
     /tmp/ccghGiGC.s:96719  .debug_str:000000000001e036 .LASF3917
     /tmp/ccghGiGC.s:93219  .debug_str:000000000000fc0a .LASF3918
     /tmp/ccghGiGC.s:104281  .debug_str:000000000003cad2 .LASF3919
     /tmp/ccghGiGC.s:97091  .debug_str:000000000001fa4a .LASF3920
     /tmp/ccghGiGC.s:98125  .debug_str:000000000002408c .LASF3921
     /tmp/ccghGiGC.s:96575  .debug_str:000000000001d5a2 .LASF3922
     /tmp/ccghGiGC.s:98215  .debug_str:0000000000024676 .LASF3923
     /tmp/ccghGiGC.s:90195  .debug_str:00000000000035c5 .LASF3924
     /tmp/ccghGiGC.s:104277  .debug_str:000000000003caa7 .LASF3925
     /tmp/ccghGiGC.s:101781  .debug_str:000000000003295f .LASF3926
     /tmp/ccghGiGC.s:107271  .debug_str:00000000000493da .LASF3927
     /tmp/ccghGiGC.s:104011  .debug_str:000000000003b7fd .LASF3928
     /tmp/ccghGiGC.s:98685  .debug_str:000000000002610e .LASF3929
     /tmp/ccghGiGC.s:100219  .debug_str:000000000002c4e3 .LASF3930
     /tmp/ccghGiGC.s:92397  .debug_str:000000000000cb5b .LASF3931
     /tmp/ccghGiGC.s:101973  .debug_str:00000000000335fe .LASF3932
     /tmp/ccghGiGC.s:101431  .debug_str:0000000000031259 .LASF3933
     /tmp/ccghGiGC.s:101053  .debug_str:000000000002fa55 .LASF3934
     /tmp/ccghGiGC.s:99619  .debug_str:0000000000029e85 .LASF3935
     /tmp/ccghGiGC.s:99235  .debug_str:00000000000284a3 .LASF3936
     /tmp/ccghGiGC.s:94017  .debug_str:0000000000012bfa .LASF3937
     /tmp/ccghGiGC.s:94155  .debug_str:0000000000013618 .LASF3938
     /tmp/ccghGiGC.s:103681  .debug_str:000000000003a0db .LASF3939
     /tmp/ccghGiGC.s:92113  .debug_str:000000000000b7ad .LASF3940
     /tmp/ccghGiGC.s:98433  .debug_str:0000000000025427 .LASF3941
     /tmp/ccghGiGC.s:98953  .debug_str:00000000000272a2 .LASF3942
     /tmp/ccghGiGC.s:105967  .debug_str:0000000000043ebd .LASF3943
     /tmp/ccghGiGC.s:106625  .debug_str:0000000000046942 .LASF3944
     /tmp/ccghGiGC.s:94521  .debug_str:0000000000014c8d .LASF3945
     /tmp/ccghGiGC.s:102259  .debug_str:0000000000034874 .LASF3946
     /tmp/ccghGiGC.s:107167  .debug_str:0000000000048ccc .LASF3947
     /tmp/ccghGiGC.s:95429  .debug_str:0000000000018770 .LASF3948
     /tmp/ccghGiGC.s:96043  .debug_str:000000000001b0f8 .LASF3949
     /tmp/ccghGiGC.s:95421  .debug_str:0000000000018705 .LASF3950
     /tmp/ccghGiGC.s:98277  .debug_str:0000000000024afb .LASF3951
     /tmp/ccghGiGC.s:96859  .debug_str:000000000001e9a5 .LASF3952
     /tmp/ccghGiGC.s:102771  .debug_str:0000000000036ca4 .LASF3953
     /tmp/ccghGiGC.s:89607  .debug_str:0000000000000cbf .LASF3954
     /tmp/ccghGiGC.s:107143  .debug_str:0000000000048b70 .LASF3955
     /tmp/ccghGiGC.s:100901  .debug_str:000000000002efe9 .LASF3956
     /tmp/ccghGiGC.s:93435  .debug_str:00000000000107e2 .LASF3957
     /tmp/ccghGiGC.s:90915  .debug_str:00000000000065e0 .LASF3958
     /tmp/ccghGiGC.s:106147  .debug_str:0000000000044a62 .LASF3959
     /tmp/ccghGiGC.s:95691  .debug_str:0000000000019875 .LASF3960
     /tmp/ccghGiGC.s:90719  .debug_str:00000000000058f7 .LASF3961
     /tmp/ccghGiGC.s:107241  .debug_str:0000000000049188 .LASF3962
     /tmp/ccghGiGC.s:94945  .debug_str:00000000000166df .LASF3963
     /tmp/ccghGiGC.s:107923  .debug_str:000000000004bfb0 .LASF3964
     /tmp/ccghGiGC.s:98049  .debug_str:0000000000023b9e .LASF3965
     /tmp/ccghGiGC.s:107183  .debug_str:0000000000048db8 .LASF3966
     /tmp/ccghGiGC.s:106067  .debug_str:00000000000444fd .LASF3967
     /tmp/ccghGiGC.s:97879  .debug_str:0000000000022fd6 .LASF3968
     /tmp/ccghGiGC.s:102355  .debug_str:0000000000034ff9 .LASF3969
     /tmp/ccghGiGC.s:92813  .debug_str:000000000000e500 .LASF3970
     /tmp/ccghGiGC.s:100147  .debug_str:000000000002bfc1 .LASF3971
     /tmp/ccghGiGC.s:93051  .debug_str:000000000000f163 .LASF3972
     /tmp/ccghGiGC.s:105385  .debug_str:00000000000414bc .LASF3973
     /tmp/ccghGiGC.s:102317  .debug_str:0000000000034c7d .LASF3974
     /tmp/ccghGiGC.s:99999  .debug_str:000000000002b692 .LASF3975
     /tmp/ccghGiGC.s:107513  .debug_str:000000000004a35d .LASF3976
     /tmp/ccghGiGC.s:92177  .debug_str:000000000000bc80 .LASF3977
     /tmp/ccghGiGC.s:100919  .debug_str:000000000002f114 .LASF3978
     /tmp/ccghGiGC.s:106871  .debug_str:000000000004796f .LASF3979
     /tmp/ccghGiGC.s:102249  .debug_str:00000000000347f3 .LASF3980
     /tmp/ccghGiGC.s:95537  .debug_str:0000000000018d28 .LASF3981
     /tmp/ccghGiGC.s:89641  .debug_str:0000000000000f18 .LASF3982
     /tmp/ccghGiGC.s:107119  .debug_str:00000000000489fd .LASF3983
     /tmp/ccghGiGC.s:107677  .debug_str:000000000004ae66 .LASF3984
     /tmp/ccghGiGC.s:93539  .debug_str:0000000000010d54 .LASF3985
     /tmp/ccghGiGC.s:102591  .debug_str:00000000000360d9 .LASF3986
     /tmp/ccghGiGC.s:91585  .debug_str:000000000000936c .LASF3987
     /tmp/ccghGiGC.s:103693  .debug_str:000000000003a16f .LASF3988
     /tmp/ccghGiGC.s:93883  .debug_str:000000000001238a .LASF3989
     /tmp/ccghGiGC.s:93541  .debug_str:0000000000010d64 .LASF3990
     /tmp/ccghGiGC.s:91493  .debug_str:0000000000008d5f .LASF3991
     /tmp/ccghGiGC.s:96355  .debug_str:000000000001c6e3 .LASF3992
     /tmp/ccghGiGC.s:97873  .debug_str:0000000000022f5a .LASF3993
     /tmp/ccghGiGC.s:96175  .debug_str:000000000001b941 .LASF3994
     /tmp/ccghGiGC.s:97941  .debug_str:0000000000023379 .LASF3995
     /tmp/ccghGiGC.s:102807  .debug_str:0000000000036f26 .LASF3996
     /tmp/ccghGiGC.s:92325  .debug_str:000000000000c656 .LASF3997
     /tmp/ccghGiGC.s:108643  .debug_str:000000000004f1c4 .LASF3998
     /tmp/ccghGiGC.s:101449  .debug_str:000000000003137e .LASF3999
     /tmp/ccghGiGC.s:98623  .debug_str:0000000000025e9c .LASF4000
     /tmp/ccghGiGC.s:105403  .debug_str:000000000004164e .LASF4001
     /tmp/ccghGiGC.s:90541  .debug_str:0000000000004d8e .LASF4002
     /tmp/ccghGiGC.s:98925  .debug_str:0000000000027105 .LASF4003
     /tmp/ccghGiGC.s:97075  .debug_str:000000000001f95f .LASF4004
     /tmp/ccghGiGC.s:94791  .debug_str:0000000000015e02 .LASF4005
     /tmp/ccghGiGC.s:107997  .debug_str:000000000004c468 .LASF4006
     /tmp/ccghGiGC.s:102297  .debug_str:0000000000034b3e .LASF4007
     /tmp/ccghGiGC.s:101583  .debug_str:0000000000031c83 .LASF4008
     /tmp/ccghGiGC.s:94933  .debug_str:0000000000016683 .LASF4009
     /tmp/ccghGiGC.s:91117  .debug_str:000000000000748f .LASF4010
     /tmp/ccghGiGC.s:96375  .debug_str:000000000001c804 .LASF4011
     /tmp/ccghGiGC.s:96007  .debug_str:000000000001ae7d .LASF4012
     /tmp/ccghGiGC.s:91235  .debug_str:0000000000007bdb .LASF4013
     /tmp/ccghGiGC.s:95137  .debug_str:00000000000173cd .LASF4014
     /tmp/ccghGiGC.s:104691  .debug_str:000000000003e63d .LASF4015
     /tmp/ccghGiGC.s:97111  .debug_str:000000000001fbb1 .LASF4016
     /tmp/ccghGiGC.s:94869  .debug_str:0000000000016248 .LASF4017
     /tmp/ccghGiGC.s:96423  .debug_str:000000000001cbf0 .LASF4018
     /tmp/ccghGiGC.s:98697  .debug_str:0000000000026200 .LASF4019
     /tmp/ccghGiGC.s:100021  .debug_str:000000000002b894 .LASF4020
     /tmp/ccghGiGC.s:104175  .debug_str:000000000003c2d2 .LASF4021
     /tmp/ccghGiGC.s:106889  .debug_str:0000000000047a8a .LASF4022
     /tmp/ccghGiGC.s:98773  .debug_str:00000000000266b0 .LASF4023
     /tmp/ccghGiGC.s:100461  .debug_str:000000000002d395 .LASF4024
     /tmp/ccghGiGC.s:106405  .debug_str:0000000000045b7c .LASF4025
     /tmp/ccghGiGC.s:91861  .debug_str:000000000000a60c .LASF4026
     /tmp/ccghGiGC.s:108181  .debug_str:000000000004d1a0 .LASF4027
     /tmp/ccghGiGC.s:92429  .debug_str:000000000000cde2 .LASF4028
     /tmp/ccghGiGC.s:97971  .debug_str:00000000000235e1 .LASF4029
     /tmp/ccghGiGC.s:96535  .debug_str:000000000001d2f6 .LASF4030
     /tmp/ccghGiGC.s:104365  .debug_str:000000000003cff6 .LASF4031
     /tmp/ccghGiGC.s:108457  .debug_str:000000000004e510 .LASF4032
     /tmp/ccghGiGC.s:97033  .debug_str:000000000001f5f7 .LASF4033
     /tmp/ccghGiGC.s:106603  .debug_str:00000000000467f8 .LASF4034
     /tmp/ccghGiGC.s:104049  .debug_str:000000000003ba23 .LASF4035
     /tmp/ccghGiGC.s:105591  .debug_str:0000000000042559 .LASF4036
     /tmp/ccghGiGC.s:108535  .debug_str:000000000004ea9a .LASF4037
     /tmp/ccghGiGC.s:108647  .debug_str:000000000004f1f1 .LASF4038
     /tmp/ccghGiGC.s:92477  .debug_str:000000000000d08c .LASF4039
     /tmp/ccghGiGC.s:106265  .debug_str:0000000000045263 .LASF4040
     /tmp/ccghGiGC.s:105261  .debug_str:0000000000040a37 .LASF4041
     /tmp/ccghGiGC.s:89889  .debug_str:000000000000215d .LASF4042
     /tmp/ccghGiGC.s:90919  .debug_str:0000000000006617 .LASF4043
     /tmp/ccghGiGC.s:92009  .debug_str:000000000000b06d .LASF4044
     /tmp/ccghGiGC.s:102037  .debug_str:0000000000033aba .LASF4045
     /tmp/ccghGiGC.s:94651  .debug_str:000000000001549f .LASF4046
     /tmp/ccghGiGC.s:100235  .debug_str:000000000002c5ec .LASF4047
     /tmp/ccghGiGC.s:107169  .debug_str:0000000000048ce2 .LASF4048
     /tmp/ccghGiGC.s:106277  .debug_str:0000000000045312 .LASF4049
     /tmp/ccghGiGC.s:97021  .debug_str:000000000001f529 .LASF4050
     /tmp/ccghGiGC.s:96449  .debug_str:000000000001cd86 .LASF4051
     /tmp/ccghGiGC.s:100019  .debug_str:000000000002b882 .LASF4052
     /tmp/ccghGiGC.s:107325  .debug_str:000000000004976a .LASF4053
     /tmp/ccghGiGC.s:89957  .debug_str:00000000000025d9 .LASF4054
     /tmp/ccghGiGC.s:102377  .debug_str:00000000000350dd .LASF4055
     /tmp/ccghGiGC.s:106773  .debug_str:00000000000472f5 .LASF4056
     /tmp/ccghGiGC.s:96533  .debug_str:000000000001d2e7 .LASF4057
     /tmp/ccghGiGC.s:106073  .debug_str:000000000004458a .LASF4058
     /tmp/ccghGiGC.s:92561  .debug_str:000000000000d675 .LASF4059
     /tmp/ccghGiGC.s:102055  .debug_str:0000000000033bc5 .LASF4060
     /tmp/ccghGiGC.s:96763  .debug_str:000000000001e34c .LASF4061
     /tmp/ccghGiGC.s:96833  .debug_str:000000000001e82b .LASF4062
     /tmp/ccghGiGC.s:97765  .debug_str:00000000000227f3 .LASF4063
     /tmp/ccghGiGC.s:102813  .debug_str:0000000000036f98 .LASF4064
     /tmp/ccghGiGC.s:95519  .debug_str:0000000000018c90 .LASF4065
     /tmp/ccghGiGC.s:103425  .debug_str:000000000003939c .LASF4066
     /tmp/ccghGiGC.s:97525  .debug_str:000000000002180e .LASF4067
     /tmp/ccghGiGC.s:100329  .debug_str:000000000002cb35 .LASF4068
     /tmp/ccghGiGC.s:89839  .debug_str:0000000000001dc9 .LASF4069
     /tmp/ccghGiGC.s:101493  .debug_str:0000000000031669 .LASF4070
     /tmp/ccghGiGC.s:102339  .debug_str:0000000000034ef0 .LASF4071
     /tmp/ccghGiGC.s:102105  .debug_str:0000000000033f2a .LASF4072
     /tmp/ccghGiGC.s:107901  .debug_str:000000000004be25 .LASF4073
     /tmp/ccghGiGC.s:93613  .debug_str:00000000000111c5 .LASF4074
     /tmp/ccghGiGC.s:92459  .debug_str:000000000000cfc0 .LASF4075
     /tmp/ccghGiGC.s:92081  .debug_str:000000000000b5e4 .LASF4076
     /tmp/ccghGiGC.s:98815  .debug_str:0000000000026949 .LASF4077
     /tmp/ccghGiGC.s:96147  .debug_str:000000000001b7aa .LASF4078
     /tmp/ccghGiGC.s:107703  .debug_str:000000000004affc .LASF4079
     /tmp/ccghGiGC.s:93911  .debug_str:000000000001254c .LASF4080
     /tmp/ccghGiGC.s:89815  .debug_str:0000000000001bd7 .LASF4081
     /tmp/ccghGiGC.s:90977  .debug_str:00000000000069b5 .LASF4082
     /tmp/ccghGiGC.s:100825  .debug_str:000000000002eb13 .LASF4083
     /tmp/ccghGiGC.s:90303  .debug_str:0000000000003cf5 .LASF4084
     /tmp/ccghGiGC.s:106859  .debug_str:00000000000478c0 .LASF4085
     /tmp/ccghGiGC.s:90125  .debug_str:00000000000031c0 .LASF4086
     /tmp/ccghGiGC.s:97689  .debug_str:00000000000222ed .LASF4087
     /tmp/ccghGiGC.s:108129  .debug_str:000000000004cd75 .LASF4088
     /tmp/ccghGiGC.s:99367  .debug_str:0000000000028e1f .LASF4089
     /tmp/ccghGiGC.s:99197  .debug_str:0000000000028244 .LASF4090
     /tmp/ccghGiGC.s:104265  .debug_str:000000000003c9d2 .LASF4091
     /tmp/ccghGiGC.s:97489  .debug_str:0000000000021589 .LASF4092
     /tmp/ccghGiGC.s:91549  .debug_str:0000000000009131 .LASF4093
     /tmp/ccghGiGC.s:95911  .debug_str:000000000001a790 .LASF4094
     /tmp/ccghGiGC.s:98439  .debug_str:000000000002546c .LASF4095
     /tmp/ccghGiGC.s:96577  .debug_str:000000000001d5b4 .LASF4096
     /tmp/ccghGiGC.s:94069  .debug_str:0000000000012fa6 .LASF4097
     /tmp/ccghGiGC.s:98419  .debug_str:0000000000025368 .LASF4098
     /tmp/ccghGiGC.s:99611  .debug_str:0000000000029e14 .LASF4099
     /tmp/ccghGiGC.s:108167  .debug_str:000000000004d077 .LASF4100
     /tmp/ccghGiGC.s:95051  .debug_str:0000000000016e75 .LASF4101
     /tmp/ccghGiGC.s:96589  .debug_str:000000000001d695 .LASF4102
     /tmp/ccghGiGC.s:101075  .debug_str:000000000002fbca .LASF4103
     /tmp/ccghGiGC.s:100451  .debug_str:000000000002d305 .LASF4104
     /tmp/ccghGiGC.s:103827  .debug_str:000000000003aac5 .LASF4105
     /tmp/ccghGiGC.s:92637  .debug_str:000000000000db5c .LASF4106
     /tmp/ccghGiGC.s:101139  .debug_str:000000000002ffbb .LASF4107
     /tmp/ccghGiGC.s:96473  .debug_str:000000000001cf18 .LASF4108
     /tmp/ccghGiGC.s:99351  .debug_str:0000000000028d31 .LASF4109
     /tmp/ccghGiGC.s:100747  .debug_str:000000000002e5cd .LASF4110
     /tmp/ccghGiGC.s:104955  .debug_str:000000000003f70b .LASF4111
     /tmp/ccghGiGC.s:105703  .debug_str:0000000000042d98 .LASF4112
     /tmp/ccghGiGC.s:105107  .debug_str:000000000004007c .LASF4113
     /tmp/ccghGiGC.s:100037  .debug_str:000000000002b9a8 .LASF4114
     /tmp/ccghGiGC.s:103869  .debug_str:000000000003adc4 .LASF4115
     /tmp/ccghGiGC.s:90833  .debug_str:0000000000006056 .LASF4116
     /tmp/ccghGiGC.s:98281  .debug_str:0000000000024b1f .LASF4117
     /tmp/ccghGiGC.s:107783  .debug_str:000000000004b624 .LASF4118
     /tmp/ccghGiGC.s:105593  .debug_str:000000000004256a .LASF4119
     /tmp/ccghGiGC.s:94903  .debug_str:000000000001643f .LASF4120
     /tmp/ccghGiGC.s:89561  .debug_str:00000000000009f3 .LASF4121
     /tmp/ccghGiGC.s:92075  .debug_str:000000000000b570 .LASF4122
     /tmp/ccghGiGC.s:97791  .debug_str:000000000002299c .LASF4123
     /tmp/ccghGiGC.s:106629  .debug_str:000000000004695a .LASF4124
     /tmp/ccghGiGC.s:96149  .debug_str:000000000001b7ba .LASF4125
     /tmp/ccghGiGC.s:91445  .debug_str:0000000000008a27 .LASF4126
     /tmp/ccghGiGC.s:108909  .debug_str:000000000005037c .LASF4127
     /tmp/ccghGiGC.s:102711  .debug_str:00000000000368bb .LASF4128
     /tmp/ccghGiGC.s:97587  .debug_str:0000000000021ca7 .LASF4129
     /tmp/ccghGiGC.s:97383  .debug_str:0000000000020ed4 .LASF4130
     /tmp/ccghGiGC.s:103055  .debug_str:0000000000037e45 .LASF4131
     /tmp/ccghGiGC.s:101633  .debug_str:0000000000031f1b .LASF4132
     /tmp/ccghGiGC.s:104497  .debug_str:000000000003d822 .LASF4133
     /tmp/ccghGiGC.s:98689  .debug_str:000000000002614d .LASF4134
     /tmp/ccghGiGC.s:96877  .debug_str:000000000001eb43 .LASF4135
     /tmp/ccghGiGC.s:101035  .debug_str:000000000002f96e .LASF4136
     /tmp/ccghGiGC.s:100967  .debug_str:000000000002f409 .LASF4137
     /tmp/ccghGiGC.s:106959  .debug_str:0000000000047f3d .LASF4138
     /tmp/ccghGiGC.s:90031  .debug_str:0000000000002b5d .LASF4139
     /tmp/ccghGiGC.s:98597  .debug_str:0000000000025cb8 .LASF4140
     /tmp/ccghGiGC.s:105069  .debug_str:000000000003fe55 .LASF4141
     /tmp/ccghGiGC.s:101357  .debug_str:0000000000030e0c .LASF4142
     /tmp/ccghGiGC.s:100937  .debug_str:000000000002f1e7 .LASF4143
     /tmp/ccghGiGC.s:90913  .debug_str:00000000000065c5 .LASF4144
     /tmp/ccghGiGC.s:108265  .debug_str:000000000004d67b .LASF4145
     /tmp/ccghGiGC.s:98397  .debug_str:0000000000025205 .LASF4146
     /tmp/ccghGiGC.s:92259  .debug_str:000000000000c25c .LASF4147
     /tmp/ccghGiGC.s:91917  .debug_str:000000000000aa46 .LASF4148
     /tmp/ccghGiGC.s:95719  .debug_str:0000000000019a50 .LASF4149
     /tmp/ccghGiGC.s:101491  .debug_str:0000000000031653 .LASF4150
     /tmp/ccghGiGC.s:94135  .debug_str:00000000000134b2 .LASF4151
     /tmp/ccghGiGC.s:91357  .debug_str:00000000000083b0 .LASF4152
     /tmp/ccghGiGC.s:94081  .debug_str:000000000001303b .LASF4153
     /tmp/ccghGiGC.s:108413  .debug_str:000000000004e264 .LASF4154
     /tmp/ccghGiGC.s:100655  .debug_str:000000000002dfb8 .LASF4155
     /tmp/ccghGiGC.s:105941  .debug_str:0000000000043d1a .LASF4156
     /tmp/ccghGiGC.s:103673  .debug_str:000000000003a085 .LASF4157
     /tmp/ccghGiGC.s:95671  .debug_str:0000000000019743 .LASF4158
     /tmp/ccghGiGC.s:101809  .debug_str:0000000000032b70 .LASF4159
     /tmp/ccghGiGC.s:91207  .debug_str:0000000000007a3b .LASF4160
     /tmp/ccghGiGC.s:105957  .debug_str:0000000000043e19 .LASF4161
     /tmp/ccghGiGC.s:90959  .debug_str:00000000000068a4 .LASF4162
     /tmp/ccghGiGC.s:95127  .debug_str:0000000000017351 .LASF4163
     /tmp/ccghGiGC.s:95793  .debug_str:0000000000019f74 .LASF4164
     /tmp/ccghGiGC.s:100549  .debug_str:000000000002d8b5 .LASF4165
     /tmp/ccghGiGC.s:95353  .debug_str:000000000001821c .LASF4166
     /tmp/ccghGiGC.s:99209  .debug_str:0000000000028356 .LASF4167
     /tmp/ccghGiGC.s:91373  .debug_str:00000000000084ea .LASF4168
     /tmp/ccghGiGC.s:92939  .debug_str:000000000000ec3b .LASF4169
     /tmp/ccghGiGC.s:95499  .debug_str:0000000000018b36 .LASF4170
     /tmp/ccghGiGC.s:100501  .debug_str:000000000002d61c .LASF4171
     /tmp/ccghGiGC.s:98767  .debug_str:0000000000026688 .LASF4172
     /tmp/ccghGiGC.s:96009  .debug_str:000000000001ae93 .LASF4173
     /tmp/ccghGiGC.s:90943  .debug_str:00000000000067f6 .LASF4174
     /tmp/ccghGiGC.s:107881  .debug_str:000000000004bcc9 .LASF4175
     /tmp/ccghGiGC.s:93445  .debug_str:00000000000108a6 .LASF4176
     /tmp/ccghGiGC.s:107111  .debug_str:000000000004895f .LASF4177
     /tmp/ccghGiGC.s:99873  .debug_str:000000000002ae95 .LASF4178
     /tmp/ccghGiGC.s:96169  .debug_str:000000000001b8df .LASF4179
     /tmp/ccghGiGC.s:94537  .debug_str:0000000000014d34 .LASF4180
     /tmp/ccghGiGC.s:102141  .debug_str:000000000003416d .LASF4181
     /tmp/ccghGiGC.s:91287  .debug_str:0000000000007f3a .LASF4182
     /tmp/ccghGiGC.s:100957  .debug_str:000000000002f31b .LASF4183
     /tmp/ccghGiGC.s:99935  .debug_str:000000000002b33e .LASF4184
     /tmp/ccghGiGC.s:90849  .debug_str:0000000000006196 .LASF4185
     /tmp/ccghGiGC.s:94815  .debug_str:0000000000015f5a .LASF4186
     /tmp/ccghGiGC.s:105503  .debug_str:0000000000041cbb .LASF4187
     /tmp/ccghGiGC.s:107691  .debug_str:000000000004af41 .LASF4188
     /tmp/ccghGiGC.s:104019  .debug_str:000000000003b874 .LASF4189
     /tmp/ccghGiGC.s:99583  .debug_str:0000000000029c4e .LASF4190
     /tmp/ccghGiGC.s:101277  .debug_str:0000000000030870 .LASF4191
     /tmp/ccghGiGC.s:105129  .debug_str:00000000000401d9 .LASF4192
     /tmp/ccghGiGC.s:108525  .debug_str:000000000004ea12 .LASF4193
     /tmp/ccghGiGC.s:92807  .debug_str:000000000000e4cf .LASF4194
     /tmp/ccghGiGC.s:94619  .debug_str:000000000001527d .LASF4195
     /tmp/ccghGiGC.s:100459  .debug_str:000000000002d37d .LASF4196
     /tmp/ccghGiGC.s:98127  .debug_str:000000000002409e .LASF4197
     /tmp/ccghGiGC.s:98519  .debug_str:000000000002588c .LASF4198
     /tmp/ccghGiGC.s:98171  .debug_str:000000000002439a .LASF4199
     /tmp/ccghGiGC.s:99259  .debug_str:000000000002862f .LASF4200
     /tmp/ccghGiGC.s:104133  .debug_str:000000000003bfcc .LASF4201
     /tmp/ccghGiGC.s:92041  .debug_str:000000000000b2c5 .LASF4202
     /tmp/ccghGiGC.s:107829  .debug_str:000000000004b977 .LASF4203
     /tmp/ccghGiGC.s:102531  .debug_str:0000000000035c31 .LASF4204
     /tmp/ccghGiGC.s:108903  .debug_str:000000000005031f .LASF4205
     /tmp/ccghGiGC.s:97289  .debug_str:0000000000020897 .LASF4206
     /tmp/ccghGiGC.s:103871  .debug_str:000000000003addd .LASF4207
     /tmp/ccghGiGC.s:99213  .debug_str:0000000000028383 .LASF4208
     /tmp/ccghGiGC.s:91431  .debug_str:000000000000890c .LASF4209
     /tmp/ccghGiGC.s:106379  .debug_str:00000000000459c4 .LASF4210
     /tmp/ccghGiGC.s:94533  .debug_str:0000000000014cfa .LASF4211
     /tmp/ccghGiGC.s:107653  .debug_str:000000000004ac9b .LASF4212
     /tmp/ccghGiGC.s:107213  .debug_str:0000000000048fbe .LASF4213
     /tmp/ccghGiGC.s:97555  .debug_str:0000000000021a3c .LASF4214
     /tmp/ccghGiGC.s:90161  .debug_str:00000000000033da .LASF4215
     /tmp/ccghGiGC.s:102639  .debug_str:00000000000363c6 .LASF4216
     /tmp/ccghGiGC.s:89513  .debug_str:00000000000006da .LASF4217
     /tmp/ccghGiGC.s:108777  .debug_str:000000000004faa3 .LASF4218
     /tmp/ccghGiGC.s:89873  .debug_str:000000000000203e .LASF4219
     /tmp/ccghGiGC.s:100761  .debug_str:000000000002e66d .LASF4220
     /tmp/ccghGiGC.s:108867  .debug_str:00000000000500a9 .LASF4221
     /tmp/ccghGiGC.s:107975  .debug_str:000000000004c2f0 .LASF4222
     /tmp/ccghGiGC.s:92015  .debug_str:000000000000b0a5 .LASF4223
     /tmp/ccghGiGC.s:106875  .debug_str:0000000000047999 .LASF4224
     /tmp/ccghGiGC.s:96671  .debug_str:000000000001dc8b .LASF4225
     /tmp/ccghGiGC.s:108273  .debug_str:000000000004d739 .LASF4226
     /tmp/ccghGiGC.s:99871  .debug_str:000000000002ae7e .LASF4227
     /tmp/ccghGiGC.s:99123  .debug_str:0000000000027d65 .LASF4228
     /tmp/ccghGiGC.s:91941  .debug_str:000000000000ab7a .LASF4229
     /tmp/ccghGiGC.s:90001  .debug_str:0000000000002942 .LASF4230
     /tmp/ccghGiGC.s:106377  .debug_str:00000000000459ad .LASF4231
     /tmp/ccghGiGC.s:92255  .debug_str:000000000000c234 .LASF4232
     /tmp/ccghGiGC.s:95453  .debug_str:0000000000018900 .LASF4233
     /tmp/ccghGiGC.s:98547  .debug_str:0000000000025aa4 .LASF4234
     /tmp/ccghGiGC.s:96985  .debug_str:000000000001f1d1 .LASF4235
     /tmp/ccghGiGC.s:90503  .debug_str:0000000000004b1f .LASF4236
     /tmp/ccghGiGC.s:90295  .debug_str:0000000000003c76 .LASF4237
     /tmp/ccghGiGC.s:95555  .debug_str:0000000000018e95 .LASF4238
     /tmp/ccghGiGC.s:92535  .debug_str:000000000000d508 .LASF4239
     /tmp/ccghGiGC.s:99831  .debug_str:000000000002abdc .LASF4240
     /tmp/ccghGiGC.s:96517  .debug_str:000000000001d1fb .LASF4241
     /tmp/ccghGiGC.s:105595  .debug_str:0000000000042583 .LASF4242
     /tmp/ccghGiGC.s:100131  .debug_str:000000000002bedc .LASF4243
     /tmp/ccghGiGC.s:90661  .debug_str:00000000000054b6 .LASF4244
     /tmp/ccghGiGC.s:103553  .debug_str:0000000000039983 .LASF4245
     /tmp/ccghGiGC.s:104413  .debug_str:000000000003d2c7 .LASF4246
     /tmp/ccghGiGC.s:93133  .debug_str:000000000000f6f2 .LASF4247
     /tmp/ccghGiGC.s:97401  .debug_str:0000000000020fef .LASF4248
     /tmp/ccghGiGC.s:90241  .debug_str:00000000000038c7 .LASF4249
     /tmp/ccghGiGC.s:103717  .debug_str:000000000003a2e2 .LASF4250
     /tmp/ccghGiGC.s:104051  .debug_str:000000000003ba36 .LASF4251
     /tmp/ccghGiGC.s:104923  .debug_str:000000000003f51e .LASF4252
     /tmp/ccghGiGC.s:102181  .debug_str:00000000000343c5 .LASF4253
     /tmp/ccghGiGC.s:106761  .debug_str:0000000000047257 .LASF4254
     /tmp/ccghGiGC.s:100249  .debug_str:000000000002c68d .LASF4255
     /tmp/ccghGiGC.s:97081  .debug_str:000000000001f9ae .LASF4256
     /tmp/ccghGiGC.s:93861  .debug_str:00000000000121d5 .LASF4257
     /tmp/ccghGiGC.s:102723  .debug_str:000000000003696f .LASF4258
     /tmp/ccghGiGC.s:96401  .debug_str:000000000001ca07 .LASF4259
     /tmp/ccghGiGC.s:91691  .debug_str:0000000000009ad3 .LASF4260
     /tmp/ccghGiGC.s:103501  .debug_str:0000000000039749 .LASF4261
     /tmp/ccghGiGC.s:100881  .debug_str:000000000002eeb1 .LASF4262
     /tmp/ccghGiGC.s:92487  .debug_str:000000000000d161 .LASF4263
     /tmp/ccghGiGC.s:104663  .debug_str:000000000003e472 .LASF4264
     /tmp/ccghGiGC.s:99435  .debug_str:000000000002931e .LASF4265
     /tmp/ccghGiGC.s:98101  .debug_str:0000000000023ee8 .LASF4266
     /tmp/ccghGiGC.s:108775  .debug_str:000000000004fa8d .LASF4267
     /tmp/ccghGiGC.s:98839  .debug_str:0000000000026b0f .LASF4268
     /tmp/ccghGiGC.s:91939  .debug_str:000000000000ab64 .LASF4269
     /tmp/ccghGiGC.s:102773  .debug_str:0000000000036cb0 .LASF4270
     /tmp/ccghGiGC.s:108389  .debug_str:000000000004e0a4 .LASF4271
     /tmp/ccghGiGC.s:103651  .debug_str:0000000000039f5f .LASF4272
     /tmp/ccghGiGC.s:94013  .debug_str:0000000000012b9f .LASF4273
     /tmp/ccghGiGC.s:104863  .debug_str:000000000003f109 .LASF4274
     /tmp/ccghGiGC.s:89721  .debug_str:000000000000146b .LASF4275
     /tmp/ccghGiGC.s:102491  .debug_str:000000000003594d .LASF4276
     /tmp/ccghGiGC.s:90947  .debug_str:0000000000006816 .LASF4277
     /tmp/ccghGiGC.s:94353  .debug_str:0000000000014235 .LASF4278
     /tmp/ccghGiGC.s:93045  .debug_str:000000000000f125 .LASF4279
     /tmp/ccghGiGC.s:89667  .debug_str:0000000000001104 .LASF4280
     /tmp/ccghGiGC.s:91591  .debug_str:00000000000093a5 .LASF4281
     /tmp/ccghGiGC.s:94045  .debug_str:0000000000012da9 .LASF4282
     /tmp/ccghGiGC.s:108469  .debug_str:000000000004e5e4 .LASF4283
     /tmp/ccghGiGC.s:96831  .debug_str:000000000001e811 .LASF4284
     /tmp/ccghGiGC.s:105683  .debug_str:0000000000042c53 .LASF4285
     /tmp/ccghGiGC.s:98347  .debug_str:0000000000024f57 .LASF4286
     /tmp/ccghGiGC.s:99271  .debug_str:0000000000028703 .LASF4287
     /tmp/ccghGiGC.s:106327  .debug_str:00000000000455e1 .LASF4288
     /tmp/ccghGiGC.s:104267  .debug_str:000000000003c9e6 .LASF4289
     /tmp/ccghGiGC.s:90207  .debug_str:000000000000364d .LASF4290
     /tmp/ccghGiGC.s:98981  .debug_str:000000000002743f .LASF4291
     /tmp/ccghGiGC.s:108011  .debug_str:000000000004c527 .LASF4292
     /tmp/ccghGiGC.s:104431  .debug_str:000000000003d3db .LASF4293
     /tmp/ccghGiGC.s:93913  .debug_str:0000000000012561 .LASF4294
     /tmp/ccghGiGC.s:106231  .debug_str:000000000004504a .LASF4295
     /tmp/ccghGiGC.s:97155  .debug_str:000000000001fe6f .LASF4296
     /tmp/ccghGiGC.s:108313  .debug_str:000000000004da4a .LASF4297
     /tmp/ccghGiGC.s:103183  .debug_str:00000000000386df .LASF4298
     /tmp/ccghGiGC.s:105713  .debug_str:0000000000042e23 .LASF4299
     /tmp/ccghGiGC.s:93721  .debug_str:0000000000011813 .LASF4300
     /tmp/ccghGiGC.s:99895  .debug_str:000000000002aff0 .LASF4301
     /tmp/ccghGiGC.s:107585  .debug_str:000000000004a757 .LASF4302
     /tmp/ccghGiGC.s:100707  .debug_str:000000000002e31b .LASF4303
     /tmp/ccghGiGC.s:93033  .debug_str:000000000000f04e .LASF4304
     /tmp/ccghGiGC.s:91499  .debug_str:0000000000008da0 .LASF4305
     /tmp/ccghGiGC.s:93491  .debug_str:0000000000010b1a .LASF4306
     /tmp/ccghGiGC.s:106657  .debug_str:0000000000046b5f .LASF4307
     /tmp/ccghGiGC.s:93695  .debug_str:0000000000011693 .LASF4308
     /tmp/ccghGiGC.s:89875  .debug_str:0000000000002055 .LASF4309
     /tmp/ccghGiGC.s:93359  .debug_str:00000000000103cf .LASF4310
     /tmp/ccghGiGC.s:108863  .debug_str:0000000000050084 .LASF4311
     /tmp/ccghGiGC.s:102217  .debug_str:00000000000345fe .LASF4312
     /tmp/ccghGiGC.s:108475  .debug_str:000000000004e65e .LASF4313
     /tmp/ccghGiGC.s:89699  .debug_str:00000000000012ea .LASF4314
     /tmp/ccghGiGC.s:105869  .debug_str:000000000004384d .LASF4315
     /tmp/ccghGiGC.s:107121  .debug_str:0000000000048a0d .LASF4316
     /tmp/ccghGiGC.s:95255  .debug_str:0000000000017ca8 .LASF4317
     /tmp/ccghGiGC.s:97783  .debug_str:0000000000022929 .LASF4318
     /tmp/ccghGiGC.s:95925  .debug_str:000000000001a864 .LASF4319
     /tmp/ccghGiGC.s:95245  .debug_str:0000000000017ba4 .LASF4320
     /tmp/ccghGiGC.s:104401  .debug_str:000000000003d209 .LASF4321
     /tmp/ccghGiGC.s:104373  .debug_str:000000000003d063 .LASF4322
     /tmp/ccghGiGC.s:95291  .debug_str:0000000000017f0c .LASF4323
     /tmp/ccghGiGC.s:103707  .debug_str:000000000003a220 .LASF4324
     /tmp/ccghGiGC.s:93483  .debug_str:0000000000010a88 .LASF4325
     /tmp/ccghGiGC.s:100683  .debug_str:000000000002e184 .LASF4326
     /tmp/ccghGiGC.s:101653  .debug_str:000000000003205e .LASF4327
     /tmp/ccghGiGC.s:108887  .debug_str:0000000000050249 .LASF4328
     /tmp/ccghGiGC.s:104521  .debug_str:000000000003d9da .LASF4329
     /tmp/ccghGiGC.s:89711  .debug_str:00000000000013bd .LASF4330
     /tmp/ccghGiGC.s:93697  .debug_str:00000000000116ad .LASF4331
     /tmp/ccghGiGC.s:100781  .debug_str:000000000002e7f0 .LASF4332
     /tmp/ccghGiGC.s:96587  .debug_str:000000000001d67c .LASF4333
     /tmp/ccghGiGC.s:99229  .debug_str:0000000000028453 .LASF4334
     /tmp/ccghGiGC.s:99541  .debug_str:0000000000029955 .LASF4335
     /tmp/ccghGiGC.s:108231  .debug_str:000000000004d476 .LASF4336
     /tmp/ccghGiGC.s:102589  .debug_str:00000000000360c1 .LASF4337
     /tmp/ccghGiGC.s:108465  .debug_str:000000000004e5ca .LASF4338
     /tmp/ccghGiGC.s:99771  .debug_str:000000000002a8e9 .LASF4339
     /tmp/ccghGiGC.s:107577  .debug_str:000000000004a6dd .LASF4340
     /tmp/ccghGiGC.s:91705  .debug_str:0000000000009c0f .LASF4341
     /tmp/ccghGiGC.s:99519  .debug_str:0000000000029802 .LASF4342
     /tmp/ccghGiGC.s:102299  .debug_str:0000000000034b50 .LASF4343
     /tmp/ccghGiGC.s:104447  .debug_str:000000000003d4cf .LASF4344
     /tmp/ccghGiGC.s:97665  .debug_str:00000000000221de .LASF4345
     /tmp/ccghGiGC.s:90827  .debug_str:0000000000005ffe .LASF4346
     /tmp/ccghGiGC.s:107085  .debug_str:00000000000487b4 .LASF4347
     /tmp/ccghGiGC.s:97685  .debug_str:00000000000222c5 .LASF4348
     /tmp/ccghGiGC.s:107681  .debug_str:000000000004ae90 .LASF4349
     /tmp/ccghGiGC.s:102463  .debug_str:0000000000035734 .LASF4350
     /tmp/ccghGiGC.s:108541  .debug_str:000000000004ead6 .LASF4351
     /tmp/ccghGiGC.s:105805  .debug_str:0000000000043417 .LASF4352
     /tmp/ccghGiGC.s:104685  .debug_str:000000000003e5f3 .LASF4353
     /tmp/ccghGiGC.s:89939  .debug_str:0000000000002501 .LASF4354
     /tmp/ccghGiGC.s:106619  .debug_str:00000000000468e8 .LASF4355
     /tmp/ccghGiGC.s:96607  .debug_str:000000000001d7b2 .LASF4356
     /tmp/ccghGiGC.s:95273  .debug_str:0000000000017dd4 .LASF4357
     /tmp/ccghGiGC.s:91037  .debug_str:0000000000006e5e .LASF4358
     /tmp/ccghGiGC.s:102521  .debug_str:0000000000035ba3 .LASF4359
     /tmp/ccghGiGC.s:106707  .debug_str:0000000000046e5d .LASF4360
     /tmp/ccghGiGC.s:104205  .debug_str:000000000003c52f .LASF4361
     /tmp/ccghGiGC.s:99029  .debug_str:00000000000276c5 .LASF4362
     /tmp/ccghGiGC.s:103657  .debug_str:0000000000039fc2 .LASF4363
     /tmp/ccghGiGC.s:101159  .debug_str:0000000000030125 .LASF4364
     /tmp/ccghGiGC.s:102857  .debug_str:000000000003720a .LASF4365
     /tmp/ccghGiGC.s:107197  .debug_str:0000000000048eb3 .LASF4366
     /tmp/ccghGiGC.s:97687  .debug_str:00000000000222d6 .LASF4367
     /tmp/ccghGiGC.s:106939  .debug_str:0000000000047e37 .LASF4368
     /tmp/ccghGiGC.s:89461  .debug_str:0000000000000320 .LASF4369
     /tmp/ccghGiGC.s:92159  .debug_str:000000000000baeb .LASF4370
     /tmp/ccghGiGC.s:104747  .debug_str:000000000003ea26 .LASF4371
     /tmp/ccghGiGC.s:97737  .debug_str:00000000000226e9 .LASF4372
     /tmp/ccghGiGC.s:107609  .debug_str:000000000004a938 .LASF4373
     /tmp/ccghGiGC.s:94513  .debug_str:0000000000014c40 .LASF4374
     /tmp/ccghGiGC.s:98863  .debug_str:0000000000026cd5 .LASF4375
     /tmp/ccghGiGC.s:104037  .debug_str:000000000003b939 .LASF4376
     /tmp/ccghGiGC.s:90173  .debug_str:00000000000034bb .LASF4377
     /tmp/ccghGiGC.s:104841  .debug_str:000000000003ef61 .LASF4378
     /tmp/ccghGiGC.s:93945  .debug_str:000000000001274e .LASF4379
     /tmp/ccghGiGC.s:95425  .debug_str:000000000001873f .LASF4380
     /tmp/ccghGiGC.s:103095  .debug_str:000000000003818d .LASF4381
     /tmp/ccghGiGC.s:92473  .debug_str:000000000000d067 .LASF4382
     /tmp/ccghGiGC.s:100331  .debug_str:000000000002cb46 .LASF4383
     /tmp/ccghGiGC.s:100551  .debug_str:000000000002d8ca .LASF4384
     /tmp/ccghGiGC.s:106033  .debug_str:00000000000442e7 .LASF4385
     /tmp/ccghGiGC.s:99231  .debug_str:000000000002846e .LASF4386
     /tmp/ccghGiGC.s:95803  .debug_str:0000000000019fd2 .LASF4387
     /tmp/ccghGiGC.s:90191  .debug_str:0000000000003598 .LASF4388
     /tmp/ccghGiGC.s:99055  .debug_str:0000000000027887 .LASF4389
     /tmp/ccghGiGC.s:90083  .debug_str:0000000000002e54 .LASF4390
     /tmp/ccghGiGC.s:101049  .debug_str:000000000002fa36 .LASF4391
     /tmp/ccghGiGC.s:104775  .debug_str:000000000003ec08 .LASF4392
     /tmp/ccghGiGC.s:93915  .debug_str:000000000001257b .LASF4393
     /tmp/ccghGiGC.s:94443  .debug_str:0000000000014812 .LASF4394
     /tmp/ccghGiGC.s:103001  .debug_str:0000000000037b8c .LASF4395
     /tmp/ccghGiGC.s:98717  .debug_str:000000000002639a .LASF4396
     /tmp/ccghGiGC.s:108159  .debug_str:000000000004cff5 .LASF4397
     /tmp/ccghGiGC.s:99645  .debug_str:000000000002a056 .LASF4398
     /tmp/ccghGiGC.s:107887  .debug_str:000000000004bd56 .LASF4399
     /tmp/ccghGiGC.s:99853  .debug_str:000000000002ada1 .LASF4400
     /tmp/ccghGiGC.s:94003  .debug_str:0000000000012b03 .LASF4401
     /tmp/ccghGiGC.s:106571  .debug_str:000000000004665b .LASF4402
     /tmp/ccghGiGC.s:104041  .debug_str:000000000003b992 .LASF4403
     /tmp/ccghGiGC.s:107433  .debug_str:0000000000049e99 .LASF4404
     /tmp/ccghGiGC.s:102667  .debug_str:00000000000365b1 .LASF4405
     /tmp/ccghGiGC.s:103677  .debug_str:000000000003a0ba .LASF4406
     /tmp/ccghGiGC.s:92263  .debug_str:000000000000c292 .LASF4407
     /tmp/ccghGiGC.s:105181  .debug_str:0000000000040507 .LASF4408
     /tmp/ccghGiGC.s:102833  .debug_str:00000000000370a5 .LASF4409
     /tmp/ccghGiGC.s:96969  .debug_str:000000000001f0bf .LASF4410
     /tmp/ccghGiGC.s:108187  .debug_str:000000000004d1e9 .LASF4411
     /tmp/ccghGiGC.s:102787  .debug_str:0000000000036d98 .LASF4412
     /tmp/ccghGiGC.s:94825  .debug_str:0000000000015faa .LASF4413
     /tmp/ccghGiGC.s:93179  .debug_str:000000000000f90b .LASF4414
     /tmp/ccghGiGC.s:100489  .debug_str:000000000002d525 .LASF4415
     /tmp/ccghGiGC.s:107333  .debug_str:00000000000497d0 .LASF4416
     /tmp/ccghGiGC.s:93115  .debug_str:000000000000f54e .LASF4417
     /tmp/ccghGiGC.s:99711  .debug_str:000000000002a4b8 .LASF4418
     /tmp/ccghGiGC.s:104507  .debug_str:000000000003d8c3 .LASF4419
     /tmp/ccghGiGC.s:89755  .debug_str:00000000000016a6 .LASF4420
     /tmp/ccghGiGC.s:90357  .debug_str:00000000000040b1 .LASF4421
     /tmp/ccghGiGC.s:90639  .debug_str:000000000000535e .LASF4422
     /tmp/ccghGiGC.s:100927  .debug_str:000000000002f15f .LASF4423
     /tmp/ccghGiGC.s:92323  .debug_str:000000000000c643 .LASF4424
     /tmp/ccghGiGC.s:105331  .debug_str:0000000000041069 .LASF4425
     /tmp/ccghGiGC.s:93283  .debug_str:0000000000010056 .LASF4426
     /tmp/ccghGiGC.s:101511  .debug_str:0000000000031738 .LASF4427
     /tmp/ccghGiGC.s:108099  .debug_str:000000000004cb5b .LASF4428
     /tmp/ccghGiGC.s:104407  .debug_str:000000000003d273 .LASF4429
     /tmp/ccghGiGC.s:93755  .debug_str:0000000000011aa1 .LASF4430
     /tmp/ccghGiGC.s:106299  .debug_str:0000000000045424 .LASF4431
     /tmp/ccghGiGC.s:104465  .debug_str:000000000003d5ce .LASF4432
     /tmp/ccghGiGC.s:103495  .debug_str:0000000000039713 .LASF4433
     /tmp/ccghGiGC.s:97775  .debug_str:00000000000228cc .LASF4434
     /tmp/ccghGiGC.s:100933  .debug_str:000000000002f1cb .LASF4435
     /tmp/ccghGiGC.s:93375  .debug_str:00000000000104d9 .LASF4436
     /tmp/ccghGiGC.s:97113  .debug_str:000000000001fbc3 .LASF4437
     /tmp/ccghGiGC.s:92471  .debug_str:000000000000d053 .LASF4438
     /tmp/ccghGiGC.s:92343  .debug_str:000000000000c77d .LASF4439
     /tmp/ccghGiGC.s:92977  .debug_str:000000000000ee0f .LASF4440
     /tmp/ccghGiGC.s:102513  .debug_str:0000000000035b4a .LASF4441
     /tmp/ccghGiGC.s:94673  .debug_str:00000000000155f2 .LASF4442
     /tmp/ccghGiGC.s:90421  .debug_str:000000000000459f .LASF4443
     /tmp/ccghGiGC.s:107515  .debug_str:000000000004a375 .LASF4444
     /tmp/ccghGiGC.s:98595  .debug_str:0000000000025ca5 .LASF4445
     /tmp/ccghGiGC.s:101935  .debug_str:0000000000033363 .LASF4446
     /tmp/ccghGiGC.s:91651  .debug_str:00000000000097eb .LASF4447
     /tmp/ccghGiGC.s:101249  .debug_str:000000000003065d .LASF4448
     /tmp/ccghGiGC.s:100785  .debug_str:000000000002e817 .LASF4449
     /tmp/ccghGiGC.s:94999  .debug_str:0000000000016ac8 .LASF4450
     /tmp/ccghGiGC.s:107569  .debug_str:000000000004a64d .LASF4451
     /tmp/ccghGiGC.s:105481  .debug_str:0000000000041b4e .LASF4452
     /tmp/ccghGiGC.s:99961  .debug_str:000000000002b487 .LASF4453
     /tmp/ccghGiGC.s:108667  .debug_str:000000000004f326 .LASF4454
     /tmp/ccghGiGC.s:107141  .debug_str:0000000000048b5d .LASF4455
     /tmp/ccghGiGC.s:99013  .debug_str:00000000000275b1 .LASF4456
     /tmp/ccghGiGC.s:98401  .debug_str:0000000000025236 .LASF4457
     /tmp/ccghGiGC.s:96015  .debug_str:000000000001af14 .LASF4458
     /tmp/ccghGiGC.s:96871  .debug_str:000000000001eab4 .LASF4459
     /tmp/ccghGiGC.s:96319  .debug_str:000000000001c391 .LASF4460
     /tmp/ccghGiGC.s:102235  .debug_str:0000000000034768 .LASF4461
     /tmp/ccghGiGC.s:90685  .debug_str:000000000000568c .LASF4462
     /tmp/ccghGiGC.s:101265  .debug_str:000000000003077f .LASF4463
     /tmp/ccghGiGC.s:102263  .debug_str:00000000000348c3 .LASF4464
     /tmp/ccghGiGC.s:104695  .debug_str:000000000003e67e .LASF4465
     /tmp/ccghGiGC.s:92261  .debug_str:000000000000c276 .LASF4466
     /tmp/ccghGiGC.s:95947  .debug_str:000000000001aa25 .LASF4467
     /tmp/ccghGiGC.s:90097  .debug_str:0000000000002f70 .LASF4468
     /tmp/ccghGiGC.s:91567  .debug_str:0000000000009280 .LASF4469
     /tmp/ccghGiGC.s:89671  .debug_str:000000000000113c .LASF4470
     /tmp/ccghGiGC.s:95297  .debug_str:0000000000017f46 .LASF4471
     /tmp/ccghGiGC.s:107759  .debug_str:000000000004b46a .LASF4472
     /tmp/ccghGiGC.s:101413  .debug_str:0000000000031176 .LASF4473
     /tmp/ccghGiGC.s:92883  .debug_str:000000000000e8e3 .LASF4474
     /tmp/ccghGiGC.s:96675  .debug_str:000000000001dcc8 .LASF4475
     /tmp/ccghGiGC.s:98955  .debug_str:00000000000272af .LASF4476
     /tmp/ccghGiGC.s:97393  .debug_str:0000000000020f90 .LASF4477
     /tmp/ccghGiGC.s:98817  .debug_str:0000000000026958 .LASF4478
     /tmp/ccghGiGC.s:92305  .debug_str:000000000000c51e .LASF4479
     /tmp/ccghGiGC.s:96037  .debug_str:000000000001b09d .LASF4480
     /tmp/ccghGiGC.s:105349  .debug_str:00000000000411a6 .LASF4481
     /tmp/ccghGiGC.s:96643  .debug_str:000000000001da67 .LASF4482
     /tmp/ccghGiGC.s:96203  .debug_str:000000000001bb61 .LASF4483
     /tmp/ccghGiGC.s:100041  .debug_str:000000000002ba03 .LASF4484
     /tmp/ccghGiGC.s:93515  .debug_str:0000000000010be1 .LASF4485
     /tmp/ccghGiGC.s:104153  .debug_str:000000000003c109 .LASF4486
     /tmp/ccghGiGC.s:95305  .debug_str:0000000000017f9c .LASF4487
     /tmp/ccghGiGC.s:91727  .debug_str:0000000000009dd1 .LASF4488
     /tmp/ccghGiGC.s:101259  .debug_str:0000000000030725 .LASF4489
     /tmp/ccghGiGC.s:107027  .debug_str:00000000000483fd .LASF4490
     /tmp/ccghGiGC.s:92199  .debug_str:000000000000be63 .LASF4491
     /tmp/ccghGiGC.s:97545  .debug_str:000000000002198d .LASF4492
     /tmp/ccghGiGC.s:96819  .debug_str:000000000001e75b .LASF4493
     /tmp/ccghGiGC.s:94719  .debug_str:00000000000158fd .LASF4494
     /tmp/ccghGiGC.s:106865  .debug_str:0000000000047924 .LASF4495
     /tmp/ccghGiGC.s:94079  .debug_str:0000000000013022 .LASF4496
     /tmp/ccghGiGC.s:96821  .debug_str:000000000001e77a .LASF4497
     /tmp/ccghGiGC.s:92753  .debug_str:000000000000e177 .LASF4498
     /tmp/ccghGiGC.s:102493  .debug_str:0000000000035967 .LASF4499
     /tmp/ccghGiGC.s:104185  .debug_str:000000000003c38c .LASF4500
     /tmp/ccghGiGC.s:102071  .debug_str:0000000000033cdc .LASF4501
     /tmp/ccghGiGC.s:106345  .debug_str:000000000004571f .LASF4502
     /tmp/ccghGiGC.s:108613  .debug_str:000000000004ef48 .LASF4503
     /tmp/ccghGiGC.s:101451  .debug_str:000000000003138e .LASF4504
     /tmp/ccghGiGC.s:100435  .debug_str:000000000002d219 .LASF4505
     /tmp/ccghGiGC.s:90189  .debug_str:0000000000003589 .LASF4506
     /tmp/ccghGiGC.s:103167  .debug_str:00000000000385aa .LASF4507
     /tmp/ccghGiGC.s:97657  .debug_str:0000000000022192 .LASF4508
     /tmp/ccghGiGC.s:101811  .debug_str:0000000000032b85 .LASF4509
     /tmp/ccghGiGC.s:94033  .debug_str:0000000000012cf4 .LASF4510
     /tmp/ccghGiGC.s:99741  .debug_str:000000000002a6e4 .LASF4511
     /tmp/ccghGiGC.s:91633  .debug_str:00000000000096b3 .LASF4512
     /tmp/ccghGiGC.s:100255  .debug_str:000000000002c6dc .LASF4513
     /tmp/ccghGiGC.s:108765  .debug_str:000000000004f98d .LASF4514
     /tmp/ccghGiGC.s:90297  .debug_str:0000000000003c8f .LASF4515
     /tmp/ccghGiGC.s:95439  .debug_str:0000000000018815 .LASF4516
     /tmp/ccghGiGC.s:100657  .debug_str:000000000002dfcf .LASF4517
     /tmp/ccghGiGC.s:104283  .debug_str:000000000003caf1 .LASF4518
     /tmp/ccghGiGC.s:102527  .debug_str:0000000000035bf0 .LASF4519
     /tmp/ccghGiGC.s:95097  .debug_str:0000000000017157 .LASF4520
     /tmp/ccghGiGC.s:96663  .debug_str:000000000001dbe2 .LASF4521
     /tmp/ccghGiGC.s:96565  .debug_str:000000000001d4ca .LASF4522
     /tmp/ccghGiGC.s:90819  .debug_str:0000000000005fb1 .LASF4523
     /tmp/ccghGiGC.s:90491  .debug_str:0000000000004a18 .LASF4524
     /tmp/ccghGiGC.s:104597  .debug_str:000000000003dfd3 .LASF4525
     /tmp/ccghGiGC.s:107743  .debug_str:000000000004b334 .LASF4526
     /tmp/ccghGiGC.s:100845  .debug_str:000000000002ec61 .LASF4527
     /tmp/ccghGiGC.s:105493  .debug_str:0000000000041c53 .LASF4528
     /tmp/ccghGiGC.s:97229  .debug_str:0000000000020425 .LASF4529
     /tmp/ccghGiGC.s:105823  .debug_str:0000000000043534 .LASF4530
     /tmp/ccghGiGC.s:95309  .debug_str:0000000000017fea .LASF4531
     /tmp/ccghGiGC.s:92137  .debug_str:000000000000b9a3 .LASF4532
     /tmp/ccghGiGC.s:108827  .debug_str:000000000004fdfc .LASF4533
     /tmp/ccghGiGC.s:90287  .debug_str:0000000000003be2 .LASF4534
     /tmp/ccghGiGC.s:90373  .debug_str:00000000000041d9 .LASF4535
     /tmp/ccghGiGC.s:102735  .debug_str:0000000000036a2c .LASF4536
     /tmp/ccghGiGC.s:97395  .debug_str:0000000000020fa7 .LASF4537
     /tmp/ccghGiGC.s:96757  .debug_str:000000000001e2d2 .LASF4538
     /tmp/ccghGiGC.s:107935  .debug_str:000000000004c080 .LASF4539
     /tmp/ccghGiGC.s:96049  .debug_str:000000000001b134 .LASF4540
     /tmp/ccghGiGC.s:108449  .debug_str:000000000004e46d .LASF4541
     /tmp/ccghGiGC.s:101871  .debug_str:0000000000033008 .LASF4542
     /tmp/ccghGiGC.s:93031  .debug_str:000000000000f03e .LASF4543
     /tmp/ccghGiGC.s:94371  .debug_str:0000000000014336 .LASF4544
     /tmp/ccghGiGC.s:101029  .debug_str:000000000002f8cc .LASF4545
     /tmp/ccghGiGC.s:104911  .debug_str:000000000003f41c .LASF4546
     /tmp/ccghGiGC.s:90119  .debug_str:000000000000312d .LASF4547
     /tmp/ccghGiGC.s:90707  .debug_str:00000000000057c0 .LASF4548
     /tmp/ccghGiGC.s:101559  .debug_str:0000000000031af9 .LASF4549
     /tmp/ccghGiGC.s:94295  .debug_str:0000000000013ed4 .LASF4550
     /tmp/ccghGiGC.s:89745  .debug_str:00000000000015e4 .LASF4551
     /tmp/ccghGiGC.s:91425  .debug_str:00000000000088e4 .LASF4552
     /tmp/ccghGiGC.s:105647  .debug_str:00000000000429a0 .LASF4553
     /tmp/ccghGiGC.s:91073  .debug_str:000000000000716e .LASF4554
     /tmp/ccghGiGC.s:97083  .debug_str:000000000001f9c5 .LASF4555
     /tmp/ccghGiGC.s:89741  .debug_str:00000000000015ad .LASF4556
     /tmp/ccghGiGC.s:97319  .debug_str:0000000000020b29 .LASF4557
     /tmp/ccghGiGC.s:91649  .debug_str:00000000000097d8 .LASF4558
     /tmp/ccghGiGC.s:101903  .debug_str:00000000000331af .LASF4559
     /tmp/ccghGiGC.s:103595  .debug_str:0000000000039c3b .LASF4560
     /tmp/ccghGiGC.s:106573  .debug_str:000000000004666e .LASF4561
     /tmp/ccghGiGC.s:107847  .debug_str:000000000004ba79 .LASF4562
     /tmp/ccghGiGC.s:92973  .debug_str:000000000000edea .LASF4563
     /tmp/ccghGiGC.s:90253  .debug_str:00000000000039aa .LASF4564
     /tmp/ccghGiGC.s:98919  .debug_str:00000000000270b1 .LASF4565
     /tmp/ccghGiGC.s:96605  .debug_str:000000000001d7a0 .LASF4566
     /tmp/ccghGiGC.s:99649  .debug_str:000000000002a088 .LASF4567
     /tmp/ccghGiGC.s:95983  .debug_str:000000000001ad1d .LASF4568
     /tmp/ccghGiGC.s:97351  .debug_str:0000000000020d1e .LASF4569
     /tmp/ccghGiGC.s:105947  .debug_str:0000000000043d6e .LASF4570
     /tmp/ccghGiGC.s:97913  .debug_str:00000000000231e5 .LASF4571
     /tmp/ccghGiGC.s:103753  .debug_str:000000000003a5b3 .LASF4572
     /tmp/ccghGiGC.s:92665  .debug_str:000000000000dd07 .LASF4573
     /tmp/ccghGiGC.s:107277  .debug_str:000000000004940a .LASF4574
     /tmp/ccghGiGC.s:104435  .debug_str:000000000003d40c .LASF4575
     /tmp/ccghGiGC.s:101577  .debug_str:0000000000031c38 .LASF4576
     /tmp/ccghGiGC.s:104479  .debug_str:000000000003d704 .LASF4577
     /tmp/ccghGiGC.s:93519  .debug_str:0000000000010c36 .LASF4578
     /tmp/ccghGiGC.s:102257  .debug_str:0000000000034860 .LASF4579
     /tmp/ccghGiGC.s:106737  .debug_str:000000000004709b .LASF4580
     /tmp/ccghGiGC.s:99973  .debug_str:000000000002b4f0 .LASF4581
     /tmp/ccghGiGC.s:108495  .debug_str:000000000004e7f0 .LASF4582
     /tmp/ccghGiGC.s:94131  .debug_str:000000000001348b .LASF4583
     /tmp/ccghGiGC.s:89481  .debug_str:0000000000000485 .LASF4584
     /tmp/ccghGiGC.s:98109  .debug_str:0000000000023f6f .LASF4585
     /tmp/ccghGiGC.s:92119  .debug_str:000000000000b835 .LASF4586
     /tmp/ccghGiGC.s:106985  .debug_str:000000000004817e .LASF4587
     /tmp/ccghGiGC.s:104241  .debug_str:000000000003c7fc .LASF4588
     /tmp/ccghGiGC.s:104061  .debug_str:000000000003baca .LASF4589
     /tmp/ccghGiGC.s:93429  .debug_str:000000000001076d .LASF4590
     /tmp/ccghGiGC.s:95403  .debug_str:00000000000185f4 .LASF4591
     /tmp/ccghGiGC.s:93267  .debug_str:000000000000ff1d .LASF4592
     /tmp/ccghGiGC.s:99565  .debug_str:0000000000029b42 .LASF4593
     /tmp/ccghGiGC.s:105201  .debug_str:0000000000040605 .LASF4594
     /tmp/ccghGiGC.s:97259  .debug_str:000000000002062f .LASF4595
     /tmp/ccghGiGC.s:105849  .debug_str:0000000000043735 .LASF4596
     /tmp/ccghGiGC.s:94957  .debug_str:00000000000167a7 .LASF4597
     /tmp/ccghGiGC.s:103671  .debug_str:000000000003a06e .LASF4598
     /tmp/ccghGiGC.s:106189  .debug_str:0000000000044d3c .LASF4599
     /tmp/ccghGiGC.s:103389  .debug_str:0000000000039133 .LASF4600
     /tmp/ccghGiGC.s:96845  .debug_str:000000000001e8ba .LASF4601
     /tmp/ccghGiGC.s:105441  .debug_str:0000000000041901 .LASF4602
     /tmp/ccghGiGC.s:94565  .debug_str:0000000000014f0a .LASF4603
     /tmp/ccghGiGC.s:101069  .debug_str:000000000002fb54 .LASF4604
     /tmp/ccghGiGC.s:92217  .debug_str:000000000000bfb1 .LASF4605
     /tmp/ccghGiGC.s:108695  .debug_str:000000000004f4b0 .LASF4606
     /tmp/ccghGiGC.s:102645  .debug_str:000000000003641d .LASF4607
     /tmp/ccghGiGC.s:102853  .debug_str:00000000000371b0 .LASF4608
     /tmp/ccghGiGC.s:90305  .debug_str:0000000000003d0a .LASF4609
     /tmp/ccghGiGC.s:107375  .debug_str:0000000000049a2e .LASF4610
     /tmp/ccghGiGC.s:90167  .debug_str:0000000000003459 .LASF4611
     /tmp/ccghGiGC.s:96695  .debug_str:000000000001de87 .LASF4612
     /tmp/ccghGiGC.s:93023  .debug_str:000000000000efbb .LASF4613
     /tmp/ccghGiGC.s:90183  .debug_str:0000000000003559 .LASF4614
     /tmp/ccghGiGC.s:95077  .debug_str:0000000000017023 .LASF4615
     /tmp/ccghGiGC.s:96365  .debug_str:000000000001c774 .LASF4616
     /tmp/ccghGiGC.s:100893  .debug_str:000000000002ef4a .LASF4617
     /tmp/ccghGiGC.s:89869  .debug_str:0000000000001ffd .LASF4618
     /tmp/ccghGiGC.s:101197  .debug_str:0000000000030353 .LASF4619
     /tmp/ccghGiGC.s:90193  .debug_str:00000000000035ad .LASF4620
     /tmp/ccghGiGC.s:95905  .debug_str:000000000001a757 .LASF4621
     /tmp/ccghGiGC.s:104533  .debug_str:000000000003da8c .LASF4622
     /tmp/ccghGiGC.s:93397  .debug_str:0000000000010602 .LASF4623
     /tmp/ccghGiGC.s:105291  .debug_str:0000000000040c73 .LASF4624
     /tmp/ccghGiGC.s:93745  .debug_str:00000000000119f6 .LASF4625
     /tmp/ccghGiGC.s:101499  .debug_str:00000000000316a6 .LASF4626
     /tmp/ccghGiGC.s:107445  .debug_str:0000000000049f5b .LASF4627
     /tmp/ccghGiGC.s:107889  .debug_str:000000000004bd67 .LASF4628
     /tmp/ccghGiGC.s:94811  .debug_str:0000000000015f28 .LASF4629
     /tmp/ccghGiGC.s:103515  .debug_str:0000000000039806 .LASF4630
     /tmp/ccghGiGC.s:107853  .debug_str:000000000004bae2 .LASF4631
     /tmp/ccghGiGC.s:101235  .debug_str:00000000000305db .LASF4632
     /tmp/ccghGiGC.s:94433  .debug_str:0000000000014754 .LASF4633
     /tmp/ccghGiGC.s:98909  .debug_str:0000000000026fed .LASF4634
     /tmp/ccghGiGC.s:107481  .debug_str:000000000004a149 .LASF4635
     /tmp/ccghGiGC.s:96629  .debug_str:000000000001d966 .LASF4636
     /tmp/ccghGiGC.s:105021  .debug_str:000000000003fb7b .LASF4637
     /tmp/ccghGiGC.s:95527  .debug_str:0000000000018cd3 .LASF4638
     /tmp/ccghGiGC.s:105537  .debug_str:000000000004216b .LASF4639
     /tmp/ccghGiGC.s:94647  .debug_str:0000000000015450 .LASF4640
     /tmp/ccghGiGC.s:103345  .debug_str:0000000000038fc3 .LASF4641
     /tmp/ccghGiGC.s:92279  .debug_str:000000000000c376 .LASF4642
     /tmp/ccghGiGC.s:100681  .debug_str:000000000002e16e .LASF4643
     /tmp/ccghGiGC.s:90113  .debug_str:0000000000003098 .LASF4644
     /tmp/ccghGiGC.s:98587  .debug_str:0000000000025c32 .LASF4645
     /tmp/ccghGiGC.s:107187  .debug_str:0000000000048e01 .LASF4646
     /tmp/ccghGiGC.s:96337  .debug_str:000000000001c4eb .LASF4647
     /tmp/ccghGiGC.s:107643  .debug_str:000000000004abe1 .LASF4648
     /tmp/ccghGiGC.s:91137  .debug_str:00000000000075b9 .LASF4649
     /tmp/ccghGiGC.s:106589  .debug_str:0000000000046711 .LASF4650
     /tmp/ccghGiGC.s:108101  .debug_str:000000000004cb6e .LASF4651
     /tmp/ccghGiGC.s:97241  .debug_str:00000000000204f9 .LASF4652
     /tmp/ccghGiGC.s:96361  .debug_str:000000000001c756 .LASF4653
     /tmp/ccghGiGC.s:95805  .debug_str:0000000000019fe3 .LASF4654
     /tmp/ccghGiGC.s:107655  .debug_str:000000000004acb5 .LASF4655
     /tmp/ccghGiGC.s:97119  .debug_str:000000000001fc19 .LASF4656
     /tmp/ccghGiGC.s:100351  .debug_str:000000000002cc88 .LASF4657
     /tmp/ccghGiGC.s:91391  .debug_str:000000000000862b .LASF4658
     /tmp/ccghGiGC.s:102253  .debug_str:000000000003482a .LASF4659
     /tmp/ccghGiGC.s:93307  .debug_str:00000000000101a5 .LASF4660
     /tmp/ccghGiGC.s:101443  .debug_str:0000000000031333 .LASF4661
     /tmp/ccghGiGC.s:93971  .debug_str:000000000001287e .LASF4662
     /tmp/ccghGiGC.s:94569  .debug_str:0000000000014f5d .LASF4663
     /tmp/ccghGiGC.s:104493  .debug_str:000000000003d7d5 .LASF4664
     /tmp/ccghGiGC.s:104287  .debug_str:000000000003cb2a .LASF4665
     /tmp/ccghGiGC.s:106183  .debug_str:0000000000044cc5 .LASF4666
     /tmp/ccghGiGC.s:106485  .debug_str:00000000000460a0 .LASF4667
     /tmp/ccghGiGC.s:92059  .debug_str:000000000000b410 .LASF4668
     /tmp/ccghGiGC.s:99307  .debug_str:00000000000289f0 .LASF4669
     /tmp/ccghGiGC.s:102841  .debug_str:00000000000370e4 .LASF4670
     /tmp/ccghGiGC.s:99257  .debug_str:0000000000028617 .LASF4671
     /tmp/ccghGiGC.s:104867  .debug_str:000000000003f146 .LASF4672
     /tmp/ccghGiGC.s:102977  .debug_str:0000000000037a04 .LASF4673
     /tmp/ccghGiGC.s:98279  .debug_str:0000000000024b07 .LASF4674
     /tmp/ccghGiGC.s:91319  .debug_str:0000000000008139 .LASF4675
     /tmp/ccghGiGC.s:100127  .debug_str:000000000002bea3 .LASF4676
     /tmp/ccghGiGC.s:93327  .debug_str:00000000000102e4 .LASF4677
     /tmp/ccghGiGC.s:102029  .debug_str:0000000000033a46 .LASF4678
     /tmp/ccghGiGC.s:93067  .debug_str:000000000000f2e3 .LASF4679
     /tmp/ccghGiGC.s:93075  .debug_str:000000000000f37e .LASF4680
     /tmp/ccghGiGC.s:95069  .debug_str:0000000000016fa4 .LASF4681
     /tmp/ccghGiGC.s:105765  .debug_str:000000000004310e .LASF4682
     /tmp/ccghGiGC.s:96795  .debug_str:000000000001e57d .LASF4683
     /tmp/ccghGiGC.s:92101  .debug_str:000000000000b73a .LASF4684
     /tmp/ccghGiGC.s:103065  .debug_str:0000000000037f18 .LASF4685
     /tmp/ccghGiGC.s:104079  .debug_str:000000000003bbb8 .LASF4686
     /tmp/ccghGiGC.s:103361  .debug_str:0000000000039088 .LASF4687
     /tmp/ccghGiGC.s:92491  .debug_str:000000000000d19a .LASF4688
     /tmp/ccghGiGC.s:90311  .debug_str:0000000000003d7b .LASF4689
     /tmp/ccghGiGC.s:95295  .debug_str:0000000000017f2e .LASF4690
     /tmp/ccghGiGC.s:106015  .debug_str:0000000000044210 .LASF4691
     /tmp/ccghGiGC.s:105115  .debug_str:00000000000400e5 .LASF4692
     /tmp/ccghGiGC.s:103665  .debug_str:000000000003a02d .LASF4693
     /tmp/ccghGiGC.s:99127  .debug_str:0000000000027dbb .LASF4694
     /tmp/ccghGiGC.s:96047  .debug_str:000000000001b11b .LASF4695
     /tmp/ccghGiGC.s:105799  .debug_str:00000000000433b6 .LASF4696
     /tmp/ccghGiGC.s:97939  .debug_str:0000000000023360 .LASF4697
     /tmp/ccghGiGC.s:101953  .debug_str:00000000000334b7 .LASF4698
     /tmp/ccghGiGC.s:103359  .debug_str:000000000003906f .LASF4699
     /tmp/ccghGiGC.s:106549  .debug_str:00000000000464ab .LASF4700
     /tmp/ccghGiGC.s:101637  .debug_str:0000000000031f5c .LASF4701
     /tmp/ccghGiGC.s:92659  .debug_str:000000000000dcdc .LASF4702
     /tmp/ccghGiGC.s:103549  .debug_str:000000000003995c .LASF4703
     /tmp/ccghGiGC.s:94655  .debug_str:00000000000154f3 .LASF4704
     /tmp/ccghGiGC.s:104485  .debug_str:000000000003d73c .LASF4705
     /tmp/ccghGiGC.s:100691  .debug_str:000000000002e1fc .LASF4706
     /tmp/ccghGiGC.s:91675  .debug_str:000000000000995b .LASF4707
     /tmp/ccghGiGC.s:102567  .debug_str:0000000000035efa .LASF4708
     /tmp/ccghGiGC.s:93647  .debug_str:0000000000011413 .LASF4709
     /tmp/ccghGiGC.s:96005  .debug_str:000000000001ae64 .LASF4710
     /tmp/ccghGiGC.s:95449  .debug_str:00000000000188b4 .LASF4711
     /tmp/ccghGiGC.s:92237  .debug_str:000000000000c10d .LASF4712
     /tmp/ccghGiGC.s:104883  .debug_str:000000000003f248 .LASF4713
     /tmp/ccghGiGC.s:108015  .debug_str:000000000004c563 .LASF4714
     /tmp/ccghGiGC.s:91405  .debug_str:000000000000875b .LASF4715
     /tmp/ccghGiGC.s:95709  .debug_str:0000000000019991 .LASF4716
     /tmp/ccghGiGC.s:103767  .debug_str:000000000003a6c3 .LASF4717
     /tmp/ccghGiGC.s:91325  .debug_str:0000000000008198 .LASF4718
     /tmp/ccghGiGC.s:105603  .debug_str:0000000000042633 .LASF4719
     /tmp/ccghGiGC.s:92207  .debug_str:000000000000bf25 .LASF4720
     /tmp/ccghGiGC.s:96633  .debug_str:000000000001d998 .LASF4721
     /tmp/ccghGiGC.s:94185  .debug_str:00000000000137e9 .LASF4722
     /tmp/ccghGiGC.s:100341  .debug_str:000000000002cbdc .LASF4723
     /tmp/ccghGiGC.s:105007  .debug_str:000000000003fa58 .LASF4724
     /tmp/ccghGiGC.s:103073  .debug_str:0000000000037f83 .LASF4725
     /tmp/ccghGiGC.s:105327  .debug_str:000000000004102b .LASF4726
     /tmp/ccghGiGC.s:106537  .debug_str:00000000000463ef .LASF4727
     /tmp/ccghGiGC.s:107253  .debug_str:000000000004927e .LASF4728
     /tmp/ccghGiGC.s:95563  .debug_str:0000000000018f42 .LASF4729
     /tmp/ccghGiGC.s:100245  .debug_str:000000000002c65b .LASF4730
     /tmp/ccghGiGC.s:99627  .debug_str:0000000000029f02 .LASF4731
     /tmp/ccghGiGC.s:102487  .debug_str:00000000000358c7 .LASF4732
     /tmp/ccghGiGC.s:93887  .debug_str:00000000000123bd .LASF4733
     /tmp/ccghGiGC.s:108131  .debug_str:000000000004cd8b .LASF4734
     /tmp/ccghGiGC.s:100389  .debug_str:000000000002cf62 .LASF4735
     /tmp/ccghGiGC.s:90289  .debug_str:0000000000003bf9 .LASF4736
     /tmp/ccghGiGC.s:104679  .debug_str:000000000003e583 .LASF4737
     /tmp/ccghGiGC.s:106439  .debug_str:0000000000045da5 .LASF4738
     /tmp/ccghGiGC.s:91223  .debug_str:0000000000007b1c .LASF4739
     /tmp/ccghGiGC.s:100573  .debug_str:000000000002da40 .LASF4740
     /tmp/ccghGiGC.s:106069  .debug_str:0000000000044519 .LASF4741
     /tmp/ccghGiGC.s:100001  .debug_str:000000000002b717 .LASF4742
     /tmp/ccghGiGC.s:94221  .debug_str:0000000000013a23 .LASF4743
     /tmp/ccghGiGC.s:89651  .debug_str:0000000000000fc1 .LASF4744
     /tmp/ccghGiGC.s:99953  .debug_str:000000000002b410 .LASF4745
     /tmp/ccghGiGC.s:99845  .debug_str:000000000002ad01 .LASF4746
     /tmp/ccghGiGC.s:98705  .debug_str:00000000000262b1 .LASF4747
     /tmp/ccghGiGC.s:90889  .debug_str:0000000000006438 .LASF4748
     /tmp/ccghGiGC.s:97067  .debug_str:000000000001f8a0 .LASF4749
     /tmp/ccghGiGC.s:101659  .debug_str:00000000000320a1 .LASF4750
     /tmp/ccghGiGC.s:95431  .debug_str:0000000000018786 .LASF4751
     /tmp/ccghGiGC.s:92829  .debug_str:000000000000e607 .LASF4752
     /tmp/ccghGiGC.s:92701  .debug_str:000000000000de75 .LASF4753
     /tmp/ccghGiGC.s:93927  .debug_str:0000000000012602 .LASF4754
     /tmp/ccghGiGC.s:91787  .debug_str:000000000000a17a .LASF4755
     /tmp/ccghGiGC.s:95761  .debug_str:0000000000019d4a .LASF4756
     /tmp/ccghGiGC.s:99085  .debug_str:0000000000027add .LASF4757
     /tmp/ccghGiGC.s:103569  .debug_str:0000000000039a62 .LASF4758
     /tmp/ccghGiGC.s:101795  .debug_str:0000000000032a2c .LASF4759
     /tmp/ccghGiGC.s:100789  .debug_str:000000000002e852 .LASF4760
     /tmp/ccghGiGC.s:104781  .debug_str:000000000003ec57 .LASF4761
     /tmp/ccghGiGC.s:99959  .debug_str:000000000002b45a .LASF4762
     /tmp/ccghGiGC.s:107607  .debug_str:000000000004a90a .LASF4763
     /tmp/ccghGiGC.s:90061  .debug_str:0000000000002cf4 .LASF4764
     /tmp/ccghGiGC.s:103343  .debug_str:0000000000038f9b .LASF4765
     /tmp/ccghGiGC.s:108127  .debug_str:000000000004cd4e .LASF4766
     /tmp/ccghGiGC.s:102597  .debug_str:000000000003616a .LASF4767
     /tmp/ccghGiGC.s:102775  .debug_str:0000000000036cc7 .LASF4768
     /tmp/ccghGiGC.s:106113  .debug_str:000000000004484c .LASF4769
     /tmp/ccghGiGC.s:96107  .debug_str:000000000001b4cb .LASF4770
     /tmp/ccghGiGC.s:90261  .debug_str:00000000000039f4 .LASF4771
     /tmp/ccghGiGC.s:92953  .debug_str:000000000000ed00 .LASF4772
     /tmp/ccghGiGC.s:91701  .debug_str:0000000000009b88 .LASF4773
     /tmp/ccghGiGC.s:98523  .debug_str:00000000000258ca .LASF4774
     /tmp/ccghGiGC.s:105763  .debug_str:00000000000430e8 .LASF4775
     /tmp/ccghGiGC.s:92815  .debug_str:000000000000e55d .LASF4776
     /tmp/ccghGiGC.s:94395  .debug_str:00000000000144c9 .LASF4777
     /tmp/ccghGiGC.s:93131  .debug_str:000000000000f6c4 .LASF4778
     /tmp/ccghGiGC.s:100179  .debug_str:000000000002c249 .LASF4779
     /tmp/ccghGiGC.s:107223  .debug_str:0000000000049055 .LASF4780
     /tmp/ccghGiGC.s:102009  .debug_str:000000000003387f .LASF4781
     /tmp/ccghGiGC.s:108029  .debug_str:000000000004c66c .LASF4782
     /tmp/ccghGiGC.s:103431  .debug_str:00000000000393f9 .LASF4783
     /tmp/ccghGiGC.s:89861  .debug_str:0000000000001f8a .LASF4784
     /tmp/ccghGiGC.s:95949  .debug_str:000000000001aa40 .LASF4785
     /tmp/ccghGiGC.s:99781  .debug_str:000000000002a98a .LASF4786
     /tmp/ccghGiGC.s:106313  .debug_str:00000000000454e9 .LASF4787
     /tmp/ccghGiGC.s:94413  .debug_str:00000000000145d8 .LASF4788
     /tmp/ccghGiGC.s:94349  .debug_str:00000000000141d2 .LASF4789
     /tmp/ccghGiGC.s:105539  .debug_str:0000000000042181 .LASF4790
     /tmp/ccghGiGC.s:107269  .debug_str:00000000000493a8 .LASF4791
     /tmp/ccghGiGC.s:95645  .debug_str:0000000000019515 .LASF4792
     /tmp/ccghGiGC.s:99891  .debug_str:000000000002af8b .LASF4793
     /tmp/ccghGiGC.s:105061  .debug_str:000000000003fdd7 .LASF4794
     /tmp/ccghGiGC.s:97889  .debug_str:0000000000023082 .LASF4795
     /tmp/ccghGiGC.s:95015  .debug_str:0000000000016c02 .LASF4796
     /tmp/ccghGiGC.s:104199  .debug_str:000000000003c4d6 .LASF4797
     /tmp/ccghGiGC.s:100241  .debug_str:000000000002c643 .LASF4798
     /tmp/ccghGiGC.s:95081  .debug_str:000000000001707e .LASF4799
     /tmp/ccghGiGC.s:98613  .debug_str:0000000000025dfd .LASF4800
     /tmp/ccghGiGC.s:98539  .debug_str:0000000000025a18 .LASF4801
     /tmp/ccghGiGC.s:90597  .debug_str:00000000000050c5 .LASF4802
     /tmp/ccghGiGC.s:93185  .debug_str:000000000000f962 .LASF4803
     /tmp/ccghGiGC.s:106519  .debug_str:00000000000462bd .LASF4804
     /tmp/ccghGiGC.s:90267  .debug_str:0000000000003a42 .LASF4805
     /tmp/ccghGiGC.s:96601  .debug_str:000000000001d741 .LASF4806
     /tmp/ccghGiGC.s:107261  .debug_str:00000000000492fd .LASF4807
     /tmp/ccghGiGC.s:101135  .debug_str:000000000002ff70 .LASF4808
     /tmp/ccghGiGC.s:94787  .debug_str:0000000000015dbf .LASF4809
     /tmp/ccghGiGC.s:97495  .debug_str:00000000000215c6 .LASF4810
     /tmp/ccghGiGC.s:96749  .debug_str:000000000001e22d .LASF4811
     /tmp/ccghGiGC.s:105989  .debug_str:0000000000043fe2 .LASF4812
     /tmp/ccghGiGC.s:95699  .debug_str:0000000000019901 .LASF4813
     /tmp/ccghGiGC.s:104917  .debug_str:000000000003f48f .LASF4814
     /tmp/ccghGiGC.s:94659  .debug_str:0000000000015526 .LASF4815
     /tmp/ccghGiGC.s:103997  .debug_str:000000000003b672 .LASF4816
     /tmp/ccghGiGC.s:92211  .debug_str:000000000000bf77 .LASF4817
     /tmp/ccghGiGC.s:90757  .debug_str:0000000000005b84 .LASF4818
     /tmp/ccghGiGC.s:91897  .debug_str:000000000000a8d8 .LASF4819
     /tmp/ccghGiGC.s:106525  .debug_str:0000000000046355 .LASF4820
     /tmp/ccghGiGC.s:92525  .debug_str:000000000000d43f .LASF4821
     /tmp/ccghGiGC.s:90929  .debug_str:00000000000066a7 .LASF4822
     /tmp/ccghGiGC.s:99677  .debug_str:000000000002a274 .LASF4823
     /tmp/ccghGiGC.s:99911  .debug_str:000000000002b153 .LASF4824
     /tmp/ccghGiGC.s:104995  .debug_str:000000000003f961 .LASF4825
     /tmp/ccghGiGC.s:100499  .debug_str:000000000002d5e4 .LASF4826
     /tmp/ccghGiGC.s:95937  .debug_str:000000000001a920 .LASF4827
     /tmp/ccghGiGC.s:107559  .debug_str:000000000004a58e .LASF4828
     /tmp/ccghGiGC.s:101407  .debug_str:000000000003110f .LASF4829
     /tmp/ccghGiGC.s:107735  .debug_str:000000000004b2b8 .LASF4830
     /tmp/ccghGiGC.s:101605  .debug_str:0000000000031d82 .LASF4831
     /tmp/ccghGiGC.s:95279  .debug_str:0000000000017e2d .LASF4832
     /tmp/ccghGiGC.s:108551  .debug_str:000000000004eb66 .LASF4833
     /tmp/ccghGiGC.s:102401  .debug_str:0000000000035261 .LASF4834
     /tmp/ccghGiGC.s:96083  .debug_str:000000000001b34d .LASF4835
     /tmp/ccghGiGC.s:101245  .debug_str:0000000000030637 .LASF4836
     /tmp/ccghGiGC.s:98501  .debug_str:00000000000257b0 .LASF4837
     /tmp/ccghGiGC.s:93803  .debug_str:0000000000011e03 .LASF4838
     /tmp/ccghGiGC.s:99685  .debug_str:000000000002a2eb .LASF4839
     /tmp/ccghGiGC.s:94771  .debug_str:0000000000015ca4 .LASF4840
     /tmp/ccghGiGC.s:99199  .debug_str:0000000000028258 .LASF4841
     /tmp/ccghGiGC.s:101385  .debug_str:0000000000030fa2 .LASF4842
     /tmp/ccghGiGC.s:92957  .debug_str:000000000000ed24 .LASF4843
     /tmp/ccghGiGC.s:100025  .debug_str:000000000002b8b3 .LASF4844
     /tmp/ccghGiGC.s:102593  .debug_str:00000000000360ea .LASF4845
     /tmp/ccghGiGC.s:106935  .debug_str:0000000000047dda .LASF4846
     /tmp/ccghGiGC.s:101539  .debug_str:0000000000031944 .LASF4847
     /tmp/ccghGiGC.s:94475  .debug_str:0000000000014a23 .LASF4848
     /tmp/ccghGiGC.s:100145  .debug_str:000000000002bf88 .LASF4849
     /tmp/ccghGiGC.s:93807  .debug_str:0000000000011e41 .LASF4850
     /tmp/ccghGiGC.s:96019  .debug_str:000000000001af44 .LASF4851
     /tmp/ccghGiGC.s:90109  .debug_str:0000000000003057 .LASF4852
     /tmp/ccghGiGC.s:94583  .debug_str:0000000000015032 .LASF4853
     /tmp/ccghGiGC.s:107817  .debug_str:000000000004b87d .LASF4854
     /tmp/ccghGiGC.s:102691  .debug_str:000000000003676c .LASF4855
     /tmp/ccghGiGC.s:105419  .debug_str:000000000004175d .LASF4856
     /tmp/ccghGiGC.s:98275  .debug_str:0000000000024ac4 .LASF4857
     /tmp/ccghGiGC.s:92841  .debug_str:000000000000e6d5 .LASF4858
     /tmp/ccghGiGC.s:98525  .debug_str:00000000000258fa .LASF4859
     /tmp/ccghGiGC.s:101225  .debug_str:00000000000304dd .LASF4860
     /tmp/ccghGiGC.s:90839  .debug_str:00000000000060a4 .LASF4861
     /tmp/ccghGiGC.s:99329  .debug_str:0000000000028b9d .LASF4862
     /tmp/ccghGiGC.s:89797  .debug_str:0000000000001ab6 .LASF4863
     /tmp/ccghGiGC.s:91695  .debug_str:0000000000009b0a .LASF4864
     /tmp/ccghGiGC.s:100171  .debug_str:000000000002c1b6 .LASF4865
     /tmp/ccghGiGC.s:93843  .debug_str:0000000000012073 .LASF4866
     /tmp/ccghGiGC.s:107095  .debug_str:0000000000048870 .LASF4867
     /tmp/ccghGiGC.s:92243  .debug_str:000000000000c169 .LASF4868
     /tmp/ccghGiGC.s:108073  .debug_str:000000000004c982 .LASF4869
     /tmp/ccghGiGC.s:99387  .debug_str:0000000000028f6c .LASF4870
     /tmp/ccghGiGC.s:93039  .debug_str:000000000000f0bf .LASF4871
     /tmp/ccghGiGC.s:95115  .debug_str:000000000001723e .LASF4872
     /tmp/ccghGiGC.s:101807  .debug_str:0000000000032b37 .LASF4873
     /tmp/ccghGiGC.s:100975  .debug_str:000000000002f4b1 .LASF4874
     /tmp/ccghGiGC.s:103087  .debug_str:000000000003807d .LASF4875
     /tmp/ccghGiGC.s:99173  .debug_str:000000000002809d .LASF4876
     /tmp/ccghGiGC.s:90941  .debug_str:00000000000067be .LASF4877
     /tmp/ccghGiGC.s:107929  .debug_str:000000000004bfef .LASF4878
     /tmp/ccghGiGC.s:98317  .debug_str:0000000000024c66 .LASF4879
     /tmp/ccghGiGC.s:98853  .debug_str:0000000000026c27 .LASF4880
     /tmp/ccghGiGC.s:96609  .debug_str:000000000001d7c6 .LASF4881
     /tmp/ccghGiGC.s:107193  .debug_str:0000000000048e37 .LASF4882
     /tmp/ccghGiGC.s:99665  .debug_str:000000000002a1a6 .LASF4883
     /tmp/ccghGiGC.s:105473  .debug_str:0000000000041a9f .LASF4884
     /tmp/ccghGiGC.s:103395  .debug_str:0000000000039198 .LASF4885
     /tmp/ccghGiGC.s:100495  .debug_str:000000000002d589 .LASF4886
     /tmp/ccghGiGC.s:97379  .debug_str:0000000000020e86 .LASF4887
     /tmp/ccghGiGC.s:97881  .debug_str:0000000000022fe7 .LASF4888
     /tmp/ccghGiGC.s:105637  .debug_str:000000000004291d .LASF4889
     /tmp/ccghGiGC.s:106187  .debug_str:0000000000044d03 .LASF4890
     /tmp/ccghGiGC.s:91789  .debug_str:000000000000a1a5 .LASF4891
     /tmp/ccghGiGC.s:92321  .debug_str:000000000000c60a .LASF4892
     /tmp/ccghGiGC.s:98493  .debug_str:000000000002574a .LASF4893
     /tmp/ccghGiGC.s:99669  .debug_str:000000000002a1e7 .LASF4894
     /tmp/ccghGiGC.s:93329  .debug_str:00000000000102fc .LASF4895
     /tmp/ccghGiGC.s:106635  .debug_str:00000000000469b0 .LASF4896
     /tmp/ccghGiGC.s:102921  .debug_str:0000000000037679 .LASF4897
     /tmp/ccghGiGC.s:104125  .debug_str:000000000003bf39 .LASF4898
     /tmp/ccghGiGC.s:93781  .debug_str:0000000000011c5b .LASF4899
     /tmp/ccghGiGC.s:101401  .debug_str:0000000000031094 .LASF4900
     /tmp/ccghGiGC.s:92647  .debug_str:000000000000dbfa .LASF4901
     /tmp/ccghGiGC.s:108353  .debug_str:000000000004dd97 .LASF4902
     /tmp/ccghGiGC.s:102221  .debug_str:0000000000034651 .LASF4903
     /tmp/ccghGiGC.s:103415  .debug_str:000000000003930b .LASF4904
     /tmp/ccghGiGC.s:97095  .debug_str:000000000001fa92 .LASF4905
     /tmp/ccghGiGC.s:107235  .debug_str:00000000000490f1 .LASF4906
     /tmp/ccghGiGC.s:104149  .debug_str:000000000003c0bd .LASF4907
     /tmp/ccghGiGC.s:107719  .debug_str:000000000004b137 .LASF4908
     /tmp/ccghGiGC.s:107321  .debug_str:0000000000049714 .LASF4909
     /tmp/ccghGiGC.s:92341  .debug_str:000000000000c76d .LASF4910
     /tmp/ccghGiGC.s:102749  .debug_str:0000000000036b2b .LASF4911
     /tmp/ccghGiGC.s:106169  .debug_str:0000000000044ba8 .LASF4912
     /tmp/ccghGiGC.s:106805  .debug_str:000000000004748f .LASF4913
     /tmp/ccghGiGC.s:91311  .debug_str:000000000000807d .LASF4914
     /tmp/ccghGiGC.s:106931  .debug_str:0000000000047d61 .LASF4915
     /tmp/ccghGiGC.s:90301  .debug_str:0000000000003cbe .LASF4916
     /tmp/ccghGiGC.s:99621  .debug_str:0000000000029e92 .LASF4917
     /tmp/ccghGiGC.s:108793  .debug_str:000000000004fba3 .LASF4918
     /tmp/ccghGiGC.s:95567  .debug_str:0000000000018fa1 .LASF4919
     /tmp/ccghGiGC.s:107723  .debug_str:000000000004b19f .LASF4920
     /tmp/ccghGiGC.s:95593  .debug_str:000000000001915a .LASF4921
     /tmp/ccghGiGC.s:90521  .debug_str:0000000000004c18 .LASF4922
     /tmp/ccghGiGC.s:102677  .debug_str:0000000000036636 .LASF4923
     /tmp/ccghGiGC.s:96399  .debug_str:000000000001c9cf .LASF4924
     /tmp/ccghGiGC.s:107875  .debug_str:000000000004bc68 .LASF4925
     /tmp/ccghGiGC.s:103483  .debug_str:0000000000039665 .LASF4926
     /tmp/ccghGiGC.s:95731  .debug_str:0000000000019b0e .LASF4927
     /tmp/ccghGiGC.s:99933  .debug_str:000000000002b307 .LASF4928
     /tmp/ccghGiGC.s:108461  .debug_str:000000000004e564 .LASF4929
     /tmp/ccghGiGC.s:98177  .debug_str:00000000000243eb .LASF4930
     /tmp/ccghGiGC.s:107409  .debug_str:0000000000049c69 .LASF4931
     /tmp/ccghGiGC.s:97175  .debug_str:000000000001ffff .LASF4932
     /tmp/ccghGiGC.s:99485  .debug_str:0000000000029687 .LASF4933
     /tmp/ccghGiGC.s:107089  .debug_str:00000000000487db .LASF4934
     /tmp/ccghGiGC.s:90307  .debug_str:0000000000003d22 .LASF4935
     /tmp/ccghGiGC.s:104231  .debug_str:000000000003c77a .LASF4936
     /tmp/ccghGiGC.s:97619  .debug_str:0000000000021f49 .LASF4937
     /tmp/ccghGiGC.s:96811  .debug_str:000000000001e65e .LASF4938
     /tmp/ccghGiGC.s:96569  .debug_str:000000000001d4ff .LASF4939
     /tmp/ccghGiGC.s:94005  .debug_str:0000000000012b15 .LASF4940
     /tmp/ccghGiGC.s:92257  .debug_str:000000000000c24c .LASF4941
     /tmp/ccghGiGC.s:101699  .debug_str:0000000000032320 .LASF4942
     /tmp/ccghGiGC.s:107521  .debug_str:000000000004a3a7 .LASF4943
     /tmp/ccghGiGC.s:101375  .debug_str:0000000000030f10 .LASF4944
     /tmp/ccghGiGC.s:90277  .debug_str:0000000000003b31 .LASF4945
     /tmp/ccghGiGC.s:108497  .debug_str:000000000004e804 .LASF4946
     /tmp/ccghGiGC.s:97093  .debug_str:000000000001fa5b .LASF4947
     /tmp/ccghGiGC.s:96031  .debug_str:000000000001b003 .LASF4948
     /tmp/ccghGiGC.s:89761  .debug_str:0000000000001705 .LASF4949
     /tmp/ccghGiGC.s:108651  .debug_str:000000000004f213 .LASF4950
     /tmp/ccghGiGC.s:98835  .debug_str:0000000000026ab0 .LASF4951
     /tmp/ccghGiGC.s:95755  .debug_str:0000000000019cd3 .LASF4952
     /tmp/ccghGiGC.s:94607  .debug_str:00000000000151a3 .LASF4953
     /tmp/ccghGiGC.s:107839  .debug_str:000000000004b9fa .LASF4954
     /tmp/ccghGiGC.s:101705  .debug_str:00000000000323bf .LASF4955
     /tmp/ccghGiGC.s:89783  .debug_str:0000000000001992 .LASF4956
     /tmp/ccghGiGC.s:108639  .debug_str:000000000004f16c .LASF4957
     /tmp/ccghGiGC.s:104915  .debug_str:000000000003f458 .LASF4958
     /tmp/ccghGiGC.s:97487  .debug_str:000000000002157a .LASF4959
     /tmp/ccghGiGC.s:103805  .debug_str:000000000003a940 .LASF4960
     /tmp/ccghGiGC.s:108805  .debug_str:000000000004fc63 .LASF4961
     /tmp/ccghGiGC.s:98541  .debug_str:0000000000025a50 .LASF4962
     /tmp/ccghGiGC.s:104505  .debug_str:000000000003d88d .LASF4963
     /tmp/ccghGiGC.s:94059  .debug_str:0000000000012ed0 .LASF4964
     /tmp/ccghGiGC.s:95141  .debug_str:0000000000017419 .LASF4965
     /tmp/ccghGiGC.s:102287  .debug_str:0000000000034a2f .LASF4966
     /tmp/ccghGiGC.s:95627  .debug_str:0000000000019357 .LASF4967
     /tmp/ccghGiGC.s:105165  .debug_str:0000000000040401 .LASF4968
     /tmp/ccghGiGC.s:106527  .debug_str:000000000004638d .LASF4969
     /tmp/ccghGiGC.s:108589  .debug_str:000000000004ed94 .LASF4970
     /tmp/ccghGiGC.s:95975  .debug_str:000000000001ac75 .LASF4971
     /tmp/ccghGiGC.s:94767  .debug_str:0000000000015c32 .LASF4972
     /tmp/ccghGiGC.s:89831  .debug_str:0000000000001d1f .LASF4973
     /tmp/ccghGiGC.s:91723  .debug_str:0000000000009d7a .LASF4974
     /tmp/ccghGiGC.s:96875  .debug_str:000000000001eb0d .LASF4975
     /tmp/ccghGiGC.s:103873  .debug_str:000000000003adf4 .LASF4976
     /tmp/ccghGiGC.s:104129  .debug_str:000000000003bf7b .LASF4977
     /tmp/ccghGiGC.s:108255  .debug_str:000000000004d5f4 .LASF4978
     /tmp/ccghGiGC.s:103725  .debug_str:000000000003a39b .LASF4979
     /tmp/ccghGiGC.s:108811  .debug_str:000000000004fce7 .LASF4980
     /tmp/ccghGiGC.s:108241  .debug_str:000000000004d4f4 .LASF4981
     /tmp/ccghGiGC.s:100951  .debug_str:000000000002f295 .LASF4982
     /tmp/ccghGiGC.s:97695  .debug_str:0000000000022347 .LASF4983
     /tmp/ccghGiGC.s:90527  .debug_str:0000000000004c6a .LASF4984
     /tmp/ccghGiGC.s:92921  .debug_str:000000000000ea88 .LASF4985
     /tmp/ccghGiGC.s:104759  .debug_str:000000000003eada .LASF4986
     /tmp/ccghGiGC.s:102143  .debug_str:0000000000034180 .LASF4987
     /tmp/ccghGiGC.s:94339  .debug_str:000000000001410e .LASF4988
     /tmp/ccghGiGC.s:106899  .debug_str:0000000000047b0f .LASF4989
     /tmp/ccghGiGC.s:92247  .debug_str:000000000000c1b1 .LASF4990
     /tmp/ccghGiGC.s:89975  .debug_str:000000000000274a .LASF4991
     /tmp/ccghGiGC.s:91335  .debug_str:0000000000008208 .LASF4992
     /tmp/ccghGiGC.s:92941  .debug_str:000000000000ec4f .LASF4993
     /tmp/ccghGiGC.s:89445  .debug_str:00000000000001dc .LASF4994
     /tmp/ccghGiGC.s:99921  .debug_str:000000000002b23a .LASF4995
     /tmp/ccghGiGC.s:94429  .debug_str:0000000000014702 .LASF4996
     /tmp/ccghGiGC.s:102441  .debug_str:00000000000355a6 .LASF4997
     /tmp/ccghGiGC.s:100863  .debug_str:000000000002ed2f .LASF4998
     /tmp/ccghGiGC.s:104647  .debug_str:000000000003e36a .LASF4999
     /tmp/ccghGiGC.s:103891  .debug_str:000000000003af42 .LASF5000
     /tmp/ccghGiGC.s:102953  .debug_str:0000000000037855 .LASF5001
     /tmp/ccghGiGC.s:97723  .debug_str:000000000002260a .LASF5002
     /tmp/ccghGiGC.s:107391  .debug_str:0000000000049b24 .LASF5003
     /tmp/ccghGiGC.s:96133  .debug_str:000000000001b679 .LASF5004
     /tmp/ccghGiGC.s:108899  .debug_str:00000000000502d9 .LASF5005
     /tmp/ccghGiGC.s:103729  .debug_str:000000000003a3fa .LASF5006
     /tmp/ccghGiGC.s:95369  .debug_str:0000000000018342 .LASF5007
     /tmp/ccghGiGC.s:97757  .debug_str:000000000002277b .LASF5008
     /tmp/ccghGiGC.s:92097  .debug_str:000000000000b6ca .LASF5009
     /tmp/ccghGiGC.s:105961  .debug_str:0000000000043e39 .LASF5010
     /tmp/ccghGiGC.s:103219  .debug_str:000000000003880d .LASF5011
     /tmp/ccghGiGC.s:106567  .debug_str:00000000000465fc .LASF5012
     /tmp/ccghGiGC.s:90721  .debug_str:000000000000593b .LASF5013
     /tmp/ccghGiGC.s:103329  .debug_str:0000000000038eaf .LASF5014
     /tmp/ccghGiGC.s:102641  .debug_str:00000000000363de .LASF5015
     /tmp/ccghGiGC.s:97361  .debug_str:0000000000020d99 .LASF5016
     /tmp/ccghGiGC.s:101593  .debug_str:0000000000031ce3 .LASF5017
     /tmp/ccghGiGC.s:100057  .debug_str:000000000002bb07 .LASF5018
     /tmp/ccghGiGC.s:97171  .debug_str:000000000001ffb3 .LASF5019
     /tmp/ccghGiGC.s:99553  .debug_str:0000000000029a59 .LASF5020
     /tmp/ccghGiGC.s:93889  .debug_str:00000000000123ee .LASF5021
     /tmp/ccghGiGC.s:106393  .debug_str:0000000000045ac1 .LASF5022
     /tmp/ccghGiGC.s:93443  .debug_str:0000000000010881 .LASF5023
     /tmp/ccghGiGC.s:96287  .debug_str:000000000001c17e .LASF5024
     /tmp/ccghGiGC.s:105619  .debug_str:0000000000042783 .LASF5025
     /tmp/ccghGiGC.s:103519  .debug_str:0000000000039831 .LASF5026
     /tmp/ccghGiGC.s:108663  .debug_str:000000000004f2de .LASF5027
     /tmp/ccghGiGC.s:101345  .debug_str:0000000000030d3f .LASF5028
     /tmp/ccghGiGC.s:106553  .debug_str:0000000000046500 .LASF5029
     /tmp/ccghGiGC.s:92949  .debug_str:000000000000ecba .LASF5030
     /tmp/ccghGiGC.s:95307  .debug_str:0000000000017fb8 .LASF5031
     /tmp/ccghGiGC.s:102789  .debug_str:0000000000036daa .LASF5032
     /tmp/ccghGiGC.s:100039  .debug_str:000000000002b9c2 .LASF5033
     /tmp/ccghGiGC.s:101027  .debug_str:000000000002f8b9 .LASF5034
     /tmp/ccghGiGC.s:101071  .debug_str:000000000002fb6c .LASF5035
     /tmp/ccghGiGC.s:102285  .debug_str:0000000000034a08 .LASF5036
     /tmp/ccghGiGC.s:91775  .debug_str:000000000000a08b .LASF5037
     /tmp/ccghGiGC.s:107441  .debug_str:0000000000049f07 .LASF5038
     /tmp/ccghGiGC.s:94887  .debug_str:0000000000016313 .LASF5039
     /tmp/ccghGiGC.s:96249  .debug_str:000000000001bebc .LASF5040
     /tmp/ccghGiGC.s:94065  .debug_str:0000000000012f3c .LASF5041
     /tmp/ccghGiGC.s:93037  .debug_str:000000000000f08d .LASF5042
     /tmp/ccghGiGC.s:89719  .debug_str:000000000000143b .LASF5043
     /tmp/ccghGiGC.s:97163  .debug_str:000000000001ff14 .LASF5044
     /tmp/ccghGiGC.s:107429  .debug_str:0000000000049e4f .LASF5045
     /tmp/ccghGiGC.s:96417  .debug_str:000000000001cb68 .LASF5046
     /tmp/ccghGiGC.s:104827  .debug_str:000000000003eeb4 .LASF5047
     /tmp/ccghGiGC.s:95655  .debug_str:00000000000195d9 .LASF5048
     /tmp/ccghGiGC.s:98363  .debug_str:0000000000025061 .LASF5049
     /tmp/ccghGiGC.s:107499  .debug_str:000000000004a29a .LASF5050
     /tmp/ccghGiGC.s:94909  .debug_str:00000000000164b5 .LASF5051
     /tmp/ccghGiGC.s:95443  .debug_str:000000000001884c .LASF5052
     /tmp/ccghGiGC.s:92555  .debug_str:000000000000d62f .LASF5053
     /tmp/ccghGiGC.s:108299  .debug_str:000000000004d91a .LASF5054
     /tmp/ccghGiGC.s:104337  .debug_str:000000000003cdc1 .LASF5055
     /tmp/ccghGiGC.s:100345  .debug_str:000000000002cc0c .LASF5056
     /tmp/ccghGiGC.s:108493  .debug_str:000000000004e7c2 .LASF5057
     /tmp/ccghGiGC.s:98811  .debug_str:000000000002690f .LASF5058
     /tmp/ccghGiGC.s:106009  .debug_str:00000000000441b3 .LASF5059
     /tmp/ccghGiGC.s:105601  .debug_str:0000000000042603 .LASF5060
     /tmp/ccghGiGC.s:91417  .debug_str:000000000000884d .LASF5061
     /tmp/ccghGiGC.s:104313  .debug_str:000000000003cc7a .LASF5062
     /tmp/ccghGiGC.s:94177  .debug_str:0000000000013770 .LASF5063
     /tmp/ccghGiGC.s:91803  .debug_str:000000000000a277 .LASF5064
     /tmp/ccghGiGC.s:94951  .debug_str:000000000001671d .LASF5065
     /tmp/ccghGiGC.s:93873  .debug_str:00000000000122d6 .LASF5066
     /tmp/ccghGiGC.s:99187  .debug_str:00000000000281b0 .LASF5067
     /tmp/ccghGiGC.s:91795  .debug_str:000000000000a1f7 .LASF5068
     /tmp/ccghGiGC.s:103411  .debug_str:00000000000392c2 .LASF5069
     /tmp/ccghGiGC.s:108173  .debug_str:000000000004d0eb .LASF5070
     /tmp/ccghGiGC.s:93299  .debug_str:000000000001012a .LASF5071
     /tmp/ccghGiGC.s:97817  .debug_str:0000000000022b91 .LASF5072
     /tmp/ccghGiGC.s:100895  .debug_str:000000000002ef62 .LASF5073
     /tmp/ccghGiGC.s:100295  .debug_str:000000000002c941 .LASF5074
     /tmp/ccghGiGC.s:97821  .debug_str:0000000000022bcb .LASF5075
     /tmp/ccghGiGC.s:96491  .debug_str:000000000001d047 .LASF5076
     /tmp/ccghGiGC.s:91657  .debug_str:000000000000982a .LASF5077
     /tmp/ccghGiGC.s:98143  .debug_str:0000000000024197 .LASF5078
     /tmp/ccghGiGC.s:89663  .debug_str:0000000000001097 .LASF5079
     /tmp/ccghGiGC.s:97599  .debug_str:0000000000021d82 .LASF5080
     /tmp/ccghGiGC.s:94299  .debug_str:0000000000013eee .LASF5081
     /tmp/ccghGiGC.s:96947  .debug_str:000000000001ef47 .LASF5082
     /tmp/ccghGiGC.s:102755  .debug_str:0000000000036b93 .LASF5083
     /tmp/ccghGiGC.s:93221  .debug_str:000000000000fc2a .LASF5084
     /tmp/ccghGiGC.s:99357  .debug_str:0000000000028d6c .LASF5085
     /tmp/ccghGiGC.s:105353  .debug_str:0000000000041209 .LASF5086
     /tmp/ccghGiGC.s:104437  .debug_str:000000000003d41f .LASF5087
     /tmp/ccghGiGC.s:97963  .debug_str:000000000002352a .LASF5088
     /tmp/ccghGiGC.s:90415  .debug_str:0000000000004524 .LASF5089
     /tmp/ccghGiGC.s:106469  .debug_str:0000000000045f68 .LASF5090
     /tmp/ccghGiGC.s:98131  .debug_str:00000000000240e2 .LASF5091
     /tmp/ccghGiGC.s:92631  .debug_str:000000000000db0b .LASF5092
     /tmp/ccghGiGC.s:105465  .debug_str:0000000000041a60 .LASF5093
     /tmp/ccghGiGC.s:104729  .debug_str:000000000003e8b9 .LASF5094
     /tmp/ccghGiGC.s:98035  .debug_str:0000000000023aad .LASF5095
     /tmp/ccghGiGC.s:89521  .debug_str:000000000000075f .LASF5096
     /tmp/ccghGiGC.s:94503  .debug_str:0000000000014bd9 .LASF5097
     /tmp/ccghGiGC.s:100567  .debug_str:000000000002d9f4 .LASF5098
     /tmp/ccghGiGC.s:95451  .debug_str:00000000000188cd .LASF5099
     /tmp/ccghGiGC.s:90275  .debug_str:0000000000003b04 .LASF5100
     /tmp/ccghGiGC.s:106237  .debug_str:0000000000045092 .LASF5101
     /tmp/ccghGiGC.s:103763  .debug_str:000000000003a655 .LASF5102
     /tmp/ccghGiGC.s:97005  .debug_str:000000000001f3b7 .LASF5103
     /tmp/ccghGiGC.s:104289  .debug_str:000000000003cb42 .LASF5104
     /tmp/ccghGiGC.s:104491  .debug_str:000000000003d7a6 .LASF5105
     /tmp/ccghGiGC.s:94217  .debug_str:00000000000139b8 .LASF5106
     /tmp/ccghGiGC.s:104165  .debug_str:000000000003c200 .LASF5107
     /tmp/ccghGiGC.s:91323  .debug_str:000000000000816a .LASF5108
     /tmp/ccghGiGC.s:90653  .debug_str:000000000000543b .LASF5109
     /tmp/ccghGiGC.s:100381  .debug_str:000000000002ce97 .LASF5110
     /tmp/ccghGiGC.s:91903  .debug_str:000000000000a95a .LASF5111
     /tmp/ccghGiGC.s:95649  .debug_str:0000000000019578 .LASF5112
     /tmp/ccghGiGC.s:105203  .debug_str:000000000004061c .LASF5113
     /tmp/ccghGiGC.s:89701  .debug_str:0000000000001305 .LASF5114
     /tmp/ccghGiGC.s:101105  .debug_str:000000000002fd94 .LASF5115
     /tmp/ccghGiGC.s:93551  .debug_str:0000000000010e51 .LASF5116
     /tmp/ccghGiGC.s:92411  .debug_str:000000000000cc74 .LASF5117
     /tmp/ccghGiGC.s:102515  .debug_str:0000000000035b5d .LASF5118
     /tmp/ccghGiGC.s:104123  .debug_str:000000000003bf11 .LASF5119
     /tmp/ccghGiGC.s:91647  .debug_str:00000000000097b0 .LASF5120
     /tmp/ccghGiGC.s:98787  .debug_str:000000000002677c .LASF5121
     /tmp/ccghGiGC.s:98959  .debug_str:00000000000272cd .LASF5122
     /tmp/ccghGiGC.s:100653  .debug_str:000000000002df91 .LASF5123
     /tmp/ccghGiGC.s:94809  .debug_str:0000000000015efd .LASF5124
     /tmp/ccghGiGC.s:98791  .debug_str:00000000000267b8 .LASF5125
     /tmp/ccghGiGC.s:91225  .debug_str:0000000000007b3f .LASF5126
     /tmp/ccghGiGC.s:108635  .debug_str:000000000004f11a .LASF5127
     /tmp/ccghGiGC.s:108567  .debug_str:000000000004ec8c .LASF5128
     /tmp/ccghGiGC.s:103257  .debug_str:0000000000038aea .LASF5129
     /tmp/ccghGiGC.s:96803  .debug_str:000000000001e5cd .LASF5130
     /tmp/ccghGiGC.s:105529  .debug_str:00000000000420e3 .LASF5131
     /tmp/ccghGiGC.s:97761  .debug_str:00000000000227bc .LASF5132
     /tmp/ccghGiGC.s:92451  .debug_str:000000000000cf6d .LASF5133
     /tmp/ccghGiGC.s:90217  .debug_str:00000000000036c4 .LASF5134
     /tmp/ccghGiGC.s:104547  .debug_str:000000000003db94 .LASF5135
     /tmp/ccghGiGC.s:94165  .debug_str:00000000000136c6 .LASF5136
     /tmp/ccghGiGC.s:99081  .debug_str:0000000000027a84 .LASF5137
     /tmp/ccghGiGC.s:103897  .debug_str:000000000003afb7 .LASF5138
     /tmp/ccghGiGC.s:91295  .debug_str:0000000000007f98 .LASF5139
     /tmp/ccghGiGC.s:95435  .debug_str:00000000000187da .LASF5140
     /tmp/ccghGiGC.s:93231  .debug_str:000000000000fd1b .LASF5141
     /tmp/ccghGiGC.s:100357  .debug_str:000000000002cd06 .LASF5142
     /tmp/ccghGiGC.s:95337  .debug_str:0000000000018171 .LASF5143
     /tmp/ccghGiGC.s:99411  .debug_str:0000000000029132 .LASF5144
     /tmp/ccghGiGC.s:107557  .debug_str:000000000004a558 .LASF5145
     /tmp/ccghGiGC.s:107491  .debug_str:000000000004a1f6 .LASF5146
     /tmp/ccghGiGC.s:96087  .debug_str:000000000001b38f .LASF5147
     /tmp/ccghGiGC.s:104453  .debug_str:000000000003d512 .LASF5148
     /tmp/ccghGiGC.s:98933  .debug_str:000000000002716a .LASF5149
     /tmp/ccghGiGC.s:107751  .debug_str:000000000004b3aa .LASF5150
     /tmp/ccghGiGC.s:93665  .debug_str:0000000000011570 .LASF5151
     /tmp/ccghGiGC.s:98263  .debug_str:0000000000024a27 .LASF5152
     /tmp/ccghGiGC.s:103177  .debug_str:0000000000038664 .LASF5153
     /tmp/ccghGiGC.s:95659  .debug_str:0000000000019648 .LASF5154
     /tmp/ccghGiGC.s:94143  .debug_str:000000000001350c .LASF5155
     /tmp/ccghGiGC.s:98557  .debug_str:0000000000025b24 .LASF5156
     /tmp/ccghGiGC.s:89715  .debug_str:00000000000013eb .LASF5157
     /tmp/ccghGiGC.s:105589  .debug_str:0000000000042533 .LASF5158
     /tmp/ccghGiGC.s:104383  .debug_str:000000000003d0e0 .LASF5159
     /tmp/ccghGiGC.s:95713  .debug_str:00000000000199cb .LASF5160
     /tmp/ccghGiGC.s:96459  .debug_str:000000000001cded .LASF5161
     /tmp/ccghGiGC.s:99043  .debug_str:00000000000277da .LASF5162
     /tmp/ccghGiGC.s:102903  .debug_str:000000000003755d .LASF5163
     /tmp/ccghGiGC.s:92301  .debug_str:000000000000c4df .LASF5164
     /tmp/ccghGiGC.s:97337  .debug_str:0000000000020bff .LASF5165
     /tmp/ccghGiGC.s:93433  .debug_str:00000000000107b3 .LASF5166
     /tmp/ccghGiGC.s:106089  .debug_str:0000000000044653 .LASF5167
     /tmp/ccghGiGC.s:93881  .debug_str:0000000000012356 .LASF5168
     /tmp/ccghGiGC.s:102449  .debug_str:0000000000035625 .LASF5169
     /tmp/ccghGiGC.s:96121  .debug_str:000000000001b5be .LASF5170
     /tmp/ccghGiGC.s:98229  .debug_str:00000000000247a1 .LASF5171
     /tmp/ccghGiGC.s:105293  .debug_str:0000000000040c88 .LASF5172
     /tmp/ccghGiGC.s:89615  .debug_str:0000000000000d32 .LASF5173
     /tmp/ccghGiGC.s:95839  .debug_str:000000000001a228 .LASF5174
     /tmp/ccghGiGC.s:97811  .debug_str:0000000000022aff .LASF5175
     /tmp/ccghGiGC.s:94967  .debug_str:000000000001685e .LASF5176
     /tmp/ccghGiGC.s:102975  .debug_str:00000000000379d0 .LASF5177
     /tmp/ccghGiGC.s:107731  .debug_str:000000000004b26c .LASF5178
     /tmp/ccghGiGC.s:102843  .debug_str:00000000000370fc .LASF5179
     /tmp/ccghGiGC.s:96493  .debug_str:000000000001d06f .LASF5180
     /tmp/ccghGiGC.s:96753  .debug_str:000000000001e28d .LASF5181
     /tmp/ccghGiGC.s:98915  .debug_str:000000000002705c .LASF5182
     /tmp/ccghGiGC.s:104735  .debug_str:000000000003e920 .LASF5183
     /tmp/ccghGiGC.s:97535  .debug_str:00000000000218b1 .LASF5184
     /tmp/ccghGiGC.s:103713  .debug_str:000000000003a27f .LASF5185
     /tmp/ccghGiGC.s:102133  .debug_str:00000000000340ca .LASF5186
     /tmp/ccghGiGC.s:103145  .debug_str:000000000003844d .LASF5187
     /tmp/ccghGiGC.s:106903  .debug_str:0000000000047b5a .LASF5188
     /tmp/ccghGiGC.s:96853  .debug_str:000000000001e959 .LASF5189
     /tmp/ccghGiGC.s:104575  .debug_str:000000000003ddd8 .LASF5190
     /tmp/ccghGiGC.s:98491  .debug_str:0000000000025715 .LASF5191
     /tmp/ccghGiGC.s:106545  .debug_str:0000000000046464 .LASF5192
     /tmp/ccghGiGC.s:93447  .debug_str:00000000000108ba .LASF5193
     /tmp/ccghGiGC.s:98629  .debug_str:0000000000025ed9 .LASF5194
     /tmp/ccghGiGC.s:90067  .debug_str:0000000000002d69 .LASF5195
     /tmp/ccghGiGC.s:100733  .debug_str:000000000002e4f3 .LASF5196
     /tmp/ccghGiGC.s:104645  .debug_str:000000000003e335 .LASF5197
     /tmp/ccghGiGC.s:100033  .debug_str:000000000002b960 .LASF5198
     /tmp/ccghGiGC.s:90235  .debug_str:0000000000003826 .LASF5199
     /tmp/ccghGiGC.s:91863  .debug_str:000000000000a61e .LASF5200
     /tmp/ccghGiGC.s:103835  .debug_str:000000000003ab4b .LASF5201
     /tmp/ccghGiGC.s:91095  .debug_str:00000000000072db .LASF5202
     /tmp/ccghGiGC.s:92001  .debug_str:000000000000afd0 .LASF5203
     /tmp/ccghGiGC.s:96573  .debug_str:000000000001d57a .LASF5204
     /tmp/ccghGiGC.s:107957  .debug_str:000000000004c1d2 .LASF5205
     /tmp/ccghGiGC.s:108881  .debug_str:00000000000501a7 .LASF5206
     /tmp/ccghGiGC.s:105943  .debug_str:0000000000043d2e .LASF5207
     /tmp/ccghGiGC.s:91721  .debug_str:0000000000009d4c .LASF5208
     /tmp/ccghGiGC.s:102209  .debug_str:000000000003456b .LASF5209
     /tmp/ccghGiGC.s:103887  .debug_str:000000000003aefb .LASF5210
     /tmp/ccghGiGC.s:107565  .debug_str:000000000004a5ee .LASF5211
     /tmp/ccghGiGC.s:93489  .debug_str:0000000000010aed .LASF5212
     /tmp/ccghGiGC.s:90369  .debug_str:00000000000041a9 .LASF5213
     /tmp/ccghGiGC.s:103715  .debug_str:000000000003a2b3 .LASF5214
     /tmp/ccghGiGC.s:104927  .debug_str:000000000003f53f .LASF5215
     /tmp/ccghGiGC.s:101685  .debug_str:0000000000032249 .LASF5216
     /tmp/ccghGiGC.s:101079  .debug_str:000000000002fc1b .LASF5217
     /tmp/ccghGiGC.s:92759  .debug_str:000000000000e1c6 .LASF5218
     /tmp/ccghGiGC.s:97059  .debug_str:000000000001f7ee .LASF5219
     /tmp/ccghGiGC.s:99469  .debug_str:000000000002957e .LASF5220
     /tmp/ccghGiGC.s:102781  .debug_str:0000000000036d44 .LASF5221
     /tmp/ccghGiGC.s:106467  .debug_str:0000000000045f44 .LASF5222
     /tmp/ccghGiGC.s:103071  .debug_str:0000000000037f60 .LASF5223
     /tmp/ccghGiGC.s:107149  .debug_str:0000000000048ba9 .LASF5224
     /tmp/ccghGiGC.s:95457  .debug_str:000000000001892b .LASF5225
     /tmp/ccghGiGC.s:107649  .debug_str:000000000004ac33 .LASF5226
     /tmp/ccghGiGC.s:89823  .debug_str:0000000000001c63 .LASF5227
     /tmp/ccghGiGC.s:94377  .debug_str:000000000001438c .LASF5228
     /tmp/ccghGiGC.s:105777  .debug_str:000000000004320b .LASF5229
     /tmp/ccghGiGC.s:90609  .debug_str:00000000000051e9 .LASF5230
     /tmp/ccghGiGC.s:105889  .debug_str:00000000000439cf .LASF5231
     /tmp/ccghGiGC.s:103391  .debug_str:000000000003914b .LASF5232
     /tmp/ccghGiGC.s:101975  .debug_str:000000000003360b .LASF5233
     /tmp/ccghGiGC.s:107937  .debug_str:000000000004c097 .LASF5234
     /tmp/ccghGiGC.s:98135  .debug_str:0000000000024125 .LASF5235
     /tmp/ccghGiGC.s:95253  .debug_str:0000000000017c7b .LASF5236
     /tmp/ccghGiGC.s:97649  .debug_str:000000000002211e .LASF5237
     /tmp/ccghGiGC.s:96953  .debug_str:000000000001efcf .LASF5238
     /tmp/ccghGiGC.s:91579  .debug_str:0000000000009302 .LASF5239
     /tmp/ccghGiGC.s:105295  .debug_str:0000000000040cbc .LASF5240
     /tmp/ccghGiGC.s:100045  .debug_str:000000000002ba28 .LASF5241
     /tmp/ccghGiGC.s:97903  .debug_str:0000000000023149 .LASF5242
     /tmp/ccghGiGC.s:90637  .debug_str:000000000000533a .LASF5243
     /tmp/ccghGiGC.s:90403  .debug_str:0000000000004430 .LASF5244
     /tmp/ccghGiGC.s:101971  .debug_str:00000000000335db .LASF5245
     /tmp/ccghGiGC.s:96479  .debug_str:000000000001cf8a .LASF5246
     /tmp/ccghGiGC.s:108745  .debug_str:000000000004f80c .LASF5247
     /tmp/ccghGiGC.s:91253  .debug_str:0000000000007d0e .LASF5248
     /tmp/ccghGiGC.s:106965  .debug_str:0000000000047fe4 .LASF5249
     /tmp/ccghGiGC.s:102647  .debug_str:0000000000036435 .LASF5250
     /tmp/ccghGiGC.s:97691  .debug_str:0000000000022304 .LASF5251
     /tmp/ccghGiGC.s:104513  .debug_str:000000000003d94f .LASF5252
     /tmp/ccghGiGC.s:104705  .debug_str:000000000003e726 .LASF5253
     /tmp/ccghGiGC.s:96665  .debug_str:000000000001dbf9 .LASF5254
     /tmp/ccghGiGC.s:107205  .debug_str:0000000000048f26 .LASF5255
     /tmp/ccghGiGC.s:108885  .debug_str:000000000005021a .LASF5256
     /tmp/ccghGiGC.s:89777  .debug_str:000000000000187c .LASF5257
     /tmp/ccghGiGC.s:108153  .debug_str:000000000004cf72 .LASF5258
     /tmp/ccghGiGC.s:96053  .debug_str:000000000001b16c .LASF5259
     /tmp/ccghGiGC.s:107023  .debug_str:00000000000483b8 .LASF5260
     /tmp/ccghGiGC.s:100387  .debug_str:000000000002cf33 .LASF5261
     /tmp/ccghGiGC.s:92719  .debug_str:000000000000df44 .LASF5262
     /tmp/ccghGiGC.s:98699  .debug_str:0000000000026214 .LASF5263
     /tmp/ccghGiGC.s:97591  .debug_str:0000000000021ccc .LASF5264
     /tmp/ccghGiGC.s:104047  .debug_str:000000000003b9f4 .LASF5265
     /tmp/ccghGiGC.s:95275  .debug_str:0000000000017dec .LASF5266
     /tmp/ccghGiGC.s:96727  .debug_str:000000000001e0a7 .LASF5267
     /tmp/ccghGiGC.s:102821  .debug_str:0000000000037008 .LASF5268
     /tmp/ccghGiGC.s:94871  .debug_str:0000000000016259 .LASF5269
     /tmp/ccghGiGC.s:100541  .debug_str:000000000002d83a .LASF5270
     /tmp/ccghGiGC.s:100905  .debug_str:000000000002f00e .LASF5271
     /tmp/ccghGiGC.s:101367  .debug_str:0000000000030e82 .LASF5272
     /tmp/ccghGiGC.s:99997  .debug_str:000000000002b662 .LASF5273
     /tmp/ccghGiGC.s:104845  .debug_str:000000000003efba .LASF5274
     /tmp/ccghGiGC.s:90659  .debug_str:0000000000005490 .LASF5275
     /tmp/ccghGiGC.s:93603  .debug_str:0000000000011101 .LASF5276
     /tmp/ccghGiGC.s:92735  .debug_str:000000000000e026 .LASF5277
     /tmp/ccghGiGC.s:94105  .debug_str:00000000000131e5 .LASF5278
     /tmp/ccghGiGC.s:91489  .debug_str:0000000000008d2e .LASF5279
     /tmp/ccghGiGC.s:105655  .debug_str:0000000000042a30 .LASF5280
     /tmp/ccghGiGC.s:89843  .debug_str:0000000000001dfe .LASF5281
     /tmp/ccghGiGC.s:93799  .debug_str:0000000000011d9f .LASF5282
     /tmp/ccghGiGC.s:99697  .debug_str:000000000002a3c9 .LASF5283
     /tmp/ccghGiGC.s:97717  .debug_str:0000000000022588 .LASF5284
     /tmp/ccghGiGC.s:98751  .debug_str:000000000002656d .LASF5285
     /tmp/ccghGiGC.s:101891  .debug_str:00000000000330f1 .LASF5286
     /tmp/ccghGiGC.s:95863  .debug_str:000000000001a40a .LASF5287
     /tmp/ccghGiGC.s:106967  .debug_str:000000000004800c .LASF5288
     /tmp/ccghGiGC.s:105401  .debug_str:000000000004162a .LASF5289
     /tmp/ccghGiGC.s:102213  .debug_str:00000000000345c7 .LASF5290
     /tmp/ccghGiGC.s:101005  .debug_str:000000000002f70b .LASF5291
     /tmp/ccghGiGC.s:90917  .debug_str:00000000000065ec .LASF5292
     /tmp/ccghGiGC.s:92891  .debug_str:000000000000e95b .LASF5293
     /tmp/ccghGiGC.s:107709  .debug_str:000000000004b050 .LASF5294
     /tmp/ccghGiGC.s:97015  .debug_str:000000000001f484 .LASF5295
     /tmp/ccghGiGC.s:99241  .debug_str:00000000000284d0 .LASF5296
     /tmp/ccghGiGC.s:102809  .debug_str:0000000000036f35 .LASF5297
     /tmp/ccghGiGC.s:98803  .debug_str:0000000000026885 .LASF5298
     /tmp/ccghGiGC.s:92363  .debug_str:000000000000c8b8 .LASF5299
     /tmp/ccghGiGC.s:101987  .debug_str:00000000000336e0 .LASF5300
     /tmp/ccghGiGC.s:101759  .debug_str:00000000000327fc .LASF5301
     /tmp/ccghGiGC.s:96295  .debug_str:000000000001c249 .LASF5302
     /tmp/ccghGiGC.s:98005  .debug_str:00000000000238bd .LASF5303
     /tmp/ccghGiGC.s:107727  .debug_str:000000000004b218 .LASF5304
     /tmp/ccghGiGC.s:104725  .debug_str:000000000003e87f .LASF5305
     /tmp/ccghGiGC.s:99189  .debug_str:00000000000281e0 .LASF5306
     /tmp/ccghGiGC.s:108401  .debug_str:000000000004e185 .LASF5307
     /tmp/ccghGiGC.s:104653  .debug_str:000000000003e3de .LASF5308
     /tmp/ccghGiGC.s:90801  .debug_str:0000000000005e35 .LASF5309
     /tmp/ccghGiGC.s:94799  .debug_str:0000000000015e51 .LASF5310
     /tmp/ccghGiGC.s:100049  .debug_str:000000000002ba89 .LASF5311
     /tmp/ccghGiGC.s:90629  .debug_str:00000000000052c4 .LASF5312
     /tmp/ccghGiGC.s:97577  .debug_str:0000000000021ba4 .LASF5313
     /tmp/ccghGiGC.s:95661  .debug_str:0000000000019679 .LASF5314
     /tmp/ccghGiGC.s:93869  .debug_str:0000000000012286 .LASF5315
     /tmp/ccghGiGC.s:98195  .debug_str:000000000002455d .LASF5316
     /tmp/ccghGiGC.s:100599  .debug_str:000000000002dbea .LASF5317
     /tmp/ccghGiGC.s:107721  .debug_str:000000000004b16f .LASF5318
     /tmp/ccghGiGC.s:105657  .debug_str:0000000000042a56 .LASF5319
     /tmp/ccghGiGC.s:91951  .debug_str:000000000000ac54 .LASF5320
     /tmp/ccghGiGC.s:99595  .debug_str:0000000000029ceb .LASF5321
     /tmp/ccghGiGC.s:107547  .debug_str:000000000004a4f0 .LASF5322
     /tmp/ccghGiGC.s:97773  .debug_str:000000000002289c .LASF5323
     /tmp/ccghGiGC.s:94971  .debug_str:00000000000168ad .LASF5324
     /tmp/ccghGiGC.s:94007  .debug_str:0000000000012b4e .LASF5325
     /tmp/ccghGiGC.s:103605  .debug_str:0000000000039d14 .LASF5326
     /tmp/ccghGiGC.s:106341  .debug_str:00000000000456d9 .LASF5327
     /tmp/ccghGiGC.s:105895  .debug_str:0000000000043a3c .LASF5328
     /tmp/ccghGiGC.s:104089  .debug_str:000000000003bc7d .LASF5329
     /tmp/ccghGiGC.s:106715  .debug_str:0000000000046eea .LASF5330
     /tmp/ccghGiGC.s:102369  .debug_str:0000000000035074 .LASF5331
     /tmp/ccghGiGC.s:94283  .debug_str:0000000000013de7 .LASF5332
     /tmp/ccghGiGC.s:91717  .debug_str:0000000000009cfe .LASF5333
     /tmp/ccghGiGC.s:106713  .debug_str:0000000000046ec3 .LASF5334
     /tmp/ccghGiGC.s:105175  .debug_str:000000000004048f .LASF5335
     /tmp/ccghGiGC.s:101741  .debug_str:0000000000032644 .LASF5336
     /tmp/ccghGiGC.s:91773  .debug_str:000000000000a05e .LASF5337
     /tmp/ccghGiGC.s:101095  .debug_str:000000000002fcfe .LASF5338
     /tmp/ccghGiGC.s:104649  .debug_str:000000000003e3a0 .LASF5339
     /tmp/ccghGiGC.s:107531  .debug_str:000000000004a44d .LASF5340
     /tmp/ccghGiGC.s:103521  .debug_str:0000000000039858 .LASF5341
     /tmp/ccghGiGC.s:93653  .debug_str:00000000000114a2 .LASF5342
     /tmp/ccghGiGC.s:98253  .debug_str:000000000002497c .LASF5343
     /tmp/ccghGiGC.s:96163  .debug_str:000000000001b866 .LASF5344
     /tmp/ccghGiGC.s:97919  .debug_str:0000000000023227 .LASF5345
     /tmp/ccghGiGC.s:91395  .debug_str:000000000000866b .LASF5346
     /tmp/ccghGiGC.s:92407  .debug_str:000000000000cbea .LASF5347
     /tmp/ccghGiGC.s:92267  .debug_str:000000000000c2dd .LASF5348
     /tmp/ccghGiGC.s:107017  .debug_str:0000000000048343 .LASF5349
     /tmp/ccghGiGC.s:98529  .debug_str:0000000000025954 .LASF5350
     /tmp/ccghGiGC.s:97585  .debug_str:0000000000021c76 .LASF5351
     /tmp/ccghGiGC.s:93849  .debug_str:00000000000120e1 .LASF5352
     /tmp/ccghGiGC.s:103829  .debug_str:000000000003aada .LASF5353
     /tmp/ccghGiGC.s:100693  .debug_str:000000000002e215 .LASF5354
     /tmp/ccghGiGC.s:103947  .debug_str:000000000003b330 .LASF5355
     /tmp/ccghGiGC.s:108395  .debug_str:000000000004e118 .LASF5356
     /tmp/ccghGiGC.s:101403  .debug_str:00000000000310cb .LASF5357
     /tmp/ccghGiGC.s:92095  .debug_str:000000000000b69a .LASF5358
     /tmp/ccghGiGC.s:98755  .debug_str:00000000000265b7 .LASF5359
     /tmp/ccghGiGC.s:106199  .debug_str:0000000000044de0 .LASF5360
     /tmp/ccghGiGC.s:107747  .debug_str:000000000004b371 .LASF5361
     /tmp/ccghGiGC.s:97189  .debug_str:0000000000020164 .LASF5362
     /tmp/ccghGiGC.s:105563  .debug_str:0000000000042372 .LASF5363
     /tmp/ccghGiGC.s:95371  .debug_str:000000000001837a .LASF5364
     /tmp/ccghGiGC.s:103011  .debug_str:0000000000037c3d .LASF5365
     /tmp/ccghGiGC.s:92187  .debug_str:000000000000bd15 .LASF5366
     /tmp/ccghGiGC.s:91069  .debug_str:0000000000007110 .LASF5367
     /tmp/ccghGiGC.s:97611  .debug_str:0000000000021e5a .LASF5368
     /tmp/ccghGiGC.s:102603  .debug_str:00000000000361b5 .LASF5369
     /tmp/ccghGiGC.s:93993  .debug_str:0000000000012a41 .LASF5370
     /tmp/ccghGiGC.s:103489  .debug_str:00000000000396bc .LASF5371
     /tmp/ccghGiGC.s:99707  .debug_str:000000000002a472 .LASF5372
     /tmp/ccghGiGC.s:104159  .debug_str:000000000003c1a8 .LASF5373
     /tmp/ccghGiGC.s:99653  .debug_str:000000000002a0a4 .LASF5374
     /tmp/ccghGiGC.s:101473  .debug_str:0000000000031510 .LASF5375
     /tmp/ccghGiGC.s:91699  .debug_str:0000000000009b4c .LASF5376
     /tmp/ccghGiGC.s:94027  .debug_str:0000000000012c7b .LASF5377
     /tmp/ccghGiGC.s:100155  .debug_str:000000000002c091 .LASF5378
     /tmp/ccghGiGC.s:106037  .debug_str:0000000000044320 .LASF5379
     /tmp/ccghGiGC.s:92723  .debug_str:000000000000df7b .LASF5380
     /tmp/ccghGiGC.s:98891  .debug_str:0000000000026e6b .LASF5381
     /tmp/ccghGiGC.s:102681  .debug_str:00000000000366b4 .LASF5382
     /tmp/ccghGiGC.s:91387  .debug_str:00000000000085e7 .LASF5383
     /tmp/ccghGiGC.s:93065  .debug_str:000000000000f2b1 .LASF5384
     /tmp/ccghGiGC.s:91355  .debug_str:0000000000008385 .LASF5385
     /tmp/ccghGiGC.s:94097  .debug_str:0000000000013159 .LASF5386
     /tmp/ccghGiGC.s:96333  .debug_str:000000000001c47e .LASF5387
     /tmp/ccghGiGC.s:98123  .debug_str:0000000000024059 .LASF5388
     /tmp/ccghGiGC.s:90269  .debug_str:0000000000003a7a .LASF5389
     /tmp/ccghGiGC.s:102275  .debug_str:000000000003492a .LASF5390
     /tmp/ccghGiGC.s:107083  .debug_str:0000000000048784 .LASF5391
     /tmp/ccghGiGC.s:108439  .debug_str:000000000004e3cf .LASF5392
     /tmp/ccghGiGC.s:107989  .debug_str:000000000004c3e7 .LASF5393
     /tmp/ccghGiGC.s:90385  .debug_str:000000000000429f .LASF5394
     /tmp/ccghGiGC.s:90969  .debug_str:000000000000692c .LASF5395
     /tmp/ccghGiGC.s:104419  .debug_str:000000000003d332 .LASF5396
     /tmp/ccghGiGC.s:101783  .debug_str:000000000003296a .LASF5397
     /tmp/ccghGiGC.s:99727  .debug_str:000000000002a60a .LASF5398
     /tmp/ccghGiGC.s:98417  .debug_str:0000000000025334 .LASF5399
     /tmp/ccghGiGC.s:90201  .debug_str:00000000000035ef .LASF5400
     /tmp/ccghGiGC.s:94117  .debug_str:0000000000013301 .LASF5401
     /tmp/ccghGiGC.s:100469  .debug_str:000000000002d3ec .LASF5402
     /tmp/ccghGiGC.s:94329  .debug_str:0000000000014093 .LASF5403
     /tmp/ccghGiGC.s:95011  .debug_str:0000000000016b97 .LASF5404
     /tmp/ccghGiGC.s:94929  .debug_str:000000000001661d .LASF5405
     /tmp/ccghGiGC.s:96101  .debug_str:000000000001b476 .LASF5406
     /tmp/ccghGiGC.s:100379  .debug_str:000000000002ce6e .LASF5407
     /tmp/ccghGiGC.s:99179  .debug_str:0000000000028105 .LASF5408
     /tmp/ccghGiGC.s:94249  .debug_str:0000000000013bbe .LASF5409
     /tmp/ccghGiGC.s:102379  .debug_str:00000000000350f2 .LASF5410
     /tmp/ccghGiGC.s:103481  .debug_str:0000000000039635 .LASF5411
     /tmp/ccghGiGC.s:98361  .debug_str:0000000000025031 .LASF5412
     /tmp/ccghGiGC.s:101215  .debug_str:0000000000030478 .LASF5413
     /tmp/ccghGiGC.s:90963  .debug_str:00000000000068dc .LASF5414
     /tmp/ccghGiGC.s:102245  .debug_str:00000000000347b8 .LASF5415
     /tmp/ccghGiGC.s:90681  .debug_str:0000000000005633 .LASF5416
     /tmp/ccghGiGC.s:96771  .debug_str:000000000001e3aa .LASF5417
     /tmp/ccghGiGC.s:107037  .debug_str:00000000000484a1 .LASF5418
     /tmp/ccghGiGC.s:104495  .debug_str:000000000003d7ed .LASF5419
     /tmp/ccghGiGC.s:96377  .debug_str:000000000001c819 .LASF5420
     /tmp/ccghGiGC.s:94989  .debug_str:0000000000016a02 .LASF5421
     /tmp/ccghGiGC.s:102901  .debug_str:0000000000037524 .LASF5422
     /tmp/ccghGiGC.s:106975  .debug_str:0000000000048089 .LASF5423
     /tmp/ccghGiGC.s:92147  .debug_str:000000000000ba4d .LASF5424
     /tmp/ccghGiGC.s:101187  .debug_str:00000000000302d8 .LASF5425
     /tmp/ccghGiGC.s:89631  .debug_str:0000000000000e48 .LASF5426
     /tmp/ccghGiGC.s:107979  .debug_str:000000000004c33b .LASF5427
     /tmp/ccghGiGC.s:93555  .debug_str:0000000000010e93 .LASF5428
     /tmp/ccghGiGC.s:92231  .debug_str:000000000000c084 .LASF5429
     /tmp/ccghGiGC.s:99047  .debug_str:000000000002780d .LASF5430
     /tmp/ccghGiGC.s:95215  .debug_str:0000000000017968 .LASF5431
     /tmp/ccghGiGC.s:90535  .debug_str:0000000000004ce7 .LASF5432
     /tmp/ccghGiGC.s:90517  .debug_str:0000000000004bdb .LASF5433
     /tmp/ccghGiGC.s:96483  .debug_str:000000000001cfbd .LASF5434
     /tmp/ccghGiGC.s:102065  .debug_str:0000000000033c52 .LASF5435
     /tmp/ccghGiGC.s:106477  .debug_str:0000000000045ffb .LASF5436
     /tmp/ccghGiGC.s:97003  .debug_str:000000000001f37e .LASF5437
     /tmp/ccghGiGC.s:94649  .debug_str:0000000000015466 .LASF5438
     /tmp/ccghGiGC.s:99569  .debug_str:0000000000029b85 .LASF5439
     /tmp/ccghGiGC.s:95219  .debug_str:00000000000179c9 .LASF5440
     /tmp/ccghGiGC.s:103797  .debug_str:000000000003a890 .LASF5441
     /tmp/ccghGiGC.s:107589  .debug_str:000000000004a782 .LASF5442
     /tmp/ccghGiGC.s:106077  .debug_str:00000000000445a6 .LASF5443
     /tmp/ccghGiGC.s:99061  .debug_str:00000000000278c5 .LASF5444
     /tmp/ccghGiGC.s:96387  .debug_str:000000000001c8dd .LASF5445
     /tmp/ccghGiGC.s:102505  .debug_str:0000000000035a69 .LASF5446
     /tmp/ccghGiGC.s:107259  .debug_str:00000000000492c4 .LASF5447
     /tmp/ccghGiGC.s:108119  .debug_str:000000000004cca6 .LASF5448
     /tmp/ccghGiGC.s:97169  .debug_str:000000000001ff7e .LASF5449
     /tmp/ccghGiGC.s:103269  .debug_str:0000000000038b96 .LASF5450
     /tmp/ccghGiGC.s:98129  .debug_str:00000000000240b5 .LASF5451
     /tmp/ccghGiGC.s:96681  .debug_str:000000000001dd4f .LASF5452
     /tmp/ccghGiGC.s:107775  .debug_str:000000000004b570 .LASF5453
     /tmp/ccghGiGC.s:108463  .debug_str:000000000004e59b .LASF5454
     /tmp/ccghGiGC.s:108407  .debug_str:000000000004e1d7 .LASF5455
     /tmp/ccghGiGC.s:99479  .debug_str:0000000000029626 .LASF5456
     /tmp/ccghGiGC.s:99261  .debug_str:0000000000028648 .LASF5457
     /tmp/ccghGiGC.s:99717  .debug_str:000000000002a513 .LASF5458
     /tmp/ccghGiGC.s:108341  .debug_str:000000000004dc90 .LASF5459
     /tmp/ccghGiGC.s:96513  .debug_str:000000000001d1c2 .LASF5460
     /tmp/ccghGiGC.s:97451  .debug_str:00000000000212fe .LASF5461
     /tmp/ccghGiGC.s:98323  .debug_str:0000000000024ced .LASF5462
     /tmp/ccghGiGC.s:102407  .debug_str:00000000000352d3 .LASF5463
     /tmp/ccghGiGC.s:100059  .debug_str:000000000002bb2e .LASF5464
     /tmp/ccghGiGC.s:95631  .debug_str:00000000000193bb .LASF5465
     /tmp/ccghGiGC.s:100771  .debug_str:000000000002e727 .LASF5466
     /tmp/ccghGiGC.s:97907  .debug_str:0000000000023183 .LASF5467
     /tmp/ccghGiGC.s:105011  .debug_str:000000000003faba .LASF5468
     /tmp/ccghGiGC.s:104529  .debug_str:000000000003da4c .LASF5469
     /tmp/ccghGiGC.s:93561  .debug_str:0000000000010efa .LASF5470
     /tmp/ccghGiGC.s:92181  .debug_str:000000000000bca2 .LASF5471
     /tmp/ccghGiGC.s:104229  .debug_str:000000000003c752 .LASF5472
     /tmp/ccghGiGC.s:94345  .debug_str:000000000001418f .LASF5473
     /tmp/ccghGiGC.s:101331  .debug_str:0000000000030c1d .LASF5474
     /tmp/ccghGiGC.s:99851  .debug_str:000000000002ad78 .LASF5475
     /tmp/ccghGiGC.s:104573  .debug_str:000000000003ddb6 .LASF5476
     /tmp/ccghGiGC.s:102887  .debug_str:000000000003740d .LASF5477
     /tmp/ccghGiGC.s:103057  .debug_str:0000000000037e5e .LASF5478
     /tmp/ccghGiGC.s:100197  .debug_str:000000000002c3b4 .LASF5479
     /tmp/ccghGiGC.s:106111  .debug_str:000000000004481f .LASF5480
     /tmp/ccghGiGC.s:106789  .debug_str:00000000000473bf .LASF5481
     /tmp/ccghGiGC.s:101905  .debug_str:00000000000331be .LASF5482
     /tmp/ccghGiGC.s:93137  .debug_str:000000000000f736 .LASF5483
     /tmp/ccghGiGC.s:105479  .debug_str:0000000000041b23 .LASF5484
     /tmp/ccghGiGC.s:108109  .debug_str:000000000004cbf2 .LASF5485
     /tmp/ccghGiGC.s:98843  .debug_str:0000000000026b66 .LASF5486
     /tmp/ccghGiGC.s:95595  .debug_str:0000000000019192 .LASF5487
     /tmp/ccghGiGC.s:103579  .debug_str:0000000000039b18 .LASF5488
     /tmp/ccghGiGC.s:108057  .debug_str:000000000004c836 .LASF5489
     /tmp/ccghGiGC.s:100571  .debug_str:000000000002da16 .LASF5490
     /tmp/ccghGiGC.s:92999  .debug_str:000000000000ee66 .LASF5491
     /tmp/ccghGiGC.s:99317  .debug_str:0000000000028a98 .LASF5492
     /tmp/ccghGiGC.s:108507  .debug_str:000000000004e8dc .LASF5493
     /tmp/ccghGiGC.s:91237  .debug_str:0000000000007bf0 .LASF5494
     /tmp/ccghGiGC.s:101639  .debug_str:0000000000031f75 .LASF5495
     /tmp/ccghGiGC.s:90335  .debug_str:0000000000003f06 .LASF5496
     /tmp/ccghGiGC.s:100819  .debug_str:000000000002eace .LASF5497
     /tmp/ccghGiGC.s:105793  .debug_str:000000000004330f .LASF5498
     /tmp/ccghGiGC.s:105991  .debug_str:000000000004401b .LASF5499
     /tmp/ccghGiGC.s:105235  .debug_str:0000000000040855 .LASF5500
     /tmp/ccghGiGC.s:91677  .debug_str:0000000000009974 .LASF5501
     /tmp/ccghGiGC.s:89833  .debug_str:0000000000001d55 .LASF5502
     /tmp/ccghGiGC.s:96293  .debug_str:000000000001c21f .LASF5503
     /tmp/ccghGiGC.s:108387  .debug_str:000000000004e078 .LASF5504
     /tmp/ccghGiGC.s:103101  .debug_str:0000000000038220 .LASF5505
     /tmp/ccghGiGC.s:99025  .debug_str:000000000002764d .LASF5506
     /tmp/ccghGiGC.s:105149  .debug_str:00000000000402ee .LASF5507
     /tmp/ccghGiGC.s:90365  .debug_str:0000000000004150 .LASF5508
     /tmp/ccghGiGC.s:105553  .debug_str:00000000000422ee .LASF5509
     /tmp/ccghGiGC.s:97485  .debug_str:000000000002154f .LASF5510
     /tmp/ccghGiGC.s:97181  .debug_str:00000000000200b6 .LASF5511
     /tmp/ccghGiGC.s:105015  .debug_str:000000000003fb0d .LASF5512
     /tmp/ccghGiGC.s:101797  .debug_str:0000000000032a5a .LASF5513
     /tmp/ccghGiGC.s:106641  .debug_str:0000000000046a11 .LASF5514
     /tmp/ccghGiGC.s:92619  .debug_str:000000000000da28 .LASF5515
     /tmp/ccghGiGC.s:103363  .debug_str:000000000003909c .LASF5516
     /tmp/ccghGiGC.s:102557  .debug_str:0000000000035df4 .LASF5517
     /tmp/ccghGiGC.s:95989  .debug_str:000000000001ad7e .LASF5518
     /tmp/ccghGiGC.s:93277  .debug_str:000000000000ffce .LASF5519
     /tmp/ccghGiGC.s:94125  .debug_str:00000000000133f7 .LASF5520
     /tmp/ccghGiGC.s:103063  .debug_str:0000000000037eed .LASF5521
     /tmp/ccghGiGC.s:92573  .debug_str:000000000000d72b .LASF5522
     /tmp/ccghGiGC.s:93387  .debug_str:000000000001055e .LASF5523
     /tmp/ccghGiGC.s:97605  .debug_str:0000000000021dc7 .LASF5524
     /tmp/ccghGiGC.s:95417  .debug_str:0000000000018693 .LASF5525
     /tmp/ccghGiGC.s:95677  .debug_str:000000000001977b .LASF5526
     /tmp/ccghGiGC.s:102583  .debug_str:0000000000036048 .LASF5527
     /tmp/ccghGiGC.s:106297  .debug_str:00000000000453f8 .LASF5528
     /tmp/ccghGiGC.s:107279  .debug_str:000000000004941d .LASF5529
     /tmp/ccghGiGC.s:106979  .debug_str:00000000000480ee .LASF5530
     /tmp/ccghGiGC.s:99515  .debug_str:00000000000297c7 .LASF5531
     /tmp/ccghGiGC.s:98845  .debug_str:0000000000026b92 .LASF5532
     /tmp/ccghGiGC.s:107529  .debug_str:000000000004a438 .LASF5533
     /tmp/ccghGiGC.s:102307  .debug_str:0000000000034bcd .LASF5534
     /tmp/ccghGiGC.s:107707  .debug_str:000000000004b021 .LASF5535
     /tmp/ccghGiGC.s:99879  .debug_str:000000000002aee1 .LASF5536
     /tmp/ccghGiGC.s:97727  .debug_str:000000000002265f .LASF5537
     /tmp/ccghGiGC.s:106411  .debug_str:0000000000045be3 .LASF5538
     /tmp/ccghGiGC.s:97777  .debug_str:00000000000228dd .LASF5539
     /tmp/ccghGiGC.s:102057  .debug_str:0000000000033bd5 .LASF5540
     /tmp/ccghGiGC.s:98603  .debug_str:0000000000025d15 .LASF5541
     /tmp/ccghGiGC.s:92529  .debug_str:000000000000d495 .LASF5542
     /tmp/ccghGiGC.s:108655  .debug_str:000000000004f25b .LASF5544
     /tmp/ccghGiGC.s:92417  .debug_str:000000000000cd05 .LASF5545
     /tmp/ccghGiGC.s:97345  .debug_str:0000000000020c82 .LASF5546
     /tmp/ccghGiGC.s:92545  .debug_str:000000000000d594 .LASF5547
     /tmp/ccghGiGC.s:99969  .debug_str:000000000002b4cc .LASF5548
     /tmp/ccghGiGC.s:100449  .debug_str:000000000002d2e2 .LASF5549
     /tmp/ccghGiGC.s:94549  .debug_str:0000000000014e03 .LASF5550
     /tmp/ccghGiGC.s:93309  .debug_str:00000000000101bc .LASF5551
     /tmp/ccghGiGC.s:99103  .debug_str:0000000000027bf9 .LASF5552
     /tmp/ccghGiGC.s:104869  .debug_str:000000000003f15e .LASF5553
     /tmp/ccghGiGC.s:100877  .debug_str:000000000002ee8b .LASF5554
     /tmp/ccghGiGC.s:95675  .debug_str:0000000000019762 .LASF5555
     /tmp/ccghGiGC.s:104839  .debug_str:000000000003ef44 .LASF5556
     /tmp/ccghGiGC.s:96597  .debug_str:000000000001d70d .LASF5557
     /tmp/ccghGiGC.s:102611  .debug_str:000000000003624c .LASF5558
     /tmp/ccghGiGC.s:99385  .debug_str:0000000000028f4f .LASF5559
     /tmp/ccghGiGC.s:107631  .debug_str:000000000004ab4b .LASF5560
     /tmp/ccghGiGC.s:95193  .debug_str:00000000000177f0 .LASF5561
     /tmp/ccghGiGC.s:106917  .debug_str:0000000000047c81 .LASF5562
     /tmp/ccghGiGC.s:92333  .debug_str:000000000000c6f1 .LASF5563
     /tmp/ccghGiGC.s:89479  .debug_str:000000000000044c .LASF5564
     /tmp/ccghGiGC.s:96471  .debug_str:000000000001cee3 .LASF5565
     /tmp/ccghGiGC.s:108233  .debug_str:000000000004d48f .LASF5566
     /tmp/ccghGiGC.s:104209  .debug_str:000000000003c581 .LASF5567
     /tmp/ccghGiGC.s:105449  .debug_str:0000000000041972 .LASF5568
     /tmp/ccghGiGC.s:96469  .debug_str:000000000001cec3 .LASF5569
     /tmp/ccghGiGC.s:90393  .debug_str:0000000000004339 .LASF5570
     /tmp/ccghGiGC.s:97335  .debug_str:0000000000020bd7 .LASF5571
     /tmp/ccghGiGC.s:103093  .debug_str:0000000000038167 .LASF5572
     /tmp/ccghGiGC.s:104035  .debug_str:000000000003b917 .LASF5573
     /tmp/ccghGiGC.s:93365  .debug_str:000000000001043f .LASF5574
     /tmp/ccghGiGC.s:91753  .debug_str:0000000000009f8e .LASF5575
     /tmp/ccghGiGC.s:103505  .debug_str:000000000003979a .LASF5576
     /tmp/ccghGiGC.s:105145  .debug_str:00000000000402b5 .LASF5577
     /tmp/ccghGiGC.s:101943  .debug_str:0000000000033405 .LASF5578
     /tmp/ccghGiGC.s:100237  .debug_str:000000000002c601 .LASF5579
     /tmp/ccghGiGC.s:105785  .debug_str:0000000000043290 .LASF5580
     /tmp/ccghGiGC.s:104793  .debug_str:000000000003ed58 .LASF5581
     /tmp/ccghGiGC.s:108107  .debug_str:000000000004cbd6 .LASF5582
     /tmp/ccghGiGC.s:96189  .debug_str:000000000001ba50 .LASF5583
     /tmp/ccghGiGC.s:94169  .debug_str:000000000001371b .LASF5584
     /tmp/ccghGiGC.s:90559  .debug_str:0000000000004ece .LASF5585
     /tmp/ccghGiGC.s:100477  .debug_str:000000000002d47e .LASF5586
     /tmp/ccghGiGC.s:102059  .debug_str:0000000000033bf9 .LASF5587
     /tmp/ccghGiGC.s:92745  .debug_str:000000000000e110 .LASF5588
     /tmp/ccghGiGC.s:97961  .debug_str:00000000000234f8 .LASF5589
     /tmp/ccghGiGC.s:100277  .debug_str:000000000002c809 .LASF5590
     /tmp/ccghGiGC.s:105391  .debug_str:000000000004155d .LASF5591
     /tmp/ccghGiGC.s:91661  .debug_str:0000000000009867 .LASF5592
     /tmp/ccghGiGC.s:103883  .debug_str:000000000003aeb4 .LASF5593
     /tmp/ccghGiGC.s:97449  .debug_str:00000000000212dd .LASF5594
     /tmp/ccghGiGC.s:91503  .debug_str:0000000000008dc4 .LASF5595
     /tmp/ccghGiGC.s:108125  .debug_str:000000000004cd2d .LASF5596
     /tmp/ccghGiGC.s:103659  .debug_str:0000000000039fda .LASF5597
     /tmp/ccghGiGC.s:95957  .debug_str:000000000001aad9 .LASF5598
     /tmp/ccghGiGC.s:102879  .debug_str:0000000000037385 .LASF5599
     /tmp/ccghGiGC.s:91577  .debug_str:00000000000092e8 .LASF5600
     /tmp/ccghGiGC.s:89431  .debug_str:00000000000000dc .LASF5601
     /tmp/ccghGiGC.s:101965  .debug_str:000000000003356f .LASF5602
     /tmp/ccghGiGC.s:93947  .debug_str:000000000001275f .LASF5603
     /tmp/ccghGiGC.s:97243  .debug_str:000000000002050a .LASF5604
     /tmp/ccghGiGC.s:99305  .debug_str:00000000000289b2 .LASF5605
     /tmp/ccghGiGC.s:107081  .debug_str:0000000000048746 .LASF5606
     /tmp/ccghGiGC.s:107921  .debug_str:000000000004bf74 .LASF5607
     /tmp/ccghGiGC.s:100607  .debug_str:000000000002dc5f .LASF5608
     /tmp/ccghGiGC.s:91029  .debug_str:0000000000006d5c .LASF5609
     /tmp/ccghGiGC.s:102227  .debug_str:00000000000346df .LASF5610
     /tmp/ccghGiGC.s:93209  .debug_str:000000000000fb37 .LASF5611
     /tmp/ccghGiGC.s:107729  .debug_str:000000000004b241 .LASF5612
     /tmp/ccghGiGC.s:91595  .debug_str:00000000000093d7 .LASF5613
     /tmp/ccghGiGC.s:90121  .debug_str:000000000000313e .LASF5614
     /tmp/ccghGiGC.s:89559  .debug_str:00000000000009de .LASF5615
     /tmp/ccghGiGC.s:100705  .debug_str:000000000002e2ed .LASF5616
     /tmp/ccghGiGC.s:91729  .debug_str:0000000000009de9 .LASF5617
     /tmp/ccghGiGC.s:97835  .debug_str:0000000000022ca9 .LASF5618
     /tmp/ccghGiGC.s:91953  .debug_str:000000000000ac82 .LASF5619
     /tmp/ccghGiGC.s:100505  .debug_str:000000000002d63e .LASF5620
     /tmp/ccghGiGC.s:104987  .debug_str:000000000003f8cd .LASF5621
     /tmp/ccghGiGC.s:91145  .debug_str:00000000000075f7 .LASF5622
     /tmp/ccghGiGC.s:96385  .debug_str:000000000001c8c7 .LASF5623
     /tmp/ccghGiGC.s:92329  .debug_str:000000000000c680 .LASF5624
     /tmp/ccghGiGC.s:100143  .debug_str:000000000002bf58 .LASF5625
     /tmp/ccghGiGC.s:105883  .debug_str:0000000000043955 .LASF5626
     /tmp/ccghGiGC.s:95933  .debug_str:000000000001a8ae .LASF5627
     /tmp/ccghGiGC.s:107661  .debug_str:000000000004ad31 .LASF5628
     /tmp/ccghGiGC.s:99419  .debug_str:00000000000291bd .LASF5629
     /tmp/ccghGiGC.s:92849  .debug_str:000000000000e7bb .LASF5630
     /tmp/ccghGiGC.s:102025  .debug_str:00000000000339d3 .LASF5631
     /tmp/ccghGiGC.s:102107  .debug_str:0000000000033f3a .LASF5632
     /tmp/ccghGiGC.s:100251  .debug_str:000000000002c6a3 .LASF5633
     /tmp/ccghGiGC.s:98453  .debug_str:000000000002552e .LASF5634
     /tmp/ccghGiGC.s:100475  .debug_str:000000000002d452 .LASF5635
     /tmp/ccghGiGC.s:107903  .debug_str:000000000004be34 .LASF5636
     /tmp/ccghGiGC.s:99381  .debug_str:0000000000028ef9 .LASF5637
     /tmp/ccghGiGC.s:104913  .debug_str:000000000003f42b .LASF5638
     /tmp/ccghGiGC.s:104397  .debug_str:000000000003d1d0 .LASF5639
     /tmp/ccghGiGC.s:89423  .debug_str:0000000000000058 .LASF5640
     /tmp/ccghGiGC.s:97265  .debug_str:0000000000020692 .LASF5641
     /tmp/ccghGiGC.s:99545  .debug_str:00000000000299a5 .LASF5642
     /tmp/ccghGiGC.s:97989  .debug_str:00000000000236e1 .LASF5643
     /tmp/ccghGiGC.s:90927  .debug_str:000000000000667b .LASF5644
     /tmp/ccghGiGC.s:105715  .debug_str:0000000000042e3d .LASF5645
     /tmp/ccghGiGC.s:89965  .debug_str:000000000000266f .LASF5646
     /tmp/ccghGiGC.s:97593  .debug_str:0000000000021cfb .LASF5647
     /tmp/ccghGiGC.s:89551  .debug_str:0000000000000963 .LASF5648
     /tmp/ccghGiGC.s:94001  .debug_str:0000000000012ad5 .LASF5649
     /tmp/ccghGiGC.s:91911  .debug_str:000000000000a9f1 .LASF5650
     /tmp/ccghGiGC.s:106267  .debug_str:0000000000045276 .LASF5651
     /tmp/ccghGiGC.s:107665  .debug_str:000000000004adaa .LASF5652
     /tmp/ccghGiGC.s:96129  .debug_str:000000000001b645 .LASF5653
     /tmp/ccghGiGC.s:102507  .debug_str:0000000000035aa2 .LASF5654
     /tmp/ccghGiGC.s:97195  .debug_str:00000000000201eb .LASF5655
     /tmp/ccghGiGC.s:97959  .debug_str:00000000000234cc .LASF5656
     /tmp/ccghGiGC.s:104893  .debug_str:000000000003f313 .LASF5657
     /tmp/ccghGiGC.s:90873  .debug_str:00000000000062e6 .LASF5658
     /tmp/ccghGiGC.s:98017  .debug_str:000000000002396d .LASF5659
     /tmp/ccghGiGC.s:105103  .debug_str:000000000004002b .LASF5660
     /tmp/ccghGiGC.s:92501  .debug_str:000000000000d290 .LASF5661
     /tmp/ccghGiGC.s:94885  .debug_str:00000000000162e7 .LASF5662
     /tmp/ccghGiGC.s:93795  .debug_str:0000000000011d48 .LASF5663
     /tmp/ccghGiGC.s:99119  .debug_str:0000000000027d0b .LASF5664
     /tmp/ccghGiGC.s:93855  .debug_str:0000000000012163 .LASF5665
     /tmp/ccghGiGC.s:95243  .debug_str:0000000000017b76 .LASF5666
     /tmp/ccghGiGC.s:99751  .debug_str:000000000002a774 .LASF5667
     /tmp/ccghGiGC.s:90251  .debug_str:000000000000397c .LASF5668
     /tmp/ccghGiGC.s:103801  .debug_str:000000000003a8d5 .LASF5669
     /tmp/ccghGiGC.s:93211  .debug_str:000000000000fb58 .LASF5670
     /tmp/ccghGiGC.s:92057  .debug_str:000000000000b3e2 .LASF5671
     /tmp/ccghGiGC.s:98283  .debug_str:0000000000024b38 .LASF5672
     /tmp/ccghGiGC.s:91737  .debug_str:0000000000009e6b .LASF5673
     /tmp/ccghGiGC.s:94479  .debug_str:0000000000014a69 .LASF5674
     /tmp/ccghGiGC.s:108339  .debug_str:000000000004dc73 .LASF5675
     /tmp/ccghGiGC.s:105137  .debug_str:0000000000040248 .LASF5676
     /tmp/ccghGiGC.s:92335  .debug_str:000000000000c72c .LASF5677
     /tmp/ccghGiGC.s:91909  .debug_str:000000000000a9e2 .LASF5678
     /tmp/ccghGiGC.s:97703  .debug_str:00000000000223e1 .LASF5679
     /tmp/ccghGiGC.s:91653  .debug_str:00000000000097ff .LASF5680
     /tmp/ccghGiGC.s:91821  .debug_str:000000000000a3ee .LASF5681
     /tmp/ccghGiGC.s:98121  .debug_str:0000000000024038 .LASF5682
     /tmp/ccghGiGC.s:89683  .debug_str:00000000000011f1 .LASF5683
     /tmp/ccghGiGC.s:93707  .debug_str:000000000001177b .LASF5684
     /tmp/ccghGiGC.s:96761  .debug_str:000000000001e32b .LASF5685
     /tmp/ccghGiGC.s:102861  .debug_str:0000000000037249 .LASF5686
     /tmp/ccghGiGC.s:95609  .debug_str:0000000000019257 .LASF5687
     /tmp/ccghGiGC.s:96949  .debug_str:000000000001ef6a .LASF5688
     /tmp/ccghGiGC.s:96427  .debug_str:000000000001cc0a .LASF5689
     /tmp/ccghGiGC.s:104749  .debug_str:000000000003ea3e .LASF5690
     /tmp/ccghGiGC.s:90247  .debug_str:0000000000003920 .LASF5691
     /tmp/ccghGiGC.s:90841  .debug_str:00000000000060dc .LASF5692
     /tmp/ccghGiGC.s:107809  .debug_str:000000000004b7eb .LASF5693
     /tmp/ccghGiGC.s:91525  .debug_str:0000000000008f7e .LASF5694
     /tmp/ccghGiGC.s:102353  .debug_str:0000000000034fed .LASF5695
     /tmp/ccghGiGC.s:94195  .debug_str:0000000000013834 .LASF5696
     /tmp/ccghGiGC.s:102115  .debug_str:0000000000033fb8 .LASF5697
     /tmp/ccghGiGC.s:100035  .debug_str:000000000002b995 .LASF5699
     /tmp/ccghGiGC.s:97257  .debug_str:0000000000020624 .LASF5700
     /tmp/ccghGiGC.s:102875  .debug_str:0000000000037346 .LASF5701
     /tmp/ccghGiGC.s:91857  .debug_str:000000000000a5c4 .LASF5702
     /tmp/ccghGiGC.s:96251  .debug_str:000000000001beea .LASF5703
     /tmp/ccghGiGC.s:96125  .debug_str:000000000001b613 .LASF5704
     /tmp/ccghGiGC.s:100955  .debug_str:000000000002f2e2 .LASF5705
     /tmp/ccghGiGC.s:97491  .debug_str:000000000002159e .LASF5706
     /tmp/ccghGiGC.s:105329  .debug_str:0000000000041046 .LASF5707
     /tmp/ccghGiGC.s:89791  .debug_str:0000000000001a3f .LASF5708
     /tmp/ccghGiGC.s:99175  .debug_str:00000000000280d4 .LASF5709
     /tmp/ccghGiGC.s:95505  .debug_str:0000000000018b9a .LASF5710
     /tmp/ccghGiGC.s:105209  .debug_str:000000000004067a .LASF5711
     /tmp/ccghGiGC.s:103915  .debug_str:000000000003b0d9 .LASF5712
     /tmp/ccghGiGC.s:104469  .debug_str:000000000003d608 .LASF5713
     /tmp/ccghGiGC.s:100779  .debug_str:000000000002e7cc .LASF5714
     /tmp/ccghGiGC.s:100337  .debug_str:000000000002cb90 .LASF5715
     /tmp/ccghGiGC.s:92467  .debug_str:000000000000d021 .LASF5716
     /tmp/ccghGiGC.s:94497  .debug_str:0000000000014b7f .LASF5717
     /tmp/ccghGiGC.s:96999  .debug_str:000000000001f31f .LASF5718
     /tmp/ccghGiGC.s:103333  .debug_str:0000000000038ee2 .LASF5719
     /tmp/ccghGiGC.s:89991  .debug_str:0000000000002839 .LASF5720
     /tmp/ccghGiGC.s:96307  .debug_str:000000000001c2f1 .LASF5721
     /tmp/ccghGiGC.s:102609  .debug_str:0000000000036230 .LASF5722
     /tmp/ccghGiGC.s:95147  .debug_str:00000000000174c7 .LASF5723
     /tmp/ccghGiGC.s:102549  .debug_str:0000000000035d2b .LASF5724
     /tmp/ccghGiGC.s:104731  .debug_str:000000000003e8dc .LASF5725
     /tmp/ccghGiGC.s:93017  .debug_str:000000000000ef4b .LASF5726
     /tmp/ccghGiGC.s:107455  .debug_str:0000000000049fd9 .LASF5727
     /tmp/ccghGiGC.s:91801  .debug_str:000000000000a257 .LASF5728
     /tmp/ccghGiGC.s:107199  .debug_str:0000000000048ecb .LASF5729
     /tmp/ccghGiGC.s:104921  .debug_str:000000000003f505 .LASF5730
     /tmp/ccghGiGC.s:92241  .debug_str:000000000000c150 .LASF5731
     /tmp/ccghGiGC.s:95099  .debug_str:000000000001716e .LASF5732
     /tmp/ccghGiGC.s:98551  .debug_str:0000000000025acf .LASF5733
     /tmp/ccghGiGC.s:106011  .debug_str:00000000000441e3 .LASF5734
     /tmp/ccghGiGC.s:108563  .debug_str:000000000004ec56 .LASF5735
     /tmp/ccghGiGC.s:96959  .debug_str:000000000001f020 .LASF5736
     /tmp/ccghGiGC.s:101317  .debug_str:0000000000030b79 .LASF5737
     /tmp/ccghGiGC.s:99427  .debug_str:000000000002928d .LASF5738
     /tmp/ccghGiGC.s:98707  .debug_str:00000000000262dc .LASF5739
     /tmp/ccghGiGC.s:96615  .debug_str:000000000001d873 .LASF5740
     /tmp/ccghGiGC.s:94331  .debug_str:00000000000140bd .LASF5741
     /tmp/ccghGiGC.s:92153  .debug_str:000000000000bab1 .LASF5742
     /tmp/ccghGiGC.s:100275  .debug_str:000000000002c7f0 .LASF5743
     /tmp/ccghGiGC.s:107427  .debug_str:0000000000049e36 .LASF5744
     /tmp/ccghGiGC.s:101961  .debug_str:000000000003351b .LASF5745
     /tmp/ccghGiGC.s:101791  .debug_str:0000000000032a0d .LASF5746
     /tmp/ccghGiGC.s:90299  .debug_str:0000000000003ca5 .LASF5747
     /tmp/ccghGiGC.s:94381  .debug_str:00000000000143bb .LASF5748
     /tmp/ccghGiGC.s:94737  .debug_str:0000000000015a0a .LASF5749
     /tmp/ccghGiGC.s:107551  .debug_str:000000000004a52d .LASF5750
     /tmp/ccghGiGC.s:107667  .debug_str:000000000004add8 .LASF5751
     /tmp/ccghGiGC.s:105873  .debug_str:0000000000043881 .LASF5752
     /tmp/ccghGiGC.s:90907  .debug_str:0000000000006576 .LASF5753
     /tmp/ccghGiGC.s:99145  .debug_str:0000000000027f34 .LASF5754
     /tmp/ccghGiGC.s:99215  .debug_str:000000000002839b .LASF5755
     /tmp/ccghGiGC.s:97371  .debug_str:0000000000020e2e .LASF5756
     /tmp/ccghGiGC.s:105675  .debug_str:0000000000042bdb .LASF5757
     /tmp/ccghGiGC.s:103703  .debug_str:000000000003a1f5 .LASF5758
     /tmp/ccghGiGC.s:93141  .debug_str:000000000000f7a4 .LASF5759
     /tmp/ccghGiGC.s:99279  .debug_str:00000000000287b9 .LASF5760
     /tmp/ccghGiGC.s:107611  .debug_str:000000000004a950 .LASF5761
     /tmp/ccghGiGC.s:97251  .debug_str:00000000000205e4 .LASF5762
     /tmp/ccghGiGC.s:103865  .debug_str:000000000003ad82 .LASF5763
     /tmp/ccghGiGC.s:106997  .debug_str:0000000000048234 .LASF5764
     /tmp/ccghGiGC.s:103989  .debug_str:000000000003b5d3 .LASF5765
     /tmp/ccghGiGC.s:98251  .debug_str:000000000002495f .LASF5766
     /tmp/ccghGiGC.s:108889  .debug_str:0000000000050263 .LASF5767
     /tmp/ccghGiGC.s:94969  .debug_str:0000000000016892 .LASF5768
     /tmp/ccghGiGC.s:108117  .debug_str:000000000004cc8c .LASF5769
     /tmp/ccghGiGC.s:93847  .debug_str:00000000000120c4 .LASF5770
     /tmp/ccghGiGC.s:100457  .debug_str:000000000002d360 .LASF5771
     /tmp/ccghGiGC.s:89475  .debug_str:000000000000041c .LASF5772
     /tmp/ccghGiGC.s:106883  .debug_str:0000000000047a36 .LASF5773
     /tmp/ccghGiGC.s:91409  .debug_str:0000000000008792 .LASF5774
     /tmp/ccghGiGC.s:103757  .debug_str:000000000003a5e3 .LASF5775
     /tmp/ccghGiGC.s:99201  .debug_str:0000000000028290 .LASF5776
     /tmp/ccghGiGC.s:96445  .debug_str:000000000001cd57 .LASF5777
     /tmp/ccghGiGC.s:101125  .debug_str:000000000002feaf .LASF5778
     /tmp/ccghGiGC.s:98617  .debug_str:0000000000025e5e .LASF5779
     /tmp/ccghGiGC.s:96699  .debug_str:000000000001dec0 .LASF5780
     /tmp/ccghGiGC.s:101585  .debug_str:0000000000031c95 .LASF5781
     /tmp/ccghGiGC.s:107219  .debug_str:0000000000049034 .LASF5782
     /tmp/ccghGiGC.s:103691  .debug_str:000000000003a157 .LASF5783
     /tmp/ccghGiGC.s:95679  .debug_str:00000000000197a5 .LASF5784
     /tmp/ccghGiGC.s:99311  .debug_str:0000000000028a10 .LASF5785
     /tmp/ccghGiGC.s:97719  .debug_str:00000000000225b0 .LASF5786
     /tmp/ccghGiGC.s:102237  .debug_str:0000000000034780 .LASF5787
     /tmp/ccghGiGC.s:92127  .debug_str:000000000000b925 .LASF5788
     /tmp/ccghGiGC.s:100289  .debug_str:000000000002c8cc .LASF5789
     /tmp/ccghGiGC.s:107387  .debug_str:0000000000049ae7 .LASF5790
     /tmp/ccghGiGC.s:104689  .debug_str:000000000003e624 .LASF5791
     /tmp/ccghGiGC.s:93827  .debug_str:0000000000011f93 .LASF5792
     /tmp/ccghGiGC.s:106499  .debug_str:0000000000046186 .LASF5793
     /tmp/ccghGiGC.s:89443  .debug_str:00000000000001c3 .LASF5794
     /tmp/ccghGiGC.s:106867  .debug_str:0000000000047938 .LASF5795
     /tmp/ccghGiGC.s:94707  .debug_str:0000000000015808 .LASF5796
     /tmp/ccghGiGC.s:102599  .debug_str:0000000000036192 .LASF5797
     /tmp/ccghGiGC.s:93969  .debug_str:0000000000012865 .LASF5798
     /tmp/ccghGiGC.s:107217  .debug_str:000000000004901b .LASF5799
     /tmp/ccghGiGC.s:89575  .debug_str:0000000000000b0a .LASF5800
     /tmp/ccghGiGC.s:106993  .debug_str:00000000000481e3 .LASF5801
     /tmp/ccghGiGC.s:103399  .debug_str:0000000000039211 .LASF5802
     /tmp/ccghGiGC.s:93925  .debug_str:00000000000125e9 .LASF5803
     /tmp/ccghGiGC.s:97645  .debug_str:00000000000220d6 .LASF5804
     /tmp/ccghGiGC.s:98345  .debug_str:0000000000024f3e .LASF5805
     /tmp/ccghGiGC.s:96297  .debug_str:000000000001c273 .LASF5806
     /tmp/ccghGiGC.s:94011  .debug_str:0000000000012b86 .LASF5807
     /tmp/ccghGiGC.s:105091  .debug_str:000000000003ff8e .LASF5808
     /tmp/ccghGiGC.s:102911  .debug_str:000000000003760d .LASF5809
     /tmp/ccghGiGC.s:108349  .debug_str:000000000004dd45 .LASF5810
     /tmp/ccghGiGC.s:89679  .debug_str:00000000000011c9 .LASF5811
     /tmp/ccghGiGC.s:98531  .debug_str:0000000000025983 .LASF5812
     /tmp/ccghGiGC.s:107227  .debug_str:000000000004909d .LASF5813
     /tmp/ccghGiGC.s:95635  .debug_str:000000000001941d .LASF5814
     /tmp/ccghGiGC.s:94663  .debug_str:0000000000015566 .LASF5815
     /tmp/ccghGiGC.s:93831  .debug_str:0000000000011fb9 .LASF5816
     /tmp/ccghGiGC.s:107913  .debug_str:000000000004bed6 .LASF5817
     /tmp/ccghGiGC.s:93657  .debug_str:00000000000114e3 .LASF5818
     /tmp/ccghGiGC.s:100589  .debug_str:000000000002db53 .LASF5819
     /tmp/ccghGiGC.s:94393  .debug_str:00000000000144a9 .LASF5820
     /tmp/ccghGiGC.s:93729  .debug_str:00000000000118c3 .LASF5821
     /tmp/ccghGiGC.s:98829  .debug_str:0000000000026a29 .LASF5822
     /tmp/ccghGiGC.s:93197  .debug_str:000000000000fa59 .LASF5823
     /tmp/ccghGiGC.s:99855  .debug_str:000000000002adb4 .LASF5824
     /tmp/ccghGiGC.s:92887  .debug_str:000000000000e914 .LASF5825
     /tmp/ccghGiGC.s:97127  .debug_str:000000000001fc77 .LASF5826
     /tmp/ccghGiGC.s:90999  .debug_str:0000000000006b63 .LASF5827
     /tmp/ccghGiGC.s:90319  .debug_str:0000000000003de9 .LASF5828
     /tmp/ccghGiGC.s:103265  .debug_str:0000000000038b65 .LASF5829
     /tmp/ccghGiGC.s:103911  .debug_str:000000000003b09b .LASF5830
     /tmp/ccghGiGC.s:99185  .debug_str:0000000000028192 .LASF5831
     /tmp/ccghGiGC.s:105779  .debug_str:000000000004322f .LASF5832
     /tmp/ccghGiGC.s:108537  .debug_str:000000000004eaae .LASF5833
     /tmp/ccghGiGC.s:107435  .debug_str:0000000000049eab .LASF5834
     /tmp/ccghGiGC.s:105247  .debug_str:0000000000040933 .LASF5835
     /tmp/ccghGiGC.s:89669  .debug_str:000000000000111d .LASF5836
     /tmp/ccghGiGC.s:103571  .debug_str:0000000000039a8d .LASF5837
     /tmp/ccghGiGC.s:98435  .debug_str:0000000000025433 .LASF5838
     /tmp/ccghGiGC.s:106239  .debug_str:00000000000450be .LASF5839
     /tmp/ccghGiGC.s:100603  .debug_str:000000000002dc38 .LASF5840
     /tmp/ccghGiGC.s:89519  .debug_str:000000000000073f .LASF5841
     /tmp/ccghGiGC.s:102447  .debug_str:0000000000035605 .LASF5842
     /tmp/ccghGiGC.s:101457  .debug_str:0000000000031408 .LASF5843
     /tmp/ccghGiGC.s:104021  .debug_str:000000000003b88b .LASF5844
     /tmp/ccghGiGC.s:89509  .debug_str:000000000000069b .LASF5845
     /tmp/ccghGiGC.s:107579  .debug_str:000000000004a6ee .LASF5846
     /tmp/ccghGiGC.s:101937  .debug_str:0000000000033378 .LASF5847
     /tmp/ccghGiGC.s:104105  .debug_str:000000000003bdae .LASF5848
     /tmp/ccghGiGC.s:105323  .debug_str:0000000000040ff1 .LASF5849
     /tmp/ccghGiGC.s:101203  .debug_str:00000000000303a2 .LASF5850
     /tmp/ccghGiGC.s:107351  .debug_str:00000000000498d4 .LASF5851
     /tmp/ccghGiGC.s:108411  .debug_str:000000000004e247 .LASF5852
     /tmp/ccghGiGC.s:99523  .debug_str:0000000000029825 .LASF5853
     /tmp/ccghGiGC.s:94261  .debug_str:0000000000013c99 .LASF5855
     /tmp/ccghGiGC.s:104411  .debug_str:000000000003d2b4 .LASF5856
     /tmp/ccghGiGC.s:105389  .debug_str:000000000004153f .LASF5857
     /tmp/ccghGiGC.s:100267  .debug_str:000000000002c775 .LASF5858
     /tmp/ccghGiGC.s:106019  .debug_str:0000000000044250 .LASF5859
     /tmp/ccghGiGC.s:102643  .debug_str:0000000000036407 .LASF5860
     /tmp/ccghGiGC.s:101111  .debug_str:000000000002fdeb .LASF5861
     /tmp/ccghGiGC.s:98241  .debug_str:00000000000248c6 .LASF5862
     /tmp/ccghGiGC.s:89847  .debug_str:0000000000001e49 .LASF5863
     /tmp/ccghGiGC.s:93601  .debug_str:00000000000110e8 .LASF5864
     /tmp/ccghGiGC.s:97313  .debug_str:0000000000020add .LASF5865
     /tmp/ccghGiGC.s:99475  .debug_str:0000000000029601 .LASF5866
     /tmp/ccghGiGC.s:106205  .debug_str:0000000000044e6c .LASF5867
     /tmp/ccghGiGC.s:101397  .debug_str:0000000000031072 .LASF5868
     /tmp/ccghGiGC.s:106427  .debug_str:0000000000045d02 .LASF5869
     /tmp/ccghGiGC.s:104943  .debug_str:000000000003f621 .LASF5870
     /tmp/ccghGiGC.s:108217  .debug_str:000000000004d3b9 .LASF5871
     /tmp/ccghGiGC.s:108137  .debug_str:000000000004ce21 .LASF5872
     /tmp/ccghGiGC.s:104603  .debug_str:000000000003e048 .LASF5873
     /tmp/ccghGiGC.s:96561  .debug_str:000000000001d48e .LASF5874
     /tmp/ccghGiGC.s:89969  .debug_str:00000000000026f4 .LASF5875
     /tmp/ccghGiGC.s:91605  .debug_str:0000000000009505 .LASF5877
     /tmp/ccghGiGC.s:101513  .debug_str:0000000000031749 .LASF5878
     /tmp/ccghGiGC.s:95943  .debug_str:000000000001a9b7 .LASF5879
     /tmp/ccghGiGC.s:99247  .debug_str:000000000002854d .LASF5880
     /tmp/ccghGiGC.s:104063  .debug_str:000000000003badd .LASF5881
     /tmp/ccghGiGC.s:101369  .debug_str:0000000000030eb2 .LASF5882
     /tmp/ccghGiGC.s:96521  .debug_str:000000000001d223 .LASF5883
     /tmp/ccghGiGC.s:90279  .debug_str:0000000000003b68 .LASF5884
     /tmp/ccghGiGC.s:94481  .debug_str:0000000000014a7d .LASF5885
     /tmp/ccghGiGC.s:97509  .debug_str:00000000000216c9 .LASF5886
     /tmp/ccghGiGC.s:104975  .debug_str:000000000003f81d .LASF5887
     /tmp/ccghGiGC.s:104451  .debug_str:000000000003d501 .LASF5888
     /tmp/ccghGiGC.s:94623  .debug_str:00000000000152b8 .LASF5889
     /tmp/ccghGiGC.s:107365  .debug_str:0000000000049955 .LASF5890
     /tmp/ccghGiGC.s:108767  .debug_str:000000000004f9a3 .LASF5891
     /tmp/ccghGiGC.s:101895  .debug_str:0000000000033137 .LASF5892
     /tmp/ccghGiGC.s:99713  .debug_str:000000000002a4cc .LASF5893
     /tmp/ccghGiGC.s:107373  .debug_str:00000000000499f5 .LASF5894
     /tmp/ccghGiGC.s:92935  .debug_str:000000000000ec02 .LASF5895
     /tmp/ccghGiGC.s:106029  .debug_str:00000000000442cf .LASF5896
     /tmp/ccghGiGC.s:90033  .debug_str:0000000000002b76 .LASF5897
     /tmp/ccghGiGC.s:91973  .debug_str:000000000000ad9b .LASF5898
     /tmp/ccghGiGC.s:108721  .debug_str:000000000004f65e .LASF5899
     /tmp/ccghGiGC.s:108319  .debug_str:000000000004da90 .LASF5900
     /tmp/ccghGiGC.s:103347  .debug_str:0000000000038fd9 .LASF5902
     /tmp/ccghGiGC.s:97935  .debug_str:000000000002332c .LASF5903
     /tmp/ccghGiGC.s:102935  .debug_str:0000000000037778 .LASF5904
     /tmp/ccghGiGC.s:95883  .debug_str:000000000001a5a9 .LASF5905
     /tmp/ccghGiGC.s:91123  .debug_str:00000000000074ec .LASF5906
     /tmp/ccghGiGC.s:97885  .debug_str:0000000000023038 .LASF5907
     /tmp/ccghGiGC.s:102895  .debug_str:00000000000374cc .LASF5908
     /tmp/ccghGiGC.s:106981  .debug_str:000000000004811b .LASF5909
     /tmp/ccghGiGC.s:94043  .debug_str:0000000000012d8b .LASF5910
     /tmp/ccghGiGC.s:103317  .debug_str:0000000000038df4 .LASF5911
     /tmp/ccghGiGC.s:97809  .debug_str:0000000000022add .LASF5912
     /tmp/ccghGiGC.s:94227  .debug_str:0000000000013a72 .LASF5913
     /tmp/ccghGiGC.s:90705  .debug_str:000000000000579c .LASF5914
     /tmp/ccghGiGC.s:107501  .debug_str:000000000004a2cb .LASF5915
     /tmp/ccghGiGC.s:90881  .debug_str:0000000000006389 .LASF5916
     /tmp/ccghGiGC.s:100879  .debug_str:000000000002ee9f .LASF5917
     /tmp/ccghGiGC.s:94379  .debug_str:00000000000143af .LASF5918
     /tmp/ccghGiGC.s:93105  .debug_str:000000000000f47c .LASF5919
     /tmp/ccghGiGC.s:105979  .debug_str:0000000000043f74 .LASF5920
     /tmp/ccghGiGC.s:102315  .debug_str:0000000000034c6c .LASF5922
     /tmp/ccghGiGC.s:92039  .debug_str:000000000000b291 .LASF5923
     /tmp/ccghGiGC.s:105191  .debug_str:00000000000405b0 .LASF5924
     /tmp/ccghGiGC.s:90155  .debug_str:0000000000003332 .LASF5925
     /tmp/ccghGiGC.s:103583  .debug_str:0000000000039b53 .LASF5926
     /tmp/ccghGiGC.s:96011  .debug_str:000000000001aea5 .LASF5927
     /tmp/ccghGiGC.s:95913  .debug_str:000000000001a7a4 .LASF5928
     /tmp/ccghGiGC.s:106709  .debug_str:0000000000046e75 .LASF5929
     /tmp/ccghGiGC.s:98517  .debug_str:0000000000025878 .LASF5930
     /tmp/ccghGiGC.s:90495  .debug_str:0000000000004a75 .LASF5931
     /tmp/ccghGiGC.s:94803  .debug_str:0000000000015ea9 .LASF5932
     /tmp/ccghGiGC.s:105255  .debug_str:00000000000409c6 .LASF5933
     /tmp/ccghGiGC.s:97447  .debug_str:00000000000212c7 .LASF5934
     /tmp/ccghGiGC.s:93999  .debug_str:0000000000012aa0 .LASF5935
     /tmp/ccghGiGC.s:90635  .debug_str:0000000000005326 .LASF5936
     /tmp/ccghGiGC.s:93891  .debug_str:0000000000012413 .LASF5937
     /tmp/ccghGiGC.s:101909  .debug_str:0000000000033215 .LASF5938
     /tmp/ccghGiGC.s:95357  .debug_str:0000000000018253 .LASF5939
     /tmp/ccghGiGC.s:94491  .debug_str:0000000000014b1c .LASF5940
     /tmp/ccghGiGC.s:95539  .debug_str:0000000000018d38 .LASF5941
     /tmp/ccghGiGC.s:105041  .debug_str:000000000003fc97 .LASF5942
     /tmp/ccghGiGC.s:106399  .debug_str:0000000000045b40 .LASF5943
     /tmp/ccghGiGC.s:91875  .debug_str:000000000000a744 .LASF5944
     /tmp/ccghGiGC.s:93203  .debug_str:000000000000faca .LASF5945
     /tmp/ccghGiGC.s:99147  .debug_str:0000000000027f4d .LASF5946
     /tmp/ccghGiGC.s:97673  .debug_str:0000000000022234 .LASF5947
     /tmp/ccghGiGC.s:106053  .debug_str:0000000000044450 .LASF5948
     /tmp/ccghGiGC.s:106173  .debug_str:0000000000044be9 .LASF5949
     /tmp/ccghGiGC.s:100725  .debug_str:000000000002e464 .LASF5950
     /tmp/ccghGiGC.s:107483  .debug_str:000000000004a15f .LASF5951
     /tmp/ccghGiGC.s:95183  .debug_str:000000000001770e .LASF5952
     /tmp/ccghGiGC.s:93193  .debug_str:000000000000fa10 .LASF5953
     /tmp/ccghGiGC.s:97419  .debug_str:00000000000210e1 .LASF5954
     /tmp/ccghGiGC.s:102203  .debug_str:0000000000034535 .LASF5955
     /tmp/ccghGiGC.s:99943  .debug_str:000000000002b399 .LASF5956
     /tmp/ccghGiGC.s:93331  .debug_str:0000000000010333 .LASF5957
     /tmp/ccghGiGC.s:90547  .debug_str:0000000000004e22 .LASF5958
     /tmp/ccghGiGC.s:108423  .debug_str:000000000004e306 .LASF5959
     /tmp/ccghGiGC.s:93315  .debug_str:0000000000010219 .LASF5960
     /tmp/ccghGiGC.s:91053  .debug_str:0000000000006fb4 .LASF5961
     /tmp/ccghGiGC.s:101193  .debug_str:0000000000030319 .LASF5962
     /tmp/ccghGiGC.s:95739  .debug_str:0000000000019b92 .LASF5963
     /tmp/ccghGiGC.s:92591  .debug_str:000000000000d872 .LASF5964
     /tmp/ccghGiGC.s:90013  .debug_str:00000000000029e1 .LASF5965
     /tmp/ccghGiGC.s:94847  .debug_str:00000000000160ba .LASF5966
     /tmp/ccghGiGC.s:105557  .debug_str:0000000000042317 .LASF5967
     /tmp/ccghGiGC.s:107073  .debug_str:00000000000486da .LASF5968
     /tmp/ccghGiGC.s:100903  .debug_str:000000000002eff5 .LASF5969
     /tmp/ccghGiGC.s:89867  .debug_str:0000000000001fe4 .LASF5970
     /tmp/ccghGiGC.s:98901  .debug_str:0000000000026f67 .LASF5971
     /tmp/ccghGiGC.s:101465  .debug_str:0000000000031478 .LASF5972
     /tmp/ccghGiGC.s:92289  .debug_str:000000000000c425 .LASF5973
     /tmp/ccghGiGC.s:99079  .debug_str:0000000000027a5c .LASF5974
     /tmp/ccghGiGC.s:100203  .debug_str:000000000002c411 .LASF5975
     /tmp/ccghGiGC.s:104985  .debug_str:000000000003f8b2 .LASF5976
     /tmp/ccghGiGC.s:96777  .debug_str:000000000001e410 .LASF5977
     /tmp/ccghGiGC.s:102081  .debug_str:0000000000033d7a .LASF5978
     /tmp/ccghGiGC.s:97987  .debug_str:00000000000236c5 .LASF5979
     /tmp/ccghGiGC.s:91777  .debug_str:000000000000a0b3 .LASF5980
     /tmp/ccghGiGC.s:107039  .debug_str:00000000000484cf .LASF5981
     /tmp/ccghGiGC.s:93273  .debug_str:000000000000ff74 .LASF5982
     /tmp/ccghGiGC.s:105431  .debug_str:000000000004183b .LASF5983
     /tmp/ccghGiGC.s:96411  .debug_str:000000000001cab1 .LASF5984
     /tmp/ccghGiGC.s:100737  .debug_str:000000000002e538 .LASF5985
     /tmp/ccghGiGC.s:104101  .debug_str:000000000003bd45 .LASF5986
     /tmp/ccghGiGC.s:107467  .debug_str:000000000004a063 .LASF5987
     /tmp/ccghGiGC.s:96971  .debug_str:000000000001f0d2 .LASF5988
     /tmp/ccghGiGC.s:95075  .debug_str:0000000000016ff2 .LASF5989
     /tmp/ccghGiGC.s:106759  .debug_str:000000000004723d .LASF5990
     /tmp/ccghGiGC.s:104853  .debug_str:000000000003f06f .LASF5991
     /tmp/ccghGiGC.s:95665  .debug_str:00000000000196a8 .LASF5992
     /tmp/ccghGiGC.s:92551  .debug_str:000000000000d603 .LASF5993
     /tmp/ccghGiGC.s:98099  .debug_str:0000000000023eb9 .LASF5994
     /tmp/ccghGiGC.s:91927  .debug_str:000000000000aac9 .LASF5995
     /tmp/ccghGiGC.s:100335  .debug_str:000000000002cb7a .LASF5996
     /tmp/ccghGiGC.s:91667  .debug_str:00000000000098ef .LASF5997
     /tmp/ccghGiGC.s:94741  .debug_str:0000000000015a43 .LASF5998
     /tmp/ccghGiGC.s:94241  .debug_str:0000000000013b3b .LASF5999
     /tmp/ccghGiGC.s:100227  .debug_str:000000000002c55a .LASF6000
     /tmp/ccghGiGC.s:100921  .debug_str:000000000002f132 .LASF6001
     /tmp/ccghGiGC.s:106253  .debug_str:0000000000045196 .LASF6002
     /tmp/ccghGiGC.s:91975  .debug_str:000000000000ae06 .LASF6003
     /tmp/ccghGiGC.s:90939  .debug_str:000000000000679c .LASF6004
     /tmp/ccghGiGC.s:92281  .debug_str:000000000000c38c .LASF6005
     /tmp/ccghGiGC.s:92613  .debug_str:000000000000d9c1 .LASF6006
     /tmp/ccghGiGC.s:104587  .debug_str:000000000003def1 .LASF6007
     /tmp/ccghGiGC.s:90399  .debug_str:00000000000043bc .LASF6008
     /tmp/ccghGiGC.s:103747  .debug_str:000000000003a525 .LASF6009
     /tmp/ccghGiGC.s:106401  .debug_str:0000000000045b53 .LASF6010
     /tmp/ccghGiGC.s:99495  .debug_str:0000000000029724 .LASF6011
     /tmp/ccghGiGC.s:103817  .debug_str:000000000003aa05 .LASF6012
     /tmp/ccghGiGC.s:98459  .debug_str:0000000000025594 .LASF6013
     /tmp/ccghGiGC.s:93735  .debug_str:000000000001196b .LASF6014
     /tmp/ccghGiGC.s:99841  .debug_str:000000000002acc9 .LASF6015
     /tmp/ccghGiGC.s:105751  .debug_str:000000000004303a .LASF6016
     /tmp/ccghGiGC.s:92173  .debug_str:000000000000bc51 .LASF6017
     /tmp/ccghGiGC.s:91485  .debug_str:0000000000008cf2 .LASF6018
     /tmp/ccghGiGC.s:99487  .debug_str:00000000000296be .LASF6019
     /tmp/ccghGiGC.s:100161  .debug_str:000000000002c118 .LASF6020
     /tmp/ccghGiGC.s:93181  .debug_str:000000000000f91e .LASF6021
     /tmp/ccghGiGC.s:105265  .debug_str:0000000000040a6c .LASF6022
     /tmp/ccghGiGC.s:100721  .debug_str:000000000002e411 .LASF6023
     /tmp/ccghGiGC.s:99725  .debug_str:000000000002a5ed .LASF6024
     /tmp/ccghGiGC.s:94041  .debug_str:0000000000012d7e .LASF6025
     /tmp/ccghGiGC.s:93363  .debug_str:0000000000010429 .LASF6026
     /tmp/ccghGiGC.s:98289  .debug_str:0000000000024bcc .LASF6027
     /tmp/ccghGiGC.s:101929  .debug_str:0000000000033323 .LASF6028
     /tmp/ccghGiGC.s:105579  .debug_str:00000000000424a9 .LASF6029
     /tmp/ccghGiGC.s:93823  .debug_str:0000000000011f33 .LASF6030
     /tmp/ccghGiGC.s:90263  .debug_str:0000000000003a21 .LASF6031
     /tmp/ccghGiGC.s:106987  .debug_str:000000000004818d .LASF6032
     /tmp/ccghGiGC.s:98169  .debug_str:0000000000024388 .LASF6033
     /tmp/ccghGiGC.s:96301  .debug_str:000000000001c2c1 .LASF6034
     /tmp/ccghGiGC.s:108043  .debug_str:000000000004c787 .LASF6035
     /tmp/ccghGiGC.s:106529  .debug_str:000000000004639c .LASF6036
     /tmp/ccghGiGC.s:106605  .debug_str:0000000000046808 .LASF6037
     /tmp/ccghGiGC.s:98145  .debug_str:00000000000241ab .LASF6038
     /tmp/ccghGiGC.s:107799  .debug_str:000000000004b74b .LASF6039
     /tmp/ccghGiGC.s:90623  .debug_str:0000000000005281 .LASF6040
     /tmp/ccghGiGC.s:95831  .debug_str:000000000001a1a1 .LASF6041
     /tmp/ccghGiGC.s:100675  .debug_str:000000000002e119 .LASF6042
     /tmp/ccghGiGC.s:100523  .debug_str:000000000002d71b .LASF6043
     /tmp/ccghGiGC.s:99735  .debug_str:000000000002a684 .LASF6044
     /tmp/ccghGiGC.s:98407  .debug_str:000000000002529a .LASF6045
                           .group:0000000000000000 wm4.0.2cde0bba310258ac5fb120644dc52a54
                           .group:0000000000000000 wm4._newlib_version.h.4.9ba035841e762c3308916a0ce96032e7
                           .group:0000000000000000 wm4.newlib.h.24.c310527e65dab9224e8fef4278ad2129
                           .group:0000000000000000 wm4.ieeefp.h.195.a810689bf65b84f4ad2c33b483468c94
                           .group:0000000000000000 wm4.features.h.22.fad1cec3bc7ff06488171438dbdcfd02
                           .group:0000000000000000 wm4.config.h.83.0359905d884ebfe41c79e1d7c780ef62
                           .group:0000000000000000 wm4._ansi.h.31.de524f58584151836e90d8620a16f8e8
                           .group:0000000000000000 wm4.stddef.h.39.a38874c8f8a57e66301090908ec2a69f
                           .group:0000000000000000 wm4._types.h.20.dd0d04dca3800a0d2a6129b87f3adbb2
                           .group:0000000000000000 wm4.stddef.h.161.5349cb105733e8777bfb0cf53c4e3f34
                           .group:0000000000000000 wm4._default_types.h.6.74c1620e62c751216328238764a7f2e5
                           .group:0000000000000000 wm4._types.h.127.c5cfac939eadb83d223592dbacad7524
                           .group:0000000000000000 wm4.reent.h.17.487f8c1f76499d088b190f62530a0034
                           .group:0000000000000000 wm4.lock.h.2.c0958401bd0ce484d507ee19aacab817
                           .group:0000000000000000 wm4.reent.h.77.1187f1075ff88452c642b29ed9a9030d
                           .group:0000000000000000 wm4.cdefs.h.49.6260d97adb8d27534cbdc0f868b8ea87
                           .group:0000000000000000 wm4.string.h.15.dab3980bf35408a4c507182805e2de3a
                           .group:0000000000000000 wm4.stddef.h.161.19e15733342b50ead2919490b095303e
                           .group:0000000000000000 wm4.stdio.h.27.3fc80220048df77954e38daec3bb9670
                           .group:0000000000000000 wm4.stdarg.h.34.3a23a216c0c293b3d2ea2e89281481e6
                           .group:0000000000000000 wm4.types.h.40.8b6acba56cefbb11746718204edc8f5e
                           .group:0000000000000000 wm4._stdint.h.10.c24fa3af3bc1706662bb5593a907e841
                           .group:0000000000000000 wm4._endian.h.18.1bf9649e8e5bbc91042012680270b9ed
                           .group:0000000000000000 wm4.endian.h.9.49f3a4695c1b61e8a0808de3c4a106cb
                           .group:0000000000000000 wm4._timeval.h.30.0e8bfd94e85db17dda3286ee81496fe6
                           .group:0000000000000000 wm4.timespec.h.41.d855182eb0e690443ab8651bcedca6e1
                           .group:0000000000000000 wm4.select.h.19.97ca6fd0c752a0f3b6719fd314d361e6
                           .group:0000000000000000 wm4.types.h.51.5571ec98f267d17d3c670b7a3ba33afa
                           .group:0000000000000000 wm4.sched.h.22.c60982713a5c428609783c78f9c78d95
                           .group:0000000000000000 wm4._pthreadtypes.h.36.fcee9961c35163dde6267ef772ad1972
                           .group:0000000000000000 wm4.stdio.h.2.4aa87247282eca6c8f36f9de33d8df1a
                           .group:0000000000000000 wm4.stdio.h.81.60a2ded7dae310b81f9d6907fe5e3dbf
                           .group:0000000000000000 wm4.stdbool.h.29.07dce69c3b78884144b7f7bd19483461
                           .group:0000000000000000 wm4._intsup.h.10.b28b45fc63caeb010c3f7ee592257700
                           .group:0000000000000000 wm4.stdint.h.23.d53047a68f4a85177f80b422d52785ed
                           .group:0000000000000000 wm4.mss_assert.h.10.09559128d1f6dbd833ab24347e71c76c
                           .group:0000000000000000 wm4.mss_legacy_defines.h.20.594d5f03b0f5314e3b2e801d98173479
                           .group:0000000000000000 wm4.mss_ddr_defs.h.18.58f9a87b5146acaefd5d9382d54140ba
                           .group:0000000000000000 wm4.mss_sysreg.h.19.614456a035a0cca3fd9d4348b0740228
                           .group:0000000000000000 wm4.mss_ddr_sgmii_regs.h.5543.4c565db9c25f7d4b45bd9b264c475c73
                           .group:0000000000000000 wm4.mss_io_config.h.18.b70207dea5a59bac7da73ad6eee375d0
                           .group:0000000000000000 wm4.mss_pll.h.192.d6d9146a5a36ce9e7f6a5ae2e7816970
                           .group:0000000000000000 wm4.mss_scb_nwc_regs.h.19.92192026ece1a0bf26c7a7af9a56e40a
                           .group:0000000000000000 wm4.mss_sw_config.h.37.2f79a8233593e640cb9660b9e2020907
                           .group:0000000000000000 wm4.atomic.h.33.7c17fdf64e267483cec1d3aead0473f4
                           .group:0000000000000000 wm4.bits.h.32.2ced66ae3bdb7651edf1ccfb67de7b38
                           .group:0000000000000000 wm4.encoding.h.34.68f898bac6356b153788044b6c29d177
                           .group:0000000000000000 wm4.fpga_design_config.h.28.572b3893a09debe9cb72c1441369aee0
                           .group:0000000000000000 wm4.hw_memory.h.28.20599cf485f90ffaa97f313798a86238
                           .group:0000000000000000 wm4.hw_apb_split.h.28.a2537f445f7a8784a4f064a3a60be381
                           .group:0000000000000000 wm4.hw_cache.h.28.aa59d0803f1283c480a862ba52ff4d4f
                           .group:0000000000000000 wm4.hw_pmp_hart0.h.28.354eeff78ff2eb91d2783e01dbe4e5a4
                           .group:0000000000000000 wm4.hw_pmp_hart1.h.28.0ab9e64d9d5e4b3cdd2ef9fae2ec18f2
                           .group:0000000000000000 wm4.hw_pmp_hart2.h.28.361fe83e7fd64067a0988f3e9bcd6e5d
                           .group:0000000000000000 wm4.hw_pmp_hart3.h.28.8c3eca8078d58a4979d23ae7fc3ceb35
                           .group:0000000000000000 wm4.hw_pmp_hart4.h.28.f8bf6b50f09effab3f4dfc16a44d5d0e
                           .group:0000000000000000 wm4.hw_mpu_fic0.h.28.3a719367ee0b56c20c7541cca5239296
                           .group:0000000000000000 wm4.hw_mpu_fic1.h.28.35d3b72b131707dc62529924d8a0d281
                           .group:0000000000000000 wm4.hw_mpu_fic2.h.28.88b1cd488fc04fd09199876067a670cb
                           .group:0000000000000000 wm4.hw_mpu_crypto.h.28.45628d14bd81b7ae15853711bd55f118
                           .group:0000000000000000 wm4.hw_mpu_gem0.h.28.e88b73a77e588162ac08b038acfe3e30
                           .group:0000000000000000 wm4.hw_mpu_gem1.h.28.dadc3a640dcfb61a8f24791560fa3605
                           .group:0000000000000000 wm4.hw_mpu_usb.h.28.0b0c25c65da87670d72dffa8e9b51ad6
                           .group:0000000000000000 wm4.hw_mpu_mmc.h.28.a5df85f7a87dfaafd939c0c9743b44a9
                           .group:0000000000000000 wm4.hw_mpu_scb.h.28.2b778d620a29a13b1a33733b3fefaf3e
                           .group:0000000000000000 wm4.hw_mpu_trace.h.28.dbb150e27983d45d78ea646dfe7486fe
                           .group:0000000000000000 wm4.hw_mssio_mux.h.28.b18396e0f5e6c83835b3b8e1dfadc1b4
                           .group:0000000000000000 wm4.hw_hsio_mux.h.28.924a66a0f83f27c24767fbfdaffeb21f
                           .group:0000000000000000 wm4.hw_sgmii_tip.h.28.c2c656c87ab558ebf9f510f55b530997
                           .group:0000000000000000 wm4.hw_ddr_options.h.28.583107ebf3250a7e99a4e34ca34040f9
                           .group:0000000000000000 wm4.hw_ddr_io_bank.h.28.09e373f4be71534c2b0bf629a50788a8
                           .group:0000000000000000 wm4.hw_ddr_mode.h.28.3ecff7868bb6c2027433e8aaf3a6e9d0
                           .group:0000000000000000 wm4.hw_ddr_off_mode.h.28.c8f0d4bcf68d083d8ff0335e558930e9
                           .group:0000000000000000 wm4.hw_ddr_segs.h.28.93c530a254cc8a9c015d0bae044125b2
                           .group:0000000000000000 wm4.hw_ddrc.h.28.d858943fbdd3e7761d52c974b21ea425
                           .group:0000000000000000 wm4.hw_mss_clks.h.28.53b1f012440894624f35e610477ed6d8
                           .group:0000000000000000 wm4.hw_clk_sysreg.h.28.adf2eb2b08eeb2ee56f6129328388395
                           .group:0000000000000000 wm4.hw_clk_mss_pll.h.28.f255323a7f4276a824501e07bd0f464a
                           .group:0000000000000000 wm4.hw_clk_sgmii_pll.h.28.b1aefe04f9cda949aee4586f0025e039
                           .group:0000000000000000 wm4.hw_clk_ddr_pll.h.28.8f0ed359dbfb59ae6f0aa1f29002d60d
                           .group:0000000000000000 wm4.hw_clk_mss_cfm.h.28.365f11189fcbf1e2f08db25b2ea1557a
                           .group:0000000000000000 wm4.hw_clk_sgmii_cfm.h.28.f59fda78ad3b4981ccbc9fbc0d90ca0a
                           .group:0000000000000000 wm4.hw_gen_peripherals.h.28.67a363af3ea61147ac365f904e7b6183
                           .group:0000000000000000 wm4.mss_ddr.h.335.a7fe38050b0f6ce3ee0df6f9cb324a9e
                           .group:0000000000000000 wm4.mss_clint.h.28.3d2c636f4c8175d64797a2e961db02ff
                           .group:0000000000000000 wm4.mss_h2f.h.21.7086260854010c63b41a469cd9f7486d
                           .group:0000000000000000 wm4.mss_hart_ints.h.20.df914e6570bee6a0a5e5635d9329f21b
                           .group:0000000000000000 wm4.mss_mpu.h.20.dd1fa2a8702d0e819fbbb263dc6428d1
                           .group:0000000000000000 wm4.mss_pmp.h.19.8f83d750289fe5e95625891444a65774
                           .group:0000000000000000 wm4.mss_plic.h.38.63bddd8b7aeec5445a0ab9c829719734
                           .group:0000000000000000 wm4.mss_seg.h.38.d7fedb2c993ff2eb58c3c1c5f57af66f
                           .group:0000000000000000 wm4.mss_util.h.31.57922375d48cf596b0783b975bb89aba
                           .group:0000000000000000 wm4.mss_mtrap.h.32.75bfcc4d9a15120a34cb2ee456cde55a
                           .group:0000000000000000 wm4.mss_l2_cache.h.430.934410ee5d62996f3b8869a34907e316
                           .group:0000000000000000 wm4.mss_axiswitch.h.110.fc13072c0144cbd8e516d1d4f8c599b2
                           .group:0000000000000000 wm4.mss_peripherals.h.19.9837bc1f8d1c62dfd266b4590a8830b2
                           .group:0000000000000000 wm4.mss_cfm.h.20.474baf099ef6f60b14912c934c5e47c6
                           .group:0000000000000000 wm4.mss_sgmii.h.18.7850ab5b5e05dabb42db8143f362bae8
                           .group:0000000000000000 wm4.system_startup.h.17.372727b49fdab2e286123d13f6b6542a
                           .group:0000000000000000 wm4.mss_ddr_debug.h.40.79a83a45aea2f09f97e5663e254e5e65
                           .group:0000000000000000 wm4.simulation.h.17.093880140c3a0a8272ca8343ed1291ac

UNDEFINED SYMBOLS
CFG_DDR_SGMII_PHY
SCB_REGS
IOSCB_IO_CALIB_SGMII
sgmii_mux_config
sgmii_pll_config_scb
mss_config_clk_rst
IOSCB_IO_CALIB_DDR
