   1              		.file	"mss_ddr_debug.c"
   2              		.option nopic
   3              		.attribute arch, "rv64i2p0_m2p0_a2p0_f2p0_d2p0_c2p0"
   4              		.attribute unaligned_access, 0
   5              		.attribute stack_align, 16
   6              		.text
   7              	.Ltext0:
   8              		.cfi_sections	.debug_frame
   9              		.section	.text.delay,"ax",@progbits
  10              		.align	1
  12              	delay:
  13              	.LFB23:
  14              		.file 1 "../src/platform/mpfs_hal/common/nwc/mss_nwc_init.h"
   1:../src/platform/mpfs_hal/common/nwc/mss_nwc_init.h **** /*******************************************************************************
   2:../src/platform/mpfs_hal/common/nwc/mss_nwc_init.h ****  * Copyright 2019-2022 Microchip FPGA Embedded Systems Solutions.
   3:../src/platform/mpfs_hal/common/nwc/mss_nwc_init.h ****  *
   4:../src/platform/mpfs_hal/common/nwc/mss_nwc_init.h ****  * SPDX-License-Identifier: MIT
   5:../src/platform/mpfs_hal/common/nwc/mss_nwc_init.h ****  *
   6:../src/platform/mpfs_hal/common/nwc/mss_nwc_init.h ****  * MPFS HAL Embedded Software
   7:../src/platform/mpfs_hal/common/nwc/mss_nwc_init.h ****  *
   8:../src/platform/mpfs_hal/common/nwc/mss_nwc_init.h ****  */
   9:../src/platform/mpfs_hal/common/nwc/mss_nwc_init.h **** 
  10:../src/platform/mpfs_hal/common/nwc/mss_nwc_init.h **** /*******************************************************************************
  11:../src/platform/mpfs_hal/common/nwc/mss_nwc_init.h ****  * @file mss_nwc_init.h
  12:../src/platform/mpfs_hal/common/nwc/mss_nwc_init.h ****  * @author Microchip-FPGA Embedded Systems Solutions
  13:../src/platform/mpfs_hal/common/nwc/mss_nwc_init.h ****  * @brief defines for mss_nwc_init.c
  14:../src/platform/mpfs_hal/common/nwc/mss_nwc_init.h ****  *
  15:../src/platform/mpfs_hal/common/nwc/mss_nwc_init.h ****  */
  16:../src/platform/mpfs_hal/common/nwc/mss_nwc_init.h **** 
  17:../src/platform/mpfs_hal/common/nwc/mss_nwc_init.h **** /*=========================================================================*//**
  18:../src/platform/mpfs_hal/common/nwc/mss_nwc_init.h ****   @page MPFS MSS NWC configuration
  19:../src/platform/mpfs_hal/common/nwc/mss_nwc_init.h ****   ==============================================================================
  20:../src/platform/mpfs_hal/common/nwc/mss_nwc_init.h ****   @section intro_sec Introduction
  21:../src/platform/mpfs_hal/common/nwc/mss_nwc_init.h ****   ==============================================================================
  22:../src/platform/mpfs_hal/common/nwc/mss_nwc_init.h ****   The MPFS microcontroller subsystem (MSS) includes a number of hard core
  23:../src/platform/mpfs_hal/common/nwc/mss_nwc_init.h ****   components physically located in the north west corner of the MSS on the die.
  24:../src/platform/mpfs_hal/common/nwc/mss_nwc_init.h **** 
  25:../src/platform/mpfs_hal/common/nwc/mss_nwc_init.h ****   ==============================================================================
  26:../src/platform/mpfs_hal/common/nwc/mss_nwc_init.h ****   @section Items located in the north west corner
  27:../src/platform/mpfs_hal/common/nwc/mss_nwc_init.h ****   ==============================================================================
  28:../src/platform/mpfs_hal/common/nwc/mss_nwc_init.h ****   MSS PLL
  29:../src/platform/mpfs_hal/common/nwc/mss_nwc_init.h ****   SGMII
  30:../src/platform/mpfs_hal/common/nwc/mss_nwc_init.h ****   DDR phy
  31:../src/platform/mpfs_hal/common/nwc/mss_nwc_init.h ****   MSSIO
  32:../src/platform/mpfs_hal/common/nwc/mss_nwc_init.h **** 
  33:../src/platform/mpfs_hal/common/nwc/mss_nwc_init.h ****   ==============================================================================
  34:../src/platform/mpfs_hal/common/nwc/mss_nwc_init.h ****   @section Flow diagram
  35:../src/platform/mpfs_hal/common/nwc/mss_nwc_init.h ****   ==============================================================================
  36:../src/platform/mpfs_hal/common/nwc/mss_nwc_init.h ****   todo: remove, added line here as test *****
  37:../src/platform/mpfs_hal/common/nwc/mss_nwc_init.h ****   Simplified flow diagram
  38:../src/platform/mpfs_hal/common/nwc/mss_nwc_init.h ****                               +-----------------+
  39:../src/platform/mpfs_hal/common/nwc/mss_nwc_init.h ****                               |     start       |
  40:../src/platform/mpfs_hal/common/nwc/mss_nwc_init.h ****                               |  NWC setup      |
  41:../src/platform/mpfs_hal/common/nwc/mss_nwc_init.h ****                               +-------+---------+
  42:../src/platform/mpfs_hal/common/nwc/mss_nwc_init.h ****                                       v
  43:../src/platform/mpfs_hal/common/nwc/mss_nwc_init.h ****                               +-----------------+
  44:../src/platform/mpfs_hal/common/nwc/mss_nwc_init.h ****                               |   set SCB access|
  45:../src/platform/mpfs_hal/common/nwc/mss_nwc_init.h ****                               |   Parameters    |
  46:../src/platform/mpfs_hal/common/nwc/mss_nwc_init.h ****                               +-------+---------+
  47:../src/platform/mpfs_hal/common/nwc/mss_nwc_init.h ****                                       |
  48:../src/platform/mpfs_hal/common/nwc/mss_nwc_init.h ****                               +-------v---------+
  49:../src/platform/mpfs_hal/common/nwc/mss_nwc_init.h ****                               | Release APB NWC |
  50:../src/platform/mpfs_hal/common/nwc/mss_nwc_init.h ****                               | Turn on APB clk |
  51:../src/platform/mpfs_hal/common/nwc/mss_nwc_init.h ****                               +-------+---------+
  52:../src/platform/mpfs_hal/common/nwc/mss_nwc_init.h ****                                       |
  53:../src/platform/mpfs_hal/common/nwc/mss_nwc_init.h ****                               +-------v---------+
  54:../src/platform/mpfs_hal/common/nwc/mss_nwc_init.h ****                               | Set Dynamic     |
  55:../src/platform/mpfs_hal/common/nwc/mss_nwc_init.h ****                               | enable bits     |
  56:../src/platform/mpfs_hal/common/nwc/mss_nwc_init.h ****                               +-------++--------+
  57:../src/platform/mpfs_hal/common/nwc/mss_nwc_init.h ****                                       |
  58:../src/platform/mpfs_hal/common/nwc/mss_nwc_init.h ****                               +-------v---------+
  59:../src/platform/mpfs_hal/common/nwc/mss_nwc_init.h ****                               | Setup signals   |
  60:../src/platform/mpfs_hal/common/nwc/mss_nwc_init.h ****                               | DCE,CORE_UP,    |
  61:../src/platform/mpfs_hal/common/nwc/mss_nwc_init.h ****                               | Flash_Valid,    |
  62:../src/platform/mpfs_hal/common/nwc/mss_nwc_init.h ****                               | MSS_IO_EN       |
  63:../src/platform/mpfs_hal/common/nwc/mss_nwc_init.h ****                               +-------+---------+
  64:../src/platform/mpfs_hal/common/nwc/mss_nwc_init.h ****                                       |
  65:../src/platform/mpfs_hal/common/nwc/mss_nwc_init.h ****                               +-------v---------+
  66:../src/platform/mpfs_hal/common/nwc/mss_nwc_init.h ****                               | Setup SGMII     |
  67:../src/platform/mpfs_hal/common/nwc/mss_nwc_init.h ****                               |                 |
  68:../src/platform/mpfs_hal/common/nwc/mss_nwc_init.h ****                               +-------+---------+
  69:../src/platform/mpfs_hal/common/nwc/mss_nwc_init.h ****                                       |
  70:../src/platform/mpfs_hal/common/nwc/mss_nwc_init.h ****                               +-------v---------+
  71:../src/platform/mpfs_hal/common/nwc/mss_nwc_init.h ****                               | Setup DDR       |
  72:../src/platform/mpfs_hal/common/nwc/mss_nwc_init.h ****                               |                 |
  73:../src/platform/mpfs_hal/common/nwc/mss_nwc_init.h ****                               +-------+---------+
  74:../src/platform/mpfs_hal/common/nwc/mss_nwc_init.h ****                                       |
  75:../src/platform/mpfs_hal/common/nwc/mss_nwc_init.h ****                               +-------v---------+
  76:../src/platform/mpfs_hal/common/nwc/mss_nwc_init.h ****                               | Setup MSSIO     |
  77:../src/platform/mpfs_hal/common/nwc/mss_nwc_init.h ****                               |                 |
  78:../src/platform/mpfs_hal/common/nwc/mss_nwc_init.h ****                               +-------+---------+
  79:../src/platform/mpfs_hal/common/nwc/mss_nwc_init.h ****                                       |
  80:../src/platform/mpfs_hal/common/nwc/mss_nwc_init.h ****                               +-------v---------+
  81:../src/platform/mpfs_hal/common/nwc/mss_nwc_init.h ****                               |    Finished     |
  82:../src/platform/mpfs_hal/common/nwc/mss_nwc_init.h ****                               +-----------------+
  83:../src/platform/mpfs_hal/common/nwc/mss_nwc_init.h **** 
  84:../src/platform/mpfs_hal/common/nwc/mss_nwc_init.h ****  *//*=========================================================================*/
  85:../src/platform/mpfs_hal/common/nwc/mss_nwc_init.h **** #ifndef __MSS_NWC_INIT_H_
  86:../src/platform/mpfs_hal/common/nwc/mss_nwc_init.h **** #define __MSS_NWC_INIT_H_ 1
  87:../src/platform/mpfs_hal/common/nwc/mss_nwc_init.h **** 
  88:../src/platform/mpfs_hal/common/nwc/mss_nwc_init.h **** 
  89:../src/platform/mpfs_hal/common/nwc/mss_nwc_init.h **** #include <stddef.h>
  90:../src/platform/mpfs_hal/common/nwc/mss_nwc_init.h **** #include <stdint.h>
  91:../src/platform/mpfs_hal/common/nwc/mss_nwc_init.h **** #include "../encoding.h"
  92:../src/platform/mpfs_hal/common/nwc/mss_nwc_init.h **** 
  93:../src/platform/mpfs_hal/common/nwc/mss_nwc_init.h **** #ifdef __cplusplus
  94:../src/platform/mpfs_hal/common/nwc/mss_nwc_init.h **** extern "C" {
  95:../src/platform/mpfs_hal/common/nwc/mss_nwc_init.h **** #endif
  96:../src/platform/mpfs_hal/common/nwc/mss_nwc_init.h **** 
  97:../src/platform/mpfs_hal/common/nwc/mss_nwc_init.h **** #define DELAY_CYCLES_500_NS            ((uint32_t)(0.0000005 * LIBERO_SETTING_MSS_COREPLEX_CPU_CLK)
  98:../src/platform/mpfs_hal/common/nwc/mss_nwc_init.h **** #define DELAY_CYCLES_1_MICRO           ((uint32_t)(DELAY_CYCLES_500_NS * 2U))
  99:../src/platform/mpfs_hal/common/nwc/mss_nwc_init.h **** #define DELAY_CYCLES_5_MICRO           ((uint32_t)(DELAY_CYCLES_500_NS * 10U))
 100:../src/platform/mpfs_hal/common/nwc/mss_nwc_init.h **** #define DELAY_CYCLES_50_MICRO          ((uint32_t)(DELAY_CYCLES_500_NS * 100U))
 101:../src/platform/mpfs_hal/common/nwc/mss_nwc_init.h **** #define DELAY_CYCLES_150_MICRO         ((uint32_t)(DELAY_CYCLES_500_NS * 300U))
 102:../src/platform/mpfs_hal/common/nwc/mss_nwc_init.h **** #define DELAY_CYCLES_250_MICRO         ((uint32_t)(DELAY_CYCLES_500_NS * 500U))
 103:../src/platform/mpfs_hal/common/nwc/mss_nwc_init.h **** #define DELAY_CYCLES_500_MICRO         ((uint32_t)(DELAY_CYCLES_500_NS * 1000U))
 104:../src/platform/mpfs_hal/common/nwc/mss_nwc_init.h **** #define DELAY_CYCLES_2MS               ((uint32_t)(DELAY_CYCLES_500_NS * 4000U))
 105:../src/platform/mpfs_hal/common/nwc/mss_nwc_init.h **** #define DELAY_CYCLES_100MS             ((uint32_t)(DELAY_CYCLES_2MS * 50U))
 106:../src/platform/mpfs_hal/common/nwc/mss_nwc_init.h **** 
 107:../src/platform/mpfs_hal/common/nwc/mss_nwc_init.h **** /***************************************************************************//**
 108:../src/platform/mpfs_hal/common/nwc/mss_nwc_init.h **** 
 109:../src/platform/mpfs_hal/common/nwc/mss_nwc_init.h ****  */
 110:../src/platform/mpfs_hal/common/nwc/mss_nwc_init.h **** typedef enum {
 111:../src/platform/mpfs_hal/common/nwc/mss_nwc_init.h ****     DDR_BOOT_PROGRESS      = 0x00      //!< DDR_BOOT_PROGRESS
 112:../src/platform/mpfs_hal/common/nwc/mss_nwc_init.h **** } MSS_REPORT_STATUS;
 113:../src/platform/mpfs_hal/common/nwc/mss_nwc_init.h **** 
 114:../src/platform/mpfs_hal/common/nwc/mss_nwc_init.h **** /*-------------------------------------------------------------------------*//**
 115:../src/platform/mpfs_hal/common/nwc/mss_nwc_init.h ****  * delay()
 116:../src/platform/mpfs_hal/common/nwc/mss_nwc_init.h ****  * Simple wait delay based on mcycles count
 117:../src/platform/mpfs_hal/common/nwc/mss_nwc_init.h ****  * @param n Number of mcycles to wait.
 118:../src/platform/mpfs_hal/common/nwc/mss_nwc_init.h ****  */
 119:../src/platform/mpfs_hal/common/nwc/mss_nwc_init.h **** static inline void delay(uint32_t n)
 120:../src/platform/mpfs_hal/common/nwc/mss_nwc_init.h **** {
  15              		.loc 1 120 1
  16              		.cfi_startproc
  17 0000 3971     		addi	sp,sp,-64
  18              		.cfi_def_cfa_offset 64
  19 0002 22FC     		sd	s0,56(sp)
  20              		.cfi_offset 8, -8
  21 0004 8000     		addi	s0,sp,64
  22              		.cfi_def_cfa 8, 0
  23 0006 AA87     		mv	a5,a0
  24 0008 2326F4FC 		sw	a5,-52(s0)
  25              	.LBB2:
 121:../src/platform/mpfs_hal/common/nwc/mss_nwc_init.h ****     volatile uint64_t cycles_end = rdcycle() + n ;
  26              		.loc 1 121 36
  27              	 #APP
  28              	# 121 "../src/platform/mpfs_hal/common/nwc/mss_nwc_init.h" 1
 122              	    while (rdcycle() < cycles_end)
  29              		csrr a5, cycle
  30              	# 0 "" 2
  31              	 #NO_APP
  32 0010 2334F4FE 		sd	a5,-24(s0)
  33 0014 033784FE 		ld	a4,-24(s0)
  34              	.LBE2:
 121:../src/platform/mpfs_hal/common/nwc/mss_nwc_init.h ****     volatile uint64_t cycles_end = rdcycle() + n ;
  35              		.loc 1 121 46
  36 0018 8367C4FC 		lwu	a5,-52(s0)
  37 001c BA97     		add	a5,a4,a5
 121:../src/platform/mpfs_hal/common/nwc/mss_nwc_init.h ****     volatile uint64_t cycles_end = rdcycle() + n ;
  38              		.loc 1 121 23
  39 001e 233CF4FC 		sd	a5,-40(s0)
  40              		.loc 1 122 11
  41 0022 0100     		nop
  42              	.L2:
  43              	.LBB3:
  44              		.loc 1 122 12 discriminator 1
  45              	 #APP
  46              	# 122 "../src/platform/mpfs_hal/common/nwc/mss_nwc_init.h" 1
 123              	    {
  47              		csrr a5, cycle
  48              	# 0 "" 2
  49              	 #NO_APP
  50 0028 2330F4FE 		sd	a5,-32(s0)
  51 002c 033704FE 		ld	a4,-32(s0)
  52              	.LBE3:
 122:../src/platform/mpfs_hal/common/nwc/mss_nwc_init.h ****     {
  53              		.loc 1 122 22 discriminator 1
  54 0030 833784FD 		ld	a5,-40(s0)
 122:../src/platform/mpfs_hal/common/nwc/mss_nwc_init.h ****     {
  55              		.loc 1 122 11 discriminator 1
  56 0034 E368F7FE 		bltu	a4,a5,.L2
 124:../src/platform/mpfs_hal/common/nwc/mss_nwc_init.h **** 
 125:../src/platform/mpfs_hal/common/nwc/mss_nwc_init.h ****     }
 126:../src/platform/mpfs_hal/common/nwc/mss_nwc_init.h **** }
  57              		.loc 1 126 1
  58 0038 0100     		nop
  59 003a 6274     		ld	s0,56(sp)
  60              		.cfi_restore 8
  61              		.cfi_def_cfa 2, 64
  62 003c 2161     		addi	sp,sp,64
  63              		.cfi_def_cfa_offset 0
  64 003e 8280     		jr	ra
  65              		.cfi_endproc
  66              	.LFE23:
  68              		.globl	progress
  69              		.section	.rodata
  70              		.align	3
  71              	.LC0:
  72 0000 7C0D00   		.string	"|\r"
  73 0003 00000000 		.align	3
  73      00
  74              	.LC1:
  75 0008 2F0D00   		.string	"/\r"
  76 000b 00000000 		.align	3
  76      00
  77              	.LC2:
  78 0010 2D0D00   		.string	"-\r"
  79              		.section	.data.progress,"aw"
  80              		.align	3
  83              	progress:
  84 0000 00000000 		.dword	.LC0
  84      00000000 
  85 0008 00000000 		.dword	.LC1
  85      00000000 
  86 0010 00000000 		.dword	.LC2
  86      00000000 
  87              		.section	.bss.g_test_buffer_cached,"aw",@nobits
  88              		.align	3
  91              	g_test_buffer_cached:
  92 0000 00000000 		.zero	3060
  92      00000000 
  92      00000000 
  92      00000000 
  92      00000000 
  93              		.section	.bss.g_test_buffer_not_cached,"aw",@nobits
  94              		.align	3
  97              	g_test_buffer_not_cached:
  98 0000 00000000 		.zero	3060
  98      00000000 
  98      00000000 
  98      00000000 
  98      00000000 
  99              		.comm	ddr_test,8,8
 100              		.section	.text.ddr_write,"ax",@progbits
 101              		.align	1
 103              	ddr_write:
 104              	.LFB24:
 105              		.file 2 "../src/platform/mpfs_hal/common/nwc/mss_ddr_debug.c"
   1:../src/platform/mpfs_hal/common/nwc/mss_ddr_debug.c **** /*******************************************************************************
   2:../src/platform/mpfs_hal/common/nwc/mss_ddr_debug.c ****  * Copyright 2019-2022 Microchip FPGA Embedded Systems Solutions.
   3:../src/platform/mpfs_hal/common/nwc/mss_ddr_debug.c ****  *
   4:../src/platform/mpfs_hal/common/nwc/mss_ddr_debug.c ****  * SPDX-License-Identifier: MIT
   5:../src/platform/mpfs_hal/common/nwc/mss_ddr_debug.c ****  *
   6:../src/platform/mpfs_hal/common/nwc/mss_ddr_debug.c ****  * MPFS HAL Embedded Software
   7:../src/platform/mpfs_hal/common/nwc/mss_ddr_debug.c ****  *
   8:../src/platform/mpfs_hal/common/nwc/mss_ddr_debug.c ****  */
   9:../src/platform/mpfs_hal/common/nwc/mss_ddr_debug.c **** 
  10:../src/platform/mpfs_hal/common/nwc/mss_ddr_debug.c **** /*******************************************************************************
  11:../src/platform/mpfs_hal/common/nwc/mss_ddr_debug.c ****  * @file mss_ddr_debug.h
  12:../src/platform/mpfs_hal/common/nwc/mss_ddr_debug.c ****  * @author Microchip FPGA Embedded Systems Solutions
  13:../src/platform/mpfs_hal/common/nwc/mss_ddr_debug.c ****  * @brief DDR write and read test functions
  14:../src/platform/mpfs_hal/common/nwc/mss_ddr_debug.c ****  *
  15:../src/platform/mpfs_hal/common/nwc/mss_ddr_debug.c ****  */
  16:../src/platform/mpfs_hal/common/nwc/mss_ddr_debug.c **** 
  17:../src/platform/mpfs_hal/common/nwc/mss_ddr_debug.c **** #include <stdio.h>
  18:../src/platform/mpfs_hal/common/nwc/mss_ddr_debug.c **** #include <stdlib.h>
  19:../src/platform/mpfs_hal/common/nwc/mss_ddr_debug.c **** #include <string.h>
  20:../src/platform/mpfs_hal/common/nwc/mss_ddr_debug.c **** #include "mpfs_hal/mss_hal.h"
  21:../src/platform/mpfs_hal/common/nwc/mss_ddr_debug.c **** #include "mss_nwc_init.h"
  22:../src/platform/mpfs_hal/common/nwc/mss_ddr_debug.c **** 
  23:../src/platform/mpfs_hal/common/nwc/mss_ddr_debug.c **** /*******************************************************************************
  24:../src/platform/mpfs_hal/common/nwc/mss_ddr_debug.c ****  * Local Defines
  25:../src/platform/mpfs_hal/common/nwc/mss_ddr_debug.c ****  */
  26:../src/platform/mpfs_hal/common/nwc/mss_ddr_debug.c **** #define DDR_BASE            0x80000000u
  27:../src/platform/mpfs_hal/common/nwc/mss_ddr_debug.c **** #define DDR_SIZE            0x40000000u
  28:../src/platform/mpfs_hal/common/nwc/mss_ddr_debug.c **** 
  29:../src/platform/mpfs_hal/common/nwc/mss_ddr_debug.c **** #define PDMA_CHANNEL0_BASE_ADDRESS  0x3000000ULL
  30:../src/platform/mpfs_hal/common/nwc/mss_ddr_debug.c **** #define PDMA_CHANNEL1_BASE_ADDRESS  0x3001000ULL
  31:../src/platform/mpfs_hal/common/nwc/mss_ddr_debug.c **** #define PDMA_CHANNEL2_BASE_ADDRESS  0x3002000ULL
  32:../src/platform/mpfs_hal/common/nwc/mss_ddr_debug.c **** #define PDMA_CHANNEL3_BASE_ADDRESS  0x3003000ULL
  33:../src/platform/mpfs_hal/common/nwc/mss_ddr_debug.c **** 
  34:../src/platform/mpfs_hal/common/nwc/mss_ddr_debug.c **** const char *progress[3] = {"|\r", "/\r", "-\r"};
  35:../src/platform/mpfs_hal/common/nwc/mss_ddr_debug.c **** typedef void(*pattern_fct_t)(void);
  36:../src/platform/mpfs_hal/common/nwc/mss_ddr_debug.c **** static uint32_t g_test_buffer_cached[765];
  37:../src/platform/mpfs_hal/common/nwc/mss_ddr_debug.c **** static uint32_t g_test_buffer_not_cached[765];
  38:../src/platform/mpfs_hal/common/nwc/mss_ddr_debug.c **** 
  39:../src/platform/mpfs_hal/common/nwc/mss_ddr_debug.c **** /*******************************************************************************
  40:../src/platform/mpfs_hal/common/nwc/mss_ddr_debug.c ****  * External Defines
  41:../src/platform/mpfs_hal/common/nwc/mss_ddr_debug.c ****  */
  42:../src/platform/mpfs_hal/common/nwc/mss_ddr_debug.c **** extern const uint32_t ddr_test_pattern[768];
  43:../src/platform/mpfs_hal/common/nwc/mss_ddr_debug.c **** 
  44:../src/platform/mpfs_hal/common/nwc/mss_ddr_debug.c **** /*******************************************************************************
  45:../src/platform/mpfs_hal/common/nwc/mss_ddr_debug.c ****  * External function declarations
  46:../src/platform/mpfs_hal/common/nwc/mss_ddr_debug.c ****  */
  47:../src/platform/mpfs_hal/common/nwc/mss_ddr_debug.c **** extern void pdma_transfer(uint64_t destination, uint64_t source, uint64_t size_in_bytes, uint64_t b
  48:../src/platform/mpfs_hal/common/nwc/mss_ddr_debug.c **** extern void pdma_transfer_complete( uint64_t base_address);
  49:../src/platform/mpfs_hal/common/nwc/mss_ddr_debug.c **** 
  50:../src/platform/mpfs_hal/common/nwc/mss_ddr_debug.c **** /*******************************************************************************
  51:../src/platform/mpfs_hal/common/nwc/mss_ddr_debug.c ****  * Local data declarations
  52:../src/platform/mpfs_hal/common/nwc/mss_ddr_debug.c ****  */
  53:../src/platform/mpfs_hal/common/nwc/mss_ddr_debug.c **** #ifdef DEBUG_DDR_INIT
  54:../src/platform/mpfs_hal/common/nwc/mss_ddr_debug.c **** mss_uart_instance_t *g_debug_uart;
  55:../src/platform/mpfs_hal/common/nwc/mss_ddr_debug.c **** #endif
  56:../src/platform/mpfs_hal/common/nwc/mss_ddr_debug.c **** 
  57:../src/platform/mpfs_hal/common/nwc/mss_ddr_debug.c **** uint64_t ddr_test;
  58:../src/platform/mpfs_hal/common/nwc/mss_ddr_debug.c **** 
  59:../src/platform/mpfs_hal/common/nwc/mss_ddr_debug.c **** /*******************************************************************************
  60:../src/platform/mpfs_hal/common/nwc/mss_ddr_debug.c ****  * Local function declarations
  61:../src/platform/mpfs_hal/common/nwc/mss_ddr_debug.c ****  */
  62:../src/platform/mpfs_hal/common/nwc/mss_ddr_debug.c **** static uint32_t ddr_write ( volatile uint64_t *DDR_word_ptr,\
  63:../src/platform/mpfs_hal/common/nwc/mss_ddr_debug.c ****         uint32_t no_of_access, uint8_t data_ptrn, DDR_ACCESS_SIZE data_size );
  64:../src/platform/mpfs_hal/common/nwc/mss_ddr_debug.c **** static uint32_t ddr_read ( volatile uint64_t *DDR_word_ptr,\
  65:../src/platform/mpfs_hal/common/nwc/mss_ddr_debug.c ****         uint32_t no_of_access, uint8_t data_ptrn,  DDR_ACCESS_SIZE data_size );
  66:../src/platform/mpfs_hal/common/nwc/mss_ddr_debug.c **** static void load_test_buffers(uint32_t * p_cached_ddr,\
  67:../src/platform/mpfs_hal/common/nwc/mss_ddr_debug.c ****         uint32_t * p_not_cached_ddr, uint64_t length);
  68:../src/platform/mpfs_hal/common/nwc/mss_ddr_debug.c **** 
  69:../src/platform/mpfs_hal/common/nwc/mss_ddr_debug.c **** #ifdef HSS
  70:../src/platform/mpfs_hal/common/nwc/mss_ddr_debug.c **** __attribute__((weak)) int rand(void)
  71:../src/platform/mpfs_hal/common/nwc/mss_ddr_debug.c **** {
  72:../src/platform/mpfs_hal/common/nwc/mss_ddr_debug.c ****     return(0);
  73:../src/platform/mpfs_hal/common/nwc/mss_ddr_debug.c **** }
  74:../src/platform/mpfs_hal/common/nwc/mss_ddr_debug.c **** #endif
  75:../src/platform/mpfs_hal/common/nwc/mss_ddr_debug.c **** 
  76:../src/platform/mpfs_hal/common/nwc/mss_ddr_debug.c **** #ifdef DEBUG_DDR_INIT
  77:../src/platform/mpfs_hal/common/nwc/mss_ddr_debug.c **** /***************************************************************************//**
  78:../src/platform/mpfs_hal/common/nwc/mss_ddr_debug.c ****  * Setup serial port if DDR debug required during start-up
  79:../src/platform/mpfs_hal/common/nwc/mss_ddr_debug.c ****  * @param uart Ref to uart you want to use
  80:../src/platform/mpfs_hal/common/nwc/mss_ddr_debug.c ****  * @return
  81:../src/platform/mpfs_hal/common/nwc/mss_ddr_debug.c ****  */
  82:../src/platform/mpfs_hal/common/nwc/mss_ddr_debug.c **** 
  83:../src/platform/mpfs_hal/common/nwc/mss_ddr_debug.c **** __attribute__((weak))\
  84:../src/platform/mpfs_hal/common/nwc/mss_ddr_debug.c ****         uint32_t setup_ddr_debug_port(mss_uart_instance_t * uart)
  85:../src/platform/mpfs_hal/common/nwc/mss_ddr_debug.c **** {
  86:../src/platform/mpfs_hal/common/nwc/mss_ddr_debug.c **** #ifdef DEBUG_DDR_INIT
  87:../src/platform/mpfs_hal/common/nwc/mss_ddr_debug.c ****     /* Turn on UART0 clock */
  88:../src/platform/mpfs_hal/common/nwc/mss_ddr_debug.c ****     SYSREG->SUBBLK_CLOCK_CR |= (SUBBLK_CLOCK_CR_MMUART0_MASK);
  89:../src/platform/mpfs_hal/common/nwc/mss_ddr_debug.c ****     /* Remove soft reset */
  90:../src/platform/mpfs_hal/common/nwc/mss_ddr_debug.c ****     SYSREG->SOFT_RESET_CR   &= (uint32_t)(~SUBBLK_CLOCK_CR_MMUART0_MASK);
  91:../src/platform/mpfs_hal/common/nwc/mss_ddr_debug.c ****     MSS_UART_init( uart,
  92:../src/platform/mpfs_hal/common/nwc/mss_ddr_debug.c ****         MSS_UART_115200_BAUD,
  93:../src/platform/mpfs_hal/common/nwc/mss_ddr_debug.c ****             MSS_UART_DATA_8_BITS | MSS_UART_NO_PARITY | MSS_UART_ONE_STOP_BIT);
  94:../src/platform/mpfs_hal/common/nwc/mss_ddr_debug.c ****     return(0U);
  95:../src/platform/mpfs_hal/common/nwc/mss_ddr_debug.c **** #endif
  96:../src/platform/mpfs_hal/common/nwc/mss_ddr_debug.c **** }
  97:../src/platform/mpfs_hal/common/nwc/mss_ddr_debug.c **** 
  98:../src/platform/mpfs_hal/common/nwc/mss_ddr_debug.c **** 
  99:../src/platform/mpfs_hal/common/nwc/mss_ddr_debug.c **** /***************************************************************************//**
 100:../src/platform/mpfs_hal/common/nwc/mss_ddr_debug.c ****  * Print in number hex format
 101:../src/platform/mpfs_hal/common/nwc/mss_ddr_debug.c ****  * @param uart
 102:../src/platform/mpfs_hal/common/nwc/mss_ddr_debug.c ****  * @param b
 103:../src/platform/mpfs_hal/common/nwc/mss_ddr_debug.c ****  */
 104:../src/platform/mpfs_hal/common/nwc/mss_ddr_debug.c **** 
 105:../src/platform/mpfs_hal/common/nwc/mss_ddr_debug.c **** static void dumpbyte(mss_uart_instance_t * uart, uint8_t b)
 106:../src/platform/mpfs_hal/common/nwc/mss_ddr_debug.c **** {
 107:../src/platform/mpfs_hal/common/nwc/mss_ddr_debug.c **** #ifdef DEBUG_DDR_INIT
 108:../src/platform/mpfs_hal/common/nwc/mss_ddr_debug.c ****     const uint8_t hexchrs[] = { '0','1','2','3','4','5','6','7','8','9','A','B',\
 109:../src/platform/mpfs_hal/common/nwc/mss_ddr_debug.c ****             'C','D','E','F' };
 110:../src/platform/mpfs_hal/common/nwc/mss_ddr_debug.c ****     MSS_UART_polled_tx(uart, &hexchrs[b >> 4u] , 1);
 111:../src/platform/mpfs_hal/common/nwc/mss_ddr_debug.c ****     MSS_UART_polled_tx(uart, &hexchrs[b & 0x0fu] , 1);
 112:../src/platform/mpfs_hal/common/nwc/mss_ddr_debug.c **** #endif
 113:../src/platform/mpfs_hal/common/nwc/mss_ddr_debug.c **** }
 114:../src/platform/mpfs_hal/common/nwc/mss_ddr_debug.c **** 
 115:../src/platform/mpfs_hal/common/nwc/mss_ddr_debug.c **** /***************************************************************************//**
 116:../src/platform/mpfs_hal/common/nwc/mss_ddr_debug.c ****  *
 117:../src/platform/mpfs_hal/common/nwc/mss_ddr_debug.c ****  * @param uart
 118:../src/platform/mpfs_hal/common/nwc/mss_ddr_debug.c ****  * @param msg
 119:../src/platform/mpfs_hal/common/nwc/mss_ddr_debug.c ****  * @param d
 120:../src/platform/mpfs_hal/common/nwc/mss_ddr_debug.c ****  */
 121:../src/platform/mpfs_hal/common/nwc/mss_ddr_debug.c **** __attribute__((weak))\
 122:../src/platform/mpfs_hal/common/nwc/mss_ddr_debug.c ****         void uprint32(mss_uart_instance_t * uart, const char* msg, uint32_t d)
 123:../src/platform/mpfs_hal/common/nwc/mss_ddr_debug.c **** {
 124:../src/platform/mpfs_hal/common/nwc/mss_ddr_debug.c ****     MSS_UART_polled_tx_string(uart, (const uint8_t *)msg);
 125:../src/platform/mpfs_hal/common/nwc/mss_ddr_debug.c ****     for (unsigned i=0; i < 4; i++)
 126:../src/platform/mpfs_hal/common/nwc/mss_ddr_debug.c ****     {
 127:../src/platform/mpfs_hal/common/nwc/mss_ddr_debug.c ****         dumpbyte(uart, (d >> (8*(3-i))) & 0xffu);
 128:../src/platform/mpfs_hal/common/nwc/mss_ddr_debug.c ****     }
 129:../src/platform/mpfs_hal/common/nwc/mss_ddr_debug.c **** }
 130:../src/platform/mpfs_hal/common/nwc/mss_ddr_debug.c **** 
 131:../src/platform/mpfs_hal/common/nwc/mss_ddr_debug.c **** /***************************************************************************//**
 132:../src/platform/mpfs_hal/common/nwc/mss_ddr_debug.c ****  *
 133:../src/platform/mpfs_hal/common/nwc/mss_ddr_debug.c ****  * @param uart
 134:../src/platform/mpfs_hal/common/nwc/mss_ddr_debug.c ****  * @param msg
 135:../src/platform/mpfs_hal/common/nwc/mss_ddr_debug.c ****  * @param d
 136:../src/platform/mpfs_hal/common/nwc/mss_ddr_debug.c ****  */
 137:../src/platform/mpfs_hal/common/nwc/mss_ddr_debug.c **** __attribute__((weak))\
 138:../src/platform/mpfs_hal/common/nwc/mss_ddr_debug.c ****         void uprint64(mss_uart_instance_t * uart, const char* msg, uint64_t d)
 139:../src/platform/mpfs_hal/common/nwc/mss_ddr_debug.c **** {
 140:../src/platform/mpfs_hal/common/nwc/mss_ddr_debug.c ****     MSS_UART_polled_tx_string(uart, (const uint8_t *)msg);
 141:../src/platform/mpfs_hal/common/nwc/mss_ddr_debug.c ****     for (unsigned i=4; i < 8; i++)
 142:../src/platform/mpfs_hal/common/nwc/mss_ddr_debug.c ****     {
 143:../src/platform/mpfs_hal/common/nwc/mss_ddr_debug.c ****         dumpbyte(uart, (d >> (8*(3-i))) & 0xffu);
 144:../src/platform/mpfs_hal/common/nwc/mss_ddr_debug.c ****     }
 145:../src/platform/mpfs_hal/common/nwc/mss_ddr_debug.c ****     for (unsigned i=0; i < 4; i++)
 146:../src/platform/mpfs_hal/common/nwc/mss_ddr_debug.c ****     {
 147:../src/platform/mpfs_hal/common/nwc/mss_ddr_debug.c ****         dumpbyte(uart, (d >> (8*(3-i))) & 0xffu);
 148:../src/platform/mpfs_hal/common/nwc/mss_ddr_debug.c ****     }
 149:../src/platform/mpfs_hal/common/nwc/mss_ddr_debug.c **** }
 150:../src/platform/mpfs_hal/common/nwc/mss_ddr_debug.c **** 
 151:../src/platform/mpfs_hal/common/nwc/mss_ddr_debug.c **** /***************************************************************************//**
 152:../src/platform/mpfs_hal/common/nwc/mss_ddr_debug.c ****  *
 153:../src/platform/mpfs_hal/common/nwc/mss_ddr_debug.c ****  * @param uart
 154:../src/platform/mpfs_hal/common/nwc/mss_ddr_debug.c ****  * @param msg
 155:../src/platform/mpfs_hal/common/nwc/mss_ddr_debug.c ****  */
 156:../src/platform/mpfs_hal/common/nwc/mss_ddr_debug.c **** __attribute__((weak))\
 157:../src/platform/mpfs_hal/common/nwc/mss_ddr_debug.c ****         void uprint(mss_uart_instance_t * uart, const char* msg)
 158:../src/platform/mpfs_hal/common/nwc/mss_ddr_debug.c **** {
 159:../src/platform/mpfs_hal/common/nwc/mss_ddr_debug.c ****     MSS_UART_polled_tx_string(uart, (const uint8_t *)msg);
 160:../src/platform/mpfs_hal/common/nwc/mss_ddr_debug.c **** }
 161:../src/platform/mpfs_hal/common/nwc/mss_ddr_debug.c **** 
 162:../src/platform/mpfs_hal/common/nwc/mss_ddr_debug.c **** /***************************************************************************//**
 163:../src/platform/mpfs_hal/common/nwc/mss_ddr_debug.c ****  * dump a number of 32bit contiguous registers
 164:../src/platform/mpfs_hal/common/nwc/mss_ddr_debug.c ****  * @param uart
 165:../src/platform/mpfs_hal/common/nwc/mss_ddr_debug.c ****  * @param reg_pointer
 166:../src/platform/mpfs_hal/common/nwc/mss_ddr_debug.c ****  * @param no_of_regs
 167:../src/platform/mpfs_hal/common/nwc/mss_ddr_debug.c ****  */
 168:../src/platform/mpfs_hal/common/nwc/mss_ddr_debug.c **** void print_reg_array(mss_uart_instance_t * uart, uint32_t *reg_pointer,\
 169:../src/platform/mpfs_hal/common/nwc/mss_ddr_debug.c ****         uint32_t no_of_regs)
 170:../src/platform/mpfs_hal/common/nwc/mss_ddr_debug.c **** {
 171:../src/platform/mpfs_hal/common/nwc/mss_ddr_debug.c **** #ifdef DEBUG_DDR_INIT
 172:../src/platform/mpfs_hal/common/nwc/mss_ddr_debug.c ****     while(no_of_regs > 0U)
 173:../src/platform/mpfs_hal/common/nwc/mss_ddr_debug.c ****     {
 174:../src/platform/mpfs_hal/common/nwc/mss_ddr_debug.c ****         uprint64(uart, "\n\rRegister, 0x", (uint64_t)reg_pointer);
 175:../src/platform/mpfs_hal/common/nwc/mss_ddr_debug.c ****         uprint32(uart, "  ,Value, 0x", *reg_pointer);
 176:../src/platform/mpfs_hal/common/nwc/mss_ddr_debug.c ****         reg_pointer++;
 177:../src/platform/mpfs_hal/common/nwc/mss_ddr_debug.c ****         no_of_regs--;
 178:../src/platform/mpfs_hal/common/nwc/mss_ddr_debug.c ****     }
 179:../src/platform/mpfs_hal/common/nwc/mss_ddr_debug.c **** #endif
 180:../src/platform/mpfs_hal/common/nwc/mss_ddr_debug.c **** }
 181:../src/platform/mpfs_hal/common/nwc/mss_ddr_debug.c **** 
 182:../src/platform/mpfs_hal/common/nwc/mss_ddr_debug.c **** #endif
 183:../src/platform/mpfs_hal/common/nwc/mss_ddr_debug.c **** 
 184:../src/platform/mpfs_hal/common/nwc/mss_ddr_debug.c **** /***************************************************************************//**
 185:../src/platform/mpfs_hal/common/nwc/mss_ddr_debug.c ****  * Write data to DDR
 186:../src/platform/mpfs_hal/common/nwc/mss_ddr_debug.c ****  * @param DDR_word_ptr
 187:../src/platform/mpfs_hal/common/nwc/mss_ddr_debug.c ****  * @param no_of_access
 188:../src/platform/mpfs_hal/common/nwc/mss_ddr_debug.c ****  * @param data_ptrn
 189:../src/platform/mpfs_hal/common/nwc/mss_ddr_debug.c ****  * @return
 190:../src/platform/mpfs_hal/common/nwc/mss_ddr_debug.c ****  */
 191:../src/platform/mpfs_hal/common/nwc/mss_ddr_debug.c **** static uint32_t ddr_write
 192:../src/platform/mpfs_hal/common/nwc/mss_ddr_debug.c **** (
 193:../src/platform/mpfs_hal/common/nwc/mss_ddr_debug.c ****     volatile uint64_t *DDR_word_ptr,
 194:../src/platform/mpfs_hal/common/nwc/mss_ddr_debug.c ****     uint32_t no_of_access,
 195:../src/platform/mpfs_hal/common/nwc/mss_ddr_debug.c ****     uint8_t data_ptrn,
 196:../src/platform/mpfs_hal/common/nwc/mss_ddr_debug.c ****     DDR_ACCESS_SIZE data_size
 197:../src/platform/mpfs_hal/common/nwc/mss_ddr_debug.c **** )
 198:../src/platform/mpfs_hal/common/nwc/mss_ddr_debug.c **** {
 106              		.loc 2 198 1
 107              		.cfi_startproc
 108 0000 1D71     		addi	sp,sp,-96
 109              		.cfi_def_cfa_offset 96
 110 0002 86EC     		sd	ra,88(sp)
 111 0004 A2E8     		sd	s0,80(sp)
 112              		.cfi_offset 1, -8
 113              		.cfi_offset 8, -16
 114 0006 8010     		addi	s0,sp,96
 115              		.cfi_def_cfa 8, 0
 116 0008 233CA4FA 		sd	a0,-72(s0)
 117 000c AE87     		mv	a5,a1
 118 000e 3687     		mv	a4,a3
 119 0010 232AF4FA 		sw	a5,-76(s0)
 120 0014 B287     		mv	a5,a2
 121 0016 A309F4FA 		sb	a5,-77(s0)
 122 001a BA87     		mv	a5,a4
 123 001c 2326F4FA 		sw	a5,-84(s0)
 199:../src/platform/mpfs_hal/common/nwc/mss_ddr_debug.c ****     uint32_t i;
 200:../src/platform/mpfs_hal/common/nwc/mss_ddr_debug.c ****     uint64_t DATA;
 201:../src/platform/mpfs_hal/common/nwc/mss_ddr_debug.c ****     uint32_t error_count = 0U;
 124              		.loc 2 201 14
 125 0020 232204FC 		sw	zero,-60(s0)
 202:../src/platform/mpfs_hal/common/nwc/mss_ddr_debug.c **** 
 203:../src/platform/mpfs_hal/common/nwc/mss_ddr_debug.c ****     uint32_t *DDR_32_ptr = (uint32_t *)DDR_word_ptr;
 126              		.loc 2 203 15
 127 0024 833784FB 		ld	a5,-72(s0)
 128 0028 233CF4FC 		sd	a5,-40(s0)
 204:../src/platform/mpfs_hal/common/nwc/mss_ddr_debug.c ****     uint16_t *DDR_16_ptr = (uint16_t *)DDR_word_ptr;
 129              		.loc 2 204 15
 130 002c 833784FB 		ld	a5,-72(s0)
 131 0030 2338F4FC 		sd	a5,-48(s0)
 205:../src/platform/mpfs_hal/common/nwc/mss_ddr_debug.c ****     uint8_t *DDR_8_ptr   = (uint8_t *)DDR_word_ptr;
 132              		.loc 2 205 14
 133 0034 833784FB 		ld	a5,-72(s0)
 134 0038 2334F4FC 		sd	a5,-56(s0)
 206:../src/platform/mpfs_hal/common/nwc/mss_ddr_debug.c **** 
 207:../src/platform/mpfs_hal/common/nwc/mss_ddr_debug.c ****     switch (data_ptrn)
 135              		.loc 2 207 5
 136 003c 834734FB 		lbu	a5,-77(s0)
 137 0040 8127     		sext.w	a5,a5
 138 0042 BE86     		mv	a3,a5
 139 0044 13070004 		li	a4,64
 140 0048 636ED706 		bgtu	a3,a4,.L4
 141 004c 13972700 		slli	a4,a5,2
 142 0050 97070000 		lla	a5,.L6
 142      93870700 
 143 0058 BA97     		add	a5,a4,a5
 144 005a 9C43     		lw	a5,0(a5)
 145 005c 1B870700 		sext.w	a4,a5
 146 0060 97070000 		lla	a5,.L6
 146      93870700 
 147 0068 BA97     		add	a5,a4,a5
 148 006a 8287     		jr	a5
 149              		.section	.rodata.ddr_write,"a",@progbits
 150              		.align	2
 151              		.align	2
 152              	.L6:
 153 0000 00000000 		.word	.L4-.L6
 154 0004 00000000 		.word	.L12-.L6
 155 0008 00000000 		.word	.L11-.L6
 156 000c 00000000 		.word	.L4-.L6
 157 0010 00000000 		.word	.L10-.L6
 158 0014 00000000 		.word	.L4-.L6
 159 0018 00000000 		.word	.L4-.L6
 160 001c 00000000 		.word	.L4-.L6
 161 0020 00000000 		.word	.L9-.L6
 162 0024 00000000 		.word	.L4-.L6
 163 0028 00000000 		.word	.L4-.L6
 164 002c 00000000 		.word	.L4-.L6
 165 0030 00000000 		.word	.L4-.L6
 166 0034 00000000 		.word	.L4-.L6
 167 0038 00000000 		.word	.L4-.L6
 168 003c 00000000 		.word	.L4-.L6
 169 0040 00000000 		.word	.L8-.L6
 170 0044 00000000 		.word	.L4-.L6
 171 0048 00000000 		.word	.L4-.L6
 172 004c 00000000 		.word	.L4-.L6
 173 0050 00000000 		.word	.L4-.L6
 174 0054 00000000 		.word	.L4-.L6
 175 0058 00000000 		.word	.L4-.L6
 176 005c 00000000 		.word	.L4-.L6
 177 0060 00000000 		.word	.L4-.L6
 178 0064 00000000 		.word	.L4-.L6
 179 0068 00000000 		.word	.L4-.L6
 180 006c 00000000 		.word	.L4-.L6
 181 0070 00000000 		.word	.L4-.L6
 182 0074 00000000 		.word	.L4-.L6
 183 0078 00000000 		.word	.L4-.L6
 184 007c 00000000 		.word	.L4-.L6
 185 0080 00000000 		.word	.L7-.L6
 186 0084 00000000 		.word	.L4-.L6
 187 0088 00000000 		.word	.L4-.L6
 188 008c 00000000 		.word	.L4-.L6
 189 0090 00000000 		.word	.L4-.L6
 190 0094 00000000 		.word	.L4-.L6
 191 0098 00000000 		.word	.L4-.L6
 192 009c 00000000 		.word	.L4-.L6
 193 00a0 00000000 		.word	.L4-.L6
 194 00a4 00000000 		.word	.L4-.L6
 195 00a8 00000000 		.word	.L4-.L6
 196 00ac 00000000 		.word	.L4-.L6
 197 00b0 00000000 		.word	.L4-.L6
 198 00b4 00000000 		.word	.L4-.L6
 199 00b8 00000000 		.word	.L4-.L6
 200 00bc 00000000 		.word	.L4-.L6
 201 00c0 00000000 		.word	.L4-.L6
 202 00c4 00000000 		.word	.L4-.L6
 203 00c8 00000000 		.word	.L4-.L6
 204 00cc 00000000 		.word	.L4-.L6
 205 00d0 00000000 		.word	.L4-.L6
 206 00d4 00000000 		.word	.L4-.L6
 207 00d8 00000000 		.word	.L4-.L6
 208 00dc 00000000 		.word	.L4-.L6
 209 00e0 00000000 		.word	.L4-.L6
 210 00e4 00000000 		.word	.L4-.L6
 211 00e8 00000000 		.word	.L4-.L6
 212 00ec 00000000 		.word	.L4-.L6
 213 00f0 00000000 		.word	.L4-.L6
 214 00f4 00000000 		.word	.L4-.L6
 215 00f8 00000000 		.word	.L4-.L6
 216 00fc 00000000 		.word	.L4-.L6
 217 0100 00000000 		.word	.L5-.L6
 218              		.section	.text.ddr_write
 219              	.L12:
 208:../src/platform/mpfs_hal/common/nwc/mss_ddr_debug.c ****     {
 209:../src/platform/mpfs_hal/common/nwc/mss_ddr_debug.c ****         case PATTERN_INCREMENTAL : DATA = 0x00000000; break;
 220              		.loc 2 209 41
 221 006c 233004FE 		sd	zero,-32(s0)
 222              		.loc 2 209 9
 223 0070 A9A8     		j	.L13
 224              	.L11:
 210:../src/platform/mpfs_hal/common/nwc/mss_ddr_debug.c ****         case PATTERN_WALKING_ONE : DATA = 0x00000001; break;
 225              		.loc 2 210 41
 226 0072 8547     		li	a5,1
 227 0074 2330F4FE 		sd	a5,-32(s0)
 228              		.loc 2 210 9
 229 0078 89A8     		j	.L13
 230              	.L10:
 211:../src/platform/mpfs_hal/common/nwc/mss_ddr_debug.c ****         case PATTERN_WALKING_ZERO : DATA = 0x01;
 231              		.loc 2 211 42
 232 007a 8547     		li	a5,1
 233 007c 2330F4FE 		sd	a5,-32(s0)
 212:../src/platform/mpfs_hal/common/nwc/mss_ddr_debug.c ****                  DATA = ~ DATA; break;
 234              		.loc 2 212 23
 235 0080 833704FE 		ld	a5,-32(s0)
 236 0084 93C7F7FF 		not	a5,a5
 237 0088 2330F4FE 		sd	a5,-32(s0)
 238              		.loc 2 212 18
 239 008c 3DA8     		j	.L13
 240              	.L9:
 213:../src/platform/mpfs_hal/common/nwc/mss_ddr_debug.c ****         case PATTERN_RANDOM :
 214:../src/platform/mpfs_hal/common/nwc/mss_ddr_debug.c ****             DATA = (uint64_t)rand ( );
 241              		.loc 2 214 30
 242 008e 97000000 		call	rand
 242      E7800000 
 243 0096 AA87     		mv	a5,a0
 244              		.loc 2 214 18
 245 0098 2330F4FE 		sd	a5,-32(s0)
 215:../src/platform/mpfs_hal/common/nwc/mss_ddr_debug.c ****             break;
 246              		.loc 2 215 13
 247 009c 3DA0     		j	.L13
 248              	.L8:
 216:../src/platform/mpfs_hal/common/nwc/mss_ddr_debug.c ****         case PATTERN_0xCCCCCCCC :
 217:../src/platform/mpfs_hal/common/nwc/mss_ddr_debug.c ****             DATA = 0xCCCCCCCCCCCCCCCC;
 249              		.loc 2 217 18
 250 009e 97070000 		lla	a5,.LC3
 250      93870700 
 251 00a6 9C63     		ld	a5,0(a5)
 252 00a8 2330F4FE 		sd	a5,-32(s0)
 218:../src/platform/mpfs_hal/common/nwc/mss_ddr_debug.c ****             break;
 253              		.loc 2 218 13
 254 00ac 39A8     		j	.L13
 255              	.L7:
 219:../src/platform/mpfs_hal/common/nwc/mss_ddr_debug.c ****         case PATTERN_0x55555555 :
 220:../src/platform/mpfs_hal/common/nwc/mss_ddr_debug.c ****             DATA = 0x5555555555555555;
 256              		.loc 2 220 18
 257 00ae 97070000 		lla	a5,.LC4
 257      93870700 
 258 00b6 9C63     		ld	a5,0(a5)
 259 00b8 2330F4FE 		sd	a5,-32(s0)
 221:../src/platform/mpfs_hal/common/nwc/mss_ddr_debug.c ****             break;
 260              		.loc 2 221 13
 261 00bc 39A0     		j	.L13
 262              	.L5:
 222:../src/platform/mpfs_hal/common/nwc/mss_ddr_debug.c ****         case PATTERN_ZEROS :
 223:../src/platform/mpfs_hal/common/nwc/mss_ddr_debug.c ****             DATA = 0x00000000;
 263              		.loc 2 223 18
 264 00be 233004FE 		sd	zero,-32(s0)
 224:../src/platform/mpfs_hal/common/nwc/mss_ddr_debug.c ****             break;
 265              		.loc 2 224 13
 266 00c2 21A0     		j	.L13
 267              	.L4:
 225:../src/platform/mpfs_hal/common/nwc/mss_ddr_debug.c ****         default :
 226:../src/platform/mpfs_hal/common/nwc/mss_ddr_debug.c ****             DATA = 0x00000000;
 268              		.loc 2 226 18
 269 00c4 233004FE 		sd	zero,-32(s0)
 227:../src/platform/mpfs_hal/common/nwc/mss_ddr_debug.c ****             break;
 270              		.loc 2 227 13
 271 00c8 0100     		nop
 272              	.L13:
 228:../src/platform/mpfs_hal/common/nwc/mss_ddr_debug.c ****     }
 229:../src/platform/mpfs_hal/common/nwc/mss_ddr_debug.c **** 
 230:../src/platform/mpfs_hal/common/nwc/mss_ddr_debug.c ****     for( i = 0; i< (no_of_access); i++)
 273              		.loc 2 230 12
 274 00ca 232604FE 		sw	zero,-20(s0)
 275              		.loc 2 230 5
 276 00ce 41AA     		j	.L14
 277              	.L34:
 231:../src/platform/mpfs_hal/common/nwc/mss_ddr_debug.c ****     {
 232:../src/platform/mpfs_hal/common/nwc/mss_ddr_debug.c ****         switch(data_size)
 278              		.loc 2 232 9
 279 00d0 8327C4FA 		lw	a5,-84(s0)
 280 00d4 1B870700 		sext.w	a4,a5
 281 00d8 8547     		li	a5,1
 282 00da 6302F704 		beq	a4,a5,.L15
 283 00de 8327C4FA 		lw	a5,-84(s0)
 284 00e2 8127     		sext.w	a5,a5
 285 00e4 89CB     		beq	a5,zero,.L16
 286 00e6 8327C4FA 		lw	a5,-84(s0)
 287 00ea 1B870700 		sext.w	a4,a5
 288 00ee 8947     		li	a5,2
 289 00f0 630DF704 		beq	a4,a5,.L17
 290 00f4 BDA8     		j	.L36
 291              	.L16:
 233:../src/platform/mpfs_hal/common/nwc/mss_ddr_debug.c ****         {
 234:../src/platform/mpfs_hal/common/nwc/mss_ddr_debug.c ****             case DDR_8_BIT:
 235:../src/platform/mpfs_hal/common/nwc/mss_ddr_debug.c ****                 DATA &= 0xFFUL;
 292              		.loc 2 235 22
 293 00f6 833704FE 		ld	a5,-32(s0)
 294 00fa 93F7F70F 		andi	a5,a5,255
 295 00fe 2330F4FE 		sd	a5,-32(s0)
 236:../src/platform/mpfs_hal/common/nwc/mss_ddr_debug.c ****                 *DDR_8_ptr = (uint8_t)DATA;
 296              		.loc 2 236 30
 297 0102 833704FE 		ld	a5,-32(s0)
 298 0106 13F7F70F 		andi	a4,a5,0xff
 299              		.loc 2 236 28
 300 010a 833784FC 		ld	a5,-56(s0)
 301 010e 2380E700 		sb	a4,0(a5)
 237:../src/platform/mpfs_hal/common/nwc/mss_ddr_debug.c ****                 DDR_8_ptr = DDR_8_ptr + 1;
 302              		.loc 2 237 27
 303 0112 833784FC 		ld	a5,-56(s0)
 304 0116 8507     		addi	a5,a5,1
 305 0118 2334F4FC 		sd	a5,-56(s0)
 238:../src/platform/mpfs_hal/common/nwc/mss_ddr_debug.c ****                 break;
 306              		.loc 2 238 17
 307 011c B5A0     		j	.L19
 308              	.L15:
 239:../src/platform/mpfs_hal/common/nwc/mss_ddr_debug.c ****             case DDR_16_BIT:
 240:../src/platform/mpfs_hal/common/nwc/mss_ddr_debug.c ****                 DATA &= 0xFFFFUL;
 309              		.loc 2 240 22
 310 011e 033704FE 		ld	a4,-32(s0)
 311 0122 C167     		li	a5,65536
 312 0124 FD17     		addi	a5,a5,-1
 313 0126 F98F     		and	a5,a4,a5
 314 0128 2330F4FE 		sd	a5,-32(s0)
 241:../src/platform/mpfs_hal/common/nwc/mss_ddr_debug.c ****                 *DDR_16_ptr = (uint16_t)DATA;
 315              		.loc 2 241 31
 316 012c 833704FE 		ld	a5,-32(s0)
 317 0130 13970703 		slli	a4,a5,48
 318 0134 4193     		srli	a4,a4,48
 319              		.loc 2 241 29
 320 0136 833704FD 		ld	a5,-48(s0)
 321 013a 2390E700 		sh	a4,0(a5)
 242:../src/platform/mpfs_hal/common/nwc/mss_ddr_debug.c ****                 DDR_16_ptr = DDR_16_ptr + 1;
 322              		.loc 2 242 28
 323 013e 833704FD 		ld	a5,-48(s0)
 324 0142 8907     		addi	a5,a5,2
 325 0144 2338F4FC 		sd	a5,-48(s0)
 243:../src/platform/mpfs_hal/common/nwc/mss_ddr_debug.c ****                 break;
 326              		.loc 2 243 17
 327 0148 81A0     		j	.L19
 328              	.L17:
 244:../src/platform/mpfs_hal/common/nwc/mss_ddr_debug.c ****             case DDR_32_BIT:
 245:../src/platform/mpfs_hal/common/nwc/mss_ddr_debug.c ****                 DATA &= 0xFFFFFFFFUL;
 329              		.loc 2 245 22
 330 014a 033704FE 		ld	a4,-32(s0)
 331 014e FD57     		li	a5,-1
 332 0150 8193     		srli	a5,a5,32
 333 0152 F98F     		and	a5,a4,a5
 334 0154 2330F4FE 		sd	a5,-32(s0)
 246:../src/platform/mpfs_hal/common/nwc/mss_ddr_debug.c ****                 *DDR_32_ptr = (uint32_t)DATA;
 335              		.loc 2 246 31
 336 0158 833704FE 		ld	a5,-32(s0)
 337 015c 1B870700 		sext.w	a4,a5
 338              		.loc 2 246 29
 339 0160 833784FD 		ld	a5,-40(s0)
 340 0164 98C3     		sw	a4,0(a5)
 247:../src/platform/mpfs_hal/common/nwc/mss_ddr_debug.c ****                 DDR_32_ptr = DDR_32_ptr + 1;
 341              		.loc 2 247 28
 342 0166 833784FD 		ld	a5,-40(s0)
 343 016a 9107     		addi	a5,a5,4
 344 016c 233CF4FC 		sd	a5,-40(s0)
 248:../src/platform/mpfs_hal/common/nwc/mss_ddr_debug.c ****                 break;
 345              		.loc 2 248 17
 346 0170 21A8     		j	.L19
 347              	.L36:
 249:../src/platform/mpfs_hal/common/nwc/mss_ddr_debug.c ****             default:
 250:../src/platform/mpfs_hal/common/nwc/mss_ddr_debug.c ****             case DDR_64_BIT:
 251:../src/platform/mpfs_hal/common/nwc/mss_ddr_debug.c ****                 *DDR_word_ptr = DATA;
 348              		.loc 2 251 31
 349 0172 833784FB 		ld	a5,-72(s0)
 350 0176 033704FE 		ld	a4,-32(s0)
 351 017a 98E3     		sd	a4,0(a5)
 252:../src/platform/mpfs_hal/common/nwc/mss_ddr_debug.c ****                 DDR_word_ptr = DDR_word_ptr + 1;
 352              		.loc 2 252 30
 353 017c 833784FB 		ld	a5,-72(s0)
 354 0180 A107     		addi	a5,a5,8
 355 0182 233CF4FA 		sd	a5,-72(s0)
 253:../src/platform/mpfs_hal/common/nwc/mss_ddr_debug.c ****                 break;
 356              		.loc 2 253 17
 357 0186 0100     		nop
 358              	.L19:
 254:../src/platform/mpfs_hal/common/nwc/mss_ddr_debug.c ****         }
 255:../src/platform/mpfs_hal/common/nwc/mss_ddr_debug.c **** 
 256:../src/platform/mpfs_hal/common/nwc/mss_ddr_debug.c **** #ifdef DEBUG_DDR_INIT
 257:../src/platform/mpfs_hal/common/nwc/mss_ddr_debug.c ****         if((i%0x1000000UL) ==0UL)
 258:../src/platform/mpfs_hal/common/nwc/mss_ddr_debug.c ****         {
 259:../src/platform/mpfs_hal/common/nwc/mss_ddr_debug.c ****             MSS_UART_polled_tx(g_debug_uart, (const uint8_t*)"w", (uint32_t)1UL);
 260:../src/platform/mpfs_hal/common/nwc/mss_ddr_debug.c ****         }
 261:../src/platform/mpfs_hal/common/nwc/mss_ddr_debug.c **** #endif
 262:../src/platform/mpfs_hal/common/nwc/mss_ddr_debug.c ****         switch (data_ptrn)
 359              		.loc 2 262 9
 360 0188 834734FB 		lbu	a5,-77(s0)
 361 018c 8127     		sext.w	a5,a5
 362 018e BE86     		mv	a3,a5
 363 0190 13070004 		li	a4,64
 364 0194 636FD70A 		bgtu	a3,a4,.L37
 365 0198 13972700 		slli	a4,a5,2
 366 019c 97070000 		lla	a5,.L22
 366      93870700 
 367 01a4 BA97     		add	a5,a4,a5
 368 01a6 9C43     		lw	a5,0(a5)
 369 01a8 1B870700 		sext.w	a4,a5
 370 01ac 97070000 		lla	a5,.L22
 370      93870700 
 371 01b4 BA97     		add	a5,a4,a5
 372 01b6 8287     		jr	a5
 373              		.section	.rodata.ddr_write
 374              		.align	2
 375              		.align	2
 376              	.L22:
 377 0104 00000000 		.word	.L37-.L22
 378 0108 00000000 		.word	.L28-.L22
 379 010c 00000000 		.word	.L27-.L22
 380 0110 00000000 		.word	.L37-.L22
 381 0114 00000000 		.word	.L26-.L22
 382 0118 00000000 		.word	.L37-.L22
 383 011c 00000000 		.word	.L37-.L22
 384 0120 00000000 		.word	.L37-.L22
 385 0124 00000000 		.word	.L25-.L22
 386 0128 00000000 		.word	.L37-.L22
 387 012c 00000000 		.word	.L37-.L22
 388 0130 00000000 		.word	.L37-.L22
 389 0134 00000000 		.word	.L37-.L22
 390 0138 00000000 		.word	.L37-.L22
 391 013c 00000000 		.word	.L37-.L22
 392 0140 00000000 		.word	.L37-.L22
 393 0144 00000000 		.word	.L24-.L22
 394 0148 00000000 		.word	.L37-.L22
 395 014c 00000000 		.word	.L37-.L22
 396 0150 00000000 		.word	.L37-.L22
 397 0154 00000000 		.word	.L37-.L22
 398 0158 00000000 		.word	.L37-.L22
 399 015c 00000000 		.word	.L37-.L22
 400 0160 00000000 		.word	.L37-.L22
 401 0164 00000000 		.word	.L37-.L22
 402 0168 00000000 		.word	.L37-.L22
 403 016c 00000000 		.word	.L37-.L22
 404 0170 00000000 		.word	.L37-.L22
 405 0174 00000000 		.word	.L37-.L22
 406 0178 00000000 		.word	.L37-.L22
 407 017c 00000000 		.word	.L37-.L22
 408 0180 00000000 		.word	.L37-.L22
 409 0184 00000000 		.word	.L23-.L22
 410 0188 00000000 		.word	.L37-.L22
 411 018c 00000000 		.word	.L37-.L22
 412 0190 00000000 		.word	.L37-.L22
 413 0194 00000000 		.word	.L37-.L22
 414 0198 00000000 		.word	.L37-.L22
 415 019c 00000000 		.word	.L37-.L22
 416 01a0 00000000 		.word	.L37-.L22
 417 01a4 00000000 		.word	.L37-.L22
 418 01a8 00000000 		.word	.L37-.L22
 419 01ac 00000000 		.word	.L37-.L22
 420 01b0 00000000 		.word	.L37-.L22
 421 01b4 00000000 		.word	.L37-.L22
 422 01b8 00000000 		.word	.L37-.L22
 423 01bc 00000000 		.word	.L37-.L22
 424 01c0 00000000 		.word	.L37-.L22
 425 01c4 00000000 		.word	.L37-.L22
 426 01c8 00000000 		.word	.L37-.L22
 427 01cc 00000000 		.word	.L37-.L22
 428 01d0 00000000 		.word	.L37-.L22
 429 01d4 00000000 		.word	.L37-.L22
 430 01d8 00000000 		.word	.L37-.L22
 431 01dc 00000000 		.word	.L37-.L22
 432 01e0 00000000 		.word	.L37-.L22
 433 01e4 00000000 		.word	.L37-.L22
 434 01e8 00000000 		.word	.L37-.L22
 435 01ec 00000000 		.word	.L37-.L22
 436 01f0 00000000 		.word	.L37-.L22
 437 01f4 00000000 		.word	.L37-.L22
 438 01f8 00000000 		.word	.L37-.L22
 439 01fc 00000000 		.word	.L37-.L22
 440 0200 00000000 		.word	.L37-.L22
 441 0204 00000000 		.word	.L21-.L22
 442              		.section	.text.ddr_write
 443              	.L28:
 263:../src/platform/mpfs_hal/common/nwc/mss_ddr_debug.c ****         {
 264:../src/platform/mpfs_hal/common/nwc/mss_ddr_debug.c ****             case PATTERN_INCREMENTAL : DATA = DATA + 0x00000001; break;
 444              		.loc 2 264 45
 445 01b8 833704FE 		ld	a5,-32(s0)
 446 01bc 8507     		addi	a5,a5,1
 447 01be 2330F4FE 		sd	a5,-32(s0)
 448              		.loc 2 264 13
 449 01c2 49A8     		j	.L29
 450              	.L27:
 265:../src/platform/mpfs_hal/common/nwc/mss_ddr_debug.c ****             case PATTERN_WALKING_ONE :
 266:../src/platform/mpfs_hal/common/nwc/mss_ddr_debug.c ****                 if (DATA == 0x80000000)
 451              		.loc 2 266 20
 452 01c4 033704FE 		ld	a4,-32(s0)
 453 01c8 8547     		li	a5,1
 454 01ca FE07     		slli	a5,a5,31
 455 01cc 6316F700 		bne	a4,a5,.L30
 267:../src/platform/mpfs_hal/common/nwc/mss_ddr_debug.c ****                     DATA = 0x00000001;
 456              		.loc 2 267 26
 457 01d0 8547     		li	a5,1
 458 01d2 2330F4FE 		sd	a5,-32(s0)
 268:../src/platform/mpfs_hal/common/nwc/mss_ddr_debug.c ****                 else
 269:../src/platform/mpfs_hal/common/nwc/mss_ddr_debug.c ****                     DATA = (DATA << 1);
 270:../src/platform/mpfs_hal/common/nwc/mss_ddr_debug.c ****                 break;
 459              		.loc 2 270 17
 460 01d6 BDA8     		j	.L29
 461              	.L30:
 269:../src/platform/mpfs_hal/common/nwc/mss_ddr_debug.c ****                 break;
 462              		.loc 2 269 26
 463 01d8 833704FE 		ld	a5,-32(s0)
 464 01dc 8607     		slli	a5,a5,1
 465 01de 2330F4FE 		sd	a5,-32(s0)
 466              		.loc 2 270 17
 467 01e2 8DA8     		j	.L29
 468              	.L26:
 271:../src/platform/mpfs_hal/common/nwc/mss_ddr_debug.c ****             case PATTERN_WALKING_ZERO :
 272:../src/platform/mpfs_hal/common/nwc/mss_ddr_debug.c ****                 DATA = ~DATA;
 469              		.loc 2 272 22
 470 01e4 833704FE 		ld	a5,-32(s0)
 471 01e8 93C7F7FF 		not	a5,a5
 472 01ec 2330F4FE 		sd	a5,-32(s0)
 273:../src/platform/mpfs_hal/common/nwc/mss_ddr_debug.c ****                 if (DATA == 0x80000000)
 473              		.loc 2 273 20
 474 01f0 033704FE 		ld	a4,-32(s0)
 475 01f4 8547     		li	a5,1
 476 01f6 FE07     		slli	a5,a5,31
 477 01f8 6316F700 		bne	a4,a5,.L32
 274:../src/platform/mpfs_hal/common/nwc/mss_ddr_debug.c ****                     DATA = 0x00000001;
 478              		.loc 2 274 26
 479 01fc 8547     		li	a5,1
 480 01fe 2330F4FE 		sd	a5,-32(s0)
 481 0202 31A0     		j	.L33
 482              	.L32:
 275:../src/platform/mpfs_hal/common/nwc/mss_ddr_debug.c ****                 else
 276:../src/platform/mpfs_hal/common/nwc/mss_ddr_debug.c ****                 {
 277:../src/platform/mpfs_hal/common/nwc/mss_ddr_debug.c ****                     DATA = (DATA << 1);
 483              		.loc 2 277 26
 484 0204 833704FE 		ld	a5,-32(s0)
 485 0208 8607     		slli	a5,a5,1
 486 020a 2330F4FE 		sd	a5,-32(s0)
 487              	.L33:
 278:../src/platform/mpfs_hal/common/nwc/mss_ddr_debug.c ****                 }
 279:../src/platform/mpfs_hal/common/nwc/mss_ddr_debug.c ****                 DATA = ~DATA;
 488              		.loc 2 279 22
 489 020e 833704FE 		ld	a5,-32(s0)
 490 0212 93C7F7FF 		not	a5,a5
 491 0216 2330F4FE 		sd	a5,-32(s0)
 280:../src/platform/mpfs_hal/common/nwc/mss_ddr_debug.c ****                 break;
 492              		.loc 2 280 17
 493 021a 2DA8     		j	.L29
 494              	.L25:
 281:../src/platform/mpfs_hal/common/nwc/mss_ddr_debug.c ****             case PATTERN_RANDOM :
 282:../src/platform/mpfs_hal/common/nwc/mss_ddr_debug.c ****                 DATA = (uint64_t)rand ( );
 495              		.loc 2 282 34
 496 021c 97000000 		call	rand
 496      E7800000 
 497 0224 AA87     		mv	a5,a0
 498              		.loc 2 282 22
 499 0226 2330F4FE 		sd	a5,-32(s0)
 283:../src/platform/mpfs_hal/common/nwc/mss_ddr_debug.c ****                 break;
 500              		.loc 2 283 17
 501 022a 2DA0     		j	.L29
 502              	.L24:
 284:../src/platform/mpfs_hal/common/nwc/mss_ddr_debug.c ****             case PATTERN_0xCCCCCCCC :
 285:../src/platform/mpfs_hal/common/nwc/mss_ddr_debug.c ****                 DATA = 0xCCCCCCCCCCCCCCCC;
 503              		.loc 2 285 22
 504 022c 97070000 		lla	a5,.LC3
 504      93870700 
 505 0234 9C63     		ld	a5,0(a5)
 506 0236 2330F4FE 		sd	a5,-32(s0)
 286:../src/platform/mpfs_hal/common/nwc/mss_ddr_debug.c ****                 break;
 507              		.loc 2 286 17
 508 023a 29A8     		j	.L29
 509              	.L23:
 287:../src/platform/mpfs_hal/common/nwc/mss_ddr_debug.c ****             case PATTERN_0x55555555 :
 288:../src/platform/mpfs_hal/common/nwc/mss_ddr_debug.c ****                 DATA = 0x5555555555555555;
 510              		.loc 2 288 22
 511 023c 97070000 		lla	a5,.LC4
 511      93870700 
 512 0244 9C63     		ld	a5,0(a5)
 513 0246 2330F4FE 		sd	a5,-32(s0)
 289:../src/platform/mpfs_hal/common/nwc/mss_ddr_debug.c ****                 break;
 514              		.loc 2 289 17
 515 024a 29A0     		j	.L29
 516              	.L21:
 290:../src/platform/mpfs_hal/common/nwc/mss_ddr_debug.c ****             case PATTERN_ZEROS :
 291:../src/platform/mpfs_hal/common/nwc/mss_ddr_debug.c ****                 DATA = 0x00000000;
 517              		.loc 2 291 22
 518 024c 233004FE 		sd	zero,-32(s0)
 292:../src/platform/mpfs_hal/common/nwc/mss_ddr_debug.c ****                 break;
 519              		.loc 2 292 17
 520 0250 11A0     		j	.L29
 521              	.L37:
 293:../src/platform/mpfs_hal/common/nwc/mss_ddr_debug.c ****             default :
 294:../src/platform/mpfs_hal/common/nwc/mss_ddr_debug.c ****                 break;
 522              		.loc 2 294 17
 523 0252 0100     		nop
 524              	.L29:
 230:../src/platform/mpfs_hal/common/nwc/mss_ddr_debug.c ****     {
 525              		.loc 2 230 37 discriminator 2
 526 0254 8327C4FE 		lw	a5,-20(s0)
 527 0258 8527     		addiw	a5,a5,1
 528 025a 2326F4FE 		sw	a5,-20(s0)
 529              	.L14:
 230:../src/platform/mpfs_hal/common/nwc/mss_ddr_debug.c ****     {
 530              		.loc 2 230 5 discriminator 1
 531 025e 0327C4FE 		lw	a4,-20(s0)
 532 0262 832744FB 		lw	a5,-76(s0)
 533 0266 0127     		sext.w	a4,a4
 534 0268 8127     		sext.w	a5,a5
 535 026a E363F7E6 		bltu	a4,a5,.L34
 295:../src/platform/mpfs_hal/common/nwc/mss_ddr_debug.c ****         }
 296:../src/platform/mpfs_hal/common/nwc/mss_ddr_debug.c ****     }
 297:../src/platform/mpfs_hal/common/nwc/mss_ddr_debug.c ****     return error_count;
 536              		.loc 2 297 12
 537 026e 832744FC 		lw	a5,-60(s0)
 298:../src/platform/mpfs_hal/common/nwc/mss_ddr_debug.c **** }
 538              		.loc 2 298 1
 539 0272 3E85     		mv	a0,a5
 540 0274 E660     		ld	ra,88(sp)
 541              		.cfi_restore 1
 542 0276 4664     		ld	s0,80(sp)
 543              		.cfi_restore 8
 544              		.cfi_def_cfa 2, 96
 545 0278 2561     		addi	sp,sp,96
 546              		.cfi_def_cfa_offset 0
 547 027a 8280     		jr	ra
 548              		.cfi_endproc
 549              	.LFE24:
 551              		.section	.text.ddr_read,"ax",@progbits
 552              		.align	1
 554              	ddr_read:
 555              	.LFB25:
 299:../src/platform/mpfs_hal/common/nwc/mss_ddr_debug.c **** 
 300:../src/platform/mpfs_hal/common/nwc/mss_ddr_debug.c **** /***************************************************************************//**
 301:../src/platform/mpfs_hal/common/nwc/mss_ddr_debug.c ****  * Reads and compares with what was written
 302:../src/platform/mpfs_hal/common/nwc/mss_ddr_debug.c ****  * @param DDR_word_ptr
 303:../src/platform/mpfs_hal/common/nwc/mss_ddr_debug.c ****  * @param no_of_access
 304:../src/platform/mpfs_hal/common/nwc/mss_ddr_debug.c ****  * @param data_ptrn
 305:../src/platform/mpfs_hal/common/nwc/mss_ddr_debug.c ****  * @return 0 => read backs all expected value, otherwise error count
 306:../src/platform/mpfs_hal/common/nwc/mss_ddr_debug.c ****  */
 307:../src/platform/mpfs_hal/common/nwc/mss_ddr_debug.c **** uint32_t ddr_read
 308:../src/platform/mpfs_hal/common/nwc/mss_ddr_debug.c **** (
 309:../src/platform/mpfs_hal/common/nwc/mss_ddr_debug.c ****     volatile uint64_t *DDR_word_ptr,
 310:../src/platform/mpfs_hal/common/nwc/mss_ddr_debug.c ****     uint32_t no_of_access,
 311:../src/platform/mpfs_hal/common/nwc/mss_ddr_debug.c ****     uint8_t data_ptrn,
 312:../src/platform/mpfs_hal/common/nwc/mss_ddr_debug.c ****     DDR_ACCESS_SIZE data_size
 313:../src/platform/mpfs_hal/common/nwc/mss_ddr_debug.c **** )
 314:../src/platform/mpfs_hal/common/nwc/mss_ddr_debug.c **** {
 556              		.loc 2 314 1
 557              		.cfi_startproc
 558 0000 1971     		addi	sp,sp,-128
 559              		.cfi_def_cfa_offset 128
 560 0002 86FC     		sd	ra,120(sp)
 561 0004 A2F8     		sd	s0,112(sp)
 562              		.cfi_offset 1, -8
 563              		.cfi_offset 8, -16
 564 0006 0001     		addi	s0,sp,128
 565              		.cfi_def_cfa 8, 0
 566 0008 233CA4F8 		sd	a0,-104(s0)
 567 000c AE87     		mv	a5,a1
 568 000e 3687     		mv	a4,a3
 569 0010 232AF4F8 		sw	a5,-108(s0)
 570 0014 B287     		mv	a5,a2
 571 0016 A309F4F8 		sb	a5,-109(s0)
 572 001a BA87     		mv	a5,a4
 573 001c 2326F4F8 		sw	a5,-116(s0)
 315:../src/platform/mpfs_hal/common/nwc/mss_ddr_debug.c ****     uint32_t i;
 316:../src/platform/mpfs_hal/common/nwc/mss_ddr_debug.c ****     uint64_t DATA;
 317:../src/platform/mpfs_hal/common/nwc/mss_ddr_debug.c ****     uint32_t err_cnt;
 318:../src/platform/mpfs_hal/common/nwc/mss_ddr_debug.c ****     volatile uint64_t ddr_data;
 319:../src/platform/mpfs_hal/common/nwc/mss_ddr_debug.c ****     volatile uint64_t *DDR_word_pt_t, *first_DDR_word_pt_t;
 320:../src/platform/mpfs_hal/common/nwc/mss_ddr_debug.c ****     uint32_t rand_addr_offset;
 321:../src/platform/mpfs_hal/common/nwc/mss_ddr_debug.c ****     uint8_t *DDR_8_pt_t;
 322:../src/platform/mpfs_hal/common/nwc/mss_ddr_debug.c ****     uint16_t *DDR_16_pt_t;
 323:../src/platform/mpfs_hal/common/nwc/mss_ddr_debug.c ****     uint32_t *DDR_32_pt_t;
 324:../src/platform/mpfs_hal/common/nwc/mss_ddr_debug.c **** 
 325:../src/platform/mpfs_hal/common/nwc/mss_ddr_debug.c ****     err_cnt = 0U;
 574              		.loc 2 325 13
 575 0020 232E04FC 		sw	zero,-36(s0)
 326:../src/platform/mpfs_hal/common/nwc/mss_ddr_debug.c ****     first_DDR_word_pt_t = DDR_word_ptr;
 576              		.loc 2 326 25
 577 0024 833784F9 		ld	a5,-104(s0)
 578 0028 233CF4FA 		sd	a5,-72(s0)
 327:../src/platform/mpfs_hal/common/nwc/mss_ddr_debug.c ****     DDR_8_pt_t = (uint8_t *)DDR_word_ptr;
 579              		.loc 2 327 16
 580 002c 833784F9 		ld	a5,-104(s0)
 581 0030 2338F4FC 		sd	a5,-48(s0)
 328:../src/platform/mpfs_hal/common/nwc/mss_ddr_debug.c ****     DDR_16_pt_t = (uint16_t *)DDR_word_ptr;
 582              		.loc 2 328 17
 583 0034 833784F9 		ld	a5,-104(s0)
 584 0038 2334F4FC 		sd	a5,-56(s0)
 329:../src/platform/mpfs_hal/common/nwc/mss_ddr_debug.c ****     DDR_32_pt_t = (uint32_t *)DDR_word_ptr;
 585              		.loc 2 329 17
 586 003c 833784F9 		ld	a5,-104(s0)
 587 0040 2330F4FC 		sd	a5,-64(s0)
 330:../src/platform/mpfs_hal/common/nwc/mss_ddr_debug.c **** 
 331:../src/platform/mpfs_hal/common/nwc/mss_ddr_debug.c ****     switch (data_ptrn)
 588              		.loc 2 331 5
 589 0044 834734F9 		lbu	a5,-109(s0)
 590 0048 8127     		sext.w	a5,a5
 591 004a BE86     		mv	a3,a5
 592 004c 13070004 		li	a4,64
 593 0050 636BD70A 		bgtu	a3,a4,.L39
 594 0054 13972700 		slli	a4,a5,2
 595 0058 97070000 		lla	a5,.L41
 595      93870700 
 596 0060 BA97     		add	a5,a4,a5
 597 0062 9C43     		lw	a5,0(a5)
 598 0064 1B870700 		sext.w	a4,a5
 599 0068 97070000 		lla	a5,.L41
 599      93870700 
 600 0070 BA97     		add	a5,a4,a5
 601 0072 8287     		jr	a5
 602              		.section	.rodata.ddr_read,"a",@progbits
 603              		.align	2
 604              		.align	2
 605              	.L41:
 606 0000 00000000 		.word	.L39-.L41
 607 0004 00000000 		.word	.L47-.L41
 608 0008 00000000 		.word	.L46-.L41
 609 000c 00000000 		.word	.L39-.L41
 610 0010 00000000 		.word	.L45-.L41
 611 0014 00000000 		.word	.L39-.L41
 612 0018 00000000 		.word	.L39-.L41
 613 001c 00000000 		.word	.L39-.L41
 614 0020 00000000 		.word	.L44-.L41
 615 0024 00000000 		.word	.L39-.L41
 616 0028 00000000 		.word	.L39-.L41
 617 002c 00000000 		.word	.L39-.L41
 618 0030 00000000 		.word	.L39-.L41
 619 0034 00000000 		.word	.L39-.L41
 620 0038 00000000 		.word	.L39-.L41
 621 003c 00000000 		.word	.L39-.L41
 622 0040 00000000 		.word	.L43-.L41
 623 0044 00000000 		.word	.L39-.L41
 624 0048 00000000 		.word	.L39-.L41
 625 004c 00000000 		.word	.L39-.L41
 626 0050 00000000 		.word	.L39-.L41
 627 0054 00000000 		.word	.L39-.L41
 628 0058 00000000 		.word	.L39-.L41
 629 005c 00000000 		.word	.L39-.L41
 630 0060 00000000 		.word	.L39-.L41
 631 0064 00000000 		.word	.L39-.L41
 632 0068 00000000 		.word	.L39-.L41
 633 006c 00000000 		.word	.L39-.L41
 634 0070 00000000 		.word	.L39-.L41
 635 0074 00000000 		.word	.L39-.L41
 636 0078 00000000 		.word	.L39-.L41
 637 007c 00000000 		.word	.L39-.L41
 638 0080 00000000 		.word	.L42-.L41
 639 0084 00000000 		.word	.L39-.L41
 640 0088 00000000 		.word	.L39-.L41
 641 008c 00000000 		.word	.L39-.L41
 642 0090 00000000 		.word	.L39-.L41
 643 0094 00000000 		.word	.L39-.L41
 644 0098 00000000 		.word	.L39-.L41
 645 009c 00000000 		.word	.L39-.L41
 646 00a0 00000000 		.word	.L39-.L41
 647 00a4 00000000 		.word	.L39-.L41
 648 00a8 00000000 		.word	.L39-.L41
 649 00ac 00000000 		.word	.L39-.L41
 650 00b0 00000000 		.word	.L39-.L41
 651 00b4 00000000 		.word	.L39-.L41
 652 00b8 00000000 		.word	.L39-.L41
 653 00bc 00000000 		.word	.L39-.L41
 654 00c0 00000000 		.word	.L39-.L41
 655 00c4 00000000 		.word	.L39-.L41
 656 00c8 00000000 		.word	.L39-.L41
 657 00cc 00000000 		.word	.L39-.L41
 658 00d0 00000000 		.word	.L39-.L41
 659 00d4 00000000 		.word	.L39-.L41
 660 00d8 00000000 		.word	.L39-.L41
 661 00dc 00000000 		.word	.L39-.L41
 662 00e0 00000000 		.word	.L39-.L41
 663 00e4 00000000 		.word	.L39-.L41
 664 00e8 00000000 		.word	.L39-.L41
 665 00ec 00000000 		.word	.L39-.L41
 666 00f0 00000000 		.word	.L39-.L41
 667 00f4 00000000 		.word	.L39-.L41
 668 00f8 00000000 		.word	.L39-.L41
 669 00fc 00000000 		.word	.L39-.L41
 670 0100 00000000 		.word	.L40-.L41
 671              		.section	.text.ddr_read
 672              	.L47:
 332:../src/platform/mpfs_hal/common/nwc/mss_ddr_debug.c ****     {
 333:../src/platform/mpfs_hal/common/nwc/mss_ddr_debug.c ****         case PATTERN_INCREMENTAL : DATA = 0x00000000; break;
 673              		.loc 2 333 41
 674 0074 233004FE 		sd	zero,-32(s0)
 675              		.loc 2 333 9
 676 0078 51A8     		j	.L48
 677              	.L46:
 334:../src/platform/mpfs_hal/common/nwc/mss_ddr_debug.c ****         case PATTERN_WALKING_ONE : DATA = 0x00000001; break;
 678              		.loc 2 334 41
 679 007a 8547     		li	a5,1
 680 007c 2330F4FE 		sd	a5,-32(s0)
 681              		.loc 2 334 9
 682 0080 71A0     		j	.L48
 683              	.L45:
 335:../src/platform/mpfs_hal/common/nwc/mss_ddr_debug.c ****         case PATTERN_WALKING_ZERO : DATA = 0x01;
 684              		.loc 2 335 42
 685 0082 8547     		li	a5,1
 686 0084 2330F4FE 		sd	a5,-32(s0)
 336:../src/platform/mpfs_hal/common/nwc/mss_ddr_debug.c ****             DATA = ~ DATA; break;
 687              		.loc 2 336 18
 688 0088 833704FE 		ld	a5,-32(s0)
 689 008c 93C7F7FF 		not	a5,a5
 690 0090 2330F4FE 		sd	a5,-32(s0)
 691              		.loc 2 336 13
 692 0094 A5A8     		j	.L48
 693              	.L44:
 337:../src/platform/mpfs_hal/common/nwc/mss_ddr_debug.c ****         case PATTERN_RANDOM :
 338:../src/platform/mpfs_hal/common/nwc/mss_ddr_debug.c ****             DATA = (uint64_t)rand ( );
 694              		.loc 2 338 30
 695 0096 97000000 		call	rand
 695      E7800000 
 696 009e AA87     		mv	a5,a0
 697              		.loc 2 338 18
 698 00a0 2330F4FE 		sd	a5,-32(s0)
 339:../src/platform/mpfs_hal/common/nwc/mss_ddr_debug.c ****             *DDR_word_ptr = DATA;
 699              		.loc 2 339 27
 700 00a4 833784F9 		ld	a5,-104(s0)
 701 00a8 033704FE 		ld	a4,-32(s0)
 702 00ac 98E3     		sd	a4,0(a5)
 340:../src/platform/mpfs_hal/common/nwc/mss_ddr_debug.c ****             *DDR_8_pt_t =  (uint8_t)DATA;
 703              		.loc 2 340 28
 704 00ae 833704FE 		ld	a5,-32(s0)
 705 00b2 13F7F70F 		andi	a4,a5,0xff
 706              		.loc 2 340 25
 707 00b6 833704FD 		ld	a5,-48(s0)
 708 00ba 2380E700 		sb	a4,0(a5)
 341:../src/platform/mpfs_hal/common/nwc/mss_ddr_debug.c ****             *DDR_16_pt_t = (uint16_t)DATA;
 709              		.loc 2 341 28
 710 00be 833704FE 		ld	a5,-32(s0)
 711 00c2 13970703 		slli	a4,a5,48
 712 00c6 4193     		srli	a4,a4,48
 713              		.loc 2 341 26
 714 00c8 833784FC 		ld	a5,-56(s0)
 715 00cc 2390E700 		sh	a4,0(a5)
 342:../src/platform/mpfs_hal/common/nwc/mss_ddr_debug.c ****             *DDR_32_pt_t = (uint32_t)DATA;
 716              		.loc 2 342 28
 717 00d0 833704FE 		ld	a5,-32(s0)
 718 00d4 1B870700 		sext.w	a4,a5
 719              		.loc 2 342 26
 720 00d8 833704FC 		ld	a5,-64(s0)
 721 00dc 98C3     		sw	a4,0(a5)
 343:../src/platform/mpfs_hal/common/nwc/mss_ddr_debug.c ****             break;
 722              		.loc 2 343 13
 723 00de 3DA0     		j	.L48
 724              	.L43:
 344:../src/platform/mpfs_hal/common/nwc/mss_ddr_debug.c ****         case PATTERN_0xCCCCCCCC :
 345:../src/platform/mpfs_hal/common/nwc/mss_ddr_debug.c ****             DATA = 0xCCCCCCCCCCCCCCCC;
 725              		.loc 2 345 18
 726 00e0 97070000 		lla	a5,.LC3
 726      93870700 
 727 00e8 9C63     		ld	a5,0(a5)
 728 00ea 2330F4FE 		sd	a5,-32(s0)
 346:../src/platform/mpfs_hal/common/nwc/mss_ddr_debug.c ****             break;
 729              		.loc 2 346 13
 730 00ee 39A8     		j	.L48
 731              	.L42:
 347:../src/platform/mpfs_hal/common/nwc/mss_ddr_debug.c ****         case PATTERN_0x55555555 :
 348:../src/platform/mpfs_hal/common/nwc/mss_ddr_debug.c ****             DATA = 0x5555555555555555;
 732              		.loc 2 348 18
 733 00f0 97070000 		lla	a5,.LC4
 733      93870700 
 734 00f8 9C63     		ld	a5,0(a5)
 735 00fa 2330F4FE 		sd	a5,-32(s0)
 349:../src/platform/mpfs_hal/common/nwc/mss_ddr_debug.c ****             break;
 736              		.loc 2 349 13
 737 00fe 39A0     		j	.L48
 738              	.L40:
 350:../src/platform/mpfs_hal/common/nwc/mss_ddr_debug.c ****         case PATTERN_ZEROS :
 351:../src/platform/mpfs_hal/common/nwc/mss_ddr_debug.c ****             DATA = 0x00000000;
 739              		.loc 2 351 18
 740 0100 233004FE 		sd	zero,-32(s0)
 352:../src/platform/mpfs_hal/common/nwc/mss_ddr_debug.c ****         break;
 741              		.loc 2 352 9
 742 0104 21A0     		j	.L48
 743              	.L39:
 353:../src/platform/mpfs_hal/common/nwc/mss_ddr_debug.c ****         default :
 354:../src/platform/mpfs_hal/common/nwc/mss_ddr_debug.c ****            DATA = 0x00000000;
 744              		.loc 2 354 17
 745 0106 233004FE 		sd	zero,-32(s0)
 355:../src/platform/mpfs_hal/common/nwc/mss_ddr_debug.c ****            break;
 746              		.loc 2 355 12
 747 010a 0100     		nop
 748              	.L48:
 356:../src/platform/mpfs_hal/common/nwc/mss_ddr_debug.c ****     }
 357:../src/platform/mpfs_hal/common/nwc/mss_ddr_debug.c ****     if (data_ptrn == '4')
 749              		.loc 2 357 8
 750 010c 834734F9 		lbu	a5,-109(s0)
 751 0110 13F7F70F 		andi	a4,a5,0xff
 752 0114 93074003 		li	a5,52
 753 0118 6318F700 		bne	a4,a5,.L49
 358:../src/platform/mpfs_hal/common/nwc/mss_ddr_debug.c ****     {
 359:../src/platform/mpfs_hal/common/nwc/mss_ddr_debug.c ****         delay(DELAY_CYCLES_500_NS);
 754              		.loc 2 359 9
 755 011c 1305C012 		li	a0,300
 756 0120 97000000 		call	delay
 756      E7800000 
 757              	.L49:
 360:../src/platform/mpfs_hal/common/nwc/mss_ddr_debug.c ****     }
 361:../src/platform/mpfs_hal/common/nwc/mss_ddr_debug.c ****     for( i = 0; i< (no_of_access); i++)
 758              		.loc 2 361 12
 759 0128 232604FE 		sw	zero,-20(s0)
 760              		.loc 2 361 5
 761 012c 25AC     		j	.L50
 762              	.L71:
 362:../src/platform/mpfs_hal/common/nwc/mss_ddr_debug.c ****     {
 363:../src/platform/mpfs_hal/common/nwc/mss_ddr_debug.c ****         switch(data_size)
 763              		.loc 2 363 9
 764 012e 8327C4F8 		lw	a5,-116(s0)
 765 0132 1B870700 		sext.w	a4,a5
 766 0136 8547     		li	a5,1
 767 0138 630BF702 		beq	a4,a5,.L51
 768 013c 8327C4F8 		lw	a5,-116(s0)
 769 0140 8127     		sext.w	a5,a5
 770 0142 89CB     		beq	a5,zero,.L52
 771 0144 8327C4F8 		lw	a5,-116(s0)
 772 0148 1B870700 		sext.w	a4,a5
 773 014c 8947     		li	a5,2
 774 014e 630EF702 		beq	a4,a5,.L53
 775 0152 99A8     		j	.L73
 776              	.L52:
 364:../src/platform/mpfs_hal/common/nwc/mss_ddr_debug.c ****         {
 365:../src/platform/mpfs_hal/common/nwc/mss_ddr_debug.c ****             case DDR_8_BIT:
 366:../src/platform/mpfs_hal/common/nwc/mss_ddr_debug.c ****                 DATA &= 0xFFUL;
 777              		.loc 2 366 22
 778 0154 833704FE 		ld	a5,-32(s0)
 779 0158 93F7F70F 		andi	a5,a5,255
 780 015c 2330F4FE 		sd	a5,-32(s0)
 367:../src/platform/mpfs_hal/common/nwc/mss_ddr_debug.c ****                 ddr_data = *DDR_8_pt_t;
 781              		.loc 2 367 28
 782 0160 833704FD 		ld	a5,-48(s0)
 783 0164 83C70700 		lbu	a5,0(a5)
 784              		.loc 2 367 26
 785 0168 2330F4FA 		sd	a5,-96(s0)
 368:../src/platform/mpfs_hal/common/nwc/mss_ddr_debug.c ****                 break;
 786              		.loc 2 368 17
 787 016c 81A8     		j	.L55
 788              	.L51:
 369:../src/platform/mpfs_hal/common/nwc/mss_ddr_debug.c ****             case DDR_16_BIT:
 370:../src/platform/mpfs_hal/common/nwc/mss_ddr_debug.c ****                 DATA &= 0xFFFFUL;
 789              		.loc 2 370 22
 790 016e 033704FE 		ld	a4,-32(s0)
 791 0172 C167     		li	a5,65536
 792 0174 FD17     		addi	a5,a5,-1
 793 0176 F98F     		and	a5,a4,a5
 794 0178 2330F4FE 		sd	a5,-32(s0)
 371:../src/platform/mpfs_hal/common/nwc/mss_ddr_debug.c ****                 ddr_data = *DDR_16_pt_t;
 795              		.loc 2 371 28
 796 017c 833784FC 		ld	a5,-56(s0)
 797 0180 83D70700 		lhu	a5,0(a5)
 798              		.loc 2 371 26
 799 0184 2330F4FA 		sd	a5,-96(s0)
 372:../src/platform/mpfs_hal/common/nwc/mss_ddr_debug.c ****                 break;
 800              		.loc 2 372 17
 801 0188 15A8     		j	.L55
 802              	.L53:
 373:../src/platform/mpfs_hal/common/nwc/mss_ddr_debug.c ****             case DDR_32_BIT:
 374:../src/platform/mpfs_hal/common/nwc/mss_ddr_debug.c ****                 DATA &= 0xFFFFFFFFUL;
 803              		.loc 2 374 22
 804 018a 033704FE 		ld	a4,-32(s0)
 805 018e FD57     		li	a5,-1
 806 0190 8193     		srli	a5,a5,32
 807 0192 F98F     		and	a5,a4,a5
 808 0194 2330F4FE 		sd	a5,-32(s0)
 375:../src/platform/mpfs_hal/common/nwc/mss_ddr_debug.c ****                 ddr_data = *DDR_32_pt_t;
 809              		.loc 2 375 28
 810 0198 833704FC 		ld	a5,-64(s0)
 811 019c 9C43     		lw	a5,0(a5)
 812 019e 8217     		slli	a5,a5,32
 813 01a0 8193     		srli	a5,a5,32
 814              		.loc 2 375 26
 815 01a2 2330F4FA 		sd	a5,-96(s0)
 376:../src/platform/mpfs_hal/common/nwc/mss_ddr_debug.c ****                 break;
 816              		.loc 2 376 17
 817 01a6 19A8     		j	.L55
 818              	.L73:
 377:../src/platform/mpfs_hal/common/nwc/mss_ddr_debug.c ****             default:
 378:../src/platform/mpfs_hal/common/nwc/mss_ddr_debug.c ****             case DDR_64_BIT:
 379:../src/platform/mpfs_hal/common/nwc/mss_ddr_debug.c ****                 DDR_word_pt_t = DDR_word_ptr;
 819              		.loc 2 379 31
 820 01a8 833784F9 		ld	a5,-104(s0)
 821 01ac 2338F4FA 		sd	a5,-80(s0)
 380:../src/platform/mpfs_hal/common/nwc/mss_ddr_debug.c ****                 ddr_data = *DDR_word_pt_t;
 822              		.loc 2 380 28
 823 01b0 833704FB 		ld	a5,-80(s0)
 824 01b4 9C63     		ld	a5,0(a5)
 825              		.loc 2 380 26
 826 01b6 2330F4FA 		sd	a5,-96(s0)
 381:../src/platform/mpfs_hal/common/nwc/mss_ddr_debug.c ****                 break;
 827              		.loc 2 381 17
 828 01ba 0100     		nop
 829              	.L55:
 382:../src/platform/mpfs_hal/common/nwc/mss_ddr_debug.c ****         }
 383:../src/platform/mpfs_hal/common/nwc/mss_ddr_debug.c **** 
 384:../src/platform/mpfs_hal/common/nwc/mss_ddr_debug.c **** #ifdef DEBUG_DDR_INIT
 385:../src/platform/mpfs_hal/common/nwc/mss_ddr_debug.c ****         if((i%0x1000000UL) ==0UL)
 386:../src/platform/mpfs_hal/common/nwc/mss_ddr_debug.c ****         {
 387:../src/platform/mpfs_hal/common/nwc/mss_ddr_debug.c ****             MSS_UART_polled_tx(g_debug_uart, (const uint8_t*)"r", (uint32_t)1UL);
 388:../src/platform/mpfs_hal/common/nwc/mss_ddr_debug.c ****         }
 389:../src/platform/mpfs_hal/common/nwc/mss_ddr_debug.c **** #endif
 390:../src/platform/mpfs_hal/common/nwc/mss_ddr_debug.c **** 
 391:../src/platform/mpfs_hal/common/nwc/mss_ddr_debug.c ****         if (ddr_data != DATA)
 830              		.loc 2 391 22
 831 01bc 833704FA 		ld	a5,-96(s0)
 832              		.loc 2 391 12
 833 01c0 033704FE 		ld	a4,-32(s0)
 834 01c4 6307F700 		beq	a4,a5,.L56
 392:../src/platform/mpfs_hal/common/nwc/mss_ddr_debug.c ****         {
 393:../src/platform/mpfs_hal/common/nwc/mss_ddr_debug.c **** #ifdef DEBUG_DDR_INIT
 394:../src/platform/mpfs_hal/common/nwc/mss_ddr_debug.c **** #ifdef DEBUG_DDR_RD_RW_FAIL
 395:../src/platform/mpfs_hal/common/nwc/mss_ddr_debug.c ****             if (err_cnt <=0xF)
 396:../src/platform/mpfs_hal/common/nwc/mss_ddr_debug.c ****             {
 397:../src/platform/mpfs_hal/common/nwc/mss_ddr_debug.c ****                 uprint64(g_debug_uart,\
 398:../src/platform/mpfs_hal/common/nwc/mss_ddr_debug.c ****                         "\n\r READ/ WRITE ACCESS FAILED AT ADDR: 0x ",\
 399:../src/platform/mpfs_hal/common/nwc/mss_ddr_debug.c ****                             (uintptr_t)DDR_word_ptr);
 400:../src/platform/mpfs_hal/common/nwc/mss_ddr_debug.c ****                 uprint64(g_debug_uart,"\t Expected Data 0x ", DATA);
 401:../src/platform/mpfs_hal/common/nwc/mss_ddr_debug.c ****                 uprint64(g_debug_uart,"\t READ DATA: 0x ", ddr_data);
 402:../src/platform/mpfs_hal/common/nwc/mss_ddr_debug.c ****                 uprint64(g_debug_uart,"\t READ DATA: 0x ", *DDR_word_ptr);
 403:../src/platform/mpfs_hal/common/nwc/mss_ddr_debug.c ****                 uprint64(g_debug_uart,"\t READ DATA: 0x ", *DDR_word_ptr);
 404:../src/platform/mpfs_hal/common/nwc/mss_ddr_debug.c ****             }
 405:../src/platform/mpfs_hal/common/nwc/mss_ddr_debug.c **** #endif
 406:../src/platform/mpfs_hal/common/nwc/mss_ddr_debug.c **** #endif
 407:../src/platform/mpfs_hal/common/nwc/mss_ddr_debug.c ****             err_cnt++;
 835              		.loc 2 407 20
 836 01c8 8327C4FD 		lw	a5,-36(s0)
 837 01cc 8527     		addiw	a5,a5,1
 838 01ce 232EF4FC 		sw	a5,-36(s0)
 839              	.L56:
 408:../src/platform/mpfs_hal/common/nwc/mss_ddr_debug.c ****         }
 409:../src/platform/mpfs_hal/common/nwc/mss_ddr_debug.c ****         else
 410:../src/platform/mpfs_hal/common/nwc/mss_ddr_debug.c ****         {
 411:../src/platform/mpfs_hal/common/nwc/mss_ddr_debug.c **** #ifdef DEBUG_DDR_RD_RW_PASS
 412:../src/platform/mpfs_hal/common/nwc/mss_ddr_debug.c ****             //printf("\n\r READ/ WRITE ACCESS passED AT ADDR: 0x%x expected data = 0x%x, Data read 
 413:../src/platform/mpfs_hal/common/nwc/mss_ddr_debug.c ****             uprint64(g_debug_uart, "\n\r READ/ WRITE ACCESS PASSED AT ADDR: 0x"\
 414:../src/platform/mpfs_hal/common/nwc/mss_ddr_debug.c ****                     , (uintptr_t)DDR_word_ptr);
 415:../src/platform/mpfs_hal/common/nwc/mss_ddr_debug.c ****             uprint64(g_debug_uart,"\t READ DATA: 0x", *DDR_word_ptr);
 416:../src/platform/mpfs_hal/common/nwc/mss_ddr_debug.c **** #endif
 417:../src/platform/mpfs_hal/common/nwc/mss_ddr_debug.c ****         }
 418:../src/platform/mpfs_hal/common/nwc/mss_ddr_debug.c ****         DDR_word_ptr = DDR_word_ptr + 1U;
 840              		.loc 2 418 22
 841 01d2 833784F9 		ld	a5,-104(s0)
 842 01d6 A107     		addi	a5,a5,8
 843 01d8 233CF4F8 		sd	a5,-104(s0)
 419:../src/platform/mpfs_hal/common/nwc/mss_ddr_debug.c ****         DDR_8_pt_t   = DDR_8_pt_t +1U;
 844              		.loc 2 419 22
 845 01dc 833704FD 		ld	a5,-48(s0)
 846 01e0 8507     		addi	a5,a5,1
 847 01e2 2338F4FC 		sd	a5,-48(s0)
 420:../src/platform/mpfs_hal/common/nwc/mss_ddr_debug.c ****         DDR_16_pt_t  = DDR_16_pt_t +1U;
 848              		.loc 2 420 22
 849 01e6 833784FC 		ld	a5,-56(s0)
 850 01ea 8907     		addi	a5,a5,2
 851 01ec 2334F4FC 		sd	a5,-56(s0)
 421:../src/platform/mpfs_hal/common/nwc/mss_ddr_debug.c ****         DDR_32_pt_t  = DDR_32_pt_t +1U;
 852              		.loc 2 421 22
 853 01f0 833704FC 		ld	a5,-64(s0)
 854 01f4 9107     		addi	a5,a5,4
 855 01f6 2330F4FC 		sd	a5,-64(s0)
 422:../src/platform/mpfs_hal/common/nwc/mss_ddr_debug.c ****         switch (data_ptrn)
 856              		.loc 2 422 9
 857 01fa 834734F9 		lbu	a5,-109(s0)
 858 01fe 8127     		sext.w	a5,a5
 859 0200 BE86     		mv	a3,a5
 860 0202 13070004 		li	a4,64
 861 0206 6369D714 		bgtu	a3,a4,.L74
 862 020a 13972700 		slli	a4,a5,2
 863 020e 97070000 		lla	a5,.L59
 863      93870700 
 864 0216 BA97     		add	a5,a4,a5
 865 0218 9C43     		lw	a5,0(a5)
 866 021a 1B870700 		sext.w	a4,a5
 867 021e 97070000 		lla	a5,.L59
 867      93870700 
 868 0226 BA97     		add	a5,a4,a5
 869 0228 8287     		jr	a5
 870              		.section	.rodata.ddr_read
 871              		.align	2
 872              		.align	2
 873              	.L59:
 874 0104 00000000 		.word	.L74-.L59
 875 0108 00000000 		.word	.L65-.L59
 876 010c 00000000 		.word	.L64-.L59
 877 0110 00000000 		.word	.L74-.L59
 878 0114 00000000 		.word	.L63-.L59
 879 0118 00000000 		.word	.L74-.L59
 880 011c 00000000 		.word	.L74-.L59
 881 0120 00000000 		.word	.L74-.L59
 882 0124 00000000 		.word	.L62-.L59
 883 0128 00000000 		.word	.L74-.L59
 884 012c 00000000 		.word	.L74-.L59
 885 0130 00000000 		.word	.L74-.L59
 886 0134 00000000 		.word	.L74-.L59
 887 0138 00000000 		.word	.L74-.L59
 888 013c 00000000 		.word	.L74-.L59
 889 0140 00000000 		.word	.L74-.L59
 890 0144 00000000 		.word	.L61-.L59
 891 0148 00000000 		.word	.L74-.L59
 892 014c 00000000 		.word	.L74-.L59
 893 0150 00000000 		.word	.L74-.L59
 894 0154 00000000 		.word	.L74-.L59
 895 0158 00000000 		.word	.L74-.L59
 896 015c 00000000 		.word	.L74-.L59
 897 0160 00000000 		.word	.L74-.L59
 898 0164 00000000 		.word	.L74-.L59
 899 0168 00000000 		.word	.L74-.L59
 900 016c 00000000 		.word	.L74-.L59
 901 0170 00000000 		.word	.L74-.L59
 902 0174 00000000 		.word	.L74-.L59
 903 0178 00000000 		.word	.L74-.L59
 904 017c 00000000 		.word	.L74-.L59
 905 0180 00000000 		.word	.L74-.L59
 906 0184 00000000 		.word	.L60-.L59
 907 0188 00000000 		.word	.L74-.L59
 908 018c 00000000 		.word	.L74-.L59
 909 0190 00000000 		.word	.L74-.L59
 910 0194 00000000 		.word	.L74-.L59
 911 0198 00000000 		.word	.L74-.L59
 912 019c 00000000 		.word	.L74-.L59
 913 01a0 00000000 		.word	.L74-.L59
 914 01a4 00000000 		.word	.L74-.L59
 915 01a8 00000000 		.word	.L74-.L59
 916 01ac 00000000 		.word	.L74-.L59
 917 01b0 00000000 		.word	.L74-.L59
 918 01b4 00000000 		.word	.L74-.L59
 919 01b8 00000000 		.word	.L74-.L59
 920 01bc 00000000 		.word	.L74-.L59
 921 01c0 00000000 		.word	.L74-.L59
 922 01c4 00000000 		.word	.L74-.L59
 923 01c8 00000000 		.word	.L74-.L59
 924 01cc 00000000 		.word	.L74-.L59
 925 01d0 00000000 		.word	.L74-.L59
 926 01d4 00000000 		.word	.L74-.L59
 927 01d8 00000000 		.word	.L74-.L59
 928 01dc 00000000 		.word	.L74-.L59
 929 01e0 00000000 		.word	.L74-.L59
 930 01e4 00000000 		.word	.L74-.L59
 931 01e8 00000000 		.word	.L74-.L59
 932 01ec 00000000 		.word	.L74-.L59
 933 01f0 00000000 		.word	.L74-.L59
 934 01f4 00000000 		.word	.L74-.L59
 935 01f8 00000000 		.word	.L74-.L59
 936 01fc 00000000 		.word	.L74-.L59
 937 0200 00000000 		.word	.L74-.L59
 938 0204 00000000 		.word	.L58-.L59
 939              		.section	.text.ddr_read
 940              	.L65:
 423:../src/platform/mpfs_hal/common/nwc/mss_ddr_debug.c ****         {
 424:../src/platform/mpfs_hal/common/nwc/mss_ddr_debug.c ****             case PATTERN_INCREMENTAL : DATA = DATA + 0x01; break;
 941              		.loc 2 424 45
 942 022a 833704FE 		ld	a5,-32(s0)
 943 022e 8507     		addi	a5,a5,1
 944 0230 2330F4FE 		sd	a5,-32(s0)
 945              		.loc 2 424 13
 946 0234 1DA2     		j	.L66
 947              	.L64:
 425:../src/platform/mpfs_hal/common/nwc/mss_ddr_debug.c ****             case PATTERN_WALKING_ONE :
 426:../src/platform/mpfs_hal/common/nwc/mss_ddr_debug.c ****                 if (DATA == 0x80000000)
 948              		.loc 2 426 20
 949 0236 033704FE 		ld	a4,-32(s0)
 950 023a 8547     		li	a5,1
 951 023c FE07     		slli	a5,a5,31
 952 023e 6316F700 		bne	a4,a5,.L67
 427:../src/platform/mpfs_hal/common/nwc/mss_ddr_debug.c ****                     DATA = 0x00000001;
 953              		.loc 2 427 26
 954 0242 8547     		li	a5,1
 955 0244 2330F4FE 		sd	a5,-32(s0)
 428:../src/platform/mpfs_hal/common/nwc/mss_ddr_debug.c ****                 else
 429:../src/platform/mpfs_hal/common/nwc/mss_ddr_debug.c ****                     DATA = (DATA << 1);
 430:../src/platform/mpfs_hal/common/nwc/mss_ddr_debug.c ****                 break;
 956              		.loc 2 430 17
 957 0248 09AA     		j	.L66
 958              	.L67:
 429:../src/platform/mpfs_hal/common/nwc/mss_ddr_debug.c ****                 break;
 959              		.loc 2 429 26
 960 024a 833704FE 		ld	a5,-32(s0)
 961 024e 8607     		slli	a5,a5,1
 962 0250 2330F4FE 		sd	a5,-32(s0)
 963              		.loc 2 430 17
 964 0254 19A2     		j	.L66
 965              	.L63:
 431:../src/platform/mpfs_hal/common/nwc/mss_ddr_debug.c ****             case PATTERN_WALKING_ZERO :
 432:../src/platform/mpfs_hal/common/nwc/mss_ddr_debug.c ****                 DATA = ~DATA;
 966              		.loc 2 432 22
 967 0256 833704FE 		ld	a5,-32(s0)
 968 025a 93C7F7FF 		not	a5,a5
 969 025e 2330F4FE 		sd	a5,-32(s0)
 433:../src/platform/mpfs_hal/common/nwc/mss_ddr_debug.c ****                 if (DATA == 0x80000000)
 970              		.loc 2 433 20
 971 0262 033704FE 		ld	a4,-32(s0)
 972 0266 8547     		li	a5,1
 973 0268 FE07     		slli	a5,a5,31
 974 026a 6316F700 		bne	a4,a5,.L69
 434:../src/platform/mpfs_hal/common/nwc/mss_ddr_debug.c ****                 {
 435:../src/platform/mpfs_hal/common/nwc/mss_ddr_debug.c ****                     DATA = 0x00000001;
 975              		.loc 2 435 26
 976 026e 8547     		li	a5,1
 977 0270 2330F4FE 		sd	a5,-32(s0)
 978 0274 31A0     		j	.L70
 979              	.L69:
 436:../src/platform/mpfs_hal/common/nwc/mss_ddr_debug.c ****                 }
 437:../src/platform/mpfs_hal/common/nwc/mss_ddr_debug.c ****                 else
 438:../src/platform/mpfs_hal/common/nwc/mss_ddr_debug.c ****                 {
 439:../src/platform/mpfs_hal/common/nwc/mss_ddr_debug.c ****                     DATA = (DATA << 1);
 980              		.loc 2 439 26
 981 0276 833704FE 		ld	a5,-32(s0)
 982 027a 8607     		slli	a5,a5,1
 983 027c 2330F4FE 		sd	a5,-32(s0)
 984              	.L70:
 440:../src/platform/mpfs_hal/common/nwc/mss_ddr_debug.c ****                 }
 441:../src/platform/mpfs_hal/common/nwc/mss_ddr_debug.c ****                 DATA = ~DATA;
 985              		.loc 2 441 22
 986 0280 833704FE 		ld	a5,-32(s0)
 987 0284 93C7F7FF 		not	a5,a5
 988 0288 2330F4FE 		sd	a5,-32(s0)
 442:../src/platform/mpfs_hal/common/nwc/mss_ddr_debug.c ****                 break;
 989              		.loc 2 442 17
 990 028c F9A0     		j	.L66
 991              	.L62:
 443:../src/platform/mpfs_hal/common/nwc/mss_ddr_debug.c ****             case PATTERN_RANDOM :
 444:../src/platform/mpfs_hal/common/nwc/mss_ddr_debug.c ****                 DATA = (uint64_t)rand ( );
 992              		.loc 2 444 34
 993 028e 97000000 		call	rand
 993      E7800000 
 994 0296 AA87     		mv	a5,a0
 995              		.loc 2 444 22
 996 0298 2330F4FE 		sd	a5,-32(s0)
 445:../src/platform/mpfs_hal/common/nwc/mss_ddr_debug.c ****                 rand_addr_offset = (uint32_t)(rand() & 0xFFFFCUL);
 997              		.loc 2 445 47
 998 029c 97000000 		call	rand
 998      E7800000 
 999 02a4 AA87     		mv	a5,a0
 1000 02a6 8127     		sext.w	a5,a5
 1001              		.loc 2 445 34
 1002 02a8 3E87     		mv	a4,a5
 1003 02aa B7071000 		li	a5,1048576
 1004 02ae F117     		addi	a5,a5,-4
 1005 02b0 F98F     		and	a5,a4,a5
 1006 02b2 2326F4FA 		sw	a5,-84(s0)
 446:../src/platform/mpfs_hal/common/nwc/mss_ddr_debug.c ****                 DDR_word_ptr = first_DDR_word_pt_t + rand_addr_offset;
 1007              		.loc 2 446 52
 1008 02b6 8367C4FA 		lwu	a5,-84(s0)
 1009 02ba 8E07     		slli	a5,a5,3
 1010              		.loc 2 446 30
 1011 02bc 033784FB 		ld	a4,-72(s0)
 1012 02c0 BA97     		add	a5,a4,a5
 1013 02c2 233CF4F8 		sd	a5,-104(s0)
 447:../src/platform/mpfs_hal/common/nwc/mss_ddr_debug.c ****                 DDR_8_pt_t   = (uint8_t *)(first_DDR_word_pt_t + rand_addr_offset);
 1014              		.loc 2 447 64
 1015 02c6 8367C4FA 		lwu	a5,-84(s0)
 1016 02ca 8E07     		slli	a5,a5,3
 1017              		.loc 2 447 30
 1018 02cc 033784FB 		ld	a4,-72(s0)
 1019 02d0 BA97     		add	a5,a4,a5
 1020 02d2 2338F4FC 		sd	a5,-48(s0)
 448:../src/platform/mpfs_hal/common/nwc/mss_ddr_debug.c ****                 DDR_16_pt_t  = (uint16_t *)(first_DDR_word_pt_t + rand_addr_offset);
 1021              		.loc 2 448 65
 1022 02d6 8367C4FA 		lwu	a5,-84(s0)
 1023 02da 8E07     		slli	a5,a5,3
 1024              		.loc 2 448 30
 1025 02dc 033784FB 		ld	a4,-72(s0)
 1026 02e0 BA97     		add	a5,a4,a5
 1027 02e2 2334F4FC 		sd	a5,-56(s0)
 449:../src/platform/mpfs_hal/common/nwc/mss_ddr_debug.c ****                 DDR_32_pt_t  = (uint32_t *)(first_DDR_word_pt_t + rand_addr_offset);
 1028              		.loc 2 449 65
 1029 02e6 8367C4FA 		lwu	a5,-84(s0)
 1030 02ea 8E07     		slli	a5,a5,3
 1031              		.loc 2 449 30
 1032 02ec 033784FB 		ld	a4,-72(s0)
 1033 02f0 BA97     		add	a5,a4,a5
 1034 02f2 2330F4FC 		sd	a5,-64(s0)
 450:../src/platform/mpfs_hal/common/nwc/mss_ddr_debug.c ****                 *DDR_word_ptr   = DATA;
 1035              		.loc 2 450 33
 1036 02f6 833784F9 		ld	a5,-104(s0)
 1037 02fa 033704FE 		ld	a4,-32(s0)
 1038 02fe 98E3     		sd	a4,0(a5)
 451:../src/platform/mpfs_hal/common/nwc/mss_ddr_debug.c ****                 *DDR_8_pt_t     = (uint8_t)DATA;
 1039              		.loc 2 451 35
 1040 0300 833704FE 		ld	a5,-32(s0)
 1041 0304 13F7F70F 		andi	a4,a5,0xff
 1042              		.loc 2 451 33
 1043 0308 833704FD 		ld	a5,-48(s0)
 1044 030c 2380E700 		sb	a4,0(a5)
 452:../src/platform/mpfs_hal/common/nwc/mss_ddr_debug.c ****                 *DDR_16_pt_t    = (uint16_t)DATA;
 1045              		.loc 2 452 35
 1046 0310 833704FE 		ld	a5,-32(s0)
 1047 0314 13970703 		slli	a4,a5,48
 1048 0318 4193     		srli	a4,a4,48
 1049              		.loc 2 452 33
 1050 031a 833784FC 		ld	a5,-56(s0)
 1051 031e 2390E700 		sh	a4,0(a5)
 453:../src/platform/mpfs_hal/common/nwc/mss_ddr_debug.c ****                 *DDR_32_pt_t    = (uint32_t)DATA;
 1052              		.loc 2 453 35
 1053 0322 833704FE 		ld	a5,-32(s0)
 1054 0326 1B870700 		sext.w	a4,a5
 1055              		.loc 2 453 33
 1056 032a 833704FC 		ld	a5,-64(s0)
 1057 032e 98C3     		sw	a4,0(a5)
 454:../src/platform/mpfs_hal/common/nwc/mss_ddr_debug.c ****                 break;
 1058              		.loc 2 454 17
 1059 0330 2DA0     		j	.L66
 1060              	.L61:
 455:../src/platform/mpfs_hal/common/nwc/mss_ddr_debug.c ****             case PATTERN_0xCCCCCCCC :
 456:../src/platform/mpfs_hal/common/nwc/mss_ddr_debug.c ****                 DATA = 0xCCCCCCCCCCCCCCCC;
 1061              		.loc 2 456 22
 1062 0332 97070000 		lla	a5,.LC3
 1062      93870700 
 1063 033a 9C63     		ld	a5,0(a5)
 1064 033c 2330F4FE 		sd	a5,-32(s0)
 457:../src/platform/mpfs_hal/common/nwc/mss_ddr_debug.c ****                 break;
 1065              		.loc 2 457 17
 1066 0340 29A8     		j	.L66
 1067              	.L60:
 458:../src/platform/mpfs_hal/common/nwc/mss_ddr_debug.c ****             case PATTERN_0x55555555 :
 459:../src/platform/mpfs_hal/common/nwc/mss_ddr_debug.c ****                 DATA = 0x5555555555555555;
 1068              		.loc 2 459 22
 1069 0342 97070000 		lla	a5,.LC4
 1069      93870700 
 1070 034a 9C63     		ld	a5,0(a5)
 1071 034c 2330F4FE 		sd	a5,-32(s0)
 460:../src/platform/mpfs_hal/common/nwc/mss_ddr_debug.c ****                 break;
 1072              		.loc 2 460 17
 1073 0350 29A0     		j	.L66
 1074              	.L58:
 461:../src/platform/mpfs_hal/common/nwc/mss_ddr_debug.c ****             case PATTERN_ZEROS :
 462:../src/platform/mpfs_hal/common/nwc/mss_ddr_debug.c ****                 DATA = 0x00000000;
 1075              		.loc 2 462 22
 1076 0352 233004FE 		sd	zero,-32(s0)
 463:../src/platform/mpfs_hal/common/nwc/mss_ddr_debug.c ****                 break;
 1077              		.loc 2 463 17
 1078 0356 11A0     		j	.L66
 1079              	.L74:
 464:../src/platform/mpfs_hal/common/nwc/mss_ddr_debug.c ****             default :
 465:../src/platform/mpfs_hal/common/nwc/mss_ddr_debug.c ****                 break;
 1080              		.loc 2 465 17
 1081 0358 0100     		nop
 1082              	.L66:
 361:../src/platform/mpfs_hal/common/nwc/mss_ddr_debug.c ****     {
 1083              		.loc 2 361 37 discriminator 2
 1084 035a 8327C4FE 		lw	a5,-20(s0)
 1085 035e 8527     		addiw	a5,a5,1
 1086 0360 2326F4FE 		sw	a5,-20(s0)
 1087              	.L50:
 361:../src/platform/mpfs_hal/common/nwc/mss_ddr_debug.c ****     {
 1088              		.loc 2 361 5 discriminator 1
 1089 0364 0327C4FE 		lw	a4,-20(s0)
 1090 0368 832744F9 		lw	a5,-108(s0)
 1091 036c 0127     		sext.w	a4,a4
 1092 036e 8127     		sext.w	a5,a5
 1093 0370 E36FF7DA 		bltu	a4,a5,.L71
 466:../src/platform/mpfs_hal/common/nwc/mss_ddr_debug.c ****           }
 467:../src/platform/mpfs_hal/common/nwc/mss_ddr_debug.c ****     }
 468:../src/platform/mpfs_hal/common/nwc/mss_ddr_debug.c ****     return (err_cnt);
 1094              		.loc 2 468 12
 1095 0374 8327C4FD 		lw	a5,-36(s0)
 469:../src/platform/mpfs_hal/common/nwc/mss_ddr_debug.c **** }
 1096              		.loc 2 469 1
 1097 0378 3E85     		mv	a0,a5
 1098 037a E670     		ld	ra,120(sp)
 1099              		.cfi_restore 1
 1100 037c 4674     		ld	s0,112(sp)
 1101              		.cfi_restore 8
 1102              		.cfi_def_cfa 2, 128
 1103 037e 0961     		addi	sp,sp,128
 1104              		.cfi_def_cfa_offset 0
 1105 0380 8280     		jr	ra
 1106              		.cfi_endproc
 1107              	.LFE25:
 1109              		.section	.text.ddr_read_write_fn,"ax",@progbits
 1110              		.align	1
 1111              		.globl	ddr_read_write_fn
 1113              	ddr_read_write_fn:
 1114              	.LFB26:
 470:../src/platform/mpfs_hal/common/nwc/mss_ddr_debug.c **** 
 471:../src/platform/mpfs_hal/common/nwc/mss_ddr_debug.c **** /***************************************************************************//**
 472:../src/platform/mpfs_hal/common/nwc/mss_ddr_debug.c ****  *
 473:../src/platform/mpfs_hal/common/nwc/mss_ddr_debug.c ****  * @param DDR_word_ptr  Address
 474:../src/platform/mpfs_hal/common/nwc/mss_ddr_debug.c ****  * @param no_access  Number of addresses
 475:../src/platform/mpfs_hal/common/nwc/mss_ddr_debug.c ****  * @param pattern bit mask with patterns you want to test against
 476:../src/platform/mpfs_hal/common/nwc/mss_ddr_debug.c ****  * @return
 477:../src/platform/mpfs_hal/common/nwc/mss_ddr_debug.c ****  */
 478:../src/platform/mpfs_hal/common/nwc/mss_ddr_debug.c **** uint32_t ddr_read_write_fn (uint64_t* DDR_word_ptr, uint32_t no_access,\
 479:../src/platform/mpfs_hal/common/nwc/mss_ddr_debug.c ****                                                                uint32_t pattern)
 480:../src/platform/mpfs_hal/common/nwc/mss_ddr_debug.c **** {
 1115              		.loc 2 480 1
 1116              		.cfi_startproc
 1117 0000 7971     		addi	sp,sp,-48
 1118              		.cfi_def_cfa_offset 48
 1119 0002 06F4     		sd	ra,40(sp)
 1120 0004 22F0     		sd	s0,32(sp)
 1121              		.cfi_offset 1, -8
 1122              		.cfi_offset 8, -16
 1123 0006 0018     		addi	s0,sp,48
 1124              		.cfi_def_cfa 8, 0
 1125 0008 233CA4FC 		sd	a0,-40(s0)
 1126 000c AE87     		mv	a5,a1
 1127 000e 3287     		mv	a4,a2
 1128 0010 232AF4FC 		sw	a5,-44(s0)
 1129 0014 BA87     		mv	a5,a4
 1130 0016 2328F4FC 		sw	a5,-48(s0)
 481:../src/platform/mpfs_hal/common/nwc/mss_ddr_debug.c ****     uint32_t error_cnt = 0U;
 1131              		.loc 2 481 14
 1132 001a 232604FE 		sw	zero,-20(s0)
 1133              	.LBB4:
 482:../src/platform/mpfs_hal/common/nwc/mss_ddr_debug.c ****     uint8_t pattern_mask;
 483:../src/platform/mpfs_hal/common/nwc/mss_ddr_debug.c ****     for (unsigned i=0; i < 1; i++)
 1134              		.loc 2 483 19
 1135 001e 232404FE 		sw	zero,-24(s0)
 1136              		.loc 2 483 5
 1137 0022 DDA8     		j	.L76
 1138              	.L80:
 1139              	.LBB5:
 484:../src/platform/mpfs_hal/common/nwc/mss_ddr_debug.c ****     {
 485:../src/platform/mpfs_hal/common/nwc/mss_ddr_debug.c ****         for (uint32_t pattern_shift=0U; pattern_shift < MAX_NO_PATTERNS;\
 1140              		.loc 2 485 23
 1141 0024 232204FE 		sw	zero,-28(s0)
 1142              		.loc 2 485 9
 1143 0028 F9A0     		j	.L77
 1144              	.L79:
 486:../src/platform/mpfs_hal/common/nwc/mss_ddr_debug.c ****                                                                 pattern_shift++)
 487:../src/platform/mpfs_hal/common/nwc/mss_ddr_debug.c ****         {
 488:../src/platform/mpfs_hal/common/nwc/mss_ddr_debug.c ****             pattern_mask = (uint8_t)(0x01U << pattern_shift);
 1145              		.loc 2 488 44
 1146 002a 832744FE 		lw	a5,-28(s0)
 1147 002e 0547     		li	a4,1
 1148 0030 BB17F700 		sllw	a5,a4,a5
 1149 0034 8127     		sext.w	a5,a5
 1150              		.loc 2 488 26
 1151 0036 A301F4FE 		sb	a5,-29(s0)
 489:../src/platform/mpfs_hal/common/nwc/mss_ddr_debug.c ****             if(pattern & pattern_mask)
 1152              		.loc 2 489 24
 1153 003a 834734FE 		lbu	a5,-29(s0)
 1154 003e 1B870700 		sext.w	a4,a5
 1155 0042 832704FD 		lw	a5,-48(s0)
 1156 0046 F98F     		and	a5,a5,a4
 1157 0048 8127     		sext.w	a5,a5
 1158              		.loc 2 489 15
 1159 004a CDC3     		beq	a5,zero,.L78
 490:../src/platform/mpfs_hal/common/nwc/mss_ddr_debug.c ****             {
 491:../src/platform/mpfs_hal/common/nwc/mss_ddr_debug.c **** #ifdef DEBUG_DDR_INIT
 492:../src/platform/mpfs_hal/common/nwc/mss_ddr_debug.c ****                 uprint32(g_debug_uart,"\n\r\t Pattern: 0x", pattern_shift);
 493:../src/platform/mpfs_hal/common/nwc/mss_ddr_debug.c **** #endif
 494:../src/platform/mpfs_hal/common/nwc/mss_ddr_debug.c **** 
 495:../src/platform/mpfs_hal/common/nwc/mss_ddr_debug.c **** #if TEST_64BIT_ACCESS == 1
 496:../src/platform/mpfs_hal/common/nwc/mss_ddr_debug.c ****                 /* write the pattern */
 497:../src/platform/mpfs_hal/common/nwc/mss_ddr_debug.c ****                 error_cnt += ddr_write ((uint64_t *)DDR_word_ptr,\
 1160              		.loc 2 497 30
 1161 004c 034734FE 		lbu	a4,-29(s0)
 1162 0050 832744FD 		lw	a5,-44(s0)
 1163 0054 8D46     		li	a3,3
 1164 0056 3A86     		mv	a2,a4
 1165 0058 BE85     		mv	a1,a5
 1166 005a 033584FD 		ld	a0,-40(s0)
 1167 005e 97000000 		call	ddr_write
 1167      E7800000 
 1168 0066 AA87     		mv	a5,a0
 1169 0068 8127     		sext.w	a5,a5
 1170              		.loc 2 497 27
 1171 006a 0327C4FE 		lw	a4,-20(s0)
 1172 006e B99F     		addw	a5,a4,a5
 1173 0070 2326F4FE 		sw	a5,-20(s0)
 498:../src/platform/mpfs_hal/common/nwc/mss_ddr_debug.c ****                         no_access, pattern_mask, DDR_64_BIT);
 499:../src/platform/mpfs_hal/common/nwc/mss_ddr_debug.c ****                 /* read back and verifies */
 500:../src/platform/mpfs_hal/common/nwc/mss_ddr_debug.c ****                 error_cnt += ddr_read ((uint64_t *)DDR_word_ptr, \
 1174              		.loc 2 500 30
 1175 0074 034734FE 		lbu	a4,-29(s0)
 1176 0078 832744FD 		lw	a5,-44(s0)
 1177 007c 8D46     		li	a3,3
 1178 007e 3A86     		mv	a2,a4
 1179 0080 BE85     		mv	a1,a5
 1180 0082 033584FD 		ld	a0,-40(s0)
 1181 0086 97000000 		call	ddr_read
 1181      E7800000 
 1182 008e AA87     		mv	a5,a0
 1183 0090 8127     		sext.w	a5,a5
 1184              		.loc 2 500 27
 1185 0092 0327C4FE 		lw	a4,-20(s0)
 1186 0096 B99F     		addw	a5,a4,a5
 1187 0098 2326F4FE 		sw	a5,-20(s0)
 501:../src/platform/mpfs_hal/common/nwc/mss_ddr_debug.c ****                         no_access, pattern_mask, DDR_64_BIT);
 502:../src/platform/mpfs_hal/common/nwc/mss_ddr_debug.c **** #endif
 503:../src/platform/mpfs_hal/common/nwc/mss_ddr_debug.c **** 
 504:../src/platform/mpfs_hal/common/nwc/mss_ddr_debug.c **** #if TEST_32BIT_ACCESS == 1
 505:../src/platform/mpfs_hal/common/nwc/mss_ddr_debug.c ****                 /* write the pattern */
 506:../src/platform/mpfs_hal/common/nwc/mss_ddr_debug.c ****                 error_cnt += ddr_write ((uint64_t *)DDR_word_ptr,\
 1188              		.loc 2 506 30
 1189 009c 034734FE 		lbu	a4,-29(s0)
 1190 00a0 832744FD 		lw	a5,-44(s0)
 1191 00a4 8946     		li	a3,2
 1192 00a6 3A86     		mv	a2,a4
 1193 00a8 BE85     		mv	a1,a5
 1194 00aa 033584FD 		ld	a0,-40(s0)
 1195 00ae 97000000 		call	ddr_write
 1195      E7800000 
 1196 00b6 AA87     		mv	a5,a0
 1197 00b8 8127     		sext.w	a5,a5
 1198              		.loc 2 506 27
 1199 00ba 0327C4FE 		lw	a4,-20(s0)
 1200 00be B99F     		addw	a5,a4,a5
 1201 00c0 2326F4FE 		sw	a5,-20(s0)
 507:../src/platform/mpfs_hal/common/nwc/mss_ddr_debug.c ****                         no_access, pattern_mask, DDR_32_BIT);
 508:../src/platform/mpfs_hal/common/nwc/mss_ddr_debug.c ****                 /* read back and verifies */
 509:../src/platform/mpfs_hal/common/nwc/mss_ddr_debug.c ****                 error_cnt += ddr_read ((uint64_t *)DDR_word_ptr, \
 1202              		.loc 2 509 30
 1203 00c4 034734FE 		lbu	a4,-29(s0)
 1204 00c8 832744FD 		lw	a5,-44(s0)
 1205 00cc 8946     		li	a3,2
 1206 00ce 3A86     		mv	a2,a4
 1207 00d0 BE85     		mv	a1,a5
 1208 00d2 033584FD 		ld	a0,-40(s0)
 1209 00d6 97000000 		call	ddr_read
 1209      E7800000 
 1210 00de AA87     		mv	a5,a0
 1211 00e0 8127     		sext.w	a5,a5
 1212              		.loc 2 509 27
 1213 00e2 0327C4FE 		lw	a4,-20(s0)
 1214 00e6 B99F     		addw	a5,a4,a5
 1215 00e8 2326F4FE 		sw	a5,-20(s0)
 1216              	.L78:
 486:../src/platform/mpfs_hal/common/nwc/mss_ddr_debug.c ****         {
 1217              		.loc 2 486 78
 1218 00ec 832744FE 		lw	a5,-28(s0)
 1219 00f0 8527     		addiw	a5,a5,1
 1220 00f2 2322F4FE 		sw	a5,-28(s0)
 1221              	.L77:
 485:../src/platform/mpfs_hal/common/nwc/mss_ddr_debug.c ****                                                                 pattern_shift++)
 1222              		.loc 2 485 9 discriminator 1
 1223 00f6 832744FE 		lw	a5,-28(s0)
 1224 00fa 1B870700 		sext.w	a4,a5
 1225 00fe 9947     		li	a5,6
 1226 0100 E3F5E7F2 		bleu	a4,a5,.L79
 1227              	.LBE5:
 510:../src/platform/mpfs_hal/common/nwc/mss_ddr_debug.c ****                         no_access, pattern_mask, DDR_32_BIT);
 511:../src/platform/mpfs_hal/common/nwc/mss_ddr_debug.c **** #endif
 512:../src/platform/mpfs_hal/common/nwc/mss_ddr_debug.c ****             }
 513:../src/platform/mpfs_hal/common/nwc/mss_ddr_debug.c ****         }
 514:../src/platform/mpfs_hal/common/nwc/mss_ddr_debug.c ****         DDR_word_ptr++; /* increment the address */
 1228              		.loc 2 514 21 discriminator 2
 1229 0104 833784FD 		ld	a5,-40(s0)
 1230 0108 A107     		addi	a5,a5,8
 1231 010a 233CF4FC 		sd	a5,-40(s0)
 483:../src/platform/mpfs_hal/common/nwc/mss_ddr_debug.c ****     {
 1232              		.loc 2 483 32 discriminator 2
 1233 010e 832784FE 		lw	a5,-24(s0)
 1234 0112 8527     		addiw	a5,a5,1
 1235 0114 2324F4FE 		sw	a5,-24(s0)
 1236              	.L76:
 483:../src/platform/mpfs_hal/common/nwc/mss_ddr_debug.c ****     {
 1237              		.loc 2 483 5 discriminator 1
 1238 0118 832784FE 		lw	a5,-24(s0)
 1239 011c 8127     		sext.w	a5,a5
 1240 011e 99D3     		beq	a5,zero,.L80
 1241              	.LBE4:
 515:../src/platform/mpfs_hal/common/nwc/mss_ddr_debug.c ****     }
 516:../src/platform/mpfs_hal/common/nwc/mss_ddr_debug.c ****     return error_cnt;
 1242              		.loc 2 516 12
 1243 0120 8327C4FE 		lw	a5,-20(s0)
 517:../src/platform/mpfs_hal/common/nwc/mss_ddr_debug.c **** }
 1244              		.loc 2 517 1
 1245 0124 3E85     		mv	a0,a5
 1246 0126 A270     		ld	ra,40(sp)
 1247              		.cfi_restore 1
 1248 0128 0274     		ld	s0,32(sp)
 1249              		.cfi_restore 8
 1250              		.cfi_def_cfa 2, 48
 1251 012a 4561     		addi	sp,sp,48
 1252              		.cfi_def_cfa_offset 0
 1253 012c 8280     		jr	ra
 1254              		.cfi_endproc
 1255              	.LFE26:
 1257              		.section	.text.load_ddr_pattern,"ax",@progbits
 1258              		.align	1
 1259              		.globl	load_ddr_pattern
 1261              	load_ddr_pattern:
 1262              	.LFB27:
 518:../src/platform/mpfs_hal/common/nwc/mss_ddr_debug.c **** 
 519:../src/platform/mpfs_hal/common/nwc/mss_ddr_debug.c **** 
 520:../src/platform/mpfs_hal/common/nwc/mss_ddr_debug.c **** /***************************************************************************//**
 521:../src/platform/mpfs_hal/common/nwc/mss_ddr_debug.c ****  *
 522:../src/platform/mpfs_hal/common/nwc/mss_ddr_debug.c ****  * @param error
 523:../src/platform/mpfs_hal/common/nwc/mss_ddr_debug.c ****  * @return
 524:../src/platform/mpfs_hal/common/nwc/mss_ddr_debug.c ****  */
 525:../src/platform/mpfs_hal/common/nwc/mss_ddr_debug.c **** #ifdef DEBUG_DDR_INIT
 526:../src/platform/mpfs_hal/common/nwc/mss_ddr_debug.c **** uint32_t error_status(mss_uart_instance_t *g_mss_uart_debug_pt, uint32_t error)
 527:../src/platform/mpfs_hal/common/nwc/mss_ddr_debug.c **** {
 528:../src/platform/mpfs_hal/common/nwc/mss_ddr_debug.c ****     uprint32(g_mss_uart_debug_pt,  "\n\r ERROR_RESULT: ", error);
 529:../src/platform/mpfs_hal/common/nwc/mss_ddr_debug.c ****     return (0U);
 530:../src/platform/mpfs_hal/common/nwc/mss_ddr_debug.c **** }
 531:../src/platform/mpfs_hal/common/nwc/mss_ddr_debug.c **** #endif
 532:../src/platform/mpfs_hal/common/nwc/mss_ddr_debug.c **** 
 533:../src/platform/mpfs_hal/common/nwc/mss_ddr_debug.c **** /***************************************************************************//**
 534:../src/platform/mpfs_hal/common/nwc/mss_ddr_debug.c ****  * Calibration status
 535:../src/platform/mpfs_hal/common/nwc/mss_ddr_debug.c ****  * @return
 536:../src/platform/mpfs_hal/common/nwc/mss_ddr_debug.c ****  */
 537:../src/platform/mpfs_hal/common/nwc/mss_ddr_debug.c **** #ifdef DEBUG_DDR_INIT
 538:../src/platform/mpfs_hal/common/nwc/mss_ddr_debug.c **** uint32_t wrcalib_status(mss_uart_instance_t *g_mss_uart_debug_pt)
 539:../src/platform/mpfs_hal/common/nwc/mss_ddr_debug.c **** {
 540:../src/platform/mpfs_hal/common/nwc/mss_ddr_debug.c ****     uprint32(g_mss_uart_debug_pt,  "\n\r WRCALIB_RESULT: ",\
 541:../src/platform/mpfs_hal/common/nwc/mss_ddr_debug.c ****             CFG_DDR_SGMII_PHY->expert_wrcalib.expert_wrcalib);
 542:../src/platform/mpfs_hal/common/nwc/mss_ddr_debug.c ****     return (0U);
 543:../src/platform/mpfs_hal/common/nwc/mss_ddr_debug.c **** }
 544:../src/platform/mpfs_hal/common/nwc/mss_ddr_debug.c **** #endif
 545:../src/platform/mpfs_hal/common/nwc/mss_ddr_debug.c **** 
 546:../src/platform/mpfs_hal/common/nwc/mss_ddr_debug.c **** #ifdef DEBUG_DDR_INIT
 547:../src/platform/mpfs_hal/common/nwc/mss_ddr_debug.c **** /***************************************************************************//**
 548:../src/platform/mpfs_hal/common/nwc/mss_ddr_debug.c ****  * Prints out DDR status
 549:../src/platform/mpfs_hal/common/nwc/mss_ddr_debug.c ****  * @return
 550:../src/platform/mpfs_hal/common/nwc/mss_ddr_debug.c ****  */
 551:../src/platform/mpfs_hal/common/nwc/mss_ddr_debug.c **** uint32_t tip_register_status (mss_uart_instance_t *g_mss_uart_debug_pt)
 552:../src/platform/mpfs_hal/common/nwc/mss_ddr_debug.c **** {
 553:../src/platform/mpfs_hal/common/nwc/mss_ddr_debug.c **** 
 554:../src/platform/mpfs_hal/common/nwc/mss_ddr_debug.c ****     uint32_t t_status = 0U;
 555:../src/platform/mpfs_hal/common/nwc/mss_ddr_debug.c ****     uint32_t MSS_DDR_APB_ADDR;
 556:../src/platform/mpfs_hal/common/nwc/mss_ddr_debug.c ****     uint32_t ddr_lane_sel;
 557:../src/platform/mpfs_hal/common/nwc/mss_ddr_debug.c ****     uint32_t rank_sel;
 558:../src/platform/mpfs_hal/common/nwc/mss_ddr_debug.c ****     uint32_t dq0_dly = 0U;
 559:../src/platform/mpfs_hal/common/nwc/mss_ddr_debug.c ****     uint32_t dq1_dly = 0U;
 560:../src/platform/mpfs_hal/common/nwc/mss_ddr_debug.c ****     uint32_t dq2_dly = 0U;
 561:../src/platform/mpfs_hal/common/nwc/mss_ddr_debug.c ****     uint32_t dq3_dly = 0U;
 562:../src/platform/mpfs_hal/common/nwc/mss_ddr_debug.c ****     uint32_t dq4_dly = 0U;
 563:../src/platform/mpfs_hal/common/nwc/mss_ddr_debug.c ****     uint32_t dq5_dly = 0U;
 564:../src/platform/mpfs_hal/common/nwc/mss_ddr_debug.c **** 
 565:../src/platform/mpfs_hal/common/nwc/mss_ddr_debug.c ****     /*  MSS_UART_polled_tx_string(g_mss_uart_debug_pt, "\n\n\r TIP register status \n");
 566:../src/platform/mpfs_hal/common/nwc/mss_ddr_debug.c ****     delay(DELAY_CYCLES_50_MICRO);*/
 567:../src/platform/mpfs_hal/common/nwc/mss_ddr_debug.c ****     uprint32(g_mss_uart_debug_pt,  "\n\r\n\r training status = ",\
 568:../src/platform/mpfs_hal/common/nwc/mss_ddr_debug.c ****                             CFG_DDR_SGMII_PHY->training_status.training_status);
 569:../src/platform/mpfs_hal/common/nwc/mss_ddr_debug.c ****     uprint32(g_mss_uart_debug_pt,  "\n\r PCODE = ",\
 570:../src/platform/mpfs_hal/common/nwc/mss_ddr_debug.c ****                                 (CFG_DDR_SGMII_PHY->IOC_REG2.IOC_REG2 & 0x7F));
 571:../src/platform/mpfs_hal/common/nwc/mss_ddr_debug.c ****     uprint32(g_mss_uart_debug_pt,  "\n\r NCODE = ",\
 572:../src/platform/mpfs_hal/common/nwc/mss_ddr_debug.c ****                         (((CFG_DDR_SGMII_PHY->IOC_REG2.IOC_REG2) >> 7) & 0x7F));
 573:../src/platform/mpfs_hal/common/nwc/mss_ddr_debug.c ****     uprint32(g_mss_uart_debug_pt,  "\n\r WRCALIB_RESULT: "\
 574:../src/platform/mpfs_hal/common/nwc/mss_ddr_debug.c ****                             , CFG_DDR_SGMII_PHY->expert_wrcalib.expert_wrcalib);
 575:../src/platform/mpfs_hal/common/nwc/mss_ddr_debug.c ****     uprint32(g_mss_uart_debug_pt,  "\n\r sro_ref_slewr  = ",\
 576:../src/platform/mpfs_hal/common/nwc/mss_ddr_debug.c ****                         (((CFG_DDR_SGMII_PHY->IOC_REG5.IOC_REG5) >> 0) & 0x3F));
 577:../src/platform/mpfs_hal/common/nwc/mss_ddr_debug.c ****     uprint32(g_mss_uart_debug_pt,  "\n\r sro_ref_slewf  = ",\
 578:../src/platform/mpfs_hal/common/nwc/mss_ddr_debug.c ****                        (((CFG_DDR_SGMII_PHY->IOC_REG5.IOC_REG5) >> 6) & 0xFFF));
 579:../src/platform/mpfs_hal/common/nwc/mss_ddr_debug.c ****     uprint32(g_mss_uart_debug_pt,  "\n\r sro_slewr  = ",\
 580:../src/platform/mpfs_hal/common/nwc/mss_ddr_debug.c ****                        (((CFG_DDR_SGMII_PHY->IOC_REG5.IOC_REG5) >> 18) & 0x3F));
 581:../src/platform/mpfs_hal/common/nwc/mss_ddr_debug.c ****     uprint32(g_mss_uart_debug_pt,  "\n\r sro_slewf  = ",\
 582:../src/platform/mpfs_hal/common/nwc/mss_ddr_debug.c ****             (((CFG_DDR_SGMII_PHY->IOC_REG5.IOC_REG5) >> 24) & 0x3F));
 583:../src/platform/mpfs_hal/common/nwc/mss_ddr_debug.c **** 
 584:../src/platform/mpfs_hal/common/nwc/mss_ddr_debug.c ****     for (rank_sel=0; rank_sel < LIBERO_SETTING_CFG_NUM_RANKS; rank_sel++)
 585:../src/platform/mpfs_hal/common/nwc/mss_ddr_debug.c ****     {
 586:../src/platform/mpfs_hal/common/nwc/mss_ddr_debug.c ****         CFG_DDR_SGMII_PHY->rank_select.rank_select=rank_sel;
 587:../src/platform/mpfs_hal/common/nwc/mss_ddr_debug.c ****         uprint32(g_mss_uart_debug_pt, "\n\r\n\r rank number", rank_sel);
 588:../src/platform/mpfs_hal/common/nwc/mss_ddr_debug.c ****         MSS_UART_polled_tx_string(g_mss_uart_debug_pt, \
 589:../src/platform/mpfs_hal/common/nwc/mss_ddr_debug.c ****                 (const uint8_t*)"\n\n\r lane_select \t gt_err_comb \t gt_txdly \t gt_steps_180 \t g
 590:../src/platform/mpfs_hal/common/nwc/mss_ddr_debug.c ****         for (ddr_lane_sel=0U; ddr_lane_sel < LIBERO_SETTING_DATA_LANES_USED; ddr_lane_sel++)
 591:../src/platform/mpfs_hal/common/nwc/mss_ddr_debug.c ****         {
 592:../src/platform/mpfs_hal/common/nwc/mss_ddr_debug.c ****             CFG_DDR_SGMII_PHY->lane_select.lane_select = ddr_lane_sel;
 593:../src/platform/mpfs_hal/common/nwc/mss_ddr_debug.c ****             uprint32(g_mss_uart_debug_pt, "\n\r ", CFG_DDR_SGMII_PHY->lane_select.lane_select);
 594:../src/platform/mpfs_hal/common/nwc/mss_ddr_debug.c ****             delay(DELAY_CYCLES_50_MICRO);
 595:../src/platform/mpfs_hal/common/nwc/mss_ddr_debug.c ****             MSS_DDR_APB_ADDR = CFG_DDR_SGMII_PHY->gt_err_comb.gt_err_comb;
 596:../src/platform/mpfs_hal/common/nwc/mss_ddr_debug.c ****             uprint32(g_mss_uart_debug_pt, "\t ", MSS_DDR_APB_ADDR);
 597:../src/platform/mpfs_hal/common/nwc/mss_ddr_debug.c ****             t_status = t_status | MSS_DDR_APB_ADDR;
 598:../src/platform/mpfs_hal/common/nwc/mss_ddr_debug.c **** 
 599:../src/platform/mpfs_hal/common/nwc/mss_ddr_debug.c ****             MSS_DDR_APB_ADDR = CFG_DDR_SGMII_PHY->gt_txdly.gt_txdly;
 600:../src/platform/mpfs_hal/common/nwc/mss_ddr_debug.c ****             uprint32(g_mss_uart_debug_pt, "\t ", MSS_DDR_APB_ADDR);
 601:../src/platform/mpfs_hal/common/nwc/mss_ddr_debug.c **** 
 602:../src/platform/mpfs_hal/common/nwc/mss_ddr_debug.c ****             if((MSS_DDR_APB_ADDR & 0xFF) == 0)    t_status = 1;
 603:../src/platform/mpfs_hal/common/nwc/mss_ddr_debug.c ****             if((MSS_DDR_APB_ADDR & 0xFF00) == 0)  t_status = 1;
 604:../src/platform/mpfs_hal/common/nwc/mss_ddr_debug.c ****             if((MSS_DDR_APB_ADDR & 0xFF0000) == 0) t_status = 1;
 605:../src/platform/mpfs_hal/common/nwc/mss_ddr_debug.c ****             if((MSS_DDR_APB_ADDR & 0xFF000000) == 0) t_status = 1;
 606:../src/platform/mpfs_hal/common/nwc/mss_ddr_debug.c **** 
 607:../src/platform/mpfs_hal/common/nwc/mss_ddr_debug.c ****             uprint32(g_mss_uart_debug_pt, "\t ",\
 608:../src/platform/mpfs_hal/common/nwc/mss_ddr_debug.c ****                     CFG_DDR_SGMII_PHY->gt_steps_180.gt_steps_180);
 609:../src/platform/mpfs_hal/common/nwc/mss_ddr_debug.c ****             uprint32(g_mss_uart_debug_pt, "\t ",\
 610:../src/platform/mpfs_hal/common/nwc/mss_ddr_debug.c ****                     CFG_DDR_SGMII_PHY->gt_state.gt_state);
 611:../src/platform/mpfs_hal/common/nwc/mss_ddr_debug.c ****             uprint32(g_mss_uart_debug_pt, "\t ",\
 612:../src/platform/mpfs_hal/common/nwc/mss_ddr_debug.c ****                     CFG_DDR_SGMII_PHY->wl_delay_0.wl_delay_0);
 613:../src/platform/mpfs_hal/common/nwc/mss_ddr_debug.c ****             uprint32(g_mss_uart_debug_pt, "\t ",\
 614:../src/platform/mpfs_hal/common/nwc/mss_ddr_debug.c ****                     CFG_DDR_SGMII_PHY->dq_dqs_err_done.dq_dqs_err_done);
 615:../src/platform/mpfs_hal/common/nwc/mss_ddr_debug.c ****             t_status = t_status | (MSS_DDR_APB_ADDR  != 8);
 616:../src/platform/mpfs_hal/common/nwc/mss_ddr_debug.c **** 
 617:../src/platform/mpfs_hal/common/nwc/mss_ddr_debug.c ****             uprint32(g_mss_uart_debug_pt, "\t\t ",\
 618:../src/platform/mpfs_hal/common/nwc/mss_ddr_debug.c ****                     CFG_DDR_SGMII_PHY->dqdqs_state.dqdqs_state);
 619:../src/platform/mpfs_hal/common/nwc/mss_ddr_debug.c ****             uprint32(g_mss_uart_debug_pt, "\t ",\
 620:../src/platform/mpfs_hal/common/nwc/mss_ddr_debug.c ****                     CFG_DDR_SGMII_PHY->delta0.delta0);
 621:../src/platform/mpfs_hal/common/nwc/mss_ddr_debug.c ****             dq0_dly = (MSS_DDR_APB_ADDR & 0xFF);
 622:../src/platform/mpfs_hal/common/nwc/mss_ddr_debug.c ****             dq1_dly = (MSS_DDR_APB_ADDR & 0xFF00) >> 8;
 623:../src/platform/mpfs_hal/common/nwc/mss_ddr_debug.c ****             dq2_dly = (MSS_DDR_APB_ADDR & 0xFF0000) >> 16;
 624:../src/platform/mpfs_hal/common/nwc/mss_ddr_debug.c ****             dq3_dly = (MSS_DDR_APB_ADDR & 0xFF000000) >> 24;
 625:../src/platform/mpfs_hal/common/nwc/mss_ddr_debug.c ****             uprint32(g_mss_uart_debug_pt, "\t ",\
 626:../src/platform/mpfs_hal/common/nwc/mss_ddr_debug.c ****                     CFG_DDR_SGMII_PHY->delta1.delta1);
 627:../src/platform/mpfs_hal/common/nwc/mss_ddr_debug.c ****             dq4_dly = (MSS_DDR_APB_ADDR & 0xFF);
 628:../src/platform/mpfs_hal/common/nwc/mss_ddr_debug.c ****             dq5_dly = (MSS_DDR_APB_ADDR & 0xFF00) >> 8;
 629:../src/platform/mpfs_hal/common/nwc/mss_ddr_debug.c ****             dq2_dly = (MSS_DDR_APB_ADDR & 0xFF0000) >> 16;
 630:../src/platform/mpfs_hal/common/nwc/mss_ddr_debug.c ****             dq3_dly = (MSS_DDR_APB_ADDR & 0xFF000000) >> 24;
 631:../src/platform/mpfs_hal/common/nwc/mss_ddr_debug.c ****         }
 632:../src/platform/mpfs_hal/common/nwc/mss_ddr_debug.c **** 
 633:../src/platform/mpfs_hal/common/nwc/mss_ddr_debug.c ****         MSS_UART_polled_tx_string(g_mss_uart_debug_pt, (const uint8_t*)"\n\r\n\r lane_select\t rdqd
 634:../src/platform/mpfs_hal/common/nwc/mss_ddr_debug.c ****         for (ddr_lane_sel=0U; ddr_lane_sel < LIBERO_SETTING_DATA_LANES_USED;\
 635:../src/platform/mpfs_hal/common/nwc/mss_ddr_debug.c ****                                                                     ddr_lane_sel++)
 636:../src/platform/mpfs_hal/common/nwc/mss_ddr_debug.c ****         {
 637:../src/platform/mpfs_hal/common/nwc/mss_ddr_debug.c ****             CFG_DDR_SGMII_PHY->lane_select.lane_select = ddr_lane_sel;
 638:../src/platform/mpfs_hal/common/nwc/mss_ddr_debug.c ****             uprint32(g_mss_uart_debug_pt, "\n\r ",\
 639:../src/platform/mpfs_hal/common/nwc/mss_ddr_debug.c ****                                         CFG_DDR_SGMII_PHY->lane_select.lane_select);
 640:../src/platform/mpfs_hal/common/nwc/mss_ddr_debug.c ****             delay(DELAY_CYCLES_50_MICRO);
 641:../src/platform/mpfs_hal/common/nwc/mss_ddr_debug.c **** 
 642:../src/platform/mpfs_hal/common/nwc/mss_ddr_debug.c ****             if(dq0_dly > 20) t_status = 1;
 643:../src/platform/mpfs_hal/common/nwc/mss_ddr_debug.c ****             if(dq1_dly > 20) t_status = 1;
 644:../src/platform/mpfs_hal/common/nwc/mss_ddr_debug.c ****             if(dq2_dly > 20) t_status = 1;
 645:../src/platform/mpfs_hal/common/nwc/mss_ddr_debug.c ****             if(dq3_dly > 20) t_status = 1;
 646:../src/platform/mpfs_hal/common/nwc/mss_ddr_debug.c ****             if(dq4_dly > 20) t_status = 1;
 647:../src/platform/mpfs_hal/common/nwc/mss_ddr_debug.c ****             if(dq5_dly > 20) t_status = 1;
 648:../src/platform/mpfs_hal/common/nwc/mss_ddr_debug.c **** 
 649:../src/platform/mpfs_hal/common/nwc/mss_ddr_debug.c ****             uprint32(g_mss_uart_debug_pt, "\t ",\
 650:../src/platform/mpfs_hal/common/nwc/mss_ddr_debug.c ****                     CFG_DDR_SGMII_PHY->dqdqs_status2.dqdqs_status2);
 651:../src/platform/mpfs_hal/common/nwc/mss_ddr_debug.c **** 
 652:../src/platform/mpfs_hal/common/nwc/mss_ddr_debug.c ****             uprint32(g_mss_uart_debug_pt, "\t ",\
 653:../src/platform/mpfs_hal/common/nwc/mss_ddr_debug.c ****                     CFG_DDR_SGMII_PHY->addcmd_status0.addcmd_status0);
 654:../src/platform/mpfs_hal/common/nwc/mss_ddr_debug.c ****             uprint32(g_mss_uart_debug_pt, "\t ",\
 655:../src/platform/mpfs_hal/common/nwc/mss_ddr_debug.c ****                     CFG_DDR_SGMII_PHY->addcmd_status1.addcmd_status1);
 656:../src/platform/mpfs_hal/common/nwc/mss_ddr_debug.c ****             uprint32(g_mss_uart_debug_pt, "\t ",\
 657:../src/platform/mpfs_hal/common/nwc/mss_ddr_debug.c ****                     CFG_DDR_SGMII_PHY->addcmd_answer.addcmd_answer);
 658:../src/platform/mpfs_hal/common/nwc/mss_ddr_debug.c ****             uprint32(g_mss_uart_debug_pt, "\t ",\
 659:../src/platform/mpfs_hal/common/nwc/mss_ddr_debug.c ****                     CFG_DDR_SGMII_PHY->dqdqs_status1.dqdqs_status1);
 660:../src/platform/mpfs_hal/common/nwc/mss_ddr_debug.c **** 
 661:../src/platform/mpfs_hal/common/nwc/mss_ddr_debug.c ****         }
 662:../src/platform/mpfs_hal/common/nwc/mss_ddr_debug.c ****     } /* end rank select */
 663:../src/platform/mpfs_hal/common/nwc/mss_ddr_debug.c ****     return(t_status);
 664:../src/platform/mpfs_hal/common/nwc/mss_ddr_debug.c **** }
 665:../src/platform/mpfs_hal/common/nwc/mss_ddr_debug.c **** #endif
 666:../src/platform/mpfs_hal/common/nwc/mss_ddr_debug.c **** 
 667:../src/platform/mpfs_hal/common/nwc/mss_ddr_debug.c **** /**
 668:../src/platform/mpfs_hal/common/nwc/mss_ddr_debug.c ****  * Load a pattern to DDR
 669:../src/platform/mpfs_hal/common/nwc/mss_ddr_debug.c ****  */
 670:../src/platform/mpfs_hal/common/nwc/mss_ddr_debug.c **** void load_ddr_pattern(uint64_t base, uint32_t size, uint8_t pattern_offset)
 671:../src/platform/mpfs_hal/common/nwc/mss_ddr_debug.c **** {
 1263              		.loc 2 671 1
 1264              		.cfi_startproc
 1265 0000 3971     		addi	sp,sp,-64
 1266              		.cfi_def_cfa_offset 64
 1267 0002 06FC     		sd	ra,56(sp)
 1268 0004 22F8     		sd	s0,48(sp)
 1269              		.cfi_offset 1, -8
 1270              		.cfi_offset 8, -16
 1271 0006 8000     		addi	s0,sp,64
 1272              		.cfi_def_cfa 8, 0
 1273 0008 2334A4FC 		sd	a0,-56(s0)
 1274 000c AE87     		mv	a5,a1
 1275 000e 3287     		mv	a4,a2
 1276 0010 2322F4FC 		sw	a5,-60(s0)
 1277 0014 BA87     		mv	a5,a4
 1278 0016 A301F4FC 		sb	a5,-61(s0)
 672:../src/platform/mpfs_hal/common/nwc/mss_ddr_debug.c ****     int alive = 0;
 1279              		.loc 2 672 9
 1280 001a 232604FE 		sw	zero,-20(s0)
 673:../src/platform/mpfs_hal/common/nwc/mss_ddr_debug.c **** 
 674:../src/platform/mpfs_hal/common/nwc/mss_ddr_debug.c ****     uint8_t *p_ddr = (uint8_t *)base;
 1281              		.loc 2 674 14
 1282 001e 833784FC 		ld	a5,-56(s0)
 1283 0022 2330F4FE 		sd	a5,-32(s0)
 675:../src/platform/mpfs_hal/common/nwc/mss_ddr_debug.c ****     uint32_t pattern_length = (uint32_t)(sizeof(ddr_test_pattern) - pattern_offset) ;
 1284              		.loc 2 675 31
 1285 0026 834734FC 		lbu	a5,-61(s0)
 1286 002a 8127     		sext.w	a5,a5
 1287              		.loc 2 675 14
 1288 002c 0567     		li	a4,4096
 1289 002e 1B0707C0 		addiw	a4,a4,-1024
 1290 0032 BB07F740 		subw	a5,a4,a5
 1291 0036 232EF4FC 		sw	a5,-36(s0)
 676:../src/platform/mpfs_hal/common/nwc/mss_ddr_debug.c **** 
 677:../src/platform/mpfs_hal/common/nwc/mss_ddr_debug.c **** #ifdef DEBUG_DDR_INIT
 678:../src/platform/mpfs_hal/common/nwc/mss_ddr_debug.c ****     uprint(g_debug_uart, (const char*)(const uint8_t*)"\r\nLoading test pattern\r\n");
 679:../src/platform/mpfs_hal/common/nwc/mss_ddr_debug.c **** #endif
 680:../src/platform/mpfs_hal/common/nwc/mss_ddr_debug.c **** 
 681:../src/platform/mpfs_hal/common/nwc/mss_ddr_debug.c ****     while(((uint64_t)p_ddr + pattern_length) <  (base + size))
 1292              		.loc 2 681 10
 1293 003a 09AA     		j	.L83
 1294              	.L90:
 682:../src/platform/mpfs_hal/common/nwc/mss_ddr_debug.c ****     {
 683:../src/platform/mpfs_hal/common/nwc/mss_ddr_debug.c **** 
 684:../src/platform/mpfs_hal/common/nwc/mss_ddr_debug.c ****         switch ( ((uint64_t)p_ddr)%8U )
 1295              		.loc 2 684 19
 1296 003c 833704FE 		ld	a5,-32(s0)
 1297              		.loc 2 684 35
 1298 0040 9D8B     		andi	a5,a5,7
 1299              		.loc 2 684 9
 1300 0042 1D47     		li	a4,7
 1301 0044 636EF70C 		bgtu	a5,a4,.L84
 1302 0048 13972700 		slli	a4,a5,2
 1303 004c 97070000 		lla	a5,.L86
 1303      93870700 
 1304 0054 BA97     		add	a5,a4,a5
 1305 0056 9C43     		lw	a5,0(a5)
 1306 0058 1B870700 		sext.w	a4,a5
 1307 005c 97070000 		lla	a5,.L86
 1307      93870700 
 1308 0064 BA97     		add	a5,a4,a5
 1309 0066 8287     		jr	a5
 1310              		.section	.rodata.load_ddr_pattern,"a",@progbits
 1311              		.align	2
 1312              		.align	2
 1313              	.L86:
 1314 0000 00000000 		.word	.L89-.L86
 1315 0004 00000000 		.word	.L88-.L86
 1316 0008 00000000 		.word	.L87-.L86
 1317 000c 00000000 		.word	.L85-.L86
 1318 0010 00000000 		.word	.L89-.L86
 1319 0014 00000000 		.word	.L88-.L86
 1320 0018 00000000 		.word	.L87-.L86
 1321 001c 00000000 		.word	.L85-.L86
 1322              		.section	.text.load_ddr_pattern
 1323              	.L89:
 685:../src/platform/mpfs_hal/common/nwc/mss_ddr_debug.c ****         {
 686:../src/platform/mpfs_hal/common/nwc/mss_ddr_debug.c ****             case 0:
 687:../src/platform/mpfs_hal/common/nwc/mss_ddr_debug.c ****             case 4:
 688:../src/platform/mpfs_hal/common/nwc/mss_ddr_debug.c ****                 pdma_transfer_complete(PDMA_CHANNEL0_BASE_ADDRESS);
 1324              		.loc 2 688 17
 1325 0068 37050003 		li	a0,50331648
 1326 006c 97000000 		call	pdma_transfer_complete
 1326      E7800000 
 689:../src/platform/mpfs_hal/common/nwc/mss_ddr_debug.c ****                 pdma_transfer((uint64_t)p_ddr, (uint64_t)ddr_test_pattern, pattern_length, PDMA_CHA
 1327              		.loc 2 689 17
 1328 0074 833704FE 		ld	a5,-32(s0)
 1329 0078 17070000 		lla	a4,ddr_test_pattern
 1329      13070700 
 1330 0080 0366C4FD 		lwu	a2,-36(s0)
 1331 0084 B7060003 		li	a3,50331648
 1332 0088 BA85     		mv	a1,a4
 1333 008a 3E85     		mv	a0,a5
 1334 008c 97000000 		call	pdma_transfer
 1334      E7800000 
 690:../src/platform/mpfs_hal/common/nwc/mss_ddr_debug.c ****                 break;
 1335              		.loc 2 690 17
 1336 0094 71A0     		j	.L84
 1337              	.L88:
 691:../src/platform/mpfs_hal/common/nwc/mss_ddr_debug.c ****             case 1:
 692:../src/platform/mpfs_hal/common/nwc/mss_ddr_debug.c ****             case 5:
 693:../src/platform/mpfs_hal/common/nwc/mss_ddr_debug.c ****                 pdma_transfer_complete(PDMA_CHANNEL1_BASE_ADDRESS);
 1338              		.loc 2 693 17
 1339 0096 37150003 		li	a0,50335744
 1340 009a 97000000 		call	pdma_transfer_complete
 1340      E7800000 
 694:../src/platform/mpfs_hal/common/nwc/mss_ddr_debug.c ****                 pdma_transfer((uint64_t)p_ddr, (uint64_t)ddr_test_pattern, pattern_length, PDMA_CHA
 1341              		.loc 2 694 17
 1342 00a2 833704FE 		ld	a5,-32(s0)
 1343 00a6 17070000 		lla	a4,ddr_test_pattern
 1343      13070700 
 1344 00ae 0366C4FD 		lwu	a2,-36(s0)
 1345 00b2 B7160003 		li	a3,50335744
 1346 00b6 BA85     		mv	a1,a4
 1347 00b8 3E85     		mv	a0,a5
 1348 00ba 97000000 		call	pdma_transfer
 1348      E7800000 
 695:../src/platform/mpfs_hal/common/nwc/mss_ddr_debug.c ****                 break;
 1349              		.loc 2 695 17
 1350 00c2 B9A8     		j	.L84
 1351              	.L87:
 696:../src/platform/mpfs_hal/common/nwc/mss_ddr_debug.c ****             case 2:
 697:../src/platform/mpfs_hal/common/nwc/mss_ddr_debug.c ****             case 6:
 698:../src/platform/mpfs_hal/common/nwc/mss_ddr_debug.c ****                 pdma_transfer_complete(PDMA_CHANNEL2_BASE_ADDRESS);
 1352              		.loc 2 698 17
 1353 00c4 37250003 		li	a0,50339840
 1354 00c8 97000000 		call	pdma_transfer_complete
 1354      E7800000 
 699:../src/platform/mpfs_hal/common/nwc/mss_ddr_debug.c ****                 pdma_transfer((uint64_t)p_ddr, (uint64_t)ddr_test_pattern, pattern_length, PDMA_CHA
 1355              		.loc 2 699 17
 1356 00d0 833704FE 		ld	a5,-32(s0)
 1357 00d4 17070000 		lla	a4,ddr_test_pattern
 1357      13070700 
 1358 00dc 0366C4FD 		lwu	a2,-36(s0)
 1359 00e0 B7260003 		li	a3,50339840
 1360 00e4 BA85     		mv	a1,a4
 1361 00e6 3E85     		mv	a0,a5
 1362 00e8 97000000 		call	pdma_transfer
 1362      E7800000 
 700:../src/platform/mpfs_hal/common/nwc/mss_ddr_debug.c ****                 break;
 1363              		.loc 2 700 17
 1364 00f0 05A8     		j	.L84
 1365              	.L85:
 701:../src/platform/mpfs_hal/common/nwc/mss_ddr_debug.c ****             case 3:
 702:../src/platform/mpfs_hal/common/nwc/mss_ddr_debug.c ****             case 7:
 703:../src/platform/mpfs_hal/common/nwc/mss_ddr_debug.c ****                 pdma_transfer_complete(PDMA_CHANNEL3_BASE_ADDRESS);
 1366              		.loc 2 703 17
 1367 00f2 37350003 		li	a0,50343936
 1368 00f6 97000000 		call	pdma_transfer_complete
 1368      E7800000 
 704:../src/platform/mpfs_hal/common/nwc/mss_ddr_debug.c ****                 pdma_transfer((uint64_t)p_ddr, (uint64_t)ddr_test_pattern, pattern_length, PDMA_CHA
 1369              		.loc 2 704 17
 1370 00fe 833704FE 		ld	a5,-32(s0)
 1371 0102 17070000 		lla	a4,ddr_test_pattern
 1371      13070700 
 1372 010a 0366C4FD 		lwu	a2,-36(s0)
 1373 010e B7360003 		li	a3,50343936
 1374 0112 BA85     		mv	a1,a4
 1375 0114 3E85     		mv	a0,a5
 1376 0116 97000000 		call	pdma_transfer
 1376      E7800000 
 705:../src/platform/mpfs_hal/common/nwc/mss_ddr_debug.c ****                 break;
 1377              		.loc 2 705 17
 1378 011e 0100     		nop
 1379              	.L84:
 706:../src/platform/mpfs_hal/common/nwc/mss_ddr_debug.c ****         }
 707:../src/platform/mpfs_hal/common/nwc/mss_ddr_debug.c **** 
 708:../src/platform/mpfs_hal/common/nwc/mss_ddr_debug.c ****         p_ddr = p_ddr + (pattern_length);
 1380              		.loc 2 708 23
 1381 0120 8367C4FD 		lwu	a5,-36(s0)
 1382              		.loc 2 708 15
 1383 0124 033704FE 		ld	a4,-32(s0)
 1384 0128 BA97     		add	a5,a4,a5
 1385 012a 2330F4FE 		sd	a5,-32(s0)
 709:../src/platform/mpfs_hal/common/nwc/mss_ddr_debug.c ****         alive++;
 1386              		.loc 2 709 14
 1387 012e 8327C4FE 		lw	a5,-20(s0)
 1388 0132 8527     		addiw	a5,a5,1
 1389 0134 2326F4FE 		sw	a5,-20(s0)
 710:../src/platform/mpfs_hal/common/nwc/mss_ddr_debug.c ****         if (alive > 1000)
 1390              		.loc 2 710 12
 1391 0138 8327C4FE 		lw	a5,-20(s0)
 1392 013c 1B870700 		sext.w	a4,a5
 1393 0140 9307803E 		li	a5,1000
 1394 0144 63D4E700 		ble	a4,a5,.L83
 711:../src/platform/mpfs_hal/common/nwc/mss_ddr_debug.c ****         {
 712:../src/platform/mpfs_hal/common/nwc/mss_ddr_debug.c ****             alive = 0;
 1395              		.loc 2 712 19
 1396 0148 232604FE 		sw	zero,-20(s0)
 1397              	.L83:
 681:../src/platform/mpfs_hal/common/nwc/mss_ddr_debug.c ****     {
 1398              		.loc 2 681 28
 1399 014c 0367C4FD 		lwu	a4,-36(s0)
 681:../src/platform/mpfs_hal/common/nwc/mss_ddr_debug.c ****     {
 1400              		.loc 2 681 12
 1401 0150 833704FE 		ld	a5,-32(s0)
 681:../src/platform/mpfs_hal/common/nwc/mss_ddr_debug.c ****     {
 1402              		.loc 2 681 28
 1403 0154 3E97     		add	a4,a4,a5
 681:../src/platform/mpfs_hal/common/nwc/mss_ddr_debug.c ****     {
 1404              		.loc 2 681 55
 1405 0156 836644FC 		lwu	a3,-60(s0)
 1406 015a 833784FC 		ld	a5,-56(s0)
 1407 015e B697     		add	a5,a3,a5
 681:../src/platform/mpfs_hal/common/nwc/mss_ddr_debug.c ****     {
 1408              		.loc 2 681 10
 1409 0160 E36EF7EC 		bltu	a4,a5,.L90
 713:../src/platform/mpfs_hal/common/nwc/mss_ddr_debug.c **** #ifdef DEBUG_DDR_INIT
 714:../src/platform/mpfs_hal/common/nwc/mss_ddr_debug.c ****             uprint(g_debug_uart, (const char*)".");
 715:../src/platform/mpfs_hal/common/nwc/mss_ddr_debug.c **** #endif
 716:../src/platform/mpfs_hal/common/nwc/mss_ddr_debug.c ****         }
 717:../src/platform/mpfs_hal/common/nwc/mss_ddr_debug.c ****     }
 718:../src/platform/mpfs_hal/common/nwc/mss_ddr_debug.c **** #ifdef DEBUG_DDR_INIT
 719:../src/platform/mpfs_hal/common/nwc/mss_ddr_debug.c ****     uprint(g_debug_uart, (const char*)"\r\nFinished loading test pattern\r\n");
 720:../src/platform/mpfs_hal/common/nwc/mss_ddr_debug.c **** #endif
 721:../src/platform/mpfs_hal/common/nwc/mss_ddr_debug.c **** 
 722:../src/platform/mpfs_hal/common/nwc/mss_ddr_debug.c ****     pdma_transfer_complete(PDMA_CHANNEL0_BASE_ADDRESS);
 1410              		.loc 2 722 5
 1411 0164 37050003 		li	a0,50331648
 1412 0168 97000000 		call	pdma_transfer_complete
 1412      E7800000 
 723:../src/platform/mpfs_hal/common/nwc/mss_ddr_debug.c ****     pdma_transfer_complete(PDMA_CHANNEL1_BASE_ADDRESS);
 1413              		.loc 2 723 5
 1414 0170 37150003 		li	a0,50335744
 1415 0174 97000000 		call	pdma_transfer_complete
 1415      E7800000 
 724:../src/platform/mpfs_hal/common/nwc/mss_ddr_debug.c ****     pdma_transfer_complete(PDMA_CHANNEL2_BASE_ADDRESS);
 1416              		.loc 2 724 5
 1417 017c 37250003 		li	a0,50339840
 1418 0180 97000000 		call	pdma_transfer_complete
 1418      E7800000 
 725:../src/platform/mpfs_hal/common/nwc/mss_ddr_debug.c ****     pdma_transfer_complete(PDMA_CHANNEL3_BASE_ADDRESS);
 1419              		.loc 2 725 5
 1420 0188 37350003 		li	a0,50343936
 1421 018c 97000000 		call	pdma_transfer_complete
 1421      E7800000 
 726:../src/platform/mpfs_hal/common/nwc/mss_ddr_debug.c **** 
 727:../src/platform/mpfs_hal/common/nwc/mss_ddr_debug.c **** }
 1422              		.loc 2 727 1
 1423 0194 0100     		nop
 1424 0196 E270     		ld	ra,56(sp)
 1425              		.cfi_restore 1
 1426 0198 4274     		ld	s0,48(sp)
 1427              		.cfi_restore 8
 1428              		.cfi_def_cfa 2, 64
 1429 019a 2161     		addi	sp,sp,64
 1430              		.cfi_def_cfa_offset 0
 1431 019c 8280     		jr	ra
 1432              		.cfi_endproc
 1433              	.LFE27:
 1435              		.section	.text.execute_ddr_pattern,"ax",@progbits
 1436              		.align	1
 1437              		.globl	execute_ddr_pattern
 1439              	execute_ddr_pattern:
 1440              	.LFB28:
 728:../src/platform/mpfs_hal/common/nwc/mss_ddr_debug.c **** 
 729:../src/platform/mpfs_hal/common/nwc/mss_ddr_debug.c **** /**
 730:../src/platform/mpfs_hal/common/nwc/mss_ddr_debug.c ****  * Run from address
 731:../src/platform/mpfs_hal/common/nwc/mss_ddr_debug.c ****  * @param start_addr address to run from.
 732:../src/platform/mpfs_hal/common/nwc/mss_ddr_debug.c ****  */
 733:../src/platform/mpfs_hal/common/nwc/mss_ddr_debug.c **** void execute_ddr_pattern(uint64_t start_addr)
 734:../src/platform/mpfs_hal/common/nwc/mss_ddr_debug.c **** {
 1441              		.loc 2 734 1
 1442              		.cfi_startproc
 1443 0000 7971     		addi	sp,sp,-48
 1444              		.cfi_def_cfa_offset 48
 1445 0002 06F4     		sd	ra,40(sp)
 1446 0004 22F0     		sd	s0,32(sp)
 1447              		.cfi_offset 1, -8
 1448              		.cfi_offset 8, -16
 1449 0006 0018     		addi	s0,sp,48
 1450              		.cfi_def_cfa 8, 0
 1451 0008 233CA4FC 		sd	a0,-40(s0)
 735:../src/platform/mpfs_hal/common/nwc/mss_ddr_debug.c ****     pattern_fct_t p_pattern_fct = (pattern_fct_t)start_addr;
 1452              		.loc 2 735 19
 1453 000c 833784FD 		ld	a5,-40(s0)
 1454 0010 2334F4FE 		sd	a5,-24(s0)
 736:../src/platform/mpfs_hal/common/nwc/mss_ddr_debug.c **** 
 737:../src/platform/mpfs_hal/common/nwc/mss_ddr_debug.c ****     (*p_pattern_fct)();
 1455              		.loc 2 737 6
 1456 0014 833784FE 		ld	a5,-24(s0)
 1457 0018 8297     		jalr	a5
 1458              	.LVL0:
 738:../src/platform/mpfs_hal/common/nwc/mss_ddr_debug.c **** }
 1459              		.loc 2 738 1
 1460 001a 0100     		nop
 1461 001c A270     		ld	ra,40(sp)
 1462              		.cfi_restore 1
 1463 001e 0274     		ld	s0,32(sp)
 1464              		.cfi_restore 8
 1465              		.cfi_def_cfa 2, 48
 1466 0020 4561     		addi	sp,sp,48
 1467              		.cfi_def_cfa_offset 0
 1468 0022 8280     		jr	ra
 1469              		.cfi_endproc
 1470              	.LFE28:
 1472              		.section	.text.load_test_buffers,"ax",@progbits
 1473              		.align	1
 1475              	load_test_buffers:
 1476              	.LFB29:
 739:../src/platform/mpfs_hal/common/nwc/mss_ddr_debug.c **** 
 740:../src/platform/mpfs_hal/common/nwc/mss_ddr_debug.c **** /**
 741:../src/platform/mpfs_hal/common/nwc/mss_ddr_debug.c ****  * Loads DDR with a pattern that triggers read issues if not enough margin.
 742:../src/platform/mpfs_hal/common/nwc/mss_ddr_debug.c ****  * Used to verify training is successful.
 743:../src/platform/mpfs_hal/common/nwc/mss_ddr_debug.c ****  * @param p_cached_ddr
 744:../src/platform/mpfs_hal/common/nwc/mss_ddr_debug.c ****  * @param p_not_cached_ddr
 745:../src/platform/mpfs_hal/common/nwc/mss_ddr_debug.c ****  * @param length
 746:../src/platform/mpfs_hal/common/nwc/mss_ddr_debug.c ****  */
 747:../src/platform/mpfs_hal/common/nwc/mss_ddr_debug.c **** static void load_test_buffers(uint32_t * p_cached_ddr, uint32_t * p_not_cached_ddr, uint64_t length
 748:../src/platform/mpfs_hal/common/nwc/mss_ddr_debug.c **** {
 1477              		.loc 2 748 1
 1478              		.cfi_startproc
 1479 0000 7971     		addi	sp,sp,-48
 1480              		.cfi_def_cfa_offset 48
 1481 0002 06F4     		sd	ra,40(sp)
 1482 0004 22F0     		sd	s0,32(sp)
 1483              		.cfi_offset 1, -8
 1484              		.cfi_offset 8, -16
 1485 0006 0018     		addi	s0,sp,48
 1486              		.cfi_def_cfa 8, 0
 1487 0008 2334A4FE 		sd	a0,-24(s0)
 1488 000c 2330B4FE 		sd	a1,-32(s0)
 1489 0010 233CC4FC 		sd	a2,-40(s0)
 749:../src/platform/mpfs_hal/common/nwc/mss_ddr_debug.c ****     (void)length;
 750:../src/platform/mpfs_hal/common/nwc/mss_ddr_debug.c **** 
 751:../src/platform/mpfs_hal/common/nwc/mss_ddr_debug.c ****     pdma_transfer((uint64_t)g_test_buffer_cached, (uint64_t)p_cached_ddr, length,  PDMA_CHANNEL0_BA
 1490              		.loc 2 751 5
 1491 0014 97070000 		lla	a5,g_test_buffer_cached
 1491      93870700 
 1492 001c 033784FE 		ld	a4,-24(s0)
 1493 0020 B7060003 		li	a3,50331648
 1494 0024 033684FD 		ld	a2,-40(s0)
 1495 0028 BA85     		mv	a1,a4
 1496 002a 3E85     		mv	a0,a5
 1497 002c 97000000 		call	pdma_transfer
 1497      E7800000 
 752:../src/platform/mpfs_hal/common/nwc/mss_ddr_debug.c ****     pdma_transfer((uint64_t)g_test_buffer_not_cached, (uint64_t)p_not_cached_ddr, length,  PDMA_CHA
 1498              		.loc 2 752 5
 1499 0034 97070000 		lla	a5,g_test_buffer_not_cached
 1499      93870700 
 1500 003c 033704FE 		ld	a4,-32(s0)
 1501 0040 B7160003 		li	a3,50335744
 1502 0044 033684FD 		ld	a2,-40(s0)
 1503 0048 BA85     		mv	a1,a4
 1504 004a 3E85     		mv	a0,a5
 1505 004c 97000000 		call	pdma_transfer
 1505      E7800000 
 753:../src/platform/mpfs_hal/common/nwc/mss_ddr_debug.c ****     pdma_transfer_complete(PDMA_CHANNEL0_BASE_ADDRESS);
 1506              		.loc 2 753 5
 1507 0054 37050003 		li	a0,50331648
 1508 0058 97000000 		call	pdma_transfer_complete
 1508      E7800000 
 754:../src/platform/mpfs_hal/common/nwc/mss_ddr_debug.c ****     pdma_transfer_complete(PDMA_CHANNEL1_BASE_ADDRESS);
 1509              		.loc 2 754 5
 1510 0060 37150003 		li	a0,50335744
 1511 0064 97000000 		call	pdma_transfer_complete
 1511      E7800000 
 755:../src/platform/mpfs_hal/common/nwc/mss_ddr_debug.c **** }
 1512              		.loc 2 755 1
 1513 006c 0100     		nop
 1514 006e A270     		ld	ra,40(sp)
 1515              		.cfi_restore 1
 1516 0070 0274     		ld	s0,32(sp)
 1517              		.cfi_restore 8
 1518              		.cfi_def_cfa 2, 48
 1519 0072 4561     		addi	sp,sp,48
 1520              		.cfi_def_cfa_offset 0
 1521 0074 8280     		jr	ra
 1522              		.cfi_endproc
 1523              	.LFE29:
 1525              		.section	.text.test_ddr,"ax",@progbits
 1526              		.align	1
 1527              		.globl	test_ddr
 1529              	test_ddr:
 1530              	.LFB30:
 756:../src/platform/mpfs_hal/common/nwc/mss_ddr_debug.c **** 
 757:../src/platform/mpfs_hal/common/nwc/mss_ddr_debug.c **** /**
 758:../src/platform/mpfs_hal/common/nwc/mss_ddr_debug.c ****  * test_ddr reads from cached and non cached DDR and compares
 759:../src/platform/mpfs_hal/common/nwc/mss_ddr_debug.c ****  * @param no_of_iterations
 760:../src/platform/mpfs_hal/common/nwc/mss_ddr_debug.c ****  * @param size
 761:../src/platform/mpfs_hal/common/nwc/mss_ddr_debug.c ****  * @return returns 1 if compare fails
 762:../src/platform/mpfs_hal/common/nwc/mss_ddr_debug.c ****  */
 763:../src/platform/mpfs_hal/common/nwc/mss_ddr_debug.c **** uint32_t test_ddr(uint32_t no_of_iterations, uint32_t size)
 764:../src/platform/mpfs_hal/common/nwc/mss_ddr_debug.c **** {
 1531              		.loc 2 764 1
 1532              		.cfi_startproc
 1533 0000 5D71     		addi	sp,sp,-80
 1534              		.cfi_def_cfa_offset 80
 1535 0002 86E4     		sd	ra,72(sp)
 1536 0004 A2E0     		sd	s0,64(sp)
 1537              		.cfi_offset 1, -8
 1538              		.cfi_offset 8, -16
 1539 0006 8008     		addi	s0,sp,80
 1540              		.cfi_def_cfa 8, 0
 1541 0008 AA87     		mv	a5,a0
 1542 000a 2E87     		mv	a4,a1
 1543 000c 232EF4FA 		sw	a5,-68(s0)
 1544 0010 BA87     		mv	a5,a4
 1545 0012 232CF4FA 		sw	a5,-72(s0)
 765:../src/platform/mpfs_hal/common/nwc/mss_ddr_debug.c ****     uint32_t pattern_length = sizeof(ddr_test_pattern) - (3 * sizeof(uint32_t));
 1546              		.loc 2 765 14
 1547 0016 8567     		li	a5,4096
 1548 0018 938747BF 		addi	a5,a5,-1036
 1549 001c 2326F4FC 		sw	a5,-52(s0)
 766:../src/platform/mpfs_hal/common/nwc/mss_ddr_debug.c ****     uint32_t * p_ddr_cached = (uint32_t *)0x80000000;
 1550              		.loc 2 766 16
 1551 0020 8547     		li	a5,1
 1552 0022 FE07     		slli	a5,a5,31
 1553 0024 2334F4FE 		sd	a5,-24(s0)
 767:../src/platform/mpfs_hal/common/nwc/mss_ddr_debug.c ****     uint32_t * p_ddr_noncached = (uint32_t *)0x1400000000;
 1554              		.loc 2 767 16
 1555 0028 9547     		li	a5,5
 1556 002a 8A17     		slli	a5,a5,34
 1557 002c 2330F4FE 		sd	a5,-32(s0)
 768:../src/platform/mpfs_hal/common/nwc/mss_ddr_debug.c ****     uint32_t word_offset;
 769:../src/platform/mpfs_hal/common/nwc/mss_ddr_debug.c ****     uint32_t alive = 0;
 1558              		.loc 2 769 14
 1559 0030 232C04FC 		sw	zero,-40(s0)
 770:../src/platform/mpfs_hal/common/nwc/mss_ddr_debug.c ****     uint32_t alive_idx = 0U;
 1560              		.loc 2 770 14
 1561 0034 232A04FC 		sw	zero,-44(s0)
 771:../src/platform/mpfs_hal/common/nwc/mss_ddr_debug.c ****     uint32_t iteration = 0U;
 1562              		.loc 2 771 14
 1563 0038 232804FC 		sw	zero,-48(s0)
 772:../src/platform/mpfs_hal/common/nwc/mss_ddr_debug.c ****     uint32_t error = 0U;
 1564              		.loc 2 772 14
 1565 003c 232404FC 		sw	zero,-56(s0)
 773:../src/platform/mpfs_hal/common/nwc/mss_ddr_debug.c **** 
 774:../src/platform/mpfs_hal/common/nwc/mss_ddr_debug.c **** 
 775:../src/platform/mpfs_hal/common/nwc/mss_ddr_debug.c **** #ifdef DEBUG_DDR_INIT
 776:../src/platform/mpfs_hal/common/nwc/mss_ddr_debug.c ****     uprint(g_debug_uart, (const char*)"\r\nStarting ddr test\r\n");
 777:../src/platform/mpfs_hal/common/nwc/mss_ddr_debug.c **** #endif
 778:../src/platform/mpfs_hal/common/nwc/mss_ddr_debug.c ****     while(iteration < no_of_iterations)
 1566              		.loc 2 778 10
 1567 0040 95AA     		j	.L94
 1568              	.L104:
 1569              	.LBB6:
 779:../src/platform/mpfs_hal/common/nwc/mss_ddr_debug.c ****     {
 780:../src/platform/mpfs_hal/common/nwc/mss_ddr_debug.c ****         int different = 0;
 1570              		.loc 2 780 13
 1571 0042 232204FC 		sw	zero,-60(s0)
 781:../src/platform/mpfs_hal/common/nwc/mss_ddr_debug.c **** 
 782:../src/platform/mpfs_hal/common/nwc/mss_ddr_debug.c ****         load_test_buffers(p_ddr_cached, p_ddr_noncached, pattern_length);
 1572              		.loc 2 782 9
 1573 0046 8367C4FC 		lwu	a5,-52(s0)
 1574 004a 3E86     		mv	a2,a5
 1575 004c 833504FE 		ld	a1,-32(s0)
 1576 0050 033584FE 		ld	a0,-24(s0)
 1577 0054 97000000 		call	load_test_buffers
 1577      E7800000 
 783:../src/platform/mpfs_hal/common/nwc/mss_ddr_debug.c **** 
 784:../src/platform/mpfs_hal/common/nwc/mss_ddr_debug.c ****         different = memcmp(g_test_buffer_cached, g_test_buffer_not_cached, pattern_length);
 1578              		.loc 2 784 21
 1579 005c 8367C4FC 		lwu	a5,-52(s0)
 1580 0060 3E86     		mv	a2,a5
 1581 0062 97050000 		lla	a1,g_test_buffer_not_cached
 1581      93850500 
 1582 006a 17050000 		lla	a0,g_test_buffer_cached
 1582      13050500 
 1583 0072 97000000 		call	memcmp
 1583      E7800000 
 1584 007a AA87     		mv	a5,a0
 1585 007c 2322F4FC 		sw	a5,-60(s0)
 785:../src/platform/mpfs_hal/common/nwc/mss_ddr_debug.c **** 
 786:../src/platform/mpfs_hal/common/nwc/mss_ddr_debug.c ****         if(different != 0)
 1586              		.loc 2 786 11
 1587 0080 832744FC 		lw	a5,-60(s0)
 1588 0084 8127     		sext.w	a5,a5
 1589 0086 ADC3     		beq	a5,zero,.L95
 787:../src/platform/mpfs_hal/common/nwc/mss_ddr_debug.c ****         {
 788:../src/platform/mpfs_hal/common/nwc/mss_ddr_debug.c ****             for(word_offset = 0; word_offset < (pattern_length / sizeof(uint32_t)); word_offset++)
 1590              		.loc 2 788 29
 1591 0088 232E04FC 		sw	zero,-36(s0)
 1592              		.loc 2 788 13
 1593 008c 1DA8     		j	.L96
 1594              	.L99:
 789:../src/platform/mpfs_hal/common/nwc/mss_ddr_debug.c ****             {
 790:../src/platform/mpfs_hal/common/nwc/mss_ddr_debug.c ****                 if(g_test_buffer_cached[word_offset] != g_test_buffer_not_cached[word_offset])
 1595              		.loc 2 790 40
 1596 008e 17070000 		lla	a4,g_test_buffer_cached
 1596      13070700 
 1597 0096 8367C4FD 		lwu	a5,-36(s0)
 1598 009a 8A07     		slli	a5,a5,2
 1599 009c BA97     		add	a5,a4,a5
 1600 009e 9443     		lw	a3,0(a5)
 1601              		.loc 2 790 81
 1602 00a0 17070000 		lla	a4,g_test_buffer_not_cached
 1602      13070700 
 1603 00a8 8367C4FD 		lwu	a5,-36(s0)
 1604 00ac 8A07     		slli	a5,a5,2
 1605 00ae BA97     		add	a5,a4,a5
 1606 00b0 9C43     		lw	a5,0(a5)
 1607              		.loc 2 790 19
 1608 00b2 3687     		mv	a4,a3
 1609 00b4 6313F702 		bne	a4,a5,.L105
 788:../src/platform/mpfs_hal/common/nwc/mss_ddr_debug.c ****             {
 1610              		.loc 2 788 96 discriminator 2
 1611 00b8 8327C4FD 		lw	a5,-36(s0)
 1612 00bc 8527     		addiw	a5,a5,1
 1613 00be 232EF4FC 		sw	a5,-36(s0)
 1614              	.L96:
 788:../src/platform/mpfs_hal/common/nwc/mss_ddr_debug.c ****             {
 1615              		.loc 2 788 46 discriminator 1
 1616 00c2 8327C4FC 		lw	a5,-52(s0)
 1617 00c6 9BD72700 		srliw	a5,a5,2
 1618 00ca 1B870700 		sext.w	a4,a5
 788:../src/platform/mpfs_hal/common/nwc/mss_ddr_debug.c ****             {
 1619              		.loc 2 788 13 discriminator 1
 1620 00ce 8327C4FD 		lw	a5,-36(s0)
 1621 00d2 8127     		sext.w	a5,a5
 1622 00d4 E3EDE7FA 		bltu	a5,a4,.L99
 1623 00d8 11A0     		j	.L98
 1624              	.L105:
 791:../src/platform/mpfs_hal/common/nwc/mss_ddr_debug.c ****                 {
 792:../src/platform/mpfs_hal/common/nwc/mss_ddr_debug.c **** #ifdef DEBUG_DDR_INIT
 793:../src/platform/mpfs_hal/common/nwc/mss_ddr_debug.c ****                     uprint64(g_debug_uart, "  Mismatch, 0x", (uint64_t)p_ddr_cached);
 794:../src/platform/mpfs_hal/common/nwc/mss_ddr_debug.c ****                     uprint32(g_debug_uart, "  offset:, 0x", (uint64_t)word_offset);
 795:../src/platform/mpfs_hal/common/nwc/mss_ddr_debug.c ****                     uprint64(g_debug_uart, "  address: 0x", (uint64_t)(p_ddr_cached + word_offset))
 796:../src/platform/mpfs_hal/common/nwc/mss_ddr_debug.c ****                     uprint32(g_debug_uart, "  expected (non-cached): 0x", g_test_buffer_not_cached[
 797:../src/platform/mpfs_hal/common/nwc/mss_ddr_debug.c ****                     uprint32(g_debug_uart, "  found  (cached): 0x", (uint64_t)g_test_buffer_cached[
 798:../src/platform/mpfs_hal/common/nwc/mss_ddr_debug.c ****                     uprint32(g_debug_uart, "  direct cached read: 0x", (uint32_t)*(p_ddr_cached + w
 799:../src/platform/mpfs_hal/common/nwc/mss_ddr_debug.c ****                     uprint32(g_debug_uart, "  direct non-cached read: 0x", (uint32_t)*(p_ddr_noncac
 800:../src/platform/mpfs_hal/common/nwc/mss_ddr_debug.c **** #endif
 801:../src/platform/mpfs_hal/common/nwc/mss_ddr_debug.c ****                     break;
 1625              		.loc 2 801 21
 1626 00da 0100     		nop
 1627              	.L98:
 802:../src/platform/mpfs_hal/common/nwc/mss_ddr_debug.c ****                 }
 803:../src/platform/mpfs_hal/common/nwc/mss_ddr_debug.c ****             }
 804:../src/platform/mpfs_hal/common/nwc/mss_ddr_debug.c ****             error = 1U;
 1628              		.loc 2 804 19
 1629 00dc 8547     		li	a5,1
 1630 00de 2324F4FC 		sw	a5,-56(s0)
 805:../src/platform/mpfs_hal/common/nwc/mss_ddr_debug.c ****             return error;
 1631              		.loc 2 805 20
 1632 00e2 832784FC 		lw	a5,-56(s0)
 1633 00e6 CDA0     		j	.L100
 1634              	.L95:
 806:../src/platform/mpfs_hal/common/nwc/mss_ddr_debug.c ****         }
 807:../src/platform/mpfs_hal/common/nwc/mss_ddr_debug.c **** 
 808:../src/platform/mpfs_hal/common/nwc/mss_ddr_debug.c ****         if (((uint64_t)p_ddr_cached + ( 2 * pattern_length)) <  (LIBERO_SETTING_DDR_32_CACHE + size
 1635              		.loc 2 808 43
 1636 00e8 8327C4FC 		lw	a5,-52(s0)
 1637 00ec 9B971700 		slliw	a5,a5,1
 1638 00f0 8127     		sext.w	a5,a5
 1639 00f2 13970702 		slli	a4,a5,32
 1640 00f6 0193     		srli	a4,a4,32
 1641              		.loc 2 808 14
 1642 00f8 833784FE 		ld	a5,-24(s0)
 1643              		.loc 2 808 37
 1644 00fc 3E97     		add	a4,a4,a5
 1645              		.loc 2 808 94
 1646 00fe 832684FB 		lw	a3,-72(s0)
 1647 0102 B7070080 		li	a5,-2147483648
 1648 0106 B59F     		addw	a5,a3,a5
 1649 0108 8127     		sext.w	a5,a5
 1650 010a 8217     		slli	a5,a5,32
 1651 010c 8193     		srli	a5,a5,32
 1652              		.loc 2 808 12
 1653 010e 637DF702 		bgeu	a4,a5,.L101
 809:../src/platform/mpfs_hal/common/nwc/mss_ddr_debug.c ****         {
 810:../src/platform/mpfs_hal/common/nwc/mss_ddr_debug.c ****             p_ddr_cached += (pattern_length / sizeof(uint32_t));
 1654              		.loc 2 810 45
 1655 0112 8327C4FC 		lw	a5,-52(s0)
 1656 0116 9BD72700 		srliw	a5,a5,2
 1657 011a 8127     		sext.w	a5,a5
 1658 011c 8217     		slli	a5,a5,32
 1659 011e 8193     		srli	a5,a5,32
 1660              		.loc 2 810 26
 1661 0120 8A07     		slli	a5,a5,2
 1662 0122 033784FE 		ld	a4,-24(s0)
 1663 0126 BA97     		add	a5,a4,a5
 1664 0128 2334F4FE 		sd	a5,-24(s0)
 811:../src/platform/mpfs_hal/common/nwc/mss_ddr_debug.c ****             p_ddr_noncached += (pattern_length / sizeof(uint32_t));
 1665              		.loc 2 811 48
 1666 012c 8327C4FC 		lw	a5,-52(s0)
 1667 0130 9BD72700 		srliw	a5,a5,2
 1668 0134 8127     		sext.w	a5,a5
 1669 0136 8217     		slli	a5,a5,32
 1670 0138 8193     		srli	a5,a5,32
 1671              		.loc 2 811 29
 1672 013a 8A07     		slli	a5,a5,2
 1673 013c 033704FE 		ld	a4,-32(s0)
 1674 0140 BA97     		add	a5,a4,a5
 1675 0142 2330F4FE 		sd	a5,-32(s0)
 1676 0146 31A8     		j	.L102
 1677              	.L101:
 812:../src/platform/mpfs_hal/common/nwc/mss_ddr_debug.c ****         }
 813:../src/platform/mpfs_hal/common/nwc/mss_ddr_debug.c ****         else
 814:../src/platform/mpfs_hal/common/nwc/mss_ddr_debug.c ****         {
 815:../src/platform/mpfs_hal/common/nwc/mss_ddr_debug.c ****             p_ddr_cached = (uint32_t *)0x80000000;
 1678              		.loc 2 815 26
 1679 0148 8547     		li	a5,1
 1680 014a FE07     		slli	a5,a5,31
 1681 014c 2334F4FE 		sd	a5,-24(s0)
 816:../src/platform/mpfs_hal/common/nwc/mss_ddr_debug.c ****             p_ddr_noncached = (uint32_t *)0x1400000000;
 1682              		.loc 2 816 29
 1683 0150 9547     		li	a5,5
 1684 0152 8A17     		slli	a5,a5,34
 1685 0154 2330F4FE 		sd	a5,-32(s0)
 817:../src/platform/mpfs_hal/common/nwc/mss_ddr_debug.c ****             iteration++;
 1686              		.loc 2 817 22
 1687 0158 832704FD 		lw	a5,-48(s0)
 1688 015c 8527     		addiw	a5,a5,1
 1689 015e 2328F4FC 		sw	a5,-48(s0)
 1690              	.L102:
 818:../src/platform/mpfs_hal/common/nwc/mss_ddr_debug.c **** #ifdef DEBUG_DDR_INIT
 819:../src/platform/mpfs_hal/common/nwc/mss_ddr_debug.c ****             uprint32(g_debug_uart, "  Iteration ", (uint64_t)(unsigned int)iteration);
 820:../src/platform/mpfs_hal/common/nwc/mss_ddr_debug.c **** #endif
 821:../src/platform/mpfs_hal/common/nwc/mss_ddr_debug.c ****         }
 822:../src/platform/mpfs_hal/common/nwc/mss_ddr_debug.c **** 
 823:../src/platform/mpfs_hal/common/nwc/mss_ddr_debug.c ****         alive++;
 1691              		.loc 2 823 14
 1692 0162 832784FD 		lw	a5,-40(s0)
 1693 0166 8527     		addiw	a5,a5,1
 1694 0168 232CF4FC 		sw	a5,-40(s0)
 824:../src/platform/mpfs_hal/common/nwc/mss_ddr_debug.c ****         if(alive > 10000U)
 1695              		.loc 2 824 11
 1696 016c 832784FD 		lw	a5,-40(s0)
 1697 0170 1B870700 		sext.w	a4,a5
 1698 0174 8967     		li	a5,8192
 1699 0176 93870771 		addi	a5,a5,1808
 1700 017a 63FDE702 		bleu	a4,a5,.L94
 825:../src/platform/mpfs_hal/common/nwc/mss_ddr_debug.c ****         {
 826:../src/platform/mpfs_hal/common/nwc/mss_ddr_debug.c ****             alive = 0;
 1701              		.loc 2 826 19
 1702 017e 232C04FC 		sw	zero,-40(s0)
 827:../src/platform/mpfs_hal/common/nwc/mss_ddr_debug.c **** #ifdef DEBUG_DDR_INIT
 828:../src/platform/mpfs_hal/common/nwc/mss_ddr_debug.c ****             uprint(g_debug_uart, (const char*)"\r");
 829:../src/platform/mpfs_hal/common/nwc/mss_ddr_debug.c ****             uprint(g_debug_uart, (const char*)progress[alive_idx]);
 830:../src/platform/mpfs_hal/common/nwc/mss_ddr_debug.c **** #endif
 831:../src/platform/mpfs_hal/common/nwc/mss_ddr_debug.c ****             alive_idx++;
 1703              		.loc 2 831 22
 1704 0182 832744FD 		lw	a5,-44(s0)
 1705 0186 8527     		addiw	a5,a5,1
 1706 0188 232AF4FC 		sw	a5,-44(s0)
 832:../src/platform/mpfs_hal/common/nwc/mss_ddr_debug.c ****             if(alive_idx >= 3U)
 1707              		.loc 2 832 15
 1708 018c 832744FD 		lw	a5,-44(s0)
 1709 0190 1B870700 		sext.w	a4,a5
 1710 0194 8947     		li	a5,2
 1711 0196 63F4E700 		bleu	a4,a5,.L103
 833:../src/platform/mpfs_hal/common/nwc/mss_ddr_debug.c ****             {
 834:../src/platform/mpfs_hal/common/nwc/mss_ddr_debug.c ****                 alive_idx = 0;
 1712              		.loc 2 834 27
 1713 019a 232A04FC 		sw	zero,-44(s0)
 1714              	.L103:
 835:../src/platform/mpfs_hal/common/nwc/mss_ddr_debug.c ****             }
 836:../src/platform/mpfs_hal/common/nwc/mss_ddr_debug.c ****             if(ddr_test == 2U)
 1715              		.loc 2 836 25
 1716 019e 97070000 		lla	a5,ddr_test
 1716      93870700 
 1717 01a6 9863     		ld	a4,0(a5)
 1718              		.loc 2 836 15
 1719 01a8 8947     		li	a5,2
 1720 01aa 6315F700 		bne	a4,a5,.L94
 837:../src/platform/mpfs_hal/common/nwc/mss_ddr_debug.c ****             {
 838:../src/platform/mpfs_hal/common/nwc/mss_ddr_debug.c **** #ifdef DEBUG_DDR_INIT
 839:../src/platform/mpfs_hal/common/nwc/mss_ddr_debug.c ****             uprint(g_debug_uart, (const char*)"\r\nEnding ddr test. Press 0 to display the menu\r\n
 840:../src/platform/mpfs_hal/common/nwc/mss_ddr_debug.c **** #endif
 841:../src/platform/mpfs_hal/common/nwc/mss_ddr_debug.c ****                 return error;
 1721              		.loc 2 841 24
 1722 01ae 832784FC 		lw	a5,-56(s0)
 1723 01b2 19A8     		j	.L100
 1724              	.L94:
 1725              	.LBE6:
 778:../src/platform/mpfs_hal/common/nwc/mss_ddr_debug.c ****     {
 1726              		.loc 2 778 10
 1727 01b4 032704FD 		lw	a4,-48(s0)
 1728 01b8 8327C4FB 		lw	a5,-68(s0)
 1729 01bc 0127     		sext.w	a4,a4
 1730 01be 8127     		sext.w	a5,a5
 1731 01c0 E361F7E8 		bltu	a4,a5,.L104
 842:../src/platform/mpfs_hal/common/nwc/mss_ddr_debug.c ****             }
 843:../src/platform/mpfs_hal/common/nwc/mss_ddr_debug.c ****         }
 844:../src/platform/mpfs_hal/common/nwc/mss_ddr_debug.c ****     }
 845:../src/platform/mpfs_hal/common/nwc/mss_ddr_debug.c ****     return error;
 1732              		.loc 2 845 12
 1733 01c4 832784FC 		lw	a5,-56(s0)
 1734              	.L100:
 846:../src/platform/mpfs_hal/common/nwc/mss_ddr_debug.c **** }
 1735              		.loc 2 846 1
 1736 01c8 3E85     		mv	a0,a5
 1737 01ca A660     		ld	ra,72(sp)
 1738              		.cfi_restore 1
 1739 01cc 0664     		ld	s0,64(sp)
 1740              		.cfi_restore 8
 1741              		.cfi_def_cfa 2, 80
 1742 01ce 6161     		addi	sp,sp,80
 1743              		.cfi_def_cfa_offset 0
 1744 01d0 8280     		jr	ra
 1745              		.cfi_endproc
 1746              	.LFE30:
 1748              		.section	.rodata
 1749 0013 00000000 		.align	3
 1749      00
 1750              	.LC3:
 1751 0018 CCCCCCCC 		.dword	-3689348814741910324
 1751      CCCCCCCC 
 1752              		.align	3
 1753              	.LC4:
 1754 0020 55555555 		.dword	6148914691236517205
 1754      55555555 
 1755              		.text
 1756              	.Letext0:
 1757              		.file 3 "/home/vinay/Desktop/soft_console/SoftConsole-v2022.2-RISC-V-747/riscv-unknown-elf-gcc/ris
 1758              		.file 4 "/home/vinay/Desktop/soft_console/SoftConsole-v2022.2-RISC-V-747/riscv-unknown-elf-gcc/lib
 1759              		.file 5 "/home/vinay/Desktop/soft_console/SoftConsole-v2022.2-RISC-V-747/riscv-unknown-elf-gcc/ris
 1760              		.file 6 "/home/vinay/Desktop/soft_console/SoftConsole-v2022.2-RISC-V-747/riscv-unknown-elf-gcc/ris
 1761              		.file 7 "/home/vinay/Desktop/soft_console/SoftConsole-v2022.2-RISC-V-747/riscv-unknown-elf-gcc/ris
 1762              		.file 8 "/home/vinay/Desktop/soft_console/SoftConsole-v2022.2-RISC-V-747/riscv-unknown-elf-gcc/ris
 1763              		.file 9 "/home/vinay/Desktop/soft_console/SoftConsole-v2022.2-RISC-V-747/riscv-unknown-elf-gcc/ris
 1764              		.file 10 "/home/vinay/Desktop/softconsole_watershed/Water-shed/src/platform/mpfs_hal/common/nwc/ms
 1765              		.file 11 "/home/vinay/Desktop/softconsole_watershed/Water-shed/src/platform/mpfs_hal/common/nwc/ms
 1766              		.file 12 "/home/vinay/Desktop/softconsole_watershed/Water-shed/src/platform/mpfs_hal/common/nwc/ms
 1767              		.file 13 "/home/vinay/Desktop/softconsole_watershed/Water-shed/src/platform/mpfs_hal/common/mss_mp
 1768              		.file 14 "/home/vinay/Desktop/softconsole_watershed/Water-shed/src/platform/mpfs_hal/common/mss_pl
 1769              		.file 15 "/home/vinay/Desktop/softconsole_watershed/Water-shed/src/platform/mpfs_hal/startup_gcc/s
 1770              		.file 16 "/home/vinay/Desktop/softconsole_watershed/Water-shed/src/platform/mpfs_hal/common/nwc/ms