   1              		.file	"mss_io.c"
   2              		.option nopic
   3              		.attribute arch, "rv64i2p0_m2p0_a2p0_f2p0_d2p0_c2p0"
   4              		.attribute unaligned_access, 0
   5              		.attribute stack_align, 16
   6              		.text
   7              	.Ltext0:
   8              		.cfi_sections	.debug_frame
   9              		.globl	iomux_config_values
  10              		.section	.data.iomux_config_values,"aw"
  11              		.align	3
  14              	iomux_config_values:
  15 0000 DD0F0000 		.word	4061
  16 0004 00000000 		.word	0
  17 0008 00000000 		.word	0
  18 000c 44444444 		.word	1145324612
  19 0010 4444CC88 		.word	-1999879100
  20 0014 333377F7 		.word	-143183053
  21 0018 1D000000 		.word	29
  22              		.globl	mssio_bank4_io_config
  23              		.section	.data.mssio_bank4_io_config,"aw"
  24              		.align	3
  27              	mssio_bank4_io_config:
  28 0000 30093009 		.word	154143024
  29 0004 30093009 		.word	154143024
  30 0008 30093009 		.word	154143024
  31 000c 28092809 		.word	153618728
  32 0010 30093009 		.word	154143024
  33 0014 30093009 		.word	154143024
  34 0018 30093009 		.word	154143024
  35              		.globl	mssio_bank2_io_config
  36              		.section	.data.mssio_bank2_io_config,"aw"
  37              		.align	3
  40              	mssio_bank2_io_config:
  41 0000 29082908 		.word	136906793
  42 0004 29082908 		.word	136906793
  43 0008 29082908 		.word	136906793
  44 000c 29082908 		.word	136906793
  45 0010 29082908 		.word	136906793
  46 0014 29082908 		.word	136906793
  47 0018 29082908 		.word	136906793
  48 001c 29082908 		.word	136906793
  49 0020 29082908 		.word	136906793
  50 0024 29082908 		.word	136906793
  51 0028 29082908 		.word	136906793
  52 002c 29082908 		.word	136906793
  53              		.section	.text.mssio_setup,"ax",@progbits
  54              		.align	1
  55              		.globl	mssio_setup
  57              	mssio_setup:
  58              	.LFB23:
  59              		.file 1 "../src/platform/mpfs_hal/common/nwc/mss_io.c"
   1:../src/platform/mpfs_hal/common/nwc/mss_io.c **** /*******************************************************************************
   2:../src/platform/mpfs_hal/common/nwc/mss_io.c ****  * Copyright 2019-2022 Microchip FPGA Embedded Systems Solutions.
   3:../src/platform/mpfs_hal/common/nwc/mss_io.c ****  *
   4:../src/platform/mpfs_hal/common/nwc/mss_io.c ****  * SPDX-License-Identifier: MIT
   5:../src/platform/mpfs_hal/common/nwc/mss_io.c ****  *
   6:../src/platform/mpfs_hal/common/nwc/mss_io.c ****  * MPFS HAL Embedded Software
   7:../src/platform/mpfs_hal/common/nwc/mss_io.c ****  *
   8:../src/platform/mpfs_hal/common/nwc/mss_io.c ****  */
   9:../src/platform/mpfs_hal/common/nwc/mss_io.c **** 
  10:../src/platform/mpfs_hal/common/nwc/mss_io.c **** /*******************************************************************************
  11:../src/platform/mpfs_hal/common/nwc/mss_io.c ****  * @file mss_io.h
  12:../src/platform/mpfs_hal/common/nwc/mss_io.c ****  * @author Microchip-FPGA Embedded Systems Solutions
  13:../src/platform/mpfs_hal/common/nwc/mss_io.c ****  * @brief MSS IO related code
  14:../src/platform/mpfs_hal/common/nwc/mss_io.c ****  *
  15:../src/platform/mpfs_hal/common/nwc/mss_io.c ****  */
  16:../src/platform/mpfs_hal/common/nwc/mss_io.c **** #include <string.h>
  17:../src/platform/mpfs_hal/common/nwc/mss_io.c **** #include <stdio.h>
  18:../src/platform/mpfs_hal/common/nwc/mss_io.c **** 
  19:../src/platform/mpfs_hal/common/nwc/mss_io.c **** #include "mpfs_hal/mss_hal.h"
  20:../src/platform/mpfs_hal/common/nwc/mss_io.c **** #ifdef LIBERO_SETTING_ALT_IOMUX1_CR
  21:../src/platform/mpfs_hal/common/nwc/mss_io.c **** #if ((LIBERO_SETTING_MSSIO_CONFIGURATION_OPTIONS & (EMMC_CONFIGURED_MASK | SD_CONFIGURED_MASK)) == 
  22:../src/platform/mpfs_hal/common/nwc/mss_io.c **** static uint8_t io_mux_and_bank_config_alt(void);
  23:../src/platform/mpfs_hal/common/nwc/mss_io.c **** #endif
  24:../src/platform/mpfs_hal/common/nwc/mss_io.c **** #endif
  25:../src/platform/mpfs_hal/common/nwc/mss_io.c **** 
  26:../src/platform/mpfs_hal/common/nwc/mss_io.c **** /*******************************************************************************
  27:../src/platform/mpfs_hal/common/nwc/mss_io.c ****  * external functions
  28:../src/platform/mpfs_hal/common/nwc/mss_io.c ****  */
  29:../src/platform/mpfs_hal/common/nwc/mss_io.c **** 
  30:../src/platform/mpfs_hal/common/nwc/mss_io.c **** 
  31:../src/platform/mpfs_hal/common/nwc/mss_io.c **** /*
  32:../src/platform/mpfs_hal/common/nwc/mss_io.c ****  * IOMUX values from Libero
  33:../src/platform/mpfs_hal/common/nwc/mss_io.c ****  */
  34:../src/platform/mpfs_hal/common/nwc/mss_io.c **** IOMUX_CONFIG   iomux_config_values = {
  35:../src/platform/mpfs_hal/common/nwc/mss_io.c ****     LIBERO_SETTING_IOMUX0_CR, /* Selects whether the peripheral is connected to
  36:../src/platform/mpfs_hal/common/nwc/mss_io.c ****                                  the Fabric or IOMUX structure. */
  37:../src/platform/mpfs_hal/common/nwc/mss_io.c ****     LIBERO_SETTING_IOMUX1_CR, /* BNK4 SDV PAD 0 to 7, each IO has 4 bits   */
  38:../src/platform/mpfs_hal/common/nwc/mss_io.c ****     LIBERO_SETTING_IOMUX2_CR, /* BNK4 SDV PAD 8 to 13     */
  39:../src/platform/mpfs_hal/common/nwc/mss_io.c ****     LIBERO_SETTING_IOMUX3_CR, /* BNK2 SDV PAD 14 to 21    */
  40:../src/platform/mpfs_hal/common/nwc/mss_io.c ****     LIBERO_SETTING_IOMUX4_CR, /* BNK2 SDV PAD 22 to 29    */
  41:../src/platform/mpfs_hal/common/nwc/mss_io.c ****     LIBERO_SETTING_IOMUX5_CR, /* BNK2 PAD 30 to 37        */
  42:../src/platform/mpfs_hal/common/nwc/mss_io.c ****     LIBERO_SETTING_IOMUX6_CR  /* Sets whether the MMC/SD Voltage select lines
  43:../src/platform/mpfs_hal/common/nwc/mss_io.c ****                                  are inverted on entry to the IOMUX structure */
  44:../src/platform/mpfs_hal/common/nwc/mss_io.c **** };
  45:../src/platform/mpfs_hal/common/nwc/mss_io.c **** 
  46:../src/platform/mpfs_hal/common/nwc/mss_io.c **** #ifdef LIBERO_SETTING_ALT_IOMUX1_CR
  47:../src/platform/mpfs_hal/common/nwc/mss_io.c **** IOMUX_CONFIG   iomux_alt_config_values = {
  48:../src/platform/mpfs_hal/common/nwc/mss_io.c ****     LIBERO_SETTING_ALT_IOMUX0_CR, /* Selects whether the peripheral is connected to
  49:../src/platform/mpfs_hal/common/nwc/mss_io.c ****                                  the Fabric or IOMUX structure. */
  50:../src/platform/mpfs_hal/common/nwc/mss_io.c ****     LIBERO_SETTING_ALT_IOMUX1_CR, /* BNK4 SDV PAD 0 to 7, each IO has 4 bits   */
  51:../src/platform/mpfs_hal/common/nwc/mss_io.c ****     LIBERO_SETTING_ALT_IOMUX2_CR, /* BNK4 SDV PAD 8 to 13     */
  52:../src/platform/mpfs_hal/common/nwc/mss_io.c ****     LIBERO_SETTING_ALT_IOMUX3_CR, /* BNK2 SDV PAD 14 to 21    */
  53:../src/platform/mpfs_hal/common/nwc/mss_io.c ****     LIBERO_SETTING_ALT_IOMUX4_CR, /* BNK2 SDV PAD 22 to 29    */
  54:../src/platform/mpfs_hal/common/nwc/mss_io.c ****     LIBERO_SETTING_ALT_IOMUX5_CR, /* BNK2 PAD 30 to 37        */
  55:../src/platform/mpfs_hal/common/nwc/mss_io.c ****     LIBERO_SETTING_ALT_IOMUX6_CR  /* Sets whether the MMC/SD Voltage select lines
  56:../src/platform/mpfs_hal/common/nwc/mss_io.c ****                                  are inverted on entry to the IOMUX structure */
  57:../src/platform/mpfs_hal/common/nwc/mss_io.c **** };
  58:../src/platform/mpfs_hal/common/nwc/mss_io.c **** #endif
  59:../src/platform/mpfs_hal/common/nwc/mss_io.c **** 
  60:../src/platform/mpfs_hal/common/nwc/mss_io.c **** /*
  61:../src/platform/mpfs_hal/common/nwc/mss_io.c ****  * Bank 4 and 2 settings, the 38 MSSIO.
  62:../src/platform/mpfs_hal/common/nwc/mss_io.c ****  */
  63:../src/platform/mpfs_hal/common/nwc/mss_io.c **** MSSIO_BANK4_CONFIG mssio_bank4_io_config = {
  64:../src/platform/mpfs_hal/common/nwc/mss_io.c ****     /* LIBERO_SETTING_mssio_bank4_io_cfg_0_cr
  65:../src/platform/mpfs_hal/common/nwc/mss_io.c ****         x_vddi Ratio Rx<0-2> == 001
  66:../src/platform/mpfs_hal/common/nwc/mss_io.c ****         drv<3-6> == 1111
  67:../src/platform/mpfs_hal/common/nwc/mss_io.c ****         7:clamp   == 0
  68:../src/platform/mpfs_hal/common/nwc/mss_io.c ****         enhyst   == 0
  69:../src/platform/mpfs_hal/common/nwc/mss_io.c ****         lockdn_en == 1
  70:../src/platform/mpfs_hal/common/nwc/mss_io.c ****         10:wpd  == 0
  71:../src/platform/mpfs_hal/common/nwc/mss_io.c ****         atp_en`== 0
  72:../src/platform/mpfs_hal/common/nwc/mss_io.c ****         lpmd_ibuf  == 0
  73:../src/platform/mpfs_hal/common/nwc/mss_io.c ****         lpmd_obuf == 0
  74:../src/platform/mpfs_hal/common/nwc/mss_io.c ****         persist == 0
  75:../src/platform/mpfs_hal/common/nwc/mss_io.c ****         */
  76:../src/platform/mpfs_hal/common/nwc/mss_io.c ****     LIBERO_SETTING_MSSIO_BANK4_IO_CFG_0_1_CR,
  77:../src/platform/mpfs_hal/common/nwc/mss_io.c ****     LIBERO_SETTING_MSSIO_BANK4_IO_CFG_2_3_CR,
  78:../src/platform/mpfs_hal/common/nwc/mss_io.c ****     LIBERO_SETTING_MSSIO_BANK4_IO_CFG_4_5_CR,
  79:../src/platform/mpfs_hal/common/nwc/mss_io.c ****     LIBERO_SETTING_MSSIO_BANK4_IO_CFG_6_7_CR,
  80:../src/platform/mpfs_hal/common/nwc/mss_io.c ****     LIBERO_SETTING_MSSIO_BANK4_IO_CFG_8_9_CR,
  81:../src/platform/mpfs_hal/common/nwc/mss_io.c ****     LIBERO_SETTING_MSSIO_BANK4_IO_CFG_10_11_CR,
  82:../src/platform/mpfs_hal/common/nwc/mss_io.c ****     LIBERO_SETTING_MSSIO_BANK4_IO_CFG_12_13_CR,
  83:../src/platform/mpfs_hal/common/nwc/mss_io.c **** };
  84:../src/platform/mpfs_hal/common/nwc/mss_io.c **** 
  85:../src/platform/mpfs_hal/common/nwc/mss_io.c **** /*
  86:../src/platform/mpfs_hal/common/nwc/mss_io.c ****  * Bank 4 and 2 settings, the 38 MSSIO.
  87:../src/platform/mpfs_hal/common/nwc/mss_io.c ****  */
  88:../src/platform/mpfs_hal/common/nwc/mss_io.c **** #ifdef LIBERO_SETTING_ALT_IOMUX1_CR
  89:../src/platform/mpfs_hal/common/nwc/mss_io.c **** MSSIO_BANK4_CONFIG mssio_alt_bank4_io_config = {
  90:../src/platform/mpfs_hal/common/nwc/mss_io.c ****     /* LIBERO_SETTING_mssio_bank4_io_cfg_0_cr
  91:../src/platform/mpfs_hal/common/nwc/mss_io.c ****         x_vddi Ratio Rx<0-2> == 001
  92:../src/platform/mpfs_hal/common/nwc/mss_io.c ****         drv<3-6> == 1111
  93:../src/platform/mpfs_hal/common/nwc/mss_io.c ****         7:clamp   == 0
  94:../src/platform/mpfs_hal/common/nwc/mss_io.c ****         enhyst   == 0
  95:../src/platform/mpfs_hal/common/nwc/mss_io.c ****         lockdn_en == 1
  96:../src/platform/mpfs_hal/common/nwc/mss_io.c ****         10:wpd  == 0
  97:../src/platform/mpfs_hal/common/nwc/mss_io.c ****         atp_en`== 0
  98:../src/platform/mpfs_hal/common/nwc/mss_io.c ****         lpmd_ibuf  == 0
  99:../src/platform/mpfs_hal/common/nwc/mss_io.c ****         lpmd_obuf == 0
 100:../src/platform/mpfs_hal/common/nwc/mss_io.c ****         persist == 0
 101:../src/platform/mpfs_hal/common/nwc/mss_io.c ****         */
 102:../src/platform/mpfs_hal/common/nwc/mss_io.c ****     LIBERO_SETTING_ALT_MSSIO_BANK4_IO_CFG_0_1_CR,
 103:../src/platform/mpfs_hal/common/nwc/mss_io.c ****     LIBERO_SETTING_ALT_MSSIO_BANK4_IO_CFG_2_3_CR,
 104:../src/platform/mpfs_hal/common/nwc/mss_io.c ****     LIBERO_SETTING_ALT_MSSIO_BANK4_IO_CFG_4_5_CR,
 105:../src/platform/mpfs_hal/common/nwc/mss_io.c ****     LIBERO_SETTING_ALT_MSSIO_BANK4_IO_CFG_6_7_CR,
 106:../src/platform/mpfs_hal/common/nwc/mss_io.c ****     LIBERO_SETTING_ALT_MSSIO_BANK4_IO_CFG_8_9_CR,
 107:../src/platform/mpfs_hal/common/nwc/mss_io.c ****     LIBERO_SETTING_ALT_MSSIO_BANK4_IO_CFG_10_11_CR,
 108:../src/platform/mpfs_hal/common/nwc/mss_io.c ****     LIBERO_SETTING_ALT_MSSIO_BANK4_IO_CFG_12_13_CR,
 109:../src/platform/mpfs_hal/common/nwc/mss_io.c **** };
 110:../src/platform/mpfs_hal/common/nwc/mss_io.c **** #endif
 111:../src/platform/mpfs_hal/common/nwc/mss_io.c **** 
 112:../src/platform/mpfs_hal/common/nwc/mss_io.c **** /*
 113:../src/platform/mpfs_hal/common/nwc/mss_io.c ****  * Bank 4 and 2 settings, the 38 MSSIO.
 114:../src/platform/mpfs_hal/common/nwc/mss_io.c ****  */
 115:../src/platform/mpfs_hal/common/nwc/mss_io.c **** MSSIO_BANK2_CONFIG mssio_bank2_io_config = {
 116:../src/platform/mpfs_hal/common/nwc/mss_io.c ****     /* LIBERO_SETTING_mssio_bank4_io_cfg_0_cr
 117:../src/platform/mpfs_hal/common/nwc/mss_io.c ****         x_vddi Ratio Rx<0-2> == 001
 118:../src/platform/mpfs_hal/common/nwc/mss_io.c ****         drv<3-6> == 1111
 119:../src/platform/mpfs_hal/common/nwc/mss_io.c ****         7:clamp   == 0
 120:../src/platform/mpfs_hal/common/nwc/mss_io.c ****         enhyst   == 0
 121:../src/platform/mpfs_hal/common/nwc/mss_io.c ****         lockdn_en == 1
 122:../src/platform/mpfs_hal/common/nwc/mss_io.c ****         10:wpd  == 0
 123:../src/platform/mpfs_hal/common/nwc/mss_io.c ****         atp_en`== 0
 124:../src/platform/mpfs_hal/common/nwc/mss_io.c ****         lpmd_ibuf  == 0
 125:../src/platform/mpfs_hal/common/nwc/mss_io.c ****         lpmd_obuf == 0
 126:../src/platform/mpfs_hal/common/nwc/mss_io.c ****         persist == 0
 127:../src/platform/mpfs_hal/common/nwc/mss_io.c ****         */
 128:../src/platform/mpfs_hal/common/nwc/mss_io.c ****     LIBERO_SETTING_MSSIO_BANK2_IO_CFG_0_1_CR,
 129:../src/platform/mpfs_hal/common/nwc/mss_io.c ****     LIBERO_SETTING_MSSIO_BANK2_IO_CFG_2_3_CR,
 130:../src/platform/mpfs_hal/common/nwc/mss_io.c ****     LIBERO_SETTING_MSSIO_BANK2_IO_CFG_4_5_CR,
 131:../src/platform/mpfs_hal/common/nwc/mss_io.c ****     LIBERO_SETTING_MSSIO_BANK2_IO_CFG_6_7_CR,
 132:../src/platform/mpfs_hal/common/nwc/mss_io.c ****     LIBERO_SETTING_MSSIO_BANK2_IO_CFG_8_9_CR,
 133:../src/platform/mpfs_hal/common/nwc/mss_io.c ****     LIBERO_SETTING_MSSIO_BANK2_IO_CFG_10_11_CR,
 134:../src/platform/mpfs_hal/common/nwc/mss_io.c ****     LIBERO_SETTING_MSSIO_BANK2_IO_CFG_12_13_CR,
 135:../src/platform/mpfs_hal/common/nwc/mss_io.c ****     LIBERO_SETTING_MSSIO_BANK2_IO_CFG_14_15_CR,
 136:../src/platform/mpfs_hal/common/nwc/mss_io.c ****     LIBERO_SETTING_MSSIO_BANK2_IO_CFG_16_17_CR,
 137:../src/platform/mpfs_hal/common/nwc/mss_io.c ****     LIBERO_SETTING_MSSIO_BANK2_IO_CFG_18_19_CR,
 138:../src/platform/mpfs_hal/common/nwc/mss_io.c ****     LIBERO_SETTING_MSSIO_BANK2_IO_CFG_20_21_CR,
 139:../src/platform/mpfs_hal/common/nwc/mss_io.c ****     LIBERO_SETTING_MSSIO_BANK2_IO_CFG_22_23_CR
 140:../src/platform/mpfs_hal/common/nwc/mss_io.c **** };
 141:../src/platform/mpfs_hal/common/nwc/mss_io.c **** 
 142:../src/platform/mpfs_hal/common/nwc/mss_io.c **** #ifdef LIBERO_SETTING_ALT_IOMUX1_CR
 143:../src/platform/mpfs_hal/common/nwc/mss_io.c **** MSSIO_BANK2_CONFIG mssio_alt_bank2_io_config = {
 144:../src/platform/mpfs_hal/common/nwc/mss_io.c ****     /* LIBERO_SETTING_mssio_bank4_io_cfg_0_cr
 145:../src/platform/mpfs_hal/common/nwc/mss_io.c ****         x_vddi Ratio Rx<0-2> == 001
 146:../src/platform/mpfs_hal/common/nwc/mss_io.c ****         drv<3-6> == 1111
 147:../src/platform/mpfs_hal/common/nwc/mss_io.c ****         7:clamp   == 0
 148:../src/platform/mpfs_hal/common/nwc/mss_io.c ****         enhyst   == 0
 149:../src/platform/mpfs_hal/common/nwc/mss_io.c ****         lockdn_en == 1
 150:../src/platform/mpfs_hal/common/nwc/mss_io.c ****         10:wpd  == 0
 151:../src/platform/mpfs_hal/common/nwc/mss_io.c ****         atp_en`== 0
 152:../src/platform/mpfs_hal/common/nwc/mss_io.c ****         lpmd_ibuf  == 0
 153:../src/platform/mpfs_hal/common/nwc/mss_io.c ****         lpmd_obuf == 0
 154:../src/platform/mpfs_hal/common/nwc/mss_io.c ****         persist == 0
 155:../src/platform/mpfs_hal/common/nwc/mss_io.c ****         */
 156:../src/platform/mpfs_hal/common/nwc/mss_io.c ****     LIBERO_SETTING_ALT_MSSIO_BANK2_IO_CFG_0_1_CR,
 157:../src/platform/mpfs_hal/common/nwc/mss_io.c ****     LIBERO_SETTING_ALT_MSSIO_BANK2_IO_CFG_2_3_CR,
 158:../src/platform/mpfs_hal/common/nwc/mss_io.c ****     LIBERO_SETTING_ALT_MSSIO_BANK2_IO_CFG_4_5_CR,
 159:../src/platform/mpfs_hal/common/nwc/mss_io.c ****     LIBERO_SETTING_ALT_MSSIO_BANK2_IO_CFG_6_7_CR,
 160:../src/platform/mpfs_hal/common/nwc/mss_io.c ****     LIBERO_SETTING_ALT_MSSIO_BANK2_IO_CFG_8_9_CR,
 161:../src/platform/mpfs_hal/common/nwc/mss_io.c ****     LIBERO_SETTING_ALT_MSSIO_BANK2_IO_CFG_10_11_CR,
 162:../src/platform/mpfs_hal/common/nwc/mss_io.c ****     LIBERO_SETTING_ALT_MSSIO_BANK2_IO_CFG_12_13_CR,
 163:../src/platform/mpfs_hal/common/nwc/mss_io.c ****     LIBERO_SETTING_ALT_MSSIO_BANK2_IO_CFG_14_15_CR,
 164:../src/platform/mpfs_hal/common/nwc/mss_io.c ****     LIBERO_SETTING_ALT_MSSIO_BANK2_IO_CFG_16_17_CR,
 165:../src/platform/mpfs_hal/common/nwc/mss_io.c ****     LIBERO_SETTING_ALT_MSSIO_BANK2_IO_CFG_18_19_CR,
 166:../src/platform/mpfs_hal/common/nwc/mss_io.c ****     LIBERO_SETTING_ALT_MSSIO_BANK2_IO_CFG_20_21_CR,
 167:../src/platform/mpfs_hal/common/nwc/mss_io.c ****     LIBERO_SETTING_ALT_MSSIO_BANK2_IO_CFG_22_23_CR
 168:../src/platform/mpfs_hal/common/nwc/mss_io.c **** };
 169:../src/platform/mpfs_hal/common/nwc/mss_io.c **** #endif
 170:../src/platform/mpfs_hal/common/nwc/mss_io.c **** 
 171:../src/platform/mpfs_hal/common/nwc/mss_io.c **** /*******************************************************************************
 172:../src/platform/mpfs_hal/common/nwc/mss_io.c ****  * Local functions
 173:../src/platform/mpfs_hal/common/nwc/mss_io.c ****  */
 174:../src/platform/mpfs_hal/common/nwc/mss_io.c **** static uint8_t io_mux_and_bank_config(void);
 175:../src/platform/mpfs_hal/common/nwc/mss_io.c **** 
 176:../src/platform/mpfs_hal/common/nwc/mss_io.c **** /***************************************************************************//**
 177:../src/platform/mpfs_hal/common/nwc/mss_io.c ****  *    MSSIO OFF Mode
 178:../src/platform/mpfs_hal/common/nwc/mss_io.c ****  *
 179:../src/platform/mpfs_hal/common/nwc/mss_io.c ****  *    The following settings are applied if MMSIO unused/off
 180:../src/platform/mpfs_hal/common/nwc/mss_io.c ****  *
 181:../src/platform/mpfs_hal/common/nwc/mss_io.c ****  *      The IO Buffers are disabled.
 182:../src/platform/mpfs_hal/common/nwc/mss_io.c ****  *      Output drivers are disabled (set the drv<3:0> bits to 0000, output
 183:../src/platform/mpfs_hal/common/nwc/mss_io.c ****  *      enable "mss_oe" bit to 0)
 184:../src/platform/mpfs_hal/common/nwc/mss_io.c ****  *      Disable the WPU bit set to 0 and enable the WPD bit set to 1.
 185:../src/platform/mpfs_hal/common/nwc/mss_io.c ****  *      Receivers are disabled. (Ibufmd<2:0> set to 7)
 186:../src/platform/mpfs_hal/common/nwc/mss_io.c ****  *
 187:../src/platform/mpfs_hal/common/nwc/mss_io.c ****  *      MSS can enable OFF mode through configurator bit for selective MSSIO
 188:../src/platform/mpfs_hal/common/nwc/mss_io.c ****  *      from Bank2/Bank4 by making drv<3:0>/mss_oe bit to "0" for that
 189:../src/platform/mpfs_hal/common/nwc/mss_io.c ****  *      particular MSSIO making Output driver disabled and ibufmd <2:0>  bit to
 190:../src/platform/mpfs_hal/common/nwc/mss_io.c ****  *      "7" for that particular MSSIO making input receiver disabled.
 191:../src/platform/mpfs_hal/common/nwc/mss_io.c ****  *
 192:../src/platform/mpfs_hal/common/nwc/mss_io.c ****  */
 193:../src/platform/mpfs_hal/common/nwc/mss_io.c **** 
 194:../src/platform/mpfs_hal/common/nwc/mss_io.c **** /***************************************************************************//**
 195:../src/platform/mpfs_hal/common/nwc/mss_io.c ****  * mssio_setup()
 196:../src/platform/mpfs_hal/common/nwc/mss_io.c ****  *
 197:../src/platform/mpfs_hal/common/nwc/mss_io.c ****  * Setup the IOMUX and IO bank 2 and 4.
 198:../src/platform/mpfs_hal/common/nwc/mss_io.c ****  *
 199:../src/platform/mpfs_hal/common/nwc/mss_io.c ****  * To setup bank 2 and 4, ncode and pcode scb registers in system
 200:../src/platform/mpfs_hal/common/nwc/mss_io.c ****  * register block are set as per Libero supplied values.
 201:../src/platform/mpfs_hal/common/nwc/mss_io.c ****  * These need to be transferred to I/0
 202:../src/platform/mpfs_hal/common/nwc/mss_io.c ****  *
 203:../src/platform/mpfs_hal/common/nwc/mss_io.c ****  * @return 0 => pass
 204:../src/platform/mpfs_hal/common/nwc/mss_io.c ****  */
 205:../src/platform/mpfs_hal/common/nwc/mss_io.c **** uint8_t mssio_setup(void)
 206:../src/platform/mpfs_hal/common/nwc/mss_io.c **** {
  60              		.loc 1 206 1
  61              		.cfi_startproc
  62 0000 0111     		addi	sp,sp,-32
  63              		.cfi_def_cfa_offset 32
  64 0002 06EC     		sd	ra,24(sp)
  65 0004 22E8     		sd	s0,16(sp)
  66              		.cfi_offset 1, -8
  67              		.cfi_offset 8, -16
  68 0006 0010     		addi	s0,sp,32
  69              		.cfi_def_cfa 8, 0
 207:../src/platform/mpfs_hal/common/nwc/mss_io.c ****     uint8_t ret_status = 0U;
  70              		.loc 1 207 13
  71 0008 A30704FE 		sb	zero,-17(s0)
 208:../src/platform/mpfs_hal/common/nwc/mss_io.c ****     ret_status = io_mux_and_bank_config();
  72              		.loc 1 208 18
  73 000c 97000000 		call	io_mux_and_bank_config
  73      E7800000 
  74 0014 AA87     		mv	a5,a0
  75 0016 A307F4FE 		sb	a5,-17(s0)
 209:../src/platform/mpfs_hal/common/nwc/mss_io.c ****     set_bank2_and_bank4_volts(DEFAULT_MSSIO_CONFIGURATION);
  76              		.loc 1 209 5
  77 001a 0145     		li	a0,0
  78 001c 97000000 		call	set_bank2_and_bank4_volts
  78      E7800000 
 210:../src/platform/mpfs_hal/common/nwc/mss_io.c ****     return (ret_status);
  79              		.loc 1 210 12
  80 0024 8347F4FE 		lbu	a5,-17(s0)
 211:../src/platform/mpfs_hal/common/nwc/mss_io.c **** }
  81              		.loc 1 211 1
  82 0028 3E85     		mv	a0,a5
  83 002a E260     		ld	ra,24(sp)
  84              		.cfi_restore 1
  85 002c 4264     		ld	s0,16(sp)
  86              		.cfi_restore 8
  87              		.cfi_def_cfa 2, 32
  88 002e 0561     		addi	sp,sp,32
  89              		.cfi_def_cfa_offset 0
  90 0030 8280     		jr	ra
  91              		.cfi_endproc
  92              	.LFE23:
  94              		.section	.text.io_mux_and_bank_config,"ax",@progbits
  95              		.align	1
  97              	io_mux_and_bank_config:
  98              	.LFB24:
 212:../src/platform/mpfs_hal/common/nwc/mss_io.c **** 
 213:../src/platform/mpfs_hal/common/nwc/mss_io.c **** /***************************************************************************//**
 214:../src/platform/mpfs_hal/common/nwc/mss_io.c ****  * io_mux_and_bank_config(void)
 215:../src/platform/mpfs_hal/common/nwc/mss_io.c ****  * sets up the IOMUX and bank 2 and 4 pcodes and n codes
 216:../src/platform/mpfs_hal/common/nwc/mss_io.c ****  * @return 0 => OK
 217:../src/platform/mpfs_hal/common/nwc/mss_io.c ****  */
 218:../src/platform/mpfs_hal/common/nwc/mss_io.c **** static uint8_t io_mux_and_bank_config(void)
 219:../src/platform/mpfs_hal/common/nwc/mss_io.c **** {
  99              		.loc 1 219 1
 100              		.cfi_startproc
 101 0000 4111     		addi	sp,sp,-16
 102              		.cfi_def_cfa_offset 16
 103 0002 06E4     		sd	ra,8(sp)
 104 0004 22E0     		sd	s0,0(sp)
 105              		.cfi_offset 1, -8
 106              		.cfi_offset 8, -16
 107 0006 0008     		addi	s0,sp,16
 108              		.cfi_def_cfa 8, 0
 220:../src/platform/mpfs_hal/common/nwc/mss_io.c ****     /* Configure IO mux's
 221:../src/platform/mpfs_hal/common/nwc/mss_io.c ****      *
 222:../src/platform/mpfs_hal/common/nwc/mss_io.c ****      * IOMUX1_CR - IOMUX5_CR, five 32-bit registers, with four bits four bits
 223:../src/platform/mpfs_hal/common/nwc/mss_io.c ****      * for each I/O determine what is connected to each pad
 224:../src/platform/mpfs_hal/common/nwc/mss_io.c ****      *
 225:../src/platform/mpfs_hal/common/nwc/mss_io.c ****      * All internal peripherals are also connected to the fabric (apart from
 226:../src/platform/mpfs_hal/common/nwc/mss_io.c ****      * MMC/SDIO/GPIO/USB). The IOMUX0 register configures whether the IO
 227:../src/platform/mpfs_hal/common/nwc/mss_io.c ****      * function is connected to the fabric or the IOMUX.
 228:../src/platform/mpfs_hal/common/nwc/mss_io.c ****      *
 229:../src/platform/mpfs_hal/common/nwc/mss_io.c ****      * IOMUX6_CR Sets whether the MMC/SD Voltage select lines are inverted on
 230:../src/platform/mpfs_hal/common/nwc/mss_io.c ****      * entry to the IOMUX structure
 231:../src/platform/mpfs_hal/common/nwc/mss_io.c ****      *
 232:../src/platform/mpfs_hal/common/nwc/mss_io.c ****      * */
 233:../src/platform/mpfs_hal/common/nwc/mss_io.c ****     config_32_copy((void *)(&(SYSREG->IOMUX0_CR)),
 109              		.loc 1 233 5
 110 0008 7146     		li	a2,28
 111 000a 97050000 		lla	a1,iomux_config_values
 111      93850500 
 112 0012 B7270020 		li	a5,536879104
 113 0016 13850720 		addi	a0,a5,512
 114 001a 97000000 		call	config_32_copy
 114      E7800000 
 234:../src/platform/mpfs_hal/common/nwc/mss_io.c ****                 &(iomux_config_values),
 235:../src/platform/mpfs_hal/common/nwc/mss_io.c ****                 sizeof(IOMUX_CONFIG));
 236:../src/platform/mpfs_hal/common/nwc/mss_io.c **** 
 237:../src/platform/mpfs_hal/common/nwc/mss_io.c ****     /*
 238:../src/platform/mpfs_hal/common/nwc/mss_io.c ****      * Configure MSS IO banks
 239:../src/platform/mpfs_hal/common/nwc/mss_io.c ****      *    sets pcode and ncode using (mssio_bank2_cfg_cr/mssio_bank4_cfg_cr)
 240:../src/platform/mpfs_hal/common/nwc/mss_io.c ****      *
 241:../src/platform/mpfs_hal/common/nwc/mss_io.c ****      * The MSS IO pad configuration is provided by nineteen system registers
 242:../src/platform/mpfs_hal/common/nwc/mss_io.c ****      * each configuring two IO's using 15-bits per IO
 243:../src/platform/mpfs_hal/common/nwc/mss_io.c ****      * - (mssio_bank*_io_cfg_*_*_cr).
 244:../src/platform/mpfs_hal/common/nwc/mss_io.c **** 
 245:../src/platform/mpfs_hal/common/nwc/mss_io.c ****         | mssio_bank*_io_cfg_*_*_cr | offset        | info |
 246:../src/platform/mpfs_hal/common/nwc/mss_io.c ****         | field                     | offset        | info |
 247:../src/platform/mpfs_hal/common/nwc/mss_io.c ****         |:-------------------------:|:-------------:|:-----|
 248:../src/platform/mpfs_hal/common/nwc/mss_io.c ****         |      io_cfg_ibufmd_0      |0              |      |
 249:../src/platform/mpfs_hal/common/nwc/mss_io.c ****         |      io_cfg_ibufmd_1      |1              |      |
 250:../src/platform/mpfs_hal/common/nwc/mss_io.c ****         |      io_cfg_ibufmd_2      |2              |      |
 251:../src/platform/mpfs_hal/common/nwc/mss_io.c ****         |      io_cfg_drv_0         |3              |      |
 252:../src/platform/mpfs_hal/common/nwc/mss_io.c ****         |      Io_cfg_drv_1         |4              |      |
 253:../src/platform/mpfs_hal/common/nwc/mss_io.c ****         |      Io_cfg_drv_2         |5              |      |
 254:../src/platform/mpfs_hal/common/nwc/mss_io.c ****         |      io_cfg_drv_3         |6              |      |
 255:../src/platform/mpfs_hal/common/nwc/mss_io.c ****         |      io_cfg_clamp         |7              |      |
 256:../src/platform/mpfs_hal/common/nwc/mss_io.c ****         |      io_cfg_enhyst        |8              |      |
 257:../src/platform/mpfs_hal/common/nwc/mss_io.c ****         |      io_cfg_lockdn_en     |9              |      |
 258:../src/platform/mpfs_hal/common/nwc/mss_io.c ****         |      io_cfg_wpd           |10             |      |
 259:../src/platform/mpfs_hal/common/nwc/mss_io.c ****         |      io_cfg_wpu           |11             |      |
 260:../src/platform/mpfs_hal/common/nwc/mss_io.c ****         |      io_cfg_atp_en        |12             |      |
 261:../src/platform/mpfs_hal/common/nwc/mss_io.c ****         |      io_cfg_lp_persist_en |13             |      |
 262:../src/platform/mpfs_hal/common/nwc/mss_io.c ****         |      io_cfg_lp_bypass_en  |14             |      |
 263:../src/platform/mpfs_hal/common/nwc/mss_io.c ****      * */
 264:../src/platform/mpfs_hal/common/nwc/mss_io.c **** 
 265:../src/platform/mpfs_hal/common/nwc/mss_io.c ****     config_32_copy((void *)(&(SYSREG->MSSIO_BANK4_IO_CFG_0_1_CR)),
 115              		.loc 1 265 5
 116 0022 7146     		li	a2,28
 117 0024 97050000 		lla	a1,mssio_bank4_io_config
 117      93850500 
 118 002c B7270020 		li	a5,536879104
 119 0030 13854723 		addi	a0,a5,564
 120 0034 97000000 		call	config_32_copy
 120      E7800000 
 266:../src/platform/mpfs_hal/common/nwc/mss_io.c ****                 &(mssio_bank4_io_config),
 267:../src/platform/mpfs_hal/common/nwc/mss_io.c ****                 sizeof(MSSIO_BANK4_CONFIG));
 268:../src/platform/mpfs_hal/common/nwc/mss_io.c **** 
 269:../src/platform/mpfs_hal/common/nwc/mss_io.c ****     config_32_copy((void *)(&(SYSREG->MSSIO_BANK2_IO_CFG_0_1_CR)),
 121              		.loc 1 269 5
 122 003c 13060003 		li	a2,48
 123 0040 97050000 		lla	a1,mssio_bank2_io_config
 123      93850500 
 124 0048 B7270020 		li	a5,536879104
 125 004c 13854725 		addi	a0,a5,596
 126 0050 97000000 		call	config_32_copy
 126      E7800000 
 270:../src/platform/mpfs_hal/common/nwc/mss_io.c ****                 &(mssio_bank2_io_config),
 271:../src/platform/mpfs_hal/common/nwc/mss_io.c ****                 sizeof(MSSIO_BANK2_CONFIG));
 272:../src/platform/mpfs_hal/common/nwc/mss_io.c **** 
 273:../src/platform/mpfs_hal/common/nwc/mss_io.c ****     set_bank2_and_bank4_volts(DEFAULT_MSSIO_CONFIGURATION);
 127              		.loc 1 273 5
 128 0058 0145     		li	a0,0
 129 005a 97000000 		call	set_bank2_and_bank4_volts
 129      E7800000 
 274:../src/platform/mpfs_hal/common/nwc/mss_io.c **** 
 275:../src/platform/mpfs_hal/common/nwc/mss_io.c **** 
 276:../src/platform/mpfs_hal/common/nwc/mss_io.c ****     return(0L);
 130              		.loc 1 276 11
 131 0062 8147     		li	a5,0
 277:../src/platform/mpfs_hal/common/nwc/mss_io.c **** }
 132              		.loc 1 277 1
 133 0064 3E85     		mv	a0,a5
 134 0066 A260     		ld	ra,8(sp)
 135              		.cfi_restore 1
 136 0068 0264     		ld	s0,0(sp)
 137              		.cfi_restore 8
 138              		.cfi_def_cfa 2, 16
 139 006a 4101     		addi	sp,sp,16
 140              		.cfi_def_cfa_offset 0
 141 006c 8280     		jr	ra
 142              		.cfi_endproc
 143              	.LFE24:
 145              		.section	.text.set_bank2_and_bank4_volts,"ax",@progbits
 146              		.align	1
 147              		.globl	set_bank2_and_bank4_volts
 149              	set_bank2_and_bank4_volts:
 150              	.LFB25:
 278:../src/platform/mpfs_hal/common/nwc/mss_io.c **** 
 279:../src/platform/mpfs_hal/common/nwc/mss_io.c **** /***************************************************************************//**
 280:../src/platform/mpfs_hal/common/nwc/mss_io.c ****  * io_mux_and_bank_config_alt(void)
 281:../src/platform/mpfs_hal/common/nwc/mss_io.c ****  * Configures alt setting
 282:../src/platform/mpfs_hal/common/nwc/mss_io.c ****  * @return
 283:../src/platform/mpfs_hal/common/nwc/mss_io.c ****  */
 284:../src/platform/mpfs_hal/common/nwc/mss_io.c **** #ifdef LIBERO_SETTING_ALT_IOMUX1_CR
 285:../src/platform/mpfs_hal/common/nwc/mss_io.c **** #if ((LIBERO_SETTING_MSSIO_CONFIGURATION_OPTIONS & (EMMC_CONFIGURED_MASK | SD_CONFIGURED_MASK)) == 
 286:../src/platform/mpfs_hal/common/nwc/mss_io.c **** static uint8_t io_mux_and_bank_config_alt(void)
 287:../src/platform/mpfs_hal/common/nwc/mss_io.c **** {
 288:../src/platform/mpfs_hal/common/nwc/mss_io.c ****     /* Configure IO mux's
 289:../src/platform/mpfs_hal/common/nwc/mss_io.c ****      *
 290:../src/platform/mpfs_hal/common/nwc/mss_io.c ****      * IOMUX1_CR - IOMUX5_CR, five 32-bit registers, with four bits four bits
 291:../src/platform/mpfs_hal/common/nwc/mss_io.c ****      * for each I/O determine what is connected to each pad
 292:../src/platform/mpfs_hal/common/nwc/mss_io.c ****      *
 293:../src/platform/mpfs_hal/common/nwc/mss_io.c ****      * All internal peripherals are also connected to the fabric (apart from
 294:../src/platform/mpfs_hal/common/nwc/mss_io.c ****      * MMC/SDIO/GPIO/USB). The IOMUX0 register configures whether the IO
 295:../src/platform/mpfs_hal/common/nwc/mss_io.c ****      * function is connected to the fabric or the IOMUX.
 296:../src/platform/mpfs_hal/common/nwc/mss_io.c ****      *
 297:../src/platform/mpfs_hal/common/nwc/mss_io.c ****      * IOMUX6_CR Sets whether the MMC/SD Voltage select lines are inverted on
 298:../src/platform/mpfs_hal/common/nwc/mss_io.c ****      * entry to the IOMUX structure
 299:../src/platform/mpfs_hal/common/nwc/mss_io.c ****      *
 300:../src/platform/mpfs_hal/common/nwc/mss_io.c ****      * */
 301:../src/platform/mpfs_hal/common/nwc/mss_io.c **** 
 302:../src/platform/mpfs_hal/common/nwc/mss_io.c ****     config_32_copy((void *)(&(SYSREG->IOMUX0_CR)),
 303:../src/platform/mpfs_hal/common/nwc/mss_io.c ****                 &(iomux_alt_config_values),
 304:../src/platform/mpfs_hal/common/nwc/mss_io.c ****                 sizeof(IOMUX_CONFIG));
 305:../src/platform/mpfs_hal/common/nwc/mss_io.c **** 
 306:../src/platform/mpfs_hal/common/nwc/mss_io.c ****     /*
 307:../src/platform/mpfs_hal/common/nwc/mss_io.c ****      * Configure MSS IO banks
 308:../src/platform/mpfs_hal/common/nwc/mss_io.c ****      *    sets pcode and ncode using (mssio_bank2_cfg_cr/mssio_bank4_cfg_cr)
 309:../src/platform/mpfs_hal/common/nwc/mss_io.c ****      *
 310:../src/platform/mpfs_hal/common/nwc/mss_io.c ****      * The MSS IO pad configuration is provided by nineteen system registers
 311:../src/platform/mpfs_hal/common/nwc/mss_io.c ****      * each configuring two IO's using 15-bits per IO
 312:../src/platform/mpfs_hal/common/nwc/mss_io.c ****      * - (mssio_bank*_io_cfg_*_*_cr).
 313:../src/platform/mpfs_hal/common/nwc/mss_io.c **** 
 314:../src/platform/mpfs_hal/common/nwc/mss_io.c ****         | mssio_bank*_io_cfg_*_*_cr | offset        | info |
 315:../src/platform/mpfs_hal/common/nwc/mss_io.c ****         | field                     | offset        | info |
 316:../src/platform/mpfs_hal/common/nwc/mss_io.c ****         |:-------------------------:|:-------------:|:-----|
 317:../src/platform/mpfs_hal/common/nwc/mss_io.c ****         |      io_cfg_ibufmd_0      |0              |      |
 318:../src/platform/mpfs_hal/common/nwc/mss_io.c ****         |      io_cfg_ibufmd_1      |1              |      |
 319:../src/platform/mpfs_hal/common/nwc/mss_io.c ****         |      io_cfg_ibufmd_2      |2              |      |
 320:../src/platform/mpfs_hal/common/nwc/mss_io.c ****         |      io_cfg_drv_0         |3              |      |
 321:../src/platform/mpfs_hal/common/nwc/mss_io.c ****         |      Io_cfg_drv_1         |4              |      |
 322:../src/platform/mpfs_hal/common/nwc/mss_io.c ****         |      Io_cfg_drv_2         |5              |      |
 323:../src/platform/mpfs_hal/common/nwc/mss_io.c ****         |      io_cfg_drv_3         |6              |      |
 324:../src/platform/mpfs_hal/common/nwc/mss_io.c ****         |      io_cfg_clamp         |7              |      |
 325:../src/platform/mpfs_hal/common/nwc/mss_io.c ****         |      io_cfg_enhyst        |8              |      |
 326:../src/platform/mpfs_hal/common/nwc/mss_io.c ****         |      io_cfg_lockdn_en     |9              |      |
 327:../src/platform/mpfs_hal/common/nwc/mss_io.c ****         |      io_cfg_wpd           |10             |      |
 328:../src/platform/mpfs_hal/common/nwc/mss_io.c ****         |      io_cfg_wpu           |11             |      |
 329:../src/platform/mpfs_hal/common/nwc/mss_io.c ****         |      io_cfg_atp_en        |12             |      |
 330:../src/platform/mpfs_hal/common/nwc/mss_io.c ****         |      io_cfg_lp_persist_en |13             |      |
 331:../src/platform/mpfs_hal/common/nwc/mss_io.c ****         |      io_cfg_lp_bypass_en  |14             |      |
 332:../src/platform/mpfs_hal/common/nwc/mss_io.c ****      * */
 333:../src/platform/mpfs_hal/common/nwc/mss_io.c **** 
 334:../src/platform/mpfs_hal/common/nwc/mss_io.c ****     config_32_copy((void *)(&(SYSREG->MSSIO_BANK4_IO_CFG_0_1_CR)),
 335:../src/platform/mpfs_hal/common/nwc/mss_io.c ****                 &(mssio_alt_bank4_io_config),
 336:../src/platform/mpfs_hal/common/nwc/mss_io.c ****                 sizeof(MSSIO_BANK4_CONFIG));
 337:../src/platform/mpfs_hal/common/nwc/mss_io.c **** 
 338:../src/platform/mpfs_hal/common/nwc/mss_io.c ****     config_32_copy((void *)(&(SYSREG->MSSIO_BANK2_IO_CFG_0_1_CR)),
 339:../src/platform/mpfs_hal/common/nwc/mss_io.c ****                 &(mssio_alt_bank2_io_config),
 340:../src/platform/mpfs_hal/common/nwc/mss_io.c ****                 sizeof(MSSIO_BANK2_CONFIG));
 341:../src/platform/mpfs_hal/common/nwc/mss_io.c **** 
 342:../src/platform/mpfs_hal/common/nwc/mss_io.c ****     set_bank2_and_bank4_volts(DEFAULT_MSSIO_CONFIGURATION);
 343:../src/platform/mpfs_hal/common/nwc/mss_io.c **** 
 344:../src/platform/mpfs_hal/common/nwc/mss_io.c ****     return(0L);
 345:../src/platform/mpfs_hal/common/nwc/mss_io.c **** }
 346:../src/platform/mpfs_hal/common/nwc/mss_io.c **** #endif
 347:../src/platform/mpfs_hal/common/nwc/mss_io.c **** #endif
 348:../src/platform/mpfs_hal/common/nwc/mss_io.c **** 
 349:../src/platform/mpfs_hal/common/nwc/mss_io.c **** /**
 350:../src/platform/mpfs_hal/common/nwc/mss_io.c ****  * set_bank2_and_bank4_volts(void)
 351:../src/platform/mpfs_hal/common/nwc/mss_io.c ****  * sets bank voltage parameters
 352:../src/platform/mpfs_hal/common/nwc/mss_io.c ****  *   bank_pcode
 353:../src/platform/mpfs_hal/common/nwc/mss_io.c ****  *   bank_ncode
 354:../src/platform/mpfs_hal/common/nwc/mss_io.c ****  *   vs
 355:../src/platform/mpfs_hal/common/nwc/mss_io.c ****  * @return
 356:../src/platform/mpfs_hal/common/nwc/mss_io.c ****  */
 357:../src/platform/mpfs_hal/common/nwc/mss_io.c **** void set_bank2_and_bank4_volts(MSSIO_CONFIG_OPTION config)
 358:../src/platform/mpfs_hal/common/nwc/mss_io.c **** {
 151              		.loc 1 358 1
 152              		.cfi_startproc
 153 0000 0111     		addi	sp,sp,-32
 154              		.cfi_def_cfa_offset 32
 155 0002 22EC     		sd	s0,24(sp)
 156              		.cfi_offset 8, -8
 157 0004 0010     		addi	s0,sp,32
 158              		.cfi_def_cfa 8, 0
 159 0006 AA87     		mv	a5,a0
 160 0008 2326F4FE 		sw	a5,-20(s0)
 359:../src/platform/mpfs_hal/common/nwc/mss_io.c **** 
 360:../src/platform/mpfs_hal/common/nwc/mss_io.c ****     switch(config)
 161              		.loc 1 360 5
 162 000c 8327C4FE 		lw	a5,-20(s0)
 163 0010 1B870700 		sext.w	a4,a5
 164 0014 8547     		li	a5,1
 165 0016 6309F702 		beq	a4,a5,.L9
 361:../src/platform/mpfs_hal/common/nwc/mss_io.c ****     {
 362:../src/platform/mpfs_hal/common/nwc/mss_io.c ****         default:
 363:../src/platform/mpfs_hal/common/nwc/mss_io.c ****         SCB_REGS->MSSIO_BANK2_CFG_CR.MSSIO_BANK2_CFG_CR =\
 166              		.loc 1 363 17
 167 001a 97070000 		lla	a5,SCB_REGS
 167      93870700 
 168 0022 9C63     		ld	a5,0(a5)
 169              		.loc 1 363 57
 170 0024 37170800 		li	a4,528384
 171 0028 13077790 		addi	a4,a4,-1785
 172 002c 23A2E71C 		sw	a4,452(a5)
 364:../src/platform/mpfs_hal/common/nwc/mss_io.c ****                     (uint32_t)LIBERO_SETTING_MSSIO_BANK2_CFG_CR;
 365:../src/platform/mpfs_hal/common/nwc/mss_io.c ****         SCB_REGS->MSSIO_BANK4_CFG_CR.MSSIO_BANK4_CFG_CR =\
 173              		.loc 1 365 17
 174 0030 97070000 		lla	a5,SCB_REGS
 174      93870700 
 175 0038 9C63     		ld	a5,0(a5)
 176              		.loc 1 365 57
 177 003a 37170400 		li	a4,266240
 178 003e 1307D7A0 		addi	a4,a4,-1523
 179 0042 23A4E71C 		sw	a4,456(a5)
 366:../src/platform/mpfs_hal/common/nwc/mss_io.c ****                     (uint32_t)LIBERO_SETTING_MSSIO_BANK4_CFG_CR;
 367:../src/platform/mpfs_hal/common/nwc/mss_io.c ****         break;
 180              		.loc 1 367 9
 181 0046 11A0     		j	.L7
 182              	.L9:
 368:../src/platform/mpfs_hal/common/nwc/mss_io.c **** 
 369:../src/platform/mpfs_hal/common/nwc/mss_io.c **** #ifdef LIBERO_SETTING_MSSIO_CONFIGURATION_OPTIONS
 370:../src/platform/mpfs_hal/common/nwc/mss_io.c ****         case ALT_MSSIO_CONFIGURATION:
 371:../src/platform/mpfs_hal/common/nwc/mss_io.c ****             break;
 183              		.loc 1 371 13
 184 0048 0100     		nop
 185              	.L7:
 372:../src/platform/mpfs_hal/common/nwc/mss_io.c **** #endif
 373:../src/platform/mpfs_hal/common/nwc/mss_io.c **** 
 374:../src/platform/mpfs_hal/common/nwc/mss_io.c ****     }
 375:../src/platform/mpfs_hal/common/nwc/mss_io.c ****     return;
 186              		.loc 1 375 5
 187 004a 0100     		nop
 376:../src/platform/mpfs_hal/common/nwc/mss_io.c **** }
 188              		.loc 1 376 1
 189 004c 6264     		ld	s0,24(sp)
 190              		.cfi_restore 8
 191              		.cfi_def_cfa 2, 32
 192 004e 0561     		addi	sp,sp,32
 193              		.cfi_def_cfa_offset 0
 194 0050 8280     		jr	ra
 195              		.cfi_endproc
 196              	.LFE25:
 198              		.section	.text.mss_is_alternate_io_configured,"ax",@progbits
 199              		.align	1
 200              		.globl	mss_is_alternate_io_configured
 202              	mss_is_alternate_io_configured:
 203              	.LFB26:
 377:../src/platform/mpfs_hal/common/nwc/mss_io.c **** 
 378:../src/platform/mpfs_hal/common/nwc/mss_io.c **** /***************************************************************************//**
 379:../src/platform/mpfs_hal/common/nwc/mss_io.c ****  * alternate_io_configured()
 380:../src/platform/mpfs_hal/common/nwc/mss_io.c ****  * Answers question is alternate I/O configuration present
 381:../src/platform/mpfs_hal/common/nwc/mss_io.c ****  * @return true/false
 382:../src/platform/mpfs_hal/common/nwc/mss_io.c ****  */
 383:../src/platform/mpfs_hal/common/nwc/mss_io.c **** uint8_t  mss_is_alternate_io_configured(void)
 384:../src/platform/mpfs_hal/common/nwc/mss_io.c **** {
 204              		.loc 1 384 1
 205              		.cfi_startproc
 206 0000 0111     		addi	sp,sp,-32
 207              		.cfi_def_cfa_offset 32
 208 0002 22EC     		sd	s0,24(sp)
 209              		.cfi_offset 8, -8
 210 0004 0010     		addi	s0,sp,32
 211              		.cfi_def_cfa 8, 0
 385:../src/platform/mpfs_hal/common/nwc/mss_io.c ****     uint8_t result = false;
 212              		.loc 1 385 13
 213 0006 A30704FE 		sb	zero,-17(s0)
 386:../src/platform/mpfs_hal/common/nwc/mss_io.c **** #ifdef LIBERO_SETTING_MSSIO_CONFIGURATION_OPTIONS
 387:../src/platform/mpfs_hal/common/nwc/mss_io.c ****     if ((LIBERO_SETTING_MSSIO_CONFIGURATION_OPTIONS & (EMMC_CONFIGURED_MASK | SD_CONFIGURED_MASK)) 
 388:../src/platform/mpfs_hal/common/nwc/mss_io.c ****     {
 389:../src/platform/mpfs_hal/common/nwc/mss_io.c ****         result = true;
 214              		.loc 1 389 16
 215 000a 8547     		li	a5,1
 216 000c A307F4FE 		sb	a5,-17(s0)
 390:../src/platform/mpfs_hal/common/nwc/mss_io.c ****     }
 391:../src/platform/mpfs_hal/common/nwc/mss_io.c **** #endif
 392:../src/platform/mpfs_hal/common/nwc/mss_io.c ****     return result;
 217              		.loc 1 392 12
 218 0010 8347F4FE 		lbu	a5,-17(s0)
 393:../src/platform/mpfs_hal/common/nwc/mss_io.c **** }
 219              		.loc 1 393 1
 220 0014 3E85     		mv	a0,a5
 221 0016 6264     		ld	s0,24(sp)
 222              		.cfi_restore 8
 223              		.cfi_def_cfa 2, 32
 224 0018 0561     		addi	sp,sp,32
 225              		.cfi_def_cfa_offset 0
 226 001a 8280     		jr	ra
 227              		.cfi_endproc
 228              	.LFE26:
 230              		.section	.text.mss_is_alternate_io_setting_sd,"ax",@progbits
 231              		.align	1
 232              		.globl	mss_is_alternate_io_setting_sd
 234              	mss_is_alternate_io_setting_sd:
 235              	.LFB27:
 394:../src/platform/mpfs_hal/common/nwc/mss_io.c **** 
 395:../src/platform/mpfs_hal/common/nwc/mss_io.c **** /***************************************************************************//**
 396:../src/platform/mpfs_hal/common/nwc/mss_io.c ****  * alternate_io_setting_sd()
 397:../src/platform/mpfs_hal/common/nwc/mss_io.c ****  * Answers question is alternate setting SD?
 398:../src/platform/mpfs_hal/common/nwc/mss_io.c ****  * @return returns true if sd is alternate setting
 399:../src/platform/mpfs_hal/common/nwc/mss_io.c ****  */
 400:../src/platform/mpfs_hal/common/nwc/mss_io.c **** uint8_t  mss_is_alternate_io_setting_sd(void)
 401:../src/platform/mpfs_hal/common/nwc/mss_io.c **** {
 236              		.loc 1 401 1
 237              		.cfi_startproc
 238 0000 0111     		addi	sp,sp,-32
 239              		.cfi_def_cfa_offset 32
 240 0002 22EC     		sd	s0,24(sp)
 241              		.cfi_offset 8, -8
 242 0004 0010     		addi	s0,sp,32
 243              		.cfi_def_cfa 8, 0
 402:../src/platform/mpfs_hal/common/nwc/mss_io.c ****     uint8_t result = false;
 244              		.loc 1 402 13
 245 0006 A30704FE 		sb	zero,-17(s0)
 403:../src/platform/mpfs_hal/common/nwc/mss_io.c **** #ifdef LIBERO_SETTING_MSSIO_CONFIGURATION_OPTIONS
 404:../src/platform/mpfs_hal/common/nwc/mss_io.c ****     if ((LIBERO_SETTING_MSSIO_CONFIGURATION_OPTIONS & (EMMC_CONFIGURED_MASK | SD_CONFIGURED_MASK)) 
 405:../src/platform/mpfs_hal/common/nwc/mss_io.c ****     {
 406:../src/platform/mpfs_hal/common/nwc/mss_io.c ****         if ((LIBERO_SETTING_MSSIO_CONFIGURATION_OPTIONS & DEFAULT_ON_START_MASK)!=DEFAULT_ON_START_
 407:../src/platform/mpfs_hal/common/nwc/mss_io.c ****         {
 408:../src/platform/mpfs_hal/common/nwc/mss_io.c ****             result = true;
 409:../src/platform/mpfs_hal/common/nwc/mss_io.c ****         }
 410:../src/platform/mpfs_hal/common/nwc/mss_io.c ****     }
 411:../src/platform/mpfs_hal/common/nwc/mss_io.c **** #endif
 412:../src/platform/mpfs_hal/common/nwc/mss_io.c ****     return result;
 246              		.loc 1 412 12
 247 000a 8347F4FE 		lbu	a5,-17(s0)
 413:../src/platform/mpfs_hal/common/nwc/mss_io.c **** }
 248              		.loc 1 413 1
 249 000e 3E85     		mv	a0,a5
 250 0010 6264     		ld	s0,24(sp)
 251              		.cfi_restore 8
 252              		.cfi_def_cfa 2, 32
 253 0012 0561     		addi	sp,sp,32
 254              		.cfi_def_cfa_offset 0
 255 0014 8280     		jr	ra
 256              		.cfi_endproc
 257              	.LFE27:
 259              		.section	.text.mss_is_alternate_io_setting_emmc,"ax",@progbits
 260              		.align	1
 261              		.globl	mss_is_alternate_io_setting_emmc
 263              	mss_is_alternate_io_setting_emmc:
 264              	.LFB28:
 414:../src/platform/mpfs_hal/common/nwc/mss_io.c **** 
 415:../src/platform/mpfs_hal/common/nwc/mss_io.c **** /***************************************************************************//**
 416:../src/platform/mpfs_hal/common/nwc/mss_io.c ****  * alternate_io_setting_sd()
 417:../src/platform/mpfs_hal/common/nwc/mss_io.c ****  * Answers question is alternate setting emmc?
 418:../src/platform/mpfs_hal/common/nwc/mss_io.c ****  * @return returns true if sd is alternate setting
 419:../src/platform/mpfs_hal/common/nwc/mss_io.c ****  */
 420:../src/platform/mpfs_hal/common/nwc/mss_io.c **** uint8_t  mss_is_alternate_io_setting_emmc(void)
 421:../src/platform/mpfs_hal/common/nwc/mss_io.c **** {
 265              		.loc 1 421 1
 266              		.cfi_startproc
 267 0000 0111     		addi	sp,sp,-32
 268              		.cfi_def_cfa_offset 32
 269 0002 22EC     		sd	s0,24(sp)
 270              		.cfi_offset 8, -8
 271 0004 0010     		addi	s0,sp,32
 272              		.cfi_def_cfa 8, 0
 422:../src/platform/mpfs_hal/common/nwc/mss_io.c ****     uint8_t result = false;
 273              		.loc 1 422 13
 274 0006 A30704FE 		sb	zero,-17(s0)
 423:../src/platform/mpfs_hal/common/nwc/mss_io.c **** #ifdef LIBERO_SETTING_MSSIO_CONFIGURATION_OPTIONS
 424:../src/platform/mpfs_hal/common/nwc/mss_io.c ****     if ((LIBERO_SETTING_MSSIO_CONFIGURATION_OPTIONS & (EMMC_CONFIGURED_MASK | SD_CONFIGURED_MASK)) 
 425:../src/platform/mpfs_hal/common/nwc/mss_io.c ****     {
 426:../src/platform/mpfs_hal/common/nwc/mss_io.c ****         if ((LIBERO_SETTING_MSSIO_CONFIGURATION_OPTIONS & DEFAULT_ON_START_MASK)==DEFAULT_ON_START_
 427:../src/platform/mpfs_hal/common/nwc/mss_io.c ****         {
 428:../src/platform/mpfs_hal/common/nwc/mss_io.c ****             result = true;
 275              		.loc 1 428 20
 276 000a 8547     		li	a5,1
 277 000c A307F4FE 		sb	a5,-17(s0)
 429:../src/platform/mpfs_hal/common/nwc/mss_io.c ****         }
 430:../src/platform/mpfs_hal/common/nwc/mss_io.c ****     }
 431:../src/platform/mpfs_hal/common/nwc/mss_io.c **** #endif
 432:../src/platform/mpfs_hal/common/nwc/mss_io.c ****     return result;
 278              		.loc 1 432 12
 279 0010 8347F4FE 		lbu	a5,-17(s0)
 433:../src/platform/mpfs_hal/common/nwc/mss_io.c **** }
 280              		.loc 1 433 1
 281 0014 3E85     		mv	a0,a5
 282 0016 6264     		ld	s0,24(sp)
 283              		.cfi_restore 8
 284              		.cfi_def_cfa 2, 32
 285 0018 0561     		addi	sp,sp,32
 286              		.cfi_def_cfa_offset 0
 287 001a 8280     		jr	ra
 288              		.cfi_endproc
 289              	.LFE28:
 291              		.section	.text.mss_does_xml_ver_support_switch,"ax",@progbits
 292              		.align	1
 293              		.globl	mss_does_xml_ver_support_switch
 295              	mss_does_xml_ver_support_switch:
 296              	.LFB29:
 434:../src/platform/mpfs_hal/common/nwc/mss_io.c **** 
 435:../src/platform/mpfs_hal/common/nwc/mss_io.c **** /**
 436:../src/platform/mpfs_hal/common/nwc/mss_io.c ****  * Determines if MSSIO alt switch support in MSS configurator version
 437:../src/platform/mpfs_hal/common/nwc/mss_io.c ****  * Does not indicate if alternate has been configured.
 438:../src/platform/mpfs_hal/common/nwc/mss_io.c ****  * Indicates you can use the following to determine setup
 439:../src/platform/mpfs_hal/common/nwc/mss_io.c ****  *  mss_io_defaut_setting(void)
 440:../src/platform/mpfs_hal/common/nwc/mss_io.c ****  *  mss_is_alternate_io_configured(void)
 441:../src/platform/mpfs_hal/common/nwc/mss_io.c ****  *  mss_is_alternate_io_setting_emmc(void)
 442:../src/platform/mpfs_hal/common/nwc/mss_io.c ****  *  mss_is_alternate_io_setting_sd(void)
 443:../src/platform/mpfs_hal/common/nwc/mss_io.c ****  *
 444:../src/platform/mpfs_hal/common/nwc/mss_io.c ****  * @return return true/false
 445:../src/platform/mpfs_hal/common/nwc/mss_io.c ****  */
 446:../src/platform/mpfs_hal/common/nwc/mss_io.c **** uint8_t  mss_does_xml_ver_support_switch(void)
 447:../src/platform/mpfs_hal/common/nwc/mss_io.c **** {
 297              		.loc 1 447 1
 298              		.cfi_startproc
 299 0000 0111     		addi	sp,sp,-32
 300              		.cfi_def_cfa_offset 32
 301 0002 22EC     		sd	s0,24(sp)
 302              		.cfi_offset 8, -8
 303 0004 0010     		addi	s0,sp,32
 304              		.cfi_def_cfa 8, 0
 448:../src/platform/mpfs_hal/common/nwc/mss_io.c ****     uint8_t result = false;
 305              		.loc 1 448 13
 306 0006 A30704FE 		sb	zero,-17(s0)
 449:../src/platform/mpfs_hal/common/nwc/mss_io.c **** #ifdef LIBERO_SETTING_HEADER_GENERATOR_VERSION_MAJOR
 450:../src/platform/mpfs_hal/common/nwc/mss_io.c ****     uint32_t header_ver = (LIBERO_SETTING_HEADER_GENERATOR_VERSION_MAJOR*100) + (LIBERO_SETTING_HEA
 307              		.loc 1 450 14
 308 000a 9307F003 		li	a5,63
 309 000e 2324F4FE 		sw	a5,-24(s0)
 451:../src/platform/mpfs_hal/common/nwc/mss_io.c ****     uint32_t xml_ver = (LIBERO_SETTING_XML_VERSION_MAJOR*100) + (LIBERO_SETTING_XML_VERSION_MINOR*1
 310              		.loc 1 451 14
 311 0012 93071004 		li	a5,65
 312 0016 2322F4FE 		sw	a5,-28(s0)
 452:../src/platform/mpfs_hal/common/nwc/mss_io.c **** 
 453:../src/platform/mpfs_hal/common/nwc/mss_io.c ****     if ((header_ver >= 64U) && (xml_ver >= 56U))
 313              		.loc 1 453 8
 314 001a 832784FE 		lw	a5,-24(s0)
 315 001e 1B870700 		sext.w	a4,a5
 316 0022 9307F003 		li	a5,63
 317 0026 63FDE700 		bleu	a4,a5,.L17
 318              		.loc 1 453 29 discriminator 1
 319 002a 832744FE 		lw	a5,-28(s0)
 320 002e 1B870700 		sext.w	a4,a5
 321 0032 93077003 		li	a5,55
 322 0036 63F5E700 		bleu	a4,a5,.L17
 454:../src/platform/mpfs_hal/common/nwc/mss_io.c ****     {
 455:../src/platform/mpfs_hal/common/nwc/mss_io.c ****         result = true;
 323              		.loc 1 455 16
 324 003a 8547     		li	a5,1
 325 003c A307F4FE 		sb	a5,-17(s0)
 326              	.L17:
 456:../src/platform/mpfs_hal/common/nwc/mss_io.c ****     }
 457:../src/platform/mpfs_hal/common/nwc/mss_io.c **** #else
 458:../src/platform/mpfs_hal/common/nwc/mss_io.c ****     (void)result;
 459:../src/platform/mpfs_hal/common/nwc/mss_io.c **** #endif
 460:../src/platform/mpfs_hal/common/nwc/mss_io.c ****     return result;
 327              		.loc 1 460 12
 328 0040 8347F4FE 		lbu	a5,-17(s0)
 461:../src/platform/mpfs_hal/common/nwc/mss_io.c **** }
 329              		.loc 1 461 1
 330 0044 3E85     		mv	a0,a5
 331 0046 6264     		ld	s0,24(sp)
 332              		.cfi_restore 8
 333              		.cfi_def_cfa 2, 32
 334 0048 0561     		addi	sp,sp,32
 335              		.cfi_def_cfa_offset 0
 336 004a 8280     		jr	ra
 337              		.cfi_endproc
 338              	.LFE29:
 340              		.section	.text.switch_mssio_config,"ax",@progbits
 341              		.align	1
 342              		.globl	switch_mssio_config
 344              	switch_mssio_config:
 345              	.LFB30:
 462:../src/platform/mpfs_hal/common/nwc/mss_io.c **** 
 463:../src/platform/mpfs_hal/common/nwc/mss_io.c **** 
 464:../src/platform/mpfs_hal/common/nwc/mss_io.c **** /**
 465:../src/platform/mpfs_hal/common/nwc/mss_io.c ****  * mss_io_default_setting(void)
 466:../src/platform/mpfs_hal/common/nwc/mss_io.c ****  * @return returns what is configured on default if mss configurator version supports this.
 467:../src/platform/mpfs_hal/common/nwc/mss_io.c ****  */
 468:../src/platform/mpfs_hal/common/nwc/mss_io.c **** #ifdef LIBERO_SETTING_ALT_IOMUX1_CR
 469:../src/platform/mpfs_hal/common/nwc/mss_io.c **** uint8_t  mss_io_default_setting(void)
 470:../src/platform/mpfs_hal/common/nwc/mss_io.c **** {
 471:../src/platform/mpfs_hal/common/nwc/mss_io.c ****     uint8_t result;
 472:../src/platform/mpfs_hal/common/nwc/mss_io.c **** 
 473:../src/platform/mpfs_hal/common/nwc/mss_io.c ****     if  ( mss_does_xml_ver_support_switch() == false )
 474:../src/platform/mpfs_hal/common/nwc/mss_io.c ****     {
 475:../src/platform/mpfs_hal/common/nwc/mss_io.c ****         result = NO_SUPPORT_MSSIO_CONFIGURATION;
 476:../src/platform/mpfs_hal/common/nwc/mss_io.c ****     }
 477:../src/platform/mpfs_hal/common/nwc/mss_io.c ****     else
 478:../src/platform/mpfs_hal/common/nwc/mss_io.c ****     {
 479:../src/platform/mpfs_hal/common/nwc/mss_io.c **** #ifdef LIBERO_SETTING_MSSIO_CONFIGURATION_OPTIONS
 480:../src/platform/mpfs_hal/common/nwc/mss_io.c **** #if ((LIBERO_SETTING_MSSIO_CONFIGURATION_OPTIONS & (SD_CONFIGURED_MASK | DEFAULT_ON_START_MASK)) ==
 481:../src/platform/mpfs_hal/common/nwc/mss_io.c **** 
 482:../src/platform/mpfs_hal/common/nwc/mss_io.c ****     result = SD_MSSIO_CONFIGURATION;
 483:../src/platform/mpfs_hal/common/nwc/mss_io.c **** 
 484:../src/platform/mpfs_hal/common/nwc/mss_io.c **** #elif  ((LIBERO_SETTING_MSSIO_CONFIGURATION_OPTIONS & (EMMC_CONFIGURED_MASK | DEFAULT_ON_START_MASK
 485:../src/platform/mpfs_hal/common/nwc/mss_io.c **** 
 486:../src/platform/mpfs_hal/common/nwc/mss_io.c ****     result = SD_MSSIO_CONFIGURATION;
 487:../src/platform/mpfs_hal/common/nwc/mss_io.c **** #else
 488:../src/platform/mpfs_hal/common/nwc/mss_io.c ****     result = NOT_SETUP_MSSIO_CONFIGURATION;
 489:../src/platform/mpfs_hal/common/nwc/mss_io.c **** #endif
 490:../src/platform/mpfs_hal/common/nwc/mss_io.c **** #endif
 491:../src/platform/mpfs_hal/common/nwc/mss_io.c ****     }
 492:../src/platform/mpfs_hal/common/nwc/mss_io.c **** 
 493:../src/platform/mpfs_hal/common/nwc/mss_io.c ****     return(result);
 494:../src/platform/mpfs_hal/common/nwc/mss_io.c **** }
 495:../src/platform/mpfs_hal/common/nwc/mss_io.c **** #endif
 496:../src/platform/mpfs_hal/common/nwc/mss_io.c **** 
 497:../src/platform/mpfs_hal/common/nwc/mss_io.c **** /**
 498:../src/platform/mpfs_hal/common/nwc/mss_io.c ****  * Set the MSSIO to a desired config
 499:../src/platform/mpfs_hal/common/nwc/mss_io.c ****  * @param option  SD or eMMC
 500:../src/platform/mpfs_hal/common/nwc/mss_io.c ****  * @return
 501:../src/platform/mpfs_hal/common/nwc/mss_io.c ****  */
 502:../src/platform/mpfs_hal/common/nwc/mss_io.c **** uint8_t switch_mssio_config(MSS_IO_OPTIONS option)
 503:../src/platform/mpfs_hal/common/nwc/mss_io.c **** {
 346              		.loc 1 503 1
 347              		.cfi_startproc
 348 0000 7971     		addi	sp,sp,-48
 349              		.cfi_def_cfa_offset 48
 350 0002 06F4     		sd	ra,40(sp)
 351 0004 22F0     		sd	s0,32(sp)
 352              		.cfi_offset 1, -8
 353              		.cfi_offset 8, -16
 354 0006 0018     		addi	s0,sp,48
 355              		.cfi_def_cfa 8, 0
 356 0008 AA87     		mv	a5,a0
 357 000a 232EF4FC 		sw	a5,-36(s0)
 504:../src/platform/mpfs_hal/common/nwc/mss_io.c ****     uint8_t result = false;
 358              		.loc 1 504 13
 359 000e A30704FE 		sb	zero,-17(s0)
 505:../src/platform/mpfs_hal/common/nwc/mss_io.c **** #ifdef LIBERO_SETTING_MSSIO_CONFIGURATION_OPTIONS
 506:../src/platform/mpfs_hal/common/nwc/mss_io.c **** #if ((LIBERO_SETTING_MSSIO_CONFIGURATION_OPTIONS & (EMMC_CONFIGURED_MASK | SD_CONFIGURED_MASK)) == 
 507:../src/platform/mpfs_hal/common/nwc/mss_io.c ****     switch(option)
 360              		.loc 1 507 5
 361 0012 8327C4FD 		lw	a5,-36(s0)
 362 0016 1B870700 		sext.w	a4,a5
 363 001a 8547     		li	a5,1
 364 001c 630BF706 		beq	a4,a5,.L30
 365 0020 8327C4FD 		lw	a5,-36(s0)
 366 0024 8127     		sext.w	a5,a5
 367 0026 A5CB     		beq	a5,zero,.L31
 368 0028 8327C4FD 		lw	a5,-36(s0)
 369 002c 1B870700 		sext.w	a4,a5
 370 0030 8947     		li	a5,2
 371 0032 630AF700 		beq	a4,a5,.L22
 372 0036 8327C4FD 		lw	a5,-36(s0)
 373 003a 1B870700 		sext.w	a4,a5
 374 003e 8D47     		li	a5,3
 375 0040 6306F702 		beq	a4,a5,.L23
 376 0044 91A8     		j	.L24
 377              	.L22:
 508:../src/platform/mpfs_hal/common/nwc/mss_io.c ****     {
 509:../src/platform/mpfs_hal/common/nwc/mss_io.c ****         case SD_MSSIO_CONFIGURATION:
 510:../src/platform/mpfs_hal/common/nwc/mss_io.c ****             if (mss_is_alternate_io_setting_sd() == true)
 378              		.loc 1 510 17
 379 0046 97000000 		call	mss_is_alternate_io_setting_sd
 379      E7800000 
 380 004e AA87     		mv	a5,a0
 381              		.loc 1 510 16
 382 0050 3E87     		mv	a4,a5
 383 0052 8547     		li	a5,1
 384 0054 6317F700 		bne	a4,a5,.L25
 385              	.LBB2:
 511:../src/platform/mpfs_hal/common/nwc/mss_io.c ****             {
 512:../src/platform/mpfs_hal/common/nwc/mss_io.c ****                 io_mux_and_bank_config_alt();
 386              		.loc 1 512 17
 387 0058 97000000 		call	io_mux_and_bank_config_alt
 387      E7800000 
 388              	.LBE2:
 513:../src/platform/mpfs_hal/common/nwc/mss_io.c **** 
 514:../src/platform/mpfs_hal/common/nwc/mss_io.c ****             }
 515:../src/platform/mpfs_hal/common/nwc/mss_io.c ****             else
 516:../src/platform/mpfs_hal/common/nwc/mss_io.c ****             {
 517:../src/platform/mpfs_hal/common/nwc/mss_io.c ****                 io_mux_and_bank_config();
 518:../src/platform/mpfs_hal/common/nwc/mss_io.c ****             }
 519:../src/platform/mpfs_hal/common/nwc/mss_io.c ****             break;
 389              		.loc 1 519 13
 390 0060 25A8     		j	.L24
 391              	.L25:
 517:../src/platform/mpfs_hal/common/nwc/mss_io.c ****             }
 392              		.loc 1 517 17
 393 0062 97000000 		call	io_mux_and_bank_config
 393      E7800000 
 394              		.loc 1 519 13
 395 006a 3DA0     		j	.L24
 396              	.L23:
 520:../src/platform/mpfs_hal/common/nwc/mss_io.c **** 
 521:../src/platform/mpfs_hal/common/nwc/mss_io.c ****         case EMMC_MSSIO_CONFIGURATION:
 522:../src/platform/mpfs_hal/common/nwc/mss_io.c ****             if (mss_is_alternate_io_setting_emmc() == true)
 397              		.loc 1 522 17
 398 006c 97000000 		call	mss_is_alternate_io_setting_emmc
 398      E7800000 
 399 0074 AA87     		mv	a5,a0
 400              		.loc 1 522 16
 401 0076 3E87     		mv	a4,a5
 402 0078 8547     		li	a5,1
 403 007a 6317F700 		bne	a4,a5,.L27
 404              	.LBB3:
 523:../src/platform/mpfs_hal/common/nwc/mss_io.c ****             {
 524:../src/platform/mpfs_hal/common/nwc/mss_io.c ****                 io_mux_and_bank_config_alt();
 405              		.loc 1 524 17
 406 007e 97000000 		call	io_mux_and_bank_config_alt
 406      E7800000 
 407              	.LBE3:
 525:../src/platform/mpfs_hal/common/nwc/mss_io.c ****             }
 526:../src/platform/mpfs_hal/common/nwc/mss_io.c ****             else
 527:../src/platform/mpfs_hal/common/nwc/mss_io.c ****             {
 528:../src/platform/mpfs_hal/common/nwc/mss_io.c ****                 io_mux_and_bank_config();
 529:../src/platform/mpfs_hal/common/nwc/mss_io.c ****             }
 530:../src/platform/mpfs_hal/common/nwc/mss_io.c ****             break;
 408              		.loc 1 530 13
 409 0086 09A8     		j	.L24
 410              	.L27:
 528:../src/platform/mpfs_hal/common/nwc/mss_io.c ****             }
 411              		.loc 1 528 17
 412 0088 97000000 		call	io_mux_and_bank_config
 412      E7800000 
 413              		.loc 1 530 13
 414 0090 21A0     		j	.L24
 415              	.L30:
 531:../src/platform/mpfs_hal/common/nwc/mss_io.c **** 
 532:../src/platform/mpfs_hal/common/nwc/mss_io.c ****         case NO_SUPPORT_MSSIO_CONFIGURATION:
 533:../src/platform/mpfs_hal/common/nwc/mss_io.c ****             break;
 534:../src/platform/mpfs_hal/common/nwc/mss_io.c **** 
 535:../src/platform/mpfs_hal/common/nwc/mss_io.c ****         case NOT_SETUP_MSSIO_CONFIGURATION:
 536:../src/platform/mpfs_hal/common/nwc/mss_io.c ****             break;
 416              		.loc 1 536 13
 417 0092 0100     		nop
 418 0094 11A0     		j	.L24
 419              	.L31:
 533:../src/platform/mpfs_hal/common/nwc/mss_io.c **** 
 420              		.loc 1 533 13
 421 0096 0100     		nop
 422              	.L24:
 537:../src/platform/mpfs_hal/common/nwc/mss_io.c ****     }
 538:../src/platform/mpfs_hal/common/nwc/mss_io.c ****     result = true;
 423              		.loc 1 538 12
 424 0098 8547     		li	a5,1
 425 009a A307F4FE 		sb	a5,-17(s0)
 539:../src/platform/mpfs_hal/common/nwc/mss_io.c **** #else
 540:../src/platform/mpfs_hal/common/nwc/mss_io.c ****     (void)option;
 541:../src/platform/mpfs_hal/common/nwc/mss_io.c ****     result = false;
 542:../src/platform/mpfs_hal/common/nwc/mss_io.c **** #endif
 543:../src/platform/mpfs_hal/common/nwc/mss_io.c **** #endif
 544:../src/platform/mpfs_hal/common/nwc/mss_io.c ****     return result;
 426              		.loc 1 544 12
 427 009e 8347F4FE 		lbu	a5,-17(s0)
 545:../src/platform/mpfs_hal/common/nwc/mss_io.c **** }
 428              		.loc 1 545 1
 429 00a2 3E85     		mv	a0,a5
 430 00a4 A270     		ld	ra,40(sp)
 431              		.cfi_restore 1
 432 00a6 0274     		ld	s0,32(sp)
 433              		.cfi_restore 8
 434              		.cfi_def_cfa 2, 48
 435 00a8 4561     		addi	sp,sp,48
 436              		.cfi_def_cfa_offset 0
 437 00aa 8280     		jr	ra
 438              		.cfi_endproc
 439              	.LFE30:
 441              		.section	.text.switch_external_mux,"ax",@progbits
 442              		.align	1
 443              		.weak	switch_external_mux
 445              	switch_external_mux:
 446              	.LFB31:
 546:../src/platform/mpfs_hal/common/nwc/mss_io.c **** 
 547:../src/platform/mpfs_hal/common/nwc/mss_io.c **** /**
 548:../src/platform/mpfs_hal/common/nwc/mss_io.c ****  * switch_external_mux()
 549:../src/platform/mpfs_hal/common/nwc/mss_io.c ****  * Requires fpga switch hdl. This comes with reference icicle kit design.
 550:../src/platform/mpfs_hal/common/nwc/mss_io.c ****  * You will need to create your own or copy when creating your own fpga design
 551:../src/platform/mpfs_hal/common/nwc/mss_io.c ****  * along with an external mux in your board design if you wish to use SD/eMMC
 552:../src/platform/mpfs_hal/common/nwc/mss_io.c ****  * muxing in your hardware design.
 553:../src/platform/mpfs_hal/common/nwc/mss_io.c ****  * Please note this function will cause a hang if you do not have support
 554:../src/platform/mpfs_hal/common/nwc/mss_io.c ****  * for switching in your fpga design, nlu use if you have this support if your
 555:../src/platform/mpfs_hal/common/nwc/mss_io.c ****  * fabric design.
 556:../src/platform/mpfs_hal/common/nwc/mss_io.c ****  * @param option SD_MSSIO_CONFIGURATION/EMMC_MSSIO_CONFIGURATION
 557:../src/platform/mpfs_hal/common/nwc/mss_io.c ****  * @return
 558:../src/platform/mpfs_hal/common/nwc/mss_io.c ****  */
 559:../src/platform/mpfs_hal/common/nwc/mss_io.c **** __attribute__((weak)) uint8_t switch_external_mux(MSS_IO_OPTIONS option)
 560:../src/platform/mpfs_hal/common/nwc/mss_io.c **** {
 447              		.loc 1 560 1
 448              		.cfi_startproc
 449 0000 7971     		addi	sp,sp,-48
 450              		.cfi_def_cfa_offset 48
 451 0002 22F4     		sd	s0,40(sp)
 452              		.cfi_offset 8, -8
 453 0004 0018     		addi	s0,sp,48
 454              		.cfi_def_cfa 8, 0
 455 0006 AA87     		mv	a5,a0
 456 0008 232EF4FC 		sw	a5,-36(s0)
 561:../src/platform/mpfs_hal/common/nwc/mss_io.c ****     uint8_t result = false;
 457              		.loc 1 561 13
 458 000c A30704FE 		sb	zero,-17(s0)
 562:../src/platform/mpfs_hal/common/nwc/mss_io.c **** 
 563:../src/platform/mpfs_hal/common/nwc/mss_io.c ****     volatile uint32_t *reg_pt = (uint32_t *)ICICLE_KIT_REF_DESIGN_FPGS_SWITCH_ADDRESS;
 459              		.loc 1 563 24
 460 0010 B707004F 		li	a5,1325400064
 461 0014 2330F4FE 		sd	a5,-32(s0)
 564:../src/platform/mpfs_hal/common/nwc/mss_io.c ****     switch(option)
 462              		.loc 1 564 5
 463 0018 8327C4FD 		lw	a5,-36(s0)
 464 001c 1B870700 		sext.w	a4,a5
 465 0020 8547     		li	a5,1
 466 0022 630FF702 		beq	a4,a5,.L39
 467 0026 8327C4FD 		lw	a5,-36(s0)
 468 002a 8127     		sext.w	a5,a5
 469 002c 85CF     		beq	a5,zero,.L40
 470 002e 8327C4FD 		lw	a5,-36(s0)
 471 0032 1B870700 		sext.w	a4,a5
 472 0036 8947     		li	a5,2
 473 0038 630AF700 		beq	a4,a5,.L35
 474 003c 8327C4FD 		lw	a5,-36(s0)
 475 0040 1B870700 		sext.w	a4,a5
 476 0044 8D47     		li	a5,3
 477 0046 6308F700 		beq	a4,a5,.L36
 478 004a 31A8     		j	.L37
 479              	.L35:
 565:../src/platform/mpfs_hal/common/nwc/mss_io.c ****     {
 566:../src/platform/mpfs_hal/common/nwc/mss_io.c ****         case SD_MSSIO_CONFIGURATION:
 567:../src/platform/mpfs_hal/common/nwc/mss_io.c ****             *reg_pt = 1UL;
 480              		.loc 1 567 21
 481 004c 833704FE 		ld	a5,-32(s0)
 482 0050 0547     		li	a4,1
 483 0052 98C3     		sw	a4,0(a5)
 568:../src/platform/mpfs_hal/common/nwc/mss_io.c ****             break;
 484              		.loc 1 568 13
 485 0054 09A8     		j	.L37
 486              	.L36:
 569:../src/platform/mpfs_hal/common/nwc/mss_io.c **** 
 570:../src/platform/mpfs_hal/common/nwc/mss_io.c ****         case EMMC_MSSIO_CONFIGURATION:
 571:../src/platform/mpfs_hal/common/nwc/mss_io.c ****             *reg_pt = 0UL;
 487              		.loc 1 571 21
 488 0056 833704FE 		ld	a5,-32(s0)
 489 005a 23A00700 		sw	zero,0(a5)
 572:../src/platform/mpfs_hal/common/nwc/mss_io.c ****             break;
 490              		.loc 1 572 13
 491 005e 21A0     		j	.L37
 492              	.L39:
 573:../src/platform/mpfs_hal/common/nwc/mss_io.c **** 
 574:../src/platform/mpfs_hal/common/nwc/mss_io.c ****         case NO_SUPPORT_MSSIO_CONFIGURATION:
 575:../src/platform/mpfs_hal/common/nwc/mss_io.c ****             break;
 576:../src/platform/mpfs_hal/common/nwc/mss_io.c **** 
 577:../src/platform/mpfs_hal/common/nwc/mss_io.c ****         case NOT_SETUP_MSSIO_CONFIGURATION:
 578:../src/platform/mpfs_hal/common/nwc/mss_io.c ****             break;
 493              		.loc 1 578 13
 494 0060 0100     		nop
 495 0062 11A0     		j	.L37
 496              	.L40:
 575:../src/platform/mpfs_hal/common/nwc/mss_io.c **** 
 497              		.loc 1 575 13
 498 0064 0100     		nop
 499              	.L37:
 579:../src/platform/mpfs_hal/common/nwc/mss_io.c ****     }
 580:../src/platform/mpfs_hal/common/nwc/mss_io.c ****     result = true;
 500              		.loc 1 580 12
 501 0066 8547     		li	a5,1
 502 0068 A307F4FE 		sb	a5,-17(s0)
 581:../src/platform/mpfs_hal/common/nwc/mss_io.c **** 
 582:../src/platform/mpfs_hal/common/nwc/mss_io.c ****     return result;
 503              		.loc 1 582 12
 504 006c 8347F4FE 		lbu	a5,-17(s0)
 583:../src/platform/mpfs_hal/common/nwc/mss_io.c **** }
 505              		.loc 1 583 1
 506 0070 3E85     		mv	a0,a5
 507 0072 2274     		ld	s0,40(sp)
 508              		.cfi_restore 8
 509              		.cfi_def_cfa 2, 48
 510 0074 4561     		addi	sp,sp,48
 511              		.cfi_def_cfa_offset 0
 512 0076 8280     		jr	ra
 513              		.cfi_endproc
 514              	.LFE31:
 516              		.section	.text.mss_set_gpio_interrupt_fab_cr,"ax",@progbits
 517              		.align	1
 518              		.weak	mss_set_gpio_interrupt_fab_cr
 520              	mss_set_gpio_interrupt_fab_cr:
 521              	.LFB32:
 584:../src/platform/mpfs_hal/common/nwc/mss_io.c **** 
 585:../src/platform/mpfs_hal/common/nwc/mss_io.c **** 
 586:../src/platform/mpfs_hal/common/nwc/mss_io.c **** /***************************************************************************//**
 587:../src/platform/mpfs_hal/common/nwc/mss_io.c ****  * See mss_io_config.h for details of how to use this function.
 588:../src/platform/mpfs_hal/common/nwc/mss_io.c ****  */
 589:../src/platform/mpfs_hal/common/nwc/mss_io.c **** __attribute__((weak)) void mss_set_gpio_interrupt_fab_cr(uint32_t reg_value)
 590:../src/platform/mpfs_hal/common/nwc/mss_io.c **** {
 522              		.loc 1 590 1
 523              		.cfi_startproc
 524 0000 0111     		addi	sp,sp,-32
 525              		.cfi_def_cfa_offset 32
 526 0002 22EC     		sd	s0,24(sp)
 527              		.cfi_offset 8, -8
 528 0004 0010     		addi	s0,sp,32
 529              		.cfi_def_cfa 8, 0
 530 0006 AA87     		mv	a5,a0
 531 0008 2326F4FE 		sw	a5,-20(s0)
 591:../src/platform/mpfs_hal/common/nwc/mss_io.c ****     SYSREG->GPIO_INTERRUPT_FAB_CR = reg_value;
 532              		.loc 1 591 11
 533 000c B7270020 		li	a5,536879104
 534              		.loc 1 591 35
 535 0010 0327C4FE 		lw	a4,-20(s0)
 536 0014 F8CB     		sw	a4,84(a5)
 592:../src/platform/mpfs_hal/common/nwc/mss_io.c **** }
 537              		.loc 1 592 1
 538 0016 0100     		nop
 539 0018 6264     		ld	s0,24(sp)
 540              		.cfi_restore 8
 541              		.cfi_def_cfa 2, 32
 542 001a 0561     		addi	sp,sp,32
 543              		.cfi_def_cfa_offset 0
 544 001c 8280     		jr	ra
 545              		.cfi_endproc
 546              	.LFE32:
 548              		.section	.text.mss_get_gpio_interrupt_fab_cr,"ax",@progbits
 549              		.align	1
 550              		.weak	mss_get_gpio_interrupt_fab_cr
 552              	mss_get_gpio_interrupt_fab_cr:
 553              	.LFB33:
 593:../src/platform/mpfs_hal/common/nwc/mss_io.c **** 
 594:../src/platform/mpfs_hal/common/nwc/mss_io.c **** /***************************************************************************//**
 595:../src/platform/mpfs_hal/common/nwc/mss_io.c ****  * See mss_peripherals.h for details of how to use this function.
 596:../src/platform/mpfs_hal/common/nwc/mss_io.c ****  */
 597:../src/platform/mpfs_hal/common/nwc/mss_io.c **** __attribute__((weak)) uint32_t mss_get_gpio_interrupt_fab_cr(void)
 598:../src/platform/mpfs_hal/common/nwc/mss_io.c **** {
 554              		.loc 1 598 1
 555              		.cfi_startproc
 556 0000 4111     		addi	sp,sp,-16
 557              		.cfi_def_cfa_offset 16
 558 0002 22E4     		sd	s0,8(sp)
 559              		.cfi_offset 8, -8
 560 0004 0008     		addi	s0,sp,16
 561              		.cfi_def_cfa 8, 0
 599:../src/platform/mpfs_hal/common/nwc/mss_io.c ****     return (SYSREG->GPIO_INTERRUPT_FAB_CR);
 562              		.loc 1 599 19
 563 0006 B7270020 		li	a5,536879104
 564 000a FC4B     		lw	a5,84(a5)
 565 000c 8127     		sext.w	a5,a5
 600:../src/platform/mpfs_hal/common/nwc/mss_io.c **** }
 566              		.loc 1 600 1
 567 000e 3E85     		mv	a0,a5
 568 0010 2264     		ld	s0,8(sp)
 569              		.cfi_restore 8
 570              		.cfi_def_cfa 2, 16
 571 0012 4101     		addi	sp,sp,16
 572              		.cfi_def_cfa_offset 0
 573 0014 8280     		jr	ra
 574              		.cfi_endproc
 575              	.LFE33:
 577              		.text
 578              	.Letext0:
 579              		.file 2 "/home/vinay/Desktop/soft_console/SoftConsole-v2022.2-RISC-V-747/riscv-unknown-elf-gcc/lib
 580              		.file 3 "/home/vinay/Desktop/soft_console/SoftConsole-v2022.2-RISC-V-747/riscv-unknown-elf-gcc/ris
 581              		.file 4 "/home/vinay/Desktop/soft_console/SoftConsole-v2022.2-RISC-V-747/riscv-unknown-elf-gcc/ris
 582              		.file 5 "/home/vinay/Desktop/soft_console/SoftConsole-v2022.2-RISC-V-747/riscv-unknown-elf-gcc/ris
 583              		.file 6 "/home/vinay/Desktop/soft_console/SoftConsole-v2022.2-RISC-V-747/riscv-unknown-elf-gcc/ris
 584              		.file 7 "/home/vinay/Desktop/soft_console/SoftConsole-v2022.2-RISC-V-747/riscv-unknown-elf-gcc/ris
 585              		.file 8 "/home/vinay/Desktop/softconsole_watershed/Water-shed/src/platform/mpfs_hal/common/nwc/../
 586              		.file 9 "/home/vinay/Desktop/softconsole_watershed/Water-shed/src/platform/mpfs_hal/common/nwc/mss
 587              		.file 10 "/home/vinay/Desktop/softconsole_watershed/Water-shed/src/platform/mpfs_hal/common/nwc/ms
 588              		.file 11 "/home/vinay/Desktop/softconsole_watershed/Water-shed/src/platform/mpfs_hal/common/nwc/ms
 589              		.file 12 "/home/vinay/Desktop/softconsole_watershed/Water-shed/src/platform/mpfs_hal/common/nwc/ms
 590              		.file 13 "/home/vinay/Desktop/softconsole_watershed/Water-shed/src/platform/mpfs_hal/common/mss_mp
 591              		.file 14 "/home/vinay/Desktop/softconsole_watershed/Water-shed/src/platform/mpfs_hal/common/mss_pl
 592              		.file 15 "/home/vinay/Desktop/softconsole_watershed/Water-shed/src/platform/mpfs_hal/startup_gcc/s