   1              		.file	"mss_ddr_debug.c"
   2              		.option nopic
   3              		.attribute arch, "rv64i2p0_m2p0_a2p0_f2p0_d2p0_c2p0"
   4              		.attribute unaligned_access, 0
   5              		.attribute stack_align, 16
   6              		.text
   7              	.Ltext0:
   8              		.cfi_sections	.debug_frame
   9              		.section	.text.delay,"ax",@progbits
  10              		.align	1
  12              	delay:
  13              	.LFB23:
  14              		.file 1 "../src/platform/mpfs_hal/common/nwc/mss_nwc_init.h"
   1:../src/platform/mpfs_hal/common/nwc/mss_nwc_init.h **** /*******************************************************************************
   2:../src/platform/mpfs_hal/common/nwc/mss_nwc_init.h ****  * Copyright 2019-2022 Microchip FPGA Embedded Systems Solutions.
   3:../src/platform/mpfs_hal/common/nwc/mss_nwc_init.h ****  *
   4:../src/platform/mpfs_hal/common/nwc/mss_nwc_init.h ****  * SPDX-License-Identifier: MIT
   5:../src/platform/mpfs_hal/common/nwc/mss_nwc_init.h ****  *
   6:../src/platform/mpfs_hal/common/nwc/mss_nwc_init.h ****  * MPFS HAL Embedded Software
   7:../src/platform/mpfs_hal/common/nwc/mss_nwc_init.h ****  *
   8:../src/platform/mpfs_hal/common/nwc/mss_nwc_init.h ****  */
   9:../src/platform/mpfs_hal/common/nwc/mss_nwc_init.h **** 
  10:../src/platform/mpfs_hal/common/nwc/mss_nwc_init.h **** /*******************************************************************************
  11:../src/platform/mpfs_hal/common/nwc/mss_nwc_init.h ****  * @file mss_nwc_init.h
  12:../src/platform/mpfs_hal/common/nwc/mss_nwc_init.h ****  * @author Microchip-FPGA Embedded Systems Solutions
  13:../src/platform/mpfs_hal/common/nwc/mss_nwc_init.h ****  * @brief defines for mss_nwc_init.c
  14:../src/platform/mpfs_hal/common/nwc/mss_nwc_init.h ****  *
  15:../src/platform/mpfs_hal/common/nwc/mss_nwc_init.h ****  */
  16:../src/platform/mpfs_hal/common/nwc/mss_nwc_init.h **** 
  17:../src/platform/mpfs_hal/common/nwc/mss_nwc_init.h **** /*=========================================================================*//**
  18:../src/platform/mpfs_hal/common/nwc/mss_nwc_init.h ****   @page MPFS MSS NWC configuration
  19:../src/platform/mpfs_hal/common/nwc/mss_nwc_init.h ****   ==============================================================================
  20:../src/platform/mpfs_hal/common/nwc/mss_nwc_init.h ****   @section intro_sec Introduction
  21:../src/platform/mpfs_hal/common/nwc/mss_nwc_init.h ****   ==============================================================================
  22:../src/platform/mpfs_hal/common/nwc/mss_nwc_init.h ****   The MPFS microcontroller subsystem (MSS) includes a number of hard core
  23:../src/platform/mpfs_hal/common/nwc/mss_nwc_init.h ****   components physically located in the north west corner of the MSS on the die.
  24:../src/platform/mpfs_hal/common/nwc/mss_nwc_init.h **** 
  25:../src/platform/mpfs_hal/common/nwc/mss_nwc_init.h ****   ==============================================================================
  26:../src/platform/mpfs_hal/common/nwc/mss_nwc_init.h ****   @section Items located in the north west corner
  27:../src/platform/mpfs_hal/common/nwc/mss_nwc_init.h ****   ==============================================================================
  28:../src/platform/mpfs_hal/common/nwc/mss_nwc_init.h ****   MSS PLL
  29:../src/platform/mpfs_hal/common/nwc/mss_nwc_init.h ****   SGMII
  30:../src/platform/mpfs_hal/common/nwc/mss_nwc_init.h ****   DDR phy
  31:../src/platform/mpfs_hal/common/nwc/mss_nwc_init.h ****   MSSIO
  32:../src/platform/mpfs_hal/common/nwc/mss_nwc_init.h **** 
  33:../src/platform/mpfs_hal/common/nwc/mss_nwc_init.h ****   ==============================================================================
  34:../src/platform/mpfs_hal/common/nwc/mss_nwc_init.h ****   @section Flow diagram
  35:../src/platform/mpfs_hal/common/nwc/mss_nwc_init.h ****   ==============================================================================
  36:../src/platform/mpfs_hal/common/nwc/mss_nwc_init.h ****   todo: remove, added line here as test *****
  37:../src/platform/mpfs_hal/common/nwc/mss_nwc_init.h ****   Simplified flow diagram
  38:../src/platform/mpfs_hal/common/nwc/mss_nwc_init.h ****                               +-----------------+
  39:../src/platform/mpfs_hal/common/nwc/mss_nwc_init.h ****                               |     start       |
  40:../src/platform/mpfs_hal/common/nwc/mss_nwc_init.h ****                               |  NWC setup      |
  41:../src/platform/mpfs_hal/common/nwc/mss_nwc_init.h ****                               +-------+---------+
  42:../src/platform/mpfs_hal/common/nwc/mss_nwc_init.h ****                                       v
  43:../src/platform/mpfs_hal/common/nwc/mss_nwc_init.h ****                               +-----------------+
  44:../src/platform/mpfs_hal/common/nwc/mss_nwc_init.h ****                               |   set SCB access|
  45:../src/platform/mpfs_hal/common/nwc/mss_nwc_init.h ****                               |   Parameters    |
  46:../src/platform/mpfs_hal/common/nwc/mss_nwc_init.h ****                               +-------+---------+
  47:../src/platform/mpfs_hal/common/nwc/mss_nwc_init.h ****                                       |
  48:../src/platform/mpfs_hal/common/nwc/mss_nwc_init.h ****                               +-------v---------+
  49:../src/platform/mpfs_hal/common/nwc/mss_nwc_init.h ****                               | Release APB NWC |
  50:../src/platform/mpfs_hal/common/nwc/mss_nwc_init.h ****                               | Turn on APB clk |
  51:../src/platform/mpfs_hal/common/nwc/mss_nwc_init.h ****                               +-------+---------+
  52:../src/platform/mpfs_hal/common/nwc/mss_nwc_init.h ****                                       |
  53:../src/platform/mpfs_hal/common/nwc/mss_nwc_init.h ****                               +-------v---------+
  54:../src/platform/mpfs_hal/common/nwc/mss_nwc_init.h ****                               | Set Dynamic     |
  55:../src/platform/mpfs_hal/common/nwc/mss_nwc_init.h ****                               | enable bits     |
  56:../src/platform/mpfs_hal/common/nwc/mss_nwc_init.h ****                               +-------++--------+
  57:../src/platform/mpfs_hal/common/nwc/mss_nwc_init.h ****                                       |
  58:../src/platform/mpfs_hal/common/nwc/mss_nwc_init.h ****                               +-------v---------+
  59:../src/platform/mpfs_hal/common/nwc/mss_nwc_init.h ****                               | Setup signals   |
  60:../src/platform/mpfs_hal/common/nwc/mss_nwc_init.h ****                               | DCE,CORE_UP,    |
  61:../src/platform/mpfs_hal/common/nwc/mss_nwc_init.h ****                               | Flash_Valid,    |
  62:../src/platform/mpfs_hal/common/nwc/mss_nwc_init.h ****                               | MSS_IO_EN       |
  63:../src/platform/mpfs_hal/common/nwc/mss_nwc_init.h ****                               +-------+---------+
  64:../src/platform/mpfs_hal/common/nwc/mss_nwc_init.h ****                                       |
  65:../src/platform/mpfs_hal/common/nwc/mss_nwc_init.h ****                               +-------v---------+
  66:../src/platform/mpfs_hal/common/nwc/mss_nwc_init.h ****                               | Setup SGMII     |
  67:../src/platform/mpfs_hal/common/nwc/mss_nwc_init.h ****                               |                 |
  68:../src/platform/mpfs_hal/common/nwc/mss_nwc_init.h ****                               +-------+---------+
  69:../src/platform/mpfs_hal/common/nwc/mss_nwc_init.h ****                                       |
  70:../src/platform/mpfs_hal/common/nwc/mss_nwc_init.h ****                               +-------v---------+
  71:../src/platform/mpfs_hal/common/nwc/mss_nwc_init.h ****                               | Setup DDR       |
  72:../src/platform/mpfs_hal/common/nwc/mss_nwc_init.h ****                               |                 |
  73:../src/platform/mpfs_hal/common/nwc/mss_nwc_init.h ****                               +-------+---------+
  74:../src/platform/mpfs_hal/common/nwc/mss_nwc_init.h ****                                       |
  75:../src/platform/mpfs_hal/common/nwc/mss_nwc_init.h ****                               +-------v---------+
  76:../src/platform/mpfs_hal/common/nwc/mss_nwc_init.h ****                               | Setup MSSIO     |
  77:../src/platform/mpfs_hal/common/nwc/mss_nwc_init.h ****                               |                 |
  78:../src/platform/mpfs_hal/common/nwc/mss_nwc_init.h ****                               +-------+---------+
  79:../src/platform/mpfs_hal/common/nwc/mss_nwc_init.h ****                                       |
  80:../src/platform/mpfs_hal/common/nwc/mss_nwc_init.h ****                               +-------v---------+
  81:../src/platform/mpfs_hal/common/nwc/mss_nwc_init.h ****                               |    Finished     |
  82:../src/platform/mpfs_hal/common/nwc/mss_nwc_init.h ****                               +-----------------+
  83:../src/platform/mpfs_hal/common/nwc/mss_nwc_init.h **** 
  84:../src/platform/mpfs_hal/common/nwc/mss_nwc_init.h ****  *//*=========================================================================*/
  85:../src/platform/mpfs_hal/common/nwc/mss_nwc_init.h **** #ifndef __MSS_NWC_INIT_H_
  86:../src/platform/mpfs_hal/common/nwc/mss_nwc_init.h **** #define __MSS_NWC_INIT_H_ 1
  87:../src/platform/mpfs_hal/common/nwc/mss_nwc_init.h **** 
  88:../src/platform/mpfs_hal/common/nwc/mss_nwc_init.h **** 
  89:../src/platform/mpfs_hal/common/nwc/mss_nwc_init.h **** #include <stddef.h>
  90:../src/platform/mpfs_hal/common/nwc/mss_nwc_init.h **** #include <stdint.h>
  91:../src/platform/mpfs_hal/common/nwc/mss_nwc_init.h **** #include "../encoding.h"
  92:../src/platform/mpfs_hal/common/nwc/mss_nwc_init.h **** 
  93:../src/platform/mpfs_hal/common/nwc/mss_nwc_init.h **** #ifdef __cplusplus
  94:../src/platform/mpfs_hal/common/nwc/mss_nwc_init.h **** extern "C" {
  95:../src/platform/mpfs_hal/common/nwc/mss_nwc_init.h **** #endif
  96:../src/platform/mpfs_hal/common/nwc/mss_nwc_init.h **** 
  97:../src/platform/mpfs_hal/common/nwc/mss_nwc_init.h **** #define DELAY_CYCLES_500_NS            ((uint32_t)(0.0000005 * LIBERO_SETTING_MSS_COREPLEX_CPU_CLK)
  98:../src/platform/mpfs_hal/common/nwc/mss_nwc_init.h **** #define DELAY_CYCLES_1_MICRO           ((uint32_t)(DELAY_CYCLES_500_NS * 2U))
  99:../src/platform/mpfs_hal/common/nwc/mss_nwc_init.h **** #define DELAY_CYCLES_5_MICRO           ((uint32_t)(DELAY_CYCLES_500_NS * 10U))
 100:../src/platform/mpfs_hal/common/nwc/mss_nwc_init.h **** #define DELAY_CYCLES_50_MICRO          ((uint32_t)(DELAY_CYCLES_500_NS * 100U))
 101:../src/platform/mpfs_hal/common/nwc/mss_nwc_init.h **** #define DELAY_CYCLES_150_MICRO         ((uint32_t)(DELAY_CYCLES_500_NS * 300U))
 102:../src/platform/mpfs_hal/common/nwc/mss_nwc_init.h **** #define DELAY_CYCLES_250_MICRO         ((uint32_t)(DELAY_CYCLES_500_NS * 500U))
 103:../src/platform/mpfs_hal/common/nwc/mss_nwc_init.h **** #define DELAY_CYCLES_500_MICRO         ((uint32_t)(DELAY_CYCLES_500_NS * 1000U))
 104:../src/platform/mpfs_hal/common/nwc/mss_nwc_init.h **** #define DELAY_CYCLES_2MS               ((uint32_t)(DELAY_CYCLES_500_NS * 4000U))
 105:../src/platform/mpfs_hal/common/nwc/mss_nwc_init.h **** #define DELAY_CYCLES_100MS             ((uint32_t)(DELAY_CYCLES_2MS * 50U))
 106:../src/platform/mpfs_hal/common/nwc/mss_nwc_init.h **** 
 107:../src/platform/mpfs_hal/common/nwc/mss_nwc_init.h **** /***************************************************************************//**
 108:../src/platform/mpfs_hal/common/nwc/mss_nwc_init.h **** 
 109:../src/platform/mpfs_hal/common/nwc/mss_nwc_init.h ****  */
 110:../src/platform/mpfs_hal/common/nwc/mss_nwc_init.h **** typedef enum {
 111:../src/platform/mpfs_hal/common/nwc/mss_nwc_init.h ****     DDR_BOOT_PROGRESS      = 0x00      //!< DDR_BOOT_PROGRESS
 112:../src/platform/mpfs_hal/common/nwc/mss_nwc_init.h **** } MSS_REPORT_STATUS;
 113:../src/platform/mpfs_hal/common/nwc/mss_nwc_init.h **** 
 114:../src/platform/mpfs_hal/common/nwc/mss_nwc_init.h **** /*-------------------------------------------------------------------------*//**
 115:../src/platform/mpfs_hal/common/nwc/mss_nwc_init.h ****  * delay()
 116:../src/platform/mpfs_hal/common/nwc/mss_nwc_init.h ****  * Simple wait delay based on mcycles count
 117:../src/platform/mpfs_hal/common/nwc/mss_nwc_init.h ****  * @param n Number of mcycles to wait.
 118:../src/platform/mpfs_hal/common/nwc/mss_nwc_init.h ****  */
 119:../src/platform/mpfs_hal/common/nwc/mss_nwc_init.h **** static inline void delay(uint32_t n)
 120:../src/platform/mpfs_hal/common/nwc/mss_nwc_init.h **** {
  15              		.loc 1 120 1
  16              		.cfi_startproc
  17 0000 3971     		addi	sp,sp,-64
  18              		.cfi_def_cfa_offset 64
  19 0002 22FC     		sd	s0,56(sp)
  20              		.cfi_offset 8, -8
  21 0004 8000     		addi	s0,sp,64
  22              		.cfi_def_cfa 8, 0
  23 0006 AA87     		mv	a5,a0
  24 0008 2326F4FC 		sw	a5,-52(s0)
  25              	.LBB2:
 121:../src/platform/mpfs_hal/common/nwc/mss_nwc_init.h ****     volatile uint64_t cycles_end = rdcycle() + n ;
  26              		.loc 1 121 36
  27              	 #APP
  28              	# 121 "../src/platform/mpfs_hal/common/nwc/mss_nwc_init.h" 1
 122              	    while (rdcycle() < cycles_end)
  29              		csrr a5, cycle
  30              	# 0 "" 2
  31              	 #NO_APP
  32 0010 2334F4FE 		sd	a5,-24(s0)
  33 0014 033784FE 		ld	a4,-24(s0)
  34              	.LBE2:
 121:../src/platform/mpfs_hal/common/nwc/mss_nwc_init.h ****     volatile uint64_t cycles_end = rdcycle() + n ;
  35              		.loc 1 121 46
  36 0018 8367C4FC 		lwu	a5,-52(s0)
  37 001c BA97     		add	a5,a4,a5
 121:../src/platform/mpfs_hal/common/nwc/mss_nwc_init.h ****     volatile uint64_t cycles_end = rdcycle() + n ;
  38              		.loc 1 121 23
  39 001e 233CF4FC 		sd	a5,-40(s0)
  40              		.loc 1 122 11
  41 0022 0100     		nop
  42              	.L2:
  43              	.LBB3:
  44              		.loc 1 122 12 discriminator 1
  45              	 #APP
  46              	# 122 "../src/platform/mpfs_hal/common/nwc/mss_nwc_init.h" 1
 123              	    {
  47              		csrr a5, cycle
  48              	# 0 "" 2
  49              	 #NO_APP
  50 0028 2330F4FE 		sd	a5,-32(s0)
  51 002c 033704FE 		ld	a4,-32(s0)
  52              	.LBE3:
 122:../src/platform/mpfs_hal/common/nwc/mss_nwc_init.h ****     {
  53              		.loc 1 122 22 discriminator 1
  54 0030 833784FD 		ld	a5,-40(s0)
 122:../src/platform/mpfs_hal/common/nwc/mss_nwc_init.h ****     {
  55              		.loc 1 122 11 discriminator 1
  56 0034 E368F7FE 		bltu	a4,a5,.L2
 124:../src/platform/mpfs_hal/common/nwc/mss_nwc_init.h **** 
 125:../src/platform/mpfs_hal/common/nwc/mss_nwc_init.h ****     }
 126:../src/platform/mpfs_hal/common/nwc/mss_nwc_init.h **** }
  57              		.loc 1 126 1
  58 0038 0100     		nop
  59 003a 6274     		ld	s0,56(sp)
  60              		.cfi_restore 8
  61              		.cfi_def_cfa 2, 64
  62 003c 2161     		addi	sp,sp,64
  63              		.cfi_def_cfa_offset 0
  64 003e 8280     		jr	ra
  65              		.cfi_endproc
  66              	.LFE23:
  68              		.globl	progress
  69              		.section	.rodata
  70              		.align	3
  71              	.LC0:
  72 0000 7C0D00   		.string	"|\r"
  73 0003 00000000 		.align	3
  73      00
  74              	.LC1:
  75 0008 2F0D00   		.string	"/\r"
  76 000b 00000000 		.align	3
  76      00
  77              	.LC2:
  78 0010 2D0D00   		.string	"-\r"
  79              		.section	.data.progress,"aw"
  80              		.align	3
  83              	progress:
  84 0000 00000000 		.dword	.LC0
  84      00000000 
  85 0008 00000000 		.dword	.LC1
  85      00000000 
  86 0010 00000000 		.dword	.LC2
  86      00000000 
  87              		.section	.bss.g_test_buffer_cached,"aw",@nobits
  88              		.align	3
  91              	g_test_buffer_cached:
  92 0000 00000000 		.zero	3060
  92      00000000 
  92      00000000 
  92      00000000 
  92      00000000 
  93              		.section	.bss.g_test_buffer_not_cached,"aw",@nobits
  94              		.align	3
  97              	g_test_buffer_not_cached:
  98 0000 00000000 		.zero	3060
  98      00000000 
  98      00000000 
  98      00000000 
  98      00000000 
  99              		.comm	ddr_test,8,8
 100              		.section	.text.ddr_write,"ax",@progbits
 101              		.align	1
 103              	ddr_write:
 104              	.LFB24:
 105              		.file 2 "../src/platform/mpfs_hal/common/nwc/mss_ddr_debug.c"
   1:../src/platform/mpfs_hal/common/nwc/mss_ddr_debug.c **** /*******************************************************************************
   2:../src/platform/mpfs_hal/common/nwc/mss_ddr_debug.c ****  * Copyright 2019-2022 Microchip FPGA Embedded Systems Solutions.
   3:../src/platform/mpfs_hal/common/nwc/mss_ddr_debug.c ****  *
   4:../src/platform/mpfs_hal/common/nwc/mss_ddr_debug.c ****  * SPDX-License-Identifier: MIT
   5:../src/platform/mpfs_hal/common/nwc/mss_ddr_debug.c ****  *
   6:../src/platform/mpfs_hal/common/nwc/mss_ddr_debug.c ****  * MPFS HAL Embedded Software
   7:../src/platform/mpfs_hal/common/nwc/mss_ddr_debug.c ****  *
   8:../src/platform/mpfs_hal/common/nwc/mss_ddr_debug.c ****  */
   9:../src/platform/mpfs_hal/common/nwc/mss_ddr_debug.c **** 
  10:../src/platform/mpfs_hal/common/nwc/mss_ddr_debug.c **** /*******************************************************************************
  11:../src/platform/mpfs_hal/common/nwc/mss_ddr_debug.c ****  * @file mss_ddr_debug.h
  12:../src/platform/mpfs_hal/common/nwc/mss_ddr_debug.c ****  * @author Microchip FPGA Embedded Systems Solutions
  13:../src/platform/mpfs_hal/common/nwc/mss_ddr_debug.c ****  * @brief DDR write and read test functions
  14:../src/platform/mpfs_hal/common/nwc/mss_ddr_debug.c ****  *
  15:../src/platform/mpfs_hal/common/nwc/mss_ddr_debug.c ****  */
  16:../src/platform/mpfs_hal/common/nwc/mss_ddr_debug.c **** 
  17:../src/platform/mpfs_hal/common/nwc/mss_ddr_debug.c **** #include <stdio.h>
  18:../src/platform/mpfs_hal/common/nwc/mss_ddr_debug.c **** #include <stdlib.h>
  19:../src/platform/mpfs_hal/common/nwc/mss_ddr_debug.c **** #include <string.h>
  20:../src/platform/mpfs_hal/common/nwc/mss_ddr_debug.c **** #include "mpfs_hal/mss_hal.h"
  21:../src/platform/mpfs_hal/common/nwc/mss_ddr_debug.c **** #include "mss_nwc_init.h"
  22:../src/platform/mpfs_hal/common/nwc/mss_ddr_debug.c **** 
  23:../src/platform/mpfs_hal/common/nwc/mss_ddr_debug.c **** /*******************************************************************************
  24:../src/platform/mpfs_hal/common/nwc/mss_ddr_debug.c ****  * Local Defines
  25:../src/platform/mpfs_hal/common/nwc/mss_ddr_debug.c ****  */
  26:../src/platform/mpfs_hal/common/nwc/mss_ddr_debug.c **** #define DDR_BASE            0x80000000u
  27:../src/platform/mpfs_hal/common/nwc/mss_ddr_debug.c **** #define DDR_SIZE            0x40000000u
  28:../src/platform/mpfs_hal/common/nwc/mss_ddr_debug.c **** 
  29:../src/platform/mpfs_hal/common/nwc/mss_ddr_debug.c **** #define PDMA_CHANNEL0_BASE_ADDRESS  0x3000000ULL
  30:../src/platform/mpfs_hal/common/nwc/mss_ddr_debug.c **** #define PDMA_CHANNEL1_BASE_ADDRESS  0x3001000ULL
  31:../src/platform/mpfs_hal/common/nwc/mss_ddr_debug.c **** #define PDMA_CHANNEL2_BASE_ADDRESS  0x3002000ULL
  32:../src/platform/mpfs_hal/common/nwc/mss_ddr_debug.c **** #define PDMA_CHANNEL3_BASE_ADDRESS  0x3003000ULL
  33:../src/platform/mpfs_hal/common/nwc/mss_ddr_debug.c **** 
  34:../src/platform/mpfs_hal/common/nwc/mss_ddr_debug.c **** const char *progress[3] = {"|\r", "/\r", "-\r"};
  35:../src/platform/mpfs_hal/common/nwc/mss_ddr_debug.c **** typedef void(*pattern_fct_t)(void);
  36:../src/platform/mpfs_hal/common/nwc/mss_ddr_debug.c **** static uint32_t g_test_buffer_cached[765];
  37:../src/platform/mpfs_hal/common/nwc/mss_ddr_debug.c **** static uint32_t g_test_buffer_not_cached[765];
  38:../src/platform/mpfs_hal/common/nwc/mss_ddr_debug.c **** 
  39:../src/platform/mpfs_hal/common/nwc/mss_ddr_debug.c **** /*******************************************************************************
  40:../src/platform/mpfs_hal/common/nwc/mss_ddr_debug.c ****  * External Defines
  41:../src/platform/mpfs_hal/common/nwc/mss_ddr_debug.c ****  */
  42:../src/platform/mpfs_hal/common/nwc/mss_ddr_debug.c **** extern const uint32_t ddr_test_pattern[768];
  43:../src/platform/mpfs_hal/common/nwc/mss_ddr_debug.c **** 
  44:../src/platform/mpfs_hal/common/nwc/mss_ddr_debug.c **** /*******************************************************************************
  45:../src/platform/mpfs_hal/common/nwc/mss_ddr_debug.c ****  * External function declarations
  46:../src/platform/mpfs_hal/common/nwc/mss_ddr_debug.c ****  */
  47:../src/platform/mpfs_hal/common/nwc/mss_ddr_debug.c **** extern void pdma_transfer(uint64_t destination, uint64_t source, uint64_t size_in_bytes, uint64_t b
  48:../src/platform/mpfs_hal/common/nwc/mss_ddr_debug.c **** extern void pdma_transfer_complete( uint64_t base_address);
  49:../src/platform/mpfs_hal/common/nwc/mss_ddr_debug.c **** 
  50:../src/platform/mpfs_hal/common/nwc/mss_ddr_debug.c **** /*******************************************************************************
  51:../src/platform/mpfs_hal/common/nwc/mss_ddr_debug.c ****  * Local data declarations
  52:../src/platform/mpfs_hal/common/nwc/mss_ddr_debug.c ****  */
  53:../src/platform/mpfs_hal/common/nwc/mss_ddr_debug.c **** #ifdef DEBUG_DDR_INIT
  54:../src/platform/mpfs_hal/common/nwc/mss_ddr_debug.c **** mss_uart_instance_t *g_debug_uart;
  55:../src/platform/mpfs_hal/common/nwc/mss_ddr_debug.c **** #endif
  56:../src/platform/mpfs_hal/common/nwc/mss_ddr_debug.c **** 
  57:../src/platform/mpfs_hal/common/nwc/mss_ddr_debug.c **** uint64_t ddr_test;
  58:../src/platform/mpfs_hal/common/nwc/mss_ddr_debug.c **** 
  59:../src/platform/mpfs_hal/common/nwc/mss_ddr_debug.c **** /*******************************************************************************
  60:../src/platform/mpfs_hal/common/nwc/mss_ddr_debug.c ****  * Local function declarations
  61:../src/platform/mpfs_hal/common/nwc/mss_ddr_debug.c ****  */
  62:../src/platform/mpfs_hal/common/nwc/mss_ddr_debug.c **** static uint32_t ddr_write ( volatile uint64_t *DDR_word_ptr,\
  63:../src/platform/mpfs_hal/common/nwc/mss_ddr_debug.c ****         uint32_t no_of_access, uint8_t data_ptrn, DDR_ACCESS_SIZE data_size );
  64:../src/platform/mpfs_hal/common/nwc/mss_ddr_debug.c **** static uint32_t ddr_read ( volatile uint64_t *DDR_word_ptr,\
  65:../src/platform/mpfs_hal/common/nwc/mss_ddr_debug.c ****         uint32_t no_of_access, uint8_t data_ptrn,  DDR_ACCESS_SIZE data_size );
  66:../src/platform/mpfs_hal/common/nwc/mss_ddr_debug.c **** static void load_test_buffers(uint32_t * p_cached_ddr,\
  67:../src/platform/mpfs_hal/common/nwc/mss_ddr_debug.c ****         uint32_t * p_not_cached_ddr, uint64_t length);
  68:../src/platform/mpfs_hal/common/nwc/mss_ddr_debug.c **** 
  69:../src/platform/mpfs_hal/common/nwc/mss_ddr_debug.c **** #ifdef HSS
  70:../src/platform/mpfs_hal/common/nwc/mss_ddr_debug.c **** __attribute__((weak)) int rand(void)
  71:../src/platform/mpfs_hal/common/nwc/mss_ddr_debug.c **** {
  72:../src/platform/mpfs_hal/common/nwc/mss_ddr_debug.c ****     return(0);
  73:../src/platform/mpfs_hal/common/nwc/mss_ddr_debug.c **** }
  74:../src/platform/mpfs_hal/common/nwc/mss_ddr_debug.c **** #endif
  75:../src/platform/mpfs_hal/common/nwc/mss_ddr_debug.c **** 
  76:../src/platform/mpfs_hal/common/nwc/mss_ddr_debug.c **** #ifdef DEBUG_DDR_INIT
  77:../src/platform/mpfs_hal/common/nwc/mss_ddr_debug.c **** /***************************************************************************//**
  78:../src/platform/mpfs_hal/common/nwc/mss_ddr_debug.c ****  * Setup serial port if DDR debug required during start-up
  79:../src/platform/mpfs_hal/common/nwc/mss_ddr_debug.c ****  * @param uart Ref to uart you want to use
  80:../src/platform/mpfs_hal/common/nwc/mss_ddr_debug.c ****  * @return
  81:../src/platform/mpfs_hal/common/nwc/mss_ddr_debug.c ****  */
  82:../src/platform/mpfs_hal/common/nwc/mss_ddr_debug.c **** 
  83:../src/platform/mpfs_hal/common/nwc/mss_ddr_debug.c **** __attribute__((weak))\
  84:../src/platform/mpfs_hal/common/nwc/mss_ddr_debug.c ****         uint32_t setup_ddr_debug_port(mss_uart_instance_t * uart)
  85:../src/platform/mpfs_hal/common/nwc/mss_ddr_debug.c **** {
  86:../src/platform/mpfs_hal/common/nwc/mss_ddr_debug.c **** #ifdef DEBUG_DDR_INIT
  87:../src/platform/mpfs_hal/common/nwc/mss_ddr_debug.c ****     /* Turn on UART0 clock */
  88:../src/platform/mpfs_hal/common/nwc/mss_ddr_debug.c ****     SYSREG->SUBBLK_CLOCK_CR |= (SUBBLK_CLOCK_CR_MMUART0_MASK);
  89:../src/platform/mpfs_hal/common/nwc/mss_ddr_debug.c ****     /* Remove soft reset */
  90:../src/platform/mpfs_hal/common/nwc/mss_ddr_debug.c ****     SYSREG->SOFT_RESET_CR   &= (uint32_t)(~SUBBLK_CLOCK_CR_MMUART0_MASK);
  91:../src/platform/mpfs_hal/common/nwc/mss_ddr_debug.c ****     MSS_UART_init( uart,
  92:../src/platform/mpfs_hal/common/nwc/mss_ddr_debug.c ****         MSS_UART_115200_BAUD,
  93:../src/platform/mpfs_hal/common/nwc/mss_ddr_debug.c ****             MSS_UART_DATA_8_BITS | MSS_UART_NO_PARITY | MSS_UART_ONE_STOP_BIT);
  94:../src/platform/mpfs_hal/common/nwc/mss_ddr_debug.c ****     return(0U);
  95:../src/platform/mpfs_hal/common/nwc/mss_ddr_debug.c **** #endif
  96:../src/platform/mpfs_hal/common/nwc/mss_ddr_debug.c **** }
  97:../src/platform/mpfs_hal/common/nwc/mss_ddr_debug.c **** 
  98:../src/platform/mpfs_hal/common/nwc/mss_ddr_debug.c **** 
  99:../src/platform/mpfs_hal/common/nwc/mss_ddr_debug.c **** /***************************************************************************//**
 100:../src/platform/mpfs_hal/common/nwc/mss_ddr_debug.c ****  * Print in number hex format
 101:../src/platform/mpfs_hal/common/nwc/mss_ddr_debug.c ****  * @param uart
 102:../src/platform/mpfs_hal/common/nwc/mss_ddr_debug.c ****  * @param b
 103:../src/platform/mpfs_hal/common/nwc/mss_ddr_debug.c ****  */
 104:../src/platform/mpfs_hal/common/nwc/mss_ddr_debug.c **** 
 105:../src/platform/mpfs_hal/common/nwc/mss_ddr_debug.c **** static void dumpbyte(mss_uart_instance_t * uart, uint8_t b)
 106:../src/platform/mpfs_hal/common/nwc/mss_ddr_debug.c **** {
 107:../src/platform/mpfs_hal/common/nwc/mss_ddr_debug.c **** #ifdef DEBUG_DDR_INIT
 108:../src/platform/mpfs_hal/common/nwc/mss_ddr_debug.c ****     const uint8_t hexchrs[] = { '0','1','2','3','4','5','6','7','8','9','A','B',\
 109:../src/platform/mpfs_hal/common/nwc/mss_ddr_debug.c ****             'C','D','E','F' };
 110:../src/platform/mpfs_hal/common/nwc/mss_ddr_debug.c ****     MSS_UART_polled_tx(uart, &hexchrs[b >> 4u] , 1);
 111:../src/platform/mpfs_hal/common/nwc/mss_ddr_debug.c ****     MSS_UART_polled_tx(uart, &hexchrs[b & 0x0fu] , 1);
 112:../src/platform/mpfs_hal/common/nwc/mss_ddr_debug.c **** #endif
 113:../src/platform/mpfs_hal/common/nwc/mss_ddr_debug.c **** }
 114:../src/platform/mpfs_hal/common/nwc/mss_ddr_debug.c **** 
 115:../src/platform/mpfs_hal/common/nwc/mss_ddr_debug.c **** /***************************************************************************//**
 116:../src/platform/mpfs_hal/common/nwc/mss_ddr_debug.c ****  *
 117:../src/platform/mpfs_hal/common/nwc/mss_ddr_debug.c ****  * @param uart
 118:../src/platform/mpfs_hal/common/nwc/mss_ddr_debug.c ****  * @param msg
 119:../src/platform/mpfs_hal/common/nwc/mss_ddr_debug.c ****  * @param d
 120:../src/platform/mpfs_hal/common/nwc/mss_ddr_debug.c ****  */
 121:../src/platform/mpfs_hal/common/nwc/mss_ddr_debug.c **** __attribute__((weak))\
 122:../src/platform/mpfs_hal/common/nwc/mss_ddr_debug.c ****         void uprint32(mss_uart_instance_t * uart, const char* msg, uint32_t d)
 123:../src/platform/mpfs_hal/common/nwc/mss_ddr_debug.c **** {
 124:../src/platform/mpfs_hal/common/nwc/mss_ddr_debug.c ****     MSS_UART_polled_tx_string(uart, (const uint8_t *)msg);
 125:../src/platform/mpfs_hal/common/nwc/mss_ddr_debug.c ****     for (unsigned i=0; i < 4; i++)
 126:../src/platform/mpfs_hal/common/nwc/mss_ddr_debug.c ****     {
 127:../src/platform/mpfs_hal/common/nwc/mss_ddr_debug.c ****         dumpbyte(uart, (d >> (8*(3-i))) & 0xffu);
 128:../src/platform/mpfs_hal/common/nwc/mss_ddr_debug.c ****     }
 129:../src/platform/mpfs_hal/common/nwc/mss_ddr_debug.c **** }
 130:../src/platform/mpfs_hal/common/nwc/mss_ddr_debug.c **** 
 131:../src/platform/mpfs_hal/common/nwc/mss_ddr_debug.c **** /***************************************************************************//**
 132:../src/platform/mpfs_hal/common/nwc/mss_ddr_debug.c ****  *
 133:../src/platform/mpfs_hal/common/nwc/mss_ddr_debug.c ****  * @param uart
 134:../src/platform/mpfs_hal/common/nwc/mss_ddr_debug.c ****  * @param msg
 135:../src/platform/mpfs_hal/common/nwc/mss_ddr_debug.c ****  * @param d
 136:../src/platform/mpfs_hal/common/nwc/mss_ddr_debug.c ****  */
 137:../src/platform/mpfs_hal/common/nwc/mss_ddr_debug.c **** __attribute__((weak))\
 138:../src/platform/mpfs_hal/common/nwc/mss_ddr_debug.c ****         void uprint64(mss_uart_instance_t * uart, const char* msg, uint64_t d)
 139:../src/platform/mpfs_hal/common/nwc/mss_ddr_debug.c **** {
 140:../src/platform/mpfs_hal/common/nwc/mss_ddr_debug.c ****     MSS_UART_polled_tx_string(uart, (const uint8_t *)msg);
 141:../src/platform/mpfs_hal/common/nwc/mss_ddr_debug.c ****     for (unsigned i=4; i < 8; i++)
 142:../src/platform/mpfs_hal/common/nwc/mss_ddr_debug.c ****     {
 143:../src/platform/mpfs_hal/common/nwc/mss_ddr_debug.c ****         dumpbyte(uart, (d >> (8*(3-i))) & 0xffu);
 144:../src/platform/mpfs_hal/common/nwc/mss_ddr_debug.c ****     }
 145:../src/platform/mpfs_hal/common/nwc/mss_ddr_debug.c ****     for (unsigned i=0; i < 4; i++)
 146:../src/platform/mpfs_hal/common/nwc/mss_ddr_debug.c ****     {
 147:../src/platform/mpfs_hal/common/nwc/mss_ddr_debug.c ****         dumpbyte(uart, (d >> (8*(3-i))) & 0xffu);
 148:../src/platform/mpfs_hal/common/nwc/mss_ddr_debug.c ****     }
 149:../src/platform/mpfs_hal/common/nwc/mss_ddr_debug.c **** }
 150:../src/platform/mpfs_hal/common/nwc/mss_ddr_debug.c **** 
 151:../src/platform/mpfs_hal/common/nwc/mss_ddr_debug.c **** /***************************************************************************//**
 152:../src/platform/mpfs_hal/common/nwc/mss_ddr_debug.c ****  *
 153:../src/platform/mpfs_hal/common/nwc/mss_ddr_debug.c ****  * @param uart
 154:../src/platform/mpfs_hal/common/nwc/mss_ddr_debug.c ****  * @param msg
 155:../src/platform/mpfs_hal/common/nwc/mss_ddr_debug.c ****  */
 156:../src/platform/mpfs_hal/common/nwc/mss_ddr_debug.c **** __attribute__((weak))\
 157:../src/platform/mpfs_hal/common/nwc/mss_ddr_debug.c ****         void uprint(mss_uart_instance_t * uart, const char* msg)
 158:../src/platform/mpfs_hal/common/nwc/mss_ddr_debug.c **** {
 159:../src/platform/mpfs_hal/common/nwc/mss_ddr_debug.c ****     MSS_UART_polled_tx_string(uart, (const uint8_t *)msg);
 160:../src/platform/mpfs_hal/common/nwc/mss_ddr_debug.c **** }
 161:../src/platform/mpfs_hal/common/nwc/mss_ddr_debug.c **** 
 162:../src/platform/mpfs_hal/common/nwc/mss_ddr_debug.c **** /***************************************************************************//**
 163:../src/platform/mpfs_hal/common/nwc/mss_ddr_debug.c ****  * dump a number of 32bit contiguous registers
 164:../src/platform/mpfs_hal/common/nwc/mss_ddr_debug.c ****  * @param uart
 165:../src/platform/mpfs_hal/common/nwc/mss_ddr_debug.c ****  * @param reg_pointer
 166:../src/platform/mpfs_hal/common/nwc/mss_ddr_debug.c ****  * @param no_of_regs
 167:../src/platform/mpfs_hal/common/nwc/mss_ddr_debug.c ****  */
 168:../src/platform/mpfs_hal/common/nwc/mss_ddr_debug.c **** void print_reg_array(mss_uart_instance_t * uart, uint32_t *reg_pointer,\
 169:../src/platform/mpfs_hal/common/nwc/mss_ddr_debug.c ****         uint32_t no_of_regs)
 170:../src/platform/mpfs_hal/common/nwc/mss_ddr_debug.c **** {
 171:../src/platform/mpfs_hal/common/nwc/mss_ddr_debug.c **** #ifdef DEBUG_DDR_INIT
 172:../src/platform/mpfs_hal/common/nwc/mss_ddr_debug.c ****     while(no_of_regs > 0U)
 173:../src/platform/mpfs_hal/common/nwc/mss_ddr_debug.c ****     {
 174:../src/platform/mpfs_hal/common/nwc/mss_ddr_debug.c ****         uprint64(uart, "\n\rRegister, 0x", (uint64_t)reg_pointer);
 175:../src/platform/mpfs_hal/common/nwc/mss_ddr_debug.c ****         uprint32(uart, "  ,Value, 0x", *reg_pointer);
 176:../src/platform/mpfs_hal/common/nwc/mss_ddr_debug.c ****         reg_pointer++;
 177:../src/platform/mpfs_hal/common/nwc/mss_ddr_debug.c ****         no_of_regs--;
 178:../src/platform/mpfs_hal/common/nwc/mss_ddr_debug.c ****     }
 179:../src/platform/mpfs_hal/common/nwc/mss_ddr_debug.c **** #endif
 180:../src/platform/mpfs_hal/common/nwc/mss_ddr_debug.c **** }
 181:../src/platform/mpfs_hal/common/nwc/mss_ddr_debug.c **** 
 182:../src/platform/mpfs_hal/common/nwc/mss_ddr_debug.c **** #endif
 183:../src/platform/mpfs_hal/common/nwc/mss_ddr_debug.c **** 
 184:../src/platform/mpfs_hal/common/nwc/mss_ddr_debug.c **** /***************************************************************************//**
 185:../src/platform/mpfs_hal/common/nwc/mss_ddr_debug.c ****  * Write data to DDR
 186:../src/platform/mpfs_hal/common/nwc/mss_ddr_debug.c ****  * @param DDR_word_ptr
 187:../src/platform/mpfs_hal/common/nwc/mss_ddr_debug.c ****  * @param no_of_access
 188:../src/platform/mpfs_hal/common/nwc/mss_ddr_debug.c ****  * @param data_ptrn
 189:../src/platform/mpfs_hal/common/nwc/mss_ddr_debug.c ****  * @return
 190:../src/platform/mpfs_hal/common/nwc/mss_ddr_debug.c ****  */
 191:../src/platform/mpfs_hal/common/nwc/mss_ddr_debug.c **** static uint32_t ddr_write
 192:../src/platform/mpfs_hal/common/nwc/mss_ddr_debug.c **** (
 193:../src/platform/mpfs_hal/common/nwc/mss_ddr_debug.c ****     volatile uint64_t *DDR_word_ptr,
 194:../src/platform/mpfs_hal/common/nwc/mss_ddr_debug.c ****     uint32_t no_of_access,
 195:../src/platform/mpfs_hal/common/nwc/mss_ddr_debug.c ****     uint8_t data_ptrn,
 196:../src/platform/mpfs_hal/common/nwc/mss_ddr_debug.c ****     DDR_ACCESS_SIZE data_size
 197:../src/platform/mpfs_hal/common/nwc/mss_ddr_debug.c **** )
 198:../src/platform/mpfs_hal/common/nwc/mss_ddr_debug.c **** {
 106              		.loc 2 198 1
 107              		.cfi_startproc
 108 0000 1D71     		addi	sp,sp,-96
 109              		.cfi_def_cfa_offset 96
 110 0002 86EC     		sd	ra,88(sp)
 111 0004 A2E8     		sd	s0,80(sp)
 112              		.cfi_offset 1, -8
 113              		.cfi_offset 8, -16
 114 0006 8010     		addi	s0,sp,96
 115              		.cfi_def_cfa 8, 0
 116 0008 233CA4FA 		sd	a0,-72(s0)
 117 000c AE87     		mv	a5,a1
 118 000e 3687     		mv	a4,a3
 119 0010 232AF4FA 		sw	a5,-76(s0)
 120 0014 B287     		mv	a5,a2
 121 0016 A309F4FA 		sb	a5,-77(s0)
 122 001a BA87     		mv	a5,a4
 123 001c 2326F4FA 		sw	a5,-84(s0)
 199:../src/platform/mpfs_hal/common/nwc/mss_ddr_debug.c ****     uint32_t i;
 200:../src/platform/mpfs_hal/common/nwc/mss_ddr_debug.c ****     uint64_t DATA;
 201:../src/platform/mpfs_hal/common/nwc/mss_ddr_debug.c ****     uint32_t error_count = 0U;
 124              		.loc 2 201 14
 125 0020 232204FC 		sw	zero,-60(s0)
 202:../src/platform/mpfs_hal/common/nwc/mss_ddr_debug.c **** 
 203:../src/platform/mpfs_hal/common/nwc/mss_ddr_debug.c ****     uint32_t *DDR_32_ptr = (uint32_t *)DDR_word_ptr;
 126              		.loc 2 203 15
 127 0024 833784FB 		ld	a5,-72(s0)
 128 0028 233CF4FC 		sd	a5,-40(s0)
 204:../src/platform/mpfs_hal/common/nwc/mss_ddr_debug.c ****     uint16_t *DDR_16_ptr = (uint16_t *)DDR_word_ptr;
 129              		.loc 2 204 15
 130 002c 833784FB 		ld	a5,-72(s0)
 131 0030 2338F4FC 		sd	a5,-48(s0)
 205:../src/platform/mpfs_hal/common/nwc/mss_ddr_debug.c ****     uint8_t *DDR_8_ptr   = (uint8_t *)DDR_word_ptr;
 132              		.loc 2 205 14
 133 0034 833784FB 		ld	a5,-72(s0)
 134 0038 2334F4FC 		sd	a5,-56(s0)
 206:../src/platform/mpfs_hal/common/nwc/mss_ddr_debug.c **** 
 207:../src/platform/mpfs_hal/common/nwc/mss_ddr_debug.c ****     switch (data_ptrn)
 135              		.loc 2 207 5
 136 003c 834734FB 		lbu	a5,-77(s0)
 137 0040 8127     		sext.w	a5,a5
 138 0042 BE86     		mv	a3,a5
 139 0044 13070004 		li	a4,64
 140 0048 636ED706 		bgtu	a3,a4,.L4
 141 004c 13972700 		slli	a4,a5,2
 142 0050 97070000 		lla	a5,.L6
 142      93870700 
 143 0058 BA97     		add	a5,a4,a5
 144 005a 9C43     		lw	a5,0(a5)
 145 005c 1B870700 		sext.w	a4,a5
 146 0060 97070000 		lla	a5,.L6
 146      93870700 
 147 0068 BA97     		add	a5,a4,a5
 148 006a 8287     		jr	a5
 149              		.section	.rodata.ddr_write,"a",@progbits
 150              		.align	2
 151              		.align	2
 152              	.L6:
 153 0000 00000000 		.word	.L4-.L6
 154 0004 00000000 		.word	.L12-.L6
 155 0008 00000000 		.word	.L11-.L6
 156 000c 00000000 		.word	.L4-.L6
 157 0010 00000000 		.word	.L10-.L6
 158 0014 00000000 		.word	.L4-.L6
 159 0018 00000000 		.word	.L4-.L6
 160 001c 00000000 		.word	.L4-.L6
 161 0020 00000000 		.word	.L9-.L6
 162 0024 00000000 		.word	.L4-.L6
 163 0028 00000000 		.word	.L4-.L6
 164 002c 00000000 		.word	.L4-.L6
 165 0030 00000000 		.word	.L4-.L6
 166 0034 00000000 		.word	.L4-.L6
 167 0038 00000000 		.word	.L4-.L6
 168 003c 00000000 		.word	.L4-.L6
 169 0040 00000000 		.word	.L8-.L6
 170 0044 00000000 		.word	.L4-.L6
 171 0048 00000000 		.word	.L4-.L6
 172 004c 00000000 		.word	.L4-.L6
 173 0050 00000000 		.word	.L4-.L6
 174 0054 00000000 		.word	.L4-.L6
 175 0058 00000000 		.word	.L4-.L6
 176 005c 00000000 		.word	.L4-.L6
 177 0060 00000000 		.word	.L4-.L6
 178 0064 00000000 		.word	.L4-.L6
 179 0068 00000000 		.word	.L4-.L6
 180 006c 00000000 		.word	.L4-.L6
 181 0070 00000000 		.word	.L4-.L6
 182 0074 00000000 		.word	.L4-.L6
 183 0078 00000000 		.word	.L4-.L6
 184 007c 00000000 		.word	.L4-.L6
 185 0080 00000000 		.word	.L7-.L6
 186 0084 00000000 		.word	.L4-.L6
 187 0088 00000000 		.word	.L4-.L6
 188 008c 00000000 		.word	.L4-.L6
 189 0090 00000000 		.word	.L4-.L6
 190 0094 00000000 		.word	.L4-.L6
 191 0098 00000000 		.word	.L4-.L6
 192 009c 00000000 		.word	.L4-.L6
 193 00a0 00000000 		.word	.L4-.L6
 194 00a4 00000000 		.word	.L4-.L6
 195 00a8 00000000 		.word	.L4-.L6
 196 00ac 00000000 		.word	.L4-.L6
 197 00b0 00000000 		.word	.L4-.L6
 198 00b4 00000000 		.word	.L4-.L6
 199 00b8 00000000 		.word	.L4-.L6
 200 00bc 00000000 		.word	.L4-.L6
 201 00c0 00000000 		.word	.L4-.L6
 202 00c4 00000000 		.word	.L4-.L6
 203 00c8 00000000 		.word	.L4-.L6
 204 00cc 00000000 		.word	.L4-.L6
 205 00d0 00000000 		.word	.L4-.L6
 206 00d4 00000000 		.word	.L4-.L6
 207 00d8 00000000 		.word	.L4-.L6
 208 00dc 00000000 		.word	.L4-.L6
 209 00e0 00000000 		.word	.L4-.L6
 210 00e4 00000000 		.word	.L4-.L6
 211 00e8 00000000 		.word	.L4-.L6
 212 00ec 00000000 		.word	.L4-.L6
 213 00f0 00000000 		.word	.L4-.L6
 214 00f4 00000000 		.word	.L4-.L6
 215 00f8 00000000 		.word	.L4-.L6
 216 00fc 00000000 		.word	.L4-.L6
 217 0100 00000000 		.word	.L5-.L6
 218              		.section	.text.ddr_write
 219              	.L12:
 208:../src/platform/mpfs_hal/common/nwc/mss_ddr_debug.c ****     {
 209:../src/platform/mpfs_hal/common/nwc/mss_ddr_debug.c ****         case PATTERN_INCREMENTAL : DATA = 0x00000000; break;
 220              		.loc 2 209 41
 221 006c 233004FE 		sd	zero,-32(s0)
 222              		.loc 2 209 9
 223 0070 A9A8     		j	.L13
 224              	.L11:
 210:../src/platform/mpfs_hal/common/nwc/mss_ddr_debug.c ****         case PATTERN_WALKING_ONE : DATA = 0x00000001; break;
 225              		.loc 2 210 41
 226 0072 8547     		li	a5,1
 227 0074 2330F4FE 		sd	a5,-32(s0)
 228              		.loc 2 210 9
 229 0078 89A8     		j	.L13
 230              	.L10:
 211:../src/platform/mpfs_hal/common/nwc/mss_ddr_debug.c ****         case PATTERN_WALKING_ZERO : DATA = 0x01;
 231              		.loc 2 211 42
 232 007a 8547     		li	a5,1
 233 007c 2330F4FE 		sd	a5,-32(s0)
 212:../src/platform/mpfs_hal/common/nwc/mss_ddr_debug.c ****                  DATA = ~ DATA; break;
 234              		.loc 2 212 23
 235 0080 833704FE 		ld	a5,-32(s0)
 236 0084 93C7F7FF 		not	a5,a5
 237 0088 2330F4FE 		sd	a5,-32(s0)
 238              		.loc 2 212 18
 239 008c 3DA8     		j	.L13
 240              	.L9:
 213:../src/platform/mpfs_hal/common/nwc/mss_ddr_debug.c ****         case PATTERN_RANDOM :
 214:../src/platform/mpfs_hal/common/nwc/mss_ddr_debug.c ****             DATA = (uint64_t)rand ( );
 241              		.loc 2 214 30
 242 008e 97000000 		call	rand
 242      E7800000 
 243 0096 AA87     		mv	a5,a0
 244              		.loc 2 214 18
 245 0098 2330F4FE 		sd	a5,-32(s0)
 215:../src/platform/mpfs_hal/common/nwc/mss_ddr_debug.c ****             break;
 246              		.loc 2 215 13
 247 009c 3DA0     		j	.L13
 248              	.L8:
 216:../src/platform/mpfs_hal/common/nwc/mss_ddr_debug.c ****         case PATTERN_0xCCCCCCCC :
 217:../src/platform/mpfs_hal/common/nwc/mss_ddr_debug.c ****             DATA = 0xCCCCCCCCCCCCCCCC;
 249              		.loc 2 217 18
 250 009e 97070000 		lla	a5,.LC3
 250      93870700 
 251 00a6 9C63     		ld	a5,0(a5)
 252 00a8 2330F4FE 		sd	a5,-32(s0)
 218:../src/platform/mpfs_hal/common/nwc/mss_ddr_debug.c ****             break;
 253              		.loc 2 218 13
 254 00ac 39A8     		j	.L13
 255              	.L7:
 219:../src/platform/mpfs_hal/common/nwc/mss_ddr_debug.c ****         case PATTERN_0x55555555 :
 220:../src/platform/mpfs_hal/common/nwc/mss_ddr_debug.c ****             DATA = 0x5555555555555555;
 256              		.loc 2 220 18
 257 00ae 97070000 		lla	a5,.LC4
 257      93870700 
 258 00b6 9C63     		ld	a5,0(a5)
 259 00b8 2330F4FE 		sd	a5,-32(s0)
 221:../src/platform/mpfs_hal/common/nwc/mss_ddr_debug.c ****             break;
 260              		.loc 2 221 13
 261 00bc 39A0     		j	.L13
 262              	.L5:
 222:../src/platform/mpfs_hal/common/nwc/mss_ddr_debug.c ****         case PATTERN_ZEROS :
 223:../src/platform/mpfs_hal/common/nwc/mss_ddr_debug.c ****             DATA = 0x00000000;
 263              		.loc 2 223 18
 264 00be 233004FE 		sd	zero,-32(s0)
 224:../src/platform/mpfs_hal/common/nwc/mss_ddr_debug.c ****             break;
 265              		.loc 2 224 13
 266 00c2 21A0     		j	.L13
 267              	.L4:
 225:../src/platform/mpfs_hal/common/nwc/mss_ddr_debug.c ****         default :
 226:../src/platform/mpfs_hal/common/nwc/mss_ddr_debug.c ****             DATA = 0x00000000;
 268              		.loc 2 226 18
 269 00c4 233004FE 		sd	zero,-32(s0)
 227:../src/platform/mpfs_hal/common/nwc/mss_ddr_debug.c ****             break;
 270              		.loc 2 227 13
 271 00c8 0100     		nop
 272              	.L13:
 228:../src/platform/mpfs_hal/common/nwc/mss_ddr_debug.c ****     }
 229:../src/platform/mpfs_hal/common/nwc/mss_ddr_debug.c **** 
 230:../src/platform/mpfs_hal/common/nwc/mss_ddr_debug.c ****     for( i = 0; i< (no_of_access); i++)
 273              		.loc 2 230 12
 274 00ca 232604FE 		sw	zero,-20(s0)
 275              		.loc 2 230 5
 276 00ce 41AA     		j	.L14
 277              	.L34:
 231:../src/platform/mpfs_hal/common/nwc/mss_ddr_debug.c ****     {
 232:../src/platform/mpfs_hal/common/nwc/mss_ddr_debug.c ****         switch(data_size)
 278              		.loc 2 232 9
 279 00d0 8327C4FA 		lw	a5,-84(s0)
 280 00d4 1B870700 		sext.w	a4,a5
 281 00d8 8547     		li	a5,1
 282 00da 6302F704 		beq	a4,a5,.L15
 283 00de 8327C4FA 		lw	a5,-84(s0)
 284 00e2 8127     		sext.w	a5,a5
 285 00e4 89CB     		beq	a5,zero,.L16
 286 00e6 8327C4FA 		lw	a5,-84(s0)
 287 00ea 1B870700 		sext.w	a4,a5
 288 00ee 8947     		li	a5,2
 289 00f0 630DF704 		beq	a4,a5,.L17
 290 00f4 BDA8     		j	.L36
 291              	.L16:
 233:../src/platform/mpfs_hal/common/nwc/mss_ddr_debug.c ****         {
 234:../src/platform/mpfs_hal/common/nwc/mss_ddr_debug.c ****             case DDR_8_BIT:
 235:../src/platform/mpfs_hal/common/nwc/mss_ddr_debug.c ****                 DATA &= 0xFFUL;
 292              		.loc 2 235 22
 293 00f6 833704FE 		ld	a5,-32(s0)
 294 00fa 93F7F70F 		andi	a5,a5,255
 295 00fe 2330F4FE 		sd	a5,-32(s0)
 236:../src/platform/mpfs_hal/common/nwc/mss_ddr_debug.c ****                 *DDR_8_ptr = (uint8_t)DATA;
 296              		.loc 2 236 30
 297 0102 833704FE 		ld	a5,-32(s0)
 298 0106 13F7F70F 		andi	a4,a5,0xff
 299              		.loc 2 236 28
 300 010a 833784FC 		ld	a5,-56(s0)
 301 010e 2380E700 		sb	a4,0(a5)
 237:../src/platform/mpfs_hal/common/nwc/mss_ddr_debug.c ****                 DDR_8_ptr = DDR_8_ptr + 1;
 302              		.loc 2 237 27
 303 0112 833784FC 		ld	a5,-56(s0)
 304 0116 8507     		addi	a5,a5,1
 305 0118 2334F4FC 		sd	a5,-56(s0)
 238:../src/platform/mpfs_hal/common/nwc/mss_ddr_debug.c ****                 break;
 306              		.loc 2 238 17
 307 011c B5A0     		j	.L19
 308              	.L15:
 239:../src/platform/mpfs_hal/common/nwc/mss_ddr_debug.c ****             case DDR_16_BIT:
 240:../src/platform/mpfs_hal/common/nwc/mss_ddr_debug.c ****                 DATA &= 0xFFFFUL;
 309              		.loc 2 240 22
 310 011e 033704FE 		ld	a4,-32(s0)
 311 0122 C167     		li	a5,65536
 312 0124 FD17     		addi	a5,a5,-1
 313 0126 F98F     		and	a5,a4,a5
 314 0128 2330F4FE 		sd	a5,-32(s0)
 241:../src/platform/mpfs_hal/common/nwc/mss_ddr_debug.c ****                 *DDR_16_ptr = (uint16_t)DATA;
 315              		.loc 2 241 31
 316 012c 833704FE 		ld	a5,-32(s0)
 317 0130 13970703 		slli	a4,a5,48
 318 0134 4193     		srli	a4,a4,48
 319              		.loc 2 241 29
 320 0136 833704FD 		ld	a5,-48(s0)
 321 013a 2390E700 		sh	a4,0(a5)
 242:../src/platform/mpfs_hal/common/nwc/mss_ddr_debug.c ****                 DDR_16_ptr = DDR_16_ptr + 1;
 322              		.loc 2 242 28
 323 013e 833704FD 		ld	a5,-48(s0)
 324 0142 8907     		addi	a5,a5,2
 325 0144 2338F4FC 		sd	a5,-48(s0)
 243:../src/platform/mpfs_hal/common/nwc/mss_ddr_debug.c ****                 break;
 326              		.loc 2 243 17
 327 0148 81A0     		j	.L19
 328              	.L17:
 244:../src/platform/mpfs_hal/common/nwc/mss_ddr_debug.c ****             case DDR_32_BIT:
 245:../src/platform/mpfs_hal/common/nwc/mss_ddr_debug.c ****                 DATA &= 0xFFFFFFFFUL;
 329              		.loc 2 245 22
 330 014a 033704FE 		ld	a4,-32(s0)
 331 014e FD57     		li	a5,-1
 332 0150 8193     		srli	a5,a5,32
 333 0152 F98F     		and	a5,a4,a5
 334 0154 2330F4FE 		sd	a5,-32(s0)
 246:../src/platform/mpfs_hal/common/nwc/mss_ddr_debug.c ****                 *DDR_32_ptr = (uint32_t)DATA;
 335              		.loc 2 246 31
 336 0158 833704FE 		ld	a5,-32(s0)
 337 015c 1B870700 		sext.w	a4,a5
 338              		.loc 2 246 29
 339 0160 833784FD 		ld	a5,-40(s0)
 340 0164 98C3     		sw	a4,0(a5)
 247:../src/platform/mpfs_hal/common/nwc/mss_ddr_debug.c ****                 DDR_32_ptr = DDR_32_ptr + 1;
 341              		.loc 2 247 28
 342 0166 833784FD 		ld	a5,-40(s0)
 343 016a 9107     		addi	a5,a5,4
 344 016c 233CF4FC 		sd	a5,-40(s0)
 248:../src/platform/mpfs_hal/common/nwc/mss_ddr_debug.c ****                 break;
 345              		.loc 2 248 17
 346 0170 21A8     		j	.L19
 347              	.L36:
 249:../src/platform/mpfs_hal/common/nwc/mss_ddr_debug.c ****             default:
 250:../src/platform/mpfs_hal/common/nwc/mss_ddr_debug.c ****             case DDR_64_BIT:
 251:../src/platform/mpfs_hal/common/nwc/mss_ddr_debug.c ****                 *DDR_word_ptr = DATA;
 348              		.loc 2 251 31
 349 0172 833784FB 		ld	a5,-72(s0)
 350 0176 033704FE 		ld	a4,-32(s0)
 351 017a 98E3     		sd	a4,0(a5)
 252:../src/platform/mpfs_hal/common/nwc/mss_ddr_debug.c ****                 DDR_word_ptr = DDR_word_ptr + 1;
 352              		.loc 2 252 30
 353 017c 833784FB 		ld	a5,-72(s0)
 354 0180 A107     		addi	a5,a5,8
 355 0182 233CF4FA 		sd	a5,-72(s0)
 253:../src/platform/mpfs_hal/common/nwc/mss_ddr_debug.c ****                 break;
 356              		.loc 2 253 17
 357 0186 0100     		nop
 358              	.L19:
 254:../src/platform/mpfs_hal/common/nwc/mss_ddr_debug.c ****         }
 255:../src/platform/mpfs_hal/common/nwc/mss_ddr_debug.c **** 
 256:../src/platform/mpfs_hal/common/nwc/mss_ddr_debug.c **** #ifdef DEBUG_DDR_INIT
 257:../src/platform/mpfs_hal/common/nwc/mss_ddr_debug.c ****         if((i%0x1000000UL) ==0UL)
 258:../src/platform/mpfs_hal/common/nwc/mss_ddr_debug.c ****         {
 259:../src/platform/mpfs_hal/common/nwc/mss_ddr_debug.c ****             MSS_UART_polled_tx(g_debug_uart, (const uint8_t*)"w", (uint32_t)1UL);
 260:../src/platform/mpfs_hal/common/nwc/mss_ddr_debug.c ****         }
 261:../src/platform/mpfs_hal/common/nwc/mss_ddr_debug.c **** #endif
 262:../src/platform/mpfs_hal/common/nwc/mss_ddr_debug.c ****         switch (data_ptrn)
 359              		.loc 2 262 9
 360 0188 834734FB 		lbu	a5,-77(s0)
 361 018c 8127     		sext.w	a5,a5
 362 018e BE86     		mv	a3,a5
 363 0190 13070004 		li	a4,64
 364 0194 636FD70A 		bgtu	a3,a4,.L37
 365 0198 13972700 		slli	a4,a5,2
 366 019c 97070000 		lla	a5,.L22
 366      93870700 
 367 01a4 BA97     		add	a5,a4,a5
 368 01a6 9C43     		lw	a5,0(a5)
 369 01a8 1B870700 		sext.w	a4,a5
 370 01ac 97070000 		lla	a5,.L22
 370      93870700 
 371 01b4 BA97     		add	a5,a4,a5
 372 01b6 8287     		jr	a5
 373              		.section	.rodata.ddr_write
 374              		.align	2
 375              		.align	2
 376              	.L22:
 377 0104 00000000 		.word	.L37-.L22
 378 0108 00000000 		.word	.L28-.L22
 379 010c 00000000 		.word	.L27-.L22
 380 0110 00000000 		.word	.L37-.L22
 381 0114 00000000 		.word	.L26-.L22
 382 0118 00000000 		.word	.L37-.L22
 383 011c 00000000 		.word	.L37-.L22
 384 0120 00000000 		.word	.L37-.L22
 385 0124 00000000 		.word	.L25-.L22
 386 0128 00000000 		.word	.L37-.L22
 387 012c 00000000 		.word	.L37-.L22
 388 0130 00000000 		.word	.L37-.L22
 389 0134 00000000 		.word	.L37-.L22
 390 0138 00000000 		.word	.L37-.L22
 391 013c 00000000 		.word	.L37-.L22
 392 0140 00000000 		.word	.L37-.L22
 393 0144 00000000 		.word	.L24-.L22
 394 0148 00000000 		.word	.L37-.L22
 395 014c 00000000 		.word	.L37-.L22
 396 0150 00000000 		.word	.L37-.L22
 397 0154 00000000 		.word	.L37-.L22
 398 0158 00000000 		.word	.L37-.L22
 399 015c 00000000 		.word	.L37-.L22
 400 0160 00000000 		.word	.L37-.L22
 401 0164 00000000 		.word	.L37-.L22
 402 0168 00000000 		.word	.L37-.L22
 403 016c 00000000 		.word	.L37-.L22
 404 0170 00000000 		.word	.L37-.L22
 405 0174 00000000 		.word	.L37-.L22
 406 0178 00000000 		.word	.L37-.L22
 407 017c 00000000 		.word	.L37-.L22
 408 0180 00000000 		.word	.L37-.L22
 409 0184 00000000 		.word	.L23-.L22
 410 0188 00000000 		.word	.L37-.L22
 411 018c 00000000 		.word	.L37-.L22
 412 0190 00000000 		.word	.L37-.L22
 413 0194 00000000 		.word	.L37-.L22
 414 0198 00000000 		.word	.L37-.L22
 415 019c 00000000 		.word	.L37-.L22
 416 01a0 00000000 		.word	.L37-.L22
 417 01a4 00000000 		.word	.L37-.L22
 418 01a8 00000000 		.word	.L37-.L22
 419 01ac 00000000 		.word	.L37-.L22
 420 01b0 00000000 		.word	.L37-.L22
 421 01b4 00000000 		.word	.L37-.L22
 422 01b8 00000000 		.word	.L37-.L22
 423 01bc 00000000 		.word	.L37-.L22
 424 01c0 00000000 		.word	.L37-.L22
 425 01c4 00000000 		.word	.L37-.L22
 426 01c8 00000000 		.word	.L37-.L22
 427 01cc 00000000 		.word	.L37-.L22
 428 01d0 00000000 		.word	.L37-.L22
 429 01d4 00000000 		.word	.L37-.L22
 430 01d8 00000000 		.word	.L37-.L22
 431 01dc 00000000 		.word	.L37-.L22
 432 01e0 00000000 		.word	.L37-.L22
 433 01e4 00000000 		.word	.L37-.L22
 434 01e8 00000000 		.word	.L37-.L22
 435 01ec 00000000 		.word	.L37-.L22
 436 01f0 00000000 		.word	.L37-.L22
 437 01f4 00000000 		.word	.L37-.L22
 438 01f8 00000000 		.word	.L37-.L22
 439 01fc 00000000 		.word	.L37-.L22
 440 0200 00000000 		.word	.L37-.L22
 441 0204 00000000 		.word	.L21-.L22
 442              		.section	.text.ddr_write
 443              	.L28:
 263:../src/platform/mpfs_hal/common/nwc/mss_ddr_debug.c ****         {
 264:../src/platform/mpfs_hal/common/nwc/mss_ddr_debug.c ****             case PATTERN_INCREMENTAL : DATA = DATA + 0x00000001; break;
 444              		.loc 2 264 45
 445 01b8 833704FE 		ld	a5,-32(s0)
 446 01bc 8507     		addi	a5,a5,1
 447 01be 2330F4FE 		sd	a5,-32(s0)
 448              		.loc 2 264 13
 449 01c2 49A8     		j	.L29
 450              	.L27:
 265:../src/platform/mpfs_hal/common/nwc/mss_ddr_debug.c ****             case PATTERN_WALKING_ONE :
 266:../src/platform/mpfs_hal/common/nwc/mss_ddr_debug.c ****                 if (DATA == 0x80000000)
 451              		.loc 2 266 20
 452 01c4 033704FE 		ld	a4,-32(s0)
 453 01c8 8547     		li	a5,1
 454 01ca FE07     		slli	a5,a5,31
 455 01cc 6316F700 		bne	a4,a5,.L30
 267:../src/platform/mpfs_hal/common/nwc/mss_ddr_debug.c ****                     DATA = 0x00000001;
 456              		.loc 2 267 26
 457 01d0 8547     		li	a5,1
 458 01d2 2330F4FE 		sd	a5,-32(s0)
 268:../src/platform/mpfs_hal/common/nwc/mss_ddr_debug.c ****                 else
 269:../src/platform/mpfs_hal/common/nwc/mss_ddr_debug.c ****                     DATA = (DATA << 1);
 270:../src/platform/mpfs_hal/common/nwc/mss_ddr_debug.c ****                 break;
 459              		.loc 2 270 17
 460 01d6 BDA8     		j	.L29
 461              	.L30:
 269:../src/platform/mpfs_hal/common/nwc/mss_ddr_debug.c ****                 break;
 462              		.loc 2 269 26
 463 01d8 833704FE 		ld	a5,-32(s0)
 464 01dc 8607     		slli	a5,a5,1
 465 01de 2330F4FE 		sd	a5,-32(s0)
 466              		.loc 2 270 17
 467 01e2 8DA8     		j	.L29
 468              	.L26:
 271:../src/platform/mpfs_hal/common/nwc/mss_ddr_debug.c ****             case PATTERN_WALKING_ZERO :
 272:../src/platform/mpfs_hal/common/nwc/mss_ddr_debug.c ****                 DATA = ~DATA;
 469              		.loc 2 272 22
 470 01e4 833704FE 		ld	a5,-32(s0)
 471 01e8 93C7F7FF 		not	a5,a5
 472 01ec 2330F4FE 		sd	a5,-32(s0)
 273:../src/platform/mpfs_hal/common/nwc/mss_ddr_debug.c ****                 if (DATA == 0x80000000)
 473              		.loc 2 273 20
 474 01f0 033704FE 		ld	a4,-32(s0)
 475 01f4 8547     		li	a5,1
 476 01f6 FE07     		slli	a5,a5,31
 477 01f8 6316F700 		bne	a4,a5,.L32
 274:../src/platform/mpfs_hal/common/nwc/mss_ddr_debug.c ****                     DATA = 0x00000001;
 478              		.loc 2 274 26
 479 01fc 8547     		li	a5,1
 480 01fe 2330F4FE 		sd	a5,-32(s0)
 481 0202 31A0     		j	.L33
 482              	.L32:
 275:../src/platform/mpfs_hal/common/nwc/mss_ddr_debug.c ****                 else
 276:../src/platform/mpfs_hal/common/nwc/mss_ddr_debug.c ****                 {
 277:../src/platform/mpfs_hal/common/nwc/mss_ddr_debug.c ****                     DATA = (DATA << 1);
 483              		.loc 2 277 26
 484 0204 833704FE 		ld	a5,-32(s0)
 485 0208 8607     		slli	a5,a5,1
 486 020a 2330F4FE 		sd	a5,-32(s0)
 487              	.L33:
 278:../src/platform/mpfs_hal/common/nwc/mss_ddr_debug.c ****                 }
 279:../src/platform/mpfs_hal/common/nwc/mss_ddr_debug.c ****                 DATA = ~DATA;
 488              		.loc 2 279 22
 489 020e 833704FE 		ld	a5,-32(s0)
 490 0212 93C7F7FF 		not	a5,a5
 491 0216 2330F4FE 		sd	a5,-32(s0)
 280:../src/platform/mpfs_hal/common/nwc/mss_ddr_debug.c ****                 break;
 492              		.loc 2 280 17
 493 021a 2DA8     		j	.L29
 494              	.L25:
 281:../src/platform/mpfs_hal/common/nwc/mss_ddr_debug.c ****             case PATTERN_RANDOM :
 282:../src/platform/mpfs_hal/common/nwc/mss_ddr_debug.c ****                 DATA = (uint64_t)rand ( );
 495              		.loc 2 282 34
 496 021c 97000000 		call	rand
 496      E7800000 
 497 0224 AA87     		mv	a5,a0
 498              		.loc 2 282 22
 499 0226 2330F4FE 		sd	a5,-32(s0)
 283:../src/platform/mpfs_hal/common/nwc/mss_ddr_debug.c ****                 break;
 500              		.loc 2 283 17
 501 022a 2DA0     		j	.L29
 502              	.L24:
 284:../src/platform/mpfs_hal/common/nwc/mss_ddr_debug.c ****             case PATTERN_0xCCCCCCCC :
 285:../src/platform/mpfs_hal/common/nwc/mss_ddr_debug.c ****                 DATA = 0xCCCCCCCCCCCCCCCC;
 503              		.loc 2 285 22
 504 022c 97070000 		lla	a5,.LC3
 504      93870700 
 505 0234 9C63     		ld	a5,0(a5)
 506 0236 2330F4FE 		sd	a5,-32(s0)
 286:../src/platform/mpfs_hal/common/nwc/mss_ddr_debug.c ****                 break;
 507              		.loc 2 286 17
 508 023a 29A8     		j	.L29
 509              	.L23:
 287:../src/platform/mpfs_hal/common/nwc/mss_ddr_debug.c ****             case PATTERN_0x55555555 :
 288:../src/platform/mpfs_hal/common/nwc/mss_ddr_debug.c ****                 DATA = 0x5555555555555555;
 510              		.loc 2 288 22
 511 023c 97070000 		lla	a5,.LC4
 511      93870700 
 512 0244 9C63     		ld	a5,0(a5)
 513 0246 2330F4FE 		sd	a5,-32(s0)
 289:../src/platform/mpfs_hal/common/nwc/mss_ddr_debug.c ****                 break;
 514              		.loc 2 289 17
 515 024a 29A0     		j	.L29
 516              	.L21:
 290:../src/platform/mpfs_hal/common/nwc/mss_ddr_debug.c ****             case PATTERN_ZEROS :
 291:../src/platform/mpfs_hal/common/nwc/mss_ddr_debug.c ****                 DATA = 0x00000000;
 517              		.loc 2 291 22
 518 024c 233004FE 		sd	zero,-32(s0)
 292:../src/platform/mpfs_hal/common/nwc/mss_ddr_debug.c ****                 break;
 519              		.loc 2 292 17
 520 0250 11A0     		j	.L29
 521              	.L37:
 293:../src/platform/mpfs_hal/common/nwc/mss_ddr_debug.c ****             default :
 294:../src/platform/mpfs_hal/common/nwc/mss_ddr_debug.c ****                 break;
 522              		.loc 2 294 17
 523 0252 0100     		nop
 524              	.L29:
 230:../src/platform/mpfs_hal/common/nwc/mss_ddr_debug.c ****     {
 525              		.loc 2 230 37 discriminator 2
 526 0254 8327C4FE 		lw	a5,-20(s0)
 527 0258 8527     		addiw	a5,a5,1
 528 025a 2326F4FE 		sw	a5,-20(s0)
 529              	.L14:
 230:../src/platform/mpfs_hal/common/nwc/mss_ddr_debug.c ****     {
 530              		.loc 2 230 5 discriminator 1
 531 025e 0327C4FE 		lw	a4,-20(s0)
 532 0262 832744FB 		lw	a5,-76(s0)
 533 0266 0127     		sext.w	a4,a4
 534 0268 8127     		sext.w	a5,a5
 535 026a E363F7E6 		bltu	a4,a5,.L34
 295:../src/platform/mpfs_hal/common/nwc/mss_ddr_debug.c ****         }
 296:../src/platform/mpfs_hal/common/nwc/mss_ddr_debug.c ****     }
 297:../src/platform/mpfs_hal/common/nwc/mss_ddr_debug.c ****     return error_count;
 536              		.loc 2 297 12
 537 026e 832744FC 		lw	a5,-60(s0)
 298:../src/platform/mpfs_hal/common/nwc/mss_ddr_debug.c **** }
 538              		.loc 2 298 1
 539 0272 3E85     		mv	a0,a5
 540 0274 E660     		ld	ra,88(sp)
 541              		.cfi_restore 1
 542 0276 4664     		ld	s0,80(sp)
 543              		.cfi_restore 8
 544              		.cfi_def_cfa 2, 96
 545 0278 2561     		addi	sp,sp,96
 546              		.cfi_def_cfa_offset 0
 547 027a 8280     		jr	ra
 548              		.cfi_endproc
 549              	.LFE24:
 551              		.section	.text.ddr_read,"ax",@progbits
 552              		.align	1
 554              	ddr_read:
 555              	.LFB25:
 299:../src/platform/mpfs_hal/common/nwc/mss_ddr_debug.c **** 
 300:../src/platform/mpfs_hal/common/nwc/mss_ddr_debug.c **** /***************************************************************************//**
 301:../src/platform/mpfs_hal/common/nwc/mss_ddr_debug.c ****  * Reads and compares with what was written
 302:../src/platform/mpfs_hal/common/nwc/mss_ddr_debug.c ****  * @param DDR_word_ptr
 303:../src/platform/mpfs_hal/common/nwc/mss_ddr_debug.c ****  * @param no_of_access
 304:../src/platform/mpfs_hal/common/nwc/mss_ddr_debug.c ****  * @param data_ptrn
 305:../src/platform/mpfs_hal/common/nwc/mss_ddr_debug.c ****  * @return 0 => read backs all expected value, otherwise error count
 306:../src/platform/mpfs_hal/common/nwc/mss_ddr_debug.c ****  */
 307:../src/platform/mpfs_hal/common/nwc/mss_ddr_debug.c **** uint32_t ddr_read
 308:../src/platform/mpfs_hal/common/nwc/mss_ddr_debug.c **** (
 309:../src/platform/mpfs_hal/common/nwc/mss_ddr_debug.c ****     volatile uint64_t *DDR_word_ptr,
 310:../src/platform/mpfs_hal/common/nwc/mss_ddr_debug.c ****     uint32_t no_of_access,
 311:../src/platform/mpfs_hal/common/nwc/mss_ddr_debug.c ****     uint8_t data_ptrn,
 312:../src/platform/mpfs_hal/common/nwc/mss_ddr_debug.c ****     DDR_ACCESS_SIZE data_size
 313:../src/platform/mpfs_hal/common/nwc/mss_ddr_debug.c **** )
 314:../src/platform/mpfs_hal/common/nwc/mss_ddr_debug.c **** {
 556              		.loc 2 314 1
 557              		.cfi_startproc
 558 0000 1971     		addi	sp,sp,-128
 559              		.cfi_def_cfa_offset 128
 560 0002 86FC     		sd	ra,120(sp)
 561 0004 A2F8     		sd	s0,112(sp)
 562              		.cfi_offset 1, -8
 563              		.cfi_offset 8, -16
 564 0006 0001     		addi	s0,sp,128
 565              		.cfi_def_cfa 8, 0
 566 0008 233CA4F8 		sd	a0,-104(s0)
 567 000c AE87     		mv	a5,a1
 568 000e 3687     		mv	a4,a3
 569 0010 232AF4F8 		sw	a5,-108(s0)
 570 0014 B287     		mv	a5,a2
 571 0016 A309F4F8 		sb	a5,-109(s0)
 572 001a BA87     		mv	a5,a4
 573 001c 2326F4F8 		sw	a5,-116(s0)
 315:../src/platform/mpfs_hal/common/nwc/mss_ddr_debug.c ****     uint32_t i;
 316:../src/platform/mpfs_hal/common/nwc/mss_ddr_debug.c ****     uint64_t DATA;
 317:../src/platform/mpfs_hal/common/nwc/mss_ddr_debug.c ****     uint32_t err_cnt;
 318:../src/platform/mpfs_hal/common/nwc/mss_ddr_debug.c ****     volatile uint64_t ddr_data;
 319:../src/platform/mpfs_hal/common/nwc/mss_ddr_debug.c ****     volatile uint64_t *DDR_word_pt_t, *first_DDR_word_pt_t;
 320:../src/platform/mpfs_hal/common/nwc/mss_ddr_debug.c ****     uint32_t rand_addr_offset;
 321:../src/platform/mpfs_hal/common/nwc/mss_ddr_debug.c ****     uint8_t *DDR_8_pt_t;
 322:../src/platform/mpfs_hal/common/nwc/mss_ddr_debug.c ****     uint16_t *DDR_16_pt_t;
 323:../src/platform/mpfs_hal/common/nwc/mss_ddr_debug.c ****     uint32_t *DDR_32_pt_t;
 324:../src/platform/mpfs_hal/common/nwc/mss_ddr_debug.c **** 
 325:../src/platform/mpfs_hal/common/nwc/mss_ddr_debug.c ****     err_cnt = 0U;
 574              		.loc 2 325 13
 575 0020 232E04FC 		sw	zero,-36(s0)
 326:../src/platform/mpfs_hal/common/nwc/mss_ddr_debug.c ****     first_DDR_word_pt_t = DDR_word_ptr;
 576              		.loc 2 326 25
 577 0024 833784F9 		ld	a5,-104(s0)
 578 0028 233CF4FA 		sd	a5,-72(s0)
 327:../src/platform/mpfs_hal/common/nwc/mss_ddr_debug.c ****     DDR_8_pt_t = (uint8_t *)DDR_word_ptr;
 579              		.loc 2 327 16
 580 002c 833784F9 		ld	a5,-104(s0)
 581 0030 2338F4FC 		sd	a5,-48(s0)
 328:../src/platform/mpfs_hal/common/nwc/mss_ddr_debug.c ****     DDR_16_pt_t = (uint16_t *)DDR_word_ptr;
 582              		.loc 2 328 17
 583 0034 833784F9 		ld	a5,-104(s0)
 584 0038 2334F4FC 		sd	a5,-56(s0)
 329:../src/platform/mpfs_hal/common/nwc/mss_ddr_debug.c ****     DDR_32_pt_t = (uint32_t *)DDR_word_ptr;
 585              		.loc 2 329 17
 586 003c 833784F9 		ld	a5,-104(s0)
 587 0040 2330F4FC 		sd	a5,-64(s0)
 330:../src/platform/mpfs_hal/common/nwc/mss_ddr_debug.c **** 
 331:../src/platform/mpfs_hal/common/nwc/mss_ddr_debug.c ****     switch (data_ptrn)
 588              		.loc 2 331 5
 589 0044 834734F9 		lbu	a5,-109(s0)
 590 0048 8127     		sext.w	a5,a5
 591 004a BE86     		mv	a3,a5
 592 004c 13070004 		li	a4,64
 593 0050 636BD70A 		bgtu	a3,a4,.L39
 594 0054 13972700 		slli	a4,a5,2
 595 0058 97070000 		lla	a5,.L41
 595      93870700 
 596 0060 BA97     		add	a5,a4,a5
 597 0062 9C43     		lw	a5,0(a5)
 598 0064 1B870700 		sext.w	a4,a5
 599 0068 97070000 		lla	a5,.L41
 599      93870700 
 600 0070 BA97     		add	a5,a4,a5
 601 0072 8287     		jr	a5
 602              		.section	.rodata.ddr_read,"a",@progbits
 603              		.align	2
 604              		.align	2
 605              	.L41:
 606 0000 00000000 		.word	.L39-.L41
 607 0004 00000000 		.word	.L47-.L41
 608 0008 00000000 		.word	.L46-.L41
 609 000c 00000000 		.word	.L39-.L41
 610 0010 00000000 		.word	.L45-.L41
 611 0014 00000000 		.word	.L39-.L41
 612 0018 00000000 		.word	.L39-.L41
 613 001c 00000000 		.word	.L39-.L41
 614 0020 00000000 		.word	.L44-.L41
 615 0024 00000000 		.word	.L39-.L41
 616 0028 00000000 		.word	.L39-.L41
 617 002c 00000000 		.word	.L39-.L41
 618 0030 00000000 		.word	.L39-.L41
 619 0034 00000000 		.word	.L39-.L41
 620 0038 00000000 		.word	.L39-.L41
 621 003c 00000000 		.word	.L39-.L41
 622 0040 00000000 		.word	.L43-.L41
 623 0044 00000000 		.word	.L39-.L41
 624 0048 00000000 		.word	.L39-.L41
 625 004c 00000000 		.word	.L39-.L41
 626 0050 00000000 		.word	.L39-.L41
 627 0054 00000000 		.word	.L39-.L41
 628 0058 00000000 		.word	.L39-.L41
 629 005c 00000000 		.word	.L39-.L41
 630 0060 00000000 		.word	.L39-.L41
 631 0064 00000000 		.word	.L39-.L41
 632 0068 00000000 		.word	.L39-.L41
 633 006c 00000000 		.word	.L39-.L41
 634 0070 00000000 		.word	.L39-.L41
 635 0074 00000000 		.word	.L39-.L41
 636 0078 00000000 		.word	.L39-.L41
 637 007c 00000000 		.word	.L39-.L41
 638 0080 00000000 		.word	.L42-.L41
 639 0084 00000000 		.word	.L39-.L41
 640 0088 00000000 		.word	.L39-.L41
 641 008c 00000000 		.word	.L39-.L41
 642 0090 00000000 		.word	.L39-.L41
 643 0094 00000000 		.word	.L39-.L41
 644 0098 00000000 		.word	.L39-.L41
 645 009c 00000000 		.word	.L39-.L41
 646 00a0 00000000 		.word	.L39-.L41
 647 00a4 00000000 		.word	.L39-.L41
 648 00a8 00000000 		.word	.L39-.L41
 649 00ac 00000000 		.word	.L39-.L41
 650 00b0 00000000 		.word	.L39-.L41
 651 00b4 00000000 		.word	.L39-.L41
 652 00b8 00000000 		.word	.L39-.L41
 653 00bc 00000000 		.word	.L39-.L41
 654 00c0 00000000 		.word	.L39-.L41
 655 00c4 00000000 		.word	.L39-.L41
 656 00c8 00000000 		.word	.L39-.L41
 657 00cc 00000000 		.word	.L39-.L41
 658 00d0 00000000 		.word	.L39-.L41
 659 00d4 00000000 		.word	.L39-.L41
 660 00d8 00000000 		.word	.L39-.L41
 661 00dc 00000000 		.word	.L39-.L41
 662 00e0 00000000 		.word	.L39-.L41
 663 00e4 00000000 		.word	.L39-.L41
 664 00e8 00000000 		.word	.L39-.L41
 665 00ec 00000000 		.word	.L39-.L41
 666 00f0 00000000 		.word	.L39-.L41
 667 00f4 00000000 		.word	.L39-.L41
 668 00f8 00000000 		.word	.L39-.L41
 669 00fc 00000000 		.word	.L39-.L41
 670 0100 00000000 		.word	.L40-.L41
 671              		.section	.text.ddr_read
 672              	.L47:
 332:../src/platform/mpfs_hal/common/nwc/mss_ddr_debug.c ****     {
 333:../src/platform/mpfs_hal/common/nwc/mss_ddr_debug.c ****         case PATTERN_INCREMENTAL : DATA = 0x00000000; break;
 673              		.loc 2 333 41
 674 0074 233004FE 		sd	zero,-32(s0)
 675              		.loc 2 333 9
 676 0078 51A8     		j	.L48
 677              	.L46:
 334:../src/platform/mpfs_hal/common/nwc/mss_ddr_debug.c ****         case PATTERN_WALKING_ONE : DATA = 0x00000001; break;
 678              		.loc 2 334 41
 679 007a 8547     		li	a5,1
 680 007c 2330F4FE 		sd	a5,-32(s0)
 681              		.loc 2 334 9
 682 0080 71A0     		j	.L48
 683              	.L45:
 335:../src/platform/mpfs_hal/common/nwc/mss_ddr_debug.c ****         case PATTERN_WALKING_ZERO : DATA = 0x01;
 684              		.loc 2 335 42
 685 0082 8547     		li	a5,1
 686 0084 2330F4FE 		sd	a5,-32(s0)
 336:../src/platform/mpfs_hal/common/nwc/mss_ddr_debug.c ****             DATA = ~ DATA; break;
 687              		.loc 2 336 18
 688 0088 833704FE 		ld	a5,-32(s0)
 689 008c 93C7F7FF 		not	a5,a5
 690 0090 2330F4FE 		sd	a5,-32(s0)
 691              		.loc 2 336 13
 692 0094 A5A8     		j	.L48
 693              	.L44:
 337:../src/platform/mpfs_hal/common/nwc/mss_ddr_debug.c ****         case PATTERN_RANDOM :
 338:../src/platform/mpfs_hal/common/nwc/mss_ddr_debug.c ****             DATA = (uint64_t)rand ( );
 694              		.loc 2 338 30
 695 0096 97000000 		call	rand
 695      E7800000 
 696 009e AA87     		mv	a5,a0
 697              		.loc 2 338 18
 698 00a0 2330F4FE 		sd	a5,-32(s0)
 339:../src/platform/mpfs_hal/common/nwc/mss_ddr_debug.c ****             *DDR_word_ptr = DATA;
 699              		.loc 2 339 27
 700 00a4 833784F9 		ld	a5,-104(s0)
 701 00a8 033704FE 		ld	a4,-32(s0)
 702 00ac 98E3     		sd	a4,0(a5)
 340:../src/platform/mpfs_hal/common/nwc/mss_ddr_debug.c ****             *DDR_8_pt_t =  (uint8_t)DATA;
 703              		.loc 2 340 28
 704 00ae 833704FE 		ld	a5,-32(s0)
 705 00b2 13F7F70F 		andi	a4,a5,0xff
 706              		.loc 2 340 25
 707 00b6 833704FD 		ld	a5,-48(s0)
 708 00ba 2380E700 		sb	a4,0(a5)
 341:../src/platform/mpfs_hal/common/nwc/mss_ddr_debug.c ****             *DDR_16_pt_t = (uint16_t)DATA;
 709              		.loc 2 341 28
 710 00be 833704FE 		ld	a5,-32(s0)
 711 00c2 13970703 		slli	a4,a5,48
 712 00c6 4193     		srli	a4,a4,48
 713              		.loc 2 341 26
 714 00c8 833784FC 		ld	a5,-56(s0)
 715 00cc 2390E700 		sh	a4,0(a5)
 342:../src/platform/mpfs_hal/common/nwc/mss_ddr_debug.c ****             *DDR_32_pt_t = (uint32_t)DATA;
 716              		.loc 2 342 28
 717 00d0 833704FE 		ld	a5,-32(s0)
 718 00d4 1B870700 		sext.w	a4,a5
 719              		.loc 2 342 26
 720 00d8 833704FC 		ld	a5,-64(s0)
 721 00dc 98C3     		sw	a4,0(a5)
 343:../src/platform/mpfs_hal/common/nwc/mss_ddr_debug.c ****             break;
 722              		.loc 2 343 13
 723 00de 3DA0     		j	.L48
 724              	.L43:
 344:../src/platform/mpfs_hal/common/nwc/mss_ddr_debug.c ****         case PATTERN_0xCCCCCCCC :
 345:../src/platform/mpfs_hal/common/nwc/mss_ddr_debug.c ****             DATA = 0xCCCCCCCCCCCCCCCC;
 725              		.loc 2 345 18
 726 00e0 97070000 		lla	a5,.LC3
 726      93870700 
 727 00e8 9C63     		ld	a5,0(a5)
 728 00ea 2330F4FE 		sd	a5,-32(s0)
 346:../src/platform/mpfs_hal/common/nwc/mss_ddr_debug.c ****             break;
 729              		.loc 2 346 13
 730 00ee 39A8     		j	.L48
 731              	.L42:
 347:../src/platform/mpfs_hal/common/nwc/mss_ddr_debug.c ****         case PATTERN_0x55555555 :
 348:../src/platform/mpfs_hal/common/nwc/mss_ddr_debug.c ****             DATA = 0x5555555555555555;
 732              		.loc 2 348 18
 733 00f0 97070000 		lla	a5,.LC4
 733      93870700 
 734 00f8 9C63     		ld	a5,0(a5)
 735 00fa 2330F4FE 		sd	a5,-32(s0)
 349:../src/platform/mpfs_hal/common/nwc/mss_ddr_debug.c ****             break;
 736              		.loc 2 349 13
 737 00fe 39A0     		j	.L48
 738              	.L40:
 350:../src/platform/mpfs_hal/common/nwc/mss_ddr_debug.c ****         case PATTERN_ZEROS :
 351:../src/platform/mpfs_hal/common/nwc/mss_ddr_debug.c ****             DATA = 0x00000000;
 739              		.loc 2 351 18
 740 0100 233004FE 		sd	zero,-32(s0)
 352:../src/platform/mpfs_hal/common/nwc/mss_ddr_debug.c ****         break;
 741              		.loc 2 352 9
 742 0104 21A0     		j	.L48
 743              	.L39:
 353:../src/platform/mpfs_hal/common/nwc/mss_ddr_debug.c ****         default :
 354:../src/platform/mpfs_hal/common/nwc/mss_ddr_debug.c ****            DATA = 0x00000000;
 744              		.loc 2 354 17
 745 0106 233004FE 		sd	zero,-32(s0)
 355:../src/platform/mpfs_hal/common/nwc/mss_ddr_debug.c ****            break;
 746              		.loc 2 355 12
 747 010a 0100     		nop
 748              	.L48:
 356:../src/platform/mpfs_hal/common/nwc/mss_ddr_debug.c ****     }
 357:../src/platform/mpfs_hal/common/nwc/mss_ddr_debug.c ****     if (data_ptrn == '4')
 749              		.loc 2 357 8
 750 010c 834734F9 		lbu	a5,-109(s0)
 751 0110 13F7F70F 		andi	a4,a5,0xff
 752 0114 93074003 		li	a5,52
 753 0118 6318F700 		bne	a4,a5,.L49
 358:../src/platform/mpfs_hal/common/nwc/mss_ddr_debug.c ****     {
 359:../src/platform/mpfs_hal/common/nwc/mss_ddr_debug.c ****         delay(DELAY_CYCLES_500_NS);
 754              		.loc 2 359 9
 755 011c 1305C012 		li	a0,300
 756 0120 97000000 		call	delay
 756      E7800000 
 757              	.L49:
 360:../src/platform/mpfs_hal/common/nwc/mss_ddr_debug.c ****     }
 361:../src/platform/mpfs_hal/common/nwc/mss_ddr_debug.c ****     for( i = 0; i< (no_of_access); i++)
 758              		.loc 2 361 12
 759 0128 232604FE 		sw	zero,-20(s0)
 760              		.loc 2 361 5
 761 012c 25AC     		j	.L50
 762              	.L71:
 362:../src/platform/mpfs_hal/common/nwc/mss_ddr_debug.c ****     {
 363:../src/platform/mpfs_hal/common/nwc/mss_ddr_debug.c ****         switch(data_size)
 763              		.loc 2 363 9
 764 012e 8327C4F8 		lw	a5,-116(s0)
 765 0132 1B870700 		sext.w	a4,a5
 766 0136 8547     		li	a5,1
 767 0138 630BF702 		beq	a4,a5,.L51
 768 013c 8327C4F8 		lw	a5,-116(s0)
 769 0140 8127     		sext.w	a5,a5
 770 0142 89CB     		beq	a5,zero,.L52
 771 0144 8327C4F8 		lw	a5,-116(s0)
 772 0148 1B870700 		sext.w	a4,a5
 773 014c 8947     		li	a5,2
 774 014e 630EF702 		beq	a4,a5,.L53
 775 0152 99A8     		j	.L73
 776              	.L52:
 364:../src/platform/mpfs_hal/common/nwc/mss_ddr_debug.c ****         {
 365:../src/platform/mpfs_hal/common/nwc/mss_ddr_debug.c ****             case DDR_8_BIT:
 366:../src/platform/mpfs_hal/common/nwc/mss_ddr_debug.c ****                 DATA &= 0xFFUL;
 777              		.loc 2 366 22
 778 0154 833704FE 		ld	a5,-32(s0)
 779 0158 93F7F70F 		andi	a5,a5,255
 780 015c 2330F4FE 		sd	a5,-32(s0)
 367:../src/platform/mpfs_hal/common/nwc/mss_ddr_debug.c ****                 ddr_data = *DDR_8_pt_t;
 781              		.loc 2 367 28
 782 0160 833704FD 		ld	a5,-48(s0)
 783 0164 83C70700 		lbu	a5,0(a5)
 784              		.loc 2 367 26
 785 0168 2330F4FA 		sd	a5,-96(s0)
 368:../src/platform/mpfs_hal/common/nwc/mss_ddr_debug.c ****                 break;
 786              		.loc 2 368 17
 787 016c 81A8     		j	.L55
 788              	.L51:
 369:../src/platform/mpfs_hal/common/nwc/mss_ddr_debug.c ****             case DDR_16_BIT:
 370:../src/platform/mpfs_hal/common/nwc/mss_ddr_debug.c ****                 DATA &= 0xFFFFUL;
 789              		.loc 2 370 22
 790 016e 033704FE 		ld	a4,-32(s0)
 791 0172 C167     		li	a5,65536
 792 0174 FD17     		addi	a5,a5,-1
 793 0176 F98F     		and	a5,a4,a5
 794 0178 2330F4FE 		sd	a5,-32(s0)
 371:../src/platform/mpfs_hal/common/nwc/mss_ddr_debug.c ****                 ddr_data = *DDR_16_pt_t;
 795              		.loc 2 371 28
 796 017c 833784FC 		ld	a5,-56(s0)
 797 0180 83D70700 		lhu	a5,0(a5)
 798              		.loc 2 371 26
 799 0184 2330F4FA 		sd	a5,-96(s0)
 372:../src/platform/mpfs_hal/common/nwc/mss_ddr_debug.c ****                 break;
 800              		.loc 2 372 17
 801 0188 15A8     		j	.L55
 802              	.L53:
 373:../src/platform/mpfs_hal/common/nwc/mss_ddr_debug.c ****             case DDR_32_BIT:
 374:../src/platform/mpfs_hal/common/nwc/mss_ddr_debug.c ****                 DATA &= 0xFFFFFFFFUL;
 803              		.loc 2 374 22
 804 018a 033704FE 		ld	a4,-32(s0)
 805 018e FD57     		li	a5,-1
 806 0190 8193     		srli	a5,a5,32
 807 0192 F98F     		and	a5,a4,a5
 808 0194 2330F4FE 		sd	a5,-32(s0)
 375:../src/platform/mpfs_hal/common/nwc/mss_ddr_debug.c ****                 ddr_data = *DDR_32_pt_t;
 809              		.loc 2 375 28
 810 0198 833704FC 		ld	a5,-64(s0)
 811 019c 9C43     		lw	a5,0(a5)
 812 019e 8217     		slli	a5,a5,32
 813 01a0 8193     		srli	a5,a5,32
 814              		.loc 2 375 26
 815 01a2 2330F4FA 		sd	a5,-96(s0)
 376:../src/platform/mpfs_hal/common/nwc/mss_ddr_debug.c ****                 break;
 816              		.loc 2 376 17
 817 01a6 19A8     		j	.L55
 818              	.L73:
 377:../src/platform/mpfs_hal/common/nwc/mss_ddr_debug.c ****             default:
 378:../src/platform/mpfs_hal/common/nwc/mss_ddr_debug.c ****             case DDR_64_BIT:
 379:../src/platform/mpfs_hal/common/nwc/mss_ddr_debug.c ****                 DDR_word_pt_t = DDR_word_ptr;
 819              		.loc 2 379 31
 820 01a8 833784F9 		ld	a5,-104(s0)
 821 01ac 2338F4FA 		sd	a5,-80(s0)
 380:../src/platform/mpfs_hal/common/nwc/mss_ddr_debug.c ****                 ddr_data = *DDR_word_pt_t;
 822              		.loc 2 380 28
 823 01b0 833704FB 		ld	a5,-80(s0)
 824 01b4 9C63     		ld	a5,0(a5)
 825              		.loc 2 380 26
 826 01b6 2330F4FA 		sd	a5,-96(s0)
 381:../src/platform/mpfs_hal/common/nwc/mss_ddr_debug.c ****                 break;
 827              		.loc 2 381 17
 828 01ba 0100     		nop
 829              	.L55:
 382:../src/platform/mpfs_hal/common/nwc/mss_ddr_debug.c ****         }
 383:../src/platform/mpfs_hal/common/nwc/mss_ddr_debug.c **** 
 384:../src/platform/mpfs_hal/common/nwc/mss_ddr_debug.c **** #ifdef DEBUG_DDR_INIT
 385:../src/platform/mpfs_hal/common/nwc/mss_ddr_debug.c ****         if((i%0x1000000UL) ==0UL)
 386:../src/platform/mpfs_hal/common/nwc/mss_ddr_debug.c ****         {
 387:../src/platform/mpfs_hal/common/nwc/mss_ddr_debug.c ****             MSS_UART_polled_tx(g_debug_uart, (const uint8_t*)"r", (uint32_t)1UL);
 388:../src/platform/mpfs_hal/common/nwc/mss_ddr_debug.c ****         }
 389:../src/platform/mpfs_hal/common/nwc/mss_ddr_debug.c **** #endif
 390:../src/platform/mpfs_hal/common/nwc/mss_ddr_debug.c **** 
 391:../src/platform/mpfs_hal/common/nwc/mss_ddr_debug.c ****         if (ddr_data != DATA)
 830              		.loc 2 391 22
 831 01bc 833704FA 		ld	a5,-96(s0)
 832              		.loc 2 391 12
 833 01c0 033704FE 		ld	a4,-32(s0)
 834 01c4 6307F700 		beq	a4,a5,.L56
 392:../src/platform/mpfs_hal/common/nwc/mss_ddr_debug.c ****         {
 393:../src/platform/mpfs_hal/common/nwc/mss_ddr_debug.c **** #ifdef DEBUG_DDR_INIT
 394:../src/platform/mpfs_hal/common/nwc/mss_ddr_debug.c **** #ifdef DEBUG_DDR_RD_RW_FAIL
 395:../src/platform/mpfs_hal/common/nwc/mss_ddr_debug.c ****             if (err_cnt <=0xF)
 396:../src/platform/mpfs_hal/common/nwc/mss_ddr_debug.c ****             {
 397:../src/platform/mpfs_hal/common/nwc/mss_ddr_debug.c ****                 uprint64(g_debug_uart,\
 398:../src/platform/mpfs_hal/common/nwc/mss_ddr_debug.c ****                         "\n\r READ/ WRITE ACCESS FAILED AT ADDR: 0x ",\
 399:../src/platform/mpfs_hal/common/nwc/mss_ddr_debug.c ****                             (uintptr_t)DDR_word_ptr);
 400:../src/platform/mpfs_hal/common/nwc/mss_ddr_debug.c ****                 uprint64(g_debug_uart,"\t Expected Data 0x ", DATA);
 401:../src/platform/mpfs_hal/common/nwc/mss_ddr_debug.c ****                 uprint64(g_debug_uart,"\t READ DATA: 0x ", ddr_data);
 402:../src/platform/mpfs_hal/common/nwc/mss_ddr_debug.c ****                 uprint64(g_debug_uart,"\t READ DATA: 0x ", *DDR_word_ptr);
 403:../src/platform/mpfs_hal/common/nwc/mss_ddr_debug.c ****                 uprint64(g_debug_uart,"\t READ DATA: 0x ", *DDR_word_ptr);
 404:../src/platform/mpfs_hal/common/nwc/mss_ddr_debug.c ****             }
 405:../src/platform/mpfs_hal/common/nwc/mss_ddr_debug.c **** #endif
 406:../src/platform/mpfs_hal/common/nwc/mss_ddr_debug.c **** #endif
 407:../src/platform/mpfs_hal/common/nwc/mss_ddr_debug.c ****             err_cnt++;
 835              		.loc 2 407 20
 836 01c8 8327C4FD 		lw	a5,-36(s0)
 837 01cc 8527     		addiw	a5,a5,1
 838 01ce 232EF4FC 		sw	a5,-36(s0)
 839              	.L56:
 408:../src/platform/mpfs_hal/common/nwc/mss_ddr_debug.c ****         }
 409:../src/platform/mpfs_hal/common/nwc/mss_ddr_debug.c ****         else
 410:../src/platform/mpfs_hal/common/nwc/mss_ddr_debug.c ****         {
 411:../src/platform/mpfs_hal/common/nwc/mss_ddr_debug.c **** #ifdef DEBUG_DDR_RD_RW_PASS
 412:../src/platform/mpfs_hal/common/nwc/mss_ddr_debug.c ****             //printf("\n\r READ/ WRITE ACCESS passED AT ADDR: 0x%x expected data = 0x%x, Data read 
 413:../src/platform/mpfs_hal/common/nwc/mss_ddr_debug.c ****             uprint64(g_debug_uart, "\n\r READ/ WRITE ACCESS PASSED AT ADDR: 0x"\
 414:../src/platform/mpfs_hal/common/nwc/mss_ddr_debug.c ****                     , (uintptr_t)DDR_word_ptr);
 415:../src/platform/mpfs_hal/common/nwc/mss_ddr_debug.c ****             uprint64(g_debug_uart,"\t READ DATA: 0x", *DDR_word_ptr);
 416:../src/platform/mpfs_hal/common/nwc/mss_ddr_debug.c **** #endif
 417:../src/platform/mpfs_hal/common/nwc/mss_ddr_debug.c ****         }
 418:../src/platform/mpfs_hal/common/nwc/mss_ddr_debug.c ****         DDR_word_ptr = DDR_word_ptr + 1U;
 840              		.loc 2 418 22
 841 01d2 833784F9 		ld	a5,-104(s0)
 842 01d6 A107     		addi	a5,a5,8
 843 01d8 233CF4F8 		sd	a5,-104(s0)
 419:../src/platform/mpfs_hal/common/nwc/mss_ddr_debug.c ****         DDR_8_pt_t   = DDR_8_pt_t +1U;
 844              		.loc 2 419 22
 845 01dc 833704FD 		ld	a5,-48(s0)
 846 01e0 8507     		addi	a5,a5,1
 847 01e2 2338F4FC 		sd	a5,-48(s0)
 420:../src/platform/mpfs_hal/common/nwc/mss_ddr_debug.c ****         DDR_16_pt_t  = DDR_16_pt_t +1U;
 848              		.loc 2 420 22
 849 01e6 833784FC 		ld	a5,-56(s0)
 850 01ea 8907     		addi	a5,a5,2
 851 01ec 2334F4FC 		sd	a5,-56(s0)
 421:../src/platform/mpfs_hal/common/nwc/mss_ddr_debug.c ****         DDR_32_pt_t  = DDR_32_pt_t +1U;
 852              		.loc 2 421 22
 853 01f0 833704FC 		ld	a5,-64(s0)
 854 01f4 9107     		addi	a5,a5,4
 855 01f6 2330F4FC 		sd	a5,-64(s0)
 422:../src/platform/mpfs_hal/common/nwc/mss_ddr_debug.c ****         switch (data_ptrn)
 856              		.loc 2 422 9
 857 01fa 834734F9 		lbu	a5,-109(s0)
 858 01fe 8127     		sext.w	a5,a5
 859 0200 BE86     		mv	a3,a5
 860 0202 13070004 		li	a4,64
 861 0206 6369D714 		bgtu	a3,a4,.L74
 862 020a 13972700 		slli	a4,a5,2
 863 020e 97070000 		lla	a5,.L59
 863      93870700 
 864 0216 BA97     		add	a5,a4,a5
 865 0218 9C43     		lw	a5,0(a5)
 866 021a 1B870700 		sext.w	a4,a5
 867 021e 97070000 		lla	a5,.L59
 867      93870700 
 868 0226 BA97     		add	a5,a4,a5
 869 0228 8287     		jr	a5
 870              		.section	.rodata.ddr_read
 871              		.align	2
 872              		.align	2
 873              	.L59:
 874 0104 00000000 		.word	.L74-.L59
 875 0108 00000000 		.word	.L65-.L59
 876 010c 00000000 		.word	.L64-.L59
 877 0110 00000000 		.word	.L74-.L59
 878 0114 00000000 		.word	.L63-.L59
 879 0118 00000000 		.word	.L74-.L59
 880 011c 00000000 		.word	.L74-.L59
 881 0120 00000000 		.word	.L74-.L59
 882 0124 00000000 		.word	.L62-.L59
 883 0128 00000000 		.word	.L74-.L59
 884 012c 00000000 		.word	.L74-.L59
 885 0130 00000000 		.word	.L74-.L59
 886 0134 00000000 		.word	.L74-.L59
 887 0138 00000000 		.word	.L74-.L59
 888 013c 00000000 		.word	.L74-.L59
 889 0140 00000000 		.word	.L74-.L59
 890 0144 00000000 		.word	.L61-.L59
 891 0148 00000000 		.word	.L74-.L59
 892 014c 00000000 		.word	.L74-.L59
 893 0150 00000000 		.word	.L74-.L59
 894 0154 00000000 		.word	.L74-.L59
 895 0158 00000000 		.word	.L74-.L59
 896 015c 00000000 		.word	.L74-.L59
 897 0160 00000000 		.word	.L74-.L59
 898 0164 00000000 		.word	.L74-.L59
 899 0168 00000000 		.word	.L74-.L59
 900 016c 00000000 		.word	.L74-.L59
 901 0170 00000000 		.word	.L74-.L59
 902 0174 00000000 		.word	.L74-.L59
 903 0178 00000000 		.word	.L74-.L59
 904 017c 00000000 		.word	.L74-.L59
 905 0180 00000000 		.word	.L74-.L59
 906 0184 00000000 		.word	.L60-.L59
 907 0188 00000000 		.word	.L74-.L59
 908 018c 00000000 		.word	.L74-.L59
 909 0190 00000000 		.word	.L74-.L59
 910 0194 00000000 		.word	.L74-.L59
 911 0198 00000000 		.word	.L74-.L59
 912 019c 00000000 		.word	.L74-.L59
 913 01a0 00000000 		.word	.L74-.L59
 914 01a4 00000000 		.word	.L74-.L59
 915 01a8 00000000 		.word	.L74-.L59
 916 01ac 00000000 		.word	.L74-.L59
 917 01b0 00000000 		.word	.L74-.L59
 918 01b4 00000000 		.word	.L74-.L59
 919 01b8 00000000 		.word	.L74-.L59
 920 01bc 00000000 		.word	.L74-.L59
 921 01c0 00000000 		.word	.L74-.L59
 922 01c4 00000000 		.word	.L74-.L59
 923 01c8 00000000 		.word	.L74-.L59
 924 01cc 00000000 		.word	.L74-.L59
 925 01d0 00000000 		.word	.L74-.L59
 926 01d4 00000000 		.word	.L74-.L59
 927 01d8 00000000 		.word	.L74-.L59
 928 01dc 00000000 		.word	.L74-.L59
 929 01e0 00000000 		.word	.L74-.L59
 930 01e4 00000000 		.word	.L74-.L59
 931 01e8 00000000 		.word	.L74-.L59
 932 01ec 00000000 		.word	.L74-.L59
 933 01f0 00000000 		.word	.L74-.L59
 934 01f4 00000000 		.word	.L74-.L59
 935 01f8 00000000 		.word	.L74-.L59
 936 01fc 00000000 		.word	.L74-.L59
 937 0200 00000000 		.word	.L74-.L59
 938 0204 00000000 		.word	.L58-.L59
 939              		.section	.text.ddr_read
 940              	.L65:
 423:../src/platform/mpfs_hal/common/nwc/mss_ddr_debug.c ****         {
 424:../src/platform/mpfs_hal/common/nwc/mss_ddr_debug.c ****             case PATTERN_INCREMENTAL : DATA = DATA + 0x01; break;
 941              		.loc 2 424 45
 942 022a 833704FE 		ld	a5,-32(s0)
 943 022e 8507     		addi	a5,a5,1
 944 0230 2330F4FE 		sd	a5,-32(s0)
 945              		.loc 2 424 13
 946 0234 1DA2     		j	.L66
 947              	.L64:
 425:../src/platform/mpfs_hal/common/nwc/mss_ddr_debug.c ****             case PATTERN_WALKING_ONE :
 426:../src/platform/mpfs_hal/common/nwc/mss_ddr_debug.c ****                 if (DATA == 0x80000000)
 948              		.loc 2 426 20
 949 0236 033704FE 		ld	a4,-32(s0)
 950 023a 8547     		li	a5,1
 951 023c FE07     		slli	a5,a5,31
 952 023e 6316F700 		bne	a4,a5,.L67
 427:../src/platform/mpfs_hal/common/nwc/mss_ddr_debug.c ****                     DATA = 0x00000001;
 953              		.loc 2 427 26
 954 0242 8547     		li	a5,1
 955 0244 2330F4FE 		sd	a5,-32(s0)
 428:../src/platform/mpfs_hal/common/nwc/mss_ddr_debug.c ****                 else
 429:../src/platform/mpfs_hal/common/nwc/mss_ddr_debug.c ****                     DATA = (DATA << 1);
 430:../src/platform/mpfs_hal/common/nwc/mss_ddr_debug.c ****                 break;
 956              		.loc 2 430 17
 957 0248 09AA     		j	.L66
 958              	.L67:
 429:../src/platform/mpfs_hal/common/nwc/mss_ddr_debug.c ****                 break;
 959              		.loc 2 429 26
 960 024a 833704FE 		ld	a5,-32(s0)
 961 024e 8607     		slli	a5,a5,1
 962 0250 2330F4FE 		sd	a5,-32(s0)
 963              		.loc 2 430 17
 964 0254 19A2     		j	.L66
 965              	.L63:
 431:../src/platform/mpfs_hal/common/nwc/mss_ddr_debug.c ****             case PATTERN_WALKING_ZERO :
 432:../src/platform/mpfs_hal/common/nwc/mss_ddr_debug.c ****                 DATA = ~DATA;
 966              		.loc 2 432 22
 967 0256 833704FE 		ld	a5,-32(s0)
 968 025a 93C7F7FF 		not	a5,a5
 969 025e 2330F4FE 		sd	a5,-32(s0)
 433:../src/platform/mpfs_hal/common/nwc/mss_ddr_debug.c ****                 if (DATA == 0x80000000)
 970              		.loc 2 433 20
 971 0262 033704FE 		ld	a4,-32(s0)
 972 0266 8547     		li	a5,1
 973 0268 FE07     		slli	a5,a5,31
 974 026a 6316F700 		bne	a4,a5,.L69
 434:../src/platform/mpfs_hal/common/nwc/mss_ddr_debug.c ****                 {
 435:../src/platform/mpfs_hal/common/nwc/mss_ddr_debug.c ****                     DATA = 0x00000001;
 975              		.loc 2 435 26
 976 026e 8547     		li	a5,1
 977 0270 2330F4FE 		sd	a5,-32(s0)
 978 0274 31A0     		j	.L70
 979              	.L69:
 436:../src/platform/mpfs_hal/common/nwc/mss_ddr_debug.c ****                 }
 437:../src/platform/mpfs_hal/common/nwc/mss_ddr_debug.c ****                 else
 438:../src/platform/mpfs_hal/common/nwc/mss_ddr_debug.c ****                 {
 439:../src/platform/mpfs_hal/common/nwc/mss_ddr_debug.c ****                     DATA = (DATA << 1);
 980              		.loc 2 439 26
 981 0276 833704FE 		ld	a5,-32(s0)
 982 027a 8607     		slli	a5,a5,1
 983 027c 2330F4FE 		sd	a5,-32(s0)
 984              	.L70:
 440:../src/platform/mpfs_hal/common/nwc/mss_ddr_debug.c ****                 }
 441:../src/platform/mpfs_hal/common/nwc/mss_ddr_debug.c ****                 DATA = ~DATA;
 985              		.loc 2 441 22
 986 0280 833704FE 		ld	a5,-32(s0)
 987 0284 93C7F7FF 		not	a5,a5
 988 0288 2330F4FE 		sd	a5,-32(s0)
 442:../src/platform/mpfs_hal/common/nwc/mss_ddr_debug.c ****                 break;
 989              		.loc 2 442 17
 990 028c F9A0     		j	.L66
 991              	.L62:
 443:../src/platform/mpfs_hal/common/nwc/mss_ddr_debug.c ****             case PATTERN_RANDOM :
 444:../src/platform/mpfs_hal/common/nwc/mss_ddr_debug.c ****                 DATA = (uint64_t)rand ( );
 992              		.loc 2 444 34
 993 028e 97000000 		call	rand
 993      E7800000 
 994 0296 AA87     		mv	a5,a0
 995              		.loc 2 444 22
 996 0298 2330F4FE 		sd	a5,-32(s0)
 445:../src/platform/mpfs_hal/common/nwc/mss_ddr_debug.c ****                 rand_addr_offset = (uint32_t)(rand() & 0xFFFFCUL);
 997              		.loc 2 445 47
 998 029c 97000000 		call	rand
 998      E7800000 
 999 02a4 AA87     		mv	a5,a0
 1000 02a6 8127     		sext.w	a5,a5
 1001              		.loc 2 445 34
 1002 02a8 3E87     		mv	a4,a5
 1003 02aa B7071000 		li	a5,1048576
 1004 02ae F117     		addi	a5,a5,-4
 1005 02b0 F98F     		and	a5,a4,a5
 1006 02b2 2326F4FA 		sw	a5,-84(s0)
 446:../src/platform/mpfs_hal/common/nwc/mss_ddr_debug.c ****                 DDR_word_ptr = first_DDR_word_pt_t + rand_addr_offset;
 1007              		.loc 2 446 52
 1008 02b6 8367C4FA 		lwu	a5,-84(s0)
 1009 02ba 8E07     		slli	a5,a5,3
 1010              		.loc 2 446 30
 1011 02bc 033784FB 		ld	a4,-72(s0)
 1012 02c0 BA97     		add	a5,a4,a5
 1013 02c2 233CF4F8 		sd	a5,-104(s0)
 447:../src/platform/mpfs_hal/common/nwc/mss_ddr_debug.c ****                 DDR_8_pt_t   = (uint8_t *)(first_DDR_word_pt_t + rand_addr_offset);
 1014              		.loc 2 447 64
 1015 02c6 8367C4FA 		lwu	a5,-84(s0)
 1016 02ca 8E07     		slli	a5,a5,3
 1017              		.loc 2 447 30
 1018 02cc 033784FB 		ld	a4,-72(s0)
 1019 02d0 BA97     		add	a5,a4,a5
 1020 02d2 2338F4FC 		sd	a5,-48(s0)
 448:../src/platform/mpfs_hal/common/nwc/mss_ddr_debug.c ****                 DDR_16_pt_t  = (uint16_t *)(first_DDR_word_pt_t + rand_addr_offset);
 1021              		.loc 2 448 65
 1022 02d6 8367C4FA 		lwu	a5,-84(s0)
 1023 02da 8E07     		slli	a5,a5,3
 1024              		.loc 2 448 30
 1025 02dc 033784FB 		ld	a4,-72(s0)
 1026 02e0 BA97     		add	a5,a4,a5
 1027 02e2 2334F4FC 		sd	a5,-56(s0)
 449:../src/platform/mpfs_hal/common/nwc/mss_ddr_debug.c ****                 DDR_32_pt_t  = (uint32_t *)(first_DDR_word_pt_t + rand_addr_offset);
 1028              		.loc 2 449 65
 1029 02e6 8367C4FA 		lwu	a5,-84(s0)
 1030 02ea 8E07     		slli	a5,a5,3
 1031              		.loc 2 449 30
 1032 02ec 033784FB 		ld	a4,-72(s0)
 1033 02f0 BA97     		add	a5,a4,a5
 1034 02f2 2330F4FC 		sd	a5,-64(s0)
 450:../src/platform/mpfs_hal/common/nwc/mss_ddr_debug.c ****                 *DDR_word_ptr   = DATA;
 1035              		.loc 2 450 33
 1036 02f6 833784F9 		ld	a5,-104(s0)
 1037 02fa 033704FE 		ld	a4,-32(s0)
 1038 02fe 98E3     		sd	a4,0(a5)
 451:../src/platform/mpfs_hal/common/nwc/mss_ddr_debug.c ****                 *DDR_8_pt_t     = (uint8_t)DATA;
 1039              		.loc 2 451 35
 1040 0300 833704FE 		ld	a5,-32(s0)
 1041 0304 13F7F70F 		andi	a4,a5,0xff
 1042              		.loc 2 451 33
 1043 0308 833704FD 		ld	a5,-48(s0)
 1044 030c 2380E700 		sb	a4,0(a5)
 452:../src/platform/mpfs_hal/common/nwc/mss_ddr_debug.c ****                 *DDR_16_pt_t    = (uint16_t)DATA;
 1045              		.loc 2 452 35
 1046 0310 833704FE 		ld	a5,-32(s0)
 1047 0314 13970703 		slli	a4,a5,48
 1048 0318 4193     		srli	a4,a4,48
 1049              		.loc 2 452 33
 1050 031a 833784FC 		ld	a5,-56(s0)
 1051 031e 2390E700 		sh	a4,0(a5)
 453:../src/platform/mpfs_hal/common/nwc/mss_ddr_debug.c ****                 *DDR_32_pt_t    = (uint32_t)DATA;
 1052              		.loc 2 453 35
 1053 0322 833704FE 		ld	a5,-32(s0)
 1054 0326 1B870700 		sext.w	a4,a5
 1055              		.loc 2 453 33
 1056 032a 833704FC 		ld	a5,-64(s0)
 1057 032e 98C3     		sw	a4,0(a5)
 454:../src/platform/mpfs_hal/common/nwc/mss_ddr_debug.c ****                 break;
 1058              		.loc 2 454 17
 1059 0330 2DA0     		j	.L66
 1060              	.L61:
 455:../src/platform/mpfs_hal/common/nwc/mss_ddr_debug.c ****             case PATTERN_0xCCCCCCCC :
 456:../src/platform/mpfs_hal/common/nwc/mss_ddr_debug.c ****                 DATA = 0xCCCCCCCCCCCCCCCC;
 1061              		.loc 2 456 22
 1062 0332 97070000 		lla	a5,.LC3
 1062      93870700 
 1063 033a 9C63     		ld	a5,0(a5)
 1064 033c 2330F4FE 		sd	a5,-32(s0)
 457:../src/platform/mpfs_hal/common/nwc/mss_ddr_debug.c ****                 break;
 1065              		.loc 2 457 17
 1066 0340 29A8     		j	.L66
 1067              	.L60:
 458:../src/platform/mpfs_hal/common/nwc/mss_ddr_debug.c ****             case PATTERN_0x55555555 :
 459:../src/platform/mpfs_hal/common/nwc/mss_ddr_debug.c ****                 DATA = 0x5555555555555555;
 1068              		.loc 2 459 22
 1069 0342 97070000 		lla	a5,.LC4
 1069      93870700 
 1070 034a 9C63     		ld	a5,0(a5)
 1071 034c 2330F4FE 		sd	a5,-32(s0)
 460:../src/platform/mpfs_hal/common/nwc/mss_ddr_debug.c ****                 break;
 1072              		.loc 2 460 17
 1073 0350 29A0     		j	.L66
 1074              	.L58:
 461:../src/platform/mpfs_hal/common/nwc/mss_ddr_debug.c ****             case PATTERN_ZEROS :
 462:../src/platform/mpfs_hal/common/nwc/mss_ddr_debug.c ****                 DATA = 0x00000000;
 1075              		.loc 2 462 22
 1076 0352 233004FE 		sd	zero,-32(s0)
 463:../src/platform/mpfs_hal/common/nwc/mss_ddr_debug.c ****                 break;
 1077              		.loc 2 463 17
 1078 0356 11A0     		j	.L66
 1079              	.L74:
 464:../src/platform/mpfs_hal/common/nwc/mss_ddr_debug.c ****             default :
 465:../src/platform/mpfs_hal/common/nwc/mss_ddr_debug.c ****                 break;
 1080              		.loc 2 465 17
 1081 0358 0100     		nop
 1082              	.L66:
 361:../src/platform/mpfs_hal/common/nwc/mss_ddr_debug.c ****     {
 1083              		.loc 2 361 37 discriminator 2
 1084 035a 8327C4FE 		lw	a5,-20(s0)
 1085 035e 8527     		addiw	a5,a5,1
 1086 0360 2326F4FE 		sw	a5,-20(s0)
 1087              	.L50:
 361:../src/platform/mpfs_hal/common/nwc/mss_ddr_debug.c ****     {
 1088              		.loc 2 361 5 discriminator 1
 1089 0364 0327C4FE 		lw	a4,-20(s0)
 1090 0368 832744F9 		lw	a5,-108(s0)
 1091 036c 0127     		sext.w	a4,a4
 1092 036e 8127     		sext.w	a5,a5
 1093 0370 E36FF7DA 		bltu	a4,a5,.L71
 466:../src/platform/mpfs_hal/common/nwc/mss_ddr_debug.c ****           }
 467:../src/platform/mpfs_hal/common/nwc/mss_ddr_debug.c ****     }
 468:../src/platform/mpfs_hal/common/nwc/mss_ddr_debug.c ****     return (err_cnt);
 1094              		.loc 2 468 12
 1095 0374 8327C4FD 		lw	a5,-36(s0)
 469:../src/platform/mpfs_hal/common/nwc/mss_ddr_debug.c **** }
 1096              		.loc 2 469 1
 1097 0378 3E85     		mv	a0,a5
 1098 037a E670     		ld	ra,120(sp)
 1099              		.cfi_restore 1
 1100 037c 4674     		ld	s0,112(sp)
 1101              		.cfi_restore 8
 1102              		.cfi_def_cfa 2, 128
 1103 037e 0961     		addi	sp,sp,128
 1104              		.cfi_def_cfa_offset 0
 1105 0380 8280     		jr	ra
 1106              		.cfi_endproc
 1107              	.LFE25:
 1109              		.section	.text.ddr_read_write_fn,"ax",@progbits
 1110              		.align	1
 1111              		.globl	ddr_read_write_fn
 1113              	ddr_read_write_fn:
 1114              	.LFB26:
 470:../src/platform/mpfs_hal/common/nwc/mss_ddr_debug.c **** 
 471:../src/platform/mpfs_hal/common/nwc/mss_ddr_debug.c **** /***************************************************************************//**
 472:../src/platform/mpfs_hal/common/nwc/mss_ddr_debug.c ****  *
 473:../src/platform/mpfs_hal/common/nwc/mss_ddr_debug.c ****  * @param DDR_word_ptr  Address
 474:../src/platform/mpfs_hal/common/nwc/mss_ddr_debug.c ****  * @param no_access  Number of addresses
 475:../src/platform/mpfs_hal/common/nwc/mss_ddr_debug.c ****  * @param pattern bit mask with patterns you want to test against
 476:../src/platform/mpfs_hal/common/nwc/mss_ddr_debug.c ****  * @return
 477:../src/platform/mpfs_hal/common/nwc/mss_ddr_debug.c ****  */
 478:../src/platform/mpfs_hal/common/nwc/mss_ddr_debug.c **** uint32_t ddr_read_write_fn (uint64_t* DDR_word_ptr, uint32_t no_access,\
 479:../src/platform/mpfs_hal/common/nwc/mss_ddr_debug.c ****                                                                uint32_t pattern)
 480:../src/platform/mpfs_hal/common/nwc/mss_ddr_debug.c **** {
 1115              		.loc 2 480 1
 1116              		.cfi_startproc
 1117 0000 7971     		addi	sp,sp,-48
 1118              		.cfi_def_cfa_offset 48
 1119 0002 06F4     		sd	ra,40(sp)
 1120 0004 22F0     		sd	s0,32(sp)
 1121              		.cfi_offset 1, -8
 1122              		.cfi_offset 8, -16
 1123 0006 0018     		addi	s0,sp,48
 1124              		.cfi_def_cfa 8, 0
 1125 0008 233CA4FC 		sd	a0,-40(s0)
 1126 000c AE87     		mv	a5,a1
 1127 000e 3287     		mv	a4,a2
 1128 0010 232AF4FC 		sw	a5,-44(s0)
 1129 0014 BA87     		mv	a5,a4
 1130 0016 2328F4FC 		sw	a5,-48(s0)
 481:../src/platform/mpfs_hal/common/nwc/mss_ddr_debug.c ****     uint32_t error_cnt = 0U;
 1131              		.loc 2 481 14
 1132 001a 232604FE 		sw	zero,-20(s0)
 1133              	.LBB4:
 482:../src/platform/mpfs_hal/common/nwc/mss_ddr_debug.c ****     uint8_t pattern_mask;
 483:../src/platform/mpfs_hal/common/nwc/mss_ddr_debug.c ****     for (unsigned i=0; i < 1; i++)
 1134              		.loc 2 483 19
 1135 001e 232404FE 		sw	zero,-24(s0)
 1136              		.loc 2 483 5
 1137 0022 DDA8     		j	.L76
 1138              	.L80:
 1139              	.LBB5:
 484:../src/platform/mpfs_hal/common/nwc/mss_ddr_debug.c ****     {
 485:../src/platform/mpfs_hal/common/nwc/mss_ddr_debug.c ****         for (uint32_t pattern_shift=0U; pattern_shift < MAX_NO_PATTERNS;\
 1140              		.loc 2 485 23
 1141 0024 232204FE 		sw	zero,-28(s0)
 1142              		.loc 2 485 9
 1143 0028 F9A0     		j	.L77
 1144              	.L79:
 486:../src/platform/mpfs_hal/common/nwc/mss_ddr_debug.c ****                                                                 pattern_shift++)
 487:../src/platform/mpfs_hal/common/nwc/mss_ddr_debug.c ****         {
 488:../src/platform/mpfs_hal/common/nwc/mss_ddr_debug.c ****             pattern_mask = (uint8_t)(0x01U << pattern_shift);
 1145              		.loc 2 488 44
 1146 002a 832744FE 		lw	a5,-28(s0)
 1147 002e 0547     		li	a4,1
 1148 0030 BB17F700 		sllw	a5,a4,a5
 1149 0034 8127     		sext.w	a5,a5
 1150              		.loc 2 488 26
 1151 0036 A301F4FE 		sb	a5,-29(s0)
 489:../src/platform/mpfs_hal/common/nwc/mss_ddr_debug.c ****             if(pattern & pattern_mask)
 1152              		.loc 2 489 24
 1153 003a 834734FE 		lbu	a5,-29(s0)
 1154 003e 1B870700 		sext.w	a4,a5
 1155 0042 832704FD 		lw	a5,-48(s0)
 1156 0046 F98F     		and	a5,a5,a4
 1157 0048 8127     		sext.w	a5,a5
 1158              		.loc 2 489 15
 1159 004a CDC3     		beq	a5,zero,.L78
 490:../src/platform/mpfs_hal/common/nwc/mss_ddr_debug.c ****             {
 491:../src/platform/mpfs_hal/common/nwc/mss_ddr_debug.c **** #ifdef DEBUG_DDR_INIT
 492:../src/platform/mpfs_hal/common/nwc/mss_ddr_debug.c ****                 uprint32(g_debug_uart,"\n\r\t Pattern: 0x", pattern_shift);
 493:../src/platform/mpfs_hal/common/nwc/mss_ddr_debug.c **** #endif
 494:../src/platform/mpfs_hal/common/nwc/mss_ddr_debug.c **** 
 495:../src/platform/mpfs_hal/common/nwc/mss_ddr_debug.c **** #if TEST_64BIT_ACCESS == 1
 496:../src/platform/mpfs_hal/common/nwc/mss_ddr_debug.c ****                 /* write the pattern */
 497:../src/platform/mpfs_hal/common/nwc/mss_ddr_debug.c ****                 error_cnt += ddr_write ((uint64_t *)DDR_word_ptr,\
 1160              		.loc 2 497 30
 1161 004c 034734FE 		lbu	a4,-29(s0)
 1162 0050 832744FD 		lw	a5,-44(s0)
 1163 0054 8D46     		li	a3,3
 1164 0056 3A86     		mv	a2,a4
 1165 0058 BE85     		mv	a1,a5
 1166 005a 033584FD 		ld	a0,-40(s0)
 1167 005e 97000000 		call	ddr_write
 1167      E7800000 
 1168 0066 AA87     		mv	a5,a0
 1169 0068 8127     		sext.w	a5,a5
 1170              		.loc 2 497 27
 1171 006a 0327C4FE 		lw	a4,-20(s0)
 1172 006e B99F     		addw	a5,a4,a5
 1173 0070 2326F4FE 		sw	a5,-20(s0)
 498:../src/platform/mpfs_hal/common/nwc/mss_ddr_debug.c ****                         no_access, pattern_mask, DDR_64_BIT);
 499:../src/platform/mpfs_hal/common/nwc/mss_ddr_debug.c ****                 /* read back and verifies */
 500:../src/platform/mpfs_hal/common/nwc/mss_ddr_debug.c ****                 error_cnt += ddr_read ((uint64_t *)DDR_word_ptr, \
 1174              		.loc 2 500 30
 1175 0074 034734FE 		lbu	a4,-29(s0)
 1176 0078 832744FD 		lw	a5,-44(s0)
 1177 007c 8D46     		li	a3,3
 1178 007e 3A86     		mv	a2,a4
 1179 0080 BE85     		mv	a1,a5
 1180 0082 033584FD 		ld	a0,-40(s0)
 1181 0086 97000000 		call	ddr_read
 1181      E7800000 
 1182 008e AA87     		mv	a5,a0
 1183 0090 8127     		sext.w	a5,a5
 1184              		.loc 2 500 27
 1185 0092 0327C4FE 		lw	a4,-20(s0)
 1186 0096 B99F     		addw	a5,a4,a5
 1187 0098 2326F4FE 		sw	a5,-20(s0)
 501:../src/platform/mpfs_hal/common/nwc/mss_ddr_debug.c ****                         no_access, pattern_mask, DDR_64_BIT);
 502:../src/platform/mpfs_hal/common/nwc/mss_ddr_debug.c **** #endif
 503:../src/platform/mpfs_hal/common/nwc/mss_ddr_debug.c **** 
 504:../src/platform/mpfs_hal/common/nwc/mss_ddr_debug.c **** #if TEST_32BIT_ACCESS == 1
 505:../src/platform/mpfs_hal/common/nwc/mss_ddr_debug.c ****                 /* write the pattern */
 506:../src/platform/mpfs_hal/common/nwc/mss_ddr_debug.c ****                 error_cnt += ddr_write ((uint64_t *)DDR_word_ptr,\
 1188              		.loc 2 506 30
 1189 009c 034734FE 		lbu	a4,-29(s0)
 1190 00a0 832744FD 		lw	a5,-44(s0)
 1191 00a4 8946     		li	a3,2
 1192 00a6 3A86     		mv	a2,a4
 1193 00a8 BE85     		mv	a1,a5
 1194 00aa 033584FD 		ld	a0,-40(s0)
 1195 00ae 97000000 		call	ddr_write
 1195      E7800000 
 1196 00b6 AA87     		mv	a5,a0
 1197 00b8 8127     		sext.w	a5,a5
 1198              		.loc 2 506 27
 1199 00ba 0327C4FE 		lw	a4,-20(s0)
 1200 00be B99F     		addw	a5,a4,a5
 1201 00c0 2326F4FE 		sw	a5,-20(s0)
 507:../src/platform/mpfs_hal/common/nwc/mss_ddr_debug.c ****                         no_access, pattern_mask, DDR_32_BIT);
 508:../src/platform/mpfs_hal/common/nwc/mss_ddr_debug.c ****                 /* read back and verifies */
 509:../src/platform/mpfs_hal/common/nwc/mss_ddr_debug.c ****                 error_cnt += ddr_read ((uint64_t *)DDR_word_ptr, \
 1202              		.loc 2 509 30
 1203 00c4 034734FE 		lbu	a4,-29(s0)
 1204 00c8 832744FD 		lw	a5,-44(s0)
 1205 00cc 8946     		li	a3,2
 1206 00ce 3A86     		mv	a2,a4
 1207 00d0 BE85     		mv	a1,a5
 1208 00d2 033584FD 		ld	a0,-40(s0)
 1209 00d6 97000000 		call	ddr_read
 1209      E7800000 
 1210 00de AA87     		mv	a5,a0
 1211 00e0 8127     		sext.w	a5,a5
 1212              		.loc 2 509 27
 1213 00e2 0327C4FE 		lw	a4,-20(s0)
 1214 00e6 B99F     		addw	a5,a4,a5
 1215 00e8 2326F4FE 		sw	a5,-20(s0)
 1216              	.L78:
 486:../src/platform/mpfs_hal/common/nwc/mss_ddr_debug.c ****         {
 1217              		.loc 2 486 78
 1218 00ec 832744FE 		lw	a5,-28(s0)
 1219 00f0 8527     		addiw	a5,a5,1
 1220 00f2 2322F4FE 		sw	a5,-28(s0)
 1221              	.L77:
 485:../src/platform/mpfs_hal/common/nwc/mss_ddr_debug.c ****                                                                 pattern_shift++)
 1222              		.loc 2 485 9 discriminator 1
 1223 00f6 832744FE 		lw	a5,-28(s0)
 1224 00fa 1B870700 		sext.w	a4,a5
 1225 00fe 9947     		li	a5,6
 1226 0100 E3F5E7F2 		bleu	a4,a5,.L79
 1227              	.LBE5:
 510:../src/platform/mpfs_hal/common/nwc/mss_ddr_debug.c ****                         no_access, pattern_mask, DDR_32_BIT);
 511:../src/platform/mpfs_hal/common/nwc/mss_ddr_debug.c **** #endif
 512:../src/platform/mpfs_hal/common/nwc/mss_ddr_debug.c ****             }
 513:../src/platform/mpfs_hal/common/nwc/mss_ddr_debug.c ****         }
 514:../src/platform/mpfs_hal/common/nwc/mss_ddr_debug.c ****         DDR_word_ptr++; /* increment the address */
 1228              		.loc 2 514 21 discriminator 2
 1229 0104 833784FD 		ld	a5,-40(s0)
 1230 0108 A107     		addi	a5,a5,8
 1231 010a 233CF4FC 		sd	a5,-40(s0)
 483:../src/platform/mpfs_hal/common/nwc/mss_ddr_debug.c ****     {
 1232              		.loc 2 483 32 discriminator 2
 1233 010e 832784FE 		lw	a5,-24(s0)
 1234 0112 8527     		addiw	a5,a5,1
 1235 0114 2324F4FE 		sw	a5,-24(s0)
 1236              	.L76:
 483:../src/platform/mpfs_hal/common/nwc/mss_ddr_debug.c ****     {
 1237              		.loc 2 483 5 discriminator 1
 1238 0118 832784FE 		lw	a5,-24(s0)
 1239 011c 8127     		sext.w	a5,a5
 1240 011e 99D3     		beq	a5,zero,.L80
 1241              	.LBE4:
 515:../src/platform/mpfs_hal/common/nwc/mss_ddr_debug.c ****     }
 516:../src/platform/mpfs_hal/common/nwc/mss_ddr_debug.c ****     return error_cnt;
 1242              		.loc 2 516 12
 1243 0120 8327C4FE 		lw	a5,-20(s0)
 517:../src/platform/mpfs_hal/common/nwc/mss_ddr_debug.c **** }
 1244              		.loc 2 517 1
 1245 0124 3E85     		mv	a0,a5
 1246 0126 A270     		ld	ra,40(sp)
 1247              		.cfi_restore 1
 1248 0128 0274     		ld	s0,32(sp)
 1249              		.cfi_restore 8
 1250              		.cfi_def_cfa 2, 48
 1251 012a 4561     		addi	sp,sp,48
 1252              		.cfi_def_cfa_offset 0
 1253 012c 8280     		jr	ra
 1254              		.cfi_endproc
 1255              	.LFE26:
 1257              		.section	.text.load_ddr_pattern,"ax",@progbits
 1258              		.align	1
 1259              		.globl	load_ddr_pattern
 1261              	load_ddr_pattern:
 1262              	.LFB27:
 518:../src/platform/mpfs_hal/common/nwc/mss_ddr_debug.c **** 
 519:../src/platform/mpfs_hal/common/nwc/mss_ddr_debug.c **** 
 520:../src/platform/mpfs_hal/common/nwc/mss_ddr_debug.c **** /***************************************************************************//**
 521:../src/platform/mpfs_hal/common/nwc/mss_ddr_debug.c ****  *
 522:../src/platform/mpfs_hal/common/nwc/mss_ddr_debug.c ****  * @param error
 523:../src/platform/mpfs_hal/common/nwc/mss_ddr_debug.c ****  * @return
 524:../src/platform/mpfs_hal/common/nwc/mss_ddr_debug.c ****  */
 525:../src/platform/mpfs_hal/common/nwc/mss_ddr_debug.c **** #ifdef DEBUG_DDR_INIT
 526:../src/platform/mpfs_hal/common/nwc/mss_ddr_debug.c **** uint32_t error_status(mss_uart_instance_t *g_mss_uart_debug_pt, uint32_t error)
 527:../src/platform/mpfs_hal/common/nwc/mss_ddr_debug.c **** {
 528:../src/platform/mpfs_hal/common/nwc/mss_ddr_debug.c ****     uprint32(g_mss_uart_debug_pt,  "\n\r ERROR_RESULT: ", error);
 529:../src/platform/mpfs_hal/common/nwc/mss_ddr_debug.c ****     return (0U);
 530:../src/platform/mpfs_hal/common/nwc/mss_ddr_debug.c **** }
 531:../src/platform/mpfs_hal/common/nwc/mss_ddr_debug.c **** #endif
 532:../src/platform/mpfs_hal/common/nwc/mss_ddr_debug.c **** 
 533:../src/platform/mpfs_hal/common/nwc/mss_ddr_debug.c **** /***************************************************************************//**
 534:../src/platform/mpfs_hal/common/nwc/mss_ddr_debug.c ****  * Calibration status
 535:../src/platform/mpfs_hal/common/nwc/mss_ddr_debug.c ****  * @return
 536:../src/platform/mpfs_hal/common/nwc/mss_ddr_debug.c ****  */
 537:../src/platform/mpfs_hal/common/nwc/mss_ddr_debug.c **** #ifdef DEBUG_DDR_INIT
 538:../src/platform/mpfs_hal/common/nwc/mss_ddr_debug.c **** uint32_t wrcalib_status(mss_uart_instance_t *g_mss_uart_debug_pt)
 539:../src/platform/mpfs_hal/common/nwc/mss_ddr_debug.c **** {
 540:../src/platform/mpfs_hal/common/nwc/mss_ddr_debug.c ****     uprint32(g_mss_uart_debug_pt,  "\n\r WRCALIB_RESULT: ",\
 541:../src/platform/mpfs_hal/common/nwc/mss_ddr_debug.c ****             CFG_DDR_SGMII_PHY->expert_wrcalib.expert_wrcalib);
 542:../src/platform/mpfs_hal/common/nwc/mss_ddr_debug.c ****     return (0U);
 543:../src/platform/mpfs_hal/common/nwc/mss_ddr_debug.c **** }
 544:../src/platform/mpfs_hal/common/nwc/mss_ddr_debug.c **** #endif
 545:../src/platform/mpfs_hal/common/nwc/mss_ddr_debug.c **** 
 546:../src/platform/mpfs_hal/common/nwc/mss_ddr_debug.c **** #ifdef DEBUG_DDR_INIT
 547:../src/platform/mpfs_hal/common/nwc/mss_ddr_debug.c **** /***************************************************************************//**
 548:../src/platform/mpfs_hal/common/nwc/mss_ddr_debug.c ****  * Prints out DDR status
 549:../src/platform/mpfs_hal/common/nwc/mss_ddr_debug.c ****  * @return
 550:../src/platform/mpfs_hal/common/nwc/mss_ddr_debug.c ****  */
 551:../src/platform/mpfs_hal/common/nwc/mss_ddr_debug.c **** uint32_t tip_register_status (mss_uart_instance_t *g_mss_uart_debug_pt)
 552:../src/platform/mpfs_hal/common/nwc/mss_ddr_debug.c **** {
 553:../src/platform/mpfs_hal/common/nwc/mss_ddr_debug.c **** 
 554:../src/platform/mpfs_hal/common/nwc/mss_ddr_debug.c ****     uint32_t t_status = 0U;
 555:../src/platform/mpfs_hal/common/nwc/mss_ddr_debug.c ****     uint32_t MSS_DDR_APB_ADDR;
 556:../src/platform/mpfs_hal/common/nwc/mss_ddr_debug.c ****     uint32_t ddr_lane_sel;
 557:../src/platform/mpfs_hal/common/nwc/mss_ddr_debug.c ****     uint32_t rank_sel;
 558:../src/platform/mpfs_hal/common/nwc/mss_ddr_debug.c ****     uint32_t dq0_dly = 0U;
 559:../src/platform/mpfs_hal/common/nwc/mss_ddr_debug.c ****     uint32_t dq1_dly = 0U;
 560:../src/platform/mpfs_hal/common/nwc/mss_ddr_debug.c ****     uint32_t dq2_dly = 0U;
 561:../src/platform/mpfs_hal/common/nwc/mss_ddr_debug.c ****     uint32_t dq3_dly = 0U;
 562:../src/platform/mpfs_hal/common/nwc/mss_ddr_debug.c ****     uint32_t dq4_dly = 0U;
 563:../src/platform/mpfs_hal/common/nwc/mss_ddr_debug.c ****     uint32_t dq5_dly = 0U;
 564:../src/platform/mpfs_hal/common/nwc/mss_ddr_debug.c **** 
 565:../src/platform/mpfs_hal/common/nwc/mss_ddr_debug.c ****     /*  MSS_UART_polled_tx_string(g_mss_uart_debug_pt, "\n\n\r TIP register status \n");
 566:../src/platform/mpfs_hal/common/nwc/mss_ddr_debug.c ****     delay(DELAY_CYCLES_50_MICRO);*/
 567:../src/platform/mpfs_hal/common/nwc/mss_ddr_debug.c ****     uprint32(g_mss_uart_debug_pt,  "\n\r\n\r training status = ",\
 568:../src/platform/mpfs_hal/common/nwc/mss_ddr_debug.c ****                             CFG_DDR_SGMII_PHY->training_status.training_status);
 569:../src/platform/mpfs_hal/common/nwc/mss_ddr_debug.c ****     uprint32(g_mss_uart_debug_pt,  "\n\r PCODE = ",\
 570:../src/platform/mpfs_hal/common/nwc/mss_ddr_debug.c ****                                 (CFG_DDR_SGMII_PHY->IOC_REG2.IOC_REG2 & 0x7F));
 571:../src/platform/mpfs_hal/common/nwc/mss_ddr_debug.c ****     uprint32(g_mss_uart_debug_pt,  "\n\r NCODE = ",\
 572:../src/platform/mpfs_hal/common/nwc/mss_ddr_debug.c ****                         (((CFG_DDR_SGMII_PHY->IOC_REG2.IOC_REG2) >> 7) & 0x7F));
 573:../src/platform/mpfs_hal/common/nwc/mss_ddr_debug.c ****     uprint32(g_mss_uart_debug_pt,  "\n\r WRCALIB_RESULT: "\
 574:../src/platform/mpfs_hal/common/nwc/mss_ddr_debug.c ****                             , CFG_DDR_SGMII_PHY->expert_wrcalib.expert_wrcalib);
 575:../src/platform/mpfs_hal/common/nwc/mss_ddr_debug.c ****     uprint32(g_mss_uart_debug_pt,  "\n\r sro_ref_slewr  = ",\
 576:../src/platform/mpfs_hal/common/nwc/mss_ddr_debug.c ****                         (((CFG_DDR_SGMII_PHY->IOC_REG5.IOC_REG5) >> 0) & 0x3F));
 577:../src/platform/mpfs_hal/common/nwc/mss_ddr_debug.c ****     uprint32(g_mss_uart_debug_pt,  "\n\r sro_ref_slewf  = ",\
 578:../src/platform/mpfs_hal/common/nwc/mss_ddr_debug.c ****                        (((CFG_DDR_SGMII_PHY->IOC_REG5.IOC_REG5) >> 6) & 0xFFF));
 579:../src/platform/mpfs_hal/common/nwc/mss_ddr_debug.c ****     uprint32(g_mss_uart_debug_pt,  "\n\r sro_slewr  = ",\
 580:../src/platform/mpfs_hal/common/nwc/mss_ddr_debug.c ****                        (((CFG_DDR_SGMII_PHY->IOC_REG5.IOC_REG5) >> 18) & 0x3F));
 581:../src/platform/mpfs_hal/common/nwc/mss_ddr_debug.c ****     uprint32(g_mss_uart_debug_pt,  "\n\r sro_slewf  = ",\
 582:../src/platform/mpfs_hal/common/nwc/mss_ddr_debug.c ****             (((CFG_DDR_SGMII_PHY->IOC_REG5.IOC_REG5) >> 24) & 0x3F));
 583:../src/platform/mpfs_hal/common/nwc/mss_ddr_debug.c **** 
 584:../src/platform/mpfs_hal/common/nwc/mss_ddr_debug.c ****     for (rank_sel=0; rank_sel < LIBERO_SETTING_CFG_NUM_RANKS; rank_sel++)
 585:../src/platform/mpfs_hal/common/nwc/mss_ddr_debug.c ****     {
 586:../src/platform/mpfs_hal/common/nwc/mss_ddr_debug.c ****         CFG_DDR_SGMII_PHY->rank_select.rank_select=rank_sel;
 587:../src/platform/mpfs_hal/common/nwc/mss_ddr_debug.c ****         uprint32(g_mss_uart_debug_pt, "\n\r\n\r rank number", rank_sel);
 588:../src/platform/mpfs_hal/common/nwc/mss_ddr_debug.c ****         MSS_UART_polled_tx_string(g_mss_uart_debug_pt, \
 589:../src/platform/mpfs_hal/common/nwc/mss_ddr_debug.c ****                 (const uint8_t*)"\n\n\r lane_select \t gt_err_comb \t gt_txdly \t gt_steps_180 \t g
 590:../src/platform/mpfs_hal/common/nwc/mss_ddr_debug.c ****         for (ddr_lane_sel=0U; ddr_lane_sel < LIBERO_SETTING_DATA_LANES_USED; ddr_lane_sel++)
 591:../src/platform/mpfs_hal/common/nwc/mss_ddr_debug.c ****         {
 592:../src/platform/mpfs_hal/common/nwc/mss_ddr_debug.c ****             CFG_DDR_SGMII_PHY->lane_select.lane_select = ddr_lane_sel;
 593:../src/platform/mpfs_hal/common/nwc/mss_ddr_debug.c ****             uprint32(g_mss_uart_debug_pt, "\n\r ", CFG_DDR_SGMII_PHY->lane_select.lane_select);
 594:../src/platform/mpfs_hal/common/nwc/mss_ddr_debug.c ****             delay(DELAY_CYCLES_50_MICRO);
 595:../src/platform/mpfs_hal/common/nwc/mss_ddr_debug.c ****             MSS_DDR_APB_ADDR = CFG_DDR_SGMII_PHY->gt_err_comb.gt_err_comb;
 596:../src/platform/mpfs_hal/common/nwc/mss_ddr_debug.c ****             uprint32(g_mss_uart_debug_pt, "\t ", MSS_DDR_APB_ADDR);
 597:../src/platform/mpfs_hal/common/nwc/mss_ddr_debug.c ****             t_status = t_status | MSS_DDR_APB_ADDR;
 598:../src/platform/mpfs_hal/common/nwc/mss_ddr_debug.c **** 
 599:../src/platform/mpfs_hal/common/nwc/mss_ddr_debug.c ****             MSS_DDR_APB_ADDR = CFG_DDR_SGMII_PHY->gt_txdly.gt_txdly;
 600:../src/platform/mpfs_hal/common/nwc/mss_ddr_debug.c ****             uprint32(g_mss_uart_debug_pt, "\t ", MSS_DDR_APB_ADDR);
 601:../src/platform/mpfs_hal/common/nwc/mss_ddr_debug.c **** 
 602:../src/platform/mpfs_hal/common/nwc/mss_ddr_debug.c ****             if((MSS_DDR_APB_ADDR & 0xFF) == 0)    t_status = 1;
 603:../src/platform/mpfs_hal/common/nwc/mss_ddr_debug.c ****             if((MSS_DDR_APB_ADDR & 0xFF00) == 0)  t_status = 1;
 604:../src/platform/mpfs_hal/common/nwc/mss_ddr_debug.c ****             if((MSS_DDR_APB_ADDR & 0xFF0000) == 0) t_status = 1;
 605:../src/platform/mpfs_hal/common/nwc/mss_ddr_debug.c ****             if((MSS_DDR_APB_ADDR & 0xFF000000) == 0) t_status = 1;
 606:../src/platform/mpfs_hal/common/nwc/mss_ddr_debug.c **** 
 607:../src/platform/mpfs_hal/common/nwc/mss_ddr_debug.c ****             uprint32(g_mss_uart_debug_pt, "\t ",\
 608:../src/platform/mpfs_hal/common/nwc/mss_ddr_debug.c ****                     CFG_DDR_SGMII_PHY->gt_steps_180.gt_steps_180);
 609:../src/platform/mpfs_hal/common/nwc/mss_ddr_debug.c ****             uprint32(g_mss_uart_debug_pt, "\t ",\
 610:../src/platform/mpfs_hal/common/nwc/mss_ddr_debug.c ****                     CFG_DDR_SGMII_PHY->gt_state.gt_state);
 611:../src/platform/mpfs_hal/common/nwc/mss_ddr_debug.c ****             uprint32(g_mss_uart_debug_pt, "\t ",\
 612:../src/platform/mpfs_hal/common/nwc/mss_ddr_debug.c ****                     CFG_DDR_SGMII_PHY->wl_delay_0.wl_delay_0);
 613:../src/platform/mpfs_hal/common/nwc/mss_ddr_debug.c ****             uprint32(g_mss_uart_debug_pt, "\t ",\
 614:../src/platform/mpfs_hal/common/nwc/mss_ddr_debug.c ****                     CFG_DDR_SGMII_PHY->dq_dqs_err_done.dq_dqs_err_done);
 615:../src/platform/mpfs_hal/common/nwc/mss_ddr_debug.c ****             t_status = t_status | (MSS_DDR_APB_ADDR  != 8);
 616:../src/platform/mpfs_hal/common/nwc/mss_ddr_debug.c **** 
 617:../src/platform/mpfs_hal/common/nwc/mss_ddr_debug.c ****             uprint32(g_mss_uart_debug_pt, "\t\t ",\
 618:../src/platform/mpfs_hal/common/nwc/mss_ddr_debug.c ****                     CFG_DDR_SGMII_PHY->dqdqs_state.dqdqs_state);
 619:../src/platform/mpfs_hal/common/nwc/mss_ddr_debug.c ****             uprint32(g_mss_uart_debug_pt, "\t ",\
 620:../src/platform/mpfs_hal/common/nwc/mss_ddr_debug.c ****                     CFG_DDR_SGMII_PHY->delta0.delta0);
 621:../src/platform/mpfs_hal/common/nwc/mss_ddr_debug.c ****             dq0_dly = (MSS_DDR_APB_ADDR & 0xFF);
 622:../src/platform/mpfs_hal/common/nwc/mss_ddr_debug.c ****             dq1_dly = (MSS_DDR_APB_ADDR & 0xFF00) >> 8;
 623:../src/platform/mpfs_hal/common/nwc/mss_ddr_debug.c ****             dq2_dly = (MSS_DDR_APB_ADDR & 0xFF0000) >> 16;
 624:../src/platform/mpfs_hal/common/nwc/mss_ddr_debug.c ****             dq3_dly = (MSS_DDR_APB_ADDR & 0xFF000000) >> 24;
 625:../src/platform/mpfs_hal/common/nwc/mss_ddr_debug.c ****             uprint32(g_mss_uart_debug_pt, "\t ",\
 626:../src/platform/mpfs_hal/common/nwc/mss_ddr_debug.c ****                     CFG_DDR_SGMII_PHY->delta1.delta1);
 627:../src/platform/mpfs_hal/common/nwc/mss_ddr_debug.c ****             dq4_dly = (MSS_DDR_APB_ADDR & 0xFF);
 628:../src/platform/mpfs_hal/common/nwc/mss_ddr_debug.c ****             dq5_dly = (MSS_DDR_APB_ADDR & 0xFF00) >> 8;
 629:../src/platform/mpfs_hal/common/nwc/mss_ddr_debug.c ****             dq2_dly = (MSS_DDR_APB_ADDR & 0xFF0000) >> 16;
 630:../src/platform/mpfs_hal/common/nwc/mss_ddr_debug.c ****             dq3_dly = (MSS_DDR_APB_ADDR & 0xFF000000) >> 24;
 631:../src/platform/mpfs_hal/common/nwc/mss_ddr_debug.c ****         }
 632:../src/platform/mpfs_hal/common/nwc/mss_ddr_debug.c **** 
 633:../src/platform/mpfs_hal/common/nwc/mss_ddr_debug.c ****         MSS_UART_polled_tx_string(g_mss_uart_debug_pt, (const uint8_t*)"\n\r\n\r lane_select\t rdqd
 634:../src/platform/mpfs_hal/common/nwc/mss_ddr_debug.c ****         for (ddr_lane_sel=0U; ddr_lane_sel < LIBERO_SETTING_DATA_LANES_USED;\
 635:../src/platform/mpfs_hal/common/nwc/mss_ddr_debug.c ****                                                                     ddr_lane_sel++)
 636:../src/platform/mpfs_hal/common/nwc/mss_ddr_debug.c ****         {
 637:../src/platform/mpfs_hal/common/nwc/mss_ddr_debug.c ****             CFG_DDR_SGMII_PHY->lane_select.lane_select = ddr_lane_sel;
 638:../src/platform/mpfs_hal/common/nwc/mss_ddr_debug.c ****             uprint32(g_mss_uart_debug_pt, "\n\r ",\
 639:../src/platform/mpfs_hal/common/nwc/mss_ddr_debug.c ****                                         CFG_DDR_SGMII_PHY->lane_select.lane_select);
 640:../src/platform/mpfs_hal/common/nwc/mss_ddr_debug.c ****             delay(DELAY_CYCLES_50_MICRO);
 641:../src/platform/mpfs_hal/common/nwc/mss_ddr_debug.c **** 
 642:../src/platform/mpfs_hal/common/nwc/mss_ddr_debug.c ****             if(dq0_dly > 20) t_status = 1;
 643:../src/platform/mpfs_hal/common/nwc/mss_ddr_debug.c ****             if(dq1_dly > 20) t_status = 1;
 644:../src/platform/mpfs_hal/common/nwc/mss_ddr_debug.c ****             if(dq2_dly > 20) t_status = 1;
 645:../src/platform/mpfs_hal/common/nwc/mss_ddr_debug.c ****             if(dq3_dly > 20) t_status = 1;
 646:../src/platform/mpfs_hal/common/nwc/mss_ddr_debug.c ****             if(dq4_dly > 20) t_status = 1;
 647:../src/platform/mpfs_hal/common/nwc/mss_ddr_debug.c ****             if(dq5_dly > 20) t_status = 1;
 648:../src/platform/mpfs_hal/common/nwc/mss_ddr_debug.c **** 
 649:../src/platform/mpfs_hal/common/nwc/mss_ddr_debug.c ****             uprint32(g_mss_uart_debug_pt, "\t ",\
 650:../src/platform/mpfs_hal/common/nwc/mss_ddr_debug.c ****                     CFG_DDR_SGMII_PHY->dqdqs_status2.dqdqs_status2);
 651:../src/platform/mpfs_hal/common/nwc/mss_ddr_debug.c **** 
 652:../src/platform/mpfs_hal/common/nwc/mss_ddr_debug.c ****             uprint32(g_mss_uart_debug_pt, "\t ",\
 653:../src/platform/mpfs_hal/common/nwc/mss_ddr_debug.c ****                     CFG_DDR_SGMII_PHY->addcmd_status0.addcmd_status0);
 654:../src/platform/mpfs_hal/common/nwc/mss_ddr_debug.c ****             uprint32(g_mss_uart_debug_pt, "\t ",\
 655:../src/platform/mpfs_hal/common/nwc/mss_ddr_debug.c ****                     CFG_DDR_SGMII_PHY->addcmd_status1.addcmd_status1);
 656:../src/platform/mpfs_hal/common/nwc/mss_ddr_debug.c ****             uprint32(g_mss_uart_debug_pt, "\t ",\
 657:../src/platform/mpfs_hal/common/nwc/mss_ddr_debug.c ****                     CFG_DDR_SGMII_PHY->addcmd_answer.addcmd_answer);
 658:../src/platform/mpfs_hal/common/nwc/mss_ddr_debug.c ****             uprint32(g_mss_uart_debug_pt, "\t ",\
 659:../src/platform/mpfs_hal/common/nwc/mss_ddr_debug.c ****                     CFG_DDR_SGMII_PHY->dqdqs_status1.dqdqs_status1);
 660:../src/platform/mpfs_hal/common/nwc/mss_ddr_debug.c **** 
 661:../src/platform/mpfs_hal/common/nwc/mss_ddr_debug.c ****         }
 662:../src/platform/mpfs_hal/common/nwc/mss_ddr_debug.c ****     } /* end rank select */
 663:../src/platform/mpfs_hal/common/nwc/mss_ddr_debug.c ****     return(t_status);
 664:../src/platform/mpfs_hal/common/nwc/mss_ddr_debug.c **** }
 665:../src/platform/mpfs_hal/common/nwc/mss_ddr_debug.c **** #endif
 666:../src/platform/mpfs_hal/common/nwc/mss_ddr_debug.c **** 
 667:../src/platform/mpfs_hal/common/nwc/mss_ddr_debug.c **** /**
 668:../src/platform/mpfs_hal/common/nwc/mss_ddr_debug.c ****  * Load a pattern to DDR
 669:../src/platform/mpfs_hal/common/nwc/mss_ddr_debug.c ****  */
 670:../src/platform/mpfs_hal/common/nwc/mss_ddr_debug.c **** void load_ddr_pattern(uint64_t base, uint32_t size, uint8_t pattern_offset)
 671:../src/platform/mpfs_hal/common/nwc/mss_ddr_debug.c **** {
 1263              		.loc 2 671 1
 1264              		.cfi_startproc
 1265 0000 3971     		addi	sp,sp,-64
 1266              		.cfi_def_cfa_offset 64
 1267 0002 06FC     		sd	ra,56(sp)
 1268 0004 22F8     		sd	s0,48(sp)
 1269              		.cfi_offset 1, -8
 1270              		.cfi_offset 8, -16
 1271 0006 8000     		addi	s0,sp,64
 1272              		.cfi_def_cfa 8, 0
 1273 0008 2334A4FC 		sd	a0,-56(s0)
 1274 000c AE87     		mv	a5,a1
 1275 000e 3287     		mv	a4,a2
 1276 0010 2322F4FC 		sw	a5,-60(s0)
 1277 0014 BA87     		mv	a5,a4
 1278 0016 A301F4FC 		sb	a5,-61(s0)
 672:../src/platform/mpfs_hal/common/nwc/mss_ddr_debug.c ****     int alive = 0;
 1279              		.loc 2 672 9
 1280 001a 232604FE 		sw	zero,-20(s0)
 673:../src/platform/mpfs_hal/common/nwc/mss_ddr_debug.c **** 
 674:../src/platform/mpfs_hal/common/nwc/mss_ddr_debug.c ****     uint8_t *p_ddr = (uint8_t *)base;
 1281              		.loc 2 674 14
 1282 001e 833784FC 		ld	a5,-56(s0)
 1283 0022 2330F4FE 		sd	a5,-32(s0)
 675:../src/platform/mpfs_hal/common/nwc/mss_ddr_debug.c ****     uint32_t pattern_length = (uint32_t)(sizeof(ddr_test_pattern) - pattern_offset) ;
 1284              		.loc 2 675 31
 1285 0026 834734FC 		lbu	a5,-61(s0)
 1286 002a 8127     		sext.w	a5,a5
 1287              		.loc 2 675 14
 1288 002c 0567     		li	a4,4096
 1289 002e 1B0707C0 		addiw	a4,a4,-1024
 1290 0032 BB07F740 		subw	a5,a4,a5
 1291 0036 232EF4FC 		sw	a5,-36(s0)
 676:../src/platform/mpfs_hal/common/nwc/mss_ddr_debug.c **** 
 677:../src/platform/mpfs_hal/common/nwc/mss_ddr_debug.c **** #ifdef DEBUG_DDR_INIT
 678:../src/platform/mpfs_hal/common/nwc/mss_ddr_debug.c ****     uprint(g_debug_uart, (const char*)(const uint8_t*)"\r\nLoading test pattern\r\n");
 679:../src/platform/mpfs_hal/common/nwc/mss_ddr_debug.c **** #endif
 680:../src/platform/mpfs_hal/common/nwc/mss_ddr_debug.c **** 
 681:../src/platform/mpfs_hal/common/nwc/mss_ddr_debug.c ****     while(((uint64_t)p_ddr + pattern_length) <  (base + size))
 1292              		.loc 2 681 10
 1293 003a 09AA     		j	.L83
 1294              	.L90:
 682:../src/platform/mpfs_hal/common/nwc/mss_ddr_debug.c ****     {
 683:../src/platform/mpfs_hal/common/nwc/mss_ddr_debug.c **** 
 684:../src/platform/mpfs_hal/common/nwc/mss_ddr_debug.c ****         switch ( ((uint64_t)p_ddr)%8U )
 1295              		.loc 2 684 19
 1296 003c 833704FE 		ld	a5,-32(s0)
 1297              		.loc 2 684 35
 1298 0040 9D8B     		andi	a5,a5,7
 1299              		.loc 2 684 9
 1300 0042 1D47     		li	a4,7
 1301 0044 636EF70C 		bgtu	a5,a4,.L84
 1302 0048 13972700 		slli	a4,a5,2
 1303 004c 97070000 		lla	a5,.L86
 1303      93870700 
 1304 0054 BA97     		add	a5,a4,a5
 1305 0056 9C43     		lw	a5,0(a5)
 1306 0058 1B870700 		sext.w	a4,a5
 1307 005c 97070000 		lla	a5,.L86
 1307      93870700 
 1308 0064 BA97     		add	a5,a4,a5
 1309 0066 8287     		jr	a5
 1310              		.section	.rodata.load_ddr_pattern,"a",@progbits
 1311              		.align	2
 1312              		.align	2
 1313              	.L86:
 1314 0000 00000000 		.word	.L89-.L86
 1315 0004 00000000 		.word	.L88-.L86
 1316 0008 00000000 		.word	.L87-.L86
 1317 000c 00000000 		.word	.L85-.L86
 1318 0010 00000000 		.word	.L89-.L86
 1319 0014 00000000 		.word	.L88-.L86
 1320 0018 00000000 		.word	.L87-.L86
 1321 001c 00000000 		.word	.L85-.L86
 1322              		.section	.text.load_ddr_pattern
 1323              	.L89:
 685:../src/platform/mpfs_hal/common/nwc/mss_ddr_debug.c ****         {
 686:../src/platform/mpfs_hal/common/nwc/mss_ddr_debug.c ****             case 0:
 687:../src/platform/mpfs_hal/common/nwc/mss_ddr_debug.c ****             case 4:
 688:../src/platform/mpfs_hal/common/nwc/mss_ddr_debug.c ****                 pdma_transfer_complete(PDMA_CHANNEL0_BASE_ADDRESS);
 1324              		.loc 2 688 17
 1325 0068 37050003 		li	a0,50331648
 1326 006c 97000000 		call	pdma_transfer_complete
 1326      E7800000 
 689:../src/platform/mpfs_hal/common/nwc/mss_ddr_debug.c ****                 pdma_transfer((uint64_t)p_ddr, (uint64_t)ddr_test_pattern, pattern_length, PDMA_CHA
 1327              		.loc 2 689 17
 1328 0074 833704FE 		ld	a5,-32(s0)
 1329 0078 17070000 		lla	a4,ddr_test_pattern
 1329      13070700 
 1330 0080 0366C4FD 		lwu	a2,-36(s0)
 1331 0084 B7060003 		li	a3,50331648
 1332 0088 BA85     		mv	a1,a4
 1333 008a 3E85     		mv	a0,a5
 1334 008c 97000000 		call	pdma_transfer
 1334      E7800000 
 690:../src/platform/mpfs_hal/common/nwc/mss_ddr_debug.c ****                 break;
 1335              		.loc 2 690 17
 1336 0094 71A0     		j	.L84
 1337              	.L88:
 691:../src/platform/mpfs_hal/common/nwc/mss_ddr_debug.c ****             case 1:
 692:../src/platform/mpfs_hal/common/nwc/mss_ddr_debug.c ****             case 5:
 693:../src/platform/mpfs_hal/common/nwc/mss_ddr_debug.c ****                 pdma_transfer_complete(PDMA_CHANNEL1_BASE_ADDRESS);
 1338              		.loc 2 693 17
 1339 0096 37150003 		li	a0,50335744
 1340 009a 97000000 		call	pdma_transfer_complete
 1340      E7800000 
 694:../src/platform/mpfs_hal/common/nwc/mss_ddr_debug.c ****                 pdma_transfer((uint64_t)p_ddr, (uint64_t)ddr_test_pattern, pattern_length, PDMA_CHA
 1341              		.loc 2 694 17
 1342 00a2 833704FE 		ld	a5,-32(s0)
 1343 00a6 17070000 		lla	a4,ddr_test_pattern
 1343      13070700 
 1344 00ae 0366C4FD 		lwu	a2,-36(s0)
 1345 00b2 B7160003 		li	a3,50335744
 1346 00b6 BA85     		mv	a1,a4
 1347 00b8 3E85     		mv	a0,a5
 1348 00ba 97000000 		call	pdma_transfer
 1348      E7800000 
 695:../src/platform/mpfs_hal/common/nwc/mss_ddr_debug.c ****                 break;
 1349              		.loc 2 695 17
 1350 00c2 B9A8     		j	.L84
 1351              	.L87:
 696:../src/platform/mpfs_hal/common/nwc/mss_ddr_debug.c ****             case 2:
 697:../src/platform/mpfs_hal/common/nwc/mss_ddr_debug.c ****             case 6:
 698:../src/platform/mpfs_hal/common/nwc/mss_ddr_debug.c ****                 pdma_transfer_complete(PDMA_CHANNEL2_BASE_ADDRESS);
 1352              		.loc 2 698 17
 1353 00c4 37250003 		li	a0,50339840
 1354 00c8 97000000 		call	pdma_transfer_complete
 1354      E7800000 
 699:../src/platform/mpfs_hal/common/nwc/mss_ddr_debug.c ****                 pdma_transfer((uint64_t)p_ddr, (uint64_t)ddr_test_pattern, pattern_length, PDMA_CHA
 1355              		.loc 2 699 17
 1356 00d0 833704FE 		ld	a5,-32(s0)
 1357 00d4 17070000 		lla	a4,ddr_test_pattern
 1357      13070700 
 1358 00dc 0366C4FD 		lwu	a2,-36(s0)
 1359 00e0 B7260003 		li	a3,50339840
 1360 00e4 BA85     		mv	a1,a4
 1361 00e6 3E85     		mv	a0,a5
 1362 00e8 97000000 		call	pdma_transfer
 1362      E7800000 
 700:../src/platform/mpfs_hal/common/nwc/mss_ddr_debug.c ****                 break;
 1363              		.loc 2 700 17
 1364 00f0 05A8     		j	.L84
 1365              	.L85:
 701:../src/platform/mpfs_hal/common/nwc/mss_ddr_debug.c ****             case 3:
 702:../src/platform/mpfs_hal/common/nwc/mss_ddr_debug.c ****             case 7:
 703:../src/platform/mpfs_hal/common/nwc/mss_ddr_debug.c ****                 pdma_transfer_complete(PDMA_CHANNEL3_BASE_ADDRESS);
 1366              		.loc 2 703 17
 1367 00f2 37350003 		li	a0,50343936
 1368 00f6 97000000 		call	pdma_transfer_complete
 1368      E7800000 
 704:../src/platform/mpfs_hal/common/nwc/mss_ddr_debug.c ****                 pdma_transfer((uint64_t)p_ddr, (uint64_t)ddr_test_pattern, pattern_length, PDMA_CHA
 1369              		.loc 2 704 17
 1370 00fe 833704FE 		ld	a5,-32(s0)
 1371 0102 17070000 		lla	a4,ddr_test_pattern
 1371      13070700 
 1372 010a 0366C4FD 		lwu	a2,-36(s0)
 1373 010e B7360003 		li	a3,50343936
 1374 0112 BA85     		mv	a1,a4
 1375 0114 3E85     		mv	a0,a5
 1376 0116 97000000 		call	pdma_transfer
 1376      E7800000 
 705:../src/platform/mpfs_hal/common/nwc/mss_ddr_debug.c ****                 break;
 1377              		.loc 2 705 17
 1378 011e 0100     		nop
 1379              	.L84:
 706:../src/platform/mpfs_hal/common/nwc/mss_ddr_debug.c ****         }
 707:../src/platform/mpfs_hal/common/nwc/mss_ddr_debug.c **** 
 708:../src/platform/mpfs_hal/common/nwc/mss_ddr_debug.c ****         p_ddr = p_ddr + (pattern_length);
 1380              		.loc 2 708 23
 1381 0120 8367C4FD 		lwu	a5,-36(s0)
 1382              		.loc 2 708 15
 1383 0124 033704FE 		ld	a4,-32(s0)
 1384 0128 BA97     		add	a5,a4,a5
 1385 012a 2330F4FE 		sd	a5,-32(s0)
 709:../src/platform/mpfs_hal/common/nwc/mss_ddr_debug.c ****         alive++;
 1386              		.loc 2 709 14
 1387 012e 8327C4FE 		lw	a5,-20(s0)
 1388 0132 8527     		addiw	a5,a5,1
 1389 0134 2326F4FE 		sw	a5,-20(s0)
 710:../src/platform/mpfs_hal/common/nwc/mss_ddr_debug.c ****         if (alive > 1000)
 1390              		.loc 2 710 12
 1391 0138 8327C4FE 		lw	a5,-20(s0)
 1392 013c 1B870700 		sext.w	a4,a5
 1393 0140 9307803E 		li	a5,1000
 1394 0144 63D4E700 		ble	a4,a5,.L83
 711:../src/platform/mpfs_hal/common/nwc/mss_ddr_debug.c ****         {
 712:../src/platform/mpfs_hal/common/nwc/mss_ddr_debug.c ****             alive = 0;
 1395              		.loc 2 712 19
 1396 0148 232604FE 		sw	zero,-20(s0)
 1397              	.L83:
 681:../src/platform/mpfs_hal/common/nwc/mss_ddr_debug.c ****     {
 1398              		.loc 2 681 28
 1399 014c 0367C4FD 		lwu	a4,-36(s0)
 681:../src/platform/mpfs_hal/common/nwc/mss_ddr_debug.c ****     {
 1400              		.loc 2 681 12
 1401 0150 833704FE 		ld	a5,-32(s0)
 681:../src/platform/mpfs_hal/common/nwc/mss_ddr_debug.c ****     {
 1402              		.loc 2 681 28
 1403 0154 3E97     		add	a4,a4,a5
 681:../src/platform/mpfs_hal/common/nwc/mss_ddr_debug.c ****     {
 1404              		.loc 2 681 55
 1405 0156 836644FC 		lwu	a3,-60(s0)
 1406 015a 833784FC 		ld	a5,-56(s0)
 1407 015e B697     		add	a5,a3,a5
 681:../src/platform/mpfs_hal/common/nwc/mss_ddr_debug.c ****     {
 1408              		.loc 2 681 10
 1409 0160 E36EF7EC 		bltu	a4,a5,.L90
 713:../src/platform/mpfs_hal/common/nwc/mss_ddr_debug.c **** #ifdef DEBUG_DDR_INIT
 714:../src/platform/mpfs_hal/common/nwc/mss_ddr_debug.c ****             uprint(g_debug_uart, (const char*)".");
 715:../src/platform/mpfs_hal/common/nwc/mss_ddr_debug.c **** #endif
 716:../src/platform/mpfs_hal/common/nwc/mss_ddr_debug.c ****         }
 717:../src/platform/mpfs_hal/common/nwc/mss_ddr_debug.c ****     }
 718:../src/platform/mpfs_hal/common/nwc/mss_ddr_debug.c **** #ifdef DEBUG_DDR_INIT
 719:../src/platform/mpfs_hal/common/nwc/mss_ddr_debug.c ****     uprint(g_debug_uart, (const char*)"\r\nFinished loading test pattern\r\n");
 720:../src/platform/mpfs_hal/common/nwc/mss_ddr_debug.c **** #endif
 721:../src/platform/mpfs_hal/common/nwc/mss_ddr_debug.c **** 
 722:../src/platform/mpfs_hal/common/nwc/mss_ddr_debug.c ****     pdma_transfer_complete(PDMA_CHANNEL0_BASE_ADDRESS);
 1410              		.loc 2 722 5
 1411 0164 37050003 		li	a0,50331648
 1412 0168 97000000 		call	pdma_transfer_complete
 1412      E7800000 
 723:../src/platform/mpfs_hal/common/nwc/mss_ddr_debug.c ****     pdma_transfer_complete(PDMA_CHANNEL1_BASE_ADDRESS);
 1413              		.loc 2 723 5
 1414 0170 37150003 		li	a0,50335744
 1415 0174 97000000 		call	pdma_transfer_complete
 1415      E7800000 
 724:../src/platform/mpfs_hal/common/nwc/mss_ddr_debug.c ****     pdma_transfer_complete(PDMA_CHANNEL2_BASE_ADDRESS);
 1416              		.loc 2 724 5
 1417 017c 37250003 		li	a0,50339840
 1418 0180 97000000 		call	pdma_transfer_complete
 1418      E7800000 
 725:../src/platform/mpfs_hal/common/nwc/mss_ddr_debug.c ****     pdma_transfer_complete(PDMA_CHANNEL3_BASE_ADDRESS);
 1419              		.loc 2 725 5
 1420 0188 37350003 		li	a0,50343936
 1421 018c 97000000 		call	pdma_transfer_complete
 1421      E7800000 
 726:../src/platform/mpfs_hal/common/nwc/mss_ddr_debug.c **** 
 727:../src/platform/mpfs_hal/common/nwc/mss_ddr_debug.c **** }
 1422              		.loc 2 727 1
 1423 0194 0100     		nop
 1424 0196 E270     		ld	ra,56(sp)
 1425              		.cfi_restore 1
 1426 0198 4274     		ld	s0,48(sp)
 1427              		.cfi_restore 8
 1428              		.cfi_def_cfa 2, 64
 1429 019a 2161     		addi	sp,sp,64
 1430              		.cfi_def_cfa_offset 0
 1431 019c 8280     		jr	ra
 1432              		.cfi_endproc
 1433              	.LFE27:
 1435              		.section	.text.execute_ddr_pattern,"ax",@progbits
 1436              		.align	1
 1437              		.globl	execute_ddr_pattern
 1439              	execute_ddr_pattern:
 1440              	.LFB28:
 728:../src/platform/mpfs_hal/common/nwc/mss_ddr_debug.c **** 
 729:../src/platform/mpfs_hal/common/nwc/mss_ddr_debug.c **** /**
 730:../src/platform/mpfs_hal/common/nwc/mss_ddr_debug.c ****  * Run from address
 731:../src/platform/mpfs_hal/common/nwc/mss_ddr_debug.c ****  * @param start_addr address to run from.
 732:../src/platform/mpfs_hal/common/nwc/mss_ddr_debug.c ****  */
 733:../src/platform/mpfs_hal/common/nwc/mss_ddr_debug.c **** void execute_ddr_pattern(uint64_t start_addr)
 734:../src/platform/mpfs_hal/common/nwc/mss_ddr_debug.c **** {
 1441              		.loc 2 734 1
 1442              		.cfi_startproc
 1443 0000 7971     		addi	sp,sp,-48
 1444              		.cfi_def_cfa_offset 48
 1445 0002 06F4     		sd	ra,40(sp)
 1446 0004 22F0     		sd	s0,32(sp)
 1447              		.cfi_offset 1, -8
 1448              		.cfi_offset 8, -16
 1449 0006 0018     		addi	s0,sp,48
 1450              		.cfi_def_cfa 8, 0
 1451 0008 233CA4FC 		sd	a0,-40(s0)
 735:../src/platform/mpfs_hal/common/nwc/mss_ddr_debug.c ****     pattern_fct_t p_pattern_fct = (pattern_fct_t)start_addr;
 1452              		.loc 2 735 19
 1453 000c 833784FD 		ld	a5,-40(s0)
 1454 0010 2334F4FE 		sd	a5,-24(s0)
 736:../src/platform/mpfs_hal/common/nwc/mss_ddr_debug.c **** 
 737:../src/platform/mpfs_hal/common/nwc/mss_ddr_debug.c ****     (*p_pattern_fct)();
 1455              		.loc 2 737 6
 1456 0014 833784FE 		ld	a5,-24(s0)
 1457 0018 8297     		jalr	a5
 1458              	.LVL0:
 738:../src/platform/mpfs_hal/common/nwc/mss_ddr_debug.c **** }
 1459              		.loc 2 738 1
 1460 001a 0100     		nop
 1461 001c A270     		ld	ra,40(sp)
 1462              		.cfi_restore 1
 1463 001e 0274     		ld	s0,32(sp)
 1464              		.cfi_restore 8
 1465              		.cfi_def_cfa 2, 48
 1466 0020 4561     		addi	sp,sp,48
 1467              		.cfi_def_cfa_offset 0
 1468 0022 8280     		jr	ra
 1469              		.cfi_endproc
 1470              	.LFE28:
 1472              		.section	.text.load_test_buffers,"ax",@progbits
 1473              		.align	1
 1475              	load_test_buffers:
 1476              	.LFB29:
 739:../src/platform/mpfs_hal/common/nwc/mss_ddr_debug.c **** 
 740:../src/platform/mpfs_hal/common/nwc/mss_ddr_debug.c **** /**
 741:../src/platform/mpfs_hal/common/nwc/mss_ddr_debug.c ****  * Loads DDR with a pattern that triggers read issues if not enough margin.
 742:../src/platform/mpfs_hal/common/nwc/mss_ddr_debug.c ****  * Used to verify training is successful.
 743:../src/platform/mpfs_hal/common/nwc/mss_ddr_debug.c ****  * @param p_cached_ddr
 744:../src/platform/mpfs_hal/common/nwc/mss_ddr_debug.c ****  * @param p_not_cached_ddr
 745:../src/platform/mpfs_hal/common/nwc/mss_ddr_debug.c ****  * @param length
 746:../src/platform/mpfs_hal/common/nwc/mss_ddr_debug.c ****  */
 747:../src/platform/mpfs_hal/common/nwc/mss_ddr_debug.c **** static void load_test_buffers(uint32_t * p_cached_ddr, uint32_t * p_not_cached_ddr, uint64_t length
 748:../src/platform/mpfs_hal/common/nwc/mss_ddr_debug.c **** {
 1477              		.loc 2 748 1
 1478              		.cfi_startproc
 1479 0000 7971     		addi	sp,sp,-48
 1480              		.cfi_def_cfa_offset 48
 1481 0002 06F4     		sd	ra,40(sp)
 1482 0004 22F0     		sd	s0,32(sp)
 1483              		.cfi_offset 1, -8
 1484              		.cfi_offset 8, -16
 1485 0006 0018     		addi	s0,sp,48
 1486              		.cfi_def_cfa 8, 0
 1487 0008 2334A4FE 		sd	a0,-24(s0)
 1488 000c 2330B4FE 		sd	a1,-32(s0)
 1489 0010 233CC4FC 		sd	a2,-40(s0)
 749:../src/platform/mpfs_hal/common/nwc/mss_ddr_debug.c ****     (void)length;
 750:../src/platform/mpfs_hal/common/nwc/mss_ddr_debug.c **** 
 751:../src/platform/mpfs_hal/common/nwc/mss_ddr_debug.c ****     pdma_transfer((uint64_t)g_test_buffer_cached, (uint64_t)p_cached_ddr, length,  PDMA_CHANNEL0_BA
 1490              		.loc 2 751 5
 1491 0014 97070000 		lla	a5,g_test_buffer_cached
 1491      93870700 
 1492 001c 033784FE 		ld	a4,-24(s0)
 1493 0020 B7060003 		li	a3,50331648
 1494 0024 033684FD 		ld	a2,-40(s0)
 1495 0028 BA85     		mv	a1,a4
 1496 002a 3E85     		mv	a0,a5
 1497 002c 97000000 		call	pdma_transfer
 1497      E7800000 
 752:../src/platform/mpfs_hal/common/nwc/mss_ddr_debug.c ****     pdma_transfer((uint64_t)g_test_buffer_not_cached, (uint64_t)p_not_cached_ddr, length,  PDMA_CHA
 1498              		.loc 2 752 5
 1499 0034 97070000 		lla	a5,g_test_buffer_not_cached
 1499      93870700 
 1500 003c 033704FE 		ld	a4,-32(s0)
 1501 0040 B7160003 		li	a3,50335744
 1502 0044 033684FD 		ld	a2,-40(s0)
 1503 0048 BA85     		mv	a1,a4
 1504 004a 3E85     		mv	a0,a5
 1505 004c 97000000 		call	pdma_transfer
 1505      E7800000 
 753:../src/platform/mpfs_hal/common/nwc/mss_ddr_debug.c ****     pdma_transfer_complete(PDMA_CHANNEL0_BASE_ADDRESS);
 1506              		.loc 2 753 5
 1507 0054 37050003 		li	a0,50331648
 1508 0058 97000000 		call	pdma_transfer_complete
 1508      E7800000 
 754:../src/platform/mpfs_hal/common/nwc/mss_ddr_debug.c ****     pdma_transfer_complete(PDMA_CHANNEL1_BASE_ADDRESS);
 1509              		.loc 2 754 5
 1510 0060 37150003 		li	a0,50335744
 1511 0064 97000000 		call	pdma_transfer_complete
 1511      E7800000 
 755:../src/platform/mpfs_hal/common/nwc/mss_ddr_debug.c **** }
 1512              		.loc 2 755 1
 1513 006c 0100     		nop
 1514 006e A270     		ld	ra,40(sp)
 1515              		.cfi_restore 1
 1516 0070 0274     		ld	s0,32(sp)
 1517              		.cfi_restore 8
 1518              		.cfi_def_cfa 2, 48
 1519 0072 4561     		addi	sp,sp,48
 1520              		.cfi_def_cfa_offset 0
 1521 0074 8280     		jr	ra
 1522              		.cfi_endproc
 1523              	.LFE29:
 1525              		.section	.text.test_ddr,"ax",@progbits
 1526              		.align	1
 1527              		.globl	test_ddr
 1529              	test_ddr:
 1530              	.LFB30:
 756:../src/platform/mpfs_hal/common/nwc/mss_ddr_debug.c **** 
 757:../src/platform/mpfs_hal/common/nwc/mss_ddr_debug.c **** /**
 758:../src/platform/mpfs_hal/common/nwc/mss_ddr_debug.c ****  * test_ddr reads from cached and non cached DDR and compares
 759:../src/platform/mpfs_hal/common/nwc/mss_ddr_debug.c ****  * @param no_of_iterations
 760:../src/platform/mpfs_hal/common/nwc/mss_ddr_debug.c ****  * @param size
 761:../src/platform/mpfs_hal/common/nwc/mss_ddr_debug.c ****  * @return returns 1 if compare fails
 762:../src/platform/mpfs_hal/common/nwc/mss_ddr_debug.c ****  */
 763:../src/platform/mpfs_hal/common/nwc/mss_ddr_debug.c **** uint32_t test_ddr(uint32_t no_of_iterations, uint32_t size)
 764:../src/platform/mpfs_hal/common/nwc/mss_ddr_debug.c **** {
 1531              		.loc 2 764 1
 1532              		.cfi_startproc
 1533 0000 5D71     		addi	sp,sp,-80
 1534              		.cfi_def_cfa_offset 80
 1535 0002 86E4     		sd	ra,72(sp)
 1536 0004 A2E0     		sd	s0,64(sp)
 1537              		.cfi_offset 1, -8
 1538              		.cfi_offset 8, -16
 1539 0006 8008     		addi	s0,sp,80
 1540              		.cfi_def_cfa 8, 0
 1541 0008 AA87     		mv	a5,a0
 1542 000a 2E87     		mv	a4,a1
 1543 000c 232EF4FA 		sw	a5,-68(s0)
 1544 0010 BA87     		mv	a5,a4
 1545 0012 232CF4FA 		sw	a5,-72(s0)
 765:../src/platform/mpfs_hal/common/nwc/mss_ddr_debug.c ****     uint32_t pattern_length = sizeof(ddr_test_pattern) - (3 * sizeof(uint32_t));
 1546              		.loc 2 765 14
 1547 0016 8567     		li	a5,4096
 1548 0018 938747BF 		addi	a5,a5,-1036
 1549 001c 2326F4FC 		sw	a5,-52(s0)
 766:../src/platform/mpfs_hal/common/nwc/mss_ddr_debug.c ****     uint32_t * p_ddr_cached = (uint32_t *)0x80000000;
 1550              		.loc 2 766 16
 1551 0020 8547     		li	a5,1
 1552 0022 FE07     		slli	a5,a5,31
 1553 0024 2334F4FE 		sd	a5,-24(s0)
 767:../src/platform/mpfs_hal/common/nwc/mss_ddr_debug.c ****     uint32_t * p_ddr_noncached = (uint32_t *)0x1400000000;
 1554              		.loc 2 767 16
 1555 0028 9547     		li	a5,5
 1556 002a 8A17     		slli	a5,a5,34
 1557 002c 2330F4FE 		sd	a5,-32(s0)
 768:../src/platform/mpfs_hal/common/nwc/mss_ddr_debug.c ****     uint32_t word_offset;
 769:../src/platform/mpfs_hal/common/nwc/mss_ddr_debug.c ****     uint32_t alive = 0;
 1558              		.loc 2 769 14
 1559 0030 232C04FC 		sw	zero,-40(s0)
 770:../src/platform/mpfs_hal/common/nwc/mss_ddr_debug.c ****     uint32_t alive_idx = 0U;
 1560              		.loc 2 770 14
 1561 0034 232A04FC 		sw	zero,-44(s0)
 771:../src/platform/mpfs_hal/common/nwc/mss_ddr_debug.c ****     uint32_t iteration = 0U;
 1562              		.loc 2 771 14
 1563 0038 232804FC 		sw	zero,-48(s0)
 772:../src/platform/mpfs_hal/common/nwc/mss_ddr_debug.c ****     uint32_t error = 0U;
 1564              		.loc 2 772 14
 1565 003c 232404FC 		sw	zero,-56(s0)
 773:../src/platform/mpfs_hal/common/nwc/mss_ddr_debug.c **** 
 774:../src/platform/mpfs_hal/common/nwc/mss_ddr_debug.c **** 
 775:../src/platform/mpfs_hal/common/nwc/mss_ddr_debug.c **** #ifdef DEBUG_DDR_INIT
 776:../src/platform/mpfs_hal/common/nwc/mss_ddr_debug.c ****     uprint(g_debug_uart, (const char*)"\r\nStarting ddr test\r\n");
 777:../src/platform/mpfs_hal/common/nwc/mss_ddr_debug.c **** #endif
 778:../src/platform/mpfs_hal/common/nwc/mss_ddr_debug.c ****     while(iteration < no_of_iterations)
 1566              		.loc 2 778 10
 1567 0040 95AA     		j	.L94
 1568              	.L104:
 1569              	.LBB6:
 779:../src/platform/mpfs_hal/common/nwc/mss_ddr_debug.c ****     {
 780:../src/platform/mpfs_hal/common/nwc/mss_ddr_debug.c ****         int different = 0;
 1570              		.loc 2 780 13
 1571 0042 232204FC 		sw	zero,-60(s0)
 781:../src/platform/mpfs_hal/common/nwc/mss_ddr_debug.c **** 
 782:../src/platform/mpfs_hal/common/nwc/mss_ddr_debug.c ****         load_test_buffers(p_ddr_cached, p_ddr_noncached, pattern_length);
 1572              		.loc 2 782 9
 1573 0046 8367C4FC 		lwu	a5,-52(s0)
 1574 004a 3E86     		mv	a2,a5
 1575 004c 833504FE 		ld	a1,-32(s0)
 1576 0050 033584FE 		ld	a0,-24(s0)
 1577 0054 97000000 		call	load_test_buffers
 1577      E7800000 
 783:../src/platform/mpfs_hal/common/nwc/mss_ddr_debug.c **** 
 784:../src/platform/mpfs_hal/common/nwc/mss_ddr_debug.c ****         different = memcmp(g_test_buffer_cached, g_test_buffer_not_cached, pattern_length);
 1578              		.loc 2 784 21
 1579 005c 8367C4FC 		lwu	a5,-52(s0)
 1580 0060 3E86     		mv	a2,a5
 1581 0062 97050000 		lla	a1,g_test_buffer_not_cached
 1581      93850500 
 1582 006a 17050000 		lla	a0,g_test_buffer_cached
 1582      13050500 
 1583 0072 97000000 		call	memcmp
 1583      E7800000 
 1584 007a AA87     		mv	a5,a0
 1585 007c 2322F4FC 		sw	a5,-60(s0)
 785:../src/platform/mpfs_hal/common/nwc/mss_ddr_debug.c **** 
 786:../src/platform/mpfs_hal/common/nwc/mss_ddr_debug.c ****         if(different != 0)
 1586              		.loc 2 786 11
 1587 0080 832744FC 		lw	a5,-60(s0)
 1588 0084 8127     		sext.w	a5,a5
 1589 0086 ADC3     		beq	a5,zero,.L95
 787:../src/platform/mpfs_hal/common/nwc/mss_ddr_debug.c ****         {
 788:../src/platform/mpfs_hal/common/nwc/mss_ddr_debug.c ****             for(word_offset = 0; word_offset < (pattern_length / sizeof(uint32_t)); word_offset++)
 1590              		.loc 2 788 29
 1591 0088 232E04FC 		sw	zero,-36(s0)
 1592              		.loc 2 788 13
 1593 008c 1DA8     		j	.L96
 1594              	.L99:
 789:../src/platform/mpfs_hal/common/nwc/mss_ddr_debug.c ****             {
 790:../src/platform/mpfs_hal/common/nwc/mss_ddr_debug.c ****                 if(g_test_buffer_cached[word_offset] != g_test_buffer_not_cached[word_offset])
 1595              		.loc 2 790 40
 1596 008e 17070000 		lla	a4,g_test_buffer_cached
 1596      13070700 
 1597 0096 8367C4FD 		lwu	a5,-36(s0)
 1598 009a 8A07     		slli	a5,a5,2
 1599 009c BA97     		add	a5,a4,a5
 1600 009e 9443     		lw	a3,0(a5)
 1601              		.loc 2 790 81
 1602 00a0 17070000 		lla	a4,g_test_buffer_not_cached
 1602      13070700 
 1603 00a8 8367C4FD 		lwu	a5,-36(s0)
 1604 00ac 8A07     		slli	a5,a5,2
 1605 00ae BA97     		add	a5,a4,a5
 1606 00b0 9C43     		lw	a5,0(a5)
 1607              		.loc 2 790 19
 1608 00b2 3687     		mv	a4,a3
 1609 00b4 6313F702 		bne	a4,a5,.L105
 788:../src/platform/mpfs_hal/common/nwc/mss_ddr_debug.c ****             {
 1610              		.loc 2 788 96 discriminator 2
 1611 00b8 8327C4FD 		lw	a5,-36(s0)
 1612 00bc 8527     		addiw	a5,a5,1
 1613 00be 232EF4FC 		sw	a5,-36(s0)
 1614              	.L96:
 788:../src/platform/mpfs_hal/common/nwc/mss_ddr_debug.c ****             {
 1615              		.loc 2 788 46 discriminator 1
 1616 00c2 8327C4FC 		lw	a5,-52(s0)
 1617 00c6 9BD72700 		srliw	a5,a5,2
 1618 00ca 1B870700 		sext.w	a4,a5
 788:../src/platform/mpfs_hal/common/nwc/mss_ddr_debug.c ****             {
 1619              		.loc 2 788 13 discriminator 1
 1620 00ce 8327C4FD 		lw	a5,-36(s0)
 1621 00d2 8127     		sext.w	a5,a5
 1622 00d4 E3EDE7FA 		bltu	a5,a4,.L99
 1623 00d8 11A0     		j	.L98
 1624              	.L105:
 791:../src/platform/mpfs_hal/common/nwc/mss_ddr_debug.c ****                 {
 792:../src/platform/mpfs_hal/common/nwc/mss_ddr_debug.c **** #ifdef DEBUG_DDR_INIT
 793:../src/platform/mpfs_hal/common/nwc/mss_ddr_debug.c ****                     uprint64(g_debug_uart, "  Mismatch, 0x", (uint64_t)p_ddr_cached);
 794:../src/platform/mpfs_hal/common/nwc/mss_ddr_debug.c ****                     uprint32(g_debug_uart, "  offset:, 0x", (uint64_t)word_offset);
 795:../src/platform/mpfs_hal/common/nwc/mss_ddr_debug.c ****                     uprint64(g_debug_uart, "  address: 0x", (uint64_t)(p_ddr_cached + word_offset))
 796:../src/platform/mpfs_hal/common/nwc/mss_ddr_debug.c ****                     uprint32(g_debug_uart, "  expected (non-cached): 0x", g_test_buffer_not_cached[
 797:../src/platform/mpfs_hal/common/nwc/mss_ddr_debug.c ****                     uprint32(g_debug_uart, "  found  (cached): 0x", (uint64_t)g_test_buffer_cached[
 798:../src/platform/mpfs_hal/common/nwc/mss_ddr_debug.c ****                     uprint32(g_debug_uart, "  direct cached read: 0x", (uint32_t)*(p_ddr_cached + w
 799:../src/platform/mpfs_hal/common/nwc/mss_ddr_debug.c ****                     uprint32(g_debug_uart, "  direct non-cached read: 0x", (uint32_t)*(p_ddr_noncac
 800:../src/platform/mpfs_hal/common/nwc/mss_ddr_debug.c **** #endif
 801:../src/platform/mpfs_hal/common/nwc/mss_ddr_debug.c ****                     break;
 1625              		.loc 2 801 21
 1626 00da 0100     		nop
 1627              	.L98:
 802:../src/platform/mpfs_hal/common/nwc/mss_ddr_debug.c ****                 }
 803:../src/platform/mpfs_hal/common/nwc/mss_ddr_debug.c ****             }
 804:../src/platform/mpfs_hal/common/nwc/mss_ddr_debug.c ****             error = 1U;
 1628              		.loc 2 804 19
 1629 00dc 8547     		li	a5,1
 1630 00de 2324F4FC 		sw	a5,-56(s0)
 805:../src/platform/mpfs_hal/common/nwc/mss_ddr_debug.c ****             return error;
 1631              		.loc 2 805 20
 1632 00e2 832784FC 		lw	a5,-56(s0)
 1633 00e6 CDA0     		j	.L100
 1634              	.L95:
 806:../src/platform/mpfs_hal/common/nwc/mss_ddr_debug.c ****         }
 807:../src/platform/mpfs_hal/common/nwc/mss_ddr_debug.c **** 
 808:../src/platform/mpfs_hal/common/nwc/mss_ddr_debug.c ****         if (((uint64_t)p_ddr_cached + ( 2 * pattern_length)) <  (LIBERO_SETTING_DDR_32_CACHE + size
 1635              		.loc 2 808 43
 1636 00e8 8327C4FC 		lw	a5,-52(s0)
 1637 00ec 9B971700 		slliw	a5,a5,1
 1638 00f0 8127     		sext.w	a5,a5
 1639 00f2 13970702 		slli	a4,a5,32
 1640 00f6 0193     		srli	a4,a4,32
 1641              		.loc 2 808 14
 1642 00f8 833784FE 		ld	a5,-24(s0)
 1643              		.loc 2 808 37
 1644 00fc 3E97     		add	a4,a4,a5
 1645              		.loc 2 808 94
 1646 00fe 832684FB 		lw	a3,-72(s0)
 1647 0102 B7070080 		li	a5,-2147483648
 1648 0106 B59F     		addw	a5,a3,a5
 1649 0108 8127     		sext.w	a5,a5
 1650 010a 8217     		slli	a5,a5,32
 1651 010c 8193     		srli	a5,a5,32
 1652              		.loc 2 808 12
 1653 010e 637DF702 		bgeu	a4,a5,.L101
 809:../src/platform/mpfs_hal/common/nwc/mss_ddr_debug.c ****         {
 810:../src/platform/mpfs_hal/common/nwc/mss_ddr_debug.c ****             p_ddr_cached += (pattern_length / sizeof(uint32_t));
 1654              		.loc 2 810 45
 1655 0112 8327C4FC 		lw	a5,-52(s0)
 1656 0116 9BD72700 		srliw	a5,a5,2
 1657 011a 8127     		sext.w	a5,a5
 1658 011c 8217     		slli	a5,a5,32
 1659 011e 8193     		srli	a5,a5,32
 1660              		.loc 2 810 26
 1661 0120 8A07     		slli	a5,a5,2
 1662 0122 033784FE 		ld	a4,-24(s0)
 1663 0126 BA97     		add	a5,a4,a5
 1664 0128 2334F4FE 		sd	a5,-24(s0)
 811:../src/platform/mpfs_hal/common/nwc/mss_ddr_debug.c ****             p_ddr_noncached += (pattern_length / sizeof(uint32_t));
 1665              		.loc 2 811 48
 1666 012c 8327C4FC 		lw	a5,-52(s0)
 1667 0130 9BD72700 		srliw	a5,a5,2
 1668 0134 8127     		sext.w	a5,a5
 1669 0136 8217     		slli	a5,a5,32
 1670 0138 8193     		srli	a5,a5,32
 1671              		.loc 2 811 29
 1672 013a 8A07     		slli	a5,a5,2
 1673 013c 033704FE 		ld	a4,-32(s0)
 1674 0140 BA97     		add	a5,a4,a5
 1675 0142 2330F4FE 		sd	a5,-32(s0)
 1676 0146 31A8     		j	.L102
 1677              	.L101:
 812:../src/platform/mpfs_hal/common/nwc/mss_ddr_debug.c ****         }
 813:../src/platform/mpfs_hal/common/nwc/mss_ddr_debug.c ****         else
 814:../src/platform/mpfs_hal/common/nwc/mss_ddr_debug.c ****         {
 815:../src/platform/mpfs_hal/common/nwc/mss_ddr_debug.c ****             p_ddr_cached = (uint32_t *)0x80000000;
 1678              		.loc 2 815 26
 1679 0148 8547     		li	a5,1
 1680 014a FE07     		slli	a5,a5,31
 1681 014c 2334F4FE 		sd	a5,-24(s0)
 816:../src/platform/mpfs_hal/common/nwc/mss_ddr_debug.c ****             p_ddr_noncached = (uint32_t *)0x1400000000;
 1682              		.loc 2 816 29
 1683 0150 9547     		li	a5,5
 1684 0152 8A17     		slli	a5,a5,34
 1685 0154 2330F4FE 		sd	a5,-32(s0)
 817:../src/platform/mpfs_hal/common/nwc/mss_ddr_debug.c ****             iteration++;
 1686              		.loc 2 817 22
 1687 0158 832704FD 		lw	a5,-48(s0)
 1688 015c 8527     		addiw	a5,a5,1
 1689 015e 2328F4FC 		sw	a5,-48(s0)
 1690              	.L102:
 818:../src/platform/mpfs_hal/common/nwc/mss_ddr_debug.c **** #ifdef DEBUG_DDR_INIT
 819:../src/platform/mpfs_hal/common/nwc/mss_ddr_debug.c ****             uprint32(g_debug_uart, "  Iteration ", (uint64_t)(unsigned int)iteration);
 820:../src/platform/mpfs_hal/common/nwc/mss_ddr_debug.c **** #endif
 821:../src/platform/mpfs_hal/common/nwc/mss_ddr_debug.c ****         }
 822:../src/platform/mpfs_hal/common/nwc/mss_ddr_debug.c **** 
 823:../src/platform/mpfs_hal/common/nwc/mss_ddr_debug.c ****         alive++;
 1691              		.loc 2 823 14
 1692 0162 832784FD 		lw	a5,-40(s0)
 1693 0166 8527     		addiw	a5,a5,1
 1694 0168 232CF4FC 		sw	a5,-40(s0)
 824:../src/platform/mpfs_hal/common/nwc/mss_ddr_debug.c ****         if(alive > 10000U)
 1695              		.loc 2 824 11
 1696 016c 832784FD 		lw	a5,-40(s0)
 1697 0170 1B870700 		sext.w	a4,a5
 1698 0174 8967     		li	a5,8192
 1699 0176 93870771 		addi	a5,a5,1808
 1700 017a 63FDE702 		bleu	a4,a5,.L94
 825:../src/platform/mpfs_hal/common/nwc/mss_ddr_debug.c ****         {
 826:../src/platform/mpfs_hal/common/nwc/mss_ddr_debug.c ****             alive = 0;
 1701              		.loc 2 826 19
 1702 017e 232C04FC 		sw	zero,-40(s0)
 827:../src/platform/mpfs_hal/common/nwc/mss_ddr_debug.c **** #ifdef DEBUG_DDR_INIT
 828:../src/platform/mpfs_hal/common/nwc/mss_ddr_debug.c ****             uprint(g_debug_uart, (const char*)"\r");
 829:../src/platform/mpfs_hal/common/nwc/mss_ddr_debug.c ****             uprint(g_debug_uart, (const char*)progress[alive_idx]);
 830:../src/platform/mpfs_hal/common/nwc/mss_ddr_debug.c **** #endif
 831:../src/platform/mpfs_hal/common/nwc/mss_ddr_debug.c ****             alive_idx++;
 1703              		.loc 2 831 22
 1704 0182 832744FD 		lw	a5,-44(s0)
 1705 0186 8527     		addiw	a5,a5,1
 1706 0188 232AF4FC 		sw	a5,-44(s0)
 832:../src/platform/mpfs_hal/common/nwc/mss_ddr_debug.c ****             if(alive_idx >= 3U)
 1707              		.loc 2 832 15
 1708 018c 832744FD 		lw	a5,-44(s0)
 1709 0190 1B870700 		sext.w	a4,a5
 1710 0194 8947     		li	a5,2
 1711 0196 63F4E700 		bleu	a4,a5,.L103
 833:../src/platform/mpfs_hal/common/nwc/mss_ddr_debug.c ****             {
 834:../src/platform/mpfs_hal/common/nwc/mss_ddr_debug.c ****                 alive_idx = 0;
 1712              		.loc 2 834 27
 1713 019a 232A04FC 		sw	zero,-44(s0)
 1714              	.L103:
 835:../src/platform/mpfs_hal/common/nwc/mss_ddr_debug.c ****             }
 836:../src/platform/mpfs_hal/common/nwc/mss_ddr_debug.c ****             if(ddr_test == 2U)
 1715              		.loc 2 836 25
 1716 019e 97070000 		lla	a5,ddr_test
 1716      93870700 
 1717 01a6 9863     		ld	a4,0(a5)
 1718              		.loc 2 836 15
 1719 01a8 8947     		li	a5,2
 1720 01aa 6315F700 		bne	a4,a5,.L94
 837:../src/platform/mpfs_hal/common/nwc/mss_ddr_debug.c ****             {
 838:../src/platform/mpfs_hal/common/nwc/mss_ddr_debug.c **** #ifdef DEBUG_DDR_INIT
 839:../src/platform/mpfs_hal/common/nwc/mss_ddr_debug.c ****             uprint(g_debug_uart, (const char*)"\r\nEnding ddr test. Press 0 to display the menu\r\n
 840:../src/platform/mpfs_hal/common/nwc/mss_ddr_debug.c **** #endif
 841:../src/platform/mpfs_hal/common/nwc/mss_ddr_debug.c ****                 return error;
 1721              		.loc 2 841 24
 1722 01ae 832784FC 		lw	a5,-56(s0)
 1723 01b2 19A8     		j	.L100
 1724              	.L94:
 1725              	.LBE6:
 778:../src/platform/mpfs_hal/common/nwc/mss_ddr_debug.c ****     {
 1726              		.loc 2 778 10
 1727 01b4 032704FD 		lw	a4,-48(s0)
 1728 01b8 8327C4FB 		lw	a5,-68(s0)
 1729 01bc 0127     		sext.w	a4,a4
 1730 01be 8127     		sext.w	a5,a5
 1731 01c0 E361F7E8 		bltu	a4,a5,.L104
 842:../src/platform/mpfs_hal/common/nwc/mss_ddr_debug.c ****             }
 843:../src/platform/mpfs_hal/common/nwc/mss_ddr_debug.c ****         }
 844:../src/platform/mpfs_hal/common/nwc/mss_ddr_debug.c ****     }
 845:../src/platform/mpfs_hal/common/nwc/mss_ddr_debug.c ****     return error;
 1732              		.loc 2 845 12
 1733 01c4 832784FC 		lw	a5,-56(s0)
 1734              	.L100:
 846:../src/platform/mpfs_hal/common/nwc/mss_ddr_debug.c **** }
 1735              		.loc 2 846 1
 1736 01c8 3E85     		mv	a0,a5
 1737 01ca A660     		ld	ra,72(sp)
 1738              		.cfi_restore 1
 1739 01cc 0664     		ld	s0,64(sp)
 1740              		.cfi_restore 8
 1741              		.cfi_def_cfa 2, 80
 1742 01ce 6161     		addi	sp,sp,80
 1743              		.cfi_def_cfa_offset 0
 1744 01d0 8280     		jr	ra
 1745              		.cfi_endproc
 1746              	.LFE30:
 1748              		.section	.rodata
 1749 0013 00000000 		.align	3
 1749      00
 1750              	.LC3:
 1751 0018 CCCCCCCC 		.dword	-3689348814741910324
 1751      CCCCCCCC 
 1752              		.align	3
 1753              	.LC4:
 1754 0020 55555555 		.dword	6148914691236517205
 1754      55555555 
 1755              		.text
 1756              	.Letext0:
 1757              		.file 3 "/home/vinay/Desktop/soft_console/SoftConsole-v2022.2-RISC-V-747/riscv-unknown-elf-gcc/ris
 1758              		.file 4 "/home/vinay/Desktop/soft_console/SoftConsole-v2022.2-RISC-V-747/riscv-unknown-elf-gcc/lib
 1759              		.file 5 "/home/vinay/Desktop/soft_console/SoftConsole-v2022.2-RISC-V-747/riscv-unknown-elf-gcc/ris
 1760              		.file 6 "/home/vinay/Desktop/soft_console/SoftConsole-v2022.2-RISC-V-747/riscv-unknown-elf-gcc/ris
 1761              		.file 7 "/home/vinay/Desktop/soft_console/SoftConsole-v2022.2-RISC-V-747/riscv-unknown-elf-gcc/ris
 1762              		.file 8 "/home/vinay/Desktop/soft_console/SoftConsole-v2022.2-RISC-V-747/riscv-unknown-elf-gcc/ris
 1763              		.file 9 "/home/vinay/Desktop/soft_console/SoftConsole-v2022.2-RISC-V-747/riscv-unknown-elf-gcc/ris
 1764              		.file 10 "/home/vinay/Desktop/softconsole_watershed/Water-shed/src/platform/mpfs_hal/common/nwc/ms
 1765              		.file 11 "/home/vinay/Desktop/softconsole_watershed/Water-shed/src/platform/mpfs_hal/common/nwc/ms
 1766              		.file 12 "/home/vinay/Desktop/softconsole_watershed/Water-shed/src/platform/mpfs_hal/common/nwc/ms
 1767              		.file 13 "/home/vinay/Desktop/softconsole_watershed/Water-shed/src/platform/mpfs_hal/common/mss_mp
 1768              		.file 14 "/home/vinay/Desktop/softconsole_watershed/Water-shed/src/platform/mpfs_hal/common/mss_pl
 1769              		.file 15 "/home/vinay/Desktop/softconsole_watershed/Water-shed/src/platform/mpfs_hal/startup_gcc/s
 1770              		.file 16 "/home/vinay/Desktop/softconsole_watershed/Water-shed/src/platform/mpfs_hal/common/nwc/ms
DEFINED SYMBOLS
                            *ABS*:0000000000000000 mss_ddr_debug.c
     /tmp/cc7R4ZW9.s:12     .text.delay:0000000000000000 delay
     /tmp/cc7R4ZW9.s:16     .text.delay:0000000000000000 .L0 
     /tmp/cc7R4ZW9.s:17     .text.delay:0000000000000000 .L0 
     /tmp/cc7R4ZW9.s:18     .text.delay:0000000000000002 .L0 
     /tmp/cc7R4ZW9.s:20     .text.delay:0000000000000004 .L0 
     /tmp/cc7R4ZW9.s:22     .text.delay:0000000000000006 .L0 
../src/platform/mpfs_hal/common/nwc/mss_nwc_init.h:121    .text.delay:000000000000000c .L0 
     /tmp/cc7R4ZW9.s:36     .text.delay:0000000000000018 .L0 
     /tmp/cc7R4ZW9.s:39     .text.delay:000000000000001e .L0 
     /tmp/cc7R4ZW9.s:41     .text.delay:0000000000000022 .L0 
../src/platform/mpfs_hal/common/nwc/mss_nwc_init.h:122    .text.delay:0000000000000024 .L0 
     /tmp/cc7R4ZW9.s:54     .text.delay:0000000000000030 .L0 
     /tmp/cc7R4ZW9.s:56     .text.delay:0000000000000034 .L0 
     /tmp/cc7R4ZW9.s:58     .text.delay:0000000000000038 .L0 
     /tmp/cc7R4ZW9.s:60     .text.delay:000000000000003c .L0 
     /tmp/cc7R4ZW9.s:61     .text.delay:000000000000003c .L0 
     /tmp/cc7R4ZW9.s:63     .text.delay:000000000000003e .L0 
     /tmp/cc7R4ZW9.s:65     .text.delay:0000000000000040 .L0 
     /tmp/cc7R4ZW9.s:83     .data.progress:0000000000000000 progress
     /tmp/cc7R4ZW9.s:91     .bss.g_test_buffer_cached:0000000000000000 g_test_buffer_cached
     /tmp/cc7R4ZW9.s:97     .bss.g_test_buffer_not_cached:0000000000000000 g_test_buffer_not_cached
                            *COM*:0000000000000008 ddr_test
     /tmp/cc7R4ZW9.s:103    .text.ddr_write:0000000000000000 ddr_write
     /tmp/cc7R4ZW9.s:107    .text.ddr_write:0000000000000000 .L0 
     /tmp/cc7R4ZW9.s:108    .text.ddr_write:0000000000000000 .L0 
     /tmp/cc7R4ZW9.s:109    .text.ddr_write:0000000000000002 .L0 
     /tmp/cc7R4ZW9.s:112    .text.ddr_write:0000000000000006 .L0 
     /tmp/cc7R4ZW9.s:113    .text.ddr_write:0000000000000006 .L0 
     /tmp/cc7R4ZW9.s:115    .text.ddr_write:0000000000000008 .L0 
     /tmp/cc7R4ZW9.s:125    .text.ddr_write:0000000000000020 .L0 
     /tmp/cc7R4ZW9.s:127    .text.ddr_write:0000000000000024 .L0 
     /tmp/cc7R4ZW9.s:130    .text.ddr_write:000000000000002c .L0 
     /tmp/cc7R4ZW9.s:133    .text.ddr_write:0000000000000034 .L0 
     /tmp/cc7R4ZW9.s:136    .text.ddr_write:000000000000003c .L0 
     /tmp/cc7R4ZW9.s:221    .text.ddr_write:000000000000006c .L0 
     /tmp/cc7R4ZW9.s:223    .text.ddr_write:0000000000000070 .L0 
     /tmp/cc7R4ZW9.s:226    .text.ddr_write:0000000000000072 .L0 
     /tmp/cc7R4ZW9.s:229    .text.ddr_write:0000000000000078 .L0 
     /tmp/cc7R4ZW9.s:232    .text.ddr_write:000000000000007a .L0 
     /tmp/cc7R4ZW9.s:235    .text.ddr_write:0000000000000080 .L0 
     /tmp/cc7R4ZW9.s:239    .text.ddr_write:000000000000008c .L0 
     /tmp/cc7R4ZW9.s:242    .text.ddr_write:000000000000008e .L0 
     /tmp/cc7R4ZW9.s:245    .text.ddr_write:0000000000000098 .L0 
     /tmp/cc7R4ZW9.s:247    .text.ddr_write:000000000000009c .L0 
     /tmp/cc7R4ZW9.s:250    .text.ddr_write:000000000000009e .L0 
     /tmp/cc7R4ZW9.s:254    .text.ddr_write:00000000000000ac .L0 
     /tmp/cc7R4ZW9.s:257    .text.ddr_write:00000000000000ae .L0 
     /tmp/cc7R4ZW9.s:261    .text.ddr_write:00000000000000bc .L0 
     /tmp/cc7R4ZW9.s:264    .text.ddr_write:00000000000000be .L0 
     /tmp/cc7R4ZW9.s:266    .text.ddr_write:00000000000000c2 .L0 
     /tmp/cc7R4ZW9.s:269    .text.ddr_write:00000000000000c4 .L0 
     /tmp/cc7R4ZW9.s:271    .text.ddr_write:00000000000000c8 .L0 
     /tmp/cc7R4ZW9.s:274    .text.ddr_write:00000000000000ca .L0 
     /tmp/cc7R4ZW9.s:276    .text.ddr_write:00000000000000ce .L0 
     /tmp/cc7R4ZW9.s:279    .text.ddr_write:00000000000000d0 .L0 
     /tmp/cc7R4ZW9.s:293    .text.ddr_write:00000000000000f6 .L0 
     /tmp/cc7R4ZW9.s:297    .text.ddr_write:0000000000000102 .L0 
     /tmp/cc7R4ZW9.s:300    .text.ddr_write:000000000000010a .L0 
     /tmp/cc7R4ZW9.s:303    .text.ddr_write:0000000000000112 .L0 
     /tmp/cc7R4ZW9.s:307    .text.ddr_write:000000000000011c .L0 
     /tmp/cc7R4ZW9.s:310    .text.ddr_write:000000000000011e .L0 
     /tmp/cc7R4ZW9.s:316    .text.ddr_write:000000000000012c .L0 
     /tmp/cc7R4ZW9.s:320    .text.ddr_write:0000000000000136 .L0 
     /tmp/cc7R4ZW9.s:323    .text.ddr_write:000000000000013e .L0 
     /tmp/cc7R4ZW9.s:327    .text.ddr_write:0000000000000148 .L0 
     /tmp/cc7R4ZW9.s:330    .text.ddr_write:000000000000014a .L0 
     /tmp/cc7R4ZW9.s:336    .text.ddr_write:0000000000000158 .L0 
     /tmp/cc7R4ZW9.s:339    .text.ddr_write:0000000000000160 .L0 
     /tmp/cc7R4ZW9.s:342    .text.ddr_write:0000000000000166 .L0 
     /tmp/cc7R4ZW9.s:346    .text.ddr_write:0000000000000170 .L0 
     /tmp/cc7R4ZW9.s:349    .text.ddr_write:0000000000000172 .L0 
     /tmp/cc7R4ZW9.s:353    .text.ddr_write:000000000000017c .L0 
     /tmp/cc7R4ZW9.s:357    .text.ddr_write:0000000000000186 .L0 
     /tmp/cc7R4ZW9.s:360    .text.ddr_write:0000000000000188 .L0 
     /tmp/cc7R4ZW9.s:445    .text.ddr_write:00000000000001b8 .L0 
     /tmp/cc7R4ZW9.s:449    .text.ddr_write:00000000000001c2 .L0 
     /tmp/cc7R4ZW9.s:452    .text.ddr_write:00000000000001c4 .L0 
     /tmp/cc7R4ZW9.s:457    .text.ddr_write:00000000000001d0 .L0 
     /tmp/cc7R4ZW9.s:460    .text.ddr_write:00000000000001d6 .L0 
     /tmp/cc7R4ZW9.s:463    .text.ddr_write:00000000000001d8 .L0 
     /tmp/cc7R4ZW9.s:467    .text.ddr_write:00000000000001e2 .L0 
     /tmp/cc7R4ZW9.s:470    .text.ddr_write:00000000000001e4 .L0 
     /tmp/cc7R4ZW9.s:474    .text.ddr_write:00000000000001f0 .L0 
     /tmp/cc7R4ZW9.s:479    .text.ddr_write:00000000000001fc .L0 
     /tmp/cc7R4ZW9.s:484    .text.ddr_write:0000000000000204 .L0 
     /tmp/cc7R4ZW9.s:489    .text.ddr_write:000000000000020e .L0 
     /tmp/cc7R4ZW9.s:493    .text.ddr_write:000000000000021a .L0 
     /tmp/cc7R4ZW9.s:496    .text.ddr_write:000000000000021c .L0 
     /tmp/cc7R4ZW9.s:499    .text.ddr_write:0000000000000226 .L0 
     /tmp/cc7R4ZW9.s:501    .text.ddr_write:000000000000022a .L0 
     /tmp/cc7R4ZW9.s:504    .text.ddr_write:000000000000022c .L0 
     /tmp/cc7R4ZW9.s:508    .text.ddr_write:000000000000023a .L0 
     /tmp/cc7R4ZW9.s:511    .text.ddr_write:000000000000023c .L0 
     /tmp/cc7R4ZW9.s:515    .text.ddr_write:000000000000024a .L0 
     /tmp/cc7R4ZW9.s:518    .text.ddr_write:000000000000024c .L0 
     /tmp/cc7R4ZW9.s:520    .text.ddr_write:0000000000000250 .L0 
     /tmp/cc7R4ZW9.s:523    .text.ddr_write:0000000000000252 .L0 
     /tmp/cc7R4ZW9.s:526    .text.ddr_write:0000000000000254 .L0 
     /tmp/cc7R4ZW9.s:531    .text.ddr_write:000000000000025e .L0 
     /tmp/cc7R4ZW9.s:537    .text.ddr_write:000000000000026e .L0 
     /tmp/cc7R4ZW9.s:539    .text.ddr_write:0000000000000272 .L0 
     /tmp/cc7R4ZW9.s:541    .text.ddr_write:0000000000000276 .L0 
     /tmp/cc7R4ZW9.s:543    .text.ddr_write:0000000000000278 .L0 
     /tmp/cc7R4ZW9.s:544    .text.ddr_write:0000000000000278 .L0 
     /tmp/cc7R4ZW9.s:546    .text.ddr_write:000000000000027a .L0 
     /tmp/cc7R4ZW9.s:548    .text.ddr_write:000000000000027c .L0 
     /tmp/cc7R4ZW9.s:554    .text.ddr_read:0000000000000000 ddr_read
     /tmp/cc7R4ZW9.s:557    .text.ddr_read:0000000000000000 .L0 
     /tmp/cc7R4ZW9.s:558    .text.ddr_read:0000000000000000 .L0 
     /tmp/cc7R4ZW9.s:559    .text.ddr_read:0000000000000002 .L0 
     /tmp/cc7R4ZW9.s:562    .text.ddr_read:0000000000000006 .L0 
     /tmp/cc7R4ZW9.s:563    .text.ddr_read:0000000000000006 .L0 
     /tmp/cc7R4ZW9.s:565    .text.ddr_read:0000000000000008 .L0 
     /tmp/cc7R4ZW9.s:575    .text.ddr_read:0000000000000020 .L0 
     /tmp/cc7R4ZW9.s:577    .text.ddr_read:0000000000000024 .L0 
     /tmp/cc7R4ZW9.s:580    .text.ddr_read:000000000000002c .L0 
     /tmp/cc7R4ZW9.s:583    .text.ddr_read:0000000000000034 .L0 
     /tmp/cc7R4ZW9.s:586    .text.ddr_read:000000000000003c .L0 
     /tmp/cc7R4ZW9.s:589    .text.ddr_read:0000000000000044 .L0 
     /tmp/cc7R4ZW9.s:674    .text.ddr_read:0000000000000074 .L0 
     /tmp/cc7R4ZW9.s:676    .text.ddr_read:0000000000000078 .L0 
     /tmp/cc7R4ZW9.s:679    .text.ddr_read:000000000000007a .L0 
     /tmp/cc7R4ZW9.s:682    .text.ddr_read:0000000000000080 .L0 
     /tmp/cc7R4ZW9.s:685    .text.ddr_read:0000000000000082 .L0 
     /tmp/cc7R4ZW9.s:688    .text.ddr_read:0000000000000088 .L0 
     /tmp/cc7R4ZW9.s:692    .text.ddr_read:0000000000000094 .L0 
     /tmp/cc7R4ZW9.s:695    .text.ddr_read:0000000000000096 .L0 
     /tmp/cc7R4ZW9.s:698    .text.ddr_read:00000000000000a0 .L0 
     /tmp/cc7R4ZW9.s:700    .text.ddr_read:00000000000000a4 .L0 
     /tmp/cc7R4ZW9.s:704    .text.ddr_read:00000000000000ae .L0 
     /tmp/cc7R4ZW9.s:707    .text.ddr_read:00000000000000b6 .L0 
     /tmp/cc7R4ZW9.s:710    .text.ddr_read:00000000000000be .L0 
     /tmp/cc7R4ZW9.s:714    .text.ddr_read:00000000000000c8 .L0 
     /tmp/cc7R4ZW9.s:717    .text.ddr_read:00000000000000d0 .L0 
     /tmp/cc7R4ZW9.s:720    .text.ddr_read:00000000000000d8 .L0 
     /tmp/cc7R4ZW9.s:723    .text.ddr_read:00000000000000de .L0 
     /tmp/cc7R4ZW9.s:726    .text.ddr_read:00000000000000e0 .L0 
     /tmp/cc7R4ZW9.s:730    .text.ddr_read:00000000000000ee .L0 
     /tmp/cc7R4ZW9.s:733    .text.ddr_read:00000000000000f0 .L0 
     /tmp/cc7R4ZW9.s:737    .text.ddr_read:00000000000000fe .L0 
     /tmp/cc7R4ZW9.s:740    .text.ddr_read:0000000000000100 .L0 
     /tmp/cc7R4ZW9.s:742    .text.ddr_read:0000000000000104 .L0 
     /tmp/cc7R4ZW9.s:745    .text.ddr_read:0000000000000106 .L0 
     /tmp/cc7R4ZW9.s:747    .text.ddr_read:000000000000010a .L0 
     /tmp/cc7R4ZW9.s:750    .text.ddr_read:000000000000010c .L0 
     /tmp/cc7R4ZW9.s:755    .text.ddr_read:000000000000011c .L0 
     /tmp/cc7R4ZW9.s:759    .text.ddr_read:0000000000000128 .L0 
     /tmp/cc7R4ZW9.s:761    .text.ddr_read:000000000000012c .L0 
     /tmp/cc7R4ZW9.s:764    .text.ddr_read:000000000000012e .L0 
     /tmp/cc7R4ZW9.s:778    .text.ddr_read:0000000000000154 .L0 
     /tmp/cc7R4ZW9.s:782    .text.ddr_read:0000000000000160 .L0 
     /tmp/cc7R4ZW9.s:785    .text.ddr_read:0000000000000168 .L0 
     /tmp/cc7R4ZW9.s:787    .text.ddr_read:000000000000016c .L0 
     /tmp/cc7R4ZW9.s:790    .text.ddr_read:000000000000016e .L0 
     /tmp/cc7R4ZW9.s:796    .text.ddr_read:000000000000017c .L0 
     /tmp/cc7R4ZW9.s:799    .text.ddr_read:0000000000000184 .L0 
     /tmp/cc7R4ZW9.s:801    .text.ddr_read:0000000000000188 .L0 
     /tmp/cc7R4ZW9.s:804    .text.ddr_read:000000000000018a .L0 
     /tmp/cc7R4ZW9.s:810    .text.ddr_read:0000000000000198 .L0 
     /tmp/cc7R4ZW9.s:815    .text.ddr_read:00000000000001a2 .L0 
     /tmp/cc7R4ZW9.s:817    .text.ddr_read:00000000000001a6 .L0 
     /tmp/cc7R4ZW9.s:820    .text.ddr_read:00000000000001a8 .L0 
     /tmp/cc7R4ZW9.s:823    .text.ddr_read:00000000000001b0 .L0 
     /tmp/cc7R4ZW9.s:826    .text.ddr_read:00000000000001b6 .L0 
     /tmp/cc7R4ZW9.s:828    .text.ddr_read:00000000000001ba .L0 
     /tmp/cc7R4ZW9.s:831    .text.ddr_read:00000000000001bc .L0 
     /tmp/cc7R4ZW9.s:833    .text.ddr_read:00000000000001c0 .L0 
     /tmp/cc7R4ZW9.s:836    .text.ddr_read:00000000000001c8 .L0 
     /tmp/cc7R4ZW9.s:841    .text.ddr_read:00000000000001d2 .L0 
     /tmp/cc7R4ZW9.s:845    .text.ddr_read:00000000000001dc .L0 
     /tmp/cc7R4ZW9.s:849    .text.ddr_read:00000000000001e6 .L0 
     /tmp/cc7R4ZW9.s:853    .text.ddr_read:00000000000001f0 .L0 
     /tmp/cc7R4ZW9.s:857    .text.ddr_read:00000000000001fa .L0 
     /tmp/cc7R4ZW9.s:942    .text.ddr_read:000000000000022a .L0 
     /tmp/cc7R4ZW9.s:946    .text.ddr_read:0000000000000234 .L0 
     /tmp/cc7R4ZW9.s:949    .text.ddr_read:0000000000000236 .L0 
     /tmp/cc7R4ZW9.s:954    .text.ddr_read:0000000000000242 .L0 
     /tmp/cc7R4ZW9.s:957    .text.ddr_read:0000000000000248 .L0 
     /tmp/cc7R4ZW9.s:960    .text.ddr_read:000000000000024a .L0 
     /tmp/cc7R4ZW9.s:964    .text.ddr_read:0000000000000254 .L0 
     /tmp/cc7R4ZW9.s:967    .text.ddr_read:0000000000000256 .L0 
     /tmp/cc7R4ZW9.s:971    .text.ddr_read:0000000000000262 .L0 
     /tmp/cc7R4ZW9.s:976    .text.ddr_read:000000000000026e .L0 
     /tmp/cc7R4ZW9.s:981    .text.ddr_read:0000000000000276 .L0 
     /tmp/cc7R4ZW9.s:986    .text.ddr_read:0000000000000280 .L0 
     /tmp/cc7R4ZW9.s:990    .text.ddr_read:000000000000028c .L0 
     /tmp/cc7R4ZW9.s:993    .text.ddr_read:000000000000028e .L0 
     /tmp/cc7R4ZW9.s:996    .text.ddr_read:0000000000000298 .L0 
     /tmp/cc7R4ZW9.s:998    .text.ddr_read:000000000000029c .L0 
     /tmp/cc7R4ZW9.s:1002   .text.ddr_read:00000000000002a8 .L0 
     /tmp/cc7R4ZW9.s:1008   .text.ddr_read:00000000000002b6 .L0 
     /tmp/cc7R4ZW9.s:1011   .text.ddr_read:00000000000002bc .L0 
     /tmp/cc7R4ZW9.s:1015   .text.ddr_read:00000000000002c6 .L0 
     /tmp/cc7R4ZW9.s:1018   .text.ddr_read:00000000000002cc .L0 
     /tmp/cc7R4ZW9.s:1022   .text.ddr_read:00000000000002d6 .L0 
     /tmp/cc7R4ZW9.s:1025   .text.ddr_read:00000000000002dc .L0 
     /tmp/cc7R4ZW9.s:1029   .text.ddr_read:00000000000002e6 .L0 
     /tmp/cc7R4ZW9.s:1032   .text.ddr_read:00000000000002ec .L0 
     /tmp/cc7R4ZW9.s:1036   .text.ddr_read:00000000000002f6 .L0 
     /tmp/cc7R4ZW9.s:1040   .text.ddr_read:0000000000000300 .L0 
     /tmp/cc7R4ZW9.s:1043   .text.ddr_read:0000000000000308 .L0 
     /tmp/cc7R4ZW9.s:1046   .text.ddr_read:0000000000000310 .L0 
     /tmp/cc7R4ZW9.s:1050   .text.ddr_read:000000000000031a .L0 
     /tmp/cc7R4ZW9.s:1053   .text.ddr_read:0000000000000322 .L0 
     /tmp/cc7R4ZW9.s:1056   .text.ddr_read:000000000000032a .L0 
     /tmp/cc7R4ZW9.s:1059   .text.ddr_read:0000000000000330 .L0 
     /tmp/cc7R4ZW9.s:1062   .text.ddr_read:0000000000000332 .L0 
     /tmp/cc7R4ZW9.s:1066   .text.ddr_read:0000000000000340 .L0 
     /tmp/cc7R4ZW9.s:1069   .text.ddr_read:0000000000000342 .L0 
     /tmp/cc7R4ZW9.s:1073   .text.ddr_read:0000000000000350 .L0 
     /tmp/cc7R4ZW9.s:1076   .text.ddr_read:0000000000000352 .L0 
     /tmp/cc7R4ZW9.s:1078   .text.ddr_read:0000000000000356 .L0 
     /tmp/cc7R4ZW9.s:1081   .text.ddr_read:0000000000000358 .L0 
     /tmp/cc7R4ZW9.s:1084   .text.ddr_read:000000000000035a .L0 
     /tmp/cc7R4ZW9.s:1089   .text.ddr_read:0000000000000364 .L0 
     /tmp/cc7R4ZW9.s:1095   .text.ddr_read:0000000000000374 .L0 
     /tmp/cc7R4ZW9.s:1097   .text.ddr_read:0000000000000378 .L0 
     /tmp/cc7R4ZW9.s:1099   .text.ddr_read:000000000000037c .L0 
     /tmp/cc7R4ZW9.s:1101   .text.ddr_read:000000000000037e .L0 
     /tmp/cc7R4ZW9.s:1102   .text.ddr_read:000000000000037e .L0 
     /tmp/cc7R4ZW9.s:1104   .text.ddr_read:0000000000000380 .L0 
     /tmp/cc7R4ZW9.s:1106   .text.ddr_read:0000000000000382 .L0 
     /tmp/cc7R4ZW9.s:1113   .text.ddr_read_write_fn:0000000000000000 ddr_read_write_fn
     /tmp/cc7R4ZW9.s:1116   .text.ddr_read_write_fn:0000000000000000 .L0 
     /tmp/cc7R4ZW9.s:1117   .text.ddr_read_write_fn:0000000000000000 .L0 
     /tmp/cc7R4ZW9.s:1118   .text.ddr_read_write_fn:0000000000000002 .L0 
     /tmp/cc7R4ZW9.s:1121   .text.ddr_read_write_fn:0000000000000006 .L0 
     /tmp/cc7R4ZW9.s:1122   .text.ddr_read_write_fn:0000000000000006 .L0 
     /tmp/cc7R4ZW9.s:1124   .text.ddr_read_write_fn:0000000000000008 .L0 
     /tmp/cc7R4ZW9.s:1132   .text.ddr_read_write_fn:000000000000001a .L0 
     /tmp/cc7R4ZW9.s:1135   .text.ddr_read_write_fn:000000000000001e .L0 
     /tmp/cc7R4ZW9.s:1137   .text.ddr_read_write_fn:0000000000000022 .L0 
     /tmp/cc7R4ZW9.s:1141   .text.ddr_read_write_fn:0000000000000024 .L0 
     /tmp/cc7R4ZW9.s:1143   .text.ddr_read_write_fn:0000000000000028 .L0 
     /tmp/cc7R4ZW9.s:1146   .text.ddr_read_write_fn:000000000000002a .L0 
     /tmp/cc7R4ZW9.s:1151   .text.ddr_read_write_fn:0000000000000036 .L0 
     /tmp/cc7R4ZW9.s:1153   .text.ddr_read_write_fn:000000000000003a .L0 
     /tmp/cc7R4ZW9.s:1159   .text.ddr_read_write_fn:000000000000004a .L0 
     /tmp/cc7R4ZW9.s:1161   .text.ddr_read_write_fn:000000000000004c .L0 
     /tmp/cc7R4ZW9.s:1171   .text.ddr_read_write_fn:000000000000006a .L0 
     /tmp/cc7R4ZW9.s:1175   .text.ddr_read_write_fn:0000000000000074 .L0 
     /tmp/cc7R4ZW9.s:1185   .text.ddr_read_write_fn:0000000000000092 .L0 
     /tmp/cc7R4ZW9.s:1189   .text.ddr_read_write_fn:000000000000009c .L0 
     /tmp/cc7R4ZW9.s:1199   .text.ddr_read_write_fn:00000000000000ba .L0 
     /tmp/cc7R4ZW9.s:1203   .text.ddr_read_write_fn:00000000000000c4 .L0 
     /tmp/cc7R4ZW9.s:1213   .text.ddr_read_write_fn:00000000000000e2 .L0 
     /tmp/cc7R4ZW9.s:1218   .text.ddr_read_write_fn:00000000000000ec .L0 
     /tmp/cc7R4ZW9.s:1223   .text.ddr_read_write_fn:00000000000000f6 .L0 
     /tmp/cc7R4ZW9.s:1229   .text.ddr_read_write_fn:0000000000000104 .L0 
     /tmp/cc7R4ZW9.s:1233   .text.ddr_read_write_fn:000000000000010e .L0 
     /tmp/cc7R4ZW9.s:1238   .text.ddr_read_write_fn:0000000000000118 .L0 
     /tmp/cc7R4ZW9.s:1243   .text.ddr_read_write_fn:0000000000000120 .L0 
     /tmp/cc7R4ZW9.s:1245   .text.ddr_read_write_fn:0000000000000124 .L0 
     /tmp/cc7R4ZW9.s:1247   .text.ddr_read_write_fn:0000000000000128 .L0 
     /tmp/cc7R4ZW9.s:1249   .text.ddr_read_write_fn:000000000000012a .L0 
     /tmp/cc7R4ZW9.s:1250   .text.ddr_read_write_fn:000000000000012a .L0 
     /tmp/cc7R4ZW9.s:1252   .text.ddr_read_write_fn:000000000000012c .L0 
     /tmp/cc7R4ZW9.s:1254   .text.ddr_read_write_fn:000000000000012e .L0 
     /tmp/cc7R4ZW9.s:1261   .text.load_ddr_pattern:0000000000000000 load_ddr_pattern
     /tmp/cc7R4ZW9.s:1264   .text.load_ddr_pattern:0000000000000000 .L0 
     /tmp/cc7R4ZW9.s:1265   .text.load_ddr_pattern:0000000000000000 .L0 
     /tmp/cc7R4ZW9.s:1266   .text.load_ddr_pattern:0000000000000002 .L0 
     /tmp/cc7R4ZW9.s:1269   .text.load_ddr_pattern:0000000000000006 .L0 
     /tmp/cc7R4ZW9.s:1270   .text.load_ddr_pattern:0000000000000006 .L0 
     /tmp/cc7R4ZW9.s:1272   .text.load_ddr_pattern:0000000000000008 .L0 
     /tmp/cc7R4ZW9.s:1280   .text.load_ddr_pattern:000000000000001a .L0 
     /tmp/cc7R4ZW9.s:1282   .text.load_ddr_pattern:000000000000001e .L0 
     /tmp/cc7R4ZW9.s:1285   .text.load_ddr_pattern:0000000000000026 .L0 
     /tmp/cc7R4ZW9.s:1288   .text.load_ddr_pattern:000000000000002c .L0 
     /tmp/cc7R4ZW9.s:1293   .text.load_ddr_pattern:000000000000003a .L0 
     /tmp/cc7R4ZW9.s:1296   .text.load_ddr_pattern:000000000000003c .L0 
     /tmp/cc7R4ZW9.s:1298   .text.load_ddr_pattern:0000000000000040 .L0 
     /tmp/cc7R4ZW9.s:1300   .text.load_ddr_pattern:0000000000000042 .L0 
     /tmp/cc7R4ZW9.s:1325   .text.load_ddr_pattern:0000000000000068 .L0 
     /tmp/cc7R4ZW9.s:1328   .text.load_ddr_pattern:0000000000000074 .L0 
     /tmp/cc7R4ZW9.s:1336   .text.load_ddr_pattern:0000000000000094 .L0 
     /tmp/cc7R4ZW9.s:1339   .text.load_ddr_pattern:0000000000000096 .L0 
     /tmp/cc7R4ZW9.s:1342   .text.load_ddr_pattern:00000000000000a2 .L0 
     /tmp/cc7R4ZW9.s:1350   .text.load_ddr_pattern:00000000000000c2 .L0 
     /tmp/cc7R4ZW9.s:1353   .text.load_ddr_pattern:00000000000000c4 .L0 
     /tmp/cc7R4ZW9.s:1356   .text.load_ddr_pattern:00000000000000d0 .L0 
     /tmp/cc7R4ZW9.s:1364   .text.load_ddr_pattern:00000000000000f0 .L0 
     /tmp/cc7R4ZW9.s:1367   .text.load_ddr_pattern:00000000000000f2 .L0 
     /tmp/cc7R4ZW9.s:1370   .text.load_ddr_pattern:00000000000000fe .L0 
     /tmp/cc7R4ZW9.s:1378   .text.load_ddr_pattern:000000000000011e .L0 
     /tmp/cc7R4ZW9.s:1381   .text.load_ddr_pattern:0000000000000120 .L0 
     /tmp/cc7R4ZW9.s:1383   .text.load_ddr_pattern:0000000000000124 .L0 
     /tmp/cc7R4ZW9.s:1387   .text.load_ddr_pattern:000000000000012e .L0 
     /tmp/cc7R4ZW9.s:1391   .text.load_ddr_pattern:0000000000000138 .L0 
     /tmp/cc7R4ZW9.s:1396   .text.load_ddr_pattern:0000000000000148 .L0 
     /tmp/cc7R4ZW9.s:1399   .text.load_ddr_pattern:000000000000014c .L0 
     /tmp/cc7R4ZW9.s:1401   .text.load_ddr_pattern:0000000000000150 .L0 
     /tmp/cc7R4ZW9.s:1403   .text.load_ddr_pattern:0000000000000154 .L0 
     /tmp/cc7R4ZW9.s:1405   .text.load_ddr_pattern:0000000000000156 .L0 
     /tmp/cc7R4ZW9.s:1409   .text.load_ddr_pattern:0000000000000160 .L0 
     /tmp/cc7R4ZW9.s:1411   .text.load_ddr_pattern:0000000000000164 .L0 
     /tmp/cc7R4ZW9.s:1414   .text.load_ddr_pattern:0000000000000170 .L0 
     /tmp/cc7R4ZW9.s:1417   .text.load_ddr_pattern:000000000000017c .L0 
     /tmp/cc7R4ZW9.s:1420   .text.load_ddr_pattern:0000000000000188 .L0 
     /tmp/cc7R4ZW9.s:1423   .text.load_ddr_pattern:0000000000000194 .L0 
     /tmp/cc7R4ZW9.s:1425   .text.load_ddr_pattern:0000000000000198 .L0 
     /tmp/cc7R4ZW9.s:1427   .text.load_ddr_pattern:000000000000019a .L0 
     /tmp/cc7R4ZW9.s:1428   .text.load_ddr_pattern:000000000000019a .L0 
     /tmp/cc7R4ZW9.s:1430   .text.load_ddr_pattern:000000000000019c .L0 
     /tmp/cc7R4ZW9.s:1432   .text.load_ddr_pattern:000000000000019e .L0 
     /tmp/cc7R4ZW9.s:1439   .text.execute_ddr_pattern:0000000000000000 execute_ddr_pattern
     /tmp/cc7R4ZW9.s:1442   .text.execute_ddr_pattern:0000000000000000 .L0 
     /tmp/cc7R4ZW9.s:1443   .text.execute_ddr_pattern:0000000000000000 .L0 
     /tmp/cc7R4ZW9.s:1444   .text.execute_ddr_pattern:0000000000000002 .L0 
     /tmp/cc7R4ZW9.s:1447   .text.execute_ddr_pattern:0000000000000006 .L0 
     /tmp/cc7R4ZW9.s:1448   .text.execute_ddr_pattern:0000000000000006 .L0 
     /tmp/cc7R4ZW9.s:1450   .text.execute_ddr_pattern:0000000000000008 .L0 
     /tmp/cc7R4ZW9.s:1453   .text.execute_ddr_pattern:000000000000000c .L0 
     /tmp/cc7R4ZW9.s:1456   .text.execute_ddr_pattern:0000000000000014 .L0 
     /tmp/cc7R4ZW9.s:1460   .text.execute_ddr_pattern:000000000000001a .L0 
     /tmp/cc7R4ZW9.s:1462   .text.execute_ddr_pattern:000000000000001e .L0 
     /tmp/cc7R4ZW9.s:1464   .text.execute_ddr_pattern:0000000000000020 .L0 
     /tmp/cc7R4ZW9.s:1465   .text.execute_ddr_pattern:0000000000000020 .L0 
     /tmp/cc7R4ZW9.s:1467   .text.execute_ddr_pattern:0000000000000022 .L0 
     /tmp/cc7R4ZW9.s:1469   .text.execute_ddr_pattern:0000000000000024 .L0 
     /tmp/cc7R4ZW9.s:1475   .text.load_test_buffers:0000000000000000 load_test_buffers
     /tmp/cc7R4ZW9.s:1478   .text.load_test_buffers:0000000000000000 .L0 
     /tmp/cc7R4ZW9.s:1479   .text.load_test_buffers:0000000000000000 .L0 
     /tmp/cc7R4ZW9.s:1480   .text.load_test_buffers:0000000000000002 .L0 
     /tmp/cc7R4ZW9.s:1483   .text.load_test_buffers:0000000000000006 .L0 
     /tmp/cc7R4ZW9.s:1484   .text.load_test_buffers:0000000000000006 .L0 
     /tmp/cc7R4ZW9.s:1486   .text.load_test_buffers:0000000000000008 .L0 
     /tmp/cc7R4ZW9.s:1491   .text.load_test_buffers:0000000000000014 .L0 
     /tmp/cc7R4ZW9.s:1499   .text.load_test_buffers:0000000000000034 .L0 
     /tmp/cc7R4ZW9.s:1507   .text.load_test_buffers:0000000000000054 .L0 
     /tmp/cc7R4ZW9.s:1510   .text.load_test_buffers:0000000000000060 .L0 
     /tmp/cc7R4ZW9.s:1513   .text.load_test_buffers:000000000000006c .L0 
     /tmp/cc7R4ZW9.s:1515   .text.load_test_buffers:0000000000000070 .L0 
     /tmp/cc7R4ZW9.s:1517   .text.load_test_buffers:0000000000000072 .L0 
     /tmp/cc7R4ZW9.s:1518   .text.load_test_buffers:0000000000000072 .L0 
     /tmp/cc7R4ZW9.s:1520   .text.load_test_buffers:0000000000000074 .L0 
     /tmp/cc7R4ZW9.s:1522   .text.load_test_buffers:0000000000000076 .L0 
     /tmp/cc7R4ZW9.s:1529   .text.test_ddr:0000000000000000 test_ddr
     /tmp/cc7R4ZW9.s:1532   .text.test_ddr:0000000000000000 .L0 
     /tmp/cc7R4ZW9.s:1533   .text.test_ddr:0000000000000000 .L0 
     /tmp/cc7R4ZW9.s:1534   .text.test_ddr:0000000000000002 .L0 
     /tmp/cc7R4ZW9.s:1537   .text.test_ddr:0000000000000006 .L0 
     /tmp/cc7R4ZW9.s:1538   .text.test_ddr:0000000000000006 .L0 
     /tmp/cc7R4ZW9.s:1540   .text.test_ddr:0000000000000008 .L0 
     /tmp/cc7R4ZW9.s:1547   .text.test_ddr:0000000000000016 .L0 
     /tmp/cc7R4ZW9.s:1551   .text.test_ddr:0000000000000020 .L0 
     /tmp/cc7R4ZW9.s:1555   .text.test_ddr:0000000000000028 .L0 
     /tmp/cc7R4ZW9.s:1559   .text.test_ddr:0000000000000030 .L0 
     /tmp/cc7R4ZW9.s:1561   .text.test_ddr:0000000000000034 .L0 
     /tmp/cc7R4ZW9.s:1563   .text.test_ddr:0000000000000038 .L0 
     /tmp/cc7R4ZW9.s:1565   .text.test_ddr:000000000000003c .L0 
     /tmp/cc7R4ZW9.s:1567   .text.test_ddr:0000000000000040 .L0 
     /tmp/cc7R4ZW9.s:1571   .text.test_ddr:0000000000000042 .L0 
     /tmp/cc7R4ZW9.s:1573   .text.test_ddr:0000000000000046 .L0 
     /tmp/cc7R4ZW9.s:1579   .text.test_ddr:000000000000005c .L0 
     /tmp/cc7R4ZW9.s:1587   .text.test_ddr:0000000000000080 .L0 
     /tmp/cc7R4ZW9.s:1591   .text.test_ddr:0000000000000088 .L0 
     /tmp/cc7R4ZW9.s:1593   .text.test_ddr:000000000000008c .L0 
     /tmp/cc7R4ZW9.s:1596   .text.test_ddr:000000000000008e .L0 
     /tmp/cc7R4ZW9.s:1602   .text.test_ddr:00000000000000a0 .L0 
     /tmp/cc7R4ZW9.s:1608   .text.test_ddr:00000000000000b2 .L0 
     /tmp/cc7R4ZW9.s:1611   .text.test_ddr:00000000000000b8 .L0 
     /tmp/cc7R4ZW9.s:1616   .text.test_ddr:00000000000000c2 .L0 
     /tmp/cc7R4ZW9.s:1620   .text.test_ddr:00000000000000ce .L0 
     /tmp/cc7R4ZW9.s:1626   .text.test_ddr:00000000000000da .L0 
     /tmp/cc7R4ZW9.s:1629   .text.test_ddr:00000000000000dc .L0 
     /tmp/cc7R4ZW9.s:1632   .text.test_ddr:00000000000000e2 .L0 
     /tmp/cc7R4ZW9.s:1636   .text.test_ddr:00000000000000e8 .L0 
     /tmp/cc7R4ZW9.s:1642   .text.test_ddr:00000000000000f8 .L0 
     /tmp/cc7R4ZW9.s:1644   .text.test_ddr:00000000000000fc .L0 
     /tmp/cc7R4ZW9.s:1646   .text.test_ddr:00000000000000fe .L0 
     /tmp/cc7R4ZW9.s:1653   .text.test_ddr:000000000000010e .L0 
     /tmp/cc7R4ZW9.s:1655   .text.test_ddr:0000000000000112 .L0 
     /tmp/cc7R4ZW9.s:1661   .text.test_ddr:0000000000000120 .L0 
     /tmp/cc7R4ZW9.s:1666   .text.test_ddr:000000000000012c .L0 
     /tmp/cc7R4ZW9.s:1672   .text.test_ddr:000000000000013a .L0 
     /tmp/cc7R4ZW9.s:1679   .text.test_ddr:0000000000000148 .L0 
     /tmp/cc7R4ZW9.s:1683   .text.test_ddr:0000000000000150 .L0 
     /tmp/cc7R4ZW9.s:1687   .text.test_ddr:0000000000000158 .L0 
     /tmp/cc7R4ZW9.s:1692   .text.test_ddr:0000000000000162 .L0 
     /tmp/cc7R4ZW9.s:1696   .text.test_ddr:000000000000016c .L0 
     /tmp/cc7R4ZW9.s:1702   .text.test_ddr:000000000000017e .L0 
     /tmp/cc7R4ZW9.s:1704   .text.test_ddr:0000000000000182 .L0 
     /tmp/cc7R4ZW9.s:1708   .text.test_ddr:000000000000018c .L0 
     /tmp/cc7R4ZW9.s:1713   .text.test_ddr:000000000000019a .L0 
     /tmp/cc7R4ZW9.s:1716   .text.test_ddr:000000000000019e .L0 
     /tmp/cc7R4ZW9.s:1719   .text.test_ddr:00000000000001a8 .L0 
     /tmp/cc7R4ZW9.s:1722   .text.test_ddr:00000000000001ae .L0 
     /tmp/cc7R4ZW9.s:1727   .text.test_ddr:00000000000001b4 .L0 
     /tmp/cc7R4ZW9.s:1733   .text.test_ddr:00000000000001c4 .L0 
     /tmp/cc7R4ZW9.s:1736   .text.test_ddr:00000000000001c8 .L0 
     /tmp/cc7R4ZW9.s:1738   .text.test_ddr:00000000000001cc .L0 
     /tmp/cc7R4ZW9.s:1740   .text.test_ddr:00000000000001ce .L0 
     /tmp/cc7R4ZW9.s:1741   .text.test_ddr:00000000000001ce .L0 
     /tmp/cc7R4ZW9.s:1743   .text.test_ddr:00000000000001d0 .L0 
     /tmp/cc7R4ZW9.s:1745   .text.test_ddr:00000000000001d2 .L0 
     /tmp/cc7R4ZW9.s:69     .text.delay:0000000000000040 .L0 
     /tmp/cc7R4ZW9.s:551    .text.ddr_write:000000000000027c .L0 
     /tmp/cc7R4ZW9.s:1109   .text.ddr_read:0000000000000382 .L0 
     /tmp/cc7R4ZW9.s:1257   .text.ddr_read_write_fn:000000000000012e .L0 
     /tmp/cc7R4ZW9.s:1435   .text.load_ddr_pattern:000000000000019e .L0 
     /tmp/cc7R4ZW9.s:1472   .text.execute_ddr_pattern:0000000000000024 .L0 
     /tmp/cc7R4ZW9.s:1525   .text.load_test_buffers:0000000000000076 .L0 
     /tmp/cc7R4ZW9.s:1748   .text.test_ddr:00000000000001d2 .L0 
                     .debug_frame:0000000000000000 .L0 
     /tmp/cc7R4ZW9.s:42     .text.delay:0000000000000024 .L2
     /tmp/cc7R4ZW9.s:71     .rodata:0000000000000000 .LC0
     /tmp/cc7R4ZW9.s:74     .rodata:0000000000000008 .LC1
     /tmp/cc7R4ZW9.s:77     .rodata:0000000000000010 .LC2
     /tmp/cc7R4ZW9.s:152    .rodata.ddr_write:0000000000000000 .L6
     /tmp/cc7R4ZW9.s:142    .text.ddr_write:0000000000000050 .L0 
     /tmp/cc7R4ZW9.s:146    .text.ddr_write:0000000000000060 .L0 
     /tmp/cc7R4ZW9.s:1750   .rodata:0000000000000018 .LC3
     /tmp/cc7R4ZW9.s:250    .text.ddr_write:000000000000009e .L0 
     /tmp/cc7R4ZW9.s:1753   .rodata:0000000000000020 .LC4
     /tmp/cc7R4ZW9.s:257    .text.ddr_write:00000000000000ae .L0 
     /tmp/cc7R4ZW9.s:376    .rodata.ddr_write:0000000000000104 .L22
     /tmp/cc7R4ZW9.s:366    .text.ddr_write:000000000000019c .L0 
     /tmp/cc7R4ZW9.s:370    .text.ddr_write:00000000000001ac .L0 
     /tmp/cc7R4ZW9.s:504    .text.ddr_write:000000000000022c .L0 
     /tmp/cc7R4ZW9.s:511    .text.ddr_write:000000000000023c .L0 
     /tmp/cc7R4ZW9.s:267    .text.ddr_write:00000000000000c4 .L4
     /tmp/cc7R4ZW9.s:272    .text.ddr_write:00000000000000ca .L13
     /tmp/cc7R4ZW9.s:529    .text.ddr_write:000000000000025e .L14
     /tmp/cc7R4ZW9.s:308    .text.ddr_write:000000000000011e .L15
     /tmp/cc7R4ZW9.s:291    .text.ddr_write:00000000000000f6 .L16
     /tmp/cc7R4ZW9.s:328    .text.ddr_write:000000000000014a .L17
     /tmp/cc7R4ZW9.s:347    .text.ddr_write:0000000000000172 .L36
     /tmp/cc7R4ZW9.s:358    .text.ddr_write:0000000000000188 .L19
     /tmp/cc7R4ZW9.s:521    .text.ddr_write:0000000000000252 .L37
     /tmp/cc7R4ZW9.s:524    .text.ddr_write:0000000000000254 .L29
     /tmp/cc7R4ZW9.s:461    .text.ddr_write:00000000000001d8 .L30
     /tmp/cc7R4ZW9.s:482    .text.ddr_write:0000000000000204 .L32
     /tmp/cc7R4ZW9.s:487    .text.ddr_write:000000000000020e .L33
     /tmp/cc7R4ZW9.s:277    .text.ddr_write:00000000000000d0 .L34
     /tmp/cc7R4ZW9.s:219    .text.ddr_write:000000000000006c .L12
     /tmp/cc7R4ZW9.s:224    .text.ddr_write:0000000000000072 .L11
     /tmp/cc7R4ZW9.s:230    .text.ddr_write:000000000000007a .L10
     /tmp/cc7R4ZW9.s:240    .text.ddr_write:000000000000008e .L9
     /tmp/cc7R4ZW9.s:248    .text.ddr_write:000000000000009e .L8
     /tmp/cc7R4ZW9.s:255    .text.ddr_write:00000000000000ae .L7
     /tmp/cc7R4ZW9.s:262    .text.ddr_write:00000000000000be .L5
     /tmp/cc7R4ZW9.s:443    .text.ddr_write:00000000000001b8 .L28
     /tmp/cc7R4ZW9.s:450    .text.ddr_write:00000000000001c4 .L27
     /tmp/cc7R4ZW9.s:468    .text.ddr_write:00000000000001e4 .L26
     /tmp/cc7R4ZW9.s:494    .text.ddr_write:000000000000021c .L25
     /tmp/cc7R4ZW9.s:502    .text.ddr_write:000000000000022c .L24
     /tmp/cc7R4ZW9.s:509    .text.ddr_write:000000000000023c .L23
     /tmp/cc7R4ZW9.s:516    .text.ddr_write:000000000000024c .L21
     /tmp/cc7R4ZW9.s:605    .rodata.ddr_read:0000000000000000 .L41
     /tmp/cc7R4ZW9.s:595    .text.ddr_read:0000000000000058 .L0 
     /tmp/cc7R4ZW9.s:599    .text.ddr_read:0000000000000068 .L0 
     /tmp/cc7R4ZW9.s:726    .text.ddr_read:00000000000000e0 .L0 
     /tmp/cc7R4ZW9.s:733    .text.ddr_read:00000000000000f0 .L0 
     /tmp/cc7R4ZW9.s:873    .rodata.ddr_read:0000000000000104 .L59
     /tmp/cc7R4ZW9.s:863    .text.ddr_read:000000000000020e .L0 
     /tmp/cc7R4ZW9.s:867    .text.ddr_read:000000000000021e .L0 
     /tmp/cc7R4ZW9.s:1062   .text.ddr_read:0000000000000332 .L0 
     /tmp/cc7R4ZW9.s:1069   .text.ddr_read:0000000000000342 .L0 
     /tmp/cc7R4ZW9.s:743    .text.ddr_read:0000000000000106 .L39
     /tmp/cc7R4ZW9.s:748    .text.ddr_read:000000000000010c .L48
     /tmp/cc7R4ZW9.s:757    .text.ddr_read:0000000000000128 .L49
     /tmp/cc7R4ZW9.s:1087   .text.ddr_read:0000000000000364 .L50
     /tmp/cc7R4ZW9.s:788    .text.ddr_read:000000000000016e .L51
     /tmp/cc7R4ZW9.s:776    .text.ddr_read:0000000000000154 .L52
     /tmp/cc7R4ZW9.s:802    .text.ddr_read:000000000000018a .L53
     /tmp/cc7R4ZW9.s:818    .text.ddr_read:00000000000001a8 .L73
     /tmp/cc7R4ZW9.s:829    .text.ddr_read:00000000000001bc .L55
     /tmp/cc7R4ZW9.s:839    .text.ddr_read:00000000000001d2 .L56
     /tmp/cc7R4ZW9.s:1079   .text.ddr_read:0000000000000358 .L74
     /tmp/cc7R4ZW9.s:1082   .text.ddr_read:000000000000035a .L66
     /tmp/cc7R4ZW9.s:958    .text.ddr_read:000000000000024a .L67
     /tmp/cc7R4ZW9.s:979    .text.ddr_read:0000000000000276 .L69
     /tmp/cc7R4ZW9.s:984    .text.ddr_read:0000000000000280 .L70
     /tmp/cc7R4ZW9.s:762    .text.ddr_read:000000000000012e .L71
     /tmp/cc7R4ZW9.s:672    .text.ddr_read:0000000000000074 .L47
     /tmp/cc7R4ZW9.s:677    .text.ddr_read:000000000000007a .L46
     /tmp/cc7R4ZW9.s:683    .text.ddr_read:0000000000000082 .L45
     /tmp/cc7R4ZW9.s:693    .text.ddr_read:0000000000000096 .L44
     /tmp/cc7R4ZW9.s:724    .text.ddr_read:00000000000000e0 .L43
     /tmp/cc7R4ZW9.s:731    .text.ddr_read:00000000000000f0 .L42
     /tmp/cc7R4ZW9.s:738    .text.ddr_read:0000000000000100 .L40
     /tmp/cc7R4ZW9.s:940    .text.ddr_read:000000000000022a .L65
     /tmp/cc7R4ZW9.s:947    .text.ddr_read:0000000000000236 .L64
     /tmp/cc7R4ZW9.s:965    .text.ddr_read:0000000000000256 .L63
     /tmp/cc7R4ZW9.s:991    .text.ddr_read:000000000000028e .L62
     /tmp/cc7R4ZW9.s:1060   .text.ddr_read:0000000000000332 .L61
     /tmp/cc7R4ZW9.s:1067   .text.ddr_read:0000000000000342 .L60
     /tmp/cc7R4ZW9.s:1074   .text.ddr_read:0000000000000352 .L58
     /tmp/cc7R4ZW9.s:1236   .text.ddr_read_write_fn:0000000000000118 .L76
     /tmp/cc7R4ZW9.s:1221   .text.ddr_read_write_fn:00000000000000f6 .L77
     /tmp/cc7R4ZW9.s:1216   .text.ddr_read_write_fn:00000000000000ec .L78
     /tmp/cc7R4ZW9.s:1144   .text.ddr_read_write_fn:000000000000002a .L79
     /tmp/cc7R4ZW9.s:1138   .text.ddr_read_write_fn:0000000000000024 .L80
     /tmp/cc7R4ZW9.s:1313   .rodata.load_ddr_pattern:0000000000000000 .L86
     /tmp/cc7R4ZW9.s:1303   .text.load_ddr_pattern:000000000000004c .L0 
     /tmp/cc7R4ZW9.s:1307   .text.load_ddr_pattern:000000000000005c .L0 
     /tmp/cc7R4ZW9.s:1329   .text.load_ddr_pattern:0000000000000078 .L0 
     /tmp/cc7R4ZW9.s:1343   .text.load_ddr_pattern:00000000000000a6 .L0 
     /tmp/cc7R4ZW9.s:1357   .text.load_ddr_pattern:00000000000000d4 .L0 
     /tmp/cc7R4ZW9.s:1371   .text.load_ddr_pattern:0000000000000102 .L0 
     /tmp/cc7R4ZW9.s:1397   .text.load_ddr_pattern:000000000000014c .L83
     /tmp/cc7R4ZW9.s:1379   .text.load_ddr_pattern:0000000000000120 .L84
     /tmp/cc7R4ZW9.s:1294   .text.load_ddr_pattern:000000000000003c .L90
     /tmp/cc7R4ZW9.s:1323   .text.load_ddr_pattern:0000000000000068 .L89
     /tmp/cc7R4ZW9.s:1337   .text.load_ddr_pattern:0000000000000096 .L88
     /tmp/cc7R4ZW9.s:1351   .text.load_ddr_pattern:00000000000000c4 .L87
     /tmp/cc7R4ZW9.s:1365   .text.load_ddr_pattern:00000000000000f2 .L85
     /tmp/cc7R4ZW9.s:1491   .text.load_test_buffers:0000000000000014 .L0 
     /tmp/cc7R4ZW9.s:1499   .text.load_test_buffers:0000000000000034 .L0 
     /tmp/cc7R4ZW9.s:1581   .text.test_ddr:0000000000000062 .L0 
     /tmp/cc7R4ZW9.s:1582   .text.test_ddr:000000000000006a .L0 
     /tmp/cc7R4ZW9.s:1596   .text.test_ddr:000000000000008e .L0 
     /tmp/cc7R4ZW9.s:1602   .text.test_ddr:00000000000000a0 .L0 
     /tmp/cc7R4ZW9.s:1716   .text.test_ddr:000000000000019e .L0 
     /tmp/cc7R4ZW9.s:1724   .text.test_ddr:00000000000001b4 .L94
     /tmp/cc7R4ZW9.s:1634   .text.test_ddr:00000000000000e8 .L95
     /tmp/cc7R4ZW9.s:1614   .text.test_ddr:00000000000000c2 .L96
     /tmp/cc7R4ZW9.s:1624   .text.test_ddr:00000000000000da .L105
     /tmp/cc7R4ZW9.s:1594   .text.test_ddr:000000000000008e .L99
     /tmp/cc7R4ZW9.s:1627   .text.test_ddr:00000000000000dc .L98
     /tmp/cc7R4ZW9.s:1734   .text.test_ddr:00000000000001c8 .L100
     /tmp/cc7R4ZW9.s:1677   .text.test_ddr:0000000000000148 .L101
     /tmp/cc7R4ZW9.s:1690   .text.test_ddr:0000000000000162 .L102
     /tmp/cc7R4ZW9.s:1714   .text.test_ddr:000000000000019e .L103
     /tmp/cc7R4ZW9.s:1568   .text.test_ddr:0000000000000042 .L104
     /tmp/cc7R4ZW9.s:69693  .debug_abbrev:0000000000000000 .Ldebug_abbrev0
     /tmp/cc7R4ZW9.s:99236  .debug_str:0000000000024c2e .LASF9707
     /tmp/cc7R4ZW9.s:103620  .debug_str:00000000000367dd .LASF9708
     /tmp/cc7R4ZW9.s:109668  .debug_str:000000000004fa8a .LASF9709
     /tmp/cc7R4ZW9.s:70714  .debug_ranges:0000000000000000 .Ldebug_ranges0
     /tmp/cc7R4ZW9.s:90362  .debug_line:0000000000000000 .Ldebug_line0
     /tmp/cc7R4ZW9.s:70734  .debug_macro:0000000000000000 .Ldebug_macro0
     /tmp/cc7R4ZW9.s:107670  .debug_str:0000000000047359 .LASF6056
     /tmp/cc7R4ZW9.s:91500  .debug_str:0000000000004e99 .LASF6059
     /tmp/cc7R4ZW9.s:95190  .debug_str:0000000000013c41 .LASF6057
     /tmp/cc7R4ZW9.s:105850  .debug_str:000000000003f653 .LASF6058
     /tmp/cc7R4ZW9.s:106250  .debug_str:0000000000041175 .LASF6060
     /tmp/cc7R4ZW9.s:101876  .debug_str:000000000002f2bd .LASF6061
     /tmp/cc7R4ZW9.s:98956  .debug_str:0000000000023a48 .LASF6062
     /tmp/cc7R4ZW9.s:91122  .debug_str:00000000000034d1 .LASF6063
     /tmp/cc7R4ZW9.s:108120  .debug_str:000000000004910c .LASF6064
     /tmp/cc7R4ZW9.s:91714  .debug_str:0000000000005c55 .LASF6065
     /tmp/cc7R4ZW9.s:96500  .debug_str:0000000000018fab .LASF6066
     /tmp/cc7R4ZW9.s:109620  .debug_str:000000000004f6e2 .LASF6067
     /tmp/cc7R4ZW9.s:102586  .debug_str:000000000003203a .LASF6068
     /tmp/cc7R4ZW9.s:101622  .debug_str:000000000002e1d8 .LASF6069
     /tmp/cc7R4ZW9.s:94656  .debug_str:000000000001184e .LASF6070
     /tmp/cc7R4ZW9.s:91044  .debug_str:0000000000002fc8 .LASF6071
     /tmp/cc7R4ZW9.s:91682  .debug_str:0000000000005a78 .LASF6072
     /tmp/cc7R4ZW9.s:103140  .debug_str:000000000003461e .LASF6073
     /tmp/cc7R4ZW9.s:103530  .debug_str:00000000000361ac .LASF6074
     /tmp/cc7R4ZW9.s:104056  .debug_str:00000000000383ab .LASF6075
     /tmp/cc7R4ZW9.s:108992  .debug_str:000000000004cbe5 .LASF6076
     /tmp/cc7R4ZW9.s:103114  .debug_str:0000000000034451 .LASF6077
     /tmp/cc7R4ZW9.s:101464  .debug_str:000000000002d77d .LASF6078
     /tmp/cc7R4ZW9.s:91674  .debug_str:00000000000059d6 .LASF6079
     /tmp/cc7R4ZW9.s:96256  .debug_str:00000000000180ea .LASF6080
     /tmp/cc7R4ZW9.s:96418  .debug_str:0000000000018a85 .LASF6085
     /tmp/cc7R4ZW9.s:108454  .debug_str:000000000004a659 .LASF6081
     /tmp/cc7R4ZW9.s:90480  .debug_str:0000000000000829 .LASF6082
     /tmp/cc7R4ZW9.s:105196  .debug_str:000000000003cabf .LASF6083
     /tmp/cc7R4ZW9.s:92450  .debug_str:0000000000008eac .LASF6084
     /tmp/cc7R4ZW9.s:102120  .debug_str:00000000000302e5 .LASF6086
     /tmp/cc7R4ZW9.s:93596  .debug_str:000000000000dcc7 .LASF6087
     /tmp/cc7R4ZW9.s:101040  .debug_str:000000000002bd77 .LASF6088
     /tmp/cc7R4ZW9.s:108232  .debug_str:0000000000049897 .LASF6089
     /tmp/cc7R4ZW9.s:102614  .debug_str:0000000000032221 .LASF6090
     /tmp/cc7R4ZW9.s:98924  .debug_str:0000000000023819 .LASF6091
     /tmp/cc7R4ZW9.s:94736  .debug_str:0000000000011dca .LASF6092
     /tmp/cc7R4ZW9.s:98420  .debug_str:0000000000021627 .LASF6093
     /tmp/cc7R4ZW9.s:108850  .debug_str:000000000004c257 .LASF6094
     /tmp/cc7R4ZW9.s:91464  .debug_str:0000000000004c05 .LASF6095
     /tmp/cc7R4ZW9.s:105660  .debug_str:000000000003eaa0 .LASF6096
     /tmp/cc7R4ZW9.s:90980  .debug_str:0000000000002b67 .LASF6097
     /tmp/cc7R4ZW9.s:94114  .debug_str:000000000000f8c7 .LASF6098
     /tmp/cc7R4ZW9.s:105130  .debug_str:000000000003c6b8 .LASF6099
     /tmp/cc7R4ZW9.s:101158  .debug_str:000000000002c51f .LASF6100
     /tmp/cc7R4ZW9.s:92502  .debug_str:00000000000091d9 .LASF6101
     /tmp/cc7R4ZW9.s:96506  .debug_str:0000000000019009 .LASF6102
     /tmp/cc7R4ZW9.s:100006  .debug_str:0000000000027aa9 .LASF6103
     /tmp/cc7R4ZW9.s:101132  .debug_str:000000000002c3b2 .LASF6104
     /tmp/cc7R4ZW9.s:101148  .debug_str:000000000002c49f .LASF6105
     /tmp/cc7R4ZW9.s:99862  .debug_str:0000000000027194 .LASF6106
     /tmp/cc7R4ZW9.s:106638  .debug_str:0000000000042f63 .LASF6107
     /tmp/cc7R4ZW9.s:103300  .debug_str:00000000000350df .LASF6108
     /tmp/cc7R4ZW9.s:105216  .debug_str:000000000003cc14 .LASF6109
     /tmp/cc7R4ZW9.s:99578  .debug_str:0000000000025f36 .LASF6110
     /tmp/cc7R4ZW9.s:91384  .debug_str:0000000000004654 .LASF6111
     /tmp/cc7R4ZW9.s:94454  .debug_str:0000000000010bb1 .LASF6112
     /tmp/cc7R4ZW9.s:93926  .debug_str:000000000000ede7 .LASF6113
     /tmp/cc7R4ZW9.s:99258  .debug_str:0000000000024e2b .LASF6114
     /tmp/cc7R4ZW9.s:99116  .debug_str:00000000000244fc .LASF6115
     /tmp/cc7R4ZW9.s:103586  .debug_str:00000000000365b9 .LASF6116
     /tmp/cc7R4ZW9.s:108326  .debug_str:0000000000049f05 .LASF6117
     /tmp/cc7R4ZW9.s:96504  .debug_str:0000000000019004 .LASF6118
     /tmp/cc7R4ZW9.s:103054  .debug_str:00000000000340bf .LASF6119
     /tmp/cc7R4ZW9.s:104642  .debug_str:000000000003a451 .LASF6120
     /tmp/cc7R4ZW9.s:94764  .debug_str:0000000000011f79 .LASF6121
     /tmp/cc7R4ZW9.s:97756  .debug_str:000000000001e806 .LASF6122
     /tmp/cc7R4ZW9.s:97162  .debug_str:000000000001bda2 .LASF6123
     /tmp/cc7R4ZW9.s:103814  .debug_str:00000000000374d0 .LASF6124
     /tmp/cc7R4ZW9.s:107666  .debug_str:0000000000047335 .LASF6125
     /tmp/cc7R4ZW9.s:108814  .debug_str:000000000004bfb5 .LASF6126
     /tmp/cc7R4ZW9.s:100988  .debug_str:000000000002bb2b .LASF6127
     /tmp/cc7R4ZW9.s:106800  .debug_str:0000000000043aba .LASF6128
     /tmp/cc7R4ZW9.s:100242  .debug_str:0000000000028ab6 .LASF6129
     /tmp/cc7R4ZW9.s:105828  .debug_str:000000000003f4eb .LASF6130
     /tmp/cc7R4ZW9.s:91626  .debug_str:000000000000569b .LASF6131
     /tmp/cc7R4ZW9.s:102044  .debug_str:000000000002fdde .LASF6132
     /tmp/cc7R4ZW9.s:103012  .debug_str:0000000000033de5 .LASF6133
     /tmp/cc7R4ZW9.s:106628  .debug_str:0000000000042ecd .LASF6134
     /tmp/cc7R4ZW9.s:98382  .debug_str:0000000000021396 .LASF6135
     /tmp/cc7R4ZW9.s:105274  .debug_str:000000000003cfd9 .LASF6136
     /tmp/cc7R4ZW9.s:95770  .debug_str:0000000000015ff8 .LASF6137
     /tmp/cc7R4ZW9.s:97180  .debug_str:000000000001bec4 .LASF6138
     /tmp/cc7R4ZW9.s:102618  .debug_str:0000000000032256 .LASF6139
     /tmp/cc7R4ZW9.s:94274  .debug_str:00000000000101fa .LASF6140
     /tmp/cc7R4ZW9.s:102478  .debug_str:00000000000319e3 .LASF6141
     /tmp/cc7R4ZW9.s:100036  .debug_str:0000000000027ccf .LASF6142
     /tmp/cc7R4ZW9.s:95374  .debug_str:00000000000147bf .LASF6143
     /tmp/cc7R4ZW9.s:101232  .debug_str:000000000002c978 .LASF6144
     /tmp/cc7R4ZW9.s:107192  .debug_str:00000000000453d7 .LASF6145
     /tmp/cc7R4ZW9.s:102420  .debug_str:0000000000031580 .LASF6146
     /tmp/cc7R4ZW9.s:105194  .debug_str:000000000003cab7 .LASF6147
     /tmp/cc7R4ZW9.s:98758  .debug_str:0000000000022cb9 .LASF852
     /tmp/cc7R4ZW9.s:96364  .debug_str:00000000000187f2 .LASF6148
     /tmp/cc7R4ZW9.s:108146  .debug_str:00000000000492c9 .LASF6149
     /tmp/cc7R4ZW9.s:104312  .debug_str:00000000000391e7 .LASF6150
     /tmp/cc7R4ZW9.s:105504  .debug_str:000000000003e027 .LASF6151
     /tmp/cc7R4ZW9.s:108254  .debug_str:00000000000499c8 .LASF6152
     /tmp/cc7R4ZW9.s:102596  .debug_str:00000000000320ed .LASF6153
     /tmp/cc7R4ZW9.s:108002  .debug_str:00000000000489a9 .LASF6154
     /tmp/cc7R4ZW9.s:91940  .debug_str:0000000000006b6c .LASF6155
     /tmp/cc7R4ZW9.s:96590  .debug_str:000000000001963f .LASF6156
     /tmp/cc7R4ZW9.s:95102  .debug_str:000000000001370c .LASF6157
     /tmp/cc7R4ZW9.s:108190  .debug_str:00000000000495b1 .LASF6158
     /tmp/cc7R4ZW9.s:96090  .debug_str:0000000000017599 .LASF6159
     /tmp/cc7R4ZW9.s:107516  .debug_str:0000000000046940 .LASF6160
     /tmp/cc7R4ZW9.s:90378  .debug_str:0000000000000111 .LASF6161
     /tmp/cc7R4ZW9.s:92030  .debug_str:000000000000727e .LASF6162
     /tmp/cc7R4ZW9.s:96966  .debug_str:000000000001b06f .LASF6163
     /tmp/cc7R4ZW9.s:93008  .debug_str:000000000000b56c .LASF6164
     /tmp/cc7R4ZW9.s:94852  .debug_str:0000000000012550 .LASF6165
     /tmp/cc7R4ZW9.s:108906  .debug_str:000000000004c5c0 .LASF6166
     /tmp/cc7R4ZW9.s:105278  .debug_str:000000000003d004 .LASF6167
     /tmp/cc7R4ZW9.s:102218  .debug_str:00000000000309b7 .LASF6168
     /tmp/cc7R4ZW9.s:97120  .debug_str:000000000001ba97 .LASF6169
     /tmp/cc7R4ZW9.s:92942  .debug_str:000000000000b013 .LASF6170
     /tmp/cc7R4ZW9.s:101192  .debug_str:000000000002c708 .LASF6171
     /tmp/cc7R4ZW9.s:108736  .debug_str:000000000004badd .LASF6172
     /tmp/cc7R4ZW9.s:95336  .debug_str:0000000000014544 .LASF6173
     /tmp/cc7R4ZW9.s:96822  .debug_str:000000000001a62a .LASF6174
     /tmp/cc7R4ZW9.s:105020  .debug_str:000000000003be6d .LASF9710
     /tmp/cc7R4ZW9.s:109690  .debug_str:000000000004fbd6 .LASF6175
     /tmp/cc7R4ZW9.s:108920  .debug_str:000000000004c6b6 .LASF6176
     /tmp/cc7R4ZW9.s:94234  .debug_str:000000000001007a .LASF6177
     /tmp/cc7R4ZW9.s:103174  .debug_str:00000000000347a4 .LASF6178
     /tmp/cc7R4ZW9.s:108602  .debug_str:000000000004b0d8 .LASF6179
     /tmp/cc7R4ZW9.s:101184  .debug_str:000000000002c686 .LASF6180
     /tmp/cc7R4ZW9.s:94558  .debug_str:00000000000112ab .LASF6181
     /tmp/cc7R4ZW9.s:93536  .debug_str:000000000000d945 .LASF6182
     /tmp/cc7R4ZW9.s:107412  .debug_str:0000000000046280 .LASF6183
     /tmp/cc7R4ZW9.s:103812  .debug_str:00000000000374c7 .LASF6184
     /tmp/cc7R4ZW9.s:92740  .debug_str:000000000000a2fd .LASF6185
     /tmp/cc7R4ZW9.s:96428  .debug_str:0000000000018b2d .LASF6186
     /tmp/cc7R4ZW9.s:108396  .debug_str:000000000004a34a .LASF6187
     /tmp/cc7R4ZW9.s:95016  .debug_str:000000000001305f .LASF6188
     /tmp/cc7R4ZW9.s:94344  .debug_str:0000000000010567 .LASF6189
     /tmp/cc7R4ZW9.s:100892  .debug_str:000000000002b417 .LASF6190
     /tmp/cc7R4ZW9.s:98094  .debug_str:000000000001ffad .LASF6191
     /tmp/cc7R4ZW9.s:98686  .debug_str:00000000000227c4 .LASF6192
     /tmp/cc7R4ZW9.s:92470  .debug_str:0000000000008fe1 .LASF6193
     /tmp/cc7R4ZW9.s:91234  .debug_str:0000000000003bc3 .LASF6194
     /tmp/cc7R4ZW9.s:102468  .debug_str:0000000000031918 .LASF6195
     /tmp/cc7R4ZW9.s:106150  .debug_str:00000000000408eb .LASF6196
     /tmp/cc7R4ZW9.s:91274  .debug_str:0000000000003e5c .LASF6197
     /tmp/cc7R4ZW9.s:109090  .debug_str:000000000004d314 .LASF6198
     /tmp/cc7R4ZW9.s:105682  .debug_str:000000000003ec11 .LASF6199
     /tmp/cc7R4ZW9.s:101888  .debug_str:000000000002f389 .LASF6200
     /tmp/cc7R4ZW9.s:90472  .debug_str:000000000000079c .LASF6201
     /tmp/cc7R4ZW9.s:102684  .debug_str:000000000003277f .LASF6202
     /tmp/cc7R4ZW9.s:107322  .debug_str:0000000000045ce1 .LASF6203
     /tmp/cc7R4ZW9.s:96388  .debug_str:0000000000018944 .LASF6204
     /tmp/cc7R4ZW9.s:102736  .debug_str:0000000000032afb .LASF6205
     /tmp/cc7R4ZW9.s:102676  .debug_str:0000000000032712 .LASF6206
     /tmp/cc7R4ZW9.s:98480  .debug_str:00000000000219f0 .LASF6207
     /tmp/cc7R4ZW9.s:102470  .debug_str:000000000003192f .LASF6208
     /tmp/cc7R4ZW9.s:103186  .debug_str:000000000003489b .LASF6209
     /tmp/cc7R4ZW9.s:103410  .debug_str:000000000003592f .LASF6210
     /tmp/cc7R4ZW9.s:102702  .debug_str:00000000000328a6 .LASF6211
     /tmp/cc7R4ZW9.s:108930  .debug_str:000000000004c762 .LASF6212
     /tmp/cc7R4ZW9.s:104842  .debug_str:000000000003b221 .LASF6213
     /tmp/cc7R4ZW9.s:95834  .debug_str:000000000001641a .LASF6214
     /tmp/cc7R4ZW9.s:98456  .debug_str:000000000002188b .LASF6215
     /tmp/cc7R4ZW9.s:91430  .debug_str:000000000000498d .LASF6216
     /tmp/cc7R4ZW9.s:101592  .debug_str:000000000002dfae .LASF6217
     /tmp/cc7R4ZW9.s:103452  .debug_str:0000000000035bb8 .LASF6218
     /tmp/cc7R4ZW9.s:101202  .debug_str:000000000002c7b6 .LASF6219
     /tmp/cc7R4ZW9.s:101902  .debug_str:000000000002f4eb .LASF6220
     /tmp/cc7R4ZW9.s:102624  .debug_str:00000000000322b3 .LASF6221
     /tmp/cc7R4ZW9.s:101618  .debug_str:000000000002e17e .LASF6222
     /tmp/cc7R4ZW9.s:107828  .debug_str:0000000000047dc8 .LASF6223
     /tmp/cc7R4ZW9.s:92240  .debug_str:0000000000007fc2 .LASF6224
     /tmp/cc7R4ZW9.s:94710  .debug_str:0000000000011bfe .LASF6225
     /tmp/cc7R4ZW9.s:97340  .debug_str:000000000001cae9 .LASF6226
     /tmp/cc7R4ZW9.s:90508  .debug_str:0000000000000a0d .LASF6227
     /tmp/cc7R4ZW9.s:104902  .debug_str:000000000003b6d1 .LASF6228
     /tmp/cc7R4ZW9.s:106262  .debug_str:00000000000411f5 .LASF6229
     /tmp/cc7R4ZW9.s:108108  .debug_str:000000000004904a .LASF6230
     /tmp/cc7R4ZW9.s:100530  .debug_str:0000000000029d8c .LASF6231
     /tmp/cc7R4ZW9.s:102722  .debug_str:0000000000032a26 .LASF6232
     /tmp/cc7R4ZW9.s:90610  .debug_str:0000000000001121 .LASF6233
     /tmp/cc7R4ZW9.s:92782  .debug_str:000000000000a52d .LASF6234
     /tmp/cc7R4ZW9.s:95630  .debug_str:0000000000015746 .LASF6235
     /tmp/cc7R4ZW9.s:90702  .debug_str:0000000000001740 .LASF6236
     /tmp/cc7R4ZW9.s:104158  .debug_str:0000000000038a13 .LASF6237
     /tmp/cc7R4ZW9.s:101926  .debug_str:000000000002f67e .LASF6238
     /tmp/cc7R4ZW9.s:95084  .debug_str:00000000000135f9 .LASF6239
     /tmp/cc7R4ZW9.s:108422  .debug_str:000000000004a4e5 .LASF6240
     /tmp/cc7R4ZW9.s:90628  .debug_str:0000000000001226 .LASF6241
     /tmp/cc7R4ZW9.s:98838  .debug_str:0000000000023180 .LASF6242
     /tmp/cc7R4ZW9.s:96226  .debug_str:0000000000017f3f .LASF6243
     /tmp/cc7R4ZW9.s:95362  .debug_str:000000000001470c .LASF6244
     /tmp/cc7R4ZW9.s:97536  .debug_str:000000000001d7fc .LASF6245
     /tmp/cc7R4ZW9.s:101620  .debug_str:000000000002e1a5 .LASF6246
     /tmp/cc7R4ZW9.s:109312  .debug_str:000000000004e305 .LASF6247
     /tmp/cc7R4ZW9.s:107122  .debug_str:0000000000044fb5 .LASF6248
     /tmp/cc7R4ZW9.s:94668  .debug_str:0000000000011905 .LASF6249
     /tmp/cc7R4ZW9.s:105968  .debug_str:000000000003fdc6 .LASF6250
     /tmp/cc7R4ZW9.s:96032  .debug_str:0000000000017137 .LASF6251
     /tmp/cc7R4ZW9.s:91528  .debug_str:0000000000004ff7 .LASF6252
     /tmp/cc7R4ZW9.s:90546  .debug_str:0000000000000c7f .LASF6253
     /tmp/cc7R4ZW9.s:97132  .debug_str:000000000001bb31 .LASF6254
     /tmp/cc7R4ZW9.s:107860  .debug_str:0000000000047fea .LASF6255
     /tmp/cc7R4ZW9.s:109410  .debug_str:000000000004e9d8 .LASF6256
     /tmp/cc7R4ZW9.s:104202  .debug_str:0000000000038bc7 .LASF6257
     /tmp/cc7R4ZW9.s:93468  .debug_str:000000000000d4f6 .LASF6258
     /tmp/cc7R4ZW9.s:93656  .debug_str:000000000000df86 .LASF6259
     /tmp/cc7R4ZW9.s:109206  .debug_str:000000000004da53 .LASF6260
     /tmp/cc7R4ZW9.s:106828  .debug_str:0000000000043ca1 .LASF6261
     /tmp/cc7R4ZW9.s:92358  .debug_str:0000000000008811 .LASF6262
     /tmp/cc7R4ZW9.s:91100  .debug_str:0000000000003385 .LASF6263
     /tmp/cc7R4ZW9.s:92840  .debug_str:000000000000a973 .LASF6264
     /tmp/cc7R4ZW9.s:95952  .debug_str:0000000000016c62 .LASF6265
     /tmp/cc7R4ZW9.s:105148  .debug_str:000000000003c7dc .LASF6266
     /tmp/cc7R4ZW9.s:102292  .debug_str:0000000000030e48 .LASF6267
     /tmp/cc7R4ZW9.s:91660  .debug_str:00000000000058cc .LASF6268
     /tmp/cc7R4ZW9.s:104040  .debug_str:000000000003829f .LASF6269
     /tmp/cc7R4ZW9.s:103982  .debug_str:0000000000037ee4 .LASF6270
     /tmp/cc7R4ZW9.s:104424  .debug_str:0000000000039791 .LASF6271
     /tmp/cc7R4ZW9.s:91390  .debug_str:0000000000004694 .LASF6272
     /tmp/cc7R4ZW9.s:100228  .debug_str:0000000000028983 .LASF6273
     /tmp/cc7R4ZW9.s:108740  .debug_str:000000000004bafd .LASF6274
     /tmp/cc7R4ZW9.s:100786  .debug_str:000000000002ada0 .LASF6275
     /tmp/cc7R4ZW9.s:95790  .debug_str:000000000001613d .LASF6276
     /tmp/cc7R4ZW9.s:93964  .debug_str:000000000000f014 .LASF6277
     /tmp/cc7R4ZW9.s:91696  .debug_str:0000000000005b6f .LASF6278
     /tmp/cc7R4ZW9.s:106308  .debug_str:000000000004162e .LASF6279
     /tmp/cc7R4ZW9.s:105152  .debug_str:000000000003c83d .LASF6280
     /tmp/cc7R4ZW9.s:104074  .debug_str:00000000000384e0 .LASF6281
     /tmp/cc7R4ZW9.s:93710  .debug_str:000000000000e2b5 .LASF6282
     /tmp/cc7R4ZW9.s:98394  .debug_str:0000000000021441 .LASF6283
     /tmp/cc7R4ZW9.s:90874  .debug_str:0000000000002478 .LASF6284
     /tmp/cc7R4ZW9.s:91742  .debug_str:0000000000005e2c .LASF6285
     /tmp/cc7R4ZW9.s:96350  .debug_str:00000000000186fe .LASF6286
     /tmp/cc7R4ZW9.s:102840  .debug_str:00000000000331e8 .LASF6287
     /tmp/cc7R4ZW9.s:92626  .debug_str:0000000000009b2d .LASF6288
     /tmp/cc7R4ZW9.s:100138  .debug_str:0000000000028321 .LASF6289
     /tmp/cc7R4ZW9.s:94464  .debug_str:0000000000010c61 .LASF6290
     /tmp/cc7R4ZW9.s:105232  .debug_str:000000000003cd0a .LASF6291
     /tmp/cc7R4ZW9.s:109228  .debug_str:000000000004dc35 .LASF6292
     /tmp/cc7R4ZW9.s:109766  .debug_str:00000000000500f7 .LASF6293
     /tmp/cc7R4ZW9.s:103168  .debug_str:0000000000034780 .LASF6294
     /tmp/cc7R4ZW9.s:99324  .debug_str:00000000000251fe .LASF6295
     /tmp/cc7R4ZW9.s:103170  .debug_str:000000000003478c .LASF6296
     /tmp/cc7R4ZW9.s:104566  .debug_str:0000000000039f62 .LASF6297
     /tmp/cc7R4ZW9.s:100920  .debug_str:000000000002b6bb .LASF6298
     /tmp/cc7R4ZW9.s:97870  .debug_str:000000000001ef62 .LASF6299
     /tmp/cc7R4ZW9.s:97980  .debug_str:000000000001f7c7 .LASF6300
     /tmp/cc7R4ZW9.s:102366  .debug_str:00000000000312a9 .LASF6301
     /tmp/cc7R4ZW9.s:92572  .debug_str:00000000000096f3 .LASF6302
     /tmp/cc7R4ZW9.s:97770  .debug_str:000000000001e8ef .LASF6303
     /tmp/cc7R4ZW9.s:92750  .debug_str:000000000000a371 .LASF6304
     /tmp/cc7R4ZW9.s:97636  .debug_str:000000000001df7e .LASF6305
     /tmp/cc7R4ZW9.s:92540  .debug_str:00000000000094b0 .LASF6306
     /tmp/cc7R4ZW9.s:100788  .debug_str:000000000002adbc .LASF6307
     /tmp/cc7R4ZW9.s:97474  .debug_str:000000000001d3d5 .LASF6308
     /tmp/cc7R4ZW9.s:108064  .debug_str:0000000000048d60 .LASF6309
     /tmp/cc7R4ZW9.s:91944  .debug_str:0000000000006ba7 .LASF6310
     /tmp/cc7R4ZW9.s:103732  .debug_str:0000000000036f2c .LASF6311
     /tmp/cc7R4ZW9.s:108808  .debug_str:000000000004bf74 .LASF6312
     /tmp/cc7R4ZW9.s:109116  .debug_str:000000000004d49d .LASF6313
     /tmp/cc7R4ZW9.s:91368  .debug_str:00000000000045a5 .LASF6314
     /tmp/cc7R4ZW9.s:109132  .debug_str:000000000004d541 .LASF6315
     /tmp/cc7R4ZW9.s:93190  .debug_str:000000000000c254 .LASF6316
     /tmp/cc7R4ZW9.s:98932  .debug_str:00000000000238a8 .LASF6317
     /tmp/cc7R4ZW9.s:93700  .debug_str:000000000000e27e .LASF6318
     /tmp/cc7R4ZW9.s:99052  .debug_str:0000000000024067 .LASF6319
     /tmp/cc7R4ZW9.s:101428  .debug_str:000000000002d546 .LASF6320
     /tmp/cc7R4ZW9.s:109448  .debug_str:000000000004ec22 .LASF6321
     /tmp/cc7R4ZW9.s:98990  .debug_str:0000000000023c59 .LASF6322
     /tmp/cc7R4ZW9.s:99968  .debug_str:00000000000277c4 .LASF6323
     /tmp/cc7R4ZW9.s:96532  .debug_str:00000000000191e9 .LASF6324
     /tmp/cc7R4ZW9.s:96534  .debug_str:00000000000191f8 .LASF6325
     /tmp/cc7R4ZW9.s:96724  .debug_str:0000000000019f58 .LASF6326
     /tmp/cc7R4ZW9.s:95806  .debug_str:0000000000016207 .LASF6327
     /tmp/cc7R4ZW9.s:103048  .debug_str:0000000000034048 .LASF6328
     /tmp/cc7R4ZW9.s:97840  .debug_str:000000000001edc1 .LASF6329
     /tmp/cc7R4ZW9.s:94040  .debug_str:000000000000f424 .LASF6330
     /tmp/cc7R4ZW9.s:94042  .debug_str:000000000000f433 .LASF6331
     /tmp/cc7R4ZW9.s:96168  .debug_str:0000000000017b5d .LASF6332
     /tmp/cc7R4ZW9.s:99404  .debug_str:0000000000025656 .LASF6333
     /tmp/cc7R4ZW9.s:106544  .debug_str:0000000000042961 .LASF6334
     /tmp/cc7R4ZW9.s:105944  .debug_str:000000000003fc72 .LASF6335
     /tmp/cc7R4ZW9.s:97842  .debug_str:000000000001edcb .LASF6336
     /tmp/cc7R4ZW9.s:92368  .debug_str:00000000000088ef .LASF6337
     /tmp/cc7R4ZW9.s:99510  .debug_str:0000000000025be3 .LASF6338
     /tmp/cc7R4ZW9.s:108018  .debug_str:0000000000048a79 .LASF6339
     /tmp/cc7R4ZW9.s:97028  .debug_str:000000000001b447 .LASF6340
     /tmp/cc7R4ZW9.s:99178  .debug_str:0000000000024951 .LASF6341
     /tmp/cc7R4ZW9.s:104480  .debug_str:0000000000039a53 .LASF6342
     /tmp/cc7R4ZW9.s:101752  .debug_str:000000000002ea77 .LASF6343
     /tmp/cc7R4ZW9.s:107724  .debug_str:0000000000047679 .LASF6344
     /tmp/cc7R4ZW9.s:91322  .debug_str:0000000000004209 .LASF6345
     /tmp/cc7R4ZW9.s:94374  .debug_str:00000000000107a6 .LASF6346
     /tmp/cc7R4ZW9.s:104644  .debug_str:000000000003a45c .LASF6347
     /tmp/cc7R4ZW9.s:107564  .debug_str:0000000000046c44 .LASF6348
     /tmp/cc7R4ZW9.s:99080  .debug_str:000000000002427b .LASF6349
     /tmp/cc7R4ZW9.s:106100  .debug_str:00000000000405a6 .LASF6350
     /tmp/cc7R4ZW9.s:107068  .debug_str:0000000000044b8c .LASF6351
     /tmp/cc7R4ZW9.s:97438  .debug_str:000000000001d165 .LASF6352
     /tmp/cc7R4ZW9.s:109488  .debug_str:000000000004ee37 .LASF6353
     /tmp/cc7R4ZW9.s:98498  .debug_str:0000000000021b9a .LASF6354
     /tmp/cc7R4ZW9.s:101296  .debug_str:000000000002cdc9 .LASF6355
     /tmp/cc7R4ZW9.s:92916  .debug_str:000000000000ae8f .LASF6356
     /tmp/cc7R4ZW9.s:91852  .debug_str:0000000000006539 .LASF6357
     /tmp/cc7R4ZW9.s:91722  .debug_str:0000000000005cb8 .LASF6358
     /tmp/cc7R4ZW9.s:93458  .debug_str:000000000000d479 .LASF6359
     /tmp/cc7R4ZW9.s:107074  .debug_str:0000000000044c19 .LASF6360
     /tmp/cc7R4ZW9.s:102822  .debug_str:00000000000330d6 .LASF6361
     /tmp/cc7R4ZW9.s:106760  .debug_str:00000000000437b3 .LASF6362
     /tmp/cc7R4ZW9.s:108418  .debug_str:000000000004a4a3 .LASF6363
     /tmp/cc7R4ZW9.s:101302  .debug_str:000000000002ce17 .LASF6364
     /tmp/cc7R4ZW9.s:107700  .debug_str:00000000000474d7 .LASF6365
     /tmp/cc7R4ZW9.s:109106  .debug_str:000000000004d40e .LASF6366
     /tmp/cc7R4ZW9.s:103848  .debug_str:00000000000376a0 .LASF6367
     /tmp/cc7R4ZW9.s:100568  .debug_str:000000000002a025 .LASF6368
     /tmp/cc7R4ZW9.s:100580  .debug_str:000000000002a0ed .LASF6369
     /tmp/cc7R4ZW9.s:93530  .debug_str:000000000000d8f0 .LASF6370
     /tmp/cc7R4ZW9.s:107262  .debug_str:0000000000045864 .LASF6371
     /tmp/cc7R4ZW9.s:107040  .debug_str:0000000000044a14 .LASF6372
     /tmp/cc7R4ZW9.s:107264  .debug_str:000000000004586e .LASF6373
     /tmp/cc7R4ZW9.s:95220  .debug_str:0000000000013e1f .LASF6374
     /tmp/cc7R4ZW9.s:107270  .debug_str:00000000000458c0 .LASF6375
     /tmp/cc7R4ZW9.s:106474  .debug_str:0000000000042411 .LASF6376
     /tmp/cc7R4ZW9.s:105438  .debug_str:000000000003dab4 .LASF6377
     /tmp/cc7R4ZW9.s:93274  .debug_str:000000000000c770 .LASF6378
     /tmp/cc7R4ZW9.s:102330  .debug_str:0000000000031075 .LASF6379
     /tmp/cc7R4ZW9.s:93702  .debug_str:000000000000e28d .LASF6380
     /tmp/cc7R4ZW9.s:93704  .debug_str:000000000000e297 .LASF6381
     /tmp/cc7R4ZW9.s:98572  .debug_str:00000000000220c1 .LASF6382
     /tmp/cc7R4ZW9.s:93270  .debug_str:000000000000c706 .LASF6383
     /tmp/cc7R4ZW9.s:109572  .debug_str:000000000004f441 .LASF6384
     /tmp/cc7R4ZW9.s:95106  .debug_str:0000000000013740 .LASF6385
     /tmp/cc7R4ZW9.s:93706  .debug_str:000000000000e2a1 .LASF6386
     /tmp/cc7R4ZW9.s:91008  .debug_str:0000000000002d27 .LASF6387
     /tmp/cc7R4ZW9.s:93708  .debug_str:000000000000e2ab .LASF6388
     /tmp/cc7R4ZW9.s:95714  .debug_str:0000000000015d3b .LASF6389
     /tmp/cc7R4ZW9.s:103746  .debug_str:000000000003700a .LASF6390
     /tmp/cc7R4ZW9.s:93786  .debug_str:000000000000e7b6 .LASF6391
     /tmp/cc7R4ZW9.s:98062  .debug_str:000000000001fd13 .LASF6392
     /tmp/cc7R4ZW9.s:93788  .debug_str:000000000000e7c0 .LASF6393
     /tmp/cc7R4ZW9.s:100994  .debug_str:000000000002bb4e .LASF6394
     /tmp/cc7R4ZW9.s:94056  .debug_str:000000000000f5be .LASF6395
     /tmp/cc7R4ZW9.s:104400  .debug_str:0000000000039649 .LASF6396
     /tmp/cc7R4ZW9.s:92734  .debug_str:000000000000a2a8 .LASF6397
     /tmp/cc7R4ZW9.s:107420  .debug_str:0000000000046301 .LASF6398
     /tmp/cc7R4ZW9.s:105992  .debug_str:000000000003ff5d .LASF6399
     /tmp/cc7R4ZW9.s:93792  .debug_str:000000000000e7e3 .LASF6400
     /tmp/cc7R4ZW9.s:93356  .debug_str:000000000000cd72 .LASF6401
     /tmp/cc7R4ZW9.s:101348  .debug_str:000000000002d09f .LASF6402
     /tmp/cc7R4ZW9.s:93794  .debug_str:000000000000e7ed .LASF6403
     /tmp/cc7R4ZW9.s:92512  .debug_str:00000000000092bf .LASF6404
     /tmp/cc7R4ZW9.s:106006  .debug_str:0000000000040020 .LASF6405
     /tmp/cc7R4ZW9.s:94838  .debug_str:0000000000012471 .LASF6406
     /tmp/cc7R4ZW9.s:108634  .debug_str:000000000004b3bb .LASF6407
     /tmp/cc7R4ZW9.s:102264  .debug_str:0000000000030c80 .LASF6408
     /tmp/cc7R4ZW9.s:92292  .debug_str:0000000000008387 .LASF6409
     /tmp/cc7R4ZW9.s:93796  .debug_str:000000000000e7f7 .LASF6410
     /tmp/cc7R4ZW9.s:108528  .debug_str:000000000004ac47 .LASF6411
     /tmp/cc7R4ZW9.s:93798  .debug_str:000000000000e801 .LASF6412
     /tmp/cc7R4ZW9.s:102814  .debug_str:0000000000033053 .LASF6413
     /tmp/cc7R4ZW9.s:91264  .debug_str:0000000000003db8 .LASF6414
     /tmp/cc7R4ZW9.s:93800  .debug_str:000000000000e80b .LASF6415
     /tmp/cc7R4ZW9.s:100298  .debug_str:0000000000028e6c .LASF6416
     /tmp/cc7R4ZW9.s:96704  .debug_str:0000000000019dc4 .LASF6417
     /tmp/cc7R4ZW9.s:91950  .debug_str:0000000000006c13 .LASF6418
     /tmp/cc7R4ZW9.s:95702  .debug_str:0000000000015ca6 .LASF6419
     /tmp/cc7R4ZW9.s:106980  .debug_str:0000000000044622 .LASF6420
     /tmp/cc7R4ZW9.s:93802  .debug_str:000000000000e815 .LASF6421
     /tmp/cc7R4ZW9.s:100544  .debug_str:0000000000029e97 .LASF6422
     /tmp/cc7R4ZW9.s:95562  .debug_str:000000000001535d .LASF6423
     /tmp/cc7R4ZW9.s:107388  .debug_str:00000000000460f0 .LASF6424
     /tmp/cc7R4ZW9.s:95838  .debug_str:0000000000016486 .LASF6425
     /tmp/cc7R4ZW9.s:96994  .debug_str:000000000001b24e .LASF6426
     /tmp/cc7R4ZW9.s:108324  .debug_str:0000000000049ede .LASF6427
     /tmp/cc7R4ZW9.s:98732  .debug_str:0000000000022abe .LASF6428
     /tmp/cc7R4ZW9.s:100102  .debug_str:0000000000028107 .LASF6429
     /tmp/cc7R4ZW9.s:106350  .debug_str:0000000000041917 .LASF6430
     /tmp/cc7R4ZW9.s:100230  .debug_str:00000000000289c6 .LASF6431
     /tmp/cc7R4ZW9.s:93984  .debug_str:000000000000f166 .LASF6432
     /tmp/cc7R4ZW9.s:107378  .debug_str:000000000004602e .LASF6433
     /tmp/cc7R4ZW9.s:107646  .debug_str:00000000000471a6 .LASF6434
     /tmp/cc7R4ZW9.s:93868  .debug_str:000000000000ebd9 .LASF6435
     /tmp/cc7R4ZW9.s:92972  .debug_str:000000000000b2d5 .LASF6436
     /tmp/cc7R4ZW9.s:92316  .debug_str:000000000000850a .LASF6437
     /tmp/cc7R4ZW9.s:95014  .debug_str:0000000000013058 .LASF6438
     /tmp/cc7R4ZW9.s:94884  .debug_str:000000000001273f .LASF6439
     /tmp/cc7R4ZW9.s:107078  .debug_str:0000000000044c5c .LASF6440
     /tmp/cc7R4ZW9.s:105656  .debug_str:000000000003ea45 .LASF6441
     /tmp/cc7R4ZW9.s:100332  .debug_str:0000000000029105 .LASF6442
     /tmp/cc7R4ZW9.s:93030  .debug_str:000000000000b6de .LASF6443
     /tmp/cc7R4ZW9.s:106384  .debug_str:0000000000041b65 .LASF6444
     /tmp/cc7R4ZW9.s:98124  .debug_str:0000000000020227 .LASF6445
     /tmp/cc7R4ZW9.s:93604  .debug_str:000000000000dd17 .LASF6446
     /tmp/cc7R4ZW9.s:109340  .debug_str:000000000004e49c .LASF6447
     /tmp/cc7R4ZW9.s:95100  .debug_str:00000000000136e2 .LASF6448
     /tmp/cc7R4ZW9.s:94138  .debug_str:000000000000fab8 .LASF6449
     /tmp/cc7R4ZW9.s:105782  .debug_str:000000000003f210 .LASF6450
     /tmp/cc7R4ZW9.s:93606  .debug_str:000000000000dd21 .LASF6451
     /tmp/cc7R4ZW9.s:97456  .debug_str:000000000001d294 .LASF6452
     /tmp/cc7R4ZW9.s:101216  .debug_str:000000000002c878 .LASF6453
     /tmp/cc7R4ZW9.s:100104  .debug_str:0000000000028121 .LASF6454
     /tmp/cc7R4ZW9.s:102320  .debug_str:0000000000030ff0 .LASF6455
     /tmp/cc7R4ZW9.s:90464  .debug_str:0000000000000733 .LASF6456
     /tmp/cc7R4ZW9.s:91138  .debug_str:0000000000003577 .LASF6457
     /tmp/cc7R4ZW9.s:108564  .debug_str:000000000004aecc .LASF6458
     /tmp/cc7R4ZW9.s:93750  .debug_str:000000000000e56c .LASF6459
     /tmp/cc7R4ZW9.s:93608  .debug_str:000000000000dd2b .LASF6460
     /tmp/cc7R4ZW9.s:93610  .debug_str:000000000000dd35 .LASF6461
     /tmp/cc7R4ZW9.s:97080  .debug_str:000000000001b7aa .LASF6462
     /tmp/cc7R4ZW9.s:107180  .debug_str:0000000000045327 .LASF6463
     /tmp/cc7R4ZW9.s:101012  .debug_str:000000000002bbed .LASF6464
     /tmp/cc7R4ZW9.s:102742  .debug_str:0000000000032bad .LASF6465
     /tmp/cc7R4ZW9.s:100040  .debug_str:0000000000027d0a .LASF6466
     /tmp/cc7R4ZW9.s:92746  .debug_str:000000000000a355 .LASF6467
     /tmp/cc7R4ZW9.s:107372  .debug_str:0000000000045fd7 .LASF6468
     /tmp/cc7R4ZW9.s:97362  .debug_str:000000000001cc8c .LASF6469
     /tmp/cc7R4ZW9.s:93730  .debug_str:000000000000e44b .LASF6470
     /tmp/cc7R4ZW9.s:104238  .debug_str:0000000000038e27 .LASF6471
     /tmp/cc7R4ZW9.s:100738  .debug_str:000000000002aa98 .LASF6472
     /tmp/cc7R4ZW9.s:93164  .debug_str:000000000000c0cd .LASF6473
     /tmp/cc7R4ZW9.s:93948  .debug_str:000000000000eeef .LASF6474
     /tmp/cc7R4ZW9.s:104412  .debug_str:00000000000396f0 .LASF6475
     /tmp/cc7R4ZW9.s:102544  .debug_str:0000000000031d75 .LASF6476
     /tmp/cc7R4ZW9.s:98510  .debug_str:0000000000021c8e .LASF6477
     /tmp/cc7R4ZW9.s:97784  .debug_str:000000000001e9eb .LASF6478
     /tmp/cc7R4ZW9.s:92390  .debug_str:0000000000008a4d .LASF6479
     /tmp/cc7R4ZW9.s:105070  .debug_str:000000000003c1e3 .LASF6480
     /tmp/cc7R4ZW9.s:97372  .debug_str:000000000001cd01 .LASF6481
     /tmp/cc7R4ZW9.s:92726  .debug_str:000000000000a1e5 .LASF6482
     /tmp/cc7R4ZW9.s:107030  .debug_str:000000000004499a .LASF6483
     /tmp/cc7R4ZW9.s:108532  .debug_str:000000000004ac55 .LASF6484
     /tmp/cc7R4ZW9.s:104450  .debug_str:0000000000039858 .LASF6485
     /tmp/cc7R4ZW9.s:97892  .debug_str:000000000001f0bd .LASF6486
     /tmp/cc7R4ZW9.s:91814  .debug_str:00000000000062c1 .LASF6487
     /tmp/cc7R4ZW9.s:103430  .debug_str:0000000000035a68 .LASF6488
     /tmp/cc7R4ZW9.s:101350  .debug_str:000000000002d0aa .LASF6489
     /tmp/cc7R4ZW9.s:98112  .debug_str:0000000000020149 .LASF6490
     /tmp/cc7R4ZW9.s:90380  .debug_str:0000000000000116 .LASF6491
     /tmp/cc7R4ZW9.s:95552  .debug_str:000000000001525c .LASF6492
     /tmp/cc7R4ZW9.s:98974  .debug_str:0000000000023b5b .LASF6493
     /tmp/cc7R4ZW9.s:92300  .debug_str:00000000000083e7 .LASF6494
     /tmp/cc7R4ZW9.s:107582  .debug_str:0000000000046cfe .LASF6495
     /tmp/cc7R4ZW9.s:91616  .debug_str:00000000000055c3 .LASF6496
     /tmp/cc7R4ZW9.s:106600  .debug_str:0000000000042d55 .LASF6497
     /tmp/cc7R4ZW9.s:99882  .debug_str:00000000000272b6 .LASF6498
     /tmp/cc7R4ZW9.s:105672  .debug_str:000000000003eb68 .LASF6499
     /tmp/cc7R4ZW9.s:98016  .debug_str:000000000001fa49 .LASF6500
     /tmp/cc7R4ZW9.s:92948  .debug_str:000000000000b0b5 .LASF6501
     /tmp/cc7R4ZW9.s:102558  .debug_str:0000000000031e61 .LASF6502
     /tmp/cc7R4ZW9.s:95870  .debug_str:000000000001662f .LASF6503
     /tmp/cc7R4ZW9.s:109480  .debug_str:000000000004edd8 .LASF6504
     /tmp/cc7R4ZW9.s:104122  .debug_str:000000000003873b .LASF6505
     /tmp/cc7R4ZW9.s:90912  .debug_str:00000000000026db .LASF6506
     /tmp/cc7R4ZW9.s:103962  .debug_str:0000000000037da5 .LASF6507
     /tmp/cc7R4ZW9.s:103714  .debug_str:0000000000036e5e .LASF6508
     /tmp/cc7R4ZW9.s:103894  .debug_str:00000000000379d5 .LASF6509
     /tmp/cc7R4ZW9.s:100978  .debug_str:000000000002ba6a .LASF6510
     /tmp/cc7R4ZW9.s:103730  .debug_str:0000000000036f1d .LASF6511
     /tmp/cc7R4ZW9.s:91704  .debug_str:0000000000005bc8 .LASF6512
     /tmp/cc7R4ZW9.s:100262  .debug_str:0000000000028c0a .LASF6513
     /tmp/cc7R4ZW9.s:99988  .debug_str:000000000002796f .LASF6514
     /tmp/cc7R4ZW9.s:93876  .debug_str:000000000000ec3a .LASF6515
     /tmp/cc7R4ZW9.s:93196  .debug_str:000000000000c292 .LASF6516
     /tmp/cc7R4ZW9.s:93234  .debug_str:000000000000c4cd .LASF6517
     /tmp/cc7R4ZW9.s:100974  .debug_str:000000000002ba23 .LASF6518
     /tmp/cc7R4ZW9.s:98804  .debug_str:0000000000022f9f .LASF6519
     /tmp/cc7R4ZW9.s:102734  .debug_str:0000000000032ae7 .LASF6520
     /tmp/cc7R4ZW9.s:96556  .debug_str:000000000001932f .LASF6521
     /tmp/cc7R4ZW9.s:109052  .debug_str:000000000004d05b .LASF6522
     /tmp/cc7R4ZW9.s:107368  .debug_str:0000000000045f87 .LASF6523
     /tmp/cc7R4ZW9.s:100508  .debug_str:0000000000029c17 .LASF6524
     /tmp/cc7R4ZW9.s:96566  .debug_str:000000000001947a .LASF6525
     /tmp/cc7R4ZW9.s:102038  .debug_str:000000000002fda9 .LASF6526
     /tmp/cc7R4ZW9.s:92926  .debug_str:000000000000af5d .LASF6527
     /tmp/cc7R4ZW9.s:101414  .debug_str:000000000002d48f .LASF6528
     /tmp/cc7R4ZW9.s:95414  .debug_str:0000000000014a71 .LASF6529
     /tmp/cc7R4ZW9.s:95466  .debug_str:0000000000014cf7 .LASF6530
     /tmp/cc7R4ZW9.s:105416  .debug_str:000000000003d93d .LASF6531
     /tmp/cc7R4ZW9.s:100790  .debug_str:000000000002adcc .LASF6532
     /tmp/cc7R4ZW9.s:100594  .debug_str:000000000002a1e6 .LASF6533
     /tmp/cc7R4ZW9.s:105066  .debug_str:000000000003c1bb .LASF6534
     /tmp/cc7R4ZW9.s:99366  .debug_str:000000000002547a .LASF6535
     /tmp/cc7R4ZW9.s:93544  .debug_str:000000000000d9bf .LASF6536
     /tmp/cc7R4ZW9.s:98650  .debug_str:000000000002260c .LASF6537
     /tmp/cc7R4ZW9.s:98006  .debug_str:000000000001f99c .LASF6538
     /tmp/cc7R4ZW9.s:104546  .debug_str:0000000000039e35 .LASF6539
     /tmp/cc7R4ZW9.s:104544  .debug_str:0000000000039e25 .LASF6540
     /tmp/cc7R4ZW9.s:102776  .debug_str:0000000000032dee .LASF6541
     /tmp/cc7R4ZW9.s:93068  .debug_str:000000000000b993 .LASF6542
     /tmp/cc7R4ZW9.s:107526  .debug_str:00000000000469af .LASF6543
     /tmp/cc7R4ZW9.s:92834  .debug_str:000000000000a926 .LASF6544
     /tmp/cc7R4ZW9.s:98472  .debug_str:000000000002197a .LASF6545
     /tmp/cc7R4ZW9.s:96514  .debug_str:0000000000019089 .LASF6546
     /tmp/cc7R4ZW9.s:98652  .debug_str:0000000000022615 .LASF6547
     /tmp/cc7R4ZW9.s:103768  .debug_str:0000000000037188 .LASF6548
     /tmp/cc7R4ZW9.s:107730  .debug_str:00000000000476f8 .LASF6549
     /tmp/cc7R4ZW9.s:101906  .debug_str:000000000002f532 .LASF6550
     /tmp/cc7R4ZW9.s:105872  .debug_str:000000000003f775 .LASF6551
     /tmp/cc7R4ZW9.s:100012  .debug_str:0000000000027af1 .LASF6552
     /tmp/cc7R4ZW9.s:109550  .debug_str:000000000004f2df .LASF6553
     /tmp/cc7R4ZW9.s:98654  .debug_str:000000000002261e .LASF6554
     /tmp/cc7R4ZW9.s:105176  .debug_str:000000000003c9dc .LASF6555
     /tmp/cc7R4ZW9.s:105874  .debug_str:000000000003f783 .LASF6556
     /tmp/cc7R4ZW9.s:91908  .debug_str:000000000000692f .LASF6557
     /tmp/cc7R4ZW9.s:108172  .debug_str:00000000000494a5 .LASF6558
     /tmp/cc7R4ZW9.s:104986  .debug_str:000000000003bbce .LASF6559
     /tmp/cc7R4ZW9.s:100174  .debug_str:000000000002856e .LASF6560
     /tmp/cc7R4ZW9.s:100160  .debug_str:000000000002846d .LASF6561
     /tmp/cc7R4ZW9.s:107878  .debug_str:000000000004815e .LASF6562
     /tmp/cc7R4ZW9.s:99308  .debug_str:00000000000250dd .LASF6563
     /tmp/cc7R4ZW9.s:93612  .debug_str:000000000000dd3f .LASF6564
     /tmp/cc7R4ZW9.s:98656  .debug_str:0000000000022627 .LASF6565
     /tmp/cc7R4ZW9.s:98954  .debug_str:0000000000023a25 .LASF6566
     /tmp/cc7R4ZW9.s:98986  .debug_str:0000000000023c2c .LASF6567
     /tmp/cc7R4ZW9.s:93266  .debug_str:000000000000c6d5 .LASF6568
     /tmp/cc7R4ZW9.s:93032  .debug_str:000000000000b6e9 .LASF6569
     /tmp/cc7R4ZW9.s:102138  .debug_str:000000000003041f .LASF6570
     /tmp/cc7R4ZW9.s:90960  .debug_str:0000000000002a54 .LASF6571
     /tmp/cc7R4ZW9.s:91920  .debug_str:0000000000006a16 .LASF6572
     /tmp/cc7R4ZW9.s:91226  .debug_str:0000000000003b40 .LASF6573
     /tmp/cc7R4ZW9.s:94302  .debug_str:00000000000103bb .LASF6574
     /tmp/cc7R4ZW9.s:91802  .debug_str:00000000000061e8 .LASF6575
     /tmp/cc7R4ZW9.s:100832  .debug_str:000000000002b145 .LASF6576
     /tmp/cc7R4ZW9.s:106354  .debug_str:0000000000041969 .LASF6577
     /tmp/cc7R4ZW9.s:93614  .debug_str:000000000000dd49 .LASF6578
     /tmp/cc7R4ZW9.s:98658  .debug_str:0000000000022630 .LASF6579
     /tmp/cc7R4ZW9.s:92702  .debug_str:000000000000a01d .LASF6580
     /tmp/cc7R4ZW9.s:99104  .debug_str:0000000000024442 .LASF6581
     /tmp/cc7R4ZW9.s:106626  .debug_str:0000000000042ebf .LASF6582
     /tmp/cc7R4ZW9.s:108460  .debug_str:000000000004a6cd .LASF6583
     /tmp/cc7R4ZW9.s:108440  .debug_str:000000000004a5d5 .LASF6584
     /tmp/cc7R4ZW9.s:93616  .debug_str:000000000000dd53 .LASF6585
     /tmp/cc7R4ZW9.s:98660  .debug_str:0000000000022639 .LASF6586
     /tmp/cc7R4ZW9.s:106084  .debug_str:00000000000404eb .LASF6587
     /tmp/cc7R4ZW9.s:92110  .debug_str:00000000000077f0 .LASF6588
     /tmp/cc7R4ZW9.s:109800  .debug_str:00000000000502f9 .LASF6589
     /tmp/cc7R4ZW9.s:93618  .debug_str:000000000000dd5d .LASF6590
     /tmp/cc7R4ZW9.s:98662  .debug_str:0000000000022642 .LASF6591
     /tmp/cc7R4ZW9.s:99966  .debug_str:00000000000277a1 .LASF6592
     /tmp/cc7R4ZW9.s:91518  .debug_str:0000000000004f9a .LASF6593
     /tmp/cc7R4ZW9.s:108066  .debug_str:0000000000048d70 .LASF6594
     /tmp/cc7R4ZW9.s:99614  .debug_str:000000000002619d .LASF6595
     /tmp/cc7R4ZW9.s:107102  .debug_str:0000000000044e1a .LASF6596
     /tmp/cc7R4ZW9.s:92884  .debug_str:000000000000ac15 .LASF6597
     /tmp/cc7R4ZW9.s:96658  .debug_str:0000000000019ab9 .LASF6598
     /tmp/cc7R4ZW9.s:95216  .debug_str:0000000000013deb .LASF6599
     /tmp/cc7R4ZW9.s:91132  .debug_str:000000000000352d .LASF6600
     /tmp/cc7R4ZW9.s:102492  .debug_str:0000000000031a9e .LASF6601
     /tmp/cc7R4ZW9.s:105374  .debug_str:000000000003d662 .LASF6602
     /tmp/cc7R4ZW9.s:93028  .debug_str:000000000000b6d2 .LASF6603
     /tmp/cc7R4ZW9.s:91394  .debug_str:00000000000046ee .LASF6604
     /tmp/cc7R4ZW9.s:103238  .debug_str:0000000000034d54 .LASF6605
     /tmp/cc7R4ZW9.s:108798  .debug_str:000000000004bee5 .LASF6606
     /tmp/cc7R4ZW9.s:98226  .debug_str:0000000000020a0e .LASF6607
     /tmp/cc7R4ZW9.s:94312  .debug_str:000000000001046b .LASF6608
     /tmp/cc7R4ZW9.s:97358  .debug_str:000000000001cc3f .LASF6609
     /tmp/cc7R4ZW9.s:100314  .debug_str:0000000000028fc1 .LASF6610
     /tmp/cc7R4ZW9.s:94628  .debug_str:0000000000011667 .LASF6611
     /tmp/cc7R4ZW9.s:100574  .debug_str:000000000002a0a1 .LASF6612
     /tmp/cc7R4ZW9.s:98766  .debug_str:0000000000022d10 .LASF6613
     /tmp/cc7R4ZW9.s:90488  .debug_str:00000000000008ae .LASF6614
     /tmp/cc7R4ZW9.s:104588  .debug_str:000000000003a099 .LASF6615
     /tmp/cc7R4ZW9.s:97644  .debug_str:000000000001dffe .LASF6616
     /tmp/cc7R4ZW9.s:106470  .debug_str:00000000000423e3 .LASF6617
     /tmp/cc7R4ZW9.s:108688  .debug_str:000000000004b75a .LASF6618
     /tmp/cc7R4ZW9.s:92150  .debug_str:0000000000007a4e .LASF6619
     /tmp/cc7R4ZW9.s:104744  .debug_str:000000000003ab67 .LASF6620
     /tmp/cc7R4ZW9.s:99890  .debug_str:0000000000027338 .LASF6621
     /tmp/cc7R4ZW9.s:107176  .debug_str:0000000000045305 .LASF6622
     /tmp/cc7R4ZW9.s:100536  .debug_str:0000000000029de0 .LASF6623
     /tmp/cc7R4ZW9.s:106754  .debug_str:000000000004377f .LASF6624
     /tmp/cc7R4ZW9.s:105532  .debug_str:000000000003e207 .LASF6625
     /tmp/cc7R4ZW9.s:97158  .debug_str:000000000001bd84 .LASF6626
     /tmp/cc7R4ZW9.s:99892  .debug_str:0000000000027341 .LASF6627
     /tmp/cc7R4ZW9.s:108008  .debug_str:00000000000489f3 .LASF6628
     /tmp/cc7R4ZW9.s:96798  .debug_str:000000000001a442 .LASF6629
     /tmp/cc7R4ZW9.s:103622  .debug_str:0000000000036811 .LASF6630
     /tmp/cc7R4ZW9.s:98832  .debug_str:0000000000023140 .LASF6631
     /tmp/cc7R4ZW9.s:104116  .debug_str:00000000000386af .LASF6632
     /tmp/cc7R4ZW9.s:97824  .debug_str:000000000001ec91 .LASF6633
     /tmp/cc7R4ZW9.s:102626  .debug_str:00000000000322f3 .LASF6634
     /tmp/cc7R4ZW9.s:99894  .debug_str:000000000002734a .LASF6635
     /tmp/cc7R4ZW9.s:98266  .debug_str:0000000000020c50 .LASF6636
     /tmp/cc7R4ZW9.s:93722  .debug_str:000000000000e3b6 .LASF6637
     /tmp/cc7R4ZW9.s:108826  .debug_str:000000000004c0b4 .LASF6638
     /tmp/cc7R4ZW9.s:101824  .debug_str:000000000002ef6b .LASF6639
     /tmp/cc7R4ZW9.s:99896  .debug_str:0000000000027353 .LASF6640
     /tmp/cc7R4ZW9.s:91072  .debug_str:0000000000003197 .LASF6641
     /tmp/cc7R4ZW9.s:93090  .debug_str:000000000000bb0c .LASF6642
     /tmp/cc7R4ZW9.s:100588  .debug_str:000000000002a18a .LASF6643
     /tmp/cc7R4ZW9.s:96700  .debug_str:0000000000019da1 .LASF6644
     /tmp/cc7R4ZW9.s:104636  .debug_str:000000000003a3fa .LASF6645
     /tmp/cc7R4ZW9.s:104920  .debug_str:000000000003b80e .LASF6646
     /tmp/cc7R4ZW9.s:95372  .debug_str:00000000000147b5 .LASF6647
     /tmp/cc7R4ZW9.s:97940  .debug_str:000000000001f4b0 .LASF6648
     /tmp/cc7R4ZW9.s:100638  .debug_str:000000000002a520 .LASF6649
     /tmp/cc7R4ZW9.s:99900  .debug_str:0000000000027376 .LASF6650
     /tmp/cc7R4ZW9.s:92052  .debug_str:0000000000007427 .LASF6651
     /tmp/cc7R4ZW9.s:109436  .debug_str:000000000004eb34 .LASF6652
     /tmp/cc7R4ZW9.s:101632  .debug_str:000000000002e26e .LASF6653
     /tmp/cc7R4ZW9.s:102286  .debug_str:0000000000030de6 .LASF6654
     /tmp/cc7R4ZW9.s:103718  .debug_str:0000000000036e9c .LASF6655
     /tmp/cc7R4ZW9.s:98350  .debug_str:0000000000021136 .LASF6656
     /tmp/cc7R4ZW9.s:97948  .debug_str:000000000001f557 .LASF6657
     /tmp/cc7R4ZW9.s:95840  .debug_str:0000000000016490 .LASF6658
     /tmp/cc7R4ZW9.s:106590  .debug_str:0000000000042cbb .LASF6659
     /tmp/cc7R4ZW9.s:92508  .debug_str:000000000000921a .LASF6660
     /tmp/cc7R4ZW9.s:103742  .debug_str:0000000000036fbc .LASF6661
     /tmp/cc7R4ZW9.s:105724  .debug_str:000000000003ee1e .LASF6662
     /tmp/cc7R4ZW9.s:106536  .debug_str:000000000004291b .LASF6663
     /tmp/cc7R4ZW9.s:98316  .debug_str:0000000000020f2f .LASF6664
     /tmp/cc7R4ZW9.s:108702  .debug_str:000000000004b88f .LASF6665
     /tmp/cc7R4ZW9.s:100068  .debug_str:0000000000027eb1 .LASF6666
     /tmp/cc7R4ZW9.s:93410  .debug_str:000000000000d0cf .LASF6667
     /tmp/cc7R4ZW9.s:101418  .debug_str:000000000002d4ac .LASF6668
     /tmp/cc7R4ZW9.s:92928  .debug_str:000000000000af8a .LASF6669
     /tmp/cc7R4ZW9.s:108006  .debug_str:00000000000489d0 .LASF6670
     /tmp/cc7R4ZW9.s:93512  .debug_str:000000000000d7b1 .LASF6671
     /tmp/cc7R4ZW9.s:102906  .debug_str:0000000000033671 .LASF6672
     /tmp/cc7R4ZW9.s:103302  .debug_str:00000000000350ec .LASF6673
     /tmp/cc7R4ZW9.s:99796  .debug_str:0000000000026d3a .LASF6674
     /tmp/cc7R4ZW9.s:99454  .debug_str:000000000002597d .LASF6675
     /tmp/cc7R4ZW9.s:101422  .debug_str:000000000002d4f0 .LASF6676
     /tmp/cc7R4ZW9.s:90590  .debug_str:0000000000000f9b .LASF6677
     /tmp/cc7R4ZW9.s:92522  .debug_str:0000000000009395 .LASF6678
     /tmp/cc7R4ZW9.s:106182  .debug_str:0000000000040b86 .LASF6679
     /tmp/cc7R4ZW9.s:105306  .debug_str:000000000003d1f4 .LASF6680
     /tmp/cc7R4ZW9.s:105690  .debug_str:000000000003ecc0 .LASF6681
     /tmp/cc7R4ZW9.s:107356  .debug_str:0000000000045eb2 .LASF6682
     /tmp/cc7R4ZW9.s:106334  .debug_str:000000000004182c .LASF6683
     /tmp/cc7R4ZW9.s:108646  .debug_str:000000000004b46b .LASF6684
     /tmp/cc7R4ZW9.s:102432  .debug_str:0000000000031663 .LASF6685
     /tmp/cc7R4ZW9.s:105028  .debug_str:000000000003bee1 .LASF6686
     /tmp/cc7R4ZW9.s:92124  .debug_str:00000000000078d6 .LASF6687
     /tmp/cc7R4ZW9.s:97598  .debug_str:000000000001dcc1 .LASF6688
     /tmp/cc7R4ZW9.s:92528  .debug_str:00000000000093dd .LASF6689
     /tmp/cc7R4ZW9.s:96600  .debug_str:00000000000196fb .LASF6690
     /tmp/cc7R4ZW9.s:90542  .debug_str:0000000000000c50 .LASF6691
     /tmp/cc7R4ZW9.s:106424  .debug_str:0000000000042048 .LASF6692
     /tmp/cc7R4ZW9.s:98118  .debug_str:00000000000201ca .LASF6693
     /tmp/cc7R4ZW9.s:107328  .debug_str:0000000000045d4b .LASF6694
     /tmp/cc7R4ZW9.s:109538  .debug_str:000000000004f210 .LASF6695
     /tmp/cc7R4ZW9.s:94822  .debug_str:00000000000123df .LASF6696
     /tmp/cc7R4ZW9.s:105362  .debug_str:000000000003d537 .LASF6697
     /tmp/cc7R4ZW9.s:93340  .debug_str:000000000000cc54 .LASF6698
     /tmp/cc7R4ZW9.s:104090  .debug_str:0000000000038636 .LASF6699
     /tmp/cc7R4ZW9.s:97572  .debug_str:000000000001da9c .LASF6700
     /tmp/cc7R4ZW9.s:101164  .debug_str:000000000002c564 .LASF6701
     /tmp/cc7R4ZW9.s:106986  .debug_str:000000000004467c .LASF6702
     /tmp/cc7R4ZW9.s:92662  .debug_str:0000000000009de0 .LASF6703
     /tmp/cc7R4ZW9.s:101166  .debug_str:000000000002c574 .LASF6704
     /tmp/cc7R4ZW9.s:90470  .debug_str:0000000000000793 .LASF6705
     /tmp/cc7R4ZW9.s:107464  .debug_str:0000000000046625 .LASF6706
     /tmp/cc7R4ZW9.s:97376  .debug_str:000000000001cd40 .LASF6707
     /tmp/cc7R4ZW9.s:94404  .debug_str:0000000000010955 .LASF6708
     /tmp/cc7R4ZW9.s:107914  .debug_str:00000000000483ad .LASF6709
     /tmp/cc7R4ZW9.s:102454  .debug_str:0000000000031846 .LASF6710
     /tmp/cc7R4ZW9.s:97444  .debug_str:000000000001d1c7 .LASF6711
     /tmp/cc7R4ZW9.s:103226  .debug_str:0000000000034c2a .LASF6712
     /tmp/cc7R4ZW9.s:95896  .debug_str:000000000001682c .LASF6713
     /tmp/cc7R4ZW9.s:96844  .debug_str:000000000001a7a2 .LASF6714
     /tmp/cc7R4ZW9.s:100122  .debug_str:0000000000028265 .LASF6715
     /tmp/cc7R4ZW9.s:104166  .debug_str:0000000000038a79 .LASF6716
     /tmp/cc7R4ZW9.s:99636  .debug_str:000000000002631f .LASF6717
     /tmp/cc7R4ZW9.s:92826  .debug_str:000000000000a89f .LASF6718
     /tmp/cc7R4ZW9.s:102998  .debug_str:0000000000033d39 .LASF6719
     /tmp/cc7R4ZW9.s:96324  .debug_str:0000000000018569 .LASF6720
     /tmp/cc7R4ZW9.s:109382  .debug_str:000000000004e7b9 .LASF6721
     /tmp/cc7R4ZW9.s:103000  .debug_str:0000000000033d45 .LASF6722
     /tmp/cc7R4ZW9.s:105704  .debug_str:000000000003ed81 .LASF6723
     /tmp/cc7R4ZW9.s:103318  .debug_str:00000000000351ff .LASF6724
     /tmp/cc7R4ZW9.s:103002  .debug_str:0000000000033d51 .LASF6725
     /tmp/cc7R4ZW9.s:105706  .debug_str:000000000003ed87 .LASF6726
     /tmp/cc7R4ZW9.s:97090  .debug_str:000000000001b846 .LASF6727
     /tmp/cc7R4ZW9.s:100996  .debug_str:000000000002bb5f .LASF6728
     /tmp/cc7R4ZW9.s:106344  .debug_str:00000000000418e4 .LASF6729
     /tmp/cc7R4ZW9.s:105452  .debug_str:000000000003dbfd .LASF6730
     /tmp/cc7R4ZW9.s:100998  .debug_str:000000000002bb69 .LASF6731
     /tmp/cc7R4ZW9.s:105710  .debug_str:000000000003ed99 .LASF6732
     /tmp/cc7R4ZW9.s:92262  .debug_str:0000000000008137 .LASF6733
     /tmp/cc7R4ZW9.s:108090  .debug_str:0000000000048eed .LASF6734
     /tmp/cc7R4ZW9.s:105712  .debug_str:000000000003ed9f .LASF6735
     /tmp/cc7R4ZW9.s:98056  .debug_str:000000000001fc9b .LASF6736
     /tmp/cc7R4ZW9.s:101002  .debug_str:000000000002bb88 .LASF6737
     /tmp/cc7R4ZW9.s:96342  .debug_str:0000000000018671 .LASF6738
     /tmp/cc7R4ZW9.s:98740  .debug_str:0000000000022b5b .LASF6739
     /tmp/cc7R4ZW9.s:109156  .debug_str:000000000004d6a5 .LASF6740
     /tmp/cc7R4ZW9.s:105716  .debug_str:000000000003edd7 .LASF6741
     /tmp/cc7R4ZW9.s:105224  .debug_str:000000000003cc64 .LASF6742
     /tmp/cc7R4ZW9.s:106012  .debug_str:0000000000040073 .LASF6743
     /tmp/cc7R4ZW9.s:105718  .debug_str:000000000003eddd .LASF6744
     /tmp/cc7R4ZW9.s:98288  .debug_str:0000000000020d7e .LASF6745
     /tmp/cc7R4ZW9.s:90938  .debug_str:00000000000028ce .LASF6746
     /tmp/cc7R4ZW9.s:96394  .debug_str:00000000000189de .LASF6747
     /tmp/cc7R4ZW9.s:94686  .debug_str:0000000000011a5c .LASF6748
     /tmp/cc7R4ZW9.s:90940  .debug_str:00000000000028d9 .LASF6749
     /tmp/cc7R4ZW9.s:96396  .debug_str:00000000000189e5 .LASF6750
     /tmp/cc7R4ZW9.s:108004  .debug_str:00000000000489af .LASF6751
     /tmp/cc7R4ZW9.s:105514  .debug_str:000000000003e0d4 .LASF6752
     /tmp/cc7R4ZW9.s:94392  .debug_str:0000000000010881 .LASF6753
     /tmp/cc7R4ZW9.s:106990  .debug_str:0000000000044699 .LASF6754
     /tmp/cc7R4ZW9.s:105516  .debug_str:000000000003e0dd .LASF6755
     /tmp/cc7R4ZW9.s:96400  .debug_str:00000000000189f3 .LASF6756
     /tmp/cc7R4ZW9.s:95684  .debug_str:0000000000015ae4 .LASF6757
     /tmp/cc7R4ZW9.s:105518  .debug_str:000000000003e0e6 .LASF6758
     /tmp/cc7R4ZW9.s:96402  .debug_str:00000000000189fa .LASF6759
     /tmp/cc7R4ZW9.s:108946  .debug_str:000000000004c88a .LASF6760
     /tmp/cc7R4ZW9.s:105520  .debug_str:000000000003e0ef .LASF6761
     /tmp/cc7R4ZW9.s:95432  .debug_str:0000000000014b8a .LASF6762
     /tmp/cc7R4ZW9.s:102888  .debug_str:0000000000033533 .LASF6763
     /tmp/cc7R4ZW9.s:105316  .debug_str:000000000003d2b4 .LASF6764
     /tmp/cc7R4ZW9.s:95436  .debug_str:0000000000014bba .LASF6765
     /tmp/cc7R4ZW9.s:96666  .debug_str:0000000000019b26 .LASF6766
     /tmp/cc7R4ZW9.s:106134  .debug_str:00000000000407e7 .LASF6767
     /tmp/cc7R4ZW9.s:103854  .debug_str:000000000003770a .LASF6768
     /tmp/cc7R4ZW9.s:92612  .debug_str:00000000000099f8 .LASF6769
     /tmp/cc7R4ZW9.s:96310  .debug_str:0000000000018460 .LASF6770
     /tmp/cc7R4ZW9.s:103856  .debug_str:0000000000037710 .LASF6771
     /tmp/cc7R4ZW9.s:105972  .debug_str:000000000003fe15 .LASF6772
     /tmp/cc7R4ZW9.s:93886  .debug_str:000000000000ece9 .LASF6773
     /tmp/cc7R4ZW9.s:103858  .debug_str:0000000000037716 .LASF6774
     /tmp/cc7R4ZW9.s:99848  .debug_str:00000000000270bd .LASF6775
     /tmp/cc7R4ZW9.s:102974  .debug_str:0000000000033b2d .LASF6776
     /tmp/cc7R4ZW9.s:103922  .debug_str:0000000000037bde .LASF6777
     /tmp/cc7R4ZW9.s:103822  .debug_str:000000000003753f .LASF6778
     /tmp/cc7R4ZW9.s:90830  .debug_str:000000000000213b .LASF6779
     /tmp/cc7R4ZW9.s:103924  .debug_str:0000000000037be4 .LASF6780
     /tmp/cc7R4ZW9.s:105994  .debug_str:000000000003ff66 .LASF6781
     /tmp/cc7R4ZW9.s:106396  .debug_str:0000000000041c11 .LASF6782
     /tmp/cc7R4ZW9.s:103926  .debug_str:0000000000037bea .LASF6783
     /tmp/cc7R4ZW9.s:99868  .debug_str:00000000000271f9 .LASF6784
     /tmp/cc7R4ZW9.s:98314  .debug_str:0000000000020f21 .LASF6785
     /tmp/cc7R4ZW9.s:103928  .debug_str:0000000000037bf0 .LASF6786
     /tmp/cc7R4ZW9.s:93594  .debug_str:000000000000dca7 .LASF6787
     /tmp/cc7R4ZW9.s:98318  .debug_str:0000000000020f52 .LASF6788
     /tmp/cc7R4ZW9.s:103930  .debug_str:0000000000037bf6 .LASF6789
     /tmp/cc7R4ZW9.s:107012  .debug_str:0000000000044846 .LASF6790
     /tmp/cc7R4ZW9.s:101572  .debug_str:000000000002de84 .LASF6791
     /tmp/cc7R4ZW9.s:103932  .debug_str:0000000000037bfc .LASF6792
     /tmp/cc7R4ZW9.s:100912  .debug_str:000000000002b62d .LASF6793
     /tmp/cc7R4ZW9.s:109134  .debug_str:000000000004d54a .LASF6794
     /tmp/cc7R4ZW9.s:103934  .debug_str:0000000000037c02 .LASF6795
     /tmp/cc7R4ZW9.s:94662  .debug_str:00000000000118af .LASF6796
     /tmp/cc7R4ZW9.s:102486  .debug_str:0000000000031a66 .LASF6797
     /tmp/cc7R4ZW9.s:103936  .debug_str:0000000000037c08 .LASF6798
     /tmp/cc7R4ZW9.s:109270  .debug_str:000000000004dfd0 .LASF6799
     /tmp/cc7R4ZW9.s:102938  .debug_str:0000000000033904 .LASF6800
     /tmp/cc7R4ZW9.s:100866  .debug_str:000000000002b2f2 .LASF6801
     /tmp/cc7R4ZW9.s:101900  .debug_str:000000000002f4cb .LASF6802
     /tmp/cc7R4ZW9.s:96058  .debug_str:0000000000017317 .LASF6803
     /tmp/cc7R4ZW9.s:103940  .debug_str:0000000000037c2f .LASF6804
     /tmp/cc7R4ZW9.s:95664  .debug_str:00000000000159a1 .LASF6805
     /tmp/cc7R4ZW9.s:102902  .debug_str:000000000003363a .LASF6806
     /tmp/cc7R4ZW9.s:104014  .debug_str:0000000000038199 .LASF6807
     /tmp/cc7R4ZW9.s:108000  .debug_str:0000000000048989 .LASF6808
     /tmp/cc7R4ZW9.s:103734  .debug_str:0000000000036f3b .LASF6809
     /tmp/cc7R4ZW9.s:104016  .debug_str:000000000003819f .LASF6810
     /tmp/cc7R4ZW9.s:101920  .debug_str:000000000002f603 .LASF6811
     /tmp/cc7R4ZW9.s:91236  .debug_str:0000000000003bff .LASF6812
     /tmp/cc7R4ZW9.s:104018  .debug_str:00000000000381a5 .LASF6813
     /tmp/cc7R4ZW9.s:95682  .debug_str:0000000000015ac4 .LASF6814
     /tmp/cc7R4ZW9.s:94446  .debug_str:0000000000010b4e .LASF6815
     /tmp/cc7R4ZW9.s:104020  .debug_str:00000000000381ab .LASF6816
     /tmp/cc7R4ZW9.s:108942  .debug_str:000000000004c854 .LASF6817
     /tmp/cc7R4ZW9.s:94448  .debug_str:0000000000010b58 .LASF6818
     /tmp/cc7R4ZW9.s:104022  .debug_str:00000000000381b1 .LASF6819
     /tmp/cc7R4ZW9.s:91258  .debug_str:0000000000003d45 .LASF6820
     /tmp/cc7R4ZW9.s:100220  .debug_str:00000000000288f8 .LASF6821
     /tmp/cc7R4ZW9.s:101030  .debug_str:000000000002bcfe .LASF6822
     /tmp/cc7R4ZW9.s:93562  .debug_str:000000000000dace .LASF6823
     /tmp/cc7R4ZW9.s:109332  .debug_str:000000000004e416 .LASF6824
     /tmp/cc7R4ZW9.s:104026  .debug_str:00000000000381c6 .LASF6825
     /tmp/cc7R4ZW9.s:90476  .debug_str:00000000000007e2 .LASF6826
     /tmp/cc7R4ZW9.s:109336  .debug_str:000000000004e44f .LASF6827
     /tmp/cc7R4ZW9.s:104028  .debug_str:00000000000381cc .LASF6828
     /tmp/cc7R4ZW9.s:103836  .debug_str:000000000003760f .LASF6829
     /tmp/cc7R4ZW9.s:94224  .debug_str:000000000000ffec .LASF6830
     /tmp/cc7R4ZW9.s:104030  .debug_str:00000000000381d2 .LASF6831
     /tmp/cc7R4ZW9.s:97624  .debug_str:000000000001de98 .LASF6832
     /tmp/cc7R4ZW9.s:109734  .debug_str:000000000004feec .LASF6833
     /tmp/cc7R4ZW9.s:104032  .debug_str:00000000000381d8 .LASF6834
     /tmp/cc7R4ZW9.s:91422  .debug_str:00000000000048df .LASF6835
     /tmp/cc7R4ZW9.s:102912  .debug_str:00000000000336f3 .LASF6836
     /tmp/cc7R4ZW9.s:104094  .debug_str:0000000000038659 .LASF6837
     /tmp/cc7R4ZW9.s:103864  .debug_str:000000000003775a .LASF6838
     /tmp/cc7R4ZW9.s:99948  .debug_str:00000000000276a9 .LASF6839
     /tmp/cc7R4ZW9.s:104096  .debug_str:000000000003865f .LASF6840
     /tmp/cc7R4ZW9.s:97646  .debug_str:000000000001e00e .LASF6841
     /tmp/cc7R4ZW9.s:91284  .debug_str:0000000000003f27 .LASF6842
     /tmp/cc7R4ZW9.s:104098  .debug_str:0000000000038665 .LASF6843
     /tmp/cc7R4ZW9.s:91438  .debug_str:0000000000004a65 .LASF6844
     /tmp/cc7R4ZW9.s:95708  .debug_str:0000000000015ceb .LASF6845
     /tmp/cc7R4ZW9.s:104100  .debug_str:000000000003866b .LASF6846
     /tmp/cc7R4ZW9.s:104878  .debug_str:000000000003b490 .LASF6847
     /tmp/cc7R4ZW9.s:95710  .debug_str:0000000000015cf7 .LASF6848
     /tmp/cc7R4ZW9.s:104102  .debug_str:0000000000038671 .LASF6849
     /tmp/cc7R4ZW9.s:98638  .debug_str:000000000002257c .LASF6850
     /tmp/cc7R4ZW9.s:95946  .debug_str:0000000000016bea .LASF6851
     /tmp/cc7R4ZW9.s:104104  .debug_str:0000000000038677 .LASF6852
     /tmp/cc7R4ZW9.s:92374  .debug_str:0000000000008948 .LASF6853
     /tmp/cc7R4ZW9.s:91084  .debug_str:000000000000322f .LASF6854
     /tmp/cc7R4ZW9.s:104106  .debug_str:000000000003867d .LASF6855
     /tmp/cc7R4ZW9.s:105726  .debug_str:000000000003ee29 .LASF6856
     /tmp/cc7R4ZW9.s:91088  .debug_str:000000000000327b .LASF6857
     /tmp/cc7R4ZW9.s:104108  .debug_str:0000000000038683 .LASF6858
     /tmp/cc7R4ZW9.s:99596  .debug_str:000000000002600e .LASF6859
     /tmp/cc7R4ZW9.s:99710  .debug_str:0000000000026787 .LASF6860
     /tmp/cc7R4ZW9.s:104110  .debug_str:0000000000038689 .LASF6861
     /tmp/cc7R4ZW9.s:93344  .debug_str:000000000000cc95 .LASF6862
     /tmp/cc7R4ZW9.s:99200  .debug_str:0000000000024aa6 .LASF6863
     /tmp/cc7R4ZW9.s:104112  .debug_str:000000000003868f .LASF6864
     /tmp/cc7R4ZW9.s:106730  .debug_str:00000000000435c5 .LASF6865
     /tmp/cc7R4ZW9.s:109402  .debug_str:000000000004e946 .LASF6866
     /tmp/cc7R4ZW9.s:104172  .debug_str:0000000000038adc .LASF6867
     /tmp/cc7R4ZW9.s:99620  .debug_str:0000000000026222 .LASF6868
     /tmp/cc7R4ZW9.s:98792  .debug_str:0000000000022edb .LASF6869
     /tmp/cc7R4ZW9.s:101344  .debug_str:000000000002d06d .LASF6870
     /tmp/cc7R4ZW9.s:93366  .debug_str:000000000000ce04 .LASF6871
     /tmp/cc7R4ZW9.s:104848  .debug_str:000000000003b2ac .LASF6872
     /tmp/cc7R4ZW9.s:104176  .debug_str:0000000000038aed .LASF6873
     /tmp/cc7R4ZW9.s:106752  .debug_str:000000000004375f .LASF6874
     /tmp/cc7R4ZW9.s:97772  .debug_str:000000000001e8f7 .LASF6875
     /tmp/cc7R4ZW9.s:104178  .debug_str:0000000000038af3 .LASF6876
     /tmp/cc7R4ZW9.s:100636  .debug_str:000000000002a500 .LASF6877
     /tmp/cc7R4ZW9.s:95798  .debug_str:00000000000161d3 .LASF6878
     /tmp/cc7R4ZW9.s:104180  .debug_str:0000000000038af9 .LASF6879
     /tmp/cc7R4ZW9.s:94376  .debug_str:00000000000107b3 .LASF6880
     /tmp/cc7R4ZW9.s:95802  .debug_str:00000000000161f0 .LASF6881
     /tmp/cc7R4ZW9.s:104182  .debug_str:0000000000038aff .LASF6882
     /tmp/cc7R4ZW9.s:107716  .debug_str:00000000000475b3 .LASF6883
     /tmp/cc7R4ZW9.s:105728  .debug_str:000000000003ee49 .LASF6884
     /tmp/cc7R4ZW9.s:104184  .debug_str:0000000000038b05 .LASF6885
     /tmp/cc7R4ZW9.s:101666  .debug_str:000000000002e468 .LASF6886
     /tmp/cc7R4ZW9.s:90554  .debug_str:0000000000000d1a .LASF6887
     /tmp/cc7R4ZW9.s:104186  .debug_str:0000000000038b0b .LASF6888
     /tmp/cc7R4ZW9.s:95410  .debug_str:0000000000014a1a .LASF6889
     /tmp/cc7R4ZW9.s:91168  .debug_str:000000000000372f .LASF6890
     /tmp/cc7R4ZW9.s:104188  .debug_str:0000000000038b11 .LASF6891
     /tmp/cc7R4ZW9.s:108666  .debug_str:000000000004b5e2 .LASF6892
     /tmp/cc7R4ZW9.s:102816  .debug_str:000000000003305c .LASF6893
     /tmp/cc7R4ZW9.s:101362  .debug_str:000000000002d18f .LASF6894
     /tmp/cc7R4ZW9.s:102612  .debug_str:0000000000032201 .LASF6895
     /tmp/cc7R4ZW9.s:101018  .debug_str:000000000002bc50 .LASF6896
     /tmp/cc7R4ZW9.s:104274  .debug_str:0000000000039047 .LASF6897
     /tmp/cc7R4ZW9.s:95594  .debug_str:0000000000015525 .LASF6898
     /tmp/cc7R4ZW9.s:101020  .debug_str:000000000002bc5e .LASF6899
     /tmp/cc7R4ZW9.s:104276  .debug_str:000000000003904d .LASF6900
     /tmp/cc7R4ZW9.s:108864  .debug_str:000000000004c341 .LASF6901
     /tmp/cc7R4ZW9.s:94560  .debug_str:00000000000112b3 .LASF6902
     /tmp/cc7R4ZW9.s:104278  .debug_str:0000000000039053 .LASF6903
     /tmp/cc7R4ZW9.s:102808  .debug_str:0000000000033005 .LASF6904
     /tmp/cc7R4ZW9.s:96332  .debug_str:00000000000185eb .LASF6905
     /tmp/cc7R4ZW9.s:104280  .debug_str:0000000000039059 .LASF6906
     /tmp/cc7R4ZW9.s:96568  .debug_str:000000000001948a .LASF6907
     /tmp/cc7R4ZW9.s:96336  .debug_str:0000000000018633 .LASF6908
     /tmp/cc7R4ZW9.s:104282  .debug_str:000000000003905f .LASF6909
     /tmp/cc7R4ZW9.s:90390  .debug_str:00000000000001e5 .LASF6910
     /tmp/cc7R4ZW9.s:95868  .debug_str:000000000001661b .LASF6911
     /tmp/cc7R4ZW9.s:104284  .debug_str:0000000000039065 .LASF6912
     /tmp/cc7R4ZW9.s:106386  .debug_str:0000000000041b6a .LASF6913
     /tmp/cc7R4ZW9.s:94212  .debug_str:000000000000ff4e .LASF6914
     /tmp/cc7R4ZW9.s:104286  .debug_str:000000000003906b .LASF6915
     /tmp/cc7R4ZW9.s:97560  .debug_str:000000000001d999 .LASF6916
     /tmp/cc7R4ZW9.s:102062  .debug_str:000000000002ff6c .LASF6917
     /tmp/cc7R4ZW9.s:104288  .debug_str:0000000000039071 .LASF6918
     /tmp/cc7R4ZW9.s:91338  .debug_str:0000000000004319 .LASF6919
     /tmp/cc7R4ZW9.s:107634  .debug_str:00000000000470da .LASF6920
     /tmp/cc7R4ZW9.s:104290  .debug_str:0000000000039077 .LASF6921
     /tmp/cc7R4ZW9.s:104792  .debug_str:000000000003aeac .LASF6922
     /tmp/cc7R4ZW9.s:109120  .debug_str:000000000004d4b4 .LASF6923
     /tmp/cc7R4ZW9.s:104292  .debug_str:000000000003907d .LASF6924
     /tmp/cc7R4ZW9.s:98550  .debug_str:0000000000021f8a .LASF6925
     /tmp/cc7R4ZW9.s:98714  .debug_str:000000000002299b .LASF6926
     /tmp/cc7R4ZW9.s:104348  .debug_str:0000000000039406 .LASF6927
     /tmp/cc7R4ZW9.s:91362  .debug_str:0000000000004548 .LASF6928
     /tmp/cc7R4ZW9.s:100840  .debug_str:000000000002b19f .LASF6929
     /tmp/cc7R4ZW9.s:104350  .debug_str:000000000003940c .LASF6930
     /tmp/cc7R4ZW9.s:104810  .debug_str:000000000003afce .LASF6931
     /tmp/cc7R4ZW9.s:105290  .debug_str:000000000003d110 .LASF6932
     /tmp/cc7R4ZW9.s:104352  .debug_str:0000000000039412 .LASF6933
     /tmp/cc7R4ZW9.s:98568  .debug_str:0000000000022091 .LASF6934
     /tmp/cc7R4ZW9.s:105294  .debug_str:000000000003d136 .LASF6935
     /tmp/cc7R4ZW9.s:104354  .debug_str:0000000000039418 .LASF6936
     /tmp/cc7R4ZW9.s:92298  .debug_str:00000000000083c7 .LASF6937
     /tmp/cc7R4ZW9.s:103274  .debug_str:0000000000034f4f .LASF6938
     /tmp/cc7R4ZW9.s:104356  .debug_str:000000000003941e .LASF6939
     /tmp/cc7R4ZW9.s:105646  .debug_str:000000000003e9a4 .LASF6940
     /tmp/cc7R4ZW9.s:96998  .debug_str:000000000001b274 .LASF6941
     /tmp/cc7R4ZW9.s:104358  .debug_str:0000000000039424 .LASF6942
     /tmp/cc7R4ZW9.s:99504  .debug_str:0000000000025b92 .LASF6943
     /tmp/cc7R4ZW9.s:97002  .debug_str:000000000001b2a1 .LASF6944
     /tmp/cc7R4ZW9.s:104360  .debug_str:000000000003942a .LASF6945
     /tmp/cc7R4ZW9.s:93258  .debug_str:000000000000c681 .LASF6946
     /tmp/cc7R4ZW9.s:96984  .debug_str:000000000001b189 .LASF6947
     /tmp/cc7R4ZW9.s:104362  .debug_str:0000000000039430 .LASF6948
     /tmp/cc7R4ZW9.s:106636  .debug_str:0000000000042f43 .LASF6949
     /tmp/cc7R4ZW9.s:90916  .debug_str:0000000000002712 .LASF6950
     /tmp/cc7R4ZW9.s:104364  .debug_str:0000000000039436 .LASF6951
     /tmp/cc7R4ZW9.s:100532  .debug_str:0000000000029da5 .LASF6952
     /tmp/cc7R4ZW9.s:90918  .debug_str:000000000000271f .LASF6953
     /tmp/cc7R4ZW9.s:104366  .debug_str:000000000003943c .LASF6954
     /tmp/cc7R4ZW9.s:102406  .debug_str:00000000000314e6 .LASF6955
     /tmp/cc7R4ZW9.s:105988  .debug_str:000000000003ff12 .LASF6956
     /tmp/cc7R4ZW9.s:104428  .debug_str:0000000000039803 .LASF6957
     /tmp/cc7R4ZW9.s:106670  .debug_str:0000000000043173 .LASF6958
     /tmp/cc7R4ZW9.s:109598  .debug_str:000000000004f595 .LASF6959
     /tmp/cc7R4ZW9.s:104430  .debug_str:0000000000039809 .LASF6960
     /tmp/cc7R4ZW9.s:100554  .debug_str:0000000000029f2b .LASF6961
     /tmp/cc7R4ZW9.s:105774  .debug_str:000000000003f16a .LASF6962
     /tmp/cc7R4ZW9.s:104432  .debug_str:000000000003980f .LASF6963
     /tmp/cc7R4ZW9.s:94296  .debug_str:0000000000010370 .LASF6964
     /tmp/cc7R4ZW9.s:91728  .debug_str:0000000000005d13 .LASF6965
     /tmp/cc7R4ZW9.s:104434  .debug_str:0000000000039815 .LASF6966
     /tmp/cc7R4ZW9.s:107640  .debug_str:0000000000047129 .LASF6967
     /tmp/cc7R4ZW9.s:100716  .debug_str:000000000002a98d .LASF6968
     /tmp/cc7R4ZW9.s:104436  .debug_str:000000000003981b .LASF6969
     /tmp/cc7R4ZW9.s:101584  .debug_str:000000000002df40 .LASF6970
     /tmp/cc7R4ZW9.s:104320  .debug_str:0000000000039266 .LASF6971
     /tmp/cc7R4ZW9.s:104438  .debug_str:0000000000039821 .LASF6972
     /tmp/cc7R4ZW9.s:95324  .debug_str:0000000000014492 .LASF6973
     /tmp/cc7R4ZW9.s:99874  .debug_str:000000000002725a .LASF6974
     /tmp/cc7R4ZW9.s:104440  .debug_str:0000000000039827 .LASF6975
     /tmp/cc7R4ZW9.s:108582  .debug_str:000000000004afbc .LASF6976
     /tmp/cc7R4ZW9.s:96052  .debug_str:00000000000172ea .LASF6977
     /tmp/cc7R4ZW9.s:104442  .debug_str:000000000003982d .LASF6978
     /tmp/cc7R4ZW9.s:102526  .debug_str:0000000000031c87 .LASF6979
     /tmp/cc7R4ZW9.s:96056  .debug_str:000000000001730b .LASF6980
     /tmp/cc7R4ZW9.s:104444  .debug_str:0000000000039833 .LASF6981
     /tmp/cc7R4ZW9.s:96306  .debug_str:0000000000018420 .LASF6982
     /tmp/cc7R4ZW9.s:99924  .debug_str:00000000000274a2 .LASF6983
     /tmp/cc7R4ZW9.s:104446  .debug_str:0000000000039839 .LASF6984
     /tmp/cc7R4ZW9.s:109580  .debug_str:000000000004f493 .LASF6985
     /tmp/cc7R4ZW9.s:100244  .debug_str:0000000000028ac3 .LASF6986
     /tmp/cc7R4ZW9.s:104510  .debug_str:0000000000039c9f .LASF6987
     /tmp/cc7R4ZW9.s:102548  .debug_str:0000000000031dae .LASF6988
     /tmp/cc7R4ZW9.s:103336  .debug_str:0000000000035395 .LASF6989
     /tmp/cc7R4ZW9.s:104512  .debug_str:0000000000039ca5 .LASF6990
     /tmp/cc7R4ZW9.s:96326  .debug_str:000000000001856f .LASF6991
     /tmp/cc7R4ZW9.s:102610  .debug_str:00000000000321f3 .LASF6992
     /tmp/cc7R4ZW9.s:101984  .debug_str:000000000002fa68 .LASF6993
     /tmp/cc7R4ZW9.s:96762  .debug_str:000000000001a198 .LASF6994
     /tmp/cc7R4ZW9.s:105892  .debug_str:000000000003f8e4 .LASF6995
     /tmp/cc7R4ZW9.s:104516  .debug_str:0000000000039cc8 .LASF6996
     /tmp/cc7R4ZW9.s:103516  .debug_str:00000000000360d4 .LASF6997
     /tmp/cc7R4ZW9.s:91156  .debug_str:0000000000003651 .LASF6998
     /tmp/cc7R4ZW9.s:101990  .debug_str:000000000002fac1 .LASF6999
     /tmp/cc7R4ZW9.s:97316  .debug_str:000000000001c8f2 .LASF7000
     /tmp/cc7R4ZW9.s:96920  .debug_str:000000000001ad76 .LASF7001
     /tmp/cc7R4ZW9.s:104520  .debug_str:0000000000039cec .LASF7002
     /tmp/cc7R4ZW9.s:91114  .debug_str:000000000000346d .LASF7003
     /tmp/cc7R4ZW9.s:95132  .debug_str:00000000000138bd .LASF7004
     /tmp/cc7R4ZW9.s:104522  .debug_str:0000000000039cf2 .LASF7005
     /tmp/cc7R4ZW9.s:102744  .debug_str:0000000000032bc0 .LASF7006
     /tmp/cc7R4ZW9.s:105394  .debug_str:000000000003d7a6 .LASF7007
     /tmp/cc7R4ZW9.s:104524  .debug_str:0000000000039cf8 .LASF7008
     /tmp/cc7R4ZW9.s:98296  .debug_str:0000000000020e02 .LASF7009
     /tmp/cc7R4ZW9.s:91070  .debug_str:000000000000318c .LASF7010
     /tmp/cc7R4ZW9.s:102004  .debug_str:000000000002fb8f .LASF7011
     /tmp/cc7R4ZW9.s:92056  .debug_str:000000000000744a .LASF7012
     /tmp/cc7R4ZW9.s:99150  .debug_str:00000000000247b7 .LASF7013
     /tmp/cc7R4ZW9.s:104528  .debug_str:0000000000039d26 .LASF7014
     /tmp/cc7R4ZW9.s:105420  .debug_str:000000000003d976 .LASF7015
     /tmp/cc7R4ZW9.s:104226  .debug_str:0000000000038d9c .LASF7016
     /tmp/cc7R4ZW9.s:93824  .debug_str:000000000000e951 .LASF7017
     /tmp/cc7R4ZW9.s:92024  .debug_str:0000000000007206 .LASF7018
     /tmp/cc7R4ZW9.s:104230  .debug_str:0000000000038de3 .LASF7019
     /tmp/cc7R4ZW9.s:95110  .debug_str:0000000000013761 .LASF7020
     /tmp/cc7R4ZW9.s:105392  .debug_str:000000000003d785 .LASF7021
     /tmp/cc7R4ZW9.s:96770  .debug_str:000000000001a245 .LASF7022
     /tmp/cc7R4ZW9.s:95114  .debug_str:0000000000013787 .LASF7023
     /tmp/cc7R4ZW9.s:97042  .debug_str:000000000001b546 .LASF7024
     /tmp/cc7R4ZW9.s:99542  .debug_str:0000000000025e49 .LASF7025
     /tmp/cc7R4ZW9.s:93830  .debug_str:000000000000e9a6 .LASF7026
     /tmp/cc7R4ZW9.s:92952  .debug_str:000000000000b10a .LASF7027
     /tmp/cc7R4ZW9.s:99544  .debug_str:0000000000025e58 .LASF7028
     /tmp/cc7R4ZW9.s:93832  .debug_str:000000000000e9ad .LASF7029
     /tmp/cc7R4ZW9.s:106310  .debug_str:000000000004166f .LASF7030
     /tmp/cc7R4ZW9.s:98570  .debug_str:00000000000220b1 .LASF7031
     /tmp/cc7R4ZW9.s:93834  .debug_str:000000000000e9b4 .LASF7032
     /tmp/cc7R4ZW9.s:100204  .debug_str:00000000000287a3 .LASF7033
     /tmp/cc7R4ZW9.s:96374  .debug_str:000000000001888a .LASF7034
     /tmp/cc7R4ZW9.s:93836  .debug_str:000000000000e9bb .LASF7035
     /tmp/cc7R4ZW9.s:93938  .debug_str:000000000000ee46 .LASF7036
     /tmp/cc7R4ZW9.s:91878  .debug_str:0000000000006729 .LASF7037
     /tmp/cc7R4ZW9.s:93838  .debug_str:000000000000e9c2 .LASF7038
     /tmp/cc7R4ZW9.s:107342  .debug_str:0000000000045df4 .LASF7039
     /tmp/cc7R4ZW9.s:99768  .debug_str:0000000000026bad .LASF7040
     /tmp/cc7R4ZW9.s:93840  .debug_str:000000000000e9c9 .LASF7041
     /tmp/cc7R4ZW9.s:101228  .debug_str:000000000002c91d .LASF7042
     /tmp/cc7R4ZW9.s:99772  .debug_str:0000000000026bd0 .LASF7043
     /tmp/cc7R4ZW9.s:93842  .debug_str:000000000000e9d0 .LASF7044
     /tmp/cc7R4ZW9.s:94996  .debug_str:0000000000012f31 .LASF7045
     /tmp/cc7R4ZW9.s:106712  .debug_str:0000000000043462 .LASF7046
     /tmp/cc7R4ZW9.s:93902  .debug_str:000000000000ed5b .LASF7047
     /tmp/cc7R4ZW9.s:107362  .debug_str:0000000000045f3e .LASF7048
     /tmp/cc7R4ZW9.s:95152  .debug_str:00000000000139f8 .LASF7049
     /tmp/cc7R4ZW9.s:93904  .debug_str:000000000000ed62 .LASF7050
     /tmp/cc7R4ZW9.s:101252  .debug_str:000000000002ca87 .LASF7051
     /tmp/cc7R4ZW9.s:95154  .debug_str:0000000000013a09 .LASF7052
     /tmp/cc7R4ZW9.s:93906  .debug_str:000000000000ed69 .LASF7053
     /tmp/cc7R4ZW9.s:95012  .debug_str:0000000000013037 .LASF7054
     /tmp/cc7R4ZW9.s:92112  .debug_str:0000000000007800 .LASF7055
     /tmp/cc7R4ZW9.s:93908  .debug_str:000000000000ed70 .LASF7056
     /tmp/cc7R4ZW9.s:108286  .debug_str:0000000000049b9d .LASF7057
     /tmp/cc7R4ZW9.s:102414  .debug_str:0000000000031537 .LASF7058
     /tmp/cc7R4ZW9.s:93910  .debug_str:000000000000ed77 .LASF7059
     /tmp/cc7R4ZW9.s:102222  .debug_str:00000000000309da .LASF7060
     /tmp/cc7R4ZW9.s:102422  .debug_str:0000000000031589 .LASF7061
     /tmp/cc7R4ZW9.s:93912  .debug_str:000000000000ed7e .LASF7062
     /tmp/cc7R4ZW9.s:95986  .debug_str:0000000000016ec5 .LASF7063
     /tmp/cc7R4ZW9.s:92682  .debug_str:0000000000009eeb .LASF7064
     /tmp/cc7R4ZW9.s:93914  .debug_str:000000000000ed85 .LASF7065
     /tmp/cc7R4ZW9.s:91352  .debug_str:000000000000448b .LASF7066
     /tmp/cc7R4ZW9.s:90448  .debug_str:000000000000063e .LASF7067
     /tmp/cc7R4ZW9.s:93916  .debug_str:000000000000ed8c .LASF7068
     /tmp/cc7R4ZW9.s:103214  .debug_str:0000000000034ae9 .LASF7069
     /tmp/cc7R4ZW9.s:92212  .debug_str:0000000000007e14 .LASF7070
     /tmp/cc7R4ZW9.s:93918  .debug_str:000000000000ed93 .LASF7071
     /tmp/cc7R4ZW9.s:96980  .debug_str:000000000001b15d .LASF7072
     /tmp/cc7R4ZW9.s:102466  .debug_str:0000000000031907 .LASF7073
     /tmp/cc7R4ZW9.s:93920  .debug_str:000000000000ed9a .LASF7074
     /tmp/cc7R4ZW9.s:90760  .debug_str:0000000000001c37 .LASF7075
     /tmp/cc7R4ZW9.s:95266  .debug_str:0000000000014096 .LASF7076
     /tmp/cc7R4ZW9.s:94002  .debug_str:000000000000f2ab .LASF7077
     /tmp/cc7R4ZW9.s:108758  .debug_str:000000000004bbf6 .LASF7078
     /tmp/cc7R4ZW9.s:102568  .debug_str:0000000000031eee .LASF7079
     /tmp/cc7R4ZW9.s:94004  .debug_str:000000000000f2b2 .LASF7080
     /tmp/cc7R4ZW9.s:97000  .debug_str:000000000001b280 .LASF7081
     /tmp/cc7R4ZW9.s:95438  .debug_str:0000000000014bc1 .LASF7082
     /tmp/cc7R4ZW9.s:94006  .debug_str:000000000000f2b9 .LASF7083
     /tmp/cc7R4ZW9.s:90782  .debug_str:0000000000001dec .LASF7084
     /tmp/cc7R4ZW9.s:97896  .debug_str:000000000001f114 .LASF7085
     /tmp/cc7R4ZW9.s:94008  .debug_str:000000000000f2c0 .LASF7086
     /tmp/cc7R4ZW9.s:108352  .debug_str:000000000004a06b .LASF7087
     /tmp/cc7R4ZW9.s:97898  .debug_str:000000000001f123 .LASF7088
     /tmp/cc7R4ZW9.s:94010  .debug_str:000000000000f2c7 .LASF7089
     /tmp/cc7R4ZW9.s:97964  .debug_str:000000000001f67c .LASF7090
     /tmp/cc7R4ZW9.s:91350  .debug_str:000000000000447e .LASF7091
     /tmp/cc7R4ZW9.s:94012  .debug_str:000000000000f2ce .LASF7092
     /tmp/cc7R4ZW9.s:91760  .debug_str:0000000000005f23 .LASF7093
     /tmp/cc7R4ZW9.s:90790  .debug_str:0000000000001eb8 .LASF7094
     /tmp/cc7R4ZW9.s:94014  .debug_str:000000000000f2d5 .LASF7095
     /tmp/cc7R4ZW9.s:105138  .debug_str:000000000003c71f .LASF7096
     /tmp/cc7R4ZW9.s:90794  .debug_str:0000000000001ef4 .LASF7097
     /tmp/cc7R4ZW9.s:94016  .debug_str:000000000000f2dc .LASF7098
     /tmp/cc7R4ZW9.s:90708  .debug_str:00000000000017cb .LASF7099
     /tmp/cc7R4ZW9.s:109688  .debug_str:000000000004fbcd .LASF7100
     /tmp/cc7R4ZW9.s:94018  .debug_str:000000000000f2e3 .LASF7101
     /tmp/cc7R4ZW9.s:109574  .debug_str:000000000004f44c .LASF7102
     /tmp/cc7R4ZW9.s:105652  .debug_str:000000000003ea14 .LASF7103
     /tmp/cc7R4ZW9.s:94020  .debug_str:000000000000f2ea .LASF7104
     /tmp/cc7R4ZW9.s:106038  .debug_str:00000000000401ed .LASF7105
     /tmp/cc7R4ZW9.s:97550  .debug_str:000000000001d8d1 .LASF7106
     /tmp/cc7R4ZW9.s:95586  .debug_str:00000000000154d8 .LASF7107
     /tmp/cc7R4ZW9.s:105846  .debug_str:000000000003f619 .LASF7108
     /tmp/cc7R4ZW9.s:97716  .debug_str:000000000001e51e .LASF7109
     /tmp/cc7R4ZW9.s:94078  .debug_str:000000000000f764 .LASF7110
     /tmp/cc7R4ZW9.s:92652  .debug_str:0000000000009d3a .LASF7111
     /tmp/cc7R4ZW9.s:106394  .debug_str:0000000000041c03 .LASF7112
     /tmp/cc7R4ZW9.s:94080  .debug_str:000000000000f76b .LASF7113
     /tmp/cc7R4ZW9.s:106064  .debug_str:00000000000403a2 .LASF7114
     /tmp/cc7R4ZW9.s:95168  .debug_str:0000000000013ab9 .LASF7115
     /tmp/cc7R4ZW9.s:94082  .debug_str:000000000000f772 .LASF7116
     /tmp/cc7R4ZW9.s:99952  .debug_str:00000000000276e1 .LASF7117
     /tmp/cc7R4ZW9.s:103316  .debug_str:00000000000351f6 .LASF7118
     /tmp/cc7R4ZW9.s:94084  .debug_str:000000000000f779 .LASF7119
     /tmp/cc7R4ZW9.s:93664  .debug_str:000000000000e03b .LASF7120
     /tmp/cc7R4ZW9.s:91962  .debug_str:0000000000006d39 .LASF7121
     /tmp/cc7R4ZW9.s:94086  .debug_str:000000000000f780 .LASF7122
     /tmp/cc7R4ZW9.s:107066  .debug_str:0000000000044b6b .LASF7123
     /tmp/cc7R4ZW9.s:95568  .debug_str:00000000000153a5 .LASF7124
     /tmp/cc7R4ZW9.s:94088  .debug_str:000000000000f787 .LASF7125
     /tmp/cc7R4ZW9.s:100976  .debug_str:000000000002ba49 .LASF7126
     /tmp/cc7R4ZW9.s:103852  .debug_str:00000000000376fe .LASF7127
     /tmp/cc7R4ZW9.s:94090  .debug_str:000000000000f78e .LASF7128
     /tmp/cc7R4ZW9.s:91898  .debug_str:0000000000006857 .LASF7129
     /tmp/cc7R4ZW9.s:104234  .debug_str:0000000000038e01 .LASF7130
     /tmp/cc7R4ZW9.s:94092  .debug_str:000000000000f795 .LASF7131
     /tmp/cc7R4ZW9.s:108040  .debug_str:0000000000048bdb .LASF7132
     /tmp/cc7R4ZW9.s:102042  .debug_str:000000000002fdd2 .LASF7133
     /tmp/cc7R4ZW9.s:95616  .debug_str:0000000000015692 .LASF7134
     /tmp/cc7R4ZW9.s:104724  .debug_str:000000000003a9df .LASF7135
     /tmp/cc7R4ZW9.s:98336  .debug_str:000000000002104d .LASF7136
     /tmp/cc7R4ZW9.s:94166  .debug_str:000000000000fcc6 .LASF7137
     /tmp/cc7R4ZW9.s:103056  .debug_str:00000000000340ca .LASF7138
     /tmp/cc7R4ZW9.s:99124  .debug_str:000000000002456f .LASF7139
     /tmp/cc7R4ZW9.s:95746  .debug_str:0000000000015ed7 .LASF7140
     /tmp/cc7R4ZW9.s:108060  .debug_str:0000000000048d11 .LASF7141
     /tmp/cc7R4ZW9.s:91726  .debug_str:0000000000005d08 .LASF7142
     /tmp/cc7R4ZW9.s:94170  .debug_str:000000000000fcdd .LASF7143
     /tmp/cc7R4ZW9.s:101992  .debug_str:000000000002fac7 .LASF7144
     /tmp/cc7R4ZW9.s:95814  .debug_str:00000000000162ab .LASF7145
     /tmp/cc7R4ZW9.s:94172  .debug_str:000000000000fce4 .LASF7146
     /tmp/cc7R4ZW9.s:95730  .debug_str:0000000000015dfe .LASF7147
     /tmp/cc7R4ZW9.s:95792  .debug_str:000000000001617f .LASF7148
     /tmp/cc7R4ZW9.s:94174  .debug_str:000000000000fceb .LASF7149
     /tmp/cc7R4ZW9.s:109012  .debug_str:000000000004cd25 .LASF7150
     /tmp/cc7R4ZW9.s:94748  .debug_str:0000000000011e7a .LASF7151
     /tmp/cc7R4ZW9.s:94176  .debug_str:000000000000fcf2 .LASF7152
     /tmp/cc7R4ZW9.s:102958  .debug_str:0000000000033a15 .LASF7153
     /tmp/cc7R4ZW9.s:97418  .debug_str:000000000001d05c .LASF7154
     /tmp/cc7R4ZW9.s:95758  .debug_str:0000000000015f9f .LASF7155
     /tmp/cc7R4ZW9.s:102204  .debug_str:00000000000308a5 .LASF7156
     /tmp/cc7R4ZW9.s:101316  .debug_str:000000000002ced6 .LASF7157
     /tmp/cc7R4ZW9.s:95760  .debug_str:0000000000015fa6 .LASF7158
     /tmp/cc7R4ZW9.s:90530  .debug_str:0000000000000b8e .LASF7159
     /tmp/cc7R4ZW9.s:103130  .debug_str:0000000000034572 .LASF7160
     /tmp/cc7R4ZW9.s:95762  .debug_str:0000000000015fad .LASF7161
     /tmp/cc7R4ZW9.s:103896  .debug_str:00000000000379e3 .LASF7162
     /tmp/cc7R4ZW9.s:91718  .debug_str:0000000000005c9b .LASF7163
     /tmp/cc7R4ZW9.s:95764  .debug_str:0000000000015fb4 .LASF7164
     /tmp/cc7R4ZW9.s:97682  .debug_str:000000000001e29d .LASF7165
     /tmp/cc7R4ZW9.s:106326  .debug_str:0000000000041798 .LASF7166
     /tmp/cc7R4ZW9.s:94254  .debug_str:00000000000101b4 .LASF7167
     /tmp/cc7R4ZW9.s:90548  .debug_str:0000000000000c9f .LASF7168
     /tmp/cc7R4ZW9.s:96632  .debug_str:00000000000198f5 .LASF7169
     /tmp/cc7R4ZW9.s:94256  .debug_str:00000000000101bb .LASF7170
     /tmp/cc7R4ZW9.s:106392  .debug_str:0000000000041be2 .LASF7171
     /tmp/cc7R4ZW9.s:107682  .debug_str:00000000000473bf .LASF7172
     /tmp/cc7R4ZW9.s:94258  .debug_str:00000000000101c2 .LASF7173
     /tmp/cc7R4ZW9.s:97704  .debug_str:000000000001e463 .LASF7174
     /tmp/cc7R4ZW9.s:92816  .debug_str:000000000000a7d4 .LASF7175
     /tmp/cc7R4ZW9.s:94260  .debug_str:00000000000101c9 .LASF7176
     /tmp/cc7R4ZW9.s:107726  .debug_str:00000000000476a7 .LASF7177
     /tmp/cc7R4ZW9.s:101608  .debug_str:000000000002e0d1 .LASF7178
     /tmp/cc7R4ZW9.s:94262  .debug_str:00000000000101d0 .LASF7179
     /tmp/cc7R4ZW9.s:104930  .debug_str:000000000003b858 .LASF7180
     /tmp/cc7R4ZW9.s:94680  .debug_str:00000000000119fa .LASF7181
     /tmp/cc7R4ZW9.s:94264  .debug_str:00000000000101d7 .LASF7182
     /tmp/cc7R4ZW9.s:98706  .debug_str:000000000002291c .LASF7183
     /tmp/cc7R4ZW9.s:108594  .debug_str:000000000004b058 .LASF7184
     /tmp/cc7R4ZW9.s:94266  .debug_str:00000000000101de .LASF7185
     /tmp/cc7R4ZW9.s:92426  .debug_str:0000000000008c6f .LASF7186
     /tmp/cc7R4ZW9.s:96834  .debug_str:000000000001a702 .LASF7187
     /tmp/cc7R4ZW9.s:94268  .debug_str:00000000000101e5 .LASF7188
     /tmp/cc7R4ZW9.s:105794  .debug_str:000000000003f2da .LASF7189
     /tmp/cc7R4ZW9.s:109420  .debug_str:000000000004ea6a .LASF7190
     /tmp/cc7R4ZW9.s:94270  .debug_str:00000000000101ec .LASF7191
     /tmp/cc7R4ZW9.s:99670  .debug_str:0000000000026532 .LASF7192
     /tmp/cc7R4ZW9.s:90812  .debug_str:000000000000201f .LASF7193
     /tmp/cc7R4ZW9.s:94272  .debug_str:00000000000101f3 .LASF7194
     /tmp/cc7R4ZW9.s:93406  .debug_str:000000000000d098 .LASF7195
     /tmp/cc7R4ZW9.s:92152  .debug_str:0000000000007a5e .LASF7196
     /tmp/cc7R4ZW9.s:94324  .debug_str:0000000000010507 .LASF7197
     /tmp/cc7R4ZW9.s:105982  .debug_str:000000000003febc .LASF7198
     /tmp/cc7R4ZW9.s:101212  .debug_str:000000000002c843 .LASF7199
     /tmp/cc7R4ZW9.s:94326  .debug_str:000000000001050e .LASF7200
     /tmp/cc7R4ZW9.s:99854  .debug_str:0000000000027113 .LASF7201
     /tmp/cc7R4ZW9.s:104912  .debug_str:000000000003b782 .LASF7202
     /tmp/cc7R4ZW9.s:94328  .debug_str:0000000000010515 .LASF7203
     /tmp/cc7R4ZW9.s:93578  .debug_str:000000000000dbdb .LASF7204
     /tmp/cc7R4ZW9.s:105928  .debug_str:000000000003fb72 .LASF7205
     /tmp/cc7R4ZW9.s:97750  .debug_str:000000000001e79c .LASF7206
     /tmp/cc7R4ZW9.s:106992  .debug_str:00000000000446ba .LASF7207
     /tmp/cc7R4ZW9.s:91542  .debug_str:000000000000512a .LASF7208
     /tmp/cc7R4ZW9.s:94332  .debug_str:000000000001053d .LASF7209
     /tmp/cc7R4ZW9.s:100894  .debug_str:000000000002b430 .LASF7210
     /tmp/cc7R4ZW9.s:95912  .debug_str:0000000000016953 .LASF7211
     /tmp/cc7R4ZW9.s:94334  .debug_str:0000000000010544 .LASF7212
     /tmp/cc7R4ZW9.s:90584  .debug_str:0000000000000f28 .LASF7213
     /tmp/cc7R4ZW9.s:104806  .debug_str:000000000003afa5 .LASF7214
     /tmp/cc7R4ZW9.s:94336  .debug_str:000000000001054b .LASF7215
     /tmp/cc7R4ZW9.s:96972  .debug_str:000000000001b0ab .LASF7216
     /tmp/cc7R4ZW9.s:102752  .debug_str:0000000000032c72 .LASF7217
     /tmp/cc7R4ZW9.s:94338  .debug_str:0000000000010552 .LASF7218
     /tmp/cc7R4ZW9.s:101886  .debug_str:000000000002f368 .LASF7219
     /tmp/cc7R4ZW9.s:101878  .debug_str:000000000002f2d0 .LASF7220
     /tmp/cc7R4ZW9.s:94340  .debug_str:0000000000010559 .LASF7221
     /tmp/cc7R4ZW9.s:109628  .debug_str:000000000004f796 .LASF7222
     /tmp/cc7R4ZW9.s:97426  .debug_str:000000000001d0dd .LASF7223
     /tmp/cc7R4ZW9.s:94342  .debug_str:0000000000010560 .LASF7224
     /tmp/cc7R4ZW9.s:108908  .debug_str:000000000004c5ce .LASF7225
     /tmp/cc7R4ZW9.s:90726  .debug_str:00000000000019e6 .LASF7226
     /tmp/cc7R4ZW9.s:96224  .debug_str:0000000000017f38 .LASF7227
     /tmp/cc7R4ZW9.s:101908  .debug_str:000000000002f53c .LASF7228
     /tmp/cc7R4ZW9.s:92684  .debug_str:0000000000009ef7 .LASF7229
     /tmp/cc7R4ZW9.s:96228  .debug_str:0000000000017f73 .LASF7230
     /tmp/cc7R4ZW9.s:95674  .debug_str:0000000000015a46 .LASF7231
     /tmp/cc7R4ZW9.s:92688  .debug_str:0000000000009f19 .LASF7232
     /tmp/cc7R4ZW9.s:94416  .debug_str:00000000000109fb .LASF7233
     /tmp/cc7R4ZW9.s:108936  .debug_str:000000000004c7fd .LASF7234
     /tmp/cc7R4ZW9.s:104394  .debug_str:0000000000039615 .LASF7235
     /tmp/cc7R4ZW9.s:94418  .debug_str:0000000000010a02 .LASF7236
     /tmp/cc7R4ZW9.s:94414  .debug_str:00000000000109da .LASF7237
     /tmp/cc7R4ZW9.s:104370  .debug_str:0000000000039465 .LASF7238
     /tmp/cc7R4ZW9.s:94420  .debug_str:0000000000010a09 .LASF7239
     /tmp/cc7R4ZW9.s:96640  .debug_str:000000000001995f .LASF7240
     /tmp/cc7R4ZW9.s:104374  .debug_str:00000000000394af .LASF7241
     /tmp/cc7R4ZW9.s:94422  .debug_str:0000000000010a10 .LASF7242
     /tmp/cc7R4ZW9.s:90458  .debug_str:00000000000006cf .LASF7243
     /tmp/cc7R4ZW9.s:104690  .debug_str:000000000003a76b .LASF7244
     /tmp/cc7R4ZW9.s:94424  .debug_str:0000000000010a17 .LASF7245
     /tmp/cc7R4ZW9.s:103820  .debug_str:000000000003751e .LASF7246
     /tmp/cc7R4ZW9.s:99682  .debug_str:00000000000265b1 .LASF7247
     /tmp/cc7R4ZW9.s:94426  .debug_str:0000000000010a1e .LASF7248
     /tmp/cc7R4ZW9.s:97612  .debug_str:000000000001ddc7 .LASF7249
     /tmp/cc7R4ZW9.s:99686  .debug_str:0000000000026600 .LASF7250
     /tmp/cc7R4ZW9.s:94428  .debug_str:0000000000010a25 .LASF7251
     /tmp/cc7R4ZW9.s:91404  .debug_str:00000000000047a4 .LASF7252
     /tmp/cc7R4ZW9.s:105674  .debug_str:000000000003eb92 .LASF7253
     /tmp/cc7R4ZW9.s:96248  .debug_str:0000000000018073 .LASF7254
     /tmp/cc7R4ZW9.s:93518  .debug_str:000000000000d7ff .LASF7255
     /tmp/cc7R4ZW9.s:97222  .debug_str:000000000001c212 .LASF7256
     /tmp/cc7R4ZW9.s:94494  .debug_str:0000000000010ee4 .LASF7257
     /tmp/cc7R4ZW9.s:97626  .debug_str:000000000001deb8 .LASF7258
     /tmp/cc7R4ZW9.s:97226  .debug_str:000000000001c23d .LASF7259
     /tmp/cc7R4ZW9.s:94496  .debug_str:0000000000010eeb .LASF7260
     /tmp/cc7R4ZW9.s:91424  .debug_str:00000000000048ff .LASF7261
     /tmp/cc7R4ZW9.s:104862  .debug_str:000000000003b361 .LASF7262
     /tmp/cc7R4ZW9.s:94498  .debug_str:0000000000010ef2 .LASF7263
     /tmp/cc7R4ZW9.s:104866  .debug_str:000000000003b39c .LASF7264
     /tmp/cc7R4ZW9.s:92484  .debug_str:00000000000090fc .LASF7265
     /tmp/cc7R4ZW9.s:96398  .debug_str:00000000000189ec .LASF7266
     /tmp/cc7R4ZW9.s:98618  .debug_str:0000000000022361 .LASF7267
     /tmp/cc7R4ZW9.s:92488  .debug_str:0000000000009127 .LASF7268
     /tmp/cc7R4ZW9.s:94502  .debug_str:0000000000010f0c .LASF7269
     /tmp/cc7R4ZW9.s:92360  .debug_str:0000000000008856 .LASF7270
     /tmp/cc7R4ZW9.s:95748  .debug_str:0000000000015ede .LASF7271
     /tmp/cc7R4ZW9.s:94504  .debug_str:0000000000010f13 .LASF7272
     /tmp/cc7R4ZW9.s:105702  .debug_str:000000000003ed60 .LASF7273
     /tmp/cc7R4ZW9.s:98134  .debug_str:00000000000202ce .LASF7274
     /tmp/cc7R4ZW9.s:94506  .debug_str:0000000000010f1a .LASF7275
     /tmp/cc7R4ZW9.s:99582  .debug_str:0000000000025f4c .LASF7276
     /tmp/cc7R4ZW9.s:98136  .debug_str:00000000000202dc .LASF7277
     /tmp/cc7R4ZW9.s:94508  .debug_str:0000000000010f21 .LASF7278
     /tmp/cc7R4ZW9.s:93322  .debug_str:000000000000cae8 .LASF7279
     /tmp/cc7R4ZW9.s:101792  .debug_str:000000000002ed62 .LASF7280
     /tmp/cc7R4ZW9.s:96414  .debug_str:0000000000018a66 .LASF7281
     /tmp/cc7R4ZW9.s:106716  .debug_str:000000000004349d .LASF7282
     /tmp/cc7R4ZW9.s:93426  .debug_str:000000000000d244 .LASF7283
     /tmp/cc7R4ZW9.s:94512  .debug_str:0000000000010f52 .LASF7284
     /tmp/cc7R4ZW9.s:100598  .debug_str:000000000002a221 .LASF7285
     /tmp/cc7R4ZW9.s:93430  .debug_str:000000000000d287 .LASF7286
     /tmp/cc7R4ZW9.s:94590  .debug_str:00000000000114ad .LASF7287
     /tmp/cc7R4ZW9.s:93352  .debug_str:000000000000cd2b .LASF7288
     /tmp/cc7R4ZW9.s:96902  .debug_str:000000000001ac33 .LASF7289
     /tmp/cc7R4ZW9.s:94592  .debug_str:00000000000114b4 .LASF7290
     /tmp/cc7R4ZW9.s:106736  .debug_str:0000000000043638 .LASF7291
     /tmp/cc7R4ZW9.s:108046  .debug_str:0000000000048c1b .LASF7292
     /tmp/cc7R4ZW9.s:94594  .debug_str:00000000000114bb .LASF7293
     /tmp/cc7R4ZW9.s:100622  .debug_str:000000000002a3b5 .LASF7294
     /tmp/cc7R4ZW9.s:92914  .debug_str:000000000000ae80 .LASF7295
     /tmp/cc7R4ZW9.s:98512  .debug_str:0000000000021c9e .LASF7296
     /tmp/cc7R4ZW9.s:108102  .debug_str:0000000000048fc5 .LASF7297
     /tmp/cc7R4ZW9.s:95974  .debug_str:0000000000016dce .LASF7298
     /tmp/cc7R4ZW9.s:94598  .debug_str:00000000000114ec .LASF7299
     /tmp/cc7R4ZW9.s:107702  .debug_str:00000000000474de .LASF7300
     /tmp/cc7R4ZW9.s:107852  .debug_str:0000000000047f8c .LASF7301
     /tmp/cc7R4ZW9.s:94600  .debug_str:00000000000114f3 .LASF7302
     /tmp/cc7R4ZW9.s:101652  .debug_str:000000000002e3c7 .LASF7303
     /tmp/cc7R4ZW9.s:107856  .debug_str:0000000000047fc8 .LASF7304
     /tmp/cc7R4ZW9.s:94602  .debug_str:00000000000114fa .LASF7305
     /tmp/cc7R4ZW9.s:95390  .debug_str:00000000000148d1 .LASF7306
     /tmp/cc7R4ZW9.s:106090  .debug_str:000000000004052b .LASF7307
     /tmp/cc7R4ZW9.s:94604  .debug_str:0000000000011501 .LASF7308
     /tmp/cc7R4ZW9.s:94534  .debug_str:00000000000110a0 .LASF7309
     /tmp/cc7R4ZW9.s:100764  .debug_str:000000000002ac64 .LASF7310
     /tmp/cc7R4ZW9.s:94606  .debug_str:0000000000011508 .LASF7311
     /tmp/cc7R4ZW9.s:102590  .debug_str:0000000000032072 .LASF7312
     /tmp/cc7R4ZW9.s:104262  .debug_str:0000000000038fae .LASF7313
     /tmp/cc7R4ZW9.s:94608  .debug_str:000000000001150f .LASF7314
     /tmp/cc7R4ZW9.s:96368  .debug_str:000000000001880f .LASF7315
     /tmp/cc7R4ZW9.s:104046  .debug_str:000000000003831b .LASF7316
     /tmp/cc7R4ZW9.s:99202  .debug_str:0000000000024ab3 .LASF7317
     /tmp/cc7R4ZW9.s:104272  .debug_str:0000000000039026 .LASF7318
     /tmp/cc7R4ZW9.s:104050  .debug_str:0000000000038352 .LASF7319
     /tmp/cc7R4ZW9.s:99204  .debug_str:0000000000024aba .LASF7320
     /tmp/cc7R4ZW9.s:98036  .debug_str:000000000001fb5e .LASF7321
     /tmp/cc7R4ZW9.s:104308  .debug_str:00000000000391b2 .LASF7322
     /tmp/cc7R4ZW9.s:99206  .debug_str:0000000000024ac1 .LASF7323
     /tmp/cc7R4ZW9.s:91830  .debug_str:00000000000063ea .LASF7324
     /tmp/cc7R4ZW9.s:99350  .debug_str:0000000000025381 .LASF7325
     /tmp/cc7R4ZW9.s:99208  .debug_str:0000000000024ac8 .LASF7326
     /tmp/cc7R4ZW9.s:105208  .debug_str:000000000003cba8 .LASF7327
     /tmp/cc7R4ZW9.s:99354  .debug_str:00000000000253a0 .LASF7328
     /tmp/cc7R4ZW9.s:99210  .debug_str:0000000000024acf .LASF7329
     /tmp/cc7R4ZW9.s:98988  .debug_str:0000000000023c38 .LASF7330
     /tmp/cc7R4ZW9.s:95856  .debug_str:00000000000165b8 .LASF7331
     /tmp/cc7R4ZW9.s:99212  .debug_str:0000000000024ad6 .LASF7332
     /tmp/cc7R4ZW9.s:109646  .debug_str:000000000004f8d9 .LASF7333
     /tmp/cc7R4ZW9.s:96828  .debug_str:000000000001a68e .LASF7334
     /tmp/cc7R4ZW9.s:99214  .debug_str:0000000000024add .LASF7335
     /tmp/cc7R4ZW9.s:109044  .debug_str:000000000004cfc0 .LASF7336
     /tmp/cc7R4ZW9.s:104270  .debug_str:0000000000039016 .LASF7337
     /tmp/cc7R4ZW9.s:99216  .debug_str:0000000000024ae4 .LASF7338
     /tmp/cc7R4ZW9.s:99998  .debug_str:0000000000027a25 .LASF7339
     /tmp/cc7R4ZW9.s:107958  .debug_str:000000000004869b .LASF7340
     /tmp/cc7R4ZW9.s:99218  .debug_str:0000000000024aeb .LASF7341
     /tmp/cc7R4ZW9.s:93716  .debug_str:000000000000e33c .LASF7342
     /tmp/cc7R4ZW9.s:105336  .debug_str:000000000003d3d0 .LASF7343
     /tmp/cc7R4ZW9.s:99220  .debug_str:0000000000024af2 .LASF7344
     /tmp/cc7R4ZW9.s:107120  .debug_str:0000000000044f94 .LASF7345
     /tmp/cc7R4ZW9.s:92252  .debug_str:000000000000809c .LASF7346
     /tmp/cc7R4ZW9.s:99278  .debug_str:0000000000024fce .LASF7347
     /tmp/cc7R4ZW9.s:100022  .debug_str:0000000000027b9f .LASF7348
     /tmp/cc7R4ZW9.s:92254  .debug_str:00000000000080ab .LASF7349
     /tmp/cc7R4ZW9.s:99280  .debug_str:0000000000024fd5 .LASF7350
     /tmp/cc7R4ZW9.s:93744  .debug_str:000000000000e521 .LASF7351
     /tmp/cc7R4ZW9.s:92496  .debug_str:0000000000009192 .LASF7352
     /tmp/cc7R4ZW9.s:99282  .debug_str:0000000000024fdc .LASF7353
     /tmp/cc7R4ZW9.s:107142  .debug_str:00000000000450d2 .LASF7354
     /tmp/cc7R4ZW9.s:107196  .debug_str:0000000000045404 .LASF7355
     /tmp/cc7R4ZW9.s:99284  .debug_str:0000000000024fe3 .LASF7356
     /tmp/cc7R4ZW9.s:101056  .debug_str:000000000002beb7 .LASF7357
     /tmp/cc7R4ZW9.s:107200  .debug_str:000000000004541d .LASF7358
     /tmp/cc7R4ZW9.s:99286  .debug_str:0000000000024fea .LASF7359
     /tmp/cc7R4ZW9.s:94814  .debug_str:000000000001232d .LASF7360
     /tmp/cc7R4ZW9.s:96570  .debug_str:00000000000194aa .LASF7361
     /tmp/cc7R4ZW9.s:99288  .debug_str:0000000000024ff1 .LASF7362
     /tmp/cc7R4ZW9.s:108100  .debug_str:0000000000048fa4 .LASF7363
     /tmp/cc7R4ZW9.s:92748  .debug_str:000000000000a366 .LASF7364
     /tmp/cc7R4ZW9.s:99290  .debug_str:0000000000024ff8 .LASF7365
     /tmp/cc7R4ZW9.s:102034  .debug_str:000000000002fd50 .LASF7366
     /tmp/cc7R4ZW9.s:92752  .debug_str:000000000000a37a .LASF7367
     /tmp/cc7R4ZW9.s:99292  .debug_str:0000000000024fff .LASF7368
     /tmp/cc7R4ZW9.s:95778  .debug_str:0000000000016067 .LASF7369
     /tmp/cc7R4ZW9.s:105668  .debug_str:000000000003eb3c .LASF7370
     /tmp/cc7R4ZW9.s:99294  .debug_str:0000000000025006 .LASF7371
     /tmp/cc7R4ZW9.s:109066  .debug_str:000000000004d146 .LASF7372
     /tmp/cc7R4ZW9.s:103880  .debug_str:00000000000378cb .LASF7373
     /tmp/cc7R4ZW9.s:99296  .debug_str:000000000002500d .LASF7374
     /tmp/cc7R4ZW9.s:103008  .debug_str:0000000000033d9e .LASF7375
     /tmp/cc7R4ZW9.s:99274  .debug_str:0000000000024f8e .LASF7376
     /tmp/cc7R4ZW9.s:99376  .debug_str:000000000002555a .LASF7377
     /tmp/cc7R4ZW9.s:92790  .debug_str:000000000000a5e8 .LASF7378
     /tmp/cc7R4ZW9.s:107696  .debug_str:00000000000474c1 .LASF7379
     /tmp/cc7R4ZW9.s:99378  .debug_str:0000000000025561 .LASF7380
     /tmp/cc7R4ZW9.s:99198  .debug_str:0000000000024a85 .LASF7381
     /tmp/cc7R4ZW9.s:107698  .debug_str:00000000000474cc .LASF7382
     /tmp/cc7R4ZW9.s:106080  .debug_str:00000000000404bc .LASF7383
     /tmp/cc7R4ZW9.s:103034  .debug_str:0000000000033f4a .LASF7384
     /tmp/cc7R4ZW9.s:108026  .debug_str:0000000000048b0a .LASF7385
     /tmp/cc7R4ZW9.s:99382  .debug_str:000000000002559d .LASF7386
     /tmp/cc7R4ZW9.s:96800  .debug_str:000000000001a466 .LASF7387
     /tmp/cc7R4ZW9.s:91720  .debug_str:0000000000005caa .LASF7388
     /tmp/cc7R4ZW9.s:99384  .debug_str:00000000000255a4 .LASF7389
     /tmp/cc7R4ZW9.s:90594  .debug_str:0000000000000fd9 .LASF7390
     /tmp/cc7R4ZW9.s:101758  .debug_str:000000000002eaea .LASF7391
     /tmp/cc7R4ZW9.s:99386  .debug_str:00000000000255ab .LASF7392
     /tmp/cc7R4ZW9.s:103978  .debug_str:0000000000037e81 .LASF7393
     /tmp/cc7R4ZW9.s:92312  .debug_str:00000000000084e1 .LASF7394
     /tmp/cc7R4ZW9.s:99388  .debug_str:00000000000255b2 .LASF7395
     /tmp/cc7R4ZW9.s:97740  .debug_str:000000000001e714 .LASF7396
     /tmp/cc7R4ZW9.s:102928  .debug_str:0000000000033856 .LASF7397
     /tmp/cc7R4ZW9.s:99390  .debug_str:00000000000255b9 .LASF7398
     /tmp/cc7R4ZW9.s:91554  .debug_str:00000000000051c9 .LASF7399
     /tmp/cc7R4ZW9.s:101642  .debug_str:000000000002e343 .LASF7400
     /tmp/cc7R4ZW9.s:99392  .debug_str:00000000000255c0 .LASF7401
     /tmp/cc7R4ZW9.s:104960  .debug_str:000000000003ba26 .LASF7402
     /tmp/cc7R4ZW9.s:101690  .debug_str:000000000002e625 .LASF7403
     /tmp/cc7R4ZW9.s:99394  .debug_str:00000000000255c7 .LASF7404
     /tmp/cc7R4ZW9.s:98746  .debug_str:0000000000022bbc .LASF7405
     /tmp/cc7R4ZW9.s:108438  .debug_str:000000000004a5ca .LASF7406
     /tmp/cc7R4ZW9.s:99466  .debug_str:0000000000025a18 .LASF7407
     /tmp/cc7R4ZW9.s:104640  .debug_str:000000000003a430 .LASF7408
     /tmp/cc7R4ZW9.s:108442  .debug_str:000000000004a5df .LASF7409
     /tmp/cc7R4ZW9.s:99468  .debug_str:0000000000025a1f .LASF7410
     /tmp/cc7R4ZW9.s:104984  .debug_str:000000000003bbad .LASF7411
     /tmp/cc7R4ZW9.s:92386  .debug_str:0000000000008a0d .LASF7412
     /tmp/cc7R4ZW9.s:99470  .debug_str:0000000000025a26 .LASF7413
     /tmp/cc7R4ZW9.s:98756  .debug_str:0000000000022c98 .LASF7414
     /tmp/cc7R4ZW9.s:103918  .debug_str:0000000000037bb6 .LASF7415
     /tmp/cc7R4ZW9.s:99472  .debug_str:0000000000025a2d .LASF7416
     /tmp/cc7R4ZW9.s:92480  .debug_str:00000000000090bc .LASF7417
     /tmp/cc7R4ZW9.s:108636  .debug_str:000000000004b3e6 .LASF7418
     /tmp/cc7R4ZW9.s:99474  .debug_str:0000000000025a34 .LASF7419
     /tmp/cc7R4ZW9.s:105856  .debug_str:000000000003f691 .LASF7420
     /tmp/cc7R4ZW9.s:101274  .debug_str:000000000002cc2d .LASF7421
     /tmp/cc7R4ZW9.s:99476  .debug_str:0000000000025a3b .LASF7422
     /tmp/cc7R4ZW9.s:99730  .debug_str:00000000000268a6 .LASF7423
     /tmp/cc7R4ZW9.s:101276  .debug_str:000000000002cc39 .LASF7424
     /tmp/cc7R4ZW9.s:99478  .debug_str:0000000000025a42 .LASF7425
     /tmp/cc7R4ZW9.s:93466  .debug_str:000000000000d4d5 .LASF7426
     /tmp/cc7R4ZW9.s:101278  .debug_str:000000000002cc45 .LASF7427
     /tmp/cc7R4ZW9.s:99480  .debug_str:0000000000025a49 .LASF7428
     /tmp/cc7R4ZW9.s:106876  .debug_str:0000000000043f7a .LASF7429
     /tmp/cc7R4ZW9.s:96010  .debug_str:0000000000017049 .LASF7430
     /tmp/cc7R4ZW9.s:99482  .debug_str:0000000000025a50 .LASF7431
     /tmp/cc7R4ZW9.s:100770  .debug_str:000000000002acad .LASF7432
     /tmp/cc7R4ZW9.s:92068  .debug_str:00000000000074e2 .LASF7433
     /tmp/cc7R4ZW9.s:99484  .debug_str:0000000000025a57 .LASF7434
     /tmp/cc7R4ZW9.s:94484  .debug_str:0000000000010e1f .LASF7435
     /tmp/cc7R4ZW9.s:96016  .debug_str:00000000000170a0 .LASF7436
     /tmp/cc7R4ZW9.s:99554  .debug_str:0000000000025ed1 .LASF7437
     /tmp/cc7R4ZW9.s:106904  .debug_str:0000000000044187 .LASF7438
     /tmp/cc7R4ZW9.s:99912  .debug_str:0000000000027402 .LASF7439
     /tmp/cc7R4ZW9.s:99556  .debug_str:0000000000025ed8 .LASF7440
     /tmp/cc7R4ZW9.s:100798  .debug_str:000000000002ae59 .LASF7441
     /tmp/cc7R4ZW9.s:103262  .debug_str:0000000000034ed0 .LASF7442
     /tmp/cc7R4ZW9.s:99558  .debug_str:0000000000025edf .LASF7443
     /tmp/cc7R4ZW9.s:94516  .debug_str:0000000000010f69 .LASF7444
     /tmp/cc7R4ZW9.s:93636  .debug_str:000000000000de9d .LASF7445
     /tmp/cc7R4ZW9.s:99560  .debug_str:0000000000025ee6 .LASF7446
     /tmp/cc7R4ZW9.s:107848  .debug_str:0000000000047f55 .LASF7447
     /tmp/cc7R4ZW9.s:93638  .debug_str:000000000000dea9 .LASF7448
     /tmp/cc7R4ZW9.s:99562  .debug_str:0000000000025eed .LASF7449
     /tmp/cc7R4ZW9.s:92902  .debug_str:000000000000adb0 .LASF7450
     /tmp/cc7R4ZW9.s:93640  .debug_str:000000000000deb5 .LASF7451
     /tmp/cc7R4ZW9.s:99564  .debug_str:0000000000025ef4 .LASF7452
     /tmp/cc7R4ZW9.s:103246  .debug_str:0000000000034ded .LASF7453
     /tmp/cc7R4ZW9.s:109558  .debug_str:000000000004f348 .LASF7454
     /tmp/cc7R4ZW9.s:99566  .debug_str:0000000000025efb .LASF7455
     /tmp/cc7R4ZW9.s:108810  .debug_str:000000000004bf7f .LASF7456
     /tmp/cc7R4ZW9.s:109560  .debug_str:000000000004f352 .LASF7457
     /tmp/cc7R4ZW9.s:99568  .debug_str:0000000000025f02 .LASF7458
     /tmp/cc7R4ZW9.s:92474  .debug_str:0000000000009037 .LASF7459
     /tmp/cc7R4ZW9.s:104740  .debug_str:000000000003ab16 .LASF7460
     /tmp/cc7R4ZW9.s:99570  .debug_str:0000000000025f09 .LASF7461
     /tmp/cc7R4ZW9.s:96510  .debug_str:0000000000019030 .LASF7462
     /tmp/cc7R4ZW9.s:109564  .debug_str:000000000004f38c .LASF7463
     /tmp/cc7R4ZW9.s:99572  .debug_str:0000000000025f10 .LASF7464
     /tmp/cc7R4ZW9.s:109784  .debug_str:0000000000050205 .LASF7465
     /tmp/cc7R4ZW9.s:94932  .debug_str:0000000000012acf .LASF7466
     /tmp/cc7R4ZW9.s:99644  .debug_str:000000000002639f .LASF7467
     /tmp/cc7R4ZW9.s:103666  .debug_str:0000000000036b10 .LASF7468
     /tmp/cc7R4ZW9.s:103022  .debug_str:0000000000033eb9 .LASF7469
     /tmp/cc7R4ZW9.s:93888  .debug_str:000000000000ecf7 .LASF7470
     /tmp/cc7R4ZW9.s:102096  .debug_str:000000000003015f .LASF7471
     /tmp/cc7R4ZW9.s:103024  .debug_str:0000000000033ec5 .LASF7472
     /tmp/cc7R4ZW9.s:93892  .debug_str:000000000000ed13 .LASF7473
     /tmp/cc7R4ZW9.s:95848  .debug_str:000000000001651f .LASF7474
     /tmp/cc7R4ZW9.s:108452  .debug_str:000000000004a64d .LASF7475
     /tmp/cc7R4ZW9.s:95292  .debug_str:000000000001427b .LASF7476
     /tmp/cc7R4ZW9.s:93386  .debug_str:000000000000cf57 .LASF7477
     /tmp/cc7R4ZW9.s:105950  .debug_str:000000000003fcb9 .LASF7478
     /tmp/cc7R4ZW9.s:96030  .debug_str:000000000001712d .LASF7479
     /tmp/cc7R4ZW9.s:98936  .debug_str:00000000000238d5 .LASF7480
     /tmp/cc7R4ZW9.s:105128  .debug_str:000000000003c6ac .LASF7481
     /tmp/cc7R4ZW9.s:104596  .debug_str:000000000003a0dd .LASF7482
     /tmp/cc7R4ZW9.s:102226  .debug_str:0000000000030a19 .LASF7483
     /tmp/cc7R4ZW9.s:93872  .debug_str:000000000000ec1d .LASF7484
     /tmp/cc7R4ZW9.s:106902  .debug_str:0000000000044161 .LASF7485
     /tmp/cc7R4ZW9.s:106092  .debug_str:000000000004053d .LASF7486
     /tmp/cc7R4ZW9.s:93826  .debug_str:000000000000e958 .LASF7487
     /tmp/cc7R4ZW9.s:97832  .debug_str:000000000001ed1d .LASF7488
     /tmp/cc7R4ZW9.s:105966  .debug_str:000000000003fdb8 .LASF7489
     /tmp/cc7R4ZW9.s:92168  .debug_str:0000000000007b1c .LASF7490
     /tmp/cc7R4ZW9.s:94886  .debug_str:0000000000012746 .LASF7491
     /tmp/cc7R4ZW9.s:106088  .debug_str:000000000004051f .LASF7492
     /tmp/cc7R4ZW9.s:103372  .debug_str:0000000000035621 .LASF7493
     /tmp/cc7R4ZW9.s:104926  .debug_str:000000000003b83a .LASF7494
     /tmp/cc7R4ZW9.s:107140  .debug_str:00000000000450c4 .LASF7495
     /tmp/cc7R4ZW9.s:99834  .debug_str:0000000000027005 .LASF7496
     /tmp/cc7R4ZW9.s:97400  .debug_str:000000000001cf14 .LASF7497
     /tmp/cc7R4ZW9.s:100848  .debug_str:000000000002b212 .LASF7498
     /tmp/cc7R4ZW9.s:102692  .debug_str:00000000000327fe .LASF7499
     /tmp/cc7R4ZW9.s:104830  .debug_str:000000000003b16e .LASF7500
     /tmp/cc7R4ZW9.s:93812  .debug_str:000000000000e881 .LASF7501
     /tmp/cc7R4ZW9.s:107968  .debug_str:0000000000048737 .LASF7502
     /tmp/cc7R4ZW9.s:107296  .debug_str:0000000000045b21 .LASF7503
     /tmp/cc7R4ZW9.s:98198  .debug_str:0000000000020785 .LASF7504
     /tmp/cc7R4ZW9.s:96726  .debug_str:0000000000019f66 .LASF7505
     /tmp/cc7R4ZW9.s:91456  .debug_str:0000000000004b81 .LASF7506
     /tmp/cc7R4ZW9.s:93360  .debug_str:000000000000cd88 .LASF7507
     /tmp/cc7R4ZW9.s:98390  .debug_str:0000000000021408 .LASF7508
     /tmp/cc7R4ZW9.s:106802  .debug_str:0000000000043ac9 .LASF7509
     /tmp/cc7R4ZW9.s:91278  .debug_str:0000000000003eaf .LASF7510
     /tmp/cc7R4ZW9.s:106276  .debug_str:0000000000041375 .LASF7511
     /tmp/cc7R4ZW9.s:96982  .debug_str:000000000001b17e .LASF7512
     /tmp/cc7R4ZW9.s:105826  .debug_str:000000000003f4c6 .LASF7513
     /tmp/cc7R4ZW9.s:90926  .debug_str:000000000000279e .LASF7514
     /tmp/cc7R4ZW9.s:105450  .debug_str:000000000003dbf0 .LASF7515
     /tmp/cc7R4ZW9.s:94542  .debug_str:000000000001114e .LASF7516
     /tmp/cc7R4ZW9.s:103264  .debug_str:0000000000034ed8 .LASF7517
     /tmp/cc7R4ZW9.s:108188  .debug_str:00000000000495a8 .LASF7518
     /tmp/cc7R4ZW9.s:104368  .debug_str:0000000000039442 .LASF7519
     /tmp/cc7R4ZW9.s:91580  .debug_str:000000000000535a .LASF7520
     /tmp/cc7R4ZW9.s:100056  .debug_str:0000000000027e21 .LASF7521
     /tmp/cc7R4ZW9.s:90402  .debug_str:00000000000002cc .LASF7522
     /tmp/cc7R4ZW9.s:100850  .debug_str:000000000002b23a .LASF7523
     /tmp/cc7R4ZW9.s:100558  .debug_str:0000000000029f5e .LASF7524
     /tmp/cc7R4ZW9.s:94816  .debug_str:000000000001234e .LASF7525
     /tmp/cc7R4ZW9.s:100128  .debug_str:00000000000282a8 .LASF7526
     /tmp/cc7R4ZW9.s:91748  .debug_str:0000000000005eba .LASF7527
     /tmp/cc7R4ZW9.s:106528  .debug_str:0000000000042876 .LASF7528
     /tmp/cc7R4ZW9.s:106482  .debug_str:000000000004247e .LASF7529
     /tmp/cc7R4ZW9.s:93078  .debug_str:000000000000ba21 .LASF7530
     /tmp/cc7R4ZW9.s:108270  .debug_str:0000000000049a88 .LASF7531
     /tmp/cc7R4ZW9.s:108948  .debug_str:000000000004c8ab .LASF7532
     /tmp/cc7R4ZW9.s:106402  .debug_str:0000000000041c4a .LASF7533
     /tmp/cc7R4ZW9.s:91672  .debug_str:00000000000059c9 .LASF7534
     /tmp/cc7R4ZW9.s:95614  .debug_str:000000000001566b .LASF7535
     /tmp/cc7R4ZW9.s:96050  .debug_str:00000000000172d8 .LASF7536
     /tmp/cc7R4ZW9.s:102314  .debug_str:0000000000030fbc .LASF7537
     /tmp/cc7R4ZW9.s:103286  .debug_str:0000000000034ffc .LASF7538
     /tmp/cc7R4ZW9.s:101088  .debug_str:000000000002c0ef .LASF7539
     /tmp/cc7R4ZW9.s:101042  .debug_str:000000000002bd80 .LASF7540
     /tmp/cc7R4ZW9.s:98748  .debug_str:0000000000022bdd .LASF7541
     /tmp/cc7R4ZW9.s:107352  .debug_str:0000000000045e81 .LASF7542
     /tmp/cc7R4ZW9.s:104462  .debug_str:0000000000039926 .LASF7543
     /tmp/cc7R4ZW9.s:98734  .debug_str:0000000000022ad4 .LASF7544
     /tmp/cc7R4ZW9.s:96456  .debug_str:0000000000018cc2 .LASF7545
     /tmp/cc7R4ZW9.s:105094  .debug_str:000000000003c404 .LASF7546
     /tmp/cc7R4ZW9.s:93934  .debug_str:000000000000ee0f .LASF7547
     /tmp/cc7R4ZW9.s:102678  .debug_str:000000000003272a .LASF7548
     /tmp/cc7R4ZW9.s:104464  .debug_str:000000000003992d .LASF7549
     /tmp/cc7R4ZW9.s:92452  .debug_str:0000000000008eb1 .LASF7550
     /tmp/cc7R4ZW9.s:105252  .debug_str:000000000003cea9 .LASF7551
     /tmp/cc7R4ZW9.s:102576  .debug_str:0000000000031f9b .LASF7552
     /tmp/cc7R4ZW9.s:108242  .debug_str:0000000000049903 .LASF7553
     /tmp/cc7R4ZW9.s:101664  .debug_str:000000000002e454 .LASF7554
     /tmp/cc7R4ZW9.s:107478  .debug_str:0000000000046702 .LASF7555
     /tmp/cc7R4ZW9.s:102170  .debug_str:00000000000305e3 .LASF7556
     /tmp/cc7R4ZW9.s:91212  .debug_str:0000000000003a27 .LASF7557
     /tmp/cc7R4ZW9.s:107480  .debug_str:0000000000046710 .LASF7558
     /tmp/cc7R4ZW9.s:95926  .debug_str:0000000000016a39 .LASF7559
     /tmp/cc7R4ZW9.s:99940  .debug_str:00000000000275f6 .LASF7560
     /tmp/cc7R4ZW9.s:107482  .debug_str:000000000004671e .LASF7561
     /tmp/cc7R4ZW9.s:109222  .debug_str:000000000004db91 .LASF7562
     /tmp/cc7R4ZW9.s:98978  .debug_str:0000000000023bae .LASF7563
     /tmp/cc7R4ZW9.s:105034  .debug_str:000000000003bf51 .LASF7564
     /tmp/cc7R4ZW9.s:103152  .debug_str:0000000000034688 .LASF7565
     /tmp/cc7R4ZW9.s:92634  .debug_str:0000000000009bf1 .LASF7566
     /tmp/cc7R4ZW9.s:107486  .debug_str:000000000004676e .LASF7567
     /tmp/cc7R4ZW9.s:96922  .debug_str:000000000001ad84 .LASF7568
     /tmp/cc7R4ZW9.s:104004  .debug_str:00000000000380ed .LASF7569
     /tmp/cc7R4ZW9.s:107488  .debug_str:000000000004677c .LASF7570
     /tmp/cc7R4ZW9.s:100042  .debug_str:0000000000027d37 .LASF7571
     /tmp/cc7R4ZW9.s:106630  .debug_str:0000000000042ed9 .LASF7572
     /tmp/cc7R4ZW9.s:101842  .debug_str:000000000002f045 .LASF7573
     /tmp/cc7R4ZW9.s:101844  .debug_str:000000000002f057 .LASF7574
     /tmp/cc7R4ZW9.s:101848  .debug_str:000000000002f095 .LASF7575
     /tmp/cc7R4ZW9.s:104968  .debug_str:000000000003baa3 .LASF7576
     /tmp/cc7R4ZW9.s:107756  .debug_str:00000000000478e4 .LASF7577
     /tmp/cc7R4ZW9.s:101850  .debug_str:000000000002f0a7 .LASF7578
     /tmp/cc7R4ZW9.s:106640  .debug_str:0000000000042f69 .LASF7579
     /tmp/cc7R4ZW9.s:106642  .debug_str:0000000000042f7b .LASF7580
     /tmp/cc7R4ZW9.s:106644  .debug_str:0000000000042f8d .LASF7581
     /tmp/cc7R4ZW9.s:104970  .debug_str:000000000003bab2 .LASF7582
     /tmp/cc7R4ZW9.s:101698  .debug_str:000000000002e696 .LASF7583
     /tmp/cc7R4ZW9.s:103944  .debug_str:0000000000037c3d .LASF7584
     /tmp/cc7R4ZW9.s:107904  .debug_str:000000000004833c .LASF7585
     /tmp/cc7R4ZW9.s:99744  .debug_str:00000000000269e5 .LASF7586
     /tmp/cc7R4ZW9.s:103680  .debug_str:0000000000036bf5 .LASF7587
     /tmp/cc7R4ZW9.s:105008  .debug_str:000000000003bd68 .LASF7588
     /tmp/cc7R4ZW9.s:107442  .debug_str:0000000000046487 .LASF7589
     /tmp/cc7R4ZW9.s:105932  .debug_str:000000000003fbb1 .LASF7590
     /tmp/cc7R4ZW9.s:109606  .debug_str:000000000004f634 .LASF7591
     /tmp/cc7R4ZW9.s:95842  .debug_str:00000000000164a6 .LASF7592
     /tmp/cc7R4ZW9.s:107450  .debug_str:000000000004650e .LASF7593
     /tmp/cc7R4ZW9.s:90682  .debug_str:000000000000159f .LASF7594
     /tmp/cc7R4ZW9.s:108498  .debug_str:000000000004a97c .LASF7595
     /tmp/cc7R4ZW9.s:105502  .debug_str:000000000003e014 .LASF7596
     /tmp/cc7R4ZW9.s:90426  .debug_str:0000000000000469 .LASF7597
     /tmp/cc7R4ZW9.s:95280  .debug_str:00000000000141b2 .LASF7598
     /tmp/cc7R4ZW9.s:92042  .debug_str:0000000000007355 .LASF7599
     /tmp/cc7R4ZW9.s:91880  .debug_str:000000000000673c .LASF7600
     /tmp/cc7R4ZW9.s:101320  .debug_str:000000000002cef4 .LASF7601
     /tmp/cc7R4ZW9.s:101322  .debug_str:000000000002cf0c .LASF7602
     /tmp/cc7R4ZW9.s:101324  .debug_str:000000000002cf24 .LASF7603
     /tmp/cc7R4ZW9.s:101326  .debug_str:000000000002cf3c .LASF7604
     /tmp/cc7R4ZW9.s:107000  .debug_str:0000000000044768 .LASF7605
     /tmp/cc7R4ZW9.s:92588  .debug_str:0000000000009823 .LASF7606
     /tmp/cc7R4ZW9.s:101328  .debug_str:000000000002cf54 .LASF7607
     /tmp/cc7R4ZW9.s:94178  .debug_str:000000000000fcf9 .LASF7608
     /tmp/cc7R4ZW9.s:94180  .debug_str:000000000000fd17 .LASF7609
     /tmp/cc7R4ZW9.s:94182  .debug_str:000000000000fd35 .LASF7610
     /tmp/cc7R4ZW9.s:94184  .debug_str:000000000000fd53 .LASF7611
     /tmp/cc7R4ZW9.s:94186  .debug_str:000000000000fd71 .LASF7612
     /tmp/cc7R4ZW9.s:98046  .debug_str:000000000001fc17 .LASF7613
     /tmp/cc7R4ZW9.s:93858  .debug_str:000000000000eb47 .LASF7614
     /tmp/cc7R4ZW9.s:98050  .debug_str:000000000001fc44 .LASF7615
     /tmp/cc7R4ZW9.s:98052  .debug_str:000000000001fc61 .LASF7616
     /tmp/cc7R4ZW9.s:98054  .debug_str:000000000001fc7e .LASF7617
     /tmp/cc7R4ZW9.s:109670  .debug_str:000000000004fac9 .LASF7618
     /tmp/cc7R4ZW9.s:109672  .debug_str:000000000004fae3 .LASF7619
     /tmp/cc7R4ZW9.s:109674  .debug_str:000000000004fafd .LASF7620
     /tmp/cc7R4ZW9.s:109676  .debug_str:000000000004fb17 .LASF7621
     /tmp/cc7R4ZW9.s:109678  .debug_str:000000000004fb31 .LASF7622
     /tmp/cc7R4ZW9.s:104114  .debug_str:0000000000038695 .LASF7623
     /tmp/cc7R4ZW9.s:106348  .debug_str:0000000000041900 .LASF7624
     /tmp/cc7R4ZW9.s:107002  .debug_str:0000000000044780 .LASF7625
     /tmp/cc7R4ZW9.s:105970  .debug_str:000000000003fde3 .LASF7626
     /tmp/cc7R4ZW9.s:103474  .debug_str:0000000000035dcc .LASF7627
     /tmp/cc7R4ZW9.s:92116  .debug_str:000000000000783f .LASF7628
     /tmp/cc7R4ZW9.s:92118  .debug_str:000000000000785c .LASF7629
     /tmp/cc7R4ZW9.s:103484  .debug_str:0000000000035ebf .LASF7630
     /tmp/cc7R4ZW9.s:90982  .debug_str:0000000000002b6f .LASF7631
     /tmp/cc7R4ZW9.s:101188  .debug_str:000000000002c6ab .LASF7632
     /tmp/cc7R4ZW9.s:92122  .debug_str:00000000000078b9 .LASF7633
     /tmp/cc7R4ZW9.s:101544  .debug_str:000000000002dc95 .LASF7634
     /tmp/cc7R4ZW9.s:101546  .debug_str:000000000002dcb8 .LASF7635
     /tmp/cc7R4ZW9.s:101548  .debug_str:000000000002dcdb .LASF7636
     /tmp/cc7R4ZW9.s:101550  .debug_str:000000000002dcfe .LASF7637
     /tmp/cc7R4ZW9.s:101552  .debug_str:000000000002dd21 .LASF7638
     /tmp/cc7R4ZW9.s:98320  .debug_str:0000000000020f60 .LASF7639
     /tmp/cc7R4ZW9.s:98322  .debug_str:0000000000020f82 .LASF7640
     /tmp/cc7R4ZW9.s:99432  .debug_str:00000000000257f2 .LASF7641
     /tmp/cc7R4ZW9.s:98326  .debug_str:0000000000020fb5 .LASF7642
     /tmp/cc7R4ZW9.s:98328  .debug_str:0000000000020fd7 .LASF7643
     /tmp/cc7R4ZW9.s:101112  .debug_str:000000000002c296 .LASF7644
     /tmp/cc7R4ZW9.s:101114  .debug_str:000000000002c2b5 .LASF7645
     /tmp/cc7R4ZW9.s:101116  .debug_str:000000000002c2d4 .LASF7646
     /tmp/cc7R4ZW9.s:104346  .debug_str:00000000000393e7 .LASF7647
     /tmp/cc7R4ZW9.s:101120  .debug_str:000000000002c301 .LASF7648
     /tmp/cc7R4ZW9.s:101238  .debug_str:000000000002c9a6 .LASF7649
     /tmp/cc7R4ZW9.s:106520  .debug_str:00000000000427c6 .LASF7650
     /tmp/cc7R4ZW9.s:90984  .debug_str:0000000000002b8c .LASF7651
     /tmp/cc7R4ZW9.s:98302  .debug_str:0000000000020e71 .LASF7652
     /tmp/cc7R4ZW9.s:103058  .debug_str:00000000000340eb .LASF7653
     /tmp/cc7R4ZW9.s:103060  .debug_str:0000000000034103 .LASF7654
     /tmp/cc7R4ZW9.s:103062  .debug_str:000000000003411b .LASF7655
     /tmp/cc7R4ZW9.s:103064  .debug_str:0000000000034133 .LASF7656
     /tmp/cc7R4ZW9.s:97512  .debug_str:000000000001d658 .LASF7657
     /tmp/cc7R4ZW9.s:97030  .debug_str:000000000001b456 .LASF7658
     /tmp/cc7R4ZW9.s:103066  .debug_str:000000000003414b .LASF7659
     /tmp/cc7R4ZW9.s:95958  .debug_str:0000000000016cd9 .LASF7660
     /tmp/cc7R4ZW9.s:95960  .debug_str:0000000000016cf7 .LASF7661
     /tmp/cc7R4ZW9.s:106608  .debug_str:0000000000042dad .LASF7662
     /tmp/cc7R4ZW9.s:95964  .debug_str:0000000000016d3a .LASF7663
     /tmp/cc7R4ZW9.s:95966  .debug_str:0000000000016d58 .LASF7664
     /tmp/cc7R4ZW9.s:99774  .debug_str:0000000000026be1 .LASF7665
     /tmp/cc7R4ZW9.s:99776  .debug_str:0000000000026bfe .LASF7666
     /tmp/cc7R4ZW9.s:99778  .debug_str:0000000000026c1b .LASF7667
     /tmp/cc7R4ZW9.s:99780  .debug_str:0000000000026c38 .LASF7668
     /tmp/cc7R4ZW9.s:99782  .debug_str:0000000000026c55 .LASF7669
     /tmp/cc7R4ZW9.s:91932  .debug_str:0000000000006b04 .LASF7670
     /tmp/cc7R4ZW9.s:91934  .debug_str:0000000000006b1e .LASF7671
     /tmp/cc7R4ZW9.s:91936  .debug_str:0000000000006b38 .LASF7672
     /tmp/cc7R4ZW9.s:91938  .debug_str:0000000000006b52 .LASF7673
     /tmp/cc7R4ZW9.s:109210  .debug_str:000000000004dab6 .LASF7674
     /tmp/cc7R4ZW9.s:95358  .debug_str:00000000000146dc .LASF7675
     /tmp/cc7R4ZW9.s:103292  .debug_str:000000000003506a .LASF7676
     /tmp/cc7R4ZW9.s:97516  .debug_str:000000000001d680 .LASF7677
     /tmp/cc7R4ZW9.s:90816  .debug_str:0000000000002059 .LASF7678
     /tmp/cc7R4ZW9.s:94630  .debug_str:0000000000011671 .LASF7679
     /tmp/cc7R4ZW9.s:94632  .debug_str:0000000000011688 .LASF7680
     /tmp/cc7R4ZW9.s:94634  .debug_str:000000000001169f .LASF7681
     /tmp/cc7R4ZW9.s:109274  .debug_str:000000000004e026 .LASF7682
     /tmp/cc7R4ZW9.s:95442  .debug_str:0000000000014bde .LASF7683
     /tmp/cc7R4ZW9.s:91398  .debug_str:0000000000004741 .LASF7684
     /tmp/cc7R4ZW9.s:94638  .debug_str:00000000000116c7 .LASF7685
     /tmp/cc7R4ZW9.s:105918  .debug_str:000000000003fae1 .LASF7686
     /tmp/cc7R4ZW9.s:105920  .debug_str:000000000003fafe .LASF7687
     /tmp/cc7R4ZW9.s:105922  .debug_str:000000000003fb1b .LASF7688
     /tmp/cc7R4ZW9.s:105924  .debug_str:000000000003fb38 .LASF7689
     /tmp/cc7R4ZW9.s:105926  .debug_str:000000000003fb55 .LASF7690
     /tmp/cc7R4ZW9.s:95478  .debug_str:0000000000014dcb .LASF7691
     /tmp/cc7R4ZW9.s:95480  .debug_str:0000000000014de7 .LASF7692
     /tmp/cc7R4ZW9.s:90920  .debug_str:000000000000272c .LASF7693
     /tmp/cc7R4ZW9.s:95484  .debug_str:0000000000014e33 .LASF7694
     /tmp/cc7R4ZW9.s:95486  .debug_str:0000000000014e4f .LASF7695
     /tmp/cc7R4ZW9.s:101532  .debug_str:000000000002dbde .LASF7696
     /tmp/cc7R4ZW9.s:101534  .debug_str:000000000002dbf7 .LASF7697
     /tmp/cc7R4ZW9.s:101536  .debug_str:000000000002dc10 .LASF7698
     /tmp/cc7R4ZW9.s:101538  .debug_str:000000000002dc29 .LASF7699
     /tmp/cc7R4ZW9.s:101540  .debug_str:000000000002dc42 .LASF7700
     /tmp/cc7R4ZW9.s:102844  .debug_str:0000000000033226 .LASF7701
     /tmp/cc7R4ZW9.s:104814  .debug_str:000000000003b017 .LASF7702
     /tmp/cc7R4ZW9.s:95444  .debug_str:0000000000014bf5 .LASF7703
     /tmp/cc7R4ZW9.s:96574  .debug_str:00000000000194e9 .LASF7704
     /tmp/cc7R4ZW9.s:95514  .debug_str:0000000000014fed .LASF7705
     /tmp/cc7R4ZW9.s:95516  .debug_str:0000000000015010 .LASF7706
     /tmp/cc7R4ZW9.s:95518  .debug_str:0000000000015033 .LASF7707
     /tmp/cc7R4ZW9.s:95520  .debug_str:0000000000015056 .LASF7708
     /tmp/cc7R4ZW9.s:95522  .debug_str:0000000000015079 .LASF7709
     /tmp/cc7R4ZW9.s:109534  .debug_str:000000000004f1e3 .LASF7710
     /tmp/cc7R4ZW9.s:106668  .debug_str:000000000004313d .LASF7711
     /tmp/cc7R4ZW9.s:108192  .debug_str:00000000000495b8 .LASF7712
     /tmp/cc7R4ZW9.s:106654  .debug_str:0000000000043063 .LASF7713
     /tmp/cc7R4ZW9.s:106656  .debug_str:0000000000043087 .LASF7714
     /tmp/cc7R4ZW9.s:107354  .debug_str:0000000000045e8e .LASF7715
     /tmp/cc7R4ZW9.s:106660  .debug_str:00000000000430b7 .LASF7716
     /tmp/cc7R4ZW9.s:106662  .debug_str:00000000000430db .LASF7717
     /tmp/cc7R4ZW9.s:102010  .debug_str:000000000002fbd8 .LASF7718
     /tmp/cc7R4ZW9.s:109446  .debug_str:000000000004ebf4 .LASF7719
     /tmp/cc7R4ZW9.s:98206  .debug_str:000000000002084e .LASF7720
     /tmp/cc7R4ZW9.s:93496  .debug_str:000000000000d6a0 .LASF7721
     /tmp/cc7R4ZW9.s:101426  .debug_str:000000000002d52d .LASF7722
     /tmp/cc7R4ZW9.s:108886  .debug_str:000000000004c498 .LASF7723
     /tmp/cc7R4ZW9.s:101818  .debug_str:000000000002ef2a .LASF7724
     /tmp/cc7R4ZW9.s:98216  .debug_str:000000000002095d .LASF7725
     /tmp/cc7R4ZW9.s:92088  .debug_str:00000000000075e3 .LASF7726
     /tmp/cc7R4ZW9.s:104224  .debug_str:0000000000038d95 .LASF7727
     /tmp/cc7R4ZW9.s:94096  .debug_str:000000000000f7b3 .LASF7728
     /tmp/cc7R4ZW9.s:92878  .debug_str:000000000000abe8 .LASF7729
     /tmp/cc7R4ZW9.s:97480  .debug_str:000000000001d3fc .LASF7730
     /tmp/cc7R4ZW9.s:92708  .debug_str:000000000000a0a4 .LASF7731
     /tmp/cc7R4ZW9.s:92182  .debug_str:0000000000007c50 .LASF7732
     /tmp/cc7R4ZW9.s:100578  .debug_str:000000000002a0e1 .LASF7733
     /tmp/cc7R4ZW9.s:93416  .debug_str:000000000000d149 .LASF7734
     /tmp/cc7R4ZW9.s:100234  .debug_str:00000000000289e5 .LASF7735
     /tmp/cc7R4ZW9.s:98214  .debug_str:0000000000020947 .LASF7736
     /tmp/cc7R4ZW9.s:95950  .debug_str:0000000000016c4a .LASF7737
     /tmp/cc7R4ZW9.s:109748  .debug_str:000000000004ff9a .LASF7738
     /tmp/cc7R4ZW9.s:93720  .debug_str:000000000000e382 .LASF7739
     /tmp/cc7R4ZW9.s:109100  .debug_str:000000000004d3b1 .LASF7740
     /tmp/cc7R4ZW9.s:109102  .debug_str:000000000004d3d0 .LASF7741
     /tmp/cc7R4ZW9.s:109104  .debug_str:000000000004d3ef .LASF7742
     /tmp/cc7R4ZW9.s:103156  .debug_str:00000000000346c7 .LASF7743
     /tmp/cc7R4ZW9.s:97402  .debug_str:000000000001cf22 .LASF7744
     /tmp/cc7R4ZW9.s:96284  .debug_str:000000000001824f .LASF7745
     /tmp/cc7R4ZW9.s:109108  .debug_str:000000000004d41c .LASF7746
     /tmp/cc7R4ZW9.s:104316  .debug_str:0000000000039212 .LASF7747
     /tmp/cc7R4ZW9.s:103958  .debug_str:0000000000037d4a .LASF7748
     /tmp/cc7R4ZW9.s:99902  .debug_str:000000000002737f .LASF7749
     /tmp/cc7R4ZW9.s:99904  .debug_str:000000000002739c .LASF7750
     /tmp/cc7R4ZW9.s:99906  .debug_str:00000000000273b9 .LASF7751
     /tmp/cc7R4ZW9.s:102584  .debug_str:000000000003201d .LASF7752
     /tmp/cc7R4ZW9.s:99910  .debug_str:00000000000273e5 .LASF7753
     /tmp/cc7R4ZW9.s:91206  .debug_str:00000000000039b4 .LASF7754
     /tmp/cc7R4ZW9.s:109008  .debug_str:000000000004ccd6 .LASF7755
     /tmp/cc7R4ZW9.s:103534  .debug_str:00000000000361cb .LASF7756
     /tmp/cc7R4ZW9.s:101448  .debug_str:000000000002d689 .LASF7757
     /tmp/cc7R4ZW9.s:103266  .debug_str:0000000000034ee5 .LASF7758
     /tmp/cc7R4ZW9.s:90440  .debug_str:00000000000005a7 .LASF7759
     /tmp/cc7R4ZW9.s:104872  .debug_str:000000000003b417 .LASF7760
     /tmp/cc7R4ZW9.s:103376  .debug_str:000000000003565b .LASF7761
     /tmp/cc7R4ZW9.s:103378  .debug_str:0000000000035677 .LASF7762
     /tmp/cc7R4ZW9.s:103380  .debug_str:0000000000035693 .LASF7763
     /tmp/cc7R4ZW9.s:103382  .debug_str:00000000000356af .LASF7764
     /tmp/cc7R4ZW9.s:109740  .debug_str:000000000004ff44 .LASF7765
     /tmp/cc7R4ZW9.s:100494  .debug_str:0000000000029b45 .LASF7766
     /tmp/cc7R4ZW9.s:103384  .debug_str:00000000000356cb .LASF7767
     /tmp/cc7R4ZW9.s:101086  .debug_str:000000000002c0d8 .LASF7768
     /tmp/cc7R4ZW9.s:108086  .debug_str:0000000000048ea6 .LASF7769
     /tmp/cc7R4ZW9.s:92410  .debug_str:0000000000008ba7 .LASF7770
     /tmp/cc7R4ZW9.s:105024  .debug_str:000000000003beae .LASF7771
     /tmp/cc7R4ZW9.s:108854  .debug_str:000000000004c28a .LASF7772
     /tmp/cc7R4ZW9.s:100502  .debug_str:0000000000029bb7 .LASF7773
     /tmp/cc7R4ZW9.s:105940  .debug_str:000000000003fc2b .LASF7774
     /tmp/cc7R4ZW9.s:105854  .debug_str:000000000003f66e .LASF7775
     /tmp/cc7R4ZW9.s:98162  .debug_str:00000000000204ca .LASF7776
     /tmp/cc7R4ZW9.s:100232  .debug_str:00000000000289d7 .LASF7777
     /tmp/cc7R4ZW9.s:95602  .debug_str:00000000000155c6 .LASF7778
     /tmp/cc7R4ZW9.s:100678  .debug_str:000000000002a774 .LASF7779
     /tmp/cc7R4ZW9.s:109702  .debug_str:000000000004fcc4 .LASF7780
     /tmp/cc7R4ZW9.s:96156  .debug_str:0000000000017aa8 .LASF7781
     /tmp/cc7R4ZW9.s:102892  .debug_str:0000000000033562 .LASF7782
     /tmp/cc7R4ZW9.s:107408  .debug_str:0000000000046242 .LASF7783
     /tmp/cc7R4ZW9.s:91712  .debug_str:0000000000005c47 .LASF7784
     /tmp/cc7R4ZW9.s:103470  .debug_str:0000000000035d8c .LASF7785
     /tmp/cc7R4ZW9.s:93104  .debug_str:000000000000bc14 .LASF7786
     /tmp/cc7R4ZW9.s:104136  .debug_str:0000000000038846 .LASF7787
     /tmp/cc7R4ZW9.s:102720  .debug_str:00000000000329fd .LASF7788
     /tmp/cc7R4ZW9.s:99762  .debug_str:0000000000026b48 .LASF7789
     /tmp/cc7R4ZW9.s:92084  .debug_str:000000000000759a .LASF7790
     /tmp/cc7R4ZW9.s:95194  .debug_str:0000000000013c73 .LASF7791
     /tmp/cc7R4ZW9.s:92154  .debug_str:0000000000007a6c .LASF7792
     /tmp/cc7R4ZW9.s:96550  .debug_str:00000000000192df .LASF7793
     /tmp/cc7R4ZW9.s:108988  .debug_str:000000000004cb99 .LASF7794
     /tmp/cc7R4ZW9.s:104952  .debug_str:000000000003b9c6 .LASF7795
     /tmp/cc7R4ZW9.s:99654  .debug_str:000000000002642a .LASF7796
     /tmp/cc7R4ZW9.s:95008  .debug_str:0000000000013009 .LASF7797
     /tmp/cc7R4ZW9.s:96088  .debug_str:000000000001756e .LASF7798
     /tmp/cc7R4ZW9.s:99008  .debug_str:0000000000023d8a .LASF7799
     /tmp/cc7R4ZW9.s:94582  .debug_str:0000000000011430 .LASF7800
     /tmp/cc7R4ZW9.s:106910  .debug_str:0000000000044209 .LASF7801
     /tmp/cc7R4ZW9.s:102296  .debug_str:0000000000030e8c .LASF7802
     /tmp/cc7R4ZW9.s:97880  .debug_str:000000000001f001 .LASF7803
     /tmp/cc7R4ZW9.s:90692  .debug_str:000000000000166a .LASF7804
     /tmp/cc7R4ZW9.s:104958  .debug_str:000000000003ba1b .LASF7805
     /tmp/cc7R4ZW9.s:97714  .debug_str:000000000001e513 .LASF7806
     /tmp/cc7R4ZW9.s:93260  .debug_str:000000000000c6a1 .LASF7807
     /tmp/cc7R4ZW9.s:102724  .debug_str:0000000000032a62 .LASF7808
     /tmp/cc7R4ZW9.s:103722  .debug_str:0000000000036ecb .LASF7809
     /tmp/cc7R4ZW9.s:98742  .debug_str:0000000000022b7b .LASF7810
     /tmp/cc7R4ZW9.s:101370  .debug_str:000000000002d1db .LASF7811
     /tmp/cc7R4ZW9.s:95718  .debug_str:0000000000015d57 .LASF7812
     /tmp/cc7R4ZW9.s:100286  .debug_str:0000000000028d8a .LASF7813
     /tmp/cc7R4ZW9.s:92672  .debug_str:0000000000009e76 .LASF7814
     /tmp/cc7R4ZW9.s:94162  .debug_str:000000000000fc6c .LASF7815
     /tmp/cc7R4ZW9.s:98412  .debug_str:0000000000021557 .LASF7816
     /tmp/cc7R4ZW9.s:94158  .debug_str:000000000000fc42 .LASF7817
     /tmp/cc7R4ZW9.s:98410  .debug_str:000000000002153e .LASF7818
     /tmp/cc7R4ZW9.s:96880  .debug_str:000000000001aa56 .LASF7819
     /tmp/cc7R4ZW9.s:97996  .debug_str:000000000001f8fe .LASF7820
     /tmp/cc7R4ZW9.s:108384  .debug_str:000000000004a246 .LASF7821
     /tmp/cc7R4ZW9.s:96650  .debug_str:0000000000019a1a .LASF7822
     /tmp/cc7R4ZW9.s:95200  .debug_str:0000000000013cc1 .LASF7823
     /tmp/cc7R4ZW9.s:93576  .debug_str:000000000000dbc5 .LASF7824
     /tmp/cc7R4ZW9.s:94982  .debug_str:0000000000012e46 .LASF7825
     /tmp/cc7R4ZW9.s:97396  .debug_str:000000000001ced5 .LASF7826
     /tmp/cc7R4ZW9.s:106050  .debug_str:00000000000402bb .LASF7827
     /tmp/cc7R4ZW9.s:106056  .debug_str:000000000004032d .LASF7828
     /tmp/cc7R4ZW9.s:101488  .debug_str:000000000002d8b3 .LASF7829
     /tmp/cc7R4ZW9.s:93696  .debug_str:000000000000e231 .LASF7830
     /tmp/cc7R4ZW9.s:95886  .debug_str:0000000000016774 .LASF7831
     /tmp/cc7R4ZW9.s:96926  .debug_str:000000000001add4 .LASF7832
     /tmp/cc7R4ZW9.s:108518  .debug_str:000000000004ab29 .LASF7833
     /tmp/cc7R4ZW9.s:97958  .debug_str:000000000001f620 .LASF7834
     /tmp/cc7R4ZW9.s:99448  .debug_str:0000000000025946 .LASF7835
     /tmp/cc7R4ZW9.s:107530  .debug_str:00000000000469d6 .LASF7836
     /tmp/cc7R4ZW9.s:91798  .debug_str:00000000000061ab .LASF7837
     /tmp/cc7R4ZW9.s:108202  .debug_str:000000000004967f .LASF7838
     /tmp/cc7R4ZW9.s:95404  .debug_str:00000000000149e9 .LASF7839
     /tmp/cc7R4ZW9.s:91408  .debug_str:00000000000047de .LASF7840
     /tmp/cc7R4ZW9.s:93556  .debug_str:000000000000da8a .LASF7841
     /tmp/cc7R4ZW9.s:105622  .debug_str:000000000003e7f0 .LASF7842
     /tmp/cc7R4ZW9.s:105088  .debug_str:000000000003c386 .LASF7843
     /tmp/cc7R4ZW9.s:102850  .debug_str:000000000003329b .LASF7844
     /tmp/cc7R4ZW9.s:101288  .debug_str:000000000002cd0d .LASF7845
     /tmp/cc7R4ZW9.s:104580  .debug_str:000000000003a029 .LASF7846
     /tmp/cc7R4ZW9.s:91624  .debug_str:000000000000568d .LASF7847
     /tmp/cc7R4ZW9.s:103564  .debug_str:0000000000036408 .LASF7848
     /tmp/cc7R4ZW9.s:100366  .debug_str:0000000000029397 .LASF7849
     /tmp/cc7R4ZW9.s:95988  .debug_str:0000000000016ee6 .LASF7850
     /tmp/cc7R4ZW9.s:94216  .debug_str:000000000000ff6c .LASF7851
     /tmp/cc7R4ZW9.s:107110  .debug_str:0000000000044ed8 .LASF7852
     /tmp/cc7R4ZW9.s:100086  .debug_str:0000000000027fda .LASF7853
     /tmp/cc7R4ZW9.s:104060  .debug_str:00000000000383cb .LASF7854
     /tmp/cc7R4ZW9.s:108610  .debug_str:000000000004b16d .LASF7855
     /tmp/cc7R4ZW9.s:104390  .debug_str:00000000000395cc .LASF7856
     /tmp/cc7R4ZW9.s:101008  .debug_str:000000000002bbc3 .LASF7857
     /tmp/cc7R4ZW9.s:91584  .debug_str:0000000000005388 .LASF7858
     /tmp/cc7R4ZW9.s:106430  .debug_str:00000000000420b1 .LASF7859
     /tmp/cc7R4ZW9.s:107266  .debug_str:0000000000045878 .LASF7860
     /tmp/cc7R4ZW9.s:109466  .debug_str:000000000004ed22 .LASF7861
     /tmp/cc7R4ZW9.s:97960  .debug_str:000000000001f62e .LASF7862
     /tmp/cc7R4ZW9.s:99530  .debug_str:0000000000025d4f .LASF7863
     /tmp/cc7R4ZW9.s:90716  .debug_str:0000000000001902 .LASF7864
     /tmp/cc7R4ZW9.s:103094  .debug_str:000000000003431c .LASF7865
     /tmp/cc7R4ZW9.s:91630  .debug_str:00000000000056bb .LASF7866
     /tmp/cc7R4ZW9.s:90974  .debug_str:0000000000002b14 .LASF7867
     /tmp/cc7R4ZW9.s:99694  .debug_str:0000000000026675 .LASF7868
     /tmp/cc7R4ZW9.s:92382  .debug_str:00000000000089e5 .LASF7869
     /tmp/cc7R4ZW9.s:96354  .debug_str:0000000000018737 .LASF7870
     /tmp/cc7R4ZW9.s:96422  .debug_str:0000000000018ac3 .LASF7871
     /tmp/cc7R4ZW9.s:99196  .debug_str:0000000000024a78 .LASF7872
     /tmp/cc7R4ZW9.s:100438  .debug_str:000000000002974f .LASF7873
     /tmp/cc7R4ZW9.s:91152  .debug_str:0000000000003615 .LASF7874
     /tmp/cc7R4ZW9.s:96914  .debug_str:000000000001ad26 .LASF7875
     /tmp/cc7R4ZW9.s:105824  .debug_str:000000000003f4a1 .LASF7876
     /tmp/cc7R4ZW9.s:95058  .debug_str:0000000000013409 .LASF7877
     /tmp/cc7R4ZW9.s:107214  .debug_str:0000000000045505 .LASF7878
     /tmp/cc7R4ZW9.s:95054  .debug_str:00000000000133df .LASF7879
     /tmp/cc7R4ZW9.s:106952  .debug_str:0000000000044470 .LASF7880
     /tmp/cc7R4ZW9.s:102350  .debug_str:000000000003119b .LASF7881
     /tmp/cc7R4ZW9.s:97422  .debug_str:000000000001d0a9 .LASF7882
     /tmp/cc7R4ZW9.s:102884  .debug_str:00000000000334d5 .LASF7883
     /tmp/cc7R4ZW9.s:105744  .debug_str:000000000003ef83 .LASF7884
     /tmp/cc7R4ZW9.s:104336  .debug_str:000000000003934d .LASF7885
     /tmp/cc7R4ZW9.s:98430  .debug_str:00000000000216ba .LASF7886
     /tmp/cc7R4ZW9.s:100608  .debug_str:000000000002a2ea .LASF7887
     /tmp/cc7R4ZW9.s:107962  .debug_str:00000000000486c2 .LASF7888
     /tmp/cc7R4ZW9.s:104138  .debug_str:0000000000038855 .LASF7889
     /tmp/cc7R4ZW9.s:107972  .debug_str:0000000000048763 .LASF7890
     /tmp/cc7R4ZW9.s:95524  .debug_str:000000000001509c .LASF7891
     /tmp/cc7R4ZW9.s:90520  .debug_str:0000000000000aeb .LASF7892
     /tmp/cc7R4ZW9.s:107748  .debug_str:0000000000047870 .LASF7893
     /tmp/cc7R4ZW9.s:108904  .debug_str:000000000004c5b0 .LASF7894
     /tmp/cc7R4ZW9.s:105666  .debug_str:000000000003eb2f .LASF7895
     /tmp/cc7R4ZW9.s:106176  .debug_str:0000000000040b03 .LASF7896
     /tmp/cc7R4ZW9.s:109604  .debug_str:000000000004f61a .LASF7897
     /tmp/cc7R4ZW9.s:101058  .debug_str:000000000002bed8 .LASF7898
     /tmp/cc7R4ZW9.s:108434  .debug_str:000000000004a58b .LASF7899
     /tmp/cc7R4ZW9.s:95156  .debug_str:0000000000013a1a .LASF7900
     /tmp/cc7R4ZW9.s:92402  .debug_str:0000000000008b49 .LASF7901
     /tmp/cc7R4ZW9.s:109744  .debug_str:000000000004ff62 .LASF7902
     /tmp/cc7R4ZW9.s:91460  .debug_str:0000000000004bbc .LASF7903
     /tmp/cc7R4ZW9.s:106916  .debug_str:000000000004425d .LASF7904
     /tmp/cc7R4ZW9.s:96036  .debug_str:00000000000171a5 .LASF7905
     /tmp/cc7R4ZW9.s:98270  .debug_str:0000000000020c9d .LASF7906
     /tmp/cc7R4ZW9.s:93652  .debug_str:000000000000df58 .LASF7907
     /tmp/cc7R4ZW9.s:93374  .debug_str:000000000000ceb9 .LASF7908
     /tmp/cc7R4ZW9.s:99852  .debug_str:000000000002710a .LASF7909
     /tmp/cc7R4ZW9.s:101790  .debug_str:000000000002ed3f .LASF7910
     /tmp/cc7R4ZW9.s:95784  .debug_str:00000000000160f7 .LASF7911
     /tmp/cc7R4ZW9.s:98606  .debug_str:000000000002225f .LASF7912
     /tmp/cc7R4ZW9.s:101046  .debug_str:000000000002bdaa .LASF7913
     /tmp/cc7R4ZW9.s:92982  .debug_str:000000000000b34e .LASF7914
     /tmp/cc7R4ZW9.s:100524  .debug_str:0000000000029d37 .LASF7915
     /tmp/cc7R4ZW9.s:99632  .debug_str:00000000000262f5 .LASF7916
     /tmp/cc7R4ZW9.s:99638  .debug_str:0000000000026335 .LASF7917
     /tmp/cc7R4ZW9.s:92012  .debug_str:0000000000007101 .LASF7918
     /tmp/cc7R4ZW9.s:101528  .debug_str:000000000002dbb4 .LASF7919
     /tmp/cc7R4ZW9.s:101512  .debug_str:000000000002da5b .LASF7920
     /tmp/cc7R4ZW9.s:105958  .debug_str:000000000003fd67 .LASF7921
     /tmp/cc7R4ZW9.s:91490  .debug_str:0000000000004dff .LASF7922
     /tmp/cc7R4ZW9.s:108752  .debug_str:000000000004bbbf .LASF7923
     /tmp/cc7R4ZW9.s:108016  .debug_str:0000000000048a56 .LASF7924
     /tmp/cc7R4ZW9.s:108372  .debug_str:000000000004a165 .LASF7925
     /tmp/cc7R4ZW9.s:104796  .debug_str:000000000003aef9 .LASF7926
     /tmp/cc7R4ZW9.s:93718  .debug_str:000000000000e35d .LASF7927
     /tmp/cc7R4ZW9.s:95348  .debug_str:00000000000145e6 .LASF7928
     /tmp/cc7R4ZW9.s:91698  .debug_str:0000000000005b8b .LASF7929
     /tmp/cc7R4ZW9.s:106720  .debug_str:00000000000434e1 .LASF7930
     /tmp/cc7R4ZW9.s:100688  .debug_str:000000000002a849 .LASF7931
     /tmp/cc7R4ZW9.s:100690  .debug_str:000000000002a857 .LASF7932
     /tmp/cc7R4ZW9.s:100692  .debug_str:000000000002a865 .LASF7933
     /tmp/cc7R4ZW9.s:100694  .debug_str:000000000002a873 .LASF7934
     /tmp/cc7R4ZW9.s:100696  .debug_str:000000000002a881 .LASF7935
     /tmp/cc7R4ZW9.s:100698  .debug_str:000000000002a88f .LASF7936
     /tmp/cc7R4ZW9.s:100700  .debug_str:000000000002a89d .LASF7937
     /tmp/cc7R4ZW9.s:100702  .debug_str:000000000002a8ab .LASF7938
     /tmp/cc7R4ZW9.s:100704  .debug_str:000000000002a8b9 .LASF7939
     /tmp/cc7R4ZW9.s:100706  .debug_str:000000000002a8c7 .LASF7940
     /tmp/cc7R4ZW9.s:108662  .debug_str:000000000004b59e .LASF7941
     /tmp/cc7R4ZW9.s:93002  .debug_str:000000000000b52e .LASF7942
     /tmp/cc7R4ZW9.s:103618  .debug_str:00000000000367c6 .LASF7943
     /tmp/cc7R4ZW9.s:99226  .debug_str:0000000000024b55 .LASF7944
     /tmp/cc7R4ZW9.s:91548  .debug_str:0000000000005199 .LASF7945
     /tmp/cc7R4ZW9.s:106880  .debug_str:0000000000043fc4 .LASF7946
     /tmp/cc7R4ZW9.s:98614  .debug_str:00000000000222f4 .LASF7947
     /tmp/cc7R4ZW9.s:95862  .debug_str:00000000000165e6 .LASF7948
     /tmp/cc7R4ZW9.s:106890  .debug_str:0000000000044033 .LASF7949
     /tmp/cc7R4ZW9.s:91420  .debug_str:00000000000048bb .LASF7950
     /tmp/cc7R4ZW9.s:90452  .debug_str:000000000000066c .LASF7951
     /tmp/cc7R4ZW9.s:97826  .debug_str:000000000001ec98 .LASF7952
     /tmp/cc7R4ZW9.s:94378  .debug_str:00000000000107d3 .LASF7953
     /tmp/cc7R4ZW9.s:109424  .debug_str:000000000004ea90 .LASF7954
     /tmp/cc7R4ZW9.s:93136  .debug_str:000000000000bed5 .LASF7955
     /tmp/cc7R4ZW9.s:100742  .debug_str:000000000002aaf8 .LASF7956
     /tmp/cc7R4ZW9.s:103726  .debug_str:0000000000036ef7 .LASF7957
     /tmp/cc7R4ZW9.s:107348  .debug_str:0000000000045e5b .LASF7958
     /tmp/cc7R4ZW9.s:107822  .debug_str:0000000000047d43 .LASF7959
     /tmp/cc7R4ZW9.s:97020  .debug_str:000000000001b3c3 .LASF7960
     /tmp/cc7R4ZW9.s:107350  .debug_str:0000000000045e6e .LASF7961
     /tmp/cc7R4ZW9.s:101774  .debug_str:000000000002ec2e .LASF7962
     /tmp/cc7R4ZW9.s:96460  .debug_str:0000000000018ce5 .LASF7963
     /tmp/cc7R4ZW9.s:91526  .debug_str:0000000000004fe5 .LASF7964
     /tmp/cc7R4ZW9.s:107554  .debug_str:0000000000046b9b .LASF7965
     /tmp/cc7R4ZW9.s:96462  .debug_str:0000000000018cf7 .LASF7966
     /tmp/cc7R4ZW9.s:103658  .debug_str:0000000000036a8c .LASF7967
     /tmp/cc7R4ZW9.s:101490  .debug_str:000000000002d8bc .LASF7968
     /tmp/cc7R4ZW9.s:96464  .debug_str:0000000000018d09 .LASF7969
     /tmp/cc7R4ZW9.s:91530  .debug_str:0000000000005023 .LASF7970
     /tmp/cc7R4ZW9.s:95230  .debug_str:0000000000013eab .LASF7971
     /tmp/cc7R4ZW9.s:98818  .debug_str:0000000000023077 .LASF7972
     /tmp/cc7R4ZW9.s:103664  .debug_str:0000000000036afe .LASF7973
     /tmp/cc7R4ZW9.s:108496  .debug_str:000000000004a956 .LASF7974
     /tmp/cc7R4ZW9.s:94860  .debug_str:00000000000125fd .LASF7975
     /tmp/cc7R4ZW9.s:108804  .debug_str:000000000004bf2a .LASF7976
     /tmp/cc7R4ZW9.s:92802  .debug_str:000000000000a6dc .LASF7977
     /tmp/cc7R4ZW9.s:94862  .debug_str:000000000001260f .LASF7978
     /tmp/cc7R4ZW9.s:109118  .debug_str:000000000004d4a2 .LASF7979
     /tmp/cc7R4ZW9.s:106172  .debug_str:0000000000040a9b .LASF7980
     /tmp/cc7R4ZW9.s:94864  .debug_str:0000000000012621 .LASF7981
     /tmp/cc7R4ZW9.s:109414  .debug_str:000000000004ea09 .LASF7982
     /tmp/cc7R4ZW9.s:100074  .debug_str:0000000000027f06 .LASF7983
     /tmp/cc7R4ZW9.s:95800  .debug_str:00000000000161e0 .LASF7984
     /tmp/cc7R4ZW9.s:90506  .debug_str:00000000000009fd .LASF7985
     /tmp/cc7R4ZW9.s:101558  .debug_str:000000000002dd7d .LASF7986
     /tmp/cc7R4ZW9.s:107064  .debug_str:0000000000044b5a .LASF7987
     /tmp/cc7R4ZW9.s:96792  .debug_str:000000000001a3ee .LASF7988
     /tmp/cc7R4ZW9.s:102434  .debug_str:0000000000031686 .LASF7989
     /tmp/cc7R4ZW9.s:96018  .debug_str:00000000000170aa .LASF7990
     /tmp/cc7R4ZW9.s:107118  .debug_str:0000000000044f7e .LASF7991
     /tmp/cc7R4ZW9.s:91000  .debug_str:0000000000002ca1 .LASF7992
     /tmp/cc7R4ZW9.s:101226  .debug_str:000000000002c90a .LASF7993
     /tmp/cc7R4ZW9.s:92458  .debug_str:0000000000008f24 .LASF7994
     /tmp/cc7R4ZW9.s:103700  .debug_str:0000000000036d64 .LASF7995
     /tmp/cc7R4ZW9.s:96038  .debug_str:00000000000171b9 .LASF7996
     /tmp/cc7R4ZW9.s:102564  .debug_str:0000000000031eb9 .LASF7997
     /tmp/cc7R4ZW9.s:99626  .debug_str:000000000002628e .LASF7998
     /tmp/cc7R4ZW9.s:106646  .debug_str:0000000000042f9f .LASF7999
     /tmp/cc7R4ZW9.s:90670  .debug_str:00000000000014ee .LASF8000
     /tmp/cc7R4ZW9.s:109444  .debug_str:000000000004ebd4 .LASF8001
     /tmp/cc7R4ZW9.s:106658  .debug_str:00000000000430ab .LASF8002
     /tmp/cc7R4ZW9.s:98422  .debug_str:0000000000021631 .LASF8003
     /tmp/cc7R4ZW9.s:99044  .debug_str:0000000000023fe1 .LASF8004
     /tmp/cc7R4ZW9.s:99630  .debug_str:00000000000262e9 .LASF8005
     /tmp/cc7R4ZW9.s:91314  .debug_str:0000000000004162 .LASF8006
     /tmp/cc7R4ZW9.s:101962  .debug_str:000000000002f8cc .LASF8007
     /tmp/cc7R4ZW9.s:107228  .debug_str:0000000000045635 .LASF8008
     /tmp/cc7R4ZW9.s:108778  .debug_str:000000000004bd81 .LASF8009
     /tmp/cc7R4ZW9.s:92398  .debug_str:0000000000008b03 .LASF8010
     /tmp/cc7R4ZW9.s:92932  .debug_str:000000000000afaa .LASF8011
     /tmp/cc7R4ZW9.s:95738  .debug_str:0000000000015e82 .LASF8012
     /tmp/cc7R4ZW9.s:103892  .debug_str:00000000000379a5 .LASF8013
     /tmp/cc7R4ZW9.s:100388  .debug_str:0000000000029508 .LASF8014
     /tmp/cc7R4ZW9.s:92344  .debug_str:0000000000008743 .LASF8015
     /tmp/cc7R4ZW9.s:97942  .debug_str:000000000001f4b9 .LASF8016
     /tmp/cc7R4ZW9.s:95446  .debug_str:0000000000014c0c .LASF8017
     /tmp/cc7R4ZW9.s:96318  .debug_str:00000000000184f7 .LASF8018
     /tmp/cc7R4ZW9.s:107714  .debug_str:0000000000047590 .LASF8019
     /tmp/cc7R4ZW9.s:90864  .debug_str:00000000000023bb .LASF8020
     /tmp/cc7R4ZW9.s:102880  .debug_str:0000000000033493 .LASF8021
     /tmp/cc7R4ZW9.s:104064  .debug_str:0000000000038417 .LASF8022
     /tmp/cc7R4ZW9.s:103070  .debug_str:0000000000034184 .LASF8023
     /tmp/cc7R4ZW9.s:90636  .debug_str:00000000000012a2 .LASF8024
     /tmp/cc7R4ZW9.s:98694  .debug_str:000000000002282c .LASF8025
     /tmp/cc7R4ZW9.s:104540  .debug_str:0000000000039dd3 .LASF8026
     /tmp/cc7R4ZW9.s:103984  .debug_str:0000000000037f02 .LASF8027
     /tmp/cc7R4ZW9.s:108076  .debug_str:0000000000048e08 .LASF8028
     /tmp/cc7R4ZW9.s:107928  .debug_str:00000000000484ac .LASF8029
     /tmp/cc7R4ZW9.s:102032  .debug_str:000000000002fd3a .LASF8030
     /tmp/cc7R4ZW9.s:96916  .debug_str:000000000001ad31 .LASF8031
     /tmp/cc7R4ZW9.s:108536  .debug_str:000000000004acaa .LASF8032
     /tmp/cc7R4ZW9.s:98778  .debug_str:0000000000022df4 .LASF8033
     /tmp/cc7R4ZW9.s:108240  .debug_str:00000000000498d8 .LASF8034
     /tmp/cc7R4ZW9.s:104910  .debug_str:000000000003b76a .LASF8035
     /tmp/cc7R4ZW9.s:101944  .debug_str:000000000002f7fe .LASF8036
     /tmp/cc7R4ZW9.s:105352  .debug_str:000000000003d4a9 .LASF8037
     /tmp/cc7R4ZW9.s:90988  .debug_str:0000000000002bd4 .LASF8038
     /tmp/cc7R4ZW9.s:99174  .debug_str:0000000000024926 .LASF8039
     /tmp/cc7R4ZW9.s:100076  .debug_str:0000000000027f2c .LASF8040
     /tmp/cc7R4ZW9.s:94998  .debug_str:0000000000012f52 .LASF8041
     /tmp/cc7R4ZW9.s:96612  .debug_str:0000000000019795 .LASF8042
     /tmp/cc7R4ZW9.s:101190  .debug_str:000000000002c6e2 .LASF8043
     /tmp/cc7R4ZW9.s:102318  .debug_str:0000000000030fe0 .LASF8044
     /tmp/cc7R4ZW9.s:96238  .debug_str:0000000000018010 .LASF8045
     /tmp/cc7R4ZW9.s:108208  .debug_str:00000000000496bf .LASF8046
     /tmp/cc7R4ZW9.s:99984  .debug_str:0000000000027929 .LASF8047
     /tmp/cc7R4ZW9.s:94440  .debug_str:0000000000010af2 .LASF8048
     /tmp/cc7R4ZW9.s:96082  .debug_str:00000000000174f6 .LASF8049
     /tmp/cc7R4ZW9.s:108764  .debug_str:000000000004bc64 .LASF8050
     /tmp/cc7R4ZW9.s:91472  .debug_str:0000000000004c6e .LASF8051
     /tmp/cc7R4ZW9.s:95780  .debug_str:0000000000016088 .LASF8052
     /tmp/cc7R4ZW9.s:93452  .debug_str:000000000000d420 .LASF8053
     /tmp/cc7R4ZW9.s:108870  .debug_str:000000000004c386 .LASF8054
     /tmp/cc7R4ZW9.s:104726  .debug_str:000000000003aa00 .LASF8055
     /tmp/cc7R4ZW9.s:98152  .debug_str:0000000000020402 .LASF8056
     /tmp/cc7R4ZW9.s:102068  .debug_str:000000000002ffe5 .LASF8057
     /tmp/cc7R4ZW9.s:99050  .debug_str:0000000000024039 .LASF8058
     /tmp/cc7R4ZW9.s:95722  .debug_str:0000000000015d84 .LASF8059
     /tmp/cc7R4ZW9.s:98482  .debug_str:0000000000021a31 .LASF8060
     /tmp/cc7R4ZW9.s:101660  .debug_str:000000000002e41f .LASF8061
     /tmp/cc7R4ZW9.s:90618  .debug_str:0000000000001182 .LASF8062
     /tmp/cc7R4ZW9.s:93672  .debug_str:000000000000e0c8 .LASF8063
     /tmp/cc7R4ZW9.s:107324  .debug_str:0000000000045d08 .LASF8064
     /tmp/cc7R4ZW9.s:97312  .debug_str:000000000001c8ad .LASF8065
     /tmp/cc7R4ZW9.s:105240  .debug_str:000000000003cdaa .LASF8066
     /tmp/cc7R4ZW9.s:94970  .debug_str:0000000000012d71 .LASF8067
     /tmp/cc7R4ZW9.s:102876  .debug_str:000000000003345a .LASF8068
     /tmp/cc7R4ZW9.s:92064  .debug_str:00000000000074c4 .LASF8069
     /tmp/cc7R4ZW9.s:96608  .debug_str:000000000001975f .LASF8070
     /tmp/cc7R4ZW9.s:101074  .debug_str:000000000002c00a .LASF8071
     /tmp/cc7R4ZW9.s:103614  .debug_str:0000000000036785 .LASF8072
     /tmp/cc7R4ZW9.s:100470  .debug_str:00000000000299db .LASF8073
     /tmp/cc7R4ZW9.s:107060  .debug_str:0000000000044b3d .LASF8074
     /tmp/cc7R4ZW9.s:94712  .debug_str:0000000000011c26 .LASF8075
     /tmp/cc7R4ZW9.s:101872  .debug_str:000000000002f28a .LASF8076
     /tmp/cc7R4ZW9.s:95742  .debug_str:0000000000015eb6 .LASF8077
     /tmp/cc7R4ZW9.s:106886  .debug_str:000000000004401b .LASF8078
     /tmp/cc7R4ZW9.s:106496  .debug_str:000000000004259c .LASF8079
     /tmp/cc7R4ZW9.s:100758  .debug_str:000000000002ac22 .LASF8080
     /tmp/cc7R4ZW9.s:108728  .debug_str:000000000004ba41 .LASF8081
     /tmp/cc7R4ZW9.s:95468  .debug_str:0000000000014d06 .LASF8082
     /tmp/cc7R4ZW9.s:96194  .debug_str:0000000000017d6d .LASF8083
     /tmp/cc7R4ZW9.s:105258  .debug_str:000000000003ced6 .LASF8084
     /tmp/cc7R4ZW9.s:105764  .debug_str:000000000003f0af .LASF8085
     /tmp/cc7R4ZW9.s:94278  .debug_str:0000000000010222 .LASF8086
     /tmp/cc7R4ZW9.s:103524  .debug_str:0000000000036149 .LASF8087
     /tmp/cc7R4ZW9.s:97666  .debug_str:000000000001e18e .LASF8088
     /tmp/cc7R4ZW9.s:101706  .debug_str:000000000002e71d .LASF8089
     /tmp/cc7R4ZW9.s:98102  .debug_str:000000000002007d .LASF8090
     /tmp/cc7R4ZW9.s:107202  .debug_str:000000000004542c .LASF8091
     /tmp/cc7R4ZW9.s:107548  .debug_str:0000000000046b12 .LASF8092
     /tmp/cc7R4ZW9.s:90612  .debug_str:0000000000001146 .LASF8093
     /tmp/cc7R4ZW9.s:108760  .debug_str:000000000004bc17 .LASF8094
     /tmp/cc7R4ZW9.s:109780  .debug_str:00000000000501e6 .LASF8095
     /tmp/cc7R4ZW9.s:99162  .debug_str:000000000002486d .LASF8096
     /tmp/cc7R4ZW9.s:93882  .debug_str:000000000000ec97 .LASF8097
     /tmp/cc7R4ZW9.s:106934  .debug_str:000000000004432e .LASF8098
     /tmp/cc7R4ZW9.s:93784  .debug_str:000000000000e7ac .LASF8099
     /tmp/cc7R4ZW9.s:90408  .debug_str:000000000000031b .LASF8100
     /tmp/cc7R4ZW9.s:106924  .debug_str:00000000000442ba .LASF8101
     /tmp/cc7R4ZW9.s:96544  .debug_str:000000000001926b .LASF8102
     /tmp/cc7R4ZW9.s:94610  .debug_str:0000000000011516 .LASF8103
     /tmp/cc7R4ZW9.s:96118  .debug_str:00000000000177ca .LASF8104
     /tmp/cc7R4ZW9.s:98580  .debug_str:0000000000022110 .LASF8105
     /tmp/cc7R4ZW9.s:96488  .debug_str:0000000000018eab .LASF8106
     /tmp/cc7R4ZW9.s:97656  .debug_str:000000000001e0bf .LASF8107
     /tmp/cc7R4ZW9.s:95818  .debug_str:00000000000162fb .LASF8108
     /tmp/cc7R4ZW9.s:101314  .debug_str:000000000002cead .LASF8109
     /tmp/cc7R4ZW9.s:99962  .debug_str:0000000000027755 .LASF8110
     /tmp/cc7R4ZW9.s:102408  .debug_str:0000000000031506 .LASF8111
     /tmp/cc7R4ZW9.s:106764  .debug_str:00000000000437e3 .LASF8112
     /tmp/cc7R4ZW9.s:100926  .debug_str:000000000002b6ed .LASF8113
     /tmp/cc7R4ZW9.s:107280  .debug_str:00000000000459f0 .LASF8114
     /tmp/cc7R4ZW9.s:99870  .debug_str:0000000000027219 .LASF8115
     /tmp/cc7R4ZW9.s:100916  .debug_str:000000000002b66d .LASF8116
     /tmp/cc7R4ZW9.s:107274  .debug_str:000000000004599a .LASF8117
     /tmp/cc7R4ZW9.s:104148  .debug_str:000000000003891f .LASF8118
     /tmp/cc7R4ZW9.s:107048  .debug_str:0000000000044a69 .LASF8119
     /tmp/cc7R4ZW9.s:96288  .debug_str:00000000000182c4 .LASF8120
     /tmp/cc7R4ZW9.s:100948  .debug_str:000000000002b86b .LASF8121
     /tmp/cc7R4ZW9.s:107038  .debug_str:0000000000044a0a .LASF8122
     /tmp/cc7R4ZW9.s:93894  .debug_str:000000000000ed1b .LASF8123
     /tmp/cc7R4ZW9.s:95122  .debug_str:00000000000137fc .LASF8124
     /tmp/cc7R4ZW9.s:90406  .debug_str:000000000000030a .LASF8125
     /tmp/cc7R4ZW9.s:90370  .debug_str:000000000000006f .LASF8126
     /tmp/cc7R4ZW9.s:108710  .debug_str:000000000004b904 .LASF8127
     /tmp/cc7R4ZW9.s:93600  .debug_str:000000000000dcf3 .LASF8128
     /tmp/cc7R4ZW9.s:93564  .debug_str:000000000000daee .LASF8129
     /tmp/cc7R4ZW9.s:109682  .debug_str:000000000004fb5d .LASF8130
     /tmp/cc7R4ZW9.s:97160  .debug_str:000000000001bd94 .LASF8131
     /tmp/cc7R4ZW9.s:91502  .debug_str:0000000000004ea3 .LASF8132
     /tmp/cc7R4ZW9.s:96126  .debug_str:000000000001785d .LASF8133
     /tmp/cc7R4ZW9.s:104324  .debug_str:0000000000039289 .LASF8134
     /tmp/cc7R4ZW9.s:93584  .debug_str:000000000000dc51 .LASF8135
     /tmp/cc7R4ZW9.s:104854  .debug_str:000000000003b313 .LASF8136
     /tmp/cc7R4ZW9.s:93776  .debug_str:000000000000e74c .LASF8137
     /tmp/cc7R4ZW9.s:93586  .debug_str:000000000000dc5a .LASF8138
     /tmp/cc7R4ZW9.s:98610  .debug_str:00000000000222b6 .LASF8139
     /tmp/cc7R4ZW9.s:104332  .debug_str:0000000000039313 .LASF8140
     /tmp/cc7R4ZW9.s:93590  .debug_str:000000000000dc76 .LASF8141
     /tmp/cc7R4ZW9.s:105698  .debug_str:000000000003ed32 .LASF8142
     /tmp/cc7R4ZW9.s:93658  .debug_str:000000000000dfa7 .LASF8143
     /tmp/cc7R4ZW9.s:93154  .debug_str:000000000000bff9 .LASF8144
     /tmp/cc7R4ZW9.s:90676  .debug_str:000000000000152d .LASF8145
     /tmp/cc7R4ZW9.s:103906  .debug_str:0000000000037ac5 .LASF8146
     /tmp/cc7R4ZW9.s:90966  .debug_str:0000000000002aa2 .LASF8147
     /tmp/cc7R4ZW9.s:99836  .debug_str:000000000002700b .LASF8148
     /tmp/cc7R4ZW9.s:103908  .debug_str:0000000000037add .LASF8149
     /tmp/cc7R4ZW9.s:98370  .debug_str:00000000000212ae .LASF8150
     /tmp/cc7R4ZW9.s:106148  .debug_str:00000000000408bf .LASF8151
     /tmp/cc7R4ZW9.s:109186  .debug_str:000000000004d8f1 .LASF8152
     /tmp/cc7R4ZW9.s:96338  .debug_str:0000000000018641 .LASF8153
     /tmp/cc7R4ZW9.s:102176  .debug_str:000000000003064c .LASF8154
     /tmp/cc7R4ZW9.s:109188  .debug_str:000000000004d909 .LASF8155
     /tmp/cc7R4ZW9.s:96340  .debug_str:0000000000018659 .LASF8156
     /tmp/cc7R4ZW9.s:95936  .debug_str:0000000000016b05 .LASF8157
     /tmp/cc7R4ZW9.s:96138  .debug_str:000000000001793a .LASF8158
     /tmp/cc7R4ZW9.s:101762  .debug_str:000000000002eb31 .LASF8159
     /tmp/cc7R4ZW9.s:94556  .debug_str:000000000001127f .LASF8160
     /tmp/cc7R4ZW9.s:95062  .debug_str:0000000000013436 .LASF8161
     /tmp/cc7R4ZW9.s:101764  .debug_str:000000000002eb49 .LASF8162
     /tmp/cc7R4ZW9.s:107884  .debug_str:00000000000481c8 .LASF8163
     /tmp/cc7R4ZW9.s:100432  .debug_str:00000000000296f7 .LASF8164
     /tmp/cc7R4ZW9.s:107004  .debug_str:0000000000044798 .LASF8165
     /tmp/cc7R4ZW9.s:106714  .debug_str:0000000000043471 .LASF8166
     /tmp/cc7R4ZW9.s:100434  .debug_str:000000000002970f .LASF8167
     /tmp/cc7R4ZW9.s:107006  .debug_str:00000000000447b0 .LASF8168
     /tmp/cc7R4ZW9.s:100596  .debug_str:000000000002a1f5 .LASF8169
     /tmp/cc7R4ZW9.s:105694  .debug_str:000000000003ed02 .LASF8170
     /tmp/cc7R4ZW9.s:102158  .debug_str:00000000000304fa .LASF8171
     /tmp/cc7R4ZW9.s:99344  .debug_str:0000000000025301 .LASF8172
     /tmp/cc7R4ZW9.s:105696  .debug_str:000000000003ed1a .LASF8173
     /tmp/cc7R4ZW9.s:92774  .debug_str:000000000000a4a4 .LASF8174
     /tmp/cc7R4ZW9.s:93114  .debug_str:000000000000bd34 .LASF8175
     /tmp/cc7R4ZW9.s:91564  .debug_str:0000000000005258 .LASF8176
     /tmp/cc7R4ZW9.s:98218  .debug_str:0000000000020985 .LASF8177
     /tmp/cc7R4ZW9.s:91828  .debug_str:00000000000063be .LASF8178
     /tmp/cc7R4ZW9.s:91566  .debug_str:0000000000005270 .LASF8179
     /tmp/cc7R4ZW9.s:98220  .debug_str:000000000002099d .LASF8180
     /tmp/cc7R4ZW9.s:105206  .debug_str:000000000003cb7c .LASF8181
     /tmp/cc7R4ZW9.s:96944  .debug_str:000000000001aee8 .LASF8182
     /tmp/cc7R4ZW9.s:103580  .debug_str:000000000003653b .LASF8183
     /tmp/cc7R4ZW9.s:100512  .debug_str:0000000000029c3e .LASF8184
     /tmp/cc7R4ZW9.s:96946  .debug_str:000000000001af00 .LASF8185
     /tmp/cc7R4ZW9.s:103582  .debug_str:0000000000036553 .LASF8186
     /tmp/cc7R4ZW9.s:97820  .debug_str:000000000001ec22 .LASF8187
     /tmp/cc7R4ZW9.s:102322  .debug_str:0000000000030ffc .LASF8188
     /tmp/cc7R4ZW9.s:108838  .debug_str:000000000004c18f .LASF8189
     /tmp/cc7R4ZW9.s:96656  .debug_str:0000000000019a8d .LASF8190
     /tmp/cc7R4ZW9.s:102324  .debug_str:0000000000031014 .LASF8191
     /tmp/cc7R4ZW9.s:108840  .debug_str:000000000004c1a7 .LASF8192
     /tmp/cc7R4ZW9.s:90474  .debug_str:00000000000007b6 .LASF8193
     /tmp/cc7R4ZW9.s:107596  .debug_str:0000000000046df7 .LASF8194
     /tmp/cc7R4ZW9.s:94730  .debug_str:0000000000011d73 .LASF8195
     /tmp/cc7R4ZW9.s:108552  .debug_str:000000000004ada5 .LASF8196
     /tmp/cc7R4ZW9.s:107598  .debug_str:0000000000046e0f .LASF8197
     /tmp/cc7R4ZW9.s:94732  .debug_str:0000000000011d8b .LASF8198
     /tmp/cc7R4ZW9.s:102500  .debug_str:0000000000031ae5 .LASF8199
     /tmp/cc7R4ZW9.s:93382  .debug_str:000000000000cf27 .LASF8200
     /tmp/cc7R4ZW9.s:100100  .debug_str:00000000000280ef .LASF8201
     /tmp/cc7R4ZW9.s:101346  .debug_str:000000000002d073 .LASF8202
     /tmp/cc7R4ZW9.s:93384  .debug_str:000000000000cf3f .LASF8203
     /tmp/cc7R4ZW9.s:97056  .debug_str:000000000001b62b .LASF8204
     /tmp/cc7R4ZW9.s:95088  .debug_str:0000000000013634 .LASF8205
     /tmp/cc7R4ZW9.s:109314  .debug_str:000000000004e327 .LASF8206
     /tmp/cc7R4ZW9.s:94910  .debug_str:000000000001291e .LASF8207
     /tmp/cc7R4ZW9.s:97314  .debug_str:000000000001c8c5 .LASF8208
     /tmp/cc7R4ZW9.s:109316  .debug_str:000000000004e340 .LASF8209
     /tmp/cc7R4ZW9.s:94912  .debug_str:0000000000012937 .LASF8210
     /tmp/cc7R4ZW9.s:91112  .debug_str:0000000000003440 .LASF8211
     /tmp/cc7R4ZW9.s:95196  .debug_str:0000000000013c8f .LASF8212
     /tmp/cc7R4ZW9.s:104846  .debug_str:000000000003b293 .LASF8213
     /tmp/cc7R4ZW9.s:109408  .debug_str:000000000004e9ab .LASF8214
     /tmp/cc7R4ZW9.s:95198  .debug_str:0000000000013ca8 .LASF8215
     /tmp/cc7R4ZW9.s:100264  .debug_str:0000000000028c13 .LASF8216
     /tmp/cc7R4ZW9.s:103338  .debug_str:00000000000353a5 .LASF8217
     /tmp/cc7R4ZW9.s:98560  .debug_str:000000000002203e .LASF8218
     /tmp/cc7R4ZW9.s:105550  .debug_str:000000000003e349 .LASF8219
     /tmp/cc7R4ZW9.s:102154  .debug_str:00000000000304a3 .LASF8220
     /tmp/cc7R4ZW9.s:98562  .debug_str:0000000000022057 .LASF8221
     /tmp/cc7R4ZW9.s:105552  .debug_str:000000000003e362 .LASF8222
     /tmp/cc7R4ZW9.s:95902  .debug_str:00000000000168c3 .LASF8223
     /tmp/cc7R4ZW9.s:109200  .debug_str:000000000004d9e5 .LASF8224
     /tmp/cc7R4ZW9.s:91400  .debug_str:0000000000004772 .LASF8225
     /tmp/cc7R4ZW9.s:94522  .debug_str:0000000000010fd3 .LASF8226
     /tmp/cc7R4ZW9.s:105834  .debug_str:000000000003f537 .LASF8227
     /tmp/cc7R4ZW9.s:91402  .debug_str:000000000000478b .LASF8228
     /tmp/cc7R4ZW9.s:107854  .debug_str:0000000000047f9b .LASF8229
     /tmp/cc7R4ZW9.s:91700  .debug_str:0000000000005b96 .LASF8230
     /tmp/cc7R4ZW9.s:96794  .debug_str:000000000001a3ff .LASF8231
     /tmp/cc7R4ZW9.s:106682  .debug_str:0000000000043264 .LASF8232
     /tmp/cc7R4ZW9.s:91702  .debug_str:0000000000005baf .LASF8233
     /tmp/cc7R4ZW9.s:105324  .debug_str:000000000003d305 .LASF8234
     /tmp/cc7R4ZW9.s:100566  .debug_str:0000000000029ff8 .LASF8235
     /tmp/cc7R4ZW9.s:97096  .debug_str:000000000001b8a4 .LASF8236
     /tmp/cc7R4ZW9.s:102184  .debug_str:00000000000306e7 .LASF8237
     /tmp/cc7R4ZW9.s:99314  .debug_str:000000000002513f .LASF8238
     /tmp/cc7R4ZW9.s:91578  .debug_str:0000000000005341 .LASF8239
     /tmp/cc7R4ZW9.s:102186  .debug_str:0000000000030700 .LASF8240
     /tmp/cc7R4ZW9.s:93086  .debug_str:000000000000ba9d .LASF8241
     /tmp/cc7R4ZW9.s:103662  .debug_str:0000000000036ae0 .LASF8242
     /tmp/cc7R4ZW9.s:96040  .debug_str:00000000000171c5 .LASF8243
     /tmp/cc7R4ZW9.s:102198  .debug_str:000000000003080a .LASF8244
     /tmp/cc7R4ZW9.s:106062  .debug_str:0000000000040395 .LASF8245
     /tmp/cc7R4ZW9.s:92536  .debug_str:000000000000947a .LASF8246
     /tmp/cc7R4ZW9.s:102550  .debug_str:0000000000031dce .LASF8247
     /tmp/cc7R4ZW9.s:103142  .debug_str:0000000000034624 .LASF8248
     /tmp/cc7R4ZW9.s:94772  .debug_str:0000000000012024 .LASF8249
     /tmp/cc7R4ZW9.s:100240  .debug_str:0000000000028a95 .LASF8250
     /tmp/cc7R4ZW9.s:103144  .debug_str:0000000000034631 .LASF8251
     /tmp/cc7R4ZW9.s:92542  .debug_str:00000000000094be .LASF8252
     /tmp/cc7R4ZW9.s:103520  .debug_str:0000000000036110 .LASF8253
     /tmp/cc7R4ZW9.s:101682  .debug_str:000000000002e59d .LASF8254
     /tmp/cc7R4ZW9.s:92010  .debug_str:00000000000070f5 .LASF8255
     /tmp/cc7R4ZW9.s:97424  .debug_str:000000000001d0bd .LASF8256
     /tmp/cc7R4ZW9.s:105708  .debug_str:000000000003ed8d .LASF8257
     /tmp/cc7R4ZW9.s:97172  .debug_str:000000000001be38 .LASF8258
     /tmp/cc7R4ZW9.s:108846  .debug_str:000000000004c21c .LASF8259
     /tmp/cc7R4ZW9.s:94688  .debug_str:0000000000011a7d .LASF8260
     /tmp/cc7R4ZW9.s:104990  .debug_str:000000000003bc20 .LASF8261
     /tmp/cc7R4ZW9.s:95082  .debug_str:00000000000135ca .LASF8262
     /tmp/cc7R4ZW9.s:108260  .debug_str:00000000000499f7 .LASF8263
     /tmp/cc7R4ZW9.s:97366  .debug_str:000000000001ccb9 .LASF8264
     /tmp/cc7R4ZW9.s:90496  .debug_str:0000000000000952 .LASF8265
     /tmp/cc7R4ZW9.s:98334  .debug_str:000000000002103b .LASF8266
     /tmp/cc7R4ZW9.s:102598  .debug_str:00000000000320f3 .LASF8267
     /tmp/cc7R4ZW9.s:107382  .debug_str:0000000000046078 .LASF8268
     /tmp/cc7R4ZW9.s:96164  .debug_str:0000000000017b23 .LASF8269
     /tmp/cc7R4ZW9.s:100428  .debug_str:00000000000296c8 .LASF8270
     /tmp/cc7R4ZW9.s:105358  .debug_str:000000000003d4f4 .LASF8271
     /tmp/cc7R4ZW9.s:106830  .debug_str:0000000000043cbb .LASF8272
     /tmp/cc7R4ZW9.s:103368  .debug_str:00000000000355c4 .LASF8273
     /tmp/cc7R4ZW9.s:103712  .debug_str:0000000000036e34 .LASF8274
     /tmp/cc7R4ZW9.s:93034  .debug_str:000000000000b6f3 .LASF8275
     /tmp/cc7R4ZW9.s:104874  .debug_str:000000000003b43e .LASF8276
     /tmp/cc7R4ZW9.s:97580  .debug_str:000000000001db28 .LASF8277
     /tmp/cc7R4ZW9.s:106342  .debug_str:00000000000418d3 .LASF8278
     /tmp/cc7R4ZW9.s:109470  .debug_str:000000000004ed3f .LASF8279
     /tmp/cc7R4ZW9.s:106428  .debug_str:000000000004208c .LASF8280
     /tmp/cc7R4ZW9.s:95328  .debug_str:00000000000144c5 .LASF8281
     /tmp/cc7R4ZW9.s:101434  .debug_str:000000000002d5a0 .LASF8282
     /tmp/cc7R4ZW9.s:101352  .debug_str:000000000002d0bb .LASF8283
     /tmp/cc7R4ZW9.s:105818  .debug_str:000000000003f466 .LASF8284
     /tmp/cc7R4ZW9.s:101676  .debug_str:000000000002e53a .LASF8285
     /tmp/cc7R4ZW9.s:103306  .debug_str:0000000000035148 .LASF8286
     /tmp/cc7R4ZW9.s:91164  .debug_str:00000000000036d1 .LASF8287
     /tmp/cc7R4ZW9.s:101450  .debug_str:000000000002d69d .LASF8288
     /tmp/cc7R4ZW9.s:101266  .debug_str:000000000002cb69 .LASF8289
     /tmp/cc7R4ZW9.s:97758  .debug_str:000000000001e80e .LASF8290
     /tmp/cc7R4ZW9.s:100884  .debug_str:000000000002b394 .LASF8291
     /tmp/cc7R4ZW9.s:90522  .debug_str:0000000000000afc .LASF8292
     /tmp/cc7R4ZW9.s:99668  .debug_str:0000000000026522 .LASF8293
     /tmp/cc7R4ZW9.s:103106  .debug_str:00000000000343b9 .LASF8294
     /tmp/cc7R4ZW9.s:100132  .debug_str:00000000000282cf .LASF8295
     /tmp/cc7R4ZW9.s:97006  .debug_str:000000000001b2e6 .LASF8296
     /tmp/cc7R4ZW9.s:109782  .debug_str:00000000000501fc .LASF8297
     /tmp/cc7R4ZW9.s:98196  .debug_str:0000000000020768 .LASF8298
     /tmp/cc7R4ZW9.s:92880  .debug_str:000000000000abff .LASF8299
     /tmp/cc7R4ZW9.s:103252  .debug_str:0000000000034e58 .LASF8300
     /tmp/cc7R4ZW9.s:109786  .debug_str:0000000000050226 .LASF8301
     /tmp/cc7R4ZW9.s:92424  .debug_str:0000000000008c64 .LASF8302
     /tmp/cc7R4ZW9.s:92196  .debug_str:0000000000007d4b .LASF8303
     /tmp/cc7R4ZW9.s:98634  .debug_str:0000000000022532 .LASF8304
     /tmp/cc7R4ZW9.s:108348  .debug_str:000000000004a047 .LASF8305
     /tmp/cc7R4ZW9.s:94038  .debug_str:000000000000f414 .LASF8306
     /tmp/cc7R4ZW9.s:102514  .debug_str:0000000000031bdc .LASF8307
     /tmp/cc7R4ZW9.s:98058  .debug_str:000000000001fcbb .LASF8308
     /tmp/cc7R4ZW9.s:92206  .debug_str:0000000000007de4 .LASF8309
     /tmp/cc7R4ZW9.s:96740  .debug_str:0000000000019fff .LASF8310
     /tmp/cc7R4ZW9.s:95238  .debug_str:0000000000013f24 .LASF8311
     /tmp/cc7R4ZW9.s:108684  .debug_str:000000000004b713 .LASF8312
     /tmp/cc7R4ZW9.s:104776  .debug_str:000000000003ad7b .LASF8313
     /tmp/cc7R4ZW9.s:109742  .debug_str:000000000004ff5a .LASF8314
     /tmp/cc7R4ZW9.s:93646  .debug_str:000000000000df07 .LASF8315
     /tmp/cc7R4ZW9.s:91366  .debug_str:0000000000004589 .LASF8316
     /tmp/cc7R4ZW9.s:91448  .debug_str:0000000000004afa .LASF8317
     /tmp/cc7R4ZW9.s:94952  .debug_str:0000000000012c25 .LASF8318
     /tmp/cc7R4ZW9.s:108302  .debug_str:0000000000049cd6 .LASF8319
     /tmp/cc7R4ZW9.s:94202  .debug_str:000000000000fec1 .LASF8320
     /tmp/cc7R4ZW9.s:104530  .debug_str:0000000000039d2c .LASF8321
     /tmp/cc7R4ZW9.s:96290  .debug_str:00000000000182ce .LASF8322
     /tmp/cc7R4ZW9.s:94190  .debug_str:000000000000fda6 .LASF8323
     /tmp/cc7R4ZW9.s:104506  .debug_str:0000000000039c4f .LASF8324
     /tmp/cc7R4ZW9.s:98576  .debug_str:00000000000220e0 .LASF8325
     /tmp/cc7R4ZW9.s:104080  .debug_str:0000000000038570 .LASF8326
     /tmp/cc7R4ZW9.s:107476  .debug_str:00000000000466fa .LASF8327
     /tmp/cc7R4ZW9.s:97508  .debug_str:000000000001d60e .LASF8328
     /tmp/cc7R4ZW9.s:90518  .debug_str:0000000000000ae3 .LASF8329
     /tmp/cc7R4ZW9.s:109468  .debug_str:000000000004ed37 .LASF8330
     /tmp/cc7R4ZW9.s:104554  .debug_str:0000000000039ec3 .LASF8331
     /tmp/cc7R4ZW9.s:98280  .debug_str:0000000000020d3e .LASF8332
     /tmp/cc7R4ZW9.s:95116  .debug_str:000000000001378e .LASF8333
     /tmp/cc7R4ZW9.s:102146  .debug_str:000000000003044f .LASF8334
     /tmp/cc7R4ZW9.s:94642  .debug_str:00000000000116f8 .LASF8335
     /tmp/cc7R4ZW9.s:104928  .debug_str:000000000003b851 .LASF8336
     /tmp/cc7R4ZW9.s:102020  .debug_str:000000000002fc66 .LASF8337
     /tmp/cc7R4ZW9.s:98866  .debug_str:0000000000023384 .LASF8338
     /tmp/cc7R4ZW9.s:102382  .debug_str:00000000000313b3 .LASF8339
     /tmp/cc7R4ZW9.s:91766  .debug_str:0000000000005f84 .LASF8340
     /tmp/cc7R4ZW9.s:107834  .debug_str:0000000000047e27 .LASF8341
     /tmp/cc7R4ZW9.s:93134  .debug_str:000000000000becc .LASF8342
     /tmp/cc7R4ZW9.s:103346  .debug_str:0000000000035452 .LASF8343
     /tmp/cc7R4ZW9.s:94726  .debug_str:0000000000011d33 .LASF8344
     /tmp/cc7R4ZW9.s:104128  .debug_str:00000000000387a1 .LASF8345
     /tmp/cc7R4ZW9.s:90576  .debug_str:0000000000000ea7 .LASF8346
     /tmp/cc7R4ZW9.s:104198  .debug_str:0000000000038b90 .LASF8347
     /tmp/cc7R4ZW9.s:107578  .debug_str:0000000000046cd3 .LASF8348
     /tmp/cc7R4ZW9.s:107938  .debug_str:000000000004854a .LASF8349
     /tmp/cc7R4ZW9.s:92970  .debug_str:000000000000b2ce .LASF8350
     /tmp/cc7R4ZW9.s:103332  .debug_str:000000000003534c .LASF8351
     /tmp/cc7R4ZW9.s:98466  .debug_str:0000000000021934 .LASF8352
     /tmp/cc7R4ZW9.s:97720  .debug_str:000000000001e562 .LASF8353
     /tmp/cc7R4ZW9.s:107332  .debug_str:0000000000045d83 .LASF8354
     /tmp/cc7R4ZW9.s:90550  .debug_str:0000000000000cc0 .LASF8355
     /tmp/cc7R4ZW9.s:99586  .debug_str:0000000000025f86 .LASF8356
     /tmp/cc7R4ZW9.s:104840  .debug_str:000000000003b20e .LASF8357
     /tmp/cc7R4ZW9.s:109238  .debug_str:000000000004dd13 .LASF8358
     /tmp/cc7R4ZW9.s:104396  .debug_str:0000000000039625 .LASF8359
     /tmp/cc7R4ZW9.s:97228  .debug_str:000000000001c24c .LASF8360
     /tmp/cc7R4ZW9.s:97828  .debug_str:000000000001ecb7 .LASF8361
     /tmp/cc7R4ZW9.s:104966  .debug_str:000000000003ba91 .LASF8362
     /tmp/cc7R4ZW9.s:106170  .debug_str:0000000000040a89 .LASF8363
     /tmp/cc7R4ZW9.s:99238  .debug_str:0000000000024cf5 .LASF8364
     /tmp/cc7R4ZW9.s:93210  .debug_str:000000000000c369 .LASF8365
     /tmp/cc7R4ZW9.s:102666  .debug_str:0000000000032666 .LASF8366
     /tmp/cc7R4ZW9.s:99980  .debug_str:00000000000278d7 .LASF8367
     /tmp/cc7R4ZW9.s:98114  .debug_str:0000000000020174 .LASF8368
     /tmp/cc7R4ZW9.s:100890  .debug_str:000000000002b400 .LASF8369
     /tmp/cc7R4ZW9.s:101168  .debug_str:000000000002c584 .LASF8370
     /tmp/cc7R4ZW9.s:108962  .debug_str:000000000004c9c2 .LASF8371
     /tmp/cc7R4ZW9.s:104940  .debug_str:000000000003b929 .LASF8372
     /tmp/cc7R4ZW9.s:106130  .debug_str:0000000000040790 .LASF8373
     /tmp/cc7R4ZW9.s:97872  .debug_str:000000000001ef6b .LASF8374
     /tmp/cc7R4ZW9.s:106360  .debug_str:00000000000419c2 .LASF8375
     /tmp/cc7R4ZW9.s:99144  .debug_str:0000000000024739 .LASF8376
     /tmp/cc7R4ZW9.s:93774  .debug_str:000000000000e73a .LASF8377
     /tmp/cc7R4ZW9.s:107150  .debug_str:0000000000045151 .LASF8378
     /tmp/cc7R4ZW9.s:92140  .debug_str:0000000000007995 .LASF8379
     /tmp/cc7R4ZW9.s:103792  .debug_str:0000000000037370 .LASF8380
     /tmp/cc7R4ZW9.s:107216  .debug_str:000000000004551c .LASF8381
     /tmp/cc7R4ZW9.s:103636  .debug_str:00000000000368da .LASF8382
     /tmp/cc7R4ZW9.s:92890  .debug_str:000000000000ac66 .LASF8383
     /tmp/cc7R4ZW9.s:103260  .debug_str:0000000000034ec9 .LASF8384
     /tmp/cc7R4ZW9.s:99420  .debug_str:000000000002571d .LASF8385
     /tmp/cc7R4ZW9.s:93052  .debug_str:000000000000b895 .LASF8386
     /tmp/cc7R4ZW9.s:103420  .debug_str:00000000000359fd .LASF8387
     /tmp/cc7R4ZW9.s:97246  .debug_str:000000000001c36c .LASF8388
     /tmp/cc7R4ZW9.s:96218  .debug_str:0000000000017f03 .LASF8389
     /tmp/cc7R4ZW9.s:96020  .debug_str:00000000000170c0 .LASF8390
     /tmp/cc7R4ZW9.s:99816  .debug_str:0000000000026ed0 .LASF8391
     /tmp/cc7R4ZW9.s:91632  .debug_str:00000000000056ce .LASF8392
     /tmp/cc7R4ZW9.s:92200  .debug_str:0000000000007d73 .LASF8393
     /tmp/cc7R4ZW9.s:99056  .debug_str:0000000000024087 .LASF8394
     /tmp/cc7R4ZW9.s:103514  .debug_str:00000000000360c4 .LASF8395
     /tmp/cc7R4ZW9.s:90624  .debug_str:00000000000011f8 .LASF8396
     /tmp/cc7R4ZW9.s:99728  .debug_str:0000000000026882 .LASF8397
     /tmp/cc7R4ZW9.s:104586  .debug_str:000000000003a08d .LASF8398
     /tmp/cc7R4ZW9.s:91446  .debug_str:0000000000004aee .LASF8399
     /tmp/cc7R4ZW9.s:101096  .debug_str:000000000002c18f .LASF8400
     /tmp/cc7R4ZW9.s:102516  .debug_str:0000000000031c00 .LASF8401
     /tmp/cc7R4ZW9.s:99712  .debug_str:0000000000026793 .LASF8402
     /tmp/cc7R4ZW9.s:96682  .debug_str:0000000000019c62 .LASF8403
     /tmp/cc7R4ZW9.s:97440  .debug_str:000000000001d171 .LASF8404
     /tmp/cc7R4ZW9.s:104142  .debug_str:000000000003888d .LASF8405
     /tmp/cc7R4ZW9.s:107254  .debug_str:00000000000457ce .LASF8406
     /tmp/cc7R4ZW9.s:103092  .debug_str:000000000003430c .LASF8407
     /tmp/cc7R4ZW9.s:109642  .debug_str:000000000004f8a9 .LASF8408
     /tmp/cc7R4ZW9.s:99334  .debug_str:0000000000025284 .LASF8409
     /tmp/cc7R4ZW9.s:96012  .debug_str:0000000000017053 .LASF8410
     /tmp/cc7R4ZW9.s:98324  .debug_str:0000000000020fa4 .LASF8411
     /tmp/cc7R4ZW9.s:103960  .debug_str:0000000000037d80 .LASF8412
     /tmp/cc7R4ZW9.s:100718  .debug_str:000000000002a999 .LASF8413
     /tmp/cc7R4ZW9.s:107560  .debug_str:0000000000046c1e .LASF8414
     /tmp/cc7R4ZW9.s:101854  .debug_str:000000000002f0df .LASF8415
     /tmp/cc7R4ZW9.s:100720  .debug_str:000000000002a9ac .LASF8416
     /tmp/cc7R4ZW9.s:107562  .debug_str:0000000000046c31 .LASF8417
     /tmp/cc7R4ZW9.s:97280  .debug_str:000000000001c6b8 .LASF8418
     /tmp/cc7R4ZW9.s:100722  .debug_str:000000000002a9bf .LASF8419
     /tmp/cc7R4ZW9.s:100064  .debug_str:0000000000027e8b .LASF8420
     /tmp/cc7R4ZW9.s:108872  .debug_str:000000000004c393 .LASF8421
     /tmp/cc7R4ZW9.s:100130  .debug_str:00000000000282bc .LASF8422
     /tmp/cc7R4ZW9.s:107566  .debug_str:0000000000046c51 .LASF8423
     /tmp/cc7R4ZW9.s:102818  .debug_str:000000000003306c .LASF8424
     /tmp/cc7R4ZW9.s:100726  .debug_str:000000000002a9f3 .LASF8425
     /tmp/cc7R4ZW9.s:107568  .debug_str:0000000000046c64 .LASF8426
     /tmp/cc7R4ZW9.s:96580  .debug_str:0000000000019554 .LASF8427
     /tmp/cc7R4ZW9.s:100728  .debug_str:000000000002aa06 .LASF8428
     /tmp/cc7R4ZW9.s:107570  .debug_str:0000000000046c77 .LASF8429
     /tmp/cc7R4ZW9.s:90398  .debug_str:000000000000027c .LASF8430
     /tmp/cc7R4ZW9.s:100730  .debug_str:000000000002aa19 .LASF8431
     /tmp/cc7R4ZW9.s:107572  .debug_str:0000000000046c8a .LASF8432
     /tmp/cc7R4ZW9.s:103754  .debug_str:0000000000037087 .LASF8433
     /tmp/cc7R4ZW9.s:100732  .debug_str:000000000002aa2c .LASF8434
     /tmp/cc7R4ZW9.s:107574  .debug_str:0000000000046c9d .LASF8435
     /tmp/cc7R4ZW9.s:97566  .debug_str:000000000001d9fb .LASF8436
     /tmp/cc7R4ZW9.s:100982  .debug_str:000000000002baba .LASF8437
     /tmp/cc7R4ZW9.s:97802  .debug_str:000000000001eb67 .LASF8438
     /tmp/cc7R4ZW9.s:103758  .debug_str:00000000000370cf .LASF8439
     /tmp/cc7R4ZW9.s:107232  .debug_str:0000000000045661 .LASF8440
     /tmp/cc7R4ZW9.s:97804  .debug_str:000000000001eb7a .LASF8441
     /tmp/cc7R4ZW9.s:101672  .debug_str:000000000002e4dd .LASF8442
     /tmp/cc7R4ZW9.s:90876  .debug_str:0000000000002491 .LASF8443
     /tmp/cc7R4ZW9.s:97806  .debug_str:000000000001eb8d .LASF8444
     /tmp/cc7R4ZW9.s:95420  .debug_str:0000000000014abf .LASF8445
     /tmp/cc7R4ZW9.s:90878  .debug_str:00000000000024a4 .LASF8446
     /tmp/cc7R4ZW9.s:97808  .debug_str:000000000001eba0 .LASF8447
     /tmp/cc7R4ZW9.s:108676  .debug_str:000000000004b69a .LASF8448
     /tmp/cc7R4ZW9.s:90880  .debug_str:00000000000024b7 .LASF8449
     /tmp/cc7R4ZW9.s:97810  .debug_str:000000000001ebb3 .LASF8450
     /tmp/cc7R4ZW9.s:97300  .debug_str:000000000001c7c8 .LASF8451
     /tmp/cc7R4ZW9.s:90882  .debug_str:00000000000024ca .LASF8452
     /tmp/cc7R4ZW9.s:97812  .debug_str:000000000001ebc6 .LASF8453
     /tmp/cc7R4ZW9.s:96688  .debug_str:0000000000019cd8 .LASF8454
     /tmp/cc7R4ZW9.s:90884  .debug_str:00000000000024dd .LASF8455
     /tmp/cc7R4ZW9.s:97814  .debug_str:000000000001ebd9 .LASF8456
     /tmp/cc7R4ZW9.s:109666  .debug_str:000000000004fa63 .LASF8457
     /tmp/cc7R4ZW9.s:107250  .debug_str:000000000004579f .LASF8458
     /tmp/cc7R4ZW9.s:97816  .debug_str:000000000001ebec .LASF8459
     /tmp/cc7R4ZW9.s:103570  .debug_str:0000000000036451 .LASF8460
     /tmp/cc7R4ZW9.s:108588  .debug_str:000000000004b02b .LASF8461
     /tmp/cc7R4ZW9.s:100634  .debug_str:000000000002a4ed .LASF8462
     /tmp/cc7R4ZW9.s:108706  .debug_str:000000000004b8b8 .LASF8463
     /tmp/cc7R4ZW9.s:98730  .debug_str:0000000000022aab .LASF8464
     /tmp/cc7R4ZW9.s:90646  .debug_str:0000000000001348 .LASF8465
     /tmp/cc7R4ZW9.s:95248  .debug_str:0000000000013f97 .LASF8466
     /tmp/cc7R4ZW9.s:97540  .debug_str:000000000001d82d .LASF8467
     /tmp/cc7R4ZW9.s:102726  .debug_str:0000000000032a73 .LASF8468
     /tmp/cc7R4ZW9.s:101594  .debug_str:000000000002dfc6 .LASF8469
     /tmp/cc7R4ZW9.s:99256  .debug_str:0000000000024e17 .LASF8470
     /tmp/cc7R4ZW9.s:104682  .debug_str:000000000003a701 .LASF8471
     /tmp/cc7R4ZW9.s:109062  .debug_str:000000000004d109 .LASF8472
     /tmp/cc7R4ZW9.s:99576  .debug_str:0000000000025f2d .LASF8473
     /tmp/cc7R4ZW9.s:96466  .debug_str:0000000000018d1b .LASF8474
     /tmp/cc7R4ZW9.s:92270  .debug_str:00000000000081c6 .LASF8475
     /tmp/cc7R4ZW9.s:103294  .debug_str:0000000000035081 .LASF8476
     /tmp/cc7R4ZW9.s:109596  .debug_str:000000000004f58b .LASF8477
     /tmp/cc7R4ZW9.s:92654  .debug_str:0000000000009d5b .LASF8478
     /tmp/cc7R4ZW9.s:103846  .debug_str:000000000003768c .LASF8479
     /tmp/cc7R4ZW9.s:102660  .debug_str:00000000000325e5 .LASF8480
     /tmp/cc7R4ZW9.s:91730  .debug_str:0000000000005d21 .LASF8481
     /tmp/cc7R4ZW9.s:105800  .debug_str:000000000003f318 .LASF8482
     /tmp/cc7R4ZW9.s:101952  .debug_str:000000000002f84a .LASF8483
     /tmp/cc7R4ZW9.s:94760  .debug_str:0000000000011f21 .LASF8484
     /tmp/cc7R4ZW9.s:103560  .debug_str:00000000000363eb .LASF8485
     /tmp/cc7R4ZW9.s:106968  .debug_str:0000000000044543 .LASF8486
     /tmp/cc7R4ZW9.s:97618  .debug_str:000000000001de43 .LASF8487
     /tmp/cc7R4ZW9.s:108902  .debug_str:000000000004c5a9 .LASF8488
     /tmp/cc7R4ZW9.s:104992  .debug_str:000000000003bc3b .LASF8489
     /tmp/cc7R4ZW9.s:91532  .debug_str:0000000000005035 .LASF8490
     /tmp/cc7R4ZW9.s:107198  .debug_str:0000000000045413 .LASF8491
     /tmp/cc7R4ZW9.s:91552  .debug_str:00000000000051bf .LASF8492
     /tmp/cc7R4ZW9.s:106742  .debug_str:00000000000436bd .LASF8493
     /tmp/cc7R4ZW9.s:103942  .debug_str:0000000000037c35 .LASF8494
     /tmp/cc7R4ZW9.s:107366  .debug_str:0000000000045f7f .LASF8495
     /tmp/cc7R4ZW9.s:101138  .debug_str:000000000002c41b .LASF8496
     /tmp/cc7R4ZW9.s:94906  .debug_str:00000000000128e8 .LASF8497
     /tmp/cc7R4ZW9.s:107792  .debug_str:0000000000047b38 .LASF8498
     /tmp/cc7R4ZW9.s:98902  .debug_str:00000000000235e6 .LASF8499
     /tmp/cc7R4ZW9.s:94360  .debug_str:00000000000106a7 .LASF8500
     /tmp/cc7R4ZW9.s:93100  .debug_str:000000000000bbde .LASF8501
     /tmp/cc7R4ZW9.s:108308  .debug_str:0000000000049d24 .LASF8502
     /tmp/cc7R4ZW9.s:109080  .debug_str:000000000004d26f .LASF8503
     /tmp/cc7R4ZW9.s:92744  .debug_str:000000000000a349 .LASF8504
     /tmp/cc7R4ZW9.s:93538  .debug_str:000000000000d94e .LASF8505
     /tmp/cc7R4ZW9.s:98450  .debug_str:000000000002184f .LASF8506
     /tmp/cc7R4ZW9.s:98236  .debug_str:0000000000020a6a .LASF8507
     /tmp/cc7R4ZW9.s:106540  .debug_str:0000000000042935 .LASF8508
     /tmp/cc7R4ZW9.s:93694  .debug_str:000000000000e226 .LASF8509
     /tmp/cc7R4ZW9.s:107950  .debug_str:0000000000048646 .LASF8510
     /tmp/cc7R4ZW9.s:90512  .debug_str:0000000000000a94 .LASF8511
     /tmp/cc7R4ZW9.s:92842  .debug_str:000000000000a990 .LASF8512
     /tmp/cc7R4ZW9.s:92020  .debug_str:00000000000071b8 .LASF8513
     /tmp/cc7R4ZW9.s:105752  .debug_str:000000000003eff1 .LASF8514
     /tmp/cc7R4ZW9.s:100016  .debug_str:0000000000027b39 .LASF8515
     /tmp/cc7R4ZW9.s:91504  .debug_str:0000000000004eb1 .LASF8516
     /tmp/cc7R4ZW9.s:107814  .debug_str:0000000000047cae .LASF8517
     /tmp/cc7R4ZW9.s:96856  .debug_str:000000000001a83e .LASF8518
     /tmp/cc7R4ZW9.s:100322  .debug_str:0000000000029037 .LASF8519
     /tmp/cc7R4ZW9.s:97930  .debug_str:000000000001f3dd .LASF8520
     /tmp/cc7R4ZW9.s:90494  .debug_str:0000000000000942 .LASF8521
     /tmp/cc7R4ZW9.s:91268  .debug_str:0000000000003de5 .LASF8522
     /tmp/cc7R4ZW9.s:100820  .debug_str:000000000002b066 .LASF8523
     /tmp/cc7R4ZW9.s:108010  .debug_str:00000000000489fd .LASF8524
     /tmp/cc7R4ZW9.s:99352  .debug_str:0000000000025390 .LASF8525
     /tmp/cc7R4ZW9.s:91014  .debug_str:0000000000002d67 .LASF8526
     /tmp/cc7R4ZW9.s:94830  .debug_str:0000000000012420 .LASF8527
     /tmp/cc7R4ZW9.s:101732  .debug_str:000000000002e925 .LASF8528
     /tmp/cc7R4ZW9.s:96782  .debug_str:000000000001a32f .LASF8529
     /tmp/cc7R4ZW9.s:95704  .debug_str:0000000000015cb2 .LASF8530
     /tmp/cc7R4ZW9.s:104948  .debug_str:000000000003b999 .LASF8531
     /tmp/cc7R4ZW9.s:108722  .debug_str:000000000004b9fc .LASF8532
     /tmp/cc7R4ZW9.s:99580  .debug_str:0000000000025f3c .LASF8533
     /tmp/cc7R4ZW9.s:93438  .debug_str:000000000000d31e .LASF8534
     /tmp/cc7R4ZW9.s:102920  .debug_str:00000000000337a7 .LASF8535
     /tmp/cc7R4ZW9.s:100864  .debug_str:000000000002b2de .LASF8536
     /tmp/cc7R4ZW9.s:101304  .debug_str:000000000002ce21 .LASF8537
     /tmp/cc7R4ZW9.s:105484  .debug_str:000000000003de7b .LASF8538
     /tmp/cc7R4ZW9.s:103842  .debug_str:0000000000037655 .LASF8539
     /tmp/cc7R4ZW9.s:99368  .debug_str:000000000002548f .LASF8540
     /tmp/cc7R4ZW9.s:99942  .debug_str:0000000000027611 .LASF8541
     /tmp/cc7R4ZW9.s:102274  .debug_str:0000000000030d30 .LASF8542
     /tmp/cc7R4ZW9.s:92712  .debug_str:000000000000a0de .LASF8543
     /tmp/cc7R4ZW9.s:104340  .debug_str:0000000000039374 .LASF8544
     /tmp/cc7R4ZW9.s:95258  .debug_str:0000000000014038 .LASF8545
     /tmp/cc7R4ZW9.s:95566  .debug_str:000000000001538a .LASF8546
     /tmp/cc7R4ZW9.s:97404  .debug_str:000000000001cf3e .LASF8547
     /tmp/cc7R4ZW9.s:96918  .debug_str:000000000001ad5b .LASF8548
     /tmp/cc7R4ZW9.s:97242  .debug_str:000000000001c333 .LASF8549
     /tmp/cc7R4ZW9.s:92114  .debug_str:0000000000007810 .LASF8550
     /tmp/cc7R4ZW9.s:94208  .debug_str:000000000000ff01 .LASF8551
     /tmp/cc7R4ZW9.s:101998  .debug_str:000000000002fb2d .LASF8552
     /tmp/cc7R4ZW9.s:94738  .debug_str:0000000000011dd4 .LASF8553
     /tmp/cc7R4ZW9.s:95858  .debug_str:00000000000165c9 .LASF8554
     /tmp/cc7R4ZW9.s:98298  .debug_str:0000000000020e22 .LASF8555
     /tmp/cc7R4ZW9.s:95232  .debug_str:0000000000013ed1 .LASF8556
     /tmp/cc7R4ZW9.s:92346  .debug_str:000000000000874e .LASF8557
     /tmp/cc7R4ZW9.s:100882  .debug_str:000000000002b386 .LASF8558
     /tmp/cc7R4ZW9.s:102640  .debug_str:0000000000032400 .LASF8559
     /tmp/cc7R4ZW9.s:109790  .debug_str:0000000000050279 .LASF8560
     /tmp/cc7R4ZW9.s:91150  .debug_str:0000000000003607 .LASF8561
     /tmp/cc7R4ZW9.s:100296  .debug_str:0000000000028e4a .LASF8562
     /tmp/cc7R4ZW9.s:109198  .debug_str:000000000004d9d8 .LASF8563
     /tmp/cc7R4ZW9.s:91946  .debug_str:0000000000006bc5 .LASF8564
     /tmp/cc7R4ZW9.s:100194  .debug_str:00000000000286d6 .LASF8565
     /tmp/cc7R4ZW9.s:93228  .debug_str:000000000000c47e .LASF8566
     /tmp/cc7R4ZW9.s:103216  .debug_str:0000000000034b0a .LASF8567
     /tmp/cc7R4ZW9.s:101556  .debug_str:000000000002dd59 .LASF8568
     /tmp/cc7R4ZW9.s:98024  .debug_str:000000000001fad3 .LASF8569
     /tmp/cc7R4ZW9.s:107802  .debug_str:0000000000047bb9 .LASF8570
     /tmp/cc7R4ZW9.s:101272  .debug_str:000000000002cc09 .LASF8571
     /tmp/cc7R4ZW9.s:108866  .debug_str:000000000004c361 .LASF8572
     /tmp/cc7R4ZW9.s:102302  .debug_str:0000000000030edd .LASF8573
     /tmp/cc7R4ZW9.s:96304  .debug_str:0000000000018403 .LASF8574
     /tmp/cc7R4ZW9.s:94410  .debug_str:00000000000109a6 .LASF8575
     /tmp/cc7R4ZW9.s:98138  .debug_str:00000000000202ea .LASF8576
     /tmp/cc7R4ZW9.s:105084  .debug_str:000000000003c329 .LASF8577
     /tmp/cc7R4ZW9.s:97608  .debug_str:000000000001dd97 .LASF8578
     /tmp/cc7R4ZW9.s:93214  .debug_str:000000000000c399 .LASF8579
     /tmp/cc7R4ZW9.s:92080  .debug_str:0000000000007552 .LASF8580
     /tmp/cc7R4ZW9.s:106578  .debug_str:0000000000042be2 .LASF8581
     /tmp/cc7R4ZW9.s:99552  .debug_str:0000000000025ebb .LASF8582
     /tmp/cc7R4ZW9.s:91294  .debug_str:0000000000003ff1 .LASF8583
     /tmp/cc7R4ZW9.s:96736  .debug_str:0000000000019fc2 .LASF8584
     /tmp/cc7R4ZW9.s:109300  .debug_str:000000000004e214 .LASF8585
     /tmp/cc7R4ZW9.s:91180  .debug_str:0000000000003815 .LASF8586
     /tmp/cc7R4ZW9.s:100992  .debug_str:000000000002bb38 .LASF8587
     /tmp/cc7R4ZW9.s:93972  .debug_str:000000000000f069 .LASF8588
     /tmp/cc7R4ZW9.s:102484  .debug_str:0000000000031a3c .LASF8589
     /tmp/cc7R4ZW9.s:103816  .debug_str:00000000000374df .LASF8590
     /tmp/cc7R4ZW9.s:107238  .debug_str:00000000000456a5 .LASF8591
     /tmp/cc7R4ZW9.s:96246  .debug_str:0000000000018057 .LASF8592
     /tmp/cc7R4ZW9.s:103824  .debug_str:000000000003755f .LASF8593
     /tmp/cc7R4ZW9.s:107246  .debug_str:0000000000045764 .LASF8594
     /tmp/cc7R4ZW9.s:107434  .debug_str:000000000004642c .LASF8595
     /tmp/cc7R4ZW9.s:106036  .debug_str:00000000000401db .LASF8596
     /tmp/cc7R4ZW9.s:102378  .debug_str:000000000003135e .LASF8597
     /tmp/cc7R4ZW9.s:100486  .debug_str:0000000000029ace .LASF8598
     /tmp/cc7R4ZW9.s:108726  .debug_str:000000000004ba3a .LASF8599
     /tmp/cc7R4ZW9.s:104924  .debug_str:000000000003b833 .LASF8600
     /tmp/cc7R4ZW9.s:100002  .debug_str:0000000000027a59 .LASF8601
     /tmp/cc7R4ZW9.s:96442  .debug_str:0000000000018c17 .LASF8602
     /tmp/cc7R4ZW9.s:102686  .debug_str:00000000000327bc .LASF8603
     /tmp/cc7R4ZW9.s:101576  .debug_str:000000000002decb .LASF8604
     /tmp/cc7R4ZW9.s:108772  .debug_str:000000000004bd32 .LASF8605
     /tmp/cc7R4ZW9.s:108258  .debug_str:00000000000499e3 .LASF8606
     /tmp/cc7R4ZW9.s:107042  .debug_str:0000000000044a1a .LASF8607
     /tmp/cc7R4ZW9.s:109240  .debug_str:000000000004dd3a .LASF8608
     /tmp/cc7R4ZW9.s:104474  .debug_str:00000000000399e0 .LASF8609
     /tmp/cc7R4ZW9.s:103974  .debug_str:0000000000037e31 .LASF8610
     /tmp/cc7R4ZW9.s:94586  .debug_str:0000000000011461 .LASF8611
     /tmp/cc7R4ZW9.s:99526  .debug_str:0000000000025d2d .LASF8612
     /tmp/cc7R4ZW9.s:91004  .debug_str:0000000000002ce6 .LASF8613
     /tmp/cc7R4ZW9.s:93790  .debug_str:000000000000e7ca .LASF8614
     /tmp/cc7R4ZW9.s:96686  .debug_str:0000000000019cbf .LASF8615
     /tmp/cc7R4ZW9.s:98948  .debug_str:00000000000239ba .LASF8616
     /tmp/cc7R4ZW9.s:105432  .debug_str:000000000003da30 .LASF8617
     /tmp/cc7R4ZW9.s:99922  .debug_str:0000000000027492 .LASF8618
     /tmp/cc7R4ZW9.s:107404  .debug_str:0000000000046205 .LASF8619
     /tmp/cc7R4ZW9.s:108892  .debug_str:000000000004c4f4 .LASF8620
     /tmp/cc7R4ZW9.s:103418  .debug_str:00000000000359e6 .LASF8621
     /tmp/cc7R4ZW9.s:95606  .debug_str:00000000000155f1 .LASF8622
     /tmp/cc7R4ZW9.s:105722  .debug_str:000000000003ee0d .LASF8623
     /tmp/cc7R4ZW9.s:100258  .debug_str:0000000000028be0 .LASF8624
     /tmp/cc7R4ZW9.s:100336  .debug_str:0000000000029148 .LASF8625
     /tmp/cc7R4ZW9.s:93890  .debug_str:000000000000ecff .LASF8626
     /tmp/cc7R4ZW9.s:100648  .debug_str:000000000002a594 .LASF8627
     /tmp/cc7R4ZW9.s:109384  .debug_str:000000000004e7d9 .LASF8628
     /tmp/cc7R4ZW9.s:95592  .debug_str:000000000001550e .LASF8629
     /tmp/cc7R4ZW9.s:95550  .debug_str:0000000000015245 .LASF8630
     /tmp/cc7R4ZW9.s:98854  .debug_str:0000000000023270 .LASF8631
     /tmp/cc7R4ZW9.s:92416  .debug_str:0000000000008bef .LASF8632
     /tmp/cc7R4ZW9.s:96820  .debug_str:000000000001a61e .LASF8633
     /tmp/cc7R4ZW9.s:97370  .debug_str:000000000001cce1 .LASF8634
     /tmp/cc7R4ZW9.s:109458  .debug_str:000000000004ecdd .LASF8635
     /tmp/cc7R4ZW9.s:92722  .debug_str:000000000000a192 .LASF8636
     /tmp/cc7R4ZW9.s:107170  .debug_str:000000000004529f .LASF8637
     /tmp/cc7R4ZW9.s:96526  .debug_str:0000000000019181 .LASF8638
     /tmp/cc7R4ZW9.s:107134  .debug_str:0000000000045070 .LASF8639
     /tmp/cc7R4ZW9.s:108150  .debug_str:0000000000049316 .LASF8640
     /tmp/cc7R4ZW9.s:102108  .debug_str:0000000000030208 .LASF8641
     /tmp/cc7R4ZW9.s:95202  .debug_str:0000000000013ccf .LASF8642
     /tmp/cc7R4ZW9.s:92866  .debug_str:000000000000aae4 .LASF8643
     /tmp/cc7R4ZW9.s:95126  .debug_str:0000000000013835 .LASF8644
     /tmp/cc7R4ZW9.s:106596  .debug_str:0000000000042d25 .LASF8645
     /tmp/cc7R4ZW9.s:101744  .debug_str:000000000002e9db .LASF8646
     /tmp/cc7R4ZW9.s:98308  .debug_str:0000000000020ed6 .LASF8647
     /tmp/cc7R4ZW9.s:94442  .debug_str:0000000000010b02 .LASF8648
     /tmp/cc7R4ZW9.s:108890  .debug_str:000000000004c4d5 .LASF8649
     /tmp/cc7R4ZW9.s:103590  .debug_str:00000000000365d2 .LASF8650
     /tmp/cc7R4ZW9.s:108938  .debug_str:000000000004c81e .LASF8651
     /tmp/cc7R4ZW9.s:109250  .debug_str:000000000004de21 .LASF8652
     /tmp/cc7R4ZW9.s:93440  .debug_str:000000000000d32e .LASF8653
     /tmp/cc7R4ZW9.s:101814  .debug_str:000000000002eef0 .LASF8654
     /tmp/cc7R4ZW9.s:105678  .debug_str:000000000003ebcd .LASF8655
     /tmp/cc7R4ZW9.s:104070  .debug_str:0000000000038484 .LASF8656
     /tmp/cc7R4ZW9.s:91808  .debug_str:000000000000625f .LASF8657
     /tmp/cc7R4ZW9.s:108824  .debug_str:000000000004c08f .LASF8658
     /tmp/cc7R4ZW9.s:102232  .debug_str:0000000000030a5a .LASF8659
     /tmp/cc7R4ZW9.s:107512  .debug_str:000000000004690e .LASF8660
     /tmp/cc7R4ZW9.s:98810  .debug_str:0000000000022fe5 .LASF8661
     /tmp/cc7R4ZW9.s:101730  .debug_str:000000000002e91a .LASF8662
     /tmp/cc7R4ZW9.s:97154  .debug_str:000000000001bd3d .LASF8663
     /tmp/cc7R4ZW9.s:107046  .debug_str:0000000000044a4a .LASF8664
     /tmp/cc7R4ZW9.s:108968  .debug_str:000000000004ca31 .LASF8665
     /tmp/cc7R4ZW9.s:104590  .debug_str:000000000003a0a8 .LASF8666
     /tmp/cc7R4ZW9.s:102642  .debug_str:0000000000032422 .LASF8667
     /tmp/cc7R4ZW9.s:107032  .debug_str:00000000000449aa .LASF8668
     /tmp/cc7R4ZW9.s:101176  .debug_str:000000000002c603 .LASF8669
     /tmp/cc7R4ZW9.s:96360  .debug_str:0000000000018795 .LASF8670
     /tmp/cc7R4ZW9.s:94778  .debug_str:0000000000012093 .LASF8671
     /tmp/cc7R4ZW9.s:99234  .debug_str:0000000000024c1e .LASF8672
     /tmp/cc7R4ZW9.s:93490  .debug_str:000000000000d627 .LASF8673
     /tmp/cc7R4ZW9.s:100752  .debug_str:000000000002abca .LASF8674
     /tmp/cc7R4ZW9.s:96212  .debug_str:0000000000017eb0 .LASF8675
     /tmp/cc7R4ZW9.s:93506  .debug_str:000000000000d740 .LASF8676
     /tmp/cc7R4ZW9.s:105458  .debug_str:000000000003dc7d .LASF8677
     /tmp/cc7R4ZW9.s:97288  .debug_str:000000000001c715 .LASF8678
     /tmp/cc7R4ZW9.s:108394  .debug_str:000000000004a324 .LASF8679
     /tmp/cc7R4ZW9.s:105700  .debug_str:000000000003ed4f .LASF8680
     /tmp/cc7R4ZW9.s:97430  .debug_str:000000000001d110 .LASF8681
     /tmp/cc7R4ZW9.s:108880  .debug_str:000000000004c433 .LASF8682
     /tmp/cc7R4ZW9.s:92468  .debug_str:0000000000008fc8 .LASF8683
     /tmp/cc7R4ZW9.s:98692  .debug_str:0000000000022813 .LASF8684
     /tmp/cc7R4ZW9.s:104490  .debug_str:0000000000039af9 .LASF8685
     /tmp/cc7R4ZW9.s:106284  .debug_str:0000000000041487 .LASF8686
     /tmp/cc7R4ZW9.s:94388  .debug_str:0000000000010863 .LASF8687
     /tmp/cc7R4ZW9.s:104130  .debug_str:00000000000387a8 .LASF8688
     /tmp/cc7R4ZW9.s:91144  .debug_str:00000000000035bd .LASF8689
     /tmp/cc7R4ZW9.s:101118  .debug_str:000000000002c2f3 .LASF8690
     /tmp/cc7R4ZW9.s:109018  .debug_str:000000000004cd99 .LASF8691
     /tmp/cc7R4ZW9.s:105610  .debug_str:000000000003e6fb .LASF8692
     /tmp/cc7R4ZW9.s:103838  .debug_str:000000000003762f .LASF8693
     /tmp/cc7R4ZW9.s:108598  .debug_str:000000000004b0a0 .LASF8694
     /tmp/cc7R4ZW9.s:94636  .debug_str:00000000000116b6 .LASF8695
     /tmp/cc7R4ZW9.s:92352  .debug_str:000000000000877f .LASF8696
     /tmp/cc7R4ZW9.s:106108  .debug_str:0000000000040600 .LASF8697
     /tmp/cc7R4ZW9.s:93522  .debug_str:000000000000d850 .LASF8698
     /tmp/cc7R4ZW9.s:109392  .debug_str:000000000004e87a .LASF8699
     /tmp/cc7R4ZW9.s:109802  .debug_str:000000000005030a .LASF8700
     /tmp/cc7R4ZW9.s:92576  .debug_str:0000000000009729 .LASF8701
     /tmp/cc7R4ZW9.s:100192  .debug_str:00000000000286c5 .LASF8702
     /tmp/cc7R4ZW9.s:92466  .debug_str:0000000000008fa3 .LASF8703
     /tmp/cc7R4ZW9.s:96540  .debug_str:0000000000019245 .LASF8704
     /tmp/cc7R4ZW9.s:92974  .debug_str:000000000000b2e4 .LASF8705
     /tmp/cc7R4ZW9.s:95654  .debug_str:0000000000015902 .LASF8706
     /tmp/cc7R4ZW9.s:96240  .debug_str:0000000000018020 .LASF8707
     /tmp/cc7R4ZW9.s:92976  .debug_str:000000000000b2f6 .LASF8708
     /tmp/cc7R4ZW9.s:108918  .debug_str:000000000004c690 .LASF8709
     /tmp/cc7R4ZW9.s:93484  .debug_str:000000000000d5df .LASF8710
     /tmp/cc7R4ZW9.s:93014  .debug_str:000000000000b5df .LASF8711
     /tmp/cc7R4ZW9.s:93268  .debug_str:000000000000c6e1 .LASF8712
     /tmp/cc7R4ZW9.s:97706  .debug_str:000000000001e484 .LASF8713
     /tmp/cc7R4ZW9.s:105136  .debug_str:000000000003c707 .LASF8714
     /tmp/cc7R4ZW9.s:103326  .debug_str:000000000003529d .LASF8715
     /tmp/cc7R4ZW9.s:101006  .debug_str:000000000002bbad .LASF8716
     /tmp/cc7R4ZW9.s:96200  .debug_str:0000000000017df7 .LASF8717
     /tmp/cc7R4ZW9.s:104254  .debug_str:0000000000038f4e .LASF8718
     /tmp/cc7R4ZW9.s:101416  .debug_str:000000000002d499 .LASF8719
     /tmp/cc7R4ZW9.s:98584  .debug_str:0000000000022141 .LASF8720
     /tmp/cc7R4ZW9.s:106480  .debug_str:0000000000042457 .LASF8721
     /tmp/cc7R4ZW9.s:91550  .debug_str:00000000000051aa .LASF8722
     /tmp/cc7R4ZW9.s:103596  .debug_str:0000000000036629 .LASF8723
     /tmp/cc7R4ZW9.s:104720  .debug_str:000000000003a99d .LASF8724
     /tmp/cc7R4ZW9.s:97974  .debug_str:000000000001f745 .LASF8725
     /tmp/cc7R4ZW9.s:101860  .debug_str:000000000002f156 .LASF8726
     /tmp/cc7R4ZW9.s:92092  .debug_str:000000000000762c .LASF8727
     /tmp/cc7R4ZW9.s:100306  .debug_str:0000000000028f16 .LASF8728
     /tmp/cc7R4ZW9.s:108912  .debug_str:000000000004c608 .LASF8729
     /tmp/cc7R4ZW9.s:107154  .debug_str:0000000000045182 .LASF8730
     /tmp/cc7R4ZW9.s:99348  .debug_str:0000000000025362 .LASF8731
     /tmp/cc7R4ZW9.s:107996  .debug_str:0000000000048932 .LASF8732
     /tmp/cc7R4ZW9.s:93454  .debug_str:000000000000d42d .LASF8733
     /tmp/cc7R4ZW9.s:97078  .debug_str:000000000001b793 .LASF8734
     /tmp/cc7R4ZW9.s:95994  .debug_str:0000000000016f27 .LASF8735
     /tmp/cc7R4ZW9.s:103776  .debug_str:0000000000037205 .LASF8736
     /tmp/cc7R4ZW9.s:92800  .debug_str:000000000000a6c6 .LASF8737
     /tmp/cc7R4ZW9.s:106684  .debug_str:0000000000043291 .LASF8738
     /tmp/cc7R4ZW9.s:94796  .debug_str:00000000000121ed .LASF8739
     /tmp/cc7R4ZW9.s:90998  .debug_str:0000000000002c93 .LASF8740
     /tmp/cc7R4ZW9.s:98186  .debug_str:00000000000206ae .LASF8741
     /tmp/cc7R4ZW9.s:97410  .debug_str:000000000001cfc9 .LASF8742
     /tmp/cc7R4ZW9.s:101924  .debug_str:000000000002f66a .LASF8743
     /tmp/cc7R4ZW9.s:105948  .debug_str:000000000003fca5 .LASF8744
     /tmp/cc7R4ZW9.s:109058  .debug_str:000000000004d0c1 .LASF8745
     /tmp/cc7R4ZW9.s:104678  .debug_str:000000000003a6b4 .LASF8746
     /tmp/cc7R4ZW9.s:104454  .debug_str:000000000003987f .LASF8747
     /tmp/cc7R4ZW9.s:106136  .debug_str:00000000000407f3 .LASF8748
     /tmp/cc7R4ZW9.s:109434  .debug_str:000000000004eb22 .LASF8749
     /tmp/cc7R4ZW9.s:97204  .debug_str:000000000001c0af .LASF8750
     /tmp/cc7R4ZW9.s:104560  .debug_str:0000000000039f13 .LASF8751
     /tmp/cc7R4ZW9.s:91558  .debug_str:00000000000051f6 .LASF8752
     /tmp/cc7R4ZW9.s:105632  .debug_str:000000000003e899 .LASF8753
     /tmp/cc7R4ZW9.s:99512  .debug_str:0000000000025c0c .LASF8754
     /tmp/cc7R4ZW9.s:97038  .debug_str:000000000001b4fd .LASF8755
     /tmp/cc7R4ZW9.s:95166  .debug_str:0000000000013aa4 .LASF8756
     /tmp/cc7R4ZW9.s:96086  .debug_str:0000000000017545 .LASF8757
     /tmp/cc7R4ZW9.s:102658  .debug_str:00000000000325ce .LASF8758
     /tmp/cc7R4ZW9.s:101070  .debug_str:000000000002bfd7 .LASF8759
     /tmp/cc7R4ZW9.s:106126  .debug_str:0000000000040743 .LASF8760
     /tmp/cc7R4ZW9.s:96676  .debug_str:0000000000019c08 .LASF8761
     /tmp/cc7R4ZW9.s:100500  .debug_str:0000000000029ba5 .LASF8762
     /tmp/cc7R4ZW9.s:91418  .debug_str:0000000000004895 .LASF8763
     /tmp/cc7R4ZW9.s:91664  .debug_str:0000000000005923 .LASF8764
     /tmp/cc7R4ZW9.s:93650  .debug_str:000000000000df41 .LASF8765
     /tmp/cc7R4ZW9.s:104828  .debug_str:000000000003b143 .LASF8766
     /tmp/cc7R4ZW9.s:93540  .debug_str:000000000000d96e .LASF8767
     /tmp/cc7R4ZW9.s:92432  .debug_str:0000000000008ced .LASF8768
     /tmp/cc7R4ZW9.s:100824  .debug_str:000000000002b0c2 .LASF8769
     /tmp/cc7R4ZW9.s:108280  .debug_str:0000000000049b67 .LASF8770
     /tmp/cc7R4ZW9.s:92592  .debug_str:000000000000985f .LASF8771
     /tmp/cc7R4ZW9.s:108048  .debug_str:0000000000048c2a .LASF8772
     /tmp/cc7R4ZW9.s:108306  .debug_str:0000000000049d1a .LASF8773
     /tmp/cc7R4ZW9.s:92616  .debug_str:0000000000009a50 .LASF8774
     /tmp/cc7R4ZW9.s:107720  .debug_str:0000000000047615 .LASF8775
     /tmp/cc7R4ZW9.s:105796  .debug_str:000000000003f2fb .LASF8776
     /tmp/cc7R4ZW9.s:94370  .debug_str:0000000000010764 .LASF8777
     /tmp/cc7R4ZW9.s:104408  .debug_str:00000000000396c0 .LASF8778
     /tmp/cc7R4ZW9.s:93390  .debug_str:000000000000cf96 .LASF8779
     /tmp/cc7R4ZW9.s:105866  .debug_str:000000000003f737 .LASF8780
     /tmp/cc7R4ZW9.s:107132  .debug_str:0000000000045047 .LASF8781
     /tmp/cc7R4ZW9.s:101280  .debug_str:000000000002cc51 .LASF8782
     /tmp/cc7R4ZW9.s:106836  .debug_str:0000000000043d06 .LASF8783
     /tmp/cc7R4ZW9.s:90582  .debug_str:0000000000000efa .LASF8784
     /tmp/cc7R4ZW9.s:95824  .debug_str:0000000000016354 .LASF8785
     /tmp/cc7R4ZW9.s:92940  .debug_str:000000000000aff5 .LASF8786
     /tmp/cc7R4ZW9.s:96478  .debug_str:0000000000018de6 .LASF8787
     /tmp/cc7R4ZW9.s:101882  .debug_str:000000000002f305 .LASF8788
     /tmp/cc7R4ZW9.s:91560  .debug_str:000000000000520a .LASF8789
     /tmp/cc7R4ZW9.s:92910  .debug_str:000000000000ae2e .LASF8790
     /tmp/cc7R4ZW9.s:103920  .debug_str:0000000000037bc1 .LASF8791
     /tmp/cc7R4ZW9.s:91024  .debug_str:0000000000002e52 .LASF8792
     /tmp/cc7R4ZW9.s:96236  .debug_str:0000000000017fdf .LASF8793
     /tmp/cc7R4ZW9.s:103656  .debug_str:0000000000036a79 .LASF8794
     /tmp/cc7R4ZW9.s:102144  .debug_str:000000000003043c .LASF8795
     /tmp/cc7R4ZW9.s:92214  .debug_str:0000000000007e22 .LASF8796
     /tmp/cc7R4ZW9.s:109320  .debug_str:000000000004e372 .LASF8797
     /tmp/cc7R4ZW9.s:100134  .debug_str:00000000000282f3 .LASF8798
     /tmp/cc7R4ZW9.s:92696  .debug_str:0000000000009f96 .LASF8799
     /tmp/cc7R4ZW9.s:102698  .debug_str:000000000003285c .LASF8800
     /tmp/cc7R4ZW9.s:108980  .debug_str:000000000004cb09 .LASF8801
     /tmp/cc7R4ZW9.s:101646  .debug_str:000000000002e371 .LASF8802
     /tmp/cc7R4ZW9.s:98588  .debug_str:0000000000022190 .LASF8803
     /tmp/cc7R4ZW9.s:109170  .debug_str:000000000004d7a3 .LASF8804
     /tmp/cc7R4ZW9.s:91172  .debug_str:000000000000377d .LASF8805
     /tmp/cc7R4ZW9.s:91590  .debug_str:00000000000053e5 .LASF8806
     /tmp/cc7R4ZW9.s:95534  .debug_str:000000000001514f .LASF8807
     /tmp/cc7R4ZW9.s:105012  .debug_str:000000000003bdb0 .LASF8808
     /tmp/cc7R4ZW9.s:103426  .debug_str:0000000000035a40 .LASF8809
     /tmp/cc7R4ZW9.s:103550  .debug_str:00000000000362da .LASF8810
     /tmp/cc7R4ZW9.s:98340  .debug_str:000000000002109c .LASF8811
     /tmp/cc7R4ZW9.s:105568  .debug_str:000000000003e486 .LASF8812
     /tmp/cc7R4ZW9.s:96158  .debug_str:0000000000017abb .LASF8813
     /tmp/cc7R4ZW9.s:93994  .debug_str:000000000000f222 .LASF8814
     /tmp/cc7R4ZW9.s:96948  .debug_str:000000000001af18 .LASF8815
     /tmp/cc7R4ZW9.s:92220  .debug_str:0000000000007e93 .LASF8816
     /tmp/cc7R4ZW9.s:92730  .debug_str:000000000000a249 .LASF8817
     /tmp/cc7R4ZW9.s:94698  .debug_str:0000000000011b37 .LASF8818
     /tmp/cc7R4ZW9.s:108482  .debug_str:000000000004a838 .LASF8819
     /tmp/cc7R4ZW9.s:97178  .debug_str:000000000001bea0 .LASF8820
     /tmp/cc7R4ZW9.s:99876  .debug_str:0000000000027264 .LASF8821
     /tmp/cc7R4ZW9.s:96498  .debug_str:0000000000018f9b .LASF8822
     /tmp/cc7R4ZW9.s:100212  .debug_str:0000000000028846 .LASF8823
     /tmp/cc7R4ZW9.s:98858  .debug_str:00000000000232d5 .LASF8824
     /tmp/cc7R4ZW9.s:106314  .debug_str:00000000000416a2 .LASF8825
     /tmp/cc7R4ZW9.s:109608  .debug_str:000000000004f649 .LASF8826
     /tmp/cc7R4ZW9.s:106958  .debug_str:00000000000444c0 .LASF8827
     /tmp/cc7R4ZW9.s:96992  .debug_str:000000000001b241 .LASF8828
     /tmp/cc7R4ZW9.s:102604  .debug_str:0000000000032154 .LASF8829
     /tmp/cc7R4ZW9.s:93742  .debug_str:000000000000e514 .LASF8830
     /tmp/cc7R4ZW9.s:95774  .debug_str:0000000000016017 .LASF8831
     /tmp/cc7R4ZW9.s:101702  .debug_str:000000000002e6e7 .LASF8832
     /tmp/cc7R4ZW9.s:105594  .debug_str:000000000003e61d .LASF8833
     /tmp/cc7R4ZW9.s:108860  .debug_str:000000000004c317 .LASF8834
     /tmp/cc7R4ZW9.s:93950  .debug_str:000000000000ef18 .LASF8835
     /tmp/cc7R4ZW9.s:94380  .debug_str:0000000000010806 .LASF8836
     /tmp/cc7R4ZW9.s:105054  .debug_str:000000000003c0dd .LASF8837
     /tmp/cc7R4ZW9.s:104852  .debug_str:000000000003b2ef .LASF8838
     /tmp/cc7R4ZW9.s:94382  .debug_str:0000000000010816 .LASF8839
     /tmp/cc7R4ZW9.s:105056  .debug_str:000000000003c0ed .LASF8840
     /tmp/cc7R4ZW9.s:91600  .debug_str:0000000000005498 .LASF8841
     /tmp/cc7R4ZW9.s:95956  .debug_str:0000000000016cc9 .LASF8842
     /tmp/cc7R4ZW9.s:96268  .debug_str:0000000000018194 .LASF8843
     /tmp/cc7R4ZW9.s:92060  .debug_str:000000000000748a .LASF8844
     /tmp/cc7R4ZW9.s:105186  .debug_str:000000000003ca77 .LASF8845
     /tmp/cc7R4ZW9.s:96270  .debug_str:00000000000181a4 .LASF8846
     /tmp/cc7R4ZW9.s:105428  .debug_str:000000000003d9eb .LASF8847
     /tmp/cc7R4ZW9.s:105188  .debug_str:000000000003ca87 .LASF8848
     /tmp/cc7R4ZW9.s:96272  .debug_str:00000000000181b4 .LASF8849
     /tmp/cc7R4ZW9.s:99224  .debug_str:0000000000024b31 .LASF8850
     /tmp/cc7R4ZW9.s:105190  .debug_str:000000000003ca97 .LASF8851
     /tmp/cc7R4ZW9.s:96274  .debug_str:00000000000181c4 .LASF8852
     /tmp/cc7R4ZW9.s:101866  .debug_str:000000000002f209 .LASF8853
     /tmp/cc7R4ZW9.s:105192  .debug_str:000000000003caa7 .LASF8854
     /tmp/cc7R4ZW9.s:96276  .debug_str:00000000000181d4 .LASF8855
     /tmp/cc7R4ZW9.s:106372  .debug_str:0000000000041a4f .LASF8856
     /tmp/cc7R4ZW9.s:98440  .debug_str:0000000000021752 .LASF8857
     /tmp/cc7R4ZW9.s:101704  .debug_str:000000000002e708 .LASF8858
     /tmp/cc7R4ZW9.s:95314  .debug_str:00000000000143a2 .LASF8859
     /tmp/cc7R4ZW9.s:95626  .debug_str:00000000000156fb .LASF8860
     /tmp/cc7R4ZW9.s:105184  .debug_str:000000000003ca67 .LASF8861
     /tmp/cc7R4ZW9.s:95384  .debug_str:0000000000014891 .LASF8862
     /tmp/cc7R4ZW9.s:91370  .debug_str:00000000000045ba .LASF8863
     /tmp/cc7R4ZW9.s:93290  .debug_str:000000000000c8d2 .LASF8864
     /tmp/cc7R4ZW9.s:109038  .debug_str:000000000004cf50 .LASF8865
     /tmp/cc7R4ZW9.s:91372  .debug_str:00000000000045d0 .LASF8866
     /tmp/cc7R4ZW9.s:93292  .debug_str:000000000000c8e8 .LASF8867
     /tmp/cc7R4ZW9.s:101880  .debug_str:000000000002f2db .LASF8868
     /tmp/cc7R4ZW9.s:91374  .debug_str:00000000000045e6 .LASF8869
     /tmp/cc7R4ZW9.s:93294  .debug_str:000000000000c8fe .LASF8870
     /tmp/cc7R4ZW9.s:95638  .debug_str:00000000000157fa .LASF8871
     /tmp/cc7R4ZW9.s:91376  .debug_str:00000000000045fc .LASF8872
     /tmp/cc7R4ZW9.s:93296  .debug_str:000000000000c914 .LASF8873
     /tmp/cc7R4ZW9.s:108900  .debug_str:000000000004c57f .LASF8874
     /tmp/cc7R4ZW9.s:91378  .debug_str:0000000000004612 .LASF8875
     /tmp/cc7R4ZW9.s:93298  .debug_str:000000000000c92a .LASF8876
     /tmp/cc7R4ZW9.s:103030  .debug_str:0000000000033eec .LASF8877
     /tmp/cc7R4ZW9.s:91380  .debug_str:0000000000004628 .LASF8878
     /tmp/cc7R4ZW9.s:93300  .debug_str:000000000000c940 .LASF8879
     /tmp/cc7R4ZW9.s:96796  .debug_str:000000000001a418 .LASF8880
     /tmp/cc7R4ZW9.s:91382  .debug_str:000000000000463e .LASF8881
     /tmp/cc7R4ZW9.s:93302  .debug_str:000000000000c956 .LASF8882
     /tmp/cc7R4ZW9.s:90592  .debug_str:0000000000000faf .LASF8883
     /tmp/cc7R4ZW9.s:107944  .debug_str:00000000000485cc .LASF8884
     /tmp/cc7R4ZW9.s:93304  .debug_str:000000000000c96c .LASF8885
     /tmp/cc7R4ZW9.s:103976  .debug_str:0000000000037e57 .LASF8886
     /tmp/cc7R4ZW9.s:106066  .debug_str:00000000000403c3 .LASF8887
     /tmp/cc7R4ZW9.s:101606  .debug_str:000000000002e0c2 .LASF8888
     /tmp/cc7R4ZW9.s:105276  .debug_str:000000000003cfe1 .LASF8889
     /tmp/cc7R4ZW9.s:95288  .debug_str:000000000001424a .LASF8890
     /tmp/cc7R4ZW9.s:104418  .debug_str:0000000000039727 .LASF8891
     /tmp/cc7R4ZW9.s:99096  .debug_str:00000000000243a5 .LASF8892
     /tmp/cc7R4ZW9.s:96848  .debug_str:000000000001a7d0 .LASF8893
     /tmp/cc7R4ZW9.s:92336  .debug_str:00000000000086ca .LASF8894
     /tmp/cc7R4ZW9.s:99414  .debug_str:00000000000256ce .LASF8895
     /tmp/cc7R4ZW9.s:98250  .debug_str:0000000000020b3c .LASF8896
     /tmp/cc7R4ZW9.s:103128  .debug_str:000000000003455b .LASF8897
     /tmp/cc7R4ZW9.s:108534  .debug_str:000000000004ac7f .LASF8898
     /tmp/cc7R4ZW9.s:105798  .debug_str:000000000003f308 .LASF8899
     /tmp/cc7R4ZW9.s:100062  .debug_str:0000000000027e7b .LASF8900
     /tmp/cc7R4ZW9.s:104650  .debug_str:000000000003a4d2 .LASF8901
     /tmp/cc7R4ZW9.s:106942  .debug_str:00000000000443a3 .LASF8902
     /tmp/cc7R4ZW9.s:106772  .debug_str:000000000004387a .LASF8903
     /tmp/cc7R4ZW9.s:96810  .debug_str:000000000001a544 .LASF8904
     /tmp/cc7R4ZW9.s:99030  .debug_str:0000000000023f00 .LASF8905
     /tmp/cc7R4ZW9.s:94574  .debug_str:000000000001139a .LASF8906
     /tmp/cc7R4ZW9.s:94976  .debug_str:0000000000012de4 .LASF8907
     /tmp/cc7R4ZW9.s:99112  .debug_str:00000000000244b6 .LASF8908
     /tmp/cc7R4ZW9.s:94706  .debug_str:0000000000011baf .LASF8909
     /tmp/cc7R4ZW9.s:101102  .debug_str:000000000002c1f7 .LASF8910
     /tmp/cc7R4ZW9.s:95454  .debug_str:0000000000014c6d .LASF8911
     /tmp/cc7R4ZW9.s:94828  .debug_str:0000000000012416 .LASF8912
     /tmp/cc7R4ZW9.s:93094  .debug_str:000000000000bb8a .LASF8913
     /tmp/cc7R4ZW9.s:106594  .debug_str:0000000000042d1a .LASF8914
     /tmp/cc7R4ZW9.s:106860  .debug_str:0000000000043e84 .LASF8915
     /tmp/cc7R4ZW9.s:100776  .debug_str:000000000002acf9 .LASF8916
     /tmp/cc7R4ZW9.s:105238  .debug_str:000000000003cd94 .LASF8917
     /tmp/cc7R4ZW9.s:109618  .debug_str:000000000004f6cc .LASF8918
     /tmp/cc7R4ZW9.s:104674  .debug_str:000000000003a672 .LASF8919
     /tmp/cc7R4ZW9.s:106606  .debug_str:0000000000042d9e .LASF8920
     /tmp/cc7R4ZW9.s:100256  .debug_str:0000000000028bd1 .LASF8921
     /tmp/cc7R4ZW9.s:100144  .debug_str:0000000000028374 .LASF8922
     /tmp/cc7R4ZW9.s:94276  .debug_str:0000000000010201 .LASF8923
     /tmp/cc7R4ZW9.s:109046  .debug_str:000000000004cfe1 .LASF8924
     /tmp/cc7R4ZW9.s:109032  .debug_str:000000000004cea6 .LASF8925
     /tmp/cc7R4ZW9.s:105408  .debug_str:000000000003d8c5 .LASF8926
     /tmp/cc7R4ZW9.s:100724  .debug_str:000000000002a9d2 .LASF8927
     /tmp/cc7R4ZW9.s:100816  .debug_str:000000000002b013 .LASF8928
     /tmp/cc7R4ZW9.s:103072  .debug_str:0000000000034192 .LASF8929
     /tmp/cc7R4ZW9.s:109474  .debug_str:000000000004ed70 .LASF8930
     /tmp/cc7R4ZW9.s:100442  .debug_str:0000000000029789 .LASF8931
     /tmp/cc7R4ZW9.s:94226  .debug_str:000000000000fffe .LASF8932
     /tmp/cc7R4ZW9.s:97112  .debug_str:000000000001b9fd .LASF8933
     /tmp/cc7R4ZW9.s:109736  .debug_str:000000000004fefc .LASF8934
     /tmp/cc7R4ZW9.s:105936  .debug_str:000000000003fbeb .LASF8935
     /tmp/cc7R4ZW9.s:92216  .debug_str:0000000000007e49 .LASF8936
     /tmp/cc7R4ZW9.s:100686  .debug_str:000000000002a81e .LASF8937
     /tmp/cc7R4ZW9.s:105210  .debug_str:000000000003cbc9 .LASF8938
     /tmp/cc7R4ZW9.s:91060  .debug_str:000000000000310f .LASF8939
     /tmp/cc7R4ZW9.s:91330  .debug_str:000000000000428d .LASF8940
     /tmp/cc7R4ZW9.s:105212  .debug_str:000000000003cbe2 .LASF8941
     /tmp/cc7R4ZW9.s:91062  .debug_str:0000000000003128 .LASF8942
     /tmp/cc7R4ZW9.s:97662  .debug_str:000000000001e128 .LASF8943
     /tmp/cc7R4ZW9.s:105214  .debug_str:000000000003cbfb .LASF8944
     /tmp/cc7R4ZW9.s:91064  .debug_str:0000000000003141 .LASF8945
     /tmp/cc7R4ZW9.s:98542  .debug_str:0000000000021f00 .LASF8946
     /tmp/cc7R4ZW9.s:104620  .debug_str:000000000003a258 .LASF8947
     /tmp/cc7R4ZW9.s:91066  .debug_str:000000000000315a .LASF8948
     /tmp/cc7R4ZW9.s:92276  .debug_str:0000000000008220 .LASF8949
     /tmp/cc7R4ZW9.s:105218  .debug_str:000000000003cc1b .LASF8950
     /tmp/cc7R4ZW9.s:91068  .debug_str:0000000000003173 .LASF8951
     /tmp/cc7R4ZW9.s:105628  .debug_str:000000000003e838 .LASF8952
     /tmp/cc7R4ZW9.s:107288  .debug_str:0000000000045a70 .LASF8953
     /tmp/cc7R4ZW9.s:106756  .debug_str:000000000004378e .LASF8954
     /tmp/cc7R4ZW9.s:101196  .debug_str:000000000002c730 .LASF8955
     /tmp/cc7R4ZW9.s:96438  .debug_str:0000000000018bca .LASF8956
     /tmp/cc7R4ZW9.s:99004  .debug_str:0000000000023d4f .LASF8957
     /tmp/cc7R4ZW9.s:99028  .debug_str:0000000000023edf .LASF8958
     /tmp/cc7R4ZW9.s:101134  .debug_str:000000000002c3c4 .LASF8959
     /tmp/cc7R4ZW9.s:95158  .debug_str:0000000000013a37 .LASF8960
     /tmp/cc7R4ZW9.s:99088  .debug_str:0000000000024316 .LASF8961
     /tmp/cc7R4ZW9.s:93602  .debug_str:000000000000dd04 .LASF8962
     /tmp/cc7R4ZW9.s:102472  .debug_str:0000000000031956 .LASF8963
     /tmp/cc7R4ZW9.s:102620  .debug_str:000000000003225c .LASF8964
     /tmp/cc7R4ZW9.s:97330  .debug_str:000000000001c9f9 .LASF8965
     /tmp/cc7R4ZW9.s:107396  .debug_str:000000000004619e .LASF8966
     /tmp/cc7R4ZW9.s:102972  .debug_str:0000000000033b0b .LASF8967
     /tmp/cc7R4ZW9.s:101988  .debug_str:000000000002fab5 .LASF8968
     /tmp/cc7R4ZW9.s:95342  .debug_str:00000000000145aa .LASF8969
     /tmp/cc7R4ZW9.s:99154  .debug_str:00000000000247dc .LASF8970
     /tmp/cc7R4ZW9.s:96552  .debug_str:00000000000192ec .LASF8971
     /tmp/cc7R4ZW9.s:95864  .debug_str:00000000000165f6 .LASF8972
     /tmp/cc7R4ZW9.s:105448  .debug_str:000000000003dbcf .LASF8973
     /tmp/cc7R4ZW9.s:96454  .debug_str:0000000000018cae .LASF8974
     /tmp/cc7R4ZW9.s:95922  .debug_str:0000000000016a12 .LASF8975
     /tmp/cc7R4ZW9.s:104826  .debug_str:000000000003b11b .LASF8976
     /tmp/cc7R4ZW9.s:91324  .debug_str:0000000000004219 .LASF8977
     /tmp/cc7R4ZW9.s:98702  .debug_str:00000000000228ca .LASF8978
     /tmp/cc7R4ZW9.s:98442  .debug_str:0000000000021767 .LASF8979
     /tmp/cc7R4ZW9.s:91386  .debug_str:000000000000465d .LASF8980
     /tmp/cc7R4ZW9.s:102080  .debug_str:000000000003009c .LASF8981
     /tmp/cc7R4ZW9.s:109204  .debug_str:000000000004da29 .LASF8982
     /tmp/cc7R4ZW9.s:92256  .debug_str:00000000000080ba .LASF8983
     /tmp/cc7R4ZW9.s:101372  .debug_str:000000000002d1e8 .LASF8984
     /tmp/cc7R4ZW9.s:108612  .debug_str:000000000004b17e .LASF8985
     /tmp/cc7R4ZW9.s:103184  .debug_str:0000000000034893 .LASF8986
     /tmp/cc7R4ZW9.s:108204  .debug_str:000000000004968d .LASF8987
     /tmp/cc7R4ZW9.s:101010  .debug_str:000000000002bbd1 .LASF8988
     /tmp/cc7R4ZW9.s:92136  .debug_str:000000000000796f .LASF8989
     /tmp/cc7R4ZW9.s:108256  .debug_str:00000000000499d0 .LASF8990
     /tmp/cc7R4ZW9.s:97694  .debug_str:000000000001e387 .LASF8991
     /tmp/cc7R4ZW9.s:92138  .debug_str:0000000000007982 .LASF8992
     /tmp/cc7R4ZW9.s:97838  .debug_str:000000000001edae .LASF8993
     /tmp/cc7R4ZW9.s:107584  .debug_str:0000000000046d0f .LASF8994
     /tmp/cc7R4ZW9.s:103438  .debug_str:0000000000035b17 .LASF8995
     /tmp/cc7R4ZW9.s:91654  .debug_str:0000000000005890 .LASF8996
     /tmp/cc7R4ZW9.s:106532  .debug_str:00000000000428ba .LASF8997
     /tmp/cc7R4ZW9.s:103440  .debug_str:0000000000035b2b .LASF8998
     /tmp/cc7R4ZW9.s:91656  .debug_str:00000000000058a4 .LASF8999
     /tmp/cc7R4ZW9.s:100436  .debug_str:0000000000029727 .LASF9000
     /tmp/cc7R4ZW9.s:103442  .debug_str:0000000000035b3f .LASF9001
     /tmp/cc7R4ZW9.s:91658  .debug_str:00000000000058b8 .LASF9002
     /tmp/cc7R4ZW9.s:94320  .debug_str:00000000000104a9 .LASF9003
     /tmp/cc7R4ZW9.s:103444  .debug_str:0000000000035b53 .LASF9004
     /tmp/cc7R4ZW9.s:98548  .debug_str:0000000000021f76 .LASF9005
     /tmp/cc7R4ZW9.s:93844  .debug_str:000000000000e9d7 .LASF9006
     /tmp/cc7R4ZW9.s:103446  .debug_str:0000000000035b67 .LASF9007
     /tmp/cc7R4ZW9.s:91662  .debug_str:000000000000590f .LASF9008
     /tmp/cc7R4ZW9.s:101462  .debug_str:000000000002d755 .LASF9009
     /tmp/cc7R4ZW9.s:96000  .debug_str:0000000000016f74 .LASF9010
     /tmp/cc7R4ZW9.s:99000  .debug_str:0000000000023d2b .LASF9011
     /tmp/cc7R4ZW9.s:90976  .debug_str:0000000000002b22 .LASF9012
     /tmp/cc7R4ZW9.s:92230  .debug_str:0000000000007f21 .LASF9013
     /tmp/cc7R4ZW9.s:99002  .debug_str:0000000000023d3d .LASF9014
     /tmp/cc7R4ZW9.s:99546  .debug_str:0000000000025e67 .LASF9015
     /tmp/cc7R4ZW9.s:92232  .debug_str:0000000000007f33 .LASF9016
     /tmp/cc7R4ZW9.s:93236  .debug_str:000000000000c4d9 .LASF9017
     /tmp/cc7R4ZW9.s:106058  .debug_str:0000000000040339 .LASF9018
     /tmp/cc7R4ZW9.s:90736  .debug_str:0000000000001a58 .LASF9019
     /tmp/cc7R4ZW9.s:91752  .debug_str:0000000000005edc .LASF9020
     /tmp/cc7R4ZW9.s:108036  .debug_str:0000000000048ba2 .LASF9021
     /tmp/cc7R4ZW9.s:90738  .debug_str:0000000000001a6a .LASF9022
     /tmp/cc7R4ZW9.s:91754  .debug_str:0000000000005eee .LASF9023
     /tmp/cc7R4ZW9.s:101958  .debug_str:000000000002f886 .LASF9024
     /tmp/cc7R4ZW9.s:107026  .debug_str:000000000004495e .LASF9025
     /tmp/cc7R4ZW9.s:91756  .debug_str:0000000000005f00 .LASF9026
     /tmp/cc7R4ZW9.s:95706  .debug_str:0000000000015cc5 .LASF9027
     /tmp/cc7R4ZW9.s:108198  .debug_str:0000000000049659 .LASF9028
     /tmp/cc7R4ZW9.s:101948  .debug_str:000000000002f825 .LASF9029
     /tmp/cc7R4ZW9.s:98310  .debug_str:0000000000020ee1 .LASF9030
     /tmp/cc7R4ZW9.s:106852  .debug_str:0000000000043dfd .LASF9031
     /tmp/cc7R4ZW9.s:108426  .debug_str:000000000004a52d .LASF9032
     /tmp/cc7R4ZW9.s:102078  .debug_str:0000000000030076 .LASF9033
     /tmp/cc7R4ZW9.s:90844  .debug_str:0000000000002252 .LASF9034
     /tmp/cc7R4ZW9.s:103206  .debug_str:0000000000034a3b .LASF9035
     /tmp/cc7R4ZW9.s:103610  .debug_str:000000000003673f .LASF9036
     /tmp/cc7R4ZW9.s:94942  .debug_str:0000000000012b58 .LASF9037
     /tmp/cc7R4ZW9.s:108698  .debug_str:000000000004b851 .LASF9038
     /tmp/cc7R4ZW9.s:99974  .debug_str:000000000002781c .LASF9039
     /tmp/cc7R4ZW9.s:97476  .debug_str:000000000001d3e4 .LASF9040
     /tmp/cc7R4ZW9.s:107952  .debug_str:0000000000048651 .LASF9041
     /tmp/cc7R4ZW9.s:96114  .debug_str:000000000001775d .LASF9042
     /tmp/cc7R4ZW9.s:100640  .debug_str:000000000002a52a .LASF9043
     /tmp/cc7R4ZW9.s:106846  .debug_str:0000000000043db2 .LASF9044
     /tmp/cc7R4ZW9.s:105166  .debug_str:000000000003c956 .LASF9045
     /tmp/cc7R4ZW9.s:95246  .debug_str:0000000000013f82 .LASF9046
     /tmp/cc7R4ZW9.s:99618  .debug_str:000000000002620d .LASF9047
     /tmp/cc7R4ZW9.s:99888  .debug_str:000000000002730f .LASF9048
     /tmp/cc7R4ZW9.s:99488  .debug_str:0000000000025a9a .LASF9049
     /tmp/cc7R4ZW9.s:93010  .debug_str:000000000000b579 .LASF9050
     /tmp/cc7R4ZW9.s:107542  .debug_str:0000000000046a9f .LASF9051
     /tmp/cc7R4ZW9.s:97972  .debug_str:000000000001f728 .LASF9052
     /tmp/cc7R4ZW9.s:91538  .debug_str:00000000000050cc .LASF9053
     /tmp/cc7R4ZW9.s:109374  .debug_str:000000000004e6f4 .LASF9054
     /tmp/cc7R4ZW9.s:91288  .debug_str:0000000000003f79 .LASF9055
     /tmp/cc7R4ZW9.s:99588  .debug_str:0000000000025f99 .LASF9056
     /tmp/cc7R4ZW9.s:103458  .debug_str:0000000000035c6c .LASF9057
     /tmp/cc7R4ZW9.s:99524  .debug_str:0000000000025d19 .LASF9058
     /tmp/cc7R4ZW9.s:106812  .debug_str:0000000000043b70 .LASF9059
     /tmp/cc7R4ZW9.s:100548  .debug_str:0000000000029eb5 .LASF9060
     /tmp/cc7R4ZW9.s:106234  .debug_str:000000000004105a .LASF9061
     /tmp/cc7R4ZW9.s:91414  .debug_str:000000000000486b .LASF9062
     /tmp/cc7R4ZW9.s:100682  .debug_str:000000000002a7c5 .LASF9063
     /tmp/cc7R4ZW9.s:108350  .debug_str:000000000004a057 .LASF9064
     /tmp/cc7R4ZW9.s:107166  .debug_str:0000000000045260 .LASF9065
     /tmp/cc7R4ZW9.s:109042  .debug_str:000000000004cf98 .LASF9066
     /tmp/cc7R4ZW9.s:91824  .debug_str:0000000000006385 .LASF9067
     /tmp/cc7R4ZW9.s:103340  .debug_str:00000000000353d2 .LASF9068
     /tmp/cc7R4ZW9.s:99732  .debug_str:00000000000268c7 .LASF9069
     /tmp/cc7R4ZW9.s:93780  .debug_str:000000000000e76e .LASF9070
     /tmp/cc7R4ZW9.s:99960  .debug_str:0000000000027740 .LASF9071
     /tmp/cc7R4ZW9.s:107052  .debug_str:0000000000044ab3 .LASF9072
     /tmp/cc7R4ZW9.s:98386  .debug_str:00000000000213d2 .LASF9073
     /tmp/cc7R4ZW9.s:102674  .debug_str:00000000000326fd .LASF9074
     /tmp/cc7R4ZW9.s:100344  .debug_str:00000000000291d6 .LASF9075
     /tmp/cc7R4ZW9.s:92856  .debug_str:000000000000aa41 .LASF9076
     /tmp/cc7R4ZW9.s:107678  .debug_str:00000000000473a8 .LASF9077
     /tmp/cc7R4ZW9.s:108668  .debug_str:000000000004b602 .LASF9078
     /tmp/cc7R4ZW9.s:93804  .debug_str:000000000000e81f .LASF9079
     /tmp/cc7R4ZW9.s:98274  .debug_str:0000000000020cdc .LASF9080
     /tmp/cc7R4ZW9.s:101898  .debug_str:000000000002f4a4 .LASF9081
     /tmp/cc7R4ZW9.s:95526  .debug_str:00000000000150a9 .LASF9082
     /tmp/cc7R4ZW9.s:107496  .debug_str:00000000000467c5 .LASF9083
     /tmp/cc7R4ZW9.s:107624  .debug_str:0000000000047011 .LASF9084
     /tmp/cc7R4ZW9.s:93192  .debug_str:000000000000c260 .LASF9085
     /tmp/cc7R4ZW9.s:95972  .debug_str:0000000000016db6 .LASF9086
     /tmp/cc7R4ZW9.s:109330  .debug_str:000000000004e3ea .LASF9087
     /tmp/cc7R4ZW9.s:107062  .debug_str:0000000000044b4b .LASF9088
     /tmp/cc7R4ZW9.s:103104  .debug_str:00000000000343aa .LASF9089
     /tmp/cc7R4ZW9.s:101768  .debug_str:000000000002eb97 .LASF9090
     /tmp/cc7R4ZW9.s:96962  .debug_str:000000000001b044 .LASF9091
     /tmp/cc7R4ZW9.s:105044  .debug_str:000000000003bff2 .LASF9092
     /tmp/cc7R4ZW9.s:98342  .debug_str:00000000000210c1 .LASF9093
     /tmp/cc7R4ZW9.s:93118  .debug_str:000000000000bd8d .LASF9094
     /tmp/cc7R4ZW9.s:109294  .debug_str:000000000004e1be .LASF9095
     /tmp/cc7R4ZW9.s:105030  .debug_str:000000000003bee8 .LASF9096
     /tmp/cc7R4ZW9.s:108776  .debug_str:000000000004bd6a .LASF9097
     /tmp/cc7R4ZW9.s:94094  .debug_str:000000000000f79c .LASF9098
     /tmp/cc7R4ZW9.s:102616  .debug_str:000000000003222b .LASF9099
     /tmp/cc7R4ZW9.s:91002  .debug_str:0000000000002ccb .LASF9100
     /tmp/cc7R4ZW9.s:103760  .debug_str:00000000000370f6 .LASF9101
     /tmp/cc7R4ZW9.s:100842  .debug_str:000000000002b1ad .LASF9102
     /tmp/cc7R4ZW9.s:104010  .debug_str:000000000003817d .LASF9103
     /tmp/cc7R4ZW9.s:101662  .debug_str:000000000002e444 .LASF9104
     /tmp/cc7R4ZW9.s:104314  .debug_str:00000000000391ee .LASF9105
     /tmp/cc7R4ZW9.s:96140  .debug_str:0000000000017952 .LASF9106
     /tmp/cc7R4ZW9.s:90826  .debug_str:00000000000020e2 .LASF9107
     /tmp/cc7R4ZW9.s:95400  .debug_str:0000000000014988 .LASF9108
     /tmp/cc7R4ZW9.s:93808  .debug_str:000000000000e84f .LASF9109
     /tmp/cc7R4ZW9.s:104126  .debug_str:000000000003878d .LASF9110
     /tmp/cc7R4ZW9.s:106938  .debug_str:0000000000044349 .LASF9111
     /tmp/cc7R4ZW9.s:96536  .debug_str:0000000000019207 .LASF9112
     /tmp/cc7R4ZW9.s:101318  .debug_str:000000000002cee1 .LASF9113
     /tmp/cc7R4ZW9.s:92326  .debug_str:00000000000085fc .LASF9114
     /tmp/cc7R4ZW9.s:100268  .debug_str:0000000000028c4f .LASF9115
     /tmp/cc7R4ZW9.s:99066  .debug_str:0000000000024168 .LASF9116
     /tmp/cc7R4ZW9.s:109138  .debug_str:000000000004d567 .LASF9117
     /tmp/cc7R4ZW9.s:100270  .debug_str:0000000000028c6c .LASF9118
     /tmp/cc7R4ZW9.s:99068  .debug_str:0000000000024185 .LASF9119
     /tmp/cc7R4ZW9.s:90526  .debug_str:0000000000000b32 .LASF9120
     /tmp/cc7R4ZW9.s:105558  .debug_str:000000000003e3ce .LASF9121
     /tmp/cc7R4ZW9.s:104514  .debug_str:0000000000039cab .LASF9122
     /tmp/cc7R4ZW9.s:107244  .debug_str:0000000000045733 .LASF9123
     /tmp/cc7R4ZW9.s:105560  .debug_str:000000000003e3eb .LASF9124
     /tmp/cc7R4ZW9.s:91794  .debug_str:0000000000006178 .LASF9125
     /tmp/cc7R4ZW9.s:95652  .debug_str:00000000000158d1 .LASF9126
     /tmp/cc7R4ZW9.s:107674  .debug_str:0000000000047372 .LASF9127
     /tmp/cc7R4ZW9.s:94992  .debug_str:0000000000012efd .LASF9128
     /tmp/cc7R4ZW9.s:106010  .debug_str:0000000000040044 .LASF9129
     /tmp/cc7R4ZW9.s:107676  .debug_str:000000000004738d .LASF9130
     /tmp/cc7R4ZW9.s:104204  .debug_str:0000000000038c10 .LASF9131
     /tmp/cc7R4ZW9.s:99884  .debug_str:00000000000272c6 .LASF9132
     /tmp/cc7R4ZW9.s:93460  .debug_str:000000000000d47e .LASF9133
     /tmp/cc7R4ZW9.s:100352  .debug_str:000000000002928b .LASF9134
     /tmp/cc7R4ZW9.s:98558  .debug_str:000000000002200f .LASF9135
     /tmp/cc7R4ZW9.s:93462  .debug_str:000000000000d499 .LASF9136
     /tmp/cc7R4ZW9.s:95344  .debug_str:00000000000145b6 .LASF9137
     /tmp/cc7R4ZW9.s:92290  .debug_str:0000000000008358 .LASF9138
     /tmp/cc7R4ZW9.s:99358  .debug_str:00000000000253db .LASF9139
     /tmp/cc7R4ZW9.s:98080  .debug_str:000000000001fe76 .LASF9140
     /tmp/cc7R4ZW9.s:90486  .debug_str:000000000000087d .LASF9141
     /tmp/cc7R4ZW9.s:99360  .debug_str:00000000000253f8 .LASF9142
     /tmp/cc7R4ZW9.s:98082  .debug_str:000000000001fe93 .LASF9143
     /tmp/cc7R4ZW9.s:100740  .debug_str:000000000002aac7 .LASF9144
     /tmp/cc7R4ZW9.s:104820  .debug_str:000000000003b0b7 .LASF9145
     /tmp/cc7R4ZW9.s:103476  .debug_str:0000000000035de9 .LASF9146
     /tmp/cc7R4ZW9.s:102518  .debug_str:0000000000031c12 .LASF9147
     /tmp/cc7R4ZW9.s:104822  .debug_str:000000000003b0d4 .LASF9148
     /tmp/cc7R4ZW9.s:103478  .debug_str:0000000000035e06 .LASF9149
     /tmp/cc7R4ZW9.s:96298  .debug_str:0000000000018370 .LASF9150
     /tmp/cc7R4ZW9.s:94790  .debug_str:0000000000012182 .LASF9151
     /tmp/cc7R4ZW9.s:92808  .debug_str:000000000000a748 .LASF9152
     /tmp/cc7R4ZW9.s:96636  .debug_str:0000000000019919 .LASF9153
     /tmp/cc7R4ZW9.s:109720  .debug_str:000000000004fdfb .LASF9154
     /tmp/cc7R4ZW9.s:92810  .debug_str:000000000000a761 .LASF9155
     /tmp/cc7R4ZW9.s:90456  .debug_str:00000000000006a2 .LASF9156
     /tmp/cc7R4ZW9.s:92376  .debug_str:0000000000008968 .LASF9157
     /tmp/cc7R4ZW9.s:105200  .debug_str:000000000003cafa .LASF9158
     /tmp/cc7R4ZW9.s:94112  .debug_str:000000000000f8a2 .LASF9159
     /tmp/cc7R4ZW9.s:93376  .debug_str:000000000000cec7 .LASF9160
     /tmp/cc7R4ZW9.s:97234  .debug_str:000000000001c2a5 .LASF9161
     /tmp/cc7R4ZW9.s:108642  .debug_str:000000000004b415 .LASF9162
     /tmp/cc7R4ZW9.s:92524  .debug_str:00000000000093ac .LASF9163
     /tmp/cc7R4ZW9.s:109616  .debug_str:000000000004f6c0 .LASF9164
     /tmp/cc7R4ZW9.s:90856  .debug_str:000000000000233c .LASF9165
     /tmp/cc7R4ZW9.s:108416  .debug_str:000000000004a490 .LASF9166
     /tmp/cc7R4ZW9.s:94074  .debug_str:000000000000f737 .LASF9167
     /tmp/cc7R4ZW9.s:107136  .debug_str:0000000000045084 .LASF9168
     /tmp/cc7R4ZW9.s:98144  .debug_str:000000000002034b .LASF9169
     /tmp/cc7R4ZW9.s:102110  .debug_str:0000000000030216 .LASF9170
     /tmp/cc7R4ZW9.s:95596  .debug_str:0000000000015545 .LASF9171
     /tmp/cc7R4ZW9.s:92686  .debug_str:0000000000009f02 .LASF9172
     /tmp/cc7R4ZW9.s:99498  .debug_str:0000000000025b4e .LASF9173
     /tmp/cc7R4ZW9.s:93976  .debug_str:000000000000f0d6 .LASF9174
     /tmp/cc7R4ZW9.s:102008  .debug_str:000000000002fbc7 .LASF9175
     /tmp/cc7R4ZW9.s:97434  .debug_str:000000000001d138 .LASF9176
     /tmp/cc7R4ZW9.s:100878  .debug_str:000000000002b350 .LASF9177
     /tmp/cc7R4ZW9.s:98942  .debug_str:000000000002394c .LASF9178
     /tmp/cc7R4ZW9.s:106452  .debug_str:0000000000042279 .LASF9179
     /tmp/cc7R4ZW9.s:108404  .debug_str:000000000004a3f4 .LASF9180
     /tmp/cc7R4ZW9.s:103020  .debug_str:0000000000033ea3 .LASF9181
     /tmp/cc7R4ZW9.s:101186  .debug_str:000000000002c695 .LASF9182
     /tmp/cc7R4ZW9.s:94148  .debug_str:000000000000fb2c .LASF9183
     /tmp/cc7R4ZW9.s:101016  .debug_str:000000000002bc3b .LASF9184
     /tmp/cc7R4ZW9.s:107340  .debug_str:0000000000045ddf .LASF9185
     /tmp/cc7R4ZW9.s:98160  .debug_str:00000000000204a1 .LASF9186
     /tmp/cc7R4ZW9.s:101616  .debug_str:000000000002e16a .LASF9187
     /tmp/cc7R4ZW9.s:97684  .debug_str:000000000001e2be .LASF9188
     /tmp/cc7R4ZW9.s:104310  .debug_str:00000000000391bf .LASF9189
     /tmp/cc7R4ZW9.s:99400  .debug_str:0000000000025613 .LASF9190
     /tmp/cc7R4ZW9.s:106018  .debug_str:00000000000400db .LASF9191
     /tmp/cc7R4ZW9.s:108926  .debug_str:000000000004c719 .LASF9192
     /tmp/cc7R4ZW9.s:101410  .debug_str:000000000002d469 .LASF9193
     /tmp/cc7R4ZW9.s:96776  .debug_str:000000000001a296 .LASF9194
     /tmp/cc7R4ZW9.s:107256  .debug_str:00000000000457f2 .LASF9195
     /tmp/cc7R4ZW9.s:99764  .debug_str:0000000000026b53 .LASF9196
     /tmp/cc7R4ZW9.s:95272  .debug_str:000000000001411b .LASF9197
     /tmp/cc7R4ZW9.s:93508  .debug_str:000000000000d765 .LASF9198
     /tmp/cc7R4ZW9.s:108250  .debug_str:0000000000049995 .LASF9199
     /tmp/cc7R4ZW9.s:91796  .debug_str:0000000000006195 .LASF9200
     /tmp/cc7R4ZW9.s:96954  .debug_str:000000000001af9a .LASF9201
     /tmp/cc7R4ZW9.s:99934  .debug_str:0000000000027583 .LASF9202
     /tmp/cc7R4ZW9.s:94548  .debug_str:00000000000111e2 .LASF9203
     /tmp/cc7R4ZW9.s:106200  .debug_str:0000000000040cd2 .LASF9204
     /tmp/cc7R4ZW9.s:98292  .debug_str:0000000000020dd7 .LASF9205
     /tmp/cc7R4ZW9.s:92272  .debug_str:00000000000081e3 .LASF9206
     /tmp/cc7R4ZW9.s:109500  .debug_str:000000000004ef2d .LASF9207
     /tmp/cc7R4ZW9.s:107710  .debug_str:0000000000047553 .LASF9208
     /tmp/cc7R4ZW9.s:99972  .debug_str:0000000000027808 .LASF9209
     /tmp/cc7R4ZW9.s:92274  .debug_str:00000000000081f8 .LASF9210
     /tmp/cc7R4ZW9.s:102994  .debug_str:0000000000033ce6 .LASF9211
     /tmp/cc7R4ZW9.s:108578  .debug_str:000000000004af7b .LASF9212
     /tmp/cc7R4ZW9.s:92886  .debug_str:000000000000ac1e .LASF9213
     /tmp/cc7R4ZW9.s:94826  .debug_str:00000000000123f9 .LASF9214
     /tmp/cc7R4ZW9.s:92198  .debug_str:0000000000007d56 .LASF9215
     /tmp/cc7R4ZW9.s:104710  .debug_str:000000000003a8da .LASF9216
     /tmp/cc7R4ZW9.s:96404  .debug_str:0000000000018a01 .LASF9217
     /tmp/cc7R4ZW9.s:96406  .debug_str:0000000000018a10 .LASF9218
     /tmp/cc7R4ZW9.s:96408  .debug_str:0000000000018a1f .LASF9219
     /tmp/cc7R4ZW9.s:98476  .debug_str:000000000002199c .LASF9220
     /tmp/cc7R4ZW9.s:96816  .debug_str:000000000001a5ba .LASF9221
     /tmp/cc7R4ZW9.s:96634  .debug_str:0000000000019900 .LASF9222
     /tmp/cc7R4ZW9.s:98426  .debug_str:0000000000021680 .LASF9223
     /tmp/cc7R4ZW9.s:106290  .debug_str:00000000000414e9 .LASF9224
     /tmp/cc7R4ZW9.s:94958  .debug_str:0000000000012c77 .LASF9225
     /tmp/cc7R4ZW9.s:104240  .debug_str:0000000000038e3c .LASF9226
     /tmp/cc7R4ZW9.s:93820  .debug_str:000000000000e929 .LASF9227
     /tmp/cc7R4ZW9.s:94792  .debug_str:000000000001219b .LASF9228
     /tmp/cc7R4ZW9.s:98416  .debug_str:00000000000215ac .LASF9229
     /tmp/cc7R4ZW9.s:91628  .debug_str:00000000000056a3 .LASF9230
     /tmp/cc7R4ZW9.s:105670  .debug_str:000000000003eb4d .LASF9231
     /tmp/cc7R4ZW9.s:95456  .debug_str:0000000000014c77 .LASF9232
     /tmp/cc7R4ZW9.s:95092  .debug_str:0000000000013686 .LASF9233
     /tmp/cc7R4ZW9.s:106242  .debug_str:00000000000410c3 .LASF9234
     /tmp/cc7R4ZW9.s:106238  .debug_str:00000000000410b1 .LASF9235
     /tmp/cc7R4ZW9.s:106240  .debug_str:00000000000410ba .LASF9236
     /tmp/cc7R4ZW9.s:106572  .debug_str:0000000000042ba7 .LASF9237
     /tmp/cc7R4ZW9.s:106106  .debug_str:00000000000405fb .LASF9238
     /tmp/cc7R4ZW9.s:96258  .debug_str:00000000000180f3 .LASF9239
     /tmp/cc7R4ZW9.s:102084  .debug_str:00000000000300bb .LASF9240
     /tmp/cc7R4ZW9.s:95226  .debug_str:0000000000013e55 .LASF9241
     /tmp/cc7R4ZW9.s:99316  .debug_str:000000000002516c .LASF9242
     /tmp/cc7R4ZW9.s:102118  .debug_str:00000000000302d6 .LASF9243
     /tmp/cc7R4ZW9.s:105460  .debug_str:000000000003dc8f .LASF9244
     /tmp/cc7R4ZW9.s:96412  .debug_str:0000000000018a57 .LASF9245
     /tmp/cc7R4ZW9.s:100784  .debug_str:000000000002ad95 .LASF9246
     /tmp/cc7R4ZW9.s:91710  .debug_str:0000000000005c33 .LASF9247
     /tmp/cc7R4ZW9.s:102128  .debug_str:0000000000030343 .LASF9248
     /tmp/cc7R4ZW9.s:100616  .debug_str:000000000002a36f .LASF9249
     /tmp/cc7R4ZW9.s:99464  .debug_str:0000000000025a0a .LASF9250
     /tmp/cc7R4ZW9.s:98760  .debug_str:0000000000022cbe .LASF9251
     /tmp/cc7R4ZW9.s:92144  .debug_str:00000000000079f5 .LASF9252
     /tmp/cc7R4ZW9.s:106888  .debug_str:0000000000044029 .LASF9253
     /tmp/cc7R4ZW9.s:101500  .debug_str:000000000002d985 .LASF9254
     /tmp/cc7R4ZW9.s:100482  .debug_str:0000000000029aa8 .LASF9255
     /tmp/cc7R4ZW9.s:98462  .debug_str:000000000002190f .LASF9256
     /tmp/cc7R4ZW9.s:95990  .debug_str:0000000000016ef4 .LASF9257
     /tmp/cc7R4ZW9.s:106114  .debug_str:0000000000040677 .LASF9258
     /tmp/cc7R4ZW9.s:106252  .debug_str:0000000000041180 .LASF9259
     /tmp/cc7R4ZW9.s:90730  .debug_str:0000000000001a27 .LASF9260
     /tmp/cc7R4ZW9.s:97346  .debug_str:000000000001cb55 .LASF9261
     /tmp/cc7R4ZW9.s:103270  .debug_str:0000000000034f1b .LASF9262
     /tmp/cc7R4ZW9.s:94618  .debug_str:0000000000011592 .LASF9263
     /tmp/cc7R4ZW9.s:98888  .debug_str:0000000000023539 .LASF9264
     /tmp/cc7R4ZW9.s:92854  .debug_str:000000000000aa3b .LASF9265
     /tmp/cc7R4ZW9.s:99026  .debug_str:0000000000023ec8 .LASF9266
     /tmp/cc7R4ZW9.s:100464  .debug_str:000000000002995c .LASF9267
     /tmp/cc7R4ZW9.s:95164  .debug_str:0000000000013a9d .LASF9268
     /tmp/cc7R4ZW9.s:97230  .debug_str:000000000001c25d .LASF9269
     /tmp/cc7R4ZW9.s:108132  .debug_str:00000000000491aa .LASF9270
     /tmp/cc7R4ZW9.s:91790  .debug_str:0000000000006136 .LASF9271
     /tmp/cc7R4ZW9.s:101378  .debug_str:000000000002d250 .LASF9272
     /tmp/cc7R4ZW9.s:100662  .debug_str:000000000002a69f .LASF9273
     /tmp/cc7R4ZW9.s:93966  .debug_str:000000000000f03c .LASF9274
     /tmp/cc7R4ZW9.s:93170  .debug_str:000000000000c129 .LASF9275
     /tmp/cc7R4ZW9.s:94098  .debug_str:000000000000f7bf .LASF9276
     /tmp/cc7R4ZW9.s:92934  .debug_str:000000000000afc6 .LASF9277
     /tmp/cc7R4ZW9.s:108530  .debug_str:000000000004ac4f .LASF9278
     /tmp/cc7R4ZW9.s:99674  .debug_str:0000000000026566 .LASF9279
     /tmp/cc7R4ZW9.s:106748  .debug_str:0000000000043741 .LASF9280
     /tmp/cc7R4ZW9.s:91782  .debug_str:00000000000060c1 .LASF9281
     /tmp/cc7R4ZW9.s:93768  .debug_str:000000000000e69f .LASF9282
     /tmp/cc7R4ZW9.s:105256  .debug_str:000000000003cecc .LASF9283
     /tmp/cc7R4ZW9.s:94676  .debug_str:000000000001198e .LASF9284
     /tmp/cc7R4ZW9.s:100374  .debug_str:000000000002942e .LASF9285
     /tmp/cc7R4ZW9.s:92008  .debug_str:00000000000070eb .LASF9286
     /tmp/cc7R4ZW9.s:96130  .debug_str:00000000000178a9 .LASF9287
     /tmp/cc7R4ZW9.s:93016  .debug_str:000000000000b5f0 .LASF9288
     /tmp/cc7R4ZW9.s:102510  .debug_str:0000000000031ba6 .LASF9289
     /tmp/cc7R4ZW9.s:90394  .debug_str:0000000000000246 .LASF9290
     /tmp/cc7R4ZW9.s:106074  .debug_str:000000000004043f .LASF9291
     /tmp/cc7R4ZW9.s:96728  .debug_str:0000000000019f6c .LASF9292
     /tmp/cc7R4ZW9.s:101026  .debug_str:000000000002bcc5 .LASF9293
     /tmp/cc7R4ZW9.s:91634  .debug_str:00000000000056d6 .LASF9294
     /tmp/cc7R4ZW9.s:104684  .debug_str:000000000003a715 .LASF9295
     /tmp/cc7R4ZW9.s:91822  .debug_str:0000000000006379 .LASF9296
     /tmp/cc7R4ZW9.s:102506  .debug_str:0000000000031b62 .LASF9297
     /tmp/cc7R4ZW9.s:100302  .debug_str:0000000000028eb1 .LASF9298
     /tmp/cc7R4ZW9.s:91354  .debug_str:00000000000044ac .LASF9299
     /tmp/cc7R4ZW9.s:108432  .debug_str:000000000004a57e .LASF9300
     /tmp/cc7R4ZW9.s:99844  .debug_str:00000000000270a9 .LASF9301
     /tmp/cc7R4ZW9.s:107832  .debug_str:0000000000047e18 .LASF9302
     /tmp/cc7R4ZW9.s:99536  .debug_str:0000000000025db6 .LASF9303
     /tmp/cc7R4ZW9.s:98780  .debug_str:0000000000022e0b .LASF9304
     /tmp/cc7R4ZW9.s:108790  .debug_str:000000000004be47 .LASF9305
     /tmp/cc7R4ZW9.s:97046  .debug_str:000000000001b583 .LASF9306
     /tmp/cc7R4ZW9.s:100072  .debug_str:0000000000027ef5 .LASF9307
     /tmp/cc7R4ZW9.s:105350  .debug_str:000000000003d498 .LASF9308
     /tmp/cc7R4ZW9.s:90910  .debug_str:00000000000026c9 .LASF9309
     /tmp/cc7R4ZW9.s:91120  .debug_str:00000000000034c6 .LASF9310
     /tmp/cc7R4ZW9.s:100934  .debug_str:000000000002b77d .LASF9311
     /tmp/cc7R4ZW9.s:97050  .debug_str:000000000001b5c7 .LASF9312
     /tmp/cc7R4ZW9.s:104012  .debug_str:000000000003818d .LASF9313
     /tmp/cc7R4ZW9.s:100384  .debug_str:00000000000294cf .LASF9314
     /tmp/cc7R4ZW9.s:103172  .debug_str:0000000000034798 .LASF9315
     /tmp/cc7R4ZW9.s:98240  .debug_str:0000000000020a7d .LASF9316
     /tmp/cc7R4ZW9.s:99166  .debug_str:000000000002489c .LASF9317
     /tmp/cc7R4ZW9.s:96630  .debug_str:00000000000198ef .LASF9318
     /tmp/cc7R4ZW9.s:90666  .debug_str:00000000000014a4 .LASF9319
     /tmp/cc7R4ZW9.s:98592  .debug_str:00000000000221af .LASF9320
     /tmp/cc7R4ZW9.s:93758  .debug_str:000000000000e5d2 .LASF9321
     /tmp/cc7R4ZW9.s:102502  .debug_str:0000000000031b11 .LASF9322
     /tmp/cc7R4ZW9.s:107760  .debug_str:0000000000047945 .LASF9323
     /tmp/cc7R4ZW9.s:98546  .debug_str:0000000000021f6f .LASF9324
     /tmp/cc7R4ZW9.s:104388  .debug_str:00000000000395c0 .LASF9325
     /tmp/cc7R4ZW9.s:98264  .debug_str:0000000000020c49 .LASF9326
     /tmp/cc7R4ZW9.s:98540  .debug_str:0000000000021ef9 .LASF9327
     /tmp/cc7R4ZW9.s:106948  .debug_str:0000000000044424 .LASF9328
     /tmp/cc7R4ZW9.s:100498  .debug_str:0000000000029b7d .LASF9329
     /tmp/cc7R4ZW9.s:92908  .debug_str:000000000000ae24 .LASF9330
     /tmp/cc7R4ZW9.s:92204  .debug_str:0000000000007dbe .LASF9331
     /tmp/cc7R4ZW9.s:100838  .debug_str:000000000002b198 .LASF9332
     /tmp/cc7R4ZW9.s:107592  .debug_str:0000000000046dae .LASF9333
     /tmp/cc7R4ZW9.s:106368  .debug_str:0000000000041a11 .LASF9334
     /tmp/cc7R4ZW9.s:104194  .debug_str:0000000000038b44 .LASF9335
     /tmp/cc7R4ZW9.s:98934  .debug_str:00000000000238ce .LASF9336
     /tmp/cc7R4ZW9.s:106702  .debug_str:00000000000433e2 .LASF9337
     /tmp/cc7R4ZW9.s:102254  .debug_str:0000000000030bb7 .LASF9338
     /tmp/cc7R4ZW9.s:102716  .debug_str:00000000000329e1 .LASF9339
     /tmp/cc7R4ZW9.s:91850  .debug_str:000000000000652a .LASF9340
     /tmp/cc7R4ZW9.s:109142  .debug_str:000000000004d5c3 .LASF9341
     /tmp/cc7R4ZW9.s:107680  .debug_str:00000000000473b8 .LASF9342
     /tmp/cc7R4ZW9.s:101748  .debug_str:000000000002ea26 .LASF9343
     /tmp/cc7R4ZW9.s:91516  .debug_str:0000000000004f71 .LASF9344
     /tmp/cc7R4ZW9.s:97532  .debug_str:000000000001d7ab .LASF9345
     /tmp/cc7R4ZW9.s:106884  .debug_str:0000000000044012 .LASF9346
     /tmp/cc7R4ZW9.s:105604  .debug_str:000000000003e6bf .LASF9347
     /tmp/cc7R4ZW9.s:98232  .debug_str:0000000000020a56 .LASF9348
     /tmp/cc7R4ZW9.s:98234  .debug_str:0000000000020a60 .LASF9349
     /tmp/cc7R4ZW9.s:108296  .debug_str:0000000000049c6b .LASF9350
     /tmp/cc7R4ZW9.s:98238  .debug_str:0000000000020a73 .LASF9351
     /tmp/cc7R4ZW9.s:103354  .debug_str:00000000000354d6 .LASF9352
     /tmp/cc7R4ZW9.s:102102  .debug_str:00000000000301c3 .LASF9353
     /tmp/cc7R4ZW9.s:107536  .debug_str:0000000000046a49 .LASF9354
     /tmp/cc7R4ZW9.s:100612  .debug_str:000000000002a32a .LASF9355
     /tmp/cc7R4ZW9.s:96756  .debug_str:000000000001a120 .LASF9356
     /tmp/cc7R4ZW9.s:102946  .debug_str:0000000000033982 .LASF9357
     /tmp/cc7R4ZW9.s:92756  .debug_str:000000000000a39e .LASF9358
     /tmp/cc7R4ZW9.s:96530  .debug_str:00000000000191c2 .LASF9359
     /tmp/cc7R4ZW9.s:92758  .debug_str:000000000000a3a9 .LASF9360
     /tmp/cc7R4ZW9.s:94734  .debug_str:0000000000011da3 .LASF9361
     /tmp/cc7R4ZW9.s:92760  .debug_str:000000000000a3b4 .LASF9362
     /tmp/cc7R4ZW9.s:101162  .debug_str:000000000002c53d .LASF9363
     /tmp/cc7R4ZW9.s:92762  .debug_str:000000000000a3bf .LASF9364
     /tmp/cc7R4ZW9.s:97518  .debug_str:000000000001d698 .LASF9365
     /tmp/cc7R4ZW9.s:92764  .debug_str:000000000000a3ca .LASF9366
     /tmp/cc7R4ZW9.s:91300  .debug_str:0000000000004040 .LASF9367
     /tmp/cc7R4ZW9.s:103500  .debug_str:0000000000035ffb .LASF9368
     /tmp/cc7R4ZW9.s:91668  .debug_str:0000000000005974 .LASF9369
     /tmp/cc7R4ZW9.s:100408  .debug_str:0000000000029636 .LASF9370
     /tmp/cc7R4ZW9.s:107092  .debug_str:0000000000044d5a .LASF9371
     /tmp/cc7R4ZW9.s:100410  .debug_str:0000000000029640 .LASF9372
     /tmp/cc7R4ZW9.s:104492  .debug_str:0000000000039b26 .LASF9373
     /tmp/cc7R4ZW9.s:100412  .debug_str:000000000002964a .LASF9374
     /tmp/cc7R4ZW9.s:94756  .debug_str:0000000000011ed9 .LASF9375
     /tmp/cc7R4ZW9.s:100414  .debug_str:0000000000029654 .LASF9376
     /tmp/cc7R4ZW9.s:108058  .debug_str:0000000000048ceb .LASF9377
     /tmp/cc7R4ZW9.s:100416  .debug_str:000000000002965e .LASF9378
     /tmp/cc7R4ZW9.s:104054  .debug_str:0000000000038385 .LASF9379
     /tmp/cc7R4ZW9.s:100418  .debug_str:0000000000029668 .LASF9380
     /tmp/cc7R4ZW9.s:95726  .debug_str:0000000000015dc7 .LASF9381
     /tmp/cc7R4ZW9.s:100420  .debug_str:0000000000029672 .LASF9382
     /tmp/cc7R4ZW9.s:109010  .debug_str:000000000004ccff .LASF9383
     /tmp/cc7R4ZW9.s:99408  .debug_str:00000000000256a0 .LASF9384
     /tmp/cc7R4ZW9.s:93734  .debug_str:000000000000e477 .LASF9385
     /tmp/cc7R4ZW9.s:96548  .debug_str:00000000000192b6 .LASF9386
     /tmp/cc7R4ZW9.s:100958  .debug_str:000000000002b932 .LASF9387
     /tmp/cc7R4ZW9.s:94682  .debug_str:0000000000011a0e .LASF9388
     /tmp/cc7R4ZW9.s:95544  .debug_str:00000000000151f7 .LASF9389
     /tmp/cc7R4ZW9.s:107400  .debug_str:00000000000461cf .LASF9390
     /tmp/cc7R4ZW9.s:94386  .debug_str:000000000001083d .LASF9391
     /tmp/cc7R4ZW9.s:106260  .debug_str:00000000000411ee .LASF9392
     /tmp/cc7R4ZW9.s:108494  .debug_str:000000000004a94a .LASF9393
     /tmp/cc7R4ZW9.s:105530  .debug_str:000000000003e1df .LASF9394
     /tmp/cc7R4ZW9.s:95388  .debug_str:00000000000148c9 .LASF9395
     /tmp/cc7R4ZW9.s:90768  .debug_str:0000000000001cde .LASF9396
     /tmp/cc7R4ZW9.s:101430  .debug_str:000000000002d556 .LASF9397
     /tmp/cc7R4ZW9.s:108608  .debug_str:000000000004b146 .LASF9398
     /tmp/cc7R4ZW9.s:104824  .debug_str:000000000003b0f1 .LASF9399
     /tmp/cc7R4ZW9.s:102546  .debug_str:0000000000031da0 .LASF9400
     /tmp/cc7R4ZW9.s:107028  .debug_str:0000000000044970 .LASF9401
     /tmp/cc7R4ZW9.s:98254  .debug_str:0000000000020b88 .LASF9402
     /tmp/cc7R4ZW9.s:102400  .debug_str:00000000000314a2 .LASF9403
     /tmp/cc7R4ZW9.s:94842  .debug_str:000000000001249c .LASF9404
     /tmp/cc7R4ZW9.s:95066  .debug_str:000000000001347f .LASF9405
     /tmp/cc7R4ZW9.s:97128  .debug_str:000000000001baef .LASF9406
     /tmp/cc7R4ZW9.s:98286  .debug_str:0000000000020d72 .LASF9407
     /tmp/cc7R4ZW9.s:99790  .debug_str:0000000000026cdb .LASF9408
     /tmp/cc7R4ZW9.s:92350  .debug_str:0000000000008773 .LASF9409
     /tmp/cc7R4ZW9.s:101658  .debug_str:000000000002e40e .LASF9410
     /tmp/cc7R4ZW9.s:96712  .debug_str:0000000000019e74 .LASF9411
     /tmp/cc7R4ZW9.s:95908  .debug_str:0000000000016939 .LASF9412
     /tmp/cc7R4ZW9.s:107438  .debug_str:000000000004645e .LASF9413
     /tmp/cc7R4ZW9.s:96680  .debug_str:0000000000019c58 .LASF9414
     /tmp/cc7R4ZW9.s:100356  .debug_str:00000000000292de .LASF9415
     /tmp/cc7R4ZW9.s:90566  .debug_str:0000000000000def .LASF9416
     /tmp/cc7R4ZW9.s:97310  .debug_str:000000000001c89c .LASF9417
     /tmp/cc7R4ZW9.s:104024  .debug_str:00000000000381b7 .LASF9418
     /tmp/cc7R4ZW9.s:102412  .debug_str:000000000003152d .LASF9419
     /tmp/cc7R4ZW9.s:98916  .debug_str:000000000002379c .LASF9420
     /tmp/cc7R4ZW9.s:100050  .debug_str:0000000000027de0 .LASF9421
     /tmp/cc7R4ZW9.s:98712  .debug_str:0000000000022995 .LASF9422
     /tmp/cc7R4ZW9.s:90616  .debug_str:000000000000117a .LASF9423
     /tmp/cc7R4ZW9.s:90766  .debug_str:0000000000001cba .LASF9424
     /tmp/cc7R4ZW9.s:93472  .debug_str:000000000000d549 .LASF9425
     /tmp/cc7R4ZW9.s:93206  .debug_str:000000000000c347 .LASF9426
     /tmp/cc7R4ZW9.s:101648  .debug_str:000000000002e3a5 .LASF9427
     /tmp/cc7R4ZW9.s:97380  .debug_str:000000000001cd68 .LASF9428
     /tmp/cc7R4ZW9.s:101392  .debug_str:000000000002d356 .LASF9429
     /tmp/cc7R4ZW9.s:101394  .debug_str:000000000002d35b .LASF9430
     /tmp/cc7R4ZW9.s:92164  .debug_str:0000000000007b12 .LASF9431
     /tmp/cc7R4ZW9.s:92166  .debug_str:0000000000007b17 .LASF9432
     /tmp/cc7R4ZW9.s:108792  .debug_str:000000000004be5c .LASF9433
     /tmp/cc7R4ZW9.s:105268  .debug_str:000000000003cf6e .LASF9434
     /tmp/cc7R4ZW9.s:106622  .debug_str:0000000000042eb3 .LASF9435
     /tmp/cc7R4ZW9.s:106624  .debug_str:0000000000042eb9 .LASF9436
     /tmp/cc7R4ZW9.s:99842  .debug_str:00000000000270a3 .LASF9437
     /tmp/cc7R4ZW9.s:99846  .debug_str:00000000000270b7 .LASF9438
     /tmp/cc7R4ZW9.s:107932  .debug_str:00000000000484de .LASF9439
     /tmp/cc7R4ZW9.s:96664  .debug_str:0000000000019afa .LASF9440
     /tmp/cc7R4ZW9.s:107088  .debug_str:0000000000044d34 .LASF9441
     /tmp/cc7R4ZW9.s:91224  .debug_str:0000000000003b16 .LASF9442
     /tmp/cc7R4ZW9.s:98468  .debug_str:000000000002194f .LASF9443
     /tmp/cc7R4ZW9.s:101128  .debug_str:000000000002c358 .LASF9444
     /tmp/cc7R4ZW9.s:106564  .debug_str:0000000000042af5 .LASF9445
     /tmp/cc7R4ZW9.s:94702  .debug_str:0000000000011b7e .LASF9446
     /tmp/cc7R4ZW9.s:101442  .debug_str:000000000002d641 .LASF9447
     /tmp/cc7R4ZW9.s:91034  .debug_str:0000000000002ee8 .LASF9448
     /tmp/cc7R4ZW9.s:102388  .debug_str:0000000000031410 .LASF9449
     /tmp/cc7R4ZW9.s:99118  .debug_str:0000000000024503 .LASF9450
     /tmp/cc7R4ZW9.s:101444  .debug_str:000000000002d64a .LASF9451
     /tmp/cc7R4ZW9.s:101000  .debug_str:000000000002bb73 .LASF9452
     /tmp/cc7R4ZW9.s:96698  .debug_str:0000000000019d8d .LASF9453
     /tmp/cc7R4ZW9.s:92134  .debug_str:000000000000795d .LASF9454
     /tmp/cc7R4ZW9.s:101994  .debug_str:000000000002fae8 .LASF9455
     /tmp/cc7R4ZW9.s:91582  .debug_str:0000000000005370 .LASF9456
     /tmp/cc7R4ZW9.s:106026  .debug_str:000000000004014c .LASF9457
     /tmp/cc7R4ZW9.s:109328  .debug_str:000000000004e3de .LASF9458
     /tmp/cc7R4ZW9.s:97970  .debug_str:000000000001f718 .LASF9459
     /tmp/cc7R4ZW9.s:109590  .debug_str:000000000004f530 .LASF9460
     /tmp/cc7R4ZW9.s:92490  .debug_str:0000000000009136 .LASF9461
     /tmp/cc7R4ZW9.s:90968  .debug_str:0000000000002aba .LASF9462
     /tmp/cc7R4ZW9.s:106672  .debug_str:0000000000043193 .LASF9463
     /tmp/cc7R4ZW9.s:105930  .debug_str:000000000003fb84 .LASF9464
     /tmp/cc7R4ZW9.s:100000  .debug_str:0000000000027a46 .LASF9465
     /tmp/cc7R4ZW9.s:104688  .debug_str:000000000003a758 .LASF9466
     /tmp/cc7R4ZW9.s:107912  .debug_str:000000000004839a .LASF9467
     /tmp/cc7R4ZW9.s:96312  .debug_str:0000000000018470 .LASF9468
     /tmp/cc7R4ZW9.s:102022  .debug_str:000000000002fc81 .LASF9469
     /tmp/cc7R4ZW9.s:105444  .debug_str:000000000003db57 .LASF9470
     /tmp/cc7R4ZW9.s:102810  .debug_str:0000000000033025 .LASF9471
     /tmp/cc7R4ZW9.s:101308  .debug_str:000000000002ce72 .LASF9472
     /tmp/cc7R4ZW9.s:96104  .debug_str:000000000001768a .LASF9473
     /tmp/cc7R4ZW9.s:95416  .debug_str:0000000000014a7b .LASF9474
     /tmp/cc7R4ZW9.s:97990  .debug_str:000000000001f8c1 .LASF9475
     /tmp/cc7R4ZW9.s:97894  .debug_str:000000000001f0e5 .LASF9476
     /tmp/cc7R4ZW9.s:104708  .debug_str:000000000003a8d2 .LASF9477
     /tmp/cc7R4ZW9.s:106204  .debug_str:0000000000040d02 .LASF9478
     /tmp/cc7R4ZW9.s:97064  .debug_str:000000000001b6f8 .LASF9479
     /tmp/cc7R4ZW9.s:97072  .debug_str:000000000001b732 .LASF9480
     /tmp/cc7R4ZW9.s:101208  .debug_str:000000000002c830 .LASF9481
     /tmp/cc7R4ZW9.s:103882  .debug_str:00000000000378da .LASF9482
     /tmp/cc7R4ZW9.s:101312  .debug_str:000000000002cea5 .LASF9483
     /tmp/cc7R4ZW9.s:94872  .debug_str:0000000000012696 .LASF9484
     /tmp/cc7R4ZW9.s:97698  .debug_str:000000000001e3db .LASF9485
     /tmp/cc7R4ZW9.s:97272  .debug_str:000000000001c64c .LASF9486
     /tmp/cc7R4ZW9.s:109696  .debug_str:000000000004fc60 .LASF9487
     /tmp/cc7R4ZW9.s:90538  .debug_str:0000000000000c1f .LASF9488
     /tmp/cc7R4ZW9.s:90658  .debug_str:0000000000001435 .LASF9489
     /tmp/cc7R4ZW9.s:96894  .debug_str:000000000001ab68 .LASF9490
     /tmp/cc7R4ZW9.s:108590  .debug_str:000000000004b03e .LASF9491
     /tmp/cc7R4ZW9.s:99550  .debug_str:0000000000025eb2 .LASF9492
     /tmp/cc7R4ZW9.s:106202  .debug_str:0000000000040cfb .LASF9493
     /tmp/cc7R4ZW9.s:97070  .debug_str:000000000001b728 .LASF9494
     /tmp/cc7R4ZW9.s:100852  .debug_str:000000000002b249 .LASF9495
     /tmp/cc7R4ZW9.s:96610  .debug_str:0000000000019789 .LASF9496
     /tmp/cc7R4ZW9.s:90660  .debug_str:0000000000001440 .LASF9497
     /tmp/cc7R4ZW9.s:90696  .debug_str:00000000000016ac .LASF9498
     /tmp/cc7R4ZW9.s:104002  .debug_str:00000000000380e6 .LASF9499
     /tmp/cc7R4ZW9.s:97844  .debug_str:000000000001edd5 .LASF9500
     /tmp/cc7R4ZW9.s:97846  .debug_str:000000000001eddf .LASF9501
     /tmp/cc7R4ZW9.s:97848  .debug_str:000000000001ede9 .LASF9502
     /tmp/cc7R4ZW9.s:97850  .debug_str:000000000001edf3 .LASF9503
     /tmp/cc7R4ZW9.s:97852  .debug_str:000000000001edfd .LASF9504
     /tmp/cc7R4ZW9.s:103096  .debug_str:000000000003432a .LASF9505
     /tmp/cc7R4ZW9.s:97854  .debug_str:000000000001ee07 .LASF9506
     /tmp/cc7R4ZW9.s:93928  .debug_str:000000000000edee .LASF9507
     /tmp/cc7R4ZW9.s:93930  .debug_str:000000000000edf9 .LASF9508
     /tmp/cc7R4ZW9.s:109216  .debug_str:000000000004db3d .LASF9509
     /tmp/cc7R4ZW9.s:106364  .debug_str:00000000000419fb .LASF9510
     /tmp/cc7R4ZW9.s:92028  .debug_str:0000000000007257 .LASF9511
     /tmp/cc7R4ZW9.s:98836  .debug_str:0000000000023177 .LASF9512
     /tmp/cc7R4ZW9.s:92192  .debug_str:0000000000007d00 .LASF9513
     /tmp/cc7R4ZW9.s:106366  .debug_str:0000000000041a06 .LASF9514
     /tmp/cc7R4ZW9.s:105396  .debug_str:000000000003d7b0 .LASF9515
     /tmp/cc7R4ZW9.s:90836  .debug_str:00000000000021b0 .LASF9516
     /tmp/cc7R4ZW9.s:101524  .debug_str:000000000002db86 .LASF9517
     /tmp/cc7R4ZW9.s:99172  .debug_str:00000000000248ff .LASF9518
     /tmp/cc7R4ZW9.s:105592  .debug_str:000000000003e612 .LASF9519
     /tmp/cc7R4ZW9.s:105222  .debug_str:000000000003cc59 .LASF9520
     /tmp/cc7R4ZW9.s:90818  .debug_str:000000000000208b .LASF9521
     /tmp/cc7R4ZW9.s:95022  .debug_str:00000000000130dc .LASF9522
     /tmp/cc7R4ZW9.s:98068  .debug_str:000000000001fd7b .LASF9523
     /tmp/cc7R4ZW9.s:99242  .debug_str:0000000000024d50 .LASF9524
     /tmp/cc7R4ZW9.s:94578  .debug_str:00000000000113ce .LASF9525
     /tmp/cc7R4ZW9.s:99244  .debug_str:0000000000024d5b .LASF9526
     /tmp/cc7R4ZW9.s:107084  .debug_str:0000000000044cc9 .LASF9527
     /tmp/cc7R4ZW9.s:95508  .debug_str:0000000000014fcc .LASF9528
     /tmp/cc7R4ZW9.s:109266  .debug_str:000000000004df6d .LASF9529
     /tmp/cc7R4ZW9.s:95510  .debug_str:0000000000014fd7 .LASF9530
     /tmp/cc7R4ZW9.s:103198  .debug_str:00000000000349c5 .LASF9531
     /tmp/cc7R4ZW9.s:95512  .debug_str:0000000000014fe2 .LASF9532
     /tmp/cc7R4ZW9.s:96960  .debug_str:000000000001b01d .LASF9533
     /tmp/cc7R4ZW9.s:98552  .debug_str:0000000000021faa .LASF9534
     /tmp/cc7R4ZW9.s:104150  .debug_str:000000000003893d .LASF9535
     /tmp/cc7R4ZW9.s:95310  .debug_str:000000000001438c .LASF9536
     /tmp/cc7R4ZW9.s:92434  .debug_str:0000000000008d12 .LASF9537
     /tmp/cc7R4ZW9.s:95312  .debug_str:0000000000014397 .LASF9538
     /tmp/cc7R4ZW9.s:105802  .debug_str:000000000003f324 .LASF9539
     /tmp/cc7R4ZW9.s:95648  .debug_str:00000000000158b7 .LASF9540
     /tmp/cc7R4ZW9.s:107194  .debug_str:00000000000453dd .LASF9541
     /tmp/cc7R4ZW9.s:104174  .debug_str:0000000000038ae2 .LASF9542
     /tmp/cc7R4ZW9.s:101100  .debug_str:000000000002c1d0 .LASF9543
     /tmp/cc7R4ZW9.s:95656  .debug_str:0000000000015928 .LASF9544
     /tmp/cc7R4ZW9.s:106962  .debug_str:00000000000444e8 .LASF9545
     /tmp/cc7R4ZW9.s:102250  .debug_str:0000000000030b9a .LASF9546
     /tmp/cc7R4ZW9.s:90640  .debug_str:00000000000012c4 .LASF9547
     /tmp/cc7R4ZW9.s:97016  .debug_str:000000000001b3ad .LASF9548
     /tmp/cc7R4ZW9.s:109708  .debug_str:000000000004fcfd .LASF9549
     /tmp/cc7R4ZW9.s:97018  .debug_str:000000000001b3b8 .LASF9550
     /tmp/cc7R4ZW9.s:102834  .debug_str:0000000000033167 .LASF9551
     /tmp/cc7R4ZW9.s:93144  .debug_str:000000000000bf7d .LASF9552
     /tmp/cc7R4ZW9.s:92340  .debug_str:000000000000870d .LASF9553
     /tmp/cc7R4ZW9.s:93146  .debug_str:000000000000bf88 .LASF9554
     /tmp/cc7R4ZW9.s:98920  .debug_str:00000000000237c6 .LASF9555
     /tmp/cc7R4ZW9.s:93148  .debug_str:000000000000bf93 .LASF9556
     /tmp/cc7R4ZW9.s:92658  .debug_str:0000000000009da7 .LASF9557
     /tmp/cc7R4ZW9.s:105822  .debug_str:000000000003f497 .LASF9558
     /tmp/cc7R4ZW9.s:96710  .debug_str:0000000000019e4e .LASF9559
     /tmp/cc7R4ZW9.s:100396  .debug_str:000000000002959d .LASF9560
     /tmp/cc7R4ZW9.s:100398  .debug_str:00000000000295b1 .LASF9561
     /tmp/cc7R4ZW9.s:100400  .debug_str:00000000000295c5 .LASF9562
     /tmp/cc7R4ZW9.s:99410  .debug_str:00000000000256ac .LASF9563
     /tmp/cc7R4ZW9.s:99412  .debug_str:00000000000256bd .LASF9564
     /tmp/cc7R4ZW9.s:90852  .debug_str:0000000000002313 .LASF9565
     /tmp/cc7R4ZW9.s:99416  .debug_str:00000000000256fb .LASF9566
     /tmp/cc7R4ZW9.s:99418  .debug_str:000000000002570c .LASF9567
     /tmp/cc7R4ZW9.s:92162  .debug_str:0000000000007b00 .LASF9568
     /tmp/cc7R4ZW9.s:99496  .debug_str:0000000000025b39 .LASF9569
     /tmp/cc7R4ZW9.s:95624  .debug_str:00000000000156ec .LASF9570
     /tmp/cc7R4ZW9.s:95650  .debug_str:00000000000158c2 .LASF9571
     /tmp/cc7R4ZW9.s:109124  .debug_str:000000000004d4f4 .LASF9572
     /tmp/cc7R4ZW9.s:106834  .debug_str:0000000000043ced .LASF9573
     /tmp/cc7R4ZW9.s:102942  .debug_str:0000000000033958 .LASF9574
     /tmp/cc7R4ZW9.s:108314  .debug_str:0000000000049dc3 .LASF9575
     /tmp/cc7R4ZW9.s:107016  .debug_str:000000000004488e .LASF9576
     /tmp/cc7R4ZW9.s:94800  .debug_str:000000000001222f .LASF9577
     /tmp/cc7R4ZW9.s:97466  .debug_str:000000000001d330 .LASF9578
     /tmp/cc7R4ZW9.s:101334  .debug_str:000000000002cfc9 .LASF9579
     /tmp/cc7R4ZW9.s:103966  .debug_str:0000000000037dc9 .LASF9580
     /tmp/cc7R4ZW9.s:106926  .debug_str:00000000000442c4 .LASF9581
     /tmp/cc7R4ZW9.s:91556  .debug_str:00000000000051ea .LASF9582
     /tmp/cc7R4ZW9.s:98670  .debug_str:00000000000226ba .LASF9583
     /tmp/cc7R4ZW9.s:106692  .debug_str:0000000000043319 .LASF9584
     /tmp/cc7R4ZW9.s:101124  .debug_str:000000000002c342 .LASF9585
     /tmp/cc7R4ZW9.s:99718  .debug_str:000000000002680a .LASF9586
     /tmp/cc7R4ZW9.s:101836  .debug_str:000000000002efff .LASF9587
     /tmp/cc7R4ZW9.s:92850  .debug_str:000000000000aa1a .LASF9588
     /tmp/cc7R4ZW9.s:98900  .debug_str:00000000000235dc .LASF9589
     /tmp/cc7R4ZW9.s:102268  .debug_str:0000000000030ccc .LASF9590
     /tmp/cc7R4ZW9.s:98168  .debug_str:000000000002053d .LASF9591
     /tmp/cc7R4ZW9.s:104746  .debug_str:000000000003ab74 .LASF9592
     /tmp/cc7R4ZW9.s:104748  .debug_str:000000000003ab7f .LASF9593
     /tmp/cc7R4ZW9.s:104750  .debug_str:000000000003ab8a .LASF9594
     /tmp/cc7R4ZW9.s:104752  .debug_str:000000000003ab95 .LASF9595
     /tmp/cc7R4ZW9.s:91134  .debug_str:0000000000003538 .LASF9596
     /tmp/cc7R4ZW9.s:98032  .debug_str:000000000001fb3d .LASF9597
     /tmp/cc7R4ZW9.s:103554  .debug_str:000000000003632d .LASF9598
     /tmp/cc7R4ZW9.s:102754  .debug_str:0000000000032c7f .LASF9599
     /tmp/cc7R4ZW9.s:109360  .debug_str:000000000004e61a .LASF9600
     /tmp/cc7R4ZW9.s:107126  .debug_str:0000000000044ff1 .LASF9601
     /tmp/cc7R4ZW9.s:92664  .debug_str:0000000000009e03 .LASF9602
     /tmp/cc7R4ZW9.s:106820  .debug_str:0000000000043c02 .LASF9603
     /tmp/cc7R4ZW9.s:108720  .debug_str:000000000004b9ec .LASF9604
     /tmp/cc7R4ZW9.s:105750  .debug_str:000000000003efdf .LASF9605
     /tmp/cc7R4ZW9.s:94480  .debug_str:0000000000010dcb .LASF9606
     /tmp/cc7R4ZW9.s:97134  .debug_str:000000000001bb7b .LASF9607
     /tmp/cc7R4ZW9.s:101966  .debug_str:000000000002f925 .LASF9608
     /tmp/cc7R4ZW9.s:90420  .debug_str:000000000000040c .LASF9609
     /tmp/cc7R4ZW9.s:100480  .debug_str:0000000000029a9c .LASF9610
     /tmp/cc7R4ZW9.s:105382  .debug_str:000000000003d6df .LASF9611
     /tmp/cc7R4ZW9.s:94946  .debug_str:0000000000012bab .LASF9612
     /tmp/cc7R4ZW9.s:108924  .debug_str:000000000004c706 .LASF9613
     /tmp/cc7R4ZW9.s:95020  .debug_str:00000000000130cc .LASF9614
     /tmp/cc7R4ZW9.s:98284  .debug_str:0000000000020d5f .LASF9615
     /tmp/cc7R4ZW9.s:95096  .debug_str:00000000000136a5 .LASF9616
     /tmp/cc7R4ZW9.s:98374  .debug_str:00000000000212ef .LASF9617
     /tmp/cc7R4ZW9.s:95174  .debug_str:0000000000013b28 .LASF9618
     /tmp/cc7R4ZW9.s:98452  .debug_str:0000000000021858 .LASF9619
     /tmp/cc7R4ZW9.s:95260  .debug_str:0000000000014053 .LASF9620
     /tmp/cc7R4ZW9.s:98530  .debug_str:0000000000021e60 .LASF9621
     /tmp/cc7R4ZW9.s:103724  .debug_str:0000000000036edf .LASF9622
     /tmp/cc7R4ZW9.s:105790  .debug_str:000000000003f2a4 .LASF9623
     /tmp/cc7R4ZW9.s:95380  .debug_str:0000000000014845 .LASF9624
     /tmp/cc7R4ZW9.s:91872  .debug_str:00000000000066d6 .LASF9625
     /tmp/cc7R4ZW9.s:104712  .debug_str:000000000003a8f7 .LASF9626
     /tmp/cc7R4ZW9.s:108444  .debug_str:000000000004a5ea .LASF9627
     /tmp/cc7R4ZW9.s:108486  .debug_str:000000000004a87f .LASF9628
     /tmp/cc7R4ZW9.s:92184  .debug_str:0000000000007c5a .LASF9629
     /tmp/cc7R4ZW9.s:92590  .debug_str:0000000000009855 .LASF9630
     /tmp/cc7R4ZW9.s:92078  .debug_str:0000000000007545 .LASF9631
     /tmp/cc7R4ZW9.s:109094  .debug_str:000000000004d341 .LASF9632
     /tmp/cc7R4ZW9.s:94880  .debug_str:00000000000126f9 .LASF9633
     /tmp/cc7R4ZW9.s:103634  .debug_str:00000000000368ce .LASF9634
     /tmp/cc7R4ZW9.s:108638  .debug_str:000000000004b3f1 .LASF9635
     /tmp/cc7R4ZW9.s:107544  .debug_str:0000000000046ad0 .LASF9636
     /tmp/cc7R4ZW9.s:92898  .debug_str:000000000000ad78 .LASF9637
     /tmp/cc7R4ZW9.s:104210  .debug_str:0000000000038c98 .LASF9638
     /tmp/cc7R4ZW9.s:95860  .debug_str:00000000000165d6 .LASF9639
     /tmp/cc7R4ZW9.s:97650  .debug_str:000000000001e053 .LASF9640
     /tmp/cc7R4ZW9.s:97184  .debug_str:000000000001bf0b .LASF9641
     /tmp/cc7R4ZW9.s:95076  .debug_str:000000000001355a .LASF9642
     /tmp/cc7R4ZW9.s:107786  .debug_str:0000000000047add .LASF9643
     /tmp/cc7R4ZW9.s:103948  .debug_str:0000000000037c61 .LASF9644
     /tmp/cc7R4ZW9.s:98960  .debug_str:0000000000023a6b .LASF9645
     /tmp/cc7R4ZW9.s:99704  .debug_str:0000000000026720 .LASF9646
     /tmp/cc7R4ZW9.s:109092  .debug_str:000000000004d32e .LASF9647
     /tmp/cc7R4ZW9.s:95500  .debug_str:0000000000014f42 .LASF9648
     /tmp/cc7R4ZW9.s:108176  .debug_str:00000000000494ca .LASF9711
     /tmp/cc7R4ZW9.s:91888  .debug_str:00000000000067cd .LASF9649
     /tmp/cc7R4ZW9.s:102390  .debug_str:000000000003141d .LASF9650
     /tmp/cc7R4ZW9.s:106874  .debug_str:0000000000043f6f .LASF9651
     /tmp/cc7R4ZW9.s:94956  .debug_str:0000000000012c6c .LASF9652
     /tmp/cc7R4ZW9.s:109640  .debug_str:000000000004f899 .LASF9653
     /tmp/cc7R4ZW9.s:91984  .debug_str:0000000000006f4f .LASF9654
     /tmp/cc7R4ZW9.s:91026  .debug_str:0000000000002e6f .LASF9655
     /tmp/cc7R4ZW9.s:103320  .debug_str:000000000003521f .LASF9656
     /tmp/cc7R4ZW9.s:109318  .debug_str:000000000004e359 .LASF9657
     /tmp/cc7R4ZW9.s:105564  .debug_str:000000000003e432 .LASF9658
     /tmp/cc7R4ZW9.s:98344  .debug_str:00000000000210e9 .LASF9659
     /tmp/cc7R4ZW9.s:100868  .debug_str:000000000002b2f8 .LASF9680
     /tmp/cc7R4ZW9.s:1530   .text.test_ddr:0000000000000000 .LFB30
     /tmp/cc7R4ZW9.s:1746   .text.test_ddr:00000000000001d2 .LFE30
     /tmp/cc7R4ZW9.s:107988  .debug_str:0000000000048894 .LASF9660
     /tmp/cc7R4ZW9.s:101458  .debug_str:000000000002d6fc .LASF9661
     /tmp/cc7R4ZW9.s:96244  .debug_str:0000000000018048 .LASF9662
     /tmp/cc7R4ZW9.s:93326  .debug_str:000000000000cb1f .LASF9663
     /tmp/cc7R4ZW9.s:90906  .debug_str:0000000000002683 .LASF9664
     /tmp/cc7R4ZW9.s:95700  .debug_str:0000000000015c9a .LASF9665
     /tmp/cc7R4ZW9.s:102142  .debug_str:0000000000030436 .LASF9666
     /tmp/cc7R4ZW9.s:93682  .debug_str:000000000000e143 .LASF9667
     /tmp/cc7R4ZW9.s:100646  .debug_str:000000000002a58a .LASF9668
     /tmp/cc7R4ZW9.s:106124  .debug_str:000000000004073d .LASF9669
     /tmp/cc7R4ZW9.s:1569   .text.test_ddr:0000000000000042 .LBB6
     /tmp/cc7R4ZW9.s:1725   .text.test_ddr:00000000000001b4 .LBE6
     /tmp/cc7R4ZW9.s:92006  .debug_str:00000000000070e1 .LASF9670
     /tmp/cc7R4ZW9.s:108414  .debug_str:000000000004a47e .LASF9712
     /tmp/cc7R4ZW9.s:1476   .text.load_test_buffers:0000000000000000 .LFB29
     /tmp/cc7R4ZW9.s:1523   .text.load_test_buffers:0000000000000076 .LFE29
     /tmp/cc7R4ZW9.s:98640  .debug_str:000000000002259c .LASF9671
     /tmp/cc7R4ZW9.s:102262  .debug_str:0000000000030c6f .LASF9672
     /tmp/cc7R4ZW9.s:97928  .debug_str:000000000001f3c9 .LASF9675
     /tmp/cc7R4ZW9.s:1440   .text.execute_ddr_pattern:0000000000000000 .LFB28
     /tmp/cc7R4ZW9.s:1470   .text.execute_ddr_pattern:0000000000000024 .LFE28
     /tmp/cc7R4ZW9.s:104972  .debug_str:000000000003bac1 .LASF9673
     /tmp/cc7R4ZW9.s:96432  .debug_str:0000000000018b7e .LASF9674
     /tmp/cc7R4ZW9.s:93690  .debug_str:000000000000e1e0 .LASF9676
     /tmp/cc7R4ZW9.s:1262   .text.load_ddr_pattern:0000000000000000 .LFB27
     /tmp/cc7R4ZW9.s:1433   .text.load_ddr_pattern:000000000000019e .LFE27
     /tmp/cc7R4ZW9.s:94740  .debug_str:0000000000011df6 .LASF9677
     /tmp/cc7R4ZW9.s:97292  .debug_str:000000000001c75f .LASF9678
     /tmp/cc7R4ZW9.s:96812  .debug_str:000000000001a572 .LASF9679
     /tmp/cc7R4ZW9.s:109680  .debug_str:000000000004fb4b .LASF9681
     /tmp/cc7R4ZW9.s:1114   .text.ddr_read_write_fn:0000000000000000 .LFB26
     /tmp/cc7R4ZW9.s:1255   .text.ddr_read_write_fn:000000000000012e .LFE26
     /tmp/cc7R4ZW9.s:102750  .debug_str:0000000000032c65 .LASF9682
     /tmp/cc7R4ZW9.s:100044  .debug_str:0000000000027d5f .LASF9683
     /tmp/cc7R4ZW9.s:106918  .debug_str:0000000000044271 .LASF9684
     /tmp/cc7R4ZW9.s:94986  .debug_str:0000000000012ea3 .LASF9685
     /tmp/cc7R4ZW9.s:109128  .debug_str:000000000004d51f .LASF9686
     /tmp/cc7R4ZW9.s:1133   .text.ddr_read_write_fn:000000000000001e .LBB4
     /tmp/cc7R4ZW9.s:1241   .text.ddr_read_write_fn:0000000000000120 .LBE4
     /tmp/cc7R4ZW9.s:1139   .text.ddr_read_write_fn:0000000000000024 .LBB5
     /tmp/cc7R4ZW9.s:1227   .text.ddr_read_write_fn:0000000000000104 .LBE5
     /tmp/cc7R4ZW9.s:94236  .debug_str:000000000001008b .LASF9687
     /tmp/cc7R4ZW9.s:102344  .debug_str:0000000000031163 .LASF9699
     /tmp/cc7R4ZW9.s:555    .text.ddr_read:0000000000000000 .LFB25
     /tmp/cc7R4ZW9.s:1107   .text.ddr_read:0000000000000382 .LFE25
     /tmp/cc7R4ZW9.s:94720  .debug_str:0000000000011cb3 .LASF9688
     /tmp/cc7R4ZW9.s:98906  .debug_str:00000000000236fc .LASF9689
     /tmp/cc7R4ZW9.s:100922  .debug_str:000000000002b6ce .LASF9690
     /tmp/cc7R4ZW9.s:109724  .debug_str:000000000004fe54 .LASF9691
     /tmp/cc7R4ZW9.s:101092  .debug_str:000000000002c142 .LASF9692
     /tmp/cc7R4ZW9.s:107020  .debug_str:00000000000448e5 .LASF9693
     /tmp/cc7R4ZW9.s:108562  .debug_str:000000000004aeb8 .LASF9694
     /tmp/cc7R4ZW9.s:106994  .debug_str:00000000000446db .LASF9695
     /tmp/cc7R4ZW9.s:101478  .debug_str:000000000002d83b .LASF9696
     /tmp/cc7R4ZW9.s:93922  .debug_str:000000000000eda1 .LASF9697
     /tmp/cc7R4ZW9.s:91148  .debug_str:00000000000035fb .LASF9698
     /tmp/cc7R4ZW9.s:94146  .debug_str:000000000000fb22 .LASF9700
     /tmp/cc7R4ZW9.s:104    .text.ddr_write:0000000000000000 .LFB24
     /tmp/cc7R4ZW9.s:549    .text.ddr_write:000000000000027c .LFE24
     /tmp/cc7R4ZW9.s:104974  .debug_str:000000000003bacc .LASF9701
     /tmp/cc7R4ZW9.s:93358  .debug_str:000000000000cd7d .LASF9702
     /tmp/cc7R4ZW9.s:98132  .debug_str:00000000000202c3 .LASF9703
     /tmp/cc7R4ZW9.s:93982  .debug_str:000000000000f15c .LASF9704
     /tmp/cc7R4ZW9.s:101726  .debug_str:000000000002e8e9 .LASF9713
     /tmp/cc7R4ZW9.s:13     .text.delay:0000000000000000 .LFB23
     /tmp/cc7R4ZW9.s:66     .text.delay:0000000000000040 .LFE23
     /tmp/cc7R4ZW9.s:107708  .debug_str:0000000000047548 .LASF9705
     /tmp/cc7R4ZW9.s:25     .text.delay:000000000000000c .LBB2
     /tmp/cc7R4ZW9.s:34     .text.delay:0000000000000018 .LBE2
     /tmp/cc7R4ZW9.s:101918  .debug_str:000000000002f5fd .LASF9706
     /tmp/cc7R4ZW9.s:43     .text.delay:0000000000000024 .LBB3
     /tmp/cc7R4ZW9.s:52     .text.delay:0000000000000030 .LBE3
     /tmp/cc7R4ZW9.s:1772   .debug_info:0000000000000000 .Ldebug_info0
     /tmp/cc7R4ZW9.s:71690  .debug_macro:0000000000000000 .Ldebug_macro2
     /tmp/cc7R4ZW9.s:95146  .debug_str:00000000000139b5 .LASF324
     /tmp/cc7R4ZW9.s:101082  .debug_str:000000000002c09c .LASF325
     /tmp/cc7R4ZW9.s:104638  .debug_str:000000000003a421 .LASF326
     /tmp/cc7R4ZW9.s:72667  .debug_macro:0000000000000000 .Ldebug_macro3
     /tmp/cc7R4ZW9.s:72687  .debug_macro:0000000000000000 .Ldebug_macro4
     /tmp/cc7R4ZW9.s:96028  .debug_str:000000000001711b .LASF341
     /tmp/cc7R4ZW9.s:72719  .debug_macro:0000000000000000 .Ldebug_macro5
     /tmp/cc7R4ZW9.s:72733  .debug_macro:0000000000000000 .Ldebug_macro6
     /tmp/cc7R4ZW9.s:72801  .debug_macro:0000000000000000 .Ldebug_macro7
     /tmp/cc7R4ZW9.s:72830  .debug_macro:0000000000000000 .Ldebug_macro8
     /tmp/cc7R4ZW9.s:72859  .debug_macro:0000000000000000 .Ldebug_macro9
     /tmp/cc7R4ZW9.s:92882  .debug_str:000000000000ac06 .LASF385
     /tmp/cc7R4ZW9.s:72873  .debug_macro:0000000000000000 .Ldebug_macro10
     /tmp/cc7R4ZW9.s:72917  .debug_macro:0000000000000000 .Ldebug_macro11
     /tmp/cc7R4ZW9.s:72985  .debug_macro:0000000000000000 .Ldebug_macro12
     /tmp/cc7R4ZW9.s:73353  .debug_macro:0000000000000000 .Ldebug_macro13
     /tmp/cc7R4ZW9.s:102018  .debug_str:000000000002fc54 .LASF573
     /tmp/cc7R4ZW9.s:73466  .debug_macro:0000000000000000 .Ldebug_macro14
     /tmp/cc7R4ZW9.s:105226  .debug_str:000000000003cc84 .LASF576
     /tmp/cc7R4ZW9.s:101484  .debug_str:000000000002d88c .LASF577
     /tmp/cc7R4ZW9.s:73477  .debug_macro:0000000000000000 .Ldebug_macro15
     /tmp/cc7R4ZW9.s:73491  .debug_macro:0000000000000000 .Ldebug_macro16
     /tmp/cc7R4ZW9.s:103572  .debug_str:0000000000036478 .LASF582
     /tmp/cc7R4ZW9.s:73523  .debug_macro:0000000000000000 .Ldebug_macro17
     /tmp/cc7R4ZW9.s:73549  .debug_macro:0000000000000000 .Ldebug_macro18
     /tmp/cc7R4ZW9.s:73560  .debug_macro:0000000000000000 .Ldebug_macro19
     /tmp/cc7R4ZW9.s:73604  .debug_macro:0000000000000000 .Ldebug_macro20
     /tmp/cc7R4ZW9.s:73783  .debug_macro:0000000000000000 .Ldebug_macro21
     /tmp/cc7R4ZW9.s:73794  .debug_macro:0000000000000000 .Ldebug_macro22
     /tmp/cc7R4ZW9.s:94290  .debug_str:0000000000010323 .LASF682
     /tmp/cc7R4ZW9.s:73850  .debug_macro:0000000000000000 .Ldebug_macro23
     /tmp/cc7R4ZW9.s:73867  .debug_macro:0000000000000000 .Ldebug_macro24
     /tmp/cc7R4ZW9.s:102512  .debug_str:0000000000031bcd .LASF700
     /tmp/cc7R4ZW9.s:102718  .debug_str:00000000000329ec .LASF701
     /tmp/cc7R4ZW9.s:73911  .debug_macro:0000000000000000 .Ldebug_macro25
     /tmp/cc7R4ZW9.s:100650  .debug_str:000000000002a5a8 .LASF712
     /tmp/cc7R4ZW9.s:91202  .debug_str:0000000000003974 .LASF713
     /tmp/cc7R4ZW9.s:73946  .debug_macro:0000000000000000 .Ldebug_macro26
     /tmp/cc7R4ZW9.s:73957  .debug_macro:0000000000000000 .Ldebug_macro27
     /tmp/cc7R4ZW9.s:73992  .debug_macro:0000000000000000 .Ldebug_macro28
     /tmp/cc7R4ZW9.s:100178  .debug_str:00000000000285c6 .LASF758
     /tmp/cc7R4ZW9.s:74093  .debug_macro:0000000000000000 .Ldebug_macro29
     /tmp/cc7R4ZW9.s:74110  .debug_macro:0000000000000000 .Ldebug_macro30
     /tmp/cc7R4ZW9.s:99676  .debug_str:000000000002656b .LASF772
     /tmp/cc7R4ZW9.s:95476  .debug_str:0000000000014dbb .LASF773
     /tmp/cc7R4ZW9.s:74142  .debug_macro:0000000000000000 .Ldebug_macro31
     /tmp/cc7R4ZW9.s:74156  .debug_macro:0000000000000000 .Ldebug_macro32
     /tmp/cc7R4ZW9.s:90570  .debug_str:0000000000000e2c .LASF826
     /tmp/cc7R4ZW9.s:74308  .debug_macro:0000000000000000 .Ldebug_macro33
     /tmp/cc7R4ZW9.s:74322  .debug_macro:0000000000000000 .Ldebug_macro34
     /tmp/cc7R4ZW9.s:97564  .debug_str:000000000001d9eb .LASF828
     /tmp/cc7R4ZW9.s:74348  .debug_macro:0000000000000000 .Ldebug_macro35
     /tmp/cc7R4ZW9.s:74362  .debug_macro:0000000000000000 .Ldebug_macro36
     /tmp/cc7R4ZW9.s:74385  .debug_macro:0000000000000000 .Ldebug_macro37
     /tmp/cc7R4ZW9.s:93756  .debug_str:000000000000e5c2 .LASF839
     /tmp/cc7R4ZW9.s:91690  .debug_str:0000000000005b00 .LASF840
     /tmp/cc7R4ZW9.s:108110  .debug_str:000000000004906f .LASF841
     /tmp/cc7R4ZW9.s:100360  .debug_str:0000000000029343 .LASF842
     /tmp/cc7R4ZW9.s:74399  .debug_macro:0000000000000000 .Ldebug_macro38
     /tmp/cc7R4ZW9.s:96942  .debug_str:000000000001aedd .LASF848
     /tmp/cc7R4ZW9.s:74419  .debug_macro:0000000000000000 .Ldebug_macro39
     /tmp/cc7R4ZW9.s:74541  .debug_macro:0000000000000000 .Ldebug_macro40
     /tmp/cc7R4ZW9.s:96542  .debug_str:0000000000019257 .LASF947
     /tmp/cc7R4ZW9.s:74753  .debug_macro:0000000000000000 .Ldebug_macro41
     /tmp/cc7R4ZW9.s:74764  .debug_macro:0000000000000000 .Ldebug_macro42
     /tmp/cc7R4ZW9.s:76563  .debug_macro:0000000000000000 .Ldebug_macro43
     /tmp/cc7R4ZW9.s:97670  .debug_str:000000000001e1e9 .LASF1570
     /tmp/cc7R4ZW9.s:76634  .debug_macro:0000000000000000 .Ldebug_macro44
     /tmp/cc7R4ZW9.s:105964  .debug_str:000000000003fd9d .LASF3761
     /tmp/cc7R4ZW9.s:83209  .debug_macro:0000000000000000 .Ldebug_macro45
     /tmp/cc7R4ZW9.s:83226  .debug_macro:0000000000000000 .Ldebug_macro46
     /tmp/cc7R4ZW9.s:83249  .debug_macro:0000000000000000 .Ldebug_macro47
     /tmp/cc7R4ZW9.s:83266  .debug_macro:0000000000000000 .Ldebug_macro48
     /tmp/cc7R4ZW9.s:83295  .debug_macro:0000000000000000 .Ldebug_macro49
     /tmp/cc7R4ZW9.s:83354  .debug_macro:0000000000000000 .Ldebug_macro50
     /tmp/cc7R4ZW9.s:83377  .debug_macro:0000000000000000 .Ldebug_macro51
     /tmp/cc7R4ZW9.s:83436  .debug_macro:0000000000000000 .Ldebug_macro52
     /tmp/cc7R4ZW9.s:86195  .debug_macro:0000000000000000 .Ldebug_macro53
     /tmp/cc7R4ZW9.s:86239  .debug_macro:0000000000000000 .Ldebug_macro54
     /tmp/cc7R4ZW9.s:86325  .debug_macro:0000000000000000 .Ldebug_macro55
     /tmp/cc7R4ZW9.s:86354  .debug_macro:0000000000000000 .Ldebug_macro56
     /tmp/cc7R4ZW9.s:86413  .debug_macro:0000000000000000 .Ldebug_macro57
     /tmp/cc7R4ZW9.s:86475  .debug_macro:0000000000000000 .Ldebug_macro58
     /tmp/cc7R4ZW9.s:86537  .debug_macro:0000000000000000 .Ldebug_macro59
     /tmp/cc7R4ZW9.s:86599  .debug_macro:0000000000000000 .Ldebug_macro60
     /tmp/cc7R4ZW9.s:86661  .debug_macro:0000000000000000 .Ldebug_macro61
     /tmp/cc7R4ZW9.s:86723  .debug_macro:0000000000000000 .Ldebug_macro62
     /tmp/cc7R4ZW9.s:86779  .debug_macro:0000000000000000 .Ldebug_macro63
     /tmp/cc7R4ZW9.s:86835  .debug_macro:0000000000000000 .Ldebug_macro64
     /tmp/cc7R4ZW9.s:86867  .debug_macro:0000000000000000 .Ldebug_macro65
     /tmp/cc7R4ZW9.s:86887  .debug_macro:0000000000000000 .Ldebug_macro66
     /tmp/cc7R4ZW9.s:86919  .debug_macro:0000000000000000 .Ldebug_macro67
     /tmp/cc7R4ZW9.s:86951  .debug_macro:0000000000000000 .Ldebug_macro68
     /tmp/cc7R4ZW9.s:86971  .debug_macro:0000000000000000 .Ldebug_macro69
     /tmp/cc7R4ZW9.s:86991  .debug_macro:0000000000000000 .Ldebug_macro70
     /tmp/cc7R4ZW9.s:87023  .debug_macro:0000000000000000 .Ldebug_macro71
     /tmp/cc7R4ZW9.s:87037  .debug_macro:0000000000000000 .Ldebug_macro72
     /tmp/cc7R4ZW9.s:87138  .debug_macro:0000000000000000 .Ldebug_macro73
     /tmp/cc7R4ZW9.s:87155  .debug_macro:0000000000000000 .Ldebug_macro74
     /tmp/cc7R4ZW9.s:87193  .debug_macro:0000000000000000 .Ldebug_macro75
     /tmp/cc7R4ZW9.s:87216  .debug_macro:0000000000000000 .Ldebug_macro76
     /tmp/cc7R4ZW9.s:87344  .debug_macro:0000000000000000 .Ldebug_macro77
     /tmp/cc7R4ZW9.s:87358  .debug_macro:0000000000000000 .Ldebug_macro78
     /tmp/cc7R4ZW9.s:87372  .debug_macro:0000000000000000 .Ldebug_macro79
     /tmp/cc7R4ZW9.s:87428  .debug_macro:0000000000000000 .Ldebug_macro80
     /tmp/cc7R4ZW9.s:88543  .debug_macro:0000000000000000 .Ldebug_macro81
     /tmp/cc7R4ZW9.s:88575  .debug_macro:0000000000000000 .Ldebug_macro82
     /tmp/cc7R4ZW9.s:88595  .debug_macro:0000000000000000 .Ldebug_macro83
     /tmp/cc7R4ZW9.s:88639  .debug_macro:0000000000000000 .Ldebug_macro84
     /tmp/cc7R4ZW9.s:88686  .debug_macro:0000000000000000 .Ldebug_macro85
     /tmp/cc7R4ZW9.s:88733  .debug_macro:0000000000000000 .Ldebug_macro86
     /tmp/cc7R4ZW9.s:88768  .debug_macro:0000000000000000 .Ldebug_macro87
     /tmp/cc7R4ZW9.s:88791  .debug_macro:0000000000000000 .Ldebug_macro88
     /tmp/cc7R4ZW9.s:90466  .debug_str:000000000000073f .LASF5555
     /tmp/cc7R4ZW9.s:88808  .debug_macro:0000000000000000 .Ldebug_macro89
     /tmp/cc7R4ZW9.s:94300  .debug_str:00000000000103ae .LASF5710
     /tmp/cc7R4ZW9.s:89275  .debug_macro:0000000000000000 .Ldebug_macro90
     /tmp/cc7R4ZW9.s:89292  .debug_macro:0000000000000000 .Ldebug_macro91
     /tmp/cc7R4ZW9.s:89306  .debug_macro:0000000000000000 .Ldebug_macro92
     /tmp/cc7R4ZW9.s:89623  .debug_macro:0000000000000000 .Ldebug_macro93
     /tmp/cc7R4ZW9.s:89643  .debug_macro:0000000000000000 .Ldebug_macro94
     /tmp/cc7R4ZW9.s:101566  .debug_str:000000000002ddf5 .LASF5866
     /tmp/cc7R4ZW9.s:89765  .debug_macro:0000000000000000 .Ldebug_macro95
     /tmp/cc7R4ZW9.s:89827  .debug_macro:0000000000000000 .Ldebug_macro96
     /tmp/cc7R4ZW9.s:100970  .debug_str:000000000002b9e5 .LASF5888
     /tmp/cc7R4ZW9.s:89838  .debug_macro:0000000000000000 .Ldebug_macro97
     /tmp/cc7R4ZW9.s:89867  .debug_macro:0000000000000000 .Ldebug_macro98
     /tmp/cc7R4ZW9.s:104800  .debug_str:000000000003af73 .LASF5913
     /tmp/cc7R4ZW9.s:89920  .debug_macro:0000000000000000 .Ldebug_macro99
     /tmp/cc7R4ZW9.s:108952  .debug_str:000000000004c8df .LASF5933
     /tmp/cc7R4ZW9.s:89982  .debug_macro:0000000000000000 .Ldebug_macro100
     /tmp/cc7R4ZW9.s:90050  .debug_macro:0000000000000000 .Ldebug_macro101
     /tmp/cc7R4ZW9.s:90073  .debug_macro:0000000000000000 .Ldebug_macro102
     /tmp/cc7R4ZW9.s:90153  .debug_macro:0000000000000000 .Ldebug_macro103
     /tmp/cc7R4ZW9.s:90284  .debug_macro:0000000000000000 .Ldebug_macro104
     /tmp/cc7R4ZW9.s:90304  .debug_macro:0000000000000000 .Ldebug_macro105
     /tmp/cc7R4ZW9.s:91222  .debug_str:0000000000003b02 .LASF6036
     /tmp/cc7R4ZW9.s:90318  .debug_macro:0000000000000000 .Ldebug_macro106
     /tmp/cc7R4ZW9.s:99754  .debug_str:0000000000026ab6 .LASF6050
     /tmp/cc7R4ZW9.s:106954  .debug_str:0000000000044487 .LASF6051
     /tmp/cc7R4ZW9.s:95888  .debug_str:0000000000016782 .LASF6052
     /tmp/cc7R4ZW9.s:103182  .debug_str:000000000003486b .LASF6053
     /tmp/cc7R4ZW9.s:92822  .debug_str:000000000000a84d .LASF6054
     /tmp/cc7R4ZW9.s:92860  .debug_str:000000000000aa67 .LASF6055
     /tmp/cc7R4ZW9.s:95236  .debug_str:0000000000013f19 .LASF0
     /tmp/cc7R4ZW9.s:102122  .debug_str:00000000000302ea .LASF1
     /tmp/cc7R4ZW9.s:99254  .debug_str:0000000000024e05 .LASF2
     /tmp/cc7R4ZW9.s:99326  .debug_str:000000000002520d .LASF3
     /tmp/cc7R4ZW9.s:93746  .debug_str:000000000000e542 .LASF4
     /tmp/cc7R4ZW9.s:93932  .debug_str:000000000000ee04 .LASF5
     /tmp/cc7R4ZW9.s:104734  .debug_str:000000000003aa96 .LASF6
     /tmp/cc7R4ZW9.s:92650  .debug_str:0000000000009d24 .LASF7
     /tmp/cc7R4ZW9.s:90958  .debug_str:0000000000002a40 .LASF8
     /tmp/cc7R4ZW9.s:90630  .debug_str:0000000000001247 .LASF9
     /tmp/cc7R4ZW9.s:104258  .debug_str:0000000000038f91 .LASF10
     /tmp/cc7R4ZW9.s:107956  .debug_str:0000000000048688 .LASF11
     /tmp/cc7R4ZW9.s:101808  .debug_str:000000000002ee61 .LASF12
     /tmp/cc7R4ZW9.s:97460  .debug_str:000000000001d2d0 .LASF13
     /tmp/cc7R4ZW9.s:93486  .debug_str:000000000000d5f0 .LASF14
     /tmp/cc7R4ZW9.s:92680  .debug_str:0000000000009ed4 .LASF15
     /tmp/cc7R4ZW9.s:107044  .debug_str:0000000000044a42 .LASF16
     /tmp/cc7R4ZW9.s:105354  .debug_str:000000000003d4d5 .LASF17
     /tmp/cc7R4ZW9.s:96386  .debug_str:0000000000018933 .LASF18
     /tmp/cc7R4ZW9.s:107908  .debug_str:0000000000048366 .LASF19
     /tmp/cc7R4ZW9.s:107630  .debug_str:00000000000470a9 .LASF20
     /tmp/cc7R4ZW9.s:108524  .debug_str:000000000004ac18 .LASF21
     /tmp/cc7R4ZW9.s:91998  .debug_str:0000000000007045 .LASF22
     /tmp/cc7R4ZW9.s:93866  .debug_str:000000000000ebc5 .LASF23
     /tmp/cc7R4ZW9.s:106404  .debug_str:0000000000041c5a .LASF24
     /tmp/cc7R4ZW9.s:104660  .debug_str:000000000003a559 .LASF25
     /tmp/cc7R4ZW9.s:93396  .debug_str:000000000000cfd5 .LASF26
     /tmp/cc7R4ZW9.s:92412  .debug_str:0000000000008bbe .LASF27
     /tmp/cc7R4ZW9.s:106274  .debug_str:0000000000041358 .LASF28
     /tmp/cc7R4ZW9.s:104536  .debug_str:0000000000039d86 .LASF29
     /tmp/cc7R4ZW9.s:96080  .debug_str:00000000000174dc .LASF30
     /tmp/cc7R4ZW9.s:103640  .debug_str:000000000003690b .LASF31
     /tmp/cc7R4ZW9.s:97098  .debug_str:000000000001b8bd .LASF32
     /tmp/cc7R4ZW9.s:101222  .debug_str:000000000002c8d6 .LASF33
     /tmp/cc7R4ZW9.s:100888  .debug_str:000000000002b3e0 .LASF34
     /tmp/cc7R4ZW9.s:93218  .debug_str:000000000000c3f0 .LASF35
     /tmp/cc7R4ZW9.s:95464  .debug_str:0000000000014ce4 .LASF36
     /tmp/cc7R4ZW9.s:100080  .debug_str:0000000000027f65 .LASF37
     /tmp/cc7R4ZW9.s:109684  .debug_str:000000000004fb82 .LASF38
     /tmp/cc7R4ZW9.s:99108  .debug_str:000000000002446a .LASF39
     /tmp/cc7R4ZW9.s:100282  .debug_str:0000000000028d4c .LASF40
     /tmp/cc7R4ZW9.s:95428  .debug_str:0000000000014b4a .LASF41
     /tmp/cc7R4ZW9.s:91862  .debug_str:0000000000006608 .LASF42
     /tmp/cc7R4ZW9.s:105146  .debug_str:000000000003c7c2 .LASF43
     /tmp/cc7R4ZW9.s:91110  .debug_str:0000000000003427 .LASF44
     /tmp/cc7R4ZW9.s:106142  .debug_str:0000000000040884 .LASF45
     /tmp/cc7R4ZW9.s:91832  .debug_str:000000000000640b .LASF46
     /tmp/cc7R4ZW9.s:104656  .debug_str:000000000003a522 .LASF47
     /tmp/cc7R4ZW9.s:101526  .debug_str:000000000002db91 .LASF48
     /tmp/cc7R4ZW9.s:97712  .debug_str:000000000001e4f6 .LASF49
     /tmp/cc7R4ZW9.s:109176  .debug_str:000000000004d7fc .LASF50
     /tmp/cc7R4ZW9.s:92058  .debug_str:000000000000746a .LASF51
     /tmp/cc7R4ZW9.s:96482  .debug_str:0000000000018e66 .LASF52
     /tmp/cc7R4ZW9.s:103388  .debug_str:000000000003572b .LASF53
     /tmp/cc7R4ZW9.s:90796  .debug_str:0000000000001eff .LASF54
     /tmp/cc7R4ZW9.s:93350  .debug_str:000000000000cd08 .LASF55
     /tmp/cc7R4ZW9.s:107628  .debug_str:0000000000047080 .LASF56
     /tmp/cc7R4ZW9.s:106028  .debug_str:0000000000040154 .LASF57
     /tmp/cc7R4ZW9.s:108818  .debug_str:000000000004c016 .LASF58
     /tmp/cc7R4ZW9.s:107258  .debug_str:0000000000045816 .LASF59
     /tmp/cc7R4ZW9.s:101486  .debug_str:000000000002d89b .LASF60
     /tmp/cc7R4ZW9.s:107326  .debug_str:0000000000045d33 .LASF61
     /tmp/cc7R4ZW9.s:100404  .debug_str:00000000000295f4 .LASF62
     /tmp/cc7R4ZW9.s:105916  .debug_str:000000000003fac0 .LASF63
     /tmp/cc7R4ZW9.s:99740  .debug_str:000000000002698c .LASF64
     /tmp/cc7R4ZW9.s:101122  .debug_str:000000000002c320 .LASF65
     /tmp/cc7R4ZW9.s:102538  .debug_str:0000000000031d20 .LASF66
     /tmp/cc7R4ZW9.s:97764  .debug_str:000000000001e877 .LASF67
     /tmp/cc7R4ZW9.s:107386  .debug_str:00000000000460cd .LASF68
     /tmp/cc7R4ZW9.s:105040  .debug_str:000000000003bf92 .LASF69
     /tmp/cc7R4ZW9.s:109686  .debug_str:000000000004fb9b .LASF70
     /tmp/cc7R4ZW9.s:95992  .debug_str:0000000000016f10 .LASF71
     /tmp/cc7R4ZW9.s:90904  .debug_str:0000000000002670 .LASF72
     /tmp/cc7R4ZW9.s:107862  .debug_str:0000000000048016 .LASF73
     /tmp/cc7R4ZW9.s:99634  .debug_str:0000000000026308 .LASF74
     /tmp/cc7R4ZW9.s:106094  .debug_str:0000000000040542 .LASF75
     /tmp/cc7R4ZW9.s:98938  .debug_str:00000000000238e0 .LASF76
     /tmp/cc7R4ZW9.s:92456  .debug_str:0000000000008f0b .LASF77
     /tmp/cc7R4ZW9.s:102772  .debug_str:0000000000032dc2 .LASF78
     /tmp/cc7R4ZW9.s:100778  .debug_str:000000000002ad18 .LASF79
     /tmp/cc7R4ZW9.s:102282  .debug_str:0000000000030dad .LASF80
     /tmp/cc7R4ZW9.s:95210  .debug_str:0000000000013d66 .LASF81
     /tmp/cc7R4ZW9.s:92628  .debug_str:0000000000009b60 .LASF82
     /tmp/cc7R4ZW9.s:92660  .debug_str:0000000000009dce .LASF83
     /tmp/cc7R4ZW9.s:94390  .debug_str:000000000001086f .LASF84
     /tmp/cc7R4ZW9.s:101170  .debug_str:000000000002c5af .LASF85
     /tmp/cc7R4ZW9.s:102944  .debug_str:0000000000033970 .LASF86
     /tmp/cc7R4ZW9.s:99304  .debug_str:00000000000250b2 .LASF87
     /tmp/cc7R4ZW9.s:108236  .debug_str:00000000000498b5 .LASF88
     /tmp/cc7R4ZW9.s:93674  .debug_str:000000000000e0df .LASF89
     /tmp/cc7R4ZW9.s:99996  .debug_str:0000000000027a10 .LASF90
     /tmp/cc7R4ZW9.s:96744  .debug_str:000000000001a037 .LASF91
     /tmp/cc7R4ZW9.s:98950  .debug_str:00000000000239e7 .LASF92
     /tmp/cc7R4ZW9.s:108264  .debug_str:0000000000049a17 .LASF93
     /tmp/cc7R4ZW9.s:108700  .debug_str:000000000004b86a .LASF94
     /tmp/cc7R4ZW9.s:102592  .debug_str:0000000000032093 .LASF95
     /tmp/cc7R4ZW9.s:98538  .debug_str:0000000000021ee5 .LASF96
     /tmp/cc7R4ZW9.s:93752  .debug_str:000000000000e577 .LASF97
     /tmp/cc7R4ZW9.s:102768  .debug_str:0000000000032d87 .LASF98
     /tmp/cc7R4ZW9.s:104780  .debug_str:000000000003add0 .LASF99
     /tmp/cc7R4ZW9.s:104192  .debug_str:0000000000038b32 .LASF100
     /tmp/cc7R4ZW9.s:91080  .debug_str:0000000000003208 .LASF101
     /tmp/cc7R4ZW9.s:101340  .debug_str:000000000002d035 .LASF102
     /tmp/cc7R4ZW9.s:93404  .debug_str:000000000000d076 .LASF103
     /tmp/cc7R4ZW9.s:101206  .debug_str:000000000002c81d .LASF104
     /tmp/cc7R4ZW9.s:99176  .debug_str:000000000002493b .LASF105
     /tmp/cc7R4ZW9.s:101004  .debug_str:000000000002bb92 .LASF106
     /tmp/cc7R4ZW9.s:91488  .debug_str:0000000000004ddb .LASF107
     /tmp/cc7R4ZW9.s:103834  .debug_str:00000000000375f7 .LASF108
     /tmp/cc7R4ZW9.s:102230  .debug_str:0000000000030a4c .LASF109
     /tmp/cc7R4ZW9.s:106112  .debug_str:0000000000040660 .LASF110
     /tmp/cc7R4ZW9.s:93558  .debug_str:000000000000da9d .LASF111
     /tmp/cc7R4ZW9.s:104598  .debug_str:000000000003a0ec .LASF112
     /tmp/cc7R4ZW9.s:90532  .debug_str:0000000000000baf .LASF113
     /tmp/cc7R4ZW9.s:106584  .debug_str:0000000000042c41 .LASF114
     /tmp/cc7R4ZW9.s:108030  .debug_str:0000000000048b5f .LASF115
     /tmp/cc7R4ZW9.s:91074  .debug_str:00000000000031a4 .LASF116
     /tmp/cc7R4ZW9.s:94974  .debug_str:0000000000012dbc .LASF117
     /tmp/cc7R4ZW9.s:95532  .debug_str:000000000001513b .LASF118
     /tmp/cc7R4ZW9.s:103828  .debug_str:00000000000375aa .LASF119
     /tmp/cc7R4ZW9.s:101530  .debug_str:000000000002dbc5 .LASF120
     /tmp/cc7R4ZW9.s:94318  .debug_str:000000000001049a .LASF121
     /tmp/cc7R4ZW9.s:95766  .debug_str:0000000000015fbb .LASF122
     /tmp/cc7R4ZW9.s:94514  .debug_str:0000000000010f59 .LASF123
     /tmp/cc7R4ZW9.s:96696  .debug_str:0000000000019d6c .LASF124
     /tmp/cc7R4ZW9.s:104338  .debug_str:000000000003935f .LASF125
     /tmp/cc7R4ZW9.s:105912  .debug_str:000000000003fa80 .LASF126
     /tmp/cc7R4ZW9.s:105542  .debug_str:000000000003e2d1 .LASF127
     /tmp/cc7R4ZW9.s:104774  .debug_str:000000000003ad5e .LASF128
     /tmp/cc7R4ZW9.s:100600  .debug_str:000000000002a242 .LASF129
     /tmp/cc7R4ZW9.s:105424  .debug_str:000000000003d9b8 .LASF130
     /tmp/cc7R4ZW9.s:94696  .debug_str:0000000000011b1f .LASF131
     /tmp/cc7R4ZW9.s:98696  .debug_str:000000000002284e .LASF132
     /tmp/cc7R4ZW9.s:100676  .debug_str:000000000002a75c .LASF133
     /tmp/cc7R4ZW9.s:95068  .debug_str:000000000001348b .LASF134
     /tmp/cc7R4ZW9.s:107778  .debug_str:0000000000047a3b .LASF135
     /tmp/cc7R4ZW9.s:105730  .debug_str:000000000003ee54 .LASF136
     /tmp/cc7R4ZW9.s:101602  .debug_str:000000000002e07a .LASF137
     /tmp/cc7R4ZW9.s:97640  .debug_str:000000000001dfaf .LASF138
     /tmp/cc7R4ZW9.s:103904  .debug_str:0000000000037a9c .LASF139
     /tmp/cc7R4ZW9.s:95668  .debug_str:00000000000159e6 .LASF140
     /tmp/cc7R4ZW9.s:108844  .debug_str:000000000004c208 .LASF141
     /tmp/cc7R4ZW9.s:100516  .debug_str:0000000000029cb2 .LASF142
     /tmp/cc7R4ZW9.s:99450  .debug_str:0000000000025954 .LASF143
     /tmp/cc7R4ZW9.s:94754  .debug_str:0000000000011ec1 .LASF144
     /tmp/cc7R4ZW9.s:93324  .debug_str:000000000000cb09 .LASF145
     /tmp/cc7R4ZW9.s:94330  .debug_str:000000000001051c .LASF146
     /tmp/cc7R4ZW9.s:95130  .debug_str:00000000000138a7 .LASF147
     /tmp/cc7R4ZW9.s:98048  .debug_str:000000000001fc34 .LASF148
     /tmp/cc7R4ZW9.s:102280  .debug_str:0000000000030d99 .LASF149
     /tmp/cc7R4ZW9.s:105960  .debug_str:000000000003fd76 .LASF150
     /tmp/cc7R4ZW9.s:96786  .debug_str:000000000001a383 .LASF151
     /tmp/cc7R4ZW9.s:99584  .debug_str:0000000000025f6d .LASF152
     /tmp/cc7R4ZW9.s:92606  .debug_str:00000000000099bd .LASF153
     /tmp/cc7R4ZW9.s:106398  .debug_str:0000000000041c1d .LASF154
     /tmp/cc7R4ZW9.s:95094  .debug_str:000000000001368f .LASF155
     /tmp/cc7R4ZW9.s:107836  .debug_str:0000000000047e30 .LASF156
     /tmp/cc7R4ZW9.s:101354  .debug_str:000000000002d0e0 .LASF157
     /tmp/cc7R4ZW9.s:91666  .debug_str:000000000000593a .LASF158
     /tmp/cc7R4ZW9.s:91924  .debug_str:0000000000006a44 .LASF159
     /tmp/cc7R4ZW9.s:109130  .debug_str:000000000004d52c .LASF160
     /tmp/cc7R4ZW9.s:106186  .debug_str:0000000000040bc0 .LASF161
     /tmp/cc7R4ZW9.s:108630  .debug_str:000000000004b36a .LASF162
     /tmp/cc7R4ZW9.s:94824  .debug_str:00000000000123e8 .LASF163
     /tmp/cc7R4ZW9.s:95676  .debug_str:0000000000015a67 .LASF164
     /tmp/cc7R4ZW9.s:108370  .debug_str:000000000004a156 .LASF165
     /tmp/cc7R4ZW9.s:102600  .debug_str:0000000000032105 .LASF166
     /tmp/cc7R4ZW9.s:94916  .debug_str:0000000000012981 .LASF167
     /tmp/cc7R4ZW9.s:90892  .debug_str:0000000000002569 .LASF168
     /tmp/cc7R4ZW9.s:101582  .debug_str:000000000002df29 .LASF169
     /tmp/cc7R4ZW9.s:104868  .debug_str:000000000003b3bd .LASF170
     /tmp/cc7R4ZW9.s:103334  .debug_str:0000000000035353 .LASF171
     /tmp/cc7R4ZW9.s:102058  .debug_str:000000000002ff11 .LASF172
     /tmp/cc7R4ZW9.s:92950  .debug_str:000000000000b0c5 .LASF173
     /tmp/cc7R4ZW9.s:105048  .debug_str:000000000003c023 .LASF174
     /tmp/cc7R4ZW9.s:102534  .debug_str:0000000000031cf1 .LASF175
     /tmp/cc7R4ZW9.s:95138  .debug_str:0000000000013903 .LASF176
     /tmp/cc7R4ZW9.s:95060  .debug_str:000000000001341e .LASF177
     /tmp/cc7R4ZW9.s:104162  .debug_str:0000000000038a4b .LASF178
     /tmp/cc7R4ZW9.s:101476  .debug_str:000000000002d825 .LASF179
     /tmp/cc7R4ZW9.s:103362  .debug_str:0000000000035554 .LASF180
     /tmp/cc7R4ZW9.s:95176  .debug_str:0000000000013b38 .LASF181
     /tmp/cc7R4ZW9.s:108756  .debug_str:000000000004bbda .LASF182
     /tmp/cc7R4ZW9.s:92678  .debug_str:0000000000009ebd .LASF183
     /tmp/cc7R4ZW9.s:107960  .debug_str:00000000000486a9 .LASF184
     /tmp/cc7R4ZW9.s:98840  .debug_str:0000000000023195 .LASF185
     /tmp/cc7R4ZW9.s:95982  .debug_str:0000000000016e61 .LASF186
     /tmp/cc7R4ZW9.s:99734  .debug_str:00000000000268ed .LASF187
     /tmp/cc7R4ZW9.s:91544  .debug_str:000000000000513a .LASF188
     /tmp/cc7R4ZW9.s:91410  .debug_str:00000000000047ef .LASF189
     /tmp/cc7R4ZW9.s:95042  .debug_str:00000000000132bc .LASF190
     /tmp/cc7R4ZW9.s:109370  .debug_str:000000000004e6b6 .LASF191
     /tmp/cc7R4ZW9.s:105636  .debug_str:000000000003e8f3 .LASF192
     /tmp/cc7R4ZW9.s:97952  .debug_str:000000000001f580 .LASF193
     /tmp/cc7R4ZW9.s:91416  .debug_str:000000000000487f .LASF194
     /tmp/cc7R4ZW9.s:105996  .debug_str:000000000003ff86 .LASF195
     /tmp/cc7R4ZW9.s:107494  .debug_str:00000000000467ac .LASF196
     /tmp/cc7R4ZW9.s:99014  .debug_str:0000000000023ddb .LASF197
     /tmp/cc7R4ZW9.s:90430  .debug_str:0000000000000490 .LASF198
     /tmp/cc7R4ZW9.s:91104  .debug_str:00000000000033c6 .LASF199
     /tmp/cc7R4ZW9.s:106604  .debug_str:0000000000042d86 .LASF200
     /tmp/cc7R4ZW9.s:101772  .debug_str:000000000002ebf3 .LASF201
     /tmp/cc7R4ZW9.s:108194  .debug_str:00000000000495dd .LASF202
     /tmp/cc7R4ZW9.s:104542  .debug_str:0000000000039de7 .LASF203
     /tmp/cc7R4ZW9.s:91610  .debug_str:000000000000553d .LASF204
     /tmp/cc7R4ZW9.s:108156  .debug_str:000000000004936d .LASF205
     /tmp/cc7R4ZW9.s:99164  .debug_str:0000000000024883 .LASF206
     /tmp/cc7R4ZW9.s:106588  .debug_str:0000000000042ca1 .LASF207
     /tmp/cc7R4ZW9.s:97742  .debug_str:000000000001e735 .LASF208
     /tmp/cc7R4ZW9.s:100956  .debug_str:000000000002b91c .LASF209
     /tmp/cc7R4ZW9.s:100110  .debug_str:0000000000028173 .LASF210
     /tmp/cc7R4ZW9.s:93676  .debug_str:000000000000e0f1 .LASF211
     /tmp/cc7R4ZW9.s:109486  .debug_str:000000000004ee1b .LASF212
     /tmp/cc7R4ZW9.s:106708  .debug_str:000000000004343d .LASF213
     /tmp/cc7R4ZW9.s:96172  .debug_str:0000000000017ba0 .LASF214
     /tmp/cc7R4ZW9.s:99442  .debug_str:00000000000258bf .LASF215
     /tmp/cc7R4ZW9.s:97728  .debug_str:000000000001e5f8 .LASF216
     /tmp/cc7R4ZW9.s:95940  .debug_str:0000000000016b60 .LASF217
     /tmp/cc7R4ZW9.s:103234  .debug_str:0000000000034cdb .LASF218
     /tmp/cc7R4ZW9.s:91744  .debug_str:0000000000005e60 .LASF219
     /tmp/cc7R4ZW9.s:98800  .debug_str:0000000000022f6f .LASF220
     /tmp/cc7R4ZW9.s:109288  .debug_str:000000000004e152 .LASF221
     /tmp/cc7R4ZW9.s:105580  .debug_str:000000000003e546 .LASF222
     /tmp/cc7R4ZW9.s:95326  .debug_str:00000000000144b2 .LASF223
     /tmp/cc7R4ZW9.s:107178  .debug_str:000000000004530f .LASF224
     /tmp/cc7R4ZW9.s:109000  .debug_str:000000000004cc3a .LASF225
     /tmp/cc7R4ZW9.s:96760  .debug_str:000000000001a17c .LASF226
     /tmp/cc7R4ZW9.s:105500  .debug_str:000000000003dff6 .LASF227
     /tmp/cc7R4ZW9.s:96854  .debug_str:000000000001a825 .LASF228
     /tmp/cc7R4ZW9.s:104190  .debug_str:0000000000038b17 .LASF229
     /tmp/cc7R4ZW9.s:92668  .debug_str:0000000000009e3a .LASF230
     /tmp/cc7R4ZW9.s:92956  .debug_str:000000000000b14a .LASF231
     /tmp/cc7R4ZW9.s:96888  .debug_str:000000000001aaef .LASF232
     /tmp/cc7R4ZW9.s:94538  .debug_str:00000000000110d8 .LASF233
     /tmp/cc7R4ZW9.s:91676  .debug_str:00000000000059e8 .LASF234
     /tmp/cc7R4ZW9.s:105170  .debug_str:000000000003c98f .LASF235
     /tmp/cc7R4ZW9.s:102340  .debug_str:0000000000031108 .LASF236
     /tmp/cc7R4ZW9.s:94218  .debug_str:000000000000ff81 .LASF237
     /tmp/cc7R4ZW9.s:93864  .debug_str:000000000000ebae .LASF238
     /tmp/cc7R4ZW9.s:108652  .debug_str:000000000004b4e2 .LASF239
     /tmp/cc7R4ZW9.s:96280  .debug_str:0000000000018200 .LASF240
     /tmp/cc7R4ZW9.s:97604  .debug_str:000000000001dd4e .LASF241
     /tmp/cc7R4ZW9.s:91890  .debug_str:00000000000067d7 .LASF242
     /tmp/cc7R4ZW9.s:104092  .debug_str:000000000003863f .LASF243
     /tmp/cc7R4ZW9.s:107338  .debug_str:0000000000045dc5 .LASF244
     /tmp/cc7R4ZW9.s:103526  .debug_str:000000000003615c .LASF245
     /tmp/cc7R4ZW9.s:96260  .debug_str:00000000000180fb .LASF246
     /tmp/cc7R4ZW9.s:106352  .debug_str:0000000000041928 .LASF247
     /tmp/cc7R4ZW9.s:98940  .debug_str:0000000000023907 .LASF248
     /tmp/cc7R4ZW9.s:103522  .debug_str:0000000000036131 .LASF249
     /tmp/cc7R4ZW9.s:97680  .debug_str:000000000001e283 .LASF250
     /tmp/cc7R4ZW9.s:108248  .debug_str:000000000004997a .LASF251
     /tmp/cc7R4ZW9.s:97084  .debug_str:000000000001b7e7 .LASF252
     /tmp/cc7R4ZW9.s:104058  .debug_str:00000000000383b3 .LASF253
     /tmp/cc7R4ZW9.s:91198  .debug_str:000000000000394f .LASF254
     /tmp/cc7R4ZW9.s:105076  .debug_str:000000000003c26d .LASF255
     /tmp/cc7R4ZW9.s:91964  .debug_str:0000000000006d47 .LASF256
     /tmp/cc7R4ZW9.s:92244  .debug_str:0000000000008019 .LASF257
     /tmp/cc7R4ZW9.s:108570  .debug_str:000000000004af26 .LASF258
     /tmp/cc7R4ZW9.s:106446  .debug_str:0000000000042213 .LASF259
     /tmp/cc7R4ZW9.s:94072  .debug_str:000000000000f6f8 .LASF260
     /tmp/cc7R4ZW9.s:97778  .debug_str:000000000001e946 .LASF261
     /tmp/cc7R4ZW9.s:107594  .debug_str:0000000000046db6 .LASF262
     /tmp/cc7R4ZW9.s:105244  .debug_str:000000000003cdee .LASF263
     /tmp/cc7R4ZW9.s:101152  .debug_str:000000000002c4c0 .LASF264
     /tmp/cc7R4ZW9.s:93194  .debug_str:000000000000c278 .LASF265
     /tmp/cc7R4ZW9.s:98772  .debug_str:0000000000022d61 .LASF266
     /tmp/cc7R4ZW9.s:102520  .debug_str:0000000000031c43 .LASF267
     /tmp/cc7R4ZW9.s:98064  .debug_str:000000000001fd1c .LASF268
     /tmp/cc7R4ZW9.s:100280  .debug_str:0000000000028d37 .LASF269
     /tmp/cc7R4ZW9.s:102634  .debug_str:0000000000032385 .LASF270
     /tmp/cc7R4ZW9.s:93056  .debug_str:000000000000b8b7 .LASF271
     /tmp/cc7R4ZW9.s:108744  .debug_str:000000000004bb33 .LASF272
     /tmp/cc7R4ZW9.s:95234  .debug_str:0000000000013ef2 .LASF273
     /tmp/cc7R4ZW9.s:108014  .debug_str:0000000000048a40 .LASF274
     /tmp/cc7R4ZW9.s:104568  .debug_str:0000000000039f72 .LASF275
     /tmp/cc7R4ZW9.s:99992  .debug_str:00000000000279bc .LASF276
     /tmp/cc7R4ZW9.s:90516  .debug_str:0000000000000acc .LASF277
     /tmp/cc7R4ZW9.s:103878  .debug_str:00000000000378a5 .LASF278
     /tmp/cc7R4ZW9.s:102730  .debug_str:0000000000032aa8 .LASF279
     /tmp/cc7R4ZW9.s:108876  .debug_str:000000000004c3d4 .LASF280
     /tmp/cc7R4ZW9.s:100870  .debug_str:000000000002b301 .LASF281
     /tmp/cc7R4ZW9.s:106120  .debug_str:00000000000406ea .LASF282
     /tmp/cc7R4ZW9.s:90750  .debug_str:0000000000001b43 .LASF283
     /tmp/cc7R4ZW9.s:109796  .debug_str:00000000000502cb .LASF284
     /tmp/cc7R4ZW9.s:102746  .debug_str:0000000000032be0 .LASF285
     /tmp/cc7R4ZW9.s:102528  .debug_str:0000000000031ca7 .LASF286
     /tmp/cc7R4ZW9.s:95934  .debug_str:0000000000016ac0 .LASF287
     /tmp/cc7R4ZW9.s:109482  .debug_str:000000000004eded .LASF288
     /tmp/cc7R4ZW9.s:108154  .debug_str:0000000000049356 .LASF289
     /tmp/cc7R4ZW9.s:96190  .debug_str:0000000000017d2b .LASF290
     /tmp/cc7R4ZW9.s:92608  .debug_str:00000000000099d1 .LASF291
     /tmp/cc7R4ZW9.s:105220  .debug_str:000000000003cc34 .LASF292
     /tmp/cc7R4ZW9.s:107058  .debug_str:0000000000044b18 .LASF293
     /tmp/cc7R4ZW9.s:103968  .debug_str:0000000000037ddb .LASF294
     /tmp/cc7R4ZW9.s:92156  .debug_str:0000000000007aa2 .LASF295
     /tmp/cc7R4ZW9.s:100506  .debug_str:0000000000029bf5 .LASF296
     /tmp/cc7R4ZW9.s:98122  .debug_str:0000000000020205 .LASF297
     /tmp/cc7R4ZW9.s:106042  .debug_str:0000000000040226 .LASF298
     /tmp/cc7R4ZW9.s:93026  .debug_str:000000000000b6b3 .LASF299
     /tmp/cc7R4ZW9.s:106222  .debug_str:0000000000040f7a .LASF300
     /tmp/cc7R4ZW9.s:95642  .debug_str:000000000001585d .LASF301
     /tmp/cc7R4ZW9.s:106160  .debug_str:00000000000409b1 .LASF302
     /tmp/cc7R4ZW9.s:107876  .debug_str:000000000004813a .LASF303
     /tmp/cc7R4ZW9.s:99822  .debug_str:0000000000026f5d .LASF304
     /tmp/cc7R4ZW9.s:104694  .debug_str:000000000003a7ae .LASF305
     /tmp/cc7R4ZW9.s:102794  .debug_str:0000000000032f0b .LASF306
     /tmp/cc7R4ZW9.s:98970  .debug_str:0000000000023b19 .LASF307
     /tmp/cc7R4ZW9.s:108186  .debug_str:0000000000049593 .LASF308
     /tmp/cc7R4ZW9.s:108200  .debug_str:000000000004966b .LASF309
     /tmp/cc7R4ZW9.s:102182  .debug_str:00000000000306d0 .LASF310
     /tmp/cc7R4ZW9.s:92178  .debug_str:0000000000007c02 .LASF311
     /tmp/cc7R4ZW9.s:90524  .debug_str:0000000000000b1d .LASF312
     /tmp/cc7R4ZW9.s:104562  .debug_str:0000000000039f39 .LASF313
     /tmp/cc7R4ZW9.s:102950  .debug_str:00000000000339af .LASF314
     /tmp/cc7R4ZW9.s:103808  .debug_str:000000000003748b .LASF315
     /tmp/cc7R4ZW9.s:90596  .debug_str:0000000000000ffa .LASF316
     /tmp/cc7R4ZW9.s:97622  .debug_str:000000000001de88 .LASF317
     /tmp/cc7R4ZW9.s:98806  .debug_str:0000000000022fbb .LASF318
     /tmp/cc7R4ZW9.s:98130  .debug_str:00000000000202b4 .LASF319
     /tmp/cc7R4ZW9.s:108448  .debug_str:000000000004a624 .LASF320
     /tmp/cc7R4ZW9.s:105870  .debug_str:000000000003f75a .LASF321
     /tmp/cc7R4ZW9.s:102348  .debug_str:0000000000031183 .LASF322
     /tmp/cc7R4ZW9.s:95804  .debug_str:00000000000161fd .LASF323
     /tmp/cc7R4ZW9.s:96694  .debug_str:0000000000019d56 .LASF327
     /tmp/cc7R4ZW9.s:103674  .debug_str:0000000000036b7c .LASF328
     /tmp/cc7R4ZW9.s:100858  .debug_str:000000000002b290 .LASF329
     /tmp/cc7R4ZW9.s:95330  .debug_str:00000000000144d6 .LASF330
     /tmp/cc7R4ZW9.s:104344  .debug_str:00000000000393cf .LASF331
     /tmp/cc7R4ZW9.s:93338  .debug_str:000000000000cc3e .LASF332
     /tmp/cc7R4ZW9.s:106818  .debug_str:0000000000043bee .LASF333
     /tmp/cc7R4ZW9.s:97124  .debug_str:000000000001bab8 .LASF334
     /tmp/cc7R4ZW9.s:96242  .debug_str:0000000000018032 .LASF335
     /tmp/cc7R4ZW9.s:106988  .debug_str:0000000000044685 .LASF336
     /tmp/cc7R4ZW9.s:96748  .debug_str:000000000001a08c .LASF337
     /tmp/cc7R4ZW9.s:95262  .debug_str:0000000000014063 .LASF338
     /tmp/cc7R4ZW9.s:108884  .debug_str:000000000004c481 .LASF339
     /tmp/cc7R4ZW9.s:106318  .debug_str:00000000000416e8 .LASF340
     /tmp/cc7R4ZW9.s:107850  .debug_str:0000000000047f76 .LASF342
     /tmp/cc7R4ZW9.s:98892  .debug_str:000000000002355a .LASF343
     /tmp/cc7R4ZW9.s:103916  .debug_str:0000000000037b8e .LASF344
     /tmp/cc7R4ZW9.s:103698  .debug_str:0000000000036d53 .LASF345
     /tmp/cc7R4ZW9.s:101460  .debug_str:000000000002d701 .LASF346
     /tmp/cc7R4ZW9.s:91810  .debug_str:0000000000006270 .LASF347
     /tmp/cc7R4ZW9.s:105650  .debug_str:000000000003ea04 .LASF348
     /tmp/cc7R4ZW9.s:90482  .debug_str:0000000000000831 .LASF349
     /tmp/cc7R4ZW9.s:95494  .debug_str:0000000000014ed5 .LASF350
     /tmp/cc7R4ZW9.s:97724  .debug_str:000000000001e5af .LASF351
     /tmp/cc7R4ZW9.s:94168  .debug_str:000000000000fccd .LASF352
     /tmp/cc7R4ZW9.s:95570  .debug_str:00000000000153b1 .LASF353
     /tmp/cc7R4ZW9.s:100760  .debug_str:000000000002ac3c .LASF354
     /tmp/cc7R4ZW9.s:105852  .debug_str:000000000003f65d .LASF355
     /tmp/cc7R4ZW9.s:106292  .debug_str:0000000000041501 .LASF356
     /tmp/cc7R4ZW9.s:104414  .debug_str:0000000000039701 .LASF357
     /tmp/cc7R4ZW9.s:95678  .debug_str:0000000000015a7b .LASF358
     /tmp/cc7R4ZW9.s:96624  .debug_str:000000000001985e .LASF359
     /tmp/cc7R4ZW9.s:99574  .debug_str:0000000000025f17 .LASF360
     /tmp/cc7R4ZW9.s:101826  .debug_str:000000000002ef72 .LASF361
     /tmp/cc7R4ZW9.s:93642  .debug_str:000000000000dec1 .LASF362
     /tmp/cc7R4ZW9.s:97192  .debug_str:000000000001bfa6 .LASF363
     /tmp/cc7R4ZW9.s:96858  .debug_str:000000000001a846 .LASF364
     /tmp/cc7R4ZW9.s:93552  .debug_str:000000000000da51 .LASF365
     /tmp/cc7R4ZW9.s:97024  .debug_str:000000000001b3fe .LASF366
     /tmp/cc7R4ZW9.s:106312  .debug_str:0000000000041690 .LASF367
     /tmp/cc7R4ZW9.s:109582  .debug_str:000000000004f4b3 .LASF368
     /tmp/cc7R4ZW9.s:90498  .debug_str:0000000000000979 .LASF369
     /tmp/cc7R4ZW9.s:108034  .debug_str:0000000000048b98 .LASF370
     /tmp/cc7R4ZW9.s:102828  .debug_str:0000000000033124 .LASF371
     /tmp/cc7R4ZW9.s:100610  .debug_str:000000000002a30d .LASF372
     /tmp/cc7R4ZW9.s:102786  .debug_str:0000000000032e86 .LASF373
     /tmp/cc7R4ZW9.s:103512  .debug_str:00000000000360b6 .LASF374
     /tmp/cc7R4ZW9.s:101498  .debug_str:000000000002d979 .LASF375
     /tmp/cc7R4ZW9.s:96714  .debug_str:0000000000019ea1 .LASF376
     /tmp/cc7R4ZW9.s:107820  .debug_str:0000000000047d2a .LASF377
     /tmp/cc7R4ZW9.s:96166  .debug_str:0000000000017b35 .LASF378
     /tmp/cc7R4ZW9.s:99506  .debug_str:0000000000025bb2 .LASF379
     /tmp/cc7R4ZW9.s:90802  .debug_str:0000000000001f4e .LASF380
     /tmp/cc7R4ZW9.s:108566  .debug_str:000000000004aeda .LASF381
     /tmp/cc7R4ZW9.s:107520  .debug_str:0000000000046962 .LASF382
     /tmp/cc7R4ZW9.s:91466  .debug_str:0000000000004c10 .LASF383
     /tmp/cc7R4ZW9.s:99438  .debug_str:0000000000025864 .LASF384
     /tmp/cc7R4ZW9.s:106068  .debug_str:00000000000403d2 .LASF386
     /tmp/cc7R4ZW9.s:96250  .debug_str:000000000001807a .LASF387
     /tmp/cc7R4ZW9.s:107098  .debug_str:0000000000044dd1 .LASF388
     /tmp/cc7R4ZW9.s:94452  .debug_str:0000000000010ba1 .LASF389
     /tmp/cc7R4ZW9.s:91254  .debug_str:0000000000003d0f .LASF390
     /tmp/cc7R4ZW9.s:95294  .debug_str:0000000000014283 .LASF391
     /tmp/cc7R4ZW9.s:107410  .debug_str:000000000004626b .LASF392
     /tmp/cc7R4ZW9.s:96444  .debug_str:0000000000018c1e .LASF393
     /tmp/cc7R4ZW9.s:94240  .debug_str:00000000000100db .LASF394
     /tmp/cc7R4ZW9.s:102002  .debug_str:000000000002fb74 .LASF395
     /tmp/cc7R4ZW9.s:105318  .debug_str:000000000003d2bb .LASF396
     /tmp/cc7R4ZW9.s:102654  .debug_str:000000000003256f .LASF397
     /tmp/cc7R4ZW9.s:102532  .debug_str:0000000000031ceb .LASF398
     /tmp/cc7R4ZW9.s:105348  .debug_str:000000000003d48c .LASF399
     /tmp/cc7R4ZW9.s:105770  .debug_str:000000000003f151 .LASF400
     /tmp/cc7R4ZW9.s:99048  .debug_str:0000000000024030 .LASF401
     /tmp/cc7R4ZW9.s:108738  .debug_str:000000000004baee .LASF402
     /tmp/cc7R4ZW9.s:106146  .debug_str:00000000000408b5 .LASF403
     /tmp/cc7R4ZW9.s:102460  .debug_str:00000000000318af .LASF404
     /tmp/cc7R4ZW9.s:105468  .debug_str:000000000003dd16 .LASF405
     /tmp/cc7R4ZW9.s:93476  .debug_str:000000000000d57f .LASF406
     /tmp/cc7R4ZW9.s:108244  .debug_str:000000000004992b .LASF407
     /tmp/cc7R4ZW9.s:99792  .debug_str:0000000000026cec .LASF408
     /tmp/cc7R4ZW9.s:92106  .debug_str:000000000000779b .LASF409
     /tmp/cc7R4ZW9.s:90972  .debug_str:0000000000002afe .LASF410
     /tmp/cc7R4ZW9.s:95034  .debug_str:00000000000131f0 .LASF411
     /tmp/cc7R4ZW9.s:98178  .debug_str:00000000000205d7 .LASF412
     /tmp/cc7R4ZW9.s:102140  .debug_str:0000000000030429 .LASF413
     /tmp/cc7R4ZW9.s:92370  .debug_str:00000000000088fe .LASF414
     /tmp/cc7R4ZW9.s:97462  .debug_str:000000000001d2e3 .LASF415
     /tmp/cc7R4ZW9.s:92406  .debug_str:0000000000008b88 .LASF416
     /tmp/cc7R4ZW9.s:101468  .debug_str:000000000002d7a9 .LASF417
     /tmp/cc7R4ZW9.s:99878  .debug_str:0000000000027274 .LASF418
     /tmp/cc7R4ZW9.s:94214  .debug_str:000000000000ff60 .LASF419
     /tmp/cc7R4ZW9.s:103278  .debug_str:0000000000034f7a .LASF420
     /tmp/cc7R4ZW9.s:108262  .debug_str:0000000000049a0a .LASF421
     /tmp/cc7R4ZW9.s:109612  .debug_str:000000000004f69d .LASF422
     /tmp/cc7R4ZW9.s:102196  .debug_str:00000000000307d1 .LASF423
     /tmp/cc7R4ZW9.s:98824  .debug_str:00000000000230b8 .LASF424
     /tmp/cc7R4ZW9.s:97538  .debug_str:000000000001d811 .LASF425
     /tmp/cc7R4ZW9.s:101108  .debug_str:000000000002c265 .LASF426
     /tmp/cc7R4ZW9.s:102192  .debug_str:0000000000030778 .LASF427
     /tmp/cc7R4ZW9.s:91038  .debug_str:0000000000002f28 .LASF428
     /tmp/cc7R4ZW9.s:95916  .debug_str:000000000001698e .LASF429
     /tmp/cc7R4ZW9.s:100942  .debug_str:000000000002b806 .LASF430
     /tmp/cc7R4ZW9.s:94530  .debug_str:0000000000011083 .LASF431
     /tmp/cc7R4ZW9.s:106824  .debug_str:0000000000043c54 .LASF432
     /tmp/cc7R4ZW9.s:98428  .debug_str:000000000002169c .LASF433
     /tmp/cc7R4ZW9.s:100546  .debug_str:0000000000029ea2 .LASF434
     /tmp/cc7R4ZW9.s:95244  .debug_str:0000000000013f6f .LASF435
     /tmp/cc7R4ZW9.s:99956  .debug_str:000000000002771d .LASF436
     /tmp/cc7R4ZW9.s:90734  .debug_str:0000000000001a4b .LASF437
     /tmp/cc7R4ZW9.s:96868  .debug_str:000000000001a94e .LASF438
     /tmp/cc7R4ZW9.s:92332  .debug_str:000000000000867a .LASF439
     /tmp/cc7R4ZW9.s:103026  .debug_str:0000000000033ed1 .LASF440
     /tmp/cc7R4ZW9.s:93074  .debug_str:000000000000b9f0 .LASF441
     /tmp/cc7R4ZW9.s:100338  .debug_str:000000000002916d .LASF442
     /tmp/cc7R4ZW9.s:105140  .debug_str:000000000003c740 .LASF443
     /tmp/cc7R4ZW9.s:102796  .debug_str:0000000000032f27 .LASF444
     /tmp/cc7R4ZW9.s:92544  .debug_str:00000000000094cb .LASF445
     /tmp/cc7R4ZW9.s:103082  .debug_str:000000000003423b .LASF446
     /tmp/cc7R4ZW9.s:99264  .debug_str:0000000000024ea7 .LASF447
     /tmp/cc7R4ZW9.s:92294  .debug_str:0000000000008393 .LASF448
     /tmp/cc7R4ZW9.s:103706  .debug_str:0000000000036dc4 .LASF449
     /tmp/cc7R4ZW9.s:97142  .debug_str:000000000001bc04 .LASF450
     /tmp/cc7R4ZW9.s:105840  .debug_str:000000000003f5ad .LASF451
     /tmp/cc7R4ZW9.s:108408  .debug_str:000000000004a436 .LASF452
     /tmp/cc7R4ZW9.s:107336  .debug_str:0000000000045dae .LASF453
     /tmp/cc7R4ZW9.s:93632  .debug_str:000000000000de5f .LASF454
     /tmp/cc7R4ZW9.s:95332  .debug_str:00000000000144e9 .LASF455
     /tmp/cc7R4ZW9.s:96754  .debug_str:000000000001a107 .LASF456
     /tmp/cc7R4ZW9.s:97994  .debug_str:000000000001f8e6 .LASF457
     /tmp/cc7R4ZW9.s:108230  .debug_str:000000000004987b .LASF458
     /tmp/cc7R4ZW9.s:105144  .debug_str:000000000003c79f .LASF459
     /tmp/cc7R4ZW9.s:97164  .debug_str:000000000001bdac .LASF460
     /tmp/cc7R4ZW9.s:107600  .debug_str:0000000000046e27 .LASF461
     /tmp/cc7R4ZW9.s:106548  .debug_str:0000000000042986 .LASF462
     /tmp/cc7R4ZW9.s:92384  .debug_str:00000000000089fe .LASF463
     /tmp/cc7R4ZW9.s:105602  .debug_str:000000000003e6a6 .LASF464
     /tmp/cc7R4ZW9.s:90942  .debug_str:00000000000028e4 .LASF465
     /tmp/cc7R4ZW9.s:101910  .debug_str:000000000002f55d .LASF466
     /tmp/cc7R4ZW9.s:106766  .debug_str:000000000004380c .LASF467
     /tmp/cc7R4ZW9.s:97860  .debug_str:000000000001ee80 .LASF468
     /tmp/cc7R4ZW9.s:105476  .debug_str:000000000003ddd4 .LASF469
     /tmp/cc7R4ZW9.s:106020  .debug_str:00000000000400e7 .LASF470
     /tmp/cc7R4ZW9.s:95830  .debug_str:00000000000163c3 .LASF471
     /tmp/cc7R4ZW9.s:106930  .debug_str:00000000000442ff .LASF472
     /tmp/cc7R4ZW9.s:99458  .debug_str:00000000000259a8 .LASF473
     /tmp/cc7R4ZW9.s:109630  .debug_str:000000000004f7b7 .LASF474
     /tmp/cc7R4ZW9.s:101332  .debug_str:000000000002cf9c .LASF475
     /tmp/cc7R4ZW9.s:107314  .debug_str:0000000000045c23 .LASF476
     /tmp/cc7R4ZW9.s:94856  .debug_str:0000000000012599 .LASF477
     /tmp/cc7R4ZW9.s:98030  .debug_str:000000000001fb08 .LASF478
     /tmp/cc7R4ZW9.s:106900  .debug_str:0000000000044124 .LASF479
     /tmp/cc7R4ZW9.s:105974  .debug_str:000000000003fe35 .LASF480
     /tmp/cc7R4ZW9.s:91078  .debug_str:00000000000031de .LASF481
     /tmp/cc7R4ZW9.s:105182  .debug_str:000000000003ca46 .LASF482
     /tmp/cc7R4ZW9.s:97582  .debug_str:000000000001db4d .LASF483
     /tmp/cc7R4ZW9.s:107954  .debug_str:000000000004865e .LASF484
     /tmp/cc7R4ZW9.s:104996  .debug_str:000000000003bc7f .LASF485
     /tmp/cc7R4ZW9.s:109258  .debug_str:000000000004ded9 .LASF486
     /tmp/cc7R4ZW9.s:102372  .debug_str:00000000000312e4 .LASF487
     /tmp/cc7R4ZW9.s:96092  .debug_str:00000000000175a1 .LASF488
     /tmp/cc7R4ZW9.s:101760  .debug_str:000000000002eafe .LASF489
     /tmp/cc7R4ZW9.s:102298  .debug_str:0000000000030e9c .LASF490
     /tmp/cc7R4ZW9.s:103860  .debug_str:000000000003771c .LASF491
     /tmp/cc7R4ZW9.s:97138  .debug_str:000000000001bbba .LASF492
     /tmp/cc7R4ZW9.s:106632  .debug_str:0000000000042eeb .LASF493
     /tmp/cc7R4ZW9.s:91986  .debug_str:0000000000006f58 .LASF494
     /tmp/cc7R4ZW9.s:103772  .debug_str:00000000000371b4 .LASF495
     /tmp/cc7R4ZW9.s:94902  .debug_str:000000000001285f .LASF496
     /tmp/cc7R4ZW9.s:106002  .debug_str:000000000003ffdb .LASF497
     /tmp/cc7R4ZW9.s:98146  .debug_str:000000000002035d .LASF498
     /tmp/cc7R4ZW9.s:108322  .debug_str:0000000000049e52 .LASF499
     /tmp/cc7R4ZW9.s:103330  .debug_str:00000000000352ed .LASF500
     /tmp/cc7R4ZW9.s:93328  .debug_str:000000000000cb2c .LASF501
     /tmp/cc7R4ZW9.s:99318  .debug_str:0000000000025177 .LASF502
     /tmp/cc7R4ZW9.s:91818  .debug_str:00000000000062eb .LASF503
     /tmp/cc7R4ZW9.s:106650  .debug_str:0000000000042fee .LASF504
     /tmp/cc7R4ZW9.s:104242  .debug_str:0000000000038e5a .LASF505
     /tmp/cc7R4ZW9.s:92014  .debug_str:0000000000007112 .LASF506
     /tmp/cc7R4ZW9.s:108020  .debug_str:0000000000048a89 .LASF507
     /tmp/cc7R4ZW9.s:96564  .debug_str:0000000000019403 .LASF508
     /tmp/cc7R4ZW9.s:107358  .debug_str:0000000000045ed5 .LASF509
     /tmp/cc7R4ZW9.s:99440  .debug_str:0000000000025871 .LASF510
     /tmp/cc7R4ZW9.s:99106  .debug_str:0000000000024450 .LASF511
     /tmp/cc7R4ZW9.s:93232  .debug_str:000000000000c4b4 .LASF512
     /tmp/cc7R4ZW9.s:100324  .debug_str:000000000002903f .LASF513
     /tmp/cc7R4ZW9.s:109452  .debug_str:000000000004ec71 .LASF514
     /tmp/cc7R4ZW9.s:95136  .debug_str:00000000000138e6 .LASF515
     /tmp/cc7R4ZW9.s:98522  .debug_str:0000000000021d5e .LASF516
     /tmp/cc7R4ZW9.s:90930  .debug_str:00000000000027ef .LASF517
     /tmp/cc7R4ZW9.s:98492  .debug_str:0000000000021b0c .LASF518
     /tmp/cc7R4ZW9.s:103946  .debug_str:0000000000037c57 .LASF519
     /tmp/cc7R4ZW9.s:104860  .debug_str:000000000003b356 .LASF520
     /tmp/cc7R4ZW9.s:94500  .debug_str:0000000000010ef9 .LASF521
     /tmp/cc7R4ZW9.s:107918  .debug_str:00000000000483ed .LASF522
     /tmp/cc7R4ZW9.s:92074  .debug_str:000000000000751a .LASF523
     /tmp/cc7R4ZW9.s:96892  .debug_str:000000000001ab39 .LASF524
     /tmp/cc7R4ZW9.s:101746  .debug_str:000000000002ea06 .LASF525
     /tmp/cc7R4ZW9.s:97882  .debug_str:000000000001f00c .LASF526
     /tmp/cc7R4ZW9.s:102948  .debug_str:000000000003398a .LASF527
     /tmp/cc7R4ZW9.s:107108  .debug_str:0000000000044e8b .LASF528
     /tmp/cc7R4ZW9.s:93854  .debug_str:000000000000eae4 .LASF529
     /tmp/cc7R4ZW9.s:92102  .debug_str:000000000000770b .LASF530
     /tmp/cc7R4ZW9.s:97968  .debug_str:000000000001f6cb .LASF531
     /tmp/cc7R4ZW9.s:92104  .debug_str:000000000000775e .LASF532
     /tmp/cc7R4ZW9.s:103364  .debug_str:0000000000035564 .LASF533
     /tmp/cc7R4ZW9.s:98258  .debug_str:0000000000020bb6 .LASF534
     /tmp/cc7R4ZW9.s:90780  .debug_str:0000000000001d9b .LASF535
     /tmp/cc7R4ZW9.s:97190  .debug_str:000000000001bf5b .LASF536
     /tmp/cc7R4ZW9.s:103576  .debug_str:00000000000364c3 .LASF537
     /tmp/cc7R4ZW9.s:101684  .debug_str:000000000002e5a9 .LASF538
     /tmp/cc7R4ZW9.s:93342  .debug_str:000000000000cc66 .LASF539
     /tmp/cc7R4ZW9.s:102384  .debug_str:00000000000313bb .LASF540
     /tmp/cc7R4ZW9.s:109754  .debug_str:0000000000050006 .LASF541
     /tmp/cc7R4ZW9.s:96578  .debug_str:0000000000019548 .LASF542
     /tmp/cc7R4ZW9.s:99784  .debug_str:0000000000026c72 .LASF543
     /tmp/cc7R4ZW9.s:105266  .debug_str:000000000003cf62 .LASF544
     /tmp/cc7R4ZW9.s:92444  .debug_str:0000000000008e19 .LASF545
     /tmp/cc7R4ZW9.s:108362  .debug_str:000000000004a0f6 .LASF546
     /tmp/cc7R4ZW9.s:107798  .debug_str:0000000000047b8a .LASF547
     /tmp/cc7R4ZW9.s:98004  .debug_str:000000000001f98f .LASF548
     /tmp/cc7R4ZW9.s:96476  .debug_str:0000000000018dd5 .LASF549
     /tmp/cc7R4ZW9.s:95536  .debug_str:000000000001515c .LASF550
     /tmp/cc7R4ZW9.s:107764  .debug_str:0000000000047962 .LASF551
     /tmp/cc7R4ZW9.s:101248  .debug_str:000000000002ca42 .LASF552
     /tmp/cc7R4ZW9.s:106758  .debug_str:00000000000437a2 .LASF553
     /tmp/cc7R4ZW9.s:103148  .debug_str:000000000003466c .LASF554
     /tmp/cc7R4ZW9.s:95928  .debug_str:0000000000016a61 .LASF555
     /tmp/cc7R4ZW9.s:96202  .debug_str:0000000000017e0d .LASF556
     /tmp/cc7R4ZW9.s:96890  .debug_str:000000000001ab2e .LASF557
     /tmp/cc7R4ZW9.s:109768  .debug_str:0000000000050105 .LASF558
     /tmp/cc7R4ZW9.s:108340  .debug_str:0000000000049fd3 .LASF559
     /tmp/cc7R4ZW9.s:103890  .debug_str:000000000003799a .LASF560
     /tmp/cc7R4ZW9.s:98688  .debug_str:00000000000227ea .LASF561
     /tmp/cc7R4ZW9.s:92228  .debug_str:0000000000007f0e .LASF562
     /tmp/cc7R4ZW9.s:91296  .debug_str:000000000000401b .LASF563
     /tmp/cc7R4ZW9.s:91522  .debug_str:0000000000004fbf .LASF564
     /tmp/cc7R4ZW9.s:108754  .debug_str:000000000004bbc8 .LASF565
     /tmp/cc7R4ZW9.s:100252  .debug_str:0000000000028b7d .LASF566
     /tmp/cc7R4ZW9.s:106616  .debug_str:0000000000042e3e .LASF567
     /tmp/cc7R4ZW9.s:94470  .debug_str:0000000000010ce3 .LASF568
     /tmp/cc7R4ZW9.s:105978  .debug_str:000000000003fe72 .LASF569
     /tmp/cc7R4ZW9.s:104882  .debug_str:000000000003b4cb .LASF570
     /tmp/cc7R4ZW9.s:97256  .debug_str:000000000001c43c .LASF571
     /tmp/cc7R4ZW9.s:103528  .debug_str:000000000003619a .LASF572
     /tmp/cc7R4ZW9.s:99688  .debug_str:000000000002660e .LASF574
     /tmp/cc7R4ZW9.s:93822  .debug_str:000000000000e941 .LASF575
     /tmp/cc7R4ZW9.s:99328  .debug_str:000000000002521f .LASF578
     /tmp/cc7R4ZW9.s:99908  .debug_str:00000000000273d6 .LASF579
     /tmp/cc7R4ZW9.s:98666  .debug_str:0000000000022683 .LASF580
     /tmp/cc7R4ZW9.s:102890  .debug_str:0000000000033554 .LASF581
     /tmp/cc7R4ZW9.s:95182  .debug_str:0000000000013bcb .LASF583
     /tmp/cc7R4ZW9.s:98968  .debug_str:0000000000023b09 .LASF584
     /tmp/cc7R4ZW9.s:101220  .debug_str:000000000002c8cd .LASF585
     /tmp/cc7R4ZW9.s:102854  .debug_str:00000000000332ce .LASF586
     /tmp/cc7R4ZW9.s:105334  .debug_str:000000000003d3c2 .LASF587
     /tmp/cc7R4ZW9.s:96976  .debug_str:000000000001b0fb .LASF588
     /tmp/cc7R4ZW9.s:90854  .debug_str:0000000000002324 .LASF589
     /tmp/cc7R4ZW9.s:100150  .debug_str:00000000000283bc .LASF590
     /tmp/cc7R4ZW9.s:108682  .debug_str:000000000004b708 .LASF591
     /tmp/cc7R4ZW9.s:94028  .debug_str:000000000000f33b .LASF592
     /tmp/cc7R4ZW9.s:97696  .debug_str:000000000001e3ae .LASF593
     /tmp/cc7R4ZW9.s:90438  .debug_str:0000000000000570 .LASF594
     /tmp/cc7R4ZW9.s:103308  .debug_str:0000000000035164 .LASF595
     /tmp/cc7R4ZW9.s:91974  .debug_str:0000000000006e50 .LASF596
     /tmp/cc7R4ZW9.s:97146  .debug_str:000000000001bc66 .LASF597
     /tmp/cc7R4ZW9.s:96372  .debug_str:0000000000018862 .LASF598
     /tmp/cc7R4ZW9.s:104714  .debug_str:000000000003a902 .LASF599
     /tmp/cc7R4ZW9.s:93318  .debug_str:000000000000ca9c .LASF600
     /tmp/cc7R4ZW9.s:103328  .debug_str:00000000000352c9 .LASF601
     /tmp/cc7R4ZW9.s:97510  .debug_str:000000000001d62a .LASF602
     /tmp/cc7R4ZW9.s:94046  .debug_str:000000000000f48d .LASF603
     /tmp/cc7R4ZW9.s:107752  .debug_str:000000000004789f .LASF604
     /tmp/cc7R4ZW9.s:91506  .debug_str:0000000000004ebd .LASF605
     /tmp/cc7R4ZW9.s:108976  .debug_str:000000000004cad4 .LASF606
     /tmp/cc7R4ZW9.s:106838  .debug_str:0000000000043d20 .LASF607
     /tmp/cc7R4ZW9.s:108932  .debug_str:000000000004c77d .LASF608
     /tmp/cc7R4ZW9.s:98278  .debug_str:0000000000020d26 .LASF609
     /tmp/cc7R4ZW9.s:107612  .debug_str:0000000000046f25 .LASF610
     /tmp/cc7R4ZW9.s:108468  .debug_str:000000000004a748 .LASF611
     /tmp/cc7R4ZW9.s:98438  .debug_str:000000000002173a .LASF612
     /tmp/cc7R4ZW9.s:107188  .debug_str:00000000000453af .LASF613
     /tmp/cc7R4ZW9.s:96416  .debug_str:0000000000018a6d .LASF614
     /tmp/cc7R4ZW9.s:101916  .debug_str:000000000002f5e8 .LASF615
     /tmp/cc7R4ZW9.s:91336  .debug_str:0000000000004300 .LASF616
     /tmp/cc7R4ZW9.s:100210  .debug_str:000000000002882f .LASF617
     /tmp/cc7R4ZW9.s:98172  .debug_str:000000000002055e .LASF618
     /tmp/cc7R4ZW9.s:98904  .debug_str:0000000000023606 .LASF619
     /tmp/cc7R4ZW9.s:90712  .debug_str:000000000000181b .LASF620
     /tmp/cc7R4ZW9.s:100136  .debug_str:0000000000028305 .LASF621
     /tmp/cc7R4ZW9.s:94048  .debug_str:000000000000f4ad .LASF622
     /tmp/cc7R4ZW9.s:91348  .debug_str:0000000000004415 .LASF623
     /tmp/cc7R4ZW9.s:98622  .debug_str:00000000000223bb .LASF624
     /tmp/cc7R4ZW9.s:106206  .debug_str:0000000000040d0a .LASF625
     /tmp/cc7R4ZW9.s:103480  .debug_str:0000000000035e23 .LASF626
     /tmp/cc7R4ZW9.s:97268  .debug_str:000000000001c566 .LASF627
     /tmp/cc7R4ZW9.s:94030  .debug_str:000000000000f34b .LASF628
     /tmp/cc7R4ZW9.s:107240  .debug_str:00000000000456ad .LASF629
     /tmp/cc7R4ZW9.s:106412  .debug_str:0000000000041d0a .LASF630
     /tmp/cc7R4ZW9.s:103990  .debug_str:0000000000037f8b .LASF631
     /tmp/cc7R4ZW9.s:106442  .debug_str:000000000004219f .LASF632
     /tmp/cc7R4ZW9.s:105242  .debug_str:000000000003cdc2 .LASF633
     /tmp/cc7R4ZW9.s:100156  .debug_str:0000000000028411 .LASF634
     /tmp/cc7R4ZW9.s:99078  .debug_str:000000000002424e .LASF635
     /tmp/cc7R4ZW9.s:104552  .debug_str:0000000000039e96 .LASF636
     /tmp/cc7R4ZW9.s:107168  .debug_str:0000000000045274 .LASF637
     /tmp/cc7R4ZW9.s:92992  .debug_str:000000000000b42f .LASF638
     /tmp/cc7R4ZW9.s:90914  .debug_str:00000000000026e2 .LASF639
     /tmp/cc7R4ZW9.s:108436  .debug_str:000000000004a5a4 .LASF640
     /tmp/cc7R4ZW9.s:100960  .debug_str:000000000002b938 .LASF641
     /tmp/cc7R4ZW9.s:102430  .debug_str:0000000000031635 .LASF642
     /tmp/cc7R4ZW9.s:104216  .debug_str:0000000000038cec .LASF643
     /tmp/cc7R4ZW9.s:90814  .debug_str:000000000000202f .LASF644
     /tmp/cc7R4ZW9.s:99270  .debug_str:0000000000024f1e .LASF645
     /tmp/cc7R4ZW9.s:100272  .debug_str:0000000000028c89 .LASF646
     /tmp/cc7R4ZW9.s:99276  .debug_str:0000000000024f97 .LASF647
     /tmp/cc7R4ZW9.s:102976  .debug_str:0000000000033b3b .LASF648
     /tmp/cc7R4ZW9.s:105614  .debug_str:000000000003e73d .LASF649
     /tmp/cc7R4ZW9.s:109098  .debug_str:000000000004d378 .LASF650
     /tmp/cc7R4ZW9.s:95918  .debug_str:000000000001699c .LASF651
     /tmp/cc7R4ZW9.s:101974  .debug_str:000000000002f992 .LASF652
     /tmp/cc7R4ZW9.s:91982  .debug_str:0000000000006f12 .LASF653
     /tmp/cc7R4ZW9.s:92920  .debug_str:000000000000aec7 .LASF654
     /tmp/cc7R4ZW9.s:93924  .debug_str:000000000000edad .LASF655
     /tmp/cc7R4ZW9.s:105236  .debug_str:000000000003cd68 .LASF656
     /tmp/cc7R4ZW9.s:97570  .debug_str:000000000001da44 .LASF657
     /tmp/cc7R4ZW9.s:107894  .debug_str:000000000004828b .LASF658
     /tmp/cc7R4ZW9.s:98188  .debug_str:00000000000206bc .LASF659
     /tmp/cc7R4ZW9.s:103228  .debug_str:0000000000034c4e .LASF660
     /tmp/cc7R4ZW9.s:94488  .debug_str:0000000000010e75 .LASF661
     /tmp/cc7R4ZW9.s:98912  .debug_str:0000000000023754 .LASF662
     /tmp/cc7R4ZW9.s:95188  .debug_str:0000000000013c29 .LASF663
     /tmp/cc7R4ZW9.s:106710  .debug_str:0000000000043454 .LASF664
     /tmp/cc7R4ZW9.s:100078  .debug_str:0000000000027f55 .LASF665
     /tmp/cc7R4ZW9.s:98408  .debug_str:000000000002152c .LASF666
     /tmp/cc7R4ZW9.s:104802  .debug_str:000000000003af83 .LASF667
     /tmp/cc7R4ZW9.s:95744  .debug_str:0000000000015ec4 .LASF668
     /tmp/cc7R4ZW9.s:107982  .debug_str:0000000000048813 .LASF669
     /tmp/cc7R4ZW9.s:98040  .debug_str:000000000001fb95 .LASF670
     /tmp/cc7R4ZW9.s:105606  .debug_str:000000000003e6cc .LASF671
     /tmp/cc7R4ZW9.s:100664  .debug_str:000000000002a6c6 .LASF672
     /tmp/cc7R4ZW9.s:90638  .debug_str:00000000000012b0 .LASF673
     /tmp/cc7R4ZW9.s:101650  .debug_str:000000000002e3b3 .LASF674
     /tmp/cc7R4ZW9.s:107148  .debug_str:000000000004513e .LASF675
     /tmp/cc7R4ZW9.s:99152  .debug_str:00000000000247c8 .LASF676
     /tmp/cc7R4ZW9.s:106804  .debug_str:0000000000043ad5 .LASF677
     /tmp/cc7R4ZW9.s:96382  .debug_str:00000000000188fb .LASF678
     /tmp/cc7R4ZW9.s:102150  .debug_str:000000000003047c .LASF679
     /tmp/cc7R4ZW9.s:100968  .debug_str:000000000002b9d1 .LASF680
     /tmp/cc7R4ZW9.s:103648  .debug_str:00000000000369ed .LASF681
     /tmp/cc7R4ZW9.s:96742  .debug_str:000000000001a023 .LASF683
     /tmp/cc7R4ZW9.s:100880  .debug_str:000000000002b375 .LASF684
     /tmp/cc7R4ZW9.s:92076  .debug_str:0000000000007534 .LASF685
     /tmp/cc7R4ZW9.s:102106  .debug_str:00000000000301ed .LASF686
     /tmp/cc7R4ZW9.s:109412  .debug_str:000000000004e9f8 .LASF687
     /tmp/cc7R4ZW9.s:98642  .debug_str:00000000000225a9 .LASF688
     /tmp/cc7R4ZW9.s:94524  .debug_str:0000000000011000 .LASF689
     /tmp/cc7R4ZW9.s:108130  .debug_str:0000000000049193 .LASF690
     /tmp/cc7R4ZW9.s:105844  .debug_str:000000000003f602 .LASF691
     /tmp/cc7R4ZW9.s:105480  .debug_str:000000000003de1c .LASF692
     /tmp/cc7R4ZW9.s:91272  .debug_str:0000000000003e38 .LASF693
     /tmp/cc7R4ZW9.s:93488  .debug_str:000000000000d603 .LASF694
     /tmp/cc7R4ZW9.s:109086  .debug_str:000000000004d2b5 .LASF695
     /tmp/cc7R4ZW9.s:109614  .debug_str:000000000004f6a6 .LASF696
     /tmp/cc7R4ZW9.s:109476  .debug_str:000000000004ed88 .LASF697
     /tmp/cc7R4ZW9.s:93224  .debug_str:000000000000c449 .LASF698
     /tmp/cc7R4ZW9.s:91184  .debug_str:0000000000003858 .LASF699
     /tmp/cc7R4ZW9.s:96448  .debug_str:0000000000018c77 .LASF702
     /tmp/cc7R4ZW9.s:92302  .debug_str:0000000000008412 .LASF703
     /tmp/cc7R4ZW9.s:102410  .debug_str:000000000003151b .LASF704
     /tmp/cc7R4ZW9.s:105038  .debug_str:000000000003bf80 .LASF705
     /tmp/cc7R4ZW9.s:101400  .debug_str:000000000002d3b2 .LASF706
     /tmp/cc7R4ZW9.s:96170  .debug_str:0000000000017b6b .LASF707
     /tmp/cc7R4ZW9.s:101708  .debug_str:000000000002e736 .LASF708
     /tmp/cc7R4ZW9.s:103556  .debug_str:0000000000036335 .LASF709
     /tmp/cc7R4ZW9.s:108520  .debug_str:000000000004ab38 .LASF710
     /tmp/cc7R4ZW9.s:107272  .debug_str:00000000000458ca .LASF711
     /tmp/cc7R4ZW9.s:103392  .debug_str:000000000003575b .LASF714
     /tmp/cc7R4ZW9.s:104798  .debug_str:000000000003af04 .LASF715
     /tmp/cc7R4ZW9.s:108670  .debug_str:000000000004b626 .LASF716
     /tmp/cc7R4ZW9.s:93898  .debug_str:000000000000ed37 .LASF717
     /tmp/cc7R4ZW9.s:108052  .debug_str:0000000000048c6b .LASF718
     /tmp/cc7R4ZW9.s:97010  .debug_str:000000000001b31e .LASF719
     /tmp/cc7R4ZW9.s:102688  .debug_str:00000000000327c3 .LASF720
     /tmp/cc7R4ZW9.s:92852  .debug_str:000000000000aa26 .LASF721
     /tmp/cc7R4ZW9.s:109510  .debug_str:000000000004efdc .LASF722
     /tmp/cc7R4ZW9.s:99514  .debug_str:0000000000025c34 .LASF723
     /tmp/cc7R4ZW9.s:108490  .debug_str:000000000004a8ce .LASF724
     /tmp/cc7R4ZW9.s:104498  .debug_str:0000000000039b7b .LASF725
     /tmp/cc7R4ZW9.s:92128  .debug_str:000000000000790e .LASF726
     /tmp/cc7R4ZW9.s:101656  .debug_str:000000000002e402 .LASF727
     /tmp/cc7R4ZW9.s:102166  .debug_str:00000000000305b2 .LASF728
     /tmp/cc7R4ZW9.s:95620  .debug_str:00000000000156b7 .LASF729
     /tmp/cc7R4ZW9.s:99312  .debug_str:000000000002512d .LASF730
     /tmp/cc7R4ZW9.s:101028  .debug_str:000000000002bceb .LASF731
     /tmp/cc7R4ZW9.s:96062  .debug_str:0000000000017361 .LASF732
     /tmp/cc7R4ZW9.s:99702  .debug_str:000000000002670e .LASF733
     /tmp/cc7R4ZW9.s:102252  .debug_str:0000000000030ba4 .LASF734
     /tmp/cc7R4ZW9.s:98564  .debug_str:0000000000022070 .LASF735
     /tmp/cc7R4ZW9.s:109460  .debug_str:000000000004ecee .LASF736
     /tmp/cc7R4ZW9.s:109212  .debug_str:000000000004dad0 .LASF737
     /tmp/cc7R4ZW9.s:108424  .debug_str:000000000004a51a .LASF738
     /tmp/cc7R4ZW9.s:108164  .debug_str:000000000004943a .LASF739
     /tmp/cc7R4ZW9.s:97318  .debug_str:000000000001c912 .LASF740
     /tmp/cc7R4ZW9.s:105104  .debug_str:000000000003c4b7 .LASF741
     /tmp/cc7R4ZW9.s:90824  .debug_str:00000000000020d2 .LASF742
     /tmp/cc7R4ZW9.s:92938  .debug_str:000000000000afe4 .LASF743
     /tmp/cc7R4ZW9.s:94564  .debug_str:00000000000112cd .LASF744
     /tmp/cc7R4ZW9.s:93080  .debug_str:000000000000ba31 .LASF745
     /tmp/cc7R4ZW9.s:109546  .debug_str:000000000004f28a .LASF746
     /tmp/cc7R4ZW9.s:100826  .debug_str:000000000002b0fb .LASF747
     /tmp/cc7R4ZW9.s:100966  .debug_str:000000000002b9c0 .LASF748
     /tmp/cc7R4ZW9.s:102496  .debug_str:0000000000031ac3 .LASF749
     /tmp/cc7R4ZW9.s:109192  .debug_str:000000000004d95a .LASF750
     /tmp/cc7R4ZW9.s:96836  .debug_str:000000000001a714 .LASF751
     /tmp/cc7R4ZW9.s:105860  .debug_str:000000000003f6e2 .LASF752
     /tmp/cc7R4ZW9.s:99662  .debug_str:00000000000264a7 .LASF753
     /tmp/cc7R4ZW9.s:101174  .debug_str:000000000002c5ee .LASF754
     /tmp/cc7R4ZW9.s:102328  .debug_str:0000000000031062 .LASF755
     /tmp/cc7R4ZW9.s:107858  .debug_str:0000000000047fd7 .LASF756
     /tmp/cc7R4ZW9.s:109422  .debug_str:000000000004ea7a .LASF757
     /tmp/cc7R4ZW9.s:97658  .debug_str:000000000001e0d4 .LASF759
     /tmp/cc7R4ZW9.s:97220  .debug_str:000000000001c204 .LASF760
     /tmp/cc7R4ZW9.s:108978  .debug_str:000000000004cafc .LASF761
     /tmp/cc7R4ZW9.s:91520  .debug_str:0000000000004fb4 .LASF762
     /tmp/cc7R4ZW9.s:90412  .debug_str:0000000000000372 .LASF763
     /tmp/cc7R4ZW9.s:93168  .debug_str:000000000000c112 .LASF764
     /tmp/cc7R4ZW9.s:100666  .debug_str:000000000002a6d9 .LASF765
     /tmp/cc7R4ZW9.s:90562  .debug_str:0000000000000d9f .LASF766
     /tmp/cc7R4ZW9.s:97378  .debug_str:000000000001cd4e .LASF767
     /tmp/cc7R4ZW9.s:92832  .debug_str:000000000000a90c .LASF768
     /tmp/cc7R4ZW9.s:101230  .debug_str:000000000002c93e .LASF769
     /tmp/cc7R4ZW9.s:102452  .debug_str:000000000003180e .LASF770
     /tmp/cc7R4ZW9.s:107304  .debug_str:0000000000045bb7 .LASF771
     /tmp/cc7R4ZW9.s:93504  .debug_str:000000000000d72f .LASF774
     /tmp/cc7R4ZW9.s:104818  .debug_str:000000000003b062 .LASF775
     /tmp/cc7R4ZW9.s:90898  .debug_str:00000000000025d6 .LASF776
     /tmp/cc7R4ZW9.s:91334  .debug_str:00000000000042f2 .LASF777
     /tmp/cc7R4ZW9.s:102524  .debug_str:0000000000031c79 .LASF778
     /tmp/cc7R4ZW9.s:97188  .debug_str:000000000001bf4e .LASF779
     /tmp/cc7R4ZW9.s:98726  .debug_str:0000000000022a8e .LASF780
     /tmp/cc7R4ZW9.s:105006  .debug_str:000000000003bd5b .LASF781
     /tmp/cc7R4ZW9.s:98964  .debug_str:0000000000023abf .LASF782
     /tmp/cc7R4ZW9.s:91788  .debug_str:0000000000006128 .LASF783
     /tmp/cc7R4ZW9.s:107310  .debug_str:0000000000045c01 .LASF784
     /tmp/cc7R4ZW9.s:104670  .debug_str:000000000003a63a .LASF785
     /tmp/cc7R4ZW9.s:109174  .debug_str:000000000004d7ee .LASF786
     /tmp/cc7R4ZW9.s:104700  .debug_str:000000000003a823 .LASF787
     /tmp/cc7R4ZW9.s:93760  .debug_str:000000000000e5dd .LASF788
     /tmp/cc7R4ZW9.s:96266  .debug_str:0000000000018186 .LASF789
     /tmp/cc7R4ZW9.s:109110  .debug_str:000000000004d43b .LASF790
     /tmp/cc7R4ZW9.s:107492  .debug_str:000000000004679e .LASF791
     /tmp/cc7R4ZW9.s:93970  .debug_str:000000000000f05b .LASF792
     /tmp/cc7R4ZW9.s:92208  .debug_str:0000000000007df4 .LASF793
     /tmp/cc7R4ZW9.s:102082  .debug_str:00000000000300b2 .LASF794
     /tmp/cc7R4ZW9.s:100316  .debug_str:0000000000028fcb .LASF795
     /tmp/cc7R4ZW9.s:106184  .debug_str:0000000000040bb7 .LASF796
     /tmp/cc7R4ZW9.s:98348  .debug_str:000000000002112d .LASF797
     /tmp/cc7R4ZW9.s:103764  .debug_str:0000000000037154 .LASF798
     /tmp/cc7R4ZW9.s:105772  .debug_str:000000000003f15d .LASF799
     /tmp/cc7R4ZW9.s:93880  .debug_str:000000000000ec85 .LASF800
     /tmp/cc7R4ZW9.s:95932  .debug_str:0000000000016aaa .LASF801
     /tmp/cc7R4ZW9.s:108238  .debug_str:00000000000498c8 .LASF802
     /tmp/cc7R4ZW9.s:104858  .debug_str:000000000003b34b .LASF803
     /tmp/cc7R4ZW9.s:95504  .debug_str:0000000000014f88 .LASF804
     /tmp/cc7R4ZW9.s:90862  .debug_str:00000000000023b0 .LASF805
     /tmp/cc7R4ZW9.s:93630  .debug_str:000000000000de54 .LASF806
     /tmp/cc7R4ZW9.s:97498  .debug_str:000000000001d539 .LASF807
     /tmp/cc7R4ZW9.s:90952  .debug_str:00000000000029ae .LASF808
     /tmp/cc7R4ZW9.s:105910  .debug_str:000000000003fa67 .LASF809
     /tmp/cc7R4ZW9.s:103744  .debug_str:0000000000036ff0 .LASF810
     /tmp/cc7R4ZW9.s:102212  .debug_str:0000000000030944 .LASF811
     /tmp/cc7R4ZW9.s:107668  .debug_str:000000000004733d .LASF812
     /tmp/cc7R4ZW9.s:98022  .debug_str:000000000001fabb .LASF813
     /tmp/cc7R4ZW9.s:104884  .debug_str:000000000003b4da .LASF814
     /tmp/cc7R4ZW9.s:95128  .debug_str:000000000001384c .LASF815
     /tmp/cc7R4ZW9.s:106518  .debug_str:000000000004276d .LASF816
     /tmp/cc7R4ZW9.s:91356  .debug_str:00000000000044b7 .LASF817
     /tmp/cc7R4ZW9.s:109144  .debug_str:000000000004d5c9 .LASF818
     /tmp/cc7R4ZW9.s:105714  .debug_str:000000000003eda5 .LASF819
     /tmp/cc7R4ZW9.s:104146  .debug_str:00000000000388e6 .LASF820
     /tmp/cc7R4ZW9.s:102016  .debug_str:000000000002fc3a .LASF821
     /tmp/cc7R4ZW9.s:92554  .debug_str:00000000000095c6 .LASF822
     /tmp/cc7R4ZW9.s:96898  .debug_str:000000000001abd2 .LASF823
     /tmp/cc7R4ZW9.s:103870  .debug_str:00000000000377ad .LASF824
     /tmp/cc7R4ZW9.s:97496  .debug_str:000000000001d52c .LASF825
     /tmp/cc7R4ZW9.s:91158  .debug_str:0000000000003662 .LASF827
     /tmp/cc7R4ZW9.s:101828  .debug_str:000000000002ef83 .LASF829
     /tmp/cc7R4ZW9.s:91174  .debug_str:0000000000003797 .LASF830
     /tmp/cc7R4ZW9.s:94108  .debug_str:000000000000f839 .LASF831
     /tmp/cc7R4ZW9.s:91996  .debug_str:000000000000702e .LASF832
     /tmp/cc7R4ZW9.s:99180  .debug_str:0000000000024961 .LASF833
     /tmp/cc7R4ZW9.s:106542  .debug_str:0000000000042952 .LASF834
     /tmp/cc7R4ZW9.s:96154  .debug_str:0000000000017a94 .LASF835
     /tmp/cc7R4ZW9.s:106504  .debug_str:0000000000042653 .LASF836
     /tmp/cc7R4ZW9.s:92176  .debug_str:0000000000007bf3 .LASF837
     /tmp/cc7R4ZW9.s:93478  .debug_str:000000000000d589 .LASF838
     /tmp/cc7R4ZW9.s:93712  .debug_str:000000000000e2f7 .LASF843
     /tmp/cc7R4ZW9.s:95786  .debug_str:0000000000016105 .LASF844
     /tmp/cc7R4ZW9.s:100874  .debug_str:000000000002b335 .LASF845
     /tmp/cc7R4ZW9.s:100496  .debug_str:0000000000029b75 .LASF846
     /tmp/cc7R4ZW9.s:109472  .debug_str:000000000004ed50 .LASF847
     /tmp/cc7R4ZW9.s:107190  .debug_str:00000000000453c7 .LASF849
     /tmp/cc7R4ZW9.s:90732  .debug_str:0000000000001a2f .LASF850
     /tmp/cc7R4ZW9.s:103720  .debug_str:0000000000036ec4 .LASF851
     /tmp/cc7R4ZW9.s:100460  .debug_str:0000000000029931 .LASF853
     /tmp/cc7R4ZW9.s:109518  .debug_str:000000000004f0a9 .LASF854
     /tmp/cc7R4ZW9.s:102228  .debug_str:0000000000030a42 .LASF855
     /tmp/cc7R4ZW9.s:103028  .debug_str:0000000000033ee7 .LASF856
     /tmp/cc7R4ZW9.s:90842  .debug_str:0000000000002248 .LASF857
     /tmp/cc7R4ZW9.s:93280  .debug_str:000000000000c7e2 .LASF858
     /tmp/cc7R4ZW9.s:102090  .debug_str:0000000000030136 .LASF859
     /tmp/cc7R4ZW9.s:100164  .debug_str:00000000000284c6 .LASF860
     /tmp/cc7R4ZW9.s:108282  .debug_str:0000000000049b71 .LASF861
     /tmp/cc7R4ZW9.s:104376  .debug_str:00000000000394bd .LASF862
     /tmp/cc7R4ZW9.s:103248  .debug_str:0000000000034e0e .LASF863
     /tmp/cc7R4ZW9.s:107444  .debug_str:00000000000464b1 .LASF864
     /tmp/cc7R4ZW9.s:103548  .debug_str:00000000000362c9 .LASF865
     /tmp/cc7R4ZW9.s:97284  .debug_str:000000000001c6f1 .LASF866
     /tmp/cc7R4ZW9.s:103604  .debug_str:00000000000366ed .LASF867
     /tmp/cc7R4ZW9.s:102774  .debug_str:0000000000032de5 .LASF868
     /tmp/cc7R4ZW9.s:96484  .debug_str:0000000000018e85 .LASF869
     /tmp/cc7R4ZW9.s:108522  .debug_str:000000000004ac0f .LASF870
     /tmp/cc7R4ZW9.s:93736  .debug_str:000000000000e484 .LASF871
     /tmp/cc7R4ZW9.s:104260  .debug_str:0000000000038fa4 .LASF872
     /tmp/cc7R4ZW9.s:91912  .debug_str:000000000000696e .LASF873
     /tmp/cc7R4ZW9.s:94562  .debug_str:00000000000112bf .LASF874
     /tmp/cc7R4ZW9.s:97356  .debug_str:000000000001cc31 .LASF875
     /tmp/cc7R4ZW9.s:104500  .debug_str:0000000000039bff .LASF876
     /tmp/cc7R4ZW9.s:109706  .debug_str:000000000004fcef .LASF877
     /tmp/cc7R4ZW9.s:107864  .debug_str:000000000004802a .LASF878
     /tmp/cc7R4ZW9.s:104460  .debug_str:000000000003990c .LASF879
     /tmp/cc7R4ZW9.s:94742  .debug_str:0000000000011dfb .LASF880
     /tmp/cc7R4ZW9.s:103358  .debug_str:0000000000035523 .LASF881
     /tmp/cc7R4ZW9.s:91768  .debug_str:0000000000005fa0 .LASF882
     /tmp/cc7R4ZW9.s:105946  .debug_str:000000000003fc8c .LASF883
     /tmp/cc7R4ZW9.s:98470  .debug_str:0000000000021961 .LASF884
     /tmp/cc7R4ZW9.s:106966  .debug_str:000000000004452a .LASF885
     /tmp/cc7R4ZW9.s:98014  .debug_str:000000000001fa28 .LASF886
     /tmp/cc7R4ZW9.s:98820  .debug_str:0000000000023089 .LASF887
     /tmp/cc7R4ZW9.s:106944  .debug_str:00000000000443bd .LASF888
     /tmp/cc7R4ZW9.s:108316  .debug_str:0000000000049dd1 .LASF889
     /tmp/cc7R4ZW9.s:100148  .debug_str:00000000000283a4 .LASF890
     /tmp/cc7R4ZW9.s:98190  .debug_str:00000000000206d6 .LASF891
     /tmp/cc7R4ZW9.s:102284  .debug_str:0000000000030dbd .LASF892
     /tmp/cc7R4ZW9.s:101258  .debug_str:000000000002caea .LASF893
     /tmp/cc7R4ZW9.s:97250  .debug_str:000000000001c3c0 .LASF894
     /tmp/cc7R4ZW9.s:109260  .debug_str:000000000004df04 .LASF895
     /tmp/cc7R4ZW9.s:94076  .debug_str:000000000000f74a .LASF896
     /tmp/cc7R4ZW9.s:107692  .debug_str:000000000004747f .LASF897
     /tmp/cc7R4ZW9.s:100522  .debug_str:0000000000029d0c .LASF898
     /tmp/cc7R4ZW9.s:91838  .debug_str:0000000000006478 .LASF899
     /tmp/cc7R4ZW9.s:107690  .debug_str:0000000000047457 .LASF900
     /tmp/cc7R4ZW9.s:94972  .debug_str:0000000000012d9d .LASF901
     /tmp/cc7R4ZW9.s:98808  .debug_str:0000000000022fcb .LASF902
     /tmp/cc7R4ZW9.s:107906  .debug_str:000000000004834a .LASF903
     /tmp/cc7R4ZW9.s:90936  .debug_str:00000000000028a3 .LASF904
     /tmp/cc7R4ZW9.s:102402  .debug_str:00000000000314ab .LASF905
     /tmp/cc7R4ZW9.s:96188  .debug_str:0000000000017d03 .LASF906
     /tmp/cc7R4ZW9.s:106046  .debug_str:0000000000040274 .LASF907
     /tmp/cc7R4ZW9.s:91524  .debug_str:0000000000004fcb .LASF908
     /tmp/cc7R4ZW9.s:92082  .debug_str:000000000000757e .LASF909
     /tmp/cc7R4ZW9.s:108228  .debug_str:0000000000049850 .LASF910
     /tmp/cc7R4ZW9.s:104036  .debug_str:0000000000038222 .LASF911
     /tmp/cc7R4ZW9.s:107446  .debug_str:00000000000464b9 .LASF912
     /tmp/cc7R4ZW9.s:90580  .debug_str:0000000000000ed3 .LASF913
     /tmp/cc7R4ZW9.s:94806  .debug_str:0000000000012282 .LASF914
     /tmp/cc7R4ZW9.s:108290  .debug_str:0000000000049bd7 .LASF915
     /tmp/cc7R4ZW9.s:90698  .debug_str:00000000000016d3 .LASF916
     /tmp/cc7R4ZW9.s:108774  .debug_str:000000000004bd46 .LASF917
     /tmp/cc7R4ZW9.s:90786  .debug_str:0000000000001e4f .LASF918
     /tmp/cc7R4ZW9.s:107712  .debug_str:0000000000047567 .LASF919
     /tmp/cc7R4ZW9.s:101624  .debug_str:000000000002e1df .LASF920
     /tmp/cc7R4ZW9.s:101390  .debug_str:000000000002d330 .LASF921
     /tmp/cc7R4ZW9.s:102784  .debug_str:0000000000032e5d .LASF922
     /tmp/cc7R4ZW9.s:108716  .debug_str:000000000004b9a1 .LASF923
     /tmp/cc7R4ZW9.s:103010  .debug_str:0000000000033dbf .LASF924
     /tmp/cc7R4ZW9.s:105162  .debug_str:000000000003c913 .LASF925
     /tmp/cc7R4ZW9.s:107590  .debug_str:0000000000046d91 .LASF926
     /tmp/cc7R4ZW9.s:91514  .debug_str:0000000000004f53 .LASF927
     /tmp/cc7R4ZW9.s:91896  .debug_str:000000000000683f .LASF928
     /tmp/cc7R4ZW9.s:101788  .debug_str:000000000002ed13 .LASF929
     /tmp/cc7R4ZW9.s:107186  .debug_str:0000000000045388 .LASF930
     /tmp/cc7R4ZW9.s:100986  .debug_str:000000000002bb0d .LASF931
     /tmp/cc7R4ZW9.s:107738  .debug_str:000000000004777e .LASF932
     /tmp/cc7R4ZW9.s:101440  .debug_str:000000000002d627 .LASF933
     /tmp/cc7R4ZW9.s:100180  .debug_str:00000000000285dd .LASF934
     /tmp/cc7R4ZW9.s:98536  .debug_str:0000000000021ecd .LASF935
     /tmp/cc7R4ZW9.s:103532  .debug_str:00000000000361b3 .LASF936
     /tmp/cc7R4ZW9.s:109324  .debug_str:000000000004e3af .LASF937
     /tmp/cc7R4ZW9.s:109154  .debug_str:000000000004d68d .LASF938
     /tmp/cc7R4ZW9.s:106004  .debug_str:0000000000040008 .LASF939
     /tmp/cc7R4ZW9.s:103804  .debug_str:0000000000037458 .LASF940
     /tmp/cc7R4ZW9.s:95796  .debug_str:00000000000161bb .LASF941
     /tmp/cc7R4ZW9.s:103694  .debug_str:0000000000036cfb .LASF942
     /tmp/cc7R4ZW9.s:108406  .debug_str:000000000004a41e .LASF943
     /tmp/cc7R4ZW9.s:107632  .debug_str:00000000000470c0 .LASF944
     /tmp/cc7R4ZW9.s:94244  .debug_str:0000000000010109 .LASF945
     /tmp/cc7R4ZW9.s:95242  .debug_str:0000000000013f53 .LASF946
     /tmp/cc7R4ZW9.s:91990  .debug_str:0000000000006fbd .LASF948
     /tmp/cc7R4ZW9.s:108916  .debug_str:000000000004c644 .LASF949
     /tmp/cc7R4ZW9.s:97470  .debug_str:000000000001d397 .LASF950
     /tmp/cc7R4ZW9.s:97866  .debug_str:000000000001eeec .LASF951
     /tmp/cc7R4ZW9.s:104584  .debug_str:000000000003a045 .LASF952
     /tmp/cc7R4ZW9.s:99126  .debug_str:000000000002457c .LASF953
     /tmp/cc7R4ZW9.s:103600  .debug_str:000000000003666b .LASF954
     /tmp/cc7R4ZW9.s:108512  .debug_str:000000000004aa66 .LASF955
     /tmp/cc7R4ZW9.s:94238  .debug_str:0000000000010099 .LASF956
     /tmp/cc7R4ZW9.s:99148  .debug_str:0000000000024775 .LASF957
     /tmp/cc7R4ZW9.s:103952  .debug_str:0000000000037cbb .LASF958
     /tmp/cc7R4ZW9.s:108746  .debug_str:000000000004bb4c .LASF959
     /tmp/cc7R4ZW9.s:94136  .debug_str:000000000000fa76 .LASF960
     /tmp/cc7R4ZW9.s:92442  .debug_str:0000000000008dd6 .LASF961
     /tmp/cc7R4ZW9.s:94434  .debug_str:0000000000010a6b .LASF962
     /tmp/cc7R4ZW9.s:107260  .debug_str:000000000004582d .LASF963
     /tmp/cc7R4ZW9.s:98092  .debug_str:000000000001ff68 .LASF964
     /tmp/cc7R4ZW9.s:104456  .debug_str:0000000000039888 .LASF965
     /tmp/cc7R4ZW9.s:91428  .debug_str:000000000000494e .LASF966
     /tmp/cc7R4ZW9.s:93122  .debug_str:000000000000bdc2 .LASF967
     /tmp/cc7R4ZW9.s:102836  .debug_str:000000000003318e .LASF968
     /tmp/cc7R4ZW9.s:92724  .debug_str:000000000000a1a3 .LASF969
     /tmp/cc7R4ZW9.s:97302  .debug_str:000000000001c7ef .LASF970
     /tmp/cc7R4ZW9.s:108622  .debug_str:000000000004b2a0 .LASF971
     /tmp/cc7R4ZW9.s:98750  .debug_str:0000000000022bea .LASF972
     /tmp/cc7R4ZW9.s:97488  .debug_str:000000000001d49b .LASF973
     /tmp/cc7R4ZW9.s:98554  .debug_str:0000000000021fb4 .LASF974
     /tmp/cc7R4ZW9.s:102652  .debug_str:000000000003252d .LASF975
     /tmp/cc7R4ZW9.s:93252  .debug_str:000000000000c5f4 .LASF976
     /tmp/cc7R4ZW9.s:93000  .debug_str:000000000000b4ec .LASF977
     /tmp/cc7R4ZW9.s:102704  .debug_str:00000000000328cd .LASF978
     /tmp/cc7R4ZW9.s:90414  .debug_str:000000000000038a .LASF979
     /tmp/cc7R4ZW9.s:102476  .debug_str:00000000000319a1 .LASF980
     /tmp/cc7R4ZW9.s:108500  .debug_str:000000000004a98e .LASF981
     /tmp/cc7R4ZW9.s:98630  .debug_str:00000000000224ba .LASF982
     /tmp/cc7R4ZW9.s:108298  .debug_str:0000000000049c75 .LASF983
     /tmp/cc7R4ZW9.s:106620  .debug_str:0000000000042e71 .LASF984
     /tmp/cc7R4ZW9.s:93084  .debug_str:000000000000ba5b .LASF985
     /tmp/cc7R4ZW9.s:102798  .debug_str:0000000000032f47 .LASF986
     /tmp/cc7R4ZW9.s:92870  .debug_str:000000000000ab27 .LASF987
     /tmp/cc7R4ZW9.s:102574  .debug_str:0000000000031f59 .LASF988
     /tmp/cc7R4ZW9.s:92476  .debug_str:0000000000009058 .LASF989
     /tmp/cc7R4ZW9.s:100278  .debug_str:0000000000028cf5 .LASF990
     /tmp/cc7R4ZW9.s:108386  .debug_str:000000000004a256 .LASF991
     /tmp/cc7R4ZW9.s:98516  .debug_str:0000000000021ccd .LASF992
     /tmp/cc7R4ZW9.s:108182  .debug_str:000000000004951b .LASF993
     /tmp/cc7R4ZW9.s:98300  .debug_str:0000000000020e2f .LASF994
     /tmp/cc7R4ZW9.s:92968  .debug_str:000000000000b28c .LASF995
     /tmp/cc7R4ZW9.s:102672  .debug_str:00000000000326bb .LASF996
     /tmp/cc7R4ZW9.s:92742  .debug_str:000000000000a307 .LASF997
     /tmp/cc7R4ZW9.s:102442  .debug_str:0000000000031702 .LASF998
     /tmp/cc7R4ZW9.s:99310  .debug_str:00000000000250f3 .LASF999
     /tmp/cc7R4ZW9.s:93334  .debug_str:000000000000cbe0 .LASF1000
     /tmp/cc7R4ZW9.s:106970  .debug_str:000000000004454b .LASF1001
     /tmp/cc7R4ZW9.s:106814  .debug_str:0000000000043b84 .LASF1002
     /tmp/cc7R4ZW9.s:100254  .debug_str:0000000000028b8e .LASF1003
     /tmp/cc7R4ZW9.s:103192  .debug_str:0000000000034913 .LASF1004
     /tmp/cc7R4ZW9.s:102894  .debug_str:0000000000033571 .LASF1005
     /tmp/cc7R4ZW9.s:102606  .debug_str:0000000000032175 .LASF1006
     /tmp/cc7R4ZW9.s:95690  .debug_str:0000000000015b6f .LASF1007
     /tmp/cc7R4ZW9.s:109716  .debug_str:000000000004fd96 .LASF1008
     /tmp/cc7R4ZW9.s:103250  .debug_str:0000000000034e15 .LASF1009
     /tmp/cc7R4ZW9.s:107390  .debug_str:00000000000460fc .LASF1010
     /tmp/cc7R4ZW9.s:107082  .debug_str:0000000000044c82 .LASF1011
     /tmp/cc7R4ZW9.s:106808  .debug_str:0000000000043b08 .LASF1012
     /tmp/cc7R4ZW9.s:90752  .debug_str:0000000000001b5b .LASF1013
     /tmp/cc7R4ZW9.s:106236  .debug_str:000000000004106e .LASF1014
     /tmp/cc7R4ZW9.s:108514  .debug_str:000000000004aaa8 .LASF1015
     /tmp/cc7R4ZW9.s:103786  .debug_str:00000000000372c7 .LASF1016
     /tmp/cc7R4ZW9.s:98002  .debug_str:000000000001f948 .LASF1017
     /tmp/cc7R4ZW9.s:97702  .debug_str:000000000001e41c .LASF1018
     /tmp/cc7R4ZW9.s:95816  .debug_str:00000000000162ba .LASF1019
     /tmp/cc7R4ZW9.s:109178  .debug_str:000000000004d81e .LASF1020
     /tmp/cc7R4ZW9.s:102872  .debug_str:00000000000333f9 .LASF1021
     /tmp/cc7R4ZW9.s:98184  .debug_str:0000000000020667 .LASF1022
     /tmp/cc7R4ZW9.s:102160  .debug_str:0000000000030512 .LASF1023
     /tmp/cc7R4ZW9.s:101884  .debug_str:000000000002f321 .LASF1024
     /tmp/cc7R4ZW9.s:90890  .debug_str:0000000000002528 .LASF1025
     /tmp/cc7R4ZW9.s:102130  .debug_str:000000000003034d .LASF1026
     /tmp/cc7R4ZW9.s:104876  .debug_str:000000000003b44f .LASF1027
     /tmp/cc7R4ZW9.s:92602  .debug_str:0000000000009940 .LASF1028
     /tmp/cc7R4ZW9.s:94652  .debug_str:00000000000117f5 .LASF1029
     /tmp/cc7R4ZW9.s:109172  .debug_str:000000000004d7a9 .LASF1030
     /tmp/cc7R4ZW9.s:103902  .debug_str:0000000000037a5b .LASF1031
     /tmp/cc7R4ZW9.s:91340  .debug_str:0000000000004339 .LASF1032
     /tmp/cc7R4ZW9.s:90602  .debug_str:000000000000106d .LASF1033
     /tmp/cc7R4ZW9.s:101670  .debug_str:000000000002e4a2 .LASF1034
     /tmp/cc7R4ZW9.s:99628  .debug_str:00000000000262ae .LASF1035
     /tmp/cc7R4ZW9.s:109196  .debug_str:000000000004d99d .LASF1036
     /tmp/cc7R4ZW9.s:108966  .debug_str:000000000004c9f6 .LASF1037
     /tmp/cc7R4ZW9.s:109722  .debug_str:000000000004fe14 .LASF1038
     /tmp/cc7R4ZW9.s:95698  .debug_str:0000000000015c5a .LASF1039
     /tmp/cc7R4ZW9.s:101204  .debug_str:000000000002c7dd .LASF1040
     /tmp/cc7R4ZW9.s:106526  .debug_str:0000000000042836 .LASF1041
     /tmp/cc7R4ZW9.s:94482  .debug_str:0000000000010ddf .LASF1042
     /tmp/cc7R4ZW9.s:91282  .debug_str:0000000000003ee7 .LASF1043
     /tmp/cc7R4ZW9.s:105380  .debug_str:000000000003d69f .LASF1044
     /tmp/cc7R4ZW9.s:102242  .debug_str:0000000000030af7 .LASF1045
     /tmp/cc7R4ZW9.s:107604  .debug_str:0000000000046e7f .LASF1046
     /tmp/cc7R4ZW9.s:102208  .debug_str:00000000000308dc .LASF1047
     /tmp/cc7R4ZW9.s:107840  .debug_str:0000000000047e9e .LASF1048
     /tmp/cc7R4ZW9.s:97936  .debug_str:000000000001f45c .LASF1049
     /tmp/cc7R4ZW9.s:107484  .debug_str:000000000004672c .LASF1050
     /tmp/cc7R4ZW9.s:97708  .debug_str:000000000001e49c .LASF1051
     /tmp/cc7R4ZW9.s:103888  .debug_str:0000000000037958 .LASF1052
     /tmp/cc7R4ZW9.s:93828  .debug_str:000000000000e964 .LASF1053
     /tmp/cc7R4ZW9.s:103660  .debug_str:0000000000036a9e .LASF1054
     /tmp/cc7R4ZW9.s:90784  .debug_str:0000000000001e0d .LASF1055
     /tmp/cc7R4ZW9.s:98544  .debug_str:0000000000021f2d .LASF1056
     /tmp/cc7R4ZW9.s:106174  .debug_str:0000000000040ac1 .LASF1057
     /tmp/cc7R4ZW9.s:107718  .debug_str:00000000000475d3 .LASF1058
     /tmp/cc7R4ZW9.s:97420  .debug_str:000000000001d067 .LASF1059
     /tmp/cc7R4ZW9.s:107370  .debug_str:0000000000045f95 .LASF1060
     /tmp/cc7R4ZW9.s:97600  .debug_str:000000000001dce4 .LASF1061
     /tmp/cc7R4ZW9.s:103750  .debug_str:000000000003702d .LASF1062
     /tmp/cc7R4ZW9.s:93688  .debug_str:000000000000e19e .LASF1063
     /tmp/cc7R4ZW9.s:103552  .debug_str:00000000000362eb .LASF1064
     /tmp/cc7R4ZW9.s:91016  .debug_str:0000000000002d8b .LASF1065
     /tmp/cc7R4ZW9.s:103196  .debug_str:0000000000034983 .LASF1066
     /tmp/cc7R4ZW9.s:93088  .debug_str:000000000000baca .LASF1067
     /tmp/cc7R4ZW9.s:107602  .debug_str:0000000000046e3d .LASF1068
     /tmp/cc7R4ZW9.s:97674  .debug_str:000000000001e211 .LASF1069
     /tmp/cc7R4ZW9.s:100668  .debug_str:000000000002a6f1 .LASF1070
     /tmp/cc7R4ZW9.s:92072  .debug_str:00000000000074fd .LASF1071
     /tmp/cc7R4ZW9.s:102290  .debug_str:0000000000030e2c .LASF1072
     /tmp/cc7R4ZW9.s:97416  .debug_str:000000000001d046 .LASF1073
     /tmp/cc7R4ZW9.s:98474  .debug_str:0000000000021987 .LASF1074
     /tmp/cc7R4ZW9.s:103562  .debug_str:00000000000363f3 .LASF1075
     /tmp/cc7R4ZW9.s:92518  .debug_str:000000000000934d .LASF1076
     /tmp/cc7R4ZW9.s:95880  .debug_str:00000000000166e2 .LASF1077
     /tmp/cc7R4ZW9.s:109592  .debug_str:000000000004f53a .LASF1078
     /tmp/cc7R4ZW9.s:98578  .debug_str:00000000000220fb .LASF1079
     /tmp/cc7R4ZW9.s:96702  .debug_str:0000000000019dae .LASF1080
     /tmp/cc7R4ZW9.s:108986  .debug_str:000000000004cb86 .LASF1081
     /tmp/cc7R4ZW9.s:101938  .debug_str:000000000002f789 .LASF1082
     /tmp/cc7R4ZW9.s:101262  .debug_str:000000000002cb37 .LASF1083
     /tmp/cc7R4ZW9.s:99170  .debug_str:00000000000248ea .LASF1084
     /tmp/cc7R4ZW9.s:91406  .debug_str:00000000000047c5 .LASF1085
     /tmp/cc7R4ZW9.s:101786  .debug_str:000000000002ecfa .LASF1086
     /tmp/cc7R4ZW9.s:101062  .debug_str:000000000002bf24 .LASF1087
     /tmp/cc7R4ZW9.s:106732  .debug_str:00000000000435e5 .LASF1088
     /tmp/cc7R4ZW9.s:94672  .debug_str:0000000000011961 .LASF1089
     /tmp/cc7R4ZW9.s:105548  .debug_str:000000000003e330 .LASF1090
     /tmp/cc7R4ZW9.s:96766  .debug_str:000000000001a1ec .LASF1091
     /tmp/cc7R4ZW9.s:107414  .debug_str:0000000000046289 .LASF1092
     /tmp/cc7R4ZW9.s:98590  .debug_str:0000000000022196 .LASF1093
     /tmp/cc7R4ZW9.s:94994  .debug_str:0000000000012f18 .LASF1094
     /tmp/cc7R4ZW9.s:109326  .debug_str:000000000004e3c5 .LASF1095
     /tmp/cc7R4ZW9.s:96996  .debug_str:000000000001b25b .LASF1096
     /tmp/cc7R4ZW9.s:107620  .debug_str:0000000000046fd1 .LASF1097
     /tmp/cc7R4ZW9.s:98802  .debug_str:0000000000022f86 .LASF1098
     /tmp/cc7R4ZW9.s:109438  .debug_str:000000000004eb58 .LASF1099
     /tmp/cc7R4ZW9.s:100762  .debug_str:000000000002ac4b .LASF1100
     /tmp/cc7R4ZW9.s:92002  .debug_str:000000000000708f .LASF1101
     /tmp/cc7R4ZW9.s:102762  .debug_str:0000000000032d1d .LASF1102
     /tmp/cc7R4ZW9.s:93778  .debug_str:000000000000e755 .LASF1103
     /tmp/cc7R4ZW9.s:109726  .debug_str:000000000004fe5c .LASF1104
     /tmp/cc7R4ZW9.s:107162  .debug_str:000000000004521f .LASF1105
     /tmp/cc7R4ZW9.s:92054  .debug_str:0000000000007431 .LASF1106
     /tmp/cc7R4ZW9.s:102824  .debug_str:00000000000330e4 .LASF1107
     /tmp/cc7R4ZW9.s:94032  .debug_str:000000000000f3b3 .LASF1108
     /tmp/cc7R4ZW9.s:104838  .debug_str:000000000003b1f5 .LASF1109
     /tmp/cc7R4ZW9.s:105376  .debug_str:000000000003d66d .LASF1110
     /tmp/cc7R4ZW9.s:106598  .debug_str:0000000000042d3c .LASF1111
     /tmp/cc7R4ZW9.s:97794  .debug_str:000000000001eabc .LASF1112
     /tmp/cc7R4ZW9.s:108574  .debug_str:000000000004af52 .LASF1113
     /tmp/cc7R4ZW9.s:93062  .debug_str:000000000000b911 .LASF1114
     /tmp/cc7R4ZW9.s:96210  .debug_str:0000000000017e97 .LASF1115
     /tmp/cc7R4ZW9.s:106872  .debug_str:0000000000043f56 .LASF1116
     /tmp/cc7R4ZW9.s:107816  .debug_str:0000000000047cce .LASF1117
     /tmp/cc7R4ZW9.s:94160  .debug_str:000000000000fc59 .LASF1118
     /tmp/cc7R4ZW9.s:106306  .debug_str:0000000000041618 .LASF1119
     /tmp/cc7R4ZW9.s:98982  .debug_str:0000000000023bef .LASF1120
     /tmp/cc7R4ZW9.s:91612  .debug_str:000000000000557f .LASF1121
     /tmp/cc7R4ZW9.s:103840  .debug_str:0000000000037641 .LASF1122
     /tmp/cc7R4ZW9.s:102960  .debug_str:0000000000033a36 .LASF1123
     /tmp/cc7R4ZW9.s:96124  .debug_str:000000000001784a .LASF1124
     /tmp/cc7R4ZW9.s:95300  .debug_str:00000000000142d8 .LASF1125
     /tmp/cc7R4ZW9.s:107436  .debug_str:0000000000046448 .LASF1126
     /tmp/cc7R4ZW9.s:99920  .debug_str:000000000002747c .LASF1127
     /tmp/cc7R4ZW9.s:95386  .debug_str:00000000000148b5 .LASF1128
     /tmp/cc7R4ZW9.s:94242  .debug_str:00000000000100f5 .LASF1129
     /tmp/cc7R4ZW9.s:103348  .debug_str:000000000003546f .LASF1130
     /tmp/cc7R4ZW9.s:108732  .debug_str:000000000004ba90 .LASF1131
     /tmp/cc7R4ZW9.s:96134  .debug_str:00000000000178ea .LASF1132
     /tmp/cc7R4ZW9.s:96436  .debug_str:0000000000018baf .LASF1133
     /tmp/cc7R4ZW9.s:109348  .debug_str:000000000004e534 .LASF1134
     /tmp/cc7R4ZW9.s:100586  .debug_str:000000000002a16f .LASF1135
     /tmp/cc7R4ZW9.s:91602  .debug_str:00000000000054bc .LASF1136
     /tmp/cc7R4ZW9.s:102494  .debug_str:0000000000031aa8 .LASF1137
     /tmp/cc7R4ZW9.s:93680  .debug_str:000000000000e128 .LASF1138
     /tmp/cc7R4ZW9.s:104502  .debug_str:0000000000039c0a .LASF1139
     /tmp/cc7R4ZW9.s:95604  .debug_str:00000000000155d6 .LASF1140
     /tmp/cc7R4ZW9.s:106216  .debug_str:0000000000040efc .LASF1141
     /tmp/cc7R4ZW9.s:97452  .debug_str:000000000001d22d .LASF1142
     /tmp/cc7R4ZW9.s:100198  .debug_str:0000000000028738 .LASF1143
     /tmp/cc7R4ZW9.s:91304  .debug_str:00000000000040b0 .LASF1144
     /tmp/cc7R4ZW9.s:102074  .debug_str:000000000003003f .LASF1145
     /tmp/cc7R4ZW9.s:93072  .debug_str:000000000000b9d4 .LASF1146
     /tmp/cc7R4ZW9.s:108972  .debug_str:000000000004ca75 .LASF1147
     /tmp/cc7R4ZW9.s:95224  .debug_str:0000000000013e39 .LASF1148
     /tmp/cc7R4ZW9.s:105832  .debug_str:000000000003f51b .LASF1149
     /tmp/cc7R4ZW9.s:97074  .debug_str:000000000001b738 .LASF1150
     /tmp/cc7R4ZW9.s:93248  .debug_str:000000000000c5a9 .LASF1151
     /tmp/cc7R4ZW9.s:98864  .debug_str:0000000000023368 .LASF1152
     /tmp/cc7R4ZW9.s:95290  .debug_str:000000000001425f .LASF1153
     /tmp/cc7R4ZW9.s:105890  .debug_str:000000000003f8c8 .LASF1154
     /tmp/cc7R4ZW9.s:97304  .debug_str:000000000001c831 .LASF1155
     /tmp/cc7R4ZW9.s:107916  .debug_str:00000000000483d1 .LASF1156
     /tmp/cc7R4ZW9.s:99136  .debug_str:0000000000024672 .LASF1157
     /tmp/cc7R4ZW9.s:95944  .debug_str:0000000000016bce .LASF1158
     /tmp/cc7R4ZW9.s:101072  .debug_str:000000000002bfee .LASF1159
     /tmp/cc7R4ZW9.s:92266  .debug_str:0000000000008180 .LASF1160
     /tmp/cc7R4ZW9.s:103074  .debug_str:00000000000341aa .LASF1161
     /tmp/cc7R4ZW9.s:94100  .debug_str:000000000000f7c6 .LASF1162
     /tmp/cc7R4ZW9.s:90560  .debug_str:0000000000000d83 .LASF1163
     /tmp/cc7R4ZW9.s:101300  .debug_str:000000000002cdfb .LASF1164
     /tmp/cc7R4ZW9.s:95298  .debug_str:00000000000142ad .LASF1165
     /tmp/cc7R4ZW9.s:91098  .debug_str:0000000000003348 .LASF1166
     /tmp/cc7R4ZW9.s:103124  .debug_str:00000000000344fc .LASF1167
     /tmp/cc7R4ZW9.s:96758  .debug_str:000000000001a147 .LASF1168
     /tmp/cc7R4ZW9.s:103016  .debug_str:0000000000033e3f .LASF1169
     /tmp/cc7R4ZW9.s:99346  .debug_str:000000000002532d .LASF1170
     /tmp/cc7R4ZW9.s:104666  .debug_str:000000000003a5ec .LASF1171
     /tmp/cc7R4ZW9.s:98796  .debug_str:0000000000022f08 .LASF1172
     /tmp/cc7R4ZW9.s:105684  .debug_str:000000000003ec4f .LASF1173
     /tmp/cc7R4ZW9.s:98252  .debug_str:0000000000020b53 .LASF1174
     /tmp/cc7R4ZW9.s:105346  .debug_str:000000000003d459 .LASF1175
     /tmp/cc7R4ZW9.s:94620  .debug_str:00000000000115aa .LASF1176
     /tmp/cc7R4ZW9.s:108338  .debug_str:0000000000049fa0 .LASF1177
     /tmp/cc7R4ZW9.s:107070  .debug_str:0000000000044b9a .LASF1178
     /tmp/cc7R4ZW9.s:96842  .debug_str:000000000001a74c .LASF1179
     /tmp/cc7R4ZW9.s:96596  .debug_str:000000000001968f .LASF1180
     /tmp/cc7R4ZW9.s:96182  .debug_str:0000000000017c68 .LASF1181
     /tmp/cc7R4ZW9.s:95948  .debug_str:0000000000016bf4 .LASF1182
     /tmp/cc7R4ZW9.s:95540  .debug_str:0000000000015188 .LASF1183
     /tmp/cc7R4ZW9.s:95308  .debug_str:0000000000014336 .LASF1184
     /tmp/cc7R4ZW9.s:94904  .debug_str:0000000000012892 .LASF1185
     /tmp/cc7R4ZW9.s:94644  .debug_str:00000000000116ff .LASF1186
     /tmp/cc7R4ZW9.s:94200  .debug_str:000000000000fe6b .LASF1187
     /tmp/cc7R4ZW9.s:94462  .debug_str:0000000000010c08 .LASF1188
     /tmp/cc7R4ZW9.s:92622  .debug_str:0000000000009ac4 .LASF1189
     /tmp/cc7R4ZW9.s:90932  .debug_str:0000000000002832 .LASF1190
     /tmp/cc7R4ZW9.s:108614  .debug_str:000000000004b1a8 .LASF1191
     /tmp/cc7R4ZW9.s:93044  .debug_str:000000000000b79d .LASF1192
     /tmp/cc7R4ZW9.s:97944  .debug_str:000000000001f4d8 .LASF1193
     /tmp/cc7R4ZW9.s:102992  .debug_str:0000000000033c8f .LASF1194
     /tmp/cc7R4ZW9.s:107868  .debug_str:000000000004805d .LASF1195
     /tmp/cc7R4ZW9.s:93110  .debug_str:000000000000bc9a .LASF1196
     /tmp/cc7R4ZW9.s:98192  .debug_str:00000000000206f0 .LASF1197
     /tmp/cc7R4ZW9.s:93092  .debug_str:000000000000bb33 .LASF1198
     /tmp/cc7R4ZW9.s:104038  .debug_str:0000000000038248 .LASF1199
     /tmp/cc7R4ZW9.s:97382  .debug_str:000000000001cd92 .LASF1200
     /tmp/cc7R4ZW9.s:105280  .debug_str:000000000003d012 .LASF1201
     /tmp/cc7R4ZW9.s:98212  .debug_str:00000000000208ee .LASF1202
     /tmp/cc7R4ZW9.s:109036  .debug_str:000000000004cef7 .LASF1203
     /tmp/cc7R4ZW9.s:100304  .debug_str:0000000000028ebd .LASF1204
     /tmp/cc7R4ZW9.s:91640  .debug_str:0000000000005718 .LASF1205
     /tmp/cc7R4ZW9.s:102426  .debug_str:00000000000315c1 .LASF1206
     /tmp/cc7R4ZW9.s:93662  .debug_str:000000000000dfe2 .LASF1207
     /tmp/cc7R4ZW9.s:97988  .debug_str:000000000001f868 .LASF1208
     /tmp/cc7R4ZW9.s:108816  .debug_str:000000000004bfbd .LASF1209
     /tmp/cc7R4ZW9.s:101722  .debug_str:000000000002e887 .LASF1210
     /tmp/cc7R4ZW9.s:99330  .debug_str:000000000002522e .LASF1211
     /tmp/cc7R4ZW9.s:105100  .debug_str:000000000003c443 .LASF1212
     /tmp/cc7R4ZW9.s:102858  .debug_str:00000000000332ff .LASF1213
     /tmp/cc7R4ZW9.s:100782  .debug_str:000000000002ad5a .LASF1214
     /tmp/cc7R4ZW9.s:98488  .debug_str:0000000000021aa6 .LASF1215
     /tmp/cc7R4ZW9.s:94922  .debug_str:00000000000129e4 .LASF1216
     /tmp/cc7R4ZW9.s:100800  .debug_str:000000000002ae7a .LASF1217
     /tmp/cc7R4ZW9.s:94196  .debug_str:000000000000fdfe .LASF1218
     /tmp/cc7R4ZW9.s:93936  .debug_str:000000000000ee1c .LASF1219
     /tmp/cc7R4ZW9.s:95660  .debug_str:000000000001595e .LASF1220
     /tmp/cc7R4ZW9.s:95930  .debug_str:0000000000016a6e .LASF1221
     /tmp/cc7R4ZW9.s:92396  .debug_str:0000000000008ade .LASF1222
     /tmp/cc7R4ZW9.s:101090  .debug_str:000000000002c0fc .LASF1223
     /tmp/cc7R4ZW9.s:98060  .debug_str:000000000001fccb .LASF1224
     /tmp/cc7R4ZW9.s:97562  .debug_str:000000000001d9b9 .LASF1225
     /tmp/cc7R4ZW9.s:106230  .debug_str:0000000000040fe7 .LASF1226
     /tmp/cc7R4ZW9.s:105788  .debug_str:000000000003f26e .LASF1227
     /tmp/cc7R4ZW9.s:91106  .debug_str:00000000000033de .LASF1228
     /tmp/cc7R4ZW9.s:101380  .debug_str:000000000002d25b .LASF1229
     /tmp/cc7R4ZW9.s:109750  .debug_str:000000000004ffb4 .LASF1230
     /tmp/cc7R4ZW9.s:109516  .debug_str:000000000004f071 .LASF1231
     /tmp/cc7R4ZW9.s:100354  .debug_str:00000000000292a6 .LASF1232
     /tmp/cc7R4ZW9.s:97888  .debug_str:000000000001f04f .LASF1233
     /tmp/cc7R4ZW9.s:96708  .debug_str:0000000000019e1a .LASF1234
     /tmp/cc7R4ZW9.s:102650  .debug_str:00000000000324fb .LASF1235
     /tmp/cc7R4ZW9.s:100214  .debug_str:000000000002886a .LASF1236
     /tmp/cc7R4ZW9.s:105150  .debug_str:000000000003c805 .LASF1237
     /tmp/cc7R4ZW9.s:103654  .debug_str:0000000000036a41 .LASF1238
     /tmp/cc7R4ZW9.s:101198  .debug_str:000000000002c758 .LASF1239
     /tmp/cc7R4ZW9.s:105368  .debug_str:000000000003d5e2 .LASF1240
     /tmp/cc7R4ZW9.s:102896  .debug_str:00000000000335b8 .LASF1241
     /tmp/cc7R4ZW9.s:93580  .debug_str:000000000000dbfc .LASF1242
     /tmp/cc7R4ZW9.s:106928  .debug_str:00000000000442cb .LASF1243
     /tmp/cc7R4ZW9.s:100188  .debug_str:0000000000028674 .LASF1244
     /tmp/cc7R4ZW9.s:90598  .debug_str:000000000000100b .LASF1245
     /tmp/cc7R4ZW9.s:99592  .debug_str:0000000000025fc1 .LASF1246
     /tmp/cc7R4ZW9.s:103810  .debug_str:0000000000037499 .LASF1247
     /tmp/cc7R4ZW9.s:106522  .debug_str:00000000000427e2 .LASF1248
     /tmp/cc7R4ZW9.s:91966  .debug_str:0000000000006d65 .LASF1249
     /tmp/cc7R4ZW9.s:93944  .debug_str:000000000000eead .LASF1250
     /tmp/cc7R4ZW9.s:99074  .debug_str:0000000000024207 .LASF1251
     /tmp/cc7R4ZW9.s:100048  .debug_str:0000000000027db2 .LASF1252
     /tmp/cc7R4ZW9.s:106458  .debug_str:00000000000422b8 .LASF1253
     /tmp/cc7R4ZW9.s:100446  .debug_str:00000000000297d4 .LASF1254
     /tmp/cc7R4ZW9.s:99260  .debug_str:0000000000024e32 .LASF1255
     /tmp/cc7R4ZW9.s:98148  .debug_str:00000000000203a9 .LASF1256
     /tmp/cc7R4ZW9.s:91146  .debug_str:00000000000035cb .LASF1257
     /tmp/cc7R4ZW9.s:105072  .debug_str:000000000003c20f .LASF1258
     /tmp/cc7R4ZW9.s:96692  .debug_str:0000000000019d26 .LASF1259
     /tmp/cc7R4ZW9.s:106696  .debug_str:000000000004334f .LASF1260
     /tmp/cc7R4ZW9.s:108806  .debug_str:000000000004bf3c .LASF1261
     /tmp/cc7R4ZW9.s:98754  .debug_str:0000000000022c54 .LASF1262
     /tmp/cc7R4ZW9.s:98676  .debug_str:00000000000226e7 .LASF1263
     /tmp/cc7R4ZW9.s:104062  .debug_str:00000000000383d9 .LASF1264
     /tmp/cc7R4ZW9.s:101674  .debug_str:000000000002e504 .LASF1265
     /tmp/cc7R4ZW9.s:108184  .debug_str:000000000004955d .LASF1266
     /tmp/cc7R4ZW9.s:95180  .debug_str:0000000000013b95 .LASF1267
     /tmp/cc7R4ZW9.s:101890  .debug_str:000000000002f3af .LASF1268
     /tmp/cc7R4ZW9.s:99606  .debug_str:00000000000260eb .LASF1269
     /tmp/cc7R4ZW9.s:98174  .debug_str:0000000000020574 .LASF1270
     /tmp/cc7R4ZW9.s:97058  .debug_str:000000000001b643 .LASF1271
     /tmp/cc7R4ZW9.s:91508  .debug_str:0000000000004ecd .LASF1272
     /tmp/cc7R4ZW9.s:94066  .debug_str:000000000000f687 .LASF1273
     /tmp/cc7R4ZW9.s:92284  .debug_str:00000000000082cc .LASF1274
     /tmp/cc7R4ZW9.s:109602  .debug_str:000000000004f5e2 .LASF1275
     /tmp/cc7R4ZW9.s:96768  .debug_str:000000000001a205 .LASF1276
     /tmp/cc7R4ZW9.s:92120  .debug_str:0000000000007879 .LASF1277
     /tmp/cc7R4ZW9.s:97782  .debug_str:000000000001e9b1 .LASF1278
     /tmp/cc7R4ZW9.s:90668  .debug_str:00000000000014ac .LASF1279
     /tmp/cc7R4ZW9.s:104484  .debug_str:0000000000039a78 .LASF1280
     /tmp/cc7R4ZW9.s:90922  .debug_str:0000000000002748 .LASF1281
     /tmp/cc7R4ZW9.s:100806  .debug_str:000000000002af0a .LASF1282
     /tmp/cc7R4ZW9.s:102740  .debug_str:0000000000032b7a .LASF1283
     /tmp/cc7R4ZW9.s:109730  .debug_str:000000000004fe97 .LASF1284
     /tmp/cc7R4ZW9.s:97392  .debug_str:000000000001ce7d .LASF1285
     /tmp/cc7R4ZW9.s:104538  .debug_str:0000000000039da0 .LASF1286
     /tmp/cc7R4ZW9.s:96316  .debug_str:00000000000184c4 .LASF1287
     /tmp/cc7R4ZW9.s:99114  .debug_str:00000000000244c9 .LASF1288
     /tmp/cc7R4ZW9.s:105472  .debug_str:000000000003dd61 .LASF1289
     /tmp/cc7R4ZW9.s:90574  .debug_str:0000000000000e74 .LASF1290
     /tmp/cc7R4ZW9.s:101014  .debug_str:000000000002bc08 .LASF1291
     /tmp/cc7R4ZW9.s:108012  .debug_str:0000000000048a0d .LASF1292
     /tmp/cc7R4ZW9.s:100038  .debug_str:0000000000027cd5 .LASF1293
     /tmp/cc7R4ZW9.s:107506  .debug_str:0000000000046881 .LASF1294
     /tmp/cc7R4ZW9.s:105574  .debug_str:000000000003e4e2 .LASF1295
     /tmp/cc7R4ZW9.s:106514  .debug_str:0000000000042713 .LASF1296
     /tmp/cc7R4ZW9.s:91858  .debug_str:00000000000065ac .LASF1297
     /tmp/cc7R4ZW9.s:98880  .debug_str:000000000002348a .LASF1298
     /tmp/cc7R4ZW9.s:97630  .debug_str:000000000001deef .LASF1299
     /tmp/cc7R4ZW9.s:100468  .debug_str:00000000000299a6 .LASF1300
     /tmp/cc7R4ZW9.s:103462  .debug_str:0000000000035cd6 .LASF1301
     /tmp/cc7R4ZW9.s:106140  .debug_str:000000000004084f .LASF1302
     /tmp/cc7R4ZW9.s:96936  .debug_str:000000000001ae5d .LASF1303
     /tmp/cc7R4ZW9.s:99714  .debug_str:00000000000267a5 .LASF1304
     /tmp/cc7R4ZW9.s:102570  .debug_str:0000000000031efd .LASF1305
     /tmp/cc7R4ZW9.s:105456  .debug_str:000000000003dc48 .LASF1306
     /tmp/cc7R4ZW9.s:107830  .debug_str:0000000000047de3 .LASF1307
     /tmp/cc7R4ZW9.s:91706  .debug_str:0000000000005bd6 .LASF1308
     /tmp/cc7R4ZW9.s:94486  .debug_str:0000000000010e40 .LASF1309
     /tmp/cc7R4ZW9.s:97354  .debug_str:000000000001cbfc .LASF1310
     /tmp/cc7R4ZW9.s:100312  .debug_str:0000000000028f8c .LASF1311
     /tmp/cc7R4ZW9.s:103162  .debug_str:0000000000034714 .LASF1312
     /tmp/cc7R4ZW9.s:93728  .debug_str:000000000000e416 .LASF1313
     /tmp/cc7R4ZW9.s:96616  .debug_str:00000000000197e2 .LASF1314
     /tmp/cc7R4ZW9.s:99380  .debug_str:0000000000025568 .LASF1315
     /tmp/cc7R4ZW9.s:94372  .debug_str:0000000000010771 .LASF1316
     /tmp/cc7R4ZW9.s:105198  .debug_str:000000000003cac5 .LASF1317
     /tmp/cc7R4ZW9.s:108106  .debug_str:0000000000049015 .LASF1318
     /tmp/cc7R4ZW9.s:101438  .debug_str:000000000002d5f2 .LASF1319
     /tmp/cc7R4ZW9.s:94350  .debug_str:00000000000105df .LASF1320
     /tmp/cc7R4ZW9.s:97218  .debug_str:000000000001c1cf .LASF1321
     /tmp/cc7R4ZW9.s:100004  .debug_str:0000000000027a74 .LASF1322
     /tmp/cc7R4ZW9.s:90704  .debug_str:0000000000001766 .LASF1323
     /tmp/cc7R4ZW9.s:93428  .debug_str:000000000000d252 .LASF1324
     /tmp/cc7R4ZW9.s:96474  .debug_str:0000000000018da0 .LASF1325
     /tmp/cc7R4ZW9.s:99240  .debug_str:0000000000024d1b .LASF1326
     /tmp/cc7R4ZW9.s:102132  .debug_str:0000000000030392 .LASF1327
     /tmp/cc7R4ZW9.s:105060  .debug_str:000000000003c12b .LASF1328
     /tmp/cc7R4ZW9.s:107796  .debug_str:0000000000047b55 .LASF1329
     /tmp/cc7R4ZW9.s:91262  .debug_str:0000000000003d83 .LASF1330
     /tmp/cc7R4ZW9.s:94034  .debug_str:000000000000f3cc .LASF1331
     /tmp/cc7R4ZW9.s:96904  .debug_str:000000000001ac44 .LASF1332
     /tmp/cc7R4ZW9.s:107100  .debug_str:0000000000044de5 .LASF1333
     /tmp/cc7R4ZW9.s:97912  .debug_str:000000000001f24b .LASF1334
     /tmp/cc7R4ZW9.s:93286  .debug_str:000000000000c863 .LASF1335
     /tmp/cc7R4ZW9.s:93498  .debug_str:000000000000d6b9 .LASF1336
     /tmp/cc7R4ZW9.s:98946  .debug_str:0000000000023985 .LASF1337
     /tmp/cc7R4ZW9.s:108730  .debug_str:000000000004ba5b .LASF1338
     /tmp/cc7R4ZW9.s:104816  .debug_str:000000000003b02d .LASF1339
     /tmp/cc7R4ZW9.s:107662  .debug_str:00000000000472de .LASF1340
     /tmp/cc7R4ZW9.s:90970  .debug_str:0000000000002ac9 .LASF1341
     /tmp/cc7R4ZW9.s:93692  .debug_str:000000000000e1f1 .LASF1342
     /tmp/cc7R4ZW9.s:104068  .debug_str:000000000003844f .LASF1343
     /tmp/cc7R4ZW9.s:95502  .debug_str:0000000000014f53 .LASF1344
     /tmp/cc7R4ZW9.s:103486  .debug_str:0000000000035edc .LASF1345
     /tmp/cc7R4ZW9.s:92988  .debug_str:000000000000b3b9 .LASF1346
     /tmp/cc7R4ZW9.s:98044  .debug_str:000000000001fbc7 .LASF1347
     /tmp/cc7R4ZW9.s:101862  .debug_str:000000000002f174 .LASF1348
     /tmp/cc7R4ZW9.s:101286  .debug_str:000000000002ccc2 .LASF1349
     /tmp/cc7R4ZW9.s:100708  .debug_str:000000000002a8d5 .LASF1350
     /tmp/cc7R4ZW9.s:99930  .debug_str:000000000002751f .LASF1351
     /tmp/cc7R4ZW9.s:108708  .debug_str:000000000004b8df .LASF1352
     /tmp/cc7R4ZW9.s:95004  .debug_str:0000000000012f93 .LASF1353
     /tmp/cc7R4ZW9.s:107552  .debug_str:0000000000046b62 .LASF1354
     /tmp/cc7R4ZW9.s:93424  .debug_str:000000000000d215 .LASF1355
     /tmp/cc7R4ZW9.s:100794  .debug_str:000000000002ae0d .LASF1356
     /tmp/cc7R4ZW9.s:94460  .debug_str:0000000000010bd9 .LASF1357
     /tmp/cc7R4ZW9.s:106328  .debug_str:00000000000417a1 .LASF1358
     /tmp/cc7R4ZW9.s:93332  .debug_str:000000000000cbb1 .LASF1359
     /tmp/cc7R4ZW9.s:97012  .debug_str:000000000001b33d .LASF1360
     /tmp/cc7R4ZW9.s:104200  .debug_str:0000000000038b98 .LASF1361
     /tmp/cc7R4ZW9.s:104850  .debug_str:000000000003b2c2 .LASF1362
     /tmp/cc7R4ZW9.s:108770  .debug_str:000000000004bd03 .LASF1363
     /tmp/cc7R4ZW9.s:106610  .debug_str:0000000000042dcb .LASF1364
     /tmp/cc7R4ZW9.s:95040  .debug_str:0000000000013273 .LASF1365
     /tmp/cc7R4ZW9.s:103950  .debug_str:0000000000037c72 .LASF1366
     /tmp/cc7R4ZW9.s:93012  .debug_str:000000000000b596 .LASF1367
     /tmp/cc7R4ZW9.s:102046  .debug_str:000000000002fde3 .LASF1368
     /tmp/cc7R4ZW9.s:91302  .debug_str:0000000000004067 .LASF1369
     /tmp/cc7R4ZW9.s:100046  .debug_str:0000000000027d69 .LASF1370
     /tmp/cc7R4ZW9.s:108842  .debug_str:000000000004c1bf .LASF1371
     /tmp/cc7R4ZW9.s:98100  .debug_str:0000000000020034 .LASF1372
     /tmp/cc7R4ZW9.s:106946  .debug_str:00000000000443db .LASF1373
     /tmp/cc7R4ZW9.s:96328  .debug_str:000000000001858f .LASF1374
     /tmp/cc7R4ZW9.s:90840  .debug_str:00000000000021fa .LASF1375
     /tmp/cc7R4ZW9.s:97502  .debug_str:000000000001d591 .LASF1376
     /tmp/cc7R4ZW9.s:104152  .debug_str:0000000000038963 .LASF1377
     /tmp/cc7R4ZW9.s:91214  .debug_str:0000000000003a37 .LASF1378
     /tmp/cc7R4ZW9.s:99022  .debug_str:0000000000023e5c .LASF1379
     /tmp/cc7R4ZW9.s:95268  .debug_str:00000000000140a5 .LASF1380
     /tmp/cc7R4ZW9.s:92630  .debug_str:0000000000009b82 .LASF1381
     /tmp/cc7R4ZW9.s:97454  .debug_str:000000000001d248 .LASF1382
     /tmp/cc7R4ZW9.s:105876  .debug_str:000000000003f795 .LASF1383
     /tmp/cc7R4ZW9.s:92946  .debug_str:000000000000b069 .LASF1384
     /tmp/cc7R4ZW9.s:95984  .debug_str:0000000000016e79 .LASF1385
     /tmp/cc7R4ZW9.s:102648  .debug_str:00000000000324af .LASF1386
     /tmp/cc7R4ZW9.s:108958  .debug_str:000000000004c930 .LASF1387
     /tmp/cc7R4ZW9.s:96116  .debug_str:000000000001777e .LASF1388
     /tmp/cc7R4ZW9.s:102628  .debug_str:00000000000322f8 .LASF1389
     /tmp/cc7R4ZW9.s:109162  .debug_str:000000000004d6e8 .LASF1390
     /tmp/cc7R4ZW9.s:96480  .debug_str:0000000000018e18 .LASF1391
     /tmp/cc7R4ZW9.s:103180  .debug_str:000000000003481d .LASF1392
     /tmp/cc7R4ZW9.s:103584  .debug_str:000000000003656b .LASF1393
     /tmp/cc7R4ZW9.s:96866  .debug_str:000000000001a900 .LASF1394
     /tmp/cc7R4ZW9.s:96830  .debug_str:000000000001a69f .LASF1395
     /tmp/cc7R4ZW9.s:91482  .debug_str:0000000000004d3e .LASF1396
     /tmp/cc7R4ZW9.s:92904  .debug_str:000000000000add1 .LASF1397
     /tmp/cc7R4ZW9.s:93172  .debug_str:000000000000c12f .LASF1398
     /tmp/cc7R4ZW9.s:91848  .debug_str:00000000000064fa .LASF1399
     /tmp/cc7R4ZW9.s:106508  .debug_str:000000000004268a .LASF1400
     /tmp/cc7R4ZW9.s:96110  .debug_str:000000000001770d .LASF1401
     /tmp/cc7R4ZW9.s:97652  .debug_str:000000000001e061 .LASF1402
     /tmp/cc7R4ZW9.s:104548  .debug_str:0000000000039e45 .LASF1403
     /tmp/cc7R4ZW9.s:101068  .debug_str:000000000002bfa0 .LASF1404
     /tmp/cc7R4ZW9.s:97528  .debug_str:000000000001d75b .LASF1405
     /tmp/cc7R4ZW9.s:107222  .debug_str:000000000004558f .LASF1406
     /tmp/cc7R4ZW9.s:107212  .debug_str:00000000000454e6 .LASF1407
     /tmp/cc7R4ZW9.s:97906  .debug_str:000000000001f1b2 .LASF1408
     /tmp/cc7R4ZW9.s:107152  .debug_str:0000000000045163 .LASF1409
     /tmp/cc7R4ZW9.s:99642  .debug_str:0000000000026376 .LASF1410
     /tmp/cc7R4ZW9.s:103018  .debug_str:0000000000033e78 .LASF1411
     /tmp/cc7R4ZW9.s:94206  .debug_str:000000000000feda .LASF1412
     /tmp/cc7R4ZW9.s:104298  .debug_str:00000000000390bf .LASF1413
     /tmp/cc7R4ZW9.s:107784  .debug_str:0000000000047ab2 .LASF1414
     /tmp/cc7R4ZW9.s:100714  .debug_str:000000000002a966 .LASF1415
     /tmp/cc7R4ZW9.s:106304  .debug_str:00000000000415f1 .LASF1416
     /tmp/cc7R4ZW9.s:107776  .debug_str:0000000000047a0e .LASF1417
     /tmp/cc7R4ZW9.s:92460  .debug_str:0000000000008f37 .LASF1418
     /tmp/cc7R4ZW9.s:104488  .debug_str:0000000000039acc .LASF1419
     /tmp/cc7R4ZW9.s:90400  .debug_str:00000000000002a3 .LASF1420
     /tmp/cc7R4ZW9.s:98852  .debug_str:0000000000023247 .LASF1421
     /tmp/cc7R4ZW9.s:95338  .debug_str:0000000000014553 .LASF1422
     /tmp/cc7R4ZW9.s:95788  .debug_str:0000000000016110 .LASF1423
     /tmp/cc7R4ZW9.s:108220  .debug_str:00000000000497b8 .LASF1424
     /tmp/cc7R4ZW9.s:99850  .debug_str:00000000000270dd .LASF1425
     /tmp/cc7R4ZW9.s:98372  .debug_str:00000000000212c6 .LASF1426
     /tmp/cc7R4ZW9.s:94962  .debug_str:0000000000012cc9 .LASF1427
     /tmp/cc7R4ZW9.s:92050  .debug_str:00000000000073fc .LASF1428
     /tmp/cc7R4ZW9.s:99880  .debug_str:0000000000027285 .LASF1429
     /tmp/cc7R4ZW9.s:102440  .debug_str:00000000000316d9 .LASF1430
     /tmp/cc7R4ZW9.s:95554  .debug_str:0000000000015287 .LASF1431
     /tmp/cc7R4ZW9.s:95844  .debug_str:00000000000164d5 .LASF1432
     /tmp/cc7R4ZW9.s:97126  .debug_str:000000000001bac6 .LASF1433
     /tmp/cc7R4ZW9.s:100488  .debug_str:0000000000029af4 .LASF1434
     /tmp/cc7R4ZW9.s:96622  .debug_str:000000000001983b .LASF1435
     /tmp/cc7R4ZW9.s:90834  .debug_str:0000000000002191 .LASF1436
     /tmp/cc7R4ZW9.s:102790  .debug_str:0000000000032ebb .LASF1437
     /tmp/cc7R4ZW9.s:105512  .debug_str:000000000003e0af .LASF1438
     /tmp/cc7R4ZW9.s:97326  .debug_str:000000000001c997 .LASF1439
     /tmp/cc7R4ZW9.s:108478  .debug_str:000000000004a7f6 .LASF1440
     /tmp/cc7R4ZW9.s:90868  .debug_str:000000000000240f .LASF1441
     /tmp/cc7R4ZW9.s:99690  .debug_str:000000000002661f .LASF1442
     /tmp/cc7R4ZW9.s:106154  .debug_str:0000000000040956 .LASF1443
     /tmp/cc7R4ZW9.s:102732  .debug_str:0000000000032ac2 .LASF1444
     /tmp/cc7R4ZW9.s:99102  .debug_str:000000000002441d .LASF1445
     /tmp/cc7R4ZW9.s:95610  .debug_str:000000000001562a .LASF1446
     /tmp/cc7R4ZW9.s:107694  .debug_str:000000000004749b .LASF1447
     /tmp/cc7R4ZW9.s:93592  .debug_str:000000000000dc7f .LASF1448
     /tmp/cc7R4ZW9.s:91484  .debug_str:0000000000004d8c .LASF1449
     /tmp/cc7R4ZW9.s:94396  .debug_str:00000000000108b2 .LASF1450
     /tmp/cc7R4ZW9.s:106560  .debug_str:0000000000042a80 .LASF1451
     /tmp/cc7R4ZW9.s:109202  .debug_str:000000000004d9fe .LASF1452
     /tmp/cc7R4ZW9.s:96192  .debug_str:0000000000017d42 .LASF1453
     /tmp/cc7R4ZW9.s:102712  .debug_str:0000000000032973 .LASF1454
     /tmp/cc7R4ZW9.s:109074  .debug_str:000000000004d202 .LASF1455
     /tmp/cc7R4ZW9.s:96084  .debug_str:000000000001751a .LASF1456
     /tmp/cc7R4ZW9.s:94858  .debug_str:00000000000125d2 .LASF1457
     /tmp/cc7R4ZW9.s:101386  .debug_str:000000000002d2cc .LASF1458
     /tmp/cc7R4ZW9.s:107736  .debug_str:0000000000047753 .LASF1459
     /tmp/cc7R4ZW9.s:94716  .debug_str:0000000000011c60 .LASF1460
     /tmp/cc7R4ZW9.s:101254  .debug_str:000000000002caa8 .LASF1461
     /tmp/cc7R4ZW9.s:106920  .debug_str:0000000000044279 .LASF1462
     /tmp/cc7R4ZW9.s:92026  .debug_str:0000000000007227 .LASF1463
     /tmp/cc7R4ZW9.s:106580  .debug_str:0000000000042bf8 .LASF1464
     /tmp/cc7R4ZW9.s:102052  .debug_str:000000000002fe7d .LASF1465
     /tmp/cc7R4ZW9.s:98120  .debug_str:00000000000201d3 .LASF1466
     /tmp/cc7R4ZW9.s:94288  .debug_str:00000000000102f9 .LASF1467
     /tmp/cc7R4ZW9.s:93444  .debug_str:000000000000d36d .LASF1468
     /tmp/cc7R4ZW9.s:106048  .debug_str:0000000000040293 .LASF1469
     /tmp/cc7R4ZW9.s:97946  .debug_str:000000000001f52f .LASF1470
     /tmp/cc7R4ZW9.s:109082  .debug_str:000000000004d27b .LASF1471
     /tmp/cc7R4ZW9.s:98392  .debug_str:0000000000021419 .LASF1472
     /tmp/cc7R4ZW9.s:92548  .debug_str:000000000000955e .LASF1473
     /tmp/cc7R4ZW9.s:104048  .debug_str:000000000003832a .LASF1474
     /tmp/cc7R4ZW9.s:95686  .debug_str:0000000000015b05 .LASF1475
     /tmp/cc7R4ZW9.s:107014  .debug_str:0000000000044866 .LASF1476
     /tmp/cc7R4ZW9.s:98722  .debug_str:0000000000022a39 .LASF1477
     /tmp/cc7R4ZW9.s:90540  .debug_str:0000000000000c28 .LASF1478
     /tmp/cc7R4ZW9.s:92772  .debug_str:000000000000a47a .LASF1479
     /tmp/cc7R4ZW9.s:102630  .debug_str:0000000000032346 .LASF1480
     /tmp/cc7R4ZW9.s:92498  .debug_str:000000000000919f .LASF1481
     /tmp/cc7R4ZW9.s:104610  .debug_str:000000000003a197 .LASF1482
     /tmp/cc7R4ZW9.s:92268  .debug_str:000000000000819c .LASF1483
     /tmp/cc7R4ZW9.s:101940  .debug_str:000000000002f799 .LASF1484
     /tmp/cc7R4ZW9.s:92034  .debug_str:00000000000072b6 .LASF1485
     /tmp/cc7R4ZW9.s:101694  .debug_str:000000000002e643 .LASF1486
     /tmp/cc7R4ZW9.s:91784  .debug_str:00000000000060cc .LASF1487
     /tmp/cc7R4ZW9.s:101424  .debug_str:000000000002d503 .LASF1488
     /tmp/cc7R4ZW9.s:93276  .debug_str:000000000000c779 .LASF1489
     /tmp/cc7R4ZW9.s:97744  .debug_str:000000000001e748 .LASF1490
     /tmp/cc7R4ZW9.s:92838  .debug_str:000000000000a949 .LASF1491
     /tmp/cc7R4ZW9.s:102700  .debug_str:000000000003287c .LASF1492
     /tmp/cc7R4ZW9.s:105562  .debug_str:000000000003e408 .LASF1493
     /tmp/cc7R4ZW9.s:102424  .debug_str:0000000000031597 .LASF1494
     /tmp/cc7R4ZW9.s:92338  .debug_str:00000000000086e3 .LASF1495
     /tmp/cc7R4ZW9.s:102174  .debug_str:0000000000030622 .LASF1496
     /tmp/cc7R4ZW9.s:92094  .debug_str:000000000000765e .LASF1497
     /tmp/cc7R4ZW9.s:93442  .debug_str:000000000000d343 .LASF1498
     /tmp/cc7R4ZW9.s:106030  .debug_str:0000000000040177 .LASF1499
     /tmp/cc7R4ZW9.s:103312  .debug_str:00000000000351b3 .LASF1500
     /tmp/cc7R4ZW9.s:93362  .debug_str:000000000000cdb1 .LASF1501
     /tmp/cc7R4ZW9.s:103052  .debug_str:0000000000034095 .LASF1502
     /tmp/cc7R4ZW9.s:97766  .debug_str:000000000001e890 .LASF1503
     /tmp/cc7R4ZW9.s:102780  .debug_str:0000000000032e19 .LASF1504
     /tmp/cc7R4ZW9.s:92824  .debug_str:000000000000a875 .LASF1505
     /tmp/cc7R4ZW9.s:102504  .debug_str:0000000000031b38 .LASF1506
     /tmp/cc7R4ZW9.s:92552  .debug_str:000000000000959c .LASF1507
     /tmp/cc7R4ZW9.s:102238  .debug_str:0000000000030ab3 .LASF1508
     /tmp/cc7R4ZW9.s:93980  .debug_str:000000000000f132 .LASF1509
     /tmp/cc7R4ZW9.s:103778  .debug_str:0000000000037230 .LASF1510
     /tmp/cc7R4ZW9.s:93686  .debug_str:000000000000e174 .LASF1511
     /tmp/cc7R4ZW9.s:99914  .debug_str:000000000002740c .LASF1512
     /tmp/cc7R4ZW9.s:93432  .debug_str:000000000000d295 .LASF1513
     /tmp/cc7R4ZW9.s:103296  .debug_str:000000000003508b .LASF1514
     /tmp/cc7R4ZW9.s:93158  .debug_str:000000000000c051 .LASF1515
     /tmp/cc7R4ZW9.s:102852  .debug_str:00000000000332a4 .LASF1516
     /tmp/cc7R4ZW9.s:92900  .debug_str:000000000000ad86 .LASF1517
     /tmp/cc7R4ZW9.s:96096  .debug_str:00000000000175ff .LASF1518
     /tmp/cc7R4ZW9.s:94510  .debug_str:0000000000010f28 .LASF1519
     /tmp/cc7R4ZW9.s:104140  .debug_str:0000000000038863 .LASF1520
     /tmp/cc7R4ZW9.s:94232  .debug_str:0000000000010050 .LASF1521
     /tmp/cc7R4ZW9.s:103862  .debug_str:0000000000037730 .LASF1522
     /tmp/cc7R4ZW9.s:93698  .debug_str:000000000000e254 .LASF1523
     /tmp/cc7R4ZW9.s:103592  .debug_str:00000000000365e9 .LASF1524
     /tmp/cc7R4ZW9.s:93494  .debug_str:000000000000d676 .LASF1525
     /tmp/cc7R4ZW9.s:103374  .debug_str:0000000000035631 .LASF1526
     /tmp/cc7R4ZW9.s:93240  .debug_str:000000000000c525 .LASF1527
     /tmp/cc7R4ZW9.s:103110  .debug_str:00000000000343fb .LASF1528
     /tmp/cc7R4ZW9.s:94900  .debug_str:0000000000012835 .LASF1529
     /tmp/cc7R4ZW9.s:104672  .debug_str:000000000003a648 .LASF1530
     /tmp/cc7R4ZW9.s:94596  .debug_str:00000000000114c2 .LASF1531
     /tmp/cc7R4ZW9.s:104214  .debug_str:0000000000038cc2 .LASF1532
     /tmp/cc7R4ZW9.s:94540  .debug_str:0000000000011119 .LASF1533
     /tmp/cc7R4ZW9.s:95412  .debug_str:0000000000014a3a .LASF1534
     /tmp/cc7R4ZW9.s:90366  .debug_str:0000000000000021 .LASF1535
     /tmp/cc7R4ZW9.s:104754  .debug_str:000000000003aba0 .LASF1536
     /tmp/cc7R4ZW9.s:98478  .debug_str:00000000000219b9 .LASF1537
     /tmp/cc7R4ZW9.s:106854  .debug_str:0000000000043e0f .LASF1538
     /tmp/cc7R4ZW9.s:90740  .debug_str:0000000000001a7c .LASF1539
     /tmp/cc7R4ZW9.s:91476  .debug_str:0000000000004cbb .LASF1540
     /tmp/cc7R4ZW9.s:91902  .debug_str:000000000000688c .LASF1541
     /tmp/cc7R4ZW9.s:92260  .debug_str:0000000000008106 .LASF1542
     /tmp/cc7R4ZW9.s:95170  .debug_str:0000000000013ac4 .LASF1543
     /tmp/cc7R4ZW9.s:104692  .debug_str:000000000003a777 .LASF1544
     /tmp/cc7R4ZW9.s:103398  .debug_str:0000000000035804 .LASF1545
     /tmp/cc7R4ZW9.s:105882  .debug_str:000000000003f80e .LASF1546
     /tmp/cc7R4ZW9.s:108492  .debug_str:000000000004a913 .LASF1547
     /tmp/cc7R4ZW9.s:91904  .debug_str:00000000000068bd .LASF1548
     /tmp/cc7R4ZW9.s:90886  .debug_str:00000000000024f0 .LASF1549
     /tmp/cc7R4ZW9.s:91256  .debug_str:0000000000003d23 .LASF1550
     /tmp/cc7R4ZW9.s:106718  .debug_str:00000000000434be .LASF1551
     /tmp/cc7R4ZW9.s:107360  .debug_str:0000000000045f21 .LASF1552
     /tmp/cc7R4ZW9.s:106072  .debug_str:000000000004041e .LASF1553
     /tmp/cc7R4ZW9.s:106258  .debug_str:00000000000411cd .LASF1554
     /tmp/cc7R4ZW9.s:96644  .debug_str:00000000000199ad .LASF1555
     /tmp/cc7R4ZW9.s:108038  .debug_str:0000000000048bc8 .LASF1556
     /tmp/cc7R4ZW9.s:109484  .debug_str:000000000004ee02 .LASF1557
     /tmp/cc7R4ZW9.s:100830  .debug_str:000000000002b12f .LASF1558
     /tmp/cc7R4ZW9.s:94304  .debug_str:00000000000103cc .LASF1559
     /tmp/cc7R4ZW9.s:103122  .debug_str:00000000000344e6 .LASF1560
     /tmp/cc7R4ZW9.s:92676  .debug_str:0000000000009ea7 .LASF1561
     /tmp/cc7R4ZW9.s:90376  .debug_str:00000000000000c4 .LASF1562
     /tmp/cc7R4ZW9.s:98764  .debug_str:0000000000022cf6 .LASF1563
     /tmp/cc7R4ZW9.s:99018  .debug_str:0000000000023e31 .LASF1564
     /tmp/cc7R4ZW9.s:105110  .debug_str:000000000003c51f .LASF1565
     /tmp/cc7R4ZW9.s:107330  .debug_str:0000000000045d6e .LASF1566
     /tmp/cc7R4ZW9.s:108832  .debug_str:000000000004c12a .LASF1567
     /tmp/cc7R4ZW9.s:98166  .debug_str:000000000002051d .LASF1568
     /tmp/cc7R4ZW9.s:101982  .debug_str:000000000002fa3f .LASF1569
     /tmp/cc7R4ZW9.s:94550  .debug_str:00000000000111f7 .LASF1571
     /tmp/cc7R4ZW9.s:108174  .debug_str:00000000000494b7 .LASF1572
     /tmp/cc7R4ZW9.s:95820  .debug_str:0000000000016310 .LASF1573
     /tmp/cc7R4ZW9.s:100424  .debug_str:00000000000296a9 .LASF1574
     /tmp/cc7R4ZW9.s:95670  .debug_str:0000000000015a09 .LASF1575
     /tmp/cc7R4ZW9.s:95608  .debug_str:000000000001561c .LASF1576
     /tmp/cc7R4ZW9.s:101946  .debug_str:000000000002f816 .LASF1577
     /tmp/cc7R4ZW9.s:109718  .debug_str:000000000004fdd9 .LASF1578
     /tmp/cc7R4ZW9.s:95910  .debug_str:0000000000016942 .LASF1579
     /tmp/cc7R4ZW9.s:97924  .debug_str:000000000001f391 .LASF1580
     /tmp/cc7R4ZW9.s:99094  .debug_str:0000000000024381 .LASF1581
     /tmp/cc7R4ZW9.s:106538  .debug_str:0000000000042924 .LASF1582
     /tmp/cc7R4ZW9.s:94022  .debug_str:000000000000f2f1 .LASF1583
     /tmp/cc7R4ZW9.s:100656  .debug_str:000000000002a605 .LASF1584
     /tmp/cc7R4ZW9.s:91930  .debug_str:0000000000006ae9 .LASF1585
     /tmp/cc7R4ZW9.s:92812  .debug_str:000000000000a77a .LASF1586
     /tmp/cc7R4ZW9.s:98830  .debug_str:0000000000023115 .LASF1587
     /tmp/cc7R4ZW9.s:92806  .debug_str:000000000000a721 .LASF1588
     /tmp/cc7R4ZW9.s:97798  .debug_str:000000000001eb0f .LASF1589
     /tmp/cc7R4ZW9.s:102982  .debug_str:0000000000033bc0 .LASF1590
     /tmp/cc7R4ZW9.s:98910  .debug_str:0000000000023735 .LASF1591
     /tmp/cc7R4ZW9.s:108888  .debug_str:000000000004c4ad .LASF1592
     /tmp/cc7R4ZW9.s:100520  .debug_str:0000000000029cec .LASF1593
     /tmp/cc7R4ZW9.s:91492  .debug_str:0000000000004e0f .LASF1594
     /tmp/cc7R4ZW9.s:93668  .debug_str:000000000000e088 .LASF1595
     /tmp/cc7R4ZW9.s:109732  .debug_str:000000000004feca .LASF1596
     /tmp/cc7R4ZW9.s:100290  .debug_str:0000000000028dca .LASF1597
     /tmp/cc7R4ZW9.s:104652  .debug_str:000000000003a4f6 .LASF1598
     /tmp/cc7R4ZW9.s:100652  .debug_str:000000000002a5ba .LASF1599
     /tmp/cc7R4ZW9.s:107844  .debug_str:0000000000047f18 .LASF1600
     /tmp/cc7R4ZW9.s:106864  .debug_str:0000000000043eb9 .LASF1601
     /tmp/cc7R4ZW9.s:94050  .debug_str:000000000000f558 .LASF1602
     /tmp/cc7R4ZW9.s:108366  .debug_str:000000000004a113 .LASF1603
     /tmp/cc7R4ZW9.s:91442  .debug_str:0000000000004abf .LASF1604
     /tmp/cc7R4ZW9.s:96652  .debug_str:0000000000019a28 .LASF1605
     /tmp/cc7R4ZW9.s:100630  .debug_str:000000000002a466 .LASF1606
     /tmp/cc7R4ZW9.s:92320  .debug_str:0000000000008561 .LASF1607
     /tmp/cc7R4ZW9.s:94546  .debug_str:000000000001119e .LASF1608
     /tmp/cc7R4ZW9.s:102764  .debug_str:0000000000032d36 .LASF1609
     /tmp/cc7R4ZW9.s:93770  .debug_str:000000000000e6c6 .LASF1610
     /tmp/cc7R4ZW9.s:92912  .debug_str:000000000000ae5e .LASF1611
     /tmp/cc7R4ZW9.s:96718  .debug_str:0000000000019ecf .LASF1612
     /tmp/cc7R4ZW9.s:109530  .debug_str:000000000004f1b1 .LASF1613
     /tmp/cc7R4ZW9.s:94346  .debug_str:000000000001058c .LASF1614
     /tmp/cc7R4ZW9.s:103166  .debug_str:0000000000034761 .LASF1615
     /tmp/cc7R4ZW9.s:109376  .debug_str:000000000004e725 .LASF1616
     /tmp/cc7R4ZW9.s:102072  .debug_str:0000000000030020 .LASF1617
     /tmp/cc7R4ZW9.s:99994  .debug_str:00000000000279d2 .LASF1618
     /tmp/cc7R4ZW9.s:102932  .debug_str:0000000000033890 .LASF1619
     /tmp/cc7R4ZW9.s:96910  .debug_str:000000000001acb8 .LASF1620
     /tmp/cc7R4ZW9.s:103912  .debug_str:0000000000037b28 .LASF1621
     /tmp/cc7R4ZW9.s:106468  .debug_str:0000000000042397 .LASF1622
     /tmp/cc7R4ZW9.s:105250  .debug_str:000000000003ce8f .LASF1623
     /tmp/cc7R4ZW9.s:97252  .debug_str:000000000001c3e6 .LASF1624
     /tmp/cc7R4ZW9.s:101374  .debug_str:000000000002d1fe .LASF1625
     /tmp/cc7R4ZW9.s:108934  .debug_str:000000000004c7db .LASF1626
     /tmp/cc7R4ZW9.s:94394  .debug_str:0000000000010888 .LASF1627
     /tmp/cc7R4ZW9.s:93368  .debug_str:000000000000ce24 .LASF1628
     /tmp/cc7R4ZW9.s:93064  .debug_str:000000000000b92a .LASF1629
     /tmp/cc7R4ZW9.s:90772  .debug_str:0000000000001d12 .LASF1630
     /tmp/cc7R4ZW9.s:102636  .debug_str:000000000003239b .LASF1631
     /tmp/cc7R4ZW9.s:95658  .debug_str:0000000000015933 .LASF1632
     /tmp/cc7R4ZW9.s:100602  .debug_str:000000000002a259 .LASF1633
     /tmp/cc7R4ZW9.s:102862  .debug_str:0000000000033350 .LASF1634
     /tmp/cc7R4ZW9.s:97934  .debug_str:000000000001f429 .LASF1635
     /tmp/cc7R4ZW9.s:96538  .debug_str:000000000001921a .LASF1636
     /tmp/cc7R4ZW9.s:103558  .debug_str:00000000000363b8 .LASF1637
     /tmp/cc7R4ZW9.s:92580  .debug_str:0000000000009756 .LASF1638
     /tmp/cc7R4ZW9.s:102256  .debug_str:0000000000030be0 .LASF1639
     /tmp/cc7R4ZW9.s:106476  .debug_str:0000000000042421 .LASF1640
     /tmp/cc7R4ZW9.s:97638  .debug_str:000000000001df88 .LASF1641
     /tmp/cc7R4ZW9.s:109490  .debug_str:000000000004ee41 .LASF1642
     /tmp/cc7R4ZW9.s:106472  .debug_str:00000000000423f3 .LASF1643
     /tmp/cc7R4ZW9.s:109512  .debug_str:000000000004f020 .LASF1644
     /tmp/cc7R4ZW9.s:93568  .debug_str:000000000000db3a .LASF1645
     /tmp/cc7R4ZW9.s:108982  .debug_str:000000000004cb29 .LASF1646
     /tmp/cc7R4ZW9.s:97858  .debug_str:000000000001ee50 .LASF1647
     /tmp/cc7R4ZW9.s:108332  .debug_str:0000000000049f54 .LASF1648
     /tmp/cc7R4ZW9.s:91598  .debug_str:0000000000005476 .LASF1649
     /tmp/cc7R4ZW9.s:96142  .debug_str:0000000000017967 .LASF1650
     /tmp/cc7R4ZW9.s:106776  .debug_str:00000000000438ad .LASF1651
     /tmp/cc7R4ZW9.s:96508  .debug_str:000000000001900e .LASF1652
     /tmp/cc7R4ZW9.s:99230  .debug_str:0000000000024bb5 .LASF1653
     /tmp/cc7R4ZW9.s:98648  .debug_str:00000000000225f0 .LASF1654
     /tmp/cc7R4ZW9.s:109700  .debug_str:000000000004fca2 .LASF1655
     /tmp/cc7R4ZW9.s:102622  .debug_str:0000000000032283 .LASF1656
     /tmp/cc7R4ZW9.s:95124  .debug_str:000000000001381a .LASF1657
     /tmp/cc7R4ZW9.s:99548  .debug_str:0000000000025e8d .LASF1658
     /tmp/cc7R4ZW9.s:103204  .debug_str:0000000000034a0e .LASF1659
     /tmp/cc7R4ZW9.s:91228  .debug_str:0000000000003b52 .LASF1660
     /tmp/cc7R4ZW9.s:102916  .debug_str:000000000003373e .LASF1661
     /tmp/cc7R4ZW9.s:93634  .debug_str:000000000000de78 .LASF1662
     /tmp/cc7R4ZW9.s:108678  .debug_str:000000000004b6c1 .LASF1663
     /tmp/cc7R4ZW9.s:100896  .debug_str:000000000002b451 .LASF1664
     /tmp/cc7R4ZW9.s:99652  .debug_str:00000000000263fd .LASF1665
     /tmp/cc7R4ZW9.s:93320  .debug_str:000000000000cac6 .LASF1666
     /tmp/cc7R4ZW9.s:98752  .debug_str:0000000000022c2c .LASF1667
     /tmp/cc7R4ZW9.s:102980  .debug_str:0000000000033b8a .LASF1668
     /tmp/cc7R4ZW9.s:108128  .debug_str:000000000004917d .LASF1669
     /tmp/cc7R4ZW9.s:109760  .debug_str:0000000000050066 .LASF1670
     /tmp/cc7R4ZW9.s:105330  .debug_str:000000000003d354 .LASF1671
     /tmp/cc7R4ZW9.s:101044  .debug_str:000000000002bd8d .LASF1672
     /tmp/cc7R4ZW9.s:108382  .debug_str:000000000004a221 .LASF1673
     /tmp/cc7R4ZW9.s:92238  .debug_str:0000000000007fa5 .LASF1674
     /tmp/cc7R4ZW9.s:106618  .debug_str:0000000000042e4c .LASF1675
     /tmp/cc7R4ZW9.s:103044  .debug_str:0000000000034004 .LASF1676
     /tmp/cc7R4ZW9.s:97586  .debug_str:000000000001dba3 .LASF1677
     /tmp/cc7R4ZW9.s:94068  .debug_str:000000000000f6bd .LASF1678
     /tmp/cc7R4ZW9.s:107964  .debug_str:00000000000486d0 .LASF1679
     /tmp/cc7R4ZW9.s:108166  .debug_str:000000000004944d .LASF1680
     /tmp/cc7R4ZW9.s:96774  .debug_str:000000000001a273 .LASF1681
     /tmp/cc7R4ZW9.s:99332  .debug_str:0000000000025269 .LASF1682
     /tmp/cc7R4ZW9.s:107158  .debug_str:00000000000451d4 .LASF1683
     /tmp/cc7R4ZW9.s:99720  .debug_str:0000000000026814 .LASF1684
     /tmp/cc7R4ZW9.s:98098  .debug_str:0000000000020011 .LASF1685
     /tmp/cc7R4ZW9.s:101264  .debug_str:000000000002cb4e .LASF1686
     /tmp/cc7R4ZW9.s:95250  .debug_str:0000000000013fbe .LASF1687
     /tmp/cc7R4ZW9.s:92286  .debug_str:0000000000008302 .LASF1688
     /tmp/cc7R4ZW9.s:103788  .debug_str:000000000003730e .LASF1689
     /tmp/cc7R4ZW9.s:106444  .debug_str:00000000000421f9 .LASF1690
     /tmp/cc7R4ZW9.s:95398  .debug_str:0000000000014966 .LASF1691
     /tmp/cc7R4ZW9.s:104950  .debug_str:000000000003b9ac .LASF1692
     /tmp/cc7R4ZW9.s:105758  .debug_str:000000000003f053 .LASF1693
     /tmp/cc7R4ZW9.s:91816  .debug_str:00000000000062d1 .LASF1694
     /tmp/cc7R4ZW9.s:99680  .debug_str:000000000002658f .LASF1695
     /tmp/cc7R4ZW9.s:102560  .debug_str:0000000000031e72 .LASF1696
     /tmp/cc7R4ZW9.s:90586  .debug_str:0000000000000f49 .LASF1697
     /tmp/cc7R4ZW9.s:103692  .debug_str:0000000000036ce1 .LASF1698
     /tmp/cc7R4ZW9.s:95752  .debug_str:0000000000015eff .LASF1699
     /tmp/cc7R4ZW9.s:94840  .debug_str:0000000000012482 .LASF1700
     /tmp/cc7R4ZW9.s:106128  .debug_str:000000000004076e .LASF1701
     /tmp/cc7R4ZW9.s:106212  .debug_str:0000000000040e9d .LASF1702
     /tmp/cc7R4ZW9.s:97878  .debug_str:000000000001efde .LASF1703
     /tmp/cc7R4ZW9.s:108748  .debug_str:000000000004bb8e .LASF1704
     /tmp/cc7R4ZW9.s:107398  .debug_str:00000000000461ac .LASF1705
     /tmp/cc7R4ZW9.s:97100  .debug_str:000000000001b8ea .LASF1706
     /tmp/cc7R4ZW9.s:104784  .debug_str:000000000003ae0b .LASF1707
     /tmp/cc7R4ZW9.s:108868  .debug_str:000000000004c36a .LASF1708
     /tmp/cc7R4ZW9.s:95590  .debug_str:00000000000154ea .LASF1709
     /tmp/cc7R4ZW9.s:102216  .debug_str:000000000003099b .LASF1710
     /tmp/cc7R4ZW9.s:98874  .debug_str:000000000002340d .LASF1711
     /tmp/cc7R4ZW9.s:91020  .debug_str:0000000000002def .LASF1712
     /tmp/cc7R4ZW9.s:104218  .debug_str:0000000000038d13 .LASF1713
     /tmp/cc7R4ZW9.s:104612  .debug_str:000000000003a1c1 .LASF1714
     /tmp/cc7R4ZW9.s:97114  .debug_str:000000000001ba16 .LASF1715
     /tmp/cc7R4ZW9.s:103868  .debug_str:0000000000037790 .LASF1716
     /tmp/cc7R4ZW9.s:106102  .debug_str:00000000000405b3 .LASF1717
     /tmp/cc7R4ZW9.s:100484  .debug_str:0000000000029ab2 .LASF1718
     /tmp/cc7R4ZW9.s:101830  .debug_str:000000000002ef95 .LASF1719
     /tmp/cc7R4ZW9.s:99138  .debug_str:000000000002468e .LASF1720
     /tmp/cc7R4ZW9.s:96308  .debug_str:0000000000018440 .LASF1721
     /tmp/cc7R4ZW9.s:94128  .debug_str:000000000000f9c3 .LASF1722
     /tmp/cc7R4ZW9.s:90664  .debug_str:0000000000001484 .LASF1723
     /tmp/cc7R4ZW9.s:106022  .debug_str:000000000004010a .LASF1724
     /tmp/cc7R4ZW9.s:93436  .debug_str:000000000000d2ff .LASF1725
     /tmp/cc7R4ZW9.s:96662  .debug_str:0000000000019ad3 .LASF1726
     /tmp/cc7R4ZW9.s:101716  .debug_str:000000000002e80b .LASF1727
     /tmp/cc7R4ZW9.s:106908  .debug_str:00000000000441e0 .LASF1728
     /tmp/cc7R4ZW9.s:94294  .debug_str:000000000001034d .LASF1729
     /tmp/cc7R4ZW9.s:98762  .debug_str:0000000000022ccb .LASF1730
     /tmp/cc7R4ZW9.s:104472  .debug_str:00000000000399bd .LASF1731
     /tmp/cc7R4ZW9.s:101218  .debug_str:000000000002c8a2 .LASF1732
     /tmp/cc7R4ZW9.s:95564  .debug_str:0000000000015367 .LASF1733
     /tmp/cc7R4ZW9.s:100114  .debug_str:00000000000281a1 .LASF1734
     /tmp/cc7R4ZW9.s:106358  .debug_str:000000000004199f .LASF1735
     /tmp/cc7R4ZW9.s:90986  .debug_str:0000000000002ba9 .LASF1736
     /tmp/cc7R4ZW9.s:97574  .debug_str:000000000001dabf .LASF1737
     /tmp/cc7R4ZW9.s:101508  .debug_str:000000000002da13 .LASF1738
     /tmp/cc7R4ZW9.s:109644  .debug_str:000000000004f8b9 .LASF1739
     /tmp/cc7R4ZW9.s:105754  .debug_str:000000000003f010 .LASF1740
     /tmp/cc7R4ZW9.s:100914  .debug_str:000000000002b64d .LASF1741
     /tmp/cc7R4ZW9.s:103134  .debug_str:00000000000345c6 .LASF1742
     /tmp/cc7R4ZW9.s:107364  .debug_str:0000000000045f5f .LASF1743
     /tmp/cc7R4ZW9.s:97986  .debug_str:000000000001f840 .LASF1744
     /tmp/cc7R4ZW9.s:99024  .debug_str:0000000000023ea8 .LASF1745
     /tmp/cc7R4ZW9.s:101078  .debug_str:000000000002c04f .LASF1746
     /tmp/cc7R4ZW9.s:106688  .debug_str:00000000000432be .LASF1747
     /tmp/cc7R4ZW9.s:106118  .debug_str:00000000000406c2 .LASF1748
     /tmp/cc7R4ZW9.s:102970  .debug_str:0000000000033aeb .LASF1749
     /tmp/cc7R4ZW9.s:97102  .debug_str:000000000001b906 .LASF1750
     /tmp/cc7R4ZW9.s:95622  .debug_str:00000000000156cc .LASF1751
     /tmp/cc7R4ZW9.s:108056  .debug_str:0000000000048cc3 .LASF1752
     /tmp/cc7R4ZW9.s:109588  .debug_str:000000000004f50f .LASF1753
     /tmp/cc7R4ZW9.s:96106  .debug_str:000000000001769d .LASF1754
     /tmp/cc7R4ZW9.s:103396  .debug_str:00000000000357e4 .LASF1755
     /tmp/cc7R4ZW9.s:107164  .debug_str:0000000000045238 .LASF1756
     /tmp/cc7R4ZW9.s:96292  .debug_str:00000000000182e9 .LASF1757
     /tmp/cc7R4ZW9.s:91910  .debug_str:0000000000006945 .LASF1758
     /tmp/cc7R4ZW9.s:91494  .debug_str:0000000000004e37 .LASF1759
     /tmp/cc7R4ZW9.s:96100  .debug_str:000000000001763f .LASF1760
     /tmp/cc7R4ZW9.s:106178  .debug_str:0000000000040b1d .LASF1761
     /tmp/cc7R4ZW9.s:109048  .debug_str:000000000004d002 .LASF1762
     /tmp/cc7R4ZW9.s:101522  .debug_str:000000000002db64 .LASF1763
     /tmp/cc7R4ZW9.s:99070  .debug_str:00000000000241a2 .LASF1764
     /tmp/cc7R4ZW9.s:98388  .debug_str:00000000000213e7 .LASF1765
     /tmp/cc7R4ZW9.s:101244  .debug_str:000000000002c9fe .LASF1766
     /tmp/cc7R4ZW9.s:97738  .debug_str:000000000001e6f3 .LASF1767
     /tmp/cc7R4ZW9.s:97136  .debug_str:000000000001bb91 .LASF1768
     /tmp/cc7R4ZW9.s:92868  .debug_str:000000000000ab06 .LASF1769
     /tmp/cc7R4ZW9.s:106778  .debug_str:00000000000438c9 .LASF1770
     /tmp/cc7R4ZW9.s:107642  .debug_str:0000000000047149 .LASF1771
     /tmp/cc7R4ZW9.s:97390  .debug_str:000000000001ce54 .LASF1772
     /tmp/cc7R4ZW9.s:96772  .debug_str:000000000001a252 .LASF1773
     /tmp/cc7R4ZW9.s:106878  .debug_str:0000000000043f9b .LASF1774
     /tmp/cc7R4ZW9.s:93204  .debug_str:000000000000c324 .LASF1775
     /tmp/cc7R4ZW9.s:106034  .debug_str:00000000000401b0 .LASF1776
     /tmp/cc7R4ZW9.s:98928  .debug_str:000000000002384f .LASF1777
     /tmp/cc7R4ZW9.s:101310  .debug_str:000000000002ce7d .LASF1778
     /tmp/cc7R4ZW9.s:107538  .debug_str:0000000000046a59 .LASF1779
     /tmp/cc7R4ZW9.s:99532  .debug_str:0000000000025d63 .LASF1780
     /tmp/cc7R4ZW9.s:99752  .debug_str:0000000000026a90 .LASF1781
     /tmp/cc7R4ZW9.s:104518  .debug_str:0000000000039cce .LASF1782
     /tmp/cc7R4ZW9.s:105830  .debug_str:000000000003f4f5 .LASF1783
     /tmp/cc7R4ZW9.s:95618  .debug_str:0000000000015699 .LASF1784
     /tmp/cc7R4ZW9.s:97054  .debug_str:000000000001b605 .LASF1785
     /tmp/cc7R4ZW9.s:107498  .debug_str:00000000000467df .LASF1786
     /tmp/cc7R4ZW9.s:95962  .debug_str:0000000000016d15 .LASF1787
     /tmp/cc7R4ZW9.s:108376  .debug_str:000000000004a1ae .LASF1788
     /tmp/cc7R4ZW9.s:92796  .debug_str:000000000000a674 .LASF1789
     /tmp/cc7R4ZW9.s:102728  .debug_str:0000000000032a87 .LASF1790
     /tmp/cc7R4ZW9.s:98518  .debug_str:0000000000021d0f .LASF1791
     /tmp/cc7R4ZW9.s:108284  .debug_str:0000000000049b7c .LASF1792
     /tmp/cc7R4ZW9.s:108852  .debug_str:000000000004c261 .LASF1793
     /tmp/cc7R4ZW9.s:107744  .debug_str:0000000000047821 .LASF1794
     /tmp/cc7R4ZW9.s:99650  .debug_str:00000000000263d4 .LASF1795
     /tmp/cc7R4ZW9.s:98918  .debug_str:00000000000237a5 .LASF1796
     /tmp/cc7R4ZW9.s:92736  .debug_str:000000000000a2b3 .LASF1797
     /tmp/cc7R4ZW9.s:109554  .debug_str:000000000004f313 .LASF1798
     /tmp/cc7R4ZW9.s:101054  .debug_str:000000000002be8e .LASF1799
     /tmp/cc7R4ZW9.s:95134  .debug_str:00000000000138c8 .LASF1800
     /tmp/cc7R4ZW9.s:102246  .debug_str:0000000000030b61 .LASF1801
     /tmp/cc7R4ZW9.s:105748  .debug_str:000000000003efc1 .LASF1802
     /tmp/cc7R4ZW9.s:91186  .debug_str:0000000000003872 .LASF1803
     /tmp/cc7R4ZW9.s:100020  .debug_str:0000000000027b81 .LASF1804
     /tmp/cc7R4ZW9.s:102578  .debug_str:0000000000031fa9 .LASF1805
     /tmp/cc7R4ZW9.s:102224  .debug_str:00000000000309fb .LASF1806
     /tmp/cc7R4ZW9.s:93354  .debug_str:000000000000cd4c .LASF1807
     /tmp/cc7R4ZW9.s:92100  .debug_str:00000000000076ed .LASF1808
     /tmp/cc7R4ZW9.s:98768  .debug_str:0000000000022d18 .LASF1809
     /tmp/cc7R4ZW9.s:102874  .debug_str:000000000003343c .LASF1810
     /tmp/cc7R4ZW9.s:109152  .debug_str:000000000004d667 .LASF1811
     /tmp/cc7R4ZW9.s:93500  .debug_str:000000000000d6ee .LASF1812
     /tmp/cc7R4ZW9.s:100746  .debug_str:000000000002ab3e .LASF1813
     /tmp/cc7R4ZW9.s:101224  .debug_str:000000000002c8eb .LASF1814
     /tmp/cc7R4ZW9.s:90478  .debug_str:0000000000000802 .LASF1815
     /tmp/cc7R4ZW9.s:108224  .debug_str:000000000004981d .LASF1816
     /tmp/cc7R4ZW9.s:109218  .debug_str:000000000004db48 .LASF1817
     /tmp/cc7R4ZW9.s:95080  .debug_str:00000000000135ab .LASF1818
     /tmp/cc7R4ZW9.s:97592  .debug_str:000000000001dc28 .LASF1819
     /tmp/cc7R4ZW9.s:101960  .debug_str:000000000002f8ac .LASF1820
     /tmp/cc7R4ZW9.s:97902  .debug_str:000000000001f14a .LASF1821
     /tmp/cc7R4ZW9.s:97116  .debug_str:000000000001ba38 .LASF1822
     /tmp/cc7R4ZW9.s:107418  .debug_str:00000000000462d9 .LASF1823
     /tmp/cc7R4ZW9.s:92224  .debug_str:0000000000007eb5 .LASF1824
     /tmp/cc7R4ZW9.s:109184  .debug_str:000000000004d8c9 .LASF1825
     /tmp/cc7R4ZW9.s:108300  .debug_str:0000000000049cb7 .LASF1826
     /tmp/cc7R4ZW9.s:98088  .debug_str:000000000001ff0a .LASF1827
     /tmp/cc7R4ZW9.s:100564  .debug_str:0000000000029fd9 .LASF1828
     /tmp/cc7R4ZW9.s:102826  .debug_str:00000000000330fd .LASF1829
     /tmp/cc7R4ZW9.s:100672  .debug_str:000000000002a72d .LASF1830
     /tmp/cc7R4ZW9.s:92674  .debug_str:0000000000009e80 .LASF1831
     /tmp/cc7R4ZW9.s:106254  .debug_str:000000000004118a .LASF1832
     /tmp/cc7R4ZW9.s:108718  .debug_str:000000000004b9c5 .LASF1833
     /tmp/cc7R4ZW9.s:101590  .debug_str:000000000002df8f .LASF1834
     /tmp/cc7R4ZW9.s:92778  .debug_str:000000000000a4dd .LASF1835
     /tmp/cc7R4ZW9.s:105340  .debug_str:000000000003d3f2 .LASF1836
     /tmp/cc7R4ZW9.s:105600  .debug_str:000000000003e67d .LASF1837
     /tmp/cc7R4ZW9.s:104496  .debug_str:0000000000039b5d .LASF1838
     /tmp/cc7R4ZW9.s:93548  .debug_str:000000000000da09 .LASF1839
     /tmp/cc7R4ZW9.s:101024  .debug_str:000000000002bca5 .LASF1840
     /tmp/cc7R4ZW9.s:102988  .debug_str:0000000000033c3d .LASF1841
     /tmp/cc7R4ZW9.s:90428  .debug_str:000000000000047a .LASF1842
     /tmp/cc7R4ZW9.s:92954  .debug_str:000000000000b12b .LASF1843
     /tmp/cc7R4ZW9.s:96738  .debug_str:0000000000019fd8 .LASF1844
     /tmp/cc7R4ZW9.s:92804  .debug_str:000000000000a702 .LASF1845
     /tmp/cc7R4ZW9.s:99828  .debug_str:0000000000026fab .LASF1846
     /tmp/cc7R4ZW9.s:106054  .debug_str:000000000004030b .LASF1847
     /tmp/cc7R4ZW9.s:96518  .debug_str:00000000000190ab .LASF1848
     /tmp/cc7R4ZW9.s:109526  .debug_str:000000000004f158 .LASF1849
     /tmp/cc7R4ZW9.s:100206  .debug_str:00000000000287c4 .LASF1850
     /tmp/cc7R4ZW9.s:103594  .debug_str:0000000000036613 .LASF1851
     /tmp/cc7R4ZW9.s:108218  .debug_str:0000000000049797 .LASF1852
     /tmp/cc7R4ZW9.s:105884  .debug_str:000000000003f845 .LASF1853
     /tmp/cc7R4ZW9.s:102070  .debug_str:000000000002ffff .LASF1854
     /tmp/cc7R4ZW9.s:107072  .debug_str:0000000000044bf0 .LASF1855
     /tmp/cc7R4ZW9.s:106506  .debug_str:0000000000042674 .LASF1856
     /tmp/cc7R4ZW9.s:99788  .debug_str:0000000000026cbe .LASF1857
     /tmp/cc7R4ZW9.s:92250  .debug_str:0000000000008077 .LASF1858
     /tmp/cc7R4ZW9.s:100810  .debug_str:000000000002af88 .LASF1859
     /tmp/cc7R4ZW9.s:100368  .debug_str:00000000000293a5 .LASF1860
     /tmp/cc7R4ZW9.s:95252  .debug_str:0000000000013fe1 .LASF1861
     /tmp/cc7R4ZW9.s:102392  .debug_str:0000000000031428 .LASF1862
     /tmp/cc7R4ZW9.s:96070  .debug_str:00000000000173f4 .LASF1863
     /tmp/cc7R4ZW9.s:101034  .debug_str:000000000002bd1c .LASF1864
     /tmp/cc7R4ZW9.s:92538  .debug_str:0000000000009487 .LASF1865
     /tmp/cc7R4ZW9.s:107636  .debug_str:00000000000470ea .LASF1866
     /tmp/cc7R4ZW9.s:102056  .debug_str:000000000002fede .LASF1867
     /tmp/cc7R4ZW9.s:91608  .debug_str:000000000000551c .LASF1868
     /tmp/cc7R4ZW9.s:98150  .debug_str:00000000000203d9 .LASF1869
     /tmp/cc7R4ZW9.s:91308  .debug_str:00000000000040f9 .LASF1870
     /tmp/cc7R4ZW9.s:95976  .debug_str:0000000000016ddb .LASF1871
     /tmp/cc7R4ZW9.s:92478  .debug_str:000000000000909a .LASF1872
     /tmp/cc7R4ZW9.s:102100  .debug_str:0000000000030199 .LASF1873
     /tmp/cc7R4ZW9.s:103400  .debug_str:000000000003583b .LASF1874
     /tmp/cc7R4ZW9.s:99832  .debug_str:0000000000026fe7 .LASF1875
     /tmp/cc7R4ZW9.s:100010  .debug_str:0000000000027acb .LASF1876
     /tmp/cc7R4ZW9.s:94918  .debug_str:000000000001299b .LASF1877
     /tmp/cc7R4ZW9.s:104160  .debug_str:0000000000038a2d .LASF1878
     /tmp/cc7R4ZW9.s:93958  .debug_str:000000000000ef83 .LASF1879
     /tmp/cc7R4ZW9.s:91200  .debug_str:0000000000003961 .LASF1880
     /tmp/cc7R4ZW9.s:109406  .debug_str:000000000004e98e .LASF1881
     /tmp/cc7R4ZW9.s:101504  .debug_str:000000000002d9cb .LASF1882
     /tmp/cc7R4ZW9.s:104124  .debug_str:000000000003876a .LASF1883
     /tmp/cc7R4ZW9.s:109140  .debug_str:000000000004d598 .LASF1884
     /tmp/cc7R4ZW9.s:98332  .debug_str:000000000002101f .LASF1885
     /tmp/cc7R4ZW9.s:98458  .debug_str:00000000000218a7 .LASF1886
     /tmp/cc7R4ZW9.s:98894  .debug_str:0000000000023574 .LASF1887
     /tmp/cc7R4ZW9.s:101604  .debug_str:000000000002e09a .LASF1888
     /tmp/cc7R4ZW9.s:103630  .debug_str:00000000000368a3 .LASF1889
     /tmp/cc7R4ZW9.s:103314  .debug_str:00000000000351dd .LASF1890
     /tmp/cc7R4ZW9.s:93124  .debug_str:000000000000be04 .LASF1891
     /tmp/cc7R4ZW9.s:94798  .debug_str:0000000000012217 .LASF1892
     /tmp/cc7R4ZW9.s:107648  .debug_str:00000000000471b4 .LASF1893
     /tmp/cc7R4ZW9.s:93526  .debug_str:000000000000d8a3 .LASF1894
     /tmp/cc7R4ZW9.s:105640  .debug_str:000000000003e942 .LASF1895
     /tmp/cc7R4ZW9.s:90978  .debug_str:0000000000002b48 .LASF1896
     /tmp/cc7R4ZW9.s:102572  .debug_str:0000000000031f32 .LASF1897
     /tmp/cc7R4ZW9.s:104722  .debug_str:000000000003a9c6 .LASF1898
     /tmp/cc7R4ZW9.s:106198  .debug_str:0000000000040cb1 .LASF1899
     /tmp/cc7R4ZW9.s:96594  .debug_str:0000000000019676 .LASF1900
     /tmp/cc7R4ZW9.s:101736  .debug_str:000000000002e948 .LASF1901
     /tmp/cc7R4ZW9.s:102332  .debug_str:0000000000031082 .LASF1902
     /tmp/cc7R4ZW9.s:95426  .debug_str:0000000000014b29 .LASF1903
     /tmp/cc7R4ZW9.s:102236  .debug_str:0000000000030a8a .LASF1904
     /tmp/cc7R4ZW9.s:93516  .debug_str:000000000000d7eb .LASF1905
     /tmp/cc7R4ZW9.s:99092  .debug_str:0000000000024361 .LASF1906
     /tmp/cc7R4ZW9.s:102210  .debug_str:000000000003091c .LASF1907
     /tmp/cc7R4ZW9.s:108862  .debug_str:000000000004c323 .LASF1908
     /tmp/cc7R4ZW9.s:90850  .debug_str:00000000000022ed .LASF1909
     /tmp/cc7R4ZW9.s:97324  .debug_str:000000000001c973 .LASF1910
     /tmp/cc7R4ZW9.s:93666  .debug_str:000000000000e05c .LASF1911
     /tmp/cc7R4ZW9.s:104696  .debug_str:000000000003a7ca .LASF1912
     /tmp/cc7R4ZW9.s:102244  .debug_str:0000000000030b37 .LASF1913
     /tmp/cc7R4ZW9.s:97244  .debug_str:000000000001c34e .LASF1914
     /tmp/cc7R4ZW9.s:100670  .debug_str:000000000002a707 .LASF1915
     /tmp/cc7R4ZW9.s:107428  .debug_str:00000000000463c8 .LASF1916
     /tmp/cc7R4ZW9.s:92526  .debug_str:00000000000093b8 .LASF1917
     /tmp/cc7R4ZW9.s:105492  .debug_str:000000000003df2c .LASF1918
     /tmp/cc7R4ZW9.s:98972  .debug_str:0000000000023b2e .LASF1919
     /tmp/cc7R4ZW9.s:102370  .debug_str:00000000000312ca .LASF1920
     /tmp/cc7R4ZW9.s:92714  .debug_str:000000000000a0ec .LASF1921
     /tmp/cc7R4ZW9.s:96252  .debug_str:000000000001808f .LASF1922
     /tmp/cc7R4ZW9.s:98010  .debug_str:000000000001f9d0 .LASF1923
     /tmp/cc7R4ZW9.s:101578  .debug_str:000000000002dee6 .LASF1924
     /tmp/cc7R4ZW9.s:94070  .debug_str:000000000000f6da .LASF1925
     /tmp/cc7R4ZW9.s:97690  .debug_str:000000000001e348 .LASF1926
     /tmp/cc7R4ZW9.s:94308  .debug_str:00000000000103f4 .LASF1927
     /tmp/cc7R4ZW9.s:99806  .debug_str:0000000000026e1f .LASF1928
     /tmp/cc7R4ZW9.s:94570  .debug_str:000000000001133b .LASF1929
     /tmp/cc7R4ZW9.s:106524  .debug_str:0000000000042810 .LASF1930
     /tmp/cc7R4ZW9.s:107746  .debug_str:0000000000047842 .LASF1931
     /tmp/cc7R4ZW9.s:91826  .debug_str:0000000000006397 .LASF1932
     /tmp/cc7R4ZW9.s:94106  .debug_str:000000000000f80a .LASF1933
     /tmp/cc7R4ZW9.s:102294  .debug_str:0000000000030e65 .LASF1934
     /tmp/cc7R4ZW9.s:105956  .debug_str:000000000003fd38 .LASF1935
     /tmp/cc7R4ZW9.s:99246  .debug_str:0000000000024d66 .LASF1936
     /tmp/cc7R4ZW9.s:105858  .debug_str:000000000003f6b2 .LASF1937
     /tmp/cc7R4ZW9.s:91778  .debug_str:0000000000006081 .LASF1938
     /tmp/cc7R4ZW9.s:97148  .debug_str:000000000001bc84 .LASF1939
     /tmp/cc7R4ZW9.s:108664  .debug_str:000000000004b5b8 .LASF1940
     /tmp/cc7R4ZW9.s:100972  .debug_str:000000000002b9f1 .LASF1941
     /tmp/cc7R4ZW9.s:97174  .debug_str:000000000001be44 .LASF1942
     /tmp/cc7R4ZW9.s:98984  .debug_str:0000000000023c05 .LASF1943
     /tmp/cc7R4ZW9.s:91576  .debug_str:0000000000005312 .LASF1944
     /tmp/cc7R4ZW9.s:98378  .debug_str:000000000002132a .LASF1945
     /tmp/cc7R4ZW9.s:94694  .debug_str:0000000000011aef .LASF1946
     /tmp/cc7R4ZW9.s:90776  .debug_str:0000000000001d5b .LASF1947
     /tmp/cc7R4ZW9.s:97092  .debug_str:000000000001b866 .LASF1948
     /tmp/cc7R4ZW9.s:106794  .debug_str:0000000000043a27 .LASF1949
     /tmp/cc7R4ZW9.s:100202  .debug_str:0000000000028773 .LASF1950
     /tmp/cc7R4ZW9.s:97834  .debug_str:000000000001ed43 .LASF1951
     /tmp/cc7R4ZW9.s:102910  .debug_str:00000000000336c3 .LASF1952
     /tmp/cc7R4ZW9.s:90902  .debug_str:0000000000002647 .LASF1953
     /tmp/cc7R4ZW9.s:96784  .debug_str:000000000001a352 .LASF1954
     /tmp/cc7R4ZW9.s:106082  .debug_str:00000000000404c3 .LASF1955
     /tmp/cc7R4ZW9.s:107728  .debug_str:00000000000476c8 .LASF1956
     /tmp/cc7R4ZW9.s:92264  .debug_str:0000000000008157 .LASF1957
     /tmp/cc7R4ZW9.s:96560  .debug_str:000000000001938e .LASF1958
     /tmp/cc7R4ZW9.s:95970  .debug_str:0000000000016d9a .LASF1959
     /tmp/cc7R4ZW9.s:107902  .debug_str:0000000000048316 .LASF1960
     /tmp/cc7R4ZW9.s:102760  .debug_str:0000000000032cef .LASF1961
     /tmp/cc7R4ZW9.s:108388  .debug_str:000000000004a298 .LASF1962
     /tmp/cc7R4ZW9.s:98624  .debug_str:000000000002244b .LASF1963
     /tmp/cc7R4ZW9.s:103046  .debug_str:0000000000034021 .LASF1964
     /tmp/cc7R4ZW9.s:92126  .debug_str:00000000000078df .LASF1965
     /tmp/cc7R4ZW9.s:108304  .debug_str:0000000000049cf2 .LASF1966
     /tmp/cc7R4ZW9.s:96490  .debug_str:0000000000018ed5 .LASF1967
     /tmp/cc7R4ZW9.s:104042  .debug_str:00000000000382c9 .LASF1968
     /tmp/cc7R4ZW9.s:107462  .debug_str:0000000000046604 .LASF1969
     /tmp/cc7R4ZW9.s:98072  .debug_str:000000000001fdbb .LASF1970
     /tmp/cc7R4ZW9.s:100274  .debug_str:0000000000028cbe .LASF1971
     /tmp/cc7R4ZW9.s:96214  .debug_str:0000000000017ec1 .LASF1972
     /tmp/cc7R4ZW9.s:91388  .debug_str:0000000000004673 .LASF1973
     /tmp/cc7R4ZW9.s:99364  .debug_str:0000000000025451 .LASF1974
     /tmp/cc7R4ZW9.s:91344  .debug_str:00000000000043cf .LASF1975
     /tmp/cc7R4ZW9.s:105784  .debug_str:000000000003f217 .LASF1976
     /tmp/cc7R4ZW9.s:92420  .debug_str:0000000000008c18 .LASF1977
     /tmp/cc7R4ZW9.s:100454  .debug_str:0000000000029886 .LASF1978
     /tmp/cc7R4ZW9.s:103240  .debug_str:0000000000034d7d .LASF1979
     /tmp/cc7R4ZW9.s:108882  .debug_str:000000000004c458 .LASF1980
     /tmp/cc7R4ZW9.s:98826  .debug_str:00000000000230c7 .LASF1981
     /tmp/cc7R4ZW9.s:96924  .debug_str:000000000001adac .LASF1982
     /tmp/cc7R4ZW9.s:109364  .debug_str:000000000004e63c .LASF1983
     /tmp/cc7R4ZW9.s:93996  .debug_str:000000000000f241 .LASF1984
     /tmp/cc7R4ZW9.s:105792  .debug_str:000000000003f2ba .LASF1985
     /tmp/cc7R4ZW9.s:106552  .debug_str:00000000000429dc .LASF1986
     /tmp/cc7R4ZW9.s:107910  .debug_str:0000000000048378 .LASF1987
     /tmp/cc7R4ZW9.s:99520  .debug_str:0000000000025cd7 .LASF1988
     /tmp/cc7R4ZW9.s:101038  .debug_str:000000000002bd54 .LASF1989
     /tmp/cc7R4ZW9.s:107532  .debug_str:00000000000469eb .LASF1990
     /tmp/cc7R4ZW9.s:90372  .debug_str:0000000000000080 .LASF1991
     /tmp/cc7R4ZW9.s:98738  .debug_str:0000000000022b34 .LASF1992
     /tmp/cc7R4ZW9.s:100856  .debug_str:000000000002b261 .LASF1993
     /tmp/cc7R4ZW9.s:95422  .debug_str:0000000000014ae6 .LASF1994
     /tmp/cc7R4ZW9.s:91670  .debug_str:000000000000599a .LASF1995
     /tmp/cc7R4ZW9.s:105418  .debug_str:000000000003d94d .LASF1996
     /tmp/cc7R4ZW9.s:99916  .debug_str:0000000000027436 .LASF1997
     /tmp/cc7R4ZW9.s:93058  .debug_str:000000000000b8d3 .LASF1998
     /tmp/cc7R4ZW9.s:100952  .debug_str:000000000002b8bb .LASF1999
     /tmp/cc7R4ZW9.s:101724  .debug_str:000000000002e8c2 .LASF2000
     /tmp/cc7R4ZW9.s:91774  .debug_str:0000000000006011 .LASF2001
     /tmp/cc7R4ZW9.s:96180  .debug_str:0000000000017c42 .LASF2002
     /tmp/cc7R4ZW9.s:92958  .debug_str:000000000000b189 .LASF2003
     /tmp/cc7R4ZW9.s:106738  .debug_str:0000000000043659 .LASF2004
     /tmp/cc7R4ZW9.s:104864  .debug_str:000000000003b36e .LASF2005
     /tmp/cc7R4ZW9.s:98980  .debug_str:0000000000023bc9 .LASF2006
     /tmp/cc7R4ZW9.s:97654  .debug_str:000000000001e091 .LASF2007
     /tmp/cc7R4ZW9.s:108994  .debug_str:000000000004cbed .LASF2008
     /tmp/cc7R4ZW9.s:109638  .debug_str:000000000004f869 .LASF2009
     /tmp/cc7R4ZW9.s:99132  .debug_str:0000000000024621 .LASF2010
     /tmp/cc7R4ZW9.s:94666  .debug_str:00000000000118e4 .LASF2011
     /tmp/cc7R4ZW9.s:104154  .debug_str:00000000000389b1 .LASF2012
     /tmp/cc7R4ZW9.s:98106  .debug_str:00000000000200c7 .LASF2013
     /tmp/cc7R4ZW9.s:105036  .debug_str:000000000003bf5f .LASF2014
     /tmp/cc7R4ZW9.s:97554  .debug_str:000000000001d93c .LASF2015
     /tmp/cc7R4ZW9.s:94690  .debug_str:0000000000011a98 .LASF2016
     /tmp/cc7R4ZW9.s:91860  .debug_str:00000000000065e1 .LASF2017
     /tmp/cc7R4ZW9.s:102362  .debug_str:000000000003125e .LASF2018
     /tmp/cc7R4ZW9.s:95558  .debug_str:00000000000152f9 .LASF2019
     /tmp/cc7R4ZW9.s:108950  .debug_str:000000000004c8bb .LASF2020
     /tmp/cc7R4ZW9.s:97606  .debug_str:000000000001dd6b .LASF2021
     /tmp/cc7R4ZW9.s:94490  .debug_str:0000000000010e96 .LASF2022
     /tmp/cc7R4ZW9.s:107230  .debug_str:0000000000045647 .LASF2023
     /tmp/cc7R4ZW9.s:101338  .debug_str:000000000002d013 .LASF2024
     /tmp/cc7R4ZW9.s:102308  .debug_str:0000000000030f47 .LASF2025
     /tmp/cc7R4ZW9.s:91250  .debug_str:0000000000003cd5 .LASF2026
     /tmp/cc7R4ZW9.s:91006  .debug_str:0000000000002d0c .LASF2027
     /tmp/cc7R4ZW9.s:92906  .debug_str:000000000000ae01 .LASF2028
     /tmp/cc7R4ZW9.s:105680  .debug_str:000000000003ebf6 .LASF2029
     /tmp/cc7R4ZW9.s:94284  .debug_str:000000000001028f .LASF2030
     /tmp/cc7R4ZW9.s:93054  .debug_str:000000000000b89c .LASF2031
     /tmp/cc7R4ZW9.s:105898  .debug_str:000000000003f964 .LASF2032
     /tmp/cc7R4ZW9.s:90534  .debug_str:0000000000000bc8 .LASF2033
     /tmp/cc7R4ZW9.s:93848  .debug_str:000000000000ea39 .LASF2034
     /tmp/cc7R4ZW9.s:90858  .debug_str:000000000000235c .LASF2035
     /tmp/cc7R4ZW9.s:97818  .debug_str:000000000001ebff .LASF2036
     /tmp/cc7R4ZW9.s:105546  .debug_str:000000000003e315 .LASF2037
     /tmp/cc7R4ZW9.s:107344  .debug_str:0000000000045e15 .LASF2038
     /tmp/cc7R4ZW9.s:104788  .debug_str:000000000003ae5c .LASF2039
     /tmp/cc7R4ZW9.s:109728  .debug_str:000000000004fe75 .LASF2040
     /tmp/cc7R4ZW9.s:99898  .debug_str:000000000002735c .LASF2041
     /tmp/cc7R4ZW9.s:97568  .debug_str:000000000001da22 .LASF2042
     /tmp/cc7R4ZW9.s:91606  .debug_str:0000000000005501 .LASF2043
     /tmp/cc7R4ZW9.s:106194  .debug_str:0000000000040c51 .LASF2044
     /tmp/cc7R4ZW9.s:106320  .debug_str:00000000000416fd .LASF2045
     /tmp/cc7R4ZW9.s:96264  .debug_str:0000000000018163 .LASF2046
     /tmp/cc7R4ZW9.s:108848  .debug_str:000000000004c23c .LASF2047
     /tmp/cc7R4ZW9.s:95214  .debug_str:0000000000013dc8 .LASF2048
     /tmp/cc7R4ZW9.s:91188  .debug_str:0000000000003898 .LASF2049
     /tmp/cc7R4ZW9.s:109634  .debug_str:000000000004f808 .LASF2050
     /tmp/cc7R4ZW9.s:107156  .debug_str:00000000000451b9 .LASF2051
     /tmp/cc7R4ZW9.s:109060  .debug_str:000000000004d0e9 .LASF2052
     /tmp/cc7R4ZW9.s:98376  .debug_str:0000000000021302 .LASF2053
     /tmp/cc7R4ZW9.s:90558  .debug_str:0000000000000d63 .LASF2054
     /tmp/cc7R4ZW9.s:107826  .debug_str:0000000000047da0 .LASF2055
     /tmp/cc7R4ZW9.s:97556  .debug_str:000000000001d965 .LASF2056
     /tmp/cc7R4ZW9.s:108344  .debug_str:000000000004a009 .LASF2057
     /tmp/cc7R4ZW9.s:92644  .debug_str:0000000000009cbe .LASF2058
     /tmp/cc7R4ZW9.s:98432  .debug_str:00000000000216c3 .LASF2059
     /tmp/cc7R4ZW9.s:99664  .debug_str:00000000000264bc .LASF2060
     /tmp/cc7R4ZW9.s:99802  .debug_str:0000000000026dba .LASF2061
     /tmp/cc7R4ZW9.s:94878  .debug_str:00000000000126d8 .LASF2062
     /tmp/cc7R4ZW9.s:109280  .debug_str:000000000004e0a2 .LASF2063
     /tmp/cc7R4ZW9.s:103938  .debug_str:0000000000037c0e .LASF2064
     /tmp/cc7R4ZW9.s:93620  .debug_str:000000000000dd67 .LASF2065
     /tmp/cc7R4ZW9.s:92504  .debug_str:00000000000091e1 .LASF2066
     /tmp/cc7R4ZW9.s:103468  .debug_str:0000000000035d63 .LASF2067
     /tmp/cc7R4ZW9.s:106510  .debug_str:00000000000426ba .LASF2068
     /tmp/cc7R4ZW9.s:104526  .debug_str:0000000000039cfe .LASF2069
     /tmp/cc7R4ZW9.s:101840  .debug_str:000000000002f025 .LASF2070
     /tmp/cc7R4ZW9.s:94622  .debug_str:00000000000115df .LASF2071
     /tmp/cc7R4ZW9.s:98194  .debug_str:0000000000020747 .LASF2072
     /tmp/cc7R4ZW9.s:102200  .debug_str:000000000003083c .LASF2073
     /tmp/cc7R4ZW9.s:98354  .debug_str:0000000000021170 .LASF2074
     /tmp/cc7R4ZW9.s:92098  .debug_str:00000000000076c4 .LASF2075
     /tmp/cc7R4ZW9.s:96102  .debug_str:0000000000017669 .LASF2076
     /tmp/cc7R4ZW9.s:103194  .debug_str:000000000003495a .LASF2077
     /tmp/cc7R4ZW9.s:91116  .debug_str:000000000000348d .LASF2078
     /tmp/cc7R4ZW9.s:105534  .debug_str:000000000003e215 .LASF2079
     /tmp/cc7R4ZW9.s:91588  .debug_str:00000000000053cb .LASF2080
     /tmp/cc7R4ZW9.s:91894  .debug_str:0000000000006821 .LASF2081
     /tmp/cc7R4ZW9.s:103740  .debug_str:0000000000036f95 .LASF2082
     /tmp/cc7R4ZW9.s:100846  .debug_str:000000000002b1f7 .LASF2083
     /tmp/cc7R4ZW9.s:106530  .debug_str:000000000004289b .LASF2084
     /tmp/cc7R4ZW9.s:107276  .debug_str:00000000000459a4 .LASF2085
     /tmp/cc7R4ZW9.s:105246  .debug_str:000000000003ce34 .LASF2086
     /tmp/cc7R4ZW9.s:95846  .debug_str:0000000000016500 .LASF2087
     /tmp/cc7R4ZW9.s:98992  .debug_str:0000000000023c66 .LASF2088
     /tmp/cc7R4ZW9.s:91740  .debug_str:0000000000005e11 .LASF2089
     /tmp/cc7R4ZW9.s:108940  .debug_str:000000000004c835 .LASF2090
     /tmp/cc7R4ZW9.s:97472  .debug_str:000000000001d3ad .LASF2091
     /tmp/cc7R4ZW9.s:102240  .debug_str:0000000000030add .LASF2092
     /tmp/cc7R4ZW9.s:109040  .debug_str:000000000004cf7a .LASF2093
     /tmp/cc7R4ZW9.s:99866  .debug_str:00000000000271d2 .LASF2094
     /tmp/cc7R4ZW9.s:101580  .debug_str:000000000002df0e .LASF2095
     /tmp/cc7R4ZW9.s:108080  .debug_str:0000000000048e42 .LASF2096
     /tmp/cc7R4ZW9.s:101298  .debug_str:000000000002cdd3 .LASF2097
     /tmp/cc7R4ZW9.s:105096  .debug_str:000000000003c411 .LASF2098
     /tmp/cc7R4ZW9.s:106806  .debug_str:0000000000043ae9 .LASF2099
     /tmp/cc7R4ZW9.s:109566  .debug_str:000000000004f396 .LASF2100
     /tmp/cc7R4ZW9.s:92888  .debug_str:000000000000ac4a .LASF2101
     /tmp/cc7R4ZW9.s:104246  .debug_str:0000000000038ec4 .LASF2102
     /tmp/cc7R4ZW9.s:99090  .debug_str:0000000000024338 .LASF2103
     /tmp/cc7R4ZW9.s:104888  .debug_str:000000000003b552 .LASF2104
     /tmp/cc7R4ZW9.s:108580  .debug_str:000000000004af93 .LASF2105
     /tmp/cc7R4ZW9.s:92560  .debug_str:0000000000009641 .LASF2106
     /tmp/cc7R4ZW9.s:103298  .debug_str:00000000000350b5 .LASF2107
     /tmp/cc7R4ZW9.s:107182  .debug_str:0000000000045351 .LASF2108
     /tmp/cc7R4ZW9.s:93150  .debug_str:000000000000bf9e .LASF2109
     /tmp/cc7R4ZW9.s:94786  .debug_str:0000000000012132 .LASF2110
     /tmp/cc7R4ZW9.s:94612  .debug_str:0000000000011534 .LASF2111
     /tmp/cc7R4ZW9.s:109278  .debug_str:000000000004e080 .LASF2112
     /tmp/cc7R4ZW9.s:104206  .debug_str:0000000000038c2b .LASF2113
     /tmp/cc7R4ZW9.s:92430  .debug_str:0000000000008ccb .LASF2114
     /tmp/cc7R4ZW9.s:108032  .debug_str:0000000000048b6e .LASF2115
     /tmp/cc7R4ZW9.s:107208  .debug_str:0000000000045498 .LASF2116
     /tmp/cc7R4ZW9.s:98074  .debug_str:000000000001fde4 .LASF2117
     /tmp/cc7R4ZW9.s:105616  .debug_str:000000000003e774 .LASF2118
     /tmp/cc7R4ZW9.s:105412  .debug_str:000000000003d8fb .LASF2119
     /tmp/cc7R4ZW9.s:100930  .debug_str:000000000002b72f .LASF2120
     /tmp/cc7R4ZW9.s:95434  .debug_str:0000000000014b91 .LASF2121
     /tmp/cc7R4ZW9.s:93202  .debug_str:000000000000c302 .LASF2122
     /tmp/cc7R4ZW9.s:96990  .debug_str:000000000001b217 .LASF2123
     /tmp/cc7R4ZW9.s:107800  .debug_str:0000000000047b97 .LASF2124
     /tmp/cc7R4ZW9.s:106462  .debug_str:000000000004231d .LASF2125
     /tmp/cc7R4ZW9.s:91018  .debug_str:0000000000002dcd .LASF2126
     /tmp/cc7R4ZW9.s:90872  .debug_str:000000000000244e .LASF2127
     /tmp/cc7R4ZW9.s:105686  .debug_str:000000000003ec82 .LASF2128
     /tmp/cc7R4ZW9.s:100440  .debug_str:000000000002975f .LASF2129
     /tmp/cc7R4ZW9.s:103268  .debug_str:0000000000034ef9 .LASF2130
     /tmp/cc7R4ZW9.s:106256  .debug_str:00000000000411a9 .LASF2131
     /tmp/cc7R4ZW9.s:96430  .debug_str:0000000000018b52 .LASF2132
     /tmp/cc7R4ZW9.s:105114  .debug_str:000000000003c584 .LASF2133
     /tmp/cc7R4ZW9.s:100476  .debug_str:0000000000029a37 .LASF2134
     /tmp/cc7R4ZW9.s:100058  .debug_str:0000000000027e2e .LASF2135
     /tmp/cc7R4ZW9.s:105300  .debug_str:000000000003d198 .LASF2136
     /tmp/cc7R4ZW9.s:98908  .debug_str:0000000000023706 .LASF2137
     /tmp/cc7R4ZW9.s:101742  .debug_str:000000000002e9a4 .LASF2138
     /tmp/cc7R4ZW9.s:105570  .debug_str:000000000003e491 .LASF2139
     /tmp/cc7R4ZW9.s:96420  .debug_str:0000000000018a8d .LASF2140
     /tmp/cc7R4ZW9.s:103208  .debug_str:0000000000034a52 .LASF2141
     /tmp/cc7R4ZW9.s:106856  .debug_str:0000000000043e3e .LASF2142
     /tmp/cc7R4ZW9.s:105164  .debug_str:000000000003c92f .LASF2143
     /tmp/cc7R4ZW9.s:96720  .debug_str:0000000000019f13 .LASF2144
     /tmp/cc7R4ZW9.s:102930  .debug_str:0000000000033868 .LASF2145
     /tmp/cc7R4ZW9.s:90706  .debug_str:000000000000179b .LASF2146
     /tmp/cc7R4ZW9.s:92236  .debug_str:0000000000007f7c .LASF2147
     /tmp/cc7R4ZW9.s:99494  .debug_str:0000000000025b08 .LASF2148
     /tmp/cc7R4ZW9.s:100834  .debug_str:000000000002b157 .LASF2149
     /tmp/cc7R4ZW9.s:108464  .debug_str:000000000004a704 .LASF2150
     /tmp/cc7R4ZW9.s:98244  .debug_str:0000000000020ac5 .LASF2151
     /tmp/cc7R4ZW9.s:94898  .debug_str:0000000000012803 .LASF2152
     /tmp/cc7R4ZW9.s:90528  .debug_str:0000000000000b63 .LASF2153
     /tmp/cc7R4ZW9.s:103886  .debug_str:0000000000037925 .LASF2154
     /tmp/cc7R4ZW9.s:108660  .debug_str:000000000004b570 .LASF2155
     /tmp/cc7R4ZW9.s:98720  .debug_str:0000000000022a03 .LASF2156
     /tmp/cc7R4ZW9.s:104426  .debug_str:00000000000397d5 .LASF2157
     /tmp/cc7R4ZW9.s:109272  .debug_str:000000000004dff0 .LASF2158
     /tmp/cc7R4ZW9.s:102164  .debug_str:0000000000030584 .LASF2159
     /tmp/cc7R4ZW9.s:103222  .debug_str:0000000000034bae .LASF2160
     /tmp/cc7R4ZW9.s:100026  .debug_str:0000000000027bec .LASF2161
     /tmp/cc7R4ZW9.s:97130  .debug_str:000000000001bafb .LASF2162
     /tmp/cc7R4ZW9.s:109072  .debug_str:000000000004d1d2 .LASF2163
     /tmp/cc7R4ZW9.s:106566  .debug_str:0000000000042b0a .LASF2164
     /tmp/cc7R4ZW9.s:101330  .debug_str:000000000002cf6c .LASF2165
     /tmp/cc7R4ZW9.s:99608  .debug_str:0000000000026121 .LASF2166
     /tmp/cc7R4ZW9.s:97264  .debug_str:000000000001c4ee .LASF2167
     /tmp/cc7R4ZW9.s:105090  .debug_str:000000000003c39b .LASF2168
     /tmp/cc7R4ZW9.s:93310  .debug_str:000000000000c9e1 .LASF2169
     /tmp/cc7R4ZW9.s:92436  .debug_str:0000000000008d39 .LASF2170
     /tmp/cc7R4ZW9.s:103424  .debug_str:0000000000035a1b .LASF2171
     /tmp/cc7R4ZW9.s:109076  .debug_str:000000000004d22d .LASF2172
     /tmp/cc7R4ZW9.s:106570  .debug_str:0000000000042b86 .LASF2173
     /tmp/cc7R4ZW9.s:97602  .debug_str:000000000001dd26 .LASF2174
     /tmp/cc7R4ZW9.s:99086  .debug_str:00000000000242e6 .LASF2175
     /tmp/cc7R4ZW9.s:106374  .debug_str:0000000000041a73 .LASF2176
     /tmp/cc7R4ZW9.s:97186  .debug_str:000000000001bf1e .LASF2177
     /tmp/cc7R4ZW9.s:94000  .debug_str:000000000000f281 .LASF2178
     /tmp/cc7R4ZW9.s:100658  .debug_str:000000000002a629 .LASF2179
     /tmp/cc7R4ZW9.s:90894  .debug_str:000000000000257e .LASF2180
     /tmp/cc7R4ZW9.s:91786  .debug_str:00000000000060f6 .LASF2181
     /tmp/cc7R4ZW9.s:91604  .debug_str:00000000000054d7 .LASF2182
     /tmp/cc7R4ZW9.s:102580  .debug_str:0000000000031fcf .LASF2183
     /tmp/cc7R4ZW9.s:99698  .debug_str:00000000000266b7 .LASF2184
     /tmp/cc7R4ZW9.s:109346  .debug_str:000000000004e500 .LASF2185
     /tmp/cc7R4ZW9.s:102386  .debug_str:00000000000313f0 .LASF2186
     /tmp/cc7R4ZW9.s:94412  .debug_str:00000000000109b8 .LASF2187
     /tmp/cc7R4ZW9.s:90446  .debug_str:0000000000000614 .LASF2188
     /tmp/cc7R4ZW9.s:97926  .debug_str:000000000001f3a7 .LASF2189
     /tmp/cc7R4ZW9.s:96730  .debug_str:0000000000019f76 .LASF2190
     /tmp/cc7R4ZW9.s:109514  .debug_str:000000000004f04c .LASF2191
     /tmp/cc7R4ZW9.s:100932  .debug_str:000000000002b750 .LASF2192
     /tmp/cc7R4ZW9.s:90382  .debug_str:0000000000000127 .LASF2193
     /tmp/cc7R4ZW9.s:105842  .debug_str:000000000003f5cd .LASF2194
     /tmp/cc7R4ZW9.s:109020  .debug_str:000000000004cdbb .LASF2195
     /tmp/cc7R4ZW9.s:97776  .debug_str:000000000001e912 .LASF2196
     /tmp/cc7R4ZW9.s:103086  .debug_str:000000000003426e .LASF2197
     /tmp/cc7R4ZW9.s:108510  .debug_str:000000000004aa37 .LASF2198
     /tmp/cc7R4ZW9.s:101214  .debug_str:000000000002c853 .LASF2199
     /tmp/cc7R4ZW9.s:96528  .debug_str:0000000000019195 .LASF2200
     /tmp/cc7R4ZW9.s:97200  .debug_str:000000000001c069 .LASF2201
     /tmp/cc7R4ZW9.s:105074  .debug_str:000000000003c23f .LASF2202
     /tmp/cc7R4ZW9.s:92132  .debug_str:0000000000007936 .LASF2203
     /tmp/cc7R4ZW9.s:102766  .debug_str:0000000000032d58 .LASF2204
     /tmp/cc7R4ZW9.s:106634  .debug_str:0000000000042f1b .LASF2205
     /tmp/cc7R4ZW9.s:93142  .debug_str:000000000000bf4d .LASF2206
     /tmp/cc7R4ZW9.s:91708  .debug_str:0000000000005c0b .LASF2207
     /tmp/cc7R4ZW9.s:105942  .debug_str:000000000003fc42 .LASF2208
     /tmp/cc7R4ZW9.s:105116  .debug_str:000000000003c5a8 .LASF2209
     /tmp/cc7R4ZW9.s:102030  .debug_str:000000000002fd09 .LASF2210
     /tmp/cc7R4ZW9.s:92188  .debug_str:0000000000007ca9 .LASF2211
     /tmp/cc7R4ZW9.s:103616  .debug_str:0000000000036792 .LASF2212
     /tmp/cc7R4ZW9.s:107402  .debug_str:00000000000461d9 .LASF2213
     /tmp/cc7R4ZW9.s:91162  .debug_str:000000000000369d .LASF2214
     /tmp/cc7R4ZW9.s:105314  .debug_str:000000000003d288 .LASF2215
     /tmp/cc7R4ZW9.s:104602  .debug_str:000000000003a11d .LASF2216
     /tmp/cc7R4ZW9.s:103284  .debug_str:0000000000034fd0 .LASF2217
     /tmp/cc7R4ZW9.s:98384  .debug_str:000000000002139e .LASF2218
     /tmp/cc7R4ZW9.s:103802  .debug_str:000000000003742a .LASF2219
     /tmp/cc7R4ZW9.s:95828  .debug_str:000000000001638d .LASF2220
     /tmp/cc7R4ZW9.s:95904  .debug_str:00000000000168f0 .LASF2221
     /tmp/cc7R4ZW9.s:106870  .debug_str:0000000000043f20 .LASF2222
     /tmp/cc7R4ZW9.s:92032  .debug_str:0000000000007288 .LASF2223
     /tmp/cc7R4ZW9.s:95032  .debug_str:00000000000131ba .LASF2224
     /tmp/cc7R4ZW9.s:91426  .debug_str:0000000000004920 .LASF2225
     /tmp/cc7R4ZW9.s:101494  .debug_str:000000000002d923 .LASF2226
     /tmp/cc7R4ZW9.s:96850  .debug_str:000000000001a7e9 .LASF2227
     /tmp/cc7R4ZW9.s:107242  .debug_str:0000000000045708 .LASF2228
     /tmp/cc7R4ZW9.s:103612  .debug_str:000000000003676a .LASF2229
     /tmp/cc7R4ZW9.s:92366  .debug_str:00000000000088cd .LASF2230
     /tmp/cc7R4ZW9.s:99756  .debug_str:0000000000026acb .LASF2231
     /tmp/cc7R4ZW9.s:94758  .debug_str:0000000000011eff .LASF2232
     /tmp/cc7R4ZW9.s:92462  .debug_str:0000000000008f64 .LASF2233
     /tmp/cc7R4ZW9.s:105976  .debug_str:000000000003fe4e .LASF2234
     /tmp/cc7R4ZW9.s:97458  .debug_str:000000000001d2a4 .LASF2235
     /tmp/cc7R4ZW9.s:97752  .debug_str:000000000001e7a3 .LASF2236
     /tmp/cc7R4ZW9.s:107924  .debug_str:0000000000048451 .LASF2237
     /tmp/cc7R4ZW9.s:98352  .debug_str:000000000002114c .LASF2238
     /tmp/cc7R4ZW9.s:90396  .debug_str:0000000000000250 .LASF2239
     /tmp/cc7R4ZW9.s:106850  .debug_str:0000000000043dd7 .LASF2240
     /tmp/cc7R4ZW9.s:106264  .debug_str:0000000000041232 .LASF2241
     /tmp/cc7R4ZW9.s:96886  .debug_str:000000000001aac9 .LASF2242
     /tmp/cc7R4ZW9.s:97966  .debug_str:000000000001f69d .LASF2243
     /tmp/cc7R4ZW9.s:98994  .debug_str:0000000000023c8e .LASF2244
     /tmp/cc7R4ZW9.s:99006  .debug_str:0000000000023d5c .LASF2245
     /tmp/cc7R4ZW9.s:100092  .debug_str:000000000002804d .LASF2246
     /tmp/cc7R4ZW9.s:101914  .debug_str:000000000002f5b8 .LASF2247
     /tmp/cc7R4ZW9.s:93212  .debug_str:000000000000c37f .LASF2248
     /tmp/cc7R4ZW9.s:100444  .debug_str:00000000000297b5 .LASF2249
     /tmp/cc7R4ZW9.s:95496  .debug_str:0000000000014ee3 .LASF2250
     /tmp/cc7R4ZW9.s:101554  .debug_str:000000000002dd44 .LASF2251
     /tmp/cc7R4ZW9.s:99160  .debug_str:0000000000024847 .LASF2252
     /tmp/cc7R4ZW9.s:109122  .debug_str:000000000004d4c6 .LASF2253
     /tmp/cc7R4ZW9.s:101404  .debug_str:000000000002d3fc .LASF2254
     /tmp/cc7R4ZW9.s:108144  .debug_str:000000000004929e .LASF2255
     /tmp/cc7R4ZW9.s:105608  .debug_str:000000000003e6e0 .LASF2256
     /tmp/cc7R4ZW9.s:95954  .debug_str:0000000000016ca6 .LASF2257
     /tmp/cc7R4ZW9.s:92798  .debug_str:000000000000a69b .LASF2258
     /tmp/cc7R4ZW9.s:91928  .debug_str:0000000000006ac6 .LASF2259
     /tmp/cc7R4ZW9.s:99062  .debug_str:00000000000240f9 .LASF2260
     /tmp/cc7R4ZW9.s:107580  .debug_str:0000000000046cdb .LASF2261
     /tmp/cc7R4ZW9.s:105454  .debug_str:000000000003dc1d .LASF2262
     /tmp/cc7R4ZW9.s:103624  .debug_str:0000000000036818 .LASF2263
     /tmp/cc7R4ZW9.s:92190  .debug_str:0000000000007cd5 .LASF2264
     /tmp/cc7R4ZW9.s:102812  .debug_str:0000000000033030 .LASF2265
     /tmp/cc7R4ZW9.s:98490  .debug_str:0000000000021ae1 .LASF2266
     /tmp/cc7R4ZW9.s:105864  .debug_str:000000000003f712 .LASF2267
     /tmp/cc7R4ZW9.s:96790  .debug_str:000000000001a3c1 .LASF2268
     /tmp/cc7R4ZW9.s:99658  .debug_str:000000000002645d .LASF2269
     /tmp/cc7R4ZW9.s:95284  .debug_str:00000000000141dd .LASF2270
     /tmp/cc7R4ZW9.s:108762  .debug_str:000000000004bc3f .LASF2271
     /tmp/cc7R4ZW9.s:94476  .debug_str:0000000000010d6f .LASF2272
     /tmp/cc7R4ZW9.s:108540  .debug_str:000000000004acd7 .LASF2273
     /tmp/cc7R4ZW9.s:93116  .debug_str:000000000000bd60 .LASF2274
     /tmp/cc7R4ZW9.s:100406  .debug_str:0000000000029611 .LASF2275
     /tmp/cc7R4ZW9.s:91684  .debug_str:0000000000005a81 .LASF2276
     /tmp/cc7R4ZW9.s:90620  .debug_str:0000000000001199 .LASF2277
     /tmp/cc7R4ZW9.s:93502  .debug_str:000000000000d70c .LASF2278
     /tmp/cc7R4ZW9.s:96802  .debug_str:000000000001a487 .LASF2279
     /tmp/cc7R4ZW9.s:109220  .debug_str:000000000004db6e .LASF2280
     /tmp/cc7R4ZW9.s:94978  .debug_str:0000000000012e0c .LASF2281
     /tmp/cc7R4ZW9.s:105264  .debug_str:000000000003cf3f .LASF2282
     /tmp/cc7R4ZW9.s:109322  .debug_str:000000000004e384 .LASF2283
     /tmp/cc7R4ZW9.s:101482  .debug_str:000000000002d869 .LASF2284
     /tmp/cc7R4ZW9.s:96146  .debug_str:00000000000179cd .LASF2285
     /tmp/cc7R4ZW9.s:97414  .debug_str:000000000001d023 .LASF2286
     /tmp/cc7R4ZW9.s:102394  .debug_str:0000000000031453 .LASF2287
     /tmp/cc7R4ZW9.s:107268  .debug_str:000000000004589b .LASF2288
     /tmp/cc7R4ZW9.s:109794  .debug_str:000000000005029e .LASF2289
     /tmp/cc7R4ZW9.s:101080  .debug_str:000000000002c077 .LASF2290
     /tmp/cc7R4ZW9.s:107790  .debug_str:0000000000047b0b .LASF2291
     /tmp/cc7R4ZW9.s:94752  .debug_str:0000000000011e9c .LASF2292
     /tmp/cc7R4ZW9.s:107054  .debug_str:0000000000044adc .LASF2293
     /tmp/cc7R4ZW9.s:107970  .debug_str:000000000004873e .LASF2294
     /tmp/cc7R4ZW9.s:108082  .debug_str:0000000000048e61 .LASF2295
     /tmp/cc7R4ZW9.s:101816  .debug_str:000000000002ef05 .LASF2296
     /tmp/cc7R4ZW9.s:104326  .debug_str:0000000000039292 .LASF2297
     /tmp/cc7R4ZW9.s:93884  .debug_str:000000000000ecc1 .LASF2298
     /tmp/cc7R4ZW9.s:93520  .debug_str:000000000000d820 .LASF2299
     /tmp/cc7R4ZW9.s:103766  .debug_str:0000000000037160 .LASF2300
     /tmp/cc7R4ZW9.s:98834  .debug_str:0000000000023147 .LASF2301
     /tmp/cc7R4ZW9.s:93942  .debug_str:000000000000ee85 .LASF2302
     /tmp/cc7R4ZW9.s:103606  .debug_str:00000000000366f9 .LASF2303
     /tmp/cc7R4ZW9.s:103830  .debug_str:00000000000375c3 .LASF2304
     /tmp/cc7R4ZW9.s:109562  .debug_str:000000000004f35c .LASF2305
     /tmp/cc7R4ZW9.s:106558  .debug_str:0000000000042a58 .LASF2306
     /tmp/cc7R4ZW9.s:95482  .debug_str:0000000000014e03 .LASF2307
     /tmp/cc7R4ZW9.s:92766  .debug_str:000000000000a3d5 .LASF2308
     /tmp/cc7R4ZW9.s:90948  .debug_str:0000000000002945 .LASF2309
     /tmp/cc7R4ZW9.s:105234  .debug_str:000000000003cd3e .LASF2310
     /tmp/cc7R4ZW9.s:101718  .debug_str:000000000002e82c .LASF2311
     /tmp/cc7R4ZW9.s:96128  .debug_str:000000000001787f .LASF2312
     /tmp/cc7R4ZW9.s:91680  .debug_str:0000000000005a57 .LASF2313
     /tmp/cc7R4ZW9.s:106728  .debug_str:000000000004359c .LASF2314
     /tmp/cc7R4ZW9.s:91884  .debug_str:000000000000677b .LASF2315
     /tmp/cc7R4ZW9.s:90650  .debug_str:0000000000001381 .LASF2316
     /tmp/cc7R4ZW9.s:105886  .debug_str:000000000003f86e .LASF2317
     /tmp/cc7R4ZW9.s:101144  .debug_str:000000000002c464 .LASF2318
     /tmp/cc7R4ZW9.s:102522  .debug_str:0000000000031c58 .LASF2319
     /tmp/cc7R4ZW9.s:99110  .debug_str:000000000002448d .LASF2320
     /tmp/cc7R4ZW9.s:101466  .debug_str:000000000002d785 .LASF2321
     /tmp/cc7R4ZW9.s:107210  .debug_str:00000000000454ba .LASF2322
     /tmp/cc7R4ZW9.s:95732  .debug_str:0000000000015e1f .LASF2323
     /tmp/cc7R4ZW9.s:109440  .debug_str:000000000004eb71 .LASF2324
     /tmp/cc7R4ZW9.s:94844  .debug_str:00000000000124ab .LASF2325
     /tmp/cc7R4ZW9.s:95672  .debug_str:0000000000015a1d .LASF2326
     /tmp/cc7R4ZW9.s:107576  .debug_str:0000000000046cb0 .LASF2327
     /tmp/cc7R4ZW9.s:99700  .debug_str:00000000000266e3 .LASF2328
     /tmp/cc7R4ZW9.s:98770  .debug_str:0000000000022d3e .LASF2329
     /tmp/cc7R4ZW9.s:91160  .debug_str:0000000000003672 .LASF2330
     /tmp/cc7R4ZW9.s:109394  .debug_str:000000000004e88c .LASF2331
     /tmp/cc7R4ZW9.s:101680  .debug_str:000000000002e572 .LASF2332
     /tmp/cc7R4ZW9.s:100828  .debug_str:000000000002b10c .LASF2333
     /tmp/cc7R4ZW9.s:92422  .debug_str:0000000000008c39 .LASF2334
     /tmp/cc7R4ZW9.s:109712  .debug_str:000000000004fd5f .LASF2335
     /tmp/cc7R4ZW9.s:94670  .debug_str:0000000000011939 .LASF2336
     /tmp/cc7R4ZW9.s:109622  .debug_str:000000000004f6f0 .LASF2337
     /tmp/cc7R4ZW9.s:103276  .debug_str:0000000000034f59 .LASF2338
     /tmp/cc7R4ZW9.s:109426  .debug_str:000000000004eab0 .LASF2339
     /tmp/cc7R4ZW9.s:99938  .debug_str:00000000000275d5 .LASF2340
     /tmp/cc7R4ZW9.s:100390  .debug_str:0000000000029513 .LASF2341
     /tmp/cc7R4ZW9.s:97202  .debug_str:000000000001c08f .LASF2342
     /tmp/cc7R4ZW9.s:94024  .debug_str:000000000000f307 .LASF2343
     /tmp/cc7R4ZW9.s:90364  .debug_str:0000000000000000 .LASF2344
     /tmp/cc7R4ZW9.s:95072  .debug_str:00000000000134f5 .LASF2345
     /tmp/cc7R4ZW9.s:101098  .debug_str:000000000002c1af .LASF2346
     /tmp/cc7R4ZW9.s:105462  .debug_str:000000000003dc96 .LASF2347
     /tmp/cc7R4ZW9.s:107948  .debug_str:0000000000048626 .LASF2348
     /tmp/cc7R4ZW9.s:95472  .debug_str:0000000000014d77 .LASF2349
     /tmp/cc7R4ZW9.s:96300  .debug_str:00000000000183a1 .LASF2350
     /tmp/cc7R4ZW9.s:105108  .debug_str:000000000003c4f4 .LASF2351
     /tmp/cc7R4ZW9.s:94144  .debug_str:000000000000fb01 .LASF2352
     /tmp/cc7R4ZW9.s:94526  .debug_str:000000000001101d .LASF2353
     /tmp/cc7R4ZW9.s:100364  .debug_str:0000000000029377 .LASF2354
     /tmp/cc7R4ZW9.s:102364  .debug_str:0000000000031281 .LASF2355
     /tmp/cc7R4ZW9.s:98532  .debug_str:0000000000021e73 .LASF2356
     /tmp/cc7R4ZW9.s:95030  .debug_str:0000000000013190 .LASF2357
     /tmp/cc7R4ZW9.s:109146  .debug_str:000000000004d5f9 .LASF2358
     /tmp/cc7R4ZW9.s:91648  .debug_str:0000000000005812 .LASF2359
     /tmp/cc7R4ZW9.s:93952  .debug_str:000000000000ef38 .LASF2360
     /tmp/cc7R4ZW9.s:102156  .debug_str:00000000000304d0 .LASF2361
     /tmp/cc7R4ZW9.s:91646  .debug_str:00000000000057f0 .LASF2362
     /tmp/cc7R4ZW9.s:92918  .debug_str:000000000000ae9d .LASF2363
     /tmp/cc7R4ZW9.s:102190  .debug_str:0000000000030759 .LASF2364
     /tmp/cc7R4ZW9.s:94430  .debug_str:0000000000010a2c .LASF2365
     /tmp/cc7R4ZW9.s:107978  .debug_str:00000000000487d3 .LASF2366
     /tmp/cc7R4ZW9.s:106156  .debug_str:000000000004097b .LASF2367
     /tmp/cc7R4ZW9.s:109372  .debug_str:000000000004e6cc .LASF2368
     /tmp/cc7R4ZW9.s:91032  .debug_str:0000000000002ec8 .LASF2369
     /tmp/cc7R4ZW9.s:100348  .debug_str:000000000002921f .LASF2370
     /tmp/cc7R4ZW9.s:90748  .debug_str:0000000000001b24 .LASF2371
     /tmp/cc7R4ZW9.s:101472  .debug_str:000000000002d7f2 .LASF2372
     /tmp/cc7R4ZW9.s:107316  .debug_str:0000000000045c56 .LASF2373
     /tmp/cc7R4ZW9.s:94874  .debug_str:000000000001269e .LASF2374
     /tmp/cc7R4ZW9.s:98504  .debug_str:0000000000021c07 .LASF2375
     /tmp/cc7R4ZW9.s:105282  .debug_str:000000000003d069 .LASF2376
     /tmp/cc7R4ZW9.s:99192  .debug_str:0000000000024a12 .LASF2377
     /tmp/cc7R4ZW9.s:95366  .debug_str:0000000000014738 .LASF2378
     /tmp/cc7R4ZW9.s:97262  .debug_str:000000000001c4cc .LASF2379
     /tmp/cc7R4ZW9.s:108206  .debug_str:0000000000049695 .LASF2380
     /tmp/cc7R4ZW9.s:91618  .debug_str:00000000000055ee .LASF2381
     /tmp/cc7R4ZW9.s:94118  .debug_str:000000000000f8f4 .LASF2382
     /tmp/cc7R4ZW9.s:93818  .debug_str:000000000000e90a .LASF2383
     /tmp/cc7R4ZW9.s:92638  .debug_str:0000000000009c33 .LASF2384
     /tmp/cc7R4ZW9.s:104890  .debug_str:000000000003b573 .LASF2385
     /tmp/cc7R4ZW9.s:91470  .debug_str:0000000000004c45 .LASF2386
     /tmp/cc7R4ZW9.s:96160  .debug_str:0000000000017ac6 .LASF2387
     /tmp/cc7R4ZW9.s:102530  .debug_str:0000000000031cc2 .LASF2388
     /tmp/cc7R4ZW9.s:106810  .debug_str:0000000000043b4f .LASF2389
     /tmp/cc7R4ZW9.s:93306  .debug_str:000000000000c982 .LASF2390
     /tmp/cc7R4ZW9.s:97982  .debug_str:000000000001f7f4 .LASF2391
     /tmp/cc7R4ZW9.s:103844  .debug_str:0000000000037663 .LASF2392
     /tmp/cc7R4ZW9.s:100818  .debug_str:000000000002b048 .LASF2393
     /tmp/cc7R4ZW9.s:91762  .debug_str:0000000000005f44 .LASF2394
     /tmp/cc7R4ZW9.s:109256  .debug_str:000000000004debd .LASF2395
     /tmp/cc7R4ZW9.s:104600  .debug_str:000000000003a0fb .LASF2396
     /tmp/cc7R4ZW9.s:108568  .debug_str:000000000004aefc .LASF2397
     /tmp/cc7R4ZW9.s:93006  .debug_str:000000000000b555 .LASF2398
     /tmp/cc7R4ZW9.s:104632  .debug_str:000000000003a38e .LASF2399
     /tmp/cc7R4ZW9.s:101634  .debug_str:000000000002e284 .LASF2400
     /tmp/cc7R4ZW9.s:103100  .debug_str:0000000000034372 .LASF2401
     /tmp/cc7R4ZW9.s:100246  .debug_str:0000000000028ad0 .LASF2402
     /tmp/cc7R4ZW9.s:108074  .debug_str:0000000000048de7 .LASF2403
     /tmp/cc7R4ZW9.s:106294  .debug_str:0000000000041514 .LASF2404
     /tmp/cc7R4ZW9.s:102966  .debug_str:0000000000033ab3 .LASF2405
     /tmp/cc7R4ZW9.s:96410  .debug_str:0000000000018a2e .LASF2406
     /tmp/cc7R4ZW9.s:91364  .debug_str:0000000000004568 .LASF2407
     /tmp/cc7R4ZW9.s:95354  .debug_str:000000000001467b .LASF2408
     /tmp/cc7R4ZW9.s:104732  .debug_str:000000000003aa75 .LASF2409
     /tmp/cc7R4ZW9.s:93782  .debug_str:000000000000e783 .LASF2410
     /tmp/cc7R4ZW9.s:107292  .debug_str:0000000000045ac0 .LASF2411
     /tmp/cc7R4ZW9.s:95050  .debug_str:00000000000133a4 .LASF2412
     /tmp/cc7R4ZW9.s:102276  .debug_str:0000000000030d3e .LASF2413
     /tmp/cc7R4ZW9.s:101846  .debug_str:000000000002f069 .LASF2414
     /tmp/cc7R4ZW9.s:95968  .debug_str:0000000000016d76 .LASF2415
     /tmp/cc7R4ZW9.s:102064  .debug_str:000000000002ff7e .LASF2416
     /tmp/cc7R4ZW9.s:109182  .debug_str:000000000004d8a5 .LASF2417
     /tmp/cc7R4ZW9.s:99098  .debug_str:00000000000243ce .LASF2418
     /tmp/cc7R4ZW9.s:103036  .debug_str:0000000000033f6b .LASF2419
     /tmp/cc7R4ZW9.s:98406  .debug_str:0000000000021500 .LASF2420
     /tmp/cc7R4ZW9.s:96716  .debug_str:0000000000019eab .LASF2421
     /tmp/cc7R4ZW9.s:96906  .debug_str:000000000001ac79 .LASF2422
     /tmp/cc7R4ZW9.s:100766  .debug_str:000000000002ac74 .LASF2423
     /tmp/cc7R4ZW9.s:102990  .debug_str:0000000000033c65 .LASF2424
     /tmp/cc7R4ZW9.s:92986  .debug_str:000000000000b397 .LASF2425
     /tmp/cc7R4ZW9.s:105524  .debug_str:000000000003e138 .LASF2426
     /tmp/cc7R4ZW9.s:107990  .debug_str:00000000000488a5 .LASF2427
     /tmp/cc7R4ZW9.s:93654  .debug_str:000000000000df6c .LASF2428
     /tmp/cc7R4ZW9.s:102552  .debug_str:0000000000031def .LASF2429
     /tmp/cc7R4ZW9.s:104486  .debug_str:0000000000039ab2 .LASF2430
     /tmp/cc7R4ZW9.s:93550  .debug_str:000000000000da2f .LASF2431
     /tmp/cc7R4ZW9.s:95582  .debug_str:0000000000015485 .LASF2432
     /tmp/cc7R4ZW9.s:104378  .debug_str:00000000000394ca .LASF2433
     /tmp/cc7R4ZW9.s:108272  .debug_str:0000000000049ab2 .LASF2434
     /tmp/cc7R4ZW9.s:96022  .debug_str:00000000000170c9 .LASF2435
     /tmp/cc7R4ZW9.s:92534  .debug_str:000000000000945f .LASF2436
     /tmp/cc7R4ZW9.s:100184  .debug_str:0000000000028610 .LASF2437
     /tmp/cc7R4ZW9.s:102668  .debug_str:000000000003267c .LASF2438
     /tmp/cc7R4ZW9.s:90416  .debug_str:00000000000003cc .LASF2439
     /tmp/cc7R4ZW9.s:102428  .debug_str:000000000003161a .LASF2440
     /tmp/cc7R4ZW9.s:100370  .debug_str:00000000000293c8 .LASF2441
     /tmp/cc7R4ZW9.s:98952  .debug_str:0000000000023a0a .LASF2442
     /tmp/cc7R4ZW9.s:91140  .debug_str:000000000000357f .LASF2443
     /tmp/cc7R4ZW9.s:104832  .debug_str:000000000003b17d .LASF2444
     /tmp/cc7R4ZW9.s:92016  .debug_str:0000000000007175 .LASF2445
     /tmp/cc7R4ZW9.s:107664  .debug_str:0000000000047313 .LASF2446
     /tmp/cc7R4ZW9.s:102782  .debug_str:0000000000032e43 .LASF2447
     /tmp/cc7R4ZW9.s:98846  .debug_str:00000000000231fe .LASF2448
     /tmp/cc7R4ZW9.s:100590  .debug_str:000000000002a193 .LASF2449
     /tmp/cc7R4ZW9.s:93598  .debug_str:000000000000dcd0 .LASF2450
     /tmp/cc7R4ZW9.s:91694  .debug_str:0000000000005b54 .LASF2451
     /tmp/cc7R4ZW9.s:104964  .debug_str:000000000003ba6e .LASF2452
     /tmp/cc7R4ZW9.s:109504  .debug_str:000000000004ef71 .LASF2453
     /tmp/cc7R4ZW9.s:97036  .debug_str:000000000001b4d9 .LASF2454
     /tmp/cc7R4ZW9.s:92486  .debug_str:000000000000910b .LASF2455
     /tmp/cc7R4ZW9.s:106746  .debug_str:000000000004371d .LASF2456
     /tmp/cc7R4ZW9.s:105320  .debug_str:000000000003d2d6 .LASF2457
     /tmp/cc7R4ZW9.s:108216  .debug_str:000000000004977c .LASF2458
     /tmp/cc7R4ZW9.s:94222  .debug_str:000000000000ffc9 .LASF2459
     /tmp/cc7R4ZW9.s:105004  .debug_str:000000000003bd40 .LASF2460
     /tmp/cc7R4ZW9.s:104980  .debug_str:000000000003bb57 .LASF2461
     /tmp/cc7R4ZW9.s:104880  .debug_str:000000000003b4b0 .LASF2462
     /tmp/cc7R4ZW9.s:96094  .debug_str:00000000000175dc .LASF2463
     /tmp/cc7R4ZW9.s:106964  .debug_str:000000000004450f .LASF2464
     /tmp/cc7R4ZW9.s:107298  .debug_str:0000000000045b31 .LASF2465
     /tmp/cc7R4ZW9.s:97546  .debug_str:000000000001d89b .LASF2466
     /tmp/cc7R4ZW9.s:100472  .debug_str:00000000000299fc .LASF2467
     /tmp/cc7R4ZW9.s:99060  .debug_str:00000000000240dd .LASF2468
     /tmp/cc7R4ZW9.s:90684  .debug_str:00000000000015b1 .LASF2469
     /tmp/cc7R4ZW9.s:103518  .debug_str:00000000000360f4 .LASF2470
     /tmp/cc7R4ZW9.s:103628  .debug_str:000000000003687f .LASF2471
     /tmp/cc7R4ZW9.s:98708  .debug_str:000000000002293d .LASF2472
     /tmp/cc7R4ZW9.s:104052  .debug_str:0000000000038361 .LASF2473
     /tmp/cc7R4ZW9.s:90992  .debug_str:0000000000002c0e .LASF2474
     /tmp/cc7R4ZW9.s:97140  .debug_str:000000000001bbe9 .LASF2475
     /tmp/cc7R4ZW9.s:101178  .debug_str:000000000002c618 .LASF2476
     /tmp/cc7R4ZW9.s:107754  .debug_str:00000000000478c9 .LASF2477
     /tmp/cc7R4ZW9.s:92632  .debug_str:0000000000009bce .LASF2478
     /tmp/cc7R4ZW9.s:91036  .debug_str:0000000000002f0d .LASF2479
     /tmp/cc7R4ZW9.s:103450  .debug_str:0000000000035b95 .LASF2480
     /tmp/cc7R4ZW9.s:109578  .debug_str:000000000004f478 .LASF2481
     /tmp/cc7R4ZW9.s:109652  .debug_str:000000000004f95a .LASF2482
     /tmp/cc7R4ZW9.s:103650  .debug_str:0000000000036a02 .LASF2483
     /tmp/cc7R4ZW9.s:108138  .debug_str:0000000000049224 .LASF2484
     /tmp/cc7R4ZW9.s:107806  .debug_str:0000000000047bf8 .LASF2485
     /tmp/cc7R4ZW9.s:106356  .debug_str:000000000004197b .LASF2486
     /tmp/cc7R4ZW9.s:104922  .debug_str:000000000003b817 .LASF2487
     /tmp/cc7R4ZW9.s:96670  .debug_str:0000000000019b5f .LASF2488
     /tmp/cc7R4ZW9.s:102582  .debug_str:0000000000032001 .LASF2489
     /tmp/cc7R4ZW9.s:106956  .debug_str:000000000004449c .LASF2490
     /tmp/cc7R4ZW9.s:90368  .debug_str:0000000000000058 .LASF2491
     /tmp/cc7R4ZW9.s:99758  .debug_str:0000000000026af5 .LASF2492
     /tmp/cc7R4ZW9.s:108658  .debug_str:000000000004b54d .LASF2493
     /tmp/cc7R4ZW9.s:99826  .debug_str:0000000000026f90 .LASF2494
     /tmp/cc7R4ZW9.s:99872  .debug_str:0000000000027237 .LASF2495
     /tmp/cc7R4ZW9.s:96826  .debug_str:000000000001a673 .LASF2496
     /tmp/cc7R4ZW9.s:91010  .debug_str:0000000000002d30 .LASF2497
     /tmp/cc7R4ZW9.s:92844  .debug_str:000000000000a99b .LASF2498
     /tmp/cc7R4ZW9.s:102374  .debug_str:000000000003130d .LASF2499
     /tmp/cc7R4ZW9.s:109658  .debug_str:000000000004f9d6 .LASF2500
     /tmp/cc7R4ZW9.s:108354  .debug_str:000000000004a08c .LASF2501
     /tmp/cc7R4ZW9.s:95612  .debug_str:000000000001564f .LASF2502
     /tmp/cc7R4ZW9.s:102670  .debug_str:0000000000032697 .LASF2503
     /tmp/cc7R4ZW9.s:97294  .debug_str:000000000001c76e .LASF2504
     /tmp/cc7R4ZW9.s:95998  .debug_str:0000000000016f50 .LASF2505
     /tmp/cc7R4ZW9.s:95162  .debug_str:0000000000013a81 .LASF2506
     /tmp/cc7R4ZW9.s:107278  .debug_str:00000000000459cc .LASF2507
     /tmp/cc7R4ZW9.s:108542  .debug_str:000000000004acfc .LASF2508
     /tmp/cc7R4ZW9.s:95010  .debug_str:000000000001301a .LASF2509
     /tmp/cc7R4ZW9.s:98364  .debug_str:0000000000021236 .LASF2510
     /tmp/cc7R4ZW9.s:106408  .debug_str:0000000000041cb5 .LASF2511
     /tmp/cc7R4ZW9.s:100628  .debug_str:000000000002a442 .LASF2512
     /tmp/cc7R4ZW9.s:109650  .debug_str:000000000004f939 .LASF2513
     /tmp/cc7R4ZW9.s:100362  .debug_str:000000000002934e .LASF2514
     /tmp/cc7R4ZW9.s:107750  .debug_str:0000000000047880 .LASF2515
     /tmp/cc7R4ZW9.s:94246  .debug_str:0000000000010123 .LASF2516
     /tmp/cc7R4ZW9.s:95768  .debug_str:0000000000015fd7 .LASF2517
     /tmp/cc7R4ZW9.s:104008  .debug_str:0000000000038154 .LASF2518
     /tmp/cc7R4ZW9.s:109746  .debug_str:000000000004ff7e .LASF2519
     /tmp/cc7R4ZW9.s:90744  .debug_str:0000000000001aec .LASF2520
     /tmp/cc7R4ZW9.s:102758  .debug_str:0000000000032cd0 .LASF2521
     /tmp/cc7R4ZW9.s:103288  .debug_str:0000000000035022 .LASF2522
     /tmp/cc7R4ZW9.s:108964  .debug_str:000000000004c9d7 .LASF2523
     /tmp/cc7R4ZW9.s:99516  .debug_str:0000000000025c79 .LASF2524
     /tmp/cc7R4ZW9.s:100200  .debug_str:0000000000028754 .LASF2525
     /tmp/cc7R4ZW9.s:104628  .debug_str:000000000003a32f .LASF2526
     /tmp/cc7R4ZW9.s:107128  .debug_str:0000000000045001 .LASF2527
     /tmp/cc7R4ZW9.s:108214  .debug_str:0000000000049753 .LASF2528
     /tmp/cc7R4ZW9.s:95276  .debug_str:0000000000014166 .LASF2529
     /tmp/cc7R4ZW9.s:106432  .debug_str:00000000000420ba .LASF2530
     /tmp/cc7R4ZW9.s:93816  .debug_str:000000000000e8d9 .LASF2531
     /tmp/cc7R4ZW9.s:92666  .debug_str:0000000000009e19 .LASF2532
     /tmp/cc7R4ZW9.s:93364  .debug_str:000000000000cddb .LASF2533
     /tmp/cc7R4ZW9.s:108472  .debug_str:000000000004a79f .LASF2534
     /tmp/cc7R4ZW9.s:98346  .debug_str:00000000000210f2 .LASF2535
     /tmp/cc7R4ZW9.s:105906  .debug_str:000000000003f9f9 .LASF2536
     /tmp/cc7R4ZW9.s:109114  .debug_str:000000000004d462 .LASF2537
     /tmp/cc7R4ZW9.s:96896  .debug_str:000000000001ab8f .LASF2538
     /tmp/cc7R4ZW9.s:100328  .debug_str:000000000002908e .LASF2539
     /tmp/cc7R4ZW9.s:103784  .debug_str:0000000000037284 .LASF2540
     /tmp/cc7R4ZW9.s:109310  .debug_str:000000000004e2cd .LASF2541
     /tmp/cc7R4ZW9.s:98448  .debug_str:000000000002180f .LASF2542
     /tmp/cc7R4ZW9.s:104228  .debug_str:0000000000038dab .LASF2543
     /tmp/cc7R4ZW9.s:108782  .debug_str:000000000004bda5 .LASF2544
     /tmp/cc7R4ZW9.s:95498  .debug_str:0000000000014f0a .LASF2545
     /tmp/cc7R4ZW9.s:99748  .debug_str:0000000000026a24 .LASF2546
     /tmp/cc7R4ZW9.s:106122  .debug_str:0000000000040705 .LASF2547
     /tmp/cc7R4ZW9.s:90656  .debug_str:00000000000013f5 .LASF2548
     /tmp/cc7R4ZW9.s:105132  .debug_str:000000000003c6c1 .LASF2549
     /tmp/cc7R4ZW9.s:98860  .debug_str:00000000000232e4 .LASF2550
     /tmp/cc7R4ZW9.s:92004  .debug_str:00000000000070a8 .LASF2551
     /tmp/cc7R4ZW9.s:106406  .debug_str:0000000000041c74 .LASF2552
     /tmp/cc7R4ZW9.s:93402  .debug_str:000000000000d03a .LASF2553
     /tmp/cc7R4ZW9.s:100162  .debug_str:0000000000028482 .LASF2554
     /tmp/cc7R4ZW9.s:101894  .debug_str:000000000002f427 .LASF2555
     /tmp/cc7R4ZW9.s:95754  .debug_str:0000000000015f21 .LASF2556
     /tmp/cc7R4ZW9.s:108210  .debug_str:00000000000496e3 .LASF2557
     /tmp/cc7R4ZW9.s:109230  .debug_str:000000000004dc44 .LASF2558
     /tmp/cc7R4ZW9.s:99232  .debug_str:0000000000024be5 .LASF2559
     /tmp/cc7R4ZW9.s:91972  .debug_str:0000000000006e0f .LASF2560
     /tmp/cc7R4ZW9.s:97182  .debug_str:000000000001becb .LASF2561
     /tmp/cc7R4ZW9.s:97266  .debug_str:000000000001c51e .LASF2562
     /tmp/cc7R4ZW9.s:108470  .debug_str:000000000004a760 .LASF2563
     /tmp/cc7R4ZW9.s:96424  .debug_str:0000000000018ad3 .LASF2564
     /tmp/cc7R4ZW9.s:98242  .debug_str:0000000000020a89 .LASF2565
     /tmp/cc7R4ZW9.s:90700  .debug_str:00000000000016fc .LASF2566
     /tmp/cc7R4ZW9.s:99840  .debug_str:0000000000027067 .LASF2567
     /tmp/cc7R4ZW9.s:100236  .debug_str:0000000000028a19 .LASF2568
     /tmp/cc7R4ZW9.s:95044  .debug_str:00000000000132fd .LASF2569
     /tmp/cc7R4ZW9.s:109694  .debug_str:000000000004fc1c .LASF2570
     /tmp/cc7R4ZW9.s:96872  .debug_str:000000000001a994 .LASF2571
     /tmp/cc7R4ZW9.s:100196  .debug_str:00000000000286f7 .LASF2572
     /tmp/cc7R4ZW9.s:101388  .debug_str:000000000002d2f7 .LASF2573
     /tmp/cc7R4ZW9.s:98962  .debug_str:0000000000023a7e .LASF2574
     /tmp/cc7R4ZW9.s:106550  .debug_str:00000000000429a3 .LASF2575
     /tmp/cc7R4ZW9.s:104302  .debug_str:0000000000039120 .LASF2576
     /tmp/cc7R4ZW9.s:101720  .debug_str:000000000002e84e .LASF2577
     /tmp/cc7R4ZW9.s:94444  .debug_str:0000000000010b0d .LASF2578
     /tmp/cc7R4ZW9.s:98620  .debug_str:0000000000022382 .LASF2579
     /tmp/cc7R4ZW9.s:96780  .debug_str:000000000001a2ee .LASF2580
     /tmp/cc7R4ZW9.s:99812  .debug_str:0000000000026e80 .LASF2581
     /tmp/cc7R4ZW9.s:92768  .debug_str:000000000000a3f4 .LASF2582
     /tmp/cc7R4ZW9.s:106116  .debug_str:0000000000040685 .LASF2583
     /tmp/cc7R4ZW9.s:95028  .debug_str:000000000001314b .LASF2584
     /tmp/cc7R4ZW9.s:91988  .debug_str:0000000000006f86 .LASF2585
     /tmp/cc7R4ZW9.s:109648  .debug_str:000000000004f8fa .LASF2586
     /tmp/cc7R4ZW9.s:99402  .debug_str:000000000002561f .LASF2587
     /tmp/cc7R4ZW9.s:109352  .debug_str:000000000004e564 .LASF2588
     /tmp/cc7R4ZW9.s:93846  .debug_str:000000000000e9ff .LASF2589
     /tmp/cc7R4ZW9.s:91450  .debug_str:0000000000004b02 .LASF2590
     /tmp/cc7R4ZW9.s:92582  .debug_str:0000000000009781 .LASF2591
     /tmp/cc7R4ZW9.s:105332  .debug_str:000000000003d379 .LASF2592
     /tmp/cc7R4ZW9.s:94782  .debug_str:00000000000120b9 .LASF2593
     /tmp/cc7R4ZW9.s:92966  .debug_str:000000000000b244 .LASF2594
     /tmp/cc7R4ZW9.s:107622  .debug_str:0000000000046fea .LASF2595
     /tmp/cc7R4ZW9.s:94580  .debug_str:00000000000113f5 .LASF2596
     /tmp/cc7R4ZW9.s:92186  .debug_str:0000000000007c66 .LASF2597
     /tmp/cc7R4ZW9.s:105436  .debug_str:000000000003da79 .LASF2598
     /tmp/cc7R4ZW9.s:102714  .debug_str:000000000003299e .LASF2599
     /tmp/cc7R4ZW9.s:96614  .debug_str:00000000000197a7 .LASF2600
     /tmp/cc7R4ZW9.s:102358  .debug_str:00000000000311fe .LASF2601
     /tmp/cc7R4ZW9.s:102554  .debug_str:0000000000031e11 .LASF2602
     /tmp/cc7R4ZW9.s:108990  .debug_str:000000000004cba5 .LASF2603
     /tmp/cc7R4ZW9.s:109494  .debug_str:000000000004ee96 .LASF2604
     /tmp/cc7R4ZW9.s:92732  .debug_str:000000000000a268 .LASF2605
     /tmp/cc7R4ZW9.s:96824  .debug_str:000000000001a63b .LASF2606
     /tmp/cc7R4ZW9.s:90846  .debug_str:0000000000002269 .LASF2607
     /tmp/cc7R4ZW9.s:91994  .debug_str:0000000000006ff6 .LASF2608
     /tmp/cc7R4ZW9.s:101360  .debug_str:000000000002d14f .LASF2609
     /tmp/cc7R4ZW9.s:90944  .debug_str:00000000000028f2 .LASF2610
     /tmp/cc7R4ZW9.s:109450  .debug_str:000000000004ec31 .LASF2611
     /tmp/cc7R4ZW9.s:104778  .debug_str:000000000003ad97 .LASF2612
     /tmp/cc7R4ZW9.s:91392  .debug_str:00000000000046ad .LASF2613
     /tmp/cc7R4ZW9.s:107550  .debug_str:0000000000046b26 .LASF2614
     /tmp/cc7R4ZW9.s:90828  .debug_str:00000000000020f7 .LASF2615
     /tmp/cc7R4ZW9.s:107870  .debug_str:00000000000480b4 .LASF2616
     /tmp/cc7R4ZW9.s:98020  .debug_str:000000000001fa7d .LASF2617
     /tmp/cc7R4ZW9.s:100300  .debug_str:0000000000028e7b .LASF2618
     /tmp/cc7R4ZW9.s:98126  .debug_str:000000000002022f .LASF2619
     /tmp/cc7R4ZW9.s:105434  .debug_str:000000000003da40 .LASF2620
     /tmp/cc7R4ZW9.s:105154  .debug_str:000000000003c866 .LASF2621
     /tmp/cc7R4ZW9.s:106950  .debug_str:0000000000044430 .LASF2622
     /tmp/cc7R4ZW9.s:92944  .debug_str:000000000000b021 .LASF2623
     /tmp/cc7R4ZW9.s:100030  .debug_str:0000000000027c31 .LASF2624
     /tmp/cc7R4ZW9.s:106280  .debug_str:00000000000413c9 .LASF2625
     /tmp/cc7R4ZW9.s:90572  .debug_str:0000000000000e38 .LASF2626
     /tmp/cc7R4ZW9.s:100980  .debug_str:000000000002ba76 .LASF2627
     /tmp/cc7R4ZW9.s:105142  .debug_str:000000000003c763 .LASF2628
     /tmp/cc7R4ZW9.s:102804  .debug_str:0000000000032fab .LASF2629
     /tmp/cc7R4ZW9.s:100340  .debug_str:0000000000029184 .LASF2630
     /tmp/cc7R4ZW9.s:100660  .debug_str:000000000002a65b .LASF2631
     /tmp/cc7R4ZW9.s:103118  .debug_str:0000000000034476 .LASF2632
     /tmp/cc7R4ZW9.s:106322  .debug_str:0000000000041718 .LASF2633
     /tmp/cc7R4ZW9.s:98260  .debug_str:0000000000020bfd .LASF2634
     /tmp/cc7R4ZW9.s:102738  .debug_str:0000000000032b39 .LASF2635
     /tmp/cc7R4ZW9.s:93184  .debug_str:000000000000c1cf .LASF2636
     /tmp/cc7R4ZW9.s:91540  .debug_str:00000000000050e9 .LASF2637
     /tmp/cc7R4ZW9.s:98158  .debug_str:0000000000020468 .LASF2638
     /tmp/cc7R4ZW9.s:102258  .debug_str:0000000000030c13 .LASF2639
     /tmp/cc7R4ZW9.s:94552  .debug_str:0000000000011205 .LASF2640
     /tmp/cc7R4ZW9.s:102086  .debug_str:00000000000300c5 .LASF2641
     /tmp/cc7R4ZW9.s:96150  .debug_str:0000000000017a31 .LASF2642
     /tmp/cc7R4ZW9.s:103980  .debug_str:0000000000037ea2 .LASF2643
     /tmp/cc7R4ZW9.s:109404  .debug_str:000000000004e951 .LASF2644
     /tmp/cc7R4ZW9.s:97788  .debug_str:000000000001ea29 .LASF2645
     /tmp/cc7R4ZW9.s:102014  .debug_str:000000000002fc03 .LASF2646
     /tmp/cc7R4ZW9.s:104716  .debug_str:000000000003a922 .LASF2647
     /tmp/cc7R4ZW9.s:100712  .debug_str:000000000002a92f .LASF2648
     /tmp/cc7R4ZW9.s:91954  .debug_str:0000000000006c5c .LASF2649
     /tmp/cc7R4ZW9.s:92994  .debug_str:000000000000b45b .LASF2650
     /tmp/cc7R4ZW9.s:99372  .debug_str:00000000000254d5 .LASF2651
     /tmp/cc7R4ZW9.s:106388  .debug_str:0000000000041b8a .LASF2652
     /tmp/cc7R4ZW9.s:104144  .debug_str:000000000003889d .LASF2653
     /tmp/cc7R4ZW9.s:105248  .debug_str:000000000003ce4f .LASF2654
     /tmp/cc7R4ZW9.s:109254  .debug_str:000000000004de75 .LASF2655
     /tmp/cc7R4ZW9.s:106762  .debug_str:00000000000437bc .LASF2656
     /tmp/cc7R4ZW9.s:98996  .debug_str:0000000000023cb4 .LASF2657
     /tmp/cc7R4ZW9.s:97836  .debug_str:000000000001ed6b .LASF2658
     /tmp/cc7R4ZW9.s:106782  .debug_str:000000000004392d .LASF2659
     /tmp/cc7R4ZW9.s:99538  .debug_str:0000000000025dc4 .LASF2660
     /tmp/cc7R4ZW9.s:92818  .debug_str:000000000000a7e4 .LASF2661
     /tmp/cc7R4ZW9.s:99142  .debug_str:00000000000246f6 .LASF2662
     /tmp/cc7R4ZW9.s:104306  .debug_str:000000000003917a .LASF2663
     /tmp/cc7R4ZW9.s:102480  .debug_str:00000000000319e9 .LASF2664
     /tmp/cc7R4ZW9.s:95396  .debug_str:000000000001492e .LASF2665
     /tmp/cc7R4ZW9.s:91412  .debug_str:000000000000482b .LASF2666
     /tmp/cc7R4ZW9.s:98534  .debug_str:0000000000021e95 .LASF2667
     /tmp/cc7R4ZW9.s:101398  .debug_str:000000000002d372 .LASF2668
     /tmp/cc7R4ZW9.s:97412  .debug_str:000000000001cfeb .LASF2669
     /tmp/cc7R4ZW9.s:92170  .debug_str:0000000000007b28 .LASF2670
     /tmp/cc7R4ZW9.s:97700  .debug_str:000000000001e3e4 .LASF2671
     /tmp/cc7R4ZW9.s:97210  .debug_str:000000000001c122 .LASF2672
     /tmp/cc7R4ZW9.s:90410  .debug_str:0000000000000339 .LASF2673
     /tmp/cc7R4ZW9.s:95120  .debug_str:00000000000137bb .LASF2674
     /tmp/cc7R4ZW9.s:104084  .debug_str:0000000000038593 .LASF2675
     /tmp/cc7R4ZW9.s:101130  .debug_str:000000000002c36e .LASF2676
     /tmp/cc7R4ZW9.s:94438  .debug_str:0000000000010abc .LASF2677
     /tmp/cc7R4ZW9.s:96678  .debug_str:0000000000019c1a .LASF2678
     /tmp/cc7R4ZW9.s:100804  .debug_str:000000000002aed4 .LASF2679
     /tmp/cc7R4ZW9.s:106440  .debug_str:0000000000042161 .LASF2680
     /tmp/cc7R4ZW9.s:92226  .debug_str:0000000000007ed5 .LASF2681
     /tmp/cc7R4ZW9.s:101492  .debug_str:000000000002d8e2 .LASF2682
     /tmp/cc7R4ZW9.s:106168  .debug_str:0000000000040a49 .LASF2683
     /tmp/cc7R4ZW9.s:107686  .debug_str:00000000000473e7 .LASF2684
     /tmp/cc7R4ZW9.s:94954  .debug_str:0000000000012c2d .LASF2685
     /tmp/cc7R4ZW9.s:105736  .debug_str:000000000003eea2 .LASF2686
     /tmp/cc7R4ZW9.s:95852  .debug_str:000000000001656b .LASF2687
     /tmp/cc7R4ZW9.s:101094  .debug_str:000000000002c14b .LASF2688
     /tmp/cc7R4ZW9.s:90866  .debug_str:00000000000023d3 .LASF2689
     /tmp/cc7R4ZW9.s:98460  .debug_str:00000000000218cb .LASF2690
     /tmp/cc7R4ZW9.s:105556  .debug_str:000000000003e392 .LASF2691
     /tmp/cc7R4ZW9.s:91286  .debug_str:0000000000003f35 .LASF2692
     /tmp/cc7R4ZW9.s:109190  .debug_str:000000000004d921 .LASF2693
     /tmp/cc7R4ZW9.s:93622  .debug_str:000000000000dd90 .LASF2694
     /tmp/cc7R4ZW9.s:105050  .debug_str:000000000003c06c .LASF2695
     /tmp/cc7R4ZW9.s:105470  .debug_str:000000000003dd20 .LASF2696
     /tmp/cc7R4ZW9.s:99624  .debug_str:0000000000026255 .LASF2697
     /tmp/cc7R4ZW9.s:96392  .debug_str:000000000001899d .LASF2698
     /tmp/cc7R4ZW9.s:94646  .debug_str:0000000000011755 .LASF2699
     /tmp/cc7R4ZW9.s:90686  .debug_str:00000000000015d5 .LASF2700
     /tmp/cc7R4ZW9.s:101770  .debug_str:000000000002ebba .LASF2701
     /tmp/cc7R4ZW9.s:105664  .debug_str:000000000003eaee .LASF2702
     /tmp/cc7R4ZW9.s:100014  .debug_str:0000000000027aff .LASF2703
     /tmp/cc7R4ZW9.s:95688  .debug_str:0000000000015b2d .LASF2704
     /tmp/cc7R4ZW9.s:96060  .debug_str:0000000000017324 .LASF2705
     /tmp/cc7R4ZW9.s:97534  .debug_str:000000000001d7b7 .LASF2706
     /tmp/cc7R4ZW9.s:95822  .debug_str:000000000001631d .LASF2707
     /tmp/cc7R4ZW9.s:109568  .debug_str:000000000004f3be .LASF2708
     /tmp/cc7R4ZW9.s:90954  .debug_str:00000000000029c7 .LASF2709
     /tmp/cc7R4ZW9.s:104466  .debug_str:0000000000039934 .LASF2710
     /tmp/cc7R4ZW9.s:101542  .debug_str:000000000002dc5b .LASF2711
     /tmp/cc7R4ZW9.s:90956  .debug_str:00000000000029fe .LASF2712
     /tmp/cc7R4ZW9.s:90608  .debug_str:00000000000010e0 .LASF2713
     /tmp/cc7R4ZW9.s:102908  .debug_str:000000000003367a .LASF2714
     /tmp/cc7R4ZW9.s:102188  .debug_str:0000000000030719 .LASF2715
     /tmp/cc7R4ZW9.s:94684  .debug_str:0000000000011a14 .LASF2716
     /tmp/cc7R4ZW9.s:105896  .debug_str:000000000003f93d .LASF2717
     /tmp/cc7R4ZW9.s:106690  .debug_str:00000000000432de .LASF2718
     /tmp/cc7R4ZW9.s:102594  .debug_str:00000000000320aa .LASF2719
     /tmp/cc7R4ZW9.s:96136  .debug_str:00000000000178ff .LASF2720
     /tmp/cc7R4ZW9.s:92202  .debug_str:0000000000007d7b .LASF2721
     /tmp/cc7R4ZW9.s:108784  .debug_str:000000000004bde5 .LASF2722
     /tmp/cc7R4ZW9.s:104870  .debug_str:000000000003b3d4 .LASF2723
     /tmp/cc7R4ZW9.s:109542  .debug_str:000000000004f231 .LASF2724
     /tmp/cc7R4ZW9.s:91086  .debug_str:000000000000323b .LASF2725
     /tmp/cc7R4ZW9.s:100814  .debug_str:000000000002afdb .LASF2726
     /tmp/cc7R4ZW9.s:90690  .debug_str:000000000000162a .LASF2727
     /tmp/cc7R4ZW9.s:91360  .debug_str:0000000000004510 .LASF2728
     /tmp/cc7R4ZW9.s:92354  .debug_str:0000000000008790 .LASF2729
     /tmp/cc7R4ZW9.s:102638  .debug_str:00000000000323c8 .LASF2730
     /tmp/cc7R4ZW9.s:102914  .debug_str:00000000000336fe .LASF2731
     /tmp/cc7R4ZW9.s:101600  .debug_str:000000000002e042 .LASF2732
     /tmp/cc7R4ZW9.s:96440  .debug_str:0000000000018bd7 .LASF2733
     /tmp/cc7R4ZW9.s:91056  .debug_str:00000000000030bf .LASF2734
     /tmp/cc7R4ZW9.s:95368  .debug_str:000000000001475f .LASF2735
     /tmp/cc7R4ZW9.s:109268  .debug_str:000000000004df94 .LASF2736
     /tmp/cc7R4ZW9.s:108488  .debug_str:000000000004a88a .LASF2737
     /tmp/cc7R4ZW9.s:108596  .debug_str:000000000004b06a .LASF2738
     /tmp/cc7R4ZW9.s:95212  .debug_str:0000000000013d8a .LASF2739
     /tmp/cc7R4ZW9.s:106272  .debug_str:0000000000041322 .LASF2740
     /tmp/cc7R4ZW9.s:95322  .debug_str:0000000000014454 .LASF2741
     /tmp/cc7R4ZW9.s:98506  .debug_str:0000000000021c27 .LASF2742
     /tmp/cc7R4ZW9.s:92306  .debug_str:0000000000008452 .LASF2743
     /tmp/cc7R4ZW9.s:104904  .debug_str:000000000003b6e7 .LASF2744
     /tmp/cc7R4ZW9.s:108558  .debug_str:000000000004ae42 .LASF2745
     /tmp/cc7R4ZW9.s:94282  .debug_str:0000000000010250 .LASF2746
     /tmp/cc7R4ZW9.s:90950  .debug_str:0000000000002967 .LASF2747
     /tmp/cc7R4ZW9.s:93040  .debug_str:000000000000b750 .LASF2748
     /tmp/cc7R4ZW9.s:99616  .debug_str:00000000000261c9 .LASF2749
     /tmp/cc7R4ZW9.s:109594  .debug_str:000000000004f54f .LASF2750
     /tmp/cc7R4ZW9.s:93400  .debug_str:000000000000cff6 .LASF2751
     /tmp/cc7R4ZW9.s:107290  .debug_str:0000000000045a84 .LASF2752
     /tmp/cc7R4ZW9.s:93126  .debug_str:000000000000be25 .LASF2753
     /tmp/cc7R4ZW9.s:109520  .debug_str:000000000004f0b1 .LASF2754
     /tmp/cc7R4ZW9.s:101570  .debug_str:000000000002de43 .LASF2755
     /tmp/cc7R4ZW9.s:91092  .debug_str:00000000000032bb .LASF2756
     /tmp/cc7R4ZW9.s:90392  .debug_str:0000000000000205 .LASF2757
     /tmp/cc7R4ZW9.s:105766  .debug_str:000000000003f0d0 .LASF2758
     /tmp/cc7R4ZW9.s:99926  .debug_str:00000000000274b1 .LASF2759
     /tmp/cc7R4ZW9.s:100906  .debug_str:000000000002b593 .LASF2760
     /tmp/cc7R4ZW9.s:109398  .debug_str:000000000004e8da .LASF2761
     /tmp/cc7R4ZW9.s:107104  .debug_str:0000000000044e24 .LASF2762
     /tmp/cc7R4ZW9.s:109366  .debug_str:000000000004e65c .LASF2763
     /tmp/cc7R4ZW9.s:100116  .debug_str:00000000000281cc .LASF2764
     /tmp/cc7R4ZW9.s:107966  .debug_str:00000000000486f5 .LASF2765
     /tmp/cc7R4ZW9.s:101306  .debug_str:000000000002ce35 .LASF2766
     /tmp/cc7R4ZW9.s:108162  .debug_str:00000000000493f5 .LASF2767
     /tmp/cc7R4ZW9.s:92532  .debug_str:0000000000009428 .LASF2768
     /tmp/cc7R4ZW9.s:94450  .debug_str:0000000000010b62 .LASF2769
     /tmp/cc7R4ZW9.s:107546  .debug_str:0000000000046adb .LASF2770
     /tmp/cc7R4ZW9.s:96120  .debug_str:00000000000177e0 .LASF2771
     /tmp/cc7R4ZW9.s:109764  .debug_str:00000000000500bd .LASF2772
     /tmp/cc7R4ZW9.s:102114  .debug_str:0000000000030264 .LASF2773
     /tmp/cc7R4ZW9.s:92990  .debug_str:000000000000b3ee .LASF2774
     /tmp/cc7R4ZW9.s:93418  .debug_str:000000000000d163 .LASF2775
     /tmp/cc7R4ZW9.s:106768  .debug_str:0000000000043820 .LASF2776
     /tmp/cc7R4ZW9.s:96778  .debug_str:000000000001a2a6 .LASF2777
     /tmp/cc7R4ZW9.s:105106  .debug_str:000000000003c4cd .LASF2778
     /tmp/cc7R4ZW9.s:103090  .debug_str:00000000000342d1 .LASF2779
     /tmp/cc7R4ZW9.s:95350  .debug_str:00000000000145f0 .LASF2780
     /tmp/cc7R4ZW9.s:94122  .debug_str:000000000000f93a .LASF2781
     /tmp/cc7R4ZW9.s:100176  .debug_str:0000000000028583 .LASF2782
     /tmp/cc7R4ZW9.s:105032  .debug_str:000000000003bf16 .LASF2783
     /tmp/cc7R4ZW9.s:91050  .debug_str:0000000000003022 .LASF2784
     /tmp/cc7R4ZW9.s:95452  .debug_str:0000000000014c35 .LASF2785
     /tmp/cc7R4ZW9.s:100310  .debug_str:0000000000028f4c .LASF2786
     /tmp/cc7R4ZW9.s:93022  .debug_str:000000000000b663 .LASF2787
     /tmp/cc7R4ZW9.s:92380  .debug_str:00000000000089a5 .LASF2788
     /tmp/cc7R4ZW9.s:97290  .debug_str:000000000001c727 .LASF2789
     /tmp/cc7R4ZW9.s:102202  .debug_str:0000000000030865 .LASF2790
     /tmp/cc7R4ZW9.s:107898  .debug_str:00000000000482c1 .LASF2791
     /tmp/cc7R4ZW9.s:106278  .debug_str:0000000000041389 .LASF2792
     /tmp/cc7R4ZW9.s:107502  .debug_str:0000000000046839 .LASF2793
     /tmp/cc7R4ZW9.s:95048  .debug_str:0000000000013364 .LASF2794
     /tmp/cc7R4ZW9.s:96472  .debug_str:0000000000018d67 .LASF2795
     /tmp/cc7R4ZW9.s:105366  .debug_str:000000000003d5a1 .LASF2796
     /tmp/cc7R4ZW9.s:95074  .debug_str:000000000001351e .LASF2797
     /tmp/cc7R4ZW9.s:103626  .debug_str:000000000003683b .LASF2798
     /tmp/cc7R4ZW9.s:106438  .debug_str:000000000004212b .LASF2799
     /tmp/cc7R4ZW9.s:103602  .debug_str:00000000000366af .LASF2800
     /tmp/cc7R4ZW9.s:93308  .debug_str:000000000000c9ab .LASF2801
     /tmp/cc7R4ZW9.s:103696  .debug_str:0000000000036d15 .LASF2802
     /tmp/cc7R4ZW9.s:98930  .debug_str:000000000002386f .LASF2803
     /tmp/cc7R4ZW9.s:96546  .debug_str:0000000000019275 .LASF2804
     /tmp/cc7R4ZW9.s:103244  .debug_str:0000000000034dad .LASF2805
     /tmp/cc7R4ZW9.s:106998  .debug_str:0000000000044720 .LASF2806
     /tmp/cc7R4ZW9.s:93414  .debug_str:000000000000d10a .LASF2807
     /tmp/cc7R4ZW9.s:98066  .debug_str:000000000001fd34 .LASF2808
     /tmp/cc7R4ZW9.s:103412  .debug_str:000000000003596f .LASF2809
     /tmp/cc7R4ZW9.s:92598  .debug_str:00000000000098b0 .LASF2810
     /tmp/cc7R4ZW9.s:101064  .debug_str:000000000002bf3d .LASF2811
     /tmp/cc7R4ZW9.s:102266  .debug_str:0000000000030c88 .LASF2812
     /tmp/cc7R4ZW9.s:96646  .debug_str:00000000000199c9 .LASF2813
     /tmp/cc7R4ZW9.s:92180  .debug_str:0000000000007c0c .LASF2814
     /tmp/cc7R4ZW9.s:100466  .debug_str:000000000002996d .LASF2815
     /tmp/cc7R4ZW9.s:104134  .debug_str:0000000000038805 .LASF2816
     /tmp/cc7R4ZW9.s:100562  .debug_str:0000000000029fa0 .LASF2817
     /tmp/cc7R4ZW9.s:99684  .debug_str:00000000000265bf .LASF2818
     /tmp/cc7R4ZW9.s:105692  .debug_str:000000000003ecc9 .LASF2819
     /tmp/cc7R4ZW9.s:103642  .debug_str:0000000000036932 .LASF2820
     /tmp/cc7R4ZW9.s:103460  .debug_str:0000000000035c9d .LASF2821
     /tmp/cc7R4ZW9.s:93524  .debug_str:000000000000d862 .LASF2822
     /tmp/cc7R4ZW9.s:93714  .debug_str:000000000000e303 .LASF2823
     /tmp/cc7R4ZW9.s:105590  .debug_str:000000000003e5d1 .LASF2824
     /tmp/cc7R4ZW9.s:97632  .debug_str:000000000001df24 .LASF2825
     /tmp/cc7R4ZW9.s:98356  .debug_str:0000000000021191 .LASF2826
     /tmp/cc7R4ZW9.s:99936  .debug_str:0000000000027598 .LASF2827
     /tmp/cc7R4ZW9.s:108768  .debug_str:000000000004bcbe .LASF2828
     /tmp/cc7R4ZW9.s:103178  .debug_str:00000000000347e6 .LASF2829
     /tmp/cc7R4ZW9.s:108714  .debug_str:000000000004b962 .LASF2830
     /tmp/cc7R4ZW9.s:98276  .debug_str:0000000000020cef .LASF2831
     /tmp/cc7R4ZW9.s:94210  .debug_str:000000000000ff0f .LASF2832
     /tmp/cc7R4ZW9.s:94960  .debug_str:0000000000012c8f .LASF2833
     /tmp/cc7R4ZW9.s:101520  .debug_str:000000000002db22 .LASF2834
     /tmp/cc7R4ZW9.s:97830  .debug_str:000000000001ecdc .LASF2835
     /tmp/cc7R4ZW9.s:105446  .debug_str:000000000003db86 .LASF2836
     /tmp/cc7R4ZW9.s:97904  .debug_str:000000000001f172 .LASF2837
     /tmp/cc7R4ZW9.s:96346  .debug_str:00000000000186a1 .LASF2838
     /tmp/cc7R4ZW9.s:105938  .debug_str:000000000003fc02 .LASF2839
     /tmp/cc7R4ZW9.s:109636  .debug_str:000000000004f82b .LASF2840
     /tmp/cc7R4ZW9.s:98784  .debug_str:0000000000022e26 .LASF2841
     /tmp/cc7R4ZW9.s:100908  .debug_str:000000000002b5cc .LASF2842
     /tmp/cc7R4ZW9.s:97442  .debug_str:000000000001d181 .LASF2843
     /tmp/cc7R4ZW9.s:91980  .debug_str:0000000000006ed4 .LASF2844
     /tmp/cc7R4ZW9.s:103224  .debug_str:0000000000034be4 .LASF2845
     /tmp/cc7R4ZW9.s:109226  .debug_str:000000000004dbfa .LASF2846
     /tmp/cc7R4ZW9.s:102380  .debug_str:0000000000031370 .LASF2847
     /tmp/cc7R4ZW9.s:100456  .debug_str:00000000000298af .LASF2848
     /tmp/cc7R4ZW9.s:94164  .debug_str:000000000000fc83 .LASF2849
     /tmp/cc7R4ZW9.s:97352  .debug_str:000000000001cbc1 .LASF2850
     /tmp/cc7R4ZW9.s:103690  .debug_str:0000000000036c9e .LASF2851
     /tmp/cc7R4ZW9.s:108984  .debug_str:000000000004cb4b .LASF2852
     /tmp/cc7R4ZW9.s:94544  .debug_str:000000000001115b .LASF2853
     /tmp/cc7R4ZW9.s:102214  .debug_str:0000000000030960 .LASF2854
     /tmp/cc7R4ZW9.s:102846  .debug_str:000000000003323f .LASF2855
     /tmp/cc7R4ZW9.s:99300  .debug_str:000000000002505c .LASF2856
     /tmp/cc7R4ZW9.s:91040  .debug_str:0000000000002f4b .LASF2857
     /tmp/cc7R4ZW9.s:106232  .debug_str:000000000004101b .LASF2858
     /tmp/cc7R4ZW9.s:109246  .debug_str:000000000004dda3 .LASF2859
     /tmp/cc7R4ZW9.s:90680  .debug_str:0000000000001566 .LASF2860
     /tmp/cc7R4ZW9.s:100186  .debug_str:0000000000028633 .LASF2861
     /tmp/cc7R4ZW9.s:96956  .debug_str:000000000001afc4 .LASF2862
     /tmp/cc7R4ZW9.s:95528  .debug_str:00000000000150c3 .LASF2863
     /tmp/cc7R4ZW9.s:101516  .debug_str:000000000002daa1 .LASF2864
     /tmp/cc7R4ZW9.s:104680  .debug_str:000000000003a6bd .LASF2865
     /tmp/cc7R4ZW9.s:103826  .debug_str:0000000000037567 .LASF2866
     /tmp/cc7R4ZW9.s:102748  .debug_str:0000000000032c1a .LASF2867
     /tmp/cc7R4ZW9.s:93048  .debug_str:000000000000b83a .LASF2868
     /tmp/cc7R4ZW9.s:92174  .debug_str:0000000000007ba9 .LASF2869
     /tmp/cc7R4ZW9.s:98116  .debug_str:000000000002018b .LASF2870
     /tmp/cc7R4ZW9.s:100034  .debug_str:0000000000027c88 .LASF2871
     /tmp/cc7R4ZW9.s:93216  .debug_str:000000000000c3b1 .LASF2872
     /tmp/cc7R4ZW9.s:100458  .debug_str:00000000000298ea .LASF2873
     /tmp/cc7R4ZW9.s:107994  .debug_str:00000000000488f3 .LASF2874
     /tmp/cc7R4ZW9.s:94968  .debug_str:0000000000012d2a .LASF2875
     /tmp/cc7R4ZW9.s:98998  .debug_str:0000000000023cef .LASF2876
     /tmp/cc7R4ZW9.s:106052  .debug_str:00000000000402c7 .LASF2877
     /tmp/cc7R4ZW9.s:93992  .debug_str:000000000000f1e6 .LASF2878
     /tmp/cc7R4ZW9.s:101470  .debug_str:000000000002d7ae .LASF2879
     /tmp/cc7R4ZW9.s:108696  .debug_str:000000000004b815 .LASF2880
     /tmp/cc7R4ZW9.s:92108  .debug_str:00000000000077ac .LASF2881
     /tmp/cc7R4ZW9.s:105740  .debug_str:000000000003ef0e .LASF2882
     /tmp/cc7R4ZW9.s:109180  .debug_str:000000000004d861 .LASF2883
     /tmp/cc7R4ZW9.s:90556  .debug_str:0000000000000d27 .LASF2884
     /tmp/cc7R4ZW9.s:101750  .debug_str:000000000002ea33 .LASF2885
     /tmp/cc7R4ZW9.s:91178  .debug_str:00000000000037d8 .LASF2886
     /tmp/cc7R4ZW9.s:94060  .debug_str:000000000000f612 .LASF2887
     /tmp/cc7R4ZW9.s:96178  .debug_str:0000000000017c02 .LASF2888
     /tmp/cc7R4ZW9.s:106166  .debug_str:0000000000040a01 .LASF2889
     /tmp/cc7R4ZW9.s:97890  .debug_str:000000000001f083 .LASF2890
     /tmp/cc7R4ZW9.s:92558  .debug_str:00000000000095ff .LASF2891
     /tmp/cc7R4ZW9.s:93238  .debug_str:000000000000c4eb .LASF2892
     /tmp/cc7R4ZW9.s:99540  .debug_str:0000000000025e07 .LASF2893
     /tmp/cc7R4ZW9.s:93130  .debug_str:000000000000be7e .LASF2894
     /tmp/cc7R4ZW9.s:109054  .debug_str:000000000004d06a .LASF2895
     /tmp/cc7R4ZW9.s:105838  .debug_str:000000000003f569 .LASF2896
     /tmp/cc7R4ZW9.s:108312  .debug_str:0000000000049d77 .LASF2897
     /tmp/cc7R4ZW9.s:103800  .debug_str:00000000000373e7 .LASF2898
     /tmp/cc7R4ZW9.s:90444  .debug_str:00000000000005c9 .LASF2899
     /tmp/cc7R4ZW9.s:96152  .debug_str:0000000000017a6b .LASF2900
     /tmp/cc7R4ZW9.s:101812  .debug_str:000000000002eeb2 .LASF2901
     /tmp/cc7R4ZW9.s:107722  .debug_str:0000000000047633 .LASF2902
     /tmp/cc7R4ZW9.s:105080  .debug_str:000000000003c2a1 .LASF2903
     /tmp/cc7R4ZW9.s:106218  .debug_str:0000000000040f17 .LASF2904
     /tmp/cc7R4ZW9.s:96390  .debug_str:000000000001895f .LASF2905
     /tmp/cc7R4ZW9.s:93046  .debug_str:000000000000b7f4 .LASF2906
     /tmp/cc7R4ZW9.s:94156  .debug_str:000000000000fc07 .LASF2907
     /tmp/cc7R4ZW9.s:96314  .debug_str:0000000000018481 .LASF2908
     /tmp/cc7R4ZW9.s:105402  .debug_str:000000000003d820 .LASF2909
     /tmp/cc7R4ZW9.s:90788  .debug_str:0000000000001e75 .LASF2910
     /tmp/cc7R4ZW9.s:97104  .debug_str:000000000001b92e .LASF2911
     /tmp/cc7R4ZW9.s:101294  .debug_str:000000000002cd86 .LASF2912
     /tmp/cc7R4ZW9.s:96048  .debug_str:000000000001729d .LASF2913
     /tmp/cc7R4ZW9.s:92090  .debug_str:00000000000075e9 .LASF2914
     /tmp/cc7R4ZW9.s:94988  .debug_str:0000000000012ead .LASF2915
     /tmp/cc7R4ZW9.s:100372  .debug_str:00000000000293eb .LASF2916
     /tmp/cc7R4ZW9.s:99794  .debug_str:0000000000026cfe .LASF2917
     /tmp/cc7R4ZW9.s:107558  .debug_str:0000000000046bda .LASF2918
     /tmp/cc7R4ZW9.s:97856  .debug_str:000000000001ee11 .LASF2919
     /tmp/cc7R4ZW9.s:94286  .debug_str:00000000000102b2 .LASF2920
     /tmp/cc7R4ZW9.s:103098  .debug_str:0000000000034339 .LASF2921
     /tmp/cc7R4ZW9.s:106586  .debug_str:0000000000042c60 .LASF2922
     /tmp/cc7R4ZW9.s:105000  .debug_str:000000000003bcc8 .LASF2923
     /tmp/cc7R4ZW9.s:92038  .debug_str:0000000000007302 .LASF2924
     /tmp/cc7R4ZW9.s:107008  .debug_str:00000000000447c8 .LASF2925
     /tmp/cc7R4ZW9.s:101870  .debug_str:000000000002f246 .LASF2926
     /tmp/cc7R4ZW9.s:101614  .debug_str:000000000002e127 .LASF2927
     /tmp/cc7R4ZW9.s:103454  .debug_str:0000000000035bf9 .LASF2928
     /tmp/cc7R4ZW9.s:92514  .debug_str:00000000000092c8 .LASF2929
     /tmp/cc7R4ZW9.s:108796  .debug_str:000000000004be9b .LASF2930
     /tmp/cc7R4ZW9.s:98736  .debug_str:0000000000022af5 .LASF2931
     /tmp/cc7R4ZW9.s:96322  .debug_str:0000000000018522 .LASF2932
     /tmp/cc7R4ZW9.s:107458  .debug_str:00000000000465ad .LASF2933
     /tmp/cc7R4ZW9.s:98776  .debug_str:0000000000022dad .LASF2934
     /tmp/cc7R4ZW9.s:93278  .debug_str:000000000000c7a3 .LASF2935
     /tmp/cc7R4ZW9.s:91022  .debug_str:0000000000002e0b .LASF2936
     /tmp/cc7R4ZW9.s:92876  .debug_str:000000000000abac .LASF2937
     /tmp/cc7R4ZW9.s:94658  .debug_str:0000000000011855 .LASF2938
     /tmp/cc7R4ZW9.s:99818  .debug_str:0000000000026eed .LASF2939
     /tmp/cc7R4ZW9.s:99128  .debug_str:00000000000245c2 .LASF2940
     /tmp/cc7R4ZW9.s:94866  .debug_str:0000000000012633 .LASF2941
     /tmp/cc7R4ZW9.s:102756  .debug_str:0000000000032c8c .LASF2942
     /tmp/cc7R4ZW9.s:100018  .debug_str:0000000000027b45 .LASF2943
     /tmp/cc7R4ZW9.s:98862  .debug_str:0000000000023324 .LASF2944
     /tmp/cc7R4ZW9.s:96162  .debug_str:0000000000017ae7 .LASF2945
     /tmp/cc7R4ZW9.s:98700  .debug_str:0000000000022886 .LASF2946
     /tmp/cc7R4ZW9.s:101420  .debug_str:000000000002d4b3 .LASF2947
     /tmp/cc7R4ZW9.s:93156  .debug_str:000000000000c00c .LASF2948
     /tmp/cc7R4ZW9.s:97166  .debug_str:000000000001bdbf .LASF2949
     /tmp/cc7R4ZW9.s:95228  .debug_str:0000000000013e63 .LASF2950
     /tmp/cc7R4ZW9.s:96334  .debug_str:00000000000185f9 .LASF2951
     /tmp/cc7R4ZW9.s:97260  .debug_str:000000000001c48a .LASF2952
     /tmp/cc7R4ZW9.s:91734  .debug_str:0000000000005d7d .LASF2953
     /tmp/cc7R4ZW9.s:102134  .debug_str:00000000000303c7 .LASF2954
     /tmp/cc7R4ZW9.s:95142  .debug_str:0000000000013948 .LASF2955
     /tmp/cc7R4ZW9.s:108028  .debug_str:0000000000048b1a .LASF2956
     /tmp/cc7R4ZW9.s:104034  .debug_str:00000000000381de .LASF2957
     /tmp/cc7R4ZW9.s:94744  .debug_str:0000000000011e15 .LASF2958
     /tmp/cc7R4ZW9.s:96254  .debug_str:00000000000180a7 .LASF2959
     /tmp/cc7R4ZW9.s:90724  .debug_str:000000000000199b .LASF2960
     /tmp/cc7R4ZW9.s:92562  .debug_str:0000000000009663 .LASF2961
     /tmp/cc7R4ZW9.s:97800  .debug_str:000000000001eb3e .LASF2962
     /tmp/cc7R4ZW9.s:105586  .debug_str:000000000003e589 .LASF2963
     /tmp/cc7R4ZW9.s:98228  .debug_str:0000000000020a18 .LASF2964
     /tmp/cc7R4ZW9.s:98774  .debug_str:0000000000022d7c .LASF2965
     /tmp/cc7R4ZW9.s:105430  .debug_str:000000000003da0f .LASF2966
     /tmp/cc7R4ZW9.s:102566  .debug_str:0000000000031ec5 .LASF2967
     /tmp/cc7R4ZW9.s:107470  .debug_str:00000000000466ad .LASF2968
     /tmp/cc7R4ZW9.s:108136  .debug_str:00000000000491e9 .LASF2969
     /tmp/cc7R4ZW9.s:91620  .debug_str:000000000000560e .LASF2970
     /tmp/cc7R4ZW9.s:99856  .debug_str:0000000000027134 .LASF2971
     /tmp/cc7R4ZW9.s:104900  .debug_str:000000000003b68e .LASF2972
     /tmp/cc7R4ZW9.s:93312  .debug_str:000000000000ca11 .LASF2973
     /tmp/cc7R4ZW9.s:92892  .debug_str:000000000000ac6d .LASF2974
     /tmp/cc7R4ZW9.s:105010  .debug_str:000000000003bd78 .LASF2975
     /tmp/cc7R4ZW9.s:105522  .debug_str:000000000003e0f8 .LASF2976
     /tmp/cc7R4ZW9.s:91332  .debug_str:00000000000042ba .LASF2977
     /tmp/cc7R4ZW9.s:104222  .debug_str:0000000000038d55 .LASF2978
     /tmp/cc7R4ZW9.s:93624  .debug_str:000000000000ddd1 .LASF2979
     /tmp/cc7R4ZW9.s:95078  .debug_str:000000000001356b .LASF2980
     /tmp/cc7R4ZW9.s:98140  .debug_str:00000000000202fc .LASF2981
     /tmp/cc7R4ZW9.s:105474  .debug_str:000000000003dd94 .LASF2982
     /tmp/cc7R4ZW9.s:97086  .debug_str:000000000001b7fb .LASF2983
     /tmp/cc7R4ZW9.s:99140  .debug_str:00000000000246b6 .LASF2984
     /tmp/cc7R4ZW9.s:101574  .debug_str:000000000002de92 .LASF2985
     /tmp/cc7R4ZW9.s:105526  .debug_str:000000000003e162 .LASF2986
     /tmp/cc7R4ZW9.s:91834  .debug_str:0000000000006423 .LASF2987
     /tmp/cc7R4ZW9.s:98842  .debug_str:00000000000231a8 .LASF2988
     /tmp/cc7R4ZW9.s:103436  .debug_str:0000000000035ae1 .LASF2989
     /tmp/cc7R4ZW9.s:108516  .debug_str:000000000004aaeb .LASF2990
     /tmp/cc7R4ZW9.s:91942  .debug_str:0000000000006b71 .LASF2991
     /tmp/cc7R4ZW9.s:92864  .debug_str:000000000000aaa6 .LASF2992
     /tmp/cc7R4ZW9.s:108830  .debug_str:000000000004c0f1 .LASF2993
     /tmp/cc7R4ZW9.s:99766  .debug_str:0000000000026b6c .LASF2994
     /tmp/cc7R4ZW9.s:95382  .debug_str:0000000000014851 .LASF2995
     /tmp/cc7R4ZW9.s:96978  .debug_str:000000000001b115 .LASF2996
     /tmp/cc7R4ZW9.s:107320  .debug_str:0000000000045ca2 .LASF2997
     /tmp/cc7R4ZW9.s:101922  .debug_str:000000000002f623 .LASF2998
     /tmp/cc7R4ZW9.s:103254  .debug_str:0000000000034e5f .LASF2999
     /tmp/cc7R4ZW9.s:108858  .debug_str:000000000004c2d3 .LASF3000
     /tmp/cc7R4ZW9.s:98414  .debug_str:0000000000021570 .LASF3001
     /tmp/cc7R4ZW9.s:104914  .debug_str:000000000003b792 .LASF3002
     /tmp/cc7R4ZW9.s:95694  .debug_str:0000000000015be6 .LASF3003
     /tmp/cc7R4ZW9.s:105296  .debug_str:000000000003d142 .LASF3004
     /tmp/cc7R4ZW9.s:106448  .debug_str:000000000004222d .LASF3005
     /tmp/cc7R4ZW9.s:107116  .debug_str:0000000000044f3d .LASF3006
     /tmp/cc7R4ZW9.s:95884  .debug_str:000000000001673b .LASF3007
     /tmp/cc7R4ZW9.s:97342  .debug_str:000000000001cb05 .LASF3008
     /tmp/cc7R4ZW9.s:100750  .debug_str:000000000002ab91 .LASF3009
     /tmp/cc7R4ZW9.s:106826  .debug_str:0000000000043c60 .LASF3010
     /tmp/cc7R4ZW9.s:98366  .debug_str:000000000002125b .LASF3011
     /tmp/cc7R4ZW9.s:96862  .debug_str:000000000001a887 .LASF3012
     /tmp/cc7R4ZW9.s:97062  .debug_str:000000000001b6bf .LASF3013
     /tmp/cc7R4ZW9.s:96672  .debug_str:0000000000019b83 .LASF3014
     /tmp/cc7R4ZW9.s:103402  .debug_str:000000000003584f .LASF3015
     /tmp/cc7R4ZW9.s:94938  .debug_str:0000000000012b09 .LASF3016
     /tmp/cc7R4ZW9.s:100680  .debug_str:000000000002a788 .LASF3017
     /tmp/cc7R4ZW9.s:102194  .debug_str:000000000003078c .LASF3018
     /tmp/cc7R4ZW9.s:92000  .debug_str:0000000000007058 .LASF3019
     /tmp/cc7R4ZW9.s:97076  .debug_str:000000000001b754 .LASF3020
     /tmp/cc7R4ZW9.s:106786  .debug_str:0000000000043997 .LASF3021
     /tmp/cc7R4ZW9.s:95006  .debug_str:0000000000012fca .LASF3022
     /tmp/cc7R4ZW9.s:91440  .debug_str:0000000000004a85 .LASF3023
     /tmp/cc7R4ZW9.s:109344  .debug_str:000000000004e4be .LASF3024
     /tmp/cc7R4ZW9.s:94554  .debug_str:000000000001123e .LASF3025
     /tmp/cc7R4ZW9.s:91864  .debug_str:0000000000006620 .LASF3026
     /tmp/cc7R4ZW9.s:105270  .debug_str:000000000003cf73 .LASF3027
     /tmp/cc7R4ZW9.s:103494  .debug_str:0000000000035f72 .LASF3028
     /tmp/cc7R4ZW9.s:95240  .debug_str:0000000000013f2c .LASF3029
     /tmp/cc7R4ZW9.s:99016  .debug_str:0000000000023df6 .LASF3030
     /tmp/cc7R4ZW9.s:97464  .debug_str:000000000001d2ed .LASF3031
     /tmp/cc7R4ZW9.s:96066  .debug_str:0000000000017383 .LASF3032
     /tmp/cc7R4ZW9.s:107818  .debug_str:0000000000047ce7 .LASF3033
     /tmp/cc7R4ZW9.s:106704  .debug_str:00000000000433ef .LASF3034
     /tmp/cc7R4ZW9.s:103644  .debug_str:0000000000036973 .LASF3035
     /tmp/cc7R4ZW9.s:90810  .debug_str:0000000000001fe7 .LASF3036
     /tmp/cc7R4ZW9.s:104896  .debug_str:000000000003b60d .LASF3037
     /tmp/cc7R4ZW9.s:103434  .debug_str:0000000000035aa9 .LASF3038
     /tmp/cc7R4ZW9.s:95286  .debug_str:000000000001420a .LASF3039
     /tmp/cc7R4ZW9.s:92728  .debug_str:000000000000a211 .LASF3040
     /tmp/cc7R4ZW9.s:105648  .debug_str:000000000003e9c4 .LASF3041
     /tmp/cc7R4ZW9.s:103536  .debug_str:00000000000361de .LASF3042
     /tmp/cc7R4ZW9.s:91320  .debug_str:00000000000041c9 .LASF3043
     /tmp/cc7R4ZW9.s:102474  .debug_str:0000000000031969 .LASF3044
     /tmp/cc7R4ZW9.s:104892  .debug_str:000000000003b594 .LASF3045
     /tmp/cc7R4ZW9.s:95680  .debug_str:0000000000015a8b .LASF3046
     /tmp/cc7R4ZW9.s:109224  .debug_str:000000000004dbb9 .LASF3047
     /tmp/cc7R4ZW9.s:97156  .debug_str:000000000001bd48 .LASF3048
     /tmp/cc7R4ZW9.s:109002  .debug_str:000000000004cc4c .LASF3049
     /tmp/cc7R4ZW9.s:109416  .debug_str:000000000004ea1b .LASF3050
     /tmp/cc7R4ZW9.s:101270  .debug_str:000000000002cbcb .LASF3051
     /tmp/cc7R4ZW9.s:94322  .debug_str:00000000000104d1 .LASF3052
     /tmp/cc7R4ZW9.s:103988  .debug_str:0000000000037f4d .LASF3053
     /tmp/cc7R4ZW9.s:95560  .debug_str:0000000000015324 .LASF3054
     /tmp/cc7R4ZW9.s:103404  .debug_str:0000000000035889 .LASF3055
     /tmp/cc7R4ZW9.s:105778  .debug_str:000000000003f190 .LASF3056
     /tmp/cc7R4ZW9.s:97688  .debug_str:000000000001e300 .LASF3057
     /tmp/cc7R4ZW9.s:106866  .debug_str:0000000000043ed4 .LASF3058
     /tmp/cc7R4ZW9.s:97198  .debug_str:000000000001c022 .LASF3059
     /tmp/cc7R4ZW9.s:108402  .debug_str:000000000004a3b8 .LASF3060
     /tmp/cc7R4ZW9.s:107586  .debug_str:0000000000046d36 .LASF3061
     /tmp/cc7R4ZW9.s:103688  .debug_str:0000000000036c62 .LASF3062
     /tmp/cc7R4ZW9.s:90622  .debug_str:00000000000011b4 .LASF3063
     /tmp/cc7R4ZW9.s:98710  .debug_str:0000000000022959 .LASF3064
     /tmp/cc7R4ZW9.s:104764  .debug_str:000000000003ac9a .LASF3065
     /tmp/cc7R4ZW9.s:93066  .debug_str:000000000000b95a .LASF3066
     /tmp/cc7R4ZW9.s:91290  .debug_str:0000000000003f96 .LASF3067
     /tmp/cc7R4ZW9.s:107656  .debug_str:0000000000047274 .LASF3068
     /tmp/cc7R4ZW9.s:106722  .debug_str:0000000000043506 .LASF3069
     /tmp/cc7R4ZW9.s:102964  .debug_str:0000000000033a7a .LASF3070
     /tmp/cc7R4ZW9.s:90838  .debug_str:00000000000021b9 .LASF3071
     /tmp/cc7R4ZW9.s:98108  .debug_str:00000000000200e4 .LASF3072
     /tmp/cc7R4ZW9.s:100582  .debug_str:000000000002a0f6 .LASF3073
     /tmp/cc7R4ZW9.s:94192  .debug_str:000000000000fdad .LASF3074
     /tmp/cc7R4ZW9.s:100378  .debug_str:0000000000029457 .LASF3075
     /tmp/cc7R4ZW9.s:92142  .debug_str:00000000000079bb .LASF3076
     /tmp/cc7R4ZW9.s:105952  .debug_str:000000000003fcc4 .LASF3077
     /tmp/cc7R4ZW9.s:104132  .debug_str:00000000000387c8 .LASF3078
     /tmp/cc7R4ZW9.s:106336  .debug_str:0000000000041834 .LASF3079
     /tmp/cc7R4ZW9.s:105086  .debug_str:000000000003c34f .LASF3080
     /tmp/cc7R4ZW9.s:91970  .debug_str:0000000000006dd0 .LASF3081
     /tmp/cc7R4ZW9.s:100538  .debug_str:0000000000029e04 .LASF3082
     /tmp/cc7R4ZW9.s:97328  .debug_str:000000000001c9ba .LASF3083
     /tmp/cc7R4ZW9.s:107654  .debug_str:000000000004723a .LASF3084
     /tmp/cc7R4ZW9.s:101568  .debug_str:000000000002de01 .LASF3085
     /tmp/cc7R4ZW9.s:104078  .debug_str:000000000003852f .LASF3086
     /tmp/cc7R4ZW9.s:107974  .debug_str:0000000000048771 .LASF3087
     /tmp/cc7R4ZW9.s:103898  .debug_str:0000000000037a04 .LASF3088
     /tmp/cc7R4ZW9.s:90832  .debug_str:0000000000002149 .LASF3089
     /tmp/cc7R4ZW9.s:107514  .debug_str:0000000000046919 .LASF3090
     /tmp/cc7R4ZW9.s:101268  .debug_str:000000000002cb90 .LASF3091
     /tmp/cc7R4ZW9.s:98182  .debug_str:0000000000020624 .LASF3092
     /tmp/cc7R4ZW9.s:92288  .debug_str:000000000000831d .LASF3093
     /tmp/cc7R4ZW9.s:106648  .debug_str:0000000000042fab .LASF3094
     /tmp/cc7R4ZW9.s:102066  .debug_str:000000000002ffaa .LASF3095
     /tmp/cc7R4ZW9.s:97822  .debug_str:000000000001ec4e .LASF3096
     /tmp/cc7R4ZW9.s:104906  .debug_str:000000000003b727 .LASF3097
     /tmp/cc7R4ZW9.s:95316  .debug_str:00000000000143cb .LASF3098
     /tmp/cc7R4ZW9.s:96512  .debug_str:0000000000019051 .LASF3099
     /tmp/cc7R4ZW9.s:92364  .debug_str:000000000000888d .LASF3100
     /tmp/cc7R4ZW9.s:108294  .debug_str:0000000000049c33 .LASF3101
     /tmp/cc7R4ZW9.s:96654  .debug_str:0000000000019a4d .LASF3102
     /tmp/cc7R4ZW9.s:108794  .debug_str:000000000004be63 .LASF3103
     /tmp/cc7R4ZW9.s:107050  .debug_str:0000000000044a73 .LASF3104
     /tmp/cc7R4ZW9.s:107758  .debug_str:000000000004790d .LASF3105
     /tmp/cc7R4ZW9.s:95756  .debug_str:0000000000015f5f .LASF3106
     /tmp/cc7R4ZW9.s:94466  .debug_str:0000000000010c7b .LASF3107
     /tmp/cc7R4ZW9.s:93370  .debug_str:000000000000ce4c .LASF3108
     /tmp/cc7R4ZW9.s:102450  .debug_str:00000000000317d2 .LASF3109
     /tmp/cc7R4ZW9.s:90490  .debug_str:00000000000008d0 .LASF3110
     /tmp/cc7R4ZW9.s:100090  .debug_str:0000000000028017 .LASF3111
     /tmp/cc7R4ZW9.s:109522  .debug_str:000000000004f0ea .LASF3112
     /tmp/cc7R4ZW9.s:102326  .debug_str:000000000003102c .LASF3113
     /tmp/cc7R4ZW9.s:99598  .debug_str:000000000002602e .LASF3114
     /tmp/cc7R4ZW9.s:102000  .debug_str:000000000002fb3b .LASF3115
     /tmp/cc7R4ZW9.s:106976  .debug_str:00000000000445d1 .LASF3116
     /tmp/cc7R4ZW9.s:96950  .debug_str:000000000001af23 .LASF3117
     /tmp/cc7R4ZW9.s:98616  .debug_str:0000000000022319 .LASF3118
     /tmp/cc7R4ZW9.s:107766  .debug_str:0000000000047972 .LASF3119
     /tmp/cc7R4ZW9.s:101934  .debug_str:000000000002f728 .LASF3120
     /tmp/cc7R4ZW9.s:109626  .debug_str:000000000004f75a .LASF3121
     /tmp/cc7R4ZW9.s:109772  .debug_str:000000000005013e .LASF3122
     /tmp/cc7R4ZW9.s:99600  .debug_str:000000000002606c .LASF3123
     /tmp/cc7R4ZW9.s:95578  .debug_str:0000000000015428 .LASF3124
     /tmp/cc7R4ZW9.s:97278  .debug_str:000000000001c67c .LASF3125
     /tmp/cc7R4ZW9.s:109496  .debug_str:000000000004eece .LASF3126
     /tmp/cc7R4ZW9.s:106410  .debug_str:0000000000041cd1 .LASF3127
     /tmp/cc7R4ZW9.s:95024  .debug_str:00000000000130e6 .LASF3128
     /tmp/cc7R4ZW9.s:94492  .debug_str:0000000000010eab .LASF3129
     /tmp/cc7R4ZW9.s:104622  .debug_str:000000000003a271 .LASF3130
     /tmp/cc7R4ZW9.s:109030  .debug_str:000000000004ce6d .LASF3131
     /tmp/cc7R4ZW9.s:102984  .debug_str:0000000000033bd8 .LASF3132
     /tmp/cc7R4ZW9.s:104342  .debug_str:0000000000039396 .LASF3133
     /tmp/cc7R4ZW9.s:104120  .debug_str:00000000000386fa .LASF3134
     /tmp/cc7R4ZW9.s:90860  .debug_str:0000000000002377 .LASF3135
     /tmp/cc7R4ZW9.s:107626  .debug_str:000000000004703f .LASF3136
     /tmp/cc7R4ZW9.s:100606  .debug_str:000000000002a2b0 .LASF3137
     /tmp/cc7R4ZW9.s:97730  .debug_str:000000000001e634 .LASF3138
     /tmp/cc7R4ZW9.s:106196  .debug_str:0000000000040c74 .LASF3139
     /tmp/cc7R4ZW9.s:99666  .debug_str:00000000000264dd .LASF3140
     /tmp/cc7R4ZW9.s:90564  .debug_str:0000000000000db8 .LASF3141
     /tmp/cc7R4ZW9.s:106382  .debug_str:0000000000041b26 .LASF3142
     /tmp/cc7R4ZW9.s:94150  .debug_str:000000000000fb56 .LASF3143
     /tmp/cc7R4ZW9.s:91724  .debug_str:0000000000005cc9 .LASF3144
     /tmp/cc7R4ZW9.s:94588  .debug_str:0000000000011473 .LASF3145
     /tmp/cc7R4ZW9.s:92964  .debug_str:000000000000b202 .LASF3146
     /tmp/cc7R4ZW9.s:108246  .debug_str:0000000000049939 .LASF3147
     /tmp/cc7R4ZW9.s:104508  .debug_str:0000000000039c56 .LASF3148
     /tmp/cc7R4ZW9.s:91642  .debug_str:0000000000005771 .LASF3149
     /tmp/cc7R4ZW9.s:101756  .debug_str:000000000002eaa2 .LASF3150
     /tmp/cc7R4ZW9.s:104962  .debug_str:000000000003ba47 .LASF3151
     /tmp/cc7R4ZW9.s:103078  .debug_str:00000000000341e8 .LASF3152
     /tmp/cc7R4ZW9.s:108766  .debug_str:000000000004bc7b .LASF3153
     /tmp/cc7R4ZW9.s:108124  .debug_str:0000000000049122 .LASF3154
     /tmp/cc7R4ZW9.s:99374  .debug_str:0000000000025517 .LASF3155
     /tmp/cc7R4ZW9.s:99272  .debug_str:0000000000024f53 .LASF3156
     /tmp/cc7R4ZW9.s:90642  .debug_str:00000000000012ea .LASF3157
     /tmp/cc7R4ZW9.s:101636  .debug_str:000000000002e2ad .LASF3158
     /tmp/cc7R4ZW9.s:109164  .debug_str:000000000004d736 .LASF3159
     /tmp/cc7R4ZW9.s:92604  .debug_str:0000000000009985 .LASF3160
     /tmp/cc7R4ZW9.s:105990  .debug_str:000000000003ff1d .LASF3161
     /tmp/cc7R4ZW9.s:100898  .debug_str:000000000002b476 .LASF3162
     /tmp/cc7R4ZW9.s:100224  .debug_str:0000000000028918 .LASF3163
     /tmp/cc7R4ZW9.s:94692  .debug_str:0000000000011ab7 .LASF3164
     /tmp/cc7R4ZW9.s:108654  .debug_str:000000000004b4f4 .LASF3165
     /tmp/cc7R4ZW9.s:105064  .debug_str:000000000003c183 .LASF3166
     /tmp/cc7R4ZW9.s:106332  .debug_str:00000000000417ec .LASF3167
     /tmp/cc7R4ZW9.s:93762  .debug_str:000000000000e5eb .LASF3168
     /tmp/cc7R4ZW9.s:97176  .debug_str:000000000001be5f .LASF3169
     /tmp/cc7R4ZW9.s:107644  .debug_str:000000000004716a .LASF3170
     /tmp/cc7R4ZW9.s:90468  .debug_str:000000000000074f .LASF3171
     /tmp/cc7R4ZW9.s:103472  .debug_str:0000000000035d96 .LASF3172
     /tmp/cc7R4ZW9.s:98436  .debug_str:00000000000216fc .LASF3173
     /tmp/cc7R4ZW9.s:100450  .debug_str:0000000000029824 .LASF3174
     /tmp/cc7R4ZW9.s:98704  .debug_str:00000000000228de .LASF3175
     /tmp/cc7R4ZW9.s:108072  .debug_str:0000000000048dae .LASF3176
     /tmp/cc7R4ZW9.s:91170  .debug_str:000000000000373c .LASF3177
     /tmp/cc7R4ZW9.s:105780  .debug_str:000000000003f1d0 .LASF3178
     /tmp/cc7R4ZW9.s:99298  .debug_str:0000000000025014 .LASF3179
     /tmp/cc7R4ZW9.s:96752  .debug_str:000000000001a0c8 .LASF3180
     /tmp/cc7R4ZW9.s:106502  .debug_str:000000000004260c .LASF3181
     /tmp/cc7R4ZW9.s:99486  .debug_str:0000000000025a5e .LASF3182
     /tmp/cc7R4ZW9.s:98380  .debug_str:0000000000021352 .LASF3183
     /tmp/cc7R4ZW9.s:109758  .debug_str:000000000005002a .LASF3184
     /tmp/cc7R4ZW9.s:90436  .debug_str:000000000000052c .LASF3185
     /tmp/cc7R4ZW9.s:107454  .debug_str:0000000000046539 .LASF3186
     /tmp/cc7R4ZW9.s:100250  .debug_str:0000000000028b39 .LASF3187
     /tmp/cc7R4ZW9.s:105486  .debug_str:000000000003dea3 .LASF3188
     /tmp/cc7R4ZW9.s:100208  .debug_str:00000000000287ee .LASF3189
     /tmp/cc7R4ZW9.s:105596  .debug_str:000000000003e629 .LASF3190
     /tmp/cc7R4ZW9.s:108196  .debug_str:0000000000049618 .LASF3191
     /tmp/cc7R4ZW9.s:95920  .debug_str:00000000000169d9 .LASF3192
     /tmp/cc7R4ZW9.s:98268  .debug_str:0000000000020c5c .LASF3193
     /tmp/cc7R4ZW9.s:109586  .debug_str:000000000004f4d6 .LASF3194
     /tmp/cc7R4ZW9.s:107740  .debug_str:000000000004779d .LASF3195
     /tmp/cc7R4ZW9.s:102338  .debug_str:00000000000310cf .LASF3196
     /tmp/cc7R4ZW9.s:102342  .debug_str:0000000000031122 .LASF3197
     /tmp/cc7R4ZW9.s:99058  .debug_str:00000000000240a3 .LASF3198
     /tmp/cc7R4ZW9.s:106340  .debug_str:0000000000041891 .LASF3199
     /tmp/cc7R4ZW9.s:91914  .debug_str:000000000000697b .LASF3200
     /tmp/cc7R4ZW9.s:95556  .debug_str:00000000000152b4 .LASF3201
     /tmp/cc7R4ZW9.s:92388  .debug_str:0000000000008a16 .LASF3202
     /tmp/cc7R4ZW9.s:101432  .debug_str:000000000002d561 .LASF3203
     /tmp/cc7R4ZW9.s:107416  .debug_str:00000000000462a2 .LASF3204
     /tmp/cc7R4ZW9.s:106138  .debug_str:0000000000040810 .LASF3205
     /tmp/cc7R4ZW9.s:90484  .debug_str:0000000000000843 .LASF3206
     /tmp/cc7R4ZW9.s:102646  .debug_str:000000000003246d .LASF3207
     /tmp/cc7R4ZW9.s:92392  .debug_str:0000000000008a5f .LASF3208
     /tmp/cc7R4ZW9.s:101136  .debug_str:000000000002c3d2 .LASF3209
     /tmp/cc7R4ZW9.s:102178  .debug_str:0000000000030678 .LASF3210
     /tmp/cc7R4ZW9.s:105768  .debug_str:000000000003f109 .LASF3211
     /tmp/cc7R4ZW9.s:104088  .debug_str:000000000003860f .LASF3212
     /tmp/cc7R4ZW9.s:91094  .debug_str:00000000000032f4 .LASF3213
     /tmp/cc7R4ZW9.s:105566  .debug_str:000000000003e443 .LASF3214
     /tmp/cc7R4ZW9.s:104534  .debug_str:0000000000039d4b .LASF3215
     /tmp/cc7R4ZW9.s:97150  .debug_str:000000000001bcb5 .LASF3216
     /tmp/cc7R4ZW9.s:95628  .debug_str:000000000001570b .LASF3217
     /tmp/cc7R4ZW9.s:103762  .debug_str:0000000000037111 .LASF3218
     /tmp/cc7R4ZW9.s:106906  .debug_str:00000000000441a8 .LASF3219
     /tmp/cc7R4ZW9.s:105662  .debug_str:000000000003eaae .LASF3220
     /tmp/cc7R4ZW9.s:98076  .debug_str:000000000001fe0e .LASF3221
     /tmp/cc7R4ZW9.s:107294  .debug_str:0000000000045ae1 .LASF3222
     /tmp/cc7R4ZW9.s:108674  .debug_str:000000000004b662 .LASF3223
     /tmp/cc7R4ZW9.s:98222  .debug_str:00000000000209b5 .LASF3224
     /tmp/cc7R4ZW9.s:96198  .debug_str:0000000000017dbf .LASF3225
     /tmp/cc7R4ZW9.s:108554  .debug_str:000000000004add1 .LASF3226
     /tmp/cc7R4ZW9.s:91806  .debug_str:0000000000006227 .LASF3227
     /tmp/cc7R4ZW9.s:97350  .debug_str:000000000001cb81 .LASF3228
     /tmp/cc7R4ZW9.s:107034  .debug_str:00000000000449bf .LASF3229
     /tmp/cc7R4ZW9.s:100736  .debug_str:000000000002aa57 .LASF3230
     /tmp/cc7R4ZW9.s:95160  .debug_str:0000000000013a45 .LASF3231
     /tmp/cc7R4ZW9.s:100808  .debug_str:000000000002af44 .LASF3232
     /tmp/cc7R4ZW9.s:107810  .debug_str:0000000000047c49 .LASF3233
     /tmp/cc7R4ZW9.s:106740  .debug_str:000000000004367f .LASF3234
     /tmp/cc7R4ZW9.s:94776  .debug_str:000000000001205d .LASF3235
     /tmp/cc7R4ZW9.s:107024  .debug_str:0000000000044920 .LASF3236
     /tmp/cc7R4ZW9.s:94784  .debug_str:00000000000120f9 .LASF3237
     /tmp/cc7R4ZW9.s:94894  .debug_str:00000000000127a4 .LASF3238
     /tmp/cc7R4ZW9.s:98526  .debug_str:0000000000021de7 .LASF3239
     /tmp/cc7R4ZW9.s:106592  .debug_str:0000000000042cd2 .LASF3240
     /tmp/cc7R4ZW9.s:91644  .debug_str:00000000000057b1 .LASF3241
     /tmp/cc7R4ZW9.s:91692  .debug_str:0000000000005b0d .LASF3242
     /tmp/cc7R4ZW9.s:102936  .debug_str:00000000000338c8 .LASF3243
     /tmp/cc7R4ZW9.s:93314  .debug_str:000000000000ca4c .LASF3244
     /tmp/cc7R4ZW9.s:100550  .debug_str:0000000000029edd .LASF3245
     /tmp/cc7R4ZW9.s:105202  .debug_str:000000000003cb0b .LASF3246
     /tmp/cc7R4ZW9.s:98180  .debug_str:00000000000205e8 .LASF3247
     /tmp/cc7R4ZW9.s:90928  .debug_str:00000000000027ab .LASF3248
     /tmp/cc7R4ZW9.s:90662  .debug_str:000000000000144b .LASF3249
     /tmp/cc7R4ZW9.s:102462  .debug_str:00000000000318b8 .LASF3250
     /tmp/cc7R4ZW9.s:106898  .debug_str:00000000000440eb .LASF3251
     /tmp/cc7R4ZW9.s:92356  .debug_str:00000000000087d0 .LASF3252
     /tmp/cc7R4ZW9.s:107522  .debug_str:000000000004696b .LASF3253
     /tmp/cc7R4ZW9.s:102028  .debug_str:000000000002fcc8 .LASF3254
     /tmp/cc7R4ZW9.s:97336  .debug_str:000000000001ca85 .LASF3255
     /tmp/cc7R4ZW9.s:91948  .debug_str:0000000000006bd2 .LASF3256
     /tmp/cc7R4ZW9.s:105498  .debug_str:000000000003dfbd .LASF3257
     /tmp/cc7R4ZW9.s:91738  .debug_str:0000000000005dd0 .LASF3258
     /tmp/cc7R4ZW9.s:97796  .debug_str:000000000001ead5 .LASF3259
     /tmp/cc7R4ZW9.s:98976  .debug_str:0000000000023b6c .LASF3260
     /tmp/cc7R4ZW9.s:94528  .debug_str:0000000000011046 .LASF3261
     /tmp/cc7R4ZW9.s:101518  .debug_str:000000000002dadd .LASF3262
     /tmp/cc7R4ZW9.s:105638  .debug_str:000000000003e90b .LASF3263
     /tmp/cc7R4ZW9.s:96286  .debug_str:0000000000018285 .LASF3264
     /tmp/cc7R4ZW9.s:104476  .debug_str:00000000000399f2 .LASF3265
     /tmp/cc7R4ZW9.s:102710  .debug_str:0000000000032934 .LASF3266
     /tmp/cc7R4ZW9.s:98856  .debug_str:000000000002329b .LASF3267
     /tmp/cc7R4ZW9.s:90756  .debug_str:0000000000001bc0 .LASF3268
     /tmp/cc7R4ZW9.s:94402  .debug_str:0000000000010914 .LASF3269
     /tmp/cc7R4ZW9.s:98208  .debug_str:0000000000020864 .LASF3270
     /tmp/cc7R4ZW9.s:93140  .debug_str:000000000000bf0d .LASF3271
     /tmp/cc7R4ZW9.s:106698  .debug_str:0000000000043381 .LASF3272
     /tmp/cc7R4ZW9.s:92304  .debug_str:0000000000008429 .LASF3273
     /tmp/cc7R4ZW9.s:93284  .debug_str:000000000000c825 .LASF3274
     /tmp/cc7R4ZW9.s:97196  .debug_str:000000000001bfdc .LASF3275
     /tmp/cc7R4ZW9.s:92700  .debug_str:0000000000009fdf .LASF3276
     /tmp/cc7R4ZW9.s:105634  .debug_str:000000000003e8ad .LASF3277
     /tmp/cc7R4ZW9.s:95376  .debug_str:00000000000147c8 .LASF3278
     /tmp/cc7R4ZW9.s:94678  .debug_str:00000000000119b4 .LASF3279
     /tmp/cc7R4ZW9.s:100070  .debug_str:0000000000027eba .LASF3280
     /tmp/cc7R4ZW9.s:92282  .debug_str:0000000000008289 .LASF3281
     /tmp/cc7R4ZW9.s:91192  .debug_str:00000000000038d4 .LASF3282
     /tmp/cc7R4ZW9.s:103356  .debug_str:00000000000354e0 .LASF3283
     /tmp/cc7R4ZW9.s:101942  .debug_str:000000000002f7c3 .LASF3284
     /tmp/cc7R4ZW9.s:109338  .debug_str:000000000004e459 .LASF3285
     /tmp/cc7R4ZW9.s:109710  .debug_str:000000000004fd24 .LASF3286
     /tmp/cc7R4ZW9.s:97014  .debug_str:000000000001b36a .LASF3287
     /tmp/cc7R4ZW9.s:91956  .debug_str:0000000000006c9b .LASF3288
     /tmp/cc7R4ZW9.s:106562  .debug_str:0000000000042ab2 .LASF3289
     /tmp/cc7R4ZW9.s:92472  .debug_str:0000000000008ffb .LASF3290
     /tmp/cc7R4ZW9.s:109232  .debug_str:000000000004dc82 .LASF3291
     /tmp/cc7R4ZW9.s:92924  .debug_str:000000000000af1e .LASF3292
     /tmp/cc7R4ZW9.s:105364  .debug_str:000000000003d55a .LASF3293
     /tmp/cc7R4ZW9.s:100320  .debug_str:0000000000028ffe .LASF3294
     /tmp/cc7R4ZW9.s:95036  .debug_str:0000000000013202 .LASF3295
     /tmp/cc7R4ZW9.s:106512  .debug_str:00000000000426da .LASF3296
     /tmp/cc7R4ZW9.s:104898  .debug_str:000000000003b64d .LASF3297
     /tmp/cc7R4ZW9.s:99804  .debug_str:0000000000026de3 .LASF3298
     /tmp/cc7R4ZW9.s:103386  .debug_str:00000000000356e7 .LASF3299
     /tmp/cc7R4ZW9.s:107508  .debug_str:00000000000468b6 .LASF3300
     /tmp/cc7R4ZW9.s:105112  .debug_str:000000000003c539 .LASF3301
     /tmp/cc7R4ZW9.s:91978  .debug_str:0000000000006e92 .LASF3302
     /tmp/cc7R4ZW9.s:108054  .debug_str:0000000000048c79 .LASF3303
     /tmp/cc7R4ZW9.s:105160  .debug_str:000000000003c8d4 .LASF3304
     /tmp/cc7R4ZW9.s:96108  .debug_str:00000000000176c6 .LASF3305
     /tmp/cc7R4ZW9.s:97754  .debug_str:000000000001e7c7 .LASF3306
     /tmp/cc7R4ZW9.s:92784  .debug_str:000000000000a546 .LASF3307
     /tmp/cc7R4ZW9.s:95378  .debug_str:0000000000014806 .LASF3308
     /tmp/cc7R4ZW9.s:95634  .debug_str:000000000001579a .LASF3309
     /tmp/cc7R4ZW9.s:93420  .debug_str:000000000000d1ac .LASF3310
     /tmp/cc7R4ZW9.s:106214  .debug_str:0000000000040eb8 .LASF3311
     /tmp/cc7R4ZW9.s:107732  .debug_str:0000000000047702 .LASF3312
     /tmp/cc7R4ZW9.s:100918  .debug_str:000000000002b677 .LASF3313
     /tmp/cc7R4ZW9.s:108650  .debug_str:000000000004b4a6 .LASF3314
     /tmp/cc7R4ZW9.s:90848  .debug_str:00000000000022a9 .LASF3315
     /tmp/cc7R4ZW9.s:94722  .debug_str:0000000000011cc0 .LASF3316
     /tmp/cc7R4ZW9.s:102656  .debug_str:000000000003258a .LASF3317
     /tmp/cc7R4ZW9.s:108392  .debug_str:000000000004a2e8 .LASF3318
     /tmp/cc7R4ZW9.s:102924  .debug_str:00000000000337fa .LASF3319
     /tmp/cc7R4ZW9.s:106268  .debug_str:000000000004129e .LASF3320
     /tmp/cc7R4ZW9.s:102940  .debug_str:0000000000033913 .LASF3321
     /tmp/cc7R4ZW9.s:91478  .debug_str:0000000000004cec .LASF3322
     /tmp/cc7R4ZW9.s:94474  .debug_str:0000000000010d27 .LASF3323
     /tmp/cc7R4ZW9.s:103236  .debug_str:0000000000034d1a .LASF3324
     /tmp/cc7R4ZW9.s:96804  .debug_str:000000000001a4b2 .LASF3325
     /tmp/cc7R4ZW9.s:101502  .debug_str:000000000002d991 .LASF3326
     /tmp/cc7R4ZW9.s:101714  .debug_str:000000000002e7c9 .LASF3327
     /tmp/cc7R4ZW9.s:104704  .debug_str:000000000003a85f .LASF3328
     /tmp/cc7R4ZW9.s:104624  .debug_str:000000000003a2b2 .LASF3329
     /tmp/cc7R4ZW9.s:92848  .debug_str:000000000000a9d6 .LASF3330
     /tmp/cc7R4ZW9.s:98524  .debug_str:0000000000021d9b .LASF3331
     /tmp/cc7R4ZW9.s:103914  .debug_str:0000000000037b4b .LASF3332
     /tmp/cc7R4ZW9.s:101912  .debug_str:000000000002f56d .LASF3333
     /tmp/cc7R4ZW9.s:95646  .debug_str:000000000001588e .LASF3334
     /tmp/cc7R4ZW9.s:109068  .debug_str:000000000004d167 .LASF3335
     /tmp/cc7R4ZW9.s:105894  .debug_str:000000000003f8f7 .LASF3336
     /tmp/cc7R4ZW9.s:108378  .debug_str:000000000004a1cd .LASF3337
     /tmp/cc7R4ZW9.s:96884  .debug_str:000000000001aa83 .LASF3338
     /tmp/cc7R4ZW9.s:97910  .debug_str:000000000001f20d .LASF3339
     /tmp/cc7R4ZW9.s:107282  .debug_str:00000000000459fa .LASF3340
     /tmp/cc7R4ZW9.s:93566  .debug_str:000000000000daff .LASF3341
     /tmp/cc7R4ZW9.s:105118  .debug_str:000000000003c5d1 .LASF3342
     /tmp/cc7R4ZW9.s:104404  .debug_str:000000000003966a .LASF3343
     /tmp/cc7R4ZW9.s:96006  .debug_str:0000000000016fcf .LASF3344
     /tmp/cc7R4ZW9.s:95490  .debug_str:0000000000014e83 .LASF3345
     /tmp/cc7R4ZW9.s:102820  .debug_str:0000000000033093 .LASF3346
     /tmp/cc7R4ZW9.s:106110  .debug_str:0000000000040625 .LASF3347
     /tmp/cc7R4ZW9.s:97360  .debug_str:000000000001cc49 .LASF3348
     /tmp/cc7R4ZW9.s:105120  .debug_str:000000000003c614 .LASF3349
     /tmp/cc7R4ZW9.s:105496  .debug_str:000000000003df7a .LASF3350
     /tmp/cc7R4ZW9.s:96014  .debug_str:0000000000017064 .LASF3351
     /tmp/cc7R4ZW9.s:106248  .debug_str:0000000000041131 .LASF3352
     /tmp/cc7R4ZW9.s:107934  .debug_str:00000000000484ee .LASF3353
     /tmp/cc7R4ZW9.s:101896  .debug_str:000000000002f45d .LASF3354
     /tmp/cc7R4ZW9.s:95640  .debug_str:0000000000015824 .LASF3355
     /tmp/cc7R4ZW9.s:92172  .debug_str:0000000000007b68 .LASF3356
     /tmp/cc7R4ZW9.s:101964  .debug_str:000000000002f8ec .LASF3357
     /tmp/cc7R4ZW9.s:93272  .debug_str:000000000000c72f .LASF3358
     /tmp/cc7R4ZW9.s:105528  .debug_str:000000000003e1a3 .LASF3359
     /tmp/cc7R4ZW9.s:100350  .debug_str:0000000000029247 .LASF3360
     /tmp/cc7R4ZW9.s:108974  .debug_str:000000000004ca91 .LASF3361
     /tmp/cc7R4ZW9.s:104072  .debug_str:0000000000038495 .LASF3362
     /tmp/cc7R4ZW9.s:106744  .debug_str:00000000000436db .LASF3363
     /tmp/cc7R4ZW9.s:99122  .debug_str:0000000000024525 .LASF3364
     /tmp/cc7R4ZW9.s:92324  .debug_str:00000000000085bd .LASF3365
     /tmp/cc7R4ZW9.s:104196  .debug_str:0000000000038b49 .LASF3366
     /tmp/cc7R4ZW9.s:100886  .debug_str:000000000002b3a1 .LASF3367
     /tmp/cc7R4ZW9.s:101986  .debug_str:000000000002fa6e .LASF3368
     /tmp/cc7R4ZW9.s:109492  .debug_str:000000000004ee57 .LASF3369
     /tmp/cc7R4ZW9.s:91906  .debug_str:00000000000068e8 .LASF3370
     /tmp/cc7R4ZW9.s:103232  .debug_str:0000000000034c9f .LASF3371
     /tmp/cc7R4ZW9.s:107946  .debug_str:00000000000485e2 .LASF3372
     /tmp/cc7R4ZW9.s:98202  .debug_str:00000000000207c7 .LASF3373
     /tmp/cc7R4ZW9.s:97876  .debug_str:000000000001ef9a .LASF3374
     /tmp/cc7R4ZW9.s:107302  .debug_str:0000000000045b7b .LASF3375
     /tmp/cc7R4ZW9.s:92438  .debug_str:0000000000008d71 .LASF3376
     /tmp/cc7R4ZW9.s:104372  .debug_str:0000000000039473 .LASF3377
     /tmp/cc7R4ZW9.s:97590  .debug_str:000000000001dbe4 .LASF3378
     /tmp/cc7R4ZW9.s:98586  .debug_str:0000000000022154 .LASF3379
     /tmp/cc7R4ZW9.s:105230  .debug_str:000000000003ccc6 .LASF3380
     /tmp/cc7R4ZW9.s:95812  .debug_str:000000000001626e .LASF3381
     /tmp/cc7R4ZW9.s:109286  .debug_str:000000000004e10d .LASF3382
     /tmp/cc7R4ZW9.s:100984  .debug_str:000000000002bacd .LASF3383
     /tmp/cc7R4ZW9.s:94154  .debug_str:000000000000fbbf .LASF3384
     /tmp/cc7R4ZW9.s:101832  .debug_str:000000000002efb5 .LASF3385
     /tmp/cc7R4ZW9.s:99262  .debug_str:0000000000024e65 .LASF3386
     /tmp/cc7R4ZW9.s:91918  .debug_str:00000000000069dc .LASF3387
     /tmp/cc7R4ZW9.s:96814  .debug_str:000000000001a578 .LASF3388
     /tmp/cc7R4ZW9.s:96878  .debug_str:000000000001aa19 .LASF3389
     /tmp/cc7R4ZW9.s:97152  .debug_str:000000000001bcf8 .LASF3390
     /tmp/cc7R4ZW9.s:101710  .debug_str:000000000002e768 .LASF3391
     /tmp/cc7R4ZW9.s:92600  .debug_str:00000000000098f4 .LASF3392
     /tmp/cc7R4ZW9.s:104978  .debug_str:000000000003bb14 .LASF3393
     /tmp/cc7R4ZW9.s:91958  .debug_str:0000000000006cd6 .LASF3394
     /tmp/cc7R4ZW9.s:97620  .debug_str:000000000001de5f .LASF3395
     /tmp/cc7R4ZW9.s:102048  .debug_str:000000000002fe2c .LASF3396
     /tmp/cc7R4ZW9.s:105442  .debug_str:000000000003db11 .LASF3397
     /tmp/cc7R4ZW9.s:93038  .debug_str:000000000000b712 .LASF3398
     /tmp/cc7R4ZW9.s:106078  .debug_str:0000000000040476 .LASF3399
     /tmp/cc7R4ZW9.s:92394  .debug_str:0000000000008aa0 .LASF3400
     /tmp/cc7R4ZW9.s:97060  .debug_str:000000000001b679 .LASF3401
     /tmp/cc7R4ZW9.s:106780  .debug_str:00000000000438f2 .LASF3402
     /tmp/cc7R4ZW9.s:102886  .debug_str:00000000000334f0 .LASF3403
     /tmp/cc7R4ZW9.s:97962  .debug_str:000000000001f641 .LASF3404
     /tmp/cc7R4ZW9.s:107742  .debug_str:00000000000477de .LASF3405
     /tmp/cc7R4ZW9.s:99800  .debug_str:0000000000026d7f .LASF3406
     /tmp/cc7R4ZW9.s:104208  .debug_str:0000000000038c55 .LASF3407
     /tmp/cc7R4ZW9.s:99970  .debug_str:00000000000277cd .LASF3408
     /tmp/cc7R4ZW9.s:95070  .debug_str:00000000000134b2 .LASF3409
     /tmp/cc7R4ZW9.s:98878  .debug_str:000000000002344f .LASF3410
     /tmp/cc7R4ZW9.s:103342  .debug_str:00000000000353e4 .LASF3411
     /tmp/cc7R4ZW9.s:91048  .debug_str:0000000000002fe6 .LASF3412
     /tmp/cc7R4ZW9.s:96446  .debug_str:0000000000018c33 .LASF3413
     /tmp/cc7R4ZW9.s:90504  .debug_str:00000000000009be .LASF3414
     /tmp/cc7R4ZW9.s:98128  .debug_str:000000000002026d .LASF3415
     /tmp/cc7R4ZW9.s:105490  .debug_str:000000000003def3 .LASF3416
     /tmp/cc7R4ZW9.s:91776  .debug_str:0000000000006040 .LASF3417
     /tmp/cc7R4ZW9.s:97248  .debug_str:000000000001c387 .LASF3418
     /tmp/cc7R4ZW9.s:97500  .debug_str:000000000001d550 .LASF3419
     /tmp/cc7R4ZW9.s:91622  .debug_str:0000000000005651 .LASF3420
     /tmp/cc7R4ZW9.s:96494  .debug_str:0000000000018f20 .LASF3421
     /tmp/cc7R4ZW9.s:102448  .debug_str:000000000003178f .LASF3422
     /tmp/cc7R4ZW9.s:105658  .debug_str:000000000003ea55 .LASF3423
     /tmp/cc7R4ZW9.s:97232  .debug_str:000000000001c263 .LASF3424
     /tmp/cc7R4ZW9.s:101864  .debug_str:000000000002f1bf .LASF3425
     /tmp/cc7R4ZW9.s:96302  .debug_str:00000000000183c4 .LASF3426
     /tmp/cc7R4ZW9.s:108148  .debug_str:00000000000492cf .LASF3427
     /tmp/cc7R4ZW9.s:108922  .debug_str:000000000004c6c7 .LASF3428
     /tmp/cc7R4ZW9.s:99976  .debug_str:0000000000027849 .LASF3429
     /tmp/cc7R4ZW9.s:100358  .debug_str:0000000000029304 .LASF3430
     /tmp/cc7R4ZW9.s:92786  .debug_str:000000000000a58d .LASF3431
     /tmp/cc7R4ZW9.s:108690  .debug_str:000000000004b76a .LASF3432
     /tmp/cc7R4ZW9.s:94984  .debug_str:0000000000012e5f .LASF3433
     /tmp/cc7R4ZW9.s:103998  .debug_str:000000000003807d .LASF3434
     /tmp/cc7R4ZW9.s:102664  .debug_str:0000000000032622 .LASF3435
     /tmp/cc7R4ZW9.s:98966  .debug_str:0000000000023acd .LASF3436
     /tmp/cc7R4ZW9.s:104662  .debug_str:000000000003a56d .LASF3437
     /tmp/cc7R4ZW9.s:94134  .debug_str:000000000000fa3a .LASF3438
     /tmp/cc7R4ZW9.s:94568  .debug_str:00000000000112f7 .LASF3439
     /tmp/cc7R4ZW9.s:92046  .debug_str:00000000000073a5 .LASF3440
     /tmp/cc7R4ZW9.s:94358  .debug_str:0000000000010663 .LASF3441
     /tmp/cc7R4ZW9.s:105014  .debug_str:000000000003bdd1 .LASF3442
     /tmp/cc7R4ZW9.s:101778  .debug_str:000000000002ec78 .LASF3443
     /tmp/cc7R4ZW9.s:90808  .debug_str:0000000000001fa7 .LASF3444
     /tmp/cc7R4ZW9.s:96520  .debug_str:00000000000190d5 .LASF3445
     /tmp/cc7R4ZW9.s:94944  .debug_str:0000000000012b71 .LASF3446
     /tmp/cc7R4ZW9.s:101892  .debug_str:000000000002f3e5 .LASF3447
     /tmp/cc7R4ZW9.s:92322  .debug_str:0000000000008583 .LASF3448
     /tmp/cc7R4ZW9.s:106822  .debug_str:0000000000043c12 .LASF3449
     /tmp/cc7R4ZW9.s:105812  .debug_str:000000000003f3f7 .LASF3450
     /tmp/cc7R4ZW9.s:107224  .debug_str:00000000000455ae .LASF3451
     /tmp/cc7R4ZW9.s:102898  .debug_str:00000000000335ee .LASF3452
     /tmp/cc7R4ZW9.s:98446  .debug_str:00000000000217c3 .LASF3453
     /tmp/cc7R4ZW9.s:98338  .debug_str:0000000000021059 .LASF3454
     /tmp/cc7R4ZW9.s:105902  .debug_str:000000000003f99e .LASF3455
     /tmp/cc7R4ZW9.s:91678  .debug_str:0000000000005a2e .LASF3456
     /tmp/cc7R4ZW9.s:106302  .debug_str:00000000000415b3 .LASF3457
     /tmp/cc7R4ZW9.s:107782  .debug_str:0000000000047a6c .LASF3458
     /tmp/cc7R4ZW9.s:97526  .debug_str:000000000001d71d .LASF3459
     /tmp/cc7R4ZW9.s:95874  .debug_str:000000000001666c .LASF3460
     /tmp/cc7R4ZW9.s:108142  .debug_str:0000000000049260 .LASF3461
     /tmp/cc7R4ZW9.s:106244  .debug_str:00000000000410cc .LASF3462
     /tmp/cc7R4ZW9.s:100626  .debug_str:000000000002a407 .LASF3463
     /tmp/cc7R4ZW9.s:104458  .debug_str:00000000000398c9 .LASF3464
     /tmp/cc7R4ZW9.s:91716  .debug_str:0000000000005c60 .LASF3465
     /tmp/cc7R4ZW9.s:91270  .debug_str:0000000000003df5 .LASF3466
     /tmp/cc7R4ZW9.s:97106  .debug_str:000000000001b969 .LASF3467
     /tmp/cc7R4ZW9.s:101800  .debug_str:000000000002edca .LASF3468
     /tmp/cc7R4ZW9.s:93482  .debug_str:000000000000d5a4 .LASF3469
     /tmp/cc7R4ZW9.s:92530  .debug_str:00000000000093e5 .LASF3470
     /tmp/cc7R4ZW9.s:92428  .debug_str:0000000000008c90 .LASF3471
     /tmp/cc7R4ZW9.s:106896  .debug_str:00000000000440a8 .LASF3472
     /tmp/cc7R4ZW9.s:103038  .debug_str:0000000000033f8f .LASF3473
     /tmp/cc7R4ZW9.s:100542  .debug_str:0000000000029e53 .LASF3474
     /tmp/cc7R4ZW9.s:97118  .debug_str:000000000001ba58 .LASF3475
     /tmp/cc7R4ZW9.s:94362  .debug_str:00000000000106af .LASF3476
     /tmp/cc7R4ZW9.s:105742  .debug_str:000000000003ef4a .LASF3477
     /tmp/cc7R4ZW9.s:98210  .debug_str:00000000000208ad .LASF3478
     /tmp/cc7R4ZW9.s:92454  .debug_str:0000000000008ed2 .LASF3479
     /tmp/cc7R4ZW9.s:97334  .debug_str:000000000001ca44 .LASF3480
     /tmp/cc7R4ZW9.s:97446  .debug_str:000000000001d1d1 .LASF3481
     /tmp/cc7R4ZW9.s:103884  .debug_str:00000000000378e1 .LASF3482
     /tmp/cc7R4ZW9.s:95776  .debug_str:0000000000016024 .LASF3483
     /tmp/cc7R4ZW9.s:106380  .debug_str:0000000000041adb .LASF3484
     /tmp/cc7R4ZW9.s:107422  .debug_str:000000000004630b .LASF3485
     /tmp/cc7R4ZW9.s:105082  .debug_str:000000000003c2df .LASF3486
     /tmp/cc7R4ZW9.s:108374  .debug_str:000000000004a16f .LASF3487
     /tmp/cc7R4ZW9.s:104742  .debug_str:000000000003ab20 .LASF3488
     /tmp/cc7R4ZW9.s:106324  .debug_str:0000000000041759 .LASF3489
     /tmp/cc7R4ZW9.s:94650  .debug_str:00000000000117ae .LASF3490
     /tmp/cc7R4ZW9.s:98678  .debug_str:000000000002272d .LASF3491
     /tmp/cc7R4ZW9.s:104244  .debug_str:0000000000038e7d .LASF3492
     /tmp/cc7R4ZW9.s:94854  .debug_str:000000000001255d .LASF3493
     /tmp/cc7R4ZW9.s:92446  .debug_str:0000000000008e26 .LASF3494
     /tmp/cc7R4ZW9.s:109508  .debug_str:000000000004efa0 .LASF3495
     /tmp/cc7R4ZW9.s:104380  .debug_str:00000000000394ec .LASF3496
     /tmp/cc7R4ZW9.s:104836  .debug_str:000000000003b1b9 .LASF3497
     /tmp/cc7R4ZW9.s:96584  .debug_str:00000000000195a6 .LASF3498
     /tmp/cc7R4ZW9.s:99786  .debug_str:0000000000026c82 .LASF3499
     /tmp/cc7R4ZW9.s:91596  .debug_str:0000000000005432 .LASF3500
     /tmp/cc7R4ZW9.s:104988  .debug_str:000000000003bbe4 .LASF3501
     /tmp/cc7R4ZW9.s:91396  .debug_str:00000000000046fd .LASF3502
     /tmp/cc7R4ZW9.s:107500  .debug_str:00000000000467fc .LASF3503
     /tmp/cc7R4ZW9.s:99738  .debug_str:0000000000026947 .LASF3504
     /tmp/cc7R4ZW9.s:100248  .debug_str:0000000000028af9 .LASF3505
     /tmp/cc7R4ZW9.s:105482  .debug_str:000000000003de33 .LASF3506
     /tmp/cc7R4ZW9.s:93288  .debug_str:000000000000c898 .LASF3507
     /tmp/cc7R4ZW9.s:93346  .debug_str:000000000000ccb5 .LASF3508
     /tmp/cc7R4ZW9.s:108268  .debug_str:0000000000049a4e .LASF3509
     /tmp/cc7R4ZW9.s:109304  .debug_str:000000000004e258 .LASF3510
     /tmp/cc7R4ZW9.s:95980  .debug_str:0000000000016e24 .LASF3511
     /tmp/cc7R4ZW9.s:95204  .debug_str:0000000000013cdd .LASF3512
     /tmp/cc7R4ZW9.s:95836  .debug_str:0000000000016442 .LASF3513
     /tmp/cc7R4ZW9.s:104006  .debug_str:0000000000038108 .LASF3514
     /tmp/cc7R4ZW9.s:107426  .debug_str:0000000000046385 .LASF3515
     /tmp/cc7R4ZW9.s:106014  .debug_str:000000000004007e .LASF3516
     /tmp/cc7R4ZW9.s:109096  .debug_str:000000000004d34f .LASF3517
     /tmp/cc7R4ZW9.s:96986  .debug_str:000000000001b198 .LASF3518
     /tmp/cc7R4ZW9.s:104738  .debug_str:000000000003aad0 .LASF3519
     /tmp/cc7R4ZW9.s:101810  .debug_str:000000000002ee74 .LASF3520
     /tmp/cc7R4ZW9.s:105308  .debug_str:000000000003d1ff .LASF3521
     /tmp/cc7R4ZW9.s:92794  .debug_str:000000000000a636 .LASF3522
     /tmp/cc7R4ZW9.s:96046  .debug_str:0000000000017257 .LASF3523
     /tmp/cc7R4ZW9.s:106466  .debug_str:000000000004235c .LASF3524
     /tmp/cc7R4ZW9.s:97956  .debug_str:000000000001f5dd .LASF3525
     /tmp/cc7R4ZW9.s:104938  .debug_str:000000000003b8ee .LASF3526
     /tmp/cc7R4ZW9.s:108320  .debug_str:0000000000049e0f .LASF3527
     /tmp/cc7R4ZW9.s:96044  .debug_str:000000000001721c .LASF3528
     /tmp/cc7R4ZW9.s:99248  .debug_str:0000000000024d8e .LASF3529
     /tmp/cc7R4ZW9.s:106674  .debug_str:00000000000431a4 .LASF3530
     /tmp/cc7R4ZW9.s:92022  .debug_str:00000000000071c3 .LASF3531
     /tmp/cc7R4ZW9.s:107218  .debug_str:0000000000045524 .LASF3532
     /tmp/cc7R4ZW9.s:98424  .debug_str:000000000002163d .LASF3533
     /tmp/cc7R4ZW9.s:97208  .debug_str:000000000001c0e6 .LASF3534
     /tmp/cc7R4ZW9.s:97542  .debug_str:000000000001d841 .LASF3535
     /tmp/cc7R4ZW9.s:90434  .debug_str:00000000000004ed .LASF3536
     /tmp/cc7R4ZW9.s:103322  .debug_str:0000000000035234 .LASF3537
     /tmp/cc7R4ZW9.s:101022  .debug_str:000000000002bc6c .LASF3538
     /tmp/cc7R4ZW9.s:101436  .debug_str:000000000002d5b1 .LASF3539
     /tmp/cc7R4ZW9.s:107380  .debug_str:000000000004603f .LASF3540
     /tmp/cc7R4ZW9.s:104934  .debug_str:000000000003b89b .LASF3541
     /tmp/cc7R4ZW9.s:103088  .debug_str:0000000000034295 .LASF3542
     /tmp/cc7R4ZW9.s:91536  .debug_str:0000000000005088 .LASF3543
     /tmp/cc7R4ZW9.s:109276  .debug_str:000000000004e03d .LASF3544
     /tmp/cc7R4ZW9.s:94820  .debug_str:0000000000012394 .LASF3545
     /tmp/cc7R4ZW9.s:102456  .debug_str:0000000000031855 .LASF3546
     /tmp/cc7R4ZW9.s:108278  .debug_str:0000000000049b1d .LASF3547
     /tmp/cc7R4ZW9.s:108686  .debug_str:000000000004b71b .LASF3548
     /tmp/cc7R4ZW9.s:95898  .debug_str:000000000001683e .LASF3549
     /tmp/cc7R4ZW9.s:101628  .debug_str:000000000002e217 .LASF3550
     /tmp/cc7R4ZW9.s:107650  .debug_str:00000000000471d5 .LASF3551
     /tmp/cc7R4ZW9.s:103464  .debug_str:0000000000035d0b .LASF3552
     /tmp/cc7R4ZW9.s:99978  .debug_str:0000000000027890 .LASF3553
     /tmp/cc7R4ZW9.s:100642  .debug_str:000000000002a53c .LASF3554
     /tmp/cc7R4ZW9.s:99064  .debug_str:0000000000024124 .LASF3555
     /tmp/cc7R4ZW9.s:91510  .debug_str:0000000000004f03 .LASF3556
     /tmp/cc7R4ZW9.s:108546  .debug_str:000000000004ad37 .LASF3557
     /tmp/cc7R4ZW9.s:104976  .debug_str:000000000003bad8 .LASF3558
     /tmp/cc7R4ZW9.s:97954  .debug_str:000000000001f599 .LASF3559
     /tmp/cc7R4ZW9.s:105508  .debug_str:000000000003e051 .LASF3560
     /tmp/cc7R4ZW9.s:108114  .debug_str:0000000000049097 .LASF3561
     /tmp/cc7R4ZW9.s:92096  .debug_str:0000000000007688 .LASF3562
     /tmp/cc7R4ZW9.s:108094  .debug_str:0000000000048f2f .LASF3563
     /tmp/cc7R4ZW9.s:103676  .debug_str:0000000000036b94 .LASF3564
     /tmp/cc7R4ZW9.s:96074  .debug_str:0000000000017451 .LASF3565
     /tmp/cc7R4ZW9.s:109600  .debug_str:000000000004f5a2 .LASF3566
     /tmp/cc7R4ZW9.s:100514  .debug_str:0000000000029c6a .LASF3567
     /tmp/cc7R4ZW9.s:91792  .debug_str:000000000000613e .LASF3568
     /tmp/cc7R4ZW9.s:107010  .debug_str:0000000000044804 .LASF3569
     /tmp/cc7R4ZW9.s:106734  .debug_str:00000000000435fe .LASF3570
     /tmp/cc7R4ZW9.s:92448  .debug_str:0000000000008e6a .LASF3571
     /tmp/cc7R4ZW9.s:95186  .debug_str:0000000000013bec .LASF3572
     /tmp/cc7R4ZW9.s:94110  .debug_str:000000000000f85d .LASF3573
     /tmp/cc7R4ZW9.s:92770  .debug_str:000000000000a436 .LASF3574
     /tmp/cc7R4ZW9.s:109624  .debug_str:000000000004f70e .LASF3575
     /tmp/cc7R4ZW9.s:96626  .debug_str:0000000000019873 .LASF3576
     /tmp/cc7R4ZW9.s:94044  .debug_str:000000000000f442 .LASF3577
     /tmp/cc7R4ZW9.s:90822  .debug_str:00000000000020a9 .LASF3578
     /tmp/cc7R4ZW9.s:100570  .debug_str:000000000002a02b .LASF3579
     /tmp/cc7R4ZW9.s:108960  .debug_str:000000000004c97c .LASF3580
     /tmp/cc7R4ZW9.s:103230  .debug_str:0000000000034c61 .LASF3581
     /tmp/cc7R4ZW9.s:95600  .debug_str:0000000000015580 .LASF3582
     /tmp/cc7R4ZW9.s:94848  .debug_str:00000000000124e5 .LASF3583
     /tmp/cc7R4ZW9.s:106494  .debug_str:0000000000042556 .LASF3584
     /tmp/cc7R4ZW9.s:109148  .debug_str:000000000004d61b .LASF3585
     /tmp/cc7R4ZW9.s:93112  .debug_str:000000000000bcf1 .LASF3586
     /tmp/cc7R4ZW9.s:101978  .debug_str:000000000002f9e1 .LASF3587
     /tmp/cc7R4ZW9.s:106676  .debug_str:00000000000431df .LASF3588
     /tmp/cc7R4ZW9.s:104760  .debug_str:000000000003ac39 .LASF3589
     /tmp/cc7R4ZW9.s:97616  .debug_str:000000000001de00 .LASF3590
     /tmp/cc7R4ZW9.s:99490  .debug_str:0000000000025ab7 .LASF3591
     /tmp/cc7R4ZW9.s:103132  .debug_str:0000000000034583 .LASF3592
     /tmp/cc7R4ZW9.s:94770  .debug_str:0000000000011fe9 .LASF3593
     /tmp/cc7R4ZW9.s:96746  .debug_str:000000000001a049 .LASF3594
     /tmp/cc7R4ZW9.s:103506  .debug_str:0000000000036044 .LASF3595
     /tmp/cc7R4ZW9.s:96674  .debug_str:0000000000019bc4 .LASF3596
     /tmp/cc7R4ZW9.s:91574  .debug_str:00000000000052d3 .LASF3597
     /tmp/cc7R4ZW9.s:90432  .debug_str:00000000000004a6 .LASF3598
     /tmp/cc7R4ZW9.s:106210  .debug_str:0000000000040e64 .LASF3599
     /tmp/cc7R4ZW9.s:91968  .debug_str:0000000000006d8f .LASF3600
     /tmp/cc7R4ZW9.s:90994  .debug_str:0000000000002c25 .LASF3601
     /tmp/cc7R4ZW9.s:96988  .debug_str:000000000001b1d6 .LASF3602
     /tmp/cc7R4ZW9.s:94708  .debug_str:0000000000011bc2 .LASF3603
     /tmp/cc7R4ZW9.s:95882  .debug_str:00000000000166f7 .LASF3604
     /tmp/cc7R4ZW9.s:97916  .debug_str:000000000001f29c .LASF3605
     /tmp/cc7R4ZW9.s:91166  .debug_str:00000000000036e4 .LASF3606
     /tmp/cc7R4ZW9.s:90384  .debug_str:0000000000000154 .LASF3607
     /tmp/cc7R4ZW9.s:98608  .debug_str:000000000002226c .LASF3608
     /tmp/cc7R4ZW9.s:90714  .debug_str:00000000000018c3 .LASF3609
     /tmp/cc7R4ZW9.s:99194  .debug_str:0000000000024a31 .LASF3610
     /tmp/cc7R4ZW9.s:105002  .debug_str:000000000003bd01 .LASF3611
     /tmp/cc7R4ZW9.s:90510  .debug_str:0000000000000a4d .LASF3612
     /tmp/cc7R4ZW9.s:90742  .debug_str:0000000000001aad .LASF3613
     /tmp/cc7R4ZW9.s:103370  .debug_str:00000000000355da .LASF3614
     /tmp/cc7R4ZW9.s:92086  .debug_str:00000000000075a7 .LASF3615
     /tmp/cc7R4ZW9.s:91926  .debug_str:0000000000006a82 .LASF3616
     /tmp/cc7R4ZW9.s:106840  .debug_str:0000000000043d34 .LASF3617
     /tmp/cc7R4ZW9.s:97762  .debug_str:000000000001e833 .LASF3618
     /tmp/cc7R4ZW9.s:102112  .debug_str:0000000000030228 .LASF3619
     /tmp/cc7R4ZW9.s:100118  .debug_str:0000000000028206 .LASF3620
     /tmp/cc7R4ZW9.s:97110  .debug_str:000000000001b9c1 .LASF3621
     /tmp/cc7R4ZW9.s:109570  .debug_str:000000000004f3fd .LASF3622
     /tmp/cc7R4ZW9.s:92330  .debug_str:000000000000863e .LASF3623
     /tmp/cc7R4ZW9.s:109548  .debug_str:000000000004f29b .LASF3624
     /tmp/cc7R4ZW9.s:108692  .debug_str:000000000004b7a6 .LASF3625
     /tmp/cc7R4ZW9.s:97660  .debug_str:000000000001e0e3 .LASF3626
     /tmp/cc7R4ZW9.s:93434  .debug_str:000000000000d2bf .LASF3627
     /tmp/cc7R4ZW9.s:101932  .debug_str:000000000002f6e0 .LASF3628
     /tmp/cc7R4ZW9.s:94882  .debug_str:0000000000012705 .LASF3629
     /tmp/cc7R4ZW9.s:105260  .debug_str:000000000003cee3 .LASF3630
     /tmp/cc7R4ZW9.s:109762  .debug_str:0000000000050083 .LASF3631
     /tmp/cc7R4ZW9.s:90720  .debug_str:0000000000001936 .LASF3632
     /tmp/cc7R4ZW9.s:109264  .debug_str:000000000004df30 .LASF3633
     /tmp/cc7R4ZW9.s:93852  .debug_str:000000000000ea9f .LASF3634
     /tmp/cc7R4ZW9.s:103996  .debug_str:0000000000038039 .LASF3635
     /tmp/cc7R4ZW9.s:109242  .debug_str:000000000004dd4c .LASF3636
     /tmp/cc7R4ZW9.s:93850  .debug_str:000000000000ea5c .LASF3637
     /tmp/cc7R4ZW9.s:104634  .debug_str:000000000003a3af .LASF3638
     /tmp/cc7R4ZW9.s:103568  .debug_str:0000000000036428 .LASF3639
     /tmp/cc7R4ZW9.s:105404  .debug_str:000000000003d85b .LASF3640
     /tmp/cc7R4ZW9.s:97732  .debug_str:000000000001e676 .LASF3641
     /tmp/cc7R4ZW9.s:95900  .debug_str:0000000000016885 .LASF3642
     /tmp/cc7R4ZW9.s:94310  .debug_str:0000000000010425 .LASF3643
     /tmp/cc7R4ZW9.s:106726  .debug_str:000000000004355e .LASF3644
     /tmp/cc7R4ZW9.s:91434  .debug_str:00000000000049e4 .LASF3645
     /tmp/cc7R4ZW9.s:97722  .debug_str:000000000001e574 .LASF3646
     /tmp/cc7R4ZW9.s:93766  .debug_str:000000000000e65c .LASF3647
     /tmp/cc7R4ZW9.s:107114  .debug_str:0000000000044f02 .LASF3648
     /tmp/cc7R4ZW9.s:104330  .debug_str:00000000000392d0 .LASF3649
     /tmp/cc7R4ZW9.s:102996  .debug_str:0000000000033cfe .LASF3650
     /tmp/cc7R4ZW9.s:95178  .debug_str:0000000000013b52 .LASF3651
     /tmp/cc7R4ZW9.s:109088  .debug_str:000000000004d2d9 .LASF3652
     /tmp/cc7R4ZW9.s:92516  .debug_str:000000000000930a .LASF3653
     /tmp/cc7R4ZW9.s:99072  .debug_str:00000000000241cc .LASF3654
     /tmp/cc7R4ZW9.s:107394  .debug_str:000000000004615b .LASF3655
     /tmp/cc7R4ZW9.s:92996  .debug_str:000000000000b495 .LASF3656
     /tmp/cc7R4ZW9.s:103872  .debug_str:0000000000037815 .LASF3657
     /tmp/cc7R4ZW9.s:93378  .debug_str:000000000000ced9 .LASF3658
     /tmp/cc7R4ZW9.s:106180  .debug_str:0000000000040b3f .LASF3659
     /tmp/cc7R4ZW9.s:104686  .debug_str:000000000003a71f .LASF3660
     /tmp/cc7R4ZW9.s:92372  .debug_str:0000000000008907 .LASF3661
     /tmp/cc7R4ZW9.s:91326  .debug_str:000000000000422d .LASF3662
     /tmp/cc7R4ZW9.s:106296  .debug_str:000000000004153d .LASF3663
     /tmp/cc7R4ZW9.s:100330  .debug_str:00000000000290c9 .LASF3664
     /tmp/cc7R4ZW9.s:95782  .debug_str:00000000000160b3 .LASF3665
     /tmp/cc7R4ZW9.s:95470  .debug_str:0000000000014d34 .LASF3666
     /tmp/cc7R4ZW9.s:98204  .debug_str:0000000000020803 .LASF3667
     /tmp/cc7R4ZW9.s:103212  .debug_str:0000000000034aa7 .LASF3668
     /tmp/cc7R4ZW9.s:98884  .debug_str:00000000000234d3 .LASF3669
     /tmp/cc7R4ZW9.s:92194  .debug_str:0000000000007d0c .LASF3670
     /tmp/cc7R4ZW9.s:96818  .debug_str:000000000001a5d7 .LASF3671
     /tmp/cc7R4ZW9.s:109380  .debug_str:000000000004e77a .LASF3672
     /tmp/cc7R4ZW9.s:106270  .debug_str:00000000000412db .LASF3673
     /tmp/cc7R4ZW9.s:94624  .debug_str:0000000000011607 .LASF3674
     /tmp/cc7R4ZW9.s:96502  .debug_str:0000000000018fbd .LASF3675
     /tmp/cc7R4ZW9.s:97908  .debug_str:000000000001f1d1 .LASF3676
     /tmp/cc7R4ZW9.s:97596  .debug_str:000000000001dc7d .LASF3677
     /tmp/cc7R4ZW9.s:100166  .debug_str:00000000000284cf .LASF3678
     /tmp/cc7R4ZW9.s:107086  .debug_str:0000000000044cf0 .LASF3679
     /tmp/cc7R4ZW9.s:107618  .debug_str:0000000000046f95 .LASF3680
     /tmp/cc7R4ZW9.s:97144  .debug_str:000000000001bc22 .LASF3681
     /tmp/cc7R4ZW9.s:102918  .debug_str:000000000003376b .LASF3682
     /tmp/cc7R4ZW9.s:106798  .debug_str:0000000000043a76 .LASF3683
     /tmp/cc7R4ZW9.s:108898  .debug_str:000000000004c543 .LASF3684
     /tmp/cc7R4ZW9.s:106568  .debug_str:0000000000042b42 .LASF3685
     /tmp/cc7R4ZW9.s:97922  .debug_str:000000000001f354 .LASF3686
     /tmp/cc7R4ZW9.s:96806  .debug_str:000000000001a4f4 .LASF3687
     /tmp/cc7R4ZW9.s:104086  .debug_str:00000000000385cf .LASF3688
     /tmp/cc7R4ZW9.s:95352  .debug_str:0000000000014633 .LASF3689
     /tmp/cc7R4ZW9.s:103050  .debug_str:000000000003405b .LASF3690
     /tmp/cc7R4ZW9.s:107888  .debug_str:0000000000048215 .LASF3691
     /tmp/cc7R4ZW9.s:108212  .debug_str:0000000000049719 .LASF3692
     /tmp/cc7R4ZW9.s:107226  .debug_str:00000000000455f3 .LASF3693
     /tmp/cc7R4ZW9.s:93106  .debug_str:000000000000bc1c .LASF3694
     /tmp/cc7R4ZW9.s:96196  .debug_str:0000000000017d7a .LASF3695
     /tmp/cc7R4ZW9.s:91318  .debug_str:0000000000004185 .LASF3696
     /tmp/cc7R4ZW9.s:99944  .debug_str:0000000000027633 .LASF3697
     /tmp/cc7R4ZW9.s:109660  .debug_str:000000000004f9f2 .LASF3698
     /tmp/cc7R4ZW9.s:104756  .debug_str:000000000003abd7 .LASF3699
     /tmp/cc7R4ZW9.s:95720  .debug_str:0000000000015d69 .LASF3700
     /tmp/cc7R4ZW9.s:100380  .debug_str:0000000000029498 .LASF3701
     /tmp/cc7R4ZW9.s:98922  .debug_str:00000000000237ed .LASF3702
     /tmp/cc7R4ZW9.s:91686  .debug_str:0000000000005aae .LASF3703
     /tmp/cc7R4ZW9.s:94298  .debug_str:0000000000010390 .LASF3704
     /tmp/cc7R4ZW9.s:99426  .debug_str:0000000000025764 .LASF3705
     /tmp/cc7R4ZW9.s:100284  .debug_str:0000000000028d6f .LASF3706
     /tmp/cc7R4ZW9.s:97484  .debug_str:000000000001d444 .LASF3707
     /tmp/cc7R4ZW9.s:97780  .debug_str:000000000001e985 .LASF3708
     /tmp/cc7R4ZW9.s:104170  .debug_str:0000000000038ac1 .LASF3709
     /tmp/cc7R4ZW9.s:107772  .debug_str:00000000000479de .LASF3710
     /tmp/cc7R4ZW9.s:93230  .debug_str:000000000000c48e .LASF3711
     /tmp/cc7R4ZW9.s:104856  .debug_str:000000000003b330 .LASF3712
     /tmp/cc7R4ZW9.s:98646  .debug_str:00000000000225d2 .LASF3713
     /tmp/cc7R4ZW9.s:91800  .debug_str:00000000000061bc .LASF3714
     /tmp/cc7R4ZW9.s:107880  .debug_str:0000000000048174 .LASF3715
     /tmp/cc7R4ZW9.s:94896  .debug_str:00000000000127e5 .LASF3716
     /tmp/cc7R4ZW9.s:107130  .debug_str:0000000000045021 .LASF3717
     /tmp/cc7R4ZW9.s:95906  .debug_str:000000000001691e .LASF3718
     /tmp/cc7R4ZW9.s:99810  .debug_str:0000000000026e62 .LASF3719
     /tmp/cc7R4ZW9.s:93528  .debug_str:000000000000d8c4 .LASF3720
     /tmp/cc7R4ZW9.s:99954  .debug_str:0000000000027702 .LASF3721
     /tmp/cc7R4ZW9.s:90626  .debug_str:0000000000001208 .LASF3722
     /tmp/cc7R4ZW9.s:103710  .debug_str:0000000000036e0e .LASF3723
     /tmp/cc7R4ZW9.s:93572  .debug_str:000000000000db8d .LASF3724
     /tmp/cc7R4ZW9.s:103324  .debug_str:000000000003527b .LASF3725
     /tmp/cc7R4ZW9.s:94908  .debug_str:00000000000128f4 .LASF3726
     /tmp/cc7R4ZW9.s:95392  .debug_str:00000000000148f2 .LASF3727
     /tmp/cc7R4ZW9.s:102878  .debug_str:0000000000033470 .LASF3728
     /tmp/cc7R4ZW9.s:102864  .debug_str:000000000003337b .LASF3729
     /tmp/cc7R4ZW9.s:103682  .debug_str:0000000000036c06 .LASF3730
     /tmp/cc7R4ZW9.s:92036  .debug_str:00000000000072e0 .LASF3731
     /tmp/cc7R4ZW9.s:92378  .debug_str:0000000000008979 .LASF3732
     /tmp/cc7R4ZW9.s:92308  .debug_str:0000000000008493 .LASF3733
     /tmp/cc7R4ZW9.s:95112  .debug_str:0000000000013768 .LASF3734
     /tmp/cc7R4ZW9.s:106816  .debug_str:0000000000043bc7 .LASF3735
     /tmp/cc7R4ZW9.s:103360  .debug_str:000000000003553d .LASF3736
     /tmp/cc7R4ZW9.s:109498  .debug_str:000000000004ef12 .LASF3737
     /tmp/cc7R4ZW9.s:98018  .debug_str:000000000001fa5a .LASF3738
     /tmp/cc7R4ZW9.s:97194  .debug_str:000000000001bfb7 .LASF3739
     /tmp/cc7R4ZW9.s:97648  .debug_str:000000000001e02e .LASF3740
     /tmp/cc7R4ZW9.s:102842  .debug_str:0000000000033201 .LASF3741
     /tmp/cc7R4ZW9.s:98786  .debug_str:0000000000022e6c .LASF3742
     /tmp/cc7R4ZW9.s:94818  .debug_str:0000000000012371 .LASF3743
     /tmp/cc7R4ZW9.s:92698  .debug_str:0000000000009fbc .LASF3744
     /tmp/cc7R4ZW9.s:100154  .debug_str:00000000000283ee .LASF3745
     /tmp/cc7R4ZW9.s:90672  .debug_str:00000000000014fa .LASF3746
     /tmp/cc7R4ZW9.s:90718  .debug_str:0000000000001915 .LASF3747
     /tmp/cc7R4ZW9.s:103290  .debug_str:0000000000035049 .LASF3748
     /tmp/cc7R4ZW9.s:107652  .debug_str:000000000004721c .LASF3749
     /tmp/cc7R4ZW9.s:101452  .debug_str:000000000002d6b0 .LASF3750
     /tmp/cc7R4ZW9.s:95192  .debug_str:0000000000013c4f .LASF3751
     /tmp/cc7R4ZW9.s:94704  .debug_str:0000000000011b8e .LASF3752
     /tmp/cc7R4ZW9.s:93986  .debug_str:000000000000f177 .LASF3753
     /tmp/cc7R4ZW9.s:103068  .debug_str:0000000000034163 .LASF3754
     /tmp/cc7R4ZW9.s:93532  .debug_str:000000000000d901 .LASF3755
     /tmp/cc7R4ZW9.s:91916  .debug_str:00000000000069b8 .LASF3756
     /tmp/cc7R4ZW9.s:101740  .debug_str:000000000002e982 .LASF3757
     /tmp/cc7R4ZW9.s:103076  .debug_str:00000000000341c6 .LASF3758
     /tmp/cc7R4ZW9.s:105506  .debug_str:000000000003e02d .LASF3759
     /tmp/cc7R4ZW9.s:98484  .debug_str:0000000000021a42 .LASF3760
     /tmp/cc7R4ZW9.s:102986  .debug_str:0000000000033c19 .LASF3762
     /tmp/cc7R4ZW9.s:106576  .debug_str:0000000000042bc9 .LASF3763
     /tmp/cc7R4ZW9.s:105984  .debug_str:000000000003fedd .LASF3764
     /tmp/cc7R4ZW9.s:102076  .debug_str:000000000003005b .LASF3765
     /tmp/cc7R4ZW9.s:101700  .debug_str:000000000002e6bf .LASF3766
     /tmp/cc7R4ZW9.s:101956  .debug_str:000000000002f865 .LASF3767
     /tmp/cc7R4ZW9.s:99706  .debug_str:0000000000026731 .LASF3768
     /tmp/cc7R4ZW9.s:105510  .debug_str:000000000003e08d .LASF3769
     /tmp/cc7R4ZW9.s:91452  .debug_str:0000000000004b44 .LASF3770
     /tmp/cc7R4ZW9.s:108694  .debug_str:000000000004b7e3 .LASF3771
     /tmp/cc7R4ZW9.s:99340  .debug_str:00000000000252d3 .LASF3772
     /tmp/cc7R4ZW9.s:97032  .debug_str:000000000001b488 .LASF3773
     /tmp/cc7R4ZW9.s:99084  .debug_str:00000000000242bf .LASF3774
     /tmp/cc7R4ZW9.s:109396  .debug_str:000000000004e8af .LASF3775
     /tmp/cc7R4ZW9.s:107980  .debug_str:00000000000487f0 .LASF3776
     /tmp/cc7R4ZW9.s:102312  .debug_str:0000000000030f99 .LASF3777
     /tmp/cc7R4ZW9.s:105062  .debug_str:000000000003c160 .LASF3778
     /tmp/cc7R4ZW9.s:108894  .debug_str:000000000004c50b .LASF3779
     /tmp/cc7R4ZW9.s:94888  .debug_str:0000000000012751 .LASF3780
     /tmp/cc7R4ZW9.s:104834  .debug_str:000000000003b194 .LASF3781
     /tmp/cc7R4ZW9.s:99726  .debug_str:000000000002685a .LASF3782
     /tmp/cc7R4ZW9.s:104762  .debug_str:000000000003ac74 .LASF3783
     /tmp/cc7R4ZW9.s:91082  .debug_str:000000000000321d .LASF3784
     /tmp/cc7R4ZW9.s:97628  .debug_str:000000000001ded9 .LASF3785
     /tmp/cc7R4ZW9.s:102632  .debug_str:0000000000032370 .LASF3786
     /tmp/cc7R4ZW9.s:95208  .debug_str:0000000000013d49 .LASF3787
     /tmp/cc7R4ZW9.s:91512  .debug_str:0000000000004f3f .LASF3788
     /tmp/cc7R4ZW9.s:102336  .debug_str:00000000000310b8 .LASF3789
     /tmp/cc7R4ZW9.s:95876  .debug_str:00000000000166b2 .LASF3790
     /tmp/cc7R4ZW9.s:94536  .debug_str:00000000000110c1 .LASF3791
     /tmp/cc7R4ZW9.s:103084  .debug_str:0000000000034257 .LASF3792
     /tmp/cc7R4ZW9.s:91746  .debug_str:0000000000005ea3 .LASF3793
     /tmp/cc7R4ZW9.s:107588  .debug_str:0000000000046d7a .LASF3794
     /tmp/cc7R4ZW9.s:108358  .debug_str:000000000004a0cc .LASF3795
     /tmp/cc7R4ZW9.s:95148  .debug_str:00000000000139c0 .LASF3796
     /tmp/cc7R4ZW9.s:105410  .debug_str:000000000003d8e6 .LASF3797
     /tmp/cc7R4ZW9.s:100540  .debug_str:0000000000029e3b .LASF3798
     /tmp/cc7R4ZW9.s:100710  .debug_str:000000000002a920 .LASF3799
     /tmp/cc7R4ZW9.s:109262  .debug_str:000000000004df23 .LASF3800
     /tmp/cc7R4ZW9.s:104804  .debug_str:000000000003af96 .LASF3801
     /tmp/cc7R4ZW9.s:94314  .debug_str:0000000000010475 .LASF3802
     /tmp/cc7R4ZW9.s:109252  .debug_str:000000000004de4c .LASF3803
     /tmp/cc7R4ZW9.s:106266  .debug_str:0000000000041260 .LASF3804
     /tmp/cc7R4ZW9.s:90758  .debug_str:0000000000001c02 .LASF3805
     /tmp/cc7R4ZW9.s:97978  .debug_str:000000000001f78f .LASF3806
     /tmp/cc7R4ZW9.s:93978  .debug_str:000000000000f101 .LASF3807
     /tmp/cc7R4ZW9.s:95450  .debug_str:0000000000014c27 .LASF3808
     /tmp/cc7R4ZW9.s:91266  .debug_str:0000000000003dc2 .LASF3809
     /tmp/cc7R4ZW9.s:107892  .debug_str:0000000000048266 .LASF3810
     /tmp/cc7R4ZW9.s:101776  .debug_str:000000000002ec55 .LASF3811
     /tmp/cc7R4ZW9.s:96846  .debug_str:000000000001a7b3 .LASF3812
     /tmp/cc7R4ZW9.s:108318  .debug_str:0000000000049dee .LASF3813
     /tmp/cc7R4ZW9.s:109292  .debug_str:000000000004e19d .LASF3814
     /tmp/cc7R4ZW9.s:100910  .debug_str:000000000002b60a .LASF3815
     /tmp/cc7R4ZW9.s:97270  .debug_str:000000000001c604 .LASF3816
     /tmp/cc7R4ZW9.s:97552  .debug_str:000000000001d8dc .LASF3817
     /tmp/cc7R4ZW9.s:108508  .debug_str:000000000004aa28 .LASF3818
     /tmp/cc7R4ZW9.s:109576  .debug_str:000000000004f46d .LASF3819
     /tmp/cc7R4ZW9.s:101210  .debug_str:000000000002c838 .LASF3820
     /tmp/cc7R4ZW9.s:102092  .debug_str:000000000003013e .LASF3821
     /tmp/cc7R4ZW9.s:102900  .debug_str:0000000000033632 .LASF3822
     /tmp/cc7R4ZW9.s:91454  .debug_str:0000000000004b79 .LASF3823
     /tmp/cc7R4ZW9.s:104410  .debug_str:00000000000396e1 .LASF3824
     /tmp/cc7R4ZW9.s:106164  .debug_str:00000000000409e4 .LASF3825
     /tmp/cc7R4ZW9.s:108944  .debug_str:000000000004c874 .LASF3826
     /tmp/cc7R4ZW9.s:102172  .debug_str:000000000003060b .LASF3827
     /tmp/cc7R4ZW9.s:109298  .debug_str:000000000004e1fd .LASF3828
     /tmp/cc7R4ZW9.s:107236  .debug_str:000000000004568e .LASF3829
     /tmp/cc7R4ZW9.s:106478  .debug_str:0000000000042440 .LASF3830
     /tmp/cc7R4ZW9.s:102458  .debug_str:0000000000031897 .LASF3831
     /tmp/cc7R4ZW9.s:93748  .debug_str:000000000000e554 .LASF3832
     /tmp/cc7R4ZW9.s:104676  .debug_str:000000000003a69c .LASF3833
     /tmp/cc7R4ZW9.s:100802  .debug_str:000000000002aebc .LASF3834
     /tmp/cc7R4ZW9.s:100768  .debug_str:000000000002ac96 .LASF3835
     /tmp/cc7R4ZW9.s:102436  .debug_str:00000000000316ab .LASF3836
     /tmp/cc7R4ZW9.s:92222  .debug_str:0000000000007e9e .LASF3837
     /tmp/cc7R4ZW9.s:98038  .debug_str:000000000001fb7f .LASF3838
     /tmp/cc7R4ZW9.s:91498  .debug_str:0000000000004e83 .LASF3839
     /tmp/cc7R4ZW9.s:104646  .debug_str:000000000003a469 .LASF3840
     /tmp/cc7R4ZW9.s:109378  .debug_str:000000000004e763 .LASF3841
     /tmp/cc7R4ZW9.s:104322  .debug_str:0000000000039272 .LASF3842
     /tmp/cc7R4ZW9.s:102356  .debug_str:00000000000311e7 .LASF3843
     /tmp/cc7R4ZW9.s:96516  .debug_str:0000000000019095 .LASF3844
     /tmp/cc7R4ZW9.s:98602  .debug_str:0000000000022222 .LASF3845
     /tmp/cc7R4ZW9.s:103780  .debug_str:000000000003725a .LASF3846
     /tmp/cc7R4ZW9.s:104574  .debug_str:0000000000039fb7 .LASF3847
     /tmp/cc7R4ZW9.s:91292  .debug_str:0000000000003fd7 .LASF3848
     /tmp/cc7R4ZW9.s:106792  .debug_str:0000000000043a05 .LASF3849
     /tmp/cc7R4ZW9.s:100510  .debug_str:0000000000029c26 .LASF3850
     /tmp/cc7R4ZW9.s:100346  .debug_str:00000000000291ff .LASF3851
     /tmp/cc7R4ZW9.s:107922  .debug_str:000000000004843a .LASF3852
     /tmp/cc7R4ZW9.s:109462  .debug_str:000000000004ed03 .LASF3853
     /tmp/cc7R4ZW9.s:93188  .debug_str:000000000000c23c .LASF3854
     /tmp/cc7R4ZW9.s:108360  .debug_str:000000000004a0de .LASF3855
     /tmp/cc7R4ZW9.s:101106  .debug_str:000000000002c24e .LASF3856
     /tmp/cc7R4ZW9.s:109166  .debug_str:000000000004d776 .LASF3857
     /tmp/cc7R4ZW9.s:102206  .debug_str:00000000000308c6 .LASF3858
     /tmp/cc7R4ZW9.s:109704  .debug_str:000000000004fcd8 .LASF3859
     /tmp/cc7R4ZW9.s:97274  .debug_str:000000000001c655 .LASF3860
     /tmp/cc7R4ZW9.s:105312  .debug_str:000000000003d270 .LASF3861
     /tmp/cc7R4ZW9.s:93628  .debug_str:000000000000de34 .LASF3862
     /tmp/cc7R4ZW9.s:95538  .debug_str:0000000000015170 .LASF3863
     /tmp/cc7R4ZW9.s:95346  .debug_str:00000000000145d1 .LASF3864
     /tmp/cc7R4ZW9.s:98402  .debug_str:00000000000214b1 .LASF3865
     /tmp/cc7R4ZW9.s:98674  .debug_str:00000000000226d2 .LASF3866
     /tmp/cc7R4ZW9.s:90442  .debug_str:00000000000005b4 .LASF3867
     /tmp/cc7R4ZW9.s:100490  .debug_str:0000000000029b17 .LASF3868
     /tmp/cc7R4ZW9.s:107510  .debug_str:00000000000468f9 .LASF3869
     /tmp/cc7R4ZW9.s:106984  .debug_str:0000000000044665 .LASF3870
     /tmp/cc7R4ZW9.s:107734  .debug_str:000000000004773e .LASF3871
     /tmp/cc7R4ZW9.s:105286  .debug_str:000000000003d0d1 .LASF3872
     /tmp/cc7R4ZW9.s:103638  .debug_str:00000000000368f6 .LASF3873
     /tmp/cc7R4ZW9.s:108364  .debug_str:000000000004a102 .LASF3874
     /tmp/cc7R4ZW9.s:103794  .debug_str:0000000000037378 .LASF3875
     /tmp/cc7R4ZW9.s:106456  .debug_str:00000000000422a8 .LASF3876
     /tmp/cc7R4ZW9.s:92556  .debug_str:00000000000095ed .LASF3877
     /tmp/cc7R4ZW9.s:91280  .debug_str:0000000000003ed5 .LASF3878
     /tmp/cc7R4ZW9.s:108078  .debug_str:0000000000048e30 .LASF3879
     /tmp/cc7R4ZW9.s:96098  .debug_str:0000000000017629 .LASF3880
     /tmp/cc7R4ZW9.s:107036  .debug_str:00000000000449f8 .LASF3881
     /tmp/cc7R4ZW9.s:104606  .debug_str:000000000003a16a .LASF3882
     /tmp/cc7R4ZW9.s:96078  .debug_str:00000000000174b3 .LASF3883
     /tmp/cc7R4ZW9.s:104382  .debug_str:0000000000039530 .LASF3884
     /tmp/cc7R4ZW9.s:97034  .debug_str:000000000001b4ab .LASF3885
     /tmp/cc7R4ZW9.s:92754  .debug_str:000000000000a385 .LASF3886
     /tmp/cc7R4ZW9.s:93574  .debug_str:000000000000dbac .LASF3887
     /tmp/cc7R4ZW9.s:106832  .debug_str:0000000000043cd1 .LASF3888
     /tmp/cc7R4ZW9.s:105576  .debug_str:000000000003e517 .LASF3889
     /tmp/cc7R4ZW9.s:91736  .debug_str:0000000000005db7 .LASF3890
     /tmp/cc7R4ZW9.s:102446  .debug_str:000000000003177c .LASF3891
     /tmp/cc7R4ZW9.s:109506  .debug_str:000000000004ef8d .LASF3892
     /tmp/cc7R4ZW9.s:100066  .debug_str:0000000000027e9e .LASF3893
     /tmp/cc7R4ZW9.s:102050  .debug_str:000000000002fe6a .LASF3894
     /tmp/cc7R4ZW9.s:101798  .debug_str:000000000002edb1 .LASF3895
     /tmp/cc7R4ZW9.s:99460  .debug_str:00000000000259cd .LASF3896
     /tmp/cc7R4ZW9.s:103504  .debug_str:000000000003602e .LASF3897
     /tmp/cc7R4ZW9.s:106464  .debug_str:0000000000042347 .LASF3898
     /tmp/cc7R4ZW9.s:94660  .debug_str:0000000000011899 .LASF3899
     /tmp/cc7R4ZW9.s:95460  .debug_str:0000000000014cae .LASF3900
     /tmp/cc7R4ZW9.s:105862  .debug_str:000000000003f6f5 .LASF3901
     /tmp/cc7R4ZW9.s:93448  .debug_str:000000000000d3cf .LASF3902
     /tmp/cc7R4ZW9.s:107936  .debug_str:000000000004852d .LASF3903
     /tmp/cc7R4ZW9.s:93724  .debug_str:000000000000e3dc .LASF3904
     /tmp/cc7R4ZW9.s:95282  .debug_str:00000000000141c6 .LASF3905
     /tmp/cc7R4ZW9.s:104758  .debug_str:000000000003ac22 .LASF3906
     /tmp/cc7R4ZW9.s:98890  .debug_str:0000000000023546 .LASF3907
     /tmp/cc7R4ZW9.s:106788  .debug_str:00000000000439ce .LASF3908
     /tmp/cc7R4ZW9.s:102778  .debug_str:0000000000032dff .LASF3909
     /tmp/cc7R4ZW9.s:99130  .debug_str:0000000000024606 .LASF3910
     /tmp/cc7R4ZW9.s:102024  .debug_str:000000000002fc94 .LASF3911
     /tmp/cc7R4ZW9.s:95394  .debug_str:0000000000014912 .LASF3912
     /tmp/cc7R4ZW9.s:98886  .debug_str:000000000002351d .LASF3913
     /tmp/cc7R4ZW9.s:107684  .debug_str:00000000000473ca .LASF3914
     /tmp/cc7R4ZW9.s:101712  .debug_str:000000000002e7ac .LASF3915
     /tmp/cc7R4ZW9.s:93726  .debug_str:000000000000e3f9 .LASF3916
     /tmp/cc7R4ZW9.s:109738  .debug_str:000000000004ff29 .LASF3917
     /tmp/cc7R4ZW9.s:96132  .debug_str:00000000000178cf .LASF3918
     /tmp/cc7R4ZW9.s:101968  .debug_str:000000000002f93a .LASF3919
     /tmp/cc7R4ZW9.s:94876  .debug_str:00000000000126c6 .LASF3920
     /tmp/cc7R4ZW9.s:94398  .debug_str:00000000000108e8 .LASF3921
     /tmp/cc7R4ZW9.s:92066  .debug_str:00000000000074da .LASF3922
     /tmp/cc7R4ZW9.s:102124  .debug_str:0000000000030303 .LASF3923
     /tmp/cc7R4ZW9.s:100990  .debug_str:000000000002bb30 .LASF3924
     /tmp/cc7R4ZW9.s:109464  .debug_str:000000000004ed1a .LASF3925
     /tmp/cc7R4ZW9.s:108956  .debug_str:000000000004c918 .LASF3926
     /tmp/cc7R4ZW9.s:107460  .debug_str:00000000000465ec .LASF3927
     /tmp/cc7R4ZW9.s:102438  .debug_str:00000000000316c2 .LASF3928
     /tmp/cc7R4ZW9.s:97634  .debug_str:000000000001df5e .LASF3929
     /tmp/cc7R4ZW9.s:94140  .debug_str:000000000000fabe .LASF3930
     /tmp/cc7R4ZW9.s:105172  .debug_str:000000000003c9a7 .LASF3931
     /tmp/cc7R4ZW9.s:98008  .debug_str:000000000001f9bf .LASF3932
     /tmp/cc7R4ZW9.s:99036  .debug_str:0000000000023f68 .LASF3933
     /tmp/cc7R4ZW9.s:97492  .debug_str:000000000001d505 .LASF3934
     /tmp/cc7R4ZW9.s:99120  .debug_str:0000000000024513 .LASF3935
     /tmp/cc7R4ZW9.s:91130  .debug_str:000000000000351a .LASF3936
     /tmp/cc7R4ZW9.s:105168  .debug_str:000000000003c97c .LASF3937
     /tmp/cc7R4ZW9.s:102680  .debug_str:0000000000032737 .LASF3938
     /tmp/cc7R4ZW9.s:108170  .debug_str:000000000004949a .LASF3939
     /tmp/cc7R4ZW9.s:104908  .debug_str:000000000003b75f .LASF3940
     /tmp/cc7R4ZW9.s:99590  .debug_str:0000000000025fb6 .LASF3941
     /tmp/cc7R4ZW9.s:101126  .debug_str:000000000002c34d .LASF3942
     /tmp/cc7R4ZW9.s:93316  .debug_str:000000000000ca90 .LASF3943
     /tmp/cc7R4ZW9.s:102868  .debug_str:00000000000333c9 .LASF3944
     /tmp/cc7R4ZW9.s:102334  .debug_str:00000000000310ab .LASF3945
     /tmp/cc7R4ZW9.s:101954  .debug_str:000000000002f856 .LASF3946
     /tmp/cc7R4ZW9.s:100526  .debug_str:0000000000029d48 .LASF3947
     /tmp/cc7R4ZW9.s:100146  .debug_str:0000000000028397 .LASF3948
     /tmp/cc7R4ZW9.s:94940  .debug_str:0000000000012b4b .LASF3949
     /tmp/cc7R4ZW9.s:99508  .debug_str:0000000000025bd5 .LASF3950
     /tmp/cc7R4ZW9.s:104582  .debug_str:000000000003a037 .LASF3951
     /tmp/cc7R4ZW9.s:93036  .debug_str:000000000000b704 .LASF3952
     /tmp/cc7R4ZW9.s:99336  .debug_str:00000000000252a8 .LASF3953
     /tmp/cc7R4ZW9.s:99858  .debug_str:000000000002716f .LASF3954
     /tmp/cc7R4ZW9.s:106868  .debug_str:0000000000043f13 .LASF3955
     /tmp/cc7R4ZW9.s:107524  .debug_str:00000000000469a4 .LASF3956
     /tmp/cc7R4ZW9.s:95448  .debug_str:0000000000014c1b .LASF3957
     /tmp/cc7R4ZW9.s:103160  .debug_str:00000000000346fa .LASF3958
     /tmp/cc7R4ZW9.s:108068  .debug_str:0000000000048d82 .LASF3959
     /tmp/cc7R4ZW9.s:96356  .debug_str:0000000000018754 .LASF3960
     /tmp/cc7R4ZW9.s:96964  .debug_str:000000000001b058 .LASF3961
     /tmp/cc7R4ZW9.s:96348  .debug_str:00000000000186e9 .LASF3962
     /tmp/cc7R4ZW9.s:99184  .debug_str:00000000000249a7 .LASF3963
     /tmp/cc7R4ZW9.s:97774  .debug_str:000000000001e906 .LASF3964
     /tmp/cc7R4ZW9.s:103668  .debug_str:0000000000036b31 .LASF3965
     /tmp/cc7R4ZW9.s:90544  .debug_str:0000000000000c73 .LASF3966
     /tmp/cc7R4ZW9.s:108044  .debug_str:0000000000048c0f .LASF3967
     /tmp/cc7R4ZW9.s:101802  .debug_str:000000000002ee0d .LASF3968
     /tmp/cc7R4ZW9.s:94356  .debug_str:0000000000010657 .LASF3969
     /tmp/cc7R4ZW9.s:91844  .debug_str:00000000000064d8 .LASF3970
     /tmp/cc7R4ZW9.s:107056  .debug_str:0000000000044b09 .LASF3971
     /tmp/cc7R4ZW9.s:96618  .debug_str:0000000000019817 .LASF3972
     /tmp/cc7R4ZW9.s:91650  .debug_str:000000000000583c .LASF3973
     /tmp/cc7R4ZW9.s:108140  .debug_str:0000000000049248 .LASF3974
     /tmp/cc7R4ZW9.s:95866  .debug_str:0000000000016603 .LASF3975
     /tmp/cc7R4ZW9.s:108822  .debug_str:000000000004c07a .LASF3976
     /tmp/cc7R4ZW9.s:98958  .debug_str:0000000000023a53 .LASF3977
     /tmp/cc7R4ZW9.s:108084  .debug_str:0000000000048e8e .LASF3978
     /tmp/cc7R4ZW9.s:106972  .debug_str:0000000000044585 .LASF3979
     /tmp/cc7R4ZW9.s:98788  .debug_str:0000000000022e91 .LASF3980
     /tmp/cc7R4ZW9.s:103258  .debug_str:0000000000034ea7 .LASF3981
     /tmp/cc7R4ZW9.s:93738  .debug_str:000000000000e48e .LASF3982
     /tmp/cc7R4ZW9.s:101052  .debug_str:000000000002be22 .LASF3983
     /tmp/cc7R4ZW9.s:93974  .debug_str:000000000000f07f .LASF3984
     /tmp/cc7R4ZW9.s:106282  .debug_str:0000000000041410 .LASF3985
     /tmp/cc7R4ZW9.s:103220  .debug_str:0000000000034b2b .LASF3986
     /tmp/cc7R4ZW9.s:100902  .debug_str:000000000002b4de .LASF3987
     /tmp/cc7R4ZW9.s:108410  .debug_str:000000000004a452 .LASF3988
     /tmp/cc7R4ZW9.s:93098  .debug_str:000000000000bbc4 .LASF3989
     /tmp/cc7R4ZW9.s:101820  .debug_str:000000000002ef38 .LASF3990
     /tmp/cc7R4ZW9.s:107774  .debug_str:00000000000479fc .LASF3991
     /tmp/cc7R4ZW9.s:103150  .debug_str:0000000000034679 .LASF3992
     /tmp/cc7R4ZW9.s:96468  .debug_str:0000000000018d24 .LASF3993
     /tmp/cc7R4ZW9.s:90578  .debug_str:0000000000000ec2 .LASF3994
     /tmp/cc7R4ZW9.s:108022  .debug_str:0000000000048ae1 .LASF3995
     /tmp/cc7R4ZW9.s:108572  .debug_str:000000000004af41 .LASF3996
     /tmp/cc7R4ZW9.s:94456  .debug_str:0000000000010bb7 .LASF3997
     /tmp/cc7R4ZW9.s:103490  .debug_str:0000000000035f29 .LASF3998
     /tmp/cc7R4ZW9.s:92500  .debug_str:00000000000091c9 .LASF3999
     /tmp/cc7R4ZW9.s:104594  .debug_str:000000000003a0cb .LASF4000
     /tmp/cc7R4ZW9.s:94804  .debug_str:0000000000012271 .LASF4001
     /tmp/cc7R4ZW9.s:94458  .debug_str:0000000000010bc7 .LASF4002
     /tmp/cc7R4ZW9.s:92408  .debug_str:0000000000008b96 .LASF4003
     /tmp/cc7R4ZW9.s:97276  .debug_str:000000000001c66c .LASF4004
     /tmp/cc7R4ZW9.s:98782  .debug_str:0000000000022e15 .LASF4005
     /tmp/cc7R4ZW9.s:97094  .debug_str:000000000001b895 .LASF4006
     /tmp/cc7R4ZW9.s:98850  .debug_str:0000000000023239 .LASF4007
     /tmp/cc7R4ZW9.s:103702  .debug_str:0000000000036d8b .LASF4008
     /tmp/cc7R4ZW9.s:93246  .debug_str:000000000000c59b .LASF4009
     /tmp/cc7R4ZW9.s:109532  .debug_str:000000000004f1d2 .LASF4010
     /tmp/cc7R4ZW9.s:102352  .debug_str:00000000000311b7 .LASF4011
     /tmp/cc7R4ZW9.s:99528  .debug_str:0000000000025d3f .LASF4012
     /tmp/cc7R4ZW9.s:106300  .debug_str:00000000000415a2 .LASF4013
     /tmp/cc7R4ZW9.s:91480  .debug_str:0000000000004d2c .LASF4014
     /tmp/cc7R4ZW9.s:99830  .debug_str:0000000000026fd2 .LASF4015
     /tmp/cc7R4ZW9.s:97992  .debug_str:000000000001f8d4 .LASF4016
     /tmp/cc7R4ZW9.s:95716  .debug_str:0000000000015d46 .LASF4017
     /tmp/cc7R4ZW9.s:108896  .debug_str:000000000004c530 .LASF4018
     /tmp/cc7R4ZW9.s:103200  .debug_str:00000000000349ec .LASF4019
     /tmp/cc7R4ZW9.s:102488  .debug_str:0000000000031a74 .LASF4020
     /tmp/cc7R4ZW9.s:95854  .debug_str:00000000000165a7 .LASF4021
     /tmp/cc7R4ZW9.s:92040  .debug_str:0000000000007343 .LASF4022
     /tmp/cc7R4ZW9.s:97296  .debug_str:000000000001c78a .LASF4023
     /tmp/cc7R4ZW9.s:96930  .debug_str:000000000001adfb .LASF4024
     /tmp/cc7R4ZW9.s:92158  .debug_str:0000000000007ac0 .LASF4025
     /tmp/cc7R4ZW9.s:96064  .debug_str:0000000000017372 .LASF4026
     /tmp/cc7R4ZW9.s:105584  .debug_str:000000000003e579 .LASF4027
     /tmp/cc7R4ZW9.s:98026  .debug_str:000000000001fae3 .LASF4028
     /tmp/cc7R4ZW9.s:98814  .debug_str:0000000000023032 .LASF4029
     /tmp/cc7R4ZW9.s:97344  .debug_str:000000000001cb46 .LASF4030
     /tmp/cc7R4ZW9.s:99602  .debug_str:00000000000260a8 .LASF4031
     /tmp/cc7R4ZW9.s:100924  .debug_str:000000000002b6d8 .LASF4032
     /tmp/cc7R4ZW9.s:105068  .debug_str:000000000003c1cf .LASF4033
     /tmp/cc7R4ZW9.s:107794  .debug_str:0000000000047b44 .LASF4034
     /tmp/cc7R4ZW9.s:99678  .debug_str:000000000002657b .LASF4035
     /tmp/cc7R4ZW9.s:101368  .debug_str:000000000002d1ca .LASF4036
     /tmp/cc7R4ZW9.s:107312  .debug_str:0000000000045c0f .LASF4037
     /tmp/cc7R4ZW9.s:99646  .debug_str:00000000000263a6 .LASF4038
     /tmp/cc7R4ZW9.s:109078  .debug_str:000000000004d25a .LASF4039
     /tmp/cc7R4ZW9.s:93348  .debug_str:000000000000ccf7 .LASF4040
     /tmp/cc7R4ZW9.s:98882  .debug_str:00000000000234bf .LASF4041
     /tmp/cc7R4ZW9.s:97450  .debug_str:000000000001d21c .LASF4042
     /tmp/cc7R4ZW9.s:105254  .debug_str:000000000003ceb8 .LASF4043
     /tmp/cc7R4ZW9.s:109350  .debug_str:000000000004e54f .LASF4044
     /tmp/cc7R4ZW9.s:97950  .debug_str:000000000001f56c .LASF4045
     /tmp/cc7R4ZW9.s:107504  .debug_str:0000000000046871 .LASF4046
     /tmp/cc7R4ZW9.s:104944  .debug_str:000000000003b96d .LASF4047
     /tmp/cc7R4ZW9.s:106486  .debug_str:00000000000424c2 .LASF4048
     /tmp/cc7R4ZW9.s:109428  .debug_str:000000000004ead9 .LASF4049
     /tmp/cc7R4ZW9.s:109536  .debug_str:000000000004f1ff .LASF4050
     /tmp/cc7R4ZW9.s:93398  .debug_str:000000000000cfe4 .LASF4051
     /tmp/cc7R4ZW9.s:107172  .debug_str:00000000000452c4 .LASF4052
     /tmp/cc7R4ZW9.s:106158  .debug_str:000000000004099b .LASF4053
     /tmp/cc7R4ZW9.s:90820  .debug_str:0000000000002096 .LASF4054
     /tmp/cc7R4ZW9.s:91846  .debug_str:00000000000064e4 .LASF4055
     /tmp/cc7R4ZW9.s:92930  .debug_str:000000000000af93 .LASF4056
     /tmp/cc7R4ZW9.s:102934  .debug_str:00000000000338b2 .LASF4057
     /tmp/cc7R4ZW9.s:95576  .debug_str:0000000000015418 .LASF4058
     /tmp/cc7R4ZW9.s:101140  .debug_str:000000000002c437 .LASF4059
     /tmp/cc7R4ZW9.s:108070  .debug_str:0000000000048d98 .LASF4060
     /tmp/cc7R4ZW9.s:107184  .debug_str:0000000000045373 .LASF4061
     /tmp/cc7R4ZW9.s:97938  .debug_str:000000000001f49e .LASF4062
     /tmp/cc7R4ZW9.s:97368  .debug_str:000000000001cccc .LASF4063
     /tmp/cc7R4ZW9.s:95996  .debug_str:0000000000016f3e .LASF4064
     /tmp/cc7R4ZW9.s:108226  .debug_str:000000000004983b .LASF4065
     /tmp/cc7R4ZW9.s:90888  .debug_str:0000000000002512 .LASF4066
     /tmp/cc7R4ZW9.s:103280  .debug_str:0000000000034f8b .LASF4067
     /tmp/cc7R4ZW9.s:107672  .debug_str:0000000000047365 .LASF4068
     /tmp/cc7R4ZW9.s:97448  .debug_str:000000000001d20d .LASF4069
     /tmp/cc7R4ZW9.s:106978  .debug_str:0000000000044612 .LASF4070
     /tmp/cc7R4ZW9.s:93480  .debug_str:000000000000d595 .LASF4071
     /tmp/cc7R4ZW9.s:102952  .debug_str:00000000000339bd .LASF4072
     /tmp/cc7R4ZW9.s:97678  .debug_str:000000000001e274 .LASF4073
     /tmp/cc7R4ZW9.s:97748  .debug_str:000000000001e78c .LASF4074
     /tmp/cc7R4ZW9.s:98672  .debug_str:00000000000226c3 .LASF4075
     /tmp/cc7R4ZW9.s:103708  .debug_str:0000000000036dfd .LASF4076
     /tmp/cc7R4ZW9.s:96450  .debug_str:0000000000018c89 .LASF4077
     /tmp/cc7R4ZW9.s:104328  .debug_str:00000000000392bf .LASF4078
     /tmp/cc7R4ZW9.s:98434  .debug_str:00000000000216ec .LASF4079
     /tmp/cc7R4ZW9.s:101234  .debug_str:000000000002c980 .LASF4080
     /tmp/cc7R4ZW9.s:90770  .debug_str:0000000000001d02 .LASF4081
     /tmp/cc7R4ZW9.s:102398  .debug_str:0000000000031494 .LASF4082
     /tmp/cc7R4ZW9.s:103242  .debug_str:0000000000034d9e .LASF4083
     /tmp/cc7R4ZW9.s:103004  .debug_str:0000000000033d5d .LASF4084
     /tmp/cc7R4ZW9.s:108800  .debug_str:000000000004beef .LASF4085
     /tmp/cc7R4ZW9.s:94532  .debug_str:0000000000011090 .LASF4086
     /tmp/cc7R4ZW9.s:93380  .debug_str:000000000000cf18 .LASF4087
     /tmp/cc7R4ZW9.s:93004  .debug_str:000000000000b545 .LASF4088
     /tmp/cc7R4ZW9.s:99722  .debug_str:000000000002682f .LASF4089
     /tmp/cc7R4ZW9.s:97066  .debug_str:000000000001b6fe .LASF4090
     /tmp/cc7R4ZW9.s:108600  .debug_str:000000000004b0c6 .LASF4091
     /tmp/cc7R4ZW9.s:94832  .debug_str:000000000001242f .LASF4092
     /tmp/cc7R4ZW9.s:90746  .debug_str:0000000000001b10 .LASF4093
     /tmp/cc7R4ZW9.s:91900  .debug_str:0000000000006878 .LASF4094
     /tmp/cc7R4ZW9.s:101734  .debug_str:000000000002e934 .LASF4095
     /tmp/cc7R4ZW9.s:91244  .debug_str:0000000000003c71 .LASF4096
     /tmp/cc7R4ZW9.s:107762  .debug_str:000000000004794d .LASF4097
     /tmp/cc7R4ZW9.s:91058  .debug_str:00000000000030f8 .LASF4098
     /tmp/cc7R4ZW9.s:98598  .debug_str:00000000000221df .LASF4099
     /tmp/cc7R4ZW9.s:109026  .debug_str:000000000004ce2f .LASF4100
     /tmp/cc7R4ZW9.s:100276  .debug_str:0000000000028cdf .LASF4101
     /tmp/cc7R4ZW9.s:100106  .debug_str:0000000000028127 .LASF4102
     /tmp/cc7R4ZW9.s:105156  .debug_str:000000000003c8a7 .LASF4103
     /tmp/cc7R4ZW9.s:96452  .debug_str:0000000000018c99 .LASF4104
     /tmp/cc7R4ZW9.s:92464  .debug_str:0000000000008f8e .LASF4105
     /tmp/cc7R4ZW9.s:96838  .debug_str:000000000001a726 .LASF4106
     /tmp/cc7R4ZW9.s:99342  .debug_str:00000000000252ed .LASF4107
     /tmp/cc7R4ZW9.s:97494  .debug_str:000000000001d517 .LASF4108
     /tmp/cc7R4ZW9.s:94990  .debug_str:0000000000012ee8 .LASF4109
     /tmp/cc7R4ZW9.s:99322  .debug_str:00000000000251e9 .LASF4110
     /tmp/cc7R4ZW9.s:100518  .debug_str:0000000000029cd7 .LASF4111
     /tmp/cc7R4ZW9.s:109064  .debug_str:000000000004d131 .LASF4112
     /tmp/cc7R4ZW9.s:95978  .debug_str:0000000000016e0f .LASF4113
     /tmp/cc7R4ZW9.s:97506  .debug_str:000000000001d5f8 .LASF4114
     /tmp/cc7R4ZW9.s:101976  .debug_str:000000000002f9cb .LASF4115
     /tmp/cc7R4ZW9.s:101358  .debug_str:000000000002d13a .LASF4116
     /tmp/cc7R4ZW9.s:104728  .debug_str:000000000003aa21 .LASF4117
     /tmp/cc7R4ZW9.s:93560  .debug_str:000000000000dab8 .LASF4118
     /tmp/cc7R4ZW9.s:102040  .debug_str:000000000002fdbc .LASF4119
     /tmp/cc7R4ZW9.s:97388  .debug_str:000000000001ce3e .LASF4120
     /tmp/cc7R4ZW9.s:100260  .debug_str:0000000000028bf1 .LASF4121
     /tmp/cc7R4ZW9.s:101654  .debug_str:000000000002e3e8 .LASF4122
     /tmp/cc7R4ZW9.s:105848  .debug_str:000000000003f63a .LASF4123
     /tmp/cc7R4ZW9.s:106602  .debug_str:0000000000042d6d .LASF4124
     /tmp/cc7R4ZW9.s:106000  .debug_str:000000000003ffc3 .LASF4125
     /tmp/cc7R4ZW9.s:100940  .debug_str:000000000002b7ec .LASF4126
     /tmp/cc7R4ZW9.s:104768  .debug_str:000000000003acf8 .LASF4127
     /tmp/cc7R4ZW9.s:91764  .debug_str:0000000000005f6a .LASF4128
     /tmp/cc7R4ZW9.s:99188  .debug_str:00000000000249cb .LASF4129
     /tmp/cc7R4ZW9.s:108680  .debug_str:000000000004b6ee .LASF4130
     /tmp/cc7R4ZW9.s:106490  .debug_str:0000000000042525 .LASF4131
     /tmp/cc7R4ZW9.s:95826  .debug_str:0000000000016372 .LASF4132
     /tmp/cc7R4ZW9.s:90502  .debug_str:00000000000009a4 .LASF4133
     /tmp/cc7R4ZW9.s:92998  .debug_str:000000000000b4d1 .LASF4134
     /tmp/cc7R4ZW9.s:98698  .debug_str:000000000002286c .LASF4135
     /tmp/cc7R4ZW9.s:107528  .debug_str:00000000000469bc .LASF4136
     /tmp/cc7R4ZW9.s:97068  .debug_str:000000000001b70e .LASF4137
     /tmp/cc7R4ZW9.s:92362  .debug_str:0000000000008877 .LASF4138
     /tmp/cc7R4ZW9.s:109798  .debug_str:00000000000502e4 .LASF4139
     /tmp/cc7R4ZW9.s:103608  .debug_str:0000000000036729 .LASF4140
     /tmp/cc7R4ZW9.s:98496  .debug_str:0000000000021b85 .LASF4141
     /tmp/cc7R4ZW9.s:98294  .debug_str:0000000000020dec .LASF4142
     /tmp/cc7R4ZW9.s:103954  .debug_str:0000000000037cfd .LASF4143
     /tmp/cc7R4ZW9.s:102536  .debug_str:0000000000031d06 .LASF4144
     /tmp/cc7R4ZW9.s:105390  .debug_str:000000000003d76c .LASF4145
     /tmp/cc7R4ZW9.s:99594  .debug_str:0000000000025ff5 .LASF4146
     /tmp/cc7R4ZW9.s:97792  .debug_str:000000000001eaa4 .LASF4147
     /tmp/cc7R4ZW9.s:101936  .debug_str:000000000002f76f .LASF4148
     /tmp/cc7R4ZW9.s:101868  .debug_str:000000000002f22d .LASF4149
     /tmp/cc7R4ZW9.s:107866  .debug_str:0000000000048043 .LASF4150
     /tmp/cc7R4ZW9.s:90962  .debug_str:0000000000002a64 .LASF4151
     /tmp/cc7R4ZW9.s:99502  .debug_str:0000000000025b78 .LASF4152
     /tmp/cc7R4ZW9.s:105962  .debug_str:000000000003fd84 .LASF4153
     /tmp/cc7R4ZW9.s:102260  .debug_str:0000000000030c54 .LASF4154
     /tmp/cc7R4ZW9.s:101838  .debug_str:000000000002f00b .LASF4155
     /tmp/cc7R4ZW9.s:91842  .debug_str:00000000000064bd .LASF4156
     /tmp/cc7R4ZW9.s:109160  .debug_str:000000000004d6ce .LASF4157
     /tmp/cc7R4ZW9.s:99302  .debug_str:0000000000025098 .LASF4158
     /tmp/cc7R4ZW9.s:93178  .debug_str:000000000000c187 .LASF4159
     /tmp/cc7R4ZW9.s:92836  .debug_str:000000000000a933 .LASF4160
     /tmp/cc7R4ZW9.s:96648  .debug_str:0000000000019a05 .LASF4161
     /tmp/cc7R4ZW9.s:102396  .debug_str:000000000003147e .LASF4162
     /tmp/cc7R4ZW9.s:95056  .debug_str:00000000000133f4 .LASF4163
     /tmp/cc7R4ZW9.s:92280  .debug_str:0000000000008278 .LASF4164
     /tmp/cc7R4ZW9.s:95002  .debug_str:0000000000012f7d .LASF4165
     /tmp/cc7R4ZW9.s:109308  .debug_str:000000000004e2b7 .LASF4166
     /tmp/cc7R4ZW9.s:101562  .debug_str:000000000002ddc8 .LASF4167
     /tmp/cc7R4ZW9.s:106842  .debug_str:0000000000043d70 .LASF4168
     /tmp/cc7R4ZW9.s:104572  .debug_str:0000000000039fa2 .LASF4169
     /tmp/cc7R4ZW9.s:96598  .debug_str:00000000000196e5 .LASF4170
     /tmp/cc7R4ZW9.s:102706  .debug_str:000000000003290f .LASF4171
     /tmp/cc7R4ZW9.s:92130  .debug_str:0000000000007920 .LASF4172
     /tmp/cc7R4ZW9.s:106858  .debug_str:0000000000043e6f .LASF4173
     /tmp/cc7R4ZW9.s:91882  .debug_str:0000000000006765 .LASF4174
     /tmp/cc7R4ZW9.s:96054  .debug_str:00000000000172f6 .LASF4175
     /tmp/cc7R4ZW9.s:96722  .debug_str:0000000000019f42 .LASF4176
     /tmp/cc7R4ZW9.s:101454  .debug_str:000000000002d6d5 .LASF4177
     /tmp/cc7R4ZW9.s:96278  .debug_str:00000000000181e4 .LASF4178
     /tmp/cc7R4ZW9.s:100120  .debug_str:000000000002824a .LASF4179
     /tmp/cc7R4ZW9.s:92296  .debug_str:00000000000083b2 .LASF4180
     /tmp/cc7R4ZW9.s:93860  .debug_str:000000000000eb64 .LASF4181
     /tmp/cc7R4ZW9.s:96426  .debug_str:0000000000018b1a .LASF4182
     /tmp/cc7R4ZW9.s:101408  .debug_str:000000000002d457 .LASF4183
     /tmp/cc7R4ZW9.s:99672  .debug_str:0000000000026553 .LASF4184
     /tmp/cc7R4ZW9.s:96932  .debug_str:000000000001ae11 .LASF4185
     /tmp/cc7R4ZW9.s:91870  .debug_str:00000000000066c3 .LASF4186
     /tmp/cc7R4ZW9.s:108780  .debug_str:000000000004bd93 .LASF4187
     /tmp/cc7R4ZW9.s:94366  .debug_str:000000000001071b .LASF4188
     /tmp/cc7R4ZW9.s:96620  .debug_str:0000000000019828 .LASF4189
     /tmp/cc7R4ZW9.s:100774  .debug_str:000000000002ace5 .LASF4190
     /tmp/cc7R4ZW9.s:97088  .debug_str:000000000001b833 .LASF4191
     /tmp/cc7R4ZW9.s:95462  .debug_str:0000000000014cd0 .LASF4192
     /tmp/cc7R4ZW9.s:103040  .debug_str:0000000000033fcb .LASF4193
     /tmp/cc7R4ZW9.s:92210  .debug_str:0000000000007e02 .LASF4194
     /tmp/cc7R4ZW9.s:101858  .debug_str:000000000002f13f .LASF4195
     /tmp/cc7R4ZW9.s:100836  .debug_str:000000000002b181 .LASF4196
     /tmp/cc7R4ZW9.s:91780  .debug_str:00000000000060aa .LASF4197
     /tmp/cc7R4ZW9.s:95740  .debug_str:0000000000015e9e .LASF4198
     /tmp/cc7R4ZW9.s:106400  .debug_str:0000000000041c33 .LASF4199
     /tmp/cc7R4ZW9.s:108586  .debug_str:000000000004b013 .LASF4200
     /tmp/cc7R4ZW9.s:104916  .debug_str:000000000003b7d6 .LASF4201
     /tmp/cc7R4ZW9.s:100492  .debug_str:0000000000029b2c .LASF4202
     /tmp/cc7R4ZW9.s:102180  .debug_str:00000000000306b8 .LASF4203
     /tmp/cc7R4ZW9.s:106024  .debug_str:0000000000040132 .LASF4204
     /tmp/cc7R4ZW9.s:109418  .debug_str:000000000004ea51 .LASF4205
     /tmp/cc7R4ZW9.s:93732  .debug_str:000000000000e45d .LASF4206
     /tmp/cc7R4ZW9.s:95542  .debug_str:00000000000151de .LASF4207
     /tmp/cc7R4ZW9.s:101366  .debug_str:000000000002d1b2 .LASF4208
     /tmp/cc7R4ZW9.s:99038  .debug_str:0000000000023f7a .LASF4209
     /tmp/cc7R4ZW9.s:99424  .debug_str:000000000002574c .LASF4210
     /tmp/cc7R4ZW9.s:99076  .debug_str:0000000000024237 .LASF4211
     /tmp/cc7R4ZW9.s:100170  .debug_str:0000000000028523 .LASF4212
     /tmp/cc7R4ZW9.s:105026  .debug_str:000000000003bec9 .LASF4213
     /tmp/cc7R4ZW9.s:92962  .debug_str:000000000000b1eb .LASF4214
     /tmp/cc7R4ZW9.s:108724  .debug_str:000000000004ba23 .LASF4215
     /tmp/cc7R4ZW9.s:103432  .debug_str:0000000000035a92 .LASF4216
     /tmp/cc7R4ZW9.s:109792  .debug_str:0000000000050287 .LASF4217
     /tmp/cc7R4ZW9.s:98200  .debug_str:00000000000207af .LASF4218
     /tmp/cc7R4ZW9.s:104770  .debug_str:000000000003ad11 .LASF4219
     /tmp/cc7R4ZW9.s:100124  .debug_str:0000000000028277 .LASF4220
     /tmp/cc7R4ZW9.s:92348  .debug_str:000000000000875c .LASF4221
     /tmp/cc7R4ZW9.s:107286  .debug_str:0000000000045a57 .LASF4222
     /tmp/cc7R4ZW9.s:95458  .debug_str:0000000000014c96 .LASF4223
     /tmp/cc7R4ZW9.s:108548  .debug_str:000000000004ad7b .LASF4224
     /tmp/cc7R4ZW9.s:108112  .debug_str:000000000004907e .LASF4225
     /tmp/cc7R4ZW9.s:98464  .debug_str:000000000002191a .LASF4226
     /tmp/cc7R4ZW9.s:91096  .debug_str:000000000000332f .LASF4227
     /tmp/cc7R4ZW9.s:103538  .debug_str:0000000000036216 .LASF4228
     /tmp/cc7R4ZW9.s:90454  .debug_str:000000000000068b .LASF4229
     /tmp/cc7R4ZW9.s:109664  .debug_str:000000000004fa4b .LASF4230
     /tmp/cc7R4ZW9.s:90804  .debug_str:0000000000001f77 .LASF4231
     /tmp/cc7R4ZW9.s:101668  .debug_str:000000000002e488 .LASF4232
     /tmp/cc7R4ZW9.s:109756  .debug_str:0000000000050011 .LASF4233
     /tmp/cc7R4ZW9.s:108874  .debug_str:000000000004c3ba .LASF4234
     /tmp/cc7R4ZW9.s:92936  .debug_str:000000000000afcb .LASF4235
     /tmp/cc7R4ZW9.s:107780  .debug_str:0000000000047a53 .LASF4236
     /tmp/cc7R4ZW9.s:97584  .debug_str:000000000001db8b .LASF4237
     /tmp/cc7R4ZW9.s:109168  .debug_str:000000000004d78c .LASF4238
     /tmp/cc7R4ZW9.s:100772  .debug_str:000000000002acce .LASF4239
     /tmp/cc7R4ZW9.s:100028  .debug_str:0000000000027c1a .LASF4240
     /tmp/cc7R4ZW9.s:92862  .debug_str:000000000000aa8f .LASF4241
     /tmp/cc7R4ZW9.s:90934  .debug_str:000000000000288b .LASF4242
     /tmp/cc7R4ZW9.s:107284  .debug_str:0000000000045a40 .LASF4243
     /tmp/cc7R4ZW9.s:93174  .debug_str:000000000000c15f .LASF4244
     /tmp/cc7R4ZW9.s:96380  .debug_str:00000000000188e4 .LASF4245
     /tmp/cc7R4ZW9.s:99452  .debug_str:0000000000025964 .LASF4246
     /tmp/cc7R4ZW9.s:97900  .debug_str:000000000001f132 .LASF4247
     /tmp/cc7R4ZW9.s:91444  .debug_str:0000000000004ad4 .LASF4248
     /tmp/cc7R4ZW9.s:91238  .debug_str:0000000000003c0b .LASF4249
     /tmp/cc7R4ZW9.s:96486  .debug_str:0000000000018e91 .LASF4250
     /tmp/cc7R4ZW9.s:93456  .debug_str:000000000000d460 .LASF4251
     /tmp/cc7R4ZW9.s:100734  .debug_str:000000000002aa3f .LASF4252
     /tmp/cc7R4ZW9.s:97432  .debug_str:000000000001d121 .LASF4253
     /tmp/cc7R4ZW9.s:106492  .debug_str:000000000004253e .LASF4254
     /tmp/cc7R4ZW9.s:101036  .debug_str:000000000002bd3d .LASF4255
     /tmp/cc7R4ZW9.s:91594  .debug_str:0000000000005418 .LASF4256
     /tmp/cc7R4ZW9.s:104452  .debug_str:0000000000039866 .LASF4257
     /tmp/cc7R4ZW9.s:105304  .debug_str:000000000003d1da .LASF4258
     /tmp/cc7R4ZW9.s:94054  .debug_str:000000000000f5a5 .LASF4259
     /tmp/cc7R4ZW9.s:98312  .debug_str:0000000000020f07 .LASF4260
     /tmp/cc7R4ZW9.s:91182  .debug_str:000000000000383f .LASF4261
     /tmp/cc7R4ZW9.s:104618  .debug_str:000000000003a23e .LASF4262
     /tmp/cc7R4ZW9.s:104946  .debug_str:000000000003b980 .LASF4263
     /tmp/cc7R4ZW9.s:105816  .debug_str:000000000003f44d .LASF4264
     /tmp/cc7R4ZW9.s:103080  .debug_str:0000000000034223 .LASF4265
     /tmp/cc7R4ZW9.s:107660  .debug_str:00000000000472c7 .LASF4266
     /tmp/cc7R4ZW9.s:101154  .debug_str:000000000002c4d8 .LASF4267
     /tmp/cc7R4ZW9.s:97998  .debug_str:000000000001f923 .LASF4268
     /tmp/cc7R4ZW9.s:94780  .debug_str:00000000000120a3 .LASF4269
     /tmp/cc7R4ZW9.s:94062  .debug_str:000000000000f657 .LASF4270
     /tmp/cc7R4ZW9.s:97322  .debug_str:000000000001c95d .LASF4271
     /tmp/cc7R4ZW9.s:92610  .debug_str:00000000000099e1 .LASF4272
     /tmp/cc7R4ZW9.s:104402  .debug_str:0000000000039654 .LASF4273
     /tmp/cc7R4ZW9.s:101784  .debug_str:000000000002ece3 .LASF4274
     /tmp/cc7R4ZW9.s:93408  .debug_str:000000000000d0b9 .LASF4275
     /tmp/cc7R4ZW9.s:105554  .debug_str:000000000003e37b .LASF4276
     /tmp/cc7R4ZW9.s:100342  .debug_str:00000000000291c0 .LASF4277
     /tmp/cc7R4ZW9.s:99012  .debug_str:0000000000023dc4 .LASF4278
     /tmp/cc7R4ZW9.s:109662  .debug_str:000000000004fa35 .LASF4279
     /tmp/cc7R4ZW9.s:99746  .debug_str:0000000000026a0d .LASF4280
     /tmp/cc7R4ZW9.s:92858  .debug_str:000000000000aa51 .LASF4281
     /tmp/cc7R4ZW9.s:103670  .debug_str:0000000000036b3d .LASF4282
     /tmp/cc7R4ZW9.s:109284  .debug_str:000000000004e0f7 .LASF4283
     /tmp/cc7R4ZW9.s:104550  .debug_str:0000000000039e7c .LASF4284
     /tmp/cc7R4ZW9.s:94936  .debug_str:0000000000012af0 .LASF4285
     /tmp/cc7R4ZW9.s:105756  .debug_str:000000000003f038 .LASF4286
     /tmp/cc7R4ZW9.s:90654  .debug_str:00000000000013db .LASF4287
     /tmp/cc7R4ZW9.s:103394  .debug_str:00000000000357ca .LASF4288
     /tmp/cc7R4ZW9.s:91874  .debug_str:00000000000066e3 .LASF4289
     /tmp/cc7R4ZW9.s:95278  .debug_str:0000000000014197 .LASF4290
     /tmp/cc7R4ZW9.s:93968  .debug_str:000000000000f041 .LASF4291
     /tmp/cc7R4ZW9.s:96750  .debug_str:000000000001a0af .LASF4292
     /tmp/cc7R4ZW9.s:92506  .debug_str:0000000000009202 .LASF4293
     /tmp/cc7R4ZW9.s:94966  .debug_str:0000000000012d10 .LASF4294
     /tmp/cc7R4ZW9.s:109362  .debug_str:000000000004e623 .LASF4295
     /tmp/cc7R4ZW9.s:97746  .debug_str:000000000001e772 .LASF4296
     /tmp/cc7R4ZW9.s:106582  .debug_str:0000000000042c28 .LASF4297
     /tmp/cc7R4ZW9.s:99252  .debug_str:0000000000024dea .LASF4298
     /tmp/cc7R4ZW9.s:98368  .debug_str:0000000000021294 .LASF4299
     /tmp/cc7R4ZW9.s:107234  .debug_str:0000000000045674 .LASF4300
     /tmp/cc7R4ZW9.s:105158  .debug_str:000000000003c8bb .LASF4301
     /tmp/cc7R4ZW9.s:91142  .debug_str:00000000000035a2 .LASF4302
     /tmp/cc7R4ZW9.s:99886  .debug_str:00000000000272f5 .LASF4303
     /tmp/cc7R4ZW9.s:108910  .debug_str:000000000004c5ef .LASF4304
     /tmp/cc7R4ZW9.s:105322  .debug_str:000000000003d2ed .LASF4305
     /tmp/cc7R4ZW9.s:94834  .debug_str:0000000000012444 .LASF4306
     /tmp/cc7R4ZW9.s:107138  .debug_str:00000000000450ab .LASF4307
     /tmp/cc7R4ZW9.s:98070  .debug_str:000000000001fda1 .LASF4308
     /tmp/cc7R4ZW9.s:109208  .debug_str:000000000004da9d .LASF4309
     /tmp/cc7R4ZW9.s:104082  .debug_str:0000000000038578 .LASF4310
     /tmp/cc7R4ZW9.s:106612  .debug_str:0000000000042df8 .LASF4311
     /tmp/cc7R4ZW9.s:94640  .debug_str:00000000000116de .LASF4312
     /tmp/cc7R4ZW9.s:100796  .debug_str:000000000002ae40 .LASF4313
     /tmp/cc7R4ZW9.s:108480  .debug_str:000000000004a81d .LASF4314
     /tmp/cc7R4ZW9.s:101612  .debug_str:000000000002e10d .LASF4315
     /tmp/cc7R4ZW9.s:93956  .debug_str:000000000000ef6a .LASF4316
     /tmp/cc7R4ZW9.s:92414  .debug_str:0000000000008bd7 .LASF4317
     /tmp/cc7R4ZW9.s:94408  .debug_str:000000000001098c .LASF4318
     /tmp/cc7R4ZW9.s:107556  .debug_str:0000000000046bc1 .LASF4319
     /tmp/cc7R4ZW9.s:94614  .debug_str:000000000001155e .LASF4320
     /tmp/cc7R4ZW9.s:90806  .debug_str:0000000000001f8e .LASF4321
     /tmp/cc7R4ZW9.s:94280  .debug_str:0000000000010235 .LASF4322
     /tmp/cc7R4ZW9.s:109752  .debug_str:000000000004ffec .LASF4323
     /tmp/cc7R4ZW9.s:103116  .debug_str:000000000003445c .LASF4324
     /tmp/cc7R4ZW9.s:109368  .debug_str:000000000004e69d .LASF4325
     /tmp/cc7R4ZW9.s:90632  .debug_str:000000000000125a .LASF4326
     /tmp/cc7R4ZW9.s:106770  .debug_str:0000000000043860 .LASF4327
     /tmp/cc7R4ZW9.s:108024  .debug_str:0000000000048af1 .LASF4328
     /tmp/cc7R4ZW9.s:96186  .debug_str:0000000000017ceb .LASF4329
     /tmp/cc7R4ZW9.s:98690  .debug_str:00000000000227f9 .LASF4330
     /tmp/cc7R4ZW9.s:96852  .debug_str:000000000001a80c .LASF4331
     /tmp/cc7R4ZW9.s:96176  .debug_str:0000000000017be7 .LASF4332
     /tmp/cc7R4ZW9.s:105292  .debug_str:000000000003d11c .LASF4333
     /tmp/cc7R4ZW9.s:105262  .debug_str:000000000003cf25 .LASF4334
     /tmp/cc7R4ZW9.s:96216  .debug_str:0000000000017eea .LASF4335
     /tmp/cc7R4ZW9.s:104608  .debug_str:000000000003a17c .LASF4336
     /tmp/cc7R4ZW9.s:94400  .debug_str:00000000000108fa .LASF4337
     /tmp/cc7R4ZW9.s:101588  .debug_str:000000000002df76 .LASF4338
     /tmp/cc7R4ZW9.s:102556  .debug_str:0000000000031e49 .LASF4339
     /tmp/cc7R4ZW9.s:109776  .debug_str:00000000000501b1 .LASF4340
     /tmp/cc7R4ZW9.s:105414  .debug_str:000000000003d924 .LASF4341
     /tmp/cc7R4ZW9.s:90644  .debug_str:000000000000132d .LASF4342
     /tmp/cc7R4ZW9.s:94616  .debug_str:0000000000011578 .LASF4343
     /tmp/cc7R4ZW9.s:101688  .debug_str:000000000002e60b .LASF4344
     /tmp/cc7R4ZW9.s:97504  .debug_str:000000000001d5df .LASF4345
     /tmp/cc7R4ZW9.s:100140  .debug_str:0000000000028347 .LASF4346
     /tmp/cc7R4ZW9.s:100448  .debug_str:000000000002980a .LASF4347
     /tmp/cc7R4ZW9.s:109126  .debug_str:000000000004d506 .LASF4348
     /tmp/cc7R4ZW9.s:103488  .debug_str:0000000000035f11 .LASF4349
     /tmp/cc7R4ZW9.s:109358  .debug_str:000000000004e609 .LASF4350
     /tmp/cc7R4ZW9.s:100674  .debug_str:000000000002a74c .LASF4351
     /tmp/cc7R4ZW9.s:108474  .debug_str:000000000004a7c6 .LASF4352
     /tmp/cc7R4ZW9.s:92624  .debug_str:0000000000009b1d .LASF4353
     /tmp/cc7R4ZW9.s:100426  .debug_str:00000000000296b7 .LASF4354
     /tmp/cc7R4ZW9.s:103202  .debug_str:00000000000349fe .LASF4355
     /tmp/cc7R4ZW9.s:105338  .debug_str:000000000003d3e1 .LASF4356
     /tmp/cc7R4ZW9.s:98574  .debug_str:00000000000220d0 .LASF4357
     /tmp/cc7R4ZW9.s:91758  .debug_str:0000000000005f12 .LASF4358
     /tmp/cc7R4ZW9.s:97514  .debug_str:000000000001d670 .LASF4359
     /tmp/cc7R4ZW9.s:98594  .debug_str:00000000000221b7 .LASF4360
     /tmp/cc7R4ZW9.s:108576  .debug_str:000000000004af6b .LASF4361
     /tmp/cc7R4ZW9.s:103366  .debug_str:00000000000355b1 .LASF4362
     /tmp/cc7R4ZW9.s:109432  .debug_str:000000000004eb0b .LASF4363
     /tmp/cc7R4ZW9.s:106706  .debug_str:000000000004342a .LASF4364
     /tmp/cc7R4ZW9.s:105578  .debug_str:000000000003e52f .LASF4365
     /tmp/cc7R4ZW9.s:90870  .debug_str:000000000000243a .LASF4366
     /tmp/cc7R4ZW9.s:107518  .debug_str:000000000004694a .LASF4367
     /tmp/cc7R4ZW9.s:97522  .debug_str:000000000001d6d1 .LASF4368
     /tmp/cc7R4ZW9.s:96204  .debug_str:0000000000017e17 .LASF4369
     /tmp/cc7R4ZW9.s:91960  .debug_str:0000000000006d21 .LASF4370
     /tmp/cc7R4ZW9.s:103422  .debug_str:0000000000035a04 .LASF4371
     /tmp/cc7R4ZW9.s:107606  .debug_str:0000000000046ebf .LASF4372
     /tmp/cc7R4ZW9.s:105098  .debug_str:000000000003c42c .LASF4373
     /tmp/cc7R4ZW9.s:99932  .debug_str:000000000002756a .LASF4374
     /tmp/cc7R4ZW9.s:104556  .debug_str:0000000000039edf .LASF4375
     /tmp/cc7R4ZW9.s:102060  .debug_str:000000000002ff53 .LASF4376
     /tmp/cc7R4ZW9.s:103752  .debug_str:000000000003706f .LASF4377
     /tmp/cc7R4ZW9.s:108096  .debug_str:0000000000048f73 .LASF4378
     /tmp/cc7R4ZW9.s:98596  .debug_str:00000000000221c8 .LASF4379
     /tmp/cc7R4ZW9.s:107846  .debug_str:0000000000047f3d .LASF4380
     /tmp/cc7R4ZW9.s:90404  .debug_str:00000000000002f3 .LASF4381
     /tmp/cc7R4ZW9.s:93082  .debug_str:000000000000ba42 .LASF4382
     /tmp/cc7R4ZW9.s:105642  .debug_str:000000000003e96b .LASF4383
     /tmp/cc7R4ZW9.s:98644  .debug_str:00000000000225b9 .LASF4384
     /tmp/cc7R4ZW9.s:108504  .debug_str:000000000004a9fe .LASF4385
     /tmp/cc7R4ZW9.s:95440  .debug_str:0000000000014bce .LASF4386
     /tmp/cc7R4ZW9.s:99770  .debug_str:0000000000026bbe .LASF4387
     /tmp/cc7R4ZW9.s:104532  .debug_str:0000000000039d33 .LASF4388
     /tmp/cc7R4ZW9.s:91108  .debug_str:0000000000003410 .LASF4389
     /tmp/cc7R4ZW9.s:105734  .debug_str:000000000003ee90 .LASF4390
     /tmp/cc7R4ZW9.s:94868  .debug_str:000000000001266f .LASF4391
     /tmp/cc7R4ZW9.s:96352  .debug_str:0000000000018723 .LASF4392
     /tmp/cc7R4ZW9.s:103994  .debug_str:0000000000038026 .LASF4393
     /tmp/cc7R4ZW9.s:93394  .debug_str:000000000000cfbf .LASF4394
     /tmp/cc7R4ZW9.s:101236  .debug_str:000000000002c991 .LASF4395
     /tmp/cc7R4ZW9.s:101456  .debug_str:000000000002d6ea .LASF4396
     /tmp/cc7R4ZW9.s:106936  .debug_str:0000000000044338 .LASF4397
     /tmp/cc7R4ZW9.s:100142  .debug_str:0000000000028362 .LASF4398
     /tmp/cc7R4ZW9.s:96732  .debug_str:0000000000019fa0 .LASF4399
     /tmp/cc7R4ZW9.s:91126  .debug_str:00000000000034ed .LASF4400
     /tmp/cc7R4ZW9.s:99958  .debug_str:000000000002772c .LASF4401
     /tmp/cc7R4ZW9.s:91012  .debug_str:0000000000002d53 .LASF4402
     /tmp/cc7R4ZW9.s:101950  .debug_str:000000000002f837 .LASF4403
     /tmp/cc7R4ZW9.s:94352  .debug_str:0000000000010614 .LASF4404
     /tmp/cc7R4ZW9.s:94836  .debug_str:000000000001245e .LASF4405
     /tmp/cc7R4ZW9.s:95370  .debug_str:00000000000147a0 .LASF4406
     /tmp/cc7R4ZW9.s:103900  .debug_str:0000000000037a44 .LASF4407
     /tmp/cc7R4ZW9.s:99622  .debug_str:0000000000026242 .LASF4408
     /tmp/cc7R4ZW9.s:109056  .debug_str:000000000004d0af .LASF4409
     /tmp/cc7R4ZW9.s:100552  .debug_str:0000000000029f19 .LASF4410
     /tmp/cc7R4ZW9.s:108786  .debug_str:000000000004be20 .LASF4411
     /tmp/cc7R4ZW9.s:100308  .debug_str:0000000000028f39 .LASF4412
     /tmp/cc7R4ZW9.s:94926  .debug_str:0000000000012a54 .LASF4413
     /tmp/cc7R4ZW9.s:107472  .debug_str:00000000000466d4 .LASF4414
     /tmp/cc7R4ZW9.s:104936  .debug_str:000000000003b8dc .LASF4415
     /tmp/cc7R4ZW9.s:108334  .debug_str:0000000000049f70 .LASF4416
     /tmp/cc7R4ZW9.s:103566  .debug_str:0000000000036417 .LASF4417
     /tmp/cc7R4ZW9.s:104578  .debug_str:000000000003a016 .LASF4418
     /tmp/cc7R4ZW9.s:93182  .debug_str:000000000000c1bd .LASF4419
     /tmp/cc7R4ZW9.s:106076  .debug_str:0000000000040465 .LASF4420
     /tmp/cc7R4ZW9.s:103728  .debug_str:0000000000036f0a .LASF4421
     /tmp/cc7R4ZW9.s:97884  .debug_str:000000000001f020 .LASF4422
     /tmp/cc7R4ZW9.s:109084  .debug_str:000000000004d2a3 .LASF4423
     /tmp/cc7R4ZW9.s:103684  .debug_str:0000000000036c25 .LASF4424
     /tmp/cc7R4ZW9.s:95750  .debug_str:0000000000015eee .LASF4425
     /tmp/cc7R4ZW9.s:94102  .debug_str:000000000000f7e2 .LASF4426
     /tmp/cc7R4ZW9.s:101396  .debug_str:000000000002d360 .LASF4427
     /tmp/cc7R4ZW9.s:108234  .debug_str:00000000000498a1 .LASF4428
     /tmp/cc7R4ZW9.s:94036  .debug_str:000000000000f401 .LASF4429
     /tmp/cc7R4ZW9.s:100618  .debug_str:000000000002a37b .LASF4430
     /tmp/cc7R4ZW9.s:105400  .debug_str:000000000003d80d .LASF4431
     /tmp/cc7R4ZW9.s:90688  .debug_str:0000000000001616 .LASF4432
     /tmp/cc7R4ZW9.s:91298  .debug_str:000000000000402d .LASF4433
     /tmp/cc7R4ZW9.s:91572  .debug_str:00000000000052c0 .LASF4434
     /tmp/cc7R4ZW9.s:107706  .debug_str:0000000000047536 .LASF4435
     /tmp/cc7R4ZW9.s:93244  .debug_str:000000000000c588 .LASF4436
     /tmp/cc7R4ZW9.s:106228  .debug_str:0000000000040fd5 .LASF4437
     /tmp/cc7R4ZW9.s:94204  .debug_str:000000000000fec8 .LASF4438
     /tmp/cc7R4ZW9.s:102416  .debug_str:0000000000031545 .LASF4439
     /tmp/cc7R4ZW9.s:108996  .debug_str:000000000004cc15 .LASF4440
     /tmp/cc7R4ZW9.s:105298  .debug_str:000000000003d186 .LASF4441
     /tmp/cc7R4ZW9.s:94674  .debug_str:000000000001197a .LASF4442
     /tmp/cc7R4ZW9.s:107206  .debug_str:0000000000045485 .LASF4443
     /tmp/cc7R4ZW9.s:105356  .debug_str:000000000003d4e0 .LASF4444
     /tmp/cc7R4ZW9.s:104398  .debug_str:0000000000039636 .LASF4445
     /tmp/cc7R4ZW9.s:98682  .debug_str:000000000002279c .LASF4446
     /tmp/cc7R4ZW9.s:101834  .debug_str:000000000002efef .LASF4447
     /tmp/cc7R4ZW9.s:94292  .debug_str:0000000000010339 .LASF4448
     /tmp/cc7R4ZW9.s:98028  .debug_str:000000000001faf5 .LASF4449
     /tmp/cc7R4ZW9.s:93392  .debug_str:000000000000cfab .LASF4450
     /tmp/cc7R4ZW9.s:93264  .debug_str:000000000000c6c2 .LASF4451
     /tmp/cc7R4ZW9.s:93900  .debug_str:000000000000ed4a .LASF4452
     /tmp/cc7R4ZW9.s:103414  .debug_str:00000000000359ab .LASF4453
     /tmp/cc7R4ZW9.s:95598  .debug_str:000000000001556b .LASF4454
     /tmp/cc7R4ZW9.s:92788  .debug_str:000000000000a5d4 .LASF4455
     /tmp/cc7R4ZW9.s:108412  .debug_str:000000000004a46a .LASF4456
     /tmp/cc7R4ZW9.s:99500  .debug_str:0000000000025b65 .LASF4457
     /tmp/cc7R4ZW9.s:102830  .debug_str:000000000003312e .LASF4458
     /tmp/cc7R4ZW9.s:92568  .debug_str:00000000000096be .LASF4459
     /tmp/cc7R4ZW9.s:102152  .debug_str:0000000000030491 .LASF4460
     /tmp/cc7R4ZW9.s:101692  .debug_str:000000000002e632 .LASF4461
     /tmp/cc7R4ZW9.s:95924  .debug_str:0000000000016a26 .LASF4462
     /tmp/cc7R4ZW9.s:108466  .debug_str:000000000004a736 .LASF4463
     /tmp/cc7R4ZW9.s:106378  .debug_str:0000000000041ac6 .LASF4464
     /tmp/cc7R4ZW9.s:100862  .debug_str:000000000002b2ca .LASF4465
     /tmp/cc7R4ZW9.s:109556  .debug_str:000000000004f334 .LASF4466
     /tmp/cc7R4ZW9.s:108042  .debug_str:0000000000048bfc .LASF4467
     /tmp/cc7R4ZW9.s:99918  .debug_str:0000000000027467 .LASF4468
     /tmp/cc7R4ZW9.s:99306  .debug_str:00000000000250c9 .LASF4469
     /tmp/cc7R4ZW9.s:96938  .debug_str:000000000001ae92 .LASF4470
     /tmp/cc7R4ZW9.s:97786  .debug_str:000000000001ea15 .LASF4471
     /tmp/cc7R4ZW9.s:97240  .debug_str:000000000001c31a .LASF4472
     /tmp/cc7R4ZW9.s:103136  .debug_str:00000000000345ee .LASF4473
     /tmp/cc7R4ZW9.s:101738  .debug_str:000000000002e965 .LASF4474
     /tmp/cc7R4ZW9.s:102168  .debug_str:00000000000305c7 .LASF4475
     /tmp/cc7R4ZW9.s:103164  .debug_str:0000000000034749 .LASF4476
     /tmp/cc7R4ZW9.s:105588  .debug_str:000000000003e5ba .LASF4477
     /tmp/cc7R4ZW9.s:93180  .debug_str:000000000000c1a1 .LASF4478
     /tmp/cc7R4ZW9.s:96874  .debug_str:000000000001a9cd .LASF4479
     /tmp/cc7R4ZW9.s:91030  .debug_str:0000000000002ea8 .LASF4480
     /tmp/cc7R4ZW9.s:92482  .debug_str:00000000000090dd .LASF4481
     /tmp/cc7R4ZW9.s:90606  .debug_str:00000000000010cd .LASF4482
     /tmp/cc7R4ZW9.s:96222  .debug_str:0000000000017f24 .LASF4483
     /tmp/cc7R4ZW9.s:108656  .debug_str:000000000004b534 .LASF4484
     /tmp/cc7R4ZW9.s:102316  .debug_str:0000000000030fc8 .LASF4485
     /tmp/cc7R4ZW9.s:93806  .debug_str:000000000000e832 .LASF4486
     /tmp/cc7R4ZW9.s:97588  .debug_str:000000000001dbc8 .LASF4487
     /tmp/cc7R4ZW9.s:99860  .debug_str:000000000002717c .LASF4488
     /tmp/cc7R4ZW9.s:98304  .debug_str:0000000000020ea8 .LASF4489
     /tmp/cc7R4ZW9.s:99724  .debug_str:000000000002683e .LASF4490
     /tmp/cc7R4ZW9.s:93226  .debug_str:000000000000c463 .LASF4491
     /tmp/cc7R4ZW9.s:96958  .debug_str:000000000001affd .LASF4492
     /tmp/cc7R4ZW9.s:106246  .debug_str:0000000000041112 .LASF4493
     /tmp/cc7R4ZW9.s:97558  .debug_str:000000000001d986 .LASF4494
     /tmp/cc7R4ZW9.s:97122  .debug_str:000000000001baa4 .LASF4495
     /tmp/cc7R4ZW9.s:100946  .debug_str:000000000002b852 .LASF4496
     /tmp/cc7R4ZW9.s:94432  .debug_str:0000000000010a53 .LASF4497
     /tmp/cc7R4ZW9.s:105046  .debug_str:000000000003c006 .LASF4498
     /tmp/cc7R4ZW9.s:96230  .debug_str:0000000000017f7a .LASF4499
     /tmp/cc7R4ZW9.s:92646  .debug_str:0000000000009cdf .LASF4500
     /tmp/cc7R4ZW9.s:94384  .debug_str:0000000000010826 .LASF4501
     /tmp/cc7R4ZW9.s:107930  .debug_str:00000000000484c2 .LASF4502
     /tmp/cc7R4ZW9.s:93120  .debug_str:000000000000bda7 .LASF4503
     /tmp/cc7R4ZW9.s:98454  .debug_str:000000000002186b .LASF4504
     /tmp/cc7R4ZW9.s:97734  .debug_str:000000000001e6bc .LASF4505
     /tmp/cc7R4ZW9.s:95644  .debug_str:000000000001587b .LASF4506
     /tmp/cc7R4ZW9.s:107768  .debug_str:00000000000479b1 .LASF4507
     /tmp/cc7R4ZW9.s:95000  .debug_str:0000000000012f64 .LASF4508
     /tmp/cc7R4ZW9.s:97736  .debug_str:000000000001e6db .LASF4509
     /tmp/cc7R4ZW9.s:93678  .debug_str:000000000000e10b .LASF4510
     /tmp/cc7R4ZW9.s:99648  .debug_str:00000000000263b8 .LASF4511
     /tmp/cc7R4ZW9.s:105078  .debug_str:000000000003c289 .LASF4512
     /tmp/cc7R4ZW9.s:102968  .debug_str:0000000000033ad4 .LASF4513
     /tmp/cc7R4ZW9.s:107252  .debug_str:00000000000457b2 .LASF4514
     /tmp/cc7R4ZW9.s:109502  .debug_str:000000000004ef56 .LASF4515
     /tmp/cc7R4ZW9.s:102354  .debug_str:00000000000311c7 .LASF4516
     /tmp/cc7R4ZW9.s:101342  .debug_str:000000000002d04e .LASF4517
     /tmp/cc7R4ZW9.s:91124  .debug_str:00000000000034de .LASF4518
     /tmp/cc7R4ZW9.s:104066  .debug_str:0000000000038443 .LASF4519
     /tmp/cc7R4ZW9.s:98566  .debug_str:0000000000022084 .LASF4520
     /tmp/cc7R4ZW9.s:102708  .debug_str:0000000000032924 .LASF4521
     /tmp/cc7R4ZW9.s:104232  .debug_str:0000000000038df2 .LASF4522
     /tmp/cc7R4ZW9.s:100644  .debug_str:000000000002a578 .LASF4523
     /tmp/cc7R4ZW9.s:92550  .debug_str:0000000000009586 .LASF4524
     /tmp/cc7R4ZW9.s:101160  .debug_str:000000000002c527 .LASF4525
     /tmp/cc7R4ZW9.s:109654  .debug_str:000000000004f97d .LASF4526
     /tmp/cc7R4ZW9.s:91240  .debug_str:0000000000003c24 .LASF4527
     /tmp/cc7R4ZW9.s:96366  .debug_str:00000000000187f9 .LASF4528
     /tmp/cc7R4ZW9.s:101564  .debug_str:000000000002dddf .LASF4529
     /tmp/cc7R4ZW9.s:105174  .debug_str:000000000003c9c6 .LASF4530
     /tmp/cc7R4ZW9.s:103428  .debug_str:0000000000035a51 .LASF4531
     /tmp/cc7R4ZW9.s:96024  .debug_str:00000000000170eb .LASF4532
     /tmp/cc7R4ZW9.s:97576  .debug_str:000000000001dae2 .LASF4533
     /tmp/cc7R4ZW9.s:97482  .debug_str:000000000001d42d .LASF4534
     /tmp/cc7R4ZW9.s:91750  .debug_str:0000000000005ec5 .LASF4535
     /tmp/cc7R4ZW9.s:91432  .debug_str:00000000000049cd .LASF4536
     /tmp/cc7R4ZW9.s:105488  .debug_str:000000000003dedc .LASF4537
     /tmp/cc7R4ZW9.s:108640  .debug_str:000000000004b3fe .LASF4538
     /tmp/cc7R4ZW9.s:101754  .debug_str:000000000002ea8b .LASF4539
     /tmp/cc7R4ZW9.s:106390  .debug_str:0000000000041bcb .LASF4540
     /tmp/cc7R4ZW9.s:98142  .debug_str:0000000000020334 .LASF4541
     /tmp/cc7R4ZW9.s:106724  .debug_str:0000000000043547 .LASF4542
     /tmp/cc7R4ZW9.s:96234  .debug_str:0000000000017fc8 .LASF4543
     /tmp/cc7R4ZW9.s:93060  .debug_str:000000000000b8fa .LASF4544
     /tmp/cc7R4ZW9.s:109714  .debug_str:000000000004fd7f .LASF4545
     /tmp/cc7R4ZW9.s:91230  .debug_str:0000000000003b77 .LASF4546
     /tmp/cc7R4ZW9.s:91316  .debug_str:000000000000416e .LASF4547
     /tmp/cc7R4ZW9.s:103632  .debug_str:00000000000368b7 .LASF4548
     /tmp/cc7R4ZW9.s:98306  .debug_str:0000000000020ebf .LASF4549
     /tmp/cc7R4ZW9.s:97672  .debug_str:000000000001e1fa .LASF4550
     /tmp/cc7R4ZW9.s:108834  .debug_str:000000000004c14a .LASF4551
     /tmp/cc7R4ZW9.s:96970  .debug_str:000000000001b094 .LASF4552
     /tmp/cc7R4ZW9.s:109342  .debug_str:000000000004e4ac .LASF4553
     /tmp/cc7R4ZW9.s:102770  .debug_str:0000000000032db4 .LASF4554
     /tmp/cc7R4ZW9.s:93954  .debug_str:000000000000ef5a .LASF4555
     /tmp/cc7R4ZW9.s:95296  .debug_str:0000000000014298 .LASF4556
     /tmp/cc7R4ZW9.s:101930  .debug_str:000000000002f6cd .LASF4557
     /tmp/cc7R4ZW9.s:105804  .debug_str:000000000003f34b .LASF4558
     /tmp/cc7R4ZW9.s:91052  .debug_str:0000000000003065 .LASF4559
     /tmp/cc7R4ZW9.s:91638  .debug_str:0000000000005705 .LASF4560
     /tmp/cc7R4ZW9.s:102464  .debug_str:00000000000318f9 .LASF4561
     /tmp/cc7R4ZW9.s:95218  .debug_str:0000000000013e0f .LASF4562
     /tmp/cc7R4ZW9.s:90678  .debug_str:0000000000001554 .LASF4563
     /tmp/cc7R4ZW9.s:92342  .debug_str:0000000000008734 .LASF4564
     /tmp/cc7R4ZW9.s:106546  .debug_str:0000000000042974 .LASF4565
     /tmp/cc7R4ZW9.s:108592  .debug_str:000000000004b046 .LASF4566
     /tmp/cc7R4ZW9.s:98000  .debug_str:000000000001f93a .LASF4567
     /tmp/cc7R4ZW9.s:90674  .debug_str:000000000000151d .LASF4568
     /tmp/cc7R4ZW9.s:98230  .debug_str:0000000000020a41 .LASF4569
     /tmp/cc7R4ZW9.s:92566  .debug_str:00000000000096ab .LASF4570
     /tmp/cc7R4ZW9.s:102800  .debug_str:0000000000032f89 .LASF4571
     /tmp/cc7R4ZW9.s:104494  .debug_str:0000000000039b4c .LASF4572
     /tmp/cc7R4ZW9.s:107474  .debug_str:00000000000466e7 .LASF4573
     /tmp/cc7R4ZW9.s:108742  .debug_str:000000000004bb25 .LASF4574
     /tmp/cc7R4ZW9.s:93896  .debug_str:000000000000ed25 .LASF4575
     /tmp/cc7R4ZW9.s:91196  .debug_str:000000000000393d .LASF4576
     /tmp/cc7R4ZW9.s:99824  .debug_str:0000000000026f7e .LASF4577
     /tmp/cc7R4ZW9.s:97520  .debug_str:000000000001d6bf .LASF4578
     /tmp/cc7R4ZW9.s:100556  .debug_str:0000000000029f4b .LASF4579
     /tmp/cc7R4ZW9.s:96908  .debug_str:000000000001aca5 .LASF4580
     /tmp/cc7R4ZW9.s:98262  .debug_str:0000000000020c36 .LASF4581
     /tmp/cc7R4ZW9.s:106848  .debug_str:0000000000043dc4 .LASF4582
     /tmp/cc7R4ZW9.s:98822  .debug_str:00000000000230a5 .LASF4583
     /tmp/cc7R4ZW9.s:104654  .debug_str:000000000003a50f .LASF4584
     /tmp/cc7R4ZW9.s:93588  .debug_str:000000000000dc63 .LASF4585
     /tmp/cc7R4ZW9.s:108178  .debug_str:00000000000494db .LASF4586
     /tmp/cc7R4ZW9.s:105326  .debug_str:000000000003d31e .LASF4587
     /tmp/cc7R4ZW9.s:102482  .debug_str:0000000000031a29 .LASF4588
     /tmp/cc7R4ZW9.s:105372  .debug_str:000000000003d64e .LASF4589
     /tmp/cc7R4ZW9.s:94436  .debug_str:0000000000010aa8 .LASF4590
     /tmp/cc7R4ZW9.s:103158  .debug_str:00000000000346e6 .LASF4591
     /tmp/cc7R4ZW9.s:107638  .debug_str:0000000000047115 .LASF4592
     /tmp/cc7R4ZW9.s:100876  .debug_str:000000000002b33c .LASF4593
     /tmp/cc7R4ZW9.s:109388  .debug_str:000000000004e82f .LASF4594
     /tmp/cc7R4ZW9.s:95052  .debug_str:00000000000133cd .LASF4595
     /tmp/cc7R4ZW9.s:90424  .debug_str:0000000000000458 .LASF4596
     /tmp/cc7R4ZW9.s:99020  .debug_str:0000000000023e4b .LASF4597
     /tmp/cc7R4ZW9.s:93042  .debug_str:000000000000b78c .LASF4598
     /tmp/cc7R4ZW9.s:107890  .debug_str:0000000000048257 .LASF4599
     /tmp/cc7R4ZW9.s:105134  .debug_str:000000000003c6f9 .LASF4600
     /tmp/cc7R4ZW9.s:104954  .debug_str:000000000003b9d3 .LASF4601
     /tmp/cc7R4ZW9.s:94348  .debug_str:00000000000105ce .LASF4602
     /tmp/cc7R4ZW9.s:96330  .debug_str:00000000000185d8 .LASF4603
     /tmp/cc7R4ZW9.s:94188  .debug_str:000000000000fd8f .LASF4604
     /tmp/cc7R4ZW9.s:100474  .debug_str:0000000000029a20 .LASF4605
     /tmp/cc7R4ZW9.s:106096  .debug_str:0000000000040563 .LASF4606
     /tmp/cc7R4ZW9.s:98170  .debug_str:0000000000020547 .LASF4607
     /tmp/cc7R4ZW9.s:106750  .debug_str:0000000000043748 .LASF4608
     /tmp/cc7R4ZW9.s:95878  .debug_str:00000000000166cb .LASF4609
     /tmp/cc7R4ZW9.s:104570  .debug_str:0000000000039f8b .LASF4610
     /tmp/cc7R4ZW9.s:107096  .debug_str:0000000000044db9 .LASF4611
     /tmp/cc7R4ZW9.s:104294  .debug_str:0000000000039083 .LASF4612
     /tmp/cc7R4ZW9.s:97760  .debug_str:000000000001e81b .LASF4613
     /tmp/cc7R4ZW9.s:106338  .debug_str:0000000000041879 .LASF4614
     /tmp/cc7R4ZW9.s:95488  .debug_str:0000000000014e6b .LASF4615
     /tmp/cc7R4ZW9.s:101970  .debug_str:000000000002f955 .LASF4616
     /tmp/cc7R4ZW9.s:93138  .debug_str:000000000000bef5 .LASF4617
     /tmp/cc7R4ZW9.s:109584  .debug_str:000000000004f4be .LASF4618
     /tmp/cc7R4ZW9.s:103544  .debug_str:0000000000036283 .LASF4619
     /tmp/cc7R4ZW9.s:103748  .debug_str:0000000000037015 .LASF4620
     /tmp/cc7R4ZW9.s:91246  .debug_str:0000000000003c86 .LASF4621
     /tmp/cc7R4ZW9.s:108276  .debug_str:0000000000049b05 .LASF4622
     /tmp/cc7R4ZW9.s:91102  .debug_str:00000000000033ae .LASF4623
     /tmp/cc7R4ZW9.s:97610  .debug_str:000000000001ddaf .LASF4624
     /tmp/cc7R4ZW9.s:93946  .debug_str:000000000000eed7 .LASF4625
     /tmp/cc7R4ZW9.s:91118  .debug_str:00000000000034ae .LASF4626
     /tmp/cc7R4ZW9.s:96004  .debug_str:0000000000016fb7 .LASF4627
     /tmp/cc7R4ZW9.s:97286  .debug_str:000000000001c6fd .LASF4628
     /tmp/cc7R4ZW9.s:101794  .debug_str:000000000002ed6e .LASF4629
     /tmp/cc7R4ZW9.s:90800  .debug_str:0000000000001f36 .LASF4630
     /tmp/cc7R4ZW9.s:102098  .debug_str:0000000000030181 .LASF4631
     /tmp/cc7R4ZW9.s:91128  .debug_str:0000000000003502 .LASF4632
     /tmp/cc7R4ZW9.s:96832  .debug_str:000000000001a6ed .LASF4633
     /tmp/cc7R4ZW9.s:105426  .debug_str:000000000003d9d6 .LASF4634
     /tmp/cc7R4ZW9.s:94316  .debug_str:0000000000010485 .LASF4635
     /tmp/cc7R4ZW9.s:106188  .debug_str:0000000000040bd7 .LASF4636
     /tmp/cc7R4ZW9.s:94664  .debug_str:00000000000118cf .LASF4637
     /tmp/cc7R4ZW9.s:102404  .debug_str:00000000000314d1 .LASF4638
     /tmp/cc7R4ZW9.s:108346  .debug_str:000000000004a032 .LASF4639
     /tmp/cc7R4ZW9.s:108788  .debug_str:000000000004be31 .LASF4640
     /tmp/cc7R4ZW9.s:95736  .debug_str:0000000000015e6c .LASF4641
     /tmp/cc7R4ZW9.s:104416  .debug_str:0000000000039711 .LASF4642
     /tmp/cc7R4ZW9.s:108750  .debug_str:000000000004bba9 .LASF4643
     /tmp/cc7R4ZW9.s:102136  .debug_str:0000000000030409 .LASF4644
     /tmp/cc7R4ZW9.s:95360  .debug_str:00000000000146f6 .LASF4645
     /tmp/cc7R4ZW9.s:99814  .debug_str:0000000000026eba .LASF4646
     /tmp/cc7R4ZW9.s:108380  .debug_str:000000000004a20b .LASF4647
     /tmp/cc7R4ZW9.s:97544  .debug_str:000000000001d885 .LASF4648
     /tmp/cc7R4ZW9.s:105914  .debug_str:000000000003faaa .LASF4649
     /tmp/cc7R4ZW9.s:96458  .debug_str:0000000000018ccf .LASF4650
     /tmp/cc7R4ZW9.s:106434  .debug_str:00000000000420e3 .LASF4651
     /tmp/cc7R4ZW9.s:95572  .debug_str:00000000000153c9 .LASF4652
     /tmp/cc7R4ZW9.s:104250  .debug_str:0000000000038f0d .LASF4653
     /tmp/cc7R4ZW9.s:93198  .debug_str:000000000000c2a1 .LASF4654
     /tmp/cc7R4ZW9.s:101586  .debug_str:000000000002df60 .LASF4655
     /tmp/cc7R4ZW9.s:91046  .debug_str:0000000000002fd0 .LASF4656
     /tmp/cc7R4ZW9.s:99492  .debug_str:0000000000025af2 .LASF4657
     /tmp/cc7R4ZW9.s:108088  .debug_str:0000000000048ed7 .LASF4658
     /tmp/cc7R4ZW9.s:97258  .debug_str:000000000001c474 .LASF4659
     /tmp/cc7R4ZW9.s:108538  .debug_str:000000000004acc1 .LASF4660
     /tmp/cc7R4ZW9.s:92062  .debug_str:00000000000074ae .LASF4661
     /tmp/cc7R4ZW9.s:107490  .debug_str:000000000004678a .LASF4662
     /tmp/cc7R4ZW9.s:108998  .debug_str:000000000004cc28 .LASF4663
     /tmp/cc7R4ZW9.s:98154  .debug_str:000000000002041c .LASF4664
     /tmp/cc7R4ZW9.s:97282  .debug_str:000000000001c6df .LASF4665
     /tmp/cc7R4ZW9.s:96734  .debug_str:0000000000019fb1 .LASF4666
     /tmp/cc7R4ZW9.s:108550  .debug_str:000000000004ad95 .LASF4667
     /tmp/cc7R4ZW9.s:98034  .debug_str:000000000001fb4b .LASF4668
     /tmp/cc7R4ZW9.s:101256  .debug_str:000000000002cad3 .LASF4669
     /tmp/cc7R4ZW9.s:92314  .debug_str:00000000000084f3 .LASF4670
     /tmp/cc7R4ZW9.s:103154  .debug_str:00000000000346b0 .LASF4671
     /tmp/cc7R4ZW9.s:94228  .debug_str:0000000000010017 .LASF4672
     /tmp/cc7R4ZW9.s:102346  .debug_str:000000000003116c .LASF4673
     /tmp/cc7R4ZW9.s:94892  .debug_str:000000000001278d .LASF4674
     /tmp/cc7R4ZW9.s:95492  .debug_str:0000000000014ebe .LASF4675
     /tmp/cc7R4ZW9.s:105386  .debug_str:000000000003d71f .LASF4676
     /tmp/cc7R4ZW9.s:105178  .debug_str:000000000003c9ff .LASF4677
     /tmp/cc7R4ZW9.s:107090  .debug_str:0000000000044d42 .LASF4678
     /tmp/cc7R4ZW9.s:107392  .debug_str:0000000000046143 .LASF4679
     /tmp/cc7R4ZW9.s:92980  .debug_str:000000000000b336 .LASF4680
     /tmp/cc7R4ZW9.s:100218  .debug_str:00000000000288e0 .LASF4681
     /tmp/cc7R4ZW9.s:103736  .debug_str:0000000000036f49 .LASF4682
     /tmp/cc7R4ZW9.s:100168  .debug_str:000000000002850b .LASF4683
     /tmp/cc7R4ZW9.s:105760  .debug_str:000000000003f075 .LASF4684
     /tmp/cc7R4ZW9.s:103876  .debug_str:000000000003788d .LASF4685
     /tmp/cc7R4ZW9.s:99186  .debug_str:00000000000249b3 .LASF4686
     /tmp/cc7R4ZW9.s:92242  .debug_str:0000000000008001 .LASF4687
     /tmp/cc7R4ZW9.s:101032  .debug_str:000000000002bd04 .LASF4688
     /tmp/cc7R4ZW9.s:94248  .debug_str:000000000001014a .LASF4689
     /tmp/cc7R4ZW9.s:102926  .debug_str:000000000003383e .LASF4690
     /tmp/cc7R4ZW9.s:93990  .debug_str:000000000000f1ce .LASF4691
     /tmp/cc7R4ZW9.s:93998  .debug_str:000000000000f269 .LASF4692
     /tmp/cc7R4ZW9.s:95546  .debug_str:0000000000015219 .LASF4693
     /tmp/cc7R4ZW9.s:106666  .debug_str:0000000000043125 .LASF4694
     /tmp/cc7R4ZW9.s:97710  .debug_str:000000000001e4de .LASF4695
     /tmp/cc7R4ZW9.s:93024  .debug_str:000000000000b69b .LASF4696
     /tmp/cc7R4ZW9.s:103964  .debug_str:0000000000037db1 .LASF4697
     /tmp/cc7R4ZW9.s:106016  .debug_str:00000000000400c9 .LASF4698
     /tmp/cc7R4ZW9.s:104266  .debug_str:0000000000038fd8 .LASF4699
     /tmp/cc7R4ZW9.s:93412  .debug_str:000000000000d0f2 .LASF4700
     /tmp/cc7R4ZW9.s:91252  .debug_str:0000000000003cf7 .LASF4701
     /tmp/cc7R4ZW9.s:96220  .debug_str:0000000000017f0c .LASF4702
     /tmp/cc7R4ZW9.s:107608  .debug_str:0000000000046ed7 .LASF4703
     /tmp/cc7R4ZW9.s:106008  .debug_str:000000000004002c .LASF4704
     /tmp/cc7R4ZW9.s:104564  .debug_str:0000000000039f4a .LASF4705
     /tmp/cc7R4ZW9.s:100032  .debug_str:0000000000027c70 .LASF4706
     /tmp/cc7R4ZW9.s:96968  .debug_str:000000000001b07b .LASF4707
     /tmp/cc7R4ZW9.s:106700  .debug_str:00000000000433c9 .LASF4708
     /tmp/cc7R4ZW9.s:98848  .debug_str:0000000000023220 .LASF4709
     /tmp/cc7R4ZW9.s:102848  .debug_str:0000000000033282 .LASF4710
     /tmp/cc7R4ZW9.s:104264  .debug_str:0000000000038fbf .LASF4711
     /tmp/cc7R4ZW9.s:107452  .debug_str:0000000000046520 .LASF4712
     /tmp/cc7R4ZW9.s:102540  .debug_str:0000000000031d47 .LASF4713
     /tmp/cc7R4ZW9.s:93582  .debug_str:000000000000dc38 .LASF4714
     /tmp/cc7R4ZW9.s:104448  .debug_str:000000000003983f .LASF4715
     /tmp/cc7R4ZW9.s:95580  .debug_str:000000000001546c .LASF4716
     /tmp/cc7R4ZW9.s:105378  .debug_str:000000000003d686 .LASF4717
     /tmp/cc7R4ZW9.s:101596  .debug_str:000000000002dfee .LASF4718
     /tmp/cc7R4ZW9.s:92594  .debug_str:0000000000009869 .LASF4719
     /tmp/cc7R4ZW9.s:103466  .debug_str:0000000000035d4a .LASF4720
     /tmp/cc7R4ZW9.s:94566  .debug_str:00000000000112de .LASF4721
     /tmp/cc7R4ZW9.s:96928  .debug_str:000000000001ade2 .LASF4722
     /tmp/cc7R4ZW9.s:96376  .debug_str:0000000000018898 .LASF4723
     /tmp/cc7R4ZW9.s:100182  .debug_str:00000000000285f7 .LASF4724
     /tmp/cc7R4ZW9.s:105776  .debug_str:000000000003f177 .LASF4725
     /tmp/cc7R4ZW9.s:108914  .debug_str:000000000004c62b .LASF4726
     /tmp/cc7R4ZW9.s:104256  .debug_str:0000000000038f78 .LASF4727
     /tmp/cc7R4ZW9.s:96638  .debug_str:0000000000019946 .LASF4728
     /tmp/cc7R4ZW9.s:104668  .debug_str:000000000003a61f .LASF4729
     /tmp/cc7R4ZW9.s:92248  .debug_str:0000000000008060 .LASF4730
     /tmp/cc7R4ZW9.s:106500  .debug_str:00000000000425ee .LASF4731
     /tmp/cc7R4ZW9.s:93128  .debug_str:000000000000be69 .LASF4732
     /tmp/cc7R4ZW9.s:97548  .debug_str:000000000001d8b7 .LASF4733
     /tmp/cc7R4ZW9.s:95108  .debug_str:000000000001374b .LASF4734
     /tmp/cc7R4ZW9.s:101246  .debug_str:000000000002ca27 .LASF4735
     /tmp/cc7R4ZW9.s:105900  .debug_str:000000000003f987 .LASF4736
     /tmp/cc7R4ZW9.s:103972  .debug_str:0000000000037e1c .LASF4737
     /tmp/cc7R4ZW9.s:106224  .debug_str:0000000000040f97 .LASF4738
     /tmp/cc7R4ZW9.s:107440  .debug_str:000000000004646c .LASF4739
     /tmp/cc7R4ZW9.s:108152  .debug_str:000000000004933e .LASF4740
     /tmp/cc7R4ZW9.s:96492  .debug_str:0000000000018f05 .LASF4741
     /tmp/cc7R4ZW9.s:101150  .debug_str:000000000002c4a6 .LASF4742
     /tmp/cc7R4ZW9.s:100534  .debug_str:0000000000029dc5 .LASF4743
     /tmp/cc7R4ZW9.s:103390  .debug_str:0000000000035744 .LASF4744
     /tmp/cc7R4ZW9.s:94808  .debug_str:00000000000122a4 .LASF4745
     /tmp/cc7R4ZW9.s:109028  .debug_str:000000000004ce45 .LASF4746
     /tmp/cc7R4ZW9.s:101292  .debug_str:000000000002cd5f .LASF4747
     /tmp/cc7R4ZW9.s:91232  .debug_str:0000000000003b8e .LASF4748
     /tmp/cc7R4ZW9.s:105572  .debug_str:000000000003e4bf .LASF4749
     /tmp/cc7R4ZW9.s:107346  .debug_str:0000000000045e38 .LASF4750
     /tmp/cc7R4ZW9.s:92146  .debug_str:0000000000007a01 .LASF4751
     /tmp/cc7R4ZW9.s:101480  .debug_str:000000000002d846 .LASF4752
     /tmp/cc7R4ZW9.s:106974  .debug_str:00000000000445a1 .LASF4753
     /tmp/cc7R4ZW9.s:100904  .debug_str:000000000002b563 .LASF4754
     /tmp/cc7R4ZW9.s:95144  .debug_str:0000000000013985 .LASF4755
     /tmp/cc7R4ZW9.s:90588  .debug_str:0000000000000f6b .LASF4756
     /tmp/cc7R4ZW9.s:100854  .debug_str:000000000002b253 .LASF4757
     /tmp/cc7R4ZW9.s:100748  .debug_str:000000000002ab64 .LASF4758
     /tmp/cc7R4ZW9.s:99610  .debug_str:0000000000026159 .LASF4759
     /tmp/cc7R4ZW9.s:91820  .debug_str:000000000000634c .LASF4760
     /tmp/cc7R4ZW9.s:97984  .debug_str:000000000001f815 .LASF4761
     /tmp/cc7R4ZW9.s:102562  .debug_str:0000000000031e8c .LASF4762
     /tmp/cc7R4ZW9.s:96358  .debug_str:000000000001876a .LASF4763
     /tmp/cc7R4ZW9.s:93754  .debug_str:000000000000e595 .LASF4764
     /tmp/cc7R4ZW9.s:93626  .debug_str:000000000000de09 .LASF4765
     /tmp/cc7R4ZW9.s:94850  .debug_str:0000000000012523 .LASF4766
     /tmp/cc7R4ZW9.s:92704  .debug_str:000000000000a040 .LASF4767
     /tmp/cc7R4ZW9.s:96690  .debug_str:0000000000019cff .LASF4768
     /tmp/cc7R4ZW9.s:99990  .debug_str:0000000000027992 .LASF4769
     /tmp/cc7R4ZW9.s:104468  .debug_str:0000000000039973 .LASF4770
     /tmp/cc7R4ZW9.s:102694  .debug_str:0000000000032804 .LASF4771
     /tmp/cc7R4ZW9.s:101696  .debug_str:000000000002e66d .LASF4772
     /tmp/cc7R4ZW9.s:105676  .debug_str:000000000003eba3 .LASF4773
     /tmp/cc7R4ZW9.s:100860  .debug_str:000000000002b29d .LASF4774
     /tmp/cc7R4ZW9.s:108502  .debug_str:000000000004a9d0 .LASF4775
     /tmp/cc7R4ZW9.s:90990  .debug_str:0000000000002be9 .LASF4776
     /tmp/cc7R4ZW9.s:104248  .debug_str:0000000000038ee5 .LASF4777
     /tmp/cc7R4ZW9.s:109024  .debug_str:000000000004ce08 .LASF4778
     /tmp/cc7R4ZW9.s:103496  .debug_str:0000000000035fba .LASF4779
     /tmp/cc7R4ZW9.s:103672  .debug_str:0000000000036b54 .LASF4780
     /tmp/cc7R4ZW9.s:107022  .debug_str:00000000000448f3 .LASF4781
     /tmp/cc7R4ZW9.s:97026  .debug_str:000000000001b41f .LASF4782
     /tmp/cc7R4ZW9.s:91204  .debug_str:0000000000003987 .LASF4783
     /tmp/cc7R4ZW9.s:93874  .debug_str:000000000000ec29 .LASF4784
     /tmp/cc7R4ZW9.s:92620  .debug_str:0000000000009a96 .LASF4785
     /tmp/cc7R4ZW9.s:99428  .debug_str:000000000002578a .LASF4786
     /tmp/cc7R4ZW9.s:106664  .debug_str:00000000000430ff .LASF4787
     /tmp/cc7R4ZW9.s:93740  .debug_str:000000000000e4eb .LASF4788
     /tmp/cc7R4ZW9.s:95320  .debug_str:000000000001442b .LASF4789
     /tmp/cc7R4ZW9.s:94052  .debug_str:000000000000f577 .LASF4790
     /tmp/cc7R4ZW9.s:101084  .debug_str:000000000002c0aa .LASF4791
     /tmp/cc7R4ZW9.s:108122  .debug_str:0000000000049115 .LASF4792
     /tmp/cc7R4ZW9.s:102904  .debug_str:000000000003364a .LASF4793
     /tmp/cc7R4ZW9.s:108928  .debug_str:000000000004c739 .LASF4794
     /tmp/cc7R4ZW9.s:104334  .debug_str:000000000003931c .LASF4795
     /tmp/cc7R4ZW9.s:90792  .debug_str:0000000000001ec3 .LASF4796
     /tmp/cc7R4ZW9.s:96876  .debug_str:000000000001a9e8 .LASF4797
     /tmp/cc7R4ZW9.s:100684  .debug_str:000000000002a7ed .LASF4798
     /tmp/cc7R4ZW9.s:107220  .debug_str:000000000004555f .LASF4799
     /tmp/cc7R4ZW9.s:95340  .debug_str:000000000001457a .LASF4800
     /tmp/cc7R4ZW9.s:95274  .debug_str:0000000000014134 .LASF4801
     /tmp/cc7R4ZW9.s:106436  .debug_str:00000000000420f9 .LASF4802
     /tmp/cc7R4ZW9.s:108168  .debug_str:0000000000049468 .LASF4803
     /tmp/cc7R4ZW9.s:96572  .debug_str:00000000000194b7 .LASF4804
     /tmp/cc7R4ZW9.s:100792  .debug_str:000000000002addb .LASF4805
     /tmp/cc7R4ZW9.s:105954  .debug_str:000000000003fd06 .LASF4806
     /tmp/cc7R4ZW9.s:98798  .debug_str:0000000000022f3d .LASF4807
     /tmp/cc7R4ZW9.s:95942  .debug_str:0000000000016b9c .LASF4808
     /tmp/cc7R4ZW9.s:105092  .debug_str:000000000003c3d3 .LASF4809
     /tmp/cc7R4ZW9.s:101146  .debug_str:000000000002c48e .LASF4810
     /tmp/cc7R4ZW9.s:96008  .debug_str:0000000000017012 .LASF4811
     /tmp/cc7R4ZW9.s:99518  .debug_str:0000000000025ca0 .LASF4812
     /tmp/cc7R4ZW9.s:99444  .debug_str:00000000000258d8 .LASF4813
     /tmp/cc7R4ZW9.s:91534  .debug_str:0000000000005050 .LASF4814
     /tmp/cc7R4ZW9.s:107942  .debug_str:0000000000048594 .LASF4815
     /tmp/cc7R4ZW9.s:107424  .debug_str:000000000004634d .LASF4816
     /tmp/cc7R4ZW9.s:91208  .debug_str:00000000000039c3 .LASF4817
     /tmp/cc7R4ZW9.s:94948  .debug_str:0000000000012bbb .LASF4818
     /tmp/cc7R4ZW9.s:108160  .debug_str:00000000000493bd .LASF4819
     /tmp/cc7R4ZW9.s:102036  .debug_str:000000000002fd71 .LASF4820
     /tmp/cc7R4ZW9.s:95712  .debug_str:0000000000015d03 .LASF4821
     /tmp/cc7R4ZW9.s:98404  .debug_str:00000000000214c8 .LASF4822
     /tmp/cc7R4ZW9.s:97664  .debug_str:000000000001e155 .LASF4823
     /tmp/cc7R4ZW9.s:106892  .debug_str:0000000000044043 .LASF4824
     /tmp/cc7R4ZW9.s:96628  .debug_str:00000000000198b6 .LASF4825
     /tmp/cc7R4ZW9.s:105810  .debug_str:000000000003f3be .LASF4826
     /tmp/cc7R4ZW9.s:95584  .debug_str:000000000001549f .LASF4827
     /tmp/cc7R4ZW9.s:104894  .debug_str:000000000003b5d4 .LASF4828
     /tmp/cc7R4ZW9.s:93132  .debug_str:000000000000bebb .LASF4829
     /tmp/cc7R4ZW9.s:91688  .debug_str:0000000000005ac9 .LASF4830
     /tmp/cc7R4ZW9.s:92814  .debug_str:000000000000a79d .LASF4831
     /tmp/cc7R4ZW9.s:107430  .debug_str:00000000000463e5 .LASF4832
     /tmp/cc7R4ZW9.s:93446  .debug_str:000000000000d397 .LASF4833
     /tmp/cc7R4ZW9.s:91856  .debug_str:0000000000006574 .LASF4834
     /tmp/cc7R4ZW9.s:100584  .debug_str:000000000002a137 .LASF4835
     /tmp/cc7R4ZW9.s:100812  .debug_str:000000000002afa3 .LASF4836
     /tmp/cc7R4ZW9.s:105888  .debug_str:000000000003f890 .LASF4837
     /tmp/cc7R4ZW9.s:101406  .debug_str:000000000002d41f .LASF4838
     /tmp/cc7R4ZW9.s:96864  .debug_str:000000000001a8c8 .LASF4839
     /tmp/cc7R4ZW9.s:108458  .debug_str:000000000004a695 .LASF4840
     /tmp/cc7R4ZW9.s:102310  .debug_str:0000000000030f61 .LASF4841
     /tmp/cc7R4ZW9.s:108632  .debug_str:000000000004b382 .LASF4842
     /tmp/cc7R4ZW9.s:102508  .debug_str:0000000000031b6d .LASF4843
     /tmp/cc7R4ZW9.s:96208  .debug_str:0000000000017e5e .LASF4844
     /tmp/cc7R4ZW9.s:109442  .debug_str:000000000004eb9b .LASF4845
     /tmp/cc7R4ZW9.s:103304  .debug_str:000000000003510f .LASF4846
     /tmp/cc7R4ZW9.s:97004  .debug_str:000000000001b2ad .LASF4847
     /tmp/cc7R4ZW9.s:102148  .debug_str:000000000003046b .LASF4848
     /tmp/cc7R4ZW9.s:99406  .debug_str:0000000000025669 .LASF4849
     /tmp/cc7R4ZW9.s:94724  .debug_str:0000000000011cfc .LASF4850
     /tmp/cc7R4ZW9.s:100592  .debug_str:000000000002a1ae .LASF4851
     /tmp/cc7R4ZW9.s:95696  .debug_str:0000000000015c22 .LASF4852
     /tmp/cc7R4ZW9.s:100108  .debug_str:000000000002813b .LASF4853
     /tmp/cc7R4ZW9.s:102288  .debug_str:0000000000030df4 .LASF4854
     /tmp/cc7R4ZW9.s:93878  .debug_str:000000000000ec4d .LASF4855
     /tmp/cc7R4ZW9.s:100928  .debug_str:000000000002b6f7 .LASF4856
     /tmp/cc7R4ZW9.s:103492  .debug_str:0000000000035f3a .LASF4857
     /tmp/cc7R4ZW9.s:107842  .debug_str:0000000000047ee0 .LASF4858
     /tmp/cc7R4ZW9.s:102444  .debug_str:0000000000031744 .LASF4859
     /tmp/cc7R4ZW9.s:95402  .debug_str:00000000000149b1 .LASF4860
     /tmp/cc7R4ZW9.s:101050  .debug_str:000000000002bde9 .LASF4861
     /tmp/cc7R4ZW9.s:94728  .debug_str:0000000000011d3a .LASF4862
     /tmp/cc7R4ZW9.s:96940  .debug_str:000000000001aea4 .LASF4863
     /tmp/cc7R4ZW9.s:91042  .debug_str:0000000000002f8f .LASF4864
     /tmp/cc7R4ZW9.s:95506  .debug_str:0000000000014f93 .LASF4865
     /tmp/cc7R4ZW9.s:108712  .debug_str:000000000004b929 .LASF4866
     /tmp/cc7R4ZW9.s:103588  .debug_str:00000000000365c1 .LASF4867
     /tmp/cc7R4ZW9.s:106316  .debug_str:00000000000416b1 .LASF4868
     /tmp/cc7R4ZW9.s:99182  .debug_str:0000000000024970 .LASF4869
     /tmp/cc7R4ZW9.s:93764  .debug_str:000000000000e624 .LASF4870
     /tmp/cc7R4ZW9.s:99430  .debug_str:00000000000257ba .LASF4871
     /tmp/cc7R4ZW9.s:102126  .debug_str:000000000003030b .LASF4872
     /tmp/cc7R4ZW9.s:91770  .debug_str:0000000000005fb8 .LASF4873
     /tmp/cc7R4ZW9.s:100238  .debug_str:0000000000028a5d .LASF4874
     /tmp/cc7R4ZW9.s:90728  .debug_str:00000000000019ef .LASF4875
     /tmp/cc7R4ZW9.s:92614  .debug_str:0000000000009a18 .LASF4876
     /tmp/cc7R4ZW9.s:101076  .debug_str:000000000002c017 .LASF4877
     /tmp/cc7R4ZW9.s:94762  .debug_str:0000000000011f41 .LASF4878
     /tmp/cc7R4ZW9.s:107998  .debug_str:0000000000048951 .LASF4879
     /tmp/cc7R4ZW9.s:93162  .debug_str:000000000000c094 .LASF4880
     /tmp/cc7R4ZW9.s:108970  .debug_str:000000000004ca3c .LASF4881
     /tmp/cc7R4ZW9.s:100294  .debug_str:0000000000028e11 .LASF4882
     /tmp/cc7R4ZW9.s:93962  .debug_str:000000000000efdb .LASF4883
     /tmp/cc7R4ZW9.s:96042  .debug_str:00000000000171e3 .LASF4884
     /tmp/cc7R4ZW9.s:109456  .debug_str:000000000004eca4 .LASF4885
     /tmp/cc7R4ZW9.s:101874  .debug_str:000000000002f2ac .LASF4886
     /tmp/cc7R4ZW9.s:103986  .debug_str:0000000000037f16 .LASF4887
     /tmp/cc7R4ZW9.s:100082  .debug_str:0000000000027f80 .LASF4888
     /tmp/cc7R4ZW9.s:91868  .debug_str:000000000000668b .LASF4889
     /tmp/cc7R4ZW9.s:108828  .debug_str:000000000004c0b9 .LASF4890
     /tmp/cc7R4ZW9.s:99222  .debug_str:0000000000024af9 .LASF4891
     /tmp/cc7R4ZW9.s:99760  .debug_str:0000000000026b10 .LASF4892
     /tmp/cc7R4ZW9.s:97524  .debug_str:000000000001d6e5 .LASF4893
     /tmp/cc7R4ZW9.s:108092  .debug_str:0000000000048ef7 .LASF4894
     /tmp/cc7R4ZW9.s:100572  .debug_str:000000000002a069 .LASF4895
     /tmp/cc7R4ZW9.s:106370  .debug_str:0000000000041a17 .LASF4896
     /tmp/cc7R4ZW9.s:104300  .debug_str:00000000000390e8 .LASF4897
     /tmp/cc7R4ZW9.s:101402  .debug_str:000000000002d3c4 .LASF4898
     /tmp/cc7R4ZW9.s:98290  .debug_str:0000000000020d9e .LASF4899
     /tmp/cc7R4ZW9.s:98790  .debug_str:0000000000022ea2 .LASF4900
     /tmp/cc7R4ZW9.s:106534  .debug_str:00000000000428e2 .LASF4901
     /tmp/cc7R4ZW9.s:107094  .debug_str:0000000000044d80 .LASF4902
     /tmp/cc7R4ZW9.s:92706  .debug_str:000000000000a06b .LASF4903
     /tmp/cc7R4ZW9.s:93242  .debug_str:000000000000c54f .LASF4904
     /tmp/cc7R4ZW9.s:99398  .debug_str:0000000000025603 .LASF4905
     /tmp/cc7R4ZW9.s:100576  .debug_str:000000000002a0aa .LASF4906
     /tmp/cc7R4ZW9.s:94250  .debug_str:0000000000010162 .LASF4907
     /tmp/cc7R4ZW9.s:107534  .debug_str:0000000000046a12 .LASF4908
     /tmp/cc7R4ZW9.s:103818  .debug_str:00000000000374e7 .LASF4909
     /tmp/cc7R4ZW9.s:105018  .debug_str:000000000003be36 .LASF4910
     /tmp/cc7R4ZW9.s:94700  .debug_str:0000000000011b47 .LASF4911
     /tmp/cc7R4ZW9.s:102304  .debug_str:0000000000030ee6 .LASF4912
     /tmp/cc7R4ZW9.s:93570  .debug_str:000000000000db56 .LASF4913
     /tmp/cc7R4ZW9.s:109248  .debug_str:000000000004ddea .LASF4914
     /tmp/cc7R4ZW9.s:103120  .debug_str:00000000000344af .LASF4915
     /tmp/cc7R4ZW9.s:104318  .debug_str:000000000003922e .LASF4916
     /tmp/cc7R4ZW9.s:98012  .debug_str:000000000001f9f0 .LASF4917
     /tmp/cc7R4ZW9.s:108134  .debug_str:00000000000491b1 .LASF4918
     /tmp/cc7R4ZW9.s:105042  .debug_str:000000000003bfba .LASF4919
     /tmp/cc7R4ZW9.s:108616  .debug_str:000000000004b201 .LASF4920
     /tmp/cc7R4ZW9.s:108222  .debug_str:00000000000497e5 .LASF4921
     /tmp/cc7R4ZW9.s:93262  .debug_str:000000000000c6b2 .LASF4922
     /tmp/cc7R4ZW9.s:103646  .debug_str:00000000000369b6 .LASF4923
     /tmp/cc7R4ZW9.s:107076  .debug_str:0000000000044c25 .LASF4924
     /tmp/cc7R4ZW9.s:107704  .debug_str:00000000000474ff .LASF4925
     /tmp/cc7R4ZW9.s:92234  .debug_str:0000000000007f45 .LASF4926
     /tmp/cc7R4ZW9.s:107838  .debug_str:0000000000047e67 .LASF4927
     /tmp/cc7R4ZW9.s:91242  .debug_str:0000000000003c3a .LASF4928
     /tmp/cc7R4ZW9.s:100528  .debug_str:0000000000029d55 .LASF4929
     /tmp/cc7R4ZW9.s:108584  .debug_str:000000000004afdc .LASF4930
     /tmp/cc7R4ZW9.s:96496  .debug_str:0000000000018f64 .LASF4931
     /tmp/cc7R4ZW9.s:108620  .debug_str:000000000004b269 .LASF4932
     /tmp/cc7R4ZW9.s:96522  .debug_str:000000000001911d .LASF4933
     /tmp/cc7R4ZW9.s:91462  .debug_str:0000000000004bcd .LASF4934
     /tmp/cc7R4ZW9.s:103574  .debug_str:000000000003648b .LASF4935
     /tmp/cc7R4ZW9.s:97320  .debug_str:000000000001c925 .LASF4936
     /tmp/cc7R4ZW9.s:105370  .debug_str:000000000003d616 .LASF4937
     /tmp/cc7R4ZW9.s:104386  .debug_str:0000000000039588 .LASF4938
     /tmp/cc7R4ZW9.s:96660  .debug_str:0000000000019ac3 .LASF4939
     /tmp/cc7R4ZW9.s:102054  .debug_str:000000000002fea7 .LASF4940
     /tmp/cc7R4ZW9.s:109354  .debug_str:000000000004e5a3 .LASF4941
     /tmp/cc7R4ZW9.s:99082  .debug_str:0000000000024288 .LASF4942
     /tmp/cc7R4ZW9.s:108310  .debug_str:0000000000049d40 .LASF4943
     /tmp/cc7R4ZW9.s:98090  .debug_str:000000000001ff31 .LASF4944
     /tmp/cc7R4ZW9.s:100392  .debug_str:000000000002953c .LASF4945
     /tmp/cc7R4ZW9.s:107992  .debug_str:00000000000488bc .LASF4946
     /tmp/cc7R4ZW9.s:91248  .debug_str:0000000000003c9e .LASF4947
     /tmp/cc7R4ZW9.s:105124  .debug_str:000000000003c677 .LASF4948
     /tmp/cc7R4ZW9.s:98528  .debug_str:0000000000021e27 .LASF4949
     /tmp/cc7R4ZW9.s:97726  .debug_str:000000000001e5bf .LASF4950
     /tmp/cc7R4ZW9.s:97486  .debug_str:000000000001d462 .LASF4951
     /tmp/cc7R4ZW9.s:94928  .debug_str:0000000000012a66 .LASF4952
     /tmp/cc7R4ZW9.s:93176  .debug_str:000000000000c177 .LASF4953
     /tmp/cc7R4ZW9.s:102602  .debug_str:000000000003211d .LASF4954
     /tmp/cc7R4ZW9.s:108420  .debug_str:000000000004a4ae .LASF4955
     /tmp/cc7R4ZW9.s:102278  .debug_str:0000000000030d62 .LASF4956
     /tmp/cc7R4ZW9.s:91218  .debug_str:0000000000003ab2 .LASF4957
     /tmp/cc7R4ZW9.s:109390  .debug_str:000000000004e843 .LASF4958
     /tmp/cc7R4ZW9.s:92718  .debug_str:000000000000a12e .LASF4959
     /tmp/cc7R4ZW9.s:96952  .debug_str:000000000001af63 .LASF4960
     /tmp/cc7R4ZW9.s:90694  .debug_str:0000000000001675 .LASF4961
     /tmp/cc7R4ZW9.s:109540  .debug_str:000000000004f221 .LASF4962
     /tmp/cc7R4ZW9.s:99742  .debug_str:00000000000269ae .LASF4963
     /tmp/cc7R4ZW9.s:96684  .debug_str:0000000000019c88 .LASF4964
     /tmp/cc7R4ZW9.s:95530  .debug_str:0000000000015104 .LASF4965
     /tmp/cc7R4ZW9.s:108734  .debug_str:000000000004baa6 .LASF4966
     /tmp/cc7R4ZW9.s:102608  .debug_str:00000000000321bc .LASF4967
     /tmp/cc7R4ZW9.s:99640  .debug_str:000000000002633f .LASF4968
     /tmp/cc7R4ZW9.s:109528  .debug_str:000000000004f17a .LASF4969
     /tmp/cc7R4ZW9.s:105808  .debug_str:000000000003f387 .LASF4970
     /tmp/cc7R4ZW9.s:98398  .debug_str:0000000000021491 .LASF4971
     /tmp/cc7R4ZW9.s:104706  .debug_str:000000000003a89c .LASF4972
     /tmp/cc7R4ZW9.s:109692  .debug_str:000000000004fbe6 .LASF4973
     /tmp/cc7R4ZW9.s:99446  .debug_str:0000000000025910 .LASF4974
     /tmp/cc7R4ZW9.s:105398  .debug_str:000000000003d7d7 .LASF4975
     /tmp/cc7R4ZW9.s:94980  .debug_str:0000000000012e37 .LASF4976
     /tmp/cc7R4ZW9.s:96068  .debug_str:00000000000173be .LASF4977
     /tmp/cc7R4ZW9.s:103190  .debug_str:00000000000348dd .LASF4978
     /tmp/cc7R4ZW9.s:96554  .debug_str:00000000000192f9 .LASF4979
     /tmp/cc7R4ZW9.s:106060  .debug_str:000000000004035f .LASF4980
     /tmp/cc7R4ZW9.s:107432  .debug_str:000000000004641d .LASF4981
     /tmp/cc7R4ZW9.s:109478  .debug_str:000000000004eda2 .LASF4982
     /tmp/cc7R4ZW9.s:96900  .debug_str:000000000001abfd .LASF4983
     /tmp/cc7R4ZW9.s:95692  .debug_str:0000000000015bb0 .LASF4984
     /tmp/cc7R4ZW9.s:90762  .debug_str:0000000000001c58 .LASF4985
     /tmp/cc7R4ZW9.s:92642  .debug_str:0000000000009c88 .LASF4986
     /tmp/cc7R4ZW9.s:97790  .debug_str:000000000001ea6e .LASF4987
     /tmp/cc7R4ZW9.s:104772  .debug_str:000000000003ad28 .LASF4988
     /tmp/cc7R4ZW9.s:105022  .debug_str:000000000003be78 .LASF4989
     /tmp/cc7R4ZW9.s:109150  .debug_str:000000000004d656 .LASF4990
     /tmp/cc7R4ZW9.s:104626  .debug_str:000000000003a2f7 .LASF4991
     /tmp/cc7R4ZW9.s:109698  .debug_str:000000000004fc6a .LASF4992
     /tmp/cc7R4ZW9.s:109136  .debug_str:000000000004d556 .LASF4993
     /tmp/cc7R4ZW9.s:101852  .debug_str:000000000002f0b9 .LASF4994
     /tmp/cc7R4ZW9.s:98604  .debug_str:0000000000022239 .LASF4995
     /tmp/cc7R4ZW9.s:91468  .debug_str:0000000000004c1f .LASF4996
     /tmp/cc7R4ZW9.s:107124  .debug_str:0000000000044fcb .LASF4997
     /tmp/cc7R4ZW9.s:105654  .debug_str:000000000003ea1f .LASF4998
     /tmp/cc7R4ZW9.s:103042  .debug_str:0000000000033fde .LASF4999
     /tmp/cc7R4ZW9.s:95264  .debug_str:0000000000014070 .LASF5000
     /tmp/cc7R4ZW9.s:107804  .debug_str:0000000000047bc9 .LASF5001
     /tmp/cc7R4ZW9.s:93166  .debug_str:000000000000c0dc .LASF5002
     /tmp/cc7R4ZW9.s:90908  .debug_str:0000000000002693 .LASF5003
     /tmp/cc7R4ZW9.s:92258  .debug_str:00000000000080d0 .LASF5004
     /tmp/cc7R4ZW9.s:93862  .debug_str:000000000000eb78 .LASF5005
     /tmp/cc7R4ZW9.s:90388  .debug_str:00000000000001af .LASF5006
     /tmp/cc7R4ZW9.s:100822  .debug_str:000000000002b08a .LASF5007
     /tmp/cc7R4ZW9.s:95356  .debug_str:00000000000146a4 .LASF5008
     /tmp/cc7R4ZW9.s:105618  .debug_str:000000000003e795 .LASF5009
     /tmp/cc7R4ZW9.s:101766  .debug_str:000000000002eb61 .LASF5010
     /tmp/cc7R4ZW9.s:105538  .debug_str:000000000003e273 .LASF5011
     /tmp/cc7R4ZW9.s:104790  .debug_str:000000000003ae76 .LASF5012
     /tmp/cc7R4ZW9.s:103850  .debug_str:00000000000376c8 .LASF5013
     /tmp/cc7R4ZW9.s:98632  .debug_str:00000000000224fc .LASF5014
     /tmp/cc7R4ZW9.s:108292  .debug_str:0000000000049bfb .LASF5015
     /tmp/cc7R4ZW9.s:97052  .debug_str:000000000001b5cd .LASF5016
     /tmp/cc7R4ZW9.s:109788  .debug_str:0000000000050241 .LASF5017
     /tmp/cc7R4ZW9.s:104630  .debug_str:000000000003a356 .LASF5018
     /tmp/cc7R4ZW9.s:96294  .debug_str:000000000001830a .LASF5019
     /tmp/cc7R4ZW9.s:98664  .debug_str:000000000002264b .LASF5020
     /tmp/cc7R4ZW9.s:93020  .debug_str:000000000000b62b .LASF5021
     /tmp/cc7R4ZW9.s:106862  .debug_str:0000000000043e8f .LASF5022
     /tmp/cc7R4ZW9.s:104118  .debug_str:00000000000386d0 .LASF5023
     /tmp/cc7R4ZW9.s:107468  .debug_str:0000000000046675 .LASF5024
     /tmp/cc7R4ZW9.s:91652  .debug_str:0000000000005880 .LASF5025
     /tmp/cc7R4ZW9.s:101638  .debug_str:000000000002e2e5 .LASF5026
     /tmp/cc7R4ZW9.s:103540  .debug_str:000000000003622e .LASF5027
     /tmp/cc7R4ZW9.s:98272  .debug_str:0000000000020cb1 .LASF5028
     /tmp/cc7R4ZW9.s:102498  .debug_str:0000000000031ad4 .LASF5029
     /tmp/cc7R4ZW9.s:100962  .debug_str:000000000002b968 .LASF5030
     /tmp/cc7R4ZW9.s:98086  .debug_str:000000000001fee5 .LASF5031
     /tmp/cc7R4ZW9.s:100462  .debug_str:0000000000029937 .LASF5032
     /tmp/cc7R4ZW9.s:94810  .debug_str:00000000000122d5 .LASF5033
     /tmp/cc7R4ZW9.s:107300  .debug_str:0000000000045b54 .LASF5034
     /tmp/cc7R4ZW9.s:94364  .debug_str:00000000000106f6 .LASF5035
     /tmp/cc7R4ZW9.s:97206  .debug_str:000000000001c0c1 .LASF5036
     /tmp/cc7R4ZW9.s:106516  .debug_str:0000000000042748 .LASF5037
     /tmp/cc7R4ZW9.s:104420  .debug_str:000000000003973c .LASF5038
     /tmp/cc7R4ZW9.s:109552  .debug_str:000000000004f2ec .LASF5039
     /tmp/cc7R4ZW9.s:102248  .debug_str:0000000000030b87 .LASF5040
     /tmp/cc7R4ZW9.s:107456  .debug_str:0000000000046575 .LASF5041
     /tmp/cc7R4ZW9.s:93870  .debug_str:000000000000ebe3 .LASF5042
     /tmp/cc7R4ZW9.s:96232  .debug_str:0000000000017f96 .LASF5043
     /tmp/cc7R4ZW9.s:103686  .debug_str:0000000000036c37 .LASF5044
     /tmp/cc7R4ZW9.s:100944  .debug_str:000000000002b811 .LASF5045
     /tmp/cc7R4ZW9.s:101928  .debug_str:000000000002f6ba .LASF5046
     /tmp/cc7R4ZW9.s:101972  .debug_str:000000000002f96d .LASF5047
     /tmp/cc7R4ZW9.s:103188  .debug_str:00000000000348b6 .LASF5048
     /tmp/cc7R4ZW9.s:92692  .debug_str:0000000000009f51 .LASF5049
     /tmp/cc7R4ZW9.s:108342  .debug_str:0000000000049fde .LASF5050
     /tmp/cc7R4ZW9.s:95810  .debug_str:0000000000016246 .LASF5051
     /tmp/cc7R4ZW9.s:97168  .debug_str:000000000001bdff .LASF5052
     /tmp/cc7R4ZW9.s:107812  .debug_str:0000000000047c7f .LASF5053
     /tmp/cc7R4ZW9.s:93960  .debug_str:000000000000efa9 .LASF5054
     /tmp/cc7R4ZW9.s:90652  .debug_str:00000000000013ab .LASF5055
     /tmp/cc7R4ZW9.s:98078  .debug_str:000000000001fe46 .LASF5056
     /tmp/cc7R4ZW9.s:108330  .debug_str:0000000000049f26 .LASF5057
     /tmp/cc7R4ZW9.s:97338  .debug_str:000000000001cabe .LASF5058
     /tmp/cc7R4ZW9.s:105720  .debug_str:000000000003ede3 .LASF5059
     /tmp/cc7R4ZW9.s:96582  .debug_str:000000000001957b .LASF5060
     /tmp/cc7R4ZW9.s:99268  .debug_str:0000000000024ef4 .LASF5061
     /tmp/cc7R4ZW9.s:108398  .debug_str:000000000004a363 .LASF5062
     /tmp/cc7R4ZW9.s:95832  .debug_str:00000000000163e8 .LASF5063
     /tmp/cc7R4ZW9.s:96370  .debug_str:0000000000018830 .LASF5064
     /tmp/cc7R4ZW9.s:93474  .debug_str:000000000000d54f .LASF5065
     /tmp/cc7R4ZW9.s:109194  .debug_str:000000000004d96d .LASF5066
     /tmp/cc7R4ZW9.s:105228  .debug_str:000000000003cc96 .LASF5067
     /tmp/cc7R4ZW9.s:101250  .debug_str:000000000002ca57 .LASF5068
     /tmp/cc7R4ZW9.s:109386  .debug_str:000000000004e801 .LASF5069
     /tmp/cc7R4ZW9.s:99716  .debug_str:00000000000267da .LASF5070
     /tmp/cc7R4ZW9.s:106912  .debug_str:0000000000044214 .LASF5071
     /tmp/cc7R4ZW9.s:106498  .debug_str:00000000000425be .LASF5072
     /tmp/cc7R4ZW9.s:92334  .debug_str:000000000000869d .LASF5073
     /tmp/cc7R4ZW9.s:105204  .debug_str:000000000003cb4f .LASF5074
     /tmp/cc7R4ZW9.s:95098  .debug_str:00000000000136b5 .LASF5075
     /tmp/cc7R4ZW9.s:92720  .debug_str:000000000000a165 .LASF5076
     /tmp/cc7R4ZW9.s:95872  .debug_str:0000000000016641 .LASF5077
     /tmp/cc7R4ZW9.s:94794  .debug_str:00000000000121bd .LASF5078
     /tmp/cc7R4ZW9.s:100096  .debug_str:0000000000028093 .LASF5079
     /tmp/cc7R4ZW9.s:92710  .debug_str:000000000000a0ae .LASF5080
     /tmp/cc7R4ZW9.s:91876  .debug_str:00000000000066fc .LASF5081
     /tmp/cc7R4ZW9.s:109070  .debug_str:000000000004d1a5 .LASF5082
     /tmp/cc7R4ZW9.s:94220  .debug_str:000000000000ff9c .LASF5083
     /tmp/cc7R4ZW9.s:98724  .debug_str:0000000000022a61 .LASF5084
     /tmp/cc7R4ZW9.s:101796  .debug_str:000000000002ed86 .LASF5085
     /tmp/cc7R4ZW9.s:101200  .debug_str:000000000002c78c .LASF5086
     /tmp/cc7R4ZW9.s:98728  .debug_str:0000000000022a9b .LASF5087
     /tmp/cc7R4ZW9.s:97406  .debug_str:000000000001cf6d .LASF5088
     /tmp/cc7R4ZW9.s:92574  .debug_str:00000000000096fd .LASF5089
     /tmp/cc7R4ZW9.s:99054  .debug_str:0000000000024073 .LASF5090
     /tmp/cc7R4ZW9.s:90600  .debug_str:0000000000001041 .LASF5091
     /tmp/cc7R4ZW9.s:98508  .debug_str:0000000000021c60 .LASF5092
     /tmp/cc7R4ZW9.s:95222  .debug_str:0000000000013e29 .LASF5093
     /tmp/cc7R4ZW9.s:97862  .debug_str:000000000001eea8 .LASF5094
     /tmp/cc7R4ZW9.s:103652  .debug_str:0000000000036a1e .LASF5095
     /tmp/cc7R4ZW9.s:94142  .debug_str:000000000000fade .LASF5096
     /tmp/cc7R4ZW9.s:100266  .debug_str:0000000000028c2c .LASF5097
     /tmp/cc7R4ZW9.s:96034  .debug_str:0000000000017182 .LASF5098
     /tmp/cc7R4ZW9.s:105328  .debug_str:000000000003d331 .LASF5099
     /tmp/cc7R4ZW9.s:98872  .debug_str:00000000000233ea .LASF5100
     /tmp/cc7R4ZW9.s:105126  .debug_str:000000000003c689 .LASF5101
     /tmp/cc7R4ZW9.s:107376  .debug_str:000000000004600b .LASF5102
     /tmp/cc7R4ZW9.s:99042  .debug_str:0000000000023fbe .LASF5103
     /tmp/cc7R4ZW9.s:93554  .debug_str:000000000000da67 .LASF5104
     /tmp/cc7R4ZW9.s:106362  .debug_str:00000000000419d8 .LASF5105
     /tmp/cc7R4ZW9.s:105624  .debug_str:000000000003e7fe .LASF5106
     /tmp/cc7R4ZW9.s:98944  .debug_str:0000000000023962 .LASF5107
     /tmp/cc7R4ZW9.s:90462  .debug_str:0000000000000710 .LASF5108
     /tmp/cc7R4ZW9.s:95430  .debug_str:0000000000014b67 .LASF5109
     /tmp/cc7R4ZW9.s:101474  .debug_str:000000000002d819 .LASF5110
     /tmp/cc7R4ZW9.s:96378  .debug_str:00000000000188b1 .LASF5111
     /tmp/cc7R4ZW9.s:91216  .debug_str:0000000000003a85 .LASF5112
     /tmp/cc7R4ZW9.s:107144  .debug_str:00000000000450f3 .LASF5113
     /tmp/cc7R4ZW9.s:104664  .debug_str:000000000003a5b1 .LASF5114
     /tmp/cc7R4ZW9.s:97920  .debug_str:000000000001f318 .LASF5115
     /tmp/cc7R4ZW9.s:105180  .debug_str:000000000003ca17 .LASF5116
     /tmp/cc7R4ZW9.s:105384  .debug_str:000000000003d6f0 .LASF5117
     /tmp/cc7R4ZW9.s:95140  .debug_str:000000000001391a .LASF5118
     /tmp/cc7R4ZW9.s:105058  .debug_str:000000000003c0fd .LASF5119
     /tmp/cc7R4ZW9.s:92246  .debug_str:0000000000008032 .LASF5120
     /tmp/cc7R4ZW9.s:91586  .debug_str:000000000000539d .LASF5121
     /tmp/cc7R4ZW9.s:101284  .debug_str:000000000002cc94 .LASF5122
     /tmp/cc7R4ZW9.s:92820  .debug_str:000000000000a81f .LASF5123
     /tmp/cc7R4ZW9.s:96576  .debug_str:000000000001951a .LASF5124
     /tmp/cc7R4ZW9.s:106098  .debug_str:000000000004057a .LASF5125
     /tmp/cc7R4ZW9.s:90634  .debug_str:0000000000001275 .LASF5126
     /tmp/cc7R4ZW9.s:102006  .debug_str:000000000002fb95 .LASF5127
     /tmp/cc7R4ZW9.s:94468  .debug_str:0000000000010cb4 .LASF5128
     /tmp/cc7R4ZW9.s:93330  .debug_str:000000000000cb89 .LASF5129
     /tmp/cc7R4ZW9.s:103416  .debug_str:00000000000359be .LASF5130
     /tmp/cc7R4ZW9.s:105016  .debug_str:000000000003be0e .LASF5131
     /tmp/cc7R4ZW9.s:92564  .debug_str:0000000000009683 .LASF5132
     /tmp/cc7R4ZW9.s:99692  .debug_str:0000000000026647 .LASF5133
     /tmp/cc7R4ZW9.s:99864  .debug_str:000000000002719a .LASF5134
     /tmp/cc7R4ZW9.s:101560  .debug_str:000000000002dda1 .LASF5135
     /tmp/cc7R4ZW9.s:95734  .debug_str:0000000000015e41 .LASF5136
     /tmp/cc7R4ZW9.s:99696  .debug_str:0000000000026683 .LASF5137
     /tmp/cc7R4ZW9.s:92148  .debug_str:0000000000007a24 .LASF5138
     /tmp/cc7R4ZW9.s:109524  .debug_str:000000000004f128 .LASF5139
     /tmp/cc7R4ZW9.s:93514  .debug_str:000000000000d7b9 .LASF5140
     /tmp/cc7R4ZW9.s:104156  .debug_str:00000000000389e0 .LASF5141
     /tmp/cc7R4ZW9.s:97718  .debug_str:000000000001e52e .LASF5142
     /tmp/cc7R4ZW9.s:106426  .debug_str:000000000004205b .LASF5143
     /tmp/cc7R4ZW9.s:98668  .debug_str:000000000002268c .LASF5144
     /tmp/cc7R4ZW9.s:93372  .debug_str:000000000000ce8d .LASF5145
     /tmp/cc7R4ZW9.s:91154  .debug_str:0000000000003625 .LASF5146
     /tmp/cc7R4ZW9.s:105440  .debug_str:000000000003dade .LASF5147
     /tmp/cc7R4ZW9.s:95086  .debug_str:000000000001360b .LASF5148
     /tmp/cc7R4ZW9.s:99986  .debug_str:0000000000027939 .LASF5149
     /tmp/cc7R4ZW9.s:104794  .debug_str:000000000003aecc .LASF5150
     /tmp/cc7R4ZW9.s:92218  .debug_str:0000000000007e60 .LASF5151
     /tmp/cc7R4ZW9.s:96362  .debug_str:00000000000187be .LASF5152
     /tmp/cc7R4ZW9.s:94152  .debug_str:000000000000fb8d .LASF5153
     /tmp/cc7R4ZW9.s:101260  .debug_str:000000000002cb0e .LASF5154
     /tmp/cc7R4ZW9.s:96262  .debug_str:0000000000018139 .LASF5155
     /tmp/cc7R4ZW9.s:100318  .debug_str:0000000000028fd4 .LASF5156
     /tmp/cc7R4ZW9.s:108456  .debug_str:000000000004a65f .LASF5157
     /tmp/cc7R4ZW9.s:108390  .debug_str:000000000004a2bf .LASF5158
     /tmp/cc7R4ZW9.s:97008  .debug_str:000000000001b2ef .LASF5159
     /tmp/cc7R4ZW9.s:105344  .debug_str:000000000003d424 .LASF5160
     /tmp/cc7R4ZW9.s:99838  .debug_str:0000000000027037 .LASF5161
     /tmp/cc7R4ZW9.s:108648  .debug_str:000000000004b474 .LASF5162
     /tmp/cc7R4ZW9.s:94584  .debug_str:000000000001143b .LASF5163
     /tmp/cc7R4ZW9.s:99168  .debug_str:00000000000248c4 .LASF5164
     /tmp/cc7R4ZW9.s:104076  .debug_str:00000000000384fd .LASF5165
     /tmp/cc7R4ZW9.s:96586  .debug_str:00000000000195ea .LASF5166
     /tmp/cc7R4ZW9.s:95064  .debug_str:000000000001344e .LASF5167
     /tmp/cc7R4ZW9.s:99462  .debug_str:00000000000259e4 .LASF5168
     /tmp/cc7R4ZW9.s:90648  .debug_str:000000000000135b .LASF5169
     /tmp/cc7R4ZW9.s:106484  .debug_str:000000000004249c .LASF5170
     /tmp/cc7R4ZW9.s:105272  .debug_str:000000000003cfb3 .LASF5171
     /tmp/cc7R4ZW9.s:96642  .debug_str:0000000000019980 .LASF5172
     /tmp/cc7R4ZW9.s:97374  .debug_str:000000000001cd13 .LASF5173
     /tmp/cc7R4ZW9.s:99946  .debug_str:000000000002767f .LASF5174
     /tmp/cc7R4ZW9.s:103798  .debug_str:00000000000373c2 .LASF5175
     /tmp/cc7R4ZW9.s:93220  .debug_str:000000000000c40a .LASF5176
     /tmp/cc7R4ZW9.s:98248  .debug_str:0000000000020b17 .LASF5177
     /tmp/cc7R4ZW9.s:94354  .debug_str:0000000000010628 .LASF5178
     /tmp/cc7R4ZW9.s:106996  .debug_str:00000000000446ec .LASF5179
     /tmp/cc7R4ZW9.s:94802  .debug_str:000000000001223d .LASF5180
     /tmp/cc7R4ZW9.s:103352  .debug_str:00000000000354a2 .LASF5181
     /tmp/cc7R4ZW9.s:97040  .debug_str:000000000001b512 .LASF5182
     /tmp/cc7R4ZW9.s:99134  .debug_str:000000000002463e .LASF5183
     /tmp/cc7R4ZW9.s:106190  .debug_str:0000000000040bec .LASF5184
     /tmp/cc7R4ZW9.s:90552  .debug_str:0000000000000ce6 .LASF5185
     /tmp/cc7R4ZW9.s:96764  .debug_str:000000000001a1b8 .LASF5186
     /tmp/cc7R4ZW9.s:98718  .debug_str:00000000000229cf .LASF5187
     /tmp/cc7R4ZW9.s:95890  .debug_str:00000000000167aa .LASF5188
     /tmp/cc7R4ZW9.s:103874  .debug_str:0000000000037859 .LASF5189
     /tmp/cc7R4ZW9.s:108628  .debug_str:000000000004b336 .LASF5190
     /tmp/cc7R4ZW9.s:103738  .debug_str:0000000000036f61 .LASF5191
     /tmp/cc7R4ZW9.s:97408  .debug_str:000000000001cf95 .LASF5192
     /tmp/cc7R4ZW9.s:97668  .debug_str:000000000001e1b5 .LASF5193
     /tmp/cc7R4ZW9.s:99820  .debug_str:0000000000026f29 .LASF5194
     /tmp/cc7R4ZW9.s:105630  .debug_str:000000000003e865 .LASF5195
     /tmp/cc7R4ZW9.s:98444  .debug_str:000000000002178f .LASF5196
     /tmp/cc7R4ZW9.s:104614  .debug_str:000000000003a1db .LASF5197
     /tmp/cc7R4ZW9.s:103032  .debug_str:0000000000033f16 .LASF5198
     /tmp/cc7R4ZW9.s:104044  .debug_str:00000000000382e6 .LASF5199
     /tmp/cc7R4ZW9.s:107808  .debug_str:0000000000047c14 .LASF5200
     /tmp/cc7R4ZW9.s:97768  .debug_str:000000000001e8ba .LASF5201
     /tmp/cc7R4ZW9.s:105466  .debug_str:000000000003dce1 .LASF5202
     /tmp/cc7R4ZW9.s:99396  .debug_str:00000000000255ce .LASF5203
     /tmp/cc7R4ZW9.s:93546  .debug_str:000000000000d9d4 .LASF5204
     /tmp/cc7R4ZW9.s:94368  .debug_str:000000000001072f .LASF5205
     /tmp/cc7R4ZW9.s:99534  .debug_str:0000000000025d81 .LASF5206
     /tmp/cc7R4ZW9.s:90996  .debug_str:0000000000002c5e .LASF5207
     /tmp/cc7R4ZW9.s:101640  .debug_str:000000000002e30e .LASF5208
     /tmp/cc7R4ZW9.s:105536  .debug_str:000000000003e23e .LASF5209
     /tmp/cc7R4ZW9.s:100936  .debug_str:000000000002b7a4 .LASF5210
     /tmp/cc7R4ZW9.s:91176  .debug_str:000000000000379e .LASF5211
     /tmp/cc7R4ZW9.s:92780  .debug_str:000000000000a504 .LASF5212
     /tmp/cc7R4ZW9.s:104736  .debug_str:000000000003aaa7 .LASF5213
     /tmp/cc7R4ZW9.s:92018  .debug_str:000000000000718f .LASF5214
     /tmp/cc7R4ZW9.s:92922  .debug_str:000000000000aef6 .LASF5215
     /tmp/cc7R4ZW9.s:97490  .debug_str:000000000001d4dd .LASF5216
     /tmp/cc7R4ZW9.s:108856  .debug_str:000000000004c29c .LASF5217
     /tmp/cc7R4ZW9.s:109770  .debug_str:000000000005010f .LASF5218
     /tmp/cc7R4ZW9.s:106844  .debug_str:0000000000043d84 .LASF5219
     /tmp/cc7R4ZW9.s:92640  .debug_str:0000000000009c5a .LASF5220
     /tmp/cc7R4ZW9.s:103108  .debug_str:00000000000343c9 .LASF5221
     /tmp/cc7R4ZW9.s:104786  .debug_str:000000000003ae2f .LASF5222
     /tmp/cc7R4ZW9.s:108462  .debug_str:000000000004a6d7 .LASF5223
     /tmp/cc7R4ZW9.s:94406  .debug_str:000000000001095f .LASF5224
     /tmp/cc7R4ZW9.s:91312  .debug_str:000000000000413e .LASF5225
     /tmp/cc7R4ZW9.s:104616  .debug_str:000000000003a20f .LASF5226
     /tmp/cc7R4ZW9.s:105820  .debug_str:000000000003f46e .LASF5227
     /tmp/cc7R4ZW9.s:102588  .debug_str:0000000000032046 .LASF5228
     /tmp/cc7R4ZW9.s:101980  .debug_str:000000000002fa1c .LASF5229
     /tmp/cc7R4ZW9.s:93684  .debug_str:000000000000e14d .LASF5230
     /tmp/cc7R4ZW9.s:97976  .debug_str:000000000001f763 .LASF5231
     /tmp/cc7R4ZW9.s:100376  .debug_str:0000000000029433 .LASF5232
     /tmp/cc7R4ZW9.s:103678  .debug_str:0000000000036bd1 .LASF5233
     /tmp/cc7R4ZW9.s:107374  .debug_str:0000000000045fe7 .LASF5234
     /tmp/cc7R4ZW9.s:103970  .debug_str:0000000000037df9 .LASF5235
     /tmp/cc7R4ZW9.s:108050  .debug_str:0000000000048c48 .LASF5236
     /tmp/cc7R4ZW9.s:96384  .debug_str:000000000001890f .LASF5237
     /tmp/cc7R4ZW9.s:108544  .debug_str:000000000004ad13 .LASF5238
     /tmp/cc7R4ZW9.s:90754  .debug_str:0000000000001b9c .LASF5239
     /tmp/cc7R4ZW9.s:95302  .debug_str:00000000000142ee .LASF5240
     /tmp/cc7R4ZW9.s:106678  .debug_str:0000000000043222 .LASF5241
     /tmp/cc7R4ZW9.s:91546  .debug_str:0000000000005174 .LASF5242
     /tmp/cc7R4ZW9.s:106790  .debug_str:00000000000439e2 .LASF5243
     /tmp/cc7R4ZW9.s:104296  .debug_str:000000000003909b .LASF5244
     /tmp/cc7R4ZW9.s:102870  .debug_str:00000000000333d6 .LASF5245
     /tmp/cc7R4ZW9.s:108836  .debug_str:000000000004c161 .LASF5246
     /tmp/cc7R4ZW9.s:99046  .debug_str:0000000000024001 .LASF5247
     /tmp/cc7R4ZW9.s:96184  .debug_str:0000000000017cbe .LASF5248
     /tmp/cc7R4ZW9.s:108062  .debug_str:0000000000048d32 .LASF5249
     /tmp/cc7R4ZW9.s:97868  .debug_str:000000000001ef30 .LASF5250
     /tmp/cc7R4ZW9.s:92494  .debug_str:000000000000915f .LASF5251
     /tmp/cc7R4ZW9.s:106192  .debug_str:0000000000040c20 .LASF5252
     /tmp/cc7R4ZW9.s:100950  .debug_str:000000000002b889 .LASF5253
     /tmp/cc7R4ZW9.s:98812  .debug_str:0000000000023004 .LASF5254
     /tmp/cc7R4ZW9.s:91570  .debug_str:000000000000529c .LASF5255
     /tmp/cc7R4ZW9.s:91346  .debug_str:00000000000043f2 .LASF5256
     /tmp/cc7R4ZW9.s:102866  .debug_str:00000000000333a6 .LASF5257
     /tmp/cc7R4ZW9.s:97394  .debug_str:000000000001ceb0 .LASF5258
     /tmp/cc7R4ZW9.s:109632  .debug_str:000000000004f7e4 .LASF5259
     /tmp/cc7R4ZW9.s:103542  .debug_str:0000000000036257 .LASF5260
     /tmp/cc7R4ZW9.s:107872  .debug_str:00000000000480ea .LASF5261
     /tmp/cc7R4ZW9.s:103546  .debug_str:000000000003629b .LASF5262
     /tmp/cc7R4ZW9.s:98600  .debug_str:00000000000221f6 .LASF5263
     /tmp/cc7R4ZW9.s:105406  .debug_str:000000000003d899 .LASF5264
     /tmp/cc7R4ZW9.s:107466  .debug_str:0000000000046648 .LASF5265
     /tmp/cc7R4ZW9.s:97578  .debug_str:000000000001daf9 .LASF5266
     /tmp/cc7R4ZW9.s:108104  .debug_str:0000000000048fe6 .LASF5267
     /tmp/cc7R4ZW9.s:109774  .debug_str:0000000000050182 .LASF5268
     /tmp/cc7R4ZW9.s:90710  .debug_str:00000000000017ec .LASF5269
     /tmp/cc7R4ZW9.s:109050  .debug_str:000000000004d02c .LASF5270
     /tmp/cc7R4ZW9.s:96974  .debug_str:000000000001b0cc .LASF5271
     /tmp/cc7R4ZW9.s:107926  .debug_str:000000000004847d .LASF5272
     /tmp/cc7R4ZW9.s:101290  .debug_str:000000000002cd30 .LASF5273
     /tmp/cc7R4ZW9.s:93644  .debug_str:000000000000ded8 .LASF5274
     /tmp/cc7R4ZW9.s:99604  .debug_str:00000000000260bc .LASF5275
     /tmp/cc7R4ZW9.s:98500  .debug_str:0000000000021baa .LASF5276
     /tmp/cc7R4ZW9.s:104942  .debug_str:000000000003b93e .LASF5277
     /tmp/cc7R4ZW9.s:96206  .debug_str:0000000000017e2f .LASF5278
     /tmp/cc7R4ZW9.s:97642  .debug_str:000000000001dfcf .LASF5279
     /tmp/cc7R4ZW9.s:103716  .debug_str:0000000000036e6d .LASF5280
     /tmp/cc7R4ZW9.s:95794  .debug_str:000000000001618c .LASF5281
     /tmp/cc7R4ZW9.s:101446  .debug_str:000000000002d65a .LASF5282
     /tmp/cc7R4ZW9.s:101806  .debug_str:000000000002ee32 .LASF5283
     /tmp/cc7R4ZW9.s:102270  .debug_str:0000000000030cd4 .LASF5284
     /tmp/cc7R4ZW9.s:100900  .debug_str:000000000002b4ae .LASF5285
     /tmp/cc7R4ZW9.s:105738  .debug_str:000000000003eee9 .LASF5286
     /tmp/cc7R4ZW9.s:91592  .debug_str:00000000000053f2 .LASF5287
     /tmp/cc7R4ZW9.s:94520  .debug_str:0000000000010fa3 .LASF5288
     /tmp/cc7R4ZW9.s:93660  .debug_str:000000000000dfba .LASF5289
     /tmp/cc7R4ZW9.s:95026  .debug_str:0000000000013127 .LASF5290
     /tmp/cc7R4ZW9.s:92404  .debug_str:0000000000008b65 .LASF5291
     /tmp/cc7R4ZW9.s:106554  .debug_str:0000000000042a04 .LASF5292
     /tmp/cc7R4ZW9.s:90774  .debug_str:0000000000001d37 .LASF5293
     /tmp/cc7R4ZW9.s:94718  .debug_str:0000000000011c8b .LASF5294
     /tmp/cc7R4ZW9.s:100604  .debug_str:000000000002a28c .LASF5295
     /tmp/cc7R4ZW9.s:98626  .debug_str:000000000002247a .LASF5296
     /tmp/cc7R4ZW9.s:99656  .debug_str:0000000000026438 .LASF5297
     /tmp/cc7R4ZW9.s:102788  .debug_str:0000000000032e94 .LASF5298
     /tmp/cc7R4ZW9.s:96788  .debug_str:000000000001a39a .LASF5299
     /tmp/cc7R4ZW9.s:107874  .debug_str:0000000000048112 .LASF5300
     /tmp/cc7R4ZW9.s:106298  .debug_str:000000000004157e .LASF5301
     /tmp/cc7R4ZW9.s:103112  .debug_str:0000000000034425 .LASF5302
     /tmp/cc7R4ZW9.s:101904  .debug_str:000000000002f506 .LASF5303
     /tmp/cc7R4ZW9.s:102162  .debug_str:0000000000030559 .LASF5304
     /tmp/cc7R4ZW9.s:93814  .debug_str:000000000000e8aa .LASF5305
     /tmp/cc7R4ZW9.s:108606  .debug_str:000000000004b11a .LASF5306
     /tmp/cc7R4ZW9.s:97932  .debug_str:000000000001f3f9 .LASF5307
     /tmp/cc7R4ZW9.s:100152  .debug_str:00000000000283c4 .LASF5308
     /tmp/cc7R4ZW9.s:103704  .debug_str:0000000000036d9a .LASF5309
     /tmp/cc7R4ZW9.s:99708  .debug_str:0000000000026750 .LASF5310
     /tmp/cc7R4ZW9.s:93282  .debug_str:000000000000c7ee .LASF5311
     /tmp/cc7R4ZW9.s:102882  .debug_str:00000000000334ab .LASF5312
     /tmp/cc7R4ZW9.s:102662  .debug_str:00000000000325f9 .LASF5313
     /tmp/cc7R4ZW9.s:97214  .debug_str:000000000001c18c .LASF5314
     /tmp/cc7R4ZW9.s:98914  .debug_str:0000000000023772 .LASF5315
     /tmp/cc7R4ZW9.s:108624  .debug_str:000000000004b2e2 .LASF5316
     /tmp/cc7R4ZW9.s:105620  .debug_str:000000000003e7c4 .LASF5317
     /tmp/cc7R4ZW9.s:100098  .debug_str:00000000000280c3 .LASF5318
     /tmp/cc7R4ZW9.s:109296  .debug_str:000000000004e1d8 .LASF5319
     /tmp/cc7R4ZW9.s:105544  .debug_str:000000000003e2e7 .LASF5320
     /tmp/cc7R4ZW9.s:91732  .debug_str:0000000000005d49 .LASF5321
     /tmp/cc7R4ZW9.s:95724  .debug_str:0000000000015d95 .LASF5322
     /tmp/cc7R4ZW9.s:100954  .debug_str:000000000002b8ea .LASF5323
     /tmp/cc7R4ZW9.s:91562  .debug_str:0000000000005226 .LASF5324
     /tmp/cc7R4ZW9.s:98486  .debug_str:0000000000021a82 .LASF5325
     /tmp/cc7R4ZW9.s:96588  .debug_str:000000000001961b .LASF5326
     /tmp/cc7R4ZW9.s:94788  .debug_str:0000000000012154 .LASF5327
     /tmp/cc7R4ZW9.s:99100  .debug_str:00000000000243fa .LASF5328
     /tmp/cc7R4ZW9.s:101506  .debug_str:000000000002d9f0 .LASF5329
     /tmp/cc7R4ZW9.s:108618  .debug_str:000000000004b239 .LASF5330
     /tmp/cc7R4ZW9.s:106556  .debug_str:0000000000042a2a .LASF5331
     /tmp/cc7R4ZW9.s:92872  .debug_str:000000000000ab69 .LASF5332
     /tmp/cc7R4ZW9.s:100504  .debug_str:0000000000029bc9 .LASF5333
     /tmp/cc7R4ZW9.s:108446  .debug_str:000000000004a5f7 .LASF5334
     /tmp/cc7R4ZW9.s:98680  .debug_str:000000000002276c .LASF5335
     /tmp/cc7R4ZW9.s:95894  .debug_str:00000000000167f9 .LASF5336
     /tmp/cc7R4ZW9.s:94930  .debug_str:0000000000012a9f .LASF5337
     /tmp/cc7R4ZW9.s:104504  .debug_str:0000000000039c25 .LASF5338
     /tmp/cc7R4ZW9.s:107248  .debug_str:000000000004576c .LASF5339
     /tmp/cc7R4ZW9.s:106796  .debug_str:0000000000043a4f .LASF5340
     /tmp/cc7R4ZW9.s:104982  .debug_str:000000000003bb7a .LASF5341
     /tmp/cc7R4ZW9.s:107616  .debug_str:0000000000046f64 .LASF5342
     /tmp/cc7R4ZW9.s:103272  .debug_str:0000000000034f22 .LASF5343
     /tmp/cc7R4ZW9.s:95206  .debug_str:0000000000013d22 .LASF5344
     /tmp/cc7R4ZW9.s:92636  .debug_str:0000000000009c0c .LASF5345
     /tmp/cc7R4ZW9.s:107614  .debug_str:0000000000046f3d .LASF5346
     /tmp/cc7R4ZW9.s:106070  .debug_str:00000000000403ed .LASF5347
     /tmp/cc7R4ZW9.s:102644  .debug_str:0000000000032441 .LASF5348
     /tmp/cc7R4ZW9.s:92690  .debug_str:0000000000009f24 .LASF5349
     /tmp/cc7R4ZW9.s:101996  .debug_str:000000000002faff .LASF5350
     /tmp/cc7R4ZW9.s:105540  .debug_str:000000000003e2a9 .LASF5351
     /tmp/cc7R4ZW9.s:108430  .debug_str:000000000004a554 .LASF5352
     /tmp/cc7R4ZW9.s:104422  .debug_str:0000000000039763 .LASF5353
     /tmp/cc7R4ZW9.s:94572  .debug_str:000000000001136d .LASF5354
     /tmp/cc7R4ZW9.s:99158  .debug_str:0000000000024819 .LASF5355
     /tmp/cc7R4ZW9.s:97082  .debug_str:000000000001b7ba .LASF5356
     /tmp/cc7R4ZW9.s:98828  .debug_str:00000000000230e7 .LASF5357
     /tmp/cc7R4ZW9.s:92318  .debug_str:0000000000008533 .LASF5358
     /tmp/cc7R4ZW9.s:107448  .debug_str:00000000000464e1 .LASF5359
     /tmp/cc7R4ZW9.s:93186  .debug_str:000000000000c208 .LASF5360
     /tmp/cc7R4ZW9.s:107920  .debug_str:0000000000048408 .LASF5361
     /tmp/cc7R4ZW9.s:99434  .debug_str:0000000000025814 .LASF5362
     /tmp/cc7R4ZW9.s:98494  .debug_str:0000000000021b54 .LASF5363
     /tmp/cc7R4ZW9.s:94768  .debug_str:0000000000011faf .LASF5364
     /tmp/cc7R4ZW9.s:104730  .debug_str:000000000003aa36 .LASF5365
     /tmp/cc7R4ZW9.s:101598  .debug_str:000000000002e007 .LASF5366
     /tmp/cc7R4ZW9.s:104844  .debug_str:000000000003b260 .LASF5367
     /tmp/cc7R4ZW9.s:109290  .debug_str:000000000004e16b .LASF5368
     /tmp/cc7R4ZW9.s:102306  .debug_str:0000000000030f1d .LASF5369
     /tmp/cc7R4ZW9.s:93018  .debug_str:000000000000b5fb .LASF5370
     /tmp/cc7R4ZW9.s:99660  .debug_str:0000000000026482 .LASF5371
     /tmp/cc7R4ZW9.s:107106  .debug_str:0000000000044e5d .LASF5372
     /tmp/cc7R4ZW9.s:108644  .debug_str:000000000004b43b .LASF5373
     /tmp/cc7R4ZW9.s:98104  .debug_str:0000000000020096 .LASF5374
     /tmp/cc7R4ZW9.s:106460  .debug_str:00000000000422ea .LASF5375
     /tmp/cc7R4ZW9.s:96296  .debug_str:0000000000018342 .LASF5376
     /tmp/cc7R4ZW9.s:103910  .debug_str:0000000000037af5 .LASF5377
     /tmp/cc7R4ZW9.s:93108  .debug_str:000000000000bc59 .LASF5378
     /tmp/cc7R4ZW9.s:91992  .debug_str:0000000000006fd0 .LASF5379
     /tmp/cc7R4ZW9.s:98520  .debug_str:0000000000021d38 .LASF5380
     /tmp/cc7R4ZW9.s:103502  .debug_str:0000000000036005 .LASF5381
     /tmp/cc7R4ZW9.s:94914  .debug_str:0000000000012950 .LASF5382
     /tmp/cc7R4ZW9.s:104392  .debug_str:00000000000395df .LASF5383
     /tmp/cc7R4ZW9.s:100614  .debug_str:000000000002a335 .LASF5384
     /tmp/cc7R4ZW9.s:105052  .debug_str:000000000003c0a5 .LASF5385
     /tmp/cc7R4ZW9.s:100560  .debug_str:0000000000029f67 .LASF5386
     /tmp/cc7R4ZW9.s:102376  .debug_str:0000000000031330 .LASF5387
     /tmp/cc7R4ZW9.s:92618  .debug_str:0000000000009a5a .LASF5388
     /tmp/cc7R4ZW9.s:94950  .debug_str:0000000000012bf3 .LASF5389
     /tmp/cc7R4ZW9.s:101060  .debug_str:000000000002bef2 .LASF5390
     /tmp/cc7R4ZW9.s:106940  .debug_str:0000000000044371 .LASF5391
     /tmp/cc7R4ZW9.s:93648  .debug_str:000000000000df0f .LASF5392
     /tmp/cc7R4ZW9.s:99798  .debug_str:0000000000026d4d .LASF5393
     /tmp/cc7R4ZW9.s:103578  .debug_str:0000000000036509 .LASF5394
     /tmp/cc7R4ZW9.s:92310  .debug_str:00000000000084af .LASF5395
     /tmp/cc7R4ZW9.s:93988  .debug_str:000000000000f19c .LASF5396
     /tmp/cc7R4ZW9.s:92278  .debug_str:000000000000824d .LASF5397
     /tmp/cc7R4ZW9.s:95018  .debug_str:000000000001309b .LASF5398
     /tmp/cc7R4ZW9.s:97254  .debug_str:000000000001c407 .LASF5399
     /tmp/cc7R4ZW9.s:99034  .debug_str:0000000000023f35 .LASF5400
     /tmp/cc7R4ZW9.s:91210  .debug_str:00000000000039fb .LASF5401
     /tmp/cc7R4ZW9.s:103176  .debug_str:00000000000347b0 .LASF5402
     /tmp/cc7R4ZW9.s:107986  .debug_str:0000000000048864 .LASF5403
     /tmp/cc7R4ZW9.s:109334  .debug_str:000000000004e420 .LASF5404
     /tmp/cc7R4ZW9.s:100060  .debug_str:0000000000027e55 .LASF5405
     /tmp/cc7R4ZW9.s:91328  .debug_str:0000000000004266 .LASF5406
     /tmp/cc7R4ZW9.s:91892  .debug_str:00000000000067ef .LASF5407
     /tmp/cc7R4ZW9.s:105310  .debug_str:000000000003d245 .LASF5408
     /tmp/cc7R4ZW9.s:102682  .debug_str:0000000000032742 .LASF5409
     /tmp/cc7R4ZW9.s:100632  .debug_str:000000000002a4b0 .LASF5410
     /tmp/cc7R4ZW9.s:99320  .debug_str:00000000000251b5 .LASF5411
     /tmp/cc7R4ZW9.s:91136  .debug_str:0000000000003544 .LASF5412
     /tmp/cc7R4ZW9.s:95038  .debug_str:0000000000013243 .LASF5413
     /tmp/cc7R4ZW9.s:101376  .debug_str:000000000002d227 .LASF5414
     /tmp/cc7R4ZW9.s:95254  .debug_str:0000000000013ff5 .LASF5415
     /tmp/cc7R4ZW9.s:95938  .debug_str:0000000000016b31 .LASF5416
     /tmp/cc7R4ZW9.s:95850  .debug_str:0000000000016541 .LASF5417
     /tmp/cc7R4ZW9.s:97022  .debug_str:000000000001b3d6 .LASF5418
     /tmp/cc7R4ZW9.s:101282  .debug_str:000000000002cc6b .LASF5419
     /tmp/cc7R4ZW9.s:100088  .debug_str:0000000000027fe8 .LASF5420
     /tmp/cc7R4ZW9.s:95172  .debug_str:0000000000013af9 .LASF5421
     /tmp/cc7R4ZW9.s:103282  .debug_str:0000000000034fa0 .LASF5422
     /tmp/cc7R4ZW9.s:104384  .debug_str:0000000000039558 .LASF5423
     /tmp/cc7R4ZW9.s:99266  .debug_str:0000000000024ec4 .LASF5424
     /tmp/cc7R4ZW9.s:102116  .debug_str:00000000000302a6 .LASF5425
     /tmp/cc7R4ZW9.s:91886  .debug_str:000000000000679d .LASF5426
     /tmp/cc7R4ZW9.s:103146  .debug_str:000000000003463e .LASF5427
     /tmp/cc7R4ZW9.s:91614  .debug_str:0000000000005595 .LASF5428
     /tmp/cc7R4ZW9.s:97686  .debug_str:000000000001e2d2 .LASF5429
     /tmp/cc7R4ZW9.s:107940  .debug_str:0000000000048566 .LASF5430
     /tmp/cc7R4ZW9.s:105388  .debug_str:000000000003d737 .LASF5431
     /tmp/cc7R4ZW9.s:97298  .debug_str:000000000001c79f .LASF5432
     /tmp/cc7R4ZW9.s:95914  .debug_str:0000000000016960 .LASF5433
     /tmp/cc7R4ZW9.s:103796  .debug_str:0000000000037389 .LASF5434
     /tmp/cc7R4ZW9.s:107882  .debug_str:000000000004818f .LASF5435
     /tmp/cc7R4ZW9.s:93070  .debug_str:000000000000b9a4 .LASF5436
     /tmp/cc7R4ZW9.s:102088  .debug_str:0000000000030106 .LASF5437
     /tmp/cc7R4ZW9.s:90568  .debug_str:0000000000000dfc .LASF5438
     /tmp/cc7R4ZW9.s:108878  .debug_str:000000000004c405 .LASF5439
     /tmp/cc7R4ZW9.s:94472  .debug_str:0000000000010cf6 .LASF5440
     /tmp/cc7R4ZW9.s:93152  .debug_str:000000000000bfc8 .LASF5441
     /tmp/cc7R4ZW9.s:99950  .debug_str:00000000000276b2 .LASF5442
     /tmp/cc7R4ZW9.s:96144  .debug_str:0000000000017997 .LASF5443
     /tmp/cc7R4ZW9.s:91474  .debug_str:0000000000004c85 .LASF5444
     /tmp/cc7R4ZW9.s:91458  .debug_str:0000000000004b90 .LASF5445
     /tmp/cc7R4ZW9.s:97398  .debug_str:000000000001cee3 .LASF5446
     /tmp/cc7R4ZW9.s:102962  .debug_str:0000000000033a4a .LASF5447
     /tmp/cc7R4ZW9.s:107384  .debug_str:000000000004609e .LASF5448
     /tmp/cc7R4ZW9.s:97918  .debug_str:000000000001f2df .LASF5449
     /tmp/cc7R4ZW9.s:95574  .debug_str:00000000000153df .LASF5450
     /tmp/cc7R4ZW9.s:100478  .debug_str:0000000000029a63 .LASF5451
     /tmp/cc7R4ZW9.s:96148  .debug_str:00000000000179f8 .LASF5452
     /tmp/cc7R4ZW9.s:104698  .debug_str:000000000003a7ec .LASF5453
     /tmp/cc7R4ZW9.s:108484  .debug_str:000000000004a848 .LASF5454
     /tmp/cc7R4ZW9.s:106982  .debug_str:000000000004462e .LASF5455
     /tmp/cc7R4ZW9.s:99964  .debug_str:000000000002776a .LASF5456
     /tmp/cc7R4ZW9.s:97308  .debug_str:000000000001c863 .LASF5457
     /tmp/cc7R4ZW9.s:103406  .debug_str:00000000000358ca .LASF5458
     /tmp/cc7R4ZW9.s:108158  .debug_str:0000000000049384 .LASF5459
     /tmp/cc7R4ZW9.s:109016  .debug_str:000000000004cd60 .LASF5460
     /tmp/cc7R4ZW9.s:98084  .debug_str:000000000001feb0 .LASF5461
     /tmp/cc7R4ZW9.s:104168  .debug_str:0000000000038a8c .LASF5462
     /tmp/cc7R4ZW9.s:99040  .debug_str:0000000000023f91 .LASF5463
     /tmp/cc7R4ZW9.s:97594  .debug_str:000000000001dc4f .LASF5464
     /tmp/cc7R4ZW9.s:108672  .debug_str:000000000004b63a .LASF5465
     /tmp/cc7R4ZW9.s:109356  .debug_str:000000000004e5da .LASF5466
     /tmp/cc7R4ZW9.s:109302  .debug_str:000000000004e22a .LASF5467
     /tmp/cc7R4ZW9.s:100386  .debug_str:00000000000294db .LASF5468
     /tmp/cc7R4ZW9.s:100172  .debug_str:000000000002853c .LASF5469
     /tmp/cc7R4ZW9.s:100624  .debug_str:000000000002a3d6 .LASF5470
     /tmp/cc7R4ZW9.s:109236  .debug_str:000000000004dce3 .LASF5471
     /tmp/cc7R4ZW9.s:97428  .debug_str:000000000001d0e8 .LASF5472
     /tmp/cc7R4ZW9.s:98362  .debug_str:000000000002120a .LASF5473
     /tmp/cc7R4ZW9.s:99228  .debug_str:0000000000024b80 .LASF5474
     /tmp/cc7R4ZW9.s:103310  .debug_str:0000000000035181 .LASF5475
     /tmp/cc7R4ZW9.s:100964  .debug_str:000000000002b98f .LASF5476
     /tmp/cc7R4ZW9.s:96558  .debug_str:000000000001935d .LASF5477
     /tmp/cc7R4ZW9.s:101678  .debug_str:000000000002e542 .LASF5478
     /tmp/cc7R4ZW9.s:98816  .debug_str:0000000000023043 .LASF5479
     /tmp/cc7R4ZW9.s:105904  .debug_str:000000000003f9e9 .LASF5480
     /tmp/cc7R4ZW9.s:105422  .debug_str:000000000003d996 .LASF5481
     /tmp/cc7R4ZW9.s:94478  .debug_str:0000000000010d9c .LASF5482
     /tmp/cc7R4ZW9.s:93102  .debug_str:000000000000bbe6 .LASF5483
     /tmp/cc7R4ZW9.s:105122  .debug_str:000000000003c64f .LASF5484
     /tmp/cc7R4ZW9.s:95270  .debug_str:00000000000140f1 .LASF5485
     /tmp/cc7R4ZW9.s:102234  .debug_str:0000000000030a65 .LASF5486
     /tmp/cc7R4ZW9.s:100754  .debug_str:000000000002abdb .LASF5487
     /tmp/cc7R4ZW9.s:105464  .debug_str:000000000003dcbf .LASF5488
     /tmp/cc7R4ZW9.s:103782  .debug_str:0000000000037272 .LASF5489
     /tmp/cc7R4ZW9.s:103956  .debug_str:0000000000037d16 .LASF5490
     /tmp/cc7R4ZW9.s:101104  .debug_str:000000000002c21e .LASF5491
     /tmp/cc7R4ZW9.s:107018  .debug_str:00000000000448b8 .LASF5492
     /tmp/cc7R4ZW9.s:107688  .debug_str:000000000004742f .LASF5493
     /tmp/cc7R4ZW9.s:102802  .debug_str:0000000000032f98 .LASF5494
     /tmp/cc7R4ZW9.s:94058  .debug_str:000000000000f5e9 .LASF5495
     /tmp/cc7R4ZW9.s:106376  .debug_str:0000000000041a9b .LASF5496
     /tmp/cc7R4ZW9.s:109006  .debug_str:000000000004ccac .LASF5497
     /tmp/cc7R4ZW9.s:99750  .debug_str:0000000000026a64 .LASF5498
     /tmp/cc7R4ZW9.s:96524  .debug_str:0000000000019155 .LASF5499
     /tmp/cc7R4ZW9.s:104478  .debug_str:0000000000039a29 .LASF5500
     /tmp/cc7R4ZW9.s:108954  .debug_str:000000000004c8f0 .LASF5501
     /tmp/cc7R4ZW9.s:96072  .debug_str:0000000000017427 .LASF5502
     /tmp/cc7R4ZW9.s:91028  .debug_str:0000000000002e7d .LASF5503
     /tmp/cc7R4ZW9.s:100226  .debug_str:0000000000028958 .LASF5504
     /tmp/cc7R4ZW9.s:109400  .debug_str:000000000004e91b .LASF5505
     /tmp/cc7R4ZW9.s:92160  .debug_str:0000000000007ad5 .LASF5506
     /tmp/cc7R4ZW9.s:102542  .debug_str:0000000000031d60 .LASF5507
     /tmp/cc7R4ZW9.s:91276  .debug_str:0000000000003e82 .LASF5508
     /tmp/cc7R4ZW9.s:101728  .debug_str:000000000002e8ef .LASF5509
     /tmp/cc7R4ZW9.s:106694  .debug_str:0000000000043322 .LASF5510
     /tmp/cc7R4ZW9.s:106894  .debug_str:000000000004407c .LASF5511
     /tmp/cc7R4ZW9.s:106132  .debug_str:00000000000407b9 .LASF5512
     /tmp/cc7R4ZW9.s:92596  .debug_str:0000000000009882 .LASF5513
     /tmp/cc7R4ZW9.s:90764  .debug_str:0000000000001c8e .LASF5514
     /tmp/cc7R4ZW9.s:97212  .debug_str:000000000001c162 .LASF5515
     /tmp/cc7R4ZW9.s:109282  .debug_str:000000000004e0cb .LASF5516
     /tmp/cc7R4ZW9.s:104000  .debug_str:00000000000380b9 .LASF5517
     /tmp/cc7R4ZW9.s:99928  .debug_str:00000000000274f2 .LASF5518
     /tmp/cc7R4ZW9.s:106044  .debug_str:0000000000040247 .LASF5519
     /tmp/cc7R4ZW9.s:91306  .debug_str:00000000000040cc .LASF5520
     /tmp/cc7R4ZW9.s:106450  .debug_str:0000000000042266 .LASF5521
     /tmp/cc7R4ZW9.s:98396  .debug_str:0000000000021466 .LASF5522
     /tmp/cc7R4ZW9.s:98096  .debug_str:000000000001ffe8 .LASF5523
     /tmp/cc7R4ZW9.s:105908  .debug_str:000000000003fa3c .LASF5524
     /tmp/cc7R4ZW9.s:102696  .debug_str:0000000000032832 .LASF5525
     /tmp/cc7R4ZW9.s:107540  .debug_str:0000000000046a73 .LASF5526
     /tmp/cc7R4ZW9.s:93542  .debug_str:000000000000d993 .LASF5527
     /tmp/cc7R4ZW9.s:104268  .debug_str:0000000000038fec .LASF5528
     /tmp/cc7R4ZW9.s:103456  .debug_str:0000000000035c44 .LASF5529
     /tmp/cc7R4ZW9.s:96912  .debug_str:000000000001acfc .LASF5530
     /tmp/cc7R4ZW9.s:94198  .debug_str:000000000000fe40 .LASF5531
     /tmp/cc7R4ZW9.s:95046  .debug_str:0000000000013339 .LASF5532
     /tmp/cc7R4ZW9.s:97236  .debug_str:000000000001c2b7 .LASF5533
     /tmp/cc7R4ZW9.s:93492  .debug_str:000000000000d64b .LASF5534
     /tmp/cc7R4ZW9.s:94306  .debug_str:00000000000103e1 .LASF5535
     /tmp/cc7R4ZW9.s:98514  .debug_str:0000000000021ca5 .LASF5536
     /tmp/cc7R4ZW9.s:96344  .debug_str:0000000000018677 .LASF5537
     /tmp/cc7R4ZW9.s:96604  .debug_str:000000000001971d .LASF5538
     /tmp/cc7R4ZW9.s:103482  .debug_str:0000000000035e98 .LASF5539
     /tmp/cc7R4ZW9.s:107204  .debug_str:0000000000045459 .LASF5540
     /tmp/cc7R4ZW9.s:108180  .debug_str:00000000000494ee .LASF5541
     /tmp/cc7R4ZW9.s:96706  .debug_str:0000000000019ded .LASF5542
     /tmp/cc7R4ZW9.s:100422  .debug_str:000000000002967c .LASF5543
     /tmp/cc7R4ZW9.s:91358  .debug_str:00000000000044e6 .LASF5544
     /tmp/cc7R4ZW9.s:108428  .debug_str:000000000004a53f .LASF5545
     /tmp/cc7R4ZW9.s:103210  .debug_str:0000000000034a7b .LASF5546
     /tmp/cc7R4ZW9.s:108604  .debug_str:000000000004b0eb .LASF5547
     /tmp/cc7R4ZW9.s:100780  .debug_str:000000000002ad31 .LASF5548
     /tmp/cc7R4ZW9.s:98636  .debug_str:0000000000022551 .LASF5549
     /tmp/cc7R4ZW9.s:107318  .debug_str:0000000000045c76 .LASF5550
     /tmp/cc7R4ZW9.s:98684  .debug_str:00000000000227ad .LASF5551
     /tmp/cc7R4ZW9.s:102954  .debug_str:00000000000339cd .LASF5552
     /tmp/cc7R4ZW9.s:103344  .debug_str:0000000000035427 .LASF5553
     /tmp/cc7R4ZW9.s:93450  .debug_str:000000000000d3ed .LASF5554
     /tmp/cc7R4ZW9.s:109544  .debug_str:000000000004f269 .LASF5556
     /tmp/cc7R4ZW9.s:93336  .debug_str:000000000000cc1a .LASF5557
     /tmp/cc7R4ZW9.s:98256  .debug_str:0000000000020b9a .LASF5558
     /tmp/cc7R4ZW9.s:93464  .debug_str:000000000000d4b4 .LASF5559
     /tmp/cc7R4ZW9.s:100872  .debug_str:000000000002b318 .LASF5560
     /tmp/cc7R4ZW9.s:101356  .debug_str:000000000002d117 .LASF5561
     /tmp/cc7R4ZW9.s:95474  .debug_str:0000000000014d9f .LASF5562
     /tmp/cc7R4ZW9.s:94230  .debug_str:000000000001002e .LASF5563
     /tmp/cc7R4ZW9.s:100008  .debug_str:0000000000027aae .LASF5564
     /tmp/cc7R4ZW9.s:105762  .debug_str:000000000003f08d .LASF5565
     /tmp/cc7R4ZW9.s:101780  .debug_str:000000000002ecbd .LASF5566
     /tmp/cc7R4ZW9.s:96602  .debug_str:0000000000019704 .LASF5567
     /tmp/cc7R4ZW9.s:105732  .debug_str:000000000003ee73 .LASF5568
     /tmp/cc7R4ZW9.s:96320  .debug_str:0000000000018506 .LASF5569
     /tmp/cc7R4ZW9.s:103510  .debug_str:000000000003609c .LASF5570
     /tmp/cc7R4ZW9.s:100292  .debug_str:0000000000028df4 .LASF5571
     /tmp/cc7R4ZW9.s:108526  .debug_str:000000000004ac2b .LASF5572
     /tmp/cc7R4ZW9.s:96122  .debug_str:000000000001781f .LASF5573
     /tmp/cc7R4ZW9.s:107824  .debug_str:0000000000047d6a .LASF5574
     /tmp/cc7R4ZW9.s:93254  .debug_str:000000000000c636 .LASF5575
     /tmp/cc7R4ZW9.s:90422  .debug_str:000000000000041f .LASF5576
     /tmp/cc7R4ZW9.s:97386  .debug_str:000000000001ce09 .LASF5577
     /tmp/cc7R4ZW9.s:92586  .debug_str:00000000000097e8 .LASF5578
     /tmp/cc7R4ZW9.s:105102  .debug_str:000000000003c47e .LASF5579
     /tmp/cc7R4ZW9.s:106346  .debug_str:00000000000418ea .LASF5580
     /tmp/cc7R4ZW9.s:97384  .debug_str:000000000001cde9 .LASF5581
     /tmp/cc7R4ZW9.s:104212  .debug_str:0000000000038ca4 .LASF5582
     /tmp/cc7R4ZW9.s:98246  .debug_str:0000000000020aef .LASF5583
     /tmp/cc7R4ZW9.s:103992  .debug_str:0000000000038000 .LASF5584
     /tmp/cc7R4ZW9.s:104932  .debug_str:000000000003b879 .LASF5585
     /tmp/cc7R4ZW9.s:91076  .debug_str:00000000000031bd .LASF5586
     /tmp/cc7R4ZW9.s:92670  .debug_str:0000000000009e54 .LASF5587
     /tmp/cc7R4ZW9.s:104406  .debug_str:00000000000396a5 .LASF5588
     /tmp/cc7R4ZW9.s:106040  .debug_str:000000000004020e .LASF5589
     /tmp/cc7R4ZW9.s:102838  .debug_str:00000000000331d0 .LASF5590
     /tmp/cc7R4ZW9.s:101142  .debug_str:000000000002c44c .LASF5591
     /tmp/cc7R4ZW9.s:106686  .debug_str:00000000000432a7 .LASF5592
     /tmp/cc7R4ZW9.s:105688  .debug_str:000000000003eca4 .LASF5593
     /tmp/cc7R4ZW9.s:109004  .debug_str:000000000004cc90 .LASF5594
     /tmp/cc7R4ZW9.s:97108  .debug_str:000000000001b9a4 .LASF5595
     /tmp/cc7R4ZW9.s:95090  .debug_str:0000000000013660 .LASF5596
     /tmp/cc7R4ZW9.s:91496  .debug_str:0000000000004e59 .LASF5597
     /tmp/cc7R4ZW9.s:101384  .debug_str:000000000002d2b9 .LASF5598
     /tmp/cc7R4ZW9.s:102956  .debug_str:00000000000339f1 .LASF5599
     /tmp/cc7R4ZW9.s:93670  .debug_str:000000000000e0a4 .LASF5600
     /tmp/cc7R4ZW9.s:98870  .debug_str:00000000000233b8 .LASF5601
     /tmp/cc7R4ZW9.s:101182  .debug_str:000000000002c654 .LASF5602
     /tmp/cc7R4ZW9.s:106288  .debug_str:00000000000414b1 .LASF5603
     /tmp/cc7R4ZW9.s:92578  .debug_str:000000000000973a .LASF5604
     /tmp/cc7R4ZW9.s:104782  .debug_str:000000000003ade8 .LASF5605
     /tmp/cc7R4ZW9.s:98360  .debug_str:00000000000211e9 .LASF5606
     /tmp/cc7R4ZW9.s:92418  .debug_str:0000000000008bfb .LASF5607
     /tmp/cc7R4ZW9.s:109022  .debug_str:000000000004cde7 .LASF5608
     /tmp/cc7R4ZW9.s:104558  .debug_str:0000000000039ef7 .LASF5609
     /tmp/cc7R4ZW9.s:96882  .debug_str:000000000001aa61 .LASF5610
     /tmp/cc7R4ZW9.s:103774  .debug_str:00000000000371ea .LASF5611
     /tmp/cc7R4ZW9.s:92492  .debug_str:0000000000009145 .LASF5612
     /tmp/cc7R4ZW9.s:90374  .debug_str:00000000000000af .LASF5613
     /tmp/cc7R4ZW9.s:102860  .debug_str:000000000003333a .LASF5614
     /tmp/cc7R4ZW9.s:94870  .debug_str:0000000000012680 .LASF5615
     /tmp/cc7R4ZW9.s:98156  .debug_str:000000000002042d .LASF5616
     /tmp/cc7R4ZW9.s:100216  .debug_str:00000000000288a2 .LASF5617
     /tmp/cc7R4ZW9.s:107984  .debug_str:0000000000048826 .LASF5618
     /tmp/cc7R4ZW9.s:108820  .debug_str:000000000004c03e .LASF5619
     /tmp/cc7R4ZW9.s:101514  .debug_str:000000000002da65 .LASF5620
     /tmp/cc7R4ZW9.s:91952  .debug_str:0000000000006c1f .LASF5621
     /tmp/cc7R4ZW9.s:103126  .debug_str:000000000003453d .LASF5622
     /tmp/cc7R4ZW9.s:94130  .debug_str:000000000000f9eb .LASF5623
     /tmp/cc7R4ZW9.s:108626  .debug_str:000000000004b30b .LASF5624
     /tmp/cc7R4ZW9.s:92510  .debug_str:0000000000009234 .LASF5625
     /tmp/cc7R4ZW9.s:91054  .debug_str:0000000000003076 .LASF5626
     /tmp/cc7R4ZW9.s:90500  .debug_str:000000000000098f .LASF5627
     /tmp/cc7R4ZW9.s:101610  .debug_str:000000000002e0df .LASF5628
     /tmp/cc7R4ZW9.s:92648  .debug_str:0000000000009cf7 .LASF5629
     /tmp/cc7R4ZW9.s:98744  .debug_str:0000000000022b8f .LASF5630
     /tmp/cc7R4ZW9.s:92874  .debug_str:000000000000ab97 .LASF5631
     /tmp/cc7R4ZW9.s:101412  .debug_str:000000000002d479 .LASF5632
     /tmp/cc7R4ZW9.s:105880  .debug_str:000000000003f7fc .LASF5633
     /tmp/cc7R4ZW9.s:92070  .debug_str:00000000000074ec .LASF5634
     /tmp/cc7R4ZW9.s:97306  .debug_str:000000000001c84d .LASF5635
     /tmp/cc7R4ZW9.s:93250  .debug_str:000000000000c5c5 .LASF5636
     /tmp/cc7R4ZW9.s:101048  .debug_str:000000000002bdb9 .LASF5637
     /tmp/cc7R4ZW9.s:106784  .debug_str:0000000000043968 .LASF5638
     /tmp/cc7R4ZW9.s:96860  .debug_str:000000000001a856 .LASF5639
     /tmp/cc7R4ZW9.s:108556  .debug_str:000000000004ae11 .LASF5640
     /tmp/cc7R4ZW9.s:100326  .debug_str:000000000002905f .LASF5641
     /tmp/cc7R4ZW9.s:93772  .debug_str:000000000000e70a .LASF5642
     /tmp/cc7R4ZW9.s:102922  .debug_str:00000000000337cb .LASF5643
     /tmp/cc7R4ZW9.s:103006  .debug_str:0000000000033d6d .LASF5644
     /tmp/cc7R4ZW9.s:101156  .debug_str:000000000002c4ee .LASF5645
     /tmp/cc7R4ZW9.s:99356  .debug_str:00000000000253af .LASF5646
     /tmp/cc7R4ZW9.s:101382  .debug_str:000000000002d28d .LASF5647
     /tmp/cc7R4ZW9.s:108802  .debug_str:000000000004befe .LASF5648
     /tmp/cc7R4ZW9.s:100288  .debug_str:0000000000028d9e .LASF5649
     /tmp/cc7R4ZW9.s:105806  .debug_str:000000000003f35a .LASF5650
     /tmp/cc7R4ZW9.s:105288  .debug_str:000000000003d0e3 .LASF5651
     /tmp/cc7R4ZW9.s:103598  .debug_str:000000000003663e .LASF5652
     /tmp/cc7R4ZW9.s:98176  .debug_str:00000000000205aa .LASF5653
     /tmp/cc7R4ZW9.s:100452  .debug_str:000000000002985a .LASF5654
     /tmp/cc7R4ZW9.s:98898  .debug_str:00000000000235b0 .LASF5655
     /tmp/cc7R4ZW9.s:91854  .debug_str:0000000000006548 .LASF5656
     /tmp/cc7R4ZW9.s:106614  .debug_str:0000000000042e12 .LASF5657
     /tmp/cc7R4ZW9.s:90896  .debug_str:00000000000025a8 .LASF5658
     /tmp/cc7R4ZW9.s:98502  .debug_str:0000000000021bd9 .LASF5659
     /tmp/cc7R4ZW9.s:90492  .debug_str:0000000000000914 .LASF5660
     /tmp/cc7R4ZW9.s:94924  .debug_str:0000000000012a26 .LASF5661
     /tmp/cc7R4ZW9.s:92830  .debug_str:000000000000a8de .LASF5662
     /tmp/cc7R4ZW9.s:107174  .debug_str:00000000000452d7 .LASF5663
     /tmp/cc7R4ZW9.s:108560  .debug_str:000000000004ae8a .LASF5664
     /tmp/cc7R4ZW9.s:97048  .debug_str:000000000001b599 .LASF5665
     /tmp/cc7R4ZW9.s:103408  .debug_str:0000000000035903 .LASF5666
     /tmp/cc7R4ZW9.s:98110  .debug_str:000000000002011d .LASF5667
     /tmp/cc7R4ZW9.s:98868  .debug_str:000000000002338c .LASF5668
     /tmp/cc7R4ZW9.s:105786  .debug_str:000000000003f242 .LASF5669
     /tmp/cc7R4ZW9.s:91804  .debug_str:00000000000061fa .LASF5670
     /tmp/cc7R4ZW9.s:98926  .debug_str:0000000000023822 .LASF5671
     /tmp/cc7R4ZW9.s:105998  .debug_str:000000000003ff96 .LASF5672
     /tmp/cc7R4ZW9.s:93422  .debug_str:000000000000d1e8 .LASF5673
     /tmp/cc7R4ZW9.s:95808  .debug_str:000000000001621a .LASF5674
     /tmp/cc7R4ZW9.s:94714  .debug_str:0000000000011c34 .LASF5675
     /tmp/cc7R4ZW9.s:100024  .debug_str:0000000000027bc0 .LASF5676
     /tmp/cc7R4ZW9.s:94774  .debug_str:0000000000012031 .LASF5677
     /tmp/cc7R4ZW9.s:96174  .debug_str:0000000000017bb9 .LASF5678
     /tmp/cc7R4ZW9.s:100654  .debug_str:000000000002a5d7 .LASF5679
     /tmp/cc7R4ZW9.s:91194  .debug_str:000000000000390f .LASF5680
     /tmp/cc7R4ZW9.s:104702  .debug_str:000000000003a831 .LASF5681
     /tmp/cc7R4ZW9.s:94132  .debug_str:000000000000fa0c .LASF5682
     /tmp/cc7R4ZW9.s:92978  .debug_str:000000000000b308 .LASF5683
     /tmp/cc7R4ZW9.s:99190  .debug_str:00000000000249e4 .LASF5684
     /tmp/cc7R4ZW9.s:92656  .debug_str:0000000000009d79 .LASF5685
     /tmp/cc7R4ZW9.s:95406  .debug_str:00000000000149f7 .LASF5686
     /tmp/cc7R4ZW9.s:109234  .debug_str:000000000004dcc6 .LASF5687
     /tmp/cc7R4ZW9.s:106032  .debug_str:00000000000401a1 .LASF5688
     /tmp/cc7R4ZW9.s:93256  .debug_str:000000000000c671 .LASF5689
     /tmp/cc7R4ZW9.s:92828  .debug_str:000000000000a8cf .LASF5690
     /tmp/cc7R4ZW9.s:98612  .debug_str:00000000000222d3 .LASF5691
     /tmp/cc7R4ZW9.s:92570  .debug_str:00000000000096d2 .LASF5692
     /tmp/cc7R4ZW9.s:92738  .debug_str:000000000000a2dc .LASF5693
     /tmp/cc7R4ZW9.s:99032  .debug_str:0000000000023f14 .LASF5694
     /tmp/cc7R4ZW9.s:109158  .debug_str:000000000004d6ad .LASF5695
     /tmp/cc7R4ZW9.s:94626  .debug_str:0000000000011646 .LASF5696
     /tmp/cc7R4ZW9.s:97676  .debug_str:000000000001e253 .LASF5697
     /tmp/cc7R4ZW9.s:103756  .debug_str:00000000000370ae .LASF5698
     /tmp/cc7R4ZW9.s:94126  .debug_str:000000000000f9a2 .LASF5699
     /tmp/cc7R4ZW9.s:97864  .debug_str:000000000001eecb .LASF5700
     /tmp/cc7R4ZW9.s:97348  .debug_str:000000000001cb60 .LASF5701
     /tmp/cc7R4ZW9.s:105644  .debug_str:000000000003e983 .LASF5702
     /tmp/cc7R4ZW9.s:91190  .debug_str:00000000000038b3 .LASF5703
     /tmp/cc7R4ZW9.s:91772  .debug_str:0000000000005ff0 .LASF5704
     /tmp/cc7R4ZW9.s:108704  .debug_str:000000000004b897 .LASF5705
     /tmp/cc7R4ZW9.s:92440  .debug_str:0000000000008db5 .LASF5706
     /tmp/cc7R4ZW9.s:103256  .debug_str:0000000000034e9b .LASF5707
     /tmp/cc7R4ZW9.s:95118  .debug_str:0000000000013796 .LASF5708
     /tmp/cc7R4ZW9.s:103014  .debug_str:0000000000033deb .LASF5709
     /tmp/cc7R4ZW9.s:100938  .debug_str:000000000002b7d9 .LASF5711
     /tmp/cc7R4ZW9.s:95364  .debug_str:000000000001472d .LASF5712
     /tmp/cc7R4ZW9.s:103770  .debug_str:00000000000371ab .LASF5713
     /tmp/cc7R4ZW9.s:92776  .debug_str:000000000000a4bc .LASF5714
     /tmp/cc7R4ZW9.s:97170  .debug_str:000000000001be2d .LASF5715
     /tmp/cc7R4ZW9.s:97044  .debug_str:000000000001b567 .LASF5716
     /tmp/cc7R4ZW9.s:101856  .debug_str:000000000002f106 .LASF5717
     /tmp/cc7R4ZW9.s:98400  .debug_str:00000000000214a0 .LASF5718
     /tmp/cc7R4ZW9.s:106226  .debug_str:0000000000040fb2 .LASF5719
     /tmp/cc7R4ZW9.s:90722  .debug_str:0000000000001978 .LASF5720
     /tmp/cc7R4ZW9.s:100084  .debug_str:0000000000027fb7 .LASF5721
     /tmp/cc7R4ZW9.s:96434  .debug_str:0000000000018b8c .LASF5722
     /tmp/cc7R4ZW9.s:106104  .debug_str:00000000000405d8 .LASF5723
     /tmp/cc7R4ZW9.s:104812  .debug_str:000000000003afee .LASF5724
     /tmp/cc7R4ZW9.s:105360  .debug_str:000000000003d51a .LASF5725
     /tmp/cc7R4ZW9.s:101686  .debug_str:000000000002e5e7 .LASF5726
     /tmp/cc7R4ZW9.s:101242  .debug_str:000000000002c9db .LASF5727
     /tmp/cc7R4ZW9.s:93388  .debug_str:000000000000cf79 .LASF5728
     /tmp/cc7R4ZW9.s:95424  .debug_str:0000000000014b0d .LASF5729
     /tmp/cc7R4ZW9.s:97914  .debug_str:000000000001f280 .LASF5730
     /tmp/cc7R4ZW9.s:104236  .debug_str:0000000000038e0b .LASF5731
     /tmp/cc7R4ZW9.s:90924  .debug_str:0000000000002782 .LASF5732
     /tmp/cc7R4ZW9.s:97224  .debug_str:000000000001c221 .LASF5733
     /tmp/cc7R4ZW9.s:103508  .debug_str:0000000000036080 .LASF5734
     /tmp/cc7R4ZW9.s:96076  .debug_str:0000000000017496 .LASF5735
     /tmp/cc7R4ZW9.s:103448  .debug_str:0000000000035b7b .LASF5736
     /tmp/cc7R4ZW9.s:105626  .debug_str:000000000003e821 .LASF5737
     /tmp/cc7R4ZW9.s:93940  .debug_str:000000000000ee67 .LASF5738
     /tmp/cc7R4ZW9.s:108356  .debug_str:000000000004a0b0 .LASF5739
     /tmp/cc7R4ZW9.s:92716  .debug_str:000000000000a10e .LASF5740
     /tmp/cc7R4ZW9.s:108098  .debug_str:0000000000048f8b .LASF5741
     /tmp/cc7R4ZW9.s:105814  .debug_str:000000000003f434 .LASF5742
     /tmp/cc7R4ZW9.s:93160  .debug_str:000000000000c07b .LASF5743
     /tmp/cc7R4ZW9.s:96026  .debug_str:0000000000017102 .LASF5744
     /tmp/cc7R4ZW9.s:99456  .debug_str:000000000002598f .LASF5745
     /tmp/cc7R4ZW9.s:106914  .debug_str:0000000000044244 .LASF5746
     /tmp/cc7R4ZW9.s:109454  .debug_str:000000000004ec8b .LASF5747
     /tmp/cc7R4ZW9.s:97874  .debug_str:000000000001ef81 .LASF5748
     /tmp/cc7R4ZW9.s:102220  .debug_str:00000000000309c1 .LASF5749
     /tmp/cc7R4ZW9.s:100334  .debug_str:000000000002912f .LASF5750
     /tmp/cc7R4ZW9.s:99612  .debug_str:0000000000026184 .LASF5751
     /tmp/cc7R4ZW9.s:97530  .debug_str:000000000001d792 .LASF5752
     /tmp/cc7R4ZW9.s:95256  .debug_str:000000000001401f .LASF5753
     /tmp/cc7R4ZW9.s:93076  .debug_str:000000000000ba08 .LASF5754
     /tmp/cc7R4ZW9.s:101180  .debug_str:000000000002c63b .LASF5755
     /tmp/cc7R4ZW9.s:108328  .debug_str:0000000000049f0d .LASF5756
     /tmp/cc7R4ZW9.s:102856  .debug_str:00000000000332e6 .LASF5757
     /tmp/cc7R4ZW9.s:102690  .debug_str:00000000000327e5 .LASF5758
     /tmp/cc7R4ZW9.s:95636  .debug_str:00000000000157e1 .LASF5759
     /tmp/cc7R4ZW9.s:95306  .debug_str:000000000001431d .LASF5760
     /tmp/cc7R4ZW9.s:95662  .debug_str:0000000000015988 .LASF5761
     /tmp/cc7R4ZW9.s:108450  .debug_str:000000000004a634 .LASF5762
     /tmp/cc7R4ZW9.s:91310  .debug_str:0000000000004125 .LASF5763
     /tmp/cc7R4ZW9.s:106774  .debug_str:0000000000043894 .LASF5764
     /tmp/cc7R4ZW9.s:91836  .debug_str:000000000000645f .LASF5765
     /tmp/cc7R4ZW9.s:100052  .debug_str:0000000000027df1 .LASF5766
     /tmp/cc7R4ZW9.s:100126  .debug_str:000000000002828f .LASF5767
     /tmp/cc7R4ZW9.s:98282  .debug_str:0000000000020d46 .LASF5768
     /tmp/cc7R4ZW9.s:106574  .debug_str:0000000000042bb0 .LASF5769
     /tmp/cc7R4ZW9.s:104604  .debug_str:000000000003a151 .LASF5770
     /tmp/cc7R4ZW9.s:94064  .debug_str:000000000000f66e .LASF5771
     /tmp/cc7R4ZW9.s:100190  .debug_str:00000000000286ac .LASF5772
     /tmp/cc7R4ZW9.s:108506  .debug_str:000000000004aa16 .LASF5773
     /tmp/cc7R4ZW9.s:98164  .debug_str:0000000000020507 .LASF5774
     /tmp/cc7R4ZW9.s:104766  .debug_str:000000000003acde .LASF5775
     /tmp/cc7R4ZW9.s:107900  .debug_str:00000000000482f9 .LASF5776
     /tmp/cc7R4ZW9.s:104886  .debug_str:000000000003b535 .LASF5777
     /tmp/cc7R4ZW9.s:99156  .debug_str:00000000000247fc .LASF5778
     /tmp/cc7R4ZW9.s:109778  .debug_str:00000000000501cb .LASF5779
     /tmp/cc7R4ZW9.s:95892  .debug_str:00000000000167de .LASF5780
     /tmp/cc7R4ZW9.s:109014  .debug_str:000000000004cd46 .LASF5781
     /tmp/cc7R4ZW9.s:94766  .debug_str:0000000000011f92 .LASF5782
     /tmp/cc7R4ZW9.s:101364  .debug_str:000000000002d195 .LASF5783
     /tmp/cc7R4ZW9.s:90418  .debug_str:00000000000003ef .LASF5784
     /tmp/cc7R4ZW9.s:107788  .debug_str:0000000000047af0 .LASF5785
     /tmp/cc7R4ZW9.s:92328  .debug_str:0000000000008623 .LASF5786
     /tmp/cc7R4ZW9.s:104658  .debug_str:000000000003a53f .LASF5787
     /tmp/cc7R4ZW9.s:100112  .debug_str:0000000000028184 .LASF5788
     /tmp/cc7R4ZW9.s:97364  .debug_str:000000000001cc9d .LASF5789
     /tmp/cc7R4ZW9.s:102026  .debug_str:000000000002fcb0 .LASF5790
     /tmp/cc7R4ZW9.s:99522  .debug_str:0000000000025d01 .LASF5791
     /tmp/cc7R4ZW9.s:97614  .debug_str:000000000001dde8 .LASF5792
     /tmp/cc7R4ZW9.s:102490  .debug_str:0000000000031a86 .LASF5793
     /tmp/cc7R4ZW9.s:108118  .debug_str:00000000000490f4 .LASF5794
     /tmp/cc7R4ZW9.s:104592  .debug_str:000000000003a0b3 .LASF5795
     /tmp/cc7R4ZW9.s:96606  .debug_str:0000000000019747 .LASF5796
     /tmp/cc7R4ZW9.s:100222  .debug_str:0000000000028900 .LASF5797
     /tmp/cc7R4ZW9.s:98628  .debug_str:00000000000224a2 .LASF5798
     /tmp/cc7R4ZW9.s:103138  .debug_str:0000000000034606 .LASF5799
     /tmp/cc7R4ZW9.s:93050  .debug_str:000000000000b87c .LASF5800
     /tmp/cc7R4ZW9.s:101194  .debug_str:000000000002c717 .LASF5801
     /tmp/cc7R4ZW9.s:108288  .debug_str:0000000000049bbe .LASF5802
     /tmp/cc7R4ZW9.s:105582  .debug_str:000000000003e560 .LASF5803
     /tmp/cc7R4ZW9.s:94746  .debug_str:0000000000011e61 .LASF5804
     /tmp/cc7R4ZW9.s:107406  .debug_str:0000000000046229 .LASF5805
     /tmp/cc7R4ZW9.s:90386  .debug_str:0000000000000196 .LASF5806
     /tmp/cc7R4ZW9.s:107770  .debug_str:00000000000479c5 .LASF5807
     /tmp/cc7R4ZW9.s:95632  .debug_str:0000000000015781 .LASF5808
     /tmp/cc7R4ZW9.s:103498  .debug_str:0000000000035fe2 .LASF5809
     /tmp/cc7R4ZW9.s:94890  .debug_str:0000000000012774 .LASF5810
     /tmp/cc7R4ZW9.s:108116  .debug_str:00000000000490db .LASF5811
     /tmp/cc7R4ZW9.s:90514  .debug_str:0000000000000ab3 .LASF5812
     /tmp/cc7R4ZW9.s:107896  .debug_str:00000000000482a8 .LASF5813
     /tmp/cc7R4ZW9.s:104304  .debug_str:0000000000039161 .LASF5814
     /tmp/cc7R4ZW9.s:94846  .debug_str:00000000000124cc .LASF5815
     /tmp/cc7R4ZW9.s:98556  .debug_str:0000000000021ff6 .LASF5816
     /tmp/cc7R4ZW9.s:99250  .debug_str:0000000000024dd1 .LASF5817
     /tmp/cc7R4ZW9.s:97216  .debug_str:000000000001c1b6 .LASF5818
     /tmp/cc7R4ZW9.s:94934  .debug_str:0000000000012ad7 .LASF5819
     /tmp/cc7R4ZW9.s:105986  .debug_str:000000000003fef9 .LASF5820
     /tmp/cc7R4ZW9.s:103806  .debug_str:0000000000037472 .LASF5821
     /tmp/cc7R4ZW9.s:109244  .debug_str:000000000004dd98 .LASF5822
     /tmp/cc7R4ZW9.s:90614  .debug_str:000000000000115a .LASF5823
     /tmp/cc7R4ZW9.s:99436  .debug_str:0000000000025843 .LASF5824
     /tmp/cc7R4ZW9.s:108126  .debug_str:000000000004915d .LASF5825
     /tmp/cc7R4ZW9.s:96562  .debug_str:00000000000193bf .LASF5826
     /tmp/cc7R4ZW9.s:95588  .debug_str:00000000000154df .LASF5827
     /tmp/cc7R4ZW9.s:94750  .debug_str:0000000000011e87 .LASF5828
     /tmp/cc7R4ZW9.s:108812  .debug_str:000000000004bfa0 .LASF5829
     /tmp/cc7R4ZW9.s:94576  .debug_str:00000000000113ae .LASF5830
     /tmp/cc7R4ZW9.s:101496  .debug_str:000000000002d959 .LASF5831
     /tmp/cc7R4ZW9.s:95318  .debug_str:000000000001440b .LASF5832
     /tmp/cc7R4ZW9.s:94648  .debug_str:000000000001178e .LASF5833
     /tmp/cc7R4ZW9.s:99736  .debug_str:0000000000026927 .LASF5834
     /tmp/cc7R4ZW9.s:94120  .debug_str:000000000000f91c .LASF5835
     /tmp/cc7R4ZW9.s:100756  .debug_str:000000000002ac04 .LASF5836
     /tmp/cc7R4ZW9.s:93810  .debug_str:000000000000e863 .LASF5837
     /tmp/cc7R4ZW9.s:98042  .debug_str:000000000001fba9 .LASF5838
     /tmp/cc7R4ZW9.s:91922  .debug_str:0000000000006a26 .LASF5839
     /tmp/cc7R4ZW9.s:91260  .debug_str:0000000000003d65 .LASF5840
     /tmp/cc7R4ZW9.s:104164  .debug_str:0000000000038a5b .LASF5841
     /tmp/cc7R4ZW9.s:104808  .debug_str:000000000003afb0 .LASF5842
     /tmp/cc7R4ZW9.s:100094  .debug_str:0000000000028075 .LASF5843
     /tmp/cc7R4ZW9.s:106680  .debug_str:0000000000043246 .LASF5844
     /tmp/cc7R4ZW9.s:109430  .debug_str:000000000004eaed .LASF5845
     /tmp/cc7R4ZW9.s:108336  .debug_str:0000000000049f82 .LASF5846
     /tmp/cc7R4ZW9.s:106144  .debug_str:0000000000040897 .LASF5847
     /tmp/cc7R4ZW9.s:90604  .debug_str:00000000000010ae .LASF5848
     /tmp/cc7R4ZW9.s:104470  .debug_str:000000000003999e .LASF5849
     /tmp/cc7R4ZW9.s:99338  .debug_str:00000000000252b4 .LASF5850
     /tmp/cc7R4ZW9.s:107146  .debug_str:000000000004511f .LASF5851
     /tmp/cc7R4ZW9.s:101510  .debug_str:000000000002da3e .LASF5852
     /tmp/cc7R4ZW9.s:90460  .debug_str:00000000000006f0 .LASF5853
     /tmp/cc7R4ZW9.s:103350  .debug_str:0000000000035482 .LASF5854
     /tmp/cc7R4ZW9.s:102360  .debug_str:0000000000031241 .LASF5855
     /tmp/cc7R4ZW9.s:104918  .debug_str:000000000003b7ed .LASF5856
     /tmp/cc7R4ZW9.s:90450  .debug_str:000000000000064c .LASF5857
     /tmp/cc7R4ZW9.s:108476  .debug_str:000000000004a7d7 .LASF5858
     /tmp/cc7R4ZW9.s:102832  .debug_str:0000000000033143 .LASF5859
     /tmp/cc7R4ZW9.s:104998  .debug_str:000000000003bcab .LASF5860
     /tmp/cc7R4ZW9.s:106220  .debug_str:0000000000040f5d .LASF5861
     /tmp/cc7R4ZW9.s:102104  .debug_str:00000000000301d0 .LASF5862
     /tmp/cc7R4ZW9.s:108252  .debug_str:00000000000499ab .LASF5863
     /tmp/cc7R4ZW9.s:109306  .debug_str:000000000004e29a .LASF5864
     /tmp/cc7R4ZW9.s:100430  .debug_str:00000000000296da .LASF5865
     /tmp/cc7R4ZW9.s:95184  .debug_str:0000000000013bd4 .LASF5867
     /tmp/cc7R4ZW9.s:105302  .debug_str:000000000003d1c7 .LASF5868
     /tmp/cc7R4ZW9.s:106286  .debug_str:0000000000041493 .LASF5869
     /tmp/cc7R4ZW9.s:101172  .debug_str:000000000002c5c0 .LASF5870
     /tmp/cc7R4ZW9.s:106922  .debug_str:00000000000442a1 .LASF5871
     /tmp/cc7R4ZW9.s:103866  .debug_str:000000000003777a .LASF5872
     /tmp/cc7R4ZW9.s:102012  .debug_str:000000000002fbec .LASF5873
     /tmp/cc7R4ZW9.s:99146  .debug_str:0000000000024763 .LASF5874
     /tmp/cc7R4ZW9.s:90778  .debug_str:0000000000001d82 .LASF5875
     /tmp/cc7R4ZW9.s:94518  .debug_str:0000000000010f8a .LASF5876
     /tmp/cc7R4ZW9.s:98224  .debug_str:00000000000209f5 .LASF5877
     /tmp/cc7R4ZW9.s:100382  .debug_str:00000000000294b6 .LASF5878
     /tmp/cc7R4ZW9.s:107112  .debug_str:0000000000044ee9 .LASF5879
     /tmp/cc7R4ZW9.s:102300  .debug_str:0000000000030ec4 .LASF5880
     /tmp/cc7R4ZW9.s:107334  .debug_str:0000000000045d95 .LASF5881
     /tmp/cc7R4ZW9.s:105836  .debug_str:000000000003f550 .LASF5882
     /tmp/cc7R4ZW9.s:109112  .debug_str:000000000004d449 .LASF5883
     /tmp/cc7R4ZW9.s:109034  .debug_str:000000000004cedb .LASF5884
     /tmp/cc7R4ZW9.s:105494  .debug_str:000000000003df51 .LASF5885
     /tmp/cc7R4ZW9.s:97478  .debug_str:000000000001d3f1 .LASF5886
     /tmp/cc7R4ZW9.s:90900  .debug_str:000000000000262d .LASF5887
     /tmp/cc7R4ZW9.s:92520  .debug_str:0000000000009362 .LASF5889
     /tmp/cc7R4ZW9.s:102418  .debug_str:0000000000031556 .LASF5890
     /tmp/cc7R4ZW9.s:96870  .debug_str:000000000001a95f .LASF5891
     /tmp/cc7R4ZW9.s:100158  .debug_str:0000000000028441 .LASF5892
     /tmp/cc7R4ZW9.s:104956  .debug_str:000000000003b9e6 .LASF5893
     /tmp/cc7R4ZW9.s:102272  .debug_str:0000000000030d04 .LASF5894
     /tmp/cc7R4ZW9.s:97436  .debug_str:000000000001d149 .LASF5895
     /tmp/cc7R4ZW9.s:91220  .debug_str:0000000000003ae9 .LASF5896
     /tmp/cc7R4ZW9.s:95408  .debug_str:0000000000014a0b .LASF5897
     /tmp/cc7R4ZW9.s:98418  .debug_str:00000000000215cb .LASF5898
     /tmp/cc7R4ZW9.s:105868  .debug_str:000000000003f74c .LASF5899
     /tmp/cc7R4ZW9.s:105342  .debug_str:000000000003d413 .LASF5900
     /tmp/cc7R4ZW9.s:95548  .debug_str:0000000000015231 .LASF5901
     /tmp/cc7R4ZW9.s:108266  .debug_str:0000000000049a2c .LASF5902
     /tmp/cc7R4ZW9.s:109656  .debug_str:000000000004f993 .LASF5903
     /tmp/cc7R4ZW9.s:102792  .debug_str:0000000000032eda .LASF5904
     /tmp/cc7R4ZW9.s:100620  .debug_str:000000000002a38f .LASF5905
     /tmp/cc7R4ZW9.s:108274  .debug_str:0000000000049acc .LASF5906
     /tmp/cc7R4ZW9.s:93856  .debug_str:000000000000eb2b .LASF5907
     /tmp/cc7R4ZW9.s:106932  .debug_str:0000000000044320 .LASF5908
     /tmp/cc7R4ZW9.s:90964  .debug_str:0000000000002a7d .LASF5909
     /tmp/cc7R4ZW9.s:92894  .debug_str:000000000000acb0 .LASF5910
     /tmp/cc7R4ZW9.s:109610  .debug_str:000000000004f66c .LASF5911
     /tmp/cc7R4ZW9.s:109214  .debug_str:000000000004dae3 .LASF5912
     /tmp/cc7R4ZW9.s:104252  .debug_str:0000000000038f23 .LASF5914
     /tmp/cc7R4ZW9.s:98844  .debug_str:00000000000231ec .LASF5915
     /tmp/cc7R4ZW9.s:103832  .debug_str:00000000000375eb .LASF5916
     /tmp/cc7R4ZW9.s:96808  .debug_str:000000000001a539 .LASF5917
     /tmp/cc7R4ZW9.s:92048  .debug_str:00000000000073e1 .LASF5918
     /tmp/cc7R4ZW9.s:98794  .debug_str:0000000000022ef3 .LASF5919
     /tmp/cc7R4ZW9.s:103790  .debug_str:0000000000037331 .LASF5920
     /tmp/cc7R4ZW9.s:107886  .debug_str:00000000000481f4 .LASF5921
     /tmp/cc7R4ZW9.s:94964  .debug_str:0000000000012cf2 .LASF5922
     /tmp/cc7R4ZW9.s:104220  .debug_str:0000000000038d37 .LASF5923
     /tmp/cc7R4ZW9.s:98716  .debug_str:00000000000229ad .LASF5924
     /tmp/cc7R4ZW9.s:95150  .debug_str:00000000000139d4 .LASF5925
     /tmp/cc7R4ZW9.s:91636  .debug_str:00000000000056e1 .LASF5926
     /tmp/cc7R4ZW9.s:108400  .debug_str:000000000004a394 .LASF5927
     /tmp/cc7R4ZW9.s:91812  .debug_str:000000000000629d .LASF5928
     /tmp/cc7R4ZW9.s:101782  .debug_str:000000000002ecd1 .LASF5929
     /tmp/cc7R4ZW9.s:95304  .debug_str:0000000000014311 .LASF5930
     /tmp/cc7R4ZW9.s:94026  .debug_str:000000000000f32f .LASF5931
     /tmp/cc7R4ZW9.s:106882  .debug_str:0000000000043fd5 .LASF5932
     /tmp/cc7R4ZW9.s:103218  .debug_str:0000000000034b1a .LASF5934
     /tmp/cc7R4ZW9.s:92960  .debug_str:000000000000b1b7 .LASF5935
     /tmp/cc7R4ZW9.s:106086  .debug_str:000000000004050e .LASF5936
     /tmp/cc7R4ZW9.s:91090  .debug_str:0000000000003287 .LASF5937
     /tmp/cc7R4ZW9.s:104482  .debug_str:0000000000039a64 .LASF5938
     /tmp/cc7R4ZW9.s:96934  .debug_str:000000000001ae23 .LASF5939
     /tmp/cc7R4ZW9.s:96840  .debug_str:000000000001a73a .LASF5940
     /tmp/cc7R4ZW9.s:107610  .debug_str:0000000000046eef .LASF5941
     /tmp/cc7R4ZW9.s:99422  .debug_str:0000000000025738 .LASF5942
     /tmp/cc7R4ZW9.s:91436  .debug_str:0000000000004a2a .LASF5943
     /tmp/cc7R4ZW9.s:95728  .debug_str:0000000000015ded .LASF5944
     /tmp/cc7R4ZW9.s:106152  .debug_str:000000000004092a .LASF5945
     /tmp/cc7R4ZW9.s:98358  .debug_str:00000000000211d3 .LASF5946
     /tmp/cc7R4ZW9.s:94920  .debug_str:00000000000129af .LASF5947
     /tmp/cc7R4ZW9.s:91568  .debug_str:0000000000005288 .LASF5948
     /tmp/cc7R4ZW9.s:94812  .debug_str:00000000000122fa .LASF5949
     /tmp/cc7R4ZW9.s:102806  .debug_str:0000000000032fef .LASF5950
     /tmp/cc7R4ZW9.s:96282  .debug_str:000000000001821b .LASF5951
     /tmp/cc7R4ZW9.s:95418  .debug_str:0000000000014aaa .LASF5952
     /tmp/cc7R4ZW9.s:96470  .debug_str:0000000000018d34 .LASF5953
     /tmp/cc7R4ZW9.s:105934  .debug_str:000000000003fbc6 .LASF5954
     /tmp/cc7R4ZW9.s:107306  .debug_str:0000000000045bd3 .LASF5955
     /tmp/cc7R4ZW9.s:92792  .debug_str:000000000000a609 .LASF5956
     /tmp/cc7R4ZW9.s:94124  .debug_str:000000000000f975 .LASF5957
     /tmp/cc7R4ZW9.s:100054  .debug_str:0000000000027e0a .LASF5958
     /tmp/cc7R4ZW9.s:98582  .debug_str:0000000000022126 .LASF5959
     /tmp/cc7R4ZW9.s:106960  .debug_str:00000000000444cd .LASF5960
     /tmp/cc7R4ZW9.s:107080  .debug_str:0000000000044c66 .LASF5961
     /tmp/cc7R4ZW9.s:101630  .debug_str:000000000002e256 .LASF5962
     /tmp/cc7R4ZW9.s:98876  .debug_str:0000000000023431 .LASF5963
     /tmp/cc7R4ZW9.s:96112  .debug_str:000000000001773d .LASF5964
     /tmp/cc7R4ZW9.s:94116  .debug_str:000000000000f8d3 .LASF5965
     /tmp/cc7R4ZW9.s:98330  .debug_str:0000000000020ff9 .LASF5966
     /tmp/cc7R4ZW9.s:103102  .debug_str:0000000000034393 .LASF5967
     /tmp/cc7R4ZW9.s:100844  .debug_str:000000000002b1dc .LASF5968
     /tmp/cc7R4ZW9.s:94252  .debug_str:0000000000010199 .LASF5969
     /tmp/cc7R4ZW9.s:91486  .debug_str:0000000000004dc0 .LASF5970
     /tmp/cc7R4ZW9.s:105598  .debug_str:000000000003e662 .LASF5971
     /tmp/cc7R4ZW9.s:93222  .debug_str:000000000000c42f .LASF5972
     /tmp/cc7R4ZW9.s:91976  .debug_str:0000000000006e77 .LASF5973
     /tmp/cc7R4ZW9.s:102094  .debug_str:0000000000030147 .LASF5974
     /tmp/cc7R4ZW9.s:96668  .debug_str:0000000000019b47 .LASF5975
     /tmp/cc7R4ZW9.s:93510  .debug_str:000000000000d792 .LASF5976
     /tmp/cc7R4ZW9.s:90946  .debug_str:000000000000292a .LASF5977
     /tmp/cc7R4ZW9.s:95772  .debug_str:0000000000015ffe .LASF5978
     /tmp/cc7R4ZW9.s:106454  .debug_str:000000000004228f .LASF5979
     /tmp/cc7R4ZW9.s:107976  .debug_str:00000000000487ba .LASF5980
     /tmp/cc7R4ZW9.s:101804  .debug_str:000000000002ee19 .LASF5981
     /tmp/cc7R4ZW9.s:90798  .debug_str:0000000000001f1d .LASF5982
     /tmp/cc7R4ZW9.s:99808  .debug_str:0000000000026e49 .LASF5983
     /tmp/cc7R4ZW9.s:102368  .debug_str:00000000000312b1 .LASF5984
     /tmp/cc7R4ZW9.s:93208  .debug_str:000000000000c350 .LASF5985
     /tmp/cc7R4ZW9.s:99982  .debug_str:0000000000027901 .LASF5986
     /tmp/cc7R4ZW9.s:101110  .debug_str:000000000002c27b .LASF5987
     /tmp/cc7R4ZW9.s:105878  .debug_str:000000000003f7e1 .LASF5988
     /tmp/cc7R4ZW9.s:97692  .debug_str:000000000001e371 .LASF5989
     /tmp/cc7R4ZW9.s:102978  .debug_str:0000000000033b72 .LASF5990
     /tmp/cc7R4ZW9.s:98896  .debug_str:0000000000023594 .LASF5991
     /tmp/cc7R4ZW9.s:92694  .debug_str:0000000000009f79 .LASF5992
     /tmp/cc7R4ZW9.s:95104  .debug_str:0000000000013723 .LASF5993
     /tmp/cc7R4ZW9.s:94194  .debug_str:000000000000fde6 .LASF5994
     /tmp/cc7R4ZW9.s:106330  .debug_str:00000000000417ce .LASF5995
     /tmp/cc7R4ZW9.s:97332  .debug_str:000000000001ca07 .LASF5996
     /tmp/cc7R4ZW9.s:101644  .debug_str:000000000002e353 .LASF5997
     /tmp/cc7R4ZW9.s:104994  .debug_str:000000000003bc42 .LASF5998
     /tmp/cc7R4ZW9.s:108368  .debug_str:000000000004a13a .LASF5999
     /tmp/cc7R4ZW9.s:97886  .debug_str:000000000001f033 .LASF6000
     /tmp/cc7R4ZW9.s:96002  .debug_str:0000000000016f86 .LASF6001
     /tmp/cc7R4ZW9.s:107658  .debug_str:00000000000472ad .LASF6002
     /tmp/cc7R4ZW9.s:105746  .debug_str:000000000003ef9e .LASF6003
     /tmp/cc7R4ZW9.s:96592  .debug_str:000000000001964a .LASF6004
     /tmp/cc7R4ZW9.s:93470  .debug_str:000000000000d523 .LASF6005
     /tmp/cc7R4ZW9.s:99010  .debug_str:0000000000023d95 .LASF6006
     /tmp/cc7R4ZW9.s:92846  .debug_str:000000000000a9b6 .LASF6007
     /tmp/cc7R4ZW9.s:101240  .debug_str:000000000002c9c5 .LASF6008
     /tmp/cc7R4ZW9.s:92584  .debug_str:00000000000097c2 .LASF6009
     /tmp/cc7R4ZW9.s:95666  .debug_str:00000000000159c1 .LASF6010
     /tmp/cc7R4ZW9.s:101336  .debug_str:000000000002cfe5 .LASF6011
     /tmp/cc7R4ZW9.s:91840  .debug_str:000000000000649e .LASF6012
     /tmp/cc7R4ZW9.s:101822  .debug_str:000000000002ef56 .LASF6013
     /tmp/cc7R4ZW9.s:107160  .debug_str:00000000000451f7 .LASF6014
     /tmp/cc7R4ZW9.s:92896  .debug_str:000000000000ad1b .LASF6015
     /tmp/cc7R4ZW9.s:91866  .debug_str:0000000000006669 .LASF6016
     /tmp/cc7R4ZW9.s:93200  .debug_str:000000000000c2b7 .LASF6017
     /tmp/cc7R4ZW9.s:93534  .debug_str:000000000000d923 .LASF6018
     /tmp/cc7R4ZW9.s:105478  .debug_str:000000000003ddfa .LASF6019
     /tmp/cc7R4ZW9.s:91342  .debug_str:000000000000437e .LASF6020
     /tmp/cc7R4ZW9.s:104648  .debug_str:000000000003a481 .LASF6021
     /tmp/cc7R4ZW9.s:107308  .debug_str:0000000000045be6 .LASF6022
     /tmp/cc7R4ZW9.s:100402  .debug_str:00000000000295d9 .LASF6023
     /tmp/cc7R4ZW9.s:104718  .debug_str:000000000003a961 .LASF6024
     /tmp/cc7R4ZW9.s:99362  .debug_str:0000000000025415 .LASF6025
     /tmp/cc7R4ZW9.s:94654  .debug_str:0000000000011836 .LASF6026
     /tmp/cc7R4ZW9.s:100744  .debug_str:000000000002ab2c .LASF6027
     /tmp/cc7R4ZW9.s:106652  .debug_str:0000000000043051 .LASF6028
     /tmp/cc7R4ZW9.s:93096  .debug_str:000000000000bba8 .LASF6029
     /tmp/cc7R4ZW9.s:92400  .debug_str:0000000000008b29 .LASF6030
     /tmp/cc7R4ZW9.s:100394  .debug_str:0000000000029573 .LASF6031
     /tmp/cc7R4ZW9.s:101066  .debug_str:000000000002bf79 .LASF6032
     /tmp/cc7R4ZW9.s:94104  .debug_str:000000000000f7f5 .LASF6033
     /tmp/cc7R4ZW9.s:106162  .debug_str:00000000000409d0 .LASF6034
     /tmp/cc7R4ZW9.s:101626  .debug_str:000000000002e203 .LASF6035
     /tmp/cc7R4ZW9.s:106488  .debug_str:00000000000424d3 .LASF6037
     /tmp/cc7R4ZW9.s:105980  .debug_str:000000000003fe80 .LASF6038
     /tmp/cc7R4ZW9.s:97468  .debug_str:000000000001d35a .LASF6039
     /tmp/cc7R4ZW9.s:104576  .debug_str:0000000000039fd7 .LASF6040
     /tmp/cc7R4ZW9.s:95334  .debug_str:0000000000014504 .LASF6041
     /tmp/cc7R4ZW9.s:105284  .debug_str:000000000003d091 .LASF6042
     /tmp/cc7R4ZW9.s:92044  .debug_str:0000000000007364 .LASF6043
     /tmp/cc7R4ZW9.s:92984  .debug_str:000000000000b35c .LASF6044
     /tmp/cc7R4ZW9.s:97238  .debug_str:000000000001c2e2 .LASF6045
     /tmp/cc7R4ZW9.s:105612  .debug_str:000000000003e70d .LASF6046
     /tmp/cc7R4ZW9.s:90536  .debug_str:0000000000000be3 .LASF6047
     /tmp/cc7R4ZW9.s:99370  .debug_str:000000000002549d .LASF6048
     /tmp/cc7R4ZW9.s:92546  .debug_str:00000000000094e8 .LASF6049
                           .group:0000000000000000 wm4.0.2cde0bba310258ac5fb120644dc52a54
                           .group:0000000000000000 wm4._newlib_version.h.4.9ba035841e762c3308916a0ce96032e7
                           .group:0000000000000000 wm4.newlib.h.24.c310527e65dab9224e8fef4278ad2129
                           .group:0000000000000000 wm4.ieeefp.h.195.a810689bf65b84f4ad2c33b483468c94
                           .group:0000000000000000 wm4.features.h.22.fad1cec3bc7ff06488171438dbdcfd02
                           .group:0000000000000000 wm4.config.h.83.0359905d884ebfe41c79e1d7c780ef62
                           .group:0000000000000000 wm4._ansi.h.31.de524f58584151836e90d8620a16f8e8
                           .group:0000000000000000 wm4.stdio.h.31.7c0e28c411445f3f9c5b11accf882760
                           .group:0000000000000000 wm4._default_types.h.6.74c1620e62c751216328238764a7f2e5
                           .group:0000000000000000 wm4.stddef.h.187.2ff233552538c6ff9b8575ca8ea52cb3
                           .group:0000000000000000 wm4.cdefs.h.49.6260d97adb8d27534cbdc0f868b8ea87
                           .group:0000000000000000 wm4.stddef.h.39.ec95e8feac892e292b69dc7ae75b0d64
                           .group:0000000000000000 wm4.stdarg.h.34.3a23a216c0c293b3d2ea2e89281481e6
                           .group:0000000000000000 wm4._types.h.20.dd0d04dca3800a0d2a6129b87f3adbb2
                           .group:0000000000000000 wm4.stddef.h.161.5349cb105733e8777bfb0cf53c4e3f34
                           .group:0000000000000000 wm4._types.h.127.c5cfac939eadb83d223592dbacad7524
                           .group:0000000000000000 wm4.reent.h.17.487f8c1f76499d088b190f62530a0034
                           .group:0000000000000000 wm4.lock.h.2.c0958401bd0ce484d507ee19aacab817
                           .group:0000000000000000 wm4.reent.h.77.1187f1075ff88452c642b29ed9a9030d
                           .group:0000000000000000 wm4.types.h.40.8b6acba56cefbb11746718204edc8f5e
                           .group:0000000000000000 wm4._stdint.h.10.c24fa3af3bc1706662bb5593a907e841
                           .group:0000000000000000 wm4._endian.h.18.1bf9649e8e5bbc91042012680270b9ed
                           .group:0000000000000000 wm4.endian.h.9.49f3a4695c1b61e8a0808de3c4a106cb
                           .group:0000000000000000 wm4._timeval.h.30.0e8bfd94e85db17dda3286ee81496fe6
                           .group:0000000000000000 wm4.timespec.h.41.d855182eb0e690443ab8651bcedca6e1
                           .group:0000000000000000 wm4.select.h.19.97ca6fd0c752a0f3b6719fd314d361e6
                           .group:0000000000000000 wm4.types.h.51.5571ec98f267d17d3c670b7a3ba33afa
                           .group:0000000000000000 wm4.sched.h.22.c60982713a5c428609783c78f9c78d95
                           .group:0000000000000000 wm4._pthreadtypes.h.36.fcee9961c35163dde6267ef772ad1972
                           .group:0000000000000000 wm4.stdio.h.2.4aa87247282eca6c8f36f9de33d8df1a
                           .group:0000000000000000 wm4.stdio.h.81.60a2ded7dae310b81f9d6907fe5e3dbf
                           .group:0000000000000000 wm4.stdlib.h.13.4ed386f5c1a80d71e72172885d946ef2
                           .group:0000000000000000 wm4.stddef.h.161.19e15733342b50ead2919490b095303e
                           .group:0000000000000000 wm4.alloca.h.8.dfc0c703c47ec3e69746825b17d9e66d
                           .group:0000000000000000 wm4.stdlib.h.56.f4862cfbf4363a1db01842d5bdf72c18
                           .group:0000000000000000 wm4.string.h.8.c4b8571ce60dff2817f43fec8b86aecd
                           .group:0000000000000000 wm4.stdbool.h.29.07dce69c3b78884144b7f7bd19483461
                           .group:0000000000000000 wm4._intsup.h.10.b28b45fc63caeb010c3f7ee592257700
                           .group:0000000000000000 wm4.stdint.h.23.d53047a68f4a85177f80b422d52785ed
                           .group:0000000000000000 wm4.mss_assert.h.10.09559128d1f6dbd833ab24347e71c76c
                           .group:0000000000000000 wm4.mss_legacy_defines.h.20.594d5f03b0f5314e3b2e801d98173479
                           .group:0000000000000000 wm4.mss_ddr_defs.h.18.58f9a87b5146acaefd5d9382d54140ba
                           .group:0000000000000000 wm4.mss_sysreg.h.19.614456a035a0cca3fd9d4348b0740228
                           .group:0000000000000000 wm4.mss_ddr_sgmii_regs.h.5543.4c565db9c25f7d4b45bd9b264c475c73
                           .group:0000000000000000 wm4.mss_io_config.h.18.b70207dea5a59bac7da73ad6eee375d0
                           .group:0000000000000000 wm4.mss_pll.h.192.d6d9146a5a36ce9e7f6a5ae2e7816970
                           .group:0000000000000000 wm4.mss_scb_nwc_regs.h.19.92192026ece1a0bf26c7a7af9a56e40a
                           .group:0000000000000000 wm4.mss_sw_config.h.37.2f79a8233593e640cb9660b9e2020907
                           .group:0000000000000000 wm4.atomic.h.33.7c17fdf64e267483cec1d3aead0473f4
                           .group:0000000000000000 wm4.bits.h.32.2ced66ae3bdb7651edf1ccfb67de7b38
                           .group:0000000000000000 wm4.encoding.h.34.68f898bac6356b153788044b6c29d177
                           .group:0000000000000000 wm4.fpga_design_config.h.28.572b3893a09debe9cb72c1441369aee0
                           .group:0000000000000000 wm4.hw_memory.h.28.20599cf485f90ffaa97f313798a86238
                           .group:0000000000000000 wm4.hw_apb_split.h.28.a2537f445f7a8784a4f064a3a60be381
                           .group:0000000000000000 wm4.hw_cache.h.28.aa59d0803f1283c480a862ba52ff4d4f
                           .group:0000000000000000 wm4.hw_pmp_hart0.h.28.354eeff78ff2eb91d2783e01dbe4e5a4
                           .group:0000000000000000 wm4.hw_pmp_hart1.h.28.0ab9e64d9d5e4b3cdd2ef9fae2ec18f2
                           .group:0000000000000000 wm4.hw_pmp_hart2.h.28.361fe83e7fd64067a0988f3e9bcd6e5d
                           .group:0000000000000000 wm4.hw_pmp_hart3.h.28.8c3eca8078d58a4979d23ae7fc3ceb35
                           .group:0000000000000000 wm4.hw_pmp_hart4.h.28.f8bf6b50f09effab3f4dfc16a44d5d0e
                           .group:0000000000000000 wm4.hw_mpu_fic0.h.28.3a719367ee0b56c20c7541cca5239296
                           .group:0000000000000000 wm4.hw_mpu_fic1.h.28.35d3b72b131707dc62529924d8a0d281
                           .group:0000000000000000 wm4.hw_mpu_fic2.h.28.88b1cd488fc04fd09199876067a670cb
                           .group:0000000000000000 wm4.hw_mpu_crypto.h.28.45628d14bd81b7ae15853711bd55f118
                           .group:0000000000000000 wm4.hw_mpu_gem0.h.28.e88b73a77e588162ac08b038acfe3e30
                           .group:0000000000000000 wm4.hw_mpu_gem1.h.28.dadc3a640dcfb61a8f24791560fa3605
                           .group:0000000000000000 wm4.hw_mpu_usb.h.28.0b0c25c65da87670d72dffa8e9b51ad6
                           .group:0000000000000000 wm4.hw_mpu_mmc.h.28.a5df85f7a87dfaafd939c0c9743b44a9
                           .group:0000000000000000 wm4.hw_mpu_scb.h.28.2b778d620a29a13b1a33733b3fefaf3e
                           .group:0000000000000000 wm4.hw_mpu_trace.h.28.dbb150e27983d45d78ea646dfe7486fe
                           .group:0000000000000000 wm4.hw_mssio_mux.h.28.b18396e0f5e6c83835b3b8e1dfadc1b4
                           .group:0000000000000000 wm4.hw_hsio_mux.h.28.924a66a0f83f27c24767fbfdaffeb21f
                           .group:0000000000000000 wm4.hw_sgmii_tip.h.28.c2c656c87ab558ebf9f510f55b530997
                           .group:0000000000000000 wm4.hw_ddr_options.h.28.583107ebf3250a7e99a4e34ca34040f9
                           .group:0000000000000000 wm4.hw_ddr_io_bank.h.28.09e373f4be71534c2b0bf629a50788a8
                           .group:0000000000000000 wm4.hw_ddr_mode.h.28.3ecff7868bb6c2027433e8aaf3a6e9d0
                           .group:0000000000000000 wm4.hw_ddr_off_mode.h.28.c8f0d4bcf68d083d8ff0335e558930e9
                           .group:0000000000000000 wm4.hw_ddr_segs.h.28.93c530a254cc8a9c015d0bae044125b2
                           .group:0000000000000000 wm4.hw_ddrc.h.28.d858943fbdd3e7761d52c974b21ea425
                           .group:0000000000000000 wm4.hw_mss_clks.h.28.53b1f012440894624f35e610477ed6d8
                           .group:0000000000000000 wm4.hw_clk_sysreg.h.28.adf2eb2b08eeb2ee56f6129328388395
                           .group:0000000000000000 wm4.hw_clk_mss_pll.h.28.f255323a7f4276a824501e07bd0f464a
                           .group:0000000000000000 wm4.hw_clk_sgmii_pll.h.28.b1aefe04f9cda949aee4586f0025e039
                           .group:0000000000000000 wm4.hw_clk_ddr_pll.h.28.8f0ed359dbfb59ae6f0aa1f29002d60d
                           .group:0000000000000000 wm4.hw_clk_mss_cfm.h.28.365f11189fcbf1e2f08db25b2ea1557a
                           .group:0000000000000000 wm4.hw_clk_sgmii_cfm.h.28.f59fda78ad3b4981ccbc9fbc0d90ca0a
                           .group:0000000000000000 wm4.hw_gen_peripherals.h.28.67a363af3ea61147ac365f904e7b6183
                           .group:0000000000000000 wm4.mss_ddr.h.335.a7fe38050b0f6ce3ee0df6f9cb324a9e
                           .group:0000000000000000 wm4.mss_clint.h.28.3d2c636f4c8175d64797a2e961db02ff
                           .group:0000000000000000 wm4.mss_h2f.h.21.7086260854010c63b41a469cd9f7486d
                           .group:0000000000000000 wm4.mss_hart_ints.h.20.df914e6570bee6a0a5e5635d9329f21b
                           .group:0000000000000000 wm4.mss_mpu.h.20.dd1fa2a8702d0e819fbbb263dc6428d1
                           .group:0000000000000000 wm4.mss_pmp.h.19.8f83d750289fe5e95625891444a65774
                           .group:0000000000000000 wm4.mss_plic.h.38.63bddd8b7aeec5445a0ab9c829719734
                           .group:0000000000000000 wm4.mss_seg.h.38.d7fedb2c993ff2eb58c3c1c5f57af66f
                           .group:0000000000000000 wm4.mss_util.h.31.57922375d48cf596b0783b975bb89aba
                           .group:0000000000000000 wm4.mss_mtrap.h.32.75bfcc4d9a15120a34cb2ee456cde55a
                           .group:0000000000000000 wm4.mss_l2_cache.h.430.934410ee5d62996f3b8869a34907e316
                           .group:0000000000000000 wm4.mss_axiswitch.h.110.fc13072c0144cbd8e516d1d4f8c599b2
                           .group:0000000000000000 wm4.mss_peripherals.h.19.9837bc1f8d1c62dfd266b4590a8830b2
                           .group:0000000000000000 wm4.mss_cfm.h.20.474baf099ef6f60b14912c934c5e47c6
                           .group:0000000000000000 wm4.mss_sgmii.h.18.7850ab5b5e05dabb42db8143f362bae8
                           .group:0000000000000000 wm4.system_startup.h.17.372727b49fdab2e286123d13f6b6542a
                           .group:0000000000000000 wm4.mss_ddr_debug.h.40.79a83a45aea2f09f97e5663e254e5e65
                           .group:0000000000000000 wm4.mss_nwc_init.h.97.aef086bc19e526ee0b159deb73c86168

UNDEFINED SYMBOLS
rand
pdma_transfer_complete
ddr_test_pattern
pdma_transfer
memcmp
