   1              		.file	"mss_ddr.c"
   2              		.option nopic
   3              		.attribute arch, "rv64i2p0_m2p0_a2p0_f2p0_d2p0_c2p0"
   4              		.attribute unaligned_access, 0
   5              		.attribute stack_align, 16
   6              		.text
   7              	.Ltext0:
   8              		.cfi_sections	.debug_frame
   9              		.section	.text.delay,"ax",@progbits
  10              		.align	1
  12              	delay:
  13              	.LFB23:
  14              		.file 1 "../src/platform/mpfs_hal/common/nwc/mss_nwc_init.h"
   1:../src/platform/mpfs_hal/common/nwc/mss_nwc_init.h **** /*******************************************************************************
   2:../src/platform/mpfs_hal/common/nwc/mss_nwc_init.h ****  * Copyright 2019-2022 Microchip FPGA Embedded Systems Solutions.
   3:../src/platform/mpfs_hal/common/nwc/mss_nwc_init.h ****  *
   4:../src/platform/mpfs_hal/common/nwc/mss_nwc_init.h ****  * SPDX-License-Identifier: MIT
   5:../src/platform/mpfs_hal/common/nwc/mss_nwc_init.h ****  *
   6:../src/platform/mpfs_hal/common/nwc/mss_nwc_init.h ****  * MPFS HAL Embedded Software
   7:../src/platform/mpfs_hal/common/nwc/mss_nwc_init.h ****  *
   8:../src/platform/mpfs_hal/common/nwc/mss_nwc_init.h ****  */
   9:../src/platform/mpfs_hal/common/nwc/mss_nwc_init.h **** 
  10:../src/platform/mpfs_hal/common/nwc/mss_nwc_init.h **** /*******************************************************************************
  11:../src/platform/mpfs_hal/common/nwc/mss_nwc_init.h ****  * @file mss_nwc_init.h
  12:../src/platform/mpfs_hal/common/nwc/mss_nwc_init.h ****  * @author Microchip-FPGA Embedded Systems Solutions
  13:../src/platform/mpfs_hal/common/nwc/mss_nwc_init.h ****  * @brief defines for mss_nwc_init.c
  14:../src/platform/mpfs_hal/common/nwc/mss_nwc_init.h ****  *
  15:../src/platform/mpfs_hal/common/nwc/mss_nwc_init.h ****  */
  16:../src/platform/mpfs_hal/common/nwc/mss_nwc_init.h **** 
  17:../src/platform/mpfs_hal/common/nwc/mss_nwc_init.h **** /*=========================================================================*//**
  18:../src/platform/mpfs_hal/common/nwc/mss_nwc_init.h ****   @page MPFS MSS NWC configuration
  19:../src/platform/mpfs_hal/common/nwc/mss_nwc_init.h ****   ==============================================================================
  20:../src/platform/mpfs_hal/common/nwc/mss_nwc_init.h ****   @section intro_sec Introduction
  21:../src/platform/mpfs_hal/common/nwc/mss_nwc_init.h ****   ==============================================================================
  22:../src/platform/mpfs_hal/common/nwc/mss_nwc_init.h ****   The MPFS microcontroller subsystem (MSS) includes a number of hard core
  23:../src/platform/mpfs_hal/common/nwc/mss_nwc_init.h ****   components physically located in the north west corner of the MSS on the die.
  24:../src/platform/mpfs_hal/common/nwc/mss_nwc_init.h **** 
  25:../src/platform/mpfs_hal/common/nwc/mss_nwc_init.h ****   ==============================================================================
  26:../src/platform/mpfs_hal/common/nwc/mss_nwc_init.h ****   @section Items located in the north west corner
  27:../src/platform/mpfs_hal/common/nwc/mss_nwc_init.h ****   ==============================================================================
  28:../src/platform/mpfs_hal/common/nwc/mss_nwc_init.h ****   MSS PLL
  29:../src/platform/mpfs_hal/common/nwc/mss_nwc_init.h ****   SGMII
  30:../src/platform/mpfs_hal/common/nwc/mss_nwc_init.h ****   DDR phy
  31:../src/platform/mpfs_hal/common/nwc/mss_nwc_init.h ****   MSSIO
  32:../src/platform/mpfs_hal/common/nwc/mss_nwc_init.h **** 
  33:../src/platform/mpfs_hal/common/nwc/mss_nwc_init.h ****   ==============================================================================
  34:../src/platform/mpfs_hal/common/nwc/mss_nwc_init.h ****   @section Flow diagram
  35:../src/platform/mpfs_hal/common/nwc/mss_nwc_init.h ****   ==============================================================================
  36:../src/platform/mpfs_hal/common/nwc/mss_nwc_init.h ****   todo: remove, added line here as test *****
  37:../src/platform/mpfs_hal/common/nwc/mss_nwc_init.h ****   Simplified flow diagram
  38:../src/platform/mpfs_hal/common/nwc/mss_nwc_init.h ****                               +-----------------+
  39:../src/platform/mpfs_hal/common/nwc/mss_nwc_init.h ****                               |     start       |
  40:../src/platform/mpfs_hal/common/nwc/mss_nwc_init.h ****                               |  NWC setup      |
  41:../src/platform/mpfs_hal/common/nwc/mss_nwc_init.h ****                               +-------+---------+
  42:../src/platform/mpfs_hal/common/nwc/mss_nwc_init.h ****                                       v
  43:../src/platform/mpfs_hal/common/nwc/mss_nwc_init.h ****                               +-----------------+
  44:../src/platform/mpfs_hal/common/nwc/mss_nwc_init.h ****                               |   set SCB access|
  45:../src/platform/mpfs_hal/common/nwc/mss_nwc_init.h ****                               |   Parameters    |
  46:../src/platform/mpfs_hal/common/nwc/mss_nwc_init.h ****                               +-------+---------+
  47:../src/platform/mpfs_hal/common/nwc/mss_nwc_init.h ****                                       |
  48:../src/platform/mpfs_hal/common/nwc/mss_nwc_init.h ****                               +-------v---------+
  49:../src/platform/mpfs_hal/common/nwc/mss_nwc_init.h ****                               | Release APB NWC |
  50:../src/platform/mpfs_hal/common/nwc/mss_nwc_init.h ****                               | Turn on APB clk |
  51:../src/platform/mpfs_hal/common/nwc/mss_nwc_init.h ****                               +-------+---------+
  52:../src/platform/mpfs_hal/common/nwc/mss_nwc_init.h ****                                       |
  53:../src/platform/mpfs_hal/common/nwc/mss_nwc_init.h ****                               +-------v---------+
  54:../src/platform/mpfs_hal/common/nwc/mss_nwc_init.h ****                               | Set Dynamic     |
  55:../src/platform/mpfs_hal/common/nwc/mss_nwc_init.h ****                               | enable bits     |
  56:../src/platform/mpfs_hal/common/nwc/mss_nwc_init.h ****                               +-------++--------+
  57:../src/platform/mpfs_hal/common/nwc/mss_nwc_init.h ****                                       |
  58:../src/platform/mpfs_hal/common/nwc/mss_nwc_init.h ****                               +-------v---------+
  59:../src/platform/mpfs_hal/common/nwc/mss_nwc_init.h ****                               | Setup signals   |
  60:../src/platform/mpfs_hal/common/nwc/mss_nwc_init.h ****                               | DCE,CORE_UP,    |
  61:../src/platform/mpfs_hal/common/nwc/mss_nwc_init.h ****                               | Flash_Valid,    |
  62:../src/platform/mpfs_hal/common/nwc/mss_nwc_init.h ****                               | MSS_IO_EN       |
  63:../src/platform/mpfs_hal/common/nwc/mss_nwc_init.h ****                               +-------+---------+
  64:../src/platform/mpfs_hal/common/nwc/mss_nwc_init.h ****                                       |
  65:../src/platform/mpfs_hal/common/nwc/mss_nwc_init.h ****                               +-------v---------+
  66:../src/platform/mpfs_hal/common/nwc/mss_nwc_init.h ****                               | Setup SGMII     |
  67:../src/platform/mpfs_hal/common/nwc/mss_nwc_init.h ****                               |                 |
  68:../src/platform/mpfs_hal/common/nwc/mss_nwc_init.h ****                               +-------+---------+
  69:../src/platform/mpfs_hal/common/nwc/mss_nwc_init.h ****                                       |
  70:../src/platform/mpfs_hal/common/nwc/mss_nwc_init.h ****                               +-------v---------+
  71:../src/platform/mpfs_hal/common/nwc/mss_nwc_init.h ****                               | Setup DDR       |
  72:../src/platform/mpfs_hal/common/nwc/mss_nwc_init.h ****                               |                 |
  73:../src/platform/mpfs_hal/common/nwc/mss_nwc_init.h ****                               +-------+---------+
  74:../src/platform/mpfs_hal/common/nwc/mss_nwc_init.h ****                                       |
  75:../src/platform/mpfs_hal/common/nwc/mss_nwc_init.h ****                               +-------v---------+
  76:../src/platform/mpfs_hal/common/nwc/mss_nwc_init.h ****                               | Setup MSSIO     |
  77:../src/platform/mpfs_hal/common/nwc/mss_nwc_init.h ****                               |                 |
  78:../src/platform/mpfs_hal/common/nwc/mss_nwc_init.h ****                               +-------+---------+
  79:../src/platform/mpfs_hal/common/nwc/mss_nwc_init.h ****                                       |
  80:../src/platform/mpfs_hal/common/nwc/mss_nwc_init.h ****                               +-------v---------+
  81:../src/platform/mpfs_hal/common/nwc/mss_nwc_init.h ****                               |    Finished     |
  82:../src/platform/mpfs_hal/common/nwc/mss_nwc_init.h ****                               +-----------------+
  83:../src/platform/mpfs_hal/common/nwc/mss_nwc_init.h **** 
  84:../src/platform/mpfs_hal/common/nwc/mss_nwc_init.h ****  *//*=========================================================================*/
  85:../src/platform/mpfs_hal/common/nwc/mss_nwc_init.h **** #ifndef __MSS_NWC_INIT_H_
  86:../src/platform/mpfs_hal/common/nwc/mss_nwc_init.h **** #define __MSS_NWC_INIT_H_ 1
  87:../src/platform/mpfs_hal/common/nwc/mss_nwc_init.h **** 
  88:../src/platform/mpfs_hal/common/nwc/mss_nwc_init.h **** 
  89:../src/platform/mpfs_hal/common/nwc/mss_nwc_init.h **** #include <stddef.h>
  90:../src/platform/mpfs_hal/common/nwc/mss_nwc_init.h **** #include <stdint.h>
  91:../src/platform/mpfs_hal/common/nwc/mss_nwc_init.h **** #include "../encoding.h"
  92:../src/platform/mpfs_hal/common/nwc/mss_nwc_init.h **** 
  93:../src/platform/mpfs_hal/common/nwc/mss_nwc_init.h **** #ifdef __cplusplus
  94:../src/platform/mpfs_hal/common/nwc/mss_nwc_init.h **** extern "C" {
  95:../src/platform/mpfs_hal/common/nwc/mss_nwc_init.h **** #endif
  96:../src/platform/mpfs_hal/common/nwc/mss_nwc_init.h **** 
  97:../src/platform/mpfs_hal/common/nwc/mss_nwc_init.h **** #define DELAY_CYCLES_500_NS            ((uint32_t)(0.0000005 * LIBERO_SETTING_MSS_COREPLEX_CPU_CLK)
  98:../src/platform/mpfs_hal/common/nwc/mss_nwc_init.h **** #define DELAY_CYCLES_1_MICRO           ((uint32_t)(DELAY_CYCLES_500_NS * 2U))
  99:../src/platform/mpfs_hal/common/nwc/mss_nwc_init.h **** #define DELAY_CYCLES_5_MICRO           ((uint32_t)(DELAY_CYCLES_500_NS * 10U))
 100:../src/platform/mpfs_hal/common/nwc/mss_nwc_init.h **** #define DELAY_CYCLES_50_MICRO          ((uint32_t)(DELAY_CYCLES_500_NS * 100U))
 101:../src/platform/mpfs_hal/common/nwc/mss_nwc_init.h **** #define DELAY_CYCLES_150_MICRO         ((uint32_t)(DELAY_CYCLES_500_NS * 300U))
 102:../src/platform/mpfs_hal/common/nwc/mss_nwc_init.h **** #define DELAY_CYCLES_250_MICRO         ((uint32_t)(DELAY_CYCLES_500_NS * 500U))
 103:../src/platform/mpfs_hal/common/nwc/mss_nwc_init.h **** #define DELAY_CYCLES_500_MICRO         ((uint32_t)(DELAY_CYCLES_500_NS * 1000U))
 104:../src/platform/mpfs_hal/common/nwc/mss_nwc_init.h **** #define DELAY_CYCLES_2MS               ((uint32_t)(DELAY_CYCLES_500_NS * 4000U))
 105:../src/platform/mpfs_hal/common/nwc/mss_nwc_init.h **** #define DELAY_CYCLES_100MS             ((uint32_t)(DELAY_CYCLES_2MS * 50U))
 106:../src/platform/mpfs_hal/common/nwc/mss_nwc_init.h **** 
 107:../src/platform/mpfs_hal/common/nwc/mss_nwc_init.h **** /***************************************************************************//**
 108:../src/platform/mpfs_hal/common/nwc/mss_nwc_init.h **** 
 109:../src/platform/mpfs_hal/common/nwc/mss_nwc_init.h ****  */
 110:../src/platform/mpfs_hal/common/nwc/mss_nwc_init.h **** typedef enum {
 111:../src/platform/mpfs_hal/common/nwc/mss_nwc_init.h ****     DDR_BOOT_PROGRESS      = 0x00      //!< DDR_BOOT_PROGRESS
 112:../src/platform/mpfs_hal/common/nwc/mss_nwc_init.h **** } MSS_REPORT_STATUS;
 113:../src/platform/mpfs_hal/common/nwc/mss_nwc_init.h **** 
 114:../src/platform/mpfs_hal/common/nwc/mss_nwc_init.h **** /*-------------------------------------------------------------------------*//**
 115:../src/platform/mpfs_hal/common/nwc/mss_nwc_init.h ****  * delay()
 116:../src/platform/mpfs_hal/common/nwc/mss_nwc_init.h ****  * Simple wait delay based on mcycles count
 117:../src/platform/mpfs_hal/common/nwc/mss_nwc_init.h ****  * @param n Number of mcycles to wait.
 118:../src/platform/mpfs_hal/common/nwc/mss_nwc_init.h ****  */
 119:../src/platform/mpfs_hal/common/nwc/mss_nwc_init.h **** static inline void delay(uint32_t n)
 120:../src/platform/mpfs_hal/common/nwc/mss_nwc_init.h **** {
  15              		.loc 1 120 1
  16              		.cfi_startproc
  17 0000 3971     		addi	sp,sp,-64
  18              		.cfi_def_cfa_offset 64
  19 0002 22FC     		sd	s0,56(sp)
  20              		.cfi_offset 8, -8
  21 0004 8000     		addi	s0,sp,64
  22              		.cfi_def_cfa 8, 0
  23 0006 AA87     		mv	a5,a0
  24 0008 2326F4FC 		sw	a5,-52(s0)
  25              	.LBB2:
 121:../src/platform/mpfs_hal/common/nwc/mss_nwc_init.h ****     volatile uint64_t cycles_end = rdcycle() + n ;
  26              		.loc 1 121 36
  27              	 #APP
  28              	# 121 "../src/platform/mpfs_hal/common/nwc/mss_nwc_init.h" 1
 122              	    while (rdcycle() < cycles_end)
  29              		csrr a5, cycle
  30              	# 0 "" 2
  31              	 #NO_APP
  32 0010 2334F4FE 		sd	a5,-24(s0)
  33 0014 033784FE 		ld	a4,-24(s0)
  34              	.LBE2:
 121:../src/platform/mpfs_hal/common/nwc/mss_nwc_init.h ****     volatile uint64_t cycles_end = rdcycle() + n ;
  35              		.loc 1 121 46
  36 0018 8367C4FC 		lwu	a5,-52(s0)
  37 001c BA97     		add	a5,a4,a5
 121:../src/platform/mpfs_hal/common/nwc/mss_nwc_init.h ****     volatile uint64_t cycles_end = rdcycle() + n ;
  38              		.loc 1 121 23
  39 001e 233CF4FC 		sd	a5,-40(s0)
  40              		.loc 1 122 11
  41 0022 0100     		nop
  42              	.L2:
  43              	.LBB3:
  44              		.loc 1 122 12 discriminator 1
  45              	 #APP
  46              	# 122 "../src/platform/mpfs_hal/common/nwc/mss_nwc_init.h" 1
 123              	    {
  47              		csrr a5, cycle
  48              	# 0 "" 2
  49              	 #NO_APP
  50 0028 2330F4FE 		sd	a5,-32(s0)
  51 002c 033704FE 		ld	a4,-32(s0)
  52              	.LBE3:
 122:../src/platform/mpfs_hal/common/nwc/mss_nwc_init.h ****     {
  53              		.loc 1 122 22 discriminator 1
  54 0030 833784FD 		ld	a5,-40(s0)
 122:../src/platform/mpfs_hal/common/nwc/mss_nwc_init.h ****     {
  55              		.loc 1 122 11 discriminator 1
  56 0034 E368F7FE 		bltu	a4,a5,.L2
 124:../src/platform/mpfs_hal/common/nwc/mss_nwc_init.h **** 
 125:../src/platform/mpfs_hal/common/nwc/mss_nwc_init.h ****     }
 126:../src/platform/mpfs_hal/common/nwc/mss_nwc_init.h **** }
  57              		.loc 1 126 1
  58 0038 0100     		nop
  59 003a 6274     		ld	s0,56(sp)
  60              		.cfi_restore 8
  61              		.cfi_def_cfa 2, 64
  62 003c 2161     		addi	sp,sp,64
  63              		.cfi_def_cfa_offset 0
  64 003e 8280     		jr	ra
  65              		.cfi_endproc
  66              	.LFE23:
  68              		.comm	calib_data,128,8
  69              		.comm	ddr_diag,16,8
  70              		.section	.sbss.rpc_166_fifo_offset,"aw",@nobits
  71              		.align	2
  74              	rpc_166_fifo_offset:
  75 0000 00000000 		.zero	4
  76              		.section	.sbss.ddr_error_count,"aw",@nobits
  77              		.align	2
  80              	ddr_error_count:
  81 0000 00000000 		.zero	4
  82              		.section	.text.ddr_state_machine,"ax",@progbits
  83              		.align	1
  84              		.globl	ddr_state_machine
  86              	ddr_state_machine:
  87              	.LFB24:
  88              		.file 2 "../src/platform/mpfs_hal/common/nwc/mss_ddr.c"
   1:../src/platform/mpfs_hal/common/nwc/mss_ddr.c **** /*******************************************************************************
   2:../src/platform/mpfs_hal/common/nwc/mss_ddr.c ****  * Copyright 2019-2022 Microchip FPGA Embedded Systems Solutions.
   3:../src/platform/mpfs_hal/common/nwc/mss_ddr.c ****  *
   4:../src/platform/mpfs_hal/common/nwc/mss_ddr.c ****  * SPDX-License-Identifier: MIT
   5:../src/platform/mpfs_hal/common/nwc/mss_ddr.c ****  *
   6:../src/platform/mpfs_hal/common/nwc/mss_ddr.c ****  * MPFS HAL Embedded Software
   7:../src/platform/mpfs_hal/common/nwc/mss_ddr.c ****  *
   8:../src/platform/mpfs_hal/common/nwc/mss_ddr.c ****  */
   9:../src/platform/mpfs_hal/common/nwc/mss_ddr.c **** 
  10:../src/platform/mpfs_hal/common/nwc/mss_ddr.c **** /*******************************************************************************
  11:../src/platform/mpfs_hal/common/nwc/mss_ddr.c ****  * @file mss_ddr.h
  12:../src/platform/mpfs_hal/common/nwc/mss_ddr.c ****  * @author Microchip-FPGA Embedded Systems Solutions
  13:../src/platform/mpfs_hal/common/nwc/mss_ddr.c ****  * @brief DDR related code
  14:../src/platform/mpfs_hal/common/nwc/mss_ddr.c ****  *
  15:../src/platform/mpfs_hal/common/nwc/mss_ddr.c ****  */
  16:../src/platform/mpfs_hal/common/nwc/mss_ddr.c **** //#define PRINT_CA_VREF_WINDOW "1"
  17:../src/platform/mpfs_hal/common/nwc/mss_ddr.c **** #define MOVE_CK
  18:../src/platform/mpfs_hal/common/nwc/mss_ddr.c **** #define MANUAL_ADDCMD_TRAINIG
  19:../src/platform/mpfs_hal/common/nwc/mss_ddr.c **** //#define FABRIC_NOISE_TEST
  20:../src/platform/mpfs_hal/common/nwc/mss_ddr.c **** #include <string.h>
  21:../src/platform/mpfs_hal/common/nwc/mss_ddr.c **** #include <stdio.h>
  22:../src/platform/mpfs_hal/common/nwc/mss_ddr.c **** #include "mpfs_hal/mss_hal.h"
  23:../src/platform/mpfs_hal/common/nwc/mss_ddr.c **** #include "mss_nwc_init.h"
  24:../src/platform/mpfs_hal/common/nwc/mss_ddr.c **** #ifdef DDR_SUPPORT
  25:../src/platform/mpfs_hal/common/nwc/mss_ddr.c **** #include "mss_ddr_debug.h"
  26:../src/platform/mpfs_hal/common/nwc/mss_ddr.c **** #include "simulation.h"
  27:../src/platform/mpfs_hal/common/nwc/mss_ddr.c **** #ifdef FABRIC_NOISE_TEST
  28:../src/platform/mpfs_hal/common/nwc/mss_ddr.c **** #include "drivers/mss_gpio/mss_gpio.h"
  29:../src/platform/mpfs_hal/common/nwc/mss_ddr.c **** #endif
  30:../src/platform/mpfs_hal/common/nwc/mss_ddr.c **** 
  31:../src/platform/mpfs_hal/common/nwc/mss_ddr.c **** /*******************************************************************************
  32:../src/platform/mpfs_hal/common/nwc/mss_ddr.c ****  * Local Defines
  33:../src/platform/mpfs_hal/common/nwc/mss_ddr.c ****  */
  34:../src/platform/mpfs_hal/common/nwc/mss_ddr.c **** /* This string is updated if any change to ddr driver */
  35:../src/platform/mpfs_hal/common/nwc/mss_ddr.c **** #define DDR_DRIVER_VERSION_STRING   "0.4.018"
  36:../src/platform/mpfs_hal/common/nwc/mss_ddr.c **** /* Version     |  Comment                                                     */
  37:../src/platform/mpfs_hal/common/nwc/mss_ddr.c **** /* 0.4.018     |  Corrected error introduced for DDR3 in 0.4.14               */
  38:../src/platform/mpfs_hal/common/nwc/mss_ddr.c **** /* 0.4.017     |  made SW_TRAING_BCLK_SCLK_OFFSET seperate for each mem type  */
  39:../src/platform/mpfs_hal/common/nwc/mss_ddr.c **** /* 0.4.016     |  DDR3-Added support for DDR3L removed in v0.3.027            */
  40:../src/platform/mpfs_hal/common/nwc/mss_ddr.c **** /*             |  Corrected dpc value update during write leveling            */
  41:../src/platform/mpfs_hal/common/nwc/mss_ddr.c **** /* 0.4.015     |  Added some debug feedback in verify state.                  */
  42:../src/platform/mpfs_hal/common/nwc/mss_ddr.c **** /* 0.4.014     |  Tidy-up, replace some majic numbers.No functional change.   */
  43:../src/platform/mpfs_hal/common/nwc/mss_ddr.c **** /* 0.4.013     |  ddr3- Corrected dpc value update during write leveling      */
  44:../src/platform/mpfs_hal/common/nwc/mss_ddr.c **** /* 0.4.012     |  ADD_CMD_CLK_MOVE_ORDER 0,1,2 for 1333Mhz, 1,2,0 for 1600MHz */
  45:../src/platform/mpfs_hal/common/nwc/mss_ddr.c **** /*             |  LIBERO_SETTING_RPC_156_VALUE 1 for 1333Mhz, 6 for 1600MHz   */
  46:../src/platform/mpfs_hal/common/nwc/mss_ddr.c **** /* 0.4.011     |  ADD_CMD_CLK_MOVE_ORDER changed from 0,1,2 to 1,2,0          */
  47:../src/platform/mpfs_hal/common/nwc/mss_ddr.c **** /* 0.4.010     |  LIBERO_SETTING_RPC_156_VALUE default changed from 1 to 6    */
  48:../src/platform/mpfs_hal/common/nwc/mss_ddr.c **** /* 0.4.009     |  vrgen, modify during write leveling for DDR3 corrected      */
  49:../src/platform/mpfs_hal/common/nwc/mss_ddr.c **** /* 0.4.008     |  DQ/DQS push order has been parameterised                    */
  50:../src/platform/mpfs_hal/common/nwc/mss_ddr.c **** /* 0.4.007     |  Corrected write_latency print message                       */
  51:../src/platform/mpfs_hal/common/nwc/mss_ddr.c **** /* 0.4.006     |  Refactored delay() routine, skips extra checking in write   */
  52:../src/platform/mpfs_hal/common/nwc/mss_ddr.c **** /*             |  calibration once a failure has occured to shorten training  */
  53:../src/platform/mpfs_hal/common/nwc/mss_ddr.c **** /*             |  time.                                                       */
  54:../src/platform/mpfs_hal/common/nwc/mss_ddr.c **** /* 0.4.005     |  When LIBERO_FAST_START, now slects random as opposed to     */
  55:../src/platform/mpfs_hal/common/nwc/mss_ddr.c **** /*             |  counting pattern.                                           */
  56:../src/platform/mpfs_hal/common/nwc/mss_ddr.c **** /* 0.4.004     |  Upadted tip_register_status() to show dual ranks            */
  57:../src/platform/mpfs_hal/common/nwc/mss_ddr.c **** /* 0.4.003     |  Added FAST_START option - can reduce post training checks   */
  58:../src/platform/mpfs_hal/common/nwc/mss_ddr.c **** /* 0.4.002     |  Added stat recording ddr training time                      */
  59:../src/platform/mpfs_hal/common/nwc/mss_ddr.c **** /* 0.4.001     |  Fixed DDR3 DDR_1333_MHZ define to match Libero gen version  */
  60:../src/platform/mpfs_hal/common/nwc/mss_ddr.c **** /* 0.4.000     |  corrected incorrect offset introduced in last commit        */
  61:../src/platform/mpfs_hal/common/nwc/mss_ddr.c **** /* 0.3.030     |  Added setting of rpc136, required for board tuning to pass  */
  62:../src/platform/mpfs_hal/common/nwc/mss_ddr.c **** /*             |  DQ/DQS Window when too small. Moves test start from the     */
  63:../src/platform/mpfs_hal/common/nwc/mss_ddr.c **** /*             |  starting edge.                                              */
  64:../src/platform/mpfs_hal/common/nwc/mss_ddr.c **** /* 0.3.029     |  LIBERO_SETTING_REFCLK_DDR3_1067_NUM_OFFSETS changed 2 to 1  */
  65:../src/platform/mpfs_hal/common/nwc/mss_ddr.c **** /* 0.3.028     |  ddr3_address_cmd_training() routine added                   */
  66:../src/platform/mpfs_hal/common/nwc/mss_ddr.c **** /* 0.3.027     |  ddr3 mod- vrgen, modify during write leveling               */
  67:../src/platform/mpfs_hal/common/nwc/mss_ddr.c **** /* 0.3.026     |  SW_TRAING_BCLK_SCLK_OFFSET changed from 0 to 5              */
  68:../src/platform/mpfs_hal/common/nwc/mss_ddr.c **** /* 0.3.025     |  LPDDR4@1600 ref clk offsets 4,3,2,4 changed to 3,4,2,5      */
  69:../src/platform/mpfs_hal/common/nwc/mss_ddr.c **** /* 0.3.024     |  lpddr4_manual_training() improved                           */
  70:../src/platform/mpfs_hal/common/nwc/mss_ddr.c **** /* 0.3.023     |  Changing the common mode of the Receiver to low common mode */
  71:../src/platform/mpfs_hal/common/nwc/mss_ddr.c **** /* 0.3.022     |  DDR_VERIFY_PATTERN_IN_CACHE added tests                     */
  72:../src/platform/mpfs_hal/common/nwc/mss_ddr.c **** /* 0.3.021     |  Turn off ODT during write leveling                          */
  73:../src/platform/mpfs_hal/common/nwc/mss_ddr.c **** /* 0.3.020     |  added for retrain reset                                     */
  74:../src/platform/mpfs_hal/common/nwc/mss_ddr.c **** /* 0.3.019     |  SAR122487 training not converging at 125C Min condition on  */
  75:../src/platform/mpfs_hal/common/nwc/mss_ddr.c **** /*             |  rev-c devices.                                              */
  76:../src/platform/mpfs_hal/common/nwc/mss_ddr.c **** /* 0.3.018     |  SAR121393 relates to DDR3 robustness when ECC not being used*/
  77:../src/platform/mpfs_hal/common/nwc/mss_ddr.c **** /*             |  Note: DDR3 with no ECC only affected varient                */
  78:../src/platform/mpfs_hal/common/nwc/mss_ddr.c **** /* 0.3.017     |  Removed some warnings, some tidy-up, removed sweep code     */
  79:../src/platform/mpfs_hal/common/nwc/mss_ddr.c **** /*             |  as not being used.                                          */
  80:../src/platform/mpfs_hal/common/nwc/mss_ddr.c **** /*             |  restriced INIT_AUTOINIT_DISABLE=0x1; in DDR_TRAINING_RESET  */
  81:../src/platform/mpfs_hal/common/nwc/mss_ddr.c **** /*             |  state to lpddr4 only, as only in lpddr4 DCT version         */
  82:../src/platform/mpfs_hal/common/nwc/mss_ddr.c **** /*             |  and causes issue for DDR3                                   */
  83:../src/platform/mpfs_hal/common/nwc/mss_ddr.c **** /* 0.3.016     |  Multiple LPDDR4 updates.                                    */
  84:../src/platform/mpfs_hal/common/nwc/mss_ddr.c **** /* 0.3.015     |  REFCLK change for LPDDR3, rpc168 = 0x0U for LPDDR3          */
  85:../src/platform/mpfs_hal/common/nwc/mss_ddr.c **** /* 0.3.014     |  DDR3 WPU/WPD overridden, REFCLK (0,1) -> (7,0)              */
  86:../src/platform/mpfs_hal/common/nwc/mss_ddr.c **** /* 0.3.013     |  DDR4 refclk offsets updated by dct                          */
  87:../src/platform/mpfs_hal/common/nwc/mss_ddr.c **** /* 0.3.012     |  DDR Controller reset toggled on start-up, DDR refclk        */
  88:../src/platform/mpfs_hal/common/nwc/mss_ddr.c **** /*             |  default offsets updated                                     */
  89:../src/platform/mpfs_hal/common/nwc/mss_ddr.c **** /* 0.3.011     |  Update to DDR4 ADD CMD sweep @800 <0,7,1> to <7,0>          */
  90:../src/platform/mpfs_hal/common/nwc/mss_ddr.c **** /* 0.3.010     |  Update to LPDDR4 ADD CMD sweep values <5,4,6,3> to <1,5,1,5>*/
  91:../src/platform/mpfs_hal/common/nwc/mss_ddr.c **** /* 0.3.009     |  Corrected refclk_offset used for lower frequecies           */
  92:../src/platform/mpfs_hal/common/nwc/mss_ddr.c **** /*             |  See function: ddr_manual_addcmd_refclk_offset()             */
  93:../src/platform/mpfs_hal/common/nwc/mss_ddr.c **** /* 0.3.008     |  Removed weak rand() function, which continually returned 0  */
  94:../src/platform/mpfs_hal/common/nwc/mss_ddr.c **** /* 0.3.007     |  Updated DDR3 add cmd offsets                                */
  95:../src/platform/mpfs_hal/common/nwc/mss_ddr.c **** /*             |  Updated DDR4 add cmd offsets                                */
  96:../src/platform/mpfs_hal/common/nwc/mss_ddr.c **** /* 0.3.006     |  modified debug printing after failure                       */
  97:../src/platform/mpfs_hal/common/nwc/mss_ddr.c **** /* 0.3.005     |  modified addcmd offsets DDR3/DDR3L @ 1333 = 0,1             */
  98:../src/platform/mpfs_hal/common/nwc/mss_ddr.c **** /*             |  DDR3/DDR3L to 0,1                                           */
  99:../src/platform/mpfs_hal/common/nwc/mss_ddr.c **** /*             |  Also some ADD CMD training improvments from Jaswanth        */
 100:../src/platform/mpfs_hal/common/nwc/mss_ddr.c **** /* 0.3.004     |  Removed dq setting before claibration for DDR3/4 and lpddr3 */
 101:../src/platform/mpfs_hal/common/nwc/mss_ddr.c **** /*             |  Some tidy up                                                */
 102:../src/platform/mpfs_hal/common/nwc/mss_ddr.c **** /* 0.3.003     |  Modified latency sweep from 0-8 to 0-3. Speeded u[p MCC test*/
 103:../src/platform/mpfs_hal/common/nwc/mss_ddr.c **** /*             |  when faulure                                                */
 104:../src/platform/mpfs_hal/common/nwc/mss_ddr.c **** /* 0.3.002     |  Move refclk offset outside manual training loop             */
 105:../src/platform/mpfs_hal/common/nwc/mss_ddr.c **** /* 0.3.001     |  wip - adding in manual add cmd training                     */
 106:../src/platform/mpfs_hal/common/nwc/mss_ddr.c **** /* 0.3.000     |  wip - adding in manual add cmd training                     */
 107:../src/platform/mpfs_hal/common/nwc/mss_ddr.c **** /* 0.2.003     |  Updated SEG setup to match Libero 12.7, Removed warnings,   */
 108:../src/platform/mpfs_hal/common/nwc/mss_ddr.c **** /*             |  shortened timeout in mtc_test                               */
 109:../src/platform/mpfs_hal/common/nwc/mss_ddr.c **** /* 0.2.002     |  MTC_test() update -added more tests                         */
 110:../src/platform/mpfs_hal/common/nwc/mss_ddr.c **** /* 0.2.001     |  Reverted ADDCMD training command                            */
 111:../src/platform/mpfs_hal/common/nwc/mss_ddr.c **** /* 0.2.000     |  RPC166 now does short retrain by default                    */
 112:../src/platform/mpfs_hal/common/nwc/mss_ddr.c **** /* 0.1.009     |  Removed AXI overrides. Agreed better placed in              */
 113:../src/platform/mpfs_hal/common/nwc/mss_ddr.c **** /*             |  mss_sw_config.h util until corrected in configurator v3.0   */
 114:../src/platform/mpfs_hal/common/nwc/mss_ddr.c **** /* 0.1.008     |  Added manual addcmd traing for all variants                 */
 115:../src/platform/mpfs_hal/common/nwc/mss_ddr.c **** /* 0.1.007     |  Added some updates from SVG and DCT. Also overrides AXI     */
 116:../src/platform/mpfs_hal/common/nwc/mss_ddr.c **** /*             |  ranges if incorrectly set (Liber0 v12.5 and Liber0 v12.6    */
 117:../src/platform/mpfs_hal/common/nwc/mss_ddr.c **** /* 0.1.006     |  Added tuning for rpc166, read lane FIFO alignement          */
 118:../src/platform/mpfs_hal/common/nwc/mss_ddr.c **** /* 0.1.005     |  Added parameter to modify rpc166, lane out of sync on read  */
 119:../src/platform/mpfs_hal/common/nwc/mss_ddr.c **** /* 0.1.004     |  Corrected default RPC220 setting so dq/dqs window centred   */
 120:../src/platform/mpfs_hal/common/nwc/mss_ddr.c **** /* 0.1.003     |  refclk_phase correctly masked during bclk sclk sw training  */
 121:../src/platform/mpfs_hal/common/nwc/mss_ddr.c **** /* 0.1.002     |  Reset modified- corrects softreset on retry issue  (1.8.x)  */
 122:../src/platform/mpfs_hal/common/nwc/mss_ddr.c **** /* 0.1.001     |  Reset modified- corrects softreset on retry issue  (1.7.2)  */
 123:../src/platform/mpfs_hal/common/nwc/mss_ddr.c **** /* 0.0.016     |  Added #define DDR_FULL_32BIT_NC_CHECK_EN to mss_ddr.h       */
 124:../src/platform/mpfs_hal/common/nwc/mss_ddr.c **** /* 0.0.016     |  updated mss_ddr_debug.c with additio of 32-bit write test   */
 125:../src/platform/mpfs_hal/common/nwc/mss_ddr.c **** /* 0.0.015     |  DDR3L - Use Software Bclk Sclk training                     */
 126:../src/platform/mpfs_hal/common/nwc/mss_ddr.c **** /* 0.0.014     |  DDR3 and DDR update to sync with SVG proven golden version  */
 127:../src/platform/mpfs_hal/common/nwc/mss_ddr.c **** /* 0.0.013     |  Added code to turn off DM if DDR4 and using ECC             */
 128:../src/platform/mpfs_hal/common/nwc/mss_ddr.c **** /* 0.0.012     |  Added support for turning off unused I/O from Libero        */
 129:../src/platform/mpfs_hal/common/nwc/mss_ddr.c **** 
 130:../src/platform/mpfs_hal/common/nwc/mss_ddr.c **** /*
 131:../src/platform/mpfs_hal/common/nwc/mss_ddr.c ****  * Calibration data records calculated write calibration values during training
 132:../src/platform/mpfs_hal/common/nwc/mss_ddr.c ****  */
 133:../src/platform/mpfs_hal/common/nwc/mss_ddr.c **** mss_ddr_calibration calib_data;
 134:../src/platform/mpfs_hal/common/nwc/mss_ddr.c **** mss_ddr_diag    ddr_diag;
 135:../src/platform/mpfs_hal/common/nwc/mss_ddr.c **** 
 136:../src/platform/mpfs_hal/common/nwc/mss_ddr.c **** /* rx lane FIFO used for tuning  */
 137:../src/platform/mpfs_hal/common/nwc/mss_ddr.c **** #if (TUNE_RPC_166_VALUE == 1)
 138:../src/platform/mpfs_hal/common/nwc/mss_ddr.c **** static uint32_t rpc_166_fifo_offset;
 139:../src/platform/mpfs_hal/common/nwc/mss_ddr.c **** #endif
 140:../src/platform/mpfs_hal/common/nwc/mss_ddr.c **** 
 141:../src/platform/mpfs_hal/common/nwc/mss_ddr.c **** /* auto tunes rpc156 when enabled */
 142:../src/platform/mpfs_hal/common/nwc/mss_ddr.c **** #ifdef TUNE_RPC_156_DQDQS_INIT_VALUE
 143:../src/platform/mpfs_hal/common/nwc/mss_ddr.c **** static uint32_t rpc_156_dqdqs_init_offset = LIBERO_SETTING_MIN_RPC_156_VALUE;
 144:../src/platform/mpfs_hal/common/nwc/mss_ddr.c **** #endif
 145:../src/platform/mpfs_hal/common/nwc/mss_ddr.c **** 
 146:../src/platform/mpfs_hal/common/nwc/mss_ddr.c **** /*
 147:../src/platform/mpfs_hal/common/nwc/mss_ddr.c ****  * This string is used as a quick sanity check of write/read to DDR.
 148:../src/platform/mpfs_hal/common/nwc/mss_ddr.c ****  * The memory test core is used for more comprehensive testing during and
 149:../src/platform/mpfs_hal/common/nwc/mss_ddr.c ****  * post calibration
 150:../src/platform/mpfs_hal/common/nwc/mss_ddr.c ****  */
 151:../src/platform/mpfs_hal/common/nwc/mss_ddr.c **** #ifdef DDR_SANITY_CHECKS_EN
 152:../src/platform/mpfs_hal/common/nwc/mss_ddr.c **** static const uint32_t test_string[] = {
 153:../src/platform/mpfs_hal/common/nwc/mss_ddr.c ****         0x12345678,23211234,0x35675678,0x4456789,0x56789123,0x65432198,\
 154:../src/platform/mpfs_hal/common/nwc/mss_ddr.c ****         0x45673214,0xABCD1234,0x99999999,0xaaaaaaaa,0xbbbbbbbb,0xcccccccc,\
 155:../src/platform/mpfs_hal/common/nwc/mss_ddr.c ****         0xdddddddd,0xeeeeeeee,0x12121212,0x12345678};
 156:../src/platform/mpfs_hal/common/nwc/mss_ddr.c **** #endif
 157:../src/platform/mpfs_hal/common/nwc/mss_ddr.c **** 
 158:../src/platform/mpfs_hal/common/nwc/mss_ddr.c **** /*******************************************************************************
 159:../src/platform/mpfs_hal/common/nwc/mss_ddr.c ****  * external functions
 160:../src/platform/mpfs_hal/common/nwc/mss_ddr.c ****  */
 161:../src/platform/mpfs_hal/common/nwc/mss_ddr.c **** 
 162:../src/platform/mpfs_hal/common/nwc/mss_ddr.c **** /* Use to record instance of errors during calibration */
 163:../src/platform/mpfs_hal/common/nwc/mss_ddr.c **** static uint32_t ddr_error_count;
 164:../src/platform/mpfs_hal/common/nwc/mss_ddr.c **** 
 165:../src/platform/mpfs_hal/common/nwc/mss_ddr.c **** /*******************************************************************************
 166:../src/platform/mpfs_hal/common/nwc/mss_ddr.c ****  * Local function declarations
 167:../src/platform/mpfs_hal/common/nwc/mss_ddr.c ****  */
 168:../src/platform/mpfs_hal/common/nwc/mss_ddr.c **** #ifdef ZQ_CAL
 169:../src/platform/mpfs_hal/common/nwc/mss_ddr.c **** static uint32_t zq_cal(void);
 170:../src/platform/mpfs_hal/common/nwc/mss_ddr.c **** #endif
 171:../src/platform/mpfs_hal/common/nwc/mss_ddr.c **** static uint32_t mode_register_masked_write(uint32_t address);
 172:../src/platform/mpfs_hal/common/nwc/mss_ddr.c **** static uint32_t mode_register_masked_write_x5(uint32_t address);
 173:../src/platform/mpfs_hal/common/nwc/mss_ddr.c **** static uint32_t ddr_setup(void);
 174:../src/platform/mpfs_hal/common/nwc/mss_ddr.c **** static void init_ddrc(void);
 175:../src/platform/mpfs_hal/common/nwc/mss_ddr.c **** static uint8_t write_calibration_using_mtc(uint8_t num_of_lanes_to_calibrate);
 176:../src/platform/mpfs_hal/common/nwc/mss_ddr.c **** /*static uint8_t mode_register_write(uint32_t MR_ADDR, uint32_t MR_DATA);*/
 177:../src/platform/mpfs_hal/common/nwc/mss_ddr.c **** static uint8_t MTC_test(uint8_t mask, uint64_t start_address, uint32_t size, MTC_PATTERN pattern, M
 178:../src/platform/mpfs_hal/common/nwc/mss_ddr.c **** #ifdef VREFDQ_CALIB
 179:../src/platform/mpfs_hal/common/nwc/mss_ddr.c **** static uint8_t FPGA_VREFDQ_calibration_using_mtc(void);
 180:../src/platform/mpfs_hal/common/nwc/mss_ddr.c **** static uint8_t VREFDQ_calibration_using_mtc(void);
 181:../src/platform/mpfs_hal/common/nwc/mss_ddr.c **** #endif
 182:../src/platform/mpfs_hal/common/nwc/mss_ddr.c **** #ifdef DDR_SANITY_CHECKS_EN
 183:../src/platform/mpfs_hal/common/nwc/mss_ddr.c **** static uint8_t rw_sanity_chk(uint64_t * address, uint32_t count);
 184:../src/platform/mpfs_hal/common/nwc/mss_ddr.c **** static uint8_t mtc_sanity_check(uint64_t start_address);
 185:../src/platform/mpfs_hal/common/nwc/mss_ddr.c **** #endif
 186:../src/platform/mpfs_hal/common/nwc/mss_ddr.c **** #ifdef SET_VREF_LPDDR4_MODE_REGS
 187:../src/platform/mpfs_hal/common/nwc/mss_ddr.c **** static uint8_t mode_register_write(uint32_t MR_ADDR, uint32_t MR_DATA);
 188:../src/platform/mpfs_hal/common/nwc/mss_ddr.c **** #endif
 189:../src/platform/mpfs_hal/common/nwc/mss_ddr.c **** #ifdef MODE_WRITE1_USED
 190:../src/platform/mpfs_hal/common/nwc/mss_ddr.c **** static uint32_t mode_register_write1(uint32_t address, uint32_t data);
 191:../src/platform/mpfs_hal/common/nwc/mss_ddr.c **** #endif
 192:../src/platform/mpfs_hal/common/nwc/mss_ddr.c **** #ifdef DDR_SANITY_CHECKS_EN
 193:../src/platform/mpfs_hal/common/nwc/mss_ddr.c **** static uint8_t memory_tests(void);
 194:../src/platform/mpfs_hal/common/nwc/mss_ddr.c **** #endif
 195:../src/platform/mpfs_hal/common/nwc/mss_ddr.c **** static void ddr_off_mode(void);
 196:../src/platform/mpfs_hal/common/nwc/mss_ddr.c **** static void set_ddr_mode_reg_and_vs_bits(uint32_t dpc_bits);
 197:../src/platform/mpfs_hal/common/nwc/mss_ddr.c **** static void set_ddr_rpc_regs(DDR_TYPE ddr_type);
 198:../src/platform/mpfs_hal/common/nwc/mss_ddr.c **** static uint8_t get_num_lanes(void);
 199:../src/platform/mpfs_hal/common/nwc/mss_ddr.c **** static void load_dq(uint8_t lane);
 200:../src/platform/mpfs_hal/common/nwc/mss_ddr.c **** static uint8_t use_software_bclk_sclk_training(DDR_TYPE ddr_type);
 201:../src/platform/mpfs_hal/common/nwc/mss_ddr.c **** static uint8_t bclk_sclk_offset(DDR_TYPE ddr_type);
 202:../src/platform/mpfs_hal/common/nwc/mss_ddr.c **** static void config_ddr_io_pull_up_downs_rpc_bits(DDR_TYPE ddr_type);
 203:../src/platform/mpfs_hal/common/nwc/mss_ddr.c **** #ifdef MANUAL_ADDCMD_TRAINIG
 204:../src/platform/mpfs_hal/common/nwc/mss_ddr.c **** static uint8_t ddr_manual_addcmd_refclk_offset(DDR_TYPE ddr_type, uint8_t * refclk_sweep_index);
 205:../src/platform/mpfs_hal/common/nwc/mss_ddr.c **** #endif
 206:../src/platform/mpfs_hal/common/nwc/mss_ddr.c **** static void lpddr4_manual_training(DDR_TYPE ddr_type, uint8_t * refclk_sweep_index, uint32_t retry_
 207:../src/platform/mpfs_hal/common/nwc/mss_ddr.c **** static void non_lpddr4_address_cmd_training(DDR_TYPE ddr_type, uint8_t * refclk_sweep_index, uint32
 208:../src/platform/mpfs_hal/common/nwc/mss_ddr.c **** static void ddr3_address_cmd_training(DDR_TYPE ddr_type, uint8_t * refclk_sweep_index, uint32_t ret
 209:../src/platform/mpfs_hal/common/nwc/mss_ddr.c **** 
 210:../src/platform/mpfs_hal/common/nwc/mss_ddr.c **** /*******************************************************************************
 211:../src/platform/mpfs_hal/common/nwc/mss_ddr.c ****  * External function declarations
 212:../src/platform/mpfs_hal/common/nwc/mss_ddr.c ****  */
 213:../src/platform/mpfs_hal/common/nwc/mss_ddr.c **** #ifdef DEBUG_DDR_INIT
 214:../src/platform/mpfs_hal/common/nwc/mss_ddr.c **** extern mss_uart_instance_t *g_debug_uart;
 215:../src/platform/mpfs_hal/common/nwc/mss_ddr.c **** #ifdef DEBUG_DDR_DDRCFG
 216:../src/platform/mpfs_hal/common/nwc/mss_ddr.c **** void debug_read_ddrcfg(void);
 217:../src/platform/mpfs_hal/common/nwc/mss_ddr.c **** #endif
 218:../src/platform/mpfs_hal/common/nwc/mss_ddr.c **** #endif
 219:../src/platform/mpfs_hal/common/nwc/mss_ddr.c **** 
 220:../src/platform/mpfs_hal/common/nwc/mss_ddr.c **** #ifdef FABRIC_NOISE_TEST
 221:../src/platform/mpfs_hal/common/nwc/mss_ddr.c **** uint32_t fabric_noise_en = 1;
 222:../src/platform/mpfs_hal/common/nwc/mss_ddr.c **** uint32_t fabric_noise_en_log = 1;
 223:../src/platform/mpfs_hal/common/nwc/mss_ddr.c **** uint32_t num_of_noise_blocks_en = 3; /* do not set less than 1 */
 224:../src/platform/mpfs_hal/common/nwc/mss_ddr.c **** uint32_t noise_ena = 0x0;
 225:../src/platform/mpfs_hal/common/nwc/mss_ddr.c **** #endif
 226:../src/platform/mpfs_hal/common/nwc/mss_ddr.c **** 
 227:../src/platform/mpfs_hal/common/nwc/mss_ddr.c **** /*******************************************************************************
 228:../src/platform/mpfs_hal/common/nwc/mss_ddr.c ****  * Instance definitions
 229:../src/platform/mpfs_hal/common/nwc/mss_ddr.c ****  */
 230:../src/platform/mpfs_hal/common/nwc/mss_ddr.c **** 
 231:../src/platform/mpfs_hal/common/nwc/mss_ddr.c **** /*******************************************************************************
 232:../src/platform/mpfs_hal/common/nwc/mss_ddr.c ****  * Public Functions - API
 233:../src/platform/mpfs_hal/common/nwc/mss_ddr.c ****  ******************************************************************************/
 234:../src/platform/mpfs_hal/common/nwc/mss_ddr.c **** 
 235:../src/platform/mpfs_hal/common/nwc/mss_ddr.c **** 
 236:../src/platform/mpfs_hal/common/nwc/mss_ddr.c **** /***************************************************************************//**
 237:../src/platform/mpfs_hal/common/nwc/mss_ddr.c ****  * ddr_state_machine(DDR_SS_COMMAND)
 238:../src/platform/mpfs_hal/common/nwc/mss_ddr.c ****  * call this routine if you do not require the state machine
 239:../src/platform/mpfs_hal/common/nwc/mss_ddr.c ****  *
 240:../src/platform/mpfs_hal/common/nwc/mss_ddr.c ****  * @param ddr_type
 241:../src/platform/mpfs_hal/common/nwc/mss_ddr.c ****  */
 242:../src/platform/mpfs_hal/common/nwc/mss_ddr.c **** uint32_t  ddr_state_machine(DDR_SS_COMMAND command)
 243:../src/platform/mpfs_hal/common/nwc/mss_ddr.c **** {
  89              		.loc 2 243 1
  90              		.cfi_startproc
  91 0000 0111     		addi	sp,sp,-32
  92              		.cfi_def_cfa_offset 32
  93 0002 06EC     		sd	ra,24(sp)
  94 0004 22E8     		sd	s0,16(sp)
  95              		.cfi_offset 1, -8
  96              		.cfi_offset 8, -16
  97 0006 0010     		addi	s0,sp,32
  98              		.cfi_def_cfa 8, 0
  99 0008 AA87     		mv	a5,a0
 100 000a 2326F4FE 		sw	a5,-20(s0)
 244:../src/platform/mpfs_hal/common/nwc/mss_ddr.c ****     static DDR_SM_STATES ddr_state;
 245:../src/platform/mpfs_hal/common/nwc/mss_ddr.c ****     static uint32_t return_status;
 246:../src/platform/mpfs_hal/common/nwc/mss_ddr.c ****     if (command == DDR_SS__INIT)
 101              		.loc 2 246 8
 102 000e 8327C4FE 		lw	a5,-20(s0)
 103 0012 8127     		sext.w	a5,a5
 104 0014 99E7     		bne	a5,zero,.L4
 247:../src/platform/mpfs_hal/common/nwc/mss_ddr.c ****     {
 248:../src/platform/mpfs_hal/common/nwc/mss_ddr.c ****         ddr_state = DDR_STATE_INIT;
 105              		.loc 2 248 19
 106 0016 97070000 		lla	a5,ddr_state.14220
 106      93870700 
 107 001e 23A00700 		sw	zero,0(a5)
 108              	.L4:
 249:../src/platform/mpfs_hal/common/nwc/mss_ddr.c ****     }
 250:../src/platform/mpfs_hal/common/nwc/mss_ddr.c ****     SIM_FEEDBACK0(100U + ddr_state);
 251:../src/platform/mpfs_hal/common/nwc/mss_ddr.c ****     SIM_FEEDBACK1(ddr_state);
 252:../src/platform/mpfs_hal/common/nwc/mss_ddr.c ****     switch (ddr_state)
 109              		.loc 2 252 5
 110 0022 97070000 		lla	a5,ddr_state.14220
 110      93870700 
 111 002a 9843     		lw	a4,0(a5)
 112 002c BA86     		mv	a3,a4
 113 002e 8547     		li	a5,1
 114 0030 638FF602 		beq	a3,a5,.L9
 115 0034 8947     		li	a5,2
 116 0036 630FF700 		beq	a4,a5,.L6
 253:../src/platform/mpfs_hal/common/nwc/mss_ddr.c ****     {
 254:../src/platform/mpfs_hal/common/nwc/mss_ddr.c ****         default:
 255:../src/platform/mpfs_hal/common/nwc/mss_ddr.c ****         case DDR_STATE_INIT:
 256:../src/platform/mpfs_hal/common/nwc/mss_ddr.c ****             ddr_state = DDR_STATE_TRAINING;
 117              		.loc 2 256 23
 118 003a 97070000 		lla	a5,ddr_state.14220
 118      93870700 
 119 0042 0947     		li	a4,2
 120 0044 98C3     		sw	a4,0(a5)
 257:../src/platform/mpfs_hal/common/nwc/mss_ddr.c ****             return_status = 0U;
 121              		.loc 2 257 27
 122 0046 97070000 		lla	a5,return_status.14221
 122      93870700 
 123 004e 23A00700 		sw	zero,0(a5)
 258:../src/platform/mpfs_hal/common/nwc/mss_ddr.c ****             break;
 124              		.loc 2 258 13
 125 0052 39A8     		j	.L7
 126              	.L6:
 259:../src/platform/mpfs_hal/common/nwc/mss_ddr.c **** 
 260:../src/platform/mpfs_hal/common/nwc/mss_ddr.c ****         case DDR_STATE_TRAINING:
 261:../src/platform/mpfs_hal/common/nwc/mss_ddr.c ****             /*
 262:../src/platform/mpfs_hal/common/nwc/mss_ddr.c ****              * We stay in this state until finished training/fail training
 263:../src/platform/mpfs_hal/common/nwc/mss_ddr.c ****              */
 264:../src/platform/mpfs_hal/common/nwc/mss_ddr.c ****             return_status = ddr_setup();
 127              		.loc 2 264 29
 128 0054 97000000 		call	ddr_setup
 128      E7800000 
 129 005c AA87     		mv	a5,a0
 130 005e 1B870700 		sext.w	a4,a5
 131              		.loc 2 264 27
 132 0062 97070000 		lla	a5,return_status.14221
 132      93870700 
 133 006a 98C3     		sw	a4,0(a5)
 265:../src/platform/mpfs_hal/common/nwc/mss_ddr.c ****             break;
 134              		.loc 2 265 13
 135 006c 11A0     		j	.L7
 136              	.L9:
 266:../src/platform/mpfs_hal/common/nwc/mss_ddr.c **** 
 267:../src/platform/mpfs_hal/common/nwc/mss_ddr.c ****         case DDR_STATE_MONITOR:
 268:../src/platform/mpfs_hal/common/nwc/mss_ddr.c ****             /*
 269:../src/platform/mpfs_hal/common/nwc/mss_ddr.c ****              * 1. Periodically check DDR access
 270:../src/platform/mpfs_hal/common/nwc/mss_ddr.c ****              * 2. Run any tests, as directed
 271:../src/platform/mpfs_hal/common/nwc/mss_ddr.c ****              */
 272:../src/platform/mpfs_hal/common/nwc/mss_ddr.c **** //            return_status = ddr_monitor();
 273:../src/platform/mpfs_hal/common/nwc/mss_ddr.c ****             break;
 137              		.loc 2 273 13
 138 006e 0100     		nop
 139              	.L7:
 274:../src/platform/mpfs_hal/common/nwc/mss_ddr.c ****     }
 275:../src/platform/mpfs_hal/common/nwc/mss_ddr.c ****     SIM_FEEDBACK1(0xFF000000UL + return_status);
 276:../src/platform/mpfs_hal/common/nwc/mss_ddr.c ****     return (return_status);
 140              		.loc 2 276 12
 141 0070 97070000 		lla	a5,return_status.14221
 141      93870700 
 142 0078 9C43     		lw	a5,0(a5)
 277:../src/platform/mpfs_hal/common/nwc/mss_ddr.c **** }
 143              		.loc 2 277 1
 144 007a 3E85     		mv	a0,a5
 145 007c E260     		ld	ra,24(sp)
 146              		.cfi_restore 1
 147 007e 4264     		ld	s0,16(sp)
 148              		.cfi_restore 8
 149              		.cfi_def_cfa 2, 32
 150 0080 0561     		addi	sp,sp,32
 151              		.cfi_def_cfa_offset 0
 152 0082 8280     		jr	ra
 153              		.cfi_endproc
 154              	.LFE24:
 156              		.section	.text.ddr_setup,"ax",@progbits
 157              		.align	1
 159              	ddr_setup:
 160              	.LFB25:
 278:../src/platform/mpfs_hal/common/nwc/mss_ddr.c **** 
 279:../src/platform/mpfs_hal/common/nwc/mss_ddr.c **** 
 280:../src/platform/mpfs_hal/common/nwc/mss_ddr.c **** /***************************************************************************//**
 281:../src/platform/mpfs_hal/common/nwc/mss_ddr.c ****  * ddr_setup(DDR_TYPE ddr_type)
 282:../src/platform/mpfs_hal/common/nwc/mss_ddr.c ****  * call this routine if you do not require the state machine
 283:../src/platform/mpfs_hal/common/nwc/mss_ddr.c ****  *
 284:../src/platform/mpfs_hal/common/nwc/mss_ddr.c ****  * @param ddr_type
 285:../src/platform/mpfs_hal/common/nwc/mss_ddr.c ****  */
 286:../src/platform/mpfs_hal/common/nwc/mss_ddr.c **** static uint32_t ddr_setup(void)
 287:../src/platform/mpfs_hal/common/nwc/mss_ddr.c **** {
 161              		.loc 2 287 1
 162              		.cfi_startproc
 163 0000 1171     		addi	sp,sp,-256
 164              		.cfi_def_cfa_offset 256
 165 0002 86FD     		sd	ra,248(sp)
 166 0004 A2F9     		sd	s0,240(sp)
 167              		.cfi_offset 1, -8
 168              		.cfi_offset 8, -16
 169 0006 0002     		addi	s0,sp,256
 170              		.cfi_def_cfa 8, 0
 288:../src/platform/mpfs_hal/common/nwc/mss_ddr.c ****     static DDR_TRAINING_SM ddr_training_state = DDR_TRAINING_INIT;
 289:../src/platform/mpfs_hal/common/nwc/mss_ddr.c ****     static uint32_t error;
 290:../src/platform/mpfs_hal/common/nwc/mss_ddr.c ****     static uint32_t timeout;
 291:../src/platform/mpfs_hal/common/nwc/mss_ddr.c **** #ifdef DEBUG_DDR_INIT
 292:../src/platform/mpfs_hal/common/nwc/mss_ddr.c ****     static uint32_t addr_cmd_value;
 293:../src/platform/mpfs_hal/common/nwc/mss_ddr.c ****     static uint32_t bclk_sclk_offset_value;
 294:../src/platform/mpfs_hal/common/nwc/mss_ddr.c ****     static uint32_t dpc_vrgen_v_value;
 295:../src/platform/mpfs_hal/common/nwc/mss_ddr.c ****     static uint32_t dpc_vrgen_h_value;
 296:../src/platform/mpfs_hal/common/nwc/mss_ddr.c ****     static uint32_t dpc_vrgen_vs_value;
 297:../src/platform/mpfs_hal/common/nwc/mss_ddr.c **** #endif
 298:../src/platform/mpfs_hal/common/nwc/mss_ddr.c ****     static uint32_t retry_count;
 299:../src/platform/mpfs_hal/common/nwc/mss_ddr.c ****     static uint32_t write_latency;
 300:../src/platform/mpfs_hal/common/nwc/mss_ddr.c ****     static uint32_t tip_cfg_params;
 301:../src/platform/mpfs_hal/common/nwc/mss_ddr.c ****     static uint32_t dpc_bits;
 302:../src/platform/mpfs_hal/common/nwc/mss_ddr.c ****     static uint64_t training_start_cycle;
 303:../src/platform/mpfs_hal/common/nwc/mss_ddr.c **** #if (TUNE_RPC_166_VALUE == 1)
 304:../src/platform/mpfs_hal/common/nwc/mss_ddr.c ****     static uint8_t num_rpc_166_retires = 0U;
 305:../src/platform/mpfs_hal/common/nwc/mss_ddr.c **** #endif
 306:../src/platform/mpfs_hal/common/nwc/mss_ddr.c **** #ifdef MANUAL_ADDCMD_TRAINIG
 307:../src/platform/mpfs_hal/common/nwc/mss_ddr.c ****     static uint8_t refclk_offset;
 308:../src/platform/mpfs_hal/common/nwc/mss_ddr.c ****     static  uint8_t refclk_sweep_index =0xFU;
 309:../src/platform/mpfs_hal/common/nwc/mss_ddr.c **** #endif
 310:../src/platform/mpfs_hal/common/nwc/mss_ddr.c ****     static uint32_t bclk_answer = 0U;
 311:../src/platform/mpfs_hal/common/nwc/mss_ddr.c ****     DDR_TYPE ddr_type;
 312:../src/platform/mpfs_hal/common/nwc/mss_ddr.c ****     uint32_t ret_status = 0U;
 171              		.loc 2 312 14
 172 0008 232204FE 		sw	zero,-28(s0)
 313:../src/platform/mpfs_hal/common/nwc/mss_ddr.c ****     uint8_t number_of_lanes_to_calibrate;
 314:../src/platform/mpfs_hal/common/nwc/mss_ddr.c **** 
 315:../src/platform/mpfs_hal/common/nwc/mss_ddr.c ****     ddr_type = LIBERO_SETTING_DDRPHY_MODE & DDRPHY_MODE_MASK;
 173              		.loc 2 315 14
 174 000c 9147     		li	a5,4
 175 000e 232EF4F6 		sw	a5,-132(s0)
 316:../src/platform/mpfs_hal/common/nwc/mss_ddr.c **** 
 317:../src/platform/mpfs_hal/common/nwc/mss_ddr.c ****     SIM_FEEDBACK0(200U + ddr_training_state);
 318:../src/platform/mpfs_hal/common/nwc/mss_ddr.c ****     SIM_FEEDBACK1(0U);
 319:../src/platform/mpfs_hal/common/nwc/mss_ddr.c **** 
 320:../src/platform/mpfs_hal/common/nwc/mss_ddr.c ****     switch (ddr_training_state)
 176              		.loc 2 320 5
 177 0012 97070000 		lla	a5,ddr_training_state.14230
 177      93870700 
 178 001a 9C43     		lw	a5,0(a5)
 179 001c BE86     		mv	a3,a5
 180 001e 1307A003 		li	a4,58
 181 0022 6374D700 		bgtu	a3,a4,.L198
 181      6F20C05A 
 182 002a 13972700 		slli	a4,a5,2
 183 002e 97070000 		lla	a5,.L13
 183      93870700 
 184 0036 BA97     		add	a5,a4,a5
 185 0038 9C43     		lw	a5,0(a5)
 186 003a 1B870700 		sext.w	a4,a5
 187 003e 97070000 		lla	a5,.L13
 187      93870700 
 188 0046 BA97     		add	a5,a4,a5
 189 0048 8287     		jr	a5
 190              		.section	.rodata.ddr_setup,"a",@progbits
 191              		.align	2
 192              		.align	2
 193              	.L13:
 194 0000 00000000 		.word	.L68-.L13
 195 0004 00000000 		.word	.L67-.L13
 196 0008 00000000 		.word	.L198-.L13
 197 000c 00000000 		.word	.L198-.L13
 198 0010 00000000 		.word	.L66-.L13
 199 0014 00000000 		.word	.L65-.L13
 200 0018 00000000 		.word	.L64-.L13
 201 001c 00000000 		.word	.L63-.L13
 202 0020 00000000 		.word	.L62-.L13
 203 0024 00000000 		.word	.L61-.L13
 204 0028 00000000 		.word	.L60-.L13
 205 002c 00000000 		.word	.L59-.L13
 206 0030 00000000 		.word	.L58-.L13
 207 0034 00000000 		.word	.L57-.L13
 208 0038 00000000 		.word	.L56-.L13
 209 003c 00000000 		.word	.L55-.L13
 210 0040 00000000 		.word	.L54-.L13
 211 0044 00000000 		.word	.L53-.L13
 212 0048 00000000 		.word	.L52-.L13
 213 004c 00000000 		.word	.L51-.L13
 214 0050 00000000 		.word	.L50-.L13
 215 0054 00000000 		.word	.L49-.L13
 216 0058 00000000 		.word	.L194-.L13
 217 005c 00000000 		.word	.L195-.L13
 218 0060 00000000 		.word	.L46-.L13
 219 0064 00000000 		.word	.L196-.L13
 220 0068 00000000 		.word	.L44-.L13
 221 006c 00000000 		.word	.L43-.L13
 222 0070 00000000 		.word	.L42-.L13
 223 0074 00000000 		.word	.L41-.L13
 224 0078 00000000 		.word	.L40-.L13
 225 007c 00000000 		.word	.L39-.L13
 226 0080 00000000 		.word	.L38-.L13
 227 0084 00000000 		.word	.L37-.L13
 228 0088 00000000 		.word	.L36-.L13
 229 008c 00000000 		.word	.L35-.L13
 230 0090 00000000 		.word	.L34-.L13
 231 0094 00000000 		.word	.L33-.L13
 232 0098 00000000 		.word	.L32-.L13
 233 009c 00000000 		.word	.L31-.L13
 234 00a0 00000000 		.word	.L30-.L13
 235 00a4 00000000 		.word	.L29-.L13
 236 00a8 00000000 		.word	.L28-.L13
 237 00ac 00000000 		.word	.L27-.L13
 238 00b0 00000000 		.word	.L198-.L13
 239 00b4 00000000 		.word	.L26-.L13
 240 00b8 00000000 		.word	.L25-.L13
 241 00bc 00000000 		.word	.L24-.L13
 242 00c0 00000000 		.word	.L23-.L13
 243 00c4 00000000 		.word	.L22-.L13
 244 00c8 00000000 		.word	.L21-.L13
 245 00cc 00000000 		.word	.L20-.L13
 246 00d0 00000000 		.word	.L19-.L13
 247 00d4 00000000 		.word	.L18-.L13
 248 00d8 00000000 		.word	.L17-.L13
 249 00dc 00000000 		.word	.L16-.L13
 250 00e0 00000000 		.word	.L15-.L13
 251 00e4 00000000 		.word	.L14-.L13
 252 00e8 00000000 		.word	.L198-.L13
 253              		.section	.text.ddr_setup
 254              	.L68:
 255              	.LBB4:
 321:../src/platform/mpfs_hal/common/nwc/mss_ddr.c ****     {
 322:../src/platform/mpfs_hal/common/nwc/mss_ddr.c ****         case DDR_TRAINING_INIT:
 323:../src/platform/mpfs_hal/common/nwc/mss_ddr.c ****             training_start_cycle = rdcycle();
 256              		.loc 2 323 36
 257              	 #APP
 258              	# 323 "../src/platform/mpfs_hal/common/nwc/mss_ddr.c" 1
 324              	            tip_cfg_params = LIBERO_SETTING_TIP_CFG_PARAMS;
 259              		csrr a5, cycle
 260              	# 0 "" 2
 261              	 #NO_APP
 262 004e 2338F4F6 		sd	a5,-144(s0)
 263 0052 033704F7 		ld	a4,-144(s0)
 264              	.LBE4:
 323:../src/platform/mpfs_hal/common/nwc/mss_ddr.c ****             training_start_cycle = rdcycle();
 265              		.loc 2 323 34
 266 0056 97070000 		lla	a5,training_start_cycle.14237
 266      93870700 
 267 005e 98E3     		sd	a4,0(a5)
 268              		.loc 2 324 28
 269 0060 97070000 		lla	a5,tip_cfg_params.14235
 269      93870700 
 270 0068 37E7CF07 		li	a4,131063808
 271 006c 1307F702 		addi	a4,a4,47
 272 0070 98C3     		sw	a4,0(a5)
 325:../src/platform/mpfs_hal/common/nwc/mss_ddr.c ****             dpc_bits = LIBERO_SETTING_DPC_BITS ;
 273              		.loc 2 325 22
 274 0072 97070000 		lla	a5,dpc_bits.14236
 274      93870700 
 275 007a 37070500 		li	a4,327680
 276 007e 13072742 		addi	a4,a4,1058
 277 0082 98C3     		sw	a4,0(a5)
 326:../src/platform/mpfs_hal/common/nwc/mss_ddr.c ****             write_latency = LIBERO_SETTING_CFG_WRITE_LATENCY_SET;
 278              		.loc 2 326 27
 279 0084 97070000 		lla	a5,write_latency.14234
 279      93870700 
 280 008c 23A00700 		sw	zero,0(a5)
 327:../src/platform/mpfs_hal/common/nwc/mss_ddr.c **** #if (TUNE_RPC_166_VALUE == 1)
 328:../src/platform/mpfs_hal/common/nwc/mss_ddr.c ****             rpc_166_fifo_offset = DEFAULT_RPC_166_VALUE;
 281              		.loc 2 328 33
 282 0090 97070000 		lla	a5,rpc_166_fifo_offset
 282      93870700 
 283 0098 0947     		li	a4,2
 284 009a 98C3     		sw	a4,0(a5)
 329:../src/platform/mpfs_hal/common/nwc/mss_ddr.c **** #endif
 330:../src/platform/mpfs_hal/common/nwc/mss_ddr.c **** #ifdef MANUAL_ADDCMD_TRAINIG
 331:../src/platform/mpfs_hal/common/nwc/mss_ddr.c ****             refclk_offset = LIBERO_SETTING_MAX_MANUAL_REF_CLK_PHASE_OFFSET + 1U;
 285              		.loc 2 331 27
 286 009c 97070000 		lla	a5,refclk_offset.14239
 286      93870700 
 287 00a4 1547     		li	a4,5
 288 00a6 2380E700 		sb	a4,0(a5)
 332:../src/platform/mpfs_hal/common/nwc/mss_ddr.c **** #endif
 333:../src/platform/mpfs_hal/common/nwc/mss_ddr.c ****             ddr_error_count = 0U;
 289              		.loc 2 333 29
 290 00aa 97070000 		lla	a5,ddr_error_count
 290      93870700 
 291 00b2 23A00700 		sw	zero,0(a5)
 334:../src/platform/mpfs_hal/common/nwc/mss_ddr.c ****             error = 0U;
 292              		.loc 2 334 19
 293 00b6 97070000 		lla	a5,error.14231
 293      93870700 
 294 00be 23A00700 		sw	zero,0(a5)
 335:../src/platform/mpfs_hal/common/nwc/mss_ddr.c ****             memfill((uint8_t *)&calib_data,0U,sizeof(calib_data));
 295              		.loc 2 335 13
 296 00c2 13060008 		li	a2,128
 297 00c6 8145     		li	a1,0
 298 00c8 17050000 		lla	a0,calib_data
 298      13050500 
 299 00d0 97000000 		call	memfill
 299      E7800000 
 336:../src/platform/mpfs_hal/common/nwc/mss_ddr.c ****             memfill((uint8_t *)&ddr_diag,0U,sizeof(ddr_diag));
 300              		.loc 2 336 13
 301 00d8 4146     		li	a2,16
 302 00da 8145     		li	a1,0
 303 00dc 17050000 		lla	a0,ddr_diag
 303      13050500 
 304 00e4 97000000 		call	memfill
 304      E7800000 
 337:../src/platform/mpfs_hal/common/nwc/mss_ddr.c ****             retry_count = 0U;
 305              		.loc 2 337 25
 306 00ec 97070000 		lla	a5,retry_count.14233
 306      93870700 
 307 00f4 23A00700 		sw	zero,0(a5)
 338:../src/platform/mpfs_hal/common/nwc/mss_ddr.c **** #ifdef DEBUG_DDR_INIT
 339:../src/platform/mpfs_hal/common/nwc/mss_ddr.c ****             (void)uprint32(g_debug_uart, "\n\r Start training. TIP_CFG_PARAMS:"\
 340:../src/platform/mpfs_hal/common/nwc/mss_ddr.c ****                     , LIBERO_SETTING_TIP_CFG_PARAMS);
 341:../src/platform/mpfs_hal/common/nwc/mss_ddr.c **** #endif
 342:../src/platform/mpfs_hal/common/nwc/mss_ddr.c ****             ddr_training_state = DDR_TRAINING_CHECK_FOR_OFFMODE;
 308              		.loc 2 342 32
 309 00f8 97070000 		lla	a5,ddr_training_state.14230
 309      93870700 
 310 0100 1147     		li	a4,4
 311 0102 98C3     		sw	a4,0(a5)
 343:../src/platform/mpfs_hal/common/nwc/mss_ddr.c ****             break;
 312              		.loc 2 343 13
 313 0104 6F20004F 		j	.L69
 314              	.L26:
 344:../src/platform/mpfs_hal/common/nwc/mss_ddr.c ****         case DDR_TRAINING_FAIL_SM2_VERIFY:
 345:../src/platform/mpfs_hal/common/nwc/mss_ddr.c **** #ifdef DEBUG_DDR_INIT
 346:../src/platform/mpfs_hal/common/nwc/mss_ddr.c ****             (void)uprint32(g_debug_uart, "\n\r SM2_VERIFY: ",addr_cmd_value);
 347:../src/platform/mpfs_hal/common/nwc/mss_ddr.c **** #endif
 348:../src/platform/mpfs_hal/common/nwc/mss_ddr.c ****             ddr_training_state = DDR_TRAINING_FAIL;
 315              		.loc 2 348 32
 316 0108 97070000 		lla	a5,ddr_training_state.14230
 316      93870700 
 317 0110 0547     		li	a4,1
 318 0112 98C3     		sw	a4,0(a5)
 349:../src/platform/mpfs_hal/common/nwc/mss_ddr.c ****             break;
 319              		.loc 2 349 13
 320 0114 6F20004E 		j	.L69
 321              	.L25:
 350:../src/platform/mpfs_hal/common/nwc/mss_ddr.c ****         case DDR_TRAINING_FAIL_SM_VERIFY:
 351:../src/platform/mpfs_hal/common/nwc/mss_ddr.c **** #ifdef DEBUG_DDR_INIT
 352:../src/platform/mpfs_hal/common/nwc/mss_ddr.c ****             (void)uprint32(g_debug_uart, "\n\r SM_VERIFY: ",addr_cmd_value);
 353:../src/platform/mpfs_hal/common/nwc/mss_ddr.c **** #endif
 354:../src/platform/mpfs_hal/common/nwc/mss_ddr.c ****             ddr_training_state = DDR_TRAINING_FAIL;
 322              		.loc 2 354 32
 323 0118 97070000 		lla	a5,ddr_training_state.14230
 323      93870700 
 324 0120 0547     		li	a4,1
 325 0122 98C3     		sw	a4,0(a5)
 355:../src/platform/mpfs_hal/common/nwc/mss_ddr.c ****             break;
 326              		.loc 2 355 13
 327 0124 6F20004D 		j	.L69
 328              	.L24:
 356:../src/platform/mpfs_hal/common/nwc/mss_ddr.c ****         case DDR_TRAINING_FAIL_SM_DQ_DQS:
 357:../src/platform/mpfs_hal/common/nwc/mss_ddr.c **** #ifdef DEBUG_DDR_INIT
 358:../src/platform/mpfs_hal/common/nwc/mss_ddr.c ****             (void)uprint32(g_debug_uart, "\n\r SM_DQ_DQS: ",addr_cmd_value);
 359:../src/platform/mpfs_hal/common/nwc/mss_ddr.c **** #endif
 360:../src/platform/mpfs_hal/common/nwc/mss_ddr.c ****             ddr_training_state = DDR_TRAINING_FAIL;
 329              		.loc 2 360 32
 330 0128 97070000 		lla	a5,ddr_training_state.14230
 330      93870700 
 331 0130 0547     		li	a4,1
 332 0132 98C3     		sw	a4,0(a5)
 361:../src/platform/mpfs_hal/common/nwc/mss_ddr.c ****             break;
 333              		.loc 2 361 13
 334 0134 6F20004C 		j	.L69
 335              	.L23:
 362:../src/platform/mpfs_hal/common/nwc/mss_ddr.c ****         case DDR_TRAINING_FAIL_SM_RDGATE:
 363:../src/platform/mpfs_hal/common/nwc/mss_ddr.c **** #ifdef DEBUG_DDR_INIT
 364:../src/platform/mpfs_hal/common/nwc/mss_ddr.c ****             (void)uprint32(g_debug_uart, "\n\r SM_RDGATE: ",addr_cmd_value);
 365:../src/platform/mpfs_hal/common/nwc/mss_ddr.c **** #endif
 366:../src/platform/mpfs_hal/common/nwc/mss_ddr.c ****             ddr_training_state = DDR_TRAINING_FAIL;
 336              		.loc 2 366 32
 337 0138 97070000 		lla	a5,ddr_training_state.14230
 337      93870700 
 338 0140 0547     		li	a4,1
 339 0142 98C3     		sw	a4,0(a5)
 367:../src/platform/mpfs_hal/common/nwc/mss_ddr.c ****             break;
 340              		.loc 2 367 13
 341 0144 6F20004B 		j	.L69
 342              	.L22:
 368:../src/platform/mpfs_hal/common/nwc/mss_ddr.c ****         case DDR_TRAINING_FAIL_SM_WRLVL:
 369:../src/platform/mpfs_hal/common/nwc/mss_ddr.c **** #ifdef DEBUG_DDR_INIT
 370:../src/platform/mpfs_hal/common/nwc/mss_ddr.c ****             (void)uprint32(g_debug_uart, "\n\r SM_WRLVL: ",addr_cmd_value);
 371:../src/platform/mpfs_hal/common/nwc/mss_ddr.c **** #endif
 372:../src/platform/mpfs_hal/common/nwc/mss_ddr.c ****             ddr_training_state = DDR_TRAINING_FAIL;
 343              		.loc 2 372 32
 344 0148 97070000 		lla	a5,ddr_training_state.14230
 344      93870700 
 345 0150 0547     		li	a4,1
 346 0152 98C3     		sw	a4,0(a5)
 373:../src/platform/mpfs_hal/common/nwc/mss_ddr.c ****             break;
 347              		.loc 2 373 13
 348 0154 6F20004A 		j	.L69
 349              	.L21:
 374:../src/platform/mpfs_hal/common/nwc/mss_ddr.c ****         case DDR_TRAINING_FAIL_SM_ADDCMD:
 375:../src/platform/mpfs_hal/common/nwc/mss_ddr.c **** #ifdef DEBUG_DDR_INIT
 376:../src/platform/mpfs_hal/common/nwc/mss_ddr.c ****             (void)uprint32(g_debug_uart, "\n\r SM_ADDCMD: ",addr_cmd_value);
 377:../src/platform/mpfs_hal/common/nwc/mss_ddr.c **** #endif
 378:../src/platform/mpfs_hal/common/nwc/mss_ddr.c ****             ddr_training_state = DDR_TRAINING_FAIL;
 350              		.loc 2 378 32
 351 0158 97070000 		lla	a5,ddr_training_state.14230
 351      93870700 
 352 0160 0547     		li	a4,1
 353 0162 98C3     		sw	a4,0(a5)
 379:../src/platform/mpfs_hal/common/nwc/mss_ddr.c ****             break;
 354              		.loc 2 379 13
 355 0164 6F200049 		j	.L69
 356              	.L20:
 380:../src/platform/mpfs_hal/common/nwc/mss_ddr.c ****         case DDR_TRAINING_FAIL_SM_BCLKSCLK:
 381:../src/platform/mpfs_hal/common/nwc/mss_ddr.c **** #ifdef DEBUG_DDR_INIT
 382:../src/platform/mpfs_hal/common/nwc/mss_ddr.c ****             (void)uprint32(g_debug_uart, "\n\r BCLKSCLK_SWY: ",addr_cmd_value);
 383:../src/platform/mpfs_hal/common/nwc/mss_ddr.c **** #endif
 384:../src/platform/mpfs_hal/common/nwc/mss_ddr.c ****             ddr_training_state = DDR_TRAINING_FAIL;
 357              		.loc 2 384 32
 358 0168 97070000 		lla	a5,ddr_training_state.14230
 358      93870700 
 359 0170 0547     		li	a4,1
 360 0172 98C3     		sw	a4,0(a5)
 385:../src/platform/mpfs_hal/common/nwc/mss_ddr.c ****             break;
 361              		.loc 2 385 13
 362 0174 6F200048 		j	.L69
 363              	.L19:
 386:../src/platform/mpfs_hal/common/nwc/mss_ddr.c ****         case DDR_TRAINING_FAIL_BCLKSCLK_SW:
 387:../src/platform/mpfs_hal/common/nwc/mss_ddr.c **** #ifdef DEBUG_DDR_INIT
 388:../src/platform/mpfs_hal/common/nwc/mss_ddr.c ****             (void)uprint32(g_debug_uart, "\n\r BCLKSCLK_SW: ",addr_cmd_value);
 389:../src/platform/mpfs_hal/common/nwc/mss_ddr.c **** #endif
 390:../src/platform/mpfs_hal/common/nwc/mss_ddr.c ****             ddr_training_state = DDR_TRAINING_FAIL;
 364              		.loc 2 390 32
 365 0178 97070000 		lla	a5,ddr_training_state.14230
 365      93870700 
 366 0180 0547     		li	a4,1
 367 0182 98C3     		sw	a4,0(a5)
 391:../src/platform/mpfs_hal/common/nwc/mss_ddr.c ****             break;
 368              		.loc 2 391 13
 369 0184 6F200047 		j	.L69
 370              	.L18:
 392:../src/platform/mpfs_hal/common/nwc/mss_ddr.c ****         case DDR_TRAINING_FAIL_FULL_32BIT_NC_CHECK:
 393:../src/platform/mpfs_hal/common/nwc/mss_ddr.c **** #ifdef DEBUG_DDR_INIT
 394:../src/platform/mpfs_hal/common/nwc/mss_ddr.c ****             (void)uprint32(g_debug_uart, "\n\r 32BIT_NC_CHECK: ",addr_cmd_value);
 395:../src/platform/mpfs_hal/common/nwc/mss_ddr.c **** #endif
 396:../src/platform/mpfs_hal/common/nwc/mss_ddr.c ****             ddr_training_state = DDR_TRAINING_FAIL;
 371              		.loc 2 396 32
 372 0188 97070000 		lla	a5,ddr_training_state.14230
 372      93870700 
 373 0190 0547     		li	a4,1
 374 0192 98C3     		sw	a4,0(a5)
 397:../src/platform/mpfs_hal/common/nwc/mss_ddr.c ****             break;
 375              		.loc 2 397 13
 376 0194 6F200046 		j	.L69
 377              	.L17:
 398:../src/platform/mpfs_hal/common/nwc/mss_ddr.c ****         case DDR_TRAINING_FAIL_32BIT_CACHE_CHECK:
 399:../src/platform/mpfs_hal/common/nwc/mss_ddr.c **** #ifdef DEBUG_DDR_INIT
 400:../src/platform/mpfs_hal/common/nwc/mss_ddr.c ****             (void)uprint32(g_debug_uart, "\n\r 32BIT_CACHE_CHECK: ",addr_cmd_value);
 401:../src/platform/mpfs_hal/common/nwc/mss_ddr.c **** #endif
 402:../src/platform/mpfs_hal/common/nwc/mss_ddr.c ****             ddr_training_state = DDR_TRAINING_FAIL;
 378              		.loc 2 402 32
 379 0198 97070000 		lla	a5,ddr_training_state.14230
 379      93870700 
 380 01a0 0547     		li	a4,1
 381 01a2 98C3     		sw	a4,0(a5)
 403:../src/platform/mpfs_hal/common/nwc/mss_ddr.c ****             break;
 382              		.loc 2 403 13
 383 01a4 6F200045 		j	.L69
 384              	.L16:
 404:../src/platform/mpfs_hal/common/nwc/mss_ddr.c ****         case DDR_TRAINING_FAIL_MIN_LATENCY:
 405:../src/platform/mpfs_hal/common/nwc/mss_ddr.c **** #ifdef DEBUG_DDR_INIT
 406:../src/platform/mpfs_hal/common/nwc/mss_ddr.c ****             (void)uprint32(g_debug_uart, "\n\r MIN_LATENCY: ",addr_cmd_value);
 407:../src/platform/mpfs_hal/common/nwc/mss_ddr.c **** #endif
 408:../src/platform/mpfs_hal/common/nwc/mss_ddr.c ****             ddr_training_state = DDR_TRAINING_FAIL;
 385              		.loc 2 408 32
 386 01a8 97070000 		lla	a5,ddr_training_state.14230
 386      93870700 
 387 01b0 0547     		li	a4,1
 388 01b2 98C3     		sw	a4,0(a5)
 409:../src/platform/mpfs_hal/common/nwc/mss_ddr.c ****             break;
 389              		.loc 2 409 13
 390 01b4 6F200044 		j	.L69
 391              	.L15:
 410:../src/platform/mpfs_hal/common/nwc/mss_ddr.c ****         case DDR_TRAINING_FAIL_START_CHECK:
 411:../src/platform/mpfs_hal/common/nwc/mss_ddr.c **** #ifdef DEBUG_DDR_INIT
 412:../src/platform/mpfs_hal/common/nwc/mss_ddr.c ****             (void)uprint32(g_debug_uart, "\n\r START_CHECK: ",addr_cmd_value);
 413:../src/platform/mpfs_hal/common/nwc/mss_ddr.c **** #endif
 414:../src/platform/mpfs_hal/common/nwc/mss_ddr.c ****             ddr_training_state = DDR_TRAINING_FAIL;
 392              		.loc 2 414 32
 393 01b8 97070000 		lla	a5,ddr_training_state.14230
 393      93870700 
 394 01c0 0547     		li	a4,1
 395 01c2 98C3     		sw	a4,0(a5)
 415:../src/platform/mpfs_hal/common/nwc/mss_ddr.c ****             break;
 396              		.loc 2 415 13
 397 01c4 6F200043 		j	.L69
 398              	.L14:
 416:../src/platform/mpfs_hal/common/nwc/mss_ddr.c ****         case DDR_TRAINING_FAIL_PLL_LOCK:
 417:../src/platform/mpfs_hal/common/nwc/mss_ddr.c **** #ifdef DEBUG_DDR_INIT
 418:../src/platform/mpfs_hal/common/nwc/mss_ddr.c ****             (void)uprint32(g_debug_uart, "\n\r PLL LOCK FAIL: ",addr_cmd_value);
 419:../src/platform/mpfs_hal/common/nwc/mss_ddr.c **** #endif
 420:../src/platform/mpfs_hal/common/nwc/mss_ddr.c ****             ddr_training_state = DDR_TRAINING_FAIL;
 399              		.loc 2 420 32
 400 01c8 97070000 		lla	a5,ddr_training_state.14230
 400      93870700 
 401 01d0 0547     		li	a4,1
 402 01d2 98C3     		sw	a4,0(a5)
 421:../src/platform/mpfs_hal/common/nwc/mss_ddr.c ****             break;
 403              		.loc 2 421 13
 404 01d4 6F200042 		j	.L69
 405              	.L67:
 422:../src/platform/mpfs_hal/common/nwc/mss_ddr.c ****         case DDR_TRAINING_FAIL_DDR_SANITY_CHECKS:
 423:../src/platform/mpfs_hal/common/nwc/mss_ddr.c **** #ifdef DEBUG_DDR_INIT
 424:../src/platform/mpfs_hal/common/nwc/mss_ddr.c ****             (void)uprint32(g_debug_uart, "\n\r DDR_SANITY_CHECKS FAIL: ",\
 425:../src/platform/mpfs_hal/common/nwc/mss_ddr.c ****                                                                 addr_cmd_value);
 426:../src/platform/mpfs_hal/common/nwc/mss_ddr.c ****             ddr_training_state = DDR_TRAINING_FAIL;
 427:../src/platform/mpfs_hal/common/nwc/mss_ddr.c **** #endif
 428:../src/platform/mpfs_hal/common/nwc/mss_ddr.c ****             break;
 429:../src/platform/mpfs_hal/common/nwc/mss_ddr.c **** 
 430:../src/platform/mpfs_hal/common/nwc/mss_ddr.c ****         case DDR_TRAINING_FAIL:
 431:../src/platform/mpfs_hal/common/nwc/mss_ddr.c **** #ifdef DEBUG_DDR_INIT
 432:../src/platform/mpfs_hal/common/nwc/mss_ddr.c ****             {
 433:../src/platform/mpfs_hal/common/nwc/mss_ddr.c ****                 tip_register_status (g_debug_uart);
 434:../src/platform/mpfs_hal/common/nwc/mss_ddr.c ****                 (void)uprint32(g_debug_uart, "\n\r ************************************************
 435:../src/platform/mpfs_hal/common/nwc/mss_ddr.c **** 
 436:../src/platform/mpfs_hal/common/nwc/mss_ddr.c ****             }
 437:../src/platform/mpfs_hal/common/nwc/mss_ddr.c **** #endif
 438:../src/platform/mpfs_hal/common/nwc/mss_ddr.c ****             DDRCFG->MC_BASE2.INIT_CS.INIT_CS = 0x1;
 406              		.loc 2 438 19
 407 01d8 97070000 		lla	a5,DDRCFG
 407      93870700 
 408 01e0 9863     		ld	a4,0(a5)
 409              		.loc 2 438 46
 410 01e2 9167     		li	a5,16384
 411 01e4 BA97     		add	a5,a4,a5
 412 01e6 0547     		li	a4,1
 413 01e8 98D3     		sw	a4,32(a5)
 439:../src/platform/mpfs_hal/common/nwc/mss_ddr.c ****             DDRCFG->MC_BASE2.INIT_DISABLE_CKE.INIT_DISABLE_CKE = 0x1;
 414              		.loc 2 439 19
 415 01ea 97070000 		lla	a5,DDRCFG
 415      93870700 
 416 01f2 9863     		ld	a4,0(a5)
 417              		.loc 2 439 64
 418 01f4 9167     		li	a5,16384
 419 01f6 BA97     		add	a5,a4,a5
 420 01f8 0547     		li	a4,1
 421 01fa D8CF     		sw	a4,28(a5)
 440:../src/platform/mpfs_hal/common/nwc/mss_ddr.c ****             delay(DELAY_CYCLES_5_MICRO);
 422              		.loc 2 440 13
 423 01fc 8567     		li	a5,4096
 424 01fe 138587BB 		addi	a0,a5,-1096
 425 0202 97000000 		call	delay
 425      E7800000 
 441:../src/platform/mpfs_hal/common/nwc/mss_ddr.c ****             DDRCFG->MC_BASE2.INIT_FORCE_RESET.INIT_FORCE_RESET = 0x1;
 426              		.loc 2 441 19
 427 020a 97070000 		lla	a5,DDRCFG
 427      93870700 
 428 0212 9863     		ld	a4,0(a5)
 429              		.loc 2 441 64
 430 0214 9167     		li	a5,16384
 431 0216 BA97     		add	a5,a4,a5
 432 0218 0547     		li	a4,1
 433 021a D8CB     		sw	a4,20(a5)
 442:../src/platform/mpfs_hal/common/nwc/mss_ddr.c ****             delay(DELAY_CYCLES_2MS);
 434              		.loc 2 442 13
 435 021c B7571200 		li	a5,1200128
 436 0220 138507F8 		addi	a0,a5,-128
 437 0224 97000000 		call	delay
 437      E7800000 
 443:../src/platform/mpfs_hal/common/nwc/mss_ddr.c ****             retry_count++;
 438              		.loc 2 443 24
 439 022c 97070000 		lla	a5,retry_count.14233
 439      93870700 
 440 0234 9C43     		lw	a5,0(a5)
 441 0236 8527     		addiw	a5,a5,1
 442 0238 1B870700 		sext.w	a4,a5
 443 023c 97070000 		lla	a5,retry_count.14233
 443      93870700 
 444 0244 98C3     		sw	a4,0(a5)
 444:../src/platform/mpfs_hal/common/nwc/mss_ddr.c ****             ddr_diag.num_retrains = retry_count;
 445              		.loc 2 444 35
 446 0246 97070000 		lla	a5,retry_count.14233
 446      93870700 
 447 024e 9843     		lw	a4,0(a5)
 448 0250 97070000 		lla	a5,ddr_diag
 448      93870700 
 449 0258 98C7     		sw	a4,8(a5)
 445:../src/platform/mpfs_hal/common/nwc/mss_ddr.c **** #ifdef DEBUG_DDR_INIT
 446:../src/platform/mpfs_hal/common/nwc/mss_ddr.c ****             (void)uprint32(g_debug_uart, "\n\r\n\r DDR_TRAINING_FAIL: ",\
 447:../src/platform/mpfs_hal/common/nwc/mss_ddr.c ****                         ddr_training_state);
 448:../src/platform/mpfs_hal/common/nwc/mss_ddr.c ****             (void)uprint32(g_debug_uart, "\n\r Retry Count: ", retry_count);
 449:../src/platform/mpfs_hal/common/nwc/mss_ddr.c **** #endif
 450:../src/platform/mpfs_hal/common/nwc/mss_ddr.c ****             /* Init */
 451:../src/platform/mpfs_hal/common/nwc/mss_ddr.c ****             ddr_error_count = 0U;
 450              		.loc 2 451 29
 451 025a 97070000 		lla	a5,ddr_error_count
 451      93870700 
 452 0262 23A00700 		sw	zero,0(a5)
 452:../src/platform/mpfs_hal/common/nwc/mss_ddr.c ****             error = 0U;
 453              		.loc 2 452 19
 454 0266 97070000 		lla	a5,error.14231
 454      93870700 
 455 026e 23A00700 		sw	zero,0(a5)
 453:../src/platform/mpfs_hal/common/nwc/mss_ddr.c ****             memfill((uint8_t *)&calib_data,0U,sizeof(calib_data));
 456              		.loc 2 453 13
 457 0272 13060008 		li	a2,128
 458 0276 8145     		li	a1,0
 459 0278 17050000 		lla	a0,calib_data
 459      13050500 
 460 0280 97000000 		call	memfill
 460      E7800000 
 454:../src/platform/mpfs_hal/common/nwc/mss_ddr.c ****             DDRCFG->DFI.PHY_DFI_INIT_START.PHY_DFI_INIT_START   = 0x0U;
 461              		.loc 2 454 19
 462 0288 97070000 		lla	a5,DDRCFG
 462      93870700 
 463 0290 9863     		ld	a4,0(a5)
 464              		.loc 2 454 65
 465 0292 C167     		li	a5,65536
 466 0294 BA97     		add	a5,a4,a5
 467 0296 23A80704 		sw	zero,80(a5)
 455:../src/platform/mpfs_hal/common/nwc/mss_ddr.c ****             /* reset controller */
 456:../src/platform/mpfs_hal/common/nwc/mss_ddr.c ****             DDRCFG->MC_BASE2.CTRLR_INIT.CTRLR_INIT = 0x0U;
 468              		.loc 2 456 19
 469 029a 97070000 		lla	a5,DDRCFG
 469      93870700 
 470 02a2 9863     		ld	a4,0(a5)
 471              		.loc 2 456 52
 472 02a4 9167     		li	a5,16384
 473 02a6 BA97     		add	a5,a4,a5
 474 02a8 23AC0702 		sw	zero,56(a5)
 457:../src/platform/mpfs_hal/common/nwc/mss_ddr.c ****             CFG_DDR_SGMII_PHY->training_start.training_start = 0x0U;
 475              		.loc 2 457 30
 476 02ac 97070000 		lla	a5,CFG_DDR_SGMII_PHY
 476      93870700 
 477 02b4 9863     		ld	a4,0(a5)
 478              		.loc 2 457 62
 479 02b6 8567     		li	a5,4096
 480 02b8 BA97     		add	a5,a4,a5
 481 02ba 23A80780 		sw	zero,-2032(a5)
 458:../src/platform/mpfs_hal/common/nwc/mss_ddr.c **** 
 459:../src/platform/mpfs_hal/common/nwc/mss_ddr.c ****             ddr_training_state = DDR_TRAINING_CHECK_FOR_OFFMODE;
 482              		.loc 2 459 32
 483 02be 97070000 		lla	a5,ddr_training_state.14230
 483      93870700 
 484 02c6 1147     		li	a4,4
 485 02c8 98C3     		sw	a4,0(a5)
 460:../src/platform/mpfs_hal/common/nwc/mss_ddr.c ****             break;
 486              		.loc 2 460 13
 487 02ca 6F20A032 		j	.L69
 488              	.L66:
 461:../src/platform/mpfs_hal/common/nwc/mss_ddr.c **** 
 462:../src/platform/mpfs_hal/common/nwc/mss_ddr.c ****         case DDR_TRAINING_CHECK_FOR_OFFMODE:
 463:../src/platform/mpfs_hal/common/nwc/mss_ddr.c ****             /*
 464:../src/platform/mpfs_hal/common/nwc/mss_ddr.c ****              * check if we are in off mode
 465:../src/platform/mpfs_hal/common/nwc/mss_ddr.c ****              */
 466:../src/platform/mpfs_hal/common/nwc/mss_ddr.c ****             if (ddr_type == DDR_OFF_MODE)
 489              		.loc 2 466 16
 490 02ce 8327C4F7 		lw	a5,-132(s0)
 491 02d2 1B870700 		sext.w	a4,a5
 492 02d6 9D47     		li	a5,7
 493 02d8 6310F702 		bne	a4,a5,.L70
 467:../src/platform/mpfs_hal/common/nwc/mss_ddr.c ****             {
 468:../src/platform/mpfs_hal/common/nwc/mss_ddr.c ****                 ddr_off_mode();
 494              		.loc 2 468 17
 495 02dc 97000000 		call	ddr_off_mode
 495      E7800000 
 469:../src/platform/mpfs_hal/common/nwc/mss_ddr.c ****                 ret_status |= DDR_SETUP_DONE;
 496              		.loc 2 469 28
 497 02e4 832744FE 		lw	a5,-28(s0)
 498 02e8 93E71700 		ori	a5,a5,1
 499 02ec 2322F4FE 		sw	a5,-28(s0)
 470:../src/platform/mpfs_hal/common/nwc/mss_ddr.c ****                 return (ret_status);
 500              		.loc 2 470 24
 501 02f0 832744FE 		lw	a5,-28(s0)
 502 02f4 6F204030 		j	.L71
 503              	.L70:
 471:../src/platform/mpfs_hal/common/nwc/mss_ddr.c ****             }
 472:../src/platform/mpfs_hal/common/nwc/mss_ddr.c ****             else
 473:../src/platform/mpfs_hal/common/nwc/mss_ddr.c ****             {
 474:../src/platform/mpfs_hal/common/nwc/mss_ddr.c ****                 /*
 475:../src/platform/mpfs_hal/common/nwc/mss_ddr.c ****                  * set initial conditions
 476:../src/platform/mpfs_hal/common/nwc/mss_ddr.c ****                  */
 477:../src/platform/mpfs_hal/common/nwc/mss_ddr.c ****                 /* enable fabric noise */
 478:../src/platform/mpfs_hal/common/nwc/mss_ddr.c **** #ifdef FABRIC_NOISE_TEST
 479:../src/platform/mpfs_hal/common/nwc/mss_ddr.c ****                if(fabric_noise_en)
 480:../src/platform/mpfs_hal/common/nwc/mss_ddr.c ****                {
 481:../src/platform/mpfs_hal/common/nwc/mss_ddr.c ****                     SYSREG->SOFT_RESET_CR &= 0x00U;
 482:../src/platform/mpfs_hal/common/nwc/mss_ddr.c ****                     SYSREG->SUBBLK_CLOCK_CR = 0xffffffffUL;
 483:../src/platform/mpfs_hal/common/nwc/mss_ddr.c ****                     SYSREG->GPIO_INTERRUPT_FAB_CR = 0x00000000UL;
 484:../src/platform/mpfs_hal/common/nwc/mss_ddr.c ****                     PLIC_init();
 485:../src/platform/mpfs_hal/common/nwc/mss_ddr.c ****                     PLIC_SetPriority_Threshold(0);
 486:../src/platform/mpfs_hal/common/nwc/mss_ddr.c ****                     __enable_irq();
 487:../src/platform/mpfs_hal/common/nwc/mss_ddr.c ****                     /* bit0-bit15 used to enable noise logic in steps of 5%
 488:../src/platform/mpfs_hal/common/nwc/mss_ddr.c ****                       bit 16 noise logic reset
 489:../src/platform/mpfs_hal/common/nwc/mss_ddr.c ****                       bit 17 clkmux sel
 490:../src/platform/mpfs_hal/common/nwc/mss_ddr.c ****                       bit 18 pll powerdown
 491:../src/platform/mpfs_hal/common/nwc/mss_ddr.c ****                       bit 19 external io enable for GCLKINT */
 492:../src/platform/mpfs_hal/common/nwc/mss_ddr.c ****                     PLIC_SetPriority(GPIO0_BIT0_or_GPIO2_BIT0_PLIC_0, 4U);
 493:../src/platform/mpfs_hal/common/nwc/mss_ddr.c ****                     PLIC_SetPriority(GPIO0_BIT1_or_GPIO2_BIT1_PLIC_1, 4U);
 494:../src/platform/mpfs_hal/common/nwc/mss_ddr.c ****                     PLIC_SetPriority(GPIO0_BIT2_or_GPIO2_BIT2_PLIC_2, 4U);
 495:../src/platform/mpfs_hal/common/nwc/mss_ddr.c ****                     PLIC_SetPriority(GPIO0_BIT3_or_GPIO2_BIT3_PLIC_3, 4U);
 496:../src/platform/mpfs_hal/common/nwc/mss_ddr.c ****                     PLIC_SetPriority(GPIO0_BIT4_or_GPIO2_BIT4_PLIC_4, 4U);
 497:../src/platform/mpfs_hal/common/nwc/mss_ddr.c ****                     PLIC_SetPriority(GPIO0_BIT5_or_GPIO2_BIT5_PLIC_5, 4U);
 498:../src/platform/mpfs_hal/common/nwc/mss_ddr.c ****                     PLIC_SetPriority(GPIO0_BIT6_or_GPIO2_BIT6_PLIC_6, 4U);
 499:../src/platform/mpfs_hal/common/nwc/mss_ddr.c ****                     PLIC_SetPriority(GPIO0_BIT7_or_GPIO2_BIT7_PLIC_7, 4U);
 500:../src/platform/mpfs_hal/common/nwc/mss_ddr.c ****                     PLIC_SetPriority(GPIO0_BIT8_or_GPIO2_BIT8_PLIC_8, 4U);
 501:../src/platform/mpfs_hal/common/nwc/mss_ddr.c ****                     PLIC_SetPriority(GPIO0_BIT9_or_GPIO2_BIT9_PLIC_9, 4U);
 502:../src/platform/mpfs_hal/common/nwc/mss_ddr.c ****                     PLIC_SetPriority(GPIO0_BIT10_or_GPIO2_BIT10_PLIC_10, 4U);
 503:../src/platform/mpfs_hal/common/nwc/mss_ddr.c ****                     PLIC_SetPriority(GPIO0_BIT11_or_GPIO2_BIT11_PLIC_11, 4U);
 504:../src/platform/mpfs_hal/common/nwc/mss_ddr.c ****                     PLIC_SetPriority(GPIO0_BIT12_or_GPIO2_BIT12_PLIC_12, 4U);
 505:../src/platform/mpfs_hal/common/nwc/mss_ddr.c ****                     PLIC_SetPriority(GPIO0_BIT13_or_GPIO2_BIT13_PLIC_13, 4U);
 506:../src/platform/mpfs_hal/common/nwc/mss_ddr.c ****                     PLIC_SetPriority(GPIO1_BIT0_or_GPIO2_BIT14_PLIC_14, 4U);
 507:../src/platform/mpfs_hal/common/nwc/mss_ddr.c ****                     PLIC_SetPriority(GPIO1_BIT1_or_GPIO2_BIT15_PLIC_15, 4U);
 508:../src/platform/mpfs_hal/common/nwc/mss_ddr.c ****                     PLIC_SetPriority(GPIO1_BIT2_or_GPIO2_BIT16_PLIC_16, 4U);
 509:../src/platform/mpfs_hal/common/nwc/mss_ddr.c ****                     PLIC_SetPriority(GPIO1_BIT3_or_GPIO2_BIT17_PLIC_17, 4U);
 510:../src/platform/mpfs_hal/common/nwc/mss_ddr.c ****                     PLIC_SetPriority(GPIO1_BIT4_or_GPIO2_BIT18_PLIC_18, 4U);
 511:../src/platform/mpfs_hal/common/nwc/mss_ddr.c ****                     PLIC_SetPriority(GPIO1_BIT5_or_GPIO2_BIT19_PLIC_19, 4U);
 512:../src/platform/mpfs_hal/common/nwc/mss_ddr.c **** 
 513:../src/platform/mpfs_hal/common/nwc/mss_ddr.c ****                     MSS_GPIO_init(GPIO2_LO);
 514:../src/platform/mpfs_hal/common/nwc/mss_ddr.c ****                     MSS_GPIO_config_all(GPIO2_LO, MSS_GPIO_OUTPUT_MODE);
 515:../src/platform/mpfs_hal/common/nwc/mss_ddr.c ****                     MSS_GPIO_set_outputs(GPIO2_LO, 0x00000UL);      /* bits 15:0 - 0, noise logic  
 516:../src/platform/mpfs_hal/common/nwc/mss_ddr.c ****                     delay(DELAY_CYCLES_5_MICRO);
 517:../src/platform/mpfs_hal/common/nwc/mss_ddr.c ****                     /*MSS_GPIO_set_outputs(GPIO2_LO, 0x00FFFUL);*/    /* bits 12:0 - 1,  56% enable
 518:../src/platform/mpfs_hal/common/nwc/mss_ddr.c ****                     noise_ena = (1 << num_of_noise_blocks_en) - 1;
 519:../src/platform/mpfs_hal/common/nwc/mss_ddr.c ****                     MSS_GPIO_set_outputs(GPIO2_LO, noise_ena);      /* num_of_noise_blocks_en * 4.7
 520:../src/platform/mpfs_hal/common/nwc/mss_ddr.c ****                     fabric_noise_en = 0;
 521:../src/platform/mpfs_hal/common/nwc/mss_ddr.c ****                 }
 522:../src/platform/mpfs_hal/common/nwc/mss_ddr.c **** #endif /* FABRIC_NOISE_TEST */
 523:../src/platform/mpfs_hal/common/nwc/mss_ddr.c ****                 write_latency = DDR_CAL_MIN_LATENCY;
 504              		.loc 2 523 31
 505 02f8 97070000 		lla	a5,write_latency.14234
 505      93870700 
 506 0300 23A00700 		sw	zero,0(a5)
 524:../src/platform/mpfs_hal/common/nwc/mss_ddr.c ****                 ddr_training_state = DDR_TRAINING_SET_MODE_VS_BITS;
 507              		.loc 2 524 36
 508 0304 97070000 		lla	a5,ddr_training_state.14230
 508      93870700 
 509 030c 1547     		li	a4,5
 510 030e 98C3     		sw	a4,0(a5)
 525:../src/platform/mpfs_hal/common/nwc/mss_ddr.c ****             }
 526:../src/platform/mpfs_hal/common/nwc/mss_ddr.c ****             break;
 511              		.loc 2 526 13
 512 0310 6F20402E 		j	.L69
 513              	.L65:
 527:../src/platform/mpfs_hal/common/nwc/mss_ddr.c **** 
 528:../src/platform/mpfs_hal/common/nwc/mss_ddr.c ****         case DDR_TRAINING_SET_MODE_VS_BITS:
 529:../src/platform/mpfs_hal/common/nwc/mss_ddr.c **** #ifdef DEBUG_DDR_INIT
 530:../src/platform/mpfs_hal/common/nwc/mss_ddr.c ****                 (void)uprint32(g_debug_uart, "\n\r dpc_bits: ",\
 531:../src/platform/mpfs_hal/common/nwc/mss_ddr.c ****                                                                       dpc_bits);
 532:../src/platform/mpfs_hal/common/nwc/mss_ddr.c **** #endif
 533:../src/platform/mpfs_hal/common/nwc/mss_ddr.c ****             /*
 534:../src/platform/mpfs_hal/common/nwc/mss_ddr.c ****              * Set the training mode
 535:../src/platform/mpfs_hal/common/nwc/mss_ddr.c ****              */
 536:../src/platform/mpfs_hal/common/nwc/mss_ddr.c ****             set_ddr_mode_reg_and_vs_bits(dpc_bits);
 514              		.loc 2 536 13
 515 0314 97070000 		lla	a5,dpc_bits.14236
 515      93870700 
 516 031c 9C43     		lw	a5,0(a5)
 517 031e 3E85     		mv	a0,a5
 518 0320 97000000 		call	set_ddr_mode_reg_and_vs_bits
 518      E7800000 
 537:../src/platform/mpfs_hal/common/nwc/mss_ddr.c **** 
 538:../src/platform/mpfs_hal/common/nwc/mss_ddr.c ****             if (ddr_type == LPDDR4)
 519              		.loc 2 538 16
 520 0328 8327C4F7 		lw	a5,-132(s0)
 521 032c 1B870700 		sext.w	a4,a5
 522 0330 9147     		li	a5,4
 523 0332 631DF702 		bne	a4,a5,.L72
 539:../src/platform/mpfs_hal/common/nwc/mss_ddr.c ****             {
 540:../src/platform/mpfs_hal/common/nwc/mss_ddr.c ****             	/* vrgen, modify during write leveling,  turns off ODT */
 541:../src/platform/mpfs_hal/common/nwc/mss_ddr.c ****                 CFG_DDR_SGMII_PHY->DPC_BITS.DPC_BITS =\
 542:../src/platform/mpfs_hal/common/nwc/mss_ddr.c ****                         (dpc_bits & ~DDR_DPC_VRGEN_H_MASK)| (DPC_VRGEN_H_LPDDR4_WR_LVL_VAL << DDR_D
 524              		.loc 2 542 35
 525 0336 97070000 		lla	a5,dpc_bits.14236
 525      93870700 
 526 033e 9C43     		lw	a5,0(a5)
 527 0340 93F7F7C0 		andi	a5,a5,-1009
 528 0344 1B870700 		sext.w	a4,a5
 541:../src/platform/mpfs_hal/common/nwc/mss_ddr.c ****                         (dpc_bits & ~DDR_DPC_VRGEN_H_MASK)| (DPC_VRGEN_H_LPDDR4_WR_LVL_VAL << DDR_D
 529              		.loc 2 541 34
 530 0348 97070000 		lla	a5,CFG_DDR_SGMII_PHY
 530      93870700 
 531 0350 9C63     		ld	a5,0(a5)
 532              		.loc 2 542 59
 533 0352 13670705 		ori	a4,a4,80
 534 0356 0127     		sext.w	a4,a4
 541:../src/platform/mpfs_hal/common/nwc/mss_ddr.c ****                         (dpc_bits & ~DDR_DPC_VRGEN_H_MASK)| (DPC_VRGEN_H_LPDDR4_WR_LVL_VAL << DDR_D
 535              		.loc 2 541 54
 536 0358 23A2E718 		sw	a4,388(a5)
 543:../src/platform/mpfs_hal/common/nwc/mss_ddr.c ****                 CFG_DDR_SGMII_PHY->rpc3_ODT.rpc3_ODT = 0x0;
 537              		.loc 2 543 34
 538 035c 97070000 		lla	a5,CFG_DDR_SGMII_PHY
 538      93870700 
 539 0364 9C63     		ld	a5,0(a5)
 540              		.loc 2 543 54
 541 0366 23A60738 		sw	zero,908(a5)
 542 036a 1DA8     		j	.L73
 543              	.L72:
 544:../src/platform/mpfs_hal/common/nwc/mss_ddr.c ****             }
 545:../src/platform/mpfs_hal/common/nwc/mss_ddr.c ****             else if ((ddr_type == DDR3)||(ddr_type == DDR3L))
 544              		.loc 2 545 21
 545 036c 8327C4F7 		lw	a5,-132(s0)
 546 0370 8127     		sext.w	a5,a5
 547 0372 81CB     		beq	a5,zero,.L74
 548              		.loc 2 545 40 discriminator 1
 549 0374 8327C4F7 		lw	a5,-132(s0)
 550 0378 1B870700 		sext.w	a4,a5
 551 037c 8547     		li	a5,1
 552 037e 6311F702 		bne	a4,a5,.L73
 553              	.L74:
 546:../src/platform/mpfs_hal/common/nwc/mss_ddr.c ****             {
 547:../src/platform/mpfs_hal/common/nwc/mss_ddr.c ****                 /* vrgen, modify during write leveling */
 548:../src/platform/mpfs_hal/common/nwc/mss_ddr.c ****                 CFG_DDR_SGMII_PHY->DPC_BITS.DPC_BITS = dpc_bits | (DPC_VRGEN_H_DDR3_WR_LVL_VAL<<DDR
 554              		.loc 2 548 65
 555 0382 97070000 		lla	a5,dpc_bits.14236
 555      93870700 
 556 038a 9843     		lw	a4,0(a5)
 557              		.loc 2 548 34
 558 038c 97070000 		lla	a5,CFG_DDR_SGMII_PHY
 558      93870700 
 559 0394 9C63     		ld	a5,0(a5)
 560              		.loc 2 548 65
 561 0396 13670702 		ori	a4,a4,32
 562 039a 0127     		sext.w	a4,a4
 563              		.loc 2 548 54
 564 039c 23A2E718 		sw	a4,388(a5)
 565              	.L73:
 549:../src/platform/mpfs_hal/common/nwc/mss_ddr.c ****             }
 550:../src/platform/mpfs_hal/common/nwc/mss_ddr.c ****             ddr_training_state = DDR_TRAINING_FLASH_REGS;
 566              		.loc 2 550 32
 567 03a0 97070000 		lla	a5,ddr_training_state.14230
 567      93870700 
 568 03a8 1947     		li	a4,6
 569 03aa 98C3     		sw	a4,0(a5)
 551:../src/platform/mpfs_hal/common/nwc/mss_ddr.c ****             break;
 570              		.loc 2 551 13
 571 03ac 6F208024 		j	.L69
 572              	.L64:
 552:../src/platform/mpfs_hal/common/nwc/mss_ddr.c **** 
 553:../src/platform/mpfs_hal/common/nwc/mss_ddr.c ****         case DDR_TRAINING_FLASH_REGS:
 554:../src/platform/mpfs_hal/common/nwc/mss_ddr.c ****             /*
 555:../src/platform/mpfs_hal/common/nwc/mss_ddr.c ****              * flash registers with RPC values
 556:../src/platform/mpfs_hal/common/nwc/mss_ddr.c ****              *   Enable DDR IO decoders
 557:../src/platform/mpfs_hal/common/nwc/mss_ddr.c ****              *   Note :
 558:../src/platform/mpfs_hal/common/nwc/mss_ddr.c ****              *      rpc sequence:
 559:../src/platform/mpfs_hal/common/nwc/mss_ddr.c ****              *          power-up -> mss_boot -> re-flash nv_map -> override
 560:../src/platform/mpfs_hal/common/nwc/mss_ddr.c ****              *      any changes (to fix issues)
 561:../src/platform/mpfs_hal/common/nwc/mss_ddr.c ****              *
 562:../src/platform/mpfs_hal/common/nwc/mss_ddr.c ****              *   SOFT_RESET_  bit 0 == periph soft reset, auto cleared
 563:../src/platform/mpfs_hal/common/nwc/mss_ddr.c ****              */
 564:../src/platform/mpfs_hal/common/nwc/mss_ddr.c ****             CFG_DDR_SGMII_PHY->SOFT_RESET_DECODER_DRIVER.SOFT_RESET_DECODER_DRIVER = 1U;
 573              		.loc 2 564 30
 574 03b0 97070000 		lla	a5,CFG_DDR_SGMII_PHY
 574      93870700 
 575 03b8 9C63     		ld	a5,0(a5)
 576              		.loc 2 564 84
 577 03ba 0547     		li	a4,1
 578 03bc 23A0E730 		sw	a4,768(a5)
 565:../src/platform/mpfs_hal/common/nwc/mss_ddr.c ****             CFG_DDR_SGMII_PHY->SOFT_RESET_DECODER_ODT.SOFT_RESET_DECODER_ODT=1U;
 579              		.loc 2 565 30
 580 03c0 97070000 		lla	a5,CFG_DDR_SGMII_PHY
 580      93870700 
 581 03c8 9C63     		ld	a5,0(a5)
 582              		.loc 2 565 77
 583 03ca 0547     		li	a4,1
 584 03cc 23A0E738 		sw	a4,896(a5)
 566:../src/platform/mpfs_hal/common/nwc/mss_ddr.c ****             CFG_DDR_SGMII_PHY->SOFT_RESET_DECODER_IO.SOFT_RESET_DECODER_IO = 1U;
 585              		.loc 2 566 30
 586 03d0 97070000 		lla	a5,CFG_DDR_SGMII_PHY
 586      93870700 
 587 03d8 9C63     		ld	a5,0(a5)
 588              		.loc 2 566 76
 589 03da 0547     		li	a4,1
 590 03dc 23A0E740 		sw	a4,1024(a5)
 567:../src/platform/mpfs_hal/common/nwc/mss_ddr.c ****             ddr_training_state = DDR_TRAINING_CORRECT_RPC;
 591              		.loc 2 567 32
 592 03e0 97070000 		lla	a5,ddr_training_state.14230
 592      93870700 
 593 03e8 1D47     		li	a4,7
 594 03ea 98C3     		sw	a4,0(a5)
 568:../src/platform/mpfs_hal/common/nwc/mss_ddr.c ****             break;
 595              		.loc 2 568 13
 596 03ec 6F208020 		j	.L69
 597              	.L63:
 569:../src/platform/mpfs_hal/common/nwc/mss_ddr.c **** 
 570:../src/platform/mpfs_hal/common/nwc/mss_ddr.c ****        case DDR_TRAINING_CORRECT_RPC:
 571:../src/platform/mpfs_hal/common/nwc/mss_ddr.c ****             /*
 572:../src/platform/mpfs_hal/common/nwc/mss_ddr.c ****              * correct some rpc registers, which were incorrectly set in mode
 573:../src/platform/mpfs_hal/common/nwc/mss_ddr.c ****              * setting
 574:../src/platform/mpfs_hal/common/nwc/mss_ddr.c ****              */
 575:../src/platform/mpfs_hal/common/nwc/mss_ddr.c ****             set_ddr_rpc_regs(ddr_type);
 598              		.loc 2 575 13
 599 03f0 8327C4F7 		lw	a5,-132(s0)
 600 03f4 3E85     		mv	a0,a5
 601 03f6 97000000 		call	set_ddr_rpc_regs
 601      E7800000 
 576:../src/platform/mpfs_hal/common/nwc/mss_ddr.c ****             ddr_training_state = DDR_TRAINING_SOFT_RESET;
 602              		.loc 2 576 32
 603 03fe 97070000 		lla	a5,ddr_training_state.14230
 603      93870700 
 604 0406 2147     		li	a4,8
 605 0408 98C3     		sw	a4,0(a5)
 577:../src/platform/mpfs_hal/common/nwc/mss_ddr.c ****             break;
 606              		.loc 2 577 13
 607 040a 6F20A01E 		j	.L69
 608              	.L62:
 578:../src/platform/mpfs_hal/common/nwc/mss_ddr.c ****         case DDR_TRAINING_SOFT_RESET:
 579:../src/platform/mpfs_hal/common/nwc/mss_ddr.c ****             /*
 580:../src/platform/mpfs_hal/common/nwc/mss_ddr.c ****              * Set soft reset on IP to load RPC to SCB regs (dynamic mode)
 581:../src/platform/mpfs_hal/common/nwc/mss_ddr.c ****              * Bring the DDR bank controller out of reset
 582:../src/platform/mpfs_hal/common/nwc/mss_ddr.c ****              */
 583:../src/platform/mpfs_hal/common/nwc/mss_ddr.c ****             IOSCB_BANKCONT_DDR->soft_reset = 1U;  /* DPC_BITS   NV_MAP  reset */
 609              		.loc 2 583 31
 610 040e B707023E 		li	a5,1040318464
 611              		.loc 2 583 44
 612 0412 0547     		li	a4,1
 613 0414 98C3     		sw	a4,0(a5)
 584:../src/platform/mpfs_hal/common/nwc/mss_ddr.c ****             ddr_training_state = DDR_TRAINING_CALIBRATE_IO;
 614              		.loc 2 584 32
 615 0416 97070000 		lla	a5,ddr_training_state.14230
 615      93870700 
 616 041e 2547     		li	a4,9
 617 0420 98C3     		sw	a4,0(a5)
 585:../src/platform/mpfs_hal/common/nwc/mss_ddr.c ****             break;
 618              		.loc 2 585 13
 619 0422 6F20201D 		j	.L69
 620              	.L61:
 586:../src/platform/mpfs_hal/common/nwc/mss_ddr.c ****         case DDR_TRAINING_CALIBRATE_IO:
 587:../src/platform/mpfs_hal/common/nwc/mss_ddr.c ****             /*
 588:../src/platform/mpfs_hal/common/nwc/mss_ddr.c ****              * Calibrate DDR I/O here, once all RPC settings correct
 589:../src/platform/mpfs_hal/common/nwc/mss_ddr.c ****              */
 590:../src/platform/mpfs_hal/common/nwc/mss_ddr.c ****             ddr_pvt_calibration();
 621              		.loc 2 590 13
 622 0426 97000000 		call	ddr_pvt_calibration
 622      E7800000 
 591:../src/platform/mpfs_hal/common/nwc/mss_ddr.c **** #ifdef DEBUG_DDR_INIT
 592:../src/platform/mpfs_hal/common/nwc/mss_ddr.c ****             (void)uprint32(g_debug_uart,  "\n\r PCODE = ",\
 593:../src/platform/mpfs_hal/common/nwc/mss_ddr.c ****                     (CFG_DDR_SGMII_PHY->IOC_REG2.IOC_REG2 & 0x7FU));
 594:../src/platform/mpfs_hal/common/nwc/mss_ddr.c ****             (void)uprint32(g_debug_uart,  "\n\r NCODE = ", \
 595:../src/platform/mpfs_hal/common/nwc/mss_ddr.c ****                     (((CFG_DDR_SGMII_PHY->IOC_REG2.IOC_REG2) >> 7U) & 0x7FU));
 596:../src/platform/mpfs_hal/common/nwc/mss_ddr.c ****             (void)uprint32(g_debug_uart, "\n\r addr_cmd_value: ",\
 597:../src/platform/mpfs_hal/common/nwc/mss_ddr.c ****                                                 addr_cmd_value);
 598:../src/platform/mpfs_hal/common/nwc/mss_ddr.c ****             (void)uprint32(g_debug_uart, "\n\r bclk_sclk_offset_value: ",\
 599:../src/platform/mpfs_hal/common/nwc/mss_ddr.c ****                                                     bclk_sclk_offset_value);
 600:../src/platform/mpfs_hal/common/nwc/mss_ddr.c ****             (void)uprint32(g_debug_uart, "\n\r dpc_vrgen_v_value: ",\
 601:../src/platform/mpfs_hal/common/nwc/mss_ddr.c ****                                                dpc_vrgen_v_value);
 602:../src/platform/mpfs_hal/common/nwc/mss_ddr.c ****             (void)uprint32(g_debug_uart, "\n\r dpc_vrgen_h_value: ",\
 603:../src/platform/mpfs_hal/common/nwc/mss_ddr.c ****                                                dpc_vrgen_h_value);
 604:../src/platform/mpfs_hal/common/nwc/mss_ddr.c ****             (void)uprint32(g_debug_uart, "\n\r dpc_vrgen_vs_value: ",\
 605:../src/platform/mpfs_hal/common/nwc/mss_ddr.c ****                                                dpc_vrgen_vs_value);
 606:../src/platform/mpfs_hal/common/nwc/mss_ddr.c **** #endif
 607:../src/platform/mpfs_hal/common/nwc/mss_ddr.c ****             ddr_training_state = DDR_TRAINING_CONFIG_PLL;
 623              		.loc 2 607 32
 624 042e 97070000 		lla	a5,ddr_training_state.14230
 624      93870700 
 625 0436 2947     		li	a4,10
 626 0438 98C3     		sw	a4,0(a5)
 608:../src/platform/mpfs_hal/common/nwc/mss_ddr.c ****             break;
 627              		.loc 2 608 13
 628 043a 6F20A01B 		j	.L69
 629              	.L60:
 609:../src/platform/mpfs_hal/common/nwc/mss_ddr.c ****         case DDR_TRAINING_CONFIG_PLL:
 610:../src/platform/mpfs_hal/common/nwc/mss_ddr.c ****             /*
 611:../src/platform/mpfs_hal/common/nwc/mss_ddr.c ****              *  Configure the DDR PLL
 612:../src/platform/mpfs_hal/common/nwc/mss_ddr.c ****              */
 613:../src/platform/mpfs_hal/common/nwc/mss_ddr.c ****             ddr_pll_config(SCB_UPDATE);
 630              		.loc 2 613 13
 631 043e 0145     		li	a0,0
 632 0440 97000000 		call	ddr_pll_config
 632      E7800000 
 614:../src/platform/mpfs_hal/common/nwc/mss_ddr.c ****             timeout = 0xFFFF;
 633              		.loc 2 614 21
 634 0448 97070000 		lla	a5,timeout.14232
 634      93870700 
 635 0450 4167     		li	a4,65536
 636 0452 7D17     		addi	a4,a4,-1
 637 0454 98C3     		sw	a4,0(a5)
 615:../src/platform/mpfs_hal/common/nwc/mss_ddr.c ****             ddr_training_state = DDR_TRAINING_VERIFY_PLL_LOCK;
 638              		.loc 2 615 32
 639 0456 97070000 		lla	a5,ddr_training_state.14230
 639      93870700 
 640 045e 3147     		li	a4,12
 641 0460 98C3     		sw	a4,0(a5)
 616:../src/platform/mpfs_hal/common/nwc/mss_ddr.c ****             break;
 642              		.loc 2 616 13
 643 0462 6F202019 		j	.L69
 644              	.L58:
 617:../src/platform/mpfs_hal/common/nwc/mss_ddr.c ****         case DDR_TRAINING_VERIFY_PLL_LOCK:
 618:../src/platform/mpfs_hal/common/nwc/mss_ddr.c ****             /*
 619:../src/platform/mpfs_hal/common/nwc/mss_ddr.c ****              *  Verify DDR PLL lock
 620:../src/platform/mpfs_hal/common/nwc/mss_ddr.c ****              */
 621:../src/platform/mpfs_hal/common/nwc/mss_ddr.c ****             if (ddr_pll_lock_scb() == 0U)
 645              		.loc 2 621 17
 646 0466 97000000 		call	ddr_pll_lock_scb
 646      E7800000 
 647 046e AA87     		mv	a5,a0
 648              		.loc 2 621 16
 649 0470 89EB     		bne	a5,zero,.L75
 622:../src/platform/mpfs_hal/common/nwc/mss_ddr.c ****             {
 623:../src/platform/mpfs_hal/common/nwc/mss_ddr.c ****                 ddr_training_state = DDR_TRAINING_SETUP_SEGS;
 650              		.loc 2 623 36
 651 0472 97070000 		lla	a5,ddr_training_state.14230
 651      93870700 
 652 047a 2D47     		li	a4,11
 653 047c 98C3     		sw	a4,0(a5)
 624:../src/platform/mpfs_hal/common/nwc/mss_ddr.c ****             }
 625:../src/platform/mpfs_hal/common/nwc/mss_ddr.c ****             else if(--timeout == 0U)
 626:../src/platform/mpfs_hal/common/nwc/mss_ddr.c ****             {
 627:../src/platform/mpfs_hal/common/nwc/mss_ddr.c ****                 ddr_training_state = DDR_TRAINING_FAIL_PLL_LOCK;
 628:../src/platform/mpfs_hal/common/nwc/mss_ddr.c ****             }
 629:../src/platform/mpfs_hal/common/nwc/mss_ddr.c ****             break;
 654              		.loc 2 629 13
 655 047e 6F208015 		j	.L199
 656              	.L75:
 625:../src/platform/mpfs_hal/common/nwc/mss_ddr.c ****             {
 657              		.loc 2 625 21
 658 0482 97070000 		lla	a5,timeout.14232
 658      93870700 
 659 048a 9C43     		lw	a5,0(a5)
 660 048c FD37     		addiw	a5,a5,-1
 661 048e 1B870700 		sext.w	a4,a5
 625:../src/platform/mpfs_hal/common/nwc/mss_ddr.c ****             {
 662              		.loc 2 625 20
 663 0492 97070000 		lla	a5,timeout.14232
 663      93870700 
 664 049a 98C3     		sw	a4,0(a5)
 625:../src/platform/mpfs_hal/common/nwc/mss_ddr.c ****             {
 665              		.loc 2 625 21
 666 049c 97070000 		lla	a5,timeout.14232
 666      93870700 
 667 04a4 9C43     		lw	a5,0(a5)
 625:../src/platform/mpfs_hal/common/nwc/mss_ddr.c ****             {
 668              		.loc 2 625 20
 669 04a6 99C36F20 		bne	a5,zero,.L199
 669      E012
 627:../src/platform/mpfs_hal/common/nwc/mss_ddr.c ****             }
 670              		.loc 2 627 36
 671 04ac 97070000 		lla	a5,ddr_training_state.14230
 671      93870700 
 672 04b4 13079003 		li	a4,57
 673 04b8 98C3     		sw	a4,0(a5)
 674              		.loc 2 629 13
 675 04ba 6F20C011 		j	.L199
 676              	.L59:
 630:../src/platform/mpfs_hal/common/nwc/mss_ddr.c ****         case DDR_TRAINING_SETUP_SEGS:
 631:../src/platform/mpfs_hal/common/nwc/mss_ddr.c ****             /*
 632:../src/platform/mpfs_hal/common/nwc/mss_ddr.c ****              * Configure Segments- address mapping,  CFG0/CFG1
 633:../src/platform/mpfs_hal/common/nwc/mss_ddr.c ****              */
 634:../src/platform/mpfs_hal/common/nwc/mss_ddr.c ****             setup_ddr_segments(DEFAULT_SEG_SETUP);
 677              		.loc 2 634 13
 678 04be 0145     		li	a0,0
 679 04c0 97000000 		call	setup_ddr_segments
 679      E7800000 
 635:../src/platform/mpfs_hal/common/nwc/mss_ddr.c ****             /*
 636:../src/platform/mpfs_hal/common/nwc/mss_ddr.c ****              * enable the  DDRC
 637:../src/platform/mpfs_hal/common/nwc/mss_ddr.c ****              */
 638:../src/platform/mpfs_hal/common/nwc/mss_ddr.c ****             /* Turn on DDRC clock */
 639:../src/platform/mpfs_hal/common/nwc/mss_ddr.c ****             SYSREG->SUBBLK_CLOCK_CR |= SUBBLK_CLOCK_CR_DDRC_MASK;
 680              		.loc 2 639 37
 681 04c8 B7270020 		li	a5,536879104
 682 04cc 83A74708 		lw	a5,132(a5)
 683 04d0 1B870700 		sext.w	a4,a5
 684 04d4 B7270020 		li	a5,536879104
 685 04d8 BA86     		mv	a3,a4
 686 04da 37078000 		li	a4,8388608
 687 04de 558F     		or	a4,a3,a4
 688 04e0 0127     		sext.w	a4,a4
 689 04e2 23A2E708 		sw	a4,132(a5)
 640:../src/platform/mpfs_hal/common/nwc/mss_ddr.c ****             /* Remove soft reset */
 641:../src/platform/mpfs_hal/common/nwc/mss_ddr.c ****             SYSREG->SOFT_RESET_CR   |= (uint32_t)SOFT_RESET_CR_DDRC_MASK;
 690              		.loc 2 641 37
 691 04e6 B7270020 		li	a5,536879104
 692 04ea 83A78708 		lw	a5,136(a5)
 693 04ee 1B870700 		sext.w	a4,a5
 694 04f2 B7270020 		li	a5,536879104
 695 04f6 BA86     		mv	a3,a4
 696 04f8 37078000 		li	a4,8388608
 697 04fc 558F     		or	a4,a3,a4
 698 04fe 0127     		sext.w	a4,a4
 699 0500 23A4E708 		sw	a4,136(a5)
 642:../src/platform/mpfs_hal/common/nwc/mss_ddr.c ****             SYSREG->SOFT_RESET_CR   &= (uint32_t)~SOFT_RESET_CR_DDRC_MASK;
 700              		.loc 2 642 37
 701 0504 B7270020 		li	a5,536879104
 702 0508 83A78708 		lw	a5,136(a5)
 703 050c 1B870700 		sext.w	a4,a5
 704 0510 B7270020 		li	a5,536879104
 705 0514 BA86     		mv	a3,a4
 706 0516 370780FF 		li	a4,-8388608
 707 051a 7D17     		addi	a4,a4,-1
 708 051c 758F     		and	a4,a3,a4
 709 051e 0127     		sext.w	a4,a4
 710 0520 23A4E708 		sw	a4,136(a5)
 643:../src/platform/mpfs_hal/common/nwc/mss_ddr.c ****             ddr_training_state = DDR_TRAINING_SETUP_DDRC;
 711              		.loc 2 643 32
 712 0524 97070000 		lla	a5,ddr_training_state.14230
 712      93870700 
 713 052c 3547     		li	a4,13
 714 052e 98C3     		sw	a4,0(a5)
 644:../src/platform/mpfs_hal/common/nwc/mss_ddr.c ****             break;
 715              		.loc 2 644 13
 716 0530 6F20400C 		j	.L69
 717              	.L57:
 645:../src/platform/mpfs_hal/common/nwc/mss_ddr.c ****         case DDR_TRAINING_SETUP_DDRC:
 646:../src/platform/mpfs_hal/common/nwc/mss_ddr.c ****             /*
 647:../src/platform/mpfs_hal/common/nwc/mss_ddr.c ****              * set-up DDRC
 648:../src/platform/mpfs_hal/common/nwc/mss_ddr.c ****              * Configuration taken from the user.
 649:../src/platform/mpfs_hal/common/nwc/mss_ddr.c ****              */
 650:../src/platform/mpfs_hal/common/nwc/mss_ddr.c ****             {
 651:../src/platform/mpfs_hal/common/nwc/mss_ddr.c ****                 init_ddrc();
 718              		.loc 2 651 17
 719 0534 97000000 		call	init_ddrc
 719      E7800000 
 652:../src/platform/mpfs_hal/common/nwc/mss_ddr.c ****                 ddr_training_state = DDR_TRAINING_RESET;
 720              		.loc 2 652 36
 721 053c 97070000 		lla	a5,ddr_training_state.14230
 721      93870700 
 722 0544 3947     		li	a4,14
 723 0546 98C3     		sw	a4,0(a5)
 653:../src/platform/mpfs_hal/common/nwc/mss_ddr.c ****             }
 654:../src/platform/mpfs_hal/common/nwc/mss_ddr.c ****             break;
 724              		.loc 2 654 13
 725 0548 6F20C00A 		j	.L69
 726              	.L56:
 655:../src/platform/mpfs_hal/common/nwc/mss_ddr.c ****         case DDR_TRAINING_RESET:
 656:../src/platform/mpfs_hal/common/nwc/mss_ddr.c ****             /*
 657:../src/platform/mpfs_hal/common/nwc/mss_ddr.c ****              * Assert training reset
 658:../src/platform/mpfs_hal/common/nwc/mss_ddr.c ****              *  reset pin is bit [1]
 659:../src/platform/mpfs_hal/common/nwc/mss_ddr.c ****              * and load skip setting
 660:../src/platform/mpfs_hal/common/nwc/mss_ddr.c ****              */
 661:../src/platform/mpfs_hal/common/nwc/mss_ddr.c ****             /* leave in reset */
 662:../src/platform/mpfs_hal/common/nwc/mss_ddr.c **** /* To verify if separate reset required for DDR4 - believe it is not */
 663:../src/platform/mpfs_hal/common/nwc/mss_ddr.c **** #ifndef SPECIAL_TRAINIG_RESET
 664:../src/platform/mpfs_hal/common/nwc/mss_ddr.c ****             CFG_DDR_SGMII_PHY->training_reset.training_reset    = 0x00000002U;
 727              		.loc 2 664 30
 728 054c 97070000 		lla	a5,CFG_DDR_SGMII_PHY
 728      93870700 
 729 0554 9863     		ld	a4,0(a5)
 730              		.loc 2 664 65
 731 0556 8567     		li	a5,4096
 732 0558 BA97     		add	a5,a4,a5
 733 055a 0947     		li	a4,2
 734 055c 23ACE780 		sw	a4,-2024(a5)
 665:../src/platform/mpfs_hal/common/nwc/mss_ddr.c **** #ifndef     SOFT_RESET_PRE_TAG_172
 666:../src/platform/mpfs_hal/common/nwc/mss_ddr.c ****             if (ddr_type == LPDDR4)
 735              		.loc 2 666 16
 736 0560 8327C4F7 		lw	a5,-132(s0)
 737 0564 1B870700 		sext.w	a4,a5
 738 0568 9147     		li	a5,4
 739 056a 631BF700 		bne	a4,a5,.L77
 667:../src/platform/mpfs_hal/common/nwc/mss_ddr.c ****             {
 668:../src/platform/mpfs_hal/common/nwc/mss_ddr.c ****                 //ALISTER 7/16/21
 669:../src/platform/mpfs_hal/common/nwc/mss_ddr.c ****                 DDRCFG->MC_BASE2.INIT_AUTOINIT_DISABLE.INIT_AUTOINIT_DISABLE=0x1;
 740              		.loc 2 669 23
 741 056e 97070000 		lla	a5,DDRCFG
 741      93870700 
 742 0576 9863     		ld	a4,0(a5)
 743              		.loc 2 669 77
 744 0578 9167     		li	a5,16384
 745 057a BA97     		add	a5,a4,a5
 746 057c 0547     		li	a4,1
 747 057e 98CB     		sw	a4,16(a5)
 748              	.L77:
 670:../src/platform/mpfs_hal/common/nwc/mss_ddr.c ****             }
 671:../src/platform/mpfs_hal/common/nwc/mss_ddr.c ****             DDRCFG->MC_BASE2.CTRLR_SOFT_RESET_N.CTRLR_SOFT_RESET_N  =\
 749              		.loc 2 671 19
 750 0580 97070000 		lla	a5,DDRCFG
 750      93870700 
 751 0588 9863     		ld	a4,0(a5)
 752              		.loc 2 671 69
 753 058a 9167     		li	a5,16384
 754 058c BA97     		add	a5,a4,a5
 755 058e 23A00700 		sw	zero,0(a5)
 672:../src/platform/mpfs_hal/common/nwc/mss_ddr.c ****                                                                                 0x00000000U;
 673:../src/platform/mpfs_hal/common/nwc/mss_ddr.c ****             DDRCFG->MC_BASE2.CTRLR_SOFT_RESET_N.CTRLR_SOFT_RESET_N  =\
 756              		.loc 2 673 19
 757 0592 97070000 		lla	a5,DDRCFG
 757      93870700 
 758 059a 9863     		ld	a4,0(a5)
 759              		.loc 2 673 69
 760 059c 9167     		li	a5,16384
 761 059e BA97     		add	a5,a4,a5
 762 05a0 0547     		li	a4,1
 763 05a2 98C3     		sw	a4,0(a5)
 674:../src/platform/mpfs_hal/common/nwc/mss_ddr.c ****                                                                                 0x00000001U;
 675:../src/platform/mpfs_hal/common/nwc/mss_ddr.c **** #endif      /* !SOFT_RESET_PRE_TAG_172 */
 676:../src/platform/mpfs_hal/common/nwc/mss_ddr.c **** #else
 677:../src/platform/mpfs_hal/common/nwc/mss_ddr.c ****             /* Disable CKE */
 678:../src/platform/mpfs_hal/common/nwc/mss_ddr.c ****             DDRCFG->MC_BASE2.INIT_DISABLE_CKE.INIT_DISABLE_CKE = 0x1;
 679:../src/platform/mpfs_hal/common/nwc/mss_ddr.c **** 
 680:../src/platform/mpfs_hal/common/nwc/mss_ddr.c ****             /* Assert FORCE_RESET */
 681:../src/platform/mpfs_hal/common/nwc/mss_ddr.c ****             DDRCFG->MC_BASE2.INIT_FORCE_RESET.INIT_FORCE_RESET = 0x1;
 682:../src/platform/mpfs_hal/common/nwc/mss_ddr.c ****             delay(DELAY_CYCLES_5_MICRO);
 683:../src/platform/mpfs_hal/common/nwc/mss_ddr.c ****             /* release reset to memory here, set INIT_FORCE_RESET to 0 */
 684:../src/platform/mpfs_hal/common/nwc/mss_ddr.c ****             DDRCFG->MC_BASE2.INIT_FORCE_RESET.INIT_FORCE_RESET = 0x0;
 685:../src/platform/mpfs_hal/common/nwc/mss_ddr.c ****             delay(DELAY_CYCLES_2MS); /* 2MS */
 686:../src/platform/mpfs_hal/common/nwc/mss_ddr.c **** 
 687:../src/platform/mpfs_hal/common/nwc/mss_ddr.c ****             /* Enable CKE */
 688:../src/platform/mpfs_hal/common/nwc/mss_ddr.c ****             DDRCFG->MC_BASE2.INIT_DISABLE_CKE.INIT_DISABLE_CKE = 0x0;
 689:../src/platform/mpfs_hal/common/nwc/mss_ddr.c ****             delay(DELAY_CYCLES_50_MICRO);
 690:../src/platform/mpfs_hal/common/nwc/mss_ddr.c **** 
 691:../src/platform/mpfs_hal/common/nwc/mss_ddr.c ****             /* reset pin is bit [1] */
 692:../src/platform/mpfs_hal/common/nwc/mss_ddr.c ****             CFG_DDR_SGMII_PHY->training_reset.training_reset    = 0x00000002U;
 693:../src/platform/mpfs_hal/common/nwc/mss_ddr.c **** 
 694:../src/platform/mpfs_hal/common/nwc/mss_ddr.c **** #endif
 695:../src/platform/mpfs_hal/common/nwc/mss_ddr.c ****             ddr_training_state = DDR_TRAINING_ROTATE_CLK;
 764              		.loc 2 695 32
 765 05a4 97070000 		lla	a5,ddr_training_state.14230
 765      93870700 
 766 05ac 3D47     		li	a4,15
 767 05ae 98C3     		sw	a4,0(a5)
 696:../src/platform/mpfs_hal/common/nwc/mss_ddr.c ****             break;
 768              		.loc 2 696 13
 769 05b0 6F204004 		j	.L69
 770              	.L55:
 697:../src/platform/mpfs_hal/common/nwc/mss_ddr.c ****         case DDR_TRAINING_ROTATE_CLK:
 698:../src/platform/mpfs_hal/common/nwc/mss_ddr.c ****         /*
 699:../src/platform/mpfs_hal/common/nwc/mss_ddr.c ****          * Rotate bclk90 by 90 deg
 700:../src/platform/mpfs_hal/common/nwc/mss_ddr.c ****          */
 701:../src/platform/mpfs_hal/common/nwc/mss_ddr.c ****             CFG_DDR_SGMII_PHY->expert_pllcnt.expert_pllcnt = 0x00000004U;
 771              		.loc 2 701 30
 772 05b4 97070000 		lla	a5,CFG_DDR_SGMII_PHY
 772      93870700 
 773 05bc 9863     		ld	a4,0(a5)
 774              		.loc 2 701 60
 775 05be 8567     		li	a5,4096
 776 05c0 BA97     		add	a5,a4,a5
 777 05c2 1147     		li	a4,4
 778 05c4 23A2E78A 		sw	a4,-1884(a5)
 702:../src/platform/mpfs_hal/common/nwc/mss_ddr.c ****             /*expert mode enabling */
 703:../src/platform/mpfs_hal/common/nwc/mss_ddr.c ****             CFG_DDR_SGMII_PHY->expert_mode_en.expert_mode_en = 0x00000002U;
 779              		.loc 2 703 30
 780 05c8 97070000 		lla	a5,CFG_DDR_SGMII_PHY
 780      93870700 
 781 05d0 9863     		ld	a4,0(a5)
 782              		.loc 2 703 62
 783 05d2 8567     		li	a5,4096
 784 05d4 BA97     		add	a5,a4,a5
 785 05d6 0947     		li	a4,2
 786 05d8 23ACE786 		sw	a4,-1928(a5)
 704:../src/platform/mpfs_hal/common/nwc/mss_ddr.c ****             /*   */
 705:../src/platform/mpfs_hal/common/nwc/mss_ddr.c ****             CFG_DDR_SGMII_PHY->expert_pllcnt.expert_pllcnt= 0x7CU; /* loading */
 787              		.loc 2 705 30
 788 05dc 97070000 		lla	a5,CFG_DDR_SGMII_PHY
 788      93870700 
 789 05e4 9863     		ld	a4,0(a5)
 790              		.loc 2 705 59
 791 05e6 8567     		li	a5,4096
 792 05e8 BA97     		add	a5,a4,a5
 793 05ea 1307C007 		li	a4,124
 794 05ee 23A2E78A 		sw	a4,-1884(a5)
 706:../src/platform/mpfs_hal/common/nwc/mss_ddr.c ****             CFG_DDR_SGMII_PHY->expert_pllcnt.expert_pllcnt= 0x78U;
 795              		.loc 2 706 30
 796 05f2 97070000 		lla	a5,CFG_DDR_SGMII_PHY
 796      93870700 
 797 05fa 9863     		ld	a4,0(a5)
 798              		.loc 2 706 59
 799 05fc 8567     		li	a5,4096
 800 05fe BA97     		add	a5,a4,a5
 801 0600 13078007 		li	a4,120
 802 0604 23A2E78A 		sw	a4,-1884(a5)
 707:../src/platform/mpfs_hal/common/nwc/mss_ddr.c ****             CFG_DDR_SGMII_PHY->expert_pllcnt.expert_pllcnt= 0x78U;
 803              		.loc 2 707 30
 804 0608 97070000 		lla	a5,CFG_DDR_SGMII_PHY
 804      93870700 
 805 0610 9863     		ld	a4,0(a5)
 806              		.loc 2 707 59
 807 0612 8567     		li	a5,4096
 808 0614 BA97     		add	a5,a4,a5
 809 0616 13078007 		li	a4,120
 810 061a 23A2E78A 		sw	a4,-1884(a5)
 708:../src/platform/mpfs_hal/common/nwc/mss_ddr.c ****             CFG_DDR_SGMII_PHY->expert_pllcnt.expert_pllcnt= 0x7CU;
 811              		.loc 2 708 30
 812 061e 97070000 		lla	a5,CFG_DDR_SGMII_PHY
 812      93870700 
 813 0626 9863     		ld	a4,0(a5)
 814              		.loc 2 708 59
 815 0628 8567     		li	a5,4096
 816 062a BA97     		add	a5,a4,a5
 817 062c 1307C007 		li	a4,124
 818 0630 23A2E78A 		sw	a4,-1884(a5)
 709:../src/platform/mpfs_hal/common/nwc/mss_ddr.c ****             CFG_DDR_SGMII_PHY->expert_pllcnt.expert_pllcnt= 0x4U;
 819              		.loc 2 709 30
 820 0634 97070000 		lla	a5,CFG_DDR_SGMII_PHY
 820      93870700 
 821 063c 9863     		ld	a4,0(a5)
 822              		.loc 2 709 59
 823 063e 8567     		li	a5,4096
 824 0640 BA97     		add	a5,a4,a5
 825 0642 1147     		li	a4,4
 826 0644 23A2E78A 		sw	a4,-1884(a5)
 710:../src/platform/mpfs_hal/common/nwc/mss_ddr.c ****             CFG_DDR_SGMII_PHY->expert_pllcnt.expert_pllcnt= 0x64U;
 827              		.loc 2 710 30
 828 0648 97070000 		lla	a5,CFG_DDR_SGMII_PHY
 828      93870700 
 829 0650 9863     		ld	a4,0(a5)
 830              		.loc 2 710 59
 831 0652 8567     		li	a5,4096
 832 0654 BA97     		add	a5,a4,a5
 833 0656 13074006 		li	a4,100
 834 065a 23A2E78A 		sw	a4,-1884(a5)
 711:../src/platform/mpfs_hal/common/nwc/mss_ddr.c ****             CFG_DDR_SGMII_PHY->expert_pllcnt.expert_pllcnt= 0x66U; /* increment */
 835              		.loc 2 711 30
 836 065e 97070000 		lla	a5,CFG_DDR_SGMII_PHY
 836      93870700 
 837 0666 9863     		ld	a4,0(a5)
 838              		.loc 2 711 59
 839 0668 8567     		li	a5,4096
 840 066a BA97     		add	a5,a4,a5
 841 066c 13076006 		li	a4,102
 842 0670 23A2E78A 		sw	a4,-1884(a5)
 843              	.LBB5:
 712:../src/platform/mpfs_hal/common/nwc/mss_ddr.c ****             for (uint32_t d=0;d< \
 844              		.loc 2 712 27
 845 0674 232004FE 		sw	zero,-32(s0)
 846              		.loc 2 712 13
 847 0678 25A8     		j	.L78
 848              	.L79:
 713:../src/platform/mpfs_hal/common/nwc/mss_ddr.c ****                 LIBERO_SETTING_TIP_CONFIG_PARAMS_BCLK_VCOPHS_OFFSET;d++)
 714:../src/platform/mpfs_hal/common/nwc/mss_ddr.c ****             {
 715:../src/platform/mpfs_hal/common/nwc/mss_ddr.c ****                 CFG_DDR_SGMII_PHY->expert_pllcnt.expert_pllcnt= 0x67U;
 849              		.loc 2 715 34
 850 067a 97070000 		lla	a5,CFG_DDR_SGMII_PHY
 850      93870700 
 851 0682 9863     		ld	a4,0(a5)
 852              		.loc 2 715 63
 853 0684 8567     		li	a5,4096
 854 0686 BA97     		add	a5,a4,a5
 855 0688 13077006 		li	a4,103
 856 068c 23A2E78A 		sw	a4,-1884(a5)
 716:../src/platform/mpfs_hal/common/nwc/mss_ddr.c ****                 CFG_DDR_SGMII_PHY->expert_pllcnt.expert_pllcnt= 0x66U;
 857              		.loc 2 716 34
 858 0690 97070000 		lla	a5,CFG_DDR_SGMII_PHY
 858      93870700 
 859 0698 9863     		ld	a4,0(a5)
 860              		.loc 2 716 63
 861 069a 8567     		li	a5,4096
 862 069c BA97     		add	a5,a4,a5
 863 069e 13076006 		li	a4,102
 864 06a2 23A2E78A 		sw	a4,-1884(a5)
 713:../src/platform/mpfs_hal/common/nwc/mss_ddr.c ****                 LIBERO_SETTING_TIP_CONFIG_PARAMS_BCLK_VCOPHS_OFFSET;d++)
 865              		.loc 2 713 70
 866 06a6 832704FE 		lw	a5,-32(s0)
 867 06aa 8527     		addiw	a5,a5,1
 868 06ac 2320F4FE 		sw	a5,-32(s0)
 869              	.L78:
 712:../src/platform/mpfs_hal/common/nwc/mss_ddr.c ****             for (uint32_t d=0;d< \
 870              		.loc 2 712 13 discriminator 1
 871 06b0 832704FE 		lw	a5,-32(s0)
 872 06b4 1B870700 		sext.w	a4,a5
 873 06b8 8547     		li	a5,1
 874 06ba E3F0E7FC 		bleu	a4,a5,.L79
 875              	.LBE5:
 717:../src/platform/mpfs_hal/common/nwc/mss_ddr.c ****             }
 718:../src/platform/mpfs_hal/common/nwc/mss_ddr.c ****             CFG_DDR_SGMII_PHY->expert_pllcnt.expert_pllcnt= 0x64U;
 876              		.loc 2 718 30
 877 06be 97070000 		lla	a5,CFG_DDR_SGMII_PHY
 877      93870700 
 878 06c6 9863     		ld	a4,0(a5)
 879              		.loc 2 718 59
 880 06c8 8567     		li	a5,4096
 881 06ca BA97     		add	a5,a4,a5
 882 06cc 13074006 		li	a4,100
 883 06d0 23A2E78A 		sw	a4,-1884(a5)
 719:../src/platform/mpfs_hal/common/nwc/mss_ddr.c ****             CFG_DDR_SGMII_PHY->expert_pllcnt.expert_pllcnt= 0x4U;
 884              		.loc 2 719 30
 885 06d4 97070000 		lla	a5,CFG_DDR_SGMII_PHY
 885      93870700 
 886 06dc 9863     		ld	a4,0(a5)
 887              		.loc 2 719 59
 888 06de 8567     		li	a5,4096
 889 06e0 BA97     		add	a5,a4,a5
 890 06e2 1147     		li	a4,4
 891 06e4 23A2E78A 		sw	a4,-1884(a5)
 720:../src/platform/mpfs_hal/common/nwc/mss_ddr.c **** 
 721:../src/platform/mpfs_hal/common/nwc/mss_ddr.c ****             /* setting load delay lines */
 722:../src/platform/mpfs_hal/common/nwc/mss_ddr.c ****             CFG_DDR_SGMII_PHY->expert_dlycnt_mv_rd_dly_reg.expert_dlycnt_mv_rd_dly_reg\
 892              		.loc 2 722 30
 893 06e8 97070000 		lla	a5,CFG_DDR_SGMII_PHY
 893      93870700 
 894 06f0 9863     		ld	a4,0(a5)
 723:../src/platform/mpfs_hal/common/nwc/mss_ddr.c ****                 = 0x1FU;
 895              		.loc 2 723 17
 896 06f2 8567     		li	a5,4096
 897 06f4 BA97     		add	a5,a4,a5
 898 06f6 7D47     		li	a4,31
 899 06f8 23AEE788 		sw	a4,-1892(a5)
 724:../src/platform/mpfs_hal/common/nwc/mss_ddr.c ****             CFG_DDR_SGMII_PHY->expert_dlycnt_load_reg1.expert_dlycnt_load_reg1=\
 900              		.loc 2 724 30
 901 06fc 97070000 		lla	a5,CFG_DDR_SGMII_PHY
 901      93870700 
 902 0704 9863     		ld	a4,0(a5)
 903              		.loc 2 724 79
 904 0706 8567     		li	a5,4096
 905 0708 BA97     		add	a5,a4,a5
 906 070a 7D57     		li	a4,-1
 907 070c 23A8E788 		sw	a4,-1904(a5)
 725:../src/platform/mpfs_hal/common/nwc/mss_ddr.c ****                     0xFFFFFFFFU;  /* setting to 1 to load delaylines */
 726:../src/platform/mpfs_hal/common/nwc/mss_ddr.c ****             CFG_DDR_SGMII_PHY->expert_dlycnt_load_reg1.expert_dlycnt_load_reg1=\
 908              		.loc 2 726 30
 909 0710 97070000 		lla	a5,CFG_DDR_SGMII_PHY
 909      93870700 
 910 0718 9863     		ld	a4,0(a5)
 911              		.loc 2 726 79
 912 071a 8567     		li	a5,4096
 913 071c BA97     		add	a5,a4,a5
 914 071e 23A80788 		sw	zero,-1904(a5)
 727:../src/platform/mpfs_hal/common/nwc/mss_ddr.c ****                     0x00000000U;
 728:../src/platform/mpfs_hal/common/nwc/mss_ddr.c **** 
 729:../src/platform/mpfs_hal/common/nwc/mss_ddr.c ****             /* write w DFICFG_REG mv_rd_dly 0x00000000 #
 730:../src/platform/mpfs_hal/common/nwc/mss_ddr.c ****                tip_apb_write(12'h89C, 32'h0);   mv_rd_dly  */
 731:../src/platform/mpfs_hal/common/nwc/mss_ddr.c ****             CFG_DDR_SGMII_PHY->expert_dlycnt_mv_rd_dly_reg.expert_dlycnt_mv_rd_dly_reg \
 915              		.loc 2 731 30
 916 0722 97070000 		lla	a5,CFG_DDR_SGMII_PHY
 916      93870700 
 917 072a 9863     		ld	a4,0(a5)
 732:../src/platform/mpfs_hal/common/nwc/mss_ddr.c ****                 = 0x0U;
 918              		.loc 2 732 17
 919 072c 8567     		li	a5,4096
 920 072e BA97     		add	a5,a4,a5
 921 0730 23AE0788 		sw	zero,-1892(a5)
 733:../src/platform/mpfs_hal/common/nwc/mss_ddr.c **** 
 734:../src/platform/mpfs_hal/common/nwc/mss_ddr.c ****             CFG_DDR_SGMII_PHY->expert_dlycnt_load_reg1.expert_dlycnt_load_reg1=\
 922              		.loc 2 734 30
 923 0734 97070000 		lla	a5,CFG_DDR_SGMII_PHY
 923      93870700 
 924 073c 9863     		ld	a4,0(a5)
 925              		.loc 2 734 79
 926 073e 8567     		li	a5,4096
 927 0740 BA97     		add	a5,a4,a5
 928 0742 7D57     		li	a4,-1
 929 0744 23A8E788 		sw	a4,-1904(a5)
 735:../src/platform/mpfs_hal/common/nwc/mss_ddr.c ****                     0xFFFFFFFFU;  /* setting to 1 to load delaylines */
 736:../src/platform/mpfs_hal/common/nwc/mss_ddr.c ****             CFG_DDR_SGMII_PHY->expert_dlycnt_load_reg1.expert_dlycnt_load_reg1=\
 930              		.loc 2 736 30
 931 0748 97070000 		lla	a5,CFG_DDR_SGMII_PHY
 931      93870700 
 932 0750 9863     		ld	a4,0(a5)
 933              		.loc 2 736 79
 934 0752 8567     		li	a5,4096
 935 0754 BA97     		add	a5,a4,a5
 936 0756 23A80788 		sw	zero,-1904(a5)
 737:../src/platform/mpfs_hal/common/nwc/mss_ddr.c ****                     0x00000000U;
 738:../src/platform/mpfs_hal/common/nwc/mss_ddr.c **** 
 739:../src/platform/mpfs_hal/common/nwc/mss_ddr.c **** 
 740:../src/platform/mpfs_hal/common/nwc/mss_ddr.c ****             CFG_DDR_SGMII_PHY->expert_dlycnt_pause.expert_dlycnt_pause       =\
 937              		.loc 2 740 30
 938 075a 97070000 		lla	a5,CFG_DDR_SGMII_PHY
 938      93870700 
 939 0762 9863     		ld	a4,0(a5)
 940              		.loc 2 740 78
 941 0764 8567     		li	a5,4096
 942 0766 BA97     		add	a5,a4,a5
 943 0768 1307F003 		li	a4,63
 944 076c 23A0E78A 		sw	a4,-1888(a5)
 741:../src/platform/mpfs_hal/common/nwc/mss_ddr.c ****                     0x0000003FU;
 742:../src/platform/mpfs_hal/common/nwc/mss_ddr.c ****             CFG_DDR_SGMII_PHY->expert_dlycnt_pause.expert_dlycnt_pause       =\
 945              		.loc 2 742 30
 946 0770 97070000 		lla	a5,CFG_DDR_SGMII_PHY
 946      93870700 
 947 0778 9863     		ld	a4,0(a5)
 948              		.loc 2 742 78
 949 077a 8567     		li	a5,4096
 950 077c BA97     		add	a5,a4,a5
 951 077e 23A0078A 		sw	zero,-1888(a5)
 743:../src/platform/mpfs_hal/common/nwc/mss_ddr.c ****                     0x00000000U;
 744:../src/platform/mpfs_hal/common/nwc/mss_ddr.c **** 
 745:../src/platform/mpfs_hal/common/nwc/mss_ddr.c ****             /* DQ */
 746:../src/platform/mpfs_hal/common/nwc/mss_ddr.c ****             /*    dfi_training_complete_shim = 1'b1
 747:../src/platform/mpfs_hal/common/nwc/mss_ddr.c ****                   dfi_wrlvl_en_shim = 1'b1 */
 748:../src/platform/mpfs_hal/common/nwc/mss_ddr.c ****             CFG_DDR_SGMII_PHY->expert_dfi_status_override_to_shim.expert_dfi_status_override_to_shi
 952              		.loc 2 748 30
 953 0782 97070000 		lla	a5,CFG_DDR_SGMII_PHY
 953      93870700 
 954 078a 9863     		ld	a4,0(a5)
 955              		.loc 2 748 102
 956 078c 8567     		li	a5,4096
 957 078e BA97     		add	a5,a4,a5
 958 0790 1947     		li	a4,6
 959 0792 23A6E78C 		sw	a4,-1844(a5)
 749:../src/platform/mpfs_hal/common/nwc/mss_ddr.c ****             CFG_DDR_SGMII_PHY->expert_dlycnt_load_reg0.expert_dlycnt_load_reg0=\
 960              		.loc 2 749 30
 961 0796 97070000 		lla	a5,CFG_DDR_SGMII_PHY
 961      93870700 
 962 079e 9863     		ld	a4,0(a5)
 963              		.loc 2 749 79
 964 07a0 8567     		li	a5,4096
 965 07a2 BA97     		add	a5,a4,a5
 966 07a4 7D57     		li	a4,-1
 967 07a6 23A6E788 		sw	a4,-1908(a5)
 750:../src/platform/mpfs_hal/common/nwc/mss_ddr.c ****                     0xFFFFFFFFU;   /* load output delays */
 751:../src/platform/mpfs_hal/common/nwc/mss_ddr.c ****             CFG_DDR_SGMII_PHY->expert_dlycnt_load_reg1.expert_dlycnt_load_reg1=\
 968              		.loc 2 751 30
 969 07aa 97070000 		lla	a5,CFG_DDR_SGMII_PHY
 969      93870700 
 970 07b2 9863     		ld	a4,0(a5)
 971              		.loc 2 751 79
 972 07b4 8567     		li	a5,4096
 973 07b6 BA97     		add	a5,a4,a5
 974 07b8 3D47     		li	a4,15
 975 07ba 23A8E788 		sw	a4,-1904(a5)
 752:../src/platform/mpfs_hal/common/nwc/mss_ddr.c ****                     0xF;           /* (ECC) - load output delays */
 753:../src/platform/mpfs_hal/common/nwc/mss_ddr.c ****             CFG_DDR_SGMII_PHY->expert_dlycnt_load_reg0.expert_dlycnt_load_reg0=\
 976              		.loc 2 753 30
 977 07be 97070000 		lla	a5,CFG_DDR_SGMII_PHY
 977      93870700 
 978 07c6 9863     		ld	a4,0(a5)
 979              		.loc 2 753 79
 980 07c8 8567     		li	a5,4096
 981 07ca BA97     		add	a5,a4,a5
 982 07cc 23A60788 		sw	zero,-1908(a5)
 754:../src/platform/mpfs_hal/common/nwc/mss_ddr.c ****                     0x0;           /* clear */
 755:../src/platform/mpfs_hal/common/nwc/mss_ddr.c ****             CFG_DDR_SGMII_PHY->expert_dlycnt_load_reg1.expert_dlycnt_load_reg1=\
 983              		.loc 2 755 30
 984 07d0 97070000 		lla	a5,CFG_DDR_SGMII_PHY
 984      93870700 
 985 07d8 9863     		ld	a4,0(a5)
 986              		.loc 2 755 79
 987 07da 8567     		li	a5,4096
 988 07dc BA97     		add	a5,a4,a5
 989 07de 23A80788 		sw	zero,-1904(a5)
 756:../src/platform/mpfs_hal/common/nwc/mss_ddr.c ****                     0x0;           /* (ECC) clear */
 757:../src/platform/mpfs_hal/common/nwc/mss_ddr.c **** 
 758:../src/platform/mpfs_hal/common/nwc/mss_ddr.c ****             /* DQS
 759:../src/platform/mpfs_hal/common/nwc/mss_ddr.c ****              * dfi_wrlvl_en_shim = 1'b1 */
 760:../src/platform/mpfs_hal/common/nwc/mss_ddr.c ****             CFG_DDR_SGMII_PHY->expert_dfi_status_override_to_shim.expert_dfi_status_override_to_shi
 990              		.loc 2 760 30
 991 07e2 97070000 		lla	a5,CFG_DDR_SGMII_PHY
 991      93870700 
 992 07ea 9863     		ld	a4,0(a5)
 993              		.loc 2 760 102
 994 07ec 8567     		li	a5,4096
 995 07ee BA97     		add	a5,a4,a5
 996 07f0 1147     		li	a4,4
 997 07f2 23A6E78C 		sw	a4,-1844(a5)
 761:../src/platform/mpfs_hal/common/nwc/mss_ddr.c ****             CFG_DDR_SGMII_PHY->expert_dlycnt_load_reg0.expert_dlycnt_load_reg0=\
 998              		.loc 2 761 30
 999 07f6 97070000 		lla	a5,CFG_DDR_SGMII_PHY
 999      93870700 
 1000 07fe 9863     		ld	a4,0(a5)
 1001              		.loc 2 761 79
 1002 0800 8567     		li	a5,4096
 1003 0802 BA97     		add	a5,a4,a5
 1004 0804 7D57     		li	a4,-1
 1005 0806 23A6E788 		sw	a4,-1908(a5)
 762:../src/platform/mpfs_hal/common/nwc/mss_ddr.c ****                     0xFFFFFFFFU;   /* load output delays */
 763:../src/platform/mpfs_hal/common/nwc/mss_ddr.c ****             CFG_DDR_SGMII_PHY->expert_dlycnt_load_reg1.expert_dlycnt_load_reg1=\
 1006              		.loc 2 763 30
 1007 080a 97070000 		lla	a5,CFG_DDR_SGMII_PHY
 1007      93870700 
 1008 0812 9863     		ld	a4,0(a5)
 1009              		.loc 2 763 79
 1010 0814 8567     		li	a5,4096
 1011 0816 BA97     		add	a5,a4,a5
 1012 0818 3D47     		li	a4,15
 1013 081a 23A8E788 		sw	a4,-1904(a5)
 764:../src/platform/mpfs_hal/common/nwc/mss_ddr.c ****                     0xF;           /* (ECC) - load output delays */
 765:../src/platform/mpfs_hal/common/nwc/mss_ddr.c ****             CFG_DDR_SGMII_PHY->expert_dlycnt_load_reg0.expert_dlycnt_load_reg0=\
 1014              		.loc 2 765 30
 1015 081e 97070000 		lla	a5,CFG_DDR_SGMII_PHY
 1015      93870700 
 1016 0826 9863     		ld	a4,0(a5)
 1017              		.loc 2 765 79
 1018 0828 8567     		li	a5,4096
 1019 082a BA97     		add	a5,a4,a5
 1020 082c 23A60788 		sw	zero,-1908(a5)
 766:../src/platform/mpfs_hal/common/nwc/mss_ddr.c ****                     0x0;           /* clear */
 767:../src/platform/mpfs_hal/common/nwc/mss_ddr.c ****             CFG_DDR_SGMII_PHY->expert_dlycnt_load_reg1.expert_dlycnt_load_reg1=\
 1021              		.loc 2 767 30
 1022 0830 97070000 		lla	a5,CFG_DDR_SGMII_PHY
 1022      93870700 
 1023 0838 9863     		ld	a4,0(a5)
 1024              		.loc 2 767 79
 1025 083a 8567     		li	a5,4096
 1026 083c BA97     		add	a5,a4,a5
 1027 083e 23A80788 		sw	zero,-1904(a5)
 768:../src/platform/mpfs_hal/common/nwc/mss_ddr.c ****                     0x0;           /* (ECC) clear */
 769:../src/platform/mpfs_hal/common/nwc/mss_ddr.c **** 
 770:../src/platform/mpfs_hal/common/nwc/mss_ddr.c ****             CFG_DDR_SGMII_PHY->expert_dfi_status_override_to_shim.expert_dfi_status_override_to_shi
 1028              		.loc 2 770 30
 1029 0842 97070000 		lla	a5,CFG_DDR_SGMII_PHY
 1029      93870700 
 1030 084a 9863     		ld	a4,0(a5)
 1031              		.loc 2 770 102
 1032 084c 8567     		li	a5,4096
 1033 084e BA97     		add	a5,a4,a5
 1034 0850 23A6078C 		sw	zero,-1844(a5)
 771:../src/platform/mpfs_hal/common/nwc/mss_ddr.c **** 
 772:../src/platform/mpfs_hal/common/nwc/mss_ddr.c ****             CFG_DDR_SGMII_PHY->expert_dlycnt_pause.expert_dlycnt_pause       =\
 1035              		.loc 2 772 30
 1036 0854 97070000 		lla	a5,CFG_DDR_SGMII_PHY
 1036      93870700 
 1037 085c 9863     		ld	a4,0(a5)
 1038              		.loc 2 772 78
 1039 085e 8567     		li	a5,4096
 1040 0860 BA97     		add	a5,a4,a5
 1041 0862 1307F003 		li	a4,63
 1042 0866 23A0E78A 		sw	a4,-1888(a5)
 773:../src/platform/mpfs_hal/common/nwc/mss_ddr.c ****                     0x0000003FU;
 774:../src/platform/mpfs_hal/common/nwc/mss_ddr.c ****             CFG_DDR_SGMII_PHY->expert_dlycnt_pause.expert_dlycnt_pause       =\
 1043              		.loc 2 774 30
 1044 086a 97070000 		lla	a5,CFG_DDR_SGMII_PHY
 1044      93870700 
 1045 0872 9863     		ld	a4,0(a5)
 1046              		.loc 2 774 78
 1047 0874 8567     		li	a5,4096
 1048 0876 BA97     		add	a5,a4,a5
 1049 0878 23A0078A 		sw	zero,-1888(a5)
 775:../src/platform/mpfs_hal/common/nwc/mss_ddr.c ****                     0x00000000U;
 776:../src/platform/mpfs_hal/common/nwc/mss_ddr.c **** 
 777:../src/platform/mpfs_hal/common/nwc/mss_ddr.c ****             /* expert mode disabling */
 778:../src/platform/mpfs_hal/common/nwc/mss_ddr.c ****             CFG_DDR_SGMII_PHY->expert_mode_en.expert_mode_en                 =\
 1050              		.loc 2 778 30
 1051 087c 97070000 		lla	a5,CFG_DDR_SGMII_PHY
 1051      93870700 
 1052 0884 9863     		ld	a4,0(a5)
 1053              		.loc 2 778 78
 1054 0886 8567     		li	a5,4096
 1055 0888 BA97     		add	a5,a4,a5
 1056 088a 23AC0786 		sw	zero,-1928(a5)
 779:../src/platform/mpfs_hal/common/nwc/mss_ddr.c ****                     0x00000000U;
 780:../src/platform/mpfs_hal/common/nwc/mss_ddr.c ****             ddr_training_state = DDR_TRAINING_SET_TRAINING_PARAMETERS;
 1057              		.loc 2 780 32
 1058 088e 97070000 		lla	a5,ddr_training_state.14230
 1058      93870700 
 1059 0896 4147     		li	a4,16
 1060 0898 98C3     		sw	a4,0(a5)
 781:../src/platform/mpfs_hal/common/nwc/mss_ddr.c ****             break;
 1061              		.loc 2 781 13
 1062 089a 6F10B055 		j	.L69
 1063              	.L54:
 782:../src/platform/mpfs_hal/common/nwc/mss_ddr.c ****         case DDR_TRAINING_SET_TRAINING_PARAMETERS:
 783:../src/platform/mpfs_hal/common/nwc/mss_ddr.c ****             /*
 784:../src/platform/mpfs_hal/common/nwc/mss_ddr.c ****              * SET TRAINING PARAMETERS
 785:../src/platform/mpfs_hal/common/nwc/mss_ddr.c ****              *
 786:../src/platform/mpfs_hal/common/nwc/mss_ddr.c ****              * TIP STATIC PARAMETERS 0
 787:../src/platform/mpfs_hal/common/nwc/mss_ddr.c ****              *
 788:../src/platform/mpfs_hal/common/nwc/mss_ddr.c ****              *  30:22   Number of VCO Phase offsets between BCLK and SCLK
 789:../src/platform/mpfs_hal/common/nwc/mss_ddr.c ****              *  21:13   Number of VCO Phase offsets between BCLK and SCLK
 790:../src/platform/mpfs_hal/common/nwc/mss_ddr.c ****              *  12:6    Number of VCO Phase offsets between BCLK and SCLK
 791:../src/platform/mpfs_hal/common/nwc/mss_ddr.c ****              *  5:3     Number of VCO Phase offsets between BCLK and SCLK
 792:../src/platform/mpfs_hal/common/nwc/mss_ddr.c ****              *  2:0  Number of VCO Phase offsets between REFCLK and ADDCMD bits
 793:../src/platform/mpfs_hal/common/nwc/mss_ddr.c ****              */
 794:../src/platform/mpfs_hal/common/nwc/mss_ddr.c ****             {
 795:../src/platform/mpfs_hal/common/nwc/mss_ddr.c **** #ifdef DEBUG_DDR_INIT
 796:../src/platform/mpfs_hal/common/nwc/mss_ddr.c ****                 (void)uprint32(g_debug_uart, "\n\r tip_cfg_params: ",\
 797:../src/platform/mpfs_hal/common/nwc/mss_ddr.c ****                                                                 tip_cfg_params);
 798:../src/platform/mpfs_hal/common/nwc/mss_ddr.c **** #endif
 799:../src/platform/mpfs_hal/common/nwc/mss_ddr.c **** 
 800:../src/platform/mpfs_hal/common/nwc/mss_ddr.c ****                 CFG_DDR_SGMII_PHY->tip_cfg_params.tip_cfg_params =\
 1064              		.loc 2 800 34
 1065 089e 97070000 		lla	a5,CFG_DDR_SGMII_PHY
 1065      93870700 
 1066 08a6 9463     		ld	a3,0(a5)
 1067              		.loc 2 800 66
 1068 08a8 97070000 		lla	a5,tip_cfg_params.14235
 1068      93870700 
 1069 08b0 9843     		lw	a4,0(a5)
 1070 08b2 8567     		li	a5,4096
 1071 08b4 B697     		add	a5,a3,a5
 1072 08b6 23A8E78C 		sw	a4,-1840(a5)
 801:../src/platform/mpfs_hal/common/nwc/mss_ddr.c ****                                                                 tip_cfg_params;
 802:../src/platform/mpfs_hal/common/nwc/mss_ddr.c ****                 timeout = 0xFFFF;
 1073              		.loc 2 802 25
 1074 08ba 97070000 		lla	a5,timeout.14232
 1074      93870700 
 1075 08c2 4167     		li	a4,65536
 1076 08c4 7D17     		addi	a4,a4,-1
 1077 08c6 98C3     		sw	a4,0(a5)
 803:../src/platform/mpfs_hal/common/nwc/mss_ddr.c **** 
 804:../src/platform/mpfs_hal/common/nwc/mss_ddr.c ****                 if(use_software_bclk_sclk_training(ddr_type) == 1U)
 1078              		.loc 2 804 20
 1079 08c8 8327C4F7 		lw	a5,-132(s0)
 1080 08cc 3E85     		mv	a0,a5
 1081 08ce 97000000 		call	use_software_bclk_sclk_training
 1081      E7800000 
 1082 08d6 AA87     		mv	a5,a0
 1083              		.loc 2 804 19
 1084 08d8 3E87     		mv	a4,a5
 1085 08da 8547     		li	a5,1
 1086 08dc 631AF700 		bne	a4,a5,.L80
 805:../src/platform/mpfs_hal/common/nwc/mss_ddr.c ****                 {
 806:../src/platform/mpfs_hal/common/nwc/mss_ddr.c ****                     /*
 807:../src/platform/mpfs_hal/common/nwc/mss_ddr.c ****                      * Initiate software training
 808:../src/platform/mpfs_hal/common/nwc/mss_ddr.c ****                      */
 809:../src/platform/mpfs_hal/common/nwc/mss_ddr.c **** #ifdef     SOFT_RESET_PRE_TAG_172
 810:../src/platform/mpfs_hal/common/nwc/mss_ddr.c ****                     DDRCFG->MC_BASE2.CTRLR_SOFT_RESET_N.CTRLR_SOFT_RESET_N  =\
 811:../src/platform/mpfs_hal/common/nwc/mss_ddr.c ****                                                                     0x00000001U;
 812:../src/platform/mpfs_hal/common/nwc/mss_ddr.c **** #endif
 813:../src/platform/mpfs_hal/common/nwc/mss_ddr.c ****                     ddr_training_state = DDR_TRAINING_IP_SM_BCLKSCLK_SW;
 1087              		.loc 2 813 40
 1088 08e0 97070000 		lla	a5,ddr_training_state.14230
 1088      93870700 
 1089 08e8 4547     		li	a4,17
 1090 08ea 98C3     		sw	a4,0(a5)
 814:../src/platform/mpfs_hal/common/nwc/mss_ddr.c ****                 }
 815:../src/platform/mpfs_hal/common/nwc/mss_ddr.c ****                 else
 816:../src/platform/mpfs_hal/common/nwc/mss_ddr.c ****                 {
 817:../src/platform/mpfs_hal/common/nwc/mss_ddr.c ****                     /*
 818:../src/platform/mpfs_hal/common/nwc/mss_ddr.c ****                      * Initiate IP training and wait for dfi_init_complete
 819:../src/platform/mpfs_hal/common/nwc/mss_ddr.c ****                      */
 820:../src/platform/mpfs_hal/common/nwc/mss_ddr.c ****                     /*asserting training_reset */
 821:../src/platform/mpfs_hal/common/nwc/mss_ddr.c ****                     if (!((ddr_type == DDR3)||(ddr_type == DDR3L)))
 822:../src/platform/mpfs_hal/common/nwc/mss_ddr.c ****                     {
 823:../src/platform/mpfs_hal/common/nwc/mss_ddr.c ****                         CFG_DDR_SGMII_PHY->training_reset.training_reset =\
 824:../src/platform/mpfs_hal/common/nwc/mss_ddr.c ****                             0x00000000U;
 825:../src/platform/mpfs_hal/common/nwc/mss_ddr.c ****                     }
 826:../src/platform/mpfs_hal/common/nwc/mss_ddr.c ****                     else
 827:../src/platform/mpfs_hal/common/nwc/mss_ddr.c ****                     {
 828:../src/platform/mpfs_hal/common/nwc/mss_ddr.c ****                         DDRCFG->MC_BASE2.CTRLR_SOFT_RESET_N.CTRLR_SOFT_RESET_N  =\
 829:../src/platform/mpfs_hal/common/nwc/mss_ddr.c ****                                                                    0x00000001U;
 830:../src/platform/mpfs_hal/common/nwc/mss_ddr.c ****                     }
 831:../src/platform/mpfs_hal/common/nwc/mss_ddr.c ****                     ddr_training_state = DDR_TRAINING_IP_SM_START;
 832:../src/platform/mpfs_hal/common/nwc/mss_ddr.c ****                 }
 833:../src/platform/mpfs_hal/common/nwc/mss_ddr.c ****             }
 834:../src/platform/mpfs_hal/common/nwc/mss_ddr.c ****             break;
 1091              		.loc 2 834 13
 1092 08ec 6F109050 		j	.L69
 1093              	.L80:
 821:../src/platform/mpfs_hal/common/nwc/mss_ddr.c ****                     {
 1094              		.loc 2 821 24
 1095 08f0 8327C4F7 		lw	a5,-132(s0)
 1096 08f4 8127     		sext.w	a5,a5
 1097 08f6 95C3     		beq	a5,zero,.L82
 821:../src/platform/mpfs_hal/common/nwc/mss_ddr.c ****                     {
 1098              		.loc 2 821 25 discriminator 1
 1099 08f8 8327C4F7 		lw	a5,-132(s0)
 1100 08fc 1B870700 		sext.w	a4,a5
 1101 0900 8547     		li	a5,1
 1102 0902 630CF700 		beq	a4,a5,.L82
 823:../src/platform/mpfs_hal/common/nwc/mss_ddr.c ****                             0x00000000U;
 1103              		.loc 2 823 42
 1104 0906 97070000 		lla	a5,CFG_DDR_SGMII_PHY
 1104      93870700 
 1105 090e 9863     		ld	a4,0(a5)
 823:../src/platform/mpfs_hal/common/nwc/mss_ddr.c ****                             0x00000000U;
 1106              		.loc 2 823 74
 1107 0910 8567     		li	a5,4096
 1108 0912 BA97     		add	a5,a4,a5
 1109 0914 23AC0780 		sw	zero,-2024(a5)
 1110 0918 11A8     		j	.L83
 1111              	.L82:
 828:../src/platform/mpfs_hal/common/nwc/mss_ddr.c ****                                                                    0x00000001U;
 1112              		.loc 2 828 31
 1113 091a 97070000 		lla	a5,DDRCFG
 1113      93870700 
 1114 0922 9863     		ld	a4,0(a5)
 828:../src/platform/mpfs_hal/common/nwc/mss_ddr.c ****                                                                    0x00000001U;
 1115              		.loc 2 828 81
 1116 0924 9167     		li	a5,16384
 1117 0926 BA97     		add	a5,a4,a5
 1118 0928 0547     		li	a4,1
 1119 092a 98C3     		sw	a4,0(a5)
 1120              	.L83:
 831:../src/platform/mpfs_hal/common/nwc/mss_ddr.c ****                 }
 1121              		.loc 2 831 40
 1122 092c 97070000 		lla	a5,ddr_training_state.14230
 1122      93870700 
 1123 0934 4D47     		li	a4,19
 1124 0936 98C3     		sw	a4,0(a5)
 1125              		.loc 2 834 13
 1126 0938 6F10D04B 		j	.L69
 1127              	.L53:
 1128              	.LBB6:
 835:../src/platform/mpfs_hal/common/nwc/mss_ddr.c **** 
 836:../src/platform/mpfs_hal/common/nwc/mss_ddr.c ****         case DDR_TRAINING_IP_SM_BCLKSCLK_SW:
 837:../src/platform/mpfs_hal/common/nwc/mss_ddr.c ****             /*
 838:../src/platform/mpfs_hal/common/nwc/mss_ddr.c ****              * We have chosen to use software bclk sclk sweep instead of IP
 839:../src/platform/mpfs_hal/common/nwc/mss_ddr.c ****              */
 840:../src/platform/mpfs_hal/common/nwc/mss_ddr.c ****              
 841:../src/platform/mpfs_hal/common/nwc/mss_ddr.c ****             {
 842:../src/platform/mpfs_hal/common/nwc/mss_ddr.c ****                 uint32_t bclk_phase, bclk90_phase,refclk_phase;
 843:../src/platform/mpfs_hal/common/nwc/mss_ddr.c ****                 bclk_answer = 0U;
 1129              		.loc 2 843 29
 1130 093c 97070000 		lla	a5,bclk_answer.14241
 1130      93870700 
 1131 0944 23A00700 		sw	zero,0(a5)
 1132              	.LBB7:
 844:../src/platform/mpfs_hal/common/nwc/mss_ddr.c ****                 {
 845:../src/platform/mpfs_hal/common/nwc/mss_ddr.c ****                     /*
 846:../src/platform/mpfs_hal/common/nwc/mss_ddr.c ****                      * BEGIN MANUAL BCLKSCLK TRAINING
 847:../src/platform/mpfs_hal/common/nwc/mss_ddr.c ****                      */
 848:../src/platform/mpfs_hal/common/nwc/mss_ddr.c ****                     uint32_t rx_previous=0x3U;
 1133              		.loc 2 848 30
 1134 0948 8D47     		li	a5,3
 1135 094a 232EF4FC 		sw	a5,-36(s0)
 849:../src/platform/mpfs_hal/common/nwc/mss_ddr.c ****                     uint32_t rx_current=0U;
 1136              		.loc 2 849 30
 1137 094e 232604F6 		sw	zero,-148(s0)
 850:../src/platform/mpfs_hal/common/nwc/mss_ddr.c ****                     uint32_t answer_count[8U]={0U,0U,0U,0U,0U,0U,0U,0U};
 1138              		.loc 2 850 30
 1139 0952 232404F0 		sw	zero,-248(s0)
 1140 0956 232604F0 		sw	zero,-244(s0)
 1141 095a 232804F0 		sw	zero,-240(s0)
 1142 095e 232A04F0 		sw	zero,-236(s0)
 1143 0962 232C04F0 		sw	zero,-232(s0)
 1144 0966 232E04F0 		sw	zero,-228(s0)
 1145 096a 232004F2 		sw	zero,-224(s0)
 1146 096e 232204F2 		sw	zero,-220(s0)
 851:../src/platform/mpfs_hal/common/nwc/mss_ddr.c ****                     uint32_t answer_index=0U;
 1147              		.loc 2 851 30
 1148 0972 232404F6 		sw	zero,-152(s0)
 1149              	.LBB8:
 852:../src/platform/mpfs_hal/common/nwc/mss_ddr.c **** 
 853:../src/platform/mpfs_hal/common/nwc/mss_ddr.c ****                     /*UPPER LIMIT MUST BE MULTIPLE OF 8 */
 854:../src/platform/mpfs_hal/common/nwc/mss_ddr.c ****                     for (uint32_t i=0U; i<(8U * 100); i++)
 1150              		.loc 2 854 35
 1151 0976 232C04FC 		sw	zero,-40(s0)
 1152              		.loc 2 854 21
 1153 097a 8DAA     		j	.L84
 1154              	.L89:
 1155              	.LBB9:
 855:../src/platform/mpfs_hal/common/nwc/mss_ddr.c ****                     {
 856:../src/platform/mpfs_hal/common/nwc/mss_ddr.c **** 
 857:../src/platform/mpfs_hal/common/nwc/mss_ddr.c ****                         bclk_phase   = ( i    & 0x07UL ) << 8U;
 1156              		.loc 2 857 58
 1157 097c 832784FD 		lw	a5,-40(s0)
 1158 0980 9B978700 		slliw	a5,a5,8
 1159 0984 8127     		sext.w	a5,a5
 1160 0986 93F70770 		andi	a5,a5,1792
 1161 098a 8127     		sext.w	a5,a5
 1162              		.loc 2 857 38
 1163 098c 232AF4F2 		sw	a5,-204(s0)
 858:../src/platform/mpfs_hal/common/nwc/mss_ddr.c ****                         bclk90_phase = ((i+2U) & 0x07UL ) << 11U;
 1164              		.loc 2 858 43
 1165 0990 832784FD 		lw	a5,-40(s0)
 1166 0994 8927     		addiw	a5,a5,2
 1167 0996 8127     		sext.w	a5,a5
 1168              		.loc 2 858 59
 1169 0998 9B97B700 		slliw	a5,a5,11
 1170 099c 8127     		sext.w	a5,a5
 1171 099e 3E87     		mv	a4,a5
 1172 09a0 9167     		li	a5,16384
 1173 09a2 93870780 		addi	a5,a5,-2048
 1174 09a6 F98F     		and	a5,a4,a5
 1175 09a8 8127     		sext.w	a5,a5
 1176              		.loc 2 858 38
 1177 09aa 2328F4F2 		sw	a5,-208(s0)
 859:../src/platform/mpfs_hal/common/nwc/mss_ddr.c ****                         /*
 860:../src/platform/mpfs_hal/common/nwc/mss_ddr.c ****                          * LOAD BCLK90 PHASE
 861:../src/platform/mpfs_hal/common/nwc/mss_ddr.c ****                          */
 862:../src/platform/mpfs_hal/common/nwc/mss_ddr.c ****                         MSS_SCB_DDR_PLL->PLL_PHADJ = (0x00004003UL | bclk_phase | bclk90_phase);
 1178              		.loc 2 862 52
 1179 09ae 032744F3 		lw	a4,-204(s0)
 1180 09b2 832704F3 		lw	a5,-208(s0)
 1181 09b6 D98F     		or	a5,a4,a5
 1182 09b8 1B870700 		sext.w	a4,a5
 1183              		.loc 2 862 40
 1184 09bc 97070000 		lla	a5,MSS_SCB_DDR_PLL
 1184      93870700 
 1185 09c4 9C63     		ld	a5,0(a5)
 1186              		.loc 2 862 52
 1187 09c6 BA86     		mv	a3,a4
 1188 09c8 1167     		li	a4,16384
 1189 09ca 0D07     		addi	a4,a4,3
 1190 09cc 558F     		or	a4,a3,a4
 1191 09ce 0127     		sext.w	a4,a4
 1192 09d0 98D3     		sw	a4,32(a5)
 863:../src/platform/mpfs_hal/common/nwc/mss_ddr.c ****                         MSS_SCB_DDR_PLL->PLL_PHADJ = (0x00000003UL | bclk_phase | bclk90_phase);
 1193              		.loc 2 863 52
 1194 09d2 032744F3 		lw	a4,-204(s0)
 1195 09d6 832704F3 		lw	a5,-208(s0)
 1196 09da D98F     		or	a5,a4,a5
 1197 09dc 1B870700 		sext.w	a4,a5
 1198              		.loc 2 863 40
 1199 09e0 97070000 		lla	a5,MSS_SCB_DDR_PLL
 1199      93870700 
 1200 09e8 9C63     		ld	a5,0(a5)
 1201              		.loc 2 863 52
 1202 09ea 13673700 		ori	a4,a4,3
 1203 09ee 0127     		sext.w	a4,a4
 1204 09f0 98D3     		sw	a4,32(a5)
 864:../src/platform/mpfs_hal/common/nwc/mss_ddr.c ****                         MSS_SCB_DDR_PLL->PLL_PHADJ = (0x00004003UL | bclk_phase | bclk90_phase);
 1205              		.loc 2 864 52
 1206 09f2 032744F3 		lw	a4,-204(s0)
 1207 09f6 832704F3 		lw	a5,-208(s0)
 1208 09fa D98F     		or	a5,a4,a5
 1209 09fc 1B870700 		sext.w	a4,a5
 1210              		.loc 2 864 40
 1211 0a00 97070000 		lla	a5,MSS_SCB_DDR_PLL
 1211      93870700 
 1212 0a08 9C63     		ld	a5,0(a5)
 1213              		.loc 2 864 52
 1214 0a0a BA86     		mv	a3,a4
 1215 0a0c 1167     		li	a4,16384
 1216 0a0e 0D07     		addi	a4,a4,3
 1217 0a10 558F     		or	a4,a3,a4
 1218 0a12 0127     		sext.w	a4,a4
 1219 0a14 98D3     		sw	a4,32(a5)
 865:../src/platform/mpfs_hal/common/nwc/mss_ddr.c **** 
 866:../src/platform/mpfs_hal/common/nwc/mss_ddr.c ****                         /*
 867:../src/platform/mpfs_hal/common/nwc/mss_ddr.c ****                         * No pause required, causes an issue
 868:../src/platform/mpfs_hal/common/nwc/mss_ddr.c ****                         */
 869:../src/platform/mpfs_hal/common/nwc/mss_ddr.c **** 
 870:../src/platform/mpfs_hal/common/nwc/mss_ddr.c ****                         /*
 871:../src/platform/mpfs_hal/common/nwc/mss_ddr.c ****                         * SAMPLE RX_BCLK
 872:../src/platform/mpfs_hal/common/nwc/mss_ddr.c ****                         */
 873:../src/platform/mpfs_hal/common/nwc/mss_ddr.c ****                         rx_current = ((CFG_DDR_SGMII_PHY->expert_addcmd_ln_readback.expert_addcmd_l
 1220              		.loc 2 873 57
 1221 0a16 97070000 		lla	a5,CFG_DDR_SGMII_PHY
 1221      93870700 
 1222 0a1e 9863     		ld	a4,0(a5)
 1223              		.loc 2 873 84
 1224 0a20 8567     		li	a5,4096
 1225 0a22 BA97     		add	a5,a4,a5
 1226 0a24 83A7C78A 		lw	a5,-1876(a5)
 1227 0a28 8127     		sext.w	a5,a5
 1228              		.loc 2 873 112
 1229 0a2a 9BD7C700 		srliw	a5,a5,12
 1230 0a2e 8127     		sext.w	a5,a5
 1231              		.loc 2 873 36
 1232 0a30 8D8B     		andi	a5,a5,3
 1233 0a32 2326F4F6 		sw	a5,-148(s0)
 874:../src/platform/mpfs_hal/common/nwc/mss_ddr.c ****                         /* IF WE FOUND A TRANSITION, BREAK THE LOOP */
 875:../src/platform/mpfs_hal/common/nwc/mss_ddr.c ****                         if ((rx_current & (~rx_previous)) != 0x00000000UL)
 1234              		.loc 2 875 44
 1235 0a36 8327C4FD 		lw	a5,-36(s0)
 1236 0a3a 93C7F7FF 		not	a5,a5
 1237 0a3e 1B870700 		sext.w	a4,a5
 1238              		.loc 2 875 41
 1239 0a42 8327C4F6 		lw	a5,-148(s0)
 1240 0a46 F98F     		and	a5,a5,a4
 1241 0a48 8127     		sext.w	a5,a5
 1242              		.loc 2 875 28
 1243 0a4a 8DCB     		beq	a5,zero,.L85
 876:../src/platform/mpfs_hal/common/nwc/mss_ddr.c ****                         {
 877:../src/platform/mpfs_hal/common/nwc/mss_ddr.c ****                             answer_index=i&0x07U;
 1244              		.loc 2 877 41
 1245 0a4c 832784FD 		lw	a5,-40(s0)
 1246 0a50 9D8B     		andi	a5,a5,7
 1247 0a52 2324F4F6 		sw	a5,-152(s0)
 878:../src/platform/mpfs_hal/common/nwc/mss_ddr.c ****                             /* increment the answer count for this index */
 879:../src/platform/mpfs_hal/common/nwc/mss_ddr.c ****                             answer_count[answer_index]++;
 1248              		.loc 2 879 41
 1249 0a56 836784F6 		lwu	a5,-152(s0)
 1250 0a5a 8A07     		slli	a5,a5,2
 1251 0a5c 130704FF 		addi	a4,s0,-16
 1252 0a60 BA97     		add	a5,a4,a5
 1253 0a62 83A787F1 		lw	a5,-232(a5)
 1254              		.loc 2 879 55
 1255 0a66 8527     		addiw	a5,a5,1
 1256 0a68 1B870700 		sext.w	a4,a5
 1257 0a6c 836784F6 		lwu	a5,-152(s0)
 1258 0a70 8A07     		slli	a5,a5,2
 1259 0a72 930604FF 		addi	a3,s0,-16
 1260 0a76 B697     		add	a5,a3,a5
 1261 0a78 23ACE7F0 		sw	a4,-232(a5)
 1262              	.L85:
 880:../src/platform/mpfs_hal/common/nwc/mss_ddr.c ****                         }
 881:../src/platform/mpfs_hal/common/nwc/mss_ddr.c **** 
 882:../src/platform/mpfs_hal/common/nwc/mss_ddr.c ****                         rx_previous = rx_current;
 1263              		.loc 2 882 37
 1264 0a7c 8327C4F6 		lw	a5,-148(s0)
 1265 0a80 232EF4FC 		sw	a5,-36(s0)
 883:../src/platform/mpfs_hal/common/nwc/mss_ddr.c ****                         uint32_t max=0U;
 1266              		.loc 2 883 34
 1267 0a84 232604FE 		sw	zero,-20(s0)
 1268              	.LBB10:
 884:../src/platform/mpfs_hal/common/nwc/mss_ddr.c ****                         for (uint32_t j=0U;j<8U;j++)
 1269              		.loc 2 884 39
 1270 0a88 232404FE 		sw	zero,-24(s0)
 1271              		.loc 2 884 25
 1272 0a8c A1A0     		j	.L86
 1273              	.L88:
 885:../src/platform/mpfs_hal/common/nwc/mss_ddr.c ****                         {
 886:../src/platform/mpfs_hal/common/nwc/mss_ddr.c ****                             /* sweep through found answers and select the most common */
 887:../src/platform/mpfs_hal/common/nwc/mss_ddr.c ****                             if (answer_count[j] > max)
 1274              		.loc 2 887 45
 1275 0a8e 836784FE 		lwu	a5,-24(s0)
 1276 0a92 8A07     		slli	a5,a5,2
 1277 0a94 130704FF 		addi	a4,s0,-16
 1278 0a98 BA97     		add	a5,a4,a5
 1279 0a9a 03A787F1 		lw	a4,-232(a5)
 1280              		.loc 2 887 32
 1281 0a9e 8327C4FE 		lw	a5,-20(s0)
 1282 0aa2 8127     		sext.w	a5,a5
 1283 0aa4 63F3E702 		bgeu	a5,a4,.L87
 888:../src/platform/mpfs_hal/common/nwc/mss_ddr.c ****                             {
 889:../src/platform/mpfs_hal/common/nwc/mss_ddr.c ****                                 bclk_answer = j;
 1284              		.loc 2 889 45
 1285 0aa8 97070000 		lla	a5,bclk_answer.14241
 1285      93870700 
 1286 0ab0 032784FE 		lw	a4,-24(s0)
 1287 0ab4 98C3     		sw	a4,0(a5)
 890:../src/platform/mpfs_hal/common/nwc/mss_ddr.c ****                                 max=answer_count[j];
 1288              		.loc 2 890 36
 1289 0ab6 836784FE 		lwu	a5,-24(s0)
 1290 0aba 8A07     		slli	a5,a5,2
 1291 0abc 130704FF 		addi	a4,s0,-16
 1292 0ac0 BA97     		add	a5,a4,a5
 1293 0ac2 83A787F1 		lw	a5,-232(a5)
 1294 0ac6 2326F4FE 		sw	a5,-20(s0)
 1295              	.L87:
 884:../src/platform/mpfs_hal/common/nwc/mss_ddr.c ****                         {
 1296              		.loc 2 884 50 discriminator 2
 1297 0aca 832784FE 		lw	a5,-24(s0)
 1298 0ace 8527     		addiw	a5,a5,1
 1299 0ad0 2324F4FE 		sw	a5,-24(s0)
 1300              	.L86:
 884:../src/platform/mpfs_hal/common/nwc/mss_ddr.c ****                         {
 1301              		.loc 2 884 25 discriminator 1
 1302 0ad4 832784FE 		lw	a5,-24(s0)
 1303 0ad8 1B870700 		sext.w	a4,a5
 1304 0adc 9D47     		li	a5,7
 1305 0ade E3F8E7FA 		bleu	a4,a5,.L88
 1306              	.LBE10:
 1307              	.LBE9:
 854:../src/platform/mpfs_hal/common/nwc/mss_ddr.c ****                     {
 1308              		.loc 2 854 56 discriminator 2
 1309 0ae2 832784FD 		lw	a5,-40(s0)
 1310 0ae6 8527     		addiw	a5,a5,1
 1311 0ae8 232CF4FC 		sw	a5,-40(s0)
 1312              	.L84:
 854:../src/platform/mpfs_hal/common/nwc/mss_ddr.c ****                     {
 1313              		.loc 2 854 21 discriminator 1
 1314 0aec 832784FD 		lw	a5,-40(s0)
 1315 0af0 1B870700 		sext.w	a4,a5
 1316 0af4 9307F031 		li	a5,799
 1317 0af8 E3F2E7E8 		bleu	a4,a5,.L89
 1318              	.LBE8:
 1319              	.LBE7:
 891:../src/platform/mpfs_hal/common/nwc/mss_ddr.c ****                             }
 892:../src/platform/mpfs_hal/common/nwc/mss_ddr.c ****                         }
 893:../src/platform/mpfs_hal/common/nwc/mss_ddr.c ****                     }
 894:../src/platform/mpfs_hal/common/nwc/mss_ddr.c ****                 }
 895:../src/platform/mpfs_hal/common/nwc/mss_ddr.c ****                 ddr_training_state = DDR_MANUAL_ADDCMD_TRAINING_SW;
 1320              		.loc 2 895 36
 1321 0afc 97070000 		lla	a5,ddr_training_state.14230
 1321      93870700 
 1322 0b04 4947     		li	a4,18
 1323 0b06 98C3     		sw	a4,0(a5)
 1324 0b08 6F10D02E 		j	.L69
 1325              	.L52:
 1326              	.LBB11:
 896:../src/platform/mpfs_hal/common/nwc/mss_ddr.c ****                 break;
 897:../src/platform/mpfs_hal/common/nwc/mss_ddr.c **** 
 898:../src/platform/mpfs_hal/common/nwc/mss_ddr.c ****           case DDR_MANUAL_ADDCMD_TRAINING_SW:
 899:../src/platform/mpfs_hal/common/nwc/mss_ddr.c ****                 {
 900:../src/platform/mpfs_hal/common/nwc/mss_ddr.c ****                     /*
 901:../src/platform/mpfs_hal/common/nwc/mss_ddr.c ****                      * APPLY OFFSET & LOAD THE PHASE
 902:../src/platform/mpfs_hal/common/nwc/mss_ddr.c ****                      * bclk_sclk_offset_value
 903:../src/platform/mpfs_hal/common/nwc/mss_ddr.c ****                      * BCLK_SCLK_OFFSET_BASE
 904:../src/platform/mpfs_hal/common/nwc/mss_ddr.c ****                      */
 905:../src/platform/mpfs_hal/common/nwc/mss_ddr.c ****                     {
 906:../src/platform/mpfs_hal/common/nwc/mss_ddr.c ****                         bclk_phase = ((bclk_answer+bclk_sclk_offset(ddr_type))    & 0x07UL ) << 8U;
 1327              		.loc 2 906 52
 1328 0b0c 8327C4F7 		lw	a5,-132(s0)
 1329 0b10 3E85     		mv	a0,a5
 1330 0b12 97000000 		call	bclk_sclk_offset
 1330      E7800000 
 1331 0b1a AA87     		mv	a5,a0
 1332 0b1c 1B870700 		sext.w	a4,a5
 1333              		.loc 2 906 51
 1334 0b20 97070000 		lla	a5,bclk_answer.14241
 1334      93870700 
 1335 0b28 9C43     		lw	a5,0(a5)
 1336 0b2a B99F     		addw	a5,a4,a5
 1337 0b2c 8127     		sext.w	a5,a5
 1338              		.loc 2 906 94
 1339 0b2e 9B978700 		slliw	a5,a5,8
 1340 0b32 8127     		sext.w	a5,a5
 1341 0b34 93F70770 		andi	a5,a5,1792
 1342 0b38 8127     		sext.w	a5,a5
 1343              		.loc 2 906 36
 1344 0b3a 232AF4F2 		sw	a5,-204(s0)
 907:../src/platform/mpfs_hal/common/nwc/mss_ddr.c ****                         bclk90_phase=((bclk_answer+bclk_sclk_offset(ddr_type)+2U)  & 0x07UL ) << 11
 1345              		.loc 2 907 52
 1346 0b3e 8327C4F7 		lw	a5,-132(s0)
 1347 0b42 3E85     		mv	a0,a5
 1348 0b44 97000000 		call	bclk_sclk_offset
 1348      E7800000 
 1349 0b4c AA87     		mv	a5,a0
 1350 0b4e 1B870700 		sext.w	a4,a5
 1351              		.loc 2 907 51
 1352 0b52 97070000 		lla	a5,bclk_answer.14241
 1352      93870700 
 1353 0b5a 9C43     		lw	a5,0(a5)
 1354 0b5c B99F     		addw	a5,a4,a5
 1355 0b5e 8127     		sext.w	a5,a5
 1356              		.loc 2 907 78
 1357 0b60 8927     		addiw	a5,a5,2
 1358 0b62 8127     		sext.w	a5,a5
 1359              		.loc 2 907 95
 1360 0b64 9B97B700 		slliw	a5,a5,11
 1361 0b68 8127     		sext.w	a5,a5
 1362 0b6a 3E87     		mv	a4,a5
 1363 0b6c 9167     		li	a5,16384
 1364 0b6e 93870780 		addi	a5,a5,-2048
 1365 0b72 F98F     		and	a5,a4,a5
 1366 0b74 8127     		sext.w	a5,a5
 1367              		.loc 2 907 37
 1368 0b76 2328F4F2 		sw	a5,-208(s0)
 908:../src/platform/mpfs_hal/common/nwc/mss_ddr.c ****                         MSS_SCB_DDR_PLL->PLL_PHADJ      = (0x00004003UL | bclk_phase | bclk90_phase
 1369              		.loc 2 908 57
 1370 0b7a 032744F3 		lw	a4,-204(s0)
 1371 0b7e 832704F3 		lw	a5,-208(s0)
 1372 0b82 D98F     		or	a5,a4,a5
 1373 0b84 1B870700 		sext.w	a4,a5
 1374              		.loc 2 908 40
 1375 0b88 97070000 		lla	a5,MSS_SCB_DDR_PLL
 1375      93870700 
 1376 0b90 9C63     		ld	a5,0(a5)
 1377              		.loc 2 908 57
 1378 0b92 BA86     		mv	a3,a4
 1379 0b94 1167     		li	a4,16384
 1380 0b96 0D07     		addi	a4,a4,3
 1381 0b98 558F     		or	a4,a3,a4
 1382 0b9a 0127     		sext.w	a4,a4
 1383 0b9c 98D3     		sw	a4,32(a5)
 909:../src/platform/mpfs_hal/common/nwc/mss_ddr.c ****                         MSS_SCB_DDR_PLL->PLL_PHADJ      = (0x00000003UL | bclk_phase | bclk90_phase
 1384              		.loc 2 909 57
 1385 0b9e 032744F3 		lw	a4,-204(s0)
 1386 0ba2 832704F3 		lw	a5,-208(s0)
 1387 0ba6 D98F     		or	a5,a4,a5
 1388 0ba8 1B870700 		sext.w	a4,a5
 1389              		.loc 2 909 40
 1390 0bac 97070000 		lla	a5,MSS_SCB_DDR_PLL
 1390      93870700 
 1391 0bb4 9C63     		ld	a5,0(a5)
 1392              		.loc 2 909 57
 1393 0bb6 13673700 		ori	a4,a4,3
 1394 0bba 0127     		sext.w	a4,a4
 1395 0bbc 98D3     		sw	a4,32(a5)
 910:../src/platform/mpfs_hal/common/nwc/mss_ddr.c ****                         MSS_SCB_DDR_PLL->PLL_PHADJ      = (0x00004003UL | bclk_phase | bclk90_phase
 1396              		.loc 2 910 57
 1397 0bbe 032744F3 		lw	a4,-204(s0)
 1398 0bc2 832704F3 		lw	a5,-208(s0)
 1399 0bc6 D98F     		or	a5,a4,a5
 1400 0bc8 1B870700 		sext.w	a4,a5
 1401              		.loc 2 910 40
 1402 0bcc 97070000 		lla	a5,MSS_SCB_DDR_PLL
 1402      93870700 
 1403 0bd4 9C63     		ld	a5,0(a5)
 1404              		.loc 2 910 57
 1405 0bd6 BA86     		mv	a3,a4
 1406 0bd8 1167     		li	a4,16384
 1407 0bda 0D07     		addi	a4,a4,3
 1408 0bdc 558F     		or	a4,a3,a4
 1409 0bde 0127     		sext.w	a4,a4
 1410 0be0 98D3     		sw	a4,32(a5)
 911:../src/platform/mpfs_hal/common/nwc/mss_ddr.c **** 
 912:../src/platform/mpfs_hal/common/nwc/mss_ddr.c ****                     }
 913:../src/platform/mpfs_hal/common/nwc/mss_ddr.c **** #ifdef DEBUG_DDR_INIT
 914:../src/platform/mpfs_hal/common/nwc/mss_ddr.c ****                     (void)uprint32(g_debug_uart,  "\n\r bclk_phase ", bclk_phase);
 915:../src/platform/mpfs_hal/common/nwc/mss_ddr.c ****                     (void)uprint32(g_debug_uart,  "\n\r bclk_sclk_offset value ", bclk_sclk_offset(
 916:../src/platform/mpfs_hal/common/nwc/mss_ddr.c **** #endif
 917:../src/platform/mpfs_hal/common/nwc/mss_ddr.c ****                     /* SET Store DRV & VREF initial values (to be re-applied after CA training) */
 918:../src/platform/mpfs_hal/common/nwc/mss_ddr.c ****                     uint32_t ca_drv=CFG_DDR_SGMII_PHY->rpc1_DRV.rpc1_DRV;
 1411              		.loc 2 918 54
 1412 0be2 97070000 		lla	a5,CFG_DDR_SGMII_PHY
 1412      93870700 
 1413 0bea 9C63     		ld	a5,0(a5)
 1414              		.loc 2 918 30
 1415 0bec 83A74730 		lw	a5,772(a5)
 1416 0bf0 2322F4F6 		sw	a5,-156(s0)
 919:../src/platform/mpfs_hal/common/nwc/mss_ddr.c ****                     uint32_t ca_vref=(CFG_DDR_SGMII_PHY->DPC_BITS.DPC_BITS >>12)&0x3F;
 1417              		.loc 2 919 56
 1418 0bf4 97070000 		lla	a5,CFG_DDR_SGMII_PHY
 1418      93870700 
 1419 0bfc 9C63     		ld	a5,0(a5)
 1420              		.loc 2 919 66
 1421 0bfe 83A74718 		lw	a5,388(a5)
 1422 0c02 8127     		sext.w	a5,a5
 1423              		.loc 2 919 76
 1424 0c04 9BD7C700 		srliw	a5,a5,12
 1425 0c08 8127     		sext.w	a5,a5
 1426              		.loc 2 919 30
 1427 0c0a 93F7F703 		andi	a5,a5,63
 1428 0c0e 2320F4F6 		sw	a5,-160(s0)
 1429              	.LBB12:
 920:../src/platform/mpfs_hal/common/nwc/mss_ddr.c **** 
 921:../src/platform/mpfs_hal/common/nwc/mss_ddr.c ****                     /* SET DRIVE TO MAX */
 922:../src/platform/mpfs_hal/common/nwc/mss_ddr.c ****                     { /* vref training begins */
 923:../src/platform/mpfs_hal/common/nwc/mss_ddr.c ****                         uint32_t dpc_bits_new;
 924:../src/platform/mpfs_hal/common/nwc/mss_ddr.c ****                         uint32_t vref_answer;
 925:../src/platform/mpfs_hal/common/nwc/mss_ddr.c ****                         uint32_t transition_a5_min_last = 129U;
 1430              		.loc 2 925 34
 1431 0c12 93071008 		li	a5,129
 1432 0c16 2326F4FC 		sw	a5,-52(s0)
 926:../src/platform/mpfs_hal/common/nwc/mss_ddr.c ****                         CFG_DDR_SGMII_PHY->expert_mode_en.expert_mode_en = 0x00000001U;
 1433              		.loc 2 926 42
 1434 0c1a 97070000 		lla	a5,CFG_DDR_SGMII_PHY
 1434      93870700 
 1435 0c22 9863     		ld	a4,0(a5)
 1436              		.loc 2 926 74
 1437 0c24 8567     		li	a5,4096
 1438 0c26 BA97     		add	a5,a4,a5
 1439 0c28 0547     		li	a4,1
 1440 0c2a 23ACE786 		sw	a4,-1928(a5)
 1441              	.LBB13:
 927:../src/platform/mpfs_hal/common/nwc/mss_ddr.c ****                         for (uint32_t ca_indly=0;ca_indly < 30; ca_indly=ca_indly+5)
 1442              		.loc 2 927 39
 1443 0c2e 232404FC 		sw	zero,-56(s0)
 1444              		.loc 2 927 25
 1445 0c32 19A1     		j	.L90
 1446              	.L116:
 1447              	.LBB14:
 928:../src/platform/mpfs_hal/common/nwc/mss_ddr.c ****                         {
 929:../src/platform/mpfs_hal/common/nwc/mss_ddr.c ****                             CFG_DDR_SGMII_PHY->rpc145.rpc145 = ca_indly;//TEMPORARY
 1448              		.loc 2 929 46
 1449 0c34 97070000 		lla	a5,CFG_DDR_SGMII_PHY
 1449      93870700 
 1450 0c3c 9C63     		ld	a5,0(a5)
 1451              		.loc 2 929 62
 1452 0c3e 032784FC 		lw	a4,-56(s0)
 1453 0c42 23A2E764 		sw	a4,1604(a5)
 930:../src/platform/mpfs_hal/common/nwc/mss_ddr.c ****                             CFG_DDR_SGMII_PHY->rpc147.rpc147 = ca_indly;//TEMPORARY
 1454              		.loc 2 930 46
 1455 0c46 97070000 		lla	a5,CFG_DDR_SGMII_PHY
 1455      93870700 
 1456 0c4e 9C63     		ld	a5,0(a5)
 1457              		.loc 2 930 62
 1458 0c50 032784FC 		lw	a4,-56(s0)
 1459 0c54 23A6E764 		sw	a4,1612(a5)
 931:../src/platform/mpfs_hal/common/nwc/mss_ddr.c ****                             uint32_t break_loop=1;
 1460              		.loc 2 931 38
 1461 0c58 8547     		li	a5,1
 1462 0c5a 2322F4FC 		sw	a5,-60(s0)
 932:../src/platform/mpfs_hal/common/nwc/mss_ddr.c ****                             uint32_t in_window=0;
 1463              		.loc 2 932 38
 1464 0c5e 232004FC 		sw	zero,-64(s0)
 933:../src/platform/mpfs_hal/common/nwc/mss_ddr.c ****                             vref_answer=128;
 1465              		.loc 2 933 40
 1466 0c62 93070008 		li	a5,128
 1467 0c66 2328F4FC 		sw	a5,-48(s0)
 1468              	.LBB15:
 934:../src/platform/mpfs_hal/common/nwc/mss_ddr.c ****                         for (uint32_t vref=5;vref <30;vref++) //begin vref training
 1469              		.loc 2 934 39
 1470 0c6a 9547     		li	a5,5
 1471 0c6c 232EF4FA 		sw	a5,-68(s0)
 1472              		.loc 2 934 25
 1473 0c70 65A6     		j	.L91
 1474              	.L113:
 1475              	.LBB16:
 935:../src/platform/mpfs_hal/common/nwc/mss_ddr.c ****                         {
 936:../src/platform/mpfs_hal/common/nwc/mss_ddr.c ****                             uint32_t transition_a5_max=0;
 1476              		.loc 2 936 38
 1477 0c72 232C04FA 		sw	zero,-72(s0)
 937:../src/platform/mpfs_hal/common/nwc/mss_ddr.c ****                             uint32_t transition_a5_min=128;
 1478              		.loc 2 937 38
 1479 0c76 93070008 		li	a5,128
 1480 0c7a 232AF4FA 		sw	a5,-76(s0)
 938:../src/platform/mpfs_hal/common/nwc/mss_ddr.c ****                             uint32_t rx_a5_last,rx_a5;
 939:../src/platform/mpfs_hal/common/nwc/mss_ddr.c ****                             uint32_t transition_a5;
 940:../src/platform/mpfs_hal/common/nwc/mss_ddr.c ****                             uint32_t range_a5=0;
 1481              		.loc 2 940 38
 1482 0c7e 232E04F4 		sw	zero,-164(s0)
 941:../src/platform/mpfs_hal/common/nwc/mss_ddr.c **** 
 942:../src/platform/mpfs_hal/common/nwc/mss_ddr.c ****                             if(transition_a5_min_last > 128U)
 1483              		.loc 2 942 31
 1484 0c82 8327C4FC 		lw	a5,-52(s0)
 1485 0c86 1B870700 		sext.w	a4,a5
 1486 0c8a 93070008 		li	a5,128
 1487 0c8e 63F6E700 		bleu	a4,a5,.L92
 943:../src/platform/mpfs_hal/common/nwc/mss_ddr.c ****                             {
 944:../src/platform/mpfs_hal/common/nwc/mss_ddr.c ****                                 transition_a5_min_last=128U;
 1488              		.loc 2 944 55
 1489 0c92 93070008 		li	a5,128
 1490 0c96 2326F4FC 		sw	a5,-52(s0)
 1491              	.L92:
 945:../src/platform/mpfs_hal/common/nwc/mss_ddr.c ****                             }
 946:../src/platform/mpfs_hal/common/nwc/mss_ddr.c **** 
 947:../src/platform/mpfs_hal/common/nwc/mss_ddr.c ****                             IOSCB_BANKCONT_DDR->soft_reset = 0U;  /* DPC_BITS   NV_MAP  reset */
 1492              		.loc 2 947 47
 1493 0c9a B707023E 		li	a5,1040318464
 1494              		.loc 2 947 60
 1495 0c9e 23A00700 		sw	zero,0(a5)
 948:../src/platform/mpfs_hal/common/nwc/mss_ddr.c ****                             //SET VREF HERE
 949:../src/platform/mpfs_hal/common/nwc/mss_ddr.c ****                             delay(DELAY_CYCLES_500_NS);
 1496              		.loc 2 949 29
 1497 0ca2 1305C012 		li	a0,300
 1498 0ca6 97000000 		call	delay
 1498      E7800000 
 950:../src/platform/mpfs_hal/common/nwc/mss_ddr.c ****                             dpc_bits_new=( CFG_DDR_SGMII_PHY->DPC_BITS.DPC_BITS & 0xFFFC0FFF ) | (v
 1499              		.loc 2 950 61
 1500 0cae 97070000 		lla	a5,CFG_DDR_SGMII_PHY
 1500      93870700 
 1501 0cb6 9C63     		ld	a5,0(a5)
 1502              		.loc 2 950 71
 1503 0cb8 83A74718 		lw	a5,388(a5)
 1504 0cbc 8127     		sext.w	a5,a5
 1505              		.loc 2 950 81
 1506 0cbe 3E87     		mv	a4,a5
 1507 0cc0 B717FCFF 		li	a5,-258048
 1508 0cc4 FD17     		addi	a5,a5,-1
 1509 0cc6 F98F     		and	a5,a4,a5
 1510 0cc8 1B870700 		sext.w	a4,a5
 1511              		.loc 2 950 104
 1512 0ccc 8327C4FB 		lw	a5,-68(s0)
 1513 0cd0 9B97C700 		slliw	a5,a5,12
 1514 0cd4 8127     		sext.w	a5,a5
 1515              		.loc 2 950 96
 1516 0cd6 D98F     		or	a5,a4,a5
 1517 0cd8 8127     		sext.w	a5,a5
 1518              		.loc 2 950 41
 1519 0cda 3E87     		mv	a4,a5
 1520 0cdc B7070400 		li	a5,262144
 1521 0ce0 D98F     		or	a5,a4,a5
 1522 0ce2 232AF4FC 		sw	a5,-44(s0)
 951:../src/platform/mpfs_hal/common/nwc/mss_ddr.c ****                             CFG_DDR_SGMII_PHY->DPC_BITS.DPC_BITS=dpc_bits_new;
 1523              		.loc 2 951 46
 1524 0ce6 97070000 		lla	a5,CFG_DDR_SGMII_PHY
 1524      93870700 
 1525 0cee 9C63     		ld	a5,0(a5)
 1526              		.loc 2 951 65
 1527 0cf0 032744FD 		lw	a4,-44(s0)
 1528 0cf4 23A2E718 		sw	a4,388(a5)
 952:../src/platform/mpfs_hal/common/nwc/mss_ddr.c ****                             delay(DELAY_CYCLES_500_NS);
 1529              		.loc 2 952 29
 1530 0cf8 1305C012 		li	a0,300
 1531 0cfc 97000000 		call	delay
 1531      E7800000 
 953:../src/platform/mpfs_hal/common/nwc/mss_ddr.c ****                             IOSCB_BANKCONT_DDR->soft_reset = 1U;  /* DPC_BITS   NV_MAP  reset */
 1532              		.loc 2 953 47
 1533 0d04 B707023E 		li	a5,1040318464
 1534              		.loc 2 953 60
 1535 0d08 0547     		li	a4,1
 1536 0d0a 98C3     		sw	a4,0(a5)
 954:../src/platform/mpfs_hal/common/nwc/mss_ddr.c ****                             delay(DELAY_CYCLES_500_NS);
 1537              		.loc 2 954 29
 1538 0d0c 1305C012 		li	a0,300
 1539 0d10 97000000 		call	delay
 1539      E7800000 
 955:../src/platform/mpfs_hal/common/nwc/mss_ddr.c **** 
 956:../src/platform/mpfs_hal/common/nwc/mss_ddr.c **** 
 957:../src/platform/mpfs_hal/common/nwc/mss_ddr.c ****                              //ADDCMD Training improvement , adds delay on A9 loopback path - Sugge
 958:../src/platform/mpfs_hal/common/nwc/mss_ddr.c ****                              //CFG_DDR_SGMII_PHY->rpc145.rpc145 = 0x8U;
 959:../src/platform/mpfs_hal/common/nwc/mss_ddr.c **** 
 960:../src/platform/mpfs_hal/common/nwc/mss_ddr.c ****                             uint32_t deltat = 128UL;
 1540              		.loc 2 960 38
 1541 0d18 93070008 		li	a5,128
 1542 0d1c 2324F4FA 		sw	a5,-88(s0)
 1543              	.LBB17:
 961:../src/platform/mpfs_hal/common/nwc/mss_ddr.c **** 
 962:../src/platform/mpfs_hal/common/nwc/mss_ddr.c ****                             for (uint32_t j = 0; j<20 ; j++)
 1544              		.loc 2 962 43
 1545 0d20 232204FA 		sw	zero,-92(s0)
 1546              		.loc 2 962 29
 1547 0d24 29AC     		j	.L93
 1548              	.L104:
 963:../src/platform/mpfs_hal/common/nwc/mss_ddr.c ****                             {
 964:../src/platform/mpfs_hal/common/nwc/mss_ddr.c **** 
 965:../src/platform/mpfs_hal/common/nwc/mss_ddr.c ****                                 //LOAD INDLY
 966:../src/platform/mpfs_hal/common/nwc/mss_ddr.c ****                                 CFG_DDR_SGMII_PHY->expert_dlycnt_direction_reg1.expert_dlycnt_direc
 1549              		.loc 2 966 50
 1550 0d26 97070000 		lla	a5,CFG_DDR_SGMII_PHY
 1550      93870700 
 1551 0d2e 9863     		ld	a4,0(a5)
 1552              		.loc 2 966 110
 1553 0d30 8567     		li	a5,4096
 1554 0d32 BA97     		add	a5,a4,a5
 1555 0d34 23A40788 		sw	zero,-1912(a5)
 967:../src/platform/mpfs_hal/common/nwc/mss_ddr.c ****                                 CFG_DDR_SGMII_PHY->expert_dlycnt_load_reg1.expert_dlycnt_load_reg1 
 1556              		.loc 2 967 50
 1557 0d38 97070000 		lla	a5,CFG_DDR_SGMII_PHY
 1557      93870700 
 1558 0d40 9863     		ld	a4,0(a5)
 1559              		.loc 2 967 100
 1560 0d42 8567     		li	a5,4096
 1561 0d44 BA97     		add	a5,a4,a5
 1562 0d46 23A80788 		sw	zero,-1904(a5)
 968:../src/platform/mpfs_hal/common/nwc/mss_ddr.c ****                                 CFG_DDR_SGMII_PHY->expert_dlycnt_load_reg1.expert_dlycnt_load_reg1 
 1563              		.loc 2 968 50
 1564 0d4a 97070000 		lla	a5,CFG_DDR_SGMII_PHY
 1564      93870700 
 1565 0d52 9863     		ld	a4,0(a5)
 1566              		.loc 2 968 100
 1567 0d54 8567     		li	a5,4096
 1568 0d56 BA97     		add	a5,a4,a5
 1569 0d58 37071800 		li	a4,1572864
 1570 0d5c 23A8E788 		sw	a4,-1904(a5)
 969:../src/platform/mpfs_hal/common/nwc/mss_ddr.c ****                                 CFG_DDR_SGMII_PHY->expert_dlycnt_load_reg1.expert_dlycnt_load_reg1 
 1571              		.loc 2 969 50
 1572 0d60 97070000 		lla	a5,CFG_DDR_SGMII_PHY
 1572      93870700 
 1573 0d68 9863     		ld	a4,0(a5)
 1574              		.loc 2 969 100
 1575 0d6a 8567     		li	a5,4096
 1576 0d6c BA97     		add	a5,a4,a5
 1577 0d6e 23A80788 		sw	zero,-1904(a5)
 970:../src/platform/mpfs_hal/common/nwc/mss_ddr.c **** 
 971:../src/platform/mpfs_hal/common/nwc/mss_ddr.c ****                                 //LOAD OUTDLY
 972:../src/platform/mpfs_hal/common/nwc/mss_ddr.c ****                                 CFG_DDR_SGMII_PHY->expert_dlycnt_direction_reg1.expert_dlycnt_direc
 1578              		.loc 2 972 50
 1579 0d72 97070000 		lla	a5,CFG_DDR_SGMII_PHY
 1579      93870700 
 1580 0d7a 9863     		ld	a4,0(a5)
 1581              		.loc 2 972 110
 1582 0d7c 8567     		li	a5,4096
 1583 0d7e BA97     		add	a5,a4,a5
 1584 0d80 37071800 		li	a4,1572864
 1585 0d84 23A4E788 		sw	a4,-1912(a5)
 973:../src/platform/mpfs_hal/common/nwc/mss_ddr.c ****                                 CFG_DDR_SGMII_PHY->expert_dlycnt_load_reg1.expert_dlycnt_load_reg1 
 1586              		.loc 2 973 50
 1587 0d88 97070000 		lla	a5,CFG_DDR_SGMII_PHY
 1587      93870700 
 1588 0d90 9863     		ld	a4,0(a5)
 1589              		.loc 2 973 100
 1590 0d92 8567     		li	a5,4096
 1591 0d94 BA97     		add	a5,a4,a5
 1592 0d96 23A80788 		sw	zero,-1904(a5)
 974:../src/platform/mpfs_hal/common/nwc/mss_ddr.c ****                                 CFG_DDR_SGMII_PHY->expert_dlycnt_load_reg1.expert_dlycnt_load_reg1 
 1593              		.loc 2 974 50
 1594 0d9a 97070000 		lla	a5,CFG_DDR_SGMII_PHY
 1594      93870700 
 1595 0da2 9863     		ld	a4,0(a5)
 1596              		.loc 2 974 100
 1597 0da4 8567     		li	a5,4096
 1598 0da6 BA97     		add	a5,a4,a5
 1599 0da8 37071800 		li	a4,1572864
 1600 0dac 23A8E788 		sw	a4,-1904(a5)
 975:../src/platform/mpfs_hal/common/nwc/mss_ddr.c ****                                 CFG_DDR_SGMII_PHY->expert_dlycnt_load_reg1.expert_dlycnt_load_reg1 
 1601              		.loc 2 975 50
 1602 0db0 97070000 		lla	a5,CFG_DDR_SGMII_PHY
 1602      93870700 
 1603 0db8 9863     		ld	a4,0(a5)
 1604              		.loc 2 975 100
 1605 0dba 8567     		li	a5,4096
 1606 0dbc BA97     		add	a5,a4,a5
 1607 0dbe 23A80788 		sw	zero,-1904(a5)
 976:../src/platform/mpfs_hal/common/nwc/mss_ddr.c **** 
 977:../src/platform/mpfs_hal/common/nwc/mss_ddr.c ****                                // rx_a5_last=0x0;
 978:../src/platform/mpfs_hal/common/nwc/mss_ddr.c ****                                 rx_a5_last=0xF;
 1608              		.loc 2 978 43
 1609 0dc2 BD47     		li	a5,15
 1610 0dc4 2328F4FA 		sw	a5,-80(s0)
 979:../src/platform/mpfs_hal/common/nwc/mss_ddr.c ****                                 transition_a5=0;
 1611              		.loc 2 979 46
 1612 0dc8 232604FA 		sw	zero,-84(s0)
 980:../src/platform/mpfs_hal/common/nwc/mss_ddr.c ****                                 deltat=128;
 1613              		.loc 2 980 39
 1614 0dcc 93070008 		li	a5,128
 1615 0dd0 2324F4FA 		sw	a5,-88(s0)
 981:../src/platform/mpfs_hal/common/nwc/mss_ddr.c ****                                 delay(DELAY_CYCLES_500_NS);
 1616              		.loc 2 981 33
 1617 0dd4 1305C012 		li	a0,300
 1618 0dd8 97000000 		call	delay
 1618      E7800000 
 1619              	.LBB18:
 982:../src/platform/mpfs_hal/common/nwc/mss_ddr.c **** 
 983:../src/platform/mpfs_hal/common/nwc/mss_ddr.c ****                                 for (uint32_t i=0; i < (128-ca_indly);i++)
 1620              		.loc 2 983 47
 1621 0de0 232004FA 		sw	zero,-96(s0)
 1622              		.loc 2 983 33
 1623 0de4 EDA8     		j	.L94
 1624              	.L101:
 984:../src/platform/mpfs_hal/common/nwc/mss_ddr.c ****                                 {
 985:../src/platform/mpfs_hal/common/nwc/mss_ddr.c ****                                     CFG_DDR_SGMII_PHY->expert_dlycnt_move_reg1.expert_dlycnt_move_r
 1625              		.loc 2 985 54
 1626 0de6 97070000 		lla	a5,CFG_DDR_SGMII_PHY
 1626      93870700 
 1627 0dee 9863     		ld	a4,0(a5)
 1628              		.loc 2 985 104
 1629 0df0 8567     		li	a5,4096
 1630 0df2 BA97     		add	a5,a4,a5
 1631 0df4 23A00788 		sw	zero,-1920(a5)
 986:../src/platform/mpfs_hal/common/nwc/mss_ddr.c ****                                     CFG_DDR_SGMII_PHY->expert_dlycnt_move_reg1.expert_dlycnt_move_r
 1632              		.loc 2 986 54
 1633 0df8 97070000 		lla	a5,CFG_DDR_SGMII_PHY
 1633      93870700 
 1634 0e00 9863     		ld	a4,0(a5)
 1635              		.loc 2 986 104
 1636 0e02 8567     		li	a5,4096
 1637 0e04 BA97     		add	a5,a4,a5
 1638 0e06 37071800 		li	a4,1572864
 1639 0e0a 23A0E788 		sw	a4,-1920(a5)
 987:../src/platform/mpfs_hal/common/nwc/mss_ddr.c ****                                     CFG_DDR_SGMII_PHY->expert_dlycnt_move_reg1.expert_dlycnt_move_r
 1640              		.loc 2 987 54
 1641 0e0e 97070000 		lla	a5,CFG_DDR_SGMII_PHY
 1641      93870700 
 1642 0e16 9863     		ld	a4,0(a5)
 1643              		.loc 2 987 104
 1644 0e18 8567     		li	a5,4096
 1645 0e1a BA97     		add	a5,a4,a5
 1646 0e1c 23A00788 		sw	zero,-1920(a5)
 988:../src/platform/mpfs_hal/common/nwc/mss_ddr.c ****                                     delay(DELAY_CYCLES_500_NS);
 1647              		.loc 2 988 37
 1648 0e20 1305C012 		li	a0,300
 1649 0e24 97000000 		call	delay
 1649      E7800000 
 989:../src/platform/mpfs_hal/common/nwc/mss_ddr.c ****                                     rx_a5 = (CFG_DDR_SGMII_PHY->expert_addcmd_ln_readback.expert_ad
 1650              		.loc 2 989 63
 1651 0e2c 97070000 		lla	a5,CFG_DDR_SGMII_PHY
 1651      93870700 
 1652 0e34 9863     		ld	a4,0(a5)
 1653              		.loc 2 989 90
 1654 0e36 8567     		li	a5,4096
 1655 0e38 BA97     		add	a5,a4,a5
 1656 0e3a 83A7C78A 		lw	a5,-1876(a5)
 1657 0e3e 8127     		sext.w	a5,a5
 1658              		.loc 2 989 127
 1659 0e40 9BD78700 		srliw	a5,a5,8
 1660 0e44 8127     		sext.w	a5,a5
 1661              		.loc 2 989 43
 1662 0e46 8D8B     		andi	a5,a5,3
 1663 0e48 232CF4F4 		sw	a5,-168(s0)
 990:../src/platform/mpfs_hal/common/nwc/mss_ddr.c **** 
 991:../src/platform/mpfs_hal/common/nwc/mss_ddr.c ****                                     if (transition_a5 != 0){
 1664              		.loc 2 991 40
 1665 0e4c 8327C4FA 		lw	a5,-84(s0)
 1666 0e50 8127     		sext.w	a5,a5
 1667 0e52 81CF     		beq	a5,zero,.L95
 992:../src/platform/mpfs_hal/common/nwc/mss_ddr.c ****                                        if (((i - transition_a5) > 8) ){ //was 8 ////////////
 1668              		.loc 2 992 48
 1669 0e54 032704FA 		lw	a4,-96(s0)
 1670 0e58 8327C4FA 		lw	a5,-84(s0)
 1671 0e5c BB07F740 		subw	a5,a4,a5
 1672 0e60 8127     		sext.w	a5,a5
 1673              		.loc 2 992 43
 1674 0e62 3E87     		mv	a4,a5
 1675 0e64 A147     		li	a5,8
 1676 0e66 63EAE708 		bgtu	a4,a5,.L200
 1677              	.L95:
 993:../src/platform/mpfs_hal/common/nwc/mss_ddr.c ****                                            break;
 994:../src/platform/mpfs_hal/common/nwc/mss_ddr.c ****                                        }
 995:../src/platform/mpfs_hal/common/nwc/mss_ddr.c ****                                     }
 996:../src/platform/mpfs_hal/common/nwc/mss_ddr.c **** 
 997:../src/platform/mpfs_hal/common/nwc/mss_ddr.c ****                                     if (transition_a5 ==0) {
 1678              		.loc 2 997 40
 1679 0e6a 8327C4FA 		lw	a5,-84(s0)
 1680 0e6e 8127     		sext.w	a5,a5
 1681 0e70 95E7     		bne	a5,zero,.L97
 998:../src/platform/mpfs_hal/common/nwc/mss_ddr.c ****                                          // if ( ((rx_a5 ^ rx_a5_last) & (~rx_a5) )  ){
 999:../src/platform/mpfs_hal/common/nwc/mss_ddr.c ****                                          if ( ((rx_a5 ^ rx_a5_last) & rx_a5 )  ){
 1682              		.loc 2 999 69
 1683 0e72 832704FB 		lw	a5,-80(s0)
 1684 0e76 93C7F7FF 		not	a5,a5
 1685 0e7a 1B870700 		sext.w	a4,a5
 1686 0e7e 832784F5 		lw	a5,-168(s0)
 1687 0e82 F98F     		and	a5,a5,a4
 1688 0e84 8127     		sext.w	a5,a5
 1689              		.loc 2 999 45
 1690 0e86 91C7     		beq	a5,zero,.L98
1000:../src/platform/mpfs_hal/common/nwc/mss_ddr.c ****                                              transition_a5 = i;
 1691              		.loc 2 1000 60
 1692 0e88 832704FA 		lw	a5,-96(s0)
 1693 0e8c 2326F4FA 		sw	a5,-84(s0)
 1694 0e90 91A0     		j	.L100
 1695              	.L98:
1001:../src/platform/mpfs_hal/common/nwc/mss_ddr.c ****                                          }
1002:../src/platform/mpfs_hal/common/nwc/mss_ddr.c ****                                          else{
1003:../src/platform/mpfs_hal/common/nwc/mss_ddr.c ****                                          rx_a5_last=rx_a5;
 1696              		.loc 2 1003 52
 1697 0e92 832784F5 		lw	a5,-168(s0)
 1698 0e96 2328F4FA 		sw	a5,-80(s0)
 1699 0e9a 2DA8     		j	.L100
 1700              	.L97:
1004:../src/platform/mpfs_hal/common/nwc/mss_ddr.c ****                                          }
1005:../src/platform/mpfs_hal/common/nwc/mss_ddr.c ****                                      }
1006:../src/platform/mpfs_hal/common/nwc/mss_ddr.c ****                                      else {
1007:../src/platform/mpfs_hal/common/nwc/mss_ddr.c ****                                          if ((i - transition_a5) == 4)  //was 4 ////////////
 1701              		.loc 2 1007 49
 1702 0e9c 032704FA 		lw	a4,-96(s0)
 1703 0ea0 8327C4FA 		lw	a5,-84(s0)
 1704 0ea4 BB07F740 		subw	a5,a4,a5
 1705 0ea8 8127     		sext.w	a5,a5
 1706              		.loc 2 1007 45
 1707 0eaa 3E87     		mv	a4,a5
 1708 0eac 9147     		li	a5,4
 1709 0eae 6313F702 		bne	a4,a5,.L100
1008:../src/platform/mpfs_hal/common/nwc/mss_ddr.c ****                                              //if (rx_a5!=rx_a5_last) //IF rx_ca not stable after 4
1009:../src/platform/mpfs_hal/common/nwc/mss_ddr.c ****                                             // if(!((rx_a5 ^ rx_a5_last) & (~rx_a5) ))
1010:../src/platform/mpfs_hal/common/nwc/mss_ddr.c ****                                              if(!((rx_a5 ^ rx_a5_last) & rx_a5 ))
 1710              		.loc 2 1010 72
 1711 0eb2 832704FB 		lw	a5,-80(s0)
 1712 0eb6 93C7F7FF 		not	a5,a5
 1713 0eba 1B870700 		sext.w	a4,a5
 1714 0ebe 832784F5 		lw	a5,-168(s0)
 1715 0ec2 F98F     		and	a5,a5,a4
 1716 0ec4 8127     		sext.w	a5,a5
 1717              		.loc 2 1010 48
 1718 0ec6 99E7     		bne	a5,zero,.L100
1011:../src/platform/mpfs_hal/common/nwc/mss_ddr.c ****                                              {
1012:../src/platform/mpfs_hal/common/nwc/mss_ddr.c ****                                                  transition_a5=0; //Continue looking for transition
 1719              		.loc 2 1012 63
 1720 0ec8 232604FA 		sw	zero,-84(s0)
1013:../src/platform/mpfs_hal/common/nwc/mss_ddr.c ****                                                  rx_a5_last=rx_a5;
 1721              		.loc 2 1013 60
 1722 0ecc 832784F5 		lw	a5,-168(s0)
 1723 0ed0 2328F4FA 		sw	a5,-80(s0)
 1724              	.L100:
 983:../src/platform/mpfs_hal/common/nwc/mss_ddr.c ****                                 {
 1725              		.loc 2 983 72 discriminator 2
 1726 0ed4 832704FA 		lw	a5,-96(s0)
 1727 0ed8 8527     		addiw	a5,a5,1
 1728 0eda 2320F4FA 		sw	a5,-96(s0)
 1729              	.L94:
 983:../src/platform/mpfs_hal/common/nwc/mss_ddr.c ****                                 {
 1730              		.loc 2 983 60 discriminator 1
 1731 0ede 13070008 		li	a4,128
 1732 0ee2 832784FC 		lw	a5,-56(s0)
 1733 0ee6 BB07F740 		subw	a5,a4,a5
 1734 0eea 1B870700 		sext.w	a4,a5
 983:../src/platform/mpfs_hal/common/nwc/mss_ddr.c ****                                 {
 1735              		.loc 2 983 33 discriminator 1
 1736 0eee 832704FA 		lw	a5,-96(s0)
 1737 0ef2 8127     		sext.w	a5,a5
 1738 0ef4 E3E9E7EE 		bltu	a5,a4,.L101
 1739 0ef8 11A0     		j	.L96
 1740              	.L200:
 993:../src/platform/mpfs_hal/common/nwc/mss_ddr.c ****                                        }
 1741              		.loc 2 993 44
 1742 0efa 0100     		nop
 1743              	.L96:
 1744              	.LBE18:
1014:../src/platform/mpfs_hal/common/nwc/mss_ddr.c ****                                              }
1015:../src/platform/mpfs_hal/common/nwc/mss_ddr.c ****                                      }
1016:../src/platform/mpfs_hal/common/nwc/mss_ddr.c **** 
1017:../src/platform/mpfs_hal/common/nwc/mss_ddr.c **** 
1018:../src/platform/mpfs_hal/common/nwc/mss_ddr.c **** 
1019:../src/platform/mpfs_hal/common/nwc/mss_ddr.c ****                                 }//delay loop ends here
1020:../src/platform/mpfs_hal/common/nwc/mss_ddr.c ****                                 if (transition_a5 !=0)
 1745              		.loc 2 1020 36
 1746 0efc 8327C4FA 		lw	a5,-84(s0)
 1747 0f00 8127     		sext.w	a5,a5
 1748 0f02 8DCB     		beq	a5,zero,.L102
1021:../src/platform/mpfs_hal/common/nwc/mss_ddr.c ****                                 {
1022:../src/platform/mpfs_hal/common/nwc/mss_ddr.c ****                                     if (transition_a5 > transition_a5_max)
 1749              		.loc 2 1022 40
 1750 0f04 0327C4FA 		lw	a4,-84(s0)
 1751 0f08 832784FB 		lw	a5,-72(s0)
 1752 0f0c 0127     		sext.w	a4,a4
 1753 0f0e 8127     		sext.w	a5,a5
 1754 0f10 63F6E700 		bleu	a4,a5,.L103
1023:../src/platform/mpfs_hal/common/nwc/mss_ddr.c ****                                     {
1024:../src/platform/mpfs_hal/common/nwc/mss_ddr.c ****                                         transition_a5_max = transition_a5;
 1755              		.loc 2 1024 59
 1756 0f14 8327C4FA 		lw	a5,-84(s0)
 1757 0f18 232CF4FA 		sw	a5,-72(s0)
 1758              	.L103:
1025:../src/platform/mpfs_hal/common/nwc/mss_ddr.c ****                                     }
1026:../src/platform/mpfs_hal/common/nwc/mss_ddr.c ****                                     if (transition_a5 < transition_a5_min)
 1759              		.loc 2 1026 40
 1760 0f1c 0327C4FA 		lw	a4,-84(s0)
 1761 0f20 832744FB 		lw	a5,-76(s0)
 1762 0f24 0127     		sext.w	a4,a4
 1763 0f26 8127     		sext.w	a5,a5
 1764 0f28 6376F700 		bgeu	a4,a5,.L102
1027:../src/platform/mpfs_hal/common/nwc/mss_ddr.c ****                                     {
1028:../src/platform/mpfs_hal/common/nwc/mss_ddr.c **** 
1029:../src/platform/mpfs_hal/common/nwc/mss_ddr.c ****                                         transition_a5_min = transition_a5;
 1765              		.loc 2 1029 59
 1766 0f2c 8327C4FA 		lw	a5,-84(s0)
 1767 0f30 232AF4FA 		sw	a5,-76(s0)
 1768              	.L102:
 962:../src/platform/mpfs_hal/common/nwc/mss_ddr.c ****                             {
 1769              		.loc 2 962 58 discriminator 2
 1770 0f34 832744FA 		lw	a5,-92(s0)
 1771 0f38 8527     		addiw	a5,a5,1
 1772 0f3a 2322F4FA 		sw	a5,-92(s0)
 1773              	.L93:
 962:../src/platform/mpfs_hal/common/nwc/mss_ddr.c ****                             {
 1774              		.loc 2 962 29 discriminator 1
 1775 0f3e 832744FA 		lw	a5,-92(s0)
 1776 0f42 1B870700 		sext.w	a4,a5
 1777 0f46 CD47     		li	a5,19
 1778 0f48 E3FFE7DC 		bleu	a4,a5,.L104
 1779              	.LBE17:
1030:../src/platform/mpfs_hal/common/nwc/mss_ddr.c ****                                     }
1031:../src/platform/mpfs_hal/common/nwc/mss_ddr.c ****                                 }
1032:../src/platform/mpfs_hal/common/nwc/mss_ddr.c ****                             }//Sample loop ends here
1033:../src/platform/mpfs_hal/common/nwc/mss_ddr.c ****                             range_a5=transition_a5_max-transition_a5_min;
 1780              		.loc 2 1033 37
 1781 0f4c 032784FB 		lw	a4,-72(s0)
 1782 0f50 832744FB 		lw	a5,-76(s0)
 1783 0f54 BB07F740 		subw	a5,a4,a5
 1784 0f58 232EF4F4 		sw	a5,-164(s0)
1034:../src/platform/mpfs_hal/common/nwc/mss_ddr.c ****                             if (transition_a5_min < 10){
 1785              		.loc 2 1034 32
 1786 0f5c 832744FB 		lw	a5,-76(s0)
 1787 0f60 1B870700 		sext.w	a4,a5
 1788 0f64 A547     		li	a5,9
 1789 0f66 63E4E700 		bgtu	a4,a5,.L105
1035:../src/platform/mpfs_hal/common/nwc/mss_ddr.c ****                                 break_loop=0;
 1790              		.loc 2 1035 43
 1791 0f6a 232204FC 		sw	zero,-60(s0)
 1792              	.L105:
1036:../src/platform/mpfs_hal/common/nwc/mss_ddr.c ****                             }
1037:../src/platform/mpfs_hal/common/nwc/mss_ddr.c **** 
1038:../src/platform/mpfs_hal/common/nwc/mss_ddr.c **** 
1039:../src/platform/mpfs_hal/common/nwc/mss_ddr.c ****                             if (range_a5 <=5)
 1793              		.loc 2 1039 32
 1794 0f6e 8327C4F5 		lw	a5,-164(s0)
 1795 0f72 1B870700 		sext.w	a4,a5
 1796 0f76 9547     		li	a5,5
 1797 0f78 63ECE704 		bgtu	a4,a5,.L106
1040:../src/platform/mpfs_hal/common/nwc/mss_ddr.c ****                             {
1041:../src/platform/mpfs_hal/common/nwc/mss_ddr.c ****                                 //(min(transition_a5_min - transition_a5_min_last,transition_a5_min
1042:../src/platform/mpfs_hal/common/nwc/mss_ddr.c ****                                 if (transition_a5_min > transition_a5_min_last)
 1798              		.loc 2 1042 36
 1799 0f7c 032744FB 		lw	a4,-76(s0)
 1800 0f80 8327C4FC 		lw	a5,-52(s0)
 1801 0f84 0127     		sext.w	a4,a4
 1802 0f86 8127     		sext.w	a5,a5
 1803 0f88 63FBE700 		bleu	a4,a5,.L107
1043:../src/platform/mpfs_hal/common/nwc/mss_ddr.c ****                                 {
1044:../src/platform/mpfs_hal/common/nwc/mss_ddr.c ****                                     deltat=transition_a5_min-transition_a5_min_last;
 1804              		.loc 2 1044 43
 1805 0f8c 032744FB 		lw	a4,-76(s0)
 1806 0f90 8327C4FC 		lw	a5,-52(s0)
 1807 0f94 BB07F740 		subw	a5,a4,a5
 1808 0f98 2324F4FA 		sw	a5,-88(s0)
 1809 0f9c 09A8     		j	.L108
 1810              	.L107:
1045:../src/platform/mpfs_hal/common/nwc/mss_ddr.c ****                                 }
1046:../src/platform/mpfs_hal/common/nwc/mss_ddr.c ****                                 else
1047:../src/platform/mpfs_hal/common/nwc/mss_ddr.c ****                                 {
1048:../src/platform/mpfs_hal/common/nwc/mss_ddr.c ****                                     deltat=transition_a5_min_last-transition_a5_min;
 1811              		.loc 2 1048 43
 1812 0f9e 0327C4FC 		lw	a4,-52(s0)
 1813 0fa2 832744FB 		lw	a5,-76(s0)
 1814 0fa6 BB07F740 		subw	a5,a4,a5
 1815 0faa 2324F4FA 		sw	a5,-88(s0)
 1816              	.L108:
1049:../src/platform/mpfs_hal/common/nwc/mss_ddr.c ****                                 }
1050:../src/platform/mpfs_hal/common/nwc/mss_ddr.c ****                                 if (deltat <=5)
 1817              		.loc 2 1050 36
 1818 0fae 832784FA 		lw	a5,-88(s0)
 1819 0fb2 1B870700 		sext.w	a4,a5
 1820 0fb6 9547     		li	a5,5
 1821 0fb8 63E2E702 		bgtu	a4,a5,.L110
1051:../src/platform/mpfs_hal/common/nwc/mss_ddr.c ****                                 {
1052:../src/platform/mpfs_hal/common/nwc/mss_ddr.c ****                                     in_window=(in_window<<1)|1;
 1822              		.loc 2 1052 57
 1823 0fbc 832704FC 		lw	a5,-64(s0)
 1824 0fc0 9B971700 		slliw	a5,a5,1
 1825 0fc4 8127     		sext.w	a5,a5
 1826              		.loc 2 1052 46
 1827 0fc6 93E71700 		ori	a5,a5,1
 1828 0fca 2320F4FC 		sw	a5,-64(s0)
 1829 0fce 39A0     		j	.L110
 1830              	.L106:
1053:../src/platform/mpfs_hal/common/nwc/mss_ddr.c ****                                 }
1054:../src/platform/mpfs_hal/common/nwc/mss_ddr.c ****                             }
1055:../src/platform/mpfs_hal/common/nwc/mss_ddr.c ****                             else
1056:../src/platform/mpfs_hal/common/nwc/mss_ddr.c ****                             {
1057:../src/platform/mpfs_hal/common/nwc/mss_ddr.c ****                                 in_window=(in_window<<1)|0;
 1831              		.loc 2 1057 42
 1832 0fd0 832704FC 		lw	a5,-64(s0)
 1833 0fd4 9B971700 		slliw	a5,a5,1
 1834 0fd8 2320F4FC 		sw	a5,-64(s0)
 1835              	.L110:
1058:../src/platform/mpfs_hal/common/nwc/mss_ddr.c ****                             }
1059:../src/platform/mpfs_hal/common/nwc/mss_ddr.c **** 
1060:../src/platform/mpfs_hal/common/nwc/mss_ddr.c **** #ifdef DEBUG_DDR_INIT
1061:../src/platform/mpfs_hal/common/nwc/mss_ddr.c ****                             (void)uprint32(g_debug_uart,  "\n\r ca_indly ", ca_indly);
1062:../src/platform/mpfs_hal/common/nwc/mss_ddr.c ****                             (void)uprint32(g_debug_uart,  " vref ", vref);
1063:../src/platform/mpfs_hal/common/nwc/mss_ddr.c ****                             (void)uprint32(g_debug_uart,  " a5_dly_max:", transition_a5_max);
1064:../src/platform/mpfs_hal/common/nwc/mss_ddr.c ****                             (void)uprint32(g_debug_uart,  " a5_dly_min:", transition_a5_min);
1065:../src/platform/mpfs_hal/common/nwc/mss_ddr.c ****                             (void)uprint32(g_debug_uart,  " a5_dly_min_last:", transition_a5_min_la
1066:../src/platform/mpfs_hal/common/nwc/mss_ddr.c ****                             (void)uprint32(g_debug_uart,  " range_a5:", range_a5);
1067:../src/platform/mpfs_hal/common/nwc/mss_ddr.c ****                             (void)uprint32(g_debug_uart,  " deltat:", deltat);
1068:../src/platform/mpfs_hal/common/nwc/mss_ddr.c ****                             (void)uprint32(g_debug_uart,  " in_window:", in_window);
1069:../src/platform/mpfs_hal/common/nwc/mss_ddr.c ****                             (void)uprint32(g_debug_uart,  " vref_answer:", vref_answer);
1070:../src/platform/mpfs_hal/common/nwc/mss_ddr.c **** #endif
1071:../src/platform/mpfs_hal/common/nwc/mss_ddr.c ****                             if(vref_answer==128)
 1836              		.loc 2 1071 31
 1837 0fdc 832704FD 		lw	a5,-48(s0)
 1838 0fe0 1B870700 		sext.w	a4,a5
 1839 0fe4 93070008 		li	a5,128
 1840 0fe8 631FF700 		bne	a4,a5,.L111
1072:../src/platform/mpfs_hal/common/nwc/mss_ddr.c ****                             {
1073:../src/platform/mpfs_hal/common/nwc/mss_ddr.c ****                                 if ((in_window &0x3)==0x3) //ALISTER CHANGE 2/17/2021
 1841              		.loc 2 1073 48
 1842 0fec 832704FC 		lw	a5,-64(s0)
 1843 0ff0 8D8B     		andi	a5,a5,3
 1844 0ff2 8127     		sext.w	a5,a5
 1845              		.loc 2 1073 36
 1846 0ff4 3E87     		mv	a4,a5
 1847 0ff6 8D47     		li	a5,3
 1848 0ff8 6317F700 		bne	a4,a5,.L111
1074:../src/platform/mpfs_hal/common/nwc/mss_ddr.c ****                                 {
1075:../src/platform/mpfs_hal/common/nwc/mss_ddr.c ****                                     vref_answer=vref; //ALISTER CHANGE
 1849              		.loc 2 1075 48
 1850 0ffc 8327C4FB 		lw	a5,-68(s0)
 1851 1000 2328F4FC 		sw	a5,-48(s0)
1076:../src/platform/mpfs_hal/common/nwc/mss_ddr.c **** #ifndef PRINT_CA_VREF_WINDOW
1077:../src/platform/mpfs_hal/common/nwc/mss_ddr.c ****                                     break;
 1852              		.loc 2 1077 37
 1853 1004 0DA0     		j	.L112
 1854              	.L111:
1078:../src/platform/mpfs_hal/common/nwc/mss_ddr.c **** #endif
1079:../src/platform/mpfs_hal/common/nwc/mss_ddr.c ****                                 }
1080:../src/platform/mpfs_hal/common/nwc/mss_ddr.c ****                             }
1081:../src/platform/mpfs_hal/common/nwc/mss_ddr.c ****                             transition_a5_min_last=transition_a5_min;
 1855              		.loc 2 1081 51 discriminator 2
 1856 1006 832744FB 		lw	a5,-76(s0)
 1857 100a 2326F4FC 		sw	a5,-52(s0)
 1858              	.LBE16:
 934:../src/platform/mpfs_hal/common/nwc/mss_ddr.c ****                         {
 1859              		.loc 2 934 59 discriminator 2
 1860 100e 8327C4FB 		lw	a5,-68(s0)
 1861 1012 8527     		addiw	a5,a5,1
 1862 1014 232EF4FA 		sw	a5,-68(s0)
 1863              	.L91:
 934:../src/platform/mpfs_hal/common/nwc/mss_ddr.c ****                         {
 1864              		.loc 2 934 25 discriminator 1
 1865 1018 8327C4FB 		lw	a5,-68(s0)
 1866 101c 1B870700 		sext.w	a4,a5
 1867 1020 F547     		li	a5,29
 1868 1022 E3F8E7C4 		bleu	a4,a5,.L113
 1869              	.L112:
 1870              	.LBE15:
1082:../src/platform/mpfs_hal/common/nwc/mss_ddr.c ****                         }
1083:../src/platform/mpfs_hal/common/nwc/mss_ddr.c ****                             if (break_loop)
 1871              		.loc 2 1083 32
 1872 1026 832744FC 		lw	a5,-60(s0)
 1873 102a 8127     		sext.w	a5,a5
 1874 102c 91EF     		bne	a5,zero,.L201
 1875              	.LBE14:
 927:../src/platform/mpfs_hal/common/nwc/mss_ddr.c ****                         {
 1876              		.loc 2 927 73 discriminator 2
 1877 102e 832784FC 		lw	a5,-56(s0)
 1878 1032 9527     		addiw	a5,a5,5
 1879 1034 2324F4FC 		sw	a5,-56(s0)
 1880              	.L90:
 927:../src/platform/mpfs_hal/common/nwc/mss_ddr.c ****                         {
 1881              		.loc 2 927 25 discriminator 1
 1882 1038 832784FC 		lw	a5,-56(s0)
 1883 103c 1B870700 		sext.w	a4,a5
 1884 1040 F547     		li	a5,29
 1885 1042 E3F9E7BE 		bleu	a4,a5,.L116
 1886 1046 11A0     		j	.L115
 1887              	.L201:
 1888              	.LBB19:
1084:../src/platform/mpfs_hal/common/nwc/mss_ddr.c ****                             {
1085:../src/platform/mpfs_hal/common/nwc/mss_ddr.c ****                                 break;
 1889              		.loc 2 1085 33
 1890 1048 0100     		nop
 1891              	.L115:
 1892              	.LBE19:
 1893              	.LBE13:
1086:../src/platform/mpfs_hal/common/nwc/mss_ddr.c ****                             }
1087:../src/platform/mpfs_hal/common/nwc/mss_ddr.c ****                         }
1088:../src/platform/mpfs_hal/common/nwc/mss_ddr.c **** #ifdef DEBUG_DDR_INIT
1089:../src/platform/mpfs_hal/common/nwc/mss_ddr.c ****                         if (vref_answer!=128U)
1090:../src/platform/mpfs_hal/common/nwc/mss_ddr.c ****                         {
1091:../src/platform/mpfs_hal/common/nwc/mss_ddr.c ****                             (void)uprint32(g_debug_uart,  "\n\r vref_answer found", vref_answer);
1092:../src/platform/mpfs_hal/common/nwc/mss_ddr.c ****                         }
1093:../src/platform/mpfs_hal/common/nwc/mss_ddr.c ****                         else
1094:../src/platform/mpfs_hal/common/nwc/mss_ddr.c ****                         {
1095:../src/platform/mpfs_hal/common/nwc/mss_ddr.c ****                             (void)uprint32(g_debug_uart,  "\n\r CA_VREF training failed! ", vref_an
1096:../src/platform/mpfs_hal/common/nwc/mss_ddr.c **** 
1097:../src/platform/mpfs_hal/common/nwc/mss_ddr.c ****                         }
1098:../src/platform/mpfs_hal/common/nwc/mss_ddr.c **** #endif
1099:../src/platform/mpfs_hal/common/nwc/mss_ddr.c ****                         IOSCB_BANKCONT_DDR->soft_reset = 0U;  /* DPC_BITS   NV_MAP  reset */
 1894              		.loc 2 1099 43
 1895 104a B707023E 		li	a5,1040318464
 1896              		.loc 2 1099 56
 1897 104e 23A00700 		sw	zero,0(a5)
1100:../src/platform/mpfs_hal/common/nwc/mss_ddr.c ****                         /* SET VREF HERE */
1101:../src/platform/mpfs_hal/common/nwc/mss_ddr.c ****                         delay(DELAY_CYCLES_500_NS);
 1898              		.loc 2 1101 25
 1899 1052 1305C012 		li	a0,300
 1900 1056 97000000 		call	delay
 1900      E7800000 
1102:../src/platform/mpfs_hal/common/nwc/mss_ddr.c ****                         if(vref_answer == 128U)
 1901              		.loc 2 1102 27
 1902 105e 832704FD 		lw	a5,-48(s0)
 1903 1062 1B870700 		sext.w	a4,a5
 1904 1066 93070008 		li	a5,128
 1905 106a 6312F704 		bne	a4,a5,.L117
1103:../src/platform/mpfs_hal/common/nwc/mss_ddr.c ****                         {
1104:../src/platform/mpfs_hal/common/nwc/mss_ddr.c ****                             vref_answer = 0x10U;
 1906              		.loc 2 1104 41
 1907 106e C147     		li	a5,16
 1908 1070 2328F4FC 		sw	a5,-48(s0)
1105:../src/platform/mpfs_hal/common/nwc/mss_ddr.c ****                             dpc_bits_new=( CFG_DDR_SGMII_PHY->DPC_BITS.DPC_BITS & 0xFFFC0FFF ) | (v
 1909              		.loc 2 1105 61
 1910 1074 97070000 		lla	a5,CFG_DDR_SGMII_PHY
 1910      93870700 
 1911 107c 9C63     		ld	a5,0(a5)
 1912              		.loc 2 1105 71
 1913 107e 83A74718 		lw	a5,388(a5)
 1914 1082 8127     		sext.w	a5,a5
 1915              		.loc 2 1105 81
 1916 1084 3E87     		mv	a4,a5
 1917 1086 B717FCFF 		li	a5,-258048
 1918 108a FD17     		addi	a5,a5,-1
 1919 108c F98F     		and	a5,a4,a5
 1920 108e 1B870700 		sext.w	a4,a5
 1921              		.loc 2 1105 111
 1922 1092 832704FD 		lw	a5,-48(s0)
 1923 1096 9B97C700 		slliw	a5,a5,12
 1924 109a 8127     		sext.w	a5,a5
 1925              		.loc 2 1105 96
 1926 109c D98F     		or	a5,a4,a5
 1927 109e 8127     		sext.w	a5,a5
 1928              		.loc 2 1105 41
 1929 10a0 3E87     		mv	a4,a5
 1930 10a2 B7070400 		li	a5,262144
 1931 10a6 D98F     		or	a5,a4,a5
 1932 10a8 232AF4FC 		sw	a5,-44(s0)
 1933 10ac 2DA8     		j	.L118
 1934              	.L117:
1106:../src/platform/mpfs_hal/common/nwc/mss_ddr.c ****                         }
1107:../src/platform/mpfs_hal/common/nwc/mss_ddr.c ****                         else
1108:../src/platform/mpfs_hal/common/nwc/mss_ddr.c ****                         {
1109:../src/platform/mpfs_hal/common/nwc/mss_ddr.c ****                             vref_answer = vref_answer;
1110:../src/platform/mpfs_hal/common/nwc/mss_ddr.c ****                             dpc_bits_new=( CFG_DDR_SGMII_PHY->DPC_BITS.DPC_BITS & 0xFFFC0FFF ) | (v
 1935              		.loc 2 1110 61
 1936 10ae 97070000 		lla	a5,CFG_DDR_SGMII_PHY
 1936      93870700 
 1937 10b6 9C63     		ld	a5,0(a5)
 1938              		.loc 2 1110 71
 1939 10b8 83A74718 		lw	a5,388(a5)
 1940 10bc 8127     		sext.w	a5,a5
 1941              		.loc 2 1110 81
 1942 10be 3E87     		mv	a4,a5
 1943 10c0 B717FCFF 		li	a5,-258048
 1944 10c4 FD17     		addi	a5,a5,-1
 1945 10c6 F98F     		and	a5,a4,a5
 1946 10c8 1B870700 		sext.w	a4,a5
 1947              		.loc 2 1110 111
 1948 10cc 832704FD 		lw	a5,-48(s0)
 1949 10d0 9B97C700 		slliw	a5,a5,12
 1950 10d4 8127     		sext.w	a5,a5
 1951              		.loc 2 1110 96
 1952 10d6 D98F     		or	a5,a4,a5
 1953 10d8 8127     		sext.w	a5,a5
 1954              		.loc 2 1110 41
 1955 10da 3E87     		mv	a4,a5
 1956 10dc B7070400 		li	a5,262144
 1957 10e0 D98F     		or	a5,a4,a5
 1958 10e2 232AF4FC 		sw	a5,-44(s0)
 1959              	.L118:
1111:../src/platform/mpfs_hal/common/nwc/mss_ddr.c ****                         }
1112:../src/platform/mpfs_hal/common/nwc/mss_ddr.c **** 
1113:../src/platform/mpfs_hal/common/nwc/mss_ddr.c ****                         CFG_DDR_SGMII_PHY->DPC_BITS.DPC_BITS=dpc_bits_new;
 1960              		.loc 2 1113 42
 1961 10e6 97070000 		lla	a5,CFG_DDR_SGMII_PHY
 1961      93870700 
 1962 10ee 9C63     		ld	a5,0(a5)
 1963              		.loc 2 1113 61
 1964 10f0 032744FD 		lw	a4,-44(s0)
 1965 10f4 23A2E718 		sw	a4,388(a5)
1114:../src/platform/mpfs_hal/common/nwc/mss_ddr.c ****                         delay(DELAY_CYCLES_500_NS);
 1966              		.loc 2 1114 25
 1967 10f8 1305C012 		li	a0,300
 1968 10fc 97000000 		call	delay
 1968      E7800000 
1115:../src/platform/mpfs_hal/common/nwc/mss_ddr.c ****                         IOSCB_BANKCONT_DDR->soft_reset = 1U;  /* DPC_BITS   NV_MAP  reset */
 1969              		.loc 2 1115 43
 1970 1104 B707023E 		li	a5,1040318464
 1971              		.loc 2 1115 56
 1972 1108 0547     		li	a4,1
 1973 110a 98C3     		sw	a4,0(a5)
1116:../src/platform/mpfs_hal/common/nwc/mss_ddr.c ****                         delay(DELAY_CYCLES_500_MICRO);
 1974              		.loc 2 1116 25
 1975 110c B7970400 		li	a5,299008
 1976 1110 1385073E 		addi	a0,a5,992
 1977 1114 97000000 		call	delay
 1977      E7800000 
 1978              	.LBE12:
1117:../src/platform/mpfs_hal/common/nwc/mss_ddr.c **** 
1118:../src/platform/mpfs_hal/common/nwc/mss_ddr.c ****                     }/* end vref_training; */
1119:../src/platform/mpfs_hal/common/nwc/mss_ddr.c **** 
1120:../src/platform/mpfs_hal/common/nwc/mss_ddr.c ****                     if ((ddr_type == DDR3)||(ddr_type == DDR3L))
 1979              		.loc 2 1120 24
 1980 111c 8327C4F7 		lw	a5,-132(s0)
 1981 1120 8127     		sext.w	a5,a5
 1982 1122 81CB     		beq	a5,zero,.L119
 1983              		.loc 2 1120 43 discriminator 1
 1984 1124 8327C4F7 		lw	a5,-132(s0)
 1985 1128 1B870700 		sext.w	a4,a5
 1986 112c 8547     		li	a5,1
 1987 112e 631CF702 		bne	a4,a5,.L120
 1988              	.L119:
1121:../src/platform/mpfs_hal/common/nwc/mss_ddr.c ****                     {
1122:../src/platform/mpfs_hal/common/nwc/mss_ddr.c ****                         ddr3_address_cmd_training(ddr_type, &refclk_sweep_index, retry_count, &bclk
 1989              		.loc 2 1122 25
 1990 1132 97070000 		lla	a5,retry_count.14233
 1990      93870700 
 1991 113a 9043     		lw	a2,0(a5)
 1992 113c 9307C4F2 		addi	a5,s0,-212
 1993 1140 130704F3 		addi	a4,s0,-208
 1994 1144 930644F3 		addi	a3,s0,-204
 1995 1148 0325C4F7 		lw	a0,-132(s0)
 1996 114c 17080000 		lla	a6,refclk_offset.14239
 1996      13080800 
 1997 1154 97050000 		lla	a1,refclk_sweep_index.14240
 1997      93850500 
 1998 115c 97000000 		call	ddr3_address_cmd_training
 1998      E7800000 
 1999 1164 09A2     		j	.L121
 2000              	.L120:
1123:../src/platform/mpfs_hal/common/nwc/mss_ddr.c ****                     }
1124:../src/platform/mpfs_hal/common/nwc/mss_ddr.c ****                     else if (ddr_type != LPDDR4)
 2001              		.loc 2 1124 29
 2002 1166 8327C4F7 		lw	a5,-132(s0)
 2003 116a 1B870700 		sext.w	a4,a5
 2004 116e 9147     		li	a5,4
 2005 1170 6304F702 		beq	a4,a5,.L122
1125:../src/platform/mpfs_hal/common/nwc/mss_ddr.c ****                     {
1126:../src/platform/mpfs_hal/common/nwc/mss_ddr.c ****                         non_lpddr4_address_cmd_training(ddr_type, &refclk_sweep_index, &bclk_phase,
 2006              		.loc 2 1126 25
 2007 1174 1307C4F2 		addi	a4,s0,-212
 2008 1178 930604F3 		addi	a3,s0,-208
 2009 117c 130644F3 		addi	a2,s0,-204
 2010 1180 8327C4F7 		lw	a5,-132(s0)
 2011 1184 97050000 		lla	a1,refclk_sweep_index.14240
 2011      93850500 
 2012 118c 3E85     		mv	a0,a5
 2013 118e 97000000 		call	non_lpddr4_address_cmd_training
 2013      E7800000 
 2014 1196 C1A8     		j	.L121
 2015              	.L122:
1127:../src/platform/mpfs_hal/common/nwc/mss_ddr.c ****                     }   /* END MANUAL BCLKSCLK TRAINING */
1128:../src/platform/mpfs_hal/common/nwc/mss_ddr.c ****                     else /* LPDDR4 */
1129:../src/platform/mpfs_hal/common/nwc/mss_ddr.c ****                     {
1130:../src/platform/mpfs_hal/common/nwc/mss_ddr.c ****                         /* PRE_INITIALIZATION when using LPDDR4 */
1131:../src/platform/mpfs_hal/common/nwc/mss_ddr.c ****                         refclk_phase =(0x7U)<<2U;
 2016              		.loc 2 1131 38
 2017 1198 F147     		li	a5,28
 2018 119a 2326F4F2 		sw	a5,-212(s0)
1132:../src/platform/mpfs_hal/common/nwc/mss_ddr.c ****                         bclk_phase=MSS_SCB_DDR_PLL->PLL_PHADJ & 0x700;
 2019              		.loc 2 1132 51
 2020 119e 97070000 		lla	a5,MSS_SCB_DDR_PLL
 2020      93870700 
 2021 11a6 9C63     		ld	a5,0(a5)
 2022 11a8 9C53     		lw	a5,32(a5)
 2023 11aa 8127     		sext.w	a5,a5
 2024              		.loc 2 1132 63
 2025 11ac 93F70770 		andi	a5,a5,1792
 2026 11b0 8127     		sext.w	a5,a5
 2027              		.loc 2 1132 35
 2028 11b2 232AF4F2 		sw	a5,-204(s0)
1133:../src/platform/mpfs_hal/common/nwc/mss_ddr.c ****                         bclk90_phase=MSS_SCB_DDR_PLL->PLL_PHADJ & 0x3800;
 2029              		.loc 2 1133 53
 2030 11b6 97070000 		lla	a5,MSS_SCB_DDR_PLL
 2030      93870700 
 2031 11be 9C63     		ld	a5,0(a5)
 2032 11c0 9C53     		lw	a5,32(a5)
 2033 11c2 8127     		sext.w	a5,a5
 2034              		.loc 2 1133 65
 2035 11c4 3E87     		mv	a4,a5
 2036 11c6 9167     		li	a5,16384
 2037 11c8 93870780 		addi	a5,a5,-2048
 2038 11cc F98F     		and	a5,a4,a5
 2039 11ce 8127     		sext.w	a5,a5
 2040              		.loc 2 1133 37
 2041 11d0 2328F4F2 		sw	a5,-208(s0)
1134:../src/platform/mpfs_hal/common/nwc/mss_ddr.c ****                         MSS_SCB_DDR_PLL->PLL_PHADJ      = (0x00004003UL | bclk_phase | bclk90_phase
 2042              		.loc 2 1134 57
 2043 11d4 032744F3 		lw	a4,-204(s0)
 2044 11d8 832704F3 		lw	a5,-208(s0)
 2045 11dc D98F     		or	a5,a4,a5
 2046 11de 1B870700 		sext.w	a4,a5
 2047 11e2 8327C4F2 		lw	a5,-212(s0)
 2048 11e6 D98F     		or	a5,a4,a5
 2049 11e8 1B870700 		sext.w	a4,a5
 2050              		.loc 2 1134 40
 2051 11ec 97070000 		lla	a5,MSS_SCB_DDR_PLL
 2051      93870700 
 2052 11f4 9C63     		ld	a5,0(a5)
 2053              		.loc 2 1134 57
 2054 11f6 BA86     		mv	a3,a4
 2055 11f8 1167     		li	a4,16384
 2056 11fa 0D07     		addi	a4,a4,3
 2057 11fc 558F     		or	a4,a3,a4
 2058 11fe 0127     		sext.w	a4,a4
 2059 1200 98D3     		sw	a4,32(a5)
1135:../src/platform/mpfs_hal/common/nwc/mss_ddr.c ****                         MSS_SCB_DDR_PLL->PLL_PHADJ      = (0x00000003UL | bclk_phase | bclk90_phase
 2060              		.loc 2 1135 57
 2061 1202 032744F3 		lw	a4,-204(s0)
 2062 1206 832704F3 		lw	a5,-208(s0)
 2063 120a D98F     		or	a5,a4,a5
 2064 120c 1B870700 		sext.w	a4,a5
 2065 1210 8327C4F2 		lw	a5,-212(s0)
 2066 1214 D98F     		or	a5,a4,a5
 2067 1216 1B870700 		sext.w	a4,a5
 2068              		.loc 2 1135 40
 2069 121a 97070000 		lla	a5,MSS_SCB_DDR_PLL
 2069      93870700 
 2070 1222 9C63     		ld	a5,0(a5)
 2071              		.loc 2 1135 57
 2072 1224 13673700 		ori	a4,a4,3
 2073 1228 0127     		sext.w	a4,a4
 2074 122a 98D3     		sw	a4,32(a5)
1136:../src/platform/mpfs_hal/common/nwc/mss_ddr.c ****                         MSS_SCB_DDR_PLL->PLL_PHADJ      = (0x00004003UL | bclk_phase | bclk90_phase
 2075              		.loc 2 1136 57
 2076 122c 032744F3 		lw	a4,-204(s0)
 2077 1230 832704F3 		lw	a5,-208(s0)
 2078 1234 D98F     		or	a5,a4,a5
 2079 1236 1B870700 		sext.w	a4,a5
 2080 123a 8327C4F2 		lw	a5,-212(s0)
 2081 123e D98F     		or	a5,a4,a5
 2082 1240 1B870700 		sext.w	a4,a5
 2083              		.loc 2 1136 40
 2084 1244 97070000 		lla	a5,MSS_SCB_DDR_PLL
 2084      93870700 
 2085 124c 9C63     		ld	a5,0(a5)
 2086              		.loc 2 1136 57
 2087 124e BA86     		mv	a3,a4
 2088 1250 1167     		li	a4,16384
 2089 1252 0D07     		addi	a4,a4,3
 2090 1254 558F     		or	a4,a3,a4
 2091 1256 0127     		sext.w	a4,a4
 2092 1258 98D3     		sw	a4,32(a5)
1137:../src/platform/mpfs_hal/common/nwc/mss_ddr.c ****                         delay(DELAY_CYCLES_500_NS);
 2093              		.loc 2 1137 25
 2094 125a 1305C012 		li	a0,300
 2095 125e 97000000 		call	delay
 2095      E7800000 
 2096              	.L121:
1138:../src/platform/mpfs_hal/common/nwc/mss_ddr.c ****                     }
1139:../src/platform/mpfs_hal/common/nwc/mss_ddr.c ****                                             
1140:../src/platform/mpfs_hal/common/nwc/mss_ddr.c **** #ifdef DEBUG_DDR_INIT
1141:../src/platform/mpfs_hal/common/nwc/mss_ddr.c ****                     (void)uprint32(g_debug_uart,  "\n\r Returning FPGA CA VREF & CA drive to user s
1142:../src/platform/mpfs_hal/common/nwc/mss_ddr.c **** #endif
1143:../src/platform/mpfs_hal/common/nwc/mss_ddr.c ****                     /* SET VREF BACK TO CONFIGURED VALUE */
1144:../src/platform/mpfs_hal/common/nwc/mss_ddr.c ****                     IOSCB_BANKCONT_DDR->soft_reset = 0U;  /* DPC_BITS   NV_MAP  reset */
 2097              		.loc 2 1144 39
 2098 1266 B707023E 		li	a5,1040318464
 2099              		.loc 2 1144 52
 2100 126a 23A00700 		sw	zero,0(a5)
1145:../src/platform/mpfs_hal/common/nwc/mss_ddr.c ****                     delay(DELAY_CYCLES_500_NS);
 2101              		.loc 2 1145 21
 2102 126e 1305C012 		li	a0,300
 2103 1272 97000000 		call	delay
 2103      E7800000 
1146:../src/platform/mpfs_hal/common/nwc/mss_ddr.c **** 
1147:../src/platform/mpfs_hal/common/nwc/mss_ddr.c ****                     CFG_DDR_SGMII_PHY->DPC_BITS.DPC_BITS=\
1148:../src/platform/mpfs_hal/common/nwc/mss_ddr.c ****                             ( CFG_DDR_SGMII_PHY->DPC_BITS.DPC_BITS & 0xFFFC0FFF ) | (ca_vref <<12U)
 2104              		.loc 2 1148 48
 2105 127a 97070000 		lla	a5,CFG_DDR_SGMII_PHY
 2105      93870700 
 2106 1282 9C63     		ld	a5,0(a5)
 2107              		.loc 2 1148 58
 2108 1284 83A74718 		lw	a5,388(a5)
 2109 1288 8127     		sext.w	a5,a5
 2110              		.loc 2 1148 68
 2111 128a 3E87     		mv	a4,a5
 2112 128c B717FCFF 		li	a5,-258048
 2113 1290 FD17     		addi	a5,a5,-1
 2114 1292 F98F     		and	a5,a4,a5
 2115 1294 1B870700 		sext.w	a4,a5
 2116              		.loc 2 1148 94
 2117 1298 832704F6 		lw	a5,-160(s0)
 2118 129c 9B97C700 		slliw	a5,a5,12
 2119 12a0 8127     		sext.w	a5,a5
 2120              		.loc 2 1148 83
 2121 12a2 D98F     		or	a5,a4,a5
 2122 12a4 1B870700 		sext.w	a4,a5
1147:../src/platform/mpfs_hal/common/nwc/mss_ddr.c ****                             ( CFG_DDR_SGMII_PHY->DPC_BITS.DPC_BITS & 0xFFFC0FFF ) | (ca_vref <<12U)
 2123              		.loc 2 1147 38
 2124 12a8 97070000 		lla	a5,CFG_DDR_SGMII_PHY
 2124      93870700 
 2125 12b0 9C63     		ld	a5,0(a5)
 2126              		.loc 2 1148 101
 2127 12b2 BA86     		mv	a3,a4
 2128 12b4 37070400 		li	a4,262144
 2129 12b8 558F     		or	a4,a3,a4
 2130 12ba 0127     		sext.w	a4,a4
1147:../src/platform/mpfs_hal/common/nwc/mss_ddr.c ****                             ( CFG_DDR_SGMII_PHY->DPC_BITS.DPC_BITS & 0xFFFC0FFF ) | (ca_vref <<12U)
 2131              		.loc 2 1147 57
 2132 12bc 23A2E718 		sw	a4,388(a5)
1149:../src/platform/mpfs_hal/common/nwc/mss_ddr.c ****                     delay(DELAY_CYCLES_500_NS);
 2133              		.loc 2 1149 21
 2134 12c0 1305C012 		li	a0,300
 2135 12c4 97000000 		call	delay
 2135      E7800000 
1150:../src/platform/mpfs_hal/common/nwc/mss_ddr.c ****                     IOSCB_BANKCONT_DDR->soft_reset = 1U;  /* DPC_BITS   NV_MAP  reset */
 2136              		.loc 2 1150 39
 2137 12cc B707023E 		li	a5,1040318464
 2138              		.loc 2 1150 52
 2139 12d0 0547     		li	a4,1
 2140 12d2 98C3     		sw	a4,0(a5)
1151:../src/platform/mpfs_hal/common/nwc/mss_ddr.c ****                     delay(DELAY_CYCLES_500_NS);
 2141              		.loc 2 1151 21
 2142 12d4 1305C012 		li	a0,300
 2143 12d8 97000000 		call	delay
 2143      E7800000 
1152:../src/platform/mpfs_hal/common/nwc/mss_ddr.c ****                     /* SET CA DRV BACK TO CONFIGURED VALUE */
1153:../src/platform/mpfs_hal/common/nwc/mss_ddr.c ****                     CFG_DDR_SGMII_PHY->rpc1_DRV.rpc1_DRV=ca_drv; //return ca_drv to original value
 2144              		.loc 2 1153 38
 2145 12e0 97070000 		lla	a5,CFG_DDR_SGMII_PHY
 2145      93870700 
 2146 12e8 9C63     		ld	a5,0(a5)
 2147              		.loc 2 1153 57
 2148 12ea 032744F6 		lw	a4,-156(s0)
 2149 12ee 23A2E730 		sw	a4,772(a5)
1154:../src/platform/mpfs_hal/common/nwc/mss_ddr.c ****                     ddr_training_state = DDR_TRAINING_IP_SM_START;
 2150              		.loc 2 1154 40
 2151 12f2 97070000 		lla	a5,ddr_training_state.14230
 2151      93870700 
 2152 12fa 4D47     		li	a4,19
 2153 12fc 98C3     		sw	a4,0(a5)
 2154              	.LBE11:
 2155              	.LBE6:
1155:../src/platform/mpfs_hal/common/nwc/mss_ddr.c ****                 }
1156:../src/platform/mpfs_hal/common/nwc/mss_ddr.c ****             }
1157:../src/platform/mpfs_hal/common/nwc/mss_ddr.c ****             if(--timeout == 0U)
 2156              		.loc 2 1157 16
 2157 12fe 97070000 		lla	a5,timeout.14232
 2157      93870700 
 2158 1306 9C43     		lw	a5,0(a5)
 2159 1308 FD37     		addiw	a5,a5,-1
 2160 130a 1B870700 		sext.w	a4,a5
 2161              		.loc 2 1157 15
 2162 130e 97070000 		lla	a5,timeout.14232
 2162      93870700 
 2163 1316 98C3     		sw	a4,0(a5)
 2164              		.loc 2 1157 16
 2165 1318 97070000 		lla	a5,timeout.14232
 2165      93870700 
 2166 1320 9C43     		lw	a5,0(a5)
 2167              		.loc 2 1157 15
 2168 1322 99C36F10 		bne	a5,zero,.L202
 2168      602B
1158:../src/platform/mpfs_hal/common/nwc/mss_ddr.c ****             {
1159:../src/platform/mpfs_hal/common/nwc/mss_ddr.c ****                 ddr_training_state = DDR_TRAINING_FAIL_BCLKSCLK_SW;
 2169              		.loc 2 1159 36
 2170 1328 97070000 		lla	a5,ddr_training_state.14230
 2170      93870700 
 2171 1330 13074003 		li	a4,52
 2172 1334 98C3     		sw	a4,0(a5)
1160:../src/platform/mpfs_hal/common/nwc/mss_ddr.c ****             }
1161:../src/platform/mpfs_hal/common/nwc/mss_ddr.c ****             break;
 2173              		.loc 2 1161 13
 2174 1336 6F10402A 		j	.L202
 2175              	.L51:
1162:../src/platform/mpfs_hal/common/nwc/mss_ddr.c ****         case DDR_TRAINING_IP_SM_START:
1163:../src/platform/mpfs_hal/common/nwc/mss_ddr.c ****             {
1164:../src/platform/mpfs_hal/common/nwc/mss_ddr.c ****                 CFG_DDR_SGMII_PHY->training_skip.training_skip      =\
 2176              		.loc 2 1164 34
 2177 133a 97070000 		lla	a5,CFG_DDR_SGMII_PHY
 2177      93870700 
 2178 1342 9863     		ld	a4,0(a5)
 2179              		.loc 2 1164 69
 2180 1344 8567     		li	a5,4096
 2181 1346 BA97     		add	a5,a4,a5
 2182 1348 0947     		li	a4,2
 2183 134a 23A6E780 		sw	a4,-2036(a5)
1165:../src/platform/mpfs_hal/common/nwc/mss_ddr.c ****                                         LIBERO_SETTING_TRAINING_SKIP_SETTING;
1166:../src/platform/mpfs_hal/common/nwc/mss_ddr.c ****                 if ((ddr_type == DDR3)||(ddr_type == DDR3L)||(ddr_type == LPDDR3)||(ddr_type == LPD
 2184              		.loc 2 1166 20
 2185 134e 8327C4F7 		lw	a5,-132(s0)
 2186 1352 8127     		sext.w	a5,a5
 2187 1354 8DCF     		beq	a5,zero,.L124
 2188              		.loc 2 1166 39 discriminator 1
 2189 1356 8327C4F7 		lw	a5,-132(s0)
 2190 135a 1B870700 		sext.w	a4,a5
 2191 135e 8547     		li	a5,1
 2192 1360 6307F702 		beq	a4,a5,.L124
 2193              		.loc 2 1166 60 discriminator 2
 2194 1364 8327C4F7 		lw	a5,-132(s0)
 2195 1368 1B870700 		sext.w	a4,a5
 2196 136c 8D47     		li	a5,3
 2197 136e 6300F702 		beq	a4,a5,.L124
 2198              		.loc 2 1166 82 discriminator 3
 2199 1372 8327C4F7 		lw	a5,-132(s0)
 2200 1376 1B870700 		sext.w	a4,a5
 2201 137a 9147     		li	a5,4
 2202 137c 6309F700 		beq	a4,a5,.L124
 2203              		.loc 2 1166 104 discriminator 4
 2204 1380 8327C4F7 		lw	a5,-132(s0)
 2205 1384 1B870700 		sext.w	a4,a5
 2206 1388 8947     		li	a5,2
 2207 138a 6319F700 		bne	a4,a5,.L125
 2208              	.L124:
1167:../src/platform/mpfs_hal/common/nwc/mss_ddr.c ****                 {
1168:../src/platform/mpfs_hal/common/nwc/mss_ddr.c ****                     /* RX_MD_CLKN */
1169:../src/platform/mpfs_hal/common/nwc/mss_ddr.c ****                     CFG_DDR_SGMII_PHY->rpc168.rpc168 = 0x0U;
 2209              		.loc 2 1169 38
 2210 138e 97070000 		lla	a5,CFG_DDR_SGMII_PHY
 2210      93870700 
 2211 1396 9C63     		ld	a5,0(a5)
 2212              		.loc 2 1169 54
 2213 1398 23A0076A 		sw	zero,1696(a5)
 2214              	.L125:
1170:../src/platform/mpfs_hal/common/nwc/mss_ddr.c ****                 }
1171:../src/platform/mpfs_hal/common/nwc/mss_ddr.c ****                 
1172:../src/platform/mpfs_hal/common/nwc/mss_ddr.c **** #ifdef DDR_TRAINING_IP_SM_START_DELAY
1173:../src/platform/mpfs_hal/common/nwc/mss_ddr.c ****                 delay(DELAY_CYCLES_5_MICRO);
1174:../src/platform/mpfs_hal/common/nwc/mss_ddr.c **** #endif
1175:../src/platform/mpfs_hal/common/nwc/mss_ddr.c ****                 /* release reset to training */
1176:../src/platform/mpfs_hal/common/nwc/mss_ddr.c ****                 CFG_DDR_SGMII_PHY->training_reset.training_reset    = 0x00000000U;
 2215              		.loc 2 1176 34
 2216 139c 97070000 		lla	a5,CFG_DDR_SGMII_PHY
 2216      93870700 
 2217 13a4 9863     		ld	a4,0(a5)
 2218              		.loc 2 1176 69
 2219 13a6 8567     		li	a5,4096
 2220 13a8 BA97     		add	a5,a4,a5
 2221 13aa 23AC0780 		sw	zero,-2024(a5)
1177:../src/platform/mpfs_hal/common/nwc/mss_ddr.c **** #ifdef IP_SM_START_TRAINING_PAUSE
1178:../src/platform/mpfs_hal/common/nwc/mss_ddr.c ****                 CFG_DDR_SGMII_PHY->expert_mode_en.expert_mode_en = 0xffU;
1179:../src/platform/mpfs_hal/common/nwc/mss_ddr.c ****                 delay(DELAY_CYCLES_5_MICRO);
1180:../src/platform/mpfs_hal/common/nwc/mss_ddr.c ****                 CFG_DDR_SGMII_PHY->expert_dlycnt_pause.expert_dlycnt_pause = 0x00000000U;
1181:../src/platform/mpfs_hal/common/nwc/mss_ddr.c ****                 CFG_DDR_SGMII_PHY->expert_dlycnt_pause.expert_dlycnt_pause = 0x0000003FU;
1182:../src/platform/mpfs_hal/common/nwc/mss_ddr.c ****                 CFG_DDR_SGMII_PHY->expert_dlycnt_pause.expert_dlycnt_pause = 0x00000000U;
1183:../src/platform/mpfs_hal/common/nwc/mss_ddr.c ****                 delay(DELAY_CYCLES_5_MICRO);
1184:../src/platform/mpfs_hal/common/nwc/mss_ddr.c ****                 CFG_DDR_SGMII_PHY->expert_mode_en.expert_mode_en = 0x00U;
1185:../src/platform/mpfs_hal/common/nwc/mss_ddr.c ****                 delay(DELAY_CYCLES_5_MICRO);
1186:../src/platform/mpfs_hal/common/nwc/mss_ddr.c **** #endif
1187:../src/platform/mpfs_hal/common/nwc/mss_ddr.c ****             }
1188:../src/platform/mpfs_hal/common/nwc/mss_ddr.c ****             {
1189:../src/platform/mpfs_hal/common/nwc/mss_ddr.c ****                 DDRCFG->DFI.PHY_DFI_INIT_START.PHY_DFI_INIT_START   =\
 2222              		.loc 2 1189 23
 2223 13ae 97070000 		lla	a5,DDRCFG
 2223      93870700 
 2224 13b6 9863     		ld	a4,0(a5)
 2225              		.loc 2 1189 69
 2226 13b8 C167     		li	a5,65536
 2227 13ba BA97     		add	a5,a4,a5
 2228 13bc 23A80704 		sw	zero,80(a5)
1190:../src/platform/mpfs_hal/common/nwc/mss_ddr.c ****                                                                     0x00000000U;
1191:../src/platform/mpfs_hal/common/nwc/mss_ddr.c ****                 /* kick off training- DDRC, set dfi_init_start */
1192:../src/platform/mpfs_hal/common/nwc/mss_ddr.c ****                 DDRCFG->DFI.PHY_DFI_INIT_START.PHY_DFI_INIT_START   =\
 2229              		.loc 2 1192 23
 2230 13c0 97070000 		lla	a5,DDRCFG
 2230      93870700 
 2231 13c8 9863     		ld	a4,0(a5)
 2232              		.loc 2 1192 69
 2233 13ca C167     		li	a5,65536
 2234 13cc BA97     		add	a5,a4,a5
 2235 13ce 0547     		li	a4,1
 2236 13d0 B8CB     		sw	a4,80(a5)
1193:../src/platform/mpfs_hal/common/nwc/mss_ddr.c ****                                                                     0x00000001U;
1194:../src/platform/mpfs_hal/common/nwc/mss_ddr.c ****                 DDRCFG->MC_BASE2.CTRLR_INIT.CTRLR_INIT = 0x00000000U;
 2237              		.loc 2 1194 23
 2238 13d2 97070000 		lla	a5,DDRCFG
 2238      93870700 
 2239 13da 9863     		ld	a4,0(a5)
 2240              		.loc 2 1194 56
 2241 13dc 9167     		li	a5,16384
 2242 13de BA97     		add	a5,a4,a5
 2243 13e0 23AC0702 		sw	zero,56(a5)
1195:../src/platform/mpfs_hal/common/nwc/mss_ddr.c ****                 DDRCFG->MC_BASE2.CTRLR_INIT.CTRLR_INIT = 0x00000001U;
 2244              		.loc 2 1195 23
 2245 13e4 97070000 		lla	a5,DDRCFG
 2245      93870700 
 2246 13ec 9863     		ld	a4,0(a5)
 2247              		.loc 2 1195 56
 2248 13ee 9167     		li	a5,16384
 2249 13f0 BA97     		add	a5,a4,a5
 2250 13f2 0547     		li	a4,1
 2251 13f4 98DF     		sw	a4,56(a5)
1196:../src/platform/mpfs_hal/common/nwc/mss_ddr.c **** 
1197:../src/platform/mpfs_hal/common/nwc/mss_ddr.c ****                 timeout = 0xFFFF;
 2252              		.loc 2 1197 25
 2253 13f6 97070000 		lla	a5,timeout.14232
 2253      93870700 
 2254 13fe 4167     		li	a4,65536
 2255 1400 7D17     		addi	a4,a4,-1
 2256 1402 98C3     		sw	a4,0(a5)
1198:../src/platform/mpfs_hal/common/nwc/mss_ddr.c ****                 ddr_training_state = DDR_TRAINING_IP_SM_START_CHECK;
 2257              		.loc 2 1198 36
 2258 1404 97070000 		lla	a5,ddr_training_state.14230
 2258      93870700 
 2259 140c 5147     		li	a4,20
 2260 140e 98C3     		sw	a4,0(a5)
1199:../src/platform/mpfs_hal/common/nwc/mss_ddr.c ****             }
1200:../src/platform/mpfs_hal/common/nwc/mss_ddr.c **** #ifdef DEBUG_DDR_INIT
1201:../src/platform/mpfs_hal/common/nwc/mss_ddr.c **** #ifdef MANUAL_ADDCMD_TRAINIG
1202:../src/platform/mpfs_hal/common/nwc/mss_ddr.c ****             (void)uprint32(g_debug_uart,  "\n\r\n\r ADDCMD_OFFSET ", refclk_offset);
1203:../src/platform/mpfs_hal/common/nwc/mss_ddr.c **** #endif
1204:../src/platform/mpfs_hal/common/nwc/mss_ddr.c **** #endif
1205:../src/platform/mpfs_hal/common/nwc/mss_ddr.c ****             break;
 2261              		.loc 2 1205 13
 2262 1410 6F10401E 		j	.L69
 2263              	.L50:
1206:../src/platform/mpfs_hal/common/nwc/mss_ddr.c ****         case DDR_TRAINING_IP_SM_START_CHECK:
1207:../src/platform/mpfs_hal/common/nwc/mss_ddr.c **** #ifndef RENODE_DEBUG
1208:../src/platform/mpfs_hal/common/nwc/mss_ddr.c ****             if((DDRCFG->DFI.STAT_DFI_INIT_COMPLETE.STAT_DFI_INIT_COMPLETE\
 2264              		.loc 2 1208 23
 2265 1414 97070000 		lla	a5,DDRCFG
 2265      93870700 
 2266 141c 9863     		ld	a4,0(a5)
 2267              		.loc 2 1208 51
 2268 141e C167     		li	a5,65536
 2269 1420 BA97     		add	a5,a4,a5
 2270 1422 DC5B     		lw	a5,52(a5)
 2271 1424 8127     		sext.w	a5,a5
1209:../src/platform/mpfs_hal/common/nwc/mss_ddr.c ****                     & 0x01U) == 0x01U)
 2272              		.loc 2 1209 21
 2273 1426 858B     		andi	a5,a5,1
 2274 1428 8127     		sext.w	a5,a5
1208:../src/platform/mpfs_hal/common/nwc/mss_ddr.c ****                     & 0x01U) == 0x01U)
 2275              		.loc 2 1208 15
 2276 142a 3E87     		mv	a4,a5
 2277 142c 8547     		li	a5,1
 2278 142e 631BF704 		bne	a4,a5,.L126
1210:../src/platform/mpfs_hal/common/nwc/mss_ddr.c **** #endif
1211:../src/platform/mpfs_hal/common/nwc/mss_ddr.c ****             {
1212:../src/platform/mpfs_hal/common/nwc/mss_ddr.c **** #ifdef LANE_ALIGNMENT_RESET_REQUIRED
1213:../src/platform/mpfs_hal/common/nwc/mss_ddr.c ****                 CFG_DDR_SGMII_PHY->lane_alignment_fifo_control.lane_alignment_fifo_control = 0x00U;
1214:../src/platform/mpfs_hal/common/nwc/mss_ddr.c ****                 CFG_DDR_SGMII_PHY->lane_alignment_fifo_control.lane_alignment_fifo_control = 0x02U;
1215:../src/platform/mpfs_hal/common/nwc/mss_ddr.c **** #endif
1216:../src/platform/mpfs_hal/common/nwc/mss_ddr.c ****                 if(ddr_type == LPDDR4)
 2279              		.loc 2 1216 19
 2280 1432 8327C4F7 		lw	a5,-132(s0)
 2281 1436 1B870700 		sext.w	a4,a5
 2282 143a 9147     		li	a5,4
 2283 143c 6317F702 		bne	a4,a5,.L197
1217:../src/platform/mpfs_hal/common/nwc/mss_ddr.c ****                 {
1218:../src/platform/mpfs_hal/common/nwc/mss_ddr.c ****                     lpddr4_manual_training(ddr_type, &refclk_sweep_index, retry_count, &refclk_offs
 2284              		.loc 2 1218 21
 2285 1440 97070000 		lla	a5,retry_count.14233
 2285      93870700 
 2286 1448 9843     		lw	a4,0(a5)
 2287 144a 8327C4F7 		lw	a5,-132(s0)
 2288 144e 97060000 		lla	a3,refclk_offset.14239
 2288      93860600 
 2289 1456 3A86     		mv	a2,a4
 2290 1458 97050000 		lla	a1,refclk_sweep_index.14240
 2290      93850500 
 2291 1460 3E85     		mv	a0,a5
 2292 1462 97000000 		call	lpddr4_manual_training
 2292      E7800000 
 2293              	.L197:
1219:../src/platform/mpfs_hal/common/nwc/mss_ddr.c ****                 } /* end of LPDDR4 exclusive */
1220:../src/platform/mpfs_hal/common/nwc/mss_ddr.c **** 
1221:../src/platform/mpfs_hal/common/nwc/mss_ddr.c **** #ifdef DEBUG_DDR_INIT
1222:../src/platform/mpfs_hal/common/nwc/mss_ddr.c ****                 (void)uprint32(g_debug_uart, \
1223:../src/platform/mpfs_hal/common/nwc/mss_ddr.c ****                         "\n\r\n\r pll_phadj_after_hw_training ",\
1224:../src/platform/mpfs_hal/common/nwc/mss_ddr.c ****                                         MSS_SCB_DDR_PLL->PLL_DIV_2_3);
1225:../src/platform/mpfs_hal/common/nwc/mss_ddr.c ****                 (void)uprint32(g_debug_uart, \
1226:../src/platform/mpfs_hal/common/nwc/mss_ddr.c ****                         "\n\r\n\r pll_phadj_after_hw_training ",\
1227:../src/platform/mpfs_hal/common/nwc/mss_ddr.c ****                                         MSS_SCB_DDR_PLL->PLL_DIV_0_1);
1228:../src/platform/mpfs_hal/common/nwc/mss_ddr.c **** #endif
1229:../src/platform/mpfs_hal/common/nwc/mss_ddr.c **** 
1230:../src/platform/mpfs_hal/common/nwc/mss_ddr.c ****                 if(LIBERO_SETTING_TRAINING_SKIP_SETTING & BCLK_SCLK_BIT)
1231:../src/platform/mpfs_hal/common/nwc/mss_ddr.c ****                 {
1232:../src/platform/mpfs_hal/common/nwc/mss_ddr.c ****                     ddr_training_state = DDR_TRAINING_IP_SM_ADDCMD;
1233:../src/platform/mpfs_hal/common/nwc/mss_ddr.c ****                 }
1234:../src/platform/mpfs_hal/common/nwc/mss_ddr.c ****                 else
1235:../src/platform/mpfs_hal/common/nwc/mss_ddr.c ****                 {
1236:../src/platform/mpfs_hal/common/nwc/mss_ddr.c ****                     ddr_training_state = DDR_TRAINING_IP_SM_BCLKSCLK;
 2294              		.loc 2 1236 40
 2295 146a 97070000 		lla	a5,ddr_training_state.14230
 2295      93870700 
 2296 1472 5547     		li	a4,21
 2297 1474 98C3     		sw	a4,0(a5)
1237:../src/platform/mpfs_hal/common/nwc/mss_ddr.c ****                 }
1238:../src/platform/mpfs_hal/common/nwc/mss_ddr.c ****                 timeout = 0xFFFF;
 2298              		.loc 2 1238 25
 2299 1476 97070000 		lla	a5,timeout.14232
 2299      93870700 
 2300 147e 4167     		li	a4,65536
 2301 1480 7D17     		addi	a4,a4,-1
 2302 1482 98C3     		sw	a4,0(a5)
 2303              	.L126:
1239:../src/platform/mpfs_hal/common/nwc/mss_ddr.c ****             }
1240:../src/platform/mpfs_hal/common/nwc/mss_ddr.c ****             if(--timeout == 0U)
 2304              		.loc 2 1240 16
 2305 1484 97070000 		lla	a5,timeout.14232
 2305      93870700 
 2306 148c 9C43     		lw	a5,0(a5)
 2307 148e FD37     		addiw	a5,a5,-1
 2308 1490 1B870700 		sext.w	a4,a5
 2309              		.loc 2 1240 15
 2310 1494 97070000 		lla	a5,timeout.14232
 2310      93870700 
 2311 149c 98C3     		sw	a4,0(a5)
 2312              		.loc 2 1240 16
 2313 149e 97070000 		lla	a5,timeout.14232
 2313      93870700 
 2314 14a6 9C43     		lw	a5,0(a5)
 2315              		.loc 2 1240 15
 2316 14a8 99C36F10 		bne	a5,zero,.L203
 2316      4013
1241:../src/platform/mpfs_hal/common/nwc/mss_ddr.c ****             {
1242:../src/platform/mpfs_hal/common/nwc/mss_ddr.c ****                 ddr_training_state = DDR_TRAINING_FAIL_START_CHECK;
 2317              		.loc 2 1242 36
 2318 14ae 97070000 		lla	a5,ddr_training_state.14230
 2318      93870700 
 2319 14b6 13078003 		li	a4,56
 2320 14ba 98C3     		sw	a4,0(a5)
1243:../src/platform/mpfs_hal/common/nwc/mss_ddr.c ****             }
1244:../src/platform/mpfs_hal/common/nwc/mss_ddr.c ****             break;
 2321              		.loc 2 1244 13
 2322 14bc 6F102012 		j	.L203
 2323              	.L49:
1245:../src/platform/mpfs_hal/common/nwc/mss_ddr.c ****         case DDR_TRAINING_IP_SM_BCLKSCLK:
1246:../src/platform/mpfs_hal/common/nwc/mss_ddr.c ****             if(CFG_DDR_SGMII_PHY->training_status.training_status & BCLK_SCLK_BIT)
 2324              		.loc 2 1246 33
 2325 14c0 97070000 		lla	a5,CFG_DDR_SGMII_PHY
 2325      93870700 
 2326 14c8 9863     		ld	a4,0(a5)
 2327              		.loc 2 1246 50
 2328 14ca 8567     		li	a5,4096
 2329 14cc BA97     		add	a5,a4,a5
 2330 14ce 83A74781 		lw	a5,-2028(a5)
 2331 14d2 8127     		sext.w	a5,a5
 2332              		.loc 2 1246 67
 2333 14d4 858B     		andi	a5,a5,1
 2334 14d6 8127     		sext.w	a5,a5
 2335              		.loc 2 1246 15
 2336 14d8 91CF     		beq	a5,zero,.L129
1247:../src/platform/mpfs_hal/common/nwc/mss_ddr.c ****             {
1248:../src/platform/mpfs_hal/common/nwc/mss_ddr.c ****                 timeout = 0xFFFF;
 2337              		.loc 2 1248 25
 2338 14da 97070000 		lla	a5,timeout.14232
 2338      93870700 
 2339 14e2 4167     		li	a4,65536
 2340 14e4 7D17     		addi	a4,a4,-1
 2341 14e6 98C3     		sw	a4,0(a5)
1249:../src/platform/mpfs_hal/common/nwc/mss_ddr.c ****                 ddr_training_state = DDR_TRAINING_IP_SM_ADDCMD;
 2342              		.loc 2 1249 36
 2343 14e8 97070000 		lla	a5,ddr_training_state.14230
 2343      93870700 
 2344 14f0 5947     		li	a4,22
 2345 14f2 98C3     		sw	a4,0(a5)
 2346              	.L129:
1250:../src/platform/mpfs_hal/common/nwc/mss_ddr.c ****             }
1251:../src/platform/mpfs_hal/common/nwc/mss_ddr.c ****             if(--timeout == 0U)
 2347              		.loc 2 1251 16
 2348 14f4 97070000 		lla	a5,timeout.14232
 2348      93870700 
 2349 14fc 9C43     		lw	a5,0(a5)
 2350 14fe FD37     		addiw	a5,a5,-1
 2351 1500 1B870700 		sext.w	a4,a5
 2352              		.loc 2 1251 15
 2353 1504 97070000 		lla	a5,timeout.14232
 2353      93870700 
 2354 150c 98C3     		sw	a4,0(a5)
 2355              		.loc 2 1251 16
 2356 150e 97070000 		lla	a5,timeout.14232
 2356      93870700 
 2357 1516 9C43     		lw	a5,0(a5)
 2358              		.loc 2 1251 15
 2359 1518 99C36F10 		bne	a5,zero,.L204
 2359      800C
1252:../src/platform/mpfs_hal/common/nwc/mss_ddr.c ****             {
1253:../src/platform/mpfs_hal/common/nwc/mss_ddr.c ****                 ddr_training_state = DDR_TRAINING_FAIL_SM_BCLKSCLK;
 2360              		.loc 2 1253 36
 2361 151e 97070000 		lla	a5,ddr_training_state.14230
 2361      93870700 
 2362 1526 13073003 		li	a4,51
 2363 152a 98C3     		sw	a4,0(a5)
1254:../src/platform/mpfs_hal/common/nwc/mss_ddr.c ****             }
1255:../src/platform/mpfs_hal/common/nwc/mss_ddr.c ****             break;
 2364              		.loc 2 1255 13
 2365 152c 6F10600B 		j	.L204
 2366              	.L194:
1256:../src/platform/mpfs_hal/common/nwc/mss_ddr.c **** 
1257:../src/platform/mpfs_hal/common/nwc/mss_ddr.c ****         case DDR_TRAINING_IP_SM_ADDCMD:
1258:../src/platform/mpfs_hal/common/nwc/mss_ddr.c ****             if(LIBERO_SETTING_TRAINING_SKIP_SETTING & ADDCMD_BIT)
1259:../src/platform/mpfs_hal/common/nwc/mss_ddr.c ****             {
1260:../src/platform/mpfs_hal/common/nwc/mss_ddr.c ****                 timeout = 0xFFFFF;
 2367              		.loc 2 1260 25
 2368 1530 97070000 		lla	a5,timeout.14232
 2368      93870700 
 2369 1538 37071000 		li	a4,1048576
 2370 153c 7D17     		addi	a4,a4,-1
 2371 153e 98C3     		sw	a4,0(a5)
1261:../src/platform/mpfs_hal/common/nwc/mss_ddr.c ****                 ddr_training_state = DDR_TRAINING_IP_SM_WRLVL;
 2372              		.loc 2 1261 36
 2373 1540 97070000 		lla	a5,ddr_training_state.14230
 2373      93870700 
 2374 1548 5D47     		li	a4,23
 2375 154a 98C3     		sw	a4,0(a5)
1262:../src/platform/mpfs_hal/common/nwc/mss_ddr.c ****             }
1263:../src/platform/mpfs_hal/common/nwc/mss_ddr.c ****             else if(CFG_DDR_SGMII_PHY->training_status.training_status & ADDCMD_BIT)
1264:../src/platform/mpfs_hal/common/nwc/mss_ddr.c ****             {
1265:../src/platform/mpfs_hal/common/nwc/mss_ddr.c ****                 timeout = 0xFFFFF;
1266:../src/platform/mpfs_hal/common/nwc/mss_ddr.c ****                 ddr_training_state = DDR_TRAINING_IP_SM_WRLVL;
1267:../src/platform/mpfs_hal/common/nwc/mss_ddr.c ****             }
1268:../src/platform/mpfs_hal/common/nwc/mss_ddr.c ****             if(--timeout == 0U)
 2376              		.loc 2 1268 16
 2377 154c 97070000 		lla	a5,timeout.14232
 2377      93870700 
 2378 1554 9C43     		lw	a5,0(a5)
 2379 1556 FD37     		addiw	a5,a5,-1
 2380 1558 1B870700 		sext.w	a4,a5
 2381              		.loc 2 1268 15
 2382 155c 97070000 		lla	a5,timeout.14232
 2382      93870700 
 2383 1564 98C3     		sw	a4,0(a5)
 2384              		.loc 2 1268 16
 2385 1566 97070000 		lla	a5,timeout.14232
 2385      93870700 
 2386 156e 9C43     		lw	a5,0(a5)
 2387              		.loc 2 1268 15
 2388 1570 99C36F10 		bne	a5,zero,.L205
 2388      4007
1269:../src/platform/mpfs_hal/common/nwc/mss_ddr.c ****             {
1270:../src/platform/mpfs_hal/common/nwc/mss_ddr.c ****                 /*
1271:../src/platform/mpfs_hal/common/nwc/mss_ddr.c ****                  * Typically this can fail for two
1272:../src/platform/mpfs_hal/common/nwc/mss_ddr.c ****                  * reasons:
1273:../src/platform/mpfs_hal/common/nwc/mss_ddr.c ****                  * 1. ADD/CMD not being received
1274:../src/platform/mpfs_hal/common/nwc/mss_ddr.c ****                  * We need to sweep:
1275:../src/platform/mpfs_hal/common/nwc/mss_ddr.c ****                  * ADDCMD_OFFSET [0:3]   RW value
1276:../src/platform/mpfs_hal/common/nwc/mss_ddr.c ****                  *  sweep->  0x2 -> 4 -> C -> 0
1277:../src/platform/mpfs_hal/common/nwc/mss_ddr.c ****                  * 2. DQ not received
1278:../src/platform/mpfs_hal/common/nwc/mss_ddr.c ****                  * We need to sweep:
1279:../src/platform/mpfs_hal/common/nwc/mss_ddr.c ****                  * LIBERO_SETTING_DPC_BITS
1280:../src/platform/mpfs_hal/common/nwc/mss_ddr.c ****                  *  DPC_VRGEN_H [4:6]   value= 0x8->0xC
1281:../src/platform/mpfs_hal/common/nwc/mss_ddr.c ****                  *
1282:../src/platform/mpfs_hal/common/nwc/mss_ddr.c ****                  * */
1283:../src/platform/mpfs_hal/common/nwc/mss_ddr.c ****                 ddr_training_state = DDR_TRAINING_FAIL_SM_ADDCMD;
 2389              		.loc 2 1283 36
 2390 1576 97070000 		lla	a5,ddr_training_state.14230
 2390      93870700 
 2391 157e 13072003 		li	a4,50
 2392 1582 98C3     		sw	a4,0(a5)
1284:../src/platform/mpfs_hal/common/nwc/mss_ddr.c ****             }
1285:../src/platform/mpfs_hal/common/nwc/mss_ddr.c ****             break;
 2393              		.loc 2 1285 13
 2394 1584 6F102006 		j	.L205
 2395              	.L195:
1286:../src/platform/mpfs_hal/common/nwc/mss_ddr.c ****         case DDR_TRAINING_IP_SM_WRLVL:
1287:../src/platform/mpfs_hal/common/nwc/mss_ddr.c ****             //END VREFTRN
1288:../src/platform/mpfs_hal/common/nwc/mss_ddr.c ****             if(LIBERO_SETTING_TRAINING_SKIP_SETTING & WRLVL_BIT)
1289:../src/platform/mpfs_hal/common/nwc/mss_ddr.c ****             {
1290:../src/platform/mpfs_hal/common/nwc/mss_ddr.c ****                 timeout = 0xFFFF;
1291:../src/platform/mpfs_hal/common/nwc/mss_ddr.c ****                 ddr_training_state = DDR_TRAINING_IP_SM_RDGATE;
1292:../src/platform/mpfs_hal/common/nwc/mss_ddr.c ****             }
1293:../src/platform/mpfs_hal/common/nwc/mss_ddr.c ****             else if(CFG_DDR_SGMII_PHY->training_status.training_status & WRLVL_BIT)
 2396              		.loc 2 1293 38
 2397 1588 97070000 		lla	a5,CFG_DDR_SGMII_PHY
 2397      93870700 
 2398 1590 9863     		ld	a4,0(a5)
 2399              		.loc 2 1293 55
 2400 1592 8567     		li	a5,4096
 2401 1594 BA97     		add	a5,a4,a5
 2402 1596 83A74781 		lw	a5,-2028(a5)
 2403 159a 8127     		sext.w	a5,a5
 2404              		.loc 2 1293 72
 2405 159c 918B     		andi	a5,a5,4
 2406 159e 8127     		sext.w	a5,a5
 2407              		.loc 2 1293 20
 2408 15a0 99CF     		beq	a5,zero,.L132
1294:../src/platform/mpfs_hal/common/nwc/mss_ddr.c ****             {
1295:../src/platform/mpfs_hal/common/nwc/mss_ddr.c ****                 timeout = 0xFFFFF;
 2409              		.loc 2 1295 25
 2410 15a2 97070000 		lla	a5,timeout.14232
 2410      93870700 
 2411 15aa 37071000 		li	a4,1048576
 2412 15ae 7D17     		addi	a4,a4,-1
 2413 15b0 98C3     		sw	a4,0(a5)
1296:../src/platform/mpfs_hal/common/nwc/mss_ddr.c ****                 ddr_training_state = DDR_TRAINING_IP_SM_RDGATE;
 2414              		.loc 2 1296 36
 2415 15b2 97070000 		lla	a5,ddr_training_state.14230
 2415      93870700 
 2416 15ba 6147     		li	a4,24
 2417 15bc 98C3     		sw	a4,0(a5)
 2418              	.L132:
1297:../src/platform/mpfs_hal/common/nwc/mss_ddr.c ****             }
1298:../src/platform/mpfs_hal/common/nwc/mss_ddr.c ****             if(--timeout == 0U)
 2419              		.loc 2 1298 16
 2420 15be 97070000 		lla	a5,timeout.14232
 2420      93870700 
 2421 15c6 9C43     		lw	a5,0(a5)
 2422 15c8 FD37     		addiw	a5,a5,-1
 2423 15ca 1B870700 		sext.w	a4,a5
 2424              		.loc 2 1298 15
 2425 15ce 97070000 		lla	a5,timeout.14232
 2425      93870700 
 2426 15d6 98C3     		sw	a4,0(a5)
 2427              		.loc 2 1298 16
 2428 15d8 97070000 		lla	a5,timeout.14232
 2428      93870700 
 2429 15e0 9C43     		lw	a5,0(a5)
 2430              		.loc 2 1298 15
 2431 15e2 99C36F10 		bne	a5,zero,.L206
 2431      6000
1299:../src/platform/mpfs_hal/common/nwc/mss_ddr.c ****             {
1300:../src/platform/mpfs_hal/common/nwc/mss_ddr.c ****                 ddr_training_state = DDR_TRAINING_FAIL_SM_WRLVL;
 2432              		.loc 2 1300 36
 2433 15e8 97070000 		lla	a5,ddr_training_state.14230
 2433      93870700 
 2434 15f0 13071003 		li	a4,49
 2435 15f4 98C3     		sw	a4,0(a5)
1301:../src/platform/mpfs_hal/common/nwc/mss_ddr.c ****             }
1302:../src/platform/mpfs_hal/common/nwc/mss_ddr.c ****             break;
 2436              		.loc 2 1302 13
 2437 15f6 6F00507F 		j	.L206
 2438              	.L46:
1303:../src/platform/mpfs_hal/common/nwc/mss_ddr.c ****         case DDR_TRAINING_IP_SM_RDGATE:
1304:../src/platform/mpfs_hal/common/nwc/mss_ddr.c ****              /* vrgen, revert temp change during write leveling for lpddr4,  
1305:../src/platform/mpfs_hal/common/nwc/mss_ddr.c ****                 turn back on ODT */
1306:../src/platform/mpfs_hal/common/nwc/mss_ddr.c ****             CFG_DDR_SGMII_PHY->DPC_BITS.DPC_BITS = dpc_bits ;
 2439              		.loc 2 1306 30
 2440 15fa 97070000 		lla	a5,CFG_DDR_SGMII_PHY
 2440      93870700 
 2441 1602 9C63     		ld	a5,0(a5)
 2442              		.loc 2 1306 50
 2443 1604 17070000 		lla	a4,dpc_bits.14236
 2443      13070700 
 2444 160c 1843     		lw	a4,0(a4)
 2445 160e 23A2E718 		sw	a4,388(a5)
1307:../src/platform/mpfs_hal/common/nwc/mss_ddr.c ****             CFG_DDR_SGMII_PHY->rpc3_ODT.rpc3_ODT = LIBERO_SETTING_RPC_ODT_DQ;
 2446              		.loc 2 1307 30
 2447 1612 97070000 		lla	a5,CFG_DDR_SGMII_PHY
 2447      93870700 
 2448 161a 9C63     		ld	a5,0(a5)
 2449              		.loc 2 1307 50
 2450 161c 0D47     		li	a4,3
 2451 161e 23A6E738 		sw	a4,908(a5)
1308:../src/platform/mpfs_hal/common/nwc/mss_ddr.c ****             /* end addition 11th Feb 22 */
1309:../src/platform/mpfs_hal/common/nwc/mss_ddr.c ****             if(LIBERO_SETTING_TRAINING_SKIP_SETTING & RDGATE_BIT)
1310:../src/platform/mpfs_hal/common/nwc/mss_ddr.c ****             {
1311:../src/platform/mpfs_hal/common/nwc/mss_ddr.c ****                 timeout = 0xFFFF;
1312:../src/platform/mpfs_hal/common/nwc/mss_ddr.c ****                 ddr_training_state = DDR_TRAINING_IP_SM_DQ_DQS;
1313:../src/platform/mpfs_hal/common/nwc/mss_ddr.c ****             }
1314:../src/platform/mpfs_hal/common/nwc/mss_ddr.c ****             else if(CFG_DDR_SGMII_PHY->training_status.training_status & RDGATE_BIT)
 2452              		.loc 2 1314 38
 2453 1622 97070000 		lla	a5,CFG_DDR_SGMII_PHY
 2453      93870700 
 2454 162a 9863     		ld	a4,0(a5)
 2455              		.loc 2 1314 55
 2456 162c 8567     		li	a5,4096
 2457 162e BA97     		add	a5,a4,a5
 2458 1630 83A74781 		lw	a5,-2028(a5)
 2459 1634 8127     		sext.w	a5,a5
 2460              		.loc 2 1314 72
 2461 1636 A18B     		andi	a5,a5,8
 2462 1638 8127     		sext.w	a5,a5
 2463              		.loc 2 1314 20
 2464 163a 91CF     		beq	a5,zero,.L134
1315:../src/platform/mpfs_hal/common/nwc/mss_ddr.c ****             {
1316:../src/platform/mpfs_hal/common/nwc/mss_ddr.c ****                 timeout = 0xFFFF;
 2465              		.loc 2 1316 25
 2466 163c 97070000 		lla	a5,timeout.14232
 2466      93870700 
 2467 1644 4167     		li	a4,65536
 2468 1646 7D17     		addi	a4,a4,-1
 2469 1648 98C3     		sw	a4,0(a5)
1317:../src/platform/mpfs_hal/common/nwc/mss_ddr.c ****                 ddr_training_state = DDR_TRAINING_IP_SM_DQ_DQS;
 2470              		.loc 2 1317 36
 2471 164a 97070000 		lla	a5,ddr_training_state.14230
 2471      93870700 
 2472 1652 6547     		li	a4,25
 2473 1654 98C3     		sw	a4,0(a5)
 2474              	.L134:
1318:../src/platform/mpfs_hal/common/nwc/mss_ddr.c ****             }
1319:../src/platform/mpfs_hal/common/nwc/mss_ddr.c ****             if(--timeout == 0U)
 2475              		.loc 2 1319 16
 2476 1656 97070000 		lla	a5,timeout.14232
 2476      93870700 
 2477 165e 9C43     		lw	a5,0(a5)
 2478 1660 FD37     		addiw	a5,a5,-1
 2479 1662 1B870700 		sext.w	a4,a5
 2480              		.loc 2 1319 15
 2481 1666 97070000 		lla	a5,timeout.14232
 2481      93870700 
 2482 166e 98C3     		sw	a4,0(a5)
 2483              		.loc 2 1319 16
 2484 1670 97070000 		lla	a5,timeout.14232
 2484      93870700 
 2485 1678 9C43     		lw	a5,0(a5)
 2486              		.loc 2 1319 15
 2487 167a E39A0776 		bne	a5,zero,.L207
1320:../src/platform/mpfs_hal/common/nwc/mss_ddr.c ****             {
1321:../src/platform/mpfs_hal/common/nwc/mss_ddr.c ****                 ddr_training_state = DDR_TRAINING_FAIL_SM_RDGATE;
 2488              		.loc 2 1321 36
 2489 167e 97070000 		lla	a5,ddr_training_state.14230
 2489      93870700 
 2490 1686 13070003 		li	a4,48
 2491 168a 98C3     		sw	a4,0(a5)
1322:../src/platform/mpfs_hal/common/nwc/mss_ddr.c ****             }
1323:../src/platform/mpfs_hal/common/nwc/mss_ddr.c ****             break;
 2492              		.loc 2 1323 13
 2493 168c 6F003076 		j	.L207
 2494              	.L196:
1324:../src/platform/mpfs_hal/common/nwc/mss_ddr.c ****         case DDR_TRAINING_IP_SM_DQ_DQS:
1325:../src/platform/mpfs_hal/common/nwc/mss_ddr.c ****             if(LIBERO_SETTING_TRAINING_SKIP_SETTING & DQ_DQS_BIT)
1326:../src/platform/mpfs_hal/common/nwc/mss_ddr.c ****             {
1327:../src/platform/mpfs_hal/common/nwc/mss_ddr.c ****                 timeout = 0xFFFF;
1328:../src/platform/mpfs_hal/common/nwc/mss_ddr.c ****                 ddr_training_state = DDR_TRAINING_IP_SM_VERIFY;
1329:../src/platform/mpfs_hal/common/nwc/mss_ddr.c ****             }
1330:../src/platform/mpfs_hal/common/nwc/mss_ddr.c ****             else if(CFG_DDR_SGMII_PHY->training_status.training_status & DQ_DQS_BIT)
 2495              		.loc 2 1330 38
 2496 1690 97070000 		lla	a5,CFG_DDR_SGMII_PHY
 2496      93870700 
 2497 1698 9863     		ld	a4,0(a5)
 2498              		.loc 2 1330 55
 2499 169a 8567     		li	a5,4096
 2500 169c BA97     		add	a5,a4,a5
 2501 169e 83A74781 		lw	a5,-2028(a5)
 2502 16a2 8127     		sext.w	a5,a5
 2503              		.loc 2 1330 72
 2504 16a4 C18B     		andi	a5,a5,16
 2505 16a6 8127     		sext.w	a5,a5
 2506              		.loc 2 1330 20
 2507 16a8 91CF     		beq	a5,zero,.L136
1331:../src/platform/mpfs_hal/common/nwc/mss_ddr.c ****             {
1332:../src/platform/mpfs_hal/common/nwc/mss_ddr.c ****                 timeout = 0xFFFF;
 2508              		.loc 2 1332 25
 2509 16aa 97070000 		lla	a5,timeout.14232
 2509      93870700 
 2510 16b2 4167     		li	a4,65536
 2511 16b4 7D17     		addi	a4,a4,-1
 2512 16b6 98C3     		sw	a4,0(a5)
1333:../src/platform/mpfs_hal/common/nwc/mss_ddr.c ****                 ddr_training_state = DDR_TRAINING_IP_SM_VERIFY;
 2513              		.loc 2 1333 36
 2514 16b8 97070000 		lla	a5,ddr_training_state.14230
 2514      93870700 
 2515 16c0 6947     		li	a4,26
 2516 16c2 98C3     		sw	a4,0(a5)
 2517              	.L136:
1334:../src/platform/mpfs_hal/common/nwc/mss_ddr.c ****             }
1335:../src/platform/mpfs_hal/common/nwc/mss_ddr.c ****             if(--timeout == 0U)
 2518              		.loc 2 1335 16
 2519 16c4 97070000 		lla	a5,timeout.14232
 2519      93870700 
 2520 16cc 9C43     		lw	a5,0(a5)
 2521 16ce FD37     		addiw	a5,a5,-1
 2522 16d0 1B870700 		sext.w	a4,a5
 2523              		.loc 2 1335 15
 2524 16d4 97070000 		lla	a5,timeout.14232
 2524      93870700 
 2525 16dc 98C3     		sw	a4,0(a5)
 2526              		.loc 2 1335 16
 2527 16de 97070000 		lla	a5,timeout.14232
 2527      93870700 
 2528 16e6 9C43     		lw	a5,0(a5)
 2529              		.loc 2 1335 15
 2530 16e8 E3950770 		bne	a5,zero,.L208
1336:../src/platform/mpfs_hal/common/nwc/mss_ddr.c ****             {
1337:../src/platform/mpfs_hal/common/nwc/mss_ddr.c ****                 ddr_training_state = DDR_TRAINING_FAIL_SM_DQ_DQS;
 2531              		.loc 2 1337 36
 2532 16ec 97070000 		lla	a5,ddr_training_state.14230
 2532      93870700 
 2533 16f4 1307F002 		li	a4,47
 2534 16f8 98C3     		sw	a4,0(a5)
1338:../src/platform/mpfs_hal/common/nwc/mss_ddr.c ****             }
1339:../src/platform/mpfs_hal/common/nwc/mss_ddr.c ****             break;
 2535              		.loc 2 1339 13
 2536 16fa 6F00906F 		j	.L208
 2537              	.L44:
1340:../src/platform/mpfs_hal/common/nwc/mss_ddr.c **** 
1341:../src/platform/mpfs_hal/common/nwc/mss_ddr.c ****         case DDR_TRAINING_IP_SM_VERIFY:
1342:../src/platform/mpfs_hal/common/nwc/mss_ddr.c ****             if ((DDRCFG->DFI.STAT_DFI_TRAINING_COMPLETE.STAT_DFI_TRAINING_COMPLETE & 0x01U) == 0x01
 2538              		.loc 2 1342 24
 2539 16fe 97070000 		lla	a5,DDRCFG
 2539      93870700 
 2540 1706 9863     		ld	a4,0(a5)
 2541              		.loc 2 1342 56
 2542 1708 C167     		li	a5,65536
 2543 170a BA97     		add	a5,a4,a5
 2544 170c 9C5F     		lw	a5,56(a5)
 2545 170e 8127     		sext.w	a5,a5
 2546              		.loc 2 1342 84
 2547 1710 858B     		andi	a5,a5,1
 2548 1712 8127     		sext.w	a5,a5
 2549              		.loc 2 1342 16
 2550 1714 3E87     		mv	a4,a5
 2551 1716 8547     		li	a5,1
 2552 1718 6313F73E 		bne	a4,a5,.L138
 2553              	.LBB20:
1343:../src/platform/mpfs_hal/common/nwc/mss_ddr.c ****             {
1344:../src/platform/mpfs_hal/common/nwc/mss_ddr.c ****                  /*
1345:../src/platform/mpfs_hal/common/nwc/mss_ddr.c ****                   * Step 15:
1346:../src/platform/mpfs_hal/common/nwc/mss_ddr.c ****                   * check worked for each lane
1347:../src/platform/mpfs_hal/common/nwc/mss_ddr.c ****                   */
1348:../src/platform/mpfs_hal/common/nwc/mss_ddr.c ****                  uint32_t lane_sel, t_status = 0U;
 2554              		.loc 2 1348 37
 2555 171c 232C04F8 		sw	zero,-104(s0)
1349:../src/platform/mpfs_hal/common/nwc/mss_ddr.c ****                  for (lane_sel=0U; lane_sel< \
 2556              		.loc 2 1349 31
 2557 1720 232E04F8 		sw	zero,-100(s0)
 2558              		.loc 2 1349 18
 2559 1724 4DA6     		j	.L139
 2560              	.L152:
 2561              	.LBB21:
1350:../src/platform/mpfs_hal/common/nwc/mss_ddr.c ****                             LIBERO_SETTING_DATA_LANES_USED; lane_sel++)
1351:../src/platform/mpfs_hal/common/nwc/mss_ddr.c ****                  {
1352:../src/platform/mpfs_hal/common/nwc/mss_ddr.c ****                      SIM_FEEDBACK1(1000U);
1353:../src/platform/mpfs_hal/common/nwc/mss_ddr.c ****                      delay(10U);
 2562              		.loc 2 1353 22
 2563 1726 2945     		li	a0,10
 2564 1728 97000000 		call	delay
 2564      E7800000 
1354:../src/platform/mpfs_hal/common/nwc/mss_ddr.c ****                      SIM_FEEDBACK1(1001U);
1355:../src/platform/mpfs_hal/common/nwc/mss_ddr.c ****                      CFG_DDR_SGMII_PHY->lane_select.lane_select =\
 2565              		.loc 2 1355 39
 2566 1730 97070000 		lla	a5,CFG_DDR_SGMII_PHY
 2566      93870700 
 2567 1738 9863     		ld	a4,0(a5)
 2568              		.loc 2 1355 65
