   1              		.file	"mss_cfm.c"
   2              		.option nopic
   3              		.attribute arch, "rv64i2p0_m2p0_a2p0_f2p0_d2p0_c2p0"
   4              		.attribute unaligned_access, 0
   5              		.attribute stack_align, 16
   6              		.text
   7              	.Ltext0:
   8              		.cfi_sections	.debug_frame
   9              		.section	.text.MSS_CFM_control_start,"ax",@progbits
  10              		.align	1
  11              		.globl	MSS_CFM_control_start
  13              	MSS_CFM_control_start:
  14              	.LFB23:
  15              		.file 1 "../src/platform/mpfs_hal/common/nwc/mss_cfm.c"
   1:../src/platform/mpfs_hal/common/nwc/mss_cfm.c **** /*******************************************************************************
   2:../src/platform/mpfs_hal/common/nwc/mss_cfm.c ****  * Copyright 2019-2022 Microchip FPGA Embedded Systems Solutions.
   3:../src/platform/mpfs_hal/common/nwc/mss_cfm.c ****  *
   4:../src/platform/mpfs_hal/common/nwc/mss_cfm.c ****  */
   5:../src/platform/mpfs_hal/common/nwc/mss_cfm.c **** 
   6:../src/platform/mpfs_hal/common/nwc/mss_cfm.c **** #include <stdint.h>
   7:../src/platform/mpfs_hal/common/nwc/mss_cfm.c **** #include <stdio.h>
   8:../src/platform/mpfs_hal/common/nwc/mss_cfm.c **** #include <stdarg.h>
   9:../src/platform/mpfs_hal/common/nwc/mss_cfm.c **** #include <stdbool.h>
  10:../src/platform/mpfs_hal/common/nwc/mss_cfm.c **** #include <stdlib.h>
  11:../src/platform/mpfs_hal/common/nwc/mss_cfm.c **** #include <string.h>
  12:../src/platform/mpfs_hal/common/nwc/mss_cfm.c **** #include <stdint.h>
  13:../src/platform/mpfs_hal/common/nwc/mss_cfm.c **** 
  14:../src/platform/mpfs_hal/common/nwc/mss_cfm.c **** #include "mpfs_hal/mss_hal.h"
  15:../src/platform/mpfs_hal/common/nwc/mss_cfm.c **** #include "mss_cfm.h"
  16:../src/platform/mpfs_hal/common/nwc/mss_cfm.c **** 
  17:../src/platform/mpfs_hal/common/nwc/mss_cfm.c **** /***************************************************************************//**
  18:../src/platform/mpfs_hal/common/nwc/mss_cfm.c ****  * See mss_cfm.h for description of this function.
  19:../src/platform/mpfs_hal/common/nwc/mss_cfm.c ****  */
  20:../src/platform/mpfs_hal/common/nwc/mss_cfm.c **** uint8_t MSS_CFM_control_start(void)
  21:../src/platform/mpfs_hal/common/nwc/mss_cfm.c **** {
  16              		.loc 1 21 1
  17              		.cfi_startproc
  18 0000 4111     		addi	sp,sp,-16
  19              		.cfi_def_cfa_offset 16
  20 0002 22E4     		sd	s0,8(sp)
  21              		.cfi_offset 8, -8
  22 0004 0008     		addi	s0,sp,16
  23              		.cfi_def_cfa 8, 0
  22:../src/platform/mpfs_hal/common/nwc/mss_cfm.c **** 
  23:../src/platform/mpfs_hal/common/nwc/mss_cfm.c ****     /* Writing a 1, to this causes measurement circuitry to start. */
  24:../src/platform/mpfs_hal/common/nwc/mss_cfm.c ****     CFM_REG->controlReg |= 1;
  24              		.loc 1 24 25
  25 0006 B7670020 		li	a5,536895488
  26 000a 9C43     		lw	a5,0(a5)
  27 000c 1B870700 		sext.w	a4,a5
  28 0010 B7670020 		li	a5,536895488
  29 0014 13671700 		ori	a4,a4,1
  30 0018 0127     		sext.w	a4,a4
  31 001a 98C3     		sw	a4,0(a5)
  25:../src/platform/mpfs_hal/common/nwc/mss_cfm.c **** 
  26:../src/platform/mpfs_hal/common/nwc/mss_cfm.c ****     return (CFM_REG->controlReg & CFM_CONTROL_REG_START_MASK);
  32              		.loc 1 26 20
  33 001c B7670020 		li	a5,536895488
  34 0020 9C43     		lw	a5,0(a5)
  35 0022 8127     		sext.w	a5,a5
  36              		.loc 1 26 33
  37 0024 93F7F70F 		andi	a5,a5,0xff
  38 0028 858B     		andi	a5,a5,1
  39 002a 93F7F70F 		andi	a5,a5,0xff
  27:../src/platform/mpfs_hal/common/nwc/mss_cfm.c **** 
  28:../src/platform/mpfs_hal/common/nwc/mss_cfm.c **** }
  40              		.loc 1 28 1
  41 002e 3E85     		mv	a0,a5
  42 0030 2264     		ld	s0,8(sp)
  43              		.cfi_restore 8
  44              		.cfi_def_cfa 2, 16
  45 0032 4101     		addi	sp,sp,16
  46              		.cfi_def_cfa_offset 0
  47 0034 8280     		jr	ra
  48              		.cfi_endproc
  49              	.LFE23:
  51              		.section	.text.MSS_CFM_control_stop,"ax",@progbits
  52              		.align	1
  53              		.globl	MSS_CFM_control_stop
  55              	MSS_CFM_control_stop:
  56              	.LFB24:
  29:../src/platform/mpfs_hal/common/nwc/mss_cfm.c **** 
  30:../src/platform/mpfs_hal/common/nwc/mss_cfm.c **** 
  31:../src/platform/mpfs_hal/common/nwc/mss_cfm.c **** uint8_t MSS_CFM_control_stop(void)
  32:../src/platform/mpfs_hal/common/nwc/mss_cfm.c **** {
  57              		.loc 1 32 1
  58              		.cfi_startproc
  59 0000 4111     		addi	sp,sp,-16
  60              		.cfi_def_cfa_offset 16
  61 0002 22E4     		sd	s0,8(sp)
  62              		.cfi_offset 8, -8
  63 0004 0008     		addi	s0,sp,16
  64              		.cfi_def_cfa 8, 0
  33:../src/platform/mpfs_hal/common/nwc/mss_cfm.c **** 
  34:../src/platform/mpfs_hal/common/nwc/mss_cfm.c ****     /* Writing a 1, to this causes measurement circuitry to start. */
  35:../src/platform/mpfs_hal/common/nwc/mss_cfm.c ****     CFM_REG->controlReg |= (1 << CFM_CONTROL_REG_STOP_BITS_SHIFT);
  65              		.loc 1 35 25
  66 0006 B7670020 		li	a5,536895488
  67 000a 9C43     		lw	a5,0(a5)
  68 000c 1B870700 		sext.w	a4,a5
  69 0010 B7670020 		li	a5,536895488
  70 0014 13672700 		ori	a4,a4,2
  71 0018 0127     		sext.w	a4,a4
  72 001a 98C3     		sw	a4,0(a5)
  36:../src/platform/mpfs_hal/common/nwc/mss_cfm.c **** 
  37:../src/platform/mpfs_hal/common/nwc/mss_cfm.c ****     return (CFM_REG->controlReg & CFM_CONTROL_REG_START_MASK);
  73              		.loc 1 37 20
  74 001c B7670020 		li	a5,536895488
  75 0020 9C43     		lw	a5,0(a5)
  76 0022 8127     		sext.w	a5,a5
  77              		.loc 1 37 33
  78 0024 93F7F70F 		andi	a5,a5,0xff
  79 0028 858B     		andi	a5,a5,1
  80 002a 93F7F70F 		andi	a5,a5,0xff
  38:../src/platform/mpfs_hal/common/nwc/mss_cfm.c **** 
  39:../src/platform/mpfs_hal/common/nwc/mss_cfm.c **** }
  81              		.loc 1 39 1
  82 002e 3E85     		mv	a0,a5
  83 0030 2264     		ld	s0,8(sp)
  84              		.cfi_restore 8
  85              		.cfi_def_cfa 2, 16
  86 0032 4101     		addi	sp,sp,16
  87              		.cfi_def_cfa_offset 0
  88 0034 8280     		jr	ra
  89              		.cfi_endproc
  90              	.LFE24:
  92              		.section	.text.MSS_CLF_clk_configuration,"ax",@progbits
  93              		.align	1
  94              		.globl	MSS_CLF_clk_configuration
  96              	MSS_CLF_clk_configuration:
  97              	.LFB25:
  40:../src/platform/mpfs_hal/common/nwc/mss_cfm.c **** 
  41:../src/platform/mpfs_hal/common/nwc/mss_cfm.c **** 
  42:../src/platform/mpfs_hal/common/nwc/mss_cfm.c **** 
  43:../src/platform/mpfs_hal/common/nwc/mss_cfm.c **** cfm_error_id_t MSS_CLF_clk_configuration(
  44:../src/platform/mpfs_hal/common/nwc/mss_cfm.c ****         uint8_t clkSel,
  45:../src/platform/mpfs_hal/common/nwc/mss_cfm.c ****         uint8_t refsel0,
  46:../src/platform/mpfs_hal/common/nwc/mss_cfm.c ****         uint8_t refsel1,
  47:../src/platform/mpfs_hal/common/nwc/mss_cfm.c ****         uint8_t monSEL,
  48:../src/platform/mpfs_hal/common/nwc/mss_cfm.c ****         uint8_t monEN
  49:../src/platform/mpfs_hal/common/nwc/mss_cfm.c ****     )
  50:../src/platform/mpfs_hal/common/nwc/mss_cfm.c **** {
  98              		.loc 1 50 1
  99              		.cfi_startproc
 100 0000 0111     		addi	sp,sp,-32
 101              		.cfi_def_cfa_offset 32
 102 0002 22EC     		sd	s0,24(sp)
 103              		.cfi_offset 8, -8
 104 0004 0010     		addi	s0,sp,32
 105              		.cfi_def_cfa 8, 0
 106 0006 AA87     		mv	a5,a0
 107 0008 A307F4FE 		sb	a5,-17(s0)
 108 000c AE87     		mv	a5,a1
 109 000e 2307F4FE 		sb	a5,-18(s0)
 110 0012 B287     		mv	a5,a2
 111 0014 A306F4FE 		sb	a5,-19(s0)
 112 0018 B687     		mv	a5,a3
 113 001a 2306F4FE 		sb	a5,-20(s0)
 114 001e BA87     		mv	a5,a4
 115 0020 A305F4FE 		sb	a5,-21(s0)
  51:../src/platform/mpfs_hal/common/nwc/mss_cfm.c **** 
  52:../src/platform/mpfs_hal/common/nwc/mss_cfm.c ****     /* Reset the register. */
  53:../src/platform/mpfs_hal/common/nwc/mss_cfm.c ****     CFM_REG->clkselReg = 0;
 116              		.loc 1 53 12
 117 0024 B7670020 		li	a5,536895488
 118              		.loc 1 53 24
 119 0028 23A20700 		sw	zero,4(a5)
  54:../src/platform/mpfs_hal/common/nwc/mss_cfm.c **** 
  55:../src/platform/mpfs_hal/common/nwc/mss_cfm.c ****     /* Some error checking on configuration values. */
  56:../src/platform/mpfs_hal/common/nwc/mss_cfm.c ****     if(clkSel > CFM_CLK_SEL_MASK)
 120              		.loc 1 56 7
 121 002c 8347F4FE 		lbu	a5,-17(s0)
 122 0030 13F7F70F 		andi	a4,a5,0xff
 123 0034 9D47     		li	a5,7
 124 0036 63F4E700 		bleu	a4,a5,.L6
  57:../src/platform/mpfs_hal/common/nwc/mss_cfm.c ****         return ERROR_INVALID_CLK_SELECTION_GROUP;
 125              		.loc 1 57 16
 126 003a 8547     		li	a5,1
 127 003c 09AA     		j	.L7
 128              	.L6:
  58:../src/platform/mpfs_hal/common/nwc/mss_cfm.c **** 
  59:../src/platform/mpfs_hal/common/nwc/mss_cfm.c ****     if(refsel0 > CFM_CLK_REFSEL0_MASK)
 129              		.loc 1 59 7
 130 003e 8347E4FE 		lbu	a5,-18(s0)
 131 0042 13F7F70F 		andi	a4,a5,0xff
 132 0046 8547     		li	a5,1
 133 0048 63F4E700 		bleu	a4,a5,.L8
  60:../src/platform/mpfs_hal/common/nwc/mss_cfm.c ****         return ERROR_INVALID_REF_SEL0;
 134              		.loc 1 60 16
 135 004c 8947     		li	a5,2
 136 004e 01A2     		j	.L7
 137              	.L8:
  61:../src/platform/mpfs_hal/common/nwc/mss_cfm.c **** 
  62:../src/platform/mpfs_hal/common/nwc/mss_cfm.c ****     if(refsel1 > CFM_CLK_REFSEL1_MASK)
 138              		.loc 1 62 7
 139 0050 8347D4FE 		lbu	a5,-19(s0)
 140 0054 13F7F70F 		andi	a4,a5,0xff
 141 0058 8547     		li	a5,1
 142 005a 63F4E700 		bleu	a4,a5,.L9
  63:../src/platform/mpfs_hal/common/nwc/mss_cfm.c ****         return ERROR_INVALID_REF_SEL1;
 143              		.loc 1 63 16
 144 005e 8D47     		li	a5,3
 145 0060 FDA0     		j	.L7
 146              	.L9:
  64:../src/platform/mpfs_hal/common/nwc/mss_cfm.c **** 
  65:../src/platform/mpfs_hal/common/nwc/mss_cfm.c ****     if(monSEL > CFM_CLK_MONSEL_MASK)
 147              		.loc 1 65 7
 148 0062 8347C4FE 		lbu	a5,-20(s0)
 149 0066 13F7F70F 		andi	a4,a5,0xff
 150 006a 9D47     		li	a5,7
 151 006c 63F4E700 		bleu	a4,a5,.L10
  66:../src/platform/mpfs_hal/common/nwc/mss_cfm.c ****         return ERROR_INVALID_CHANNEL_DRIVE_CLK_MONITOR;
 152              		.loc 1 66 16
 153 0070 9147     		li	a5,4
 154 0072 F1A8     		j	.L7
 155              	.L10:
  67:../src/platform/mpfs_hal/common/nwc/mss_cfm.c **** 
  68:../src/platform/mpfs_hal/common/nwc/mss_cfm.c **** 
  69:../src/platform/mpfs_hal/common/nwc/mss_cfm.c ****     CFM_REG->clkselReg |= (clkSel & CFM_CLK_SEL_MASK);
 156              		.loc 1 69 24
 157 0074 B7670020 		li	a5,536895488
 158 0078 DC43     		lw	a5,4(a5)
 159 007a 9B860700 		sext.w	a3,a5
 160              		.loc 1 69 35
 161 007e 8347F4FE 		lbu	a5,-17(s0)
 162 0082 8127     		sext.w	a5,a5
 163 0084 9D8B     		andi	a5,a5,7
 164 0086 1B870700 		sext.w	a4,a5
 165              		.loc 1 69 24
 166 008a B7670020 		li	a5,536895488
 167 008e 558F     		or	a4,a3,a4
 168 0090 0127     		sext.w	a4,a4
 169 0092 D8C3     		sw	a4,4(a5)
  70:../src/platform/mpfs_hal/common/nwc/mss_cfm.c **** 
  71:../src/platform/mpfs_hal/common/nwc/mss_cfm.c ****     if(refsel0)
 170              		.loc 1 71 7
 171 0094 8347E4FE 		lbu	a5,-18(s0)
 172 0098 93F7F70F 		andi	a5,a5,0xff
 173 009c 9DC3     		beq	a5,zero,.L11
  72:../src/platform/mpfs_hal/common/nwc/mss_cfm.c ****         CFM_REG->clkselReg |= (uint32_t)(refsel0 << CFM_CLK_REFSEL0SHIFT);
 174              		.loc 1 72 28
 175 009e B7670020 		li	a5,536895488
 176 00a2 DC43     		lw	a5,4(a5)
 177 00a4 9B860700 		sext.w	a3,a5
 178              		.loc 1 72 50
 179 00a8 8347E4FE 		lbu	a5,-18(s0)
 180 00ac 8127     		sext.w	a5,a5
 181 00ae 9B974700 		slliw	a5,a5,4
 182 00b2 8127     		sext.w	a5,a5
 183              		.loc 1 72 31
 184 00b4 1B870700 		sext.w	a4,a5
 185              		.loc 1 72 28
 186 00b8 B7670020 		li	a5,536895488
 187 00bc 558F     		or	a4,a3,a4
 188 00be 0127     		sext.w	a4,a4
 189 00c0 D8C3     		sw	a4,4(a5)
 190              	.L11:
  73:../src/platform/mpfs_hal/common/nwc/mss_cfm.c **** 
  74:../src/platform/mpfs_hal/common/nwc/mss_cfm.c ****     if(refsel1)
 191              		.loc 1 74 7
 192 00c2 8347D4FE 		lbu	a5,-19(s0)
 193 00c6 93F7F70F 		andi	a5,a5,0xff
 194 00ca 9DC3     		beq	a5,zero,.L12
  75:../src/platform/mpfs_hal/common/nwc/mss_cfm.c ****         CFM_REG->clkselReg |= (uint32_t)(refsel1 << CFM_CLK_REFSEL1SHIFT);
 195              		.loc 1 75 28
 196 00cc B7670020 		li	a5,536895488
 197 00d0 DC43     		lw	a5,4(a5)
 198 00d2 9B860700 		sext.w	a3,a5
 199              		.loc 1 75 50
 200 00d6 8347D4FE 		lbu	a5,-19(s0)
 201 00da 8127     		sext.w	a5,a5
 202 00dc 9B975700 		slliw	a5,a5,5
 203 00e0 8127     		sext.w	a5,a5
 204              		.loc 1 75 31
 205 00e2 1B870700 		sext.w	a4,a5
 206              		.loc 1 75 28
 207 00e6 B7670020 		li	a5,536895488
 208 00ea 558F     		or	a4,a3,a4
 209 00ec 0127     		sext.w	a4,a4
 210 00ee D8C3     		sw	a4,4(a5)
 211              	.L12:
  76:../src/platform/mpfs_hal/common/nwc/mss_cfm.c **** 
  77:../src/platform/mpfs_hal/common/nwc/mss_cfm.c ****     if(monSEL)
 212              		.loc 1 77 7
 213 00f0 8347C4FE 		lbu	a5,-20(s0)
 214 00f4 93F7F70F 		andi	a5,a5,0xff
 215 00f8 9DC3     		beq	a5,zero,.L13
  78:../src/platform/mpfs_hal/common/nwc/mss_cfm.c ****         CFM_REG->clkselReg |= (uint32_t)(monSEL << CFM_CLK_MONSEL_SHIFT);
 216              		.loc 1 78 28
 217 00fa B7670020 		li	a5,536895488
 218 00fe DC43     		lw	a5,4(a5)
 219 0100 9B860700 		sext.w	a3,a5
 220              		.loc 1 78 49
 221 0104 8347C4FE 		lbu	a5,-20(s0)
 222 0108 8127     		sext.w	a5,a5
 223 010a 9B978700 		slliw	a5,a5,8
 224 010e 8127     		sext.w	a5,a5
 225              		.loc 1 78 31
 226 0110 1B870700 		sext.w	a4,a5
 227              		.loc 1 78 28
 228 0114 B7670020 		li	a5,536895488
 229 0118 558F     		or	a4,a3,a4
 230 011a 0127     		sext.w	a4,a4
 231 011c D8C3     		sw	a4,4(a5)
 232              	.L13:
  79:../src/platform/mpfs_hal/common/nwc/mss_cfm.c **** 
  80:../src/platform/mpfs_hal/common/nwc/mss_cfm.c **** 
  81:../src/platform/mpfs_hal/common/nwc/mss_cfm.c ****     if(monEN)
 233              		.loc 1 81 7
 234 011e 8347B4FE 		lbu	a5,-21(s0)
 235 0122 93F7F70F 		andi	a5,a5,0xff
 236 0126 9DC3     		beq	a5,zero,.L14
  82:../src/platform/mpfs_hal/common/nwc/mss_cfm.c ****         CFM_REG->clkselReg |= (uint32_t)(monEN << CFM_CLK_MONEN_SHIFT);
 237              		.loc 1 82 28
 238 0128 B7670020 		li	a5,536895488
 239 012c DC43     		lw	a5,4(a5)
 240 012e 9B860700 		sext.w	a3,a5
 241              		.loc 1 82 48
 242 0132 8347B4FE 		lbu	a5,-21(s0)
 243 0136 8127     		sext.w	a5,a5
 244 0138 9B97B700 		slliw	a5,a5,11
 245 013c 8127     		sext.w	a5,a5
 246              		.loc 1 82 31
 247 013e 1B870700 		sext.w	a4,a5
 248              		.loc 1 82 28
 249 0142 B7670020 		li	a5,536895488
 250 0146 558F     		or	a4,a3,a4
 251 0148 0127     		sext.w	a4,a4
 252 014a D8C3     		sw	a4,4(a5)
 253              	.L14:
  83:../src/platform/mpfs_hal/common/nwc/mss_cfm.c **** 
  84:../src/platform/mpfs_hal/common/nwc/mss_cfm.c **** 
  85:../src/platform/mpfs_hal/common/nwc/mss_cfm.c ****     return CFM_OK;
 254              		.loc 1 85 12
 255 014c 8147     		li	a5,0
 256              	.L7:
  86:../src/platform/mpfs_hal/common/nwc/mss_cfm.c **** 
  87:../src/platform/mpfs_hal/common/nwc/mss_cfm.c **** }
 257              		.loc 1 87 1
 258 014e 3E85     		mv	a0,a5
 259 0150 6264     		ld	s0,24(sp)
 260              		.cfi_restore 8
 261              		.cfi_def_cfa 2, 32
 262 0152 0561     		addi	sp,sp,32
 263              		.cfi_def_cfa_offset 0
 264 0154 8280     		jr	ra
 265              		.cfi_endproc
 266              	.LFE25:
 268              		.section	.text.MSS_CFM_runtime_register,"ax",@progbits
 269              		.align	1
 270              		.globl	MSS_CFM_runtime_register
 272              	MSS_CFM_runtime_register:
 273              	.LFB26:
  88:../src/platform/mpfs_hal/common/nwc/mss_cfm.c **** 
  89:../src/platform/mpfs_hal/common/nwc/mss_cfm.c **** 
  90:../src/platform/mpfs_hal/common/nwc/mss_cfm.c **** void MSS_CFM_runtime_register(uint32_t  referenceCount)
  91:../src/platform/mpfs_hal/common/nwc/mss_cfm.c **** {
 274              		.loc 1 91 1
 275              		.cfi_startproc
 276 0000 0111     		addi	sp,sp,-32
 277              		.cfi_def_cfa_offset 32
 278 0002 22EC     		sd	s0,24(sp)
 279              		.cfi_offset 8, -8
 280 0004 0010     		addi	s0,sp,32
 281              		.cfi_def_cfa 8, 0
 282 0006 AA87     		mv	a5,a0
 283 0008 2326F4FE 		sw	a5,-20(s0)
  92:../src/platform/mpfs_hal/common/nwc/mss_cfm.c **** 
  93:../src/platform/mpfs_hal/common/nwc/mss_cfm.c ****     /*Sets how many runtime reference clock cycles the frequency and time
  94:../src/platform/mpfs_hal/common/nwc/mss_cfm.c ****      * measurement shold be made for.. */
  95:../src/platform/mpfs_hal/common/nwc/mss_cfm.c ****     CFM_REG->runtimeReg = (referenceCount & CFM_RUNTIME_REG_MASK);
 284              		.loc 1 95 12
 285 000c B7670020 		li	a5,536895488
 286              		.loc 1 95 43
 287 0010 8326C4FE 		lw	a3,-20(s0)
 288 0014 37070001 		li	a4,16777216
 289 0018 7D17     		addi	a4,a4,-1
 290 001a 758F     		and	a4,a3,a4
 291 001c 0127     		sext.w	a4,a4
 292              		.loc 1 95 25
 293 001e 98C7     		sw	a4,8(a5)
  96:../src/platform/mpfs_hal/common/nwc/mss_cfm.c **** 
  97:../src/platform/mpfs_hal/common/nwc/mss_cfm.c ****     return;
 294              		.loc 1 97 5
 295 0020 0100     		nop
  98:../src/platform/mpfs_hal/common/nwc/mss_cfm.c **** }
 296              		.loc 1 98 1
 297 0022 6264     		ld	s0,24(sp)
 298              		.cfi_restore 8
 299              		.cfi_def_cfa 2, 32
 300 0024 0561     		addi	sp,sp,32
 301              		.cfi_def_cfa_offset 0
 302 0026 8280     		jr	ra
 303              		.cfi_endproc
 304              	.LFE26:
 306              		.section	.text.MSS_CFM_channel_mode,"ax",@progbits
 307              		.align	1
 308              		.globl	MSS_CFM_channel_mode
 310              	MSS_CFM_channel_mode:
 311              	.LFB27:
  99:../src/platform/mpfs_hal/common/nwc/mss_cfm.c **** 
 100:../src/platform/mpfs_hal/common/nwc/mss_cfm.c **** 
 101:../src/platform/mpfs_hal/common/nwc/mss_cfm.c **** void MSS_CFM_channel_mode(cfmChannelMode  chMode)
 102:../src/platform/mpfs_hal/common/nwc/mss_cfm.c **** {
 312              		.loc 1 102 1
 313              		.cfi_startproc
 314 0000 7971     		addi	sp,sp,-48
 315              		.cfi_def_cfa_offset 48
 316 0002 22F4     		sd	s0,40(sp)
 317              		.cfi_offset 8, -8
 318 0004 0018     		addi	s0,sp,48
 319              		.cfi_def_cfa 8, 0
 320 0006 233CA4FC 		sd	a0,-40(s0)
 103:../src/platform/mpfs_hal/common/nwc/mss_cfm.c **** 
 104:../src/platform/mpfs_hal/common/nwc/mss_cfm.c **** 
 105:../src/platform/mpfs_hal/common/nwc/mss_cfm.c ****     uint32_t chConfiguration = 0;
 321              		.loc 1 105 14
 322 000a 232604FE 		sw	zero,-20(s0)
 106:../src/platform/mpfs_hal/common/nwc/mss_cfm.c **** 
 107:../src/platform/mpfs_hal/common/nwc/mss_cfm.c ****     chConfiguration |= (chMode.channel0 & CFM_CHANNEL_MODE_MASK) << CFM_CH0_SHIFT_MASK;
 323              		.loc 1 107 31
 324 000e 834784FD 		lbu	a5,-40(s0)
 325              		.loc 1 107 66
 326 0012 8127     		sext.w	a5,a5
 327 0014 8D8B     		andi	a5,a5,3
 328 0016 1B870700 		sext.w	a4,a5
 329              		.loc 1 107 21
 330 001a 8327C4FE 		lw	a5,-20(s0)
 331 001e D98F     		or	a5,a5,a4
 332 0020 2326F4FE 		sw	a5,-20(s0)
 108:../src/platform/mpfs_hal/common/nwc/mss_cfm.c ****     chConfiguration |= (chMode.channel1 & CFM_CHANNEL_MODE_MASK) << CFM_CH1_SHIFT_MASK;
 333              		.loc 1 108 31
 334 0024 834794FD 		lbu	a5,-39(s0)
 335              		.loc 1 108 66
 336 0028 8127     		sext.w	a5,a5
 337 002a 9B972700 		slliw	a5,a5,2
 338 002e 8127     		sext.w	a5,a5
 339 0030 B18B     		andi	a5,a5,12
 340 0032 1B870700 		sext.w	a4,a5
 341              		.loc 1 108 21
 342 0036 8327C4FE 		lw	a5,-20(s0)
 343 003a D98F     		or	a5,a5,a4
 344 003c 2326F4FE 		sw	a5,-20(s0)
 109:../src/platform/mpfs_hal/common/nwc/mss_cfm.c ****     chConfiguration |= (chMode.channel2 & CFM_CHANNEL_MODE_MASK) << CFM_CH2_SHIFT_MASK;
 345              		.loc 1 109 31
 346 0040 8347A4FD 		lbu	a5,-38(s0)
 347              		.loc 1 109 66
 348 0044 8127     		sext.w	a5,a5
 349 0046 9B974700 		slliw	a5,a5,4
 350 004a 8127     		sext.w	a5,a5
 351 004c 93F70703 		andi	a5,a5,48
 352 0050 1B870700 		sext.w	a4,a5
 353              		.loc 1 109 21
 354 0054 8327C4FE 		lw	a5,-20(s0)
 355 0058 D98F     		or	a5,a5,a4
 356 005a 2326F4FE 		sw	a5,-20(s0)
 110:../src/platform/mpfs_hal/common/nwc/mss_cfm.c ****     chConfiguration |= (chMode.channel3 & CFM_CHANNEL_MODE_MASK) << CFM_CH3_SHIFT_MASK;
 357              		.loc 1 110 31
 358 005e 8347B4FD 		lbu	a5,-37(s0)
 359              		.loc 1 110 66
 360 0062 8127     		sext.w	a5,a5
 361 0064 9B976700 		slliw	a5,a5,6
 362 0068 8127     		sext.w	a5,a5
 363 006a 93F7F70F 		andi	a5,a5,255
 364 006e 1B870700 		sext.w	a4,a5
 365              		.loc 1 110 21
 366 0072 8327C4FE 		lw	a5,-20(s0)
 367 0076 D98F     		or	a5,a5,a4
 368 0078 2326F4FE 		sw	a5,-20(s0)
 111:../src/platform/mpfs_hal/common/nwc/mss_cfm.c ****     chConfiguration |= (chMode.channel4 & CFM_CHANNEL_MODE_MASK) << CFM_CH4_SHIFT_MASK;
 369              		.loc 1 111 31
 370 007c 8347C4FD 		lbu	a5,-36(s0)
 371              		.loc 1 111 66
 372 0080 8127     		sext.w	a5,a5
 373 0082 9B978700 		slliw	a5,a5,8
 374 0086 8127     		sext.w	a5,a5
 375 0088 93F70730 		andi	a5,a5,768
 376 008c 1B870700 		sext.w	a4,a5
 377              		.loc 1 111 21
 378 0090 8327C4FE 		lw	a5,-20(s0)
 379 0094 D98F     		or	a5,a5,a4
 380 0096 2326F4FE 		sw	a5,-20(s0)
 112:../src/platform/mpfs_hal/common/nwc/mss_cfm.c ****     chConfiguration |= (chMode.channel5 & CFM_CHANNEL_MODE_MASK) << CFM_CH5_SHIFT_MASK;
 381              		.loc 1 112 31
 382 009a 8347D4FD 		lbu	a5,-35(s0)
 383              		.loc 1 112 66
 384 009e 8127     		sext.w	a5,a5
 385 00a0 9B97A700 		slliw	a5,a5,10
 386 00a4 8127     		sext.w	a5,a5
 387 00a6 3E87     		mv	a4,a5
 388 00a8 8567     		li	a5,4096
 389 00aa 938707C0 		addi	a5,a5,-1024
 390 00ae F98F     		and	a5,a4,a5
 391 00b0 1B870700 		sext.w	a4,a5
 392              		.loc 1 112 21
 393 00b4 8327C4FE 		lw	a5,-20(s0)
 394 00b8 D98F     		or	a5,a5,a4
 395 00ba 2326F4FE 		sw	a5,-20(s0)
 113:../src/platform/mpfs_hal/common/nwc/mss_cfm.c ****     chConfiguration |= (chMode.channel6 & CFM_CHANNEL_MODE_MASK) << CFM_CH6_SHIFT_MASK;
 396              		.loc 1 113 31
 397 00be 8347E4FD 		lbu	a5,-34(s0)
 398              		.loc 1 113 66
 399 00c2 8127     		sext.w	a5,a5
 400 00c4 9B97C700 		slliw	a5,a5,12
 401 00c8 8127     		sext.w	a5,a5
 402 00ca 3E87     		mv	a4,a5
 403 00cc 8D67     		li	a5,12288
 404 00ce F98F     		and	a5,a4,a5
 405 00d0 1B870700 		sext.w	a4,a5
 406              		.loc 1 113 21
 407 00d4 8327C4FE 		lw	a5,-20(s0)
 408 00d8 D98F     		or	a5,a5,a4
 409 00da 2326F4FE 		sw	a5,-20(s0)
 114:../src/platform/mpfs_hal/common/nwc/mss_cfm.c ****     chConfiguration |= (chMode.channel7 & CFM_CHANNEL_MODE_MASK) << CFM_CH7_SHIFT_MASK;
 410              		.loc 1 114 31
 411 00de 8347F4FD 		lbu	a5,-33(s0)
 412              		.loc 1 114 66
 413 00e2 8127     		sext.w	a5,a5
 414 00e4 9B97E700 		slliw	a5,a5,14
 415 00e8 8127     		sext.w	a5,a5
 416 00ea 3E87     		mv	a4,a5
 417 00ec C167     		li	a5,65536
 418 00ee FD17     		addi	a5,a5,-1
 419 00f0 F98F     		and	a5,a4,a5
 420 00f2 1B870700 		sext.w	a4,a5
 421              		.loc 1 114 21
 422 00f6 8327C4FE 		lw	a5,-20(s0)
 423 00fa D98F     		or	a5,a5,a4
 424 00fc 2326F4FE 		sw	a5,-20(s0)
 115:../src/platform/mpfs_hal/common/nwc/mss_cfm.c **** 
 116:../src/platform/mpfs_hal/common/nwc/mss_cfm.c ****     CFM_REG->modelReg = chConfiguration;
 425              		.loc 1 116 12
 426 0100 B7670020 		li	a5,536895488
 427              		.loc 1 116 23
 428 0104 0327C4FE 		lw	a4,-20(s0)
 429 0108 D8C7     		sw	a4,12(a5)
 117:../src/platform/mpfs_hal/common/nwc/mss_cfm.c **** 
 118:../src/platform/mpfs_hal/common/nwc/mss_cfm.c **** 
 119:../src/platform/mpfs_hal/common/nwc/mss_cfm.c ****     return;
 430              		.loc 1 119 5
 431 010a 0100     		nop
 120:../src/platform/mpfs_hal/common/nwc/mss_cfm.c **** }
 432              		.loc 1 120 1
 433 010c 2274     		ld	s0,40(sp)
 434              		.cfi_restore 8
 435              		.cfi_def_cfa 2, 48
 436 010e 4561     		addi	sp,sp,48
 437              		.cfi_def_cfa_offset 0
 438 0110 8280     		jr	ra
 439              		.cfi_endproc
 440              	.LFE27:
 442              		.section	.text.MSS_CFM_get_count,"ax",@progbits
 443              		.align	1
 444              		.globl	MSS_CFM_get_count
 446              	MSS_CFM_get_count:
 447              	.LFB28:
 121:../src/platform/mpfs_hal/common/nwc/mss_cfm.c **** 
 122:../src/platform/mpfs_hal/common/nwc/mss_cfm.c **** cfm_error_id_t MSS_CFM_get_count(cfm_count_id_t ch, uint32_t *count)
 123:../src/platform/mpfs_hal/common/nwc/mss_cfm.c **** {
 448              		.loc 1 123 1
 449              		.cfi_startproc
 450 0000 0111     		addi	sp,sp,-32
 451              		.cfi_def_cfa_offset 32
 452 0002 22EC     		sd	s0,24(sp)
 453              		.cfi_offset 8, -8
 454 0004 0010     		addi	s0,sp,32
 455              		.cfi_def_cfa 8, 0
 456 0006 AA87     		mv	a5,a0
 457 0008 2330B4FE 		sd	a1,-32(s0)
 458 000c 2326F4FE 		sw	a5,-20(s0)
 124:../src/platform/mpfs_hal/common/nwc/mss_cfm.c **** 
 125:../src/platform/mpfs_hal/common/nwc/mss_cfm.c ****     if(count == NULL)
 459              		.loc 1 125 7
 460 0010 833704FE 		ld	a5,-32(s0)
 461 0014 99E3     		bne	a5,zero,.L20
 126:../src/platform/mpfs_hal/common/nwc/mss_cfm.c ****         return ERROR_NULL_VALUE;
 462              		.loc 1 126 16
 463 0016 9947     		li	a5,6
 464 0018 D5A0     		j	.L21
 465              	.L20:
 127:../src/platform/mpfs_hal/common/nwc/mss_cfm.c **** 
 128:../src/platform/mpfs_hal/common/nwc/mss_cfm.c ****     *count = 0;
 466              		.loc 1 128 12
 467 001a 833704FE 		ld	a5,-32(s0)
 468 001e 23A00700 		sw	zero,0(a5)
 129:../src/platform/mpfs_hal/common/nwc/mss_cfm.c **** 
 130:../src/platform/mpfs_hal/common/nwc/mss_cfm.c ****     if(CFM_REG->controlReg & CFM_CONTROL_REG_BUSY_MASK)
 469              		.loc 1 130 15
 470 0022 B7670020 		li	a5,536895488
 471 0026 9C43     		lw	a5,0(a5)
 472 0028 8127     		sext.w	a5,a5
 473              		.loc 1 130 28
 474 002a 858B     		andi	a5,a5,1
 475 002c 8127     		sext.w	a5,a5
 476              		.loc 1 130 7
 477 002e 99C3     		beq	a5,zero,.L22
 131:../src/platform/mpfs_hal/common/nwc/mss_cfm.c ****         return ERROR_INVALID_CFM_BUSY;
 478              		.loc 1 131 16
 479 0030 9547     		li	a5,5
 480 0032 E9A0     		j	.L21
 481              	.L22:
 132:../src/platform/mpfs_hal/common/nwc/mss_cfm.c **** 
 133:../src/platform/mpfs_hal/common/nwc/mss_cfm.c ****     switch(ch)
 482              		.loc 1 133 5
 483 0034 8327C4FE 		lw	a5,-20(s0)
 484 0038 1B870700 		sext.w	a4,a5
 485 003c 9D47     		li	a5,7
 486 003e 63ECE70A 		bgtu	a4,a5,.L23
 487 0042 8367C4FE 		lwu	a5,-20(s0)
 488 0046 13972700 		slli	a4,a5,2
 489 004a 97070000 		lla	a5,.L25
 489      93870700 
 490 0052 BA97     		add	a5,a4,a5
 491 0054 9C43     		lw	a5,0(a5)
 492 0056 1B870700 		sext.w	a4,a5
 493 005a 97070000 		lla	a5,.L25
 493      93870700 
 494 0062 BA97     		add	a5,a4,a5
 495 0064 8287     		jr	a5
 496              		.section	.rodata.MSS_CFM_get_count,"a",@progbits
 497              		.align	2
 498              		.align	2
 499              	.L25:
 500 0000 00000000 		.word	.L32-.L25
 501 0004 00000000 		.word	.L31-.L25
 502 0008 00000000 		.word	.L30-.L25
 503 000c 00000000 		.word	.L29-.L25
 504 0010 00000000 		.word	.L28-.L25
 505 0014 00000000 		.word	.L27-.L25
 506 0018 00000000 		.word	.L26-.L25
 507 001c 00000000 		.word	.L24-.L25
 508              		.section	.text.MSS_CFM_get_count
 509              	.L32:
 134:../src/platform/mpfs_hal/common/nwc/mss_cfm.c ****     {
 135:../src/platform/mpfs_hal/common/nwc/mss_cfm.c ****         case CFM_COUNT_0:
 136:../src/platform/mpfs_hal/common/nwc/mss_cfm.c ****             *count = CFM_REG->count0;
 510              		.loc 1 136 29
 511 0066 B7670020 		li	a5,536895488
 512 006a 9C4B     		lw	a5,16(a5)
 513 006c 1B870700 		sext.w	a4,a5
 514              		.loc 1 136 20
 515 0070 833704FE 		ld	a5,-32(s0)
 516 0074 98C3     		sw	a4,0(a5)
 137:../src/platform/mpfs_hal/common/nwc/mss_cfm.c ****             break;
 517              		.loc 1 137 13
 518 0076 51A0     		j	.L33
 519              	.L31:
 138:../src/platform/mpfs_hal/common/nwc/mss_cfm.c **** 
 139:../src/platform/mpfs_hal/common/nwc/mss_cfm.c ****         case CFM_COUNT_1:
 140:../src/platform/mpfs_hal/common/nwc/mss_cfm.c ****             *count = CFM_REG->count1;
 520              		.loc 1 140 29
 521 0078 B7670020 		li	a5,536895488
 522 007c DC4B     		lw	a5,20(a5)
 523 007e 1B870700 		sext.w	a4,a5
 524              		.loc 1 140 20
 525 0082 833704FE 		ld	a5,-32(s0)
 526 0086 98C3     		sw	a4,0(a5)
 141:../src/platform/mpfs_hal/common/nwc/mss_cfm.c ****             break;
 527              		.loc 1 141 13
 528 0088 8DA8     		j	.L33
 529              	.L30:
 142:../src/platform/mpfs_hal/common/nwc/mss_cfm.c **** 
 143:../src/platform/mpfs_hal/common/nwc/mss_cfm.c ****         case CFM_COUNT_2:
 144:../src/platform/mpfs_hal/common/nwc/mss_cfm.c ****             *count = CFM_REG->count2;
 530              		.loc 1 144 29
 531 008a B7670020 		li	a5,536895488
 532 008e 9C4F     		lw	a5,24(a5)
 533 0090 1B870700 		sext.w	a4,a5
 534              		.loc 1 144 20
 535 0094 833704FE 		ld	a5,-32(s0)
 536 0098 98C3     		sw	a4,0(a5)
 145:../src/platform/mpfs_hal/common/nwc/mss_cfm.c ****             break;
 537              		.loc 1 145 13
 538 009a 85A0     		j	.L33
 539              	.L29:
 146:../src/platform/mpfs_hal/common/nwc/mss_cfm.c **** 
 147:../src/platform/mpfs_hal/common/nwc/mss_cfm.c ****         case CFM_COUNT_3:
 148:../src/platform/mpfs_hal/common/nwc/mss_cfm.c ****             *count = CFM_REG->count3;
 540              		.loc 1 148 29
 541 009c B7670020 		li	a5,536895488
 542 00a0 DC4F     		lw	a5,28(a5)
 543 00a2 1B870700 		sext.w	a4,a5
 544              		.loc 1 148 20
 545 00a6 833704FE 		ld	a5,-32(s0)
 546 00aa 98C3     		sw	a4,0(a5)
 149:../src/platform/mpfs_hal/common/nwc/mss_cfm.c ****             break;
 547              		.loc 1 149 13
 548 00ac B9A0     		j	.L33
 549              	.L28:
 150:../src/platform/mpfs_hal/common/nwc/mss_cfm.c **** 
 151:../src/platform/mpfs_hal/common/nwc/mss_cfm.c ****         case CFM_COUNT_4:
 152:../src/platform/mpfs_hal/common/nwc/mss_cfm.c ****             *count = CFM_REG->count4;
 550              		.loc 1 152 29
 551 00ae B7670020 		li	a5,536895488
 552 00b2 9C53     		lw	a5,32(a5)
 553 00b4 1B870700 		sext.w	a4,a5
 554              		.loc 1 152 20
 555 00b8 833704FE 		ld	a5,-32(s0)
 556 00bc 98C3     		sw	a4,0(a5)
 153:../src/platform/mpfs_hal/common/nwc/mss_cfm.c ****             break;
 557              		.loc 1 153 13
 558 00be 35A8     		j	.L33
 559              	.L27:
 154:../src/platform/mpfs_hal/common/nwc/mss_cfm.c **** 
 155:../src/platform/mpfs_hal/common/nwc/mss_cfm.c ****         case CFM_COUNT_5:
 156:../src/platform/mpfs_hal/common/nwc/mss_cfm.c ****             *count = CFM_REG->count5;
 560              		.loc 1 156 29
 561 00c0 B7670020 		li	a5,536895488
 562 00c4 DC53     		lw	a5,36(a5)
 563 00c6 1B870700 		sext.w	a4,a5
 564              		.loc 1 156 20
 565 00ca 833704FE 		ld	a5,-32(s0)
 566 00ce 98C3     		sw	a4,0(a5)
 157:../src/platform/mpfs_hal/common/nwc/mss_cfm.c ****             break;
 567              		.loc 1 157 13
 568 00d0 2DA0     		j	.L33
 569              	.L26:
 158:../src/platform/mpfs_hal/common/nwc/mss_cfm.c **** 
 159:../src/platform/mpfs_hal/common/nwc/mss_cfm.c ****         case CFM_COUNT_6:
 160:../src/platform/mpfs_hal/common/nwc/mss_cfm.c ****             *count = CFM_REG->count6;
 570              		.loc 1 160 29
 571 00d2 B7670020 		li	a5,536895488
 572 00d6 9C57     		lw	a5,40(a5)
 573 00d8 1B870700 		sext.w	a4,a5
 574              		.loc 1 160 20
 575 00dc 833704FE 		ld	a5,-32(s0)
 576 00e0 98C3     		sw	a4,0(a5)
 161:../src/platform/mpfs_hal/common/nwc/mss_cfm.c ****             break;
 577              		.loc 1 161 13
 578 00e2 21A8     		j	.L33
 579              	.L24:
 162:../src/platform/mpfs_hal/common/nwc/mss_cfm.c **** 
 163:../src/platform/mpfs_hal/common/nwc/mss_cfm.c ****         case CFM_COUNT_7:
 164:../src/platform/mpfs_hal/common/nwc/mss_cfm.c ****             *count = CFM_REG->count7;
 580              		.loc 1 164 29
 581 00e4 B7670020 		li	a5,536895488
 582 00e8 DC57     		lw	a5,44(a5)
 583 00ea 1B870700 		sext.w	a4,a5
 584              		.loc 1 164 20
 585 00ee 833704FE 		ld	a5,-32(s0)
 586 00f2 98C3     		sw	a4,0(a5)
 165:../src/platform/mpfs_hal/common/nwc/mss_cfm.c ****             break;
 587              		.loc 1 165 13
 588 00f4 19A0     		j	.L33
 589              	.L23:
 166:../src/platform/mpfs_hal/common/nwc/mss_cfm.c **** 
 167:../src/platform/mpfs_hal/common/nwc/mss_cfm.c ****         default:
 168:../src/platform/mpfs_hal/common/nwc/mss_cfm.c ****             return 11;
 590              		.loc 1 168 20
 591 00f6 AD47     		li	a5,11
 592 00f8 11A0     		j	.L21
 593              	.L33:
 169:../src/platform/mpfs_hal/common/nwc/mss_cfm.c **** 
 170:../src/platform/mpfs_hal/common/nwc/mss_cfm.c **** 
 171:../src/platform/mpfs_hal/common/nwc/mss_cfm.c ****     }
 172:../src/platform/mpfs_hal/common/nwc/mss_cfm.c **** 
 173:../src/platform/mpfs_hal/common/nwc/mss_cfm.c ****     return CFM_OK;
 594              		.loc 1 173 12
 595 00fa 8147     		li	a5,0
 596              	.L21:
 174:../src/platform/mpfs_hal/common/nwc/mss_cfm.c **** 
 175:../src/platform/mpfs_hal/common/nwc/mss_cfm.c **** }
 597              		.loc 1 175 1
 598 00fc 3E85     		mv	a0,a5
 599 00fe 6264     		ld	s0,24(sp)
 600              		.cfi_restore 8
 601              		.cfi_def_cfa 2, 32
 602 0100 0561     		addi	sp,sp,32
 603              		.cfi_def_cfa_offset 0
 604 0102 8280     		jr	ra
 605              		.cfi_endproc
 606              	.LFE28:
 608              		.text
 609              	.Letext0:
 610              		.file 2 "/home/vinay/Desktop/soft_console/SoftConsole-v2022.2-RISC-V-747/riscv-unknown-elf-gcc/ris
 611              		.file 3 "/home/vinay/Desktop/soft_console/SoftConsole-v2022.2-RISC-V-747/riscv-unknown-elf-gcc/ris
 612              		.file 4 "/home/vinay/Desktop/soft_console/SoftConsole-v2022.2-RISC-V-747/riscv-unknown-elf-gcc/lib
 613              		.file 5 "/home/vinay/Desktop/soft_console/SoftConsole-v2022.2-RISC-V-747/riscv-unknown-elf-gcc/ris
 614              		.file 6 "/home/vinay/Desktop/soft_console/SoftConsole-v2022.2-RISC-V-747/riscv-unknown-elf-gcc/ris
 615              		.file 7 "/home/vinay/Desktop/soft_console/SoftConsole-v2022.2-RISC-V-747/riscv-unknown-elf-gcc/ris
 616              		.file 8 "/home/vinay/Desktop/soft_console/SoftConsole-v2022.2-RISC-V-747/riscv-unknown-elf-gcc/ris
 617              		.file 9 "/home/vinay/Desktop/softconsole_watershed/Water-shed/src/platform/mpfs_hal/common/nwc/mss
 618              		.file 10 "/home/vinay/Desktop/softconsole_watershed/Water-shed/src/platform/mpfs_hal/common/nwc/ms
 619              		.file 11 "/home/vinay/Desktop/softconsole_watershed/Water-shed/src/platform/mpfs_hal/common/nwc/ms
 620              		.file 12 "/home/vinay/Desktop/softconsole_watershed/Water-shed/src/platform/mpfs_hal/common/mss_mp
 621              		.file 13 "/home/vinay/Desktop/softconsole_watershed/Water-shed/src/platform/mpfs_hal/common/mss_pl
 622              		.file 14 "/home/vinay/Desktop/softconsole_watershed/Water-shed/src/platform/mpfs_hal/common/nwc/ms
 623              		.file 15 "/home/vinay/Desktop/softconsole_watershed/Water-shed/src/platform/mpfs_hal/startup_gcc/s
DEFINED SYMBOLS
                            *ABS*:0000000000000000 mss_cfm.c
     /tmp/cciiZT4Y.s:13     .text.MSS_CFM_control_start:0000000000000000 MSS_CFM_control_start
     /tmp/cciiZT4Y.s:17     .text.MSS_CFM_control_start:0000000000000000 .L0 
     /tmp/cciiZT4Y.s:18     .text.MSS_CFM_control_start:0000000000000000 .L0 
     /tmp/cciiZT4Y.s:19     .text.MSS_CFM_control_start:0000000000000002 .L0 
     /tmp/cciiZT4Y.s:21     .text.MSS_CFM_control_start:0000000000000004 .L0 
     /tmp/cciiZT4Y.s:23     .text.MSS_CFM_control_start:0000000000000006 .L0 
     /tmp/cciiZT4Y.s:25     .text.MSS_CFM_control_start:0000000000000006 .L0 
     /tmp/cciiZT4Y.s:33     .text.MSS_CFM_control_start:000000000000001c .L0 
     /tmp/cciiZT4Y.s:37     .text.MSS_CFM_control_start:0000000000000024 .L0 
     /tmp/cciiZT4Y.s:41     .text.MSS_CFM_control_start:000000000000002e .L0 
     /tmp/cciiZT4Y.s:43     .text.MSS_CFM_control_start:0000000000000032 .L0 
     /tmp/cciiZT4Y.s:44     .text.MSS_CFM_control_start:0000000000000032 .L0 
     /tmp/cciiZT4Y.s:46     .text.MSS_CFM_control_start:0000000000000034 .L0 
     /tmp/cciiZT4Y.s:48     .text.MSS_CFM_control_start:0000000000000036 .L0 
     /tmp/cciiZT4Y.s:55     .text.MSS_CFM_control_stop:0000000000000000 MSS_CFM_control_stop
     /tmp/cciiZT4Y.s:58     .text.MSS_CFM_control_stop:0000000000000000 .L0 
     /tmp/cciiZT4Y.s:59     .text.MSS_CFM_control_stop:0000000000000000 .L0 
     /tmp/cciiZT4Y.s:60     .text.MSS_CFM_control_stop:0000000000000002 .L0 
     /tmp/cciiZT4Y.s:62     .text.MSS_CFM_control_stop:0000000000000004 .L0 
     /tmp/cciiZT4Y.s:64     .text.MSS_CFM_control_stop:0000000000000006 .L0 
     /tmp/cciiZT4Y.s:66     .text.MSS_CFM_control_stop:0000000000000006 .L0 
     /tmp/cciiZT4Y.s:74     .text.MSS_CFM_control_stop:000000000000001c .L0 
     /tmp/cciiZT4Y.s:78     .text.MSS_CFM_control_stop:0000000000000024 .L0 
     /tmp/cciiZT4Y.s:82     .text.MSS_CFM_control_stop:000000000000002e .L0 
     /tmp/cciiZT4Y.s:84     .text.MSS_CFM_control_stop:0000000000000032 .L0 
     /tmp/cciiZT4Y.s:85     .text.MSS_CFM_control_stop:0000000000000032 .L0 
     /tmp/cciiZT4Y.s:87     .text.MSS_CFM_control_stop:0000000000000034 .L0 
     /tmp/cciiZT4Y.s:89     .text.MSS_CFM_control_stop:0000000000000036 .L0 
     /tmp/cciiZT4Y.s:96     .text.MSS_CLF_clk_configuration:0000000000000000 MSS_CLF_clk_configuration
     /tmp/cciiZT4Y.s:99     .text.MSS_CLF_clk_configuration:0000000000000000 .L0 
     /tmp/cciiZT4Y.s:100    .text.MSS_CLF_clk_configuration:0000000000000000 .L0 
     /tmp/cciiZT4Y.s:101    .text.MSS_CLF_clk_configuration:0000000000000002 .L0 
     /tmp/cciiZT4Y.s:103    .text.MSS_CLF_clk_configuration:0000000000000004 .L0 
     /tmp/cciiZT4Y.s:105    .text.MSS_CLF_clk_configuration:0000000000000006 .L0 
     /tmp/cciiZT4Y.s:117    .text.MSS_CLF_clk_configuration:0000000000000024 .L0 
     /tmp/cciiZT4Y.s:119    .text.MSS_CLF_clk_configuration:0000000000000028 .L0 
     /tmp/cciiZT4Y.s:121    .text.MSS_CLF_clk_configuration:000000000000002c .L0 
     /tmp/cciiZT4Y.s:126    .text.MSS_CLF_clk_configuration:000000000000003a .L0 
     /tmp/cciiZT4Y.s:130    .text.MSS_CLF_clk_configuration:000000000000003e .L0 
     /tmp/cciiZT4Y.s:135    .text.MSS_CLF_clk_configuration:000000000000004c .L0 
     /tmp/cciiZT4Y.s:139    .text.MSS_CLF_clk_configuration:0000000000000050 .L0 
     /tmp/cciiZT4Y.s:144    .text.MSS_CLF_clk_configuration:000000000000005e .L0 
     /tmp/cciiZT4Y.s:148    .text.MSS_CLF_clk_configuration:0000000000000062 .L0 
     /tmp/cciiZT4Y.s:153    .text.MSS_CLF_clk_configuration:0000000000000070 .L0 
     /tmp/cciiZT4Y.s:157    .text.MSS_CLF_clk_configuration:0000000000000074 .L0 
     /tmp/cciiZT4Y.s:161    .text.MSS_CLF_clk_configuration:000000000000007e .L0 
     /tmp/cciiZT4Y.s:166    .text.MSS_CLF_clk_configuration:000000000000008a .L0 
     /tmp/cciiZT4Y.s:171    .text.MSS_CLF_clk_configuration:0000000000000094 .L0 
     /tmp/cciiZT4Y.s:175    .text.MSS_CLF_clk_configuration:000000000000009e .L0 
     /tmp/cciiZT4Y.s:179    .text.MSS_CLF_clk_configuration:00000000000000a8 .L0 
     /tmp/cciiZT4Y.s:184    .text.MSS_CLF_clk_configuration:00000000000000b4 .L0 
     /tmp/cciiZT4Y.s:186    .text.MSS_CLF_clk_configuration:00000000000000b8 .L0 
     /tmp/cciiZT4Y.s:192    .text.MSS_CLF_clk_configuration:00000000000000c2 .L0 
     /tmp/cciiZT4Y.s:196    .text.MSS_CLF_clk_configuration:00000000000000cc .L0 
     /tmp/cciiZT4Y.s:200    .text.MSS_CLF_clk_configuration:00000000000000d6 .L0 
     /tmp/cciiZT4Y.s:205    .text.MSS_CLF_clk_configuration:00000000000000e2 .L0 
     /tmp/cciiZT4Y.s:207    .text.MSS_CLF_clk_configuration:00000000000000e6 .L0 
     /tmp/cciiZT4Y.s:213    .text.MSS_CLF_clk_configuration:00000000000000f0 .L0 
     /tmp/cciiZT4Y.s:217    .text.MSS_CLF_clk_configuration:00000000000000fa .L0 
     /tmp/cciiZT4Y.s:221    .text.MSS_CLF_clk_configuration:0000000000000104 .L0 
     /tmp/cciiZT4Y.s:226    .text.MSS_CLF_clk_configuration:0000000000000110 .L0 
     /tmp/cciiZT4Y.s:228    .text.MSS_CLF_clk_configuration:0000000000000114 .L0 
     /tmp/cciiZT4Y.s:234    .text.MSS_CLF_clk_configuration:000000000000011e .L0 
     /tmp/cciiZT4Y.s:238    .text.MSS_CLF_clk_configuration:0000000000000128 .L0 
     /tmp/cciiZT4Y.s:242    .text.MSS_CLF_clk_configuration:0000000000000132 .L0 
     /tmp/cciiZT4Y.s:247    .text.MSS_CLF_clk_configuration:000000000000013e .L0 
     /tmp/cciiZT4Y.s:249    .text.MSS_CLF_clk_configuration:0000000000000142 .L0 
     /tmp/cciiZT4Y.s:255    .text.MSS_CLF_clk_configuration:000000000000014c .L0 
     /tmp/cciiZT4Y.s:258    .text.MSS_CLF_clk_configuration:000000000000014e .L0 
     /tmp/cciiZT4Y.s:260    .text.MSS_CLF_clk_configuration:0000000000000152 .L0 
     /tmp/cciiZT4Y.s:261    .text.MSS_CLF_clk_configuration:0000000000000152 .L0 
     /tmp/cciiZT4Y.s:263    .text.MSS_CLF_clk_configuration:0000000000000154 .L0 
     /tmp/cciiZT4Y.s:265    .text.MSS_CLF_clk_configuration:0000000000000156 .L0 
     /tmp/cciiZT4Y.s:272    .text.MSS_CFM_runtime_register:0000000000000000 MSS_CFM_runtime_register
     /tmp/cciiZT4Y.s:275    .text.MSS_CFM_runtime_register:0000000000000000 .L0 
     /tmp/cciiZT4Y.s:276    .text.MSS_CFM_runtime_register:0000000000000000 .L0 
     /tmp/cciiZT4Y.s:277    .text.MSS_CFM_runtime_register:0000000000000002 .L0 
     /tmp/cciiZT4Y.s:279    .text.MSS_CFM_runtime_register:0000000000000004 .L0 
     /tmp/cciiZT4Y.s:281    .text.MSS_CFM_runtime_register:0000000000000006 .L0 
     /tmp/cciiZT4Y.s:285    .text.MSS_CFM_runtime_register:000000000000000c .L0 
     /tmp/cciiZT4Y.s:287    .text.MSS_CFM_runtime_register:0000000000000010 .L0 
     /tmp/cciiZT4Y.s:293    .text.MSS_CFM_runtime_register:000000000000001e .L0 
     /tmp/cciiZT4Y.s:295    .text.MSS_CFM_runtime_register:0000000000000020 .L0 
     /tmp/cciiZT4Y.s:297    .text.MSS_CFM_runtime_register:0000000000000022 .L0 
     /tmp/cciiZT4Y.s:298    .text.MSS_CFM_runtime_register:0000000000000024 .L0 
     /tmp/cciiZT4Y.s:299    .text.MSS_CFM_runtime_register:0000000000000024 .L0 
     /tmp/cciiZT4Y.s:301    .text.MSS_CFM_runtime_register:0000000000000026 .L0 
     /tmp/cciiZT4Y.s:303    .text.MSS_CFM_runtime_register:0000000000000028 .L0 
     /tmp/cciiZT4Y.s:310    .text.MSS_CFM_channel_mode:0000000000000000 MSS_CFM_channel_mode
     /tmp/cciiZT4Y.s:313    .text.MSS_CFM_channel_mode:0000000000000000 .L0 
     /tmp/cciiZT4Y.s:314    .text.MSS_CFM_channel_mode:0000000000000000 .L0 
     /tmp/cciiZT4Y.s:315    .text.MSS_CFM_channel_mode:0000000000000002 .L0 
     /tmp/cciiZT4Y.s:317    .text.MSS_CFM_channel_mode:0000000000000004 .L0 
     /tmp/cciiZT4Y.s:319    .text.MSS_CFM_channel_mode:0000000000000006 .L0 
     /tmp/cciiZT4Y.s:322    .text.MSS_CFM_channel_mode:000000000000000a .L0 
     /tmp/cciiZT4Y.s:324    .text.MSS_CFM_channel_mode:000000000000000e .L0 
     /tmp/cciiZT4Y.s:326    .text.MSS_CFM_channel_mode:0000000000000012 .L0 
     /tmp/cciiZT4Y.s:330    .text.MSS_CFM_channel_mode:000000000000001a .L0 
     /tmp/cciiZT4Y.s:334    .text.MSS_CFM_channel_mode:0000000000000024 .L0 
     /tmp/cciiZT4Y.s:336    .text.MSS_CFM_channel_mode:0000000000000028 .L0 
     /tmp/cciiZT4Y.s:342    .text.MSS_CFM_channel_mode:0000000000000036 .L0 
     /tmp/cciiZT4Y.s:346    .text.MSS_CFM_channel_mode:0000000000000040 .L0 
     /tmp/cciiZT4Y.s:348    .text.MSS_CFM_channel_mode:0000000000000044 .L0 
     /tmp/cciiZT4Y.s:354    .text.MSS_CFM_channel_mode:0000000000000054 .L0 
     /tmp/cciiZT4Y.s:358    .text.MSS_CFM_channel_mode:000000000000005e .L0 
     /tmp/cciiZT4Y.s:360    .text.MSS_CFM_channel_mode:0000000000000062 .L0 
     /tmp/cciiZT4Y.s:366    .text.MSS_CFM_channel_mode:0000000000000072 .L0 
     /tmp/cciiZT4Y.s:370    .text.MSS_CFM_channel_mode:000000000000007c .L0 
     /tmp/cciiZT4Y.s:372    .text.MSS_CFM_channel_mode:0000000000000080 .L0 
     /tmp/cciiZT4Y.s:378    .text.MSS_CFM_channel_mode:0000000000000090 .L0 
     /tmp/cciiZT4Y.s:382    .text.MSS_CFM_channel_mode:000000000000009a .L0 
     /tmp/cciiZT4Y.s:384    .text.MSS_CFM_channel_mode:000000000000009e .L0 
     /tmp/cciiZT4Y.s:393    .text.MSS_CFM_channel_mode:00000000000000b4 .L0 
     /tmp/cciiZT4Y.s:397    .text.MSS_CFM_channel_mode:00000000000000be .L0 
     /tmp/cciiZT4Y.s:399    .text.MSS_CFM_channel_mode:00000000000000c2 .L0 
     /tmp/cciiZT4Y.s:407    .text.MSS_CFM_channel_mode:00000000000000d4 .L0 
     /tmp/cciiZT4Y.s:411    .text.MSS_CFM_channel_mode:00000000000000de .L0 
     /tmp/cciiZT4Y.s:413    .text.MSS_CFM_channel_mode:00000000000000e2 .L0 
     /tmp/cciiZT4Y.s:422    .text.MSS_CFM_channel_mode:00000000000000f6 .L0 
     /tmp/cciiZT4Y.s:426    .text.MSS_CFM_channel_mode:0000000000000100 .L0 
     /tmp/cciiZT4Y.s:428    .text.MSS_CFM_channel_mode:0000000000000104 .L0 
     /tmp/cciiZT4Y.s:431    .text.MSS_CFM_channel_mode:000000000000010a .L0 
     /tmp/cciiZT4Y.s:433    .text.MSS_CFM_channel_mode:000000000000010c .L0 
     /tmp/cciiZT4Y.s:434    .text.MSS_CFM_channel_mode:000000000000010e .L0 
     /tmp/cciiZT4Y.s:435    .text.MSS_CFM_channel_mode:000000000000010e .L0 
     /tmp/cciiZT4Y.s:437    .text.MSS_CFM_channel_mode:0000000000000110 .L0 
     /tmp/cciiZT4Y.s:439    .text.MSS_CFM_channel_mode:0000000000000112 .L0 
     /tmp/cciiZT4Y.s:446    .text.MSS_CFM_get_count:0000000000000000 MSS_CFM_get_count
     /tmp/cciiZT4Y.s:449    .text.MSS_CFM_get_count:0000000000000000 .L0 
     /tmp/cciiZT4Y.s:450    .text.MSS_CFM_get_count:0000000000000000 .L0 
     /tmp/cciiZT4Y.s:451    .text.MSS_CFM_get_count:0000000000000002 .L0 
     /tmp/cciiZT4Y.s:453    .text.MSS_CFM_get_count:0000000000000004 .L0 
     /tmp/cciiZT4Y.s:455    .text.MSS_CFM_get_count:0000000000000006 .L0 
     /tmp/cciiZT4Y.s:460    .text.MSS_CFM_get_count:0000000000000010 .L0 
     /tmp/cciiZT4Y.s:463    .text.MSS_CFM_get_count:0000000000000016 .L0 
     /tmp/cciiZT4Y.s:467    .text.MSS_CFM_get_count:000000000000001a .L0 
     /tmp/cciiZT4Y.s:470    .text.MSS_CFM_get_count:0000000000000022 .L0 
     /tmp/cciiZT4Y.s:474    .text.MSS_CFM_get_count:000000000000002a .L0 
     /tmp/cciiZT4Y.s:477    .text.MSS_CFM_get_count:000000000000002e .L0 
     /tmp/cciiZT4Y.s:479    .text.MSS_CFM_get_count:0000000000000030 .L0 
     /tmp/cciiZT4Y.s:483    .text.MSS_CFM_get_count:0000000000000034 .L0 
     /tmp/cciiZT4Y.s:511    .text.MSS_CFM_get_count:0000000000000066 .L0 
     /tmp/cciiZT4Y.s:515    .text.MSS_CFM_get_count:0000000000000070 .L0 
     /tmp/cciiZT4Y.s:518    .text.MSS_CFM_get_count:0000000000000076 .L0 
     /tmp/cciiZT4Y.s:521    .text.MSS_CFM_get_count:0000000000000078 .L0 
     /tmp/cciiZT4Y.s:525    .text.MSS_CFM_get_count:0000000000000082 .L0 
     /tmp/cciiZT4Y.s:528    .text.MSS_CFM_get_count:0000000000000088 .L0 
     /tmp/cciiZT4Y.s:531    .text.MSS_CFM_get_count:000000000000008a .L0 
     /tmp/cciiZT4Y.s:535    .text.MSS_CFM_get_count:0000000000000094 .L0 
     /tmp/cciiZT4Y.s:538    .text.MSS_CFM_get_count:000000000000009a .L0 
     /tmp/cciiZT4Y.s:541    .text.MSS_CFM_get_count:000000000000009c .L0 
     /tmp/cciiZT4Y.s:545    .text.MSS_CFM_get_count:00000000000000a6 .L0 
     /tmp/cciiZT4Y.s:548    .text.MSS_CFM_get_count:00000000000000ac .L0 
     /tmp/cciiZT4Y.s:551    .text.MSS_CFM_get_count:00000000000000ae .L0 
     /tmp/cciiZT4Y.s:555    .text.MSS_CFM_get_count:00000000000000b8 .L0 
     /tmp/cciiZT4Y.s:558    .text.MSS_CFM_get_count:00000000000000be .L0 
     /tmp/cciiZT4Y.s:561    .text.MSS_CFM_get_count:00000000000000c0 .L0 
     /tmp/cciiZT4Y.s:565    .text.MSS_CFM_get_count:00000000000000ca .L0 
     /tmp/cciiZT4Y.s:568    .text.MSS_CFM_get_count:00000000000000d0 .L0 
     /tmp/cciiZT4Y.s:571    .text.MSS_CFM_get_count:00000000000000d2 .L0 
     /tmp/cciiZT4Y.s:575    .text.MSS_CFM_get_count:00000000000000dc .L0 
     /tmp/cciiZT4Y.s:578    .text.MSS_CFM_get_count:00000000000000e2 .L0 
     /tmp/cciiZT4Y.s:581    .text.MSS_CFM_get_count:00000000000000e4 .L0 
     /tmp/cciiZT4Y.s:585    .text.MSS_CFM_get_count:00000000000000ee .L0 
     /tmp/cciiZT4Y.s:588    .text.MSS_CFM_get_count:00000000000000f4 .L0 
     /tmp/cciiZT4Y.s:591    .text.MSS_CFM_get_count:00000000000000f6 .L0 
     /tmp/cciiZT4Y.s:595    .text.MSS_CFM_get_count:00000000000000fa .L0 
     /tmp/cciiZT4Y.s:598    .text.MSS_CFM_get_count:00000000000000fc .L0 
     /tmp/cciiZT4Y.s:600    .text.MSS_CFM_get_count:0000000000000100 .L0 
     /tmp/cciiZT4Y.s:601    .text.MSS_CFM_get_count:0000000000000100 .L0 
     /tmp/cciiZT4Y.s:603    .text.MSS_CFM_get_count:0000000000000102 .L0 
     /tmp/cciiZT4Y.s:605    .text.MSS_CFM_get_count:0000000000000104 .L0 
     /tmp/cciiZT4Y.s:51     .text.MSS_CFM_control_start:0000000000000036 .L0 
     /tmp/cciiZT4Y.s:92     .text.MSS_CFM_control_stop:0000000000000036 .L0 
     /tmp/cciiZT4Y.s:268    .text.MSS_CLF_clk_configuration:0000000000000156 .L0 
     /tmp/cciiZT4Y.s:306    .text.MSS_CFM_runtime_register:0000000000000028 .L0 
     /tmp/cciiZT4Y.s:442    .text.MSS_CFM_channel_mode:0000000000000112 .L0 
     /tmp/cciiZT4Y.s:608    .text.MSS_CFM_get_count:0000000000000104 .L0 
                     .debug_frame:0000000000000000 .L0 
     /tmp/cciiZT4Y.s:128    .text.MSS_CLF_clk_configuration:000000000000003e .L6
     /tmp/cciiZT4Y.s:256    .text.MSS_CLF_clk_configuration:000000000000014e .L7
     /tmp/cciiZT4Y.s:137    .text.MSS_CLF_clk_configuration:0000000000000050 .L8
     /tmp/cciiZT4Y.s:146    .text.MSS_CLF_clk_configuration:0000000000000062 .L9
     /tmp/cciiZT4Y.s:155    .text.MSS_CLF_clk_configuration:0000000000000074 .L10
     /tmp/cciiZT4Y.s:190    .text.MSS_CLF_clk_configuration:00000000000000c2 .L11
     /tmp/cciiZT4Y.s:211    .text.MSS_CLF_clk_configuration:00000000000000f0 .L12
     /tmp/cciiZT4Y.s:232    .text.MSS_CLF_clk_configuration:000000000000011e .L13
     /tmp/cciiZT4Y.s:253    .text.MSS_CLF_clk_configuration:000000000000014c .L14
     /tmp/cciiZT4Y.s:499    .rodata.MSS_CFM_get_count:0000000000000000 .L25
     /tmp/cciiZT4Y.s:489    .text.MSS_CFM_get_count:000000000000004a .L0 
     /tmp/cciiZT4Y.s:493    .text.MSS_CFM_get_count:000000000000005a .L0 
     /tmp/cciiZT4Y.s:465    .text.MSS_CFM_get_count:000000000000001a .L20
     /tmp/cciiZT4Y.s:596    .text.MSS_CFM_get_count:00000000000000fc .L21
     /tmp/cciiZT4Y.s:481    .text.MSS_CFM_get_count:0000000000000034 .L22
     /tmp/cciiZT4Y.s:589    .text.MSS_CFM_get_count:00000000000000f6 .L23
     /tmp/cciiZT4Y.s:593    .text.MSS_CFM_get_count:00000000000000fa .L33
     /tmp/cciiZT4Y.s:509    .text.MSS_CFM_get_count:0000000000000066 .L32
     /tmp/cciiZT4Y.s:519    .text.MSS_CFM_get_count:0000000000000078 .L31
     /tmp/cciiZT4Y.s:529    .text.MSS_CFM_get_count:000000000000008a .L30
     /tmp/cciiZT4Y.s:539    .text.MSS_CFM_get_count:000000000000009c .L29
     /tmp/cciiZT4Y.s:549    .text.MSS_CFM_get_count:00000000000000ae .L28
     /tmp/cciiZT4Y.s:559    .text.MSS_CFM_get_count:00000000000000c0 .L27
     /tmp/cciiZT4Y.s:569    .text.MSS_CFM_get_count:00000000000000d2 .L26
     /tmp/cciiZT4Y.s:579    .text.MSS_CFM_get_count:00000000000000e4 .L24
     /tmp/cciiZT4Y.s:68198  .debug_abbrev:0000000000000000 .Ldebug_abbrev0
     /tmp/cciiZT4Y.s:97520  .debug_str:0000000000024ba6 .LASF9694
     /tmp/cciiZT4Y.s:93270  .debug_str:0000000000012e0d .LASF9695
     /tmp/cciiZT4Y.s:107944  .debug_str:000000000004f738 .LASF9696
     /tmp/cciiZT4Y.s:69048  .debug_ranges:0000000000000000 .Ldebug_ranges0
     /tmp/cciiZT4Y.s:88664  .debug_line:0000000000000000 .Ldebug_line0
     /tmp/cciiZT4Y.s:69064  .debug_macro:0000000000000000 .Ldebug_macro0
     /tmp/cciiZT4Y.s:105936  .debug_str:0000000000046ecd .LASF6047
     /tmp/cciiZT4Y.s:89810  .debug_str:0000000000004f37 .LASF6051
     /tmp/cciiZT4Y.s:93486  .debug_str:0000000000013c8f .LASF6048
     /tmp/cciiZT4Y.s:104138  .debug_str:000000000003f3c9 .LASF6049
     /tmp/cciiZT4Y.s:100162  .debug_str:000000000002f26f .LASF6050
     /tmp/cciiZT4Y.s:97238  .debug_str:00000000000239a9 .LASF6052
     /tmp/cciiZT4Y.s:89432  .debug_str:000000000000350a .LASF6053
     /tmp/cciiZT4Y.s:106382  .debug_str:0000000000048c3b .LASF6054
     /tmp/cciiZT4Y.s:94784  .debug_str:0000000000018f70 .LASF6055
     /tmp/cciiZT4Y.s:92864  .debug_str:0000000000011399 .LASF6056
     /tmp/cciiZT4Y.s:105678  .debug_str:0000000000045de3 .LASF6057
     /tmp/cciiZT4Y.s:107898  .debug_str:000000000004f3a8 .LASF6058
     /tmp/cciiZT4Y.s:100866  .debug_str:0000000000032017 .LASF6059
     /tmp/cciiZT4Y.s:99908  .debug_str:000000000002e182 .LASF6060
     /tmp/cciiZT4Y.s:92962  .debug_str:000000000001193c .LASF6061
     /tmp/cciiZT4Y.s:89352  .debug_str:0000000000002fe9 .LASF6062
     /tmp/cciiZT4Y.s:89994  .debug_str:0000000000005b09 .LASF6063
     /tmp/cciiZT4Y.s:88864  .debug_str:0000000000000d7e .LASF6064
     /tmp/cciiZT4Y.s:101804  .debug_str:00000000000360b9 .LASF6065
     /tmp/cciiZT4Y.s:102334  .debug_str:00000000000382dc .LASF6066
     /tmp/cciiZT4Y.s:107262  .debug_str:000000000004c7c0 .LASF6067
     /tmp/cciiZT4Y.s:101390  .debug_str:0000000000034382 .LASF6068
     /tmp/cciiZT4Y.s:99748  .debug_str:000000000002d6f8 .LASF6069
     /tmp/cciiZT4Y.s:89986  .debug_str:0000000000005a67 .LASF6070
     /tmp/cciiZT4Y.s:94542  .debug_str:000000000001805e .LASF6071
     /tmp/cciiZT4Y.s:94704  .debug_str:0000000000018a26 .LASF6076
     /tmp/cciiZT4Y.s:106714  .debug_str:000000000004a176 .LASF6072
     /tmp/cciiZT4Y.s:88784  .debug_str:000000000000084b .LASF6073
     /tmp/cciiZT4Y.s:103484  .debug_str:000000000003c903 .LASF6074
     /tmp/cciiZT4Y.s:90766  .debug_str:0000000000008f7c .LASF6075
     /tmp/cciiZT4Y.s:100402  .debug_str:000000000003025d .LASF6077
     /tmp/cciiZT4Y.s:91902  .debug_str:000000000000dcfb .LASF6078
     /tmp/cciiZT4Y.s:99322  .debug_str:000000000002bd24 .LASF6079
     /tmp/cciiZT4Y.s:106492  .debug_str:00000000000493b5 .LASF6080
     /tmp/cciiZT4Y.s:100894  .debug_str:00000000000321fe .LASF6081
     /tmp/cciiZT4Y.s:97206  .debug_str:000000000002377a .LASF6082
     /tmp/cciiZT4Y.s:93040  .debug_str:0000000000011eab .LASF6083
     /tmp/cciiZT4Y.s:96702  .debug_str:0000000000021562 .LASF6084
     /tmp/cciiZT4Y.s:105342  .debug_str:00000000000447b5 .LASF6085
     /tmp/cciiZT4Y.s:89774  .debug_str:0000000000004ca3 .LASF6086
     /tmp/cciiZT4Y.s:103942  .debug_str:000000000003e7f6 .LASF6087
     /tmp/cciiZT4Y.s:89292  .debug_str:0000000000002bc1 .LASF6088
     /tmp/cciiZT4Y.s:92422  .debug_str:000000000000f9a9 .LASF6089
     /tmp/cciiZT4Y.s:103418  .debug_str:000000000003c4fc .LASF6090
     /tmp/cciiZT4Y.s:99440  .debug_str:000000000002c4cd .LASF6091
     /tmp/cciiZT4Y.s:90818  .debug_str:00000000000092a9 .LASF6092
     /tmp/cciiZT4Y.s:94790  .debug_str:0000000000018fa7 .LASF6093
     /tmp/cciiZT4Y.s:98292  .debug_str:0000000000027a4b .LASF6094
     /tmp/cciiZT4Y.s:99414  .debug_str:000000000002c360 .LASF6095
     /tmp/cciiZT4Y.s:99430  .debug_str:000000000002c44d .LASF6096
     /tmp/cciiZT4Y.s:98148  .debug_str:00000000000270ee .LASF6097
     /tmp/cciiZT4Y.s:104912  .debug_str:0000000000042b79 .LASF6098
     /tmp/cciiZT4Y.s:101574  .debug_str:0000000000034fee .LASF6099
     /tmp/cciiZT4Y.s:103504  .debug_str:000000000003ca58 .LASF6100
     /tmp/cciiZT4Y.s:97862  .debug_str:0000000000025e71 .LASF6101
     /tmp/cciiZT4Y.s:89692  .debug_str:00000000000046e1 .LASF6102
     /tmp/cciiZT4Y.s:92760  .debug_str:0000000000010c9f .LASF6103
     /tmp/cciiZT4Y.s:92234  .debug_str:000000000000ee8b .LASF6104
     /tmp/cciiZT4Y.s:97544  .debug_str:0000000000024daa .LASF6105
     /tmp/cciiZT4Y.s:97398  .debug_str:000000000002445d .LASF6106
     /tmp/cciiZT4Y.s:101862  .debug_str:00000000000364cc .LASF6107
     /tmp/cciiZT4Y.s:106588  .debug_str:0000000000049a32 .LASF6108
     /tmp/cciiZT4Y.s:94788  .debug_str:0000000000018fa2 .LASF6109
     /tmp/cciiZT4Y.s:101330  .debug_str:0000000000033ff0 .LASF6110
     /tmp/cciiZT4Y.s:102918  .debug_str:000000000003a317 .LASF6111
     /tmp/cciiZT4Y.s:93066  .debug_str:0000000000012055 .LASF6112
     /tmp/cciiZT4Y.s:96042  .debug_str:000000000001e74b .LASF6113
     /tmp/cciiZT4Y.s:95448  .debug_str:000000000001bda0 .LASF6114
     /tmp/cciiZT4Y.s:102090  .debug_str:00000000000373ea .LASF6115
     /tmp/cciiZT4Y.s:105932  .debug_str:0000000000046ea9 .LASF6116
     /tmp/cciiZT4Y.s:107078  .debug_str:000000000004bb3b .LASF6117
     /tmp/cciiZT4Y.s:99270  .debug_str:000000000002bad8 .LASF6118
     /tmp/cciiZT4Y.s:105072  .debug_str:000000000004369e .LASF6119
     /tmp/cciiZT4Y.s:98524  .debug_str:0000000000028a0f .LASF6120
     /tmp/cciiZT4Y.s:104116  .debug_str:000000000003f261 .LASF6121
     /tmp/cciiZT4Y.s:89936  .debug_str:000000000000571c .LASF6122
     /tmp/cciiZT4Y.s:100328  .debug_str:000000000002fd8a .LASF6123
     /tmp/cciiZT4Y.s:101288  .debug_str:0000000000033d16 .LASF6124
     /tmp/cciiZT4Y.s:104902  .debug_str:0000000000042ae3 .LASF6125
     /tmp/cciiZT4Y.s:96662  .debug_str:00000000000212a9 .LASF6126
     /tmp/cciiZT4Y.s:103562  .debug_str:000000000003ce0c .LASF6127
     /tmp/cciiZT4Y.s:94062  .debug_str:0000000000015ffb .LASF6128
     /tmp/cciiZT4Y.s:95466  .debug_str:000000000001bea0 .LASF6129
     /tmp/cciiZT4Y.s:100898  .debug_str:0000000000032233 .LASF6130
     /tmp/cciiZT4Y.s:92582  .debug_str:0000000000010318 .LASF6131
     /tmp/cciiZT4Y.s:100758  .debug_str:00000000000319c0 .LASF6132
     /tmp/cciiZT4Y.s:98322  .debug_str:0000000000027c71 .LASF6133
     /tmp/cciiZT4Y.s:93668  .debug_str:00000000000147b0 .LASF6134
     /tmp/cciiZT4Y.s:99520  .debug_str:000000000002c902 .LASF6135
     /tmp/cciiZT4Y.s:105458  .debug_str:0000000000044f56 .LASF6136
     /tmp/cciiZT4Y.s:100700  .debug_str:000000000003155d .LASF6137
     /tmp/cciiZT4Y.s:103482  .debug_str:000000000003c8fb .LASF6138
     /tmp/cciiZT4Y.s:97042  .debug_str:0000000000022c1e .LASF368
     /tmp/cciiZT4Y.s:94650  .debug_str:0000000000018795 .LASF6139
     /tmp/cciiZT4Y.s:106408  .debug_str:0000000000048df8 .LASF6140
     /tmp/cciiZT4Y.s:102588  .debug_str:00000000000390db .LASF6141
     /tmp/cciiZT4Y.s:103788  .debug_str:000000000003dda6 .LASF6142
     /tmp/cciiZT4Y.s:106514  .debug_str:00000000000494e0 .LASF6143
     /tmp/cciiZT4Y.s:100876  .debug_str:00000000000320ca .LASF6144
     /tmp/cciiZT4Y.s:106264  .debug_str:00000000000484df .LASF6145
     /tmp/cciiZT4Y.s:90252  .debug_str:0000000000006c3f .LASF6146
     /tmp/cciiZT4Y.s:94876  .debug_str:00000000000195fe .LASF6147
     /tmp/cciiZT4Y.s:93398  .debug_str:000000000001375a .LASF6148
     /tmp/cciiZT4Y.s:106450  .debug_str:00000000000490cf .LASF6149
     /tmp/cciiZT4Y.s:94374  .debug_str:00000000000174e8 .LASF6150
     /tmp/cciiZT4Y.s:105784  .debug_str:00000000000464cc .LASF6151
     /tmp/cciiZT4Y.s:88680  .debug_str:0000000000000111 .LASF6152
     /tmp/cciiZT4Y.s:90342  .debug_str:0000000000007365 .LASF6153
     /tmp/cciiZT4Y.s:95248  .debug_str:000000000001b012 .LASF6154
     /tmp/cciiZT4Y.s:91314  .debug_str:000000000000b4eb .LASF6155
     /tmp/cciiZT4Y.s:93150  .debug_str:00000000000125d5 .LASF6156
     /tmp/cciiZT4Y.s:107176  .debug_str:000000000004c19b .LASF6157
     /tmp/cciiZT4Y.s:103566  .debug_str:000000000003ce37 .LASF6158
     /tmp/cciiZT4Y.s:100500  .debug_str:0000000000030959 .LASF6159
     /tmp/cciiZT4Y.s:95406  .debug_str:000000000001ba95 .LASF6160
     /tmp/cciiZT4Y.s:91250  .debug_str:000000000000afcd .LASF6161
     /tmp/cciiZT4Y.s:99480  .debug_str:000000000002c692 .LASF6162
     /tmp/cciiZT4Y.s:107002  .debug_str:000000000004b66a .LASF6163
     /tmp/cciiZT4Y.s:93630  .debug_str:0000000000014535 .LASF6164
     /tmp/cciiZT4Y.s:95106  .debug_str:000000000001a5ea .LASF6165
     /tmp/cciiZT4Y.s:103302  .debug_str:000000000003bd15 .LASF9697
     /tmp/cciiZT4Y.s:107964  .debug_str:000000000004f872 .LASF6166
     /tmp/cciiZT4Y.s:107190  .debug_str:000000000004c291 .LASF6167
     /tmp/cciiZT4Y.s:92542  .debug_str:000000000001018c .LASF6168
     /tmp/cciiZT4Y.s:101450  .debug_str:00000000000346dc .LASF6169
     /tmp/cciiZT4Y.s:106866  .debug_str:000000000004ac20 .LASF6170
     /tmp/cciiZT4Y.s:99472  .debug_str:000000000002c610 .LASF6171
     /tmp/cciiZT4Y.s:91052  .debug_str:000000000000a2f6 .LASF6172
     /tmp/cciiZT4Y.s:94714  .debug_str:0000000000018ace .LASF6173
     /tmp/cciiZT4Y.s:106658  .debug_str:0000000000049e70 .LASF6174
     /tmp/cciiZT4Y.s:93310  .debug_str:00000000000130b3 .LASF6175
     /tmp/cciiZT4Y.s:92650  .debug_str:0000000000010662 .LASF6176
     /tmp/cciiZT4Y.s:99176  .debug_str:000000000002b3c7 .LASF6177
     /tmp/cciiZT4Y.s:96378  .debug_str:000000000001fee8 .LASF6178
     /tmp/cciiZT4Y.s:96970  .debug_str:0000000000022729 .LASF6179
     /tmp/cciiZT4Y.s:90786  .debug_str:00000000000090b1 .LASF6180
     /tmp/cciiZT4Y.s:89538  .debug_str:0000000000003bc1 .LASF6181
     /tmp/cciiZT4Y.s:100748  .debug_str:00000000000318f5 .LASF6182
     /tmp/cciiZT4Y.s:104428  .debug_str:00000000000405b0 .LASF6183
     /tmp/cciiZT4Y.s:89578  .debug_str:0000000000003e5a .LASF6184
     /tmp/cciiZT4Y.s:107360  .debug_str:000000000004cf06 .LASF6185
     /tmp/cciiZT4Y.s:103966  .debug_str:000000000003e96f .LASF6186
     /tmp/cciiZT4Y.s:100174  .debug_str:000000000002f33b .LASF6187
     /tmp/cciiZT4Y.s:88776  .debug_str:00000000000007be .LASF6188
     /tmp/cciiZT4Y.s:100966  .debug_str:0000000000032771 .LASF6189
     /tmp/cciiZT4Y.s:105586  .debug_str:000000000004584d .LASF6190
     /tmp/cciiZT4Y.s:94674  .debug_str:00000000000188e5 .LASF6191
     /tmp/cciiZT4Y.s:101018  .debug_str:0000000000032aed .LASF6192
     /tmp/cciiZT4Y.s:100958  .debug_str:0000000000032704 .LASF6193
     /tmp/cciiZT4Y.s:96762  .debug_str:000000000002194f .LASF6194
     /tmp/cciiZT4Y.s:100750  .debug_str:000000000003190c .LASF6195
     /tmp/cciiZT4Y.s:101460  .debug_str:00000000000347ab .LASF6196
     /tmp/cciiZT4Y.s:101684  .debug_str:000000000003583c .LASF6197
     /tmp/cciiZT4Y.s:100984  .debug_str:0000000000032898 .LASF6198
     /tmp/cciiZT4Y.s:107200  .debug_str:000000000004c33d .LASF6199
     /tmp/cciiZT4Y.s:103122  .debug_str:000000000003b0a3 .LASF6200
     /tmp/cciiZT4Y.s:94128  .debug_str:0000000000016437 .LASF6201
     /tmp/cciiZT4Y.s:96738  .debug_str:00000000000217ea .LASF6202
     /tmp/cciiZT4Y.s:89738  .debug_str:0000000000004a1a .LASF6203
     /tmp/cciiZT4Y.s:99878  .debug_str:000000000002df58 .LASF6204
     /tmp/cciiZT4Y.s:101726  .debug_str:0000000000035ac5 .LASF6205
     /tmp/cciiZT4Y.s:99490  .debug_str:000000000002c740 .LASF6206
     /tmp/cciiZT4Y.s:100188  .debug_str:000000000002f49d .LASF6207
     /tmp/cciiZT4Y.s:100904  .debug_str:0000000000032290 .LASF6208
     /tmp/cciiZT4Y.s:99904  .debug_str:000000000002e128 .LASF6209
     /tmp/cciiZT4Y.s:106090  .debug_str:00000000000478ff .LASF6210
     /tmp/cciiZT4Y.s:90550  .debug_str:0000000000008068 .LASF6211
     /tmp/cciiZT4Y.s:93016  .debug_str:0000000000011cec .LASF6212
     /tmp/cciiZT4Y.s:95626  .debug_str:000000000001ca98 .LASF6213
     /tmp/cciiZT4Y.s:88814  .debug_str:0000000000000a49 .LASF6214
     /tmp/cciiZT4Y.s:103182  .debug_str:000000000003b553 .LASF6215
     /tmp/cciiZT4Y.s:104542  .debug_str:0000000000040eff .LASF6216
     /tmp/cciiZT4Y.s:106370  .debug_str:0000000000048b79 .LASF6217
     /tmp/cciiZT4Y.s:98816  .debug_str:0000000000029ce4 .LASF6218
     /tmp/cciiZT4Y.s:101004  .debug_str:0000000000032a18 .LASF6219
     /tmp/cciiZT4Y.s:88916  .debug_str:0000000000001122 .LASF6220
     /tmp/cciiZT4Y.s:91094  .debug_str:000000000000a52a .LASF6221
     /tmp/cciiZT4Y.s:93924  .debug_str:0000000000015716 .LASF6222
     /tmp/cciiZT4Y.s:89012  .debug_str:000000000000176c .LASF6223
     /tmp/cciiZT4Y.s:102436  .debug_str:0000000000038911 .LASF6224
     /tmp/cciiZT4Y.s:100210  .debug_str:000000000002f62a .LASF6225
     /tmp/cciiZT4Y.s:93378  .debug_str:0000000000013641 .LASF6226
     /tmp/cciiZT4Y.s:106682  .debug_str:0000000000049ff9 .LASF6227
     /tmp/cciiZT4Y.s:88936  .debug_str:0000000000001248 .LASF6228
     /tmp/cciiZT4Y.s:97122  .debug_str:00000000000230e5 .LASF6229
     /tmp/cciiZT4Y.s:94512  .debug_str:0000000000017e9d .LASF6230
     /tmp/cciiZT4Y.s:93656  .debug_str:00000000000146fd .LASF6231
     /tmp/cciiZT4Y.s:95822  .debug_str:000000000001d73e .LASF6232
     /tmp/cciiZT4Y.s:99906  .debug_str:000000000002e14f .LASF6233
     /tmp/cciiZT4Y.s:107588  .debug_str:000000000004df75 .LASF6234
     /tmp/cciiZT4Y.s:105388  .debug_str:0000000000044b18 .LASF6235
     /tmp/cciiZT4Y.s:92974  .debug_str:00000000000119f3 .LASF6236
     /tmp/cciiZT4Y.s:104256  .debug_str:000000000003fb3c .LASF6237
     /tmp/cciiZT4Y.s:94320  .debug_str:00000000000170d3 .LASF6238
     /tmp/cciiZT4Y.s:89838  .debug_str:0000000000005095 .LASF6239
     /tmp/cciiZT4Y.s:88852  .debug_str:0000000000000c9a .LASF6240
     /tmp/cciiZT4Y.s:95418  .debug_str:000000000001bb2f .LASF6241
     /tmp/cciiZT4Y.s:106122  .debug_str:0000000000047b21 .LASF6242
     /tmp/cciiZT4Y.s:107686  .debug_str:000000000004e668 .LASF6243
     /tmp/cciiZT4Y.s:102480  .debug_str:0000000000038ac5 .LASF6244
     /tmp/cciiZT4Y.s:91776  .debug_str:000000000000d511 .LASF6245
     /tmp/cciiZT4Y.s:91960  .debug_str:000000000000dfa2 .LASF6246
     /tmp/cciiZT4Y.s:107482  .debug_str:000000000004d6c3 .LASF6247
     /tmp/cciiZT4Y.s:105100  .debug_str:0000000000043885 .LASF6248
     /tmp/cciiZT4Y.s:90674  .debug_str:0000000000008904 .LASF6249
     /tmp/cciiZT4Y.s:89410  .debug_str:00000000000033be .LASF6250
     /tmp/cciiZT4Y.s:91150  .debug_str:000000000000a948 .LASF6251
     /tmp/cciiZT4Y.s:94240  .debug_str:0000000000016c09 .LASF6252
     /tmp/cciiZT4Y.s:103436  .debug_str:000000000003c620 .LASF6253
     /tmp/cciiZT4Y.s:90758  .debug_str:0000000000008ecc .LASF6254
     /tmp/cciiZT4Y.s:89970  .debug_str:000000000000594d .LASF6255
     /tmp/cciiZT4Y.s:102318  .debug_str:00000000000381d0 .LASF6256
     /tmp/cciiZT4Y.s:102260  .debug_str:0000000000037e15 .LASF6257
     /tmp/cciiZT4Y.s:102700  .debug_str:0000000000039685 .LASF6258
     /tmp/cciiZT4Y.s:89698  .debug_str:0000000000004721 .LASF6259
     /tmp/cciiZT4Y.s:98510  .debug_str:00000000000288dc .LASF6260
     /tmp/cciiZT4Y.s:107006  .debug_str:000000000004b68a .LASF6261
     /tmp/cciiZT4Y.s:99072  .debug_str:000000000002ad4c .LASF6262
     /tmp/cciiZT4Y.s:94082  .debug_str:0000000000016140 .LASF6263
     /tmp/cciiZT4Y.s:92272  .debug_str:000000000000f0b8 .LASF6264
     /tmp/cciiZT4Y.s:90008  .debug_str:0000000000005c00 .LASF6265
     /tmp/cciiZT4Y.s:104588  .debug_str:0000000000041338 .LASF6266
     /tmp/cciiZT4Y.s:103440  .debug_str:000000000003c681 .LASF6267
     /tmp/cciiZT4Y.s:102352  .debug_str:0000000000038411 .LASF6268
     /tmp/cciiZT4Y.s:92016  .debug_str:000000000000e310 .LASF6269
     /tmp/cciiZT4Y.s:96674  .debug_str:0000000000021354 .LASF6270
     /tmp/cciiZT4Y.s:89186  .debug_str:00000000000024e7 .LASF6271
     /tmp/cciiZT4Y.s:90052  .debug_str:0000000000005eb2 .LASF6272
     /tmp/cciiZT4Y.s:94636  .debug_str:00000000000186a1 .LASF6273
     /tmp/cciiZT4Y.s:101120  .debug_str:000000000003318e .LASF6274
     /tmp/cciiZT4Y.s:90938  .debug_str:0000000000009b4c .LASF6275
     /tmp/cciiZT4Y.s:98418  .debug_str:0000000000028284 .LASF6276
     /tmp/cciiZT4Y.s:92770  .debug_str:0000000000010d4f .LASF6277
     /tmp/cciiZT4Y.s:103520  .debug_str:000000000003cb4e .LASF6278
     /tmp/cciiZT4Y.s:107504  .debug_str:000000000004d8a5 .LASF6279
     /tmp/cciiZT4Y.s:108038  .debug_str:000000000004fdae .LASF6280
     /tmp/cciiZT4Y.s:101444  .debug_str:00000000000346b8 .LASF6281
     /tmp/cciiZT4Y.s:97610  .debug_str:0000000000025176 .LASF6282
     /tmp/cciiZT4Y.s:101446  .debug_str:00000000000346c4 .LASF6283
     /tmp/cciiZT4Y.s:102844  .debug_str:0000000000039e67 .LASF6284
     /tmp/cciiZT4Y.s:99204  .debug_str:000000000002b66b .LASF6285
     /tmp/cciiZT4Y.s:96156  .debug_str:000000000001eeb1 .LASF6286
     /tmp/cciiZT4Y.s:96264  .debug_str:000000000001f702 .LASF6287
     /tmp/cciiZT4Y.s:100648  .debug_str:000000000003125a .LASF6288
     /tmp/cciiZT4Y.s:90886  .debug_str:000000000000974d .LASF6289
     /tmp/cciiZT4Y.s:96056  .debug_str:000000000001e834 .LASF6290
     /tmp/cciiZT4Y.s:91062  .debug_str:000000000000a36a .LASF6291
     /tmp/cciiZT4Y.s:95922  .debug_str:000000000001dec3 .LASF6292
     /tmp/cciiZT4Y.s:90856  .debug_str:0000000000009580 .LASF6293
     /tmp/cciiZT4Y.s:99074  .debug_str:000000000002ad68 .LASF6294
     /tmp/cciiZT4Y.s:95758  .debug_str:000000000001d32c .LASF6295
     /tmp/cciiZT4Y.s:106326  .debug_str:0000000000048893 .LASF6296
     /tmp/cciiZT4Y.s:90256  .debug_str:0000000000006c7a .LASF6297
     /tmp/cciiZT4Y.s:102012  .debug_str:0000000000036e67 .LASF6298
     /tmp/cciiZT4Y.s:107072  .debug_str:000000000004bafa .LASF6299
     /tmp/cciiZT4Y.s:107388  .debug_str:000000000004d0b9 .LASF6300
     /tmp/cciiZT4Y.s:89676  .debug_str:0000000000004632 .LASF6301
     /tmp/cciiZT4Y.s:107404  .debug_str:000000000004d18b .LASF6302
     /tmp/cciiZT4Y.s:91496  .debug_str:000000000000c1dd .LASF6303
     /tmp/cciiZT4Y.s:97214  .debug_str:0000000000023809 .LASF6304
     /tmp/cciiZT4Y.s:92006  .debug_str:000000000000e2d9 .LASF6305
     /tmp/cciiZT4Y.s:97334  .debug_str:0000000000023fc8 .LASF6306
     /tmp/cciiZT4Y.s:99714  .debug_str:000000000002d4c6 .LASF6307
     /tmp/cciiZT4Y.s:107724  .debug_str:000000000004e8b2 .LASF6308
     /tmp/cciiZT4Y.s:97272  .debug_str:0000000000023bba .LASF6309
     /tmp/cciiZT4Y.s:98254  .debug_str:000000000002774b .LASF6310
     /tmp/cciiZT4Y.s:94816  .debug_str:0000000000019187 .LASF6311
     /tmp/cciiZT4Y.s:94818  .debug_str:0000000000019196 .LASF6312
     /tmp/cciiZT4Y.s:95010  .debug_str:0000000000019f1e .LASF6313
     /tmp/cciiZT4Y.s:94098  .debug_str:00000000000161ee .LASF6314
     /tmp/cciiZT4Y.s:101324  .debug_str:0000000000033f79 .LASF6315
     /tmp/cciiZT4Y.s:96126  .debug_str:000000000001ed10 .LASF6316
     /tmp/cciiZT4Y.s:92350  .debug_str:000000000000f51d .LASF6317
     /tmp/cciiZT4Y.s:92352  .debug_str:000000000000f52c .LASF6318
     /tmp/cciiZT4Y.s:94452  .debug_str:0000000000017a93 .LASF6319
     /tmp/cciiZT4Y.s:97688  .debug_str:0000000000025596 .LASF6320
     /tmp/cciiZT4Y.s:104820  .debug_str:00000000000425c9 .LASF6321
     /tmp/cciiZT4Y.s:104232  .debug_str:000000000003f9e8 .LASF6322
     /tmp/cciiZT4Y.s:96128  .debug_str:000000000001ed1a .LASF6323
     /tmp/cciiZT4Y.s:90684  .debug_str:00000000000089e2 .LASF6324
     /tmp/cciiZT4Y.s:97794  .debug_str:0000000000025b23 .LASF6325
     /tmp/cciiZT4Y.s:106280  .debug_str:00000000000485ac .LASF6326
     /tmp/cciiZT4Y.s:95310  .debug_str:000000000001b3ea .LASF6327
     /tmp/cciiZT4Y.s:97462  .debug_str:00000000000248c9 .LASF6328
     /tmp/cciiZT4Y.s:102756  .debug_str:0000000000039947 .LASF6329
     /tmp/cciiZT4Y.s:100034  .debug_str:000000000002e9ed .LASF6330
     /tmp/cciiZT4Y.s:105988  .debug_str:00000000000471e2 .LASF6331
     /tmp/cciiZT4Y.s:89628  .debug_str:0000000000004257 .LASF6332
     /tmp/cciiZT4Y.s:92678  .debug_str:000000000001088d .LASF6333
     /tmp/cciiZT4Y.s:102920  .debug_str:000000000003a322 .LASF6334
     /tmp/cciiZT4Y.s:105832  .debug_str:00000000000467d0 .LASF6335
     /tmp/cciiZT4Y.s:97362  .debug_str:00000000000241dc .LASF6336
     /tmp/cciiZT4Y.s:104380  .debug_str:0000000000040271 .LASF6337
     /tmp/cciiZT4Y.s:105334  .debug_str:000000000004471c .LASF6338
     /tmp/cciiZT4Y.s:95724  .debug_str:000000000001d0f9 .LASF6339
     /tmp/cciiZT4Y.s:107764  .debug_str:000000000004eac7 .LASF6340
     /tmp/cciiZT4Y.s:96780  .debug_str:0000000000021af9 .LASF6341
     /tmp/cciiZT4Y.s:91996  .debug_str:000000000000e242 .LASF6342
     /tmp/cciiZT4Y.s:91224  .debug_str:000000000000ae49 .LASF6343
     /tmp/cciiZT4Y.s:90164  .debug_str:00000000000065e3 .LASF6344
     /tmp/cciiZT4Y.s:90032  .debug_str:0000000000005d3e .LASF6345
     /tmp/cciiZT4Y.s:91766  .debug_str:000000000000d494 .LASF6346
     /tmp/cciiZT4Y.s:105340  .debug_str:00000000000447a9 .LASF6347
     /tmp/cciiZT4Y.s:101102  .debug_str:000000000003307c .LASF6348
     /tmp/cciiZT4Y.s:105032  .debug_str:0000000000043397 .LASF6349
     /tmp/cciiZT4Y.s:106678  .debug_str:0000000000049fb7 .LASF6350
     /tmp/cciiZT4Y.s:99588  .debug_str:000000000002cd97 .LASF6351
     /tmp/cciiZT4Y.s:105966  .debug_str:000000000004704b .LASF6352
     /tmp/cciiZT4Y.s:107376  .debug_str:000000000004d000 .LASF6353
     /tmp/cciiZT4Y.s:102126  .debug_str:00000000000375cb .LASF6354
     /tmp/cciiZT4Y.s:98854  .debug_str:0000000000029fa0 .LASF6355
     /tmp/cciiZT4Y.s:98866  .debug_str:000000000002a068 .LASF6356
     /tmp/cciiZT4Y.s:91840  .debug_str:000000000000d94f .LASF6357
     /tmp/cciiZT4Y.s:105526  .debug_str:00000000000453d0 .LASF6358
     /tmp/cciiZT4Y.s:105304  .debug_str:000000000004457a .LASF6359
     /tmp/cciiZT4Y.s:105528  .debug_str:00000000000453da .LASF6360
     /tmp/cciiZT4Y.s:93516  .debug_str:0000000000013e6d .LASF6361
     /tmp/cciiZT4Y.s:105534  .debug_str:000000000004542c .LASF6362
     /tmp/cciiZT4Y.s:97590  .debug_str:0000000000025031 .LASF6363
     /tmp/cciiZT4Y.s:103722  .debug_str:000000000003d83a .LASF6364
     /tmp/cciiZT4Y.s:91582  .debug_str:000000000000c74b .LASF6365
     /tmp/cciiZT4Y.s:100612  .debug_str:000000000003100d .LASF6366
     /tmp/cciiZT4Y.s:92008  .debug_str:000000000000e2e8 .LASF6367
     /tmp/cciiZT4Y.s:92010  .debug_str:000000000000e2f2 .LASF6368
     /tmp/cciiZT4Y.s:96854  .debug_str:0000000000021fe9 .LASF6369
     /tmp/cciiZT4Y.s:91578  .debug_str:000000000000c6e1 .LASF6370
     /tmp/cciiZT4Y.s:107848  .debug_str:000000000004f0d1 .LASF6371
     /tmp/cciiZT4Y.s:93402  .debug_str:000000000001378e .LASF6372
     /tmp/cciiZT4Y.s:92012  .debug_str:000000000000e2fc .LASF6373
     /tmp/cciiZT4Y.s:89320  .debug_str:0000000000002d81 .LASF6374
     /tmp/cciiZT4Y.s:92014  .debug_str:000000000000e306 .LASF6375
     /tmp/cciiZT4Y.s:94008  .debug_str:0000000000015d45 .LASF6376
     /tmp/cciiZT4Y.s:102026  .debug_str:0000000000036f45 .LASF6377
     /tmp/cciiZT4Y.s:92092  .debug_str:000000000000e811 .LASF6378
     /tmp/cciiZT4Y.s:96346  .debug_str:000000000001fc4e .LASF6379
     /tmp/cciiZT4Y.s:92094  .debug_str:000000000000e81b .LASF6380
     /tmp/cciiZT4Y.s:99276  .debug_str:000000000002bafb .LASF6381
     /tmp/cciiZT4Y.s:92366  .debug_str:000000000000f6b7 .LASF6382
     /tmp/cciiZT4Y.s:102676  .debug_str:000000000003953d .LASF6383
     /tmp/cciiZT4Y.s:91046  .debug_str:000000000000a2a1 .LASF6384
     /tmp/cciiZT4Y.s:105686  .debug_str:0000000000045e64 .LASF6385
     /tmp/cciiZT4Y.s:104278  .debug_str:000000000003fc97 .LASF6386
     /tmp/cciiZT4Y.s:92098  .debug_str:000000000000e83e .LASF6387
     /tmp/cciiZT4Y.s:91664  .debug_str:000000000000cd83 .LASF6388
     /tmp/cciiZT4Y.s:99634  .debug_str:000000000002d01f .LASF6389
     /tmp/cciiZT4Y.s:92100  .debug_str:000000000000e848 .LASF6390
     /tmp/cciiZT4Y.s:90828  .debug_str:000000000000938f .LASF6391
     /tmp/cciiZT4Y.s:104292  .debug_str:000000000003fd5a .LASF6392
     /tmp/cciiZT4Y.s:93138  .debug_str:0000000000012534 .LASF6393
     /tmp/cciiZT4Y.s:106898  .debug_str:000000000004af03 .LASF6394
     /tmp/cciiZT4Y.s:100546  .debug_str:0000000000030c18 .LASF6395
     /tmp/cciiZT4Y.s:90604  .debug_str:0000000000008443 .LASF6396
     /tmp/cciiZT4Y.s:92102  .debug_str:000000000000e852 .LASF6397
     /tmp/cciiZT4Y.s:106790  .debug_str:000000000004a766 .LASF6398
     /tmp/cciiZT4Y.s:92104  .debug_str:000000000000e85c .LASF6399
     /tmp/cciiZT4Y.s:101094  .debug_str:0000000000032ff9 .LASF6400
     /tmp/cciiZT4Y.s:89568  .debug_str:0000000000003db6 .LASF6401
     /tmp/cciiZT4Y.s:92106  .debug_str:000000000000e866 .LASF6402
     /tmp/cciiZT4Y.s:98580  .debug_str:0000000000028dc5 .LASF6403
     /tmp/cciiZT4Y.s:94990  .debug_str:0000000000019d8a .LASF6404
     /tmp/cciiZT4Y.s:90262  .debug_str:0000000000006ce6 .LASF6405
     /tmp/cciiZT4Y.s:93996  .debug_str:0000000000015cb0 .LASF6406
     /tmp/cciiZT4Y.s:105248  .debug_str:00000000000441b1 .LASF6407
     /tmp/cciiZT4Y.s:92108  .debug_str:000000000000e870 .LASF6408
     /tmp/cciiZT4Y.s:98830  .debug_str:0000000000029e12 .LASF6409
     /tmp/cciiZT4Y.s:93854  .debug_str:0000000000015305 .LASF6410
     /tmp/cciiZT4Y.s:105652  .debug_str:0000000000045c4c .LASF6411
     /tmp/cciiZT4Y.s:94132  .debug_str:00000000000164a3 .LASF6412
     /tmp/cciiZT4Y.s:95276  .debug_str:000000000001b1f1 .LASF6413
     /tmp/cciiZT4Y.s:106586  .debug_str:0000000000049a0b .LASF6414
     /tmp/cciiZT4Y.s:97016  .debug_str:0000000000022a23 .LASF6415
     /tmp/cciiZT4Y.s:98384  .debug_str:000000000002807b .LASF6416
     /tmp/cciiZT4Y.s:104630  .debug_str:00000000000415fc .LASF6417
     /tmp/cciiZT4Y.s:98512  .debug_str:000000000002891f .LASF6418
     /tmp/cciiZT4Y.s:92292  .debug_str:000000000000f22d .LASF6419
     /tmp/cciiZT4Y.s:105642  .debug_str:0000000000045b8a .LASF6420
     /tmp/cciiZT4Y.s:105912  .debug_str:0000000000046d1a .LASF6421
     /tmp/cciiZT4Y.s:92178  .debug_str:000000000000ec70 .LASF6422
     /tmp/cciiZT4Y.s:91280  .debug_str:000000000000b28f .LASF6423
     /tmp/cciiZT4Y.s:90628  .debug_str:00000000000085c6 .LASF6424
     /tmp/cciiZT4Y.s:93308  .debug_str:00000000000130ac .LASF6425
     /tmp/cciiZT4Y.s:93182  .debug_str:00000000000127c4 .LASF6426
     /tmp/cciiZT4Y.s:105344  .debug_str:00000000000447bf .LASF6427
     /tmp/cciiZT4Y.s:103938  .debug_str:000000000003e79b .LASF6428
     /tmp/cciiZT4Y.s:98616  .debug_str:0000000000029075 .LASF6429
     /tmp/cciiZT4Y.s:91336  .debug_str:000000000000b667 .LASF6430
     /tmp/cciiZT4Y.s:104664  .debug_str:0000000000041831 .LASF6431
     /tmp/cciiZT4Y.s:96408  .debug_str:0000000000020162 .LASF6432
     /tmp/cciiZT4Y.s:91910  .debug_str:000000000000dd4b .LASF6433
     /tmp/cciiZT4Y.s:107614  .debug_str:000000000004e0f3 .LASF6434
     /tmp/cciiZT4Y.s:93396  .debug_str:0000000000013730 .LASF6435
     /tmp/cciiZT4Y.s:92446  .debug_str:000000000000fb91 .LASF6436
     /tmp/cciiZT4Y.s:104070  .debug_str:000000000003ef86 .LASF6437
     /tmp/cciiZT4Y.s:99352  .debug_str:000000000002bf84 .LASF6438
     /tmp/cciiZT4Y.s:95742  .debug_str:000000000001d228 .LASF6439
     /tmp/cciiZT4Y.s:99504  .debug_str:000000000002c802 .LASF6440
     /tmp/cciiZT4Y.s:98386  .debug_str:0000000000028095 .LASF6441
     /tmp/cciiZT4Y.s:100602  .debug_str:0000000000030f88 .LASF6442
     /tmp/cciiZT4Y.s:88768  .debug_str:0000000000000755 .LASF6443
     /tmp/cciiZT4Y.s:89448  .debug_str:00000000000035b0 .LASF6444
     /tmp/cciiZT4Y.s:106828  .debug_str:000000000004a9fa .LASF6445
     /tmp/cciiZT4Y.s:92056  .debug_str:000000000000e5c7 .LASF6446
     /tmp/cciiZT4Y.s:91914  .debug_str:000000000000dd7f .LASF6447
     /tmp/cciiZT4Y.s:91916  .debug_str:000000000000dd89 .LASF6448
     /tmp/cciiZT4Y.s:95364  .debug_str:000000000001b78e .LASF6449
     /tmp/cciiZT4Y.s:105446  .debug_str:0000000000044ea6 .LASF6450
     /tmp/cciiZT4Y.s:99294  .debug_str:000000000002bb9a .LASF6451
     /tmp/cciiZT4Y.s:101024  .debug_str:0000000000032b9f .LASF6452
     /tmp/cciiZT4Y.s:98326  .debug_str:0000000000027cac .LASF6453
     /tmp/cciiZT4Y.s:91058  .debug_str:000000000000a34e .LASF6454
     /tmp/cciiZT4Y.s:105636  .debug_str:0000000000045b33 .LASF6455
     /tmp/cciiZT4Y.s:95648  .debug_str:000000000001cc20 .LASF6456
     /tmp/cciiZT4Y.s:92036  .debug_str:000000000000e4a6 .LASF6457
     /tmp/cciiZT4Y.s:102514  .debug_str:0000000000038d21 .LASF6458
     /tmp/cciiZT4Y.s:99024  .debug_str:000000000002aa44 .LASF6459
     /tmp/cciiZT4Y.s:91470  .debug_str:000000000000c056 .LASF6460
     /tmp/cciiZT4Y.s:92256  .debug_str:000000000000ef93 .LASF6461
     /tmp/cciiZT4Y.s:102688  .debug_str:00000000000395e4 .LASF6462
     /tmp/cciiZT4Y.s:100824  .debug_str:0000000000031d52 .LASF6463
     /tmp/cciiZT4Y.s:96792  .debug_str:0000000000021bed .LASF6464
     /tmp/cciiZT4Y.s:96070  .debug_str:000000000001e930 .LASF6465
     /tmp/cciiZT4Y.s:90706  .debug_str:0000000000008b40 .LASF6466
     /tmp/cciiZT4Y.s:103354  .debug_str:000000000003c0a0 .LASF6467
     /tmp/cciiZT4Y.s:95658  .debug_str:000000000001cc95 .LASF6468
     /tmp/cciiZT4Y.s:91038  .debug_str:000000000000a1de .LASF6469
     /tmp/cciiZT4Y.s:105294  .debug_str:000000000004450a .LASF6470
     /tmp/cciiZT4Y.s:106794  .debug_str:000000000004a774 .LASF6471
     /tmp/cciiZT4Y.s:102726  .debug_str:000000000003974c .LASF6472
     /tmp/cciiZT4Y.s:96178  .debug_str:000000000001f00c .LASF6473
     /tmp/cciiZT4Y.s:90126  .debug_str:000000000000636b .LASF6474
     /tmp/cciiZT4Y.s:101704  .debug_str:0000000000035975 .LASF6475
     /tmp/cciiZT4Y.s:99636  .debug_str:000000000002d02a .LASF6476
     /tmp/cciiZT4Y.s:96396  .debug_str:0000000000020084 .LASF6477
     /tmp/cciiZT4Y.s:88682  .debug_str:0000000000000116 .LASF6478
     /tmp/cciiZT4Y.s:93844  .debug_str:0000000000015204 .LASF6479
     /tmp/cciiZT4Y.s:97256  .debug_str:0000000000023abc .LASF6480
     /tmp/cciiZT4Y.s:90612  .debug_str:00000000000084a3 .LASF6481
     /tmp/cciiZT4Y.s:105850  .debug_str:000000000004688a .LASF6482
     /tmp/cciiZT4Y.s:89926  .debug_str:0000000000005644 .LASF6483
     /tmp/cciiZT4Y.s:104876  .debug_str:00000000000429bc .LASF6484
     /tmp/cciiZT4Y.s:98168  .debug_str:000000000002722c .LASF6485
     /tmp/cciiZT4Y.s:103954  .debug_str:000000000003e8b7 .LASF6486
     /tmp/cciiZT4Y.s:96300  .debug_str:000000000001f984 .LASF6487
     /tmp/cciiZT4Y.s:91256  .debug_str:000000000000b06f .LASF6488
     /tmp/cciiZT4Y.s:100838  .debug_str:0000000000031e3e .LASF6489
     /tmp/cciiZT4Y.s:94164  .debug_str:000000000001664c .LASF6490
     /tmp/cciiZT4Y.s:107756  .debug_str:000000000004ea68 .LASF6491
     /tmp/cciiZT4Y.s:102400  .debug_str:000000000003866c .LASF6492
     /tmp/cciiZT4Y.s:89222  .debug_str:000000000000272b .LASF6493
     /tmp/cciiZT4Y.s:102240  .debug_str:0000000000037cd6 .LASF6494
     /tmp/cciiZT4Y.s:101994  .debug_str:0000000000036d99 .LASF6495
     /tmp/cciiZT4Y.s:102172  .debug_str:0000000000037906 .LASF6496
     /tmp/cciiZT4Y.s:99260  .debug_str:000000000002ba17 .LASF6497
     /tmp/cciiZT4Y.s:102010  .debug_str:0000000000036e58 .LASF6498
     /tmp/cciiZT4Y.s:90016  .debug_str:0000000000005c59 .LASF6499
     /tmp/cciiZT4Y.s:98544  .debug_str:0000000000028b63 .LASF6500
     /tmp/cciiZT4Y.s:98274  .debug_str:0000000000027911 .LASF6501
     /tmp/cciiZT4Y.s:92186  .debug_str:000000000000ecd1 .LASF6502
     /tmp/cciiZT4Y.s:91502  .debug_str:000000000000c21b .LASF6503
     /tmp/cciiZT4Y.s:91540  .debug_str:000000000000c457 .LASF6504
     /tmp/cciiZT4Y.s:99256  .debug_str:000000000002b9d0 .LASF6505
     /tmp/cciiZT4Y.s:97088  .debug_str:0000000000022f04 .LASF6506
     /tmp/cciiZT4Y.s:101016  .debug_str:0000000000032ad9 .LASF6507
     /tmp/cciiZT4Y.s:94842  .debug_str:00000000000192ee .LASF6508
     /tmp/cciiZT4Y.s:107322  .debug_str:000000000004cc36 .LASF6509
     /tmp/cciiZT4Y.s:105632  .debug_str:0000000000045ae3 .LASF6510
     /tmp/cciiZT4Y.s:98794  .debug_str:0000000000029b6f .LASF6511
     /tmp/cciiZT4Y.s:94852  .debug_str:0000000000019439 .LASF6512
     /tmp/cciiZT4Y.s:100322  .debug_str:000000000002fd55 .LASF6513
     /tmp/cciiZT4Y.s:91234  .debug_str:000000000000af17 .LASF6514
     /tmp/cciiZT4Y.s:99700  .debug_str:000000000002d40f .LASF6515
     /tmp/cciiZT4Y.s:93708  .debug_str:0000000000014a62 .LASF6516
     /tmp/cciiZT4Y.s:93760  .debug_str:0000000000014cb7 .LASF6517
     /tmp/cciiZT4Y.s:103700  .debug_str:000000000003d6c3 .LASF6518
     /tmp/cciiZT4Y.s:99076  .debug_str:000000000002ad78 .LASF6519
     /tmp/cciiZT4Y.s:98880  .debug_str:000000000002a161 .LASF6520
     /tmp/cciiZT4Y.s:103350  .debug_str:000000000003c078 .LASF6521
     /tmp/cciiZT4Y.s:97652  .debug_str:00000000000253f2 .LASF6522
     /tmp/cciiZT4Y.s:91850  .debug_str:000000000000d9f3 .LASF6523
     /tmp/cciiZT4Y.s:96934  .debug_str:0000000000022571 .LASF6524
     /tmp/cciiZT4Y.s:96290  .debug_str:000000000001f8d7 .LASF6525
     /tmp/cciiZT4Y.s:102824  .debug_str:0000000000039d3a .LASF6526
     /tmp/cciiZT4Y.s:102822  .debug_str:0000000000039d2a .LASF6527
     /tmp/cciiZT4Y.s:101056  .debug_str:0000000000032dd3 .LASF6528
     /tmp/cciiZT4Y.s:91374  .debug_str:000000000000b91c .LASF6529
     /tmp/cciiZT4Y.s:105794  .debug_str:000000000004653b .LASF6530
     /tmp/cciiZT4Y.s:91144  .debug_str:000000000000a8fb .LASF6531
     /tmp/cciiZT4Y.s:96754  .debug_str:00000000000218d9 .LASF6532
     /tmp/cciiZT4Y.s:94798  .debug_str:0000000000019027 .LASF6533
     /tmp/cciiZT4Y.s:96936  .debug_str:000000000002257a .LASF6534
     /tmp/cciiZT4Y.s:102046  .debug_str:00000000000370ab .LASF6535
     /tmp/cciiZT4Y.s:105994  .debug_str:0000000000047261 .LASF6536
     /tmp/cciiZT4Y.s:100192  .debug_str:000000000002f4e4 .LASF6537
     /tmp/cciiZT4Y.s:104160  .debug_str:000000000003f4eb .LASF6538
     /tmp/cciiZT4Y.s:98298  .debug_str:0000000000027a93 .LASF6539
     /tmp/cciiZT4Y.s:107826  .debug_str:000000000004ef6f .LASF6540
     /tmp/cciiZT4Y.s:96938  .debug_str:0000000000022583 .LASF6541
     /tmp/cciiZT4Y.s:103464  .debug_str:000000000003c820 .LASF6542
     /tmp/cciiZT4Y.s:104162  .debug_str:000000000003f4f9 .LASF6543
     /tmp/cciiZT4Y.s:101638  .debug_str:00000000000354a8 .LASF6544
     /tmp/cciiZT4Y.s:106434  .debug_str:0000000000048fd4 .LASF6545
     /tmp/cciiZT4Y.s:103268  .debug_str:000000000003ba76 .LASF6546
     /tmp/cciiZT4Y.s:98454  .debug_str:00000000000284d1 .LASF6547
     /tmp/cciiZT4Y.s:98440  .debug_str:00000000000283d0 .LASF6548
     /tmp/cciiZT4Y.s:106140  .debug_str:0000000000047c95 .LASF6549
     /tmp/cciiZT4Y.s:97594  .debug_str:0000000000025055 .LASF6550
     /tmp/cciiZT4Y.s:91918  .debug_str:000000000000dd93 .LASF6551
     /tmp/cciiZT4Y.s:96940  .debug_str:000000000002258c .LASF6552
     /tmp/cciiZT4Y.s:97236  .debug_str:0000000000023986 .LASF6553
     /tmp/cciiZT4Y.s:97268  .debug_str:0000000000023b8d .LASF6554
     /tmp/cciiZT4Y.s:91572  .debug_str:000000000000c686 .LASF6555
     /tmp/cciiZT4Y.s:91338  .debug_str:000000000000b672 .LASF6556
     /tmp/cciiZT4Y.s:100420  .debug_str:0000000000030397 .LASF6557
     /tmp/cciiZT4Y.s:89272  .debug_str:0000000000002aae .LASF6558
     /tmp/cciiZT4Y.s:90232  .debug_str:0000000000006ae9 .LASF6559
     /tmp/cciiZT4Y.s:89530  .debug_str:0000000000003b3e .LASF6560
     /tmp/cciiZT4Y.s:92608  .debug_str:00000000000104b6 .LASF6561
     /tmp/cciiZT4Y.s:90114  .debug_str:0000000000006292 .LASF6562
     /tmp/cciiZT4Y.s:99118  .debug_str:000000000002b0f1 .LASF6563
     /tmp/cciiZT4Y.s:104634  .debug_str:000000000004164e .LASF6564
     /tmp/cciiZT4Y.s:91920  .debug_str:000000000000dd9d .LASF6565
     /tmp/cciiZT4Y.s:96942  .debug_str:0000000000022595 .LASF6566
     /tmp/cciiZT4Y.s:91014  .debug_str:000000000000a016 .LASF6567
     /tmp/cciiZT4Y.s:97386  .debug_str:00000000000243a3 .LASF6568
     /tmp/cciiZT4Y.s:104900  .debug_str:0000000000042ad5 .LASF6569
     /tmp/cciiZT4Y.s:106720  .debug_str:000000000004a1ea .LASF6570
     /tmp/cciiZT4Y.s:106700  .debug_str:000000000004a0e9 .LASF6571
     /tmp/cciiZT4Y.s:91922  .debug_str:000000000000dda7 .LASF6572
     /tmp/cciiZT4Y.s:96944  .debug_str:000000000002259e .LASF6573
     /tmp/cciiZT4Y.s:104364  .debug_str:00000000000401b6 .LASF6574
     /tmp/cciiZT4Y.s:90420  .debug_str:0000000000007896 .LASF6575
     /tmp/cciiZT4Y.s:108072  .debug_str:000000000004ffb0 .LASF6576
     /tmp/cciiZT4Y.s:91924  .debug_str:000000000000ddb1 .LASF6577
     /tmp/cciiZT4Y.s:96946  .debug_str:00000000000225a7 .LASF6578
     /tmp/cciiZT4Y.s:98252  .debug_str:0000000000027728 .LASF6579
     /tmp/cciiZT4Y.s:89828  .debug_str:0000000000005038 .LASF6580
     /tmp/cciiZT4Y.s:101062  .debug_str:0000000000032e28 .LASF6581
     /tmp/cciiZT4Y.s:97898  .debug_str:00000000000260d8 .LASF6582
     /tmp/cciiZT4Y.s:105368  .debug_str:000000000004497d .LASF6583
     /tmp/cciiZT4Y.s:91192  .debug_str:000000000000abc2 .LASF6584
     /tmp/cciiZT4Y.s:94942  .debug_str:0000000000019a65 .LASF6585
     /tmp/cciiZT4Y.s:93512  .debug_str:0000000000013e39 .LASF6586
     /tmp/cciiZT4Y.s:89442  .debug_str:0000000000003566 .LASF6587
     /tmp/cciiZT4Y.s:100772  .debug_str:0000000000031a7b .LASF6588
     /tmp/cciiZT4Y.s:103658  .debug_str:000000000003d3e8 .LASF6589
     /tmp/cciiZT4Y.s:90296  .debug_str:0000000000007022 .LASF6590
     /tmp/cciiZT4Y.s:89702  .debug_str:000000000000477b .LASF6591
     /tmp/cciiZT4Y.s:101512  .debug_str:0000000000034c64 .LASF6592
     /tmp/cciiZT4Y.s:107062  .debug_str:000000000004ba6b .LASF6593
     /tmp/cciiZT4Y.s:96508  .debug_str:000000000002092a .LASF6594
     /tmp/cciiZT4Y.s:92618  .debug_str:0000000000010566 .LASF6595
     /tmp/cciiZT4Y.s:95644  .debug_str:000000000001cbd3 .LASF6596
     /tmp/cciiZT4Y.s:98598  .debug_str:0000000000028f31 .LASF6597
     /tmp/cciiZT4Y.s:92934  .debug_str:0000000000011755 .LASF6598
     /tmp/cciiZT4Y.s:98860  .debug_str:000000000002a01c .LASF6599
     /tmp/cciiZT4Y.s:97050  .debug_str:0000000000022c75 .LASF6600
     /tmp/cciiZT4Y.s:88792  .debug_str:00000000000008d0 .LASF6601
     /tmp/cciiZT4Y.s:102864  .debug_str:0000000000039f5f .LASF6602
     /tmp/cciiZT4Y.s:95930  .debug_str:000000000001df43 .LASF6603
     /tmp/cciiZT4Y.s:104750  .debug_str:00000000000420af .LASF6604
     /tmp/cciiZT4Y.s:106954  .debug_str:000000000004b2e7 .LASF6605
     /tmp/cciiZT4Y.s:90460  .debug_str:0000000000007af4 .LASF6606
     /tmp/cciiZT4Y.s:103022  .debug_str:000000000003a9c1 .LASF6607
     /tmp/cciiZT4Y.s:98176  .debug_str:00000000000272ae .LASF6608
     /tmp/cciiZT4Y.s:105442  .debug_str:0000000000044e84 .LASF6609
     /tmp/cciiZT4Y.s:98822  .debug_str:0000000000029d5b .LASF6610
     /tmp/cciiZT4Y.s:105026  .debug_str:0000000000043363 .LASF6611
     /tmp/cciiZT4Y.s:103816  .debug_str:000000000003df86 .LASF6612
     /tmp/cciiZT4Y.s:95444  .debug_str:000000000001bd82 .LASF6613
     /tmp/cciiZT4Y.s:98178  .debug_str:00000000000272b7 .LASF6614
     /tmp/cciiZT4Y.s:106270  .debug_str:0000000000048529 .LASF6615
     /tmp/cciiZT4Y.s:95084  .debug_str:000000000001a408 .LASF6616
     /tmp/cciiZT4Y.s:101898  .debug_str:0000000000036707 .LASF6617
     /tmp/cciiZT4Y.s:97116  .debug_str:00000000000230a5 .LASF6618
     /tmp/cciiZT4Y.s:102394  .debug_str:00000000000385e0 .LASF6619
     /tmp/cciiZT4Y.s:96110  .debug_str:000000000001ebe0 .LASF6620
     /tmp/cciiZT4Y.s:100906  .debug_str:00000000000322d0 .LASF6621
     /tmp/cciiZT4Y.s:98180  .debug_str:00000000000272c0 .LASF6622
     /tmp/cciiZT4Y.s:96548  .debug_str:0000000000020b6c .LASF6623
     /tmp/cciiZT4Y.s:92028  .debug_str:000000000000e411 .LASF6624
     /tmp/cciiZT4Y.s:107090  .debug_str:000000000004bc3a .LASF6625
     /tmp/cciiZT4Y.s:100106  .debug_str:000000000002eee1 .LASF6626
     /tmp/cciiZT4Y.s:98182  .debug_str:00000000000272c9 .LASF6627
     /tmp/cciiZT4Y.s:89382  .debug_str:00000000000031c1 .LASF6628
     /tmp/cciiZT4Y.s:91396  .debug_str:000000000000ba95 .LASF6629
     /tmp/cciiZT4Y.s:98874  .debug_str:000000000002a105 .LASF6630
     /tmp/cciiZT4Y.s:94986  .debug_str:0000000000019d67 .LASF6631
     /tmp/cciiZT4Y.s:102912  .debug_str:000000000003a2c0 .LASF6632
     /tmp/cciiZT4Y.s:103204  .debug_str:000000000003b6bb .LASF6633
     /tmp/cciiZT4Y.s:93666  .debug_str:00000000000147a6 .LASF6634
     /tmp/cciiZT4Y.s:96224  .debug_str:000000000001f3eb .LASF6635
     /tmp/cciiZT4Y.s:98924  .debug_str:000000000002a49b .LASF6636
     /tmp/cciiZT4Y.s:98186  .debug_str:00000000000272ec .LASF6637
     /tmp/cciiZT4Y.s:90362  .debug_str:00000000000074cd .LASF6638
     /tmp/cciiZT4Y.s:107712  .debug_str:000000000004e7c4 .LASF6639
     /tmp/cciiZT4Y.s:99918  .debug_str:000000000002e218 .LASF6640
     /tmp/cciiZT4Y.s:100568  .debug_str:0000000000030d7e .LASF6641
     /tmp/cciiZT4Y.s:101998  .debug_str:0000000000036dd7 .LASF6642
     /tmp/cciiZT4Y.s:96630  .debug_str:0000000000021049 .LASF6643
     /tmp/cciiZT4Y.s:96232  .debug_str:000000000001f492 .LASF6644
     /tmp/cciiZT4Y.s:94134  .debug_str:00000000000164ad .LASF6645
     /tmp/cciiZT4Y.s:104866  .debug_str:0000000000042922 .LASF6646
     /tmp/cciiZT4Y.s:90824  .debug_str:00000000000092ea .LASF6647
     /tmp/cciiZT4Y.s:102022  .debug_str:0000000000036ef7 .LASF6648
     /tmp/cciiZT4Y.s:104008  .debug_str:000000000003eb7c .LASF6649
     /tmp/cciiZT4Y.s:104812  .debug_str:0000000000042583 .LASF6650
     /tmp/cciiZT4Y.s:96598  .debug_str:0000000000020e4b .LASF6651
     /tmp/cciiZT4Y.s:106968  .debug_str:000000000004b41c .LASF6652
     /tmp/cciiZT4Y.s:98350  .debug_str:0000000000027e25 .LASF6653
     /tmp/cciiZT4Y.s:91716  .debug_str:000000000000d0d5 .LASF6654
     /tmp/cciiZT4Y.s:99704  .debug_str:000000000002d42c .LASF6655
     /tmp/cciiZT4Y.s:91236  .debug_str:000000000000af44 .LASF6656
     /tmp/cciiZT4Y.s:106268  .debug_str:0000000000048506 .LASF6657
     /tmp/cciiZT4Y.s:91822  .debug_str:000000000000d810 .LASF6658
     /tmp/cciiZT4Y.s:101186  .debug_str:000000000003360a .LASF6659
     /tmp/cciiZT4Y.s:101576  .debug_str:0000000000034ffb .LASF6660
     /tmp/cciiZT4Y.s:98082  .debug_str:0000000000026c94 .LASF6661
     /tmp/cciiZT4Y.s:97738  .debug_str:00000000000258bd .LASF6662
     /tmp/cciiZT4Y.s:99708  .debug_str:000000000002d470 .LASF6663
     /tmp/cciiZT4Y.s:88896  .debug_str:0000000000000f9c .LASF6664
     /tmp/cciiZT4Y.s:90838  .debug_str:0000000000009465 .LASF6665
     /tmp/cciiZT4Y.s:104460  .debug_str:000000000004084b .LASF6666
     /tmp/cciiZT4Y.s:103592  .debug_str:000000000003cfe7 .LASF6667
     /tmp/cciiZT4Y.s:103974  .debug_str:000000000003ea1e .LASF6668
     /tmp/cciiZT4Y.s:105620  .debug_str:0000000000045a1e .LASF6669
     /tmp/cciiZT4Y.s:104614  .debug_str:0000000000041500 .LASF6670
     /tmp/cciiZT4Y.s:106912  .debug_str:000000000004afe1 .LASF6671
     /tmp/cciiZT4Y.s:100712  .debug_str:0000000000031640 .LASF6672
     /tmp/cciiZT4Y.s:103310  .debug_str:000000000003bd89 .LASF6673
     /tmp/cciiZT4Y.s:90434  .debug_str:000000000000797c .LASF6674
     /tmp/cciiZT4Y.s:95884  .debug_str:000000000001dbed .LASF6675
     /tmp/cciiZT4Y.s:90844  .debug_str:00000000000094ad .LASF6676
     /tmp/cciiZT4Y.s:94886  .debug_str:00000000000196ba .LASF6677
     /tmp/cciiZT4Y.s:88848  .debug_str:0000000000000c6b .LASF6678
     /tmp/cciiZT4Y.s:104704  .debug_str:0000000000041d14 .LASF6679
     /tmp/cciiZT4Y.s:96402  .debug_str:0000000000020105 .LASF6680
     /tmp/cciiZT4Y.s:105592  .debug_str:00000000000458b7 .LASF6681
     /tmp/cciiZT4Y.s:107814  .debug_str:000000000004eea0 .LASF6682
     /tmp/cciiZT4Y.s:93122  .debug_str:00000000000124a2 .LASF6683
     /tmp/cciiZT4Y.s:103648  .debug_str:000000000003d32b .LASF6684
     /tmp/cciiZT4Y.s:91648  .debug_str:000000000000cc65 .LASF6685
     /tmp/cciiZT4Y.s:102368  .debug_str:0000000000038567 .LASF6686
     /tmp/cciiZT4Y.s:95858  .debug_str:000000000001d9de .LASF6687
     /tmp/cciiZT4Y.s:99446  .debug_str:000000000002c512 .LASF6688
     /tmp/cciiZT4Y.s:105254  .debug_str:000000000004420b .LASF6689
     /tmp/cciiZT4Y.s:90974  .debug_str:0000000000009dd9 .LASF6690
     /tmp/cciiZT4Y.s:99448  .debug_str:000000000002c522 .LASF6691
     /tmp/cciiZT4Y.s:88774  .debug_str:00000000000007b5 .LASF6692
     /tmp/cciiZT4Y.s:105730  .debug_str:000000000004616a .LASF6693
     /tmp/cciiZT4Y.s:95662  .debug_str:000000000001ccd4 .LASF6694
     /tmp/cciiZT4Y.s:92708  .debug_str:0000000000010a3c .LASF6695
     /tmp/cciiZT4Y.s:106176  .debug_str:0000000000047ee4 .LASF6696
     /tmp/cciiZT4Y.s:100734  .debug_str:0000000000031823 .LASF6697
     /tmp/cciiZT4Y.s:95730  .debug_str:000000000001d15b .LASF6698
     /tmp/cciiZT4Y.s:101500  .debug_str:0000000000034b3a .LASF6699
     /tmp/cciiZT4Y.s:95578  .debug_str:000000000001c6db .LASF6700
     /tmp/cciiZT4Y.s:95128  .debug_str:000000000001a762 .LASF6701
     /tmp/cciiZT4Y.s:98402  .debug_str:00000000000281c8 .LASF6702
     /tmp/cciiZT4Y.s:102444  .debug_str:0000000000038977 .LASF6703
     /tmp/cciiZT4Y.s:97922  .debug_str:0000000000026261 .LASF6704
     /tmp/cciiZT4Y.s:91136  .debug_str:000000000000a874 .LASF6705
     /tmp/cciiZT4Y.s:101274  .debug_str:0000000000033c6a .LASF6706
     /tmp/cciiZT4Y.s:94610  .debug_str:000000000001850c .LASF6707
     /tmp/cciiZT4Y.s:107658  .debug_str:000000000004e449 .LASF6708
     /tmp/cciiZT4Y.s:101276  .debug_str:0000000000033c76 .LASF6709
     /tmp/cciiZT4Y.s:103988  .debug_str:000000000003eadf .LASF6710
     /tmp/cciiZT4Y.s:101592  .debug_str:000000000003510e .LASF6711
     /tmp/cciiZT4Y.s:101278  .debug_str:0000000000033c82 .LASF6712
     /tmp/cciiZT4Y.s:103990  .debug_str:000000000003eae5 .LASF6713
     /tmp/cciiZT4Y.s:95374  .debug_str:000000000001b82a .LASF6714
     /tmp/cciiZT4Y.s:99278  .debug_str:000000000002bb0c .LASF6715
     /tmp/cciiZT4Y.s:104624  .debug_str:00000000000415b8 .LASF6716
     /tmp/cciiZT4Y.s:103736  .debug_str:000000000003d97c .LASF6717
     /tmp/cciiZT4Y.s:99280  .debug_str:000000000002bb16 .LASF6718
     /tmp/cciiZT4Y.s:103994  .debug_str:000000000003eaf7 .LASF6719
     /tmp/cciiZT4Y.s:90574  .debug_str:00000000000081f3 .LASF6720
     /tmp/cciiZT4Y.s:106352  .debug_str:0000000000048a1c .LASF6721
     /tmp/cciiZT4Y.s:103996  .debug_str:000000000003eafd .LASF6722
     /tmp/cciiZT4Y.s:96340  .debug_str:000000000001fbd6 .LASF6723
     /tmp/cciiZT4Y.s:99284  .debug_str:000000000002bb35 .LASF6724
     /tmp/cciiZT4Y.s:94628  .debug_str:0000000000018614 .LASF6725
     /tmp/cciiZT4Y.s:97024  .debug_str:0000000000022ac0 .LASF6726
     /tmp/cciiZT4Y.s:107428  .debug_str:000000000004d2ef .LASF6727
     /tmp/cciiZT4Y.s:104000  .debug_str:000000000003eb35 .LASF6728
     /tmp/cciiZT4Y.s:103512  .debug_str:000000000003caa8 .LASF6729
     /tmp/cciiZT4Y.s:104298  .debug_str:000000000003fdad .LASF6730
     /tmp/cciiZT4Y.s:104002  .debug_str:000000000003eb3b .LASF6731
     /tmp/cciiZT4Y.s:96570  .debug_str:0000000000020c9a .LASF6732
     /tmp/cciiZT4Y.s:89248  .debug_str:00000000000028e6 .LASF6733
     /tmp/cciiZT4Y.s:94680  .debug_str:000000000001897f .LASF6734
     /tmp/cciiZT4Y.s:92992  .debug_str:0000000000011b4a .LASF6735
     /tmp/cciiZT4Y.s:89250  .debug_str:00000000000028f1 .LASF6736
     /tmp/cciiZT4Y.s:94682  .debug_str:0000000000018986 .LASF6737
     /tmp/cciiZT4Y.s:106266  .debug_str:00000000000484e5 .LASF6738
     /tmp/cciiZT4Y.s:103798  .debug_str:000000000003de53 .LASF6739
     /tmp/cciiZT4Y.s:92696  .debug_str:0000000000010968 .LASF6740
     /tmp/cciiZT4Y.s:105258  .debug_str:0000000000044228 .LASF6741
     /tmp/cciiZT4Y.s:103800  .debug_str:000000000003de5c .LASF6742
     /tmp/cciiZT4Y.s:94686  .debug_str:0000000000018994 .LASF6743
     /tmp/cciiZT4Y.s:93978  .debug_str:0000000000015ab4 .LASF6744
     /tmp/cciiZT4Y.s:103802  .debug_str:000000000003de65 .LASF6745
     /tmp/cciiZT4Y.s:94688  .debug_str:000000000001899b .LASF6746
     /tmp/cciiZT4Y.s:107216  .debug_str:000000000004c465 .LASF6747
     /tmp/cciiZT4Y.s:103804  .debug_str:000000000003de6e .LASF6748
     /tmp/cciiZT4Y.s:93726  .debug_str:0000000000014b7b .LASF6749
     /tmp/cciiZT4Y.s:101168  .debug_str:00000000000334d9 .LASF6750
     /tmp/cciiZT4Y.s:103602  .debug_str:000000000003d0a8 .LASF6751
     /tmp/cciiZT4Y.s:93730  .debug_str:0000000000014bab .LASF6752
     /tmp/cciiZT4Y.s:94950  .debug_str:0000000000019ad2 .LASF6753
     /tmp/cciiZT4Y.s:104412  .debug_str:00000000000404ac .LASF6754
     /tmp/cciiZT4Y.s:102132  .debug_str:0000000000037635 .LASF6755
     /tmp/cciiZT4Y.s:90924  .debug_str:0000000000009a17 .LASF6756
     /tmp/cciiZT4Y.s:94598  .debug_str:000000000001841f .LASF6757
     /tmp/cciiZT4Y.s:102134  .debug_str:000000000003763b .LASF6758
     /tmp/cciiZT4Y.s:104260  .debug_str:000000000003fb8b .LASF6759
     /tmp/cciiZT4Y.s:92194  .debug_str:000000000000ed6e .LASF6760
     /tmp/cciiZT4Y.s:102136  .debug_str:0000000000037641 .LASF6761
     /tmp/cciiZT4Y.s:98134  .debug_str:0000000000027017 .LASF6762
     /tmp/cciiZT4Y.s:101252  .debug_str:0000000000033a99 .LASF6763
     /tmp/cciiZT4Y.s:102200  .debug_str:0000000000037b0f .LASF6764
     /tmp/cciiZT4Y.s:102098  .debug_str:0000000000037459 .LASF6765
     /tmp/cciiZT4Y.s:89140  .debug_str:0000000000002167 .LASF6766
     /tmp/cciiZT4Y.s:102202  .debug_str:0000000000037b15 .LASF6767
     /tmp/cciiZT4Y.s:104280  .debug_str:000000000003fca0 .LASF6768
     /tmp/cciiZT4Y.s:104676  .debug_str:00000000000418dd .LASF6769
     /tmp/cciiZT4Y.s:102204  .debug_str:0000000000037b1b .LASF6770
     /tmp/cciiZT4Y.s:98154  .debug_str:000000000002716f .LASF6771
     /tmp/cciiZT4Y.s:96596  .debug_str:0000000000020e3d .LASF6772
     /tmp/cciiZT4Y.s:102206  .debug_str:0000000000037b21 .LASF6773
     /tmp/cciiZT4Y.s:91900  .debug_str:000000000000dcdb .LASF6774
     /tmp/cciiZT4Y.s:96600  .debug_str:0000000000020e6e .LASF6775
     /tmp/cciiZT4Y.s:102208  .debug_str:0000000000037b27 .LASF6776
     /tmp/cciiZT4Y.s:105278  .debug_str:00000000000443c4 .LASF6777
     /tmp/cciiZT4Y.s:99856  .debug_str:000000000002de14 .LASF6778
     /tmp/cciiZT4Y.s:102210  .debug_str:0000000000037b2d .LASF6779
     /tmp/cciiZT4Y.s:99196  .debug_str:000000000002b5dd .LASF6780
     /tmp/cciiZT4Y.s:107406  .debug_str:000000000004d194 .LASF6781
     /tmp/cciiZT4Y.s:102212  .debug_str:0000000000037b33 .LASF6782
     /tmp/cciiZT4Y.s:92968  .debug_str:000000000001199d .LASF6783
     /tmp/cciiZT4Y.s:100766  .debug_str:0000000000031a43 .LASF6784
     /tmp/cciiZT4Y.s:102214  .debug_str:0000000000037b39 .LASF6785
     /tmp/cciiZT4Y.s:107546  .debug_str:000000000004dc40 .LASF6786
     /tmp/cciiZT4Y.s:101216  .debug_str:0000000000033870 .LASF6787
     /tmp/cciiZT4Y.s:99152  .debug_str:000000000002b2ab .LASF6788
     /tmp/cciiZT4Y.s:100186  .debug_str:000000000002f47d .LASF6789
     /tmp/cciiZT4Y.s:94344  .debug_str:0000000000017290 .LASF6790
     /tmp/cciiZT4Y.s:102218  .debug_str:0000000000037b60 .LASF6791
     /tmp/cciiZT4Y.s:93958  .debug_str:0000000000015971 .LASF6792
     /tmp/cciiZT4Y.s:101182  .debug_str:00000000000335e0 .LASF6793
     /tmp/cciiZT4Y.s:102292  .debug_str:00000000000380ca .LASF6794
     /tmp/cciiZT4Y.s:106262  .debug_str:00000000000484bf .LASF6795
     /tmp/cciiZT4Y.s:102014  .debug_str:0000000000036e76 .LASF6796
     /tmp/cciiZT4Y.s:102294  .debug_str:00000000000380d0 .LASF6797
     /tmp/cciiZT4Y.s:100204  .debug_str:000000000002f5af .LASF6798
     /tmp/cciiZT4Y.s:89540  .debug_str:0000000000003bfd .LASF6799
     /tmp/cciiZT4Y.s:102296  .debug_str:00000000000380d6 .LASF6800
     /tmp/cciiZT4Y.s:93976  .debug_str:0000000000015a94 .LASF6801
     /tmp/cciiZT4Y.s:92750  .debug_str:0000000000010c35 .LASF6802
     /tmp/cciiZT4Y.s:102298  .debug_str:00000000000380dc .LASF6803
     /tmp/cciiZT4Y.s:107212  .debug_str:000000000004c42f .LASF6804
     /tmp/cciiZT4Y.s:92752  .debug_str:0000000000010c3f .LASF6805
     /tmp/cciiZT4Y.s:102300  .debug_str:00000000000380e2 .LASF6806
     /tmp/cciiZT4Y.s:89562  .debug_str:0000000000003d43 .LASF6807
     /tmp/cciiZT4Y.s:98502  .debug_str:0000000000028851 .LASF6808
     /tmp/cciiZT4Y.s:99312  .debug_str:000000000002bcab .LASF6809
     /tmp/cciiZT4Y.s:91868  .debug_str:000000000000db02 .LASF6810
     /tmp/cciiZT4Y.s:107606  .debug_str:000000000004e06d .LASF6811
     /tmp/cciiZT4Y.s:102304  .debug_str:00000000000380f7 .LASF6812
     /tmp/cciiZT4Y.s:88780  .debug_str:0000000000000804 .LASF6813
     /tmp/cciiZT4Y.s:107610  .debug_str:000000000004e0a6 .LASF6814
     /tmp/cciiZT4Y.s:102306  .debug_str:00000000000380fd .LASF6815
     /tmp/cciiZT4Y.s:102114  .debug_str:000000000003753a .LASF6816
     /tmp/cciiZT4Y.s:92532  .debug_str:00000000000100fe .LASF6817
     /tmp/cciiZT4Y.s:102308  .debug_str:0000000000038103 .LASF6818
     /tmp/cciiZT4Y.s:95910  .debug_str:000000000001dddd .LASF6819
     /tmp/cciiZT4Y.s:108004  .debug_str:000000000004fb55 .LASF6820
     /tmp/cciiZT4Y.s:102310  .debug_str:0000000000038109 .LASF6821
     /tmp/cciiZT4Y.s:89730  .debug_str:000000000000496c .LASF6822
     /tmp/cciiZT4Y.s:101192  .debug_str:000000000003368c .LASF6823
     /tmp/cciiZT4Y.s:102372  .debug_str:000000000003858a .LASF6824
     /tmp/cciiZT4Y.s:102142  .debug_str:0000000000037685 .LASF6825
     /tmp/cciiZT4Y.s:98234  .debug_str:0000000000027630 .LASF6826
     /tmp/cciiZT4Y.s:102374  .debug_str:0000000000038590 .LASF6827
     /tmp/cciiZT4Y.s:95932  .debug_str:000000000001df53 .LASF6828
     /tmp/cciiZT4Y.s:89590  .debug_str:0000000000003f70 .LASF6829
     /tmp/cciiZT4Y.s:102376  .debug_str:0000000000038596 .LASF6830
     /tmp/cciiZT4Y.s:89746  .debug_str:0000000000004af2 .LASF6831
     /tmp/cciiZT4Y.s:94002  .debug_str:0000000000015cf5 .LASF6832
     /tmp/cciiZT4Y.s:102378  .debug_str:000000000003859c .LASF6833
     /tmp/cciiZT4Y.s:103158  .debug_str:000000000003b312 .LASF6834
     /tmp/cciiZT4Y.s:94004  .debug_str:0000000000015d01 .LASF6835
     /tmp/cciiZT4Y.s:102380  .debug_str:00000000000385a2 .LASF6836
     /tmp/cciiZT4Y.s:96922  .debug_str:00000000000224d5 .LASF6837
     /tmp/cciiZT4Y.s:94234  .debug_str:0000000000016b91 .LASF6838
     /tmp/cciiZT4Y.s:102382  .debug_str:00000000000385a8 .LASF6839
     /tmp/cciiZT4Y.s:90690  .debug_str:0000000000008a3b .LASF6840
     /tmp/cciiZT4Y.s:89394  .debug_str:0000000000003268 .LASF6841
     /tmp/cciiZT4Y.s:102384  .debug_str:00000000000385ae .LASF6842
     /tmp/cciiZT4Y.s:104010  .debug_str:000000000003eb87 .LASF6843
     /tmp/cciiZT4Y.s:89398  .debug_str:00000000000032b4 .LASF6844
     /tmp/cciiZT4Y.s:102386  .debug_str:00000000000385b4 .LASF6845
     /tmp/cciiZT4Y.s:97880  .debug_str:0000000000025f49 .LASF6846
     /tmp/cciiZT4Y.s:97996  .debug_str:00000000000266c9 .LASF6847
     /tmp/cciiZT4Y.s:102388  .debug_str:00000000000385ba .LASF6848
     /tmp/cciiZT4Y.s:91652  .debug_str:000000000000cca6 .LASF6849
     /tmp/cciiZT4Y.s:97484  .debug_str:0000000000024a1e .LASF6850
     /tmp/cciiZT4Y.s:102390  .debug_str:00000000000385c0 .LASF6851
     /tmp/cciiZT4Y.s:105002  .debug_str:00000000000431a9 .LASF6852
     /tmp/cciiZT4Y.s:107678  .debug_str:000000000004e5d6 .LASF6853
     /tmp/cciiZT4Y.s:102450  .debug_str:00000000000389da .LASF6854
     /tmp/cciiZT4Y.s:97904  .debug_str:000000000002615d .LASF6855
     /tmp/cciiZT4Y.s:97076  .debug_str:0000000000022e40 .LASF6856
     /tmp/cciiZT4Y.s:99630  .debug_str:000000000002cfed .LASF6857
     /tmp/cciiZT4Y.s:91672  .debug_str:000000000000ce0a .LASF6858
     /tmp/cciiZT4Y.s:103128  .debug_str:000000000003b12e .LASF6859
     /tmp/cciiZT4Y.s:102454  .debug_str:00000000000389eb .LASF6860
     /tmp/cciiZT4Y.s:105024  .debug_str:0000000000043343 .LASF6861
     /tmp/cciiZT4Y.s:96058  .debug_str:000000000001e83c .LASF6862
     /tmp/cciiZT4Y.s:102456  .debug_str:00000000000389f1 .LASF6863
     /tmp/cciiZT4Y.s:98922  .debug_str:000000000002a47b .LASF6864
     /tmp/cciiZT4Y.s:94090  .debug_str:00000000000161ba .LASF6865
     /tmp/cciiZT4Y.s:102458  .debug_str:00000000000389f7 .LASF6866
     /tmp/cciiZT4Y.s:92680  .debug_str:000000000001089a .LASF6867
     /tmp/cciiZT4Y.s:94094  .debug_str:00000000000161d7 .LASF6868
     /tmp/cciiZT4Y.s:102460  .debug_str:00000000000389fd .LASF6869
     /tmp/cciiZT4Y.s:105980  .debug_str:000000000004711c .LASF6870
     /tmp/cciiZT4Y.s:104014  .debug_str:000000000003ebb2 .LASF6871
     /tmp/cciiZT4Y.s:102462  .debug_str:0000000000038a03 .LASF6872
     /tmp/cciiZT4Y.s:99950  .debug_str:000000000002e3e9 .LASF6873
     /tmp/cciiZT4Y.s:88860  .debug_str:0000000000000d35 .LASF6874
     /tmp/cciiZT4Y.s:102464  .debug_str:0000000000038a09 .LASF6875
     /tmp/cciiZT4Y.s:93704  .debug_str:0000000000014a0b .LASF6876
     /tmp/cciiZT4Y.s:89476  .debug_str:000000000000375c .LASF6877
     /tmp/cciiZT4Y.s:102466  .debug_str:0000000000038a0f .LASF6878
     /tmp/cciiZT4Y.s:106932  .debug_str:000000000004b158 .LASF6879
     /tmp/cciiZT4Y.s:101096  .debug_str:0000000000033002 .LASF6880
     /tmp/cciiZT4Y.s:99648  .debug_str:000000000002d10f .LASF6881
     /tmp/cciiZT4Y.s:100892  .debug_str:00000000000321de .LASF6882
     /tmp/cciiZT4Y.s:99300  .debug_str:000000000002bbfd .LASF6883
     /tmp/cciiZT4Y.s:102550  .debug_str:0000000000038f3b .LASF6884
     /tmp/cciiZT4Y.s:93886  .debug_str:00000000000154cd .LASF6885
     /tmp/cciiZT4Y.s:99302  .debug_str:000000000002bc0b .LASF6886
     /tmp/cciiZT4Y.s:102552  .debug_str:0000000000038f41 .LASF6887
     /tmp/cciiZT4Y.s:107130  .debug_str:000000000004becd .LASF6888
     /tmp/cciiZT4Y.s:92866  .debug_str:00000000000113a1 .LASF6889
     /tmp/cciiZT4Y.s:102554  .debug_str:0000000000038f47 .LASF6890
     /tmp/cciiZT4Y.s:101088  .debug_str:0000000000032fab .LASF6891
     /tmp/cciiZT4Y.s:94618  .debug_str:000000000001858e .LASF6892
     /tmp/cciiZT4Y.s:102556  .debug_str:0000000000038f4d .LASF6893
     /tmp/cciiZT4Y.s:94854  .debug_str:0000000000019449 .LASF6894
     /tmp/cciiZT4Y.s:94622  .debug_str:00000000000185d6 .LASF6895
     /tmp/cciiZT4Y.s:102558  .debug_str:0000000000038f53 .LASF6896
     /tmp/cciiZT4Y.s:88692  .debug_str:00000000000001e5 .LASF6897
     /tmp/cciiZT4Y.s:94162  .debug_str:0000000000016638 .LASF6898
     /tmp/cciiZT4Y.s:102560  .debug_str:0000000000038f59 .LASF6899
     /tmp/cciiZT4Y.s:104666  .debug_str:0000000000041836 .LASF6900
     /tmp/cciiZT4Y.s:92520  .debug_str:0000000000010060 .LASF6901
     /tmp/cciiZT4Y.s:102562  .debug_str:0000000000038f5f .LASF6902
     /tmp/cciiZT4Y.s:95846  .debug_str:000000000001d8db .LASF6903
     /tmp/cciiZT4Y.s:100344  .debug_str:000000000002fee4 .LASF6904
     /tmp/cciiZT4Y.s:102564  .debug_str:0000000000038f65 .LASF6905
     /tmp/cciiZT4Y.s:89644  .debug_str:000000000000436c .LASF6906
     /tmp/cciiZT4Y.s:105900  .debug_str:0000000000046c4e .LASF6907
     /tmp/cciiZT4Y.s:102566  .debug_str:0000000000038f6b .LASF6908
     /tmp/cciiZT4Y.s:103072  .debug_str:000000000003ad2e .LASF6909
     /tmp/cciiZT4Y.s:107392  .debug_str:000000000004d0d0 .LASF6910
     /tmp/cciiZT4Y.s:102568  .debug_str:0000000000038f71 .LASF6911
     /tmp/cciiZT4Y.s:96830  .debug_str:0000000000021ea7 .LASF6912
     /tmp/cciiZT4Y.s:96998  .debug_str:0000000000022900 .LASF6913
     /tmp/cciiZT4Y.s:102624  .debug_str:00000000000392fa .LASF6914
     /tmp/cciiZT4Y.s:89670  .debug_str:00000000000045d5 .LASF6915
     /tmp/cciiZT4Y.s:99126  .debug_str:000000000002b158 .LASF6916
     /tmp/cciiZT4Y.s:102626  .debug_str:0000000000039300 .LASF6917
     /tmp/cciiZT4Y.s:103090  .debug_str:000000000003ae50 .LASF6918
     /tmp/cciiZT4Y.s:103576  .debug_str:000000000003cf03 .LASF6919
     /tmp/cciiZT4Y.s:102628  .debug_str:0000000000039306 .LASF6920
     /tmp/cciiZT4Y.s:96850  .debug_str:0000000000021fb9 .LASF6921
     /tmp/cciiZT4Y.s:103580  .debug_str:000000000003cf29 .LASF6922
     /tmp/cciiZT4Y.s:102630  .debug_str:000000000003930c .LASF6923
     /tmp/cciiZT4Y.s:90610  .debug_str:0000000000008483 .LASF6924
     /tmp/cciiZT4Y.s:101548  .debug_str:0000000000034e5f .LASF6925
     /tmp/cciiZT4Y.s:102632  .debug_str:0000000000039312 .LASF6926
     /tmp/cciiZT4Y.s:103928  .debug_str:000000000003e6fa .LASF6927
     /tmp/cciiZT4Y.s:95280  .debug_str:000000000001b217 .LASF6928
     /tmp/cciiZT4Y.s:102634  .debug_str:0000000000039318 .LASF6929
     /tmp/cciiZT4Y.s:97788  .debug_str:0000000000025ad2 .LASF6930
     /tmp/cciiZT4Y.s:95284  .debug_str:000000000001b244 .LASF6931
     /tmp/cciiZT4Y.s:102636  .debug_str:000000000003931e .LASF6932
     /tmp/cciiZT4Y.s:91564  .debug_str:000000000000c632 .LASF6933
     /tmp/cciiZT4Y.s:95266  .debug_str:000000000001b12c .LASF6934
     /tmp/cciiZT4Y.s:102638  .debug_str:0000000000039324 .LASF6935
     /tmp/cciiZT4Y.s:104910  .debug_str:0000000000042b59 .LASF6936
     /tmp/cciiZT4Y.s:89226  .debug_str:0000000000002762 .LASF6937
     /tmp/cciiZT4Y.s:102640  .debug_str:000000000003932a .LASF6938
     /tmp/cciiZT4Y.s:98818  .debug_str:0000000000029cfd .LASF6939
     /tmp/cciiZT4Y.s:89228  .debug_str:000000000000276f .LASF6940
     /tmp/cciiZT4Y.s:102642  .debug_str:0000000000039330 .LASF6941
     /tmp/cciiZT4Y.s:106328  .debug_str:00000000000488a3 .LASF6942
     /tmp/cciiZT4Y.s:104274  .debug_str:000000000003fc4c .LASF6943
     /tmp/cciiZT4Y.s:102704  .debug_str:00000000000396f7 .LASF6944
     /tmp/cciiZT4Y.s:104944  .debug_str:0000000000042d89 .LASF6945
     /tmp/cciiZT4Y.s:107874  .debug_str:000000000004f225 .LASF6946
     /tmp/cciiZT4Y.s:102706  .debug_str:00000000000396fd .LASF6947
     /tmp/cciiZT4Y.s:98840  .debug_str:0000000000029ea6 .LASF6948
     /tmp/cciiZT4Y.s:104062  .debug_str:000000000003eee0 .LASF6949
     /tmp/cciiZT4Y.s:102708  .debug_str:0000000000039703 .LASF6950
     /tmp/cciiZT4Y.s:92602  .debug_str:000000000001046b .LASF6951
     /tmp/cciiZT4Y.s:90038  .debug_str:0000000000005d99 .LASF6952
     /tmp/cciiZT4Y.s:102710  .debug_str:0000000000039709 .LASF6953
     /tmp/cciiZT4Y.s:105906  .debug_str:0000000000046c9d .LASF6954
     /tmp/cciiZT4Y.s:99002  .debug_str:000000000002a939 .LASF6955
     /tmp/cciiZT4Y.s:102712  .debug_str:000000000003970f .LASF6956
     /tmp/cciiZT4Y.s:99870  .debug_str:000000000002deea .LASF6957
     /tmp/cciiZT4Y.s:102596  .debug_str:000000000003915a .LASF6958
     /tmp/cciiZT4Y.s:102714  .debug_str:0000000000039715 .LASF6959
     /tmp/cciiZT4Y.s:93618  .debug_str:00000000000144b9 .LASF6960
     /tmp/cciiZT4Y.s:98160  .debug_str:00000000000271d0 .LASF6961
     /tmp/cciiZT4Y.s:102716  .debug_str:000000000003971b .LASF6962
     /tmp/cciiZT4Y.s:106846  .debug_str:000000000004aaea .LASF6963
     /tmp/cciiZT4Y.s:94338  .debug_str:0000000000017263 .LASF6964
     /tmp/cciiZT4Y.s:102718  .debug_str:0000000000039721 .LASF6965
     /tmp/cciiZT4Y.s:100806  .debug_str:0000000000031c64 .LASF6966
     /tmp/cciiZT4Y.s:94342  .debug_str:0000000000017284 .LASF6967
     /tmp/cciiZT4Y.s:102720  .debug_str:0000000000039727 .LASF6968
     /tmp/cciiZT4Y.s:94594  .debug_str:00000000000183df .LASF6969
     /tmp/cciiZT4Y.s:98210  .debug_str:0000000000027429 .LASF6970
     /tmp/cciiZT4Y.s:102722  .debug_str:000000000003972d .LASF6971
     /tmp/cciiZT4Y.s:107856  .debug_str:000000000004f123 .LASF6972
     /tmp/cciiZT4Y.s:98526  .debug_str:0000000000028a1c .LASF6973
     /tmp/cciiZT4Y.s:102786  .debug_str:0000000000039b93 .LASF6974
     /tmp/cciiZT4Y.s:100828  .debug_str:0000000000031d8b .LASF6975
     /tmp/cciiZT4Y.s:101610  .debug_str:00000000000352d1 .LASF6976
     /tmp/cciiZT4Y.s:102788  .debug_str:0000000000039b99 .LASF6977
     /tmp/cciiZT4Y.s:94612  .debug_str:0000000000018512 .LASF6978
     /tmp/cciiZT4Y.s:100890  .debug_str:00000000000321d0 .LASF6979
     /tmp/cciiZT4Y.s:100268  .debug_str:000000000002fa14 .LASF6980
     /tmp/cciiZT4Y.s:95048  .debug_str:000000000001a15e .LASF6981
     /tmp/cciiZT4Y.s:104180  .debug_str:000000000003f65a .LASF6982
     /tmp/cciiZT4Y.s:102792  .debug_str:0000000000039bbc .LASF6983
     /tmp/cciiZT4Y.s:101790  .debug_str:0000000000035fe1 .LASF6984
     /tmp/cciiZT4Y.s:89464  .debug_str:000000000000367e .LASF6985
     /tmp/cciiZT4Y.s:100274  .debug_str:000000000002fa6d .LASF6986
     /tmp/cciiZT4Y.s:95602  .debug_str:000000000001c871 .LASF6987
     /tmp/cciiZT4Y.s:95202  .debug_str:000000000001ad19 .LASF6988
     /tmp/cciiZT4Y.s:102796  .debug_str:0000000000039be0 .LASF6989
     /tmp/cciiZT4Y.s:89424  .debug_str:00000000000034a6 .LASF6990
     /tmp/cciiZT4Y.s:93428  .debug_str:000000000001390b .LASF6991
     /tmp/cciiZT4Y.s:102798  .debug_str:0000000000039be6 .LASF6992
     /tmp/cciiZT4Y.s:101026  .debug_str:0000000000032bb2 .LASF6993
     /tmp/cciiZT4Y.s:103678  .debug_str:000000000003d52c .LASF6994
     /tmp/cciiZT4Y.s:102800  .debug_str:0000000000039bec .LASF6995
     /tmp/cciiZT4Y.s:96578  .debug_str:0000000000020d1e .LASF6996
     /tmp/cciiZT4Y.s:89380  .debug_str:00000000000031b6 .LASF6997
     /tmp/cciiZT4Y.s:100288  .debug_str:000000000002fb3b .LASF6998
     /tmp/cciiZT4Y.s:90366  .debug_str:00000000000074f0 .LASF6999
     /tmp/cciiZT4Y.s:97432  .debug_str:0000000000024718 .LASF7000
     /tmp/cciiZT4Y.s:102804  .debug_str:0000000000039c1a .LASF7001
     /tmp/cciiZT4Y.s:103704  .debug_str:000000000003d6fc .LASF7002
     /tmp/cciiZT4Y.s:102502  .debug_str:0000000000038c7c .LASF7003
     /tmp/cciiZT4Y.s:92132  .debug_str:000000000000e9c2 .LASF7004
     /tmp/cciiZT4Y.s:90336  .debug_str:00000000000072ed .LASF7005
     /tmp/cciiZT4Y.s:102506  .debug_str:0000000000038cc3 .LASF7006
     /tmp/cciiZT4Y.s:93406  .debug_str:00000000000137af .LASF7007
     /tmp/cciiZT4Y.s:103676  .debug_str:000000000003d50b .LASF7008
     /tmp/cciiZT4Y.s:95056  .debug_str:000000000001a20b .LASF7009
     /tmp/cciiZT4Y.s:93410  .debug_str:00000000000137d5 .LASF7010
     /tmp/cciiZT4Y.s:95324  .debug_str:000000000001b4e9 .LASF7011
     /tmp/cciiZT4Y.s:97826  .debug_str:0000000000025d84 .LASF7012
     /tmp/cciiZT4Y.s:92138  .debug_str:000000000000ea17 .LASF7013
     /tmp/cciiZT4Y.s:91260  .debug_str:000000000000b0c4 .LASF7014
     /tmp/cciiZT4Y.s:97828  .debug_str:0000000000025d93 .LASF7015
     /tmp/cciiZT4Y.s:92140  .debug_str:000000000000ea1e .LASF7016
     /tmp/cciiZT4Y.s:104590  .debug_str:0000000000041379 .LASF7017
     /tmp/cciiZT4Y.s:96852  .debug_str:0000000000021fd9 .LASF7018
     /tmp/cciiZT4Y.s:92142  .debug_str:000000000000ea25 .LASF7019
     /tmp/cciiZT4Y.s:98484  .debug_str:00000000000286e8 .LASF7020
     /tmp/cciiZT4Y.s:94660  .debug_str:000000000001882d .LASF7021
     /tmp/cciiZT4Y.s:92144  .debug_str:000000000000ea2c .LASF7022
     /tmp/cciiZT4Y.s:92246  .debug_str:000000000000eeea .LASF7023
     /tmp/cciiZT4Y.s:90190  .debug_str:00000000000067d3 .LASF7024
     /tmp/cciiZT4Y.s:92146  .debug_str:000000000000ea33 .LASF7025
     /tmp/cciiZT4Y.s:105606  .debug_str:0000000000045960 .LASF7026
     /tmp/cciiZT4Y.s:98054  .debug_str:0000000000026b07 .LASF7027
     /tmp/cciiZT4Y.s:92148  .debug_str:000000000000ea3a .LASF7028
     /tmp/cciiZT4Y.s:99516  .debug_str:000000000002c8a7 .LASF7029
     /tmp/cciiZT4Y.s:98058  .debug_str:0000000000026b2a .LASF7030
     /tmp/cciiZT4Y.s:92150  .debug_str:000000000000ea41 .LASF7031
     /tmp/cciiZT4Y.s:93290  .debug_str:0000000000012f85 .LASF7032
     /tmp/cciiZT4Y.s:104984  .debug_str:0000000000043046 .LASF7033
     /tmp/cciiZT4Y.s:92210  .debug_str:000000000000ede0 .LASF7034
     /tmp/cciiZT4Y.s:105626  .debug_str:0000000000045a9a .LASF7035
     /tmp/cciiZT4Y.s:93448  .debug_str:0000000000013a46 .LASF7036
     /tmp/cciiZT4Y.s:92212  .debug_str:000000000000ede7 .LASF7037
     /tmp/cciiZT4Y.s:99540  .debug_str:000000000002ca11 .LASF7038
     /tmp/cciiZT4Y.s:93450  .debug_str:0000000000013a57 .LASF7039
     /tmp/cciiZT4Y.s:92214  .debug_str:000000000000edee .LASF7040
     /tmp/cciiZT4Y.s:93306  .debug_str:000000000001308b .LASF7041
     /tmp/cciiZT4Y.s:90422  .debug_str:00000000000078a6 .LASF7042
     /tmp/cciiZT4Y.s:92216  .debug_str:000000000000edf5 .LASF7043
     /tmp/cciiZT4Y.s:106548  .debug_str:00000000000496ca .LASF7044
     /tmp/cciiZT4Y.s:100694  .debug_str:0000000000031514 .LASF7045
     /tmp/cciiZT4Y.s:92218  .debug_str:000000000000edfc .LASF7046
     /tmp/cciiZT4Y.s:100504  .debug_str:000000000003097c .LASF7047
     /tmp/cciiZT4Y.s:100702  .debug_str:0000000000031566 .LASF7048
     /tmp/cciiZT4Y.s:92220  .debug_str:000000000000ee03 .LASF7049
     /tmp/cciiZT4Y.s:94274  .debug_str:0000000000016e5b .LASF7050
     /tmp/cciiZT4Y.s:90994  .debug_str:0000000000009ee4 .LASF7051
     /tmp/cciiZT4Y.s:92222  .debug_str:000000000000ee0a .LASF7052
     /tmp/cciiZT4Y.s:89660  .debug_str:000000000000451f .LASF7053
     /tmp/cciiZT4Y.s:88752  .debug_str:0000000000000660 .LASF7054
     /tmp/cciiZT4Y.s:92224  .debug_str:000000000000ee11 .LASF7055
     /tmp/cciiZT4Y.s:101488  .debug_str:00000000000349f9 .LASF7056
     /tmp/cciiZT4Y.s:90522  .debug_str:0000000000007eba .LASF7057
     /tmp/cciiZT4Y.s:92226  .debug_str:000000000000ee18 .LASF7058
     /tmp/cciiZT4Y.s:95262  .debug_str:000000000001b100 .LASF7059
     /tmp/cciiZT4Y.s:100746  .debug_str:00000000000318e4 .LASF7060
     /tmp/cciiZT4Y.s:92228  .debug_str:000000000000ee1f .LASF7061
     /tmp/cciiZT4Y.s:89070  .debug_str:0000000000001c63 .LASF7062
     /tmp/cciiZT4Y.s:93560  .debug_str:00000000000140bd .LASF7063
     /tmp/cciiZT4Y.s:92310  .debug_str:000000000000f372 .LASF7064
     /tmp/cciiZT4Y.s:107022  .debug_str:000000000004b768 .LASF7065
     /tmp/cciiZT4Y.s:100848  .debug_str:0000000000031ecb .LASF7066
     /tmp/cciiZT4Y.s:92312  .debug_str:000000000000f379 .LASF7067
     /tmp/cciiZT4Y.s:95282  .debug_str:000000000001b223 .LASF7068
     /tmp/cciiZT4Y.s:93732  .debug_str:0000000000014bb2 .LASF7069
     /tmp/cciiZT4Y.s:92314  .debug_str:000000000000f380 .LASF7070
     /tmp/cciiZT4Y.s:89092  .debug_str:0000000000001e18 .LASF7071
     /tmp/cciiZT4Y.s:96182  .debug_str:000000000001f063 .LASF7072
     /tmp/cciiZT4Y.s:92316  .debug_str:000000000000f387 .LASF7073
     /tmp/cciiZT4Y.s:106614  .debug_str:0000000000049b98 .LASF7074
     /tmp/cciiZT4Y.s:96184  .debug_str:000000000001f072 .LASF7075
     /tmp/cciiZT4Y.s:92318  .debug_str:000000000000f38e .LASF7076
     /tmp/cciiZT4Y.s:96248  .debug_str:000000000001f5b7 .LASF7077
     /tmp/cciiZT4Y.s:89658  .debug_str:0000000000004512 .LASF7078
     /tmp/cciiZT4Y.s:92320  .debug_str:000000000000f395 .LASF7079
     /tmp/cciiZT4Y.s:90070  .debug_str:0000000000005fa9 .LASF7080
     /tmp/cciiZT4Y.s:89100  .debug_str:0000000000001ee4 .LASF7081
     /tmp/cciiZT4Y.s:93746  .debug_str:0000000000014c26 .LASF7082
     /tmp/cciiZT4Y.s:103426  .debug_str:000000000003c563 .LASF7083
     /tmp/cciiZT4Y.s:89104  .debug_str:0000000000001f20 .LASF7084
     /tmp/cciiZT4Y.s:92324  .debug_str:000000000000f3c4 .LASF7085
     /tmp/cciiZT4Y.s:89018  .debug_str:00000000000017f7 .LASF7086
     /tmp/cciiZT4Y.s:107962  .debug_str:000000000004f869 .LASF7087
     /tmp/cciiZT4Y.s:92326  .debug_str:000000000000f3cb .LASF7088
     /tmp/cciiZT4Y.s:107850  .debug_str:000000000004f0dc .LASF7089
     /tmp/cciiZT4Y.s:103934  .debug_str:000000000003e76a .LASF7090
     /tmp/cciiZT4Y.s:92328  .debug_str:000000000000f3d2 .LASF7091
     /tmp/cciiZT4Y.s:104322  .debug_str:000000000003ff09 .LASF7092
     /tmp/cciiZT4Y.s:95836  .debug_str:000000000001d813 .LASF7093
     /tmp/cciiZT4Y.s:93878  .debug_str:0000000000015480 .LASF7094
     /tmp/cciiZT4Y.s:104134  .debug_str:000000000003f38f .LASF7095
     /tmp/cciiZT4Y.s:96002  .debug_str:000000000001e463 .LASF7096
     /tmp/cciiZT4Y.s:92386  .debug_str:000000000000f846 .LASF7097
     /tmp/cciiZT4Y.s:90964  .debug_str:0000000000009d33 .LASF7098
     /tmp/cciiZT4Y.s:104674  .debug_str:00000000000418cf .LASF7099
     /tmp/cciiZT4Y.s:92388  .debug_str:000000000000f84d .LASF7100
     /tmp/cciiZT4Y.s:104344  .debug_str:000000000004006d .LASF7101
     /tmp/cciiZT4Y.s:93464  .debug_str:0000000000013b07 .LASF7102
     /tmp/cciiZT4Y.s:92390  .debug_str:000000000000f854 .LASF7103
     /tmp/cciiZT4Y.s:98238  .debug_str:0000000000027668 .LASF7104
     /tmp/cciiZT4Y.s:101590  .debug_str:0000000000035105 .LASF7105
     /tmp/cciiZT4Y.s:92392  .debug_str:000000000000f85b .LASF7106
     /tmp/cciiZT4Y.s:91968  .debug_str:000000000000e057 .LASF7107
     /tmp/cciiZT4Y.s:90274  .debug_str:0000000000006e0c .LASF7108
     /tmp/cciiZT4Y.s:92394  .debug_str:000000000000f862 .LASF7109
     /tmp/cciiZT4Y.s:105332  .debug_str:00000000000446fb .LASF7110
     /tmp/cciiZT4Y.s:93860  .debug_str:000000000001534d .LASF7111
     /tmp/cciiZT4Y.s:92396  .debug_str:000000000000f869 .LASF7112
     /tmp/cciiZT4Y.s:99258  .debug_str:000000000002b9f6 .LASF7113
     /tmp/cciiZT4Y.s:102130  .debug_str:0000000000037629 .LASF7114
     /tmp/cciiZT4Y.s:92398  .debug_str:000000000000f870 .LASF7115
     /tmp/cciiZT4Y.s:90210  .debug_str:0000000000006919 .LASF7116
     /tmp/cciiZT4Y.s:102510  .debug_str:0000000000038cfb .LASF7117
     /tmp/cciiZT4Y.s:92400  .debug_str:000000000000f877 .LASF7118
     /tmp/cciiZT4Y.s:106302  .debug_str:000000000004870e .LASF7119
     /tmp/cciiZT4Y.s:100326  .debug_str:000000000002fd7e .LASF7120
     /tmp/cciiZT4Y.s:93910  .debug_str:0000000000015662 .LASF7121
     /tmp/cciiZT4Y.s:103002  .debug_str:000000000003a839 .LASF7122
     /tmp/cciiZT4Y.s:96618  .debug_str:0000000000020f69 .LASF7123
     /tmp/cciiZT4Y.s:92474  .debug_str:000000000000fde1 .LASF7124
     /tmp/cciiZT4Y.s:101332  .debug_str:0000000000033ffb .LASF7125
     /tmp/cciiZT4Y.s:97406  .debug_str:00000000000244d0 .LASF7126
     /tmp/cciiZT4Y.s:92476  .debug_str:000000000000fde8 .LASF7127
     /tmp/cciiZT4Y.s:106322  .debug_str:0000000000048844 .LASF7128
     /tmp/cciiZT4Y.s:90036  .debug_str:0000000000005d8e .LASF7129
     /tmp/cciiZT4Y.s:92478  .debug_str:000000000000fdef .LASF7130
     /tmp/cciiZT4Y.s:100276  .debug_str:000000000002fa73 .LASF7131
     /tmp/cciiZT4Y.s:94106  .debug_str:0000000000016292 .LASF7132
     /tmp/cciiZT4Y.s:92480  .debug_str:000000000000fdf6 .LASF7133
     /tmp/cciiZT4Y.s:94024  .debug_str:0000000000015e08 .LASF7134
     /tmp/cciiZT4Y.s:94084  .debug_str:0000000000016182 .LASF7135
     /tmp/cciiZT4Y.s:92482  .debug_str:000000000000fdfd .LASF7136
     /tmp/cciiZT4Y.s:107282  .debug_str:000000000004c900 .LASF7137
     /tmp/cciiZT4Y.s:93050  .debug_str:0000000000011f56 .LASF7138
     /tmp/cciiZT4Y.s:92484  .debug_str:000000000000fe04 .LASF7139
     /tmp/cciiZT4Y.s:101236  .debug_str:0000000000033981 .LASF7140
     /tmp/cciiZT4Y.s:95704  .debug_str:000000000001cff0 .LASF7141
     /tmp/cciiZT4Y.s:94050  .debug_str:0000000000015fa2 .LASF7142
     /tmp/cciiZT4Y.s:100486  .debug_str:0000000000030847 .LASF7143
     /tmp/cciiZT4Y.s:99602  .debug_str:000000000002ce56 .LASF7144
     /tmp/cciiZT4Y.s:94052  .debug_str:0000000000015fa9 .LASF7145
     /tmp/cciiZT4Y.s:88838  .debug_str:0000000000000be5 .LASF7146
     /tmp/cciiZT4Y.s:101406  .debug_str:00000000000344a3 .LASF7147
     /tmp/cciiZT4Y.s:94054  .debug_str:0000000000015fb0 .LASF7148
     /tmp/cciiZT4Y.s:102174  .debug_str:0000000000037914 .LASF7149
     /tmp/cciiZT4Y.s:90028  .debug_str:0000000000005d21 .LASF7150
     /tmp/cciiZT4Y.s:94056  .debug_str:0000000000015fb7 .LASF7151
     /tmp/cciiZT4Y.s:95968  .debug_str:000000000001e1e2 .LASF7152
     /tmp/cciiZT4Y.s:104606  .debug_str:000000000004146c .LASF7153
     /tmp/cciiZT4Y.s:92562  .debug_str:00000000000102d2 .LASF7154
     /tmp/cciiZT4Y.s:88854  .debug_str:0000000000000cba .LASF7155
     /tmp/cciiZT4Y.s:94916  .debug_str:00000000000198a1 .LASF7156
     /tmp/cciiZT4Y.s:92564  .debug_str:00000000000102d9 .LASF7157
     /tmp/cciiZT4Y.s:104672  .debug_str:00000000000418ae .LASF7158
     /tmp/cciiZT4Y.s:105948  .debug_str:0000000000046f33 .LASF7159
     /tmp/cciiZT4Y.s:92566  .debug_str:00000000000102e0 .LASF7160
     /tmp/cciiZT4Y.s:95990  .debug_str:000000000001e3a8 .LASF7161
     /tmp/cciiZT4Y.s:91128  .debug_str:000000000000a7d1 .LASF7162
     /tmp/cciiZT4Y.s:92568  .debug_str:00000000000102e7 .LASF7163
     /tmp/cciiZT4Y.s:105990  .debug_str:0000000000047210 .LASF7164
     /tmp/cciiZT4Y.s:99894  .debug_str:000000000002e07b .LASF7165
     /tmp/cciiZT4Y.s:92570  .debug_str:00000000000102ee .LASF7166
     /tmp/cciiZT4Y.s:103214  .debug_str:000000000003b705 .LASF7167
     /tmp/cciiZT4Y.s:92986  .debug_str:0000000000011ae8 .LASF7168
     /tmp/cciiZT4Y.s:92572  .debug_str:00000000000102f5 .LASF7169
     /tmp/cciiZT4Y.s:96990  .debug_str:0000000000022881 .LASF7170
     /tmp/cciiZT4Y.s:106858  .debug_str:000000000004aba0 .LASF7171
     /tmp/cciiZT4Y.s:92574  .debug_str:00000000000102fc .LASF7172
     /tmp/cciiZT4Y.s:90742  .debug_str:0000000000008d65 .LASF7173
     /tmp/cciiZT4Y.s:95118  .debug_str:000000000001a6c2 .LASF7174
     /tmp/cciiZT4Y.s:92576  .debug_str:0000000000010303 .LASF7175
     /tmp/cciiZT4Y.s:104082  .debug_str:000000000003f050 .LASF7176
     /tmp/cciiZT4Y.s:107696  .debug_str:000000000004e6fa .LASF7177
     /tmp/cciiZT4Y.s:92578  .debug_str:000000000001030a .LASF7178
     /tmp/cciiZT4Y.s:97956  .debug_str:0000000000026474 .LASF7179
     /tmp/cciiZT4Y.s:89122  .debug_str:000000000000204b .LASF7180
     /tmp/cciiZT4Y.s:92580  .debug_str:0000000000010311 .LASF7181
     /tmp/cciiZT4Y.s:91712  .debug_str:000000000000d09e .LASF7182
     /tmp/cciiZT4Y.s:90462  .debug_str:0000000000007b04 .LASF7183
     /tmp/cciiZT4Y.s:92630  .debug_str:0000000000010602 .LASF7184
     /tmp/cciiZT4Y.s:104268  .debug_str:000000000003fbf6 .LASF7185
     /tmp/cciiZT4Y.s:99500  .debug_str:000000000002c7cd .LASF7186
     /tmp/cciiZT4Y.s:92632  .debug_str:0000000000010609 .LASF7187
     /tmp/cciiZT4Y.s:98140  .debug_str:000000000002706d .LASF7188
     /tmp/cciiZT4Y.s:103192  .debug_str:000000000003b604 .LASF7189
     /tmp/cciiZT4Y.s:92634  .debug_str:0000000000010610 .LASF7190
     /tmp/cciiZT4Y.s:91884  .debug_str:000000000000dc0f .LASF7191
     /tmp/cciiZT4Y.s:104216  .debug_str:000000000003f8e8 .LASF7192
     /tmp/cciiZT4Y.s:96036  .debug_str:000000000001e6e1 .LASF7193
     /tmp/cciiZT4Y.s:105260  .debug_str:0000000000044249 .LASF7194
     /tmp/cciiZT4Y.s:89852  .debug_str:00000000000051c8 .LASF7195
     /tmp/cciiZT4Y.s:92638  .debug_str:0000000000010638 .LASF7196
     /tmp/cciiZT4Y.s:99178  .debug_str:000000000002b3e0 .LASF7197
     /tmp/cciiZT4Y.s:94202  .debug_str:0000000000016936 .LASF7198
     /tmp/cciiZT4Y.s:92640  .debug_str:000000000001063f .LASF7199
     /tmp/cciiZT4Y.s:88890  .debug_str:0000000000000f29 .LASF7200
     /tmp/cciiZT4Y.s:103086  .debug_str:000000000003ae27 .LASF7201
     /tmp/cciiZT4Y.s:92642  .debug_str:0000000000010646 .LASF7202
     /tmp/cciiZT4Y.s:95254  .debug_str:000000000001b04e .LASF7203
     /tmp/cciiZT4Y.s:101032  .debug_str:0000000000032c57 .LASF7204
     /tmp/cciiZT4Y.s:92644  .debug_str:000000000001064d .LASF7205
     /tmp/cciiZT4Y.s:100172  .debug_str:000000000002f31a .LASF7206
     /tmp/cciiZT4Y.s:100164  .debug_str:000000000002f282 .LASF7207
     /tmp/cciiZT4Y.s:92646  .debug_str:0000000000010654 .LASF7208
     /tmp/cciiZT4Y.s:107906  .debug_str:000000000004f45c .LASF7209
     /tmp/cciiZT4Y.s:95712  .debug_str:000000000001d071 .LASF7210
     /tmp/cciiZT4Y.s:92648  .debug_str:000000000001065b .LASF7211
     /tmp/cciiZT4Y.s:107178  .debug_str:000000000004c1a9 .LASF7212
     /tmp/cciiZT4Y.s:89036  .debug_str:0000000000001a12 .LASF7213
     /tmp/cciiZT4Y.s:94510  .debug_str:0000000000017e96 .LASF7214
     /tmp/cciiZT4Y.s:100194  .debug_str:000000000002f4ee .LASF7215
     /tmp/cciiZT4Y.s:90996  .debug_str:0000000000009ef0 .LASF7216
     /tmp/cciiZT4Y.s:94514  .debug_str:0000000000017ed1 .LASF7217
     /tmp/cciiZT4Y.s:93968  .debug_str:0000000000015a16 .LASF7218
     /tmp/cciiZT4Y.s:91000  .debug_str:0000000000009f12 .LASF7219
     /tmp/cciiZT4Y.s:92720  .debug_str:0000000000010ae2 .LASF7220
     /tmp/cciiZT4Y.s:107206  .debug_str:000000000004c3d8 .LASF7221
     /tmp/cciiZT4Y.s:102670  .debug_str:0000000000039509 .LASF7222
     /tmp/cciiZT4Y.s:92722  .debug_str:0000000000010ae9 .LASF7223
     /tmp/cciiZT4Y.s:92718  .debug_str:0000000000010ac1 .LASF7224
     /tmp/cciiZT4Y.s:102646  .debug_str:0000000000039359 .LASF7225
     /tmp/cciiZT4Y.s:92724  .debug_str:0000000000010af0 .LASF7226
     /tmp/cciiZT4Y.s:94924  .debug_str:000000000001990b .LASF7227
     /tmp/cciiZT4Y.s:102650  .debug_str:00000000000393a3 .LASF7228
     /tmp/cciiZT4Y.s:92726  .debug_str:0000000000010af7 .LASF7229
     /tmp/cciiZT4Y.s:88762  .debug_str:00000000000006f1 .LASF7230
     /tmp/cciiZT4Y.s:102968  .debug_str:000000000003a5c5 .LASF7231
     /tmp/cciiZT4Y.s:92728  .debug_str:0000000000010afe .LASF7232
     /tmp/cciiZT4Y.s:102096  .debug_str:0000000000037438 .LASF7233
     /tmp/cciiZT4Y.s:97968  .debug_str:00000000000264f3 .LASF7234
     /tmp/cciiZT4Y.s:92730  .debug_str:0000000000010b05 .LASF7235
     /tmp/cciiZT4Y.s:95898  .debug_str:000000000001dd0c .LASF7236
     /tmp/cciiZT4Y.s:97972  .debug_str:0000000000026542 .LASF7237
     /tmp/cciiZT4Y.s:92732  .debug_str:0000000000010b0c .LASF7238
     /tmp/cciiZT4Y.s:89712  .debug_str:0000000000004831 .LASF7239
     /tmp/cciiZT4Y.s:103956  .debug_str:000000000003e8e1 .LASF7240
     /tmp/cciiZT4Y.s:94534  .debug_str:0000000000017fe7 .LASF7241
     /tmp/cciiZT4Y.s:91828  .debug_str:000000000000d85e .LASF7242
     /tmp/cciiZT4Y.s:95508  .debug_str:000000000001c18c .LASF7243
     /tmp/cciiZT4Y.s:92800  .debug_str:0000000000010fd2 .LASF7244
     /tmp/cciiZT4Y.s:95912  .debug_str:000000000001ddfd .LASF7245
     /tmp/cciiZT4Y.s:95512  .debug_str:000000000001c1b7 .LASF7246
     /tmp/cciiZT4Y.s:92802  .debug_str:0000000000010fd9 .LASF7247
     /tmp/cciiZT4Y.s:89732  .debug_str:000000000000498c .LASF7248
     /tmp/cciiZT4Y.s:103142  .debug_str:000000000003b1e3 .LASF7249
     /tmp/cciiZT4Y.s:92804  .debug_str:0000000000010fe0 .LASF7250
     /tmp/cciiZT4Y.s:103146  .debug_str:000000000003b21e .LASF7251
     /tmp/cciiZT4Y.s:90800  .debug_str:00000000000091cc .LASF7252
     /tmp/cciiZT4Y.s:94684  .debug_str:000000000001898d .LASF7253
     /tmp/cciiZT4Y.s:96902  .debug_str:00000000000222ba .LASF7254
     /tmp/cciiZT4Y.s:90804  .debug_str:00000000000091f7 .LASF7255
     /tmp/cciiZT4Y.s:92808  .debug_str:0000000000010ffa .LASF7256
     /tmp/cciiZT4Y.s:90676  .debug_str:0000000000008949 .LASF7257
     /tmp/cciiZT4Y.s:94040  .debug_str:0000000000015ee1 .LASF7258
     /tmp/cciiZT4Y.s:92810  .debug_str:0000000000011001 .LASF7259
     /tmp/cciiZT4Y.s:103986  .debug_str:000000000003eabe .LASF7260
     /tmp/cciiZT4Y.s:96416  .debug_str:00000000000201fe .LASF7261
     /tmp/cciiZT4Y.s:92812  .debug_str:0000000000011008 .LASF7262
     /tmp/cciiZT4Y.s:97866  .debug_str:0000000000025e87 .LASF7263
     /tmp/cciiZT4Y.s:96418  .debug_str:000000000002020c .LASF7264
     /tmp/cciiZT4Y.s:92814  .debug_str:000000000001100f .LASF7265
     /tmp/cciiZT4Y.s:91630  .debug_str:000000000000cad9 .LASF7266
     /tmp/cciiZT4Y.s:100074  .debug_str:000000000002ecd8 .LASF7267
     /tmp/cciiZT4Y.s:94700  .debug_str:0000000000018a07 .LASF7268
     /tmp/cciiZT4Y.s:104988  .debug_str:0000000000043081 .LASF7269
     /tmp/cciiZT4Y.s:91732  .debug_str:000000000000d24a .LASF7270
     /tmp/cciiZT4Y.s:92818  .debug_str:0000000000011040 .LASF7271
     /tmp/cciiZT4Y.s:98884  .debug_str:000000000002a19c .LASF7272
     /tmp/cciiZT4Y.s:91736  .debug_str:000000000000d28d .LASF7273
     /tmp/cciiZT4Y.s:92896  .debug_str:000000000001159b .LASF7274
     /tmp/cciiZT4Y.s:91660  .debug_str:000000000000cd3c .LASF7275
     /tmp/cciiZT4Y.s:95184  .debug_str:000000000001abd6 .LASF7276
     /tmp/cciiZT4Y.s:92898  .debug_str:00000000000115a2 .LASF7277
     /tmp/cciiZT4Y.s:105008  .debug_str:000000000004321c .LASF7278
     /tmp/cciiZT4Y.s:106308  .debug_str:000000000004874e .LASF7279
     /tmp/cciiZT4Y.s:92900  .debug_str:00000000000115a9 .LASF7280
     /tmp/cciiZT4Y.s:98908  .debug_str:000000000002a330 .LASF7281
     /tmp/cciiZT4Y.s:91222  .debug_str:000000000000ae3a .LASF7282
     /tmp/cciiZT4Y.s:96794  .debug_str:0000000000021bfd .LASF7283
     /tmp/cciiZT4Y.s:106364  .debug_str:0000000000048af4 .LASF7284
     /tmp/cciiZT4Y.s:94262  .debug_str:0000000000016d64 .LASF7285
     /tmp/cciiZT4Y.s:92904  .debug_str:00000000000115da .LASF7286
     /tmp/cciiZT4Y.s:105968  .debug_str:0000000000047052 .LASF7287
     /tmp/cciiZT4Y.s:106114  .debug_str:0000000000047ac3 .LASF7288
     /tmp/cciiZT4Y.s:92906  .debug_str:00000000000115e1 .LASF7289
     /tmp/cciiZT4Y.s:99936  .debug_str:000000000002e348 .LASF7290
     /tmp/cciiZT4Y.s:106118  .debug_str:0000000000047aff .LASF7291
     /tmp/cciiZT4Y.s:92908  .debug_str:00000000000115e8 .LASF7292
     /tmp/cciiZT4Y.s:93684  .debug_str:00000000000148c2 .LASF7293
     /tmp/cciiZT4Y.s:104370  .debug_str:00000000000401f6 .LASF7294
     /tmp/cciiZT4Y.s:92910  .debug_str:00000000000115ef .LASF7295
     /tmp/cciiZT4Y.s:92840  .debug_str:000000000001118e .LASF7296
     /tmp/cciiZT4Y.s:99050  .debug_str:000000000002ac10 .LASF7297
     /tmp/cciiZT4Y.s:92912  .debug_str:00000000000115f6 .LASF7298
     /tmp/cciiZT4Y.s:100870  .debug_str:000000000003204f .LASF7299
     /tmp/cciiZT4Y.s:102538  .debug_str:0000000000038ea2 .LASF7300
     /tmp/cciiZT4Y.s:92914  .debug_str:00000000000115fd .LASF7301
     /tmp/cciiZT4Y.s:94654  .debug_str:00000000000187b2 .LASF7302
     /tmp/cciiZT4Y.s:102324  .debug_str:000000000003824c .LASF7303
     /tmp/cciiZT4Y.s:97486  .debug_str:0000000000024a2b .LASF7304
     /tmp/cciiZT4Y.s:102548  .debug_str:0000000000038f1a .LASF7305
     /tmp/cciiZT4Y.s:102328  .debug_str:0000000000038283 .LASF7306
     /tmp/cciiZT4Y.s:97488  .debug_str:0000000000024a32 .LASF7307
     /tmp/cciiZT4Y.s:96320  .debug_str:000000000001fa99 .LASF7308
     /tmp/cciiZT4Y.s:102584  .debug_str:00000000000390a6 .LASF7309
     /tmp/cciiZT4Y.s:97490  .debug_str:0000000000024a39 .LASF7310
     /tmp/cciiZT4Y.s:90142  .debug_str:0000000000006494 .LASF7311
     /tmp/cciiZT4Y.s:97636  .debug_str:00000000000252f9 .LASF7312
     /tmp/cciiZT4Y.s:97492  .debug_str:0000000000024a40 .LASF7313
     /tmp/cciiZT4Y.s:103496  .debug_str:000000000003c9ec .LASF7314
     /tmp/cciiZT4Y.s:97640  .debug_str:0000000000025318 .LASF7315
     /tmp/cciiZT4Y.s:97494  .debug_str:0000000000024a47 .LASF7316
     /tmp/cciiZT4Y.s:97270  .debug_str:0000000000023b99 .LASF7317
     /tmp/cciiZT4Y.s:94150  .debug_str:00000000000165d5 .LASF7318
     /tmp/cciiZT4Y.s:97496  .debug_str:0000000000024a4e .LASF7319
     /tmp/cciiZT4Y.s:107922  .debug_str:000000000004f587 .LASF7320
     /tmp/cciiZT4Y.s:95112  .debug_str:000000000001a64e .LASF7321
     /tmp/cciiZT4Y.s:97498  .debug_str:0000000000024a55 .LASF7322
     /tmp/cciiZT4Y.s:107314  .debug_str:000000000004cb9b .LASF7323
     /tmp/cciiZT4Y.s:102546  .debug_str:0000000000038f0a .LASF7324
     /tmp/cciiZT4Y.s:97500  .debug_str:0000000000024a5c .LASF7325
     /tmp/cciiZT4Y.s:98284  .debug_str:00000000000279c7 .LASF7326
     /tmp/cciiZT4Y.s:106220  .debug_str:00000000000481d2 .LASF7327
     /tmp/cciiZT4Y.s:97502  .debug_str:0000000000024a63 .LASF7328
     /tmp/cciiZT4Y.s:92022  .debug_str:000000000000e397 .LASF7329
     /tmp/cciiZT4Y.s:103622  .debug_str:000000000003d1c4 .LASF7330
     /tmp/cciiZT4Y.s:97504  .debug_str:0000000000024a6a .LASF7331
     /tmp/cciiZT4Y.s:105386  .debug_str:0000000000044af7 .LASF7332
     /tmp/cciiZT4Y.s:90564  .debug_str:0000000000008158 .LASF7333
     /tmp/cciiZT4Y.s:97564  .debug_str:0000000000024f4d .LASF7334
     /tmp/cciiZT4Y.s:98308  .debug_str:0000000000027b41 .LASF7335
     /tmp/cciiZT4Y.s:90566  .debug_str:0000000000008167 .LASF7336
     /tmp/cciiZT4Y.s:97566  .debug_str:0000000000024f54 .LASF7337
     /tmp/cciiZT4Y.s:92050  .debug_str:000000000000e57c .LASF7338
     /tmp/cciiZT4Y.s:90812  .debug_str:0000000000009262 .LASF7339
     /tmp/cciiZT4Y.s:97568  .debug_str:0000000000024f5b .LASF7340
     /tmp/cciiZT4Y.s:105408  .debug_str:0000000000044c51 .LASF7341
     /tmp/cciiZT4Y.s:105462  .debug_str:0000000000044f83 .LASF7342
     /tmp/cciiZT4Y.s:97570  .debug_str:0000000000024f62 .LASF7343
     /tmp/cciiZT4Y.s:99338  .debug_str:000000000002be64 .LASF7344
     /tmp/cciiZT4Y.s:105466  .debug_str:0000000000044f9c .LASF7345
     /tmp/cciiZT4Y.s:97572  .debug_str:0000000000024f69 .LASF7346
     /tmp/cciiZT4Y.s:93114  .debug_str:00000000000123f0 .LASF7347
     /tmp/cciiZT4Y.s:94856  .debug_str:0000000000019469 .LASF7348
     /tmp/cciiZT4Y.s:97574  .debug_str:0000000000024f70 .LASF7349
     /tmp/cciiZT4Y.s:106362  .debug_str:0000000000048ad3 .LASF7350
     /tmp/cciiZT4Y.s:91060  .debug_str:000000000000a35f .LASF7351
     /tmp/cciiZT4Y.s:97576  .debug_str:0000000000024f77 .LASF7352
     /tmp/cciiZT4Y.s:100318  .debug_str:000000000002fcfc .LASF7353
     /tmp/cciiZT4Y.s:91064  .debug_str:000000000000a373 .LASF7354
     /tmp/cciiZT4Y.s:97578  .debug_str:0000000000024f7e .LASF7355
     /tmp/cciiZT4Y.s:94070  .debug_str:000000000001606a .LASF7356
     /tmp/cciiZT4Y.s:103950  .debug_str:000000000003e892 .LASF7357
     /tmp/cciiZT4Y.s:97580  .debug_str:0000000000024f85 .LASF7358
     /tmp/cciiZT4Y.s:107336  .debug_str:000000000004cd21 .LASF7359
     /tmp/cciiZT4Y.s:102158  .debug_str:00000000000377f6 .LASF7360
     /tmp/cciiZT4Y.s:97582  .debug_str:0000000000024f8c .LASF7361
     /tmp/cciiZT4Y.s:101284  .debug_str:0000000000033ccf .LASF7362
     /tmp/cciiZT4Y.s:97560  .debug_str:0000000000024f0d .LASF7363
     /tmp/cciiZT4Y.s:97660  .debug_str:000000000002549a .LASF7364
     /tmp/cciiZT4Y.s:91102  .debug_str:000000000000a5e5 .LASF7365
     /tmp/cciiZT4Y.s:105962  .debug_str:0000000000047035 .LASF7366
     /tmp/cciiZT4Y.s:97662  .debug_str:00000000000254a1 .LASF7367
     /tmp/cciiZT4Y.s:97482  .debug_str:00000000000249fd .LASF7368
     /tmp/cciiZT4Y.s:105964  .debug_str:0000000000047040 .LASF7369
     /tmp/cciiZT4Y.s:104360  .debug_str:0000000000040187 .LASF7370
     /tmp/cciiZT4Y.s:101310  .debug_str:0000000000033e7b .LASF7371
     /tmp/cciiZT4Y.s:106288  .debug_str:000000000004863d .LASF7372
     /tmp/cciiZT4Y.s:97666  .debug_str:00000000000254dd .LASF7373
     /tmp/cciiZT4Y.s:95086  .debug_str:000000000001a42c .LASF7374
     /tmp/cciiZT4Y.s:90030  .debug_str:0000000000005d30 .LASF7375
     /tmp/cciiZT4Y.s:97668  .debug_str:00000000000254e4 .LASF7376
     /tmp/cciiZT4Y.s:88900  .debug_str:0000000000000fda .LASF7377
     /tmp/cciiZT4Y.s:100040  .debug_str:000000000002ea60 .LASF7378
     /tmp/cciiZT4Y.s:97670  .debug_str:00000000000254eb .LASF7379
     /tmp/cciiZT4Y.s:102256  .debug_str:0000000000037db2 .LASF7380
     /tmp/cciiZT4Y.s:90624  .debug_str:000000000000859d .LASF7381
     /tmp/cciiZT4Y.s:97672  .debug_str:00000000000254f2 .LASF7382
     /tmp/cciiZT4Y.s:96026  .debug_str:000000000001e659 .LASF7383
     /tmp/cciiZT4Y.s:101206  .debug_str:00000000000337c2 .LASF7384
     /tmp/cciiZT4Y.s:97674  .debug_str:00000000000254f9 .LASF7385
     /tmp/cciiZT4Y.s:89864  .debug_str:000000000000524a .LASF7386
     /tmp/cciiZT4Y.s:99926  .debug_str:000000000002e2c4 .LASF7387
     /tmp/cciiZT4Y.s:97676  .debug_str:0000000000025500 .LASF7388
     /tmp/cciiZT4Y.s:103244  .debug_str:000000000003b8d3 .LASF7389
     /tmp/cciiZT4Y.s:99974  .debug_str:000000000002e5a6 .LASF7390
     /tmp/cciiZT4Y.s:97678  .debug_str:0000000000025507 .LASF7391
     /tmp/cciiZT4Y.s:97030  .debug_str:0000000000022b21 .LASF7392
     /tmp/cciiZT4Y.s:106698  .debug_str:000000000004a0de .LASF7393
     /tmp/cciiZT4Y.s:97750  .debug_str:0000000000025958 .LASF7394
     /tmp/cciiZT4Y.s:102916  .debug_str:000000000003a2f6 .LASF7395
     /tmp/cciiZT4Y.s:94258  .debug_str:0000000000016d41 .LASF7396
     /tmp/cciiZT4Y.s:97752  .debug_str:000000000002595f .LASF7397
     /tmp/cciiZT4Y.s:103266  .debug_str:000000000003ba55 .LASF7398
     /tmp/cciiZT4Y.s:90702  .debug_str:0000000000008b00 .LASF7399
     /tmp/cciiZT4Y.s:97754  .debug_str:0000000000025966 .LASF7400
     /tmp/cciiZT4Y.s:97040  .debug_str:0000000000022bfd .LASF7401
     /tmp/cciiZT4Y.s:102196  .debug_str:0000000000037ae7 .LASF7402
     /tmp/cciiZT4Y.s:97756  .debug_str:000000000002596d .LASF7403
     /tmp/cciiZT4Y.s:90796  .debug_str:000000000000918c .LASF7404
     /tmp/cciiZT4Y.s:106900  .debug_str:000000000004af2e .LASF7405
     /tmp/cciiZT4Y.s:97758  .debug_str:0000000000025974 .LASF7406
     /tmp/cciiZT4Y.s:104144  .debug_str:000000000003f407 .LASF7407
     /tmp/cciiZT4Y.s:99562  .debug_str:000000000002cbb7 .LASF7408
     /tmp/cciiZT4Y.s:97760  .debug_str:000000000002597b .LASF7409
     /tmp/cciiZT4Y.s:98014  .debug_str:00000000000267cd .LASF7410
     /tmp/cciiZT4Y.s:99564  .debug_str:000000000002cbc3 .LASF7411
     /tmp/cciiZT4Y.s:97762  .debug_str:0000000000025982 .LASF7412
     /tmp/cciiZT4Y.s:91774  .debug_str:000000000000d4f0 .LASF7413
     /tmp/cciiZT4Y.s:99566  .debug_str:000000000002cbcf .LASF7414
     /tmp/cciiZT4Y.s:97764  .debug_str:0000000000025989 .LASF7415
     /tmp/cciiZT4Y.s:105146  .debug_str:0000000000043b53 .LASF7416
     /tmp/cciiZT4Y.s:94298  .debug_str:0000000000016fe5 .LASF7417
     /tmp/cciiZT4Y.s:97766  .debug_str:0000000000025990 .LASF7418
     /tmp/cciiZT4Y.s:99056  .debug_str:000000000002ac59 .LASF7419
     /tmp/cciiZT4Y.s:90378  .debug_str:0000000000007588 .LASF7420
     /tmp/cciiZT4Y.s:97768  .debug_str:0000000000025997 .LASF7421
     /tmp/cciiZT4Y.s:92790  .debug_str:0000000000010f0d .LASF7422
     /tmp/cciiZT4Y.s:94304  .debug_str:000000000001703c .LASF7423
     /tmp/cciiZT4Y.s:97838  .debug_str:0000000000025e0c .LASF7424
     /tmp/cciiZT4Y.s:105174  .debug_str:0000000000043d31 .LASF7425
     /tmp/cciiZT4Y.s:98198  .debug_str:0000000000027378 .LASF7426
     /tmp/cciiZT4Y.s:97840  .debug_str:0000000000025e13 .LASF7427
     /tmp/cciiZT4Y.s:99084  .debug_str:000000000002ae05 .LASF7428
     /tmp/cciiZT4Y.s:101536  .debug_str:0000000000034de0 .LASF7429
     /tmp/cciiZT4Y.s:97842  .debug_str:0000000000025e1a .LASF7430
     /tmp/cciiZT4Y.s:92822  .debug_str:0000000000011057 .LASF7431
     /tmp/cciiZT4Y.s:91940  .debug_str:000000000000deb9 .LASF7432
     /tmp/cciiZT4Y.s:97844  .debug_str:0000000000025e21 .LASF7433
     /tmp/cciiZT4Y.s:106110  .debug_str:0000000000047a8c .LASF7434
     /tmp/cciiZT4Y.s:91942  .debug_str:000000000000dec5 .LASF7435
     /tmp/cciiZT4Y.s:97846  .debug_str:0000000000025e28 .LASF7436
     /tmp/cciiZT4Y.s:91210  .debug_str:000000000000ad5d .LASF7437
     /tmp/cciiZT4Y.s:91944  .debug_str:000000000000ded1 .LASF7438
     /tmp/cciiZT4Y.s:97848  .debug_str:0000000000025e2f .LASF7439
     /tmp/cciiZT4Y.s:101520  .debug_str:0000000000034cfd .LASF7440
     /tmp/cciiZT4Y.s:107834  .debug_str:000000000004efd8 .LASF7441
     /tmp/cciiZT4Y.s:97850  .debug_str:0000000000025e36 .LASF7442
     /tmp/cciiZT4Y.s:107074  .debug_str:000000000004bb05 .LASF7443
     /tmp/cciiZT4Y.s:107836  .debug_str:000000000004efe2 .LASF7444
     /tmp/cciiZT4Y.s:97852  .debug_str:0000000000025e3d .LASF7445
     /tmp/cciiZT4Y.s:90790  .debug_str:0000000000009107 .LASF7446
     /tmp/cciiZT4Y.s:103018  .debug_str:000000000003a970 .LASF7447
     /tmp/cciiZT4Y.s:97854  .debug_str:0000000000025e44 .LASF7448
     /tmp/cciiZT4Y.s:94794  .debug_str:0000000000018fce .LASF7449
     /tmp/cciiZT4Y.s:107840  .debug_str:000000000004f01c .LASF7450
     /tmp/cciiZT4Y.s:97856  .debug_str:0000000000025e4b .LASF7451
     /tmp/cciiZT4Y.s:108056  .debug_str:000000000004febc .LASF7452
     /tmp/cciiZT4Y.s:93226  .debug_str:0000000000012af4 .LASF7453
     /tmp/cciiZT4Y.s:97930  .debug_str:00000000000262e1 .LASF7454
     /tmp/cciiZT4Y.s:101944  .debug_str:0000000000036a3f .LASF7455
     /tmp/cciiZT4Y.s:101298  .debug_str:0000000000033dea .LASF7456
     /tmp/cciiZT4Y.s:92196  .debug_str:000000000000ed7c .LASF7457
     /tmp/cciiZT4Y.s:100378  .debug_str:00000000000300d7 .LASF7458
     /tmp/cciiZT4Y.s:101300  .debug_str:0000000000033df6 .LASF7459
     /tmp/cciiZT4Y.s:92200  .debug_str:000000000000ed98 .LASF7460
     /tmp/cciiZT4Y.s:94142  .debug_str:000000000001653c .LASF7461
     /tmp/cciiZT4Y.s:106712  .debug_str:000000000004a16a .LASF7462
     /tmp/cciiZT4Y.s:93586  .debug_str:00000000000142a2 .LASF7463
     /tmp/cciiZT4Y.s:91692  .debug_str:000000000000cf5d .LASF7464
     /tmp/cciiZT4Y.s:104238  .debug_str:000000000003fa2f .LASF7465
     /tmp/cciiZT4Y.s:94318  .debug_str:00000000000170c9 .LASF7466
     /tmp/cciiZT4Y.s:97218  .debug_str:0000000000023836 .LASF7467
     /tmp/cciiZT4Y.s:103416  .debug_str:000000000003c4f0 .LASF7468
     /tmp/cciiZT4Y.s:102872  .debug_str:0000000000039fa3 .LASF7469
     /tmp/cciiZT4Y.s:100508  .debug_str:00000000000309bb .LASF7470
     /tmp/cciiZT4Y.s:92182  .debug_str:000000000000ecb4 .LASF7471
     /tmp/cciiZT4Y.s:105172  .debug_str:0000000000043d0b .LASF7472
     /tmp/cciiZT4Y.s:104372  .debug_str:0000000000040208 .LASF7473
     /tmp/cciiZT4Y.s:92134  .debug_str:000000000000e9c9 .LASF7474
     /tmp/cciiZT4Y.s:96118  .debug_str:000000000001ec6c .LASF7475
     /tmp/cciiZT4Y.s:104254  .debug_str:000000000003fb2e .LASF7476
     /tmp/cciiZT4Y.s:90478  .debug_str:0000000000007bc2 .LASF7477
     /tmp/cciiZT4Y.s:93184  .debug_str:00000000000127cb .LASF7478
     /tmp/cciiZT4Y.s:104368  .debug_str:00000000000401ea .LASF7479
     /tmp/cciiZT4Y.s:101646  .debug_str:000000000003552e .LASF7480
     /tmp/cciiZT4Y.s:103210  .debug_str:000000000003b6e7 .LASF7481
     /tmp/cciiZT4Y.s:105406  .debug_str:0000000000044c43 .LASF7482
     /tmp/cciiZT4Y.s:98120  .debug_str:0000000000026f5f .LASF7483
     /tmp/cciiZT4Y.s:95686  .debug_str:000000000001cea8 .LASF7484
     /tmp/cciiZT4Y.s:99134  .debug_str:000000000002b1cb .LASF7485
     /tmp/cciiZT4Y.s:100974  .debug_str:00000000000327f0 .LASF7486
     /tmp/cciiZT4Y.s:103110  .debug_str:000000000003aff0 .LASF7487
     /tmp/cciiZT4Y.s:92120  .debug_str:000000000000e8f2 .LASF7488
     /tmp/cciiZT4Y.s:106230  .debug_str:000000000004826e .LASF7489
     /tmp/cciiZT4Y.s:105560  .debug_str:000000000004568d .LASF7490
     /tmp/cciiZT4Y.s:96480  .debug_str:00000000000206a1 .LASF7491
     /tmp/cciiZT4Y.s:95012  .debug_str:0000000000019f2c .LASF7492
     /tmp/cciiZT4Y.s:89766  .debug_str:0000000000004c1f .LASF7493
     /tmp/cciiZT4Y.s:91666  .debug_str:000000000000cd8e .LASF7494
     /tmp/cciiZT4Y.s:96670  .debug_str:000000000002131b .LASF7495
     /tmp/cciiZT4Y.s:105074  .debug_str:00000000000436ad .LASF7496
     /tmp/cciiZT4Y.s:89582  .debug_str:0000000000003ead .LASF7497
     /tmp/cciiZT4Y.s:104556  .debug_str:000000000004107f .LASF7498
     /tmp/cciiZT4Y.s:95264  .debug_str:000000000001b121 .LASF7499
     /tmp/cciiZT4Y.s:104114  .debug_str:000000000003f23c .LASF7500
     /tmp/cciiZT4Y.s:89236  .debug_str:00000000000027ee .LASF7501
     /tmp/cciiZT4Y.s:103734  .debug_str:000000000003d96f .LASF7502
     /tmp/cciiZT4Y.s:92848  .debug_str:000000000001123c .LASF7503
     /tmp/cciiZT4Y.s:101538  .debug_str:0000000000034de8 .LASF7504
     /tmp/cciiZT4Y.s:106448  .debug_str:00000000000490c6 .LASF7505
     /tmp/cciiZT4Y.s:102644  .debug_str:0000000000039336 .LASF7506
     /tmp/cciiZT4Y.s:89890  .debug_str:00000000000053db .LASF7507
     /tmp/cciiZT4Y.s:98340  .debug_str:0000000000027dbb .LASF7508
     /tmp/cciiZT4Y.s:88704  .debug_str:00000000000002cc .LASF7509
     /tmp/cciiZT4Y.s:99136  .debug_str:000000000002b1f3 .LASF7510
     /tmp/cciiZT4Y.s:98844  .debug_str:0000000000029ed9 .LASF7511
     /tmp/cciiZT4Y.s:93116  .debug_str:0000000000012411 .LASF7512
     /tmp/cciiZT4Y.s:98408  .debug_str:000000000002820b .LASF7513
     /tmp/cciiZT4Y.s:90058  .debug_str:0000000000005f40 .LASF7514
     /tmp/cciiZT4Y.s:104804  .debug_str:00000000000424de .LASF7515
     /tmp/cciiZT4Y.s:104760  .debug_str:000000000004213a .LASF7516
     /tmp/cciiZT4Y.s:91384  .debug_str:000000000000b9aa .LASF7517
     /tmp/cciiZT4Y.s:106532  .debug_str:00000000000495b5 .LASF7518
     /tmp/cciiZT4Y.s:107218  .debug_str:000000000004c486 .LASF7519
     /tmp/cciiZT4Y.s:104682  .debug_str:0000000000041916 .LASF7520
     /tmp/cciiZT4Y.s:89982  .debug_str:0000000000005a4a .LASF7521
     /tmp/cciiZT4Y.s:93908  .debug_str:000000000001563b .LASF7522
     /tmp/cciiZT4Y.s:94336  .debug_str:0000000000017251 .LASF7523
     /tmp/cciiZT4Y.s:100596  .debug_str:0000000000030f54 .LASF7524
     /tmp/cciiZT4Y.s:101560  .debug_str:0000000000034f0b .LASF7525
     /tmp/cciiZT4Y.s:99372  .debug_str:000000000002c0a6 .LASF7526
     /tmp/cciiZT4Y.s:99324  .debug_str:000000000002bd2d .LASF7527
     /tmp/cciiZT4Y.s:97032  .debug_str:0000000000022b42 .LASF7528
     /tmp/cciiZT4Y.s:105616  .debug_str:00000000000459ed .LASF7529
     /tmp/cciiZT4Y.s:102738  .debug_str:000000000003981a .LASF7530
     /tmp/cciiZT4Y.s:97018  .debug_str:0000000000022a39 .LASF7531
     /tmp/cciiZT4Y.s:94738  .debug_str:0000000000018c4e .LASF7532
     /tmp/cciiZT4Y.s:103378  .debug_str:000000000003c2c1 .LASF7533
     /tmp/cciiZT4Y.s:92242  .debug_str:000000000000eeb3 .LASF7534
     /tmp/cciiZT4Y.s:100960  .debug_str:000000000003271c .LASF7535
     /tmp/cciiZT4Y.s:102740  .debug_str:0000000000039821 .LASF7536
     /tmp/cciiZT4Y.s:90768  .debug_str:0000000000008f81 .LASF7537
     /tmp/cciiZT4Y.s:103540  .debug_str:000000000003cced .LASF7538
     /tmp/cciiZT4Y.s:100856  .debug_str:0000000000031f78 .LASF7539
     /tmp/cciiZT4Y.s:101968  .debug_str:0000000000036bcd .LASF7540
     /tmp/cciiZT4Y.s:99948  .debug_str:000000000002e3d5 .LASF7541
     /tmp/cciiZT4Y.s:105746  .debug_str:000000000004628e .LASF7542
     /tmp/cciiZT4Y.s:100452  .debug_str:0000000000030585 .LASF7543
     /tmp/cciiZT4Y.s:89518  .debug_str:0000000000003a39 .LASF7544
     /tmp/cciiZT4Y.s:105748  .debug_str:000000000004629c .LASF7545
     /tmp/cciiZT4Y.s:94216  .debug_str:0000000000016a1c .LASF7546
     /tmp/cciiZT4Y.s:98226  .debug_str:000000000002757d .LASF7547
     /tmp/cciiZT4Y.s:105750  .debug_str:00000000000462aa .LASF7548
     /tmp/cciiZT4Y.s:107498  .debug_str:000000000004d801 .LASF7549
     /tmp/cciiZT4Y.s:97260  .debug_str:0000000000023b0f .LASF7550
     /tmp/cciiZT4Y.s:103316  .debug_str:000000000003bdf9 .LASF7551
     /tmp/cciiZT4Y.s:101428  .debug_str:00000000000345c0 .LASF7552
     /tmp/cciiZT4Y.s:90946  .debug_str:0000000000009c10 .LASF7553
     /tmp/cciiZT4Y.s:105754  .debug_str:00000000000462fa .LASF7554
     /tmp/cciiZT4Y.s:95204  .debug_str:000000000001ad27 .LASF7555
     /tmp/cciiZT4Y.s:102282  .debug_str:000000000003801e .LASF7556
     /tmp/cciiZT4Y.s:105756  .debug_str:0000000000046308 .LASF7557
     /tmp/cciiZT4Y.s:103046  .debug_str:000000000003ab52 .LASF7558
     /tmp/cciiZT4Y.s:104904  .debug_str:0000000000042aef .LASF7559
     /tmp/cciiZT4Y.s:100126  .debug_str:000000000002efce .LASF7560
     /tmp/cciiZT4Y.s:100128  .debug_str:000000000002efe0 .LASF7561
     /tmp/cciiZT4Y.s:100132  .debug_str:000000000002f01e .LASF7562
     /tmp/cciiZT4Y.s:103252  .debug_str:000000000003b950 .LASF7563
     /tmp/cciiZT4Y.s:106020  .debug_str:000000000004744d .LASF7564
     /tmp/cciiZT4Y.s:100134  .debug_str:000000000002f030 .LASF7565
     /tmp/cciiZT4Y.s:104914  .debug_str:0000000000042b7f .LASF7566
     /tmp/cciiZT4Y.s:104916  .debug_str:0000000000042b91 .LASF7567
     /tmp/cciiZT4Y.s:104918  .debug_str:0000000000042ba3 .LASF7568
     /tmp/cciiZT4Y.s:103254  .debug_str:000000000003b95f .LASF7569
     /tmp/cciiZT4Y.s:99982  .debug_str:000000000002e617 .LASF7570
     /tmp/cciiZT4Y.s:102222  .debug_str:0000000000037b6e .LASF7571
     /tmp/cciiZT4Y.s:106166  .debug_str:0000000000047e73 .LASF7572
     /tmp/cciiZT4Y.s:98028  .debug_str:000000000002690c .LASF7573
     /tmp/cciiZT4Y.s:101958  .debug_str:0000000000036b24 .LASF7574
     /tmp/cciiZT4Y.s:103290  .debug_str:000000000003bc10 .LASF7575
     /tmp/cciiZT4Y.s:105710  .debug_str:0000000000045ff9 .LASF7576
     /tmp/cciiZT4Y.s:104220  .debug_str:000000000003f927 .LASF7577
     /tmp/cciiZT4Y.s:107882  .debug_str:000000000004f2c4 .LASF7578
     /tmp/cciiZT4Y.s:94136  .debug_str:00000000000164c3 .LASF7579
     /tmp/cciiZT4Y.s:105716  .debug_str:0000000000046053 .LASF7580
     /tmp/cciiZT4Y.s:88990  .debug_str:00000000000015c1 .LASF7581
     /tmp/cciiZT4Y.s:106760  .debug_str:000000000004a4b7 .LASF7582
     /tmp/cciiZT4Y.s:103786  .debug_str:000000000003dd93 .LASF7583
     /tmp/cciiZT4Y.s:88728  .debug_str:0000000000000469 .LASF7584
     /tmp/cciiZT4Y.s:93574  .debug_str:00000000000141d9 .LASF7585
     /tmp/cciiZT4Y.s:90354  .debug_str:000000000000743c .LASF7586
     /tmp/cciiZT4Y.s:90192  .debug_str:00000000000067e6 .LASF7587
     /tmp/cciiZT4Y.s:99606  .debug_str:000000000002ce74 .LASF7588
     /tmp/cciiZT4Y.s:99608  .debug_str:000000000002ce8c .LASF7589
     /tmp/cciiZT4Y.s:99610  .debug_str:000000000002cea4 .LASF7590
     /tmp/cciiZT4Y.s:99612  .debug_str:000000000002cebc .LASF7591
     /tmp/cciiZT4Y.s:105266  .debug_str:00000000000442e6 .LASF7592
     /tmp/cciiZT4Y.s:90900  .debug_str:0000000000009842 .LASF7593
     /tmp/cciiZT4Y.s:99614  .debug_str:000000000002ced4 .LASF7594
     /tmp/cciiZT4Y.s:92486  .debug_str:000000000000fe0b .LASF7595
     /tmp/cciiZT4Y.s:92488  .debug_str:000000000000fe29 .LASF7596
     /tmp/cciiZT4Y.s:92490  .debug_str:000000000000fe47 .LASF7597
     /tmp/cciiZT4Y.s:92492  .debug_str:000000000000fe65 .LASF7598
     /tmp/cciiZT4Y.s:92494  .debug_str:000000000000fe83 .LASF7599
     /tmp/cciiZT4Y.s:96330  .debug_str:000000000001fb52 .LASF7600
     /tmp/cciiZT4Y.s:92168  .debug_str:000000000000ebde .LASF7601
     /tmp/cciiZT4Y.s:96334  .debug_str:000000000001fb7f .LASF7602
     /tmp/cciiZT4Y.s:96336  .debug_str:000000000001fb9c .LASF7603
     /tmp/cciiZT4Y.s:96338  .debug_str:000000000001fbb9 .LASF7604
     /tmp/cciiZT4Y.s:107946  .debug_str:000000000004f777 .LASF7605
     /tmp/cciiZT4Y.s:107948  .debug_str:000000000004f791 .LASF7606
     /tmp/cciiZT4Y.s:107950  .debug_str:000000000004f7ab .LASF7607
     /tmp/cciiZT4Y.s:107952  .debug_str:000000000004f7c5 .LASF7608
     /tmp/cciiZT4Y.s:107954  .debug_str:000000000004f7df .LASF7609
     /tmp/cciiZT4Y.s:102392  .debug_str:00000000000385c6 .LASF7610
     /tmp/cciiZT4Y.s:104628  .debug_str:00000000000415e5 .LASF7611
     /tmp/cciiZT4Y.s:105268  .debug_str:00000000000442fe .LASF7612
     /tmp/cciiZT4Y.s:104258  .debug_str:000000000003fb59 .LASF7613
     /tmp/cciiZT4Y.s:101748  .debug_str:0000000000035cd9 .LASF7614
     /tmp/cciiZT4Y.s:90426  .debug_str:00000000000078e5 .LASF7615
     /tmp/cciiZT4Y.s:90428  .debug_str:0000000000007902 .LASF7616
     /tmp/cciiZT4Y.s:101758  .debug_str:0000000000035dcc .LASF7617
     /tmp/cciiZT4Y.s:89294  .debug_str:0000000000002bc9 .LASF7618
     /tmp/cciiZT4Y.s:99476  .debug_str:000000000002c635 .LASF7619
     /tmp/cciiZT4Y.s:90432  .debug_str:000000000000795f .LASF7620
     /tmp/cciiZT4Y.s:99828  .debug_str:000000000002dc25 .LASF7621
     /tmp/cciiZT4Y.s:99830  .debug_str:000000000002dc48 .LASF7622
     /tmp/cciiZT4Y.s:99832  .debug_str:000000000002dc6b .LASF7623
     /tmp/cciiZT4Y.s:99834  .debug_str:000000000002dc8e .LASF7624
     /tmp/cciiZT4Y.s:99836  .debug_str:000000000002dcb1 .LASF7625
     /tmp/cciiZT4Y.s:96602  .debug_str:0000000000020e7c .LASF7626
     /tmp/cciiZT4Y.s:96604  .debug_str:0000000000020e9e .LASF7627
     /tmp/cciiZT4Y.s:97716  .debug_str:0000000000025732 .LASF7628
     /tmp/cciiZT4Y.s:96608  .debug_str:0000000000020ed1 .LASF7629
     /tmp/cciiZT4Y.s:96610  .debug_str:0000000000020ef3 .LASF7630
     /tmp/cciiZT4Y.s:99394  .debug_str:000000000002c244 .LASF7631
     /tmp/cciiZT4Y.s:99396  .debug_str:000000000002c263 .LASF7632
     /tmp/cciiZT4Y.s:99398  .debug_str:000000000002c282 .LASF7633
     /tmp/cciiZT4Y.s:102622  .debug_str:00000000000392db .LASF7634
     /tmp/cciiZT4Y.s:99402  .debug_str:000000000002c2af .LASF7635
     /tmp/cciiZT4Y.s:99526  .debug_str:000000000002c930 .LASF7636
     /tmp/cciiZT4Y.s:104796  .debug_str:000000000004242e .LASF7637
     /tmp/cciiZT4Y.s:89296  .debug_str:0000000000002be6 .LASF7638
     /tmp/cciiZT4Y.s:96584  .debug_str:0000000000020d8d .LASF7639
     /tmp/cciiZT4Y.s:101334  .debug_str:000000000003401c .LASF7640
     /tmp/cciiZT4Y.s:101336  .debug_str:0000000000034034 .LASF7641
     /tmp/cciiZT4Y.s:101338  .debug_str:000000000003404c .LASF7642
     /tmp/cciiZT4Y.s:101340  .debug_str:0000000000034064 .LASF7643
     /tmp/cciiZT4Y.s:95798  .debug_str:000000000001d58e .LASF7644
     /tmp/cciiZT4Y.s:95312  .debug_str:000000000001b3f9 .LASF7645
     /tmp/cciiZT4Y.s:101342  .debug_str:000000000003407c .LASF7646
     /tmp/cciiZT4Y.s:94246  .debug_str:0000000000016c80 .LASF7647
     /tmp/cciiZT4Y.s:94248  .debug_str:0000000000016c9e .LASF7648
     /tmp/cciiZT4Y.s:104884  .debug_str:0000000000042a14 .LASF7649
     /tmp/cciiZT4Y.s:94252  .debug_str:0000000000016ce1 .LASF7650
     /tmp/cciiZT4Y.s:94254  .debug_str:0000000000016cff .LASF7651
     /tmp/cciiZT4Y.s:98060  .debug_str:0000000000026b3b .LASF7652
     /tmp/cciiZT4Y.s:98062  .debug_str:0000000000026b58 .LASF7653
     /tmp/cciiZT4Y.s:98064  .debug_str:0000000000026b75 .LASF7654
     /tmp/cciiZT4Y.s:98066  .debug_str:0000000000026b92 .LASF7655
     /tmp/cciiZT4Y.s:98068  .debug_str:0000000000026baf .LASF7656
     /tmp/cciiZT4Y.s:90244  .debug_str:0000000000006bd7 .LASF7657
     /tmp/cciiZT4Y.s:90246  .debug_str:0000000000006bf1 .LASF7658
     /tmp/cciiZT4Y.s:90248  .debug_str:0000000000006c0b .LASF7659
     /tmp/cciiZT4Y.s:90250  .debug_str:0000000000006c25 .LASF7660
     /tmp/cciiZT4Y.s:107486  .debug_str:000000000004d726 .LASF7661
     /tmp/cciiZT4Y.s:93652  .debug_str:00000000000146cd .LASF7662
     /tmp/cciiZT4Y.s:101566  .debug_str:0000000000034f79 .LASF7663
     /tmp/cciiZT4Y.s:95802  .debug_str:000000000001d5c2 .LASF7664
     /tmp/cciiZT4Y.s:89126  .debug_str:0000000000002085 .LASF7665
     /tmp/cciiZT4Y.s:92936  .debug_str:000000000001175f .LASF7666
     /tmp/cciiZT4Y.s:92938  .debug_str:0000000000011776 .LASF7667
     /tmp/cciiZT4Y.s:92940  .debug_str:000000000001178d .LASF7668
     /tmp/cciiZT4Y.s:107550  .debug_str:000000000004dc96 .LASF7669
     /tmp/cciiZT4Y.s:93736  .debug_str:0000000000014bcf .LASF7670
     /tmp/cciiZT4Y.s:89706  .debug_str:00000000000047ce .LASF7671
     /tmp/cciiZT4Y.s:92944  .debug_str:00000000000117b5 .LASF7672
     /tmp/cciiZT4Y.s:104206  .debug_str:000000000003f857 .LASF7673
     /tmp/cciiZT4Y.s:104208  .debug_str:000000000003f874 .LASF7674
     /tmp/cciiZT4Y.s:104210  .debug_str:000000000003f891 .LASF7675
     /tmp/cciiZT4Y.s:104212  .debug_str:000000000003f8ae .LASF7676
     /tmp/cciiZT4Y.s:104214  .debug_str:000000000003f8cb .LASF7677
     /tmp/cciiZT4Y.s:93772  .debug_str:0000000000014d8b .LASF7678
     /tmp/cciiZT4Y.s:93774  .debug_str:0000000000014da7 .LASF7679
     /tmp/cciiZT4Y.s:89230  .debug_str:000000000000277c .LASF7680
     /tmp/cciiZT4Y.s:93778  .debug_str:0000000000014df3 .LASF7681
     /tmp/cciiZT4Y.s:93780  .debug_str:0000000000014e0f .LASF7682
     /tmp/cciiZT4Y.s:99816  .debug_str:000000000002db6e .LASF7683
     /tmp/cciiZT4Y.s:99818  .debug_str:000000000002db87 .LASF7684
     /tmp/cciiZT4Y.s:99820  .debug_str:000000000002dba0 .LASF7685
     /tmp/cciiZT4Y.s:99822  .debug_str:000000000002dbb9 .LASF7686
     /tmp/cciiZT4Y.s:99824  .debug_str:000000000002dbd2 .LASF7687
     /tmp/cciiZT4Y.s:101124  .debug_str:00000000000331cc .LASF7688
     /tmp/cciiZT4Y.s:103094  .debug_str:000000000003ae99 .LASF7689
     /tmp/cciiZT4Y.s:93738  .debug_str:0000000000014be6 .LASF7690
     /tmp/cciiZT4Y.s:94860  .debug_str:00000000000194a8 .LASF7691
     /tmp/cciiZT4Y.s:93808  .debug_str:0000000000014fad .LASF7692
     /tmp/cciiZT4Y.s:93810  .debug_str:0000000000014fd0 .LASF7693
     /tmp/cciiZT4Y.s:93812  .debug_str:0000000000014ff3 .LASF7694
     /tmp/cciiZT4Y.s:93814  .debug_str:0000000000015016 .LASF7695
     /tmp/cciiZT4Y.s:93816  .debug_str:0000000000015039 .LASF7696
     /tmp/cciiZT4Y.s:107810  .debug_str:000000000004ee73 .LASF7697
     /tmp/cciiZT4Y.s:104942  .debug_str:0000000000042d53 .LASF7698
     /tmp/cciiZT4Y.s:106452  .debug_str:00000000000490d6 .LASF7699
     /tmp/cciiZT4Y.s:104928  .debug_str:0000000000042c79 .LASF7700
     /tmp/cciiZT4Y.s:104930  .debug_str:0000000000042c9d .LASF7701
     /tmp/cciiZT4Y.s:105618  .debug_str:00000000000459fa .LASF7702
     /tmp/cciiZT4Y.s:104934  .debug_str:0000000000042ccd .LASF7703
     /tmp/cciiZT4Y.s:104936  .debug_str:0000000000042cf1 .LASF7704
     /tmp/cciiZT4Y.s:100294  .debug_str:000000000002fb84 .LASF7705
     /tmp/cciiZT4Y.s:107722  .debug_str:000000000004e884 .LASF7706
     /tmp/cciiZT4Y.s:96488  .debug_str:000000000002076a .LASF7707
     /tmp/cciiZT4Y.s:91804  .debug_str:000000000000d6bb .LASF7708
     /tmp/cciiZT4Y.s:99712  .debug_str:000000000002d4ad .LASF7709
     /tmp/cciiZT4Y.s:107154  .debug_str:000000000004c04d .LASF7710
     /tmp/cciiZT4Y.s:100100  .debug_str:000000000002eea0 .LASF7711
     /tmp/cciiZT4Y.s:96498  .debug_str:0000000000020879 .LASF7712
     /tmp/cciiZT4Y.s:90398  .debug_str:0000000000007689 .LASF7713
     /tmp/cciiZT4Y.s:102500  .debug_str:0000000000038c75 .LASF7714
     /tmp/cciiZT4Y.s:92404  .debug_str:000000000000f895 .LASF7715
     /tmp/cciiZT4Y.s:91186  .debug_str:000000000000ab95 .LASF7716
     /tmp/cciiZT4Y.s:95764  .debug_str:000000000001d353 .LASF7717
     /tmp/cciiZT4Y.s:91020  .debug_str:000000000000a09d .LASF7718
     /tmp/cciiZT4Y.s:90492  .debug_str:0000000000007cf6 .LASF7719
     /tmp/cciiZT4Y.s:98864  .debug_str:000000000002a05c .LASF7720
     /tmp/cciiZT4Y.s:91722  .debug_str:000000000000d14f .LASF7721
     /tmp/cciiZT4Y.s:98516  .debug_str:000000000002893e .LASF7722
     /tmp/cciiZT4Y.s:96496  .debug_str:0000000000020863 .LASF7723
     /tmp/cciiZT4Y.s:94238  .debug_str:0000000000016bf1 .LASF7724
     /tmp/cciiZT4Y.s:108020  .debug_str:000000000004fc51 .LASF7725
     /tmp/cciiZT4Y.s:92026  .debug_str:000000000000e3dd .LASF7726
     /tmp/cciiZT4Y.s:107370  .debug_str:000000000004cfa3 .LASF7727
     /tmp/cciiZT4Y.s:107372  .debug_str:000000000004cfc2 .LASF7728
     /tmp/cciiZT4Y.s:107374  .debug_str:000000000004cfe1 .LASF7729
     /tmp/cciiZT4Y.s:101432  .debug_str:00000000000345ff .LASF7730
     /tmp/cciiZT4Y.s:95688  .debug_str:000000000001ceb6 .LASF7731
     /tmp/cciiZT4Y.s:94572  .debug_str:000000000001820e .LASF7732
     /tmp/cciiZT4Y.s:107378  .debug_str:000000000004d00e .LASF7733
     /tmp/cciiZT4Y.s:102592  .debug_str:0000000000039106 .LASF7734
     /tmp/cciiZT4Y.s:102236  .debug_str:0000000000037c7b .LASF7735
     /tmp/cciiZT4Y.s:98188  .debug_str:00000000000272f5 .LASF7736
     /tmp/cciiZT4Y.s:98190  .debug_str:0000000000027312 .LASF7737
     /tmp/cciiZT4Y.s:98192  .debug_str:000000000002732f .LASF7738
     /tmp/cciiZT4Y.s:100864  .debug_str:0000000000031ffa .LASF7739
     /tmp/cciiZT4Y.s:98196  .debug_str:000000000002735b .LASF7740
     /tmp/cciiZT4Y.s:89512  .debug_str:00000000000039c6 .LASF7741
     /tmp/cciiZT4Y.s:107278  .debug_str:000000000004c8b1 .LASF7742
     /tmp/cciiZT4Y.s:101808  .debug_str:00000000000360d8 .LASF7743
     /tmp/cciiZT4Y.s:99734  .debug_str:000000000002d609 .LASF7744
     /tmp/cciiZT4Y.s:101540  .debug_str:0000000000034df5 .LASF7745
     /tmp/cciiZT4Y.s:88744  .debug_str:00000000000005c9 .LASF7746
     /tmp/cciiZT4Y.s:103152  .debug_str:000000000003b299 .LASF7747
     /tmp/cciiZT4Y.s:101650  .debug_str:0000000000035568 .LASF7748
     /tmp/cciiZT4Y.s:101652  .debug_str:0000000000035584 .LASF7749
     /tmp/cciiZT4Y.s:101654  .debug_str:00000000000355a0 .LASF7750
     /tmp/cciiZT4Y.s:101656  .debug_str:00000000000355bc .LASF7751
     /tmp/cciiZT4Y.s:108010  .debug_str:000000000004fbad .LASF7752
     /tmp/cciiZT4Y.s:98778  .debug_str:0000000000029a94 .LASF7753
     /tmp/cciiZT4Y.s:101658  .debug_str:00000000000355d8 .LASF7754
     /tmp/cciiZT4Y.s:99370  .debug_str:000000000002c08f .LASF7755
     /tmp/cciiZT4Y.s:106348  .debug_str:00000000000489d5 .LASF7756
     /tmp/cciiZT4Y.s:90726  .debug_str:0000000000008c9d .LASF7757
     /tmp/cciiZT4Y.s:103306  .debug_str:000000000003bd56 .LASF7758
     /tmp/cciiZT4Y.s:107120  .debug_str:000000000004be16 .LASF7759
     /tmp/cciiZT4Y.s:98788  .debug_str:0000000000029b0f .LASF7760
     /tmp/cciiZT4Y.s:104228  .debug_str:000000000003f9a1 .LASF7761
     /tmp/cciiZT4Y.s:104142  .debug_str:000000000003f3e4 .LASF7762
     /tmp/cciiZT4Y.s:96444  .debug_str:00000000000203e6 .LASF7763
     /tmp/cciiZT4Y.s:98514  .debug_str:0000000000028930 .LASF7764
     /tmp/cciiZT4Y.s:93894  .debug_str:000000000001556e .LASF7765
     /tmp/cciiZT4Y.s:98964  .debug_str:000000000002a720 .LASF7766
     /tmp/cciiZT4Y.s:107976  .debug_str:000000000004f960 .LASF7767
     /tmp/cciiZT4Y.s:94440  .debug_str:00000000000179de .LASF7768
     /tmp/cciiZT4Y.s:101172  .debug_str:0000000000033508 .LASF7769
     /tmp/cciiZT4Y.s:105674  .debug_str:0000000000045da5 .LASF7770
     /tmp/cciiZT4Y.s:90024  .debug_str:0000000000005cd8 .LASF7771
     /tmp/cciiZT4Y.s:101744  .debug_str:0000000000035c99 .LASF7772
     /tmp/cciiZT4Y.s:91410  .debug_str:000000000000bb9d .LASF7773
     /tmp/cciiZT4Y.s:102414  .debug_str:0000000000038777 .LASF7774
     /tmp/cciiZT4Y.s:101002  .debug_str:00000000000329ef .LASF7775
     /tmp/cciiZT4Y.s:98048  .debug_str:0000000000026aa2 .LASF7776
     /tmp/cciiZT4Y.s:90394  .debug_str:0000000000007640 .LASF7777
     /tmp/cciiZT4Y.s:93490  .debug_str:0000000000013cc1 .LASF7778
     /tmp/cciiZT4Y.s:90464  .debug_str:0000000000007b12 .LASF7779
     /tmp/cciiZT4Y.s:94836  .debug_str:000000000001929e .LASF7780
     /tmp/cciiZT4Y.s:107258  .debug_str:000000000004c774 .LASF7781
     /tmp/cciiZT4Y.s:103236  .debug_str:000000000003b873 .LASF7782
     /tmp/cciiZT4Y.s:97940  .debug_str:000000000002636c .LASF7783
     /tmp/cciiZT4Y.s:93302  .debug_str:000000000001305d .LASF7784
     /tmp/cciiZT4Y.s:94372  .debug_str:00000000000174bd .LASF7785
     /tmp/cciiZT4Y.s:97290  .debug_str:0000000000023ceb .LASF7786
     /tmp/cciiZT4Y.s:92888  .debug_str:000000000001151e .LASF7787
     /tmp/cciiZT4Y.s:105180  .debug_str:0000000000043db3 .LASF7788
     /tmp/cciiZT4Y.s:100578  .debug_str:0000000000030e24 .LASF7789
     /tmp/cciiZT4Y.s:96166  .debug_str:000000000001ef50 .LASF7790
     /tmp/cciiZT4Y.s:89000  .debug_str:000000000000168c .LASF7791
     /tmp/cciiZT4Y.s:103242  .debug_str:000000000003b8c8 .LASF7792
     /tmp/cciiZT4Y.s:96000  .debug_str:000000000001e458 .LASF7793
     /tmp/cciiZT4Y.s:91566  .debug_str:000000000000c652 .LASF7794
     /tmp/cciiZT4Y.s:101006  .debug_str:0000000000032a54 .LASF7795
     /tmp/cciiZT4Y.s:102002  .debug_str:0000000000036e06 .LASF7796
     /tmp/cciiZT4Y.s:97026  .debug_str:0000000000022ae0 .LASF7797
     /tmp/cciiZT4Y.s:99656  .debug_str:000000000002d15b .LASF7798
     /tmp/cciiZT4Y.s:94012  .debug_str:0000000000015d61 .LASF7799
     /tmp/cciiZT4Y.s:98568  .debug_str:0000000000028ce3 .LASF7800
     /tmp/cciiZT4Y.s:90984  .debug_str:0000000000009e6f .LASF7801
     /tmp/cciiZT4Y.s:92470  .debug_str:000000000000fd87 .LASF7802
     /tmp/cciiZT4Y.s:96694  .debug_str:0000000000021492 .LASF7803
     /tmp/cciiZT4Y.s:92466  .debug_str:000000000000fd5d .LASF7804
     /tmp/cciiZT4Y.s:96692  .debug_str:0000000000021479 .LASF7805
     /tmp/cciiZT4Y.s:95162  .debug_str:000000000001a9f9 .LASF7806
     /tmp/cciiZT4Y.s:96280  .debug_str:000000000001f839 .LASF7807
     /tmp/cciiZT4Y.s:106646  .debug_str:0000000000049d6c .LASF7808
     /tmp/cciiZT4Y.s:94934  .debug_str:00000000000199c6 .LASF7809
     /tmp/cciiZT4Y.s:93496  .debug_str:0000000000013d0f .LASF7810
     /tmp/cciiZT4Y.s:91882  .debug_str:000000000000dbf9 .LASF7811
     /tmp/cciiZT4Y.s:93276  .debug_str:0000000000012e75 .LASF7812
     /tmp/cciiZT4Y.s:95682  .debug_str:000000000001ce69 .LASF7813
     /tmp/cciiZT4Y.s:104334  .debug_str:000000000003ffd7 .LASF7814
     /tmp/cciiZT4Y.s:104338  .debug_str:0000000000040005 .LASF7815
     /tmp/cciiZT4Y.s:99772  .debug_str:000000000002d84d .LASF7816
     /tmp/cciiZT4Y.s:92002  .debug_str:000000000000e28c .LASF7817
     /tmp/cciiZT4Y.s:94180  .debug_str:0000000000016791 .LASF7818
     /tmp/cciiZT4Y.s:95208  .debug_str:000000000001ad77 .LASF7819
     /tmp/cciiZT4Y.s:106780  .debug_str:000000000004a648 .LASF7820
     /tmp/cciiZT4Y.s:96242  .debug_str:000000000001f55b .LASF7821
     /tmp/cciiZT4Y.s:97732  .debug_str:0000000000025886 .LASF7822
     /tmp/cciiZT4Y.s:105798  .debug_str:0000000000046562 .LASF7823
     /tmp/cciiZT4Y.s:90108  .debug_str:0000000000006231 .LASF7824
     /tmp/cciiZT4Y.s:106462  .debug_str:000000000004919d .LASF7825
     /tmp/cciiZT4Y.s:93698  .debug_str:00000000000149da .LASF7826
     /tmp/cciiZT4Y.s:89716  .debug_str:000000000000486b .LASF7827
     /tmp/cciiZT4Y.s:91862  .debug_str:000000000000dabe .LASF7828
     /tmp/cciiZT4Y.s:103904  .debug_str:000000000003e546 .LASF7829
     /tmp/cciiZT4Y.s:103372  .debug_str:000000000003c243 .LASF7830
     /tmp/cciiZT4Y.s:101130  .debug_str:0000000000033241 .LASF7831
     /tmp/cciiZT4Y.s:99576  .debug_str:000000000002cc97 .LASF7832
     /tmp/cciiZT4Y.s:102856  .debug_str:0000000000039eef .LASF7833
     /tmp/cciiZT4Y.s:89934  .debug_str:000000000000570e .LASF7834
     /tmp/cciiZT4Y.s:101838  .debug_str:0000000000036315 .LASF7835
     /tmp/cciiZT4Y.s:98650  .debug_str:0000000000029307 .LASF7836
     /tmp/cciiZT4Y.s:94276  .debug_str:0000000000016e7c .LASF7837
     /tmp/cciiZT4Y.s:92524  .debug_str:000000000001007e .LASF7838
     /tmp/cciiZT4Y.s:105376  .debug_str:0000000000044a3b .LASF7839
     /tmp/cciiZT4Y.s:98368  .debug_str:0000000000027f4e .LASF7840
     /tmp/cciiZT4Y.s:102338  .debug_str:00000000000382fc .LASF7841
     /tmp/cciiZT4Y.s:106874  .debug_str:000000000004acb5 .LASF7842
     /tmp/cciiZT4Y.s:102666  .debug_str:00000000000394c0 .LASF7843
     /tmp/cciiZT4Y.s:99290  .debug_str:000000000002bb70 .LASF7844
     /tmp/cciiZT4Y.s:89894  .debug_str:0000000000005409 .LASF7845
     /tmp/cciiZT4Y.s:104710  .debug_str:0000000000041d7d .LASF7846
     /tmp/cciiZT4Y.s:105530  .debug_str:00000000000453e4 .LASF7847
     /tmp/cciiZT4Y.s:107742  .debug_str:000000000004e9b2 .LASF7848
     /tmp/cciiZT4Y.s:96244  .debug_str:000000000001f569 .LASF7849
     /tmp/cciiZT4Y.s:97814  .debug_str:0000000000025c8f .LASF7850
     /tmp/cciiZT4Y.s:89026  .debug_str:000000000000192e .LASF7851
     /tmp/cciiZT4Y.s:101370  .debug_str:000000000003424d .LASF7852
     /tmp/cciiZT4Y.s:89940  .debug_str:000000000000573c .LASF7853
     /tmp/cciiZT4Y.s:89286  .debug_str:0000000000002b6e .LASF7854
     /tmp/cciiZT4Y.s:97980  .debug_str:00000000000265b7 .LASF7855
     /tmp/cciiZT4Y.s:90698  .debug_str:0000000000008ad8 .LASF7856
     /tmp/cciiZT4Y.s:94640  .debug_str:00000000000186da .LASF7857
     /tmp/cciiZT4Y.s:94708  .debug_str:0000000000018a64 .LASF7858
     /tmp/cciiZT4Y.s:97480  .debug_str:00000000000249f0 .LASF7859
     /tmp/cciiZT4Y.s:98722  .debug_str:00000000000296bf .LASF7860
     /tmp/cciiZT4Y.s:89460  .debug_str:0000000000003642 .LASF7861
     /tmp/cciiZT4Y.s:95196  .debug_str:000000000001acc9 .LASF7862
     /tmp/cciiZT4Y.s:104112  .debug_str:000000000003f217 .LASF7863
     /tmp/cciiZT4Y.s:93352  .debug_str:0000000000013451 .LASF7864
     /tmp/cciiZT4Y.s:105480  .debug_str:0000000000045084 .LASF7865
     /tmp/cciiZT4Y.s:93348  .debug_str:0000000000013427 .LASF7866
     /tmp/cciiZT4Y.s:105222  .debug_str:000000000004402a .LASF7867
     /tmp/cciiZT4Y.s:100632  .debug_str:000000000003114c .LASF7868
     /tmp/cciiZT4Y.s:95708  .debug_str:000000000001d03d .LASF7869
     /tmp/cciiZT4Y.s:101164  .debug_str:000000000003347b .LASF7870
     /tmp/cciiZT4Y.s:104030  .debug_str:000000000003ecec .LASF7871
     /tmp/cciiZT4Y.s:102612  .debug_str:0000000000039241 .LASF7872
     /tmp/cciiZT4Y.s:96712  .debug_str:0000000000021619 .LASF7873
     /tmp/cciiZT4Y.s:98894  .debug_str:000000000002a265 .LASF7874
     /tmp/cciiZT4Y.s:106224  .debug_str:00000000000481f9 .LASF7875
     /tmp/cciiZT4Y.s:102416  .debug_str:0000000000038786 .LASF7876
     /tmp/cciiZT4Y.s:106234  .debug_str:000000000004829a .LASF7877
     /tmp/cciiZT4Y.s:93818  .debug_str:000000000001505c .LASF7878
     /tmp/cciiZT4Y.s:88826  .debug_str:0000000000000b27 .LASF7879
     /tmp/cciiZT4Y.s:106012  .debug_str:00000000000473d9 .LASF7880
     /tmp/cciiZT4Y.s:107174  .debug_str:000000000004c18b .LASF7881
     /tmp/cciiZT4Y.s:103948  .debug_str:000000000003e885 .LASF7882
     /tmp/cciiZT4Y.s:104454  .debug_str:00000000000407c8 .LASF7883
     /tmp/cciiZT4Y.s:107880  .debug_str:000000000004f2aa .LASF7884
     /tmp/cciiZT4Y.s:99340  .debug_str:000000000002be85 .LASF7885
     /tmp/cciiZT4Y.s:106694  .debug_str:000000000004a09f .LASF7886
     /tmp/cciiZT4Y.s:93452  .debug_str:0000000000013a68 .LASF7887
     /tmp/cciiZT4Y.s:90718  .debug_str:0000000000008c3f .LASF7888
     /tmp/cciiZT4Y.s:108014  .debug_str:000000000004fbcb .LASF7889
     /tmp/cciiZT4Y.s:89770  .debug_str:0000000000004c5a .LASF7890
     /tmp/cciiZT4Y.s:105186  .debug_str:0000000000043e07 .LASF7891
     /tmp/cciiZT4Y.s:94322  .debug_str:000000000001711e .LASF7892
     /tmp/cciiZT4Y.s:96552  .debug_str:0000000000020bb9 .LASF7893
     /tmp/cciiZT4Y.s:91956  .debug_str:000000000000df74 .LASF7894
     /tmp/cciiZT4Y.s:91680  .debug_str:000000000000cebf .LASF7895
     /tmp/cciiZT4Y.s:98138  .debug_str:0000000000027064 .LASF7896
     /tmp/cciiZT4Y.s:100072  .debug_str:000000000002ecb5 .LASF7897
     /tmp/cciiZT4Y.s:94076  .debug_str:00000000000160fa .LASF7898
     /tmp/cciiZT4Y.s:96888  .debug_str:0000000000022187 .LASF7899
     /tmp/cciiZT4Y.s:99328  .debug_str:000000000002bd57 .LASF7900
     /tmp/cciiZT4Y.s:91290  .debug_str:000000000000b308 .LASF7901
     /tmp/cciiZT4Y.s:98810  .debug_str:0000000000029c8f .LASF7902
     /tmp/cciiZT4Y.s:97918  .debug_str:0000000000026237 .LASF7903
     /tmp/cciiZT4Y.s:97924  .debug_str:0000000000026277 .LASF7904
     /tmp/cciiZT4Y.s:90324  .debug_str:00000000000071e8 .LASF7905
     /tmp/cciiZT4Y.s:99812  .debug_str:000000000002db44 .LASF7906
     /tmp/cciiZT4Y.s:99796  .debug_str:000000000002d9f5 .LASF7907
     /tmp/cciiZT4Y.s:104246  .debug_str:000000000003fadd .LASF7908
     /tmp/cciiZT4Y.s:89800  .debug_str:0000000000004e9d .LASF7909
     /tmp/cciiZT4Y.s:107016  .debug_str:000000000004b731 .LASF7910
     /tmp/cciiZT4Y.s:106278  .debug_str:0000000000048589 .LASF7911
     /tmp/cciiZT4Y.s:106634  .debug_str:0000000000049c92 .LASF7912
     /tmp/cciiZT4Y.s:103076  .debug_str:000000000003ad7b .LASF7913
     /tmp/cciiZT4Y.s:92024  .debug_str:000000000000e3b8 .LASF7914
     /tmp/cciiZT4Y.s:93642  .debug_str:00000000000145d7 .LASF7915
     /tmp/cciiZT4Y.s:90010  .debug_str:0000000000005c1c .LASF7916
     /tmp/cciiZT4Y.s:104992  .debug_str:00000000000430c5 .LASF7917
     /tmp/cciiZT4Y.s:98974  .debug_str:000000000002a7f5 .LASF7918
     /tmp/cciiZT4Y.s:98976  .debug_str:000000000002a803 .LASF7919
     /tmp/cciiZT4Y.s:98978  .debug_str:000000000002a811 .LASF7920
     /tmp/cciiZT4Y.s:98980  .debug_str:000000000002a81f .LASF7921
     /tmp/cciiZT4Y.s:98982  .debug_str:000000000002a82d .LASF7922
     /tmp/cciiZT4Y.s:98984  .debug_str:000000000002a83b .LASF7923
     /tmp/cciiZT4Y.s:98986  .debug_str:000000000002a849 .LASF7924
     /tmp/cciiZT4Y.s:98988  .debug_str:000000000002a857 .LASF7925
     /tmp/cciiZT4Y.s:98990  .debug_str:000000000002a865 .LASF7926
     /tmp/cciiZT4Y.s:98992  .debug_str:000000000002a873 .LASF7927
     /tmp/cciiZT4Y.s:106928  .debug_str:000000000004b114 .LASF7928
     /tmp/cciiZT4Y.s:91308  .debug_str:000000000000b4ad .LASF7929
     /tmp/cciiZT4Y.s:101894  .debug_str:00000000000366d9 .LASF7930
     /tmp/cciiZT4Y.s:97510  .debug_str:0000000000024acd .LASF7931
     /tmp/cciiZT4Y.s:89858  .debug_str:000000000000521a .LASF7932
     /tmp/cciiZT4Y.s:105150  .debug_str:0000000000043b9d .LASF7933
     /tmp/cciiZT4Y.s:96898  .debug_str:000000000002224d .LASF7934
     /tmp/cciiZT4Y.s:94156  .debug_str:0000000000016603 .LASF7935
     /tmp/cciiZT4Y.s:105160  .debug_str:0000000000043c0c .LASF7936
     /tmp/cciiZT4Y.s:89728  .debug_str:0000000000004948 .LASF7937
     /tmp/cciiZT4Y.s:88756  .debug_str:000000000000068e .LASF7938
     /tmp/cciiZT4Y.s:96112  .debug_str:000000000001ebe7 .LASF7939
     /tmp/cciiZT4Y.s:92682  .debug_str:00000000000108ba .LASF7940
     /tmp/cciiZT4Y.s:107700  .debug_str:000000000004e720 .LASF7941
     /tmp/cciiZT4Y.s:91442  .debug_str:000000000000be5e .LASF7942
     /tmp/cciiZT4Y.s:99028  .debug_str:000000000002aaa4 .LASF7943
     /tmp/cciiZT4Y.s:102006  .debug_str:0000000000036e32 .LASF7944
     /tmp/cciiZT4Y.s:105612  .debug_str:00000000000459c7 .LASF7945
     /tmp/cciiZT4Y.s:106084  .debug_str:000000000004787a .LASF7946
     /tmp/cciiZT4Y.s:95302  .debug_str:000000000001b366 .LASF7947
     /tmp/cciiZT4Y.s:105614  .debug_str:00000000000459da .LASF7948
     /tmp/cciiZT4Y.s:100056  .debug_str:000000000002eba4 .LASF7949
     /tmp/cciiZT4Y.s:94742  .debug_str:0000000000018c71 .LASF7950
     /tmp/cciiZT4Y.s:89836  .debug_str:0000000000005083 .LASF7951
     /tmp/cciiZT4Y.s:105822  .debug_str:0000000000046727 .LASF7952
     /tmp/cciiZT4Y.s:94744  .debug_str:0000000000018c83 .LASF7953
     /tmp/cciiZT4Y.s:101936  .debug_str:00000000000369bb .LASF7954
     /tmp/cciiZT4Y.s:99774  .debug_str:000000000002d856 .LASF7955
     /tmp/cciiZT4Y.s:94746  .debug_str:0000000000018c95 .LASF7956
     /tmp/cciiZT4Y.s:89840  .debug_str:00000000000050c1 .LASF7957
     /tmp/cciiZT4Y.s:93526  .debug_str:0000000000013ef9 .LASF7958
     /tmp/cciiZT4Y.s:97102  .debug_str:0000000000022fdc .LASF7959
     /tmp/cciiZT4Y.s:101942  .debug_str:0000000000036a2d .LASF7960
     /tmp/cciiZT4Y.s:106758  .debug_str:000000000004a491 .LASF7961
     /tmp/cciiZT4Y.s:93158  .debug_str:0000000000012682 .LASF7962
     /tmp/cciiZT4Y.s:107068  .debug_str:000000000004bab0 .LASF7963
     /tmp/cciiZT4Y.s:91114  .debug_str:000000000000a6d9 .LASF7964
     /tmp/cciiZT4Y.s:93160  .debug_str:0000000000012694 .LASF7965
     /tmp/cciiZT4Y.s:107390  .debug_str:000000000004d0be .LASF7966
     /tmp/cciiZT4Y.s:104450  .debug_str:0000000000040760 .LASF7967
     /tmp/cciiZT4Y.s:93162  .debug_str:00000000000126a6 .LASF7968
     /tmp/cciiZT4Y.s:107690  .debug_str:000000000004e699 .LASF7969
     /tmp/cciiZT4Y.s:98356  .debug_str:0000000000027e7a .LASF7970
     /tmp/cciiZT4Y.s:94092  .debug_str:00000000000161c7 .LASF7971
     /tmp/cciiZT4Y.s:88810  .debug_str:0000000000000a1f .LASF7972
     /tmp/cciiZT4Y.s:99842  .debug_str:000000000002dd0d .LASF7973
     /tmp/cciiZT4Y.s:105330  .debug_str:00000000000446ea .LASF7974
     /tmp/cciiZT4Y.s:95078  .debug_str:000000000001a3b4 .LASF7975
     /tmp/cciiZT4Y.s:100714  .debug_str:0000000000031663 .LASF7976
     /tmp/cciiZT4Y.s:94306  .debug_str:0000000000017046 .LASF7977
     /tmp/cciiZT4Y.s:105384  .debug_str:0000000000044ae1 .LASF7978
     /tmp/cciiZT4Y.s:89312  .debug_str:0000000000002cfb .LASF7979
     /tmp/cciiZT4Y.s:99514  .debug_str:000000000002c894 .LASF7980
     /tmp/cciiZT4Y.s:90774  .debug_str:0000000000008ff4 .LASF7981
     /tmp/cciiZT4Y.s:101980  .debug_str:0000000000036cbb .LASF7982
     /tmp/cciiZT4Y.s:94324  .debug_str:0000000000017132 .LASF7983
     /tmp/cciiZT4Y.s:100844  .debug_str:0000000000031e96 .LASF7984
     /tmp/cciiZT4Y.s:97912  .debug_str:00000000000261d0 .LASF7985
     /tmp/cciiZT4Y.s:104920  .debug_str:0000000000042bb5 .LASF7986
     /tmp/cciiZT4Y.s:88978  .debug_str:0000000000001510 .LASF7987
     /tmp/cciiZT4Y.s:107720  .debug_str:000000000004e864 .LASF7988
     /tmp/cciiZT4Y.s:104932  .debug_str:0000000000042cc1 .LASF7989
     /tmp/cciiZT4Y.s:96704  .debug_str:000000000002156c .LASF7990
     /tmp/cciiZT4Y.s:97326  .debug_str:0000000000023f42 .LASF7991
     /tmp/cciiZT4Y.s:97916  .debug_str:000000000002622b .LASF7992
     /tmp/cciiZT4Y.s:89620  .debug_str:00000000000041b0 .LASF7993
     /tmp/cciiZT4Y.s:100246  .debug_str:000000000002f878 .LASF7994
     /tmp/cciiZT4Y.s:105494  .debug_str:00000000000451b4 .LASF7995
     /tmp/cciiZT4Y.s:107042  .debug_str:000000000004b907 .LASF7996
     /tmp/cciiZT4Y.s:90714  .debug_str:0000000000008bf9 .LASF7997
     /tmp/cciiZT4Y.s:91240  .debug_str:000000000000af64 .LASF7998
     /tmp/cciiZT4Y.s:94032  .debug_str:0000000000015e8c .LASF7999
     /tmp/cciiZT4Y.s:102170  .debug_str:00000000000378d6 .LASF8000
     /tmp/cciiZT4Y.s:98672  .debug_str:0000000000029478 .LASF8001
     /tmp/cciiZT4Y.s:90660  .debug_str:0000000000008836 .LASF8002
     /tmp/cciiZT4Y.s:96226  .debug_str:000000000001f3f4 .LASF8003
     /tmp/cciiZT4Y.s:93740  .debug_str:0000000000014bfd .LASF8004
     /tmp/cciiZT4Y.s:94606  .debug_str:00000000000184b6 .LASF8005
     /tmp/cciiZT4Y.s:105978  .debug_str:00000000000470f9 .LASF8006
     /tmp/cciiZT4Y.s:89176  .debug_str:000000000000242a .LASF8007
     /tmp/cciiZT4Y.s:101160  .debug_str:0000000000033439 .LASF8008
     /tmp/cciiZT4Y.s:102342  .debug_str:0000000000038348 .LASF8009
     /tmp/cciiZT4Y.s:101346  .debug_str:00000000000340b5 .LASF8010
     /tmp/cciiZT4Y.s:88944  .debug_str:00000000000012c4 .LASF8011
     /tmp/cciiZT4Y.s:96978  .debug_str:0000000000022791 .LASF8012
     /tmp/cciiZT4Y.s:102818  .debug_str:0000000000039cd8 .LASF8013
     /tmp/cciiZT4Y.s:102262  .debug_str:0000000000037e33 .LASF8014
     /tmp/cciiZT4Y.s:106338  .debug_str:0000000000048937 .LASF8015
     /tmp/cciiZT4Y.s:106190  .debug_str:0000000000047fe3 .LASF8016
     /tmp/cciiZT4Y.s:100316  .debug_str:000000000002fce6 .LASF8017
     /tmp/cciiZT4Y.s:95198  .debug_str:000000000001acd4 .LASF8018
     /tmp/cciiZT4Y.s:106800  .debug_str:000000000004a7e1 .LASF8019
     /tmp/cciiZT4Y.s:97062  .debug_str:0000000000022d59 .LASF8020
     /tmp/cciiZT4Y.s:106500  .debug_str:00000000000493f6 .LASF8021
     /tmp/cciiZT4Y.s:103190  .debug_str:000000000003b5ec .LASF8022
     /tmp/cciiZT4Y.s:100228  .debug_str:000000000002f7aa .LASF8023
     /tmp/cciiZT4Y.s:103638  .debug_str:000000000003d29d .LASF8024
     /tmp/cciiZT4Y.s:89300  .debug_str:0000000000002c2e .LASF8025
     /tmp/cciiZT4Y.s:97458  .debug_str:000000000002489e .LASF8026
     /tmp/cciiZT4Y.s:98358  .debug_str:0000000000027ea0 .LASF8027
     /tmp/cciiZT4Y.s:93292  .debug_str:0000000000012fa6 .LASF8028
     /tmp/cciiZT4Y.s:94898  .debug_str:0000000000019754 .LASF8029
     /tmp/cciiZT4Y.s:99478  .debug_str:000000000002c66c .LASF8030
     /tmp/cciiZT4Y.s:100600  .debug_str:0000000000030f78 .LASF8031
     /tmp/cciiZT4Y.s:94524  .debug_str:0000000000017f6e .LASF8032
     /tmp/cciiZT4Y.s:106468  .debug_str:00000000000491dd .LASF8033
     /tmp/cciiZT4Y.s:98270  .debug_str:00000000000278cb .LASF8034
     /tmp/cciiZT4Y.s:92744  .debug_str:0000000000010bd9 .LASF8035
     /tmp/cciiZT4Y.s:94366  .debug_str:0000000000017445 .LASF8036
     /tmp/cciiZT4Y.s:107028  .debug_str:000000000004b7d6 .LASF8037
     /tmp/cciiZT4Y.s:89782  .debug_str:0000000000004d0c .LASF8038
     /tmp/cciiZT4Y.s:94072  .debug_str:000000000001608b .LASF8039
     /tmp/cciiZT4Y.s:91760  .debug_str:000000000000d43b .LASF8040
     /tmp/cciiZT4Y.s:107136  .debug_str:000000000004bf12 .LASF8041
     /tmp/cciiZT4Y.s:103004  .debug_str:000000000003a85a .LASF8042
     /tmp/cciiZT4Y.s:96434  .debug_str:000000000002031e .LASF8043
     /tmp/cciiZT4Y.s:100350  .debug_str:000000000002ff5d .LASF8044
     /tmp/cciiZT4Y.s:97332  .debug_str:0000000000023f9a .LASF8045
     /tmp/cciiZT4Y.s:94016  .debug_str:0000000000015d8e .LASF8046
     /tmp/cciiZT4Y.s:96764  .debug_str:0000000000021990 .LASF8047
     /tmp/cciiZT4Y.s:99944  .debug_str:000000000002e3a0 .LASF8048
     /tmp/cciiZT4Y.s:88926  .debug_str:00000000000011a4 .LASF8049
     /tmp/cciiZT4Y.s:91976  .debug_str:000000000000e0e4 .LASF8050
     /tmp/cciiZT4Y.s:105588  .debug_str:0000000000045874 .LASF8051
     /tmp/cciiZT4Y.s:95598  .debug_str:000000000001c82c .LASF8052
     /tmp/cciiZT4Y.s:103528  .debug_str:000000000003cbee .LASF8053
     /tmp/cciiZT4Y.s:93264  .debug_str:0000000000012d9a .LASF8054
     /tmp/cciiZT4Y.s:101156  .debug_str:0000000000033400 .LASF8055
     /tmp/cciiZT4Y.s:90374  .debug_str:000000000000756a .LASF8056
     /tmp/cciiZT4Y.s:94894  .debug_str:000000000001971e .LASF8057
     /tmp/cciiZT4Y.s:99358  .debug_str:000000000002bfc1 .LASF8058
     /tmp/cciiZT4Y.s:101890  .debug_str:0000000000036698 .LASF8059
     /tmp/cciiZT4Y.s:98752  .debug_str:0000000000029922 .LASF8060
     /tmp/cciiZT4Y.s:105326  .debug_str:00000000000446cd .LASF8061
     /tmp/cciiZT4Y.s:93018  .debug_str:0000000000011d14 .LASF8062
     /tmp/cciiZT4Y.s:100158  .debug_str:000000000002f23c .LASF8063
     /tmp/cciiZT4Y.s:94036  .debug_str:0000000000015ec0 .LASF8064
     /tmp/cciiZT4Y.s:105156  .debug_str:0000000000043bf4 .LASF8065
     /tmp/cciiZT4Y.s:104772  .debug_str:0000000000042204 .LASF8066
     /tmp/cciiZT4Y.s:99044  .debug_str:000000000002abce .LASF8067
     /tmp/cciiZT4Y.s:106994  .debug_str:000000000004b5ce .LASF8068
     /tmp/cciiZT4Y.s:93762  .debug_str:0000000000014cc6 .LASF8069
     /tmp/cciiZT4Y.s:94478  .debug_str:0000000000017ca3 .LASF8070
     /tmp/cciiZT4Y.s:103546  .debug_str:000000000003cd1a .LASF8071
     /tmp/cciiZT4Y.s:104050  .debug_str:000000000003ee18 .LASF8072
     /tmp/cciiZT4Y.s:92586  .debug_str:0000000000010340 .LASF8073
     /tmp/cciiZT4Y.s:101798  .debug_str:0000000000036056 .LASF8074
     /tmp/cciiZT4Y.s:95952  .debug_str:000000000001e0d3 .LASF8075
     /tmp/cciiZT4Y.s:99990  .debug_str:000000000002e69e .LASF8076
     /tmp/cciiZT4Y.s:96386  .debug_str:000000000001ffb8 .LASF8077
     /tmp/cciiZT4Y.s:105468  .debug_str:0000000000044fab .LASF8078
     /tmp/cciiZT4Y.s:105816  .debug_str:000000000004669e .LASF8079
     /tmp/cciiZT4Y.s:88918  .debug_str:0000000000001147 .LASF8080
     /tmp/cciiZT4Y.s:107024  .debug_str:000000000004b789 .LASF8081
     /tmp/cciiZT4Y.s:108052  .debug_str:000000000004fe9d .LASF8082
     /tmp/cciiZT4Y.s:97444  .debug_str:00000000000247ce .LASF8083
     /tmp/cciiZT4Y.s:92190  .debug_str:000000000000ed1c .LASF8084
     /tmp/cciiZT4Y.s:105204  .debug_str:0000000000043ee8 .LASF8085
     /tmp/cciiZT4Y.s:92090  .debug_str:000000000000e807 .LASF8086
     /tmp/cciiZT4Y.s:88710  .debug_str:000000000000031b .LASF8087
     /tmp/cciiZT4Y.s:105194  .debug_str:0000000000043e74 .LASF8088
     /tmp/cciiZT4Y.s:94830  .debug_str:000000000001922a .LASF8089
     /tmp/cciiZT4Y.s:92916  .debug_str:0000000000011604 .LASF8090
     /tmp/cciiZT4Y.s:94402  .debug_str:0000000000017700 .LASF8091
     /tmp/cciiZT4Y.s:96862  .debug_str:0000000000022038 .LASF8092
     /tmp/cciiZT4Y.s:94770  .debug_str:0000000000018e37 .LASF8093
     /tmp/cciiZT4Y.s:95942  .debug_str:000000000001e004 .LASF8094
     /tmp/cciiZT4Y.s:94110  .debug_str:00000000000162e2 .LASF8095
     /tmp/cciiZT4Y.s:99600  .debug_str:000000000002ce2d .LASF8096
     /tmp/cciiZT4Y.s:98248  .debug_str:00000000000276dc .LASF8097
     /tmp/cciiZT4Y.s:100688  .debug_str:00000000000314e3 .LASF8098
     /tmp/cciiZT4Y.s:105036  .debug_str:00000000000433c7 .LASF8099
     /tmp/cciiZT4Y.s:99210  .debug_str:000000000002b6a5 .LASF8100
     /tmp/cciiZT4Y.s:105544  .debug_str:000000000004555c .LASF8101
     /tmp/cciiZT4Y.s:98156  .debug_str:000000000002718f .LASF8102
     /tmp/cciiZT4Y.s:99200  .debug_str:000000000002b61d .LASF8103
     /tmp/cciiZT4Y.s:105538  .debug_str:0000000000045506 .LASF8104
     /tmp/cciiZT4Y.s:102426  .debug_str:0000000000038850 .LASF8105
     /tmp/cciiZT4Y.s:105312  .debug_str:00000000000445cf .LASF8106
     /tmp/cciiZT4Y.s:94576  .debug_str:0000000000018283 .LASF8107
     /tmp/cciiZT4Y.s:99230  .debug_str:000000000002b818 .LASF8108
     /tmp/cciiZT4Y.s:105302  .debug_str:0000000000044570 .LASF8109
     /tmp/cciiZT4Y.s:92202  .debug_str:000000000000eda0 .LASF8110
     /tmp/cciiZT4Y.s:93418  .debug_str:000000000001384a .LASF8111
     /tmp/cciiZT4Y.s:88708  .debug_str:000000000000030a .LASF8112
     /tmp/cciiZT4Y.s:88672  .debug_str:000000000000006f .LASF8113
     /tmp/cciiZT4Y.s:106976  .debug_str:000000000004b491 .LASF8114
     /tmp/cciiZT4Y.s:91906  .debug_str:000000000000dd27 .LASF8115
     /tmp/cciiZT4Y.s:91870  .debug_str:000000000000db22 .LASF8116
     /tmp/cciiZT4Y.s:107956  .debug_str:000000000004f7f9 .LASF8117
     /tmp/cciiZT4Y.s:95446  .debug_str:000000000001bd92 .LASF8118
     /tmp/cciiZT4Y.s:89812  .debug_str:0000000000004f41 .LASF8119
     /tmp/cciiZT4Y.s:94410  .debug_str:0000000000017793 .LASF8120
     /tmp/cciiZT4Y.s:102600  .debug_str:000000000003917d .LASF8121
     /tmp/cciiZT4Y.s:91890  .debug_str:000000000000dc85 .LASF8122
     /tmp/cciiZT4Y.s:103134  .debug_str:000000000003b195 .LASF8123
     /tmp/cciiZT4Y.s:92082  .debug_str:000000000000e7a7 .LASF8124
     /tmp/cciiZT4Y.s:91892  .debug_str:000000000000dc8e .LASF8125
     /tmp/cciiZT4Y.s:96892  .debug_str:00000000000221de .LASF8126
     /tmp/cciiZT4Y.s:102608  .debug_str:0000000000039207 .LASF8127
     /tmp/cciiZT4Y.s:91896  .debug_str:000000000000dcaa .LASF8128
     /tmp/cciiZT4Y.s:103982  .debug_str:000000000003ea90 .LASF8129
     /tmp/cciiZT4Y.s:91962  .debug_str:000000000000dfc3 .LASF8130
     /tmp/cciiZT4Y.s:91460  .debug_str:000000000000bf82 .LASF8131
     /tmp/cciiZT4Y.s:88984  .debug_str:000000000000154f .LASF8132
     /tmp/cciiZT4Y.s:102184  .debug_str:00000000000379f6 .LASF8133
     /tmp/cciiZT4Y.s:89278  .debug_str:0000000000002afc .LASF8134
     /tmp/cciiZT4Y.s:98122  .debug_str:0000000000026f65 .LASF8135
     /tmp/cciiZT4Y.s:102186  .debug_str:0000000000037a0e .LASF8136
     /tmp/cciiZT4Y.s:96650  .debug_str:00000000000211c1 .LASF8137
     /tmp/cciiZT4Y.s:104426  .debug_str:0000000000040584 .LASF8138
     /tmp/cciiZT4Y.s:107462  .debug_str:000000000004d561 .LASF8139
     /tmp/cciiZT4Y.s:94624  .debug_str:00000000000185e4 .LASF8140
     /tmp/cciiZT4Y.s:100458  .debug_str:00000000000305ee .LASF8141
     /tmp/cciiZT4Y.s:107464  .debug_str:000000000004d579 .LASF8142
     /tmp/cciiZT4Y.s:94626  .debug_str:00000000000185fc .LASF8143
     /tmp/cciiZT4Y.s:94224  .debug_str:0000000000016aac .LASF8144
     /tmp/cciiZT4Y.s:94422  .debug_str:0000000000017870 .LASF8145
     /tmp/cciiZT4Y.s:100044  .debug_str:000000000002eaa7 .LASF8146
     /tmp/cciiZT4Y.s:92862  .debug_str:000000000001136d .LASF8147
     /tmp/cciiZT4Y.s:93356  .debug_str:000000000001347e .LASF8148
     /tmp/cciiZT4Y.s:100046  .debug_str:000000000002eabf .LASF8149
     /tmp/cciiZT4Y.s:106146  .debug_str:0000000000047cff .LASF8150
     /tmp/cciiZT4Y.s:98716  .debug_str:0000000000029667 .LASF8151
     /tmp/cciiZT4Y.s:105270  .debug_str:0000000000044316 .LASF8152
     /tmp/cciiZT4Y.s:104986  .debug_str:0000000000043055 .LASF8153
     /tmp/cciiZT4Y.s:98718  .debug_str:000000000002967f .LASF8154
     /tmp/cciiZT4Y.s:105272  .debug_str:000000000004432e .LASF8155
     /tmp/cciiZT4Y.s:98882  .debug_str:000000000002a170 .LASF8156
     /tmp/cciiZT4Y.s:103978  .debug_str:000000000003ea60 .LASF8157
     /tmp/cciiZT4Y.s:100438  .debug_str:000000000003046c .LASF8158
     /tmp/cciiZT4Y.s:97630  .debug_str:0000000000025279 .LASF8159
     /tmp/cciiZT4Y.s:103980  .debug_str:000000000003ea78 .LASF8160
     /tmp/cciiZT4Y.s:91086  .debug_str:000000000000a4a1 .LASF8161
     /tmp/cciiZT4Y.s:91420  .debug_str:000000000000bcbd .LASF8162
     /tmp/cciiZT4Y.s:89874  .debug_str:00000000000052d9 .LASF8163
     /tmp/cciiZT4Y.s:96500  .debug_str:00000000000208a1 .LASF8164
     /tmp/cciiZT4Y.s:90140  .debug_str:0000000000006468 .LASF8165
     /tmp/cciiZT4Y.s:89876  .debug_str:00000000000052f1 .LASF8166
     /tmp/cciiZT4Y.s:96502  .debug_str:00000000000208b9 .LASF8167
     /tmp/cciiZT4Y.s:103494  .debug_str:000000000003c9c0 .LASF8168
     /tmp/cciiZT4Y.s:95226  .debug_str:000000000001ae8b .LASF8169
     /tmp/cciiZT4Y.s:101856  .debug_str:000000000003644e .LASF8170
     /tmp/cciiZT4Y.s:98798  .debug_str:0000000000029b96 .LASF8171
     /tmp/cciiZT4Y.s:95228  .debug_str:000000000001aea3 .LASF8172
     /tmp/cciiZT4Y.s:101858  .debug_str:0000000000036466 .LASF8173
     /tmp/cciiZT4Y.s:96106  .debug_str:000000000001eb67 .LASF8174
     /tmp/cciiZT4Y.s:100604  .debug_str:0000000000030f94 .LASF8175
     /tmp/cciiZT4Y.s:107102  .debug_str:000000000004bd15 .LASF8176
     /tmp/cciiZT4Y.s:94940  .debug_str:0000000000019a39 .LASF8177
     /tmp/cciiZT4Y.s:100606  .debug_str:0000000000030fac .LASF8178
     /tmp/cciiZT4Y.s:107104  .debug_str:000000000004bd2d .LASF8179
     /tmp/cciiZT4Y.s:88778  .debug_str:00000000000007d8 .LASF8180
     /tmp/cciiZT4Y.s:105864  .debug_str:0000000000046983 .LASF8181
     /tmp/cciiZT4Y.s:93034  .debug_str:0000000000011e54 .LASF8182
     /tmp/cciiZT4Y.s:106816  .debug_str:000000000004a8dc .LASF8183
     /tmp/cciiZT4Y.s:105866  .debug_str:000000000004699b .LASF8184
     /tmp/cciiZT4Y.s:93036  .debug_str:0000000000011e6c .LASF8185
     /tmp/cciiZT4Y.s:100780  .debug_str:0000000000031ac2 .LASF8186
     /tmp/cciiZT4Y.s:91688  .debug_str:000000000000cf2d .LASF8187
     /tmp/cciiZT4Y.s:98382  .debug_str:0000000000028063 .LASF8188
     /tmp/cciiZT4Y.s:99632  .debug_str:000000000002cff3 .LASF8189
     /tmp/cciiZT4Y.s:91690  .debug_str:000000000000cf45 .LASF8190
     /tmp/cciiZT4Y.s:95340  .debug_str:000000000001b60f .LASF8191
     /tmp/cciiZT4Y.s:93382  .debug_str:000000000001367c .LASF8192
     /tmp/cciiZT4Y.s:107590  .debug_str:000000000004df97 .LASF8193
     /tmp/cciiZT4Y.s:93206  .debug_str:0000000000012985 .LASF8194
     /tmp/cciiZT4Y.s:95600  .debug_str:000000000001c844 .LASF8195
     /tmp/cciiZT4Y.s:107592  .debug_str:000000000004dfb0 .LASF8196
     /tmp/cciiZT4Y.s:93208  .debug_str:000000000001299e .LASF8197
     /tmp/cciiZT4Y.s:89422  .debug_str:0000000000003479 .LASF8198
     /tmp/cciiZT4Y.s:93492  .debug_str:0000000000013cdd .LASF8199
     /tmp/cciiZT4Y.s:103126  .debug_str:000000000003b115 .LASF8200
     /tmp/cciiZT4Y.s:107684  .debug_str:000000000004e63b .LASF8201
     /tmp/cciiZT4Y.s:93494  .debug_str:0000000000013cf6 .LASF8202
     /tmp/cciiZT4Y.s:98546  .debug_str:0000000000028b6c .LASF8203
     /tmp/cciiZT4Y.s:101612  .debug_str:00000000000352e1 .LASF8204
     /tmp/cciiZT4Y.s:96842  .debug_str:0000000000021f66 .LASF8205
     /tmp/cciiZT4Y.s:103834  .debug_str:000000000003e0c8 .LASF8206
     /tmp/cciiZT4Y.s:100434  .debug_str:0000000000030415 .LASF8207
     /tmp/cciiZT4Y.s:96844  .debug_str:0000000000021f7f .LASF8208
     /tmp/cciiZT4Y.s:103836  .debug_str:000000000003e0e1 .LASF8209
     /tmp/cciiZT4Y.s:94192  .debug_str:00000000000168a6 .LASF8210
     /tmp/cciiZT4Y.s:107476  .debug_str:000000000004d655 .LASF8211
     /tmp/cciiZT4Y.s:89708  .debug_str:00000000000047ff .LASF8212
     /tmp/cciiZT4Y.s:92828  .debug_str:00000000000110c1 .LASF8213
     /tmp/cciiZT4Y.s:104122  .debug_str:000000000003f2ad .LASF8214
     /tmp/cciiZT4Y.s:89710  .debug_str:0000000000004818 .LASF8215
     /tmp/cciiZT4Y.s:106116  .debug_str:0000000000047ad2 .LASF8216
     /tmp/cciiZT4Y.s:90012  .debug_str:0000000000005c27 .LASF8217
     /tmp/cciiZT4Y.s:95080  .debug_str:000000000001a3c5 .LASF8218
     /tmp/cciiZT4Y.s:104956  .debug_str:0000000000042e7a .LASF8219
     /tmp/cciiZT4Y.s:90014  .debug_str:0000000000005c40 .LASF8220
     /tmp/cciiZT4Y.s:103610  .debug_str:000000000003d0f9 .LASF8221
     /tmp/cciiZT4Y.s:98852  .debug_str:0000000000029f73 .LASF8222
     /tmp/cciiZT4Y.s:95380  .debug_str:000000000001b888 .LASF8223
     /tmp/cciiZT4Y.s:100466  .debug_str:0000000000030689 .LASF8224
     /tmp/cciiZT4Y.s:97600  .debug_str:00000000000250b7 .LASF8225
     /tmp/cciiZT4Y.s:89888  .debug_str:00000000000053c2 .LASF8226
     /tmp/cciiZT4Y.s:100468  .debug_str:00000000000306a2 .LASF8227
     /tmp/cciiZT4Y.s:91392  .debug_str:000000000000ba26 .LASF8228
     /tmp/cciiZT4Y.s:101940  .debug_str:0000000000036a0f .LASF8229
     /tmp/cciiZT4Y.s:94326  .debug_str:000000000001713e .LASF8230
     /tmp/cciiZT4Y.s:100480  .debug_str:00000000000307ac .LASF8231
     /tmp/cciiZT4Y.s:101416  .debug_str:000000000003454f .LASF8232
     /tmp/cciiZT4Y.s:90852  .debug_str:000000000000954a .LASF8233
     /tmp/cciiZT4Y.s:100830  .debug_str:0000000000031dab .LASF8234
     /tmp/cciiZT4Y.s:101418  .debug_str:000000000003455c .LASF8235
     /tmp/cciiZT4Y.s:93074  .debug_str:0000000000012100 .LASF8236
     /tmp/cciiZT4Y.s:98522  .debug_str:00000000000289ee .LASF8237
     /tmp/cciiZT4Y.s:101420  .debug_str:0000000000034569 .LASF8238
     /tmp/cciiZT4Y.s:90858  .debug_str:000000000000958e .LASF8239
     /tmp/cciiZT4Y.s:101794  .debug_str:000000000003601d .LASF8240
     /tmp/cciiZT4Y.s:99966  .debug_str:000000000002e51e .LASF8241
     /tmp/cciiZT4Y.s:90322  .debug_str:00000000000071dc .LASF8242
     /tmp/cciiZT4Y.s:95710  .debug_str:000000000001d051 .LASF8243
     /tmp/cciiZT4Y.s:103992  .debug_str:000000000003eaeb .LASF8244
     /tmp/cciiZT4Y.s:95458  .debug_str:000000000001be33 .LASF8245
     /tmp/cciiZT4Y.s:107110  .debug_str:000000000004bda2 .LASF8246
     /tmp/cciiZT4Y.s:92994  .debug_str:0000000000011b6b .LASF8247
     /tmp/cciiZT4Y.s:103272  .debug_str:000000000003bac8 .LASF8248
     /tmp/cciiZT4Y.s:93376  .debug_str:0000000000013612 .LASF8249
     /tmp/cciiZT4Y.s:106520  .debug_str:000000000004950f .LASF8250
     /tmp/cciiZT4Y.s:95652  .debug_str:000000000001cc4d .LASF8251
     /tmp/cciiZT4Y.s:88800  .debug_str:0000000000000974 .LASF8252
     /tmp/cciiZT4Y.s:96616  .debug_str:0000000000020f57 .LASF8253
     /tmp/cciiZT4Y.s:100878  .debug_str:00000000000320d0 .LASF8254
     /tmp/cciiZT4Y.s:105646  .debug_str:0000000000045bd4 .LASF8255
     /tmp/cciiZT4Y.s:94448  .debug_str:0000000000017a59 .LASF8256
     /tmp/cciiZT4Y.s:98712  .debug_str:0000000000029638 .LASF8257
     /tmp/cciiZT4Y.s:103644  .debug_str:000000000003d2e8 .LASF8258
     /tmp/cciiZT4Y.s:105102  .debug_str:000000000004389f .LASF8259
     /tmp/cciiZT4Y.s:101642  .debug_str:00000000000354d1 .LASF8260
     /tmp/cciiZT4Y.s:105316  .debug_str:0000000000044619 .LASF8261
     /tmp/cciiZT4Y.s:91340  .debug_str:000000000000b67c .LASF8262
     /tmp/cciiZT4Y.s:103154  .debug_str:000000000003b2c0 .LASF8263
     /tmp/cciiZT4Y.s:95866  .debug_str:000000000001da54 .LASF8264
     /tmp/cciiZT4Y.s:104622  .debug_str:00000000000415a7 .LASF8265
     /tmp/cciiZT4Y.s:107746  .debug_str:000000000004e9cf .LASF8266
     /tmp/cciiZT4Y.s:104708  .debug_str:0000000000041d58 .LASF8267
     /tmp/cciiZT4Y.s:93622  .debug_str:00000000000144ec .LASF8268
     /tmp/cciiZT4Y.s:99720  .debug_str:000000000002d520 .LASF8269
     /tmp/cciiZT4Y.s:99638  .debug_str:000000000002d03b .LASF8270
     /tmp/cciiZT4Y.s:104106  .debug_str:000000000003f1dc .LASF8271
     /tmp/cciiZT4Y.s:99960  .debug_str:000000000002e4bb .LASF8272
     /tmp/cciiZT4Y.s:101580  .debug_str:0000000000035057 .LASF8273
     /tmp/cciiZT4Y.s:89472  .debug_str:00000000000036fe .LASF8274
     /tmp/cciiZT4Y.s:99736  .debug_str:000000000002d61d .LASF8275
     /tmp/cciiZT4Y.s:99554  .debug_str:000000000002caf3 .LASF8276
     /tmp/cciiZT4Y.s:96044  .debug_str:000000000001e753 .LASF8277
     /tmp/cciiZT4Y.s:99168  .debug_str:000000000002b344 .LASF8278
     /tmp/cciiZT4Y.s:88828  .debug_str:0000000000000b38 .LASF8279
     /tmp/cciiZT4Y.s:97954  .debug_str:0000000000026464 .LASF8280
     /tmp/cciiZT4Y.s:101382  .debug_str:00000000000342ea .LASF8281
     /tmp/cciiZT4Y.s:98412  .debug_str:0000000000028232 .LASF8282
     /tmp/cciiZT4Y.s:95288  .debug_str:000000000001b289 .LASF8283
     /tmp/cciiZT4Y.s:108054  .debug_str:000000000004feb3 .LASF8284
     /tmp/cciiZT4Y.s:96478  .debug_str:0000000000020684 .LASF8285
     /tmp/cciiZT4Y.s:91188  .debug_str:000000000000abac .LASF8286
     /tmp/cciiZT4Y.s:101526  .debug_str:0000000000034d68 .LASF8287
     /tmp/cciiZT4Y.s:108058  .debug_str:000000000004fedd .LASF8288
     /tmp/cciiZT4Y.s:90740  .debug_str:0000000000008d5a .LASF8289
     /tmp/cciiZT4Y.s:90506  .debug_str:0000000000007df1 .LASF8290
     /tmp/cciiZT4Y.s:96918  .debug_str:000000000002248b .LASF8291
     /tmp/cciiZT4Y.s:106610  .debug_str:0000000000049b74 .LASF8292
     /tmp/cciiZT4Y.s:92348  .debug_str:000000000000f50d .LASF8293
     /tmp/cciiZT4Y.s:100794  .debug_str:0000000000031bb9 .LASF8294
     /tmp/cciiZT4Y.s:96342  .debug_str:000000000001fbf6 .LASF8295
     /tmp/cciiZT4Y.s:90516  .debug_str:0000000000007e8a .LASF8296
     /tmp/cciiZT4Y.s:95026  .debug_str:0000000000019fc5 .LASF8297
     /tmp/cciiZT4Y.s:93534  .debug_str:0000000000013f72 .LASF8298
     /tmp/cciiZT4Y.s:106950  .debug_str:000000000004b2a0 .LASF8299
     /tmp/cciiZT4Y.s:103056  .debug_str:000000000003abfd .LASF8300
     /tmp/cciiZT4Y.s:108012  .debug_str:000000000004fbc3 .LASF8301
     /tmp/cciiZT4Y.s:91950  .debug_str:000000000000df23 .LASF8302
     /tmp/cciiZT4Y.s:89674  .debug_str:0000000000004616 .LASF8303
     /tmp/cciiZT4Y.s:89758  .debug_str:0000000000004b98 .LASF8304
     /tmp/cciiZT4Y.s:93246  .debug_str:0000000000012c4a .LASF8305
     /tmp/cciiZT4Y.s:106564  .debug_str:0000000000049803 .LASF8306
     /tmp/cciiZT4Y.s:92510  .debug_str:000000000000ffd3 .LASF8307
     /tmp/cciiZT4Y.s:102808  .debug_str:0000000000039c31 .LASF8308
     /tmp/cciiZT4Y.s:94578  .debug_str:000000000001828d .LASF8309
     /tmp/cciiZT4Y.s:92498  .debug_str:000000000000feb8 .LASF8310
     /tmp/cciiZT4Y.s:102782  .debug_str:0000000000039b43 .LASF8311
     /tmp/cciiZT4Y.s:96858  .debug_str:0000000000022008 .LASF8312
     /tmp/cciiZT4Y.s:102358  .debug_str:00000000000384a1 .LASF8313
     /tmp/cciiZT4Y.s:105744  .debug_str:0000000000046286 .LASF8314
     /tmp/cciiZT4Y.s:95794  .debug_str:000000000001d544 .LASF8315
     /tmp/cciiZT4Y.s:88824  .debug_str:0000000000000b1f .LASF8316
     /tmp/cciiZT4Y.s:107744  .debug_str:000000000004e9c7 .LASF8317
     /tmp/cciiZT4Y.s:102832  .debug_str:0000000000039dc8 .LASF8318
     /tmp/cciiZT4Y.s:96562  .debug_str:0000000000020c5a .LASF8319
     /tmp/cciiZT4Y.s:93412  .debug_str:00000000000137dc .LASF8320
     /tmp/cciiZT4Y.s:100426  .debug_str:00000000000303c1 .LASF8321
     /tmp/cciiZT4Y.s:92948  .debug_str:00000000000117e6 .LASF8322
     /tmp/cciiZT4Y.s:103212  .debug_str:000000000003b6fe .LASF8323
     /tmp/cciiZT4Y.s:100304  .debug_str:000000000002fc12 .LASF8324
     /tmp/cciiZT4Y.s:97150  .debug_str:00000000000232e9 .LASF8325
     /tmp/cciiZT4Y.s:100664  .debug_str:000000000003137d .LASF8326
     /tmp/cciiZT4Y.s:90076  .debug_str:000000000000600a .LASF8327
     /tmp/cciiZT4Y.s:106096  .debug_str:000000000004795e .LASF8328
     /tmp/cciiZT4Y.s:91440  .debug_str:000000000000be55 .LASF8329
     /tmp/cciiZT4Y.s:101620  .debug_str:000000000003538e .LASF8330
     /tmp/cciiZT4Y.s:93030  .debug_str:0000000000011e14 .LASF8331
     /tmp/cciiZT4Y.s:102406  .debug_str:00000000000386d2 .LASF8332
     /tmp/cciiZT4Y.s:88882  .debug_str:0000000000000ea8 .LASF8333
     /tmp/cciiZT4Y.s:102476  .debug_str:0000000000038a8e .LASF8334
     /tmp/cciiZT4Y.s:105846  .debug_str:000000000004685f .LASF8335
     /tmp/cciiZT4Y.s:106200  .debug_str:0000000000048081 .LASF8336
     /tmp/cciiZT4Y.s:91278  .debug_str:000000000000b288 .LASF8337
     /tmp/cciiZT4Y.s:101606  .debug_str:0000000000035288 .LASF8338
     /tmp/cciiZT4Y.s:96748  .debug_str:0000000000021893 .LASF8339
     /tmp/cciiZT4Y.s:96006  .debug_str:000000000001e4a7 .LASF8340
     /tmp/cciiZT4Y.s:105596  .debug_str:00000000000458ef .LASF8341
     /tmp/cciiZT4Y.s:88856  .debug_str:0000000000000cdb .LASF8342
     /tmp/cciiZT4Y.s:97870  .debug_str:0000000000025ec1 .LASF8343
     /tmp/cciiZT4Y.s:103120  .debug_str:000000000003b090 .LASF8344
     /tmp/cciiZT4Y.s:107514  .debug_str:000000000004d983 .LASF8345
     /tmp/cciiZT4Y.s:102672  .debug_str:0000000000039519 .LASF8346
     /tmp/cciiZT4Y.s:95514  .debug_str:000000000001c1c6 .LASF8347
     /tmp/cciiZT4Y.s:96114  .debug_str:000000000001ec06 .LASF8348
     /tmp/cciiZT4Y.s:103250  .debug_str:000000000003b93e .LASF8349
     /tmp/cciiZT4Y.s:104448  .debug_str:000000000004074e .LASF8350
     /tmp/cciiZT4Y.s:97522  .debug_str:0000000000024c6d .LASF8351
     /tmp/cciiZT4Y.s:91516  .debug_str:000000000000c2f2 .LASF8352
     /tmp/cciiZT4Y.s:100948  .debug_str:0000000000032658 .LASF8353
     /tmp/cciiZT4Y.s:98266  .debug_str:000000000002785e .LASF8354
     /tmp/cciiZT4Y.s:96398  .debug_str:00000000000200af .LASF8355
     /tmp/cciiZT4Y.s:99174  .debug_str:000000000002b3b0 .LASF8356
     /tmp/cciiZT4Y.s:99450  .debug_str:000000000002c532 .LASF8357
     /tmp/cciiZT4Y.s:107232  .debug_str:000000000004c59d .LASF8358
     /tmp/cciiZT4Y.s:103224  .debug_str:000000000003b7d6 .LASF8359
     /tmp/cciiZT4Y.s:104408  .debug_str:0000000000040455 .LASF8360
     /tmp/cciiZT4Y.s:96158  .debug_str:000000000001eeba .LASF8361
     /tmp/cciiZT4Y.s:104640  .debug_str:000000000004168e .LASF8362
     /tmp/cciiZT4Y.s:97426  .debug_str:000000000002469a .LASF8363
     /tmp/cciiZT4Y.s:92080  .debug_str:000000000000e795 .LASF8364
     /tmp/cciiZT4Y.s:105416  .debug_str:0000000000044cd0 .LASF8365
     /tmp/cciiZT4Y.s:90450  .debug_str:0000000000007a3b .LASF8366
     /tmp/cciiZT4Y.s:102070  .debug_str:0000000000037293 .LASF8367
     /tmp/cciiZT4Y.s:105482  .debug_str:000000000004509b .LASF8368
     /tmp/cciiZT4Y.s:101912  .debug_str:00000000000367d0 .LASF8369
     /tmp/cciiZT4Y.s:91198  .debug_str:000000000000ac13 .LASF8370
     /tmp/cciiZT4Y.s:101534  .debug_str:0000000000034dd9 .LASF8371
     /tmp/cciiZT4Y.s:97704  .debug_str:000000000002565d .LASF8372
     /tmp/cciiZT4Y.s:91358  .debug_str:000000000000b81e .LASF8373
     /tmp/cciiZT4Y.s:101694  .debug_str:000000000003590a .LASF8374
     /tmp/cciiZT4Y.s:95530  .debug_str:000000000001c2ae .LASF8375
     /tmp/cciiZT4Y.s:94504  .debug_str:0000000000017e61 .LASF8376
     /tmp/cciiZT4Y.s:94308  .debug_str:000000000001705c .LASF8377
     /tmp/cciiZT4Y.s:98102  .debug_str:0000000000026e2a .LASF8378
     /tmp/cciiZT4Y.s:89942  .debug_str:000000000000574f .LASF8379
     /tmp/cciiZT4Y.s:90510  .debug_str:0000000000007e19 .LASF8380
     /tmp/cciiZT4Y.s:97338  .debug_str:0000000000023fe8 .LASF8381
     /tmp/cciiZT4Y.s:101788  .debug_str:0000000000035fd1 .LASF8382
     /tmp/cciiZT4Y.s:88932  .debug_str:000000000000121a .LASF8383
     /tmp/cciiZT4Y.s:98012  .debug_str:00000000000267a9 .LASF8384
     /tmp/cciiZT4Y.s:102862  .debug_str:0000000000039f53 .LASF8385
     /tmp/cciiZT4Y.s:89756  .debug_str:0000000000004b8c .LASF8386
     /tmp/cciiZT4Y.s:99378  .debug_str:000000000002c13d .LASF8387
     /tmp/cciiZT4Y.s:100796  .debug_str:0000000000031bdd .LASF8388
     /tmp/cciiZT4Y.s:97998  .debug_str:00000000000266d5 .LASF8389
     /tmp/cciiZT4Y.s:94966  .debug_str:0000000000019c0e .LASF8390
     /tmp/cciiZT4Y.s:95726  .debug_str:000000000001d105 .LASF8391
     /tmp/cciiZT4Y.s:102420  .debug_str:00000000000387be .LASF8392
     /tmp/cciiZT4Y.s:105518  .debug_str:000000000004533a .LASF8393
     /tmp/cciiZT4Y.s:101368  .debug_str:000000000003423d .LASF8394
     /tmp/cciiZT4Y.s:107918  .debug_str:000000000004f557 .LASF8395
     /tmp/cciiZT4Y.s:97620  .debug_str:00000000000251fc .LASF8396
     /tmp/cciiZT4Y.s:94300  .debug_str:0000000000016fef .LASF8397
     /tmp/cciiZT4Y.s:96606  .debug_str:0000000000020ec0 .LASF8398
     /tmp/cciiZT4Y.s:102238  .debug_str:0000000000037cb1 .LASF8399
     /tmp/cciiZT4Y.s:99004  .debug_str:000000000002a945 .LASF8400
     /tmp/cciiZT4Y.s:105828  .debug_str:00000000000467aa .LASF8401
     /tmp/cciiZT4Y.s:100138  .debug_str:000000000002f068 .LASF8402
     /tmp/cciiZT4Y.s:99006  .debug_str:000000000002a958 .LASF8403
     /tmp/cciiZT4Y.s:105830  .debug_str:00000000000467bd .LASF8404
     /tmp/cciiZT4Y.s:95566  .debug_str:000000000001c634 .LASF8405
     /tmp/cciiZT4Y.s:99008  .debug_str:000000000002a96b .LASF8406
     /tmp/cciiZT4Y.s:98346  .debug_str:0000000000027dff .LASF8407
     /tmp/cciiZT4Y.s:107138  .debug_str:000000000004bf1f .LASF8408
     /tmp/cciiZT4Y.s:98410  .debug_str:000000000002821f .LASF8409
     /tmp/cciiZT4Y.s:105834  .debug_str:00000000000467dd .LASF8410
     /tmp/cciiZT4Y.s:101098  .debug_str:0000000000033012 .LASF8411
     /tmp/cciiZT4Y.s:99012  .debug_str:000000000002a99f .LASF8412
     /tmp/cciiZT4Y.s:105836  .debug_str:00000000000467f0 .LASF8413
     /tmp/cciiZT4Y.s:94866  .debug_str:0000000000019513 .LASF8414
     /tmp/cciiZT4Y.s:99014  .debug_str:000000000002a9b2 .LASF8415
     /tmp/cciiZT4Y.s:105838  .debug_str:0000000000046803 .LASF8416
     /tmp/cciiZT4Y.s:88700  .debug_str:000000000000027c .LASF8417
     /tmp/cciiZT4Y.s:99016  .debug_str:000000000002a9c5 .LASF8418
     /tmp/cciiZT4Y.s:105840  .debug_str:0000000000046816 .LASF8419
     /tmp/cciiZT4Y.s:102032  .debug_str:0000000000036faa .LASF8420
     /tmp/cciiZT4Y.s:99018  .debug_str:000000000002a9d8 .LASF8421
     /tmp/cciiZT4Y.s:105842  .debug_str:0000000000046829 .LASF8422
     /tmp/cciiZT4Y.s:95852  .debug_str:000000000001d93d .LASF8423
     /tmp/cciiZT4Y.s:99264  .debug_str:000000000002ba67 .LASF8424
     /tmp/cciiZT4Y.s:96088  .debug_str:000000000001eaac .LASF8425
     /tmp/cciiZT4Y.s:102036  .debug_str:0000000000036ff2 .LASF8426
     /tmp/cciiZT4Y.s:105498  .debug_str:00000000000451e0 .LASF8427
     /tmp/cciiZT4Y.s:96090  .debug_str:000000000001eabf .LASF8428
     /tmp/cciiZT4Y.s:99956  .debug_str:000000000002e45e .LASF8429
     /tmp/cciiZT4Y.s:89188  .debug_str:0000000000002500 .LASF8430
     /tmp/cciiZT4Y.s:96092  .debug_str:000000000001ead2 .LASF8431
     /tmp/cciiZT4Y.s:93714  .debug_str:0000000000014ab0 .LASF8432
     /tmp/cciiZT4Y.s:89190  .debug_str:0000000000002513 .LASF8433
     /tmp/cciiZT4Y.s:96094  .debug_str:000000000001eae5 .LASF8434
     /tmp/cciiZT4Y.s:106942  .debug_str:000000000004b210 .LASF8435
     /tmp/cciiZT4Y.s:89192  .debug_str:0000000000002526 .LASF8436
     /tmp/cciiZT4Y.s:96096  .debug_str:000000000001eaf8 .LASF8437
     /tmp/cciiZT4Y.s:95586  .debug_str:000000000001c747 .LASF8438
     /tmp/cciiZT4Y.s:89194  .debug_str:0000000000002539 .LASF8439
     /tmp/cciiZT4Y.s:96098  .debug_str:000000000001eb0b .LASF8440
     /tmp/cciiZT4Y.s:94972  .debug_str:0000000000019c84 .LASF8441
     /tmp/cciiZT4Y.s:89196  .debug_str:000000000000254c .LASF8442
     /tmp/cciiZT4Y.s:96100  .debug_str:000000000001eb1e .LASF8443
     /tmp/cciiZT4Y.s:107942  .debug_str:000000000004f711 .LASF8444
     /tmp/cciiZT4Y.s:89198  .debug_str:000000000000255f .LASF8445
     /tmp/cciiZT4Y.s:96102  .debug_str:000000000001eb31 .LASF8446
     /tmp/cciiZT4Y.s:101846  .debug_str:0000000000036364 .LASF8447
     /tmp/cciiZT4Y.s:106852  .debug_str:000000000004ab59 .LASF8448
     /tmp/cciiZT4Y.s:98920  .debug_str:000000000002a468 .LASF8449
     /tmp/cciiZT4Y.s:106972  .debug_str:000000000004b445 .LASF8450
     /tmp/cciiZT4Y.s:97014  .debug_str:0000000000022a10 .LASF8451
     /tmp/cciiZT4Y.s:88954  .debug_str:000000000000136a .LASF8452
     /tmp/cciiZT4Y.s:93542  .debug_str:0000000000013fbe .LASF8453
     /tmp/cciiZT4Y.s:95826  .debug_str:000000000001d76f .LASF8454
     /tmp/cciiZT4Y.s:101008  .debug_str:0000000000032a65 .LASF8455
     /tmp/cciiZT4Y.s:99880  .debug_str:000000000002df70 .LASF8456
     /tmp/cciiZT4Y.s:97540  .debug_str:0000000000024d8f .LASF8457
     /tmp/cciiZT4Y.s:102960  .debug_str:000000000003a55b .LASF8458
     /tmp/cciiZT4Y.s:107332  .debug_str:000000000004cce4 .LASF8459
     /tmp/cciiZT4Y.s:97860  .debug_str:0000000000025e68 .LASF8460
     /tmp/cciiZT4Y.s:94748  .debug_str:0000000000018ca7 .LASF8461
     /tmp/cciiZT4Y.s:90582  .debug_str:0000000000008282 .LASF8462
     /tmp/cciiZT4Y.s:101568  .debug_str:0000000000034f90 .LASF8463
     /tmp/cciiZT4Y.s:107872  .debug_str:000000000004f21b .LASF8464
     /tmp/cciiZT4Y.s:90966  .debug_str:0000000000009d54 .LASF8465
     /tmp/cciiZT4Y.s:102124  .debug_str:00000000000375b7 .LASF8466
     /tmp/cciiZT4Y.s:100940  .debug_str:00000000000325c2 .LASF8467
     /tmp/cciiZT4Y.s:90040  .debug_str:0000000000005da7 .LASF8468
     /tmp/cciiZT4Y.s:104088  .debug_str:000000000003f08e .LASF8469
     /tmp/cciiZT4Y.s:100236  .debug_str:000000000002f7f6 .LASF8470
     /tmp/cciiZT4Y.s:93062  .debug_str:0000000000011ffd .LASF8471
     /tmp/cciiZT4Y.s:101834  .debug_str:00000000000362f8 .LASF8472
     /tmp/cciiZT4Y.s:105236  .debug_str:00000000000440e8 .LASF8473
     /tmp/cciiZT4Y.s:95904  .debug_str:000000000001dd88 .LASF8474
     /tmp/cciiZT4Y.s:107172  .debug_str:000000000004c184 .LASF8475
     /tmp/cciiZT4Y.s:103274  .debug_str:000000000003bae3 .LASF8476
     /tmp/cciiZT4Y.s:89842  .debug_str:00000000000050d3 .LASF8477
     /tmp/cciiZT4Y.s:105464  .debug_str:0000000000044f92 .LASF8478
     /tmp/cciiZT4Y.s:89862  .debug_str:0000000000005240 .LASF8479
     /tmp/cciiZT4Y.s:105014  .debug_str:00000000000432a1 .LASF8480
     /tmp/cciiZT4Y.s:102220  .debug_str:0000000000037b66 .LASF8481
     /tmp/cciiZT4Y.s:105630  .debug_str:0000000000045adb .LASF8482
     /tmp/cciiZT4Y.s:99420  .debug_str:000000000002c3c9 .LASF8483
     /tmp/cciiZT4Y.s:93202  .debug_str:000000000001294f .LASF8484
     /tmp/cciiZT4Y.s:106054  .debug_str:0000000000047674 .LASF8485
     /tmp/cciiZT4Y.s:97184  .debug_str:000000000002352d .LASF8486
     /tmp/cciiZT4Y.s:92664  .debug_str:000000000001078e .LASF8487
     /tmp/cciiZT4Y.s:91406  .debug_str:000000000000bb67 .LASF8488
     /tmp/cciiZT4Y.s:106570  .debug_str:0000000000049851 .LASF8489
     /tmp/cciiZT4Y.s:107350  .debug_str:000000000004ce61 .LASF8490
     /tmp/cciiZT4Y.s:91056  .debug_str:000000000000a342 .LASF8491
     /tmp/cciiZT4Y.s:91844  .debug_str:000000000000d982 .LASF8492
     /tmp/cciiZT4Y.s:96732  .debug_str:00000000000217ae .LASF8493
     /tmp/cciiZT4Y.s:96518  .debug_str:0000000000020986 .LASF8494
     /tmp/cciiZT4Y.s:104816  .debug_str:000000000004259d .LASF8495
     /tmp/cciiZT4Y.s:92000  .debug_str:000000000000e281 .LASF8496
     /tmp/cciiZT4Y.s:106212  .debug_str:000000000004817d .LASF8497
     /tmp/cciiZT4Y.s:88818  .debug_str:0000000000000ad0 .LASF8498
     /tmp/cciiZT4Y.s:91152  .debug_str:000000000000a965 .LASF8499
     /tmp/cciiZT4Y.s:90332  .debug_str:000000000000729f .LASF8500
     /tmp/cciiZT4Y.s:104038  .debug_str:000000000003ed5a .LASF8501
     /tmp/cciiZT4Y.s:98302  .debug_str:0000000000027adb .LASF8502
     /tmp/cciiZT4Y.s:89814  .debug_str:0000000000004f4f .LASF8503
     /tmp/cciiZT4Y.s:106074  .debug_str:00000000000477bb .LASF8504
     /tmp/cciiZT4Y.s:95138  .debug_str:000000000001a7e1 .LASF8505
     /tmp/cciiZT4Y.s:98606  .debug_str:0000000000028fa7 .LASF8506
     /tmp/cciiZT4Y.s:96214  .debug_str:000000000001f318 .LASF8507
     /tmp/cciiZT4Y.s:88798  .debug_str:0000000000000964 .LASF8508
     /tmp/cciiZT4Y.s:89572  .debug_str:0000000000003de3 .LASF8509
     /tmp/cciiZT4Y.s:99106  .debug_str:000000000002b012 .LASF8510
     /tmp/cciiZT4Y.s:106272  .debug_str:0000000000048533 .LASF8511
     /tmp/cciiZT4Y.s:97638  .debug_str:0000000000025308 .LASF8512
     /tmp/cciiZT4Y.s:89326  .debug_str:0000000000002dc1 .LASF8513
     /tmp/cciiZT4Y.s:93130  .debug_str:00000000000124e3 .LASF8514
     /tmp/cciiZT4Y.s:100014  .debug_str:000000000002e8a0 .LASF8515
     /tmp/cciiZT4Y.s:95068  .debug_str:000000000001a2f5 .LASF8516
     /tmp/cciiZT4Y.s:93998  .debug_str:0000000000015cbc .LASF8517
     /tmp/cciiZT4Y.s:103232  .debug_str:000000000003b846 .LASF8518
     /tmp/cciiZT4Y.s:106988  .debug_str:000000000004b589 .LASF8519
     /tmp/cciiZT4Y.s:97864  .debug_str:0000000000025e77 .LASF8520
     /tmp/cciiZT4Y.s:91744  .debug_str:000000000000d324 .LASF8521
     /tmp/cciiZT4Y.s:101198  .debug_str:0000000000033713 .LASF8522
     /tmp/cciiZT4Y.s:99150  .debug_str:000000000002b297 .LASF8523
     /tmp/cciiZT4Y.s:99590  .debug_str:000000000002cda1 .LASF8524
     /tmp/cciiZT4Y.s:103768  .debug_str:000000000003dbfa .LASF8525
     /tmp/cciiZT4Y.s:102120  .debug_str:0000000000037580 .LASF8526
     /tmp/cciiZT4Y.s:97654  .debug_str:0000000000025407 .LASF8527
     /tmp/cciiZT4Y.s:98228  .debug_str:0000000000027598 .LASF8528
     /tmp/cciiZT4Y.s:100556  .debug_str:0000000000030cc8 .LASF8529
     /tmp/cciiZT4Y.s:91024  .debug_str:000000000000a0d7 .LASF8530
     /tmp/cciiZT4Y.s:102616  .debug_str:0000000000039268 .LASF8531
     /tmp/cciiZT4Y.s:93552  .debug_str:000000000001405f .LASF8532
     /tmp/cciiZT4Y.s:93858  .debug_str:0000000000015332 .LASF8533
     /tmp/cciiZT4Y.s:95690  .debug_str:000000000001ced2 .LASF8534
     /tmp/cciiZT4Y.s:95200  .debug_str:000000000001acfe .LASF8535
     /tmp/cciiZT4Y.s:95526  .debug_str:000000000001c275 .LASF8536
     /tmp/cciiZT4Y.s:90424  .debug_str:00000000000078b6 .LASF8537
     /tmp/cciiZT4Y.s:92516  .debug_str:0000000000010013 .LASF8538
     /tmp/cciiZT4Y.s:100282  .debug_str:000000000002fad9 .LASF8539
     /tmp/cciiZT4Y.s:93042  .debug_str:0000000000011eb5 .LASF8540
     /tmp/cciiZT4Y.s:94152  .debug_str:00000000000165e6 .LASF8541
     /tmp/cciiZT4Y.s:96580  .debug_str:0000000000020d3e .LASF8542
     /tmp/cciiZT4Y.s:93528  .debug_str:0000000000013f1f .LASF8543
     /tmp/cciiZT4Y.s:90662  .debug_str:0000000000008841 .LASF8544
     /tmp/cciiZT4Y.s:99166  .debug_str:000000000002b336 .LASF8545
     /tmp/cciiZT4Y.s:100920  .debug_str:00000000000323dd .LASF8546
     /tmp/cciiZT4Y.s:108062  .debug_str:000000000004ff30 .LASF8547
     /tmp/cciiZT4Y.s:89458  .debug_str:0000000000003634 .LASF8548
     /tmp/cciiZT4Y.s:98578  .debug_str:0000000000028da3 .LASF8549
     /tmp/cciiZT4Y.s:107474  .debug_str:000000000004d648 .LASF8550
     /tmp/cciiZT4Y.s:90258  .debug_str:0000000000006c98 .LASF8551
     /tmp/cciiZT4Y.s:98474  .debug_str:0000000000028639 .LASF8552
     /tmp/cciiZT4Y.s:91534  .debug_str:000000000000c408 .LASF8553
     /tmp/cciiZT4Y.s:101490  .debug_str:0000000000034a1a .LASF8554
     /tmp/cciiZT4Y.s:99840  .debug_str:000000000002dce9 .LASF8555
     /tmp/cciiZT4Y.s:96308  .debug_str:000000000001fa0e .LASF8556
     /tmp/cciiZT4Y.s:106064  .debug_str:00000000000476f5 .LASF8557
     /tmp/cciiZT4Y.s:99560  .debug_str:000000000002cb93 .LASF8558
     /tmp/cciiZT4Y.s:107132  .debug_str:000000000004beed .LASF8559
     /tmp/cciiZT4Y.s:100584  .debug_str:0000000000030e75 .LASF8560
     /tmp/cciiZT4Y.s:94592  .debug_str:00000000000183c2 .LASF8561
     /tmp/cciiZT4Y.s:92714  .debug_str:0000000000010a8d .LASF8562
     /tmp/cciiZT4Y.s:96420  .debug_str:000000000002021a .LASF8563
     /tmp/cciiZT4Y.s:103368  .debug_str:000000000003c1e6 .LASF8564
     /tmp/cciiZT4Y.s:95894  .debug_str:000000000001dcdc .LASF8565
     /tmp/cciiZT4Y.s:91520  .debug_str:000000000000c322 .LASF8566
     /tmp/cciiZT4Y.s:90390  .debug_str:00000000000075f8 .LASF8567
     /tmp/cciiZT4Y.s:104854  .debug_str:0000000000042849 .LASF8568
     /tmp/cciiZT4Y.s:97836  .debug_str:0000000000025df6 .LASF8569
     /tmp/cciiZT4Y.s:89600  .debug_str:000000000000403a .LASF8570
     /tmp/cciiZT4Y.s:95022  .debug_str:0000000000019f88 .LASF8571
     /tmp/cciiZT4Y.s:107576  .debug_str:000000000004de84 .LASF8572
     /tmp/cciiZT4Y.s:89488  .debug_str:0000000000003842 .LASF8573
     /tmp/cciiZT4Y.s:99274  .debug_str:000000000002bae5 .LASF8574
     /tmp/cciiZT4Y.s:92280  .debug_str:000000000000f10d .LASF8575
     /tmp/cciiZT4Y.s:100764  .debug_str:0000000000031a19 .LASF8576
     /tmp/cciiZT4Y.s:102092  .debug_str:00000000000373f9 .LASF8577
     /tmp/cciiZT4Y.s:105504  .debug_str:0000000000045224 .LASF8578
     /tmp/cciiZT4Y.s:94532  .debug_str:0000000000017fcb .LASF8579
     /tmp/cciiZT4Y.s:102100  .debug_str:0000000000037479 .LASF8580
     /tmp/cciiZT4Y.s:105512  .debug_str:00000000000452e3 .LASF8581
     /tmp/cciiZT4Y.s:105700  .debug_str:0000000000045f8f .LASF8582
     /tmp/cciiZT4Y.s:104320  .debug_str:000000000003fef7 .LASF8583
     /tmp/cciiZT4Y.s:100660  .debug_str:0000000000031328 .LASF8584
     /tmp/cciiZT4Y.s:98768  .debug_str:0000000000029a14 .LASF8585
     /tmp/cciiZT4Y.s:106992  .debug_str:000000000004b5c7 .LASF8586
     /tmp/cciiZT4Y.s:103208  .debug_str:000000000003b6e0 .LASF8587
     /tmp/cciiZT4Y.s:98288  .debug_str:00000000000279fb .LASF8588
     /tmp/cciiZT4Y.s:100544  .debug_str:0000000000030c11 .LASF8589
     /tmp/cciiZT4Y.s:100968  .debug_str:00000000000327ae .LASF8590
     /tmp/cciiZT4Y.s:99860  .debug_str:000000000002de5b .LASF8591
     /tmp/cciiZT4Y.s:107036  .debug_str:000000000004b8a4 .LASF8592
     /tmp/cciiZT4Y.s:106518  .debug_str:00000000000494fb .LASF8593
     /tmp/cciiZT4Y.s:105306  .debug_str:0000000000044580 .LASF8594
     /tmp/cciiZT4Y.s:107516  .debug_str:000000000004d9aa .LASF8595
     /tmp/cciiZT4Y.s:102750  .debug_str:00000000000398d4 .LASF8596
     /tmp/cciiZT4Y.s:102252  .debug_str:0000000000037d62 .LASF8597
     /tmp/cciiZT4Y.s:92892  .debug_str:000000000001154f .LASF8598
     /tmp/cciiZT4Y.s:97810  .debug_str:0000000000025c6d .LASF8599
     /tmp/cciiZT4Y.s:89316  .debug_str:0000000000002d40 .LASF8600
     /tmp/cciiZT4Y.s:92096  .debug_str:000000000000e825 .LASF8601
     /tmp/cciiZT4Y.s:94970  .debug_str:0000000000019c6b .LASF8602
     /tmp/cciiZT4Y.s:97230  .debug_str:000000000002391b .LASF8603
     /tmp/cciiZT4Y.s:103716  .debug_str:000000000003d7b6 .LASF8604
     /tmp/cciiZT4Y.s:98208  .debug_str:0000000000027419 .LASF8605
     /tmp/cciiZT4Y.s:105670  .debug_str:0000000000045d68 .LASF8606
     /tmp/cciiZT4Y.s:107160  .debug_str:000000000004c0a7 .LASF8607
     /tmp/cciiZT4Y.s:101692  .debug_str:00000000000358f3 .LASF8608
     /tmp/cciiZT4Y.s:93898  .debug_str:0000000000015599 .LASF8609
     /tmp/cciiZT4Y.s:104006  .debug_str:000000000003eb6b .LASF8610
     /tmp/cciiZT4Y.s:98540  .debug_str:0000000000028b39 .LASF8611
     /tmp/cciiZT4Y.s:98620  .debug_str:00000000000290b8 .LASF8612
     /tmp/cciiZT4Y.s:92198  .debug_str:000000000000ed84 .LASF8613
     /tmp/cciiZT4Y.s:98934  .debug_str:000000000002a540 .LASF8614
     /tmp/cciiZT4Y.s:107660  .debug_str:000000000004e469 .LASF8615
     /tmp/cciiZT4Y.s:93884  .debug_str:00000000000154b6 .LASF8616
     /tmp/cciiZT4Y.s:93842  .debug_str:00000000000151ed .LASF8617
     /tmp/cciiZT4Y.s:97138  .debug_str:00000000000231d5 .LASF8618
     /tmp/cciiZT4Y.s:90732  .debug_str:0000000000008ce5 .LASF8619
     /tmp/cciiZT4Y.s:95104  .debug_str:000000000001a5de .LASF8620
     /tmp/cciiZT4Y.s:95656  .debug_str:000000000001cc75 .LASF8621
     /tmp/cciiZT4Y.s:107734  .debug_str:000000000004e96d .LASF8622
     /tmp/cciiZT4Y.s:91034  .debug_str:000000000000a18b .LASF8623
     /tmp/cciiZT4Y.s:105436  .debug_str:0000000000044e1e .LASF8624
     /tmp/cciiZT4Y.s:94810  .debug_str:000000000001911f .LASF8625
     /tmp/cciiZT4Y.s:105400  .debug_str:0000000000044bef .LASF8626
     /tmp/cciiZT4Y.s:106412  .debug_str:0000000000048e45 .LASF8627
     /tmp/cciiZT4Y.s:100390  .debug_str:0000000000030180 .LASF8628
     /tmp/cciiZT4Y.s:93498  .debug_str:0000000000013d1d .LASF8629
     /tmp/cciiZT4Y.s:91174  .debug_str:000000000000aa91 .LASF8630
     /tmp/cciiZT4Y.s:93422  .debug_str:0000000000013883 .LASF8631
     /tmp/cciiZT4Y.s:104872  .debug_str:000000000004298c .LASF8632
     /tmp/cciiZT4Y.s:100026  .debug_str:000000000002e951 .LASF8633
     /tmp/cciiZT4Y.s:96590  .debug_str:0000000000020df2 .LASF8634
     /tmp/cciiZT4Y.s:92746  .debug_str:0000000000010be9 .LASF8635
     /tmp/cciiZT4Y.s:107158  .debug_str:000000000004c088 .LASF8636
     /tmp/cciiZT4Y.s:101866  .debug_str:00000000000364e5 .LASF8637
     /tmp/cciiZT4Y.s:107208  .debug_str:000000000004c3f9 .LASF8638
     /tmp/cciiZT4Y.s:107526  .debug_str:000000000004da91 .LASF8639
     /tmp/cciiZT4Y.s:91746  .debug_str:000000000000d334 .LASF8640
     /tmp/cciiZT4Y.s:100096  .debug_str:000000000002ee66 .LASF8641
     /tmp/cciiZT4Y.s:103962  .debug_str:000000000003e92b .LASF8642
     /tmp/cciiZT4Y.s:102348  .debug_str:00000000000383b5 .LASF8643
     /tmp/cciiZT4Y.s:90120  .debug_str:0000000000006309 .LASF8644
     /tmp/cciiZT4Y.s:107088  .debug_str:000000000004bc15 .LASF8645
     /tmp/cciiZT4Y.s:100514  .debug_str:00000000000309fc .LASF8646
     /tmp/cciiZT4Y.s:105780  .debug_str:000000000004649a .LASF8647
     /tmp/cciiZT4Y.s:97094  .debug_str:0000000000022f4a .LASF8648
     /tmp/cciiZT4Y.s:100012  .debug_str:000000000002e895 .LASF8649
     /tmp/cciiZT4Y.s:95440  .debug_str:000000000001bd3b .LASF8650
     /tmp/cciiZT4Y.s:105310  .debug_str:00000000000445b0 .LASF8651
     /tmp/cciiZT4Y.s:107238  .debug_str:000000000004c60c .LASF8652
     /tmp/cciiZT4Y.s:102866  .debug_str:0000000000039f6e .LASF8653
     /tmp/cciiZT4Y.s:100922  .debug_str:00000000000323ff .LASF8654
     /tmp/cciiZT4Y.s:91754  .debug_str:000000000000d3d5 .LASF8655
     /tmp/cciiZT4Y.s:99462  .debug_str:000000000002c59e .LASF8656
     /tmp/cciiZT4Y.s:94646  .debug_str:0000000000018738 .LASF8657
     /tmp/cciiZT4Y.s:93080  .debug_str:000000000001216f .LASF8658
     /tmp/cciiZT4Y.s:97518  .debug_str:0000000000024b96 .LASF8659
     /tmp/cciiZT4Y.s:91798  .debug_str:000000000000d642 .LASF8660
     /tmp/cciiZT4Y.s:99038  .debug_str:000000000002ab76 .LASF8661
     /tmp/cciiZT4Y.s:94496  .debug_str:0000000000017de6 .LASF8662
     /tmp/cciiZT4Y.s:91816  .debug_str:000000000000d79f .LASF8663
     /tmp/cciiZT4Y.s:103742  .debug_str:000000000003d9fc .LASF8664
     /tmp/cciiZT4Y.s:95574  .debug_str:000000000001c691 .LASF8665
     /tmp/cciiZT4Y.s:106656  .debug_str:0000000000049e4a .LASF8666
     /tmp/cciiZT4Y.s:103984  .debug_str:000000000003eaad .LASF8667
     /tmp/cciiZT4Y.s:95716  .debug_str:000000000001d0a4 .LASF8668
     /tmp/cciiZT4Y.s:107148  .debug_str:000000000004bfe4 .LASF8669
     /tmp/cciiZT4Y.s:90784  .debug_str:0000000000009098 .LASF8670
     /tmp/cciiZT4Y.s:96976  .debug_str:0000000000022778 .LASF8671
     /tmp/cciiZT4Y.s:102766  .debug_str:00000000000399ed .LASF8672
     /tmp/cciiZT4Y.s:104564  .debug_str:0000000000041191 .LASF8673
     /tmp/cciiZT4Y.s:92692  .debug_str:000000000001094a .LASF8674
     /tmp/cciiZT4Y.s:102408  .debug_str:00000000000386d9 .LASF8675
     /tmp/cciiZT4Y.s:89454  .debug_str:00000000000035f6 .LASF8676
     /tmp/cciiZT4Y.s:99400  .debug_str:000000000002c2a1 .LASF8677
     /tmp/cciiZT4Y.s:107288  .debug_str:000000000004c974 .LASF8678
     /tmp/cciiZT4Y.s:103894  .debug_str:000000000003e481 .LASF8679
     /tmp/cciiZT4Y.s:102116  .debug_str:000000000003755a .LASF8680
     /tmp/cciiZT4Y.s:106862  .debug_str:000000000004abe8 .LASF8681
     /tmp/cciiZT4Y.s:92942  .debug_str:00000000000117a4 .LASF8682
     /tmp/cciiZT4Y.s:90668  .debug_str:0000000000008872 .LASF8683
     /tmp/cciiZT4Y.s:104388  .debug_str:00000000000402cb .LASF8684
     /tmp/cciiZT4Y.s:91832  .debug_str:000000000000d8af .LASF8685
     /tmp/cciiZT4Y.s:107668  .debug_str:000000000004e50a .LASF8686
     /tmp/cciiZT4Y.s:108074  .debug_str:000000000004ffc1 .LASF8687
     /tmp/cciiZT4Y.s:90890  .debug_str:0000000000009783 .LASF8688
     /tmp/cciiZT4Y.s:98472  .debug_str:0000000000028628 .LASF8689
     /tmp/cciiZT4Y.s:90782  .debug_str:0000000000009073 .LASF8690
     /tmp/cciiZT4Y.s:94826  .debug_str:0000000000019204 .LASF8691
     /tmp/cciiZT4Y.s:91282  .debug_str:000000000000b29e .LASF8692
     /tmp/cciiZT4Y.s:93948  .debug_str:00000000000158d2 .LASF8693
     /tmp/cciiZT4Y.s:94526  .debug_str:0000000000017f7e .LASF8694
     /tmp/cciiZT4Y.s:91284  .debug_str:000000000000b2b0 .LASF8695
     /tmp/cciiZT4Y.s:107188  .debug_str:000000000004c26b .LASF8696
     /tmp/cciiZT4Y.s:91792  .debug_str:000000000000d5fa .LASF8697
     /tmp/cciiZT4Y.s:91320  .debug_str:000000000000b55e .LASF8698
     /tmp/cciiZT4Y.s:91576  .debug_str:000000000000c6bc .LASF8699
     /tmp/cciiZT4Y.s:95992  .debug_str:000000000001e3c9 .LASF8700
     /tmp/cciiZT4Y.s:103424  .debug_str:000000000003c54b .LASF8701
     /tmp/cciiZT4Y.s:101600  .debug_str:00000000000351d9 .LASF8702
     /tmp/cciiZT4Y.s:99288  .debug_str:000000000002bb5a .LASF8703
     /tmp/cciiZT4Y.s:94484  .debug_str:0000000000017d2d .LASF8704
     /tmp/cciiZT4Y.s:102530  .debug_str:0000000000038e48 .LASF8705
     /tmp/cciiZT4Y.s:99702  .debug_str:000000000002d419 .LASF8706
     /tmp/cciiZT4Y.s:96866  .debug_str:0000000000022069 .LASF8707
     /tmp/cciiZT4Y.s:104758  .debug_str:0000000000042113 .LASF8708
     /tmp/cciiZT4Y.s:89860  .debug_str:000000000000522b .LASF8709
     /tmp/cciiZT4Y.s:101872  .debug_str:000000000003653c .LASF8710
     /tmp/cciiZT4Y.s:102998  .debug_str:000000000003a7f7 .LASF8711
     /tmp/cciiZT4Y.s:96258  .debug_str:000000000001f680 .LASF8712
     /tmp/cciiZT4Y.s:100144  .debug_str:000000000002f0df .LASF8713
     /tmp/cciiZT4Y.s:90402  .debug_str:00000000000076d2 .LASF8714
     /tmp/cciiZT4Y.s:98590  .debug_str:0000000000028e86 .LASF8715
     /tmp/cciiZT4Y.s:107182  .debug_str:000000000004c1e3 .LASF8716
     /tmp/cciiZT4Y.s:105420  .debug_str:0000000000044d01 .LASF8717
     /tmp/cciiZT4Y.s:97634  .debug_str:00000000000252da .LASF8718
     /tmp/cciiZT4Y.s:106258  .debug_str:0000000000048468 .LASF8719
     /tmp/cciiZT4Y.s:91762  .debug_str:000000000000d448 .LASF8720
     /tmp/cciiZT4Y.s:95362  .debug_str:000000000001b777 .LASF8721
     /tmp/cciiZT4Y.s:94282  .debug_str:0000000000016ebd .LASF8722
     /tmp/cciiZT4Y.s:102054  .debug_str:0000000000037128 .LASF8723
     /tmp/cciiZT4Y.s:91112  .debug_str:000000000000a6c3 .LASF8724
     /tmp/cciiZT4Y.s:104958  .debug_str:0000000000042ea7 .LASF8725
     /tmp/cciiZT4Y.s:93096  .debug_str:00000000000122b0 .LASF8726
     /tmp/cciiZT4Y.s:89310  .debug_str:0000000000002ced .LASF8727
     /tmp/cciiZT4Y.s:96468  .debug_str:00000000000205ca .LASF8728
     /tmp/cciiZT4Y.s:95696  .debug_str:000000000001cf5d .LASF8729
     /tmp/cciiZT4Y.s:100208  .debug_str:000000000002f616 .LASF8730
     /tmp/cciiZT4Y.s:104236  .debug_str:000000000003fa1b .LASF8731
     /tmp/cciiZT4Y.s:107328  .debug_str:000000000004cc9c .LASF8732
     /tmp/cciiZT4Y.s:89366  .debug_str:0000000000003119 .LASF8733
     /tmp/cciiZT4Y.s:102730  .debug_str:0000000000039773 .LASF8734
     /tmp/cciiZT4Y.s:104414  .debug_str:00000000000404b8 .LASF8735
     /tmp/cciiZT4Y.s:107710  .debug_str:000000000004e7b2 .LASF8736
     /tmp/cciiZT4Y.s:95490  .debug_str:000000000001c029 .LASF8737
     /tmp/cciiZT4Y.s:102838  .debug_str:0000000000039e18 .LASF8738
     /tmp/cciiZT4Y.s:89868  .debug_str:0000000000005277 .LASF8739
     /tmp/cciiZT4Y.s:103914  .debug_str:000000000003e5ef .LASF8740
     /tmp/cciiZT4Y.s:97796  .debug_str:0000000000025b4c .LASF8741
     /tmp/cciiZT4Y.s:95320  .debug_str:000000000001b4a0 .LASF8742
     /tmp/cciiZT4Y.s:93462  .debug_str:0000000000013af2 .LASF8743
     /tmp/cciiZT4Y.s:94370  .debug_str:0000000000017494 .LASF8744
     /tmp/cciiZT4Y.s:100938  .debug_str:00000000000325ab .LASF8745
     /tmp/cciiZT4Y.s:99354  .debug_str:000000000002bf8e .LASF8746
     /tmp/cciiZT4Y.s:104404  .debug_str:0000000000040408 .LASF8747
     /tmp/cciiZT4Y.s:94960  .debug_str:0000000000019bb4 .LASF8748
     /tmp/cciiZT4Y.s:98786  .debug_str:0000000000029afd .LASF8749
     /tmp/cciiZT4Y.s:89726  .debug_str:0000000000004922 .LASF8750
     /tmp/cciiZT4Y.s:89974  .debug_str:00000000000059a4 .LASF8751
     /tmp/cciiZT4Y.s:91954  .debug_str:000000000000df5d .LASF8752
     /tmp/cciiZT4Y.s:103108  .debug_str:000000000003afc5 .LASF8753
     /tmp/cciiZT4Y.s:91846  .debug_str:000000000000d9a2 .LASF8754
     /tmp/cciiZT4Y.s:90748  .debug_str:0000000000008de3 .LASF8755
     /tmp/cciiZT4Y.s:99110  .debug_str:000000000002b06e .LASF8756
     /tmp/cciiZT4Y.s:106542  .debug_str:0000000000049694 .LASF8757
     /tmp/cciiZT4Y.s:90904  .debug_str:000000000000987e .LASF8758
     /tmp/cciiZT4Y.s:106310  .debug_str:000000000004875d .LASF8759
     /tmp/cciiZT4Y.s:106568  .debug_str:0000000000049847 .LASF8760
     /tmp/cciiZT4Y.s:90928  .debug_str:0000000000009a6f .LASF8761
     /tmp/cciiZT4Y.s:105984  .debug_str:000000000004717e .LASF8762
     /tmp/cciiZT4Y.s:104084  .debug_str:000000000003f071 .LASF8763
     /tmp/cciiZT4Y.s:92674  .debug_str:000000000001084b .LASF8764
     /tmp/cciiZT4Y.s:102684  .debug_str:00000000000395b4 .LASF8765
     /tmp/cciiZT4Y.s:91696  .debug_str:000000000000cf9c .LASF8766
     /tmp/cciiZT4Y.s:104154  .debug_str:000000000003f4ad .LASF8767
     /tmp/cciiZT4Y.s:105398  .debug_str:0000000000044bc6 .LASF8768
     /tmp/cciiZT4Y.s:99568  .debug_str:000000000002cbdb .LASF8769
     /tmp/cciiZT4Y.s:105108  .debug_str:00000000000438ea .LASF8770
     /tmp/cciiZT4Y.s:88888  .debug_str:0000000000000efb .LASF8771
     /tmp/cciiZT4Y.s:94118  .debug_str:0000000000016371 .LASF8772
     /tmp/cciiZT4Y.s:91248  .debug_str:000000000000afaf .LASF8773
     /tmp/cciiZT4Y.s:94760  .debug_str:0000000000018d72 .LASF8774
     /tmp/cciiZT4Y.s:100168  .debug_str:000000000002f2b7 .LASF8775
     /tmp/cciiZT4Y.s:89870  .debug_str:000000000000528b .LASF8776
     /tmp/cciiZT4Y.s:91220  .debug_str:000000000000ae0a .LASF8777
     /tmp/cciiZT4Y.s:102198  .debug_str:0000000000037af2 .LASF8778
     /tmp/cciiZT4Y.s:89336  .debug_str:0000000000002eac .LASF8779
     /tmp/cciiZT4Y.s:94522  .debug_str:0000000000017f3d .LASF8780
     /tmp/cciiZT4Y.s:101934  .debug_str:00000000000369a8 .LASF8781
     /tmp/cciiZT4Y.s:100424  .debug_str:00000000000303ae .LASF8782
     /tmp/cciiZT4Y.s:90524  .debug_str:0000000000007ec8 .LASF8783
     /tmp/cciiZT4Y.s:107594  .debug_str:000000000004dfc9 .LASF8784
     /tmp/cciiZT4Y.s:98414  .debug_str:0000000000028256 .LASF8785
     /tmp/cciiZT4Y.s:91008  .debug_str:0000000000009f8f .LASF8786
     /tmp/cciiZT4Y.s:100980  .debug_str:000000000003284e .LASF8787
     /tmp/cciiZT4Y.s:107250  .debug_str:000000000004c6e4 .LASF8788
     /tmp/cciiZT4Y.s:99930  .debug_str:000000000002e2f2 .LASF8789
     /tmp/cciiZT4Y.s:96870  .debug_str:00000000000220b8 .LASF8790
     /tmp/cciiZT4Y.s:107442  .debug_str:000000000004d3fc .LASF8791
     /tmp/cciiZT4Y.s:89480  .debug_str:00000000000037aa .LASF8792
     /tmp/cciiZT4Y.s:89900  .debug_str:0000000000005466 .LASF8793
     /tmp/cciiZT4Y.s:93828  .debug_str:000000000001510f .LASF8794
     /tmp/cciiZT4Y.s:103294  .debug_str:000000000003bc58 .LASF8795
     /tmp/cciiZT4Y.s:101700  .debug_str:000000000003594d .LASF8796
     /tmp/cciiZT4Y.s:101824  .debug_str:00000000000361e7 .LASF8797
     /tmp/cciiZT4Y.s:96622  .debug_str:0000000000020fb8 .LASF8798
     /tmp/cciiZT4Y.s:103850  .debug_str:000000000003e1f4 .LASF8799
     /tmp/cciiZT4Y.s:94442  .debug_str:00000000000179f1 .LASF8800
     /tmp/cciiZT4Y.s:92302  .debug_str:000000000000f2e9 .LASF8801
     /tmp/cciiZT4Y.s:95230  .debug_str:000000000001aebb .LASF8802
     /tmp/cciiZT4Y.s:90530  .debug_str:0000000000007f39 .LASF8803
     /tmp/cciiZT4Y.s:91042  .debug_str:000000000000a242 .LASF8804
     /tmp/cciiZT4Y.s:93004  .debug_str:0000000000011c25 .LASF8805
     /tmp/cciiZT4Y.s:106744  .debug_str:000000000004a373 .LASF8806
     /tmp/cciiZT4Y.s:95464  .debug_str:000000000001be7c .LASF8807
     /tmp/cciiZT4Y.s:98162  .debug_str:00000000000271da .LASF8808
     /tmp/cciiZT4Y.s:94782  .debug_str:0000000000018f60 .LASF8809
     /tmp/cciiZT4Y.s:98492  .debug_str:000000000002878e .LASF8810
     /tmp/cciiZT4Y.s:97142  .debug_str:000000000002323a .LASF8811
     /tmp/cciiZT4Y.s:104596  .debug_str:00000000000413b5 .LASF8812
     /tmp/cciiZT4Y.s:107884  .debug_str:000000000004f2d9 .LASF8813
     /tmp/cciiZT4Y.s:105226  .debug_str:0000000000044065 .LASF8814
     /tmp/cciiZT4Y.s:95274  .debug_str:000000000001b1e4 .LASF8815
     /tmp/cciiZT4Y.s:100884  .debug_str:0000000000032131 .LASF8816
     /tmp/cciiZT4Y.s:92048  .debug_str:000000000000e56f .LASF8817
     /tmp/cciiZT4Y.s:94066  .debug_str:000000000001601a .LASF8818
     /tmp/cciiZT4Y.s:99986  .debug_str:000000000002e668 .LASF8819
     /tmp/cciiZT4Y.s:103876  .debug_str:000000000003e38b .LASF8820
     /tmp/cciiZT4Y.s:107126  .debug_str:000000000004bea3 .LASF8821
     /tmp/cciiZT4Y.s:92258  .debug_str:000000000000efbc .LASF8822
     /tmp/cciiZT4Y.s:92684  .debug_str:00000000000108ed .LASF8823
     /tmp/cciiZT4Y.s:103338  .debug_str:000000000003bf9a .LASF8824
     /tmp/cciiZT4Y.s:103132  .debug_str:000000000003b171 .LASF8825
     /tmp/cciiZT4Y.s:92686  .debug_str:00000000000108fd .LASF8826
     /tmp/cciiZT4Y.s:103340  .debug_str:000000000003bfaa .LASF8827
     /tmp/cciiZT4Y.s:89910  .debug_str:0000000000005519 .LASF8828
     /tmp/cciiZT4Y.s:94244  .debug_str:0000000000016c70 .LASF8829
     /tmp/cciiZT4Y.s:94556  .debug_str:0000000000018153 .LASF8830
     /tmp/cciiZT4Y.s:90370  .debug_str:0000000000007530 .LASF8831
     /tmp/cciiZT4Y.s:103474  .debug_str:000000000003c8bb .LASF8832
     /tmp/cciiZT4Y.s:94558  .debug_str:0000000000018163 .LASF8833
     /tmp/cciiZT4Y.s:103712  .debug_str:000000000003d771 .LASF8834
     /tmp/cciiZT4Y.s:103476  .debug_str:000000000003c8cb .LASF8835
     /tmp/cciiZT4Y.s:94560  .debug_str:0000000000018173 .LASF8836
     /tmp/cciiZT4Y.s:97508  .debug_str:0000000000024aa9 .LASF8837
     /tmp/cciiZT4Y.s:103478  .debug_str:000000000003c8db .LASF8838
     /tmp/cciiZT4Y.s:94562  .debug_str:0000000000018183 .LASF8839
     /tmp/cciiZT4Y.s:100150  .debug_str:000000000002f192 .LASF8840
     /tmp/cciiZT4Y.s:103480  .debug_str:000000000003c8eb .LASF8841
     /tmp/cciiZT4Y.s:94564  .debug_str:0000000000018193 .LASF8842
     /tmp/cciiZT4Y.s:104652  .debug_str:000000000004171b .LASF8843
     /tmp/cciiZT4Y.s:96722  .debug_str:00000000000216b1 .LASF8844
     /tmp/cciiZT4Y.s:99988  .debug_str:000000000002e689 .LASF8845
     /tmp/cciiZT4Y.s:93608  .debug_str:00000000000143c9 .LASF8846
     /tmp/cciiZT4Y.s:93920  .debug_str:00000000000156cb .LASF8847
     /tmp/cciiZT4Y.s:103472  .debug_str:000000000003c8ab .LASF8848
     /tmp/cciiZT4Y.s:93678  .debug_str:0000000000014882 .LASF8849
     /tmp/cciiZT4Y.s:89678  .debug_str:0000000000004647 .LASF8850
     /tmp/cciiZT4Y.s:91598  .debug_str:000000000000c8ad .LASF8851
     /tmp/cciiZT4Y.s:107308  .debug_str:000000000004cb2b .LASF8852
     /tmp/cciiZT4Y.s:89680  .debug_str:000000000000465d .LASF8853
     /tmp/cciiZT4Y.s:91600  .debug_str:000000000000c8c3 .LASF8854
     /tmp/cciiZT4Y.s:100166  .debug_str:000000000002f28d .LASF8855
     /tmp/cciiZT4Y.s:89682  .debug_str:0000000000004673 .LASF8856
     /tmp/cciiZT4Y.s:91602  .debug_str:000000000000c8d9 .LASF8857
     /tmp/cciiZT4Y.s:93932  .debug_str:00000000000157ca .LASF8858
     /tmp/cciiZT4Y.s:89684  .debug_str:0000000000004689 .LASF8859
     /tmp/cciiZT4Y.s:91604  .debug_str:000000000000c8ef .LASF8860
     /tmp/cciiZT4Y.s:107170  .debug_str:000000000004c15a .LASF8861
     /tmp/cciiZT4Y.s:89686  .debug_str:000000000000469f .LASF8862
     /tmp/cciiZT4Y.s:91606  .debug_str:000000000000c905 .LASF8863
     /tmp/cciiZT4Y.s:101306  .debug_str:0000000000033e1d .LASF8864
     /tmp/cciiZT4Y.s:89688  .debug_str:00000000000046b5 .LASF8865
     /tmp/cciiZT4Y.s:91608  .debug_str:000000000000c91b .LASF8866
     /tmp/cciiZT4Y.s:95082  .debug_str:000000000001a3de .LASF8867
     /tmp/cciiZT4Y.s:89690  .debug_str:00000000000046cb .LASF8868
     /tmp/cciiZT4Y.s:91610  .debug_str:000000000000c931 .LASF8869
     /tmp/cciiZT4Y.s:88898  .debug_str:0000000000000fb0 .LASF8870
     /tmp/cciiZT4Y.s:106206  .debug_str:0000000000048103 .LASF8871
     /tmp/cciiZT4Y.s:91612  .debug_str:000000000000c947 .LASF8872
     /tmp/cciiZT4Y.s:102254  .debug_str:0000000000037d88 .LASF8873
     /tmp/cciiZT4Y.s:104346  .debug_str:000000000004008e .LASF8874
     /tmp/cciiZT4Y.s:99892  .debug_str:000000000002e06c .LASF8875
     /tmp/cciiZT4Y.s:103564  .debug_str:000000000003ce14 .LASF8876
     /tmp/cciiZT4Y.s:93582  .debug_str:0000000000014271 .LASF8877
     /tmp/cciiZT4Y.s:102694  .debug_str:000000000003961b .LASF8878
     /tmp/cciiZT4Y.s:97378  .debug_str:0000000000024306 .LASF8879
     /tmp/cciiZT4Y.s:95130  .debug_str:000000000001a773 .LASF8880
     /tmp/cciiZT4Y.s:90652  .debug_str:00000000000087bd .LASF8881
     /tmp/cciiZT4Y.s:97698  .debug_str:000000000002560e .LASF8882
     /tmp/cciiZT4Y.s:96532  .debug_str:0000000000020a58 .LASF8883
     /tmp/cciiZT4Y.s:101404  .debug_str:000000000003448c .LASF8884
     /tmp/cciiZT4Y.s:106796  .debug_str:000000000004a79e .LASF8885
     /tmp/cciiZT4Y.s:104086  .debug_str:000000000003f07e .LASF8886
     /tmp/cciiZT4Y.s:98344  .debug_str:0000000000027def .LASF8887
     /tmp/cciiZT4Y.s:102926  .debug_str:000000000003a398 .LASF8888
     /tmp/cciiZT4Y.s:105212  .debug_str:0000000000043f5d .LASF8889
     /tmp/cciiZT4Y.s:105044  .debug_str:000000000004345e .LASF8890
     /tmp/cciiZT4Y.s:95096  .debug_str:000000000001a50a .LASF8891
     /tmp/cciiZT4Y.s:97312  .debug_str:0000000000023e61 .LASF8892
     /tmp/cciiZT4Y.s:92880  .debug_str:0000000000011488 .LASF8893
     /tmp/cciiZT4Y.s:96688  .debug_str:000000000002143f .LASF8894
     /tmp/cciiZT4Y.s:97394  .debug_str:0000000000024417 .LASF8895
     /tmp/cciiZT4Y.s:93012  .debug_str:0000000000011c9d .LASF8896
     /tmp/cciiZT4Y.s:99384  .debug_str:000000000002c1a5 .LASF8897
     /tmp/cciiZT4Y.s:93748  .debug_str:0000000000014c2d .LASF8898
     /tmp/cciiZT4Y.s:93128  .debug_str:00000000000124d9 .LASF8899
     /tmp/cciiZT4Y.s:91400  .debug_str:000000000000bb13 .LASF8900
     /tmp/cciiZT4Y.s:104870  .debug_str:0000000000042981 .LASF8901
     /tmp/cciiZT4Y.s:105132  .debug_str:0000000000043a68 .LASF8902
     /tmp/cciiZT4Y.s:99062  .debug_str:000000000002aca5 .LASF8903
     /tmp/cciiZT4Y.s:103526  .debug_str:000000000003cbd8 .LASF8904
     /tmp/cciiZT4Y.s:107896  .debug_str:000000000004f392 .LASF8905
     /tmp/cciiZT4Y.s:91574  .debug_str:000000000000c692 .LASF8906
     /tmp/cciiZT4Y.s:104882  .debug_str:0000000000042a05 .LASF8907
     /tmp/cciiZT4Y.s:98538  .debug_str:0000000000028b2a .LASF8908
     /tmp/cciiZT4Y.s:98424  .debug_str:00000000000282d7 .LASF8909
     /tmp/cciiZT4Y.s:92584  .debug_str:000000000001031f .LASF8910
     /tmp/cciiZT4Y.s:107316  .debug_str:000000000004cbbc .LASF8911
     /tmp/cciiZT4Y.s:107302  .debug_str:000000000004ca81 .LASF8912
     /tmp/cciiZT4Y.s:103692  .debug_str:000000000003d64b .LASF8913
     /tmp/cciiZT4Y.s:99010  .debug_str:000000000002a97e .LASF8914
     /tmp/cciiZT4Y.s:99102  .debug_str:000000000002afbf .LASF8915
     /tmp/cciiZT4Y.s:101348  .debug_str:00000000000340c3 .LASF8916
     /tmp/cciiZT4Y.s:107750  .debug_str:000000000004ea00 .LASF8917
     /tmp/cciiZT4Y.s:98726  .debug_str:00000000000296f9 .LASF8918
     /tmp/cciiZT4Y.s:92534  .debug_str:0000000000010110 .LASF8919
     /tmp/cciiZT4Y.s:103598  .debug_str:000000000003d063 .LASF8920
     /tmp/cciiZT4Y.s:108006  .debug_str:000000000004fb65 .LASF8921
     /tmp/cciiZT4Y.s:104224  .debug_str:000000000003f961 .LASF8922
     /tmp/cciiZT4Y.s:90526  .debug_str:0000000000007eef .LASF8923
     /tmp/cciiZT4Y.s:98972  .debug_str:000000000002a7ca .LASF8924
     /tmp/cciiZT4Y.s:103498  .debug_str:000000000003ca0d .LASF8925
     /tmp/cciiZT4Y.s:89370  .debug_str:0000000000003139 .LASF8926
     /tmp/cciiZT4Y.s:89636  .debug_str:00000000000042db .LASF8927
     /tmp/cciiZT4Y.s:103500  .debug_str:000000000003ca26 .LASF8928
     /tmp/cciiZT4Y.s:89372  .debug_str:0000000000003152 .LASF8929
     /tmp/cciiZT4Y.s:95948  .debug_str:000000000001e06d .LASF8930
     /tmp/cciiZT4Y.s:103502  .debug_str:000000000003ca3f .LASF8931
     /tmp/cciiZT4Y.s:89374  .debug_str:000000000000316b .LASF8932
     /tmp/cciiZT4Y.s:96824  .debug_str:0000000000021e5f .LASF8933
     /tmp/cciiZT4Y.s:102896  .debug_str:000000000003a11e .LASF8934
     /tmp/cciiZT4Y.s:89376  .debug_str:0000000000003184 .LASF8935
     /tmp/cciiZT4Y.s:90588  .debug_str:00000000000082dc .LASF8936
     /tmp/cciiZT4Y.s:103506  .debug_str:000000000003ca5f .LASF8937
     /tmp/cciiZT4Y.s:89378  .debug_str:000000000000319d .LASF8938
     /tmp/cciiZT4Y.s:103910  .debug_str:000000000003e58e .LASF8939
     /tmp/cciiZT4Y.s:105552  .debug_str:00000000000455dc .LASF8940
     /tmp/cciiZT4Y.s:105028  .debug_str:0000000000043372 .LASF8941
     /tmp/cciiZT4Y.s:99484  .debug_str:000000000002c6ba .LASF8942
     /tmp/cciiZT4Y.s:94722  .debug_str:0000000000018b5d .LASF8943
     /tmp/cciiZT4Y.s:97286  .debug_str:0000000000023cb0 .LASF8944
     /tmp/cciiZT4Y.s:97310  .debug_str:0000000000023e40 .LASF8945
     /tmp/cciiZT4Y.s:99416  .debug_str:000000000002c372 .LASF8946
     /tmp/cciiZT4Y.s:93454  .debug_str:0000000000013a85 .LASF8947
     /tmp/cciiZT4Y.s:97370  .debug_str:0000000000024277 .LASF8948
     /tmp/cciiZT4Y.s:91908  .debug_str:000000000000dd38 .LASF8949
     /tmp/cciiZT4Y.s:100752  .debug_str:0000000000031933 .LASF8950
     /tmp/cciiZT4Y.s:100900  .debug_str:0000000000032239 .LASF8951
     /tmp/cciiZT4Y.s:95616  .debug_str:000000000001c9a8 .LASF8952
     /tmp/cciiZT4Y.s:105662  .debug_str:0000000000045d01 .LASF8953
     /tmp/cciiZT4Y.s:101250  .debug_str:0000000000033a77 .LASF8954
     /tmp/cciiZT4Y.s:100272  .debug_str:000000000002fa61 .LASF8955
     /tmp/cciiZT4Y.s:93636  .debug_str:000000000001459b .LASF8956
     /tmp/cciiZT4Y.s:97436  .debug_str:000000000002473d .LASF8957
     /tmp/cciiZT4Y.s:94838  .debug_str:00000000000192ab .LASF8958
     /tmp/cciiZT4Y.s:94158  .debug_str:0000000000016613 .LASF8959
     /tmp/cciiZT4Y.s:103732  .debug_str:000000000003d94e .LASF8960
     /tmp/cciiZT4Y.s:94736  .debug_str:0000000000018c3a .LASF8961
     /tmp/cciiZT4Y.s:94212  .debug_str:00000000000169f5 .LASF8962
     /tmp/cciiZT4Y.s:103106  .debug_str:000000000003af9d .LASF8963
     /tmp/cciiZT4Y.s:89630  .debug_str:0000000000004267 .LASF8964
     /tmp/cciiZT4Y.s:96986  .debug_str:000000000002282f .LASF8965
     /tmp/cciiZT4Y.s:96724  .debug_str:00000000000216c6 .LASF8966
     /tmp/cciiZT4Y.s:89694  .debug_str:00000000000046ea .LASF8967
     /tmp/cciiZT4Y.s:100362  .debug_str:0000000000030014 .LASF8968
     /tmp/cciiZT4Y.s:107480  .debug_str:000000000004d699 .LASF8969
     /tmp/cciiZT4Y.s:90568  .debug_str:0000000000008176 .LASF8970
     /tmp/cciiZT4Y.s:99658  .debug_str:000000000002d168 .LASF8971
     /tmp/cciiZT4Y.s:106876  .debug_str:000000000004acc6 .LASF8972
     /tmp/cciiZT4Y.s:101458  .debug_str:00000000000347a3 .LASF8973
     /tmp/cciiZT4Y.s:106464  .debug_str:00000000000491ab .LASF8974
     /tmp/cciiZT4Y.s:99292  .debug_str:000000000002bb7e .LASF8975
     /tmp/cciiZT4Y.s:90446  .debug_str:0000000000007a15 .LASF8976
     /tmp/cciiZT4Y.s:106516  .debug_str:00000000000494e8 .LASF8977
     /tmp/cciiZT4Y.s:95980  .debug_str:000000000001e2cc .LASF8978
     /tmp/cciiZT4Y.s:90448  .debug_str:0000000000007a28 .LASF8979
     /tmp/cciiZT4Y.s:96124  .debug_str:000000000001ecfd .LASF8980
     /tmp/cciiZT4Y.s:105852  .debug_str:000000000004689b .LASF8981
     /tmp/cciiZT4Y.s:101712  .debug_str:0000000000035a24 .LASF8982
     /tmp/cciiZT4Y.s:89964  .debug_str:0000000000005911 .LASF8983
     /tmp/cciiZT4Y.s:104808  .debug_str:0000000000042522 .LASF8984
     /tmp/cciiZT4Y.s:101714  .debug_str:0000000000035a38 .LASF8985
     /tmp/cciiZT4Y.s:89966  .debug_str:0000000000005925 .LASF8986
     /tmp/cciiZT4Y.s:98720  .debug_str:0000000000029697 .LASF8987
     /tmp/cciiZT4Y.s:101716  .debug_str:0000000000035a4c .LASF8988
     /tmp/cciiZT4Y.s:89968  .debug_str:0000000000005939 .LASF8989
     /tmp/cciiZT4Y.s:92626  .debug_str:00000000000105a4 .LASF8990
     /tmp/cciiZT4Y.s:101718  .debug_str:0000000000035a60 .LASF8991
     /tmp/cciiZT4Y.s:96828  .debug_str:0000000000021e93 .LASF8992
     /tmp/cciiZT4Y.s:92154  .debug_str:000000000000ea6e .LASF8993
     /tmp/cciiZT4Y.s:101720  .debug_str:0000000000035a74 .LASF8994
     /tmp/cciiZT4Y.s:89972  .debug_str:0000000000005990 .LASF8995
     /tmp/cciiZT4Y.s:99746  .debug_str:000000000002d6d0 .LASF8996
     /tmp/cciiZT4Y.s:94288  .debug_str:0000000000016f10 .LASF8997
     /tmp/cciiZT4Y.s:97282  .debug_str:0000000000023c8c .LASF8998
     /tmp/cciiZT4Y.s:89288  .debug_str:0000000000002b7c .LASF8999
     /tmp/cciiZT4Y.s:90540  .debug_str:0000000000007fc7 .LASF9000
     /tmp/cciiZT4Y.s:97284  .debug_str:0000000000023c9e .LASF9001
     /tmp/cciiZT4Y.s:97830  .debug_str:0000000000025da2 .LASF9002
     /tmp/cciiZT4Y.s:90542  .debug_str:0000000000007fd9 .LASF9003
     /tmp/cciiZT4Y.s:91542  .debug_str:000000000000c463 .LASF9004
     /tmp/cciiZT4Y.s:104340  .debug_str:0000000000040011 .LASF9005
     /tmp/cciiZT4Y.s:89046  .debug_str:0000000000001a84 .LASF9006
     /tmp/cciiZT4Y.s:90062  .debug_str:0000000000005f62 .LASF9007
     /tmp/cciiZT4Y.s:106298  .debug_str:00000000000486d5 .LASF9008
     /tmp/cciiZT4Y.s:89048  .debug_str:0000000000001a96 .LASF9009
     /tmp/cciiZT4Y.s:90064  .debug_str:0000000000005f74 .LASF9010
     /tmp/cciiZT4Y.s:100242  .debug_str:000000000002f832 .LASF9011
     /tmp/cciiZT4Y.s:105290  .debug_str:00000000000444ce .LASF9012
     /tmp/cciiZT4Y.s:90066  .debug_str:0000000000005f86 .LASF9013
     /tmp/cciiZT4Y.s:94000  .debug_str:0000000000015ccf .LASF9014
     /tmp/cciiZT4Y.s:106458  .debug_str:0000000000049177 .LASF9015
     /tmp/cciiZT4Y.s:100232  .debug_str:000000000002f7d1 .LASF9016
     /tmp/cciiZT4Y.s:96592  .debug_str:0000000000020dfd .LASF9017
     /tmp/cciiZT4Y.s:105124  .debug_str:00000000000439e1 .LASF9018
     /tmp/cciiZT4Y.s:106686  .debug_str:000000000004a041 .LASF9019
     /tmp/cciiZT4Y.s:100360  .debug_str:000000000002ffee .LASF9020
     /tmp/cciiZT4Y.s:89154  .debug_str:000000000000227e .LASF9021
     /tmp/cciiZT4Y.s:101480  .debug_str:000000000003494b .LASF9022
     /tmp/cciiZT4Y.s:101886  .debug_str:0000000000036652 .LASF9023
     /tmp/cciiZT4Y.s:93236  .debug_str:0000000000012b7d .LASF9024
     /tmp/cciiZT4Y.s:106964  .debug_str:000000000004b3de .LASF9025
     /tmp/cciiZT4Y.s:98260  .debug_str:00000000000277a3 .LASF9026
     /tmp/cciiZT4Y.s:95760  .debug_str:000000000001d33b .LASF9027
     /tmp/cciiZT4Y.s:106214  .debug_str:0000000000048188 .LASF9028
     /tmp/cciiZT4Y.s:94398  .debug_str:0000000000017693 .LASF9029
     /tmp/cciiZT4Y.s:98926  .debug_str:000000000002a4a5 .LASF9030
     /tmp/cciiZT4Y.s:105118  .debug_str:0000000000043996 .LASF9031
     /tmp/cciiZT4Y.s:103454  .debug_str:000000000003c79a .LASF9032
     /tmp/cciiZT4Y.s:93540  .debug_str:0000000000013fa9 .LASF9033
     /tmp/cciiZT4Y.s:97902  .debug_str:0000000000026148 .LASF9034
     /tmp/cciiZT4Y.s:98174  .debug_str:0000000000027285 .LASF9035
     /tmp/cciiZT4Y.s:97772  .debug_str:00000000000259da .LASF9036
     /tmp/cciiZT4Y.s:91316  .debug_str:000000000000b4f8 .LASF9037
     /tmp/cciiZT4Y.s:105810  .debug_str:000000000004662b .LASF9038
     /tmp/cciiZT4Y.s:96256  .debug_str:000000000001f663 .LASF9039
     /tmp/cciiZT4Y.s:89848  .debug_str:000000000000516a .LASF9040
     /tmp/cciiZT4Y.s:107650  .debug_str:000000000004e384 .LASF9041
     /tmp/cciiZT4Y.s:89594  .debug_str:0000000000003fc2 .LASF9042
     /tmp/cciiZT4Y.s:97872  .debug_str:0000000000025ed4 .LASF9043
     /tmp/cciiZT4Y.s:101732  .debug_str:0000000000035b79 .LASF9044
     /tmp/cciiZT4Y.s:97808  .debug_str:0000000000025c59 .LASF9045
     /tmp/cciiZT4Y.s:105084  .debug_str:0000000000043754 .LASF9046
     /tmp/cciiZT4Y.s:98834  .debug_str:0000000000029e30 .LASF9047
     /tmp/cciiZT4Y.s:104514  .debug_str:0000000000040d4c .LASF9048
     /tmp/cciiZT4Y.s:89722  .debug_str:00000000000048f8 .LASF9049
     /tmp/cciiZT4Y.s:98968  .debug_str:000000000002a771 .LASF9050
     /tmp/cciiZT4Y.s:106612  .debug_str:0000000000049b84 .LASF9051
     /tmp/cciiZT4Y.s:105432  .debug_str:0000000000044ddf .LASF9052
     /tmp/cciiZT4Y.s:107312  .debug_str:000000000004cb73 .LASF9053
     /tmp/cciiZT4Y.s:90136  .debug_str:000000000000642f .LASF9054
     /tmp/cciiZT4Y.s:101614  .debug_str:000000000003530e .LASF9055
     /tmp/cciiZT4Y.s:98016  .debug_str:00000000000267ee .LASF9056
     /tmp/cciiZT4Y.s:92086  .debug_str:000000000000e7c9 .LASF9057
     /tmp/cciiZT4Y.s:98246  .debug_str:00000000000276c7 .LASF9058
     /tmp/cciiZT4Y.s:105318  .debug_str:0000000000044643 .LASF9059
     /tmp/cciiZT4Y.s:96666  .debug_str:00000000000212e5 .LASF9060
     /tmp/cciiZT4Y.s:100956  .debug_str:00000000000326ef .LASF9061
     /tmp/cciiZT4Y.s:98628  .debug_str:0000000000029146 .LASF9062
     /tmp/cciiZT4Y.s:91166  .debug_str:000000000000aa16 .LASF9063
     /tmp/cciiZT4Y.s:105944  .debug_str:0000000000046f1c .LASF9064
     /tmp/cciiZT4Y.s:106934  .debug_str:000000000004b178 .LASF9065
     /tmp/cciiZT4Y.s:92110  .debug_str:000000000000e87a .LASF9066
     /tmp/cciiZT4Y.s:96556  .debug_str:0000000000020bf8 .LASF9067
     /tmp/cciiZT4Y.s:100184  .debug_str:000000000002f456 .LASF9068
     /tmp/cciiZT4Y.s:93820  .debug_str:0000000000015069 .LASF9069
     /tmp/cciiZT4Y.s:105764  .debug_str:0000000000046351 .LASF9070
     /tmp/cciiZT4Y.s:105890  .debug_str:0000000000046b85 .LASF9071
     /tmp/cciiZT4Y.s:91498  .debug_str:000000000000c1e9 .LASF9072
     /tmp/cciiZT4Y.s:94260  .debug_str:0000000000016d4c .LASF9073
     /tmp/cciiZT4Y.s:107604  .debug_str:000000000004e041 .LASF9074
     /tmp/cciiZT4Y.s:105328  .debug_str:00000000000446db .LASF9075
     /tmp/cciiZT4Y.s:101380  .debug_str:00000000000342db .LASF9076
     /tmp/cciiZT4Y.s:100050  .debug_str:000000000002eb0d .LASF9077
     /tmp/cciiZT4Y.s:95244  .debug_str:000000000001afe7 .LASF9078
     /tmp/cciiZT4Y.s:103328  .debug_str:000000000003beaf .LASF9079
     /tmp/cciiZT4Y.s:96624  .debug_str:0000000000020fdd .LASF9080
     /tmp/cciiZT4Y.s:91424  .debug_str:000000000000bd16 .LASF9081
     /tmp/cciiZT4Y.s:107570  .debug_str:000000000004de2e .LASF9082
     /tmp/cciiZT4Y.s:103312  .debug_str:000000000003bd90 .LASF9083
     /tmp/cciiZT4Y.s:107040  .debug_str:000000000004b8f0 .LASF9084
     /tmp/cciiZT4Y.s:92402  .debug_str:000000000000f87e .LASF9085
     /tmp/cciiZT4Y.s:100896  .debug_str:0000000000032208 .LASF9086
     /tmp/cciiZT4Y.s:89314  .debug_str:0000000000002d25 .LASF9087
     /tmp/cciiZT4Y.s:102038  .debug_str:0000000000037019 .LASF9088
     /tmp/cciiZT4Y.s:99128  .debug_str:000000000002b166 .LASF9089
     /tmp/cciiZT4Y.s:102288  .debug_str:00000000000380ae .LASF9090
     /tmp/cciiZT4Y.s:99946  .debug_str:000000000002e3c5 .LASF9091
     /tmp/cciiZT4Y.s:102590  .debug_str:00000000000390e2 .LASF9092
     /tmp/cciiZT4Y.s:94424  .debug_str:0000000000017888 .LASF9093
     /tmp/cciiZT4Y.s:89136  .debug_str:000000000000210e .LASF9094
     /tmp/cciiZT4Y.s:93694  .debug_str:0000000000014979 .LASF9095
     /tmp/cciiZT4Y.s:92114  .debug_str:000000000000e8aa .LASF9096
     /tmp/cciiZT4Y.s:102404  .debug_str:00000000000386be .LASF9097
     /tmp/cciiZT4Y.s:105208  .debug_str:0000000000043f03 .LASF9098
     /tmp/cciiZT4Y.s:94820  .debug_str:00000000000191a5 .LASF9099
     /tmp/cciiZT4Y.s:99604  .debug_str:000000000002ce61 .LASF9100
     /tmp/cciiZT4Y.s:90638  .debug_str:00000000000086b8 .LASF9101
     /tmp/cciiZT4Y.s:98550  .debug_str:0000000000028ba8 .LASF9102
     /tmp/cciiZT4Y.s:97348  .debug_str:00000000000240c9 .LASF9103
     /tmp/cciiZT4Y.s:107410  .debug_str:000000000004d1b1 .LASF9104
     /tmp/cciiZT4Y.s:98552  .debug_str:0000000000028bc5 .LASF9105
     /tmp/cciiZT4Y.s:97350  .debug_str:00000000000240e6 .LASF9106
     /tmp/cciiZT4Y.s:88834  .debug_str:0000000000000b89 .LASF9107
     /tmp/cciiZT4Y.s:103842  .debug_str:000000000003e14d .LASF9108
     /tmp/cciiZT4Y.s:102790  .debug_str:0000000000039b9f .LASF9109
     /tmp/cciiZT4Y.s:105510  .debug_str:00000000000452b2 .LASF9110
     /tmp/cciiZT4Y.s:103844  .debug_str:000000000003e16a .LASF9111
     /tmp/cciiZT4Y.s:90104  .debug_str:00000000000061fe .LASF9112
     /tmp/cciiZT4Y.s:93946  .debug_str:00000000000158a1 .LASF9113
     /tmp/cciiZT4Y.s:105940  .debug_str:0000000000046ee6 .LASF9114
     /tmp/cciiZT4Y.s:93286  .debug_str:0000000000012f51 .LASF9115
     /tmp/cciiZT4Y.s:104296  .debug_str:000000000003fd7e .LASF9116
     /tmp/cciiZT4Y.s:105942  .debug_str:0000000000046f01 .LASF9117
     /tmp/cciiZT4Y.s:102482  .debug_str:0000000000038b0e .LASF9118
     /tmp/cciiZT4Y.s:98170  .debug_str:000000000002723c .LASF9119
     /tmp/cciiZT4Y.s:91768  .debug_str:000000000000d499 .LASF9120
     /tmp/cciiZT4Y.s:98636  .debug_str:00000000000291fb .LASF9121
     /tmp/cciiZT4Y.s:96840  .debug_str:0000000000021f37 .LASF9122
     /tmp/cciiZT4Y.s:91770  .debug_str:000000000000d4b4 .LASF9123
     /tmp/cciiZT4Y.s:93638  .debug_str:00000000000145a7 .LASF9124
     /tmp/cciiZT4Y.s:90602  .debug_str:0000000000008414 .LASF9125
     /tmp/cciiZT4Y.s:97644  .debug_str:0000000000025353 .LASF9126
     /tmp/cciiZT4Y.s:96364  .debug_str:000000000001fdb1 .LASF9127
     /tmp/cciiZT4Y.s:88790  .debug_str:000000000000089f .LASF9128
     /tmp/cciiZT4Y.s:97646  .debug_str:0000000000025370 .LASF9129
     /tmp/cciiZT4Y.s:96366  .debug_str:000000000001fdce .LASF9130
     /tmp/cciiZT4Y.s:99026  .debug_str:000000000002aa73 .LASF9131
     /tmp/cciiZT4Y.s:103100  .debug_str:000000000003af39 .LASF9132
     /tmp/cciiZT4Y.s:101750  .debug_str:0000000000035cf6 .LASF9133
     /tmp/cciiZT4Y.s:100798  .debug_str:0000000000031bef .LASF9134
     /tmp/cciiZT4Y.s:103102  .debug_str:000000000003af56 .LASF9135
     /tmp/cciiZT4Y.s:101752  .debug_str:0000000000035d13 .LASF9136
     /tmp/cciiZT4Y.s:94586  .debug_str:000000000001832f .LASF9137
     /tmp/cciiZT4Y.s:107992  .debug_str:000000000004fa75 .LASF9138
     /tmp/cciiZT4Y.s:91120  .debug_str:000000000000a745 .LASF9139
     /tmp/cciiZT4Y.s:94920  .debug_str:00000000000198c5 .LASF9140
     /tmp/cciiZT4Y.s:107994  .debug_str:000000000004fa8e .LASF9141
     /tmp/cciiZT4Y.s:91122  .debug_str:000000000000a75e .LASF9142
     /tmp/cciiZT4Y.s:88760  .debug_str:00000000000006c4 .LASF9143
     /tmp/cciiZT4Y.s:90692  .debug_str:0000000000008a5b .LASF9144
     /tmp/cciiZT4Y.s:103488  .debug_str:000000000003c93e .LASF9145
     /tmp/cciiZT4Y.s:92420  .debug_str:000000000000f984 .LASF9146
     /tmp/cciiZT4Y.s:91682  .debug_str:000000000000cecd .LASF9147
     /tmp/cciiZT4Y.s:95520  .debug_str:000000000001c21f .LASF9148
     /tmp/cciiZT4Y.s:106908  .debug_str:000000000004af8b .LASF9149
     /tmp/cciiZT4Y.s:90840  .debug_str:000000000000947c .LASF9150
     /tmp/cciiZT4Y.s:107894  .debug_str:000000000004f386 .LASF9151
     /tmp/cciiZT4Y.s:89166  .debug_str:0000000000002368 .LASF9152
     /tmp/cciiZT4Y.s:106676  .debug_str:0000000000049fa4 .LASF9153
     /tmp/cciiZT4Y.s:92382  .debug_str:000000000000f819 .LASF9154
     /tmp/cciiZT4Y.s:105402  .debug_str:0000000000044c03 .LASF9155
     /tmp/cciiZT4Y.s:96426  .debug_str:000000000002027b .LASF9156
     /tmp/cciiZT4Y.s:100392  .debug_str:000000000003018e .LASF9157
     /tmp/cciiZT4Y.s:93888  .debug_str:00000000000154ed .LASF9158
     /tmp/cciiZT4Y.s:90998  .debug_str:0000000000009efb .LASF9159
     /tmp/cciiZT4Y.s:97782  .debug_str:0000000000025a8e .LASF9160
     /tmp/cciiZT4Y.s:92284  .debug_str:000000000000f17a .LASF9161
     /tmp/cciiZT4Y.s:100292  .debug_str:000000000002fb73 .LASF9162
     /tmp/cciiZT4Y.s:95720  .debug_str:000000000001d0cc .LASF9163
     /tmp/cciiZT4Y.s:99162  .debug_str:000000000002b300 .LASF9164
     /tmp/cciiZT4Y.s:97224  .debug_str:00000000000238ad .LASF9165
     /tmp/cciiZT4Y.s:104732  .debug_str:0000000000041f45 .LASF9166
     /tmp/cciiZT4Y.s:106666  .debug_str:0000000000049f1a .LASF9167
     /tmp/cciiZT4Y.s:101296  .debug_str:0000000000033dd4 .LASF9168
     /tmp/cciiZT4Y.s:99474  .debug_str:000000000002c61f .LASF9169
     /tmp/cciiZT4Y.s:92456  .debug_str:000000000000fc47 .LASF9170
     /tmp/cciiZT4Y.s:99298  .debug_str:000000000002bbe8 .LASF9171
     /tmp/cciiZT4Y.s:105604  .debug_str:000000000004594b .LASF9172
     /tmp/cciiZT4Y.s:96442  .debug_str:00000000000203bd .LASF9173
     /tmp/cciiZT4Y.s:99902  .debug_str:000000000002e114 .LASF9174
     /tmp/cciiZT4Y.s:95970  .debug_str:000000000001e203 .LASF9175
     /tmp/cciiZT4Y.s:102586  .debug_str:00000000000390b3 .LASF9176
     /tmp/cciiZT4Y.s:97684  .debug_str:0000000000025553 .LASF9177
     /tmp/cciiZT4Y.s:104302  .debug_str:000000000003fe03 .LASF9178
     /tmp/cciiZT4Y.s:107196  .debug_str:000000000004c2f4 .LASF9179
     /tmp/cciiZT4Y.s:99696  .debug_str:000000000002d3e9 .LASF9180
     /tmp/cciiZT4Y.s:95062  .debug_str:000000000001a25c .LASF9181
     /tmp/cciiZT4Y.s:105520  .debug_str:000000000004535e .LASF9182
     /tmp/cciiZT4Y.s:98050  .debug_str:0000000000026aad .LASF9183
     /tmp/cciiZT4Y.s:93566  .debug_str:0000000000014142 .LASF9184
     /tmp/cciiZT4Y.s:91818  .debug_str:000000000000d7c4 .LASF9185
     /tmp/cciiZT4Y.s:106510  .debug_str:00000000000494ad .LASF9186
     /tmp/cciiZT4Y.s:90106  .debug_str:000000000000621b .LASF9187
     /tmp/cciiZT4Y.s:95236  .debug_str:000000000001af3d .LASF9188
     /tmp/cciiZT4Y.s:98220  .debug_str:000000000002750a .LASF9189
     /tmp/cciiZT4Y.s:92854  .debug_str:00000000000112d0 .LASF9190
     /tmp/cciiZT4Y.s:104480  .debug_str:00000000000409c4 .LASF9191
     /tmp/cciiZT4Y.s:96574  .debug_str:0000000000020cf3 .LASF9192
     /tmp/cciiZT4Y.s:90584  .debug_str:000000000000829f .LASF9193
     /tmp/cciiZT4Y.s:107776  .debug_str:000000000004ebbd .LASF9194
     /tmp/cciiZT4Y.s:105974  .debug_str:00000000000470bc .LASF9195
     /tmp/cciiZT4Y.s:98258  .debug_str:000000000002778f .LASF9196
     /tmp/cciiZT4Y.s:90586  .debug_str:00000000000082b4 .LASF9197
     /tmp/cciiZT4Y.s:101272  .debug_str:0000000000033c52 .LASF9198
     /tmp/cciiZT4Y.s:106842  .debug_str:000000000004aaa9 .LASF9199
     /tmp/cciiZT4Y.s:91194  .debug_str:000000000000abcb .LASF9200
     /tmp/cciiZT4Y.s:93126  .debug_str:00000000000124bc .LASF9201
     /tmp/cciiZT4Y.s:90508  .debug_str:0000000000007dfc .LASF9202
     /tmp/cciiZT4Y.s:102988  .debug_str:000000000003a734 .LASF9203
     /tmp/cciiZT4Y.s:94690  .debug_str:00000000000189a2 .LASF9204
     /tmp/cciiZT4Y.s:94692  .debug_str:00000000000189b1 .LASF9205
     /tmp/cciiZT4Y.s:94694  .debug_str:00000000000189c0 .LASF9206
     /tmp/cciiZT4Y.s:96758  .debug_str:00000000000218fb .LASF9207
     /tmp/cciiZT4Y.s:95100  .debug_str:000000000001a57a .LASF9208
     /tmp/cciiZT4Y.s:94918  .debug_str:00000000000198ac .LASF9209
     /tmp/cciiZT4Y.s:96708  .debug_str:00000000000215bb .LASF9210
     /tmp/cciiZT4Y.s:104570  .debug_str:00000000000411f3 .LASF9211
     /tmp/cciiZT4Y.s:93252  .debug_str:0000000000012ca0 .LASF9212
     /tmp/cciiZT4Y.s:102516  .debug_str:0000000000038d36 .LASF9213
     /tmp/cciiZT4Y.s:92128  .debug_str:000000000000e99a .LASF9214
     /tmp/cciiZT4Y.s:93092  .debug_str:000000000001225e .LASF9215
     /tmp/cciiZT4Y.s:96698  .debug_str:00000000000214e7 .LASF9216
     /tmp/cciiZT4Y.s:89938  .debug_str:0000000000005724 .LASF9217
     /tmp/cciiZT4Y.s:90318  .debug_str:00000000000071b7 .LASF9218
     /tmp/cciiZT4Y.s:93750  .debug_str:0000000000014c37 .LASF9219
     /tmp/cciiZT4Y.s:93386  .debug_str:00000000000136ce .LASF9220
     /tmp/cciiZT4Y.s:104522  .debug_str:0000000000040db5 .LASF9221
     /tmp/cciiZT4Y.s:104518  .debug_str:0000000000040da3 .LASF9222
     /tmp/cciiZT4Y.s:104520  .debug_str:0000000000040dac .LASF9223
     /tmp/cciiZT4Y.s:104848  .debug_str:000000000004280e .LASF9224
     /tmp/cciiZT4Y.s:104386  .debug_str:00000000000402c6 .LASF9225
     /tmp/cciiZT4Y.s:94544  .debug_str:0000000000018067 .LASF9226
     /tmp/cciiZT4Y.s:100366  .debug_str:0000000000030033 .LASF9227
     /tmp/cciiZT4Y.s:93522  .debug_str:0000000000013ea3 .LASF9228
     /tmp/cciiZT4Y.s:97602  .debug_str:00000000000250e4 .LASF9229
     /tmp/cciiZT4Y.s:100400  .debug_str:000000000003024e .LASF9230
     /tmp/cciiZT4Y.s:103744  .debug_str:000000000003da0e .LASF9231
     /tmp/cciiZT4Y.s:94698  .debug_str:00000000000189f8 .LASF9232
     /tmp/cciiZT4Y.s:99070  .debug_str:000000000002ad41 .LASF9233
     /tmp/cciiZT4Y.s:90022  .debug_str:0000000000005cc4 .LASF9234
     /tmp/cciiZT4Y.s:100410  .debug_str:00000000000302bb .LASF9235
     /tmp/cciiZT4Y.s:98902  .debug_str:000000000002a2ea .LASF9236
     /tmp/cciiZT4Y.s:97748  .debug_str:000000000002594a .LASF9237
     /tmp/cciiZT4Y.s:97044  .debug_str:0000000000022c23 .LASF9238
     /tmp/cciiZT4Y.s:90454  .debug_str:0000000000007a9b .LASF9239
     /tmp/cciiZT4Y.s:105158  .debug_str:0000000000043c02 .LASF9240
     /tmp/cciiZT4Y.s:99784  .debug_str:000000000002d91f .LASF9241
     /tmp/cciiZT4Y.s:105162  .debug_str:0000000000043c1c .LASF9242
     /tmp/cciiZT4Y.s:96744  .debug_str:000000000002186e .LASF9243
     /tmp/cciiZT4Y.s:94278  .debug_str:0000000000016e8a .LASF9244
     /tmp/cciiZT4Y.s:104394  .debug_str:0000000000040342 .LASF9245
     /tmp/cciiZT4Y.s:104532  .debug_str:0000000000040e8a .LASF9246
     /tmp/cciiZT4Y.s:89040  .debug_str:0000000000001a53 .LASF9247
     /tmp/cciiZT4Y.s:95632  .debug_str:000000000001cae9 .LASF9248
     /tmp/cciiZT4Y.s:101544  .debug_str:0000000000034e2b .LASF9249
     /tmp/cciiZT4Y.s:92924  .debug_str:0000000000011680 .LASF9250
     /tmp/cciiZT4Y.s:97170  .debug_str:0000000000023480 .LASF9251
     /tmp/cciiZT4Y.s:91164  .debug_str:000000000000aa10 .LASF9252
     /tmp/cciiZT4Y.s:97308  .debug_str:0000000000023e29 .LASF9253
     /tmp/cciiZT4Y.s:98746  .debug_str:00000000000298a3 .LASF9254
     /tmp/cciiZT4Y.s:93460  .debug_str:0000000000013aeb .LASF9255
     /tmp/cciiZT4Y.s:95516  .debug_str:000000000001c1d7 .LASF9256
     /tmp/cciiZT4Y.s:106394  .debug_str:0000000000048cd9 .LASF9257
     /tmp/cciiZT4Y.s:90100  .debug_str:00000000000061bc .LASF9258
     /tmp/cciiZT4Y.s:99664  .debug_str:000000000002d1d0 .LASF9259
     /tmp/cciiZT4Y.s:98948  .debug_str:000000000002a64b .LASF9260
     /tmp/cciiZT4Y.s:92274  .debug_str:000000000000f0e0 .LASF9261
     /tmp/cciiZT4Y.s:91476  .debug_str:000000000000c0b2 .LASF9262
     /tmp/cciiZT4Y.s:92406  .debug_str:000000000000f8a1 .LASF9263
     /tmp/cciiZT4Y.s:91242  .debug_str:000000000000af80 .LASF9264
     /tmp/cciiZT4Y.s:106792  .debug_str:000000000004a76e .LASF9265
     /tmp/cciiZT4Y.s:97960  .debug_str:00000000000264a8 .LASF9266
     /tmp/cciiZT4Y.s:105020  .debug_str:0000000000043325 .LASF9267
     /tmp/cciiZT4Y.s:90092  .debug_str:0000000000006147 .LASF9268
     /tmp/cciiZT4Y.s:92074  .debug_str:000000000000e6fa .LASF9269
     /tmp/cciiZT4Y.s:103544  .debug_str:000000000003cd10 .LASF9270
     /tmp/cciiZT4Y.s:92982  .debug_str:0000000000011a7c .LASF9271
     /tmp/cciiZT4Y.s:98658  .debug_str:000000000002939e .LASF9272
     /tmp/cciiZT4Y.s:90320  .debug_str:00000000000071d2 .LASF9273
     /tmp/cciiZT4Y.s:94414  .debug_str:00000000000177df .LASF9274
     /tmp/cciiZT4Y.s:91322  .debug_str:000000000000b56f .LASF9275
     /tmp/cciiZT4Y.s:100790  .debug_str:0000000000031b83 .LASF9276
     /tmp/cciiZT4Y.s:88696  .debug_str:0000000000000246 .LASF9277
     /tmp/cciiZT4Y.s:104354  .debug_str:000000000004010a .LASF9278
     /tmp/cciiZT4Y.s:95014  .debug_str:0000000000019f32 .LASF9279
     /tmp/cciiZT4Y.s:99308  .debug_str:000000000002bc72 .LASF9280
     /tmp/cciiZT4Y.s:89944  .debug_str:0000000000005757 .LASF9281
     /tmp/cciiZT4Y.s:102962  .debug_str:000000000003a56f .LASF9282
     /tmp/cciiZT4Y.s:90134  .debug_str:0000000000006423 .LASF9283
     /tmp/cciiZT4Y.s:100786  .debug_str:0000000000031b3f .LASF9284
     /tmp/cciiZT4Y.s:98584  .debug_str:0000000000028e0a .LASF9285
     /tmp/cciiZT4Y.s:89662  .debug_str:0000000000004540 .LASF9286
     /tmp/cciiZT4Y.s:106692  .debug_str:000000000004a092 .LASF9287
     /tmp/cciiZT4Y.s:98130  .debug_str:0000000000027003 .LASF9288
     /tmp/cciiZT4Y.s:106094  .debug_str:000000000004794f .LASF9289
     /tmp/cciiZT4Y.s:97820  .debug_str:0000000000025cf1 .LASF9290
     /tmp/cciiZT4Y.s:97064  .debug_str:0000000000022d70 .LASF9291
     /tmp/cciiZT4Y.s:107054  .debug_str:000000000004b9cd .LASF9292
     /tmp/cciiZT4Y.s:95328  .debug_str:000000000001b526 .LASF9293
     /tmp/cciiZT4Y.s:98354  .debug_str:0000000000027e69 .LASF9294
     /tmp/cciiZT4Y.s:103636  .debug_str:000000000003d28c .LASF9295
     /tmp/cciiZT4Y.s:89220  .debug_str:0000000000002719 .LASF9296
     /tmp/cciiZT4Y.s:89430  .debug_str:00000000000034ff .LASF9297
     /tmp/cciiZT4Y.s:99218  .debug_str:000000000002b735 .LASF9298
     /tmp/cciiZT4Y.s:95332  .debug_str:000000000001b56a .LASF9299
     /tmp/cciiZT4Y.s:102290  .debug_str:00000000000380be .LASF9300
     /tmp/cciiZT4Y.s:98668  .debug_str:000000000002943f .LASF9301
     /tmp/cciiZT4Y.s:101448  .debug_str:00000000000346d0 .LASF9302
     /tmp/cciiZT4Y.s:96522  .debug_str:0000000000020999 .LASF9303
     /tmp/cciiZT4Y.s:97448  .debug_str:00000000000247fd .LASF9304
     /tmp/cciiZT4Y.s:94914  .debug_str:000000000001989b .LASF9305
     /tmp/cciiZT4Y.s:88974  .debug_str:00000000000014c6 .LASF9306
     /tmp/cciiZT4Y.s:96874  .debug_str:00000000000220d7 .LASF9307
     /tmp/cciiZT4Y.s:92064  .debug_str:000000000000e62d .LASF9308
     /tmp/cciiZT4Y.s:100782  .debug_str:0000000000031aee .LASF9309
     /tmp/cciiZT4Y.s:106024  .debug_str:00000000000474ae .LASF9310
     /tmp/cciiZT4Y.s:96826  .debug_str:0000000000021e8c .LASF9311
     /tmp/cciiZT4Y.s:102664  .debug_str:00000000000394b4 .LASF9312
     /tmp/cciiZT4Y.s:96546  .debug_str:0000000000020b65 .LASF9313
     /tmp/cciiZT4Y.s:96822  .debug_str:0000000000021e58 .LASF9314
     /tmp/cciiZT4Y.s:105218  .debug_str:0000000000043fde .LASF9315
     /tmp/cciiZT4Y.s:98784  .debug_str:0000000000029ad5 .LASF9316
     /tmp/cciiZT4Y.s:91218  .debug_str:000000000000ae00 .LASF9317
     /tmp/cciiZT4Y.s:90514  .debug_str:0000000000007e64 .LASF9318
     /tmp/cciiZT4Y.s:99124  .debug_str:000000000002b151 .LASF9319
     /tmp/cciiZT4Y.s:105860  .debug_str:000000000004693a .LASF9320
     /tmp/cciiZT4Y.s:104648  .debug_str:00000000000416dd .LASF9321
     /tmp/cciiZT4Y.s:102472  .debug_str:0000000000038a42 .LASF9322
     /tmp/cciiZT4Y.s:97216  .debug_str:000000000002382f .LASF9323
     /tmp/cciiZT4Y.s:104974  .debug_str:0000000000042fc6 .LASF9324
     /tmp/cciiZT4Y.s:100536  .debug_str:0000000000030b59 .LASF9325
     /tmp/cciiZT4Y.s:100998  .debug_str:00000000000329d3 .LASF9326
     /tmp/cciiZT4Y.s:90162  .debug_str:00000000000065d4 .LASF9327
     /tmp/cciiZT4Y.s:107414  .debug_str:000000000004d20d .LASF9328
     /tmp/cciiZT4Y.s:105946  .debug_str:0000000000046f2c .LASF9329
     /tmp/cciiZT4Y.s:100030  .debug_str:000000000002e99c .LASF9330
     /tmp/cciiZT4Y.s:89826  .debug_str:000000000000500f .LASF9331
     /tmp/cciiZT4Y.s:95818  .debug_str:000000000001d6ed .LASF9332
     /tmp/cciiZT4Y.s:105154  .debug_str:0000000000043beb .LASF9333
     /tmp/cciiZT4Y.s:103888  .debug_str:000000000003e445 .LASF9334
     /tmp/cciiZT4Y.s:96514  .debug_str:0000000000020972 .LASF9335
     /tmp/cciiZT4Y.s:96516  .debug_str:000000000002097c .LASF9336
     /tmp/cciiZT4Y.s:106558  .debug_str:0000000000049798 .LASF9337
     /tmp/cciiZT4Y.s:96520  .debug_str:000000000002098f .LASF9338
     /tmp/cciiZT4Y.s:101628  .debug_str:0000000000035412 .LASF9339
     /tmp/cciiZT4Y.s:100384  .debug_str:000000000003013b .LASF9340
     /tmp/cciiZT4Y.s:105804  .debug_str:00000000000465d5 .LASF9341
     /tmp/cciiZT4Y.s:98898  .debug_str:000000000002a2a5 .LASF9342
     /tmp/cciiZT4Y.s:95042  .debug_str:000000000001a0e6 .LASF9343
     /tmp/cciiZT4Y.s:101224  .debug_str:00000000000338ee .LASF9344
     /tmp/cciiZT4Y.s:91068  .debug_str:000000000000a397 .LASF9345
     /tmp/cciiZT4Y.s:94814  .debug_str:0000000000019160 .LASF9346
     /tmp/cciiZT4Y.s:91070  .debug_str:000000000000a3a2 .LASF9347
     /tmp/cciiZT4Y.s:93038  .debug_str:0000000000011e84 .LASF9348
     /tmp/cciiZT4Y.s:91072  .debug_str:000000000000a3ad .LASF9349
     /tmp/cciiZT4Y.s:99444  .debug_str:000000000002c4eb .LASF9350
     /tmp/cciiZT4Y.s:91074  .debug_str:000000000000a3b8 .LASF9351
     /tmp/cciiZT4Y.s:95804  .debug_str:000000000001d5da .LASF9352
     /tmp/cciiZT4Y.s:105296  .debug_str:000000000004451a .LASF9353
     /tmp/cciiZT4Y.s:89606  .debug_str:000000000000408e .LASF9354
     /tmp/cciiZT4Y.s:101774  .debug_str:0000000000035f08 .LASF9355
     /tmp/cciiZT4Y.s:89978  .debug_str:00000000000059f5 .LASF9356
     /tmp/cciiZT4Y.s:98692  .debug_str:00000000000295a6 .LASF9357
     /tmp/cciiZT4Y.s:105358  .debug_str:00000000000448bd .LASF9358
     /tmp/cciiZT4Y.s:98694  .debug_str:00000000000295b0 .LASF9359
     /tmp/cciiZT4Y.s:102768  .debug_str:0000000000039a1a .LASF9360
     /tmp/cciiZT4Y.s:98696  .debug_str:00000000000295ba .LASF9361
     /tmp/cciiZT4Y.s:93058  .debug_str:0000000000011fb5 .LASF9362
     /tmp/cciiZT4Y.s:98698  .debug_str:00000000000295c4 .LASF9363
     /tmp/cciiZT4Y.s:106320  .debug_str:000000000004881e .LASF9364
     /tmp/cciiZT4Y.s:98700  .debug_str:00000000000295ce .LASF9365
     /tmp/cciiZT4Y.s:102332  .debug_str:00000000000382b6 .LASF9366
     /tmp/cciiZT4Y.s:98702  .debug_str:00000000000295d8 .LASF9367
     /tmp/cciiZT4Y.s:94020  .debug_str:0000000000015dd1 .LASF9368
     /tmp/cciiZT4Y.s:98704  .debug_str:00000000000295e2 .LASF9369
     /tmp/cciiZT4Y.s:107280  .debug_str:000000000004c8da .LASF9370
     /tmp/cciiZT4Y.s:97692  .debug_str:00000000000255e0 .LASF9371
     /tmp/cciiZT4Y.s:92040  .debug_str:000000000000e4d2 .LASF9372
     /tmp/cciiZT4Y.s:94834  .debug_str:0000000000019275 .LASF9373
     /tmp/cciiZT4Y.s:99240  .debug_str:000000000002b8df .LASF9374
     /tmp/cciiZT4Y.s:92988  .debug_str:0000000000011afc .LASF9375
     /tmp/cciiZT4Y.s:93838  .debug_str:00000000000151b7 .LASF9376
     /tmp/cciiZT4Y.s:105666  .debug_str:0000000000045d32 .LASF9377
     /tmp/cciiZT4Y.s:92690  .debug_str:0000000000010924 .LASF9378
     /tmp/cciiZT4Y.s:104540  .debug_str:0000000000040ef8 .LASF9379
     /tmp/cciiZT4Y.s:106756  .debug_str:000000000004a485 .LASF9380
     /tmp/cciiZT4Y.s:103814  .debug_str:000000000003df5e .LASF9381
     /tmp/cciiZT4Y.s:93682  .debug_str:00000000000148ba .LASF9382
     /tmp/cciiZT4Y.s:89078  .debug_str:0000000000001d0a .LASF9383
     /tmp/cciiZT4Y.s:99716  .debug_str:000000000002d4d6 .LASF9384
     /tmp/cciiZT4Y.s:106872  .debug_str:000000000004ac8e .LASF9385
     /tmp/cciiZT4Y.s:103104  .debug_str:000000000003af73 .LASF9386
     /tmp/cciiZT4Y.s:100826  .debug_str:0000000000031d7d .LASF9387
     /tmp/cciiZT4Y.s:105292  .debug_str:00000000000444e0 .LASF9388
     /tmp/cciiZT4Y.s:96536  .debug_str:0000000000020aa4 .LASF9389
     /tmp/cciiZT4Y.s:100680  .debug_str:0000000000031461 .LASF9390
     /tmp/cciiZT4Y.s:93142  .debug_str:000000000001255f .LASF9391
     /tmp/cciiZT4Y.s:93360  .debug_str:00000000000134c7 .LASF9392
     /tmp/cciiZT4Y.s:95414  .debug_str:000000000001baed .LASF9393
     /tmp/cciiZT4Y.s:96568  .debug_str:0000000000020c8e .LASF9394
     /tmp/cciiZT4Y.s:98076  .debug_str:0000000000026c35 .LASF9395
     /tmp/cciiZT4Y.s:90666  .debug_str:0000000000008866 .LASF9396
     /tmp/cciiZT4Y.s:99942  .debug_str:000000000002e38f .LASF9397
     /tmp/cciiZT4Y.s:94998  .debug_str:0000000000019e3a .LASF9398
     /tmp/cciiZT4Y.s:94198  .debug_str:000000000001691c .LASF9399
     /tmp/cciiZT4Y.s:105704  .debug_str:0000000000045fc1 .LASF9400
     /tmp/cciiZT4Y.s:94964  .debug_str:0000000000019c04 .LASF9401
     /tmp/cciiZT4Y.s:98640  .debug_str:000000000002924e .LASF9402
     /tmp/cciiZT4Y.s:88872  .debug_str:0000000000000df0 .LASF9403
     /tmp/cciiZT4Y.s:95596  .debug_str:000000000001c81b .LASF9404
     /tmp/cciiZT4Y.s:102302  .debug_str:00000000000380e8 .LASF9405
     /tmp/cciiZT4Y.s:100692  .debug_str:000000000003150a .LASF9406
     /tmp/cciiZT4Y.s:97198  .debug_str:00000000000236fd .LASF9407
     /tmp/cciiZT4Y.s:98334  .debug_str:0000000000027d7a .LASF9408
     /tmp/cciiZT4Y.s:96996  .debug_str:00000000000228fa .LASF9409
     /tmp/cciiZT4Y.s:88922  .debug_str:000000000000117b .LASF9410
     /tmp/cciiZT4Y.s:89076  .debug_str:0000000000001ce6 .LASF9411
     /tmp/cciiZT4Y.s:91780  .debug_str:000000000000d564 .LASF9412
     /tmp/cciiZT4Y.s:91512  .debug_str:000000000000c2d0 .LASF9413
     /tmp/cciiZT4Y.s:99932  .debug_str:000000000002e326 .LASF9414
     /tmp/cciiZT4Y.s:95666  .debug_str:000000000001ccfc .LASF9415
     /tmp/cciiZT4Y.s:99678  .debug_str:000000000002d2d6 .LASF9416
     /tmp/cciiZT4Y.s:99680  .debug_str:000000000002d2db .LASF9417
     /tmp/cciiZT4Y.s:90474  .debug_str:0000000000007bb8 .LASF9418
     /tmp/cciiZT4Y.s:90476  .debug_str:0000000000007bbd .LASF9419
     /tmp/cciiZT4Y.s:107056  .debug_str:000000000004b9e2 .LASF9420
     /tmp/cciiZT4Y.s:103556  .debug_str:000000000003cda1 .LASF9421
     /tmp/cciiZT4Y.s:104896  .debug_str:0000000000042ac9 .LASF9422
     /tmp/cciiZT4Y.s:104898  .debug_str:0000000000042acf .LASF9423
     /tmp/cciiZT4Y.s:98128  .debug_str:0000000000026ffd .LASF9424
     /tmp/cciiZT4Y.s:98132  .debug_str:0000000000027011 .LASF9425
     /tmp/cciiZT4Y.s:106194  .debug_str:0000000000048015 .LASF9426
     /tmp/cciiZT4Y.s:94948  .debug_str:0000000000019aa6 .LASF9427
     /tmp/cciiZT4Y.s:105354  .debug_str:0000000000044897 .LASF9428
     /tmp/cciiZT4Y.s:89528  .debug_str:0000000000003b14 .LASF9429
     /tmp/cciiZT4Y.s:96750  .debug_str:00000000000218ae .LASF9430
     /tmp/cciiZT4Y.s:99410  .debug_str:000000000002c306 .LASF9431
     /tmp/cciiZT4Y.s:104840  .debug_str:000000000004275c .LASF9432
     /tmp/cciiZT4Y.s:93008  .debug_str:0000000000011c6c .LASF9433
     /tmp/cciiZT4Y.s:99728  .debug_str:000000000002d5c1 .LASF9434
     /tmp/cciiZT4Y.s:89342  .debug_str:0000000000002f09 .LASF9435
     /tmp/cciiZT4Y.s:100670  .debug_str:00000000000313da .LASF9436
     /tmp/cciiZT4Y.s:97400  .debug_str:0000000000024464 .LASF9437
     /tmp/cciiZT4Y.s:99730  .debug_str:000000000002d5ca .LASF9438
     /tmp/cciiZT4Y.s:99282  .debug_str:000000000002bb20 .LASF9439
     /tmp/cciiZT4Y.s:94984  .debug_str:0000000000019d53 .LASF9440
     /tmp/cciiZT4Y.s:90444  .debug_str:0000000000007a03 .LASF9441
     /tmp/cciiZT4Y.s:100278  .debug_str:000000000002fa94 .LASF9442
     /tmp/cciiZT4Y.s:89892  .debug_str:00000000000053f1 .LASF9443
     /tmp/cciiZT4Y.s:104310  .debug_str:000000000003fe74 .LASF9444
     /tmp/cciiZT4Y.s:107602  .debug_str:000000000004e035 .LASF9445
     /tmp/cciiZT4Y.s:96254  .debug_str:000000000001f653 .LASF9446
     /tmp/cciiZT4Y.s:107866  .debug_str:000000000004f1c0 .LASF9447
     /tmp/cciiZT4Y.s:90806  .debug_str:0000000000009206 .LASF9448
     /tmp/cciiZT4Y.s:89280  .debug_str:0000000000002b14 .LASF9449
     /tmp/cciiZT4Y.s:104946  .debug_str:0000000000042da9 .LASF9450
     /tmp/cciiZT4Y.s:104218  .debug_str:000000000003f8fa .LASF9451
     /tmp/cciiZT4Y.s:98286  .debug_str:00000000000279e8 .LASF9452
     /tmp/cciiZT4Y.s:102966  .debug_str:000000000003a5b2 .LASF9453
     /tmp/cciiZT4Y.s:106174  .debug_str:0000000000047ed1 .LASF9454
     /tmp/cciiZT4Y.s:94600  .debug_str:000000000001842f .LASF9455
     /tmp/cciiZT4Y.s:100306  .debug_str:000000000002fc2d .LASF9456
     /tmp/cciiZT4Y.s:103728  .debug_str:000000000003d8d6 .LASF9457
     /tmp/cciiZT4Y.s:101090  .debug_str:0000000000032fcb .LASF9458
     /tmp/cciiZT4Y.s:99594  .debug_str:000000000002cdf2 .LASF9459
     /tmp/cciiZT4Y.s:94388  .debug_str:00000000000175c0 .LASF9460
     /tmp/cciiZT4Y.s:93710  .debug_str:0000000000014a6c .LASF9461
     /tmp/cciiZT4Y.s:96274  .debug_str:000000000001f7fc .LASF9462
     /tmp/cciiZT4Y.s:96180  .debug_str:000000000001f034 .LASF9463
     /tmp/cciiZT4Y.s:102986  .debug_str:000000000003a72c .LASF9464
     /tmp/cciiZT4Y.s:104484  .debug_str:00000000000409f4 .LASF9465
     /tmp/cciiZT4Y.s:95348  .debug_str:000000000001b6dc .LASF9466
     /tmp/cciiZT4Y.s:95356  .debug_str:000000000001b716 .LASF9467
     /tmp/cciiZT4Y.s:99496  .debug_str:000000000002c7ba .LASF9468
     /tmp/cciiZT4Y.s:102160  .debug_str:0000000000037805 .LASF9469
     /tmp/cciiZT4Y.s:99598  .debug_str:000000000002ce25 .LASF9470
     /tmp/cciiZT4Y.s:93170  .debug_str:000000000001271b .LASF9471
     /tmp/cciiZT4Y.s:95984  .debug_str:000000000001e320 .LASF9472
     /tmp/cciiZT4Y.s:95558  .debug_str:000000000001c5c8 .LASF9473
     /tmp/cciiZT4Y.s:107970  .debug_str:000000000004f8fc .LASF9474
     /tmp/cciiZT4Y.s:88844  .debug_str:0000000000000c3a .LASF9475
     /tmp/cciiZT4Y.s:88966  .debug_str:0000000000001457 .LASF9476
     /tmp/cciiZT4Y.s:95176  .debug_str:000000000001ab0b .LASF9477
     /tmp/cciiZT4Y.s:90200  .debug_str:0000000000006877 .LASF9478
     /tmp/cciiZT4Y.s:97834  .debug_str:0000000000025ded .LASF9479
     /tmp/cciiZT4Y.s:104482  .debug_str:00000000000409ed .LASF9480
     /tmp/cciiZT4Y.s:95354  .debug_str:000000000001b70c .LASF9481
     /tmp/cciiZT4Y.s:99138  .debug_str:000000000002b202 .LASF9482
     /tmp/cciiZT4Y.s:94896  .debug_str:0000000000019748 .LASF9483
     /tmp/cciiZT4Y.s:88968  .debug_str:0000000000001462 .LASF9484
     /tmp/cciiZT4Y.s:89006  .debug_str:00000000000016d8 .LASF9485
     /tmp/cciiZT4Y.s:102280  .debug_str:0000000000038017 .LASF9486
     /tmp/cciiZT4Y.s:96130  .debug_str:000000000001ed24 .LASF9487
     /tmp/cciiZT4Y.s:96132  .debug_str:000000000001ed2e .LASF9488
     /tmp/cciiZT4Y.s:96134  .debug_str:000000000001ed38 .LASF9489
     /tmp/cciiZT4Y.s:96136  .debug_str:000000000001ed42 .LASF9490
     /tmp/cciiZT4Y.s:96138  .debug_str:000000000001ed4c .LASF9491
     /tmp/cciiZT4Y.s:101372  .debug_str:000000000003425b .LASF9492
     /tmp/cciiZT4Y.s:96140  .debug_str:000000000001ed56 .LASF9493
     /tmp/cciiZT4Y.s:92236  .debug_str:000000000000ee92 .LASF9494
     /tmp/cciiZT4Y.s:92238  .debug_str:000000000000ee9d .LASF9495
     /tmp/cciiZT4Y.s:107492  .debug_str:000000000004d7ad .LASF9496
     /tmp/cciiZT4Y.s:104644  .debug_str:00000000000416c7 .LASF9497
     /tmp/cciiZT4Y.s:90340  .debug_str:000000000000733e .LASF9498
     /tmp/cciiZT4Y.s:97120  .debug_str:00000000000230dc .LASF9499
     /tmp/cciiZT4Y.s:90502  .debug_str:0000000000007da6 .LASF9500
     /tmp/cciiZT4Y.s:104646  .debug_str:00000000000416d2 .LASF9501
     /tmp/cciiZT4Y.s:103680  .debug_str:000000000003d536 .LASF9502
     /tmp/cciiZT4Y.s:89146  .debug_str:00000000000021dc .LASF9503
     /tmp/cciiZT4Y.s:99808  .debug_str:000000000002db16 .LASF9504
     /tmp/cciiZT4Y.s:97456  .debug_str:0000000000024877 .LASF9505
     /tmp/cciiZT4Y.s:103874  .debug_str:000000000003e380 .LASF9506
     /tmp/cciiZT4Y.s:103510  .debug_str:000000000003ca9d .LASF9507
     /tmp/cciiZT4Y.s:89128  .debug_str:00000000000020b7 .LASF9508
     /tmp/cciiZT4Y.s:93316  .debug_str:0000000000013130 .LASF9509
     /tmp/cciiZT4Y.s:96352  .debug_str:000000000001fcb6 .LASF9510
     /tmp/cciiZT4Y.s:97526  .debug_str:0000000000024cc8 .LASF9511
     /tmp/cciiZT4Y.s:92884  .debug_str:00000000000114bc .LASF9512
     /tmp/cciiZT4Y.s:97528  .debug_str:0000000000024cd3 .LASF9513
     /tmp/cciiZT4Y.s:105350  .debug_str:000000000004482c .LASF9514
     /tmp/cciiZT4Y.s:93802  .debug_str:0000000000014f8c .LASF9515
     /tmp/cciiZT4Y.s:107542  .debug_str:000000000004dbdd .LASF9516
     /tmp/cciiZT4Y.s:93804  .debug_str:0000000000014f97 .LASF9517
     /tmp/cciiZT4Y.s:101472  .debug_str:00000000000348d5 .LASF9518
     /tmp/cciiZT4Y.s:93806  .debug_str:0000000000014fa2 .LASF9519
     /tmp/cciiZT4Y.s:95242  .debug_str:000000000001afc0 .LASF9520
     /tmp/cciiZT4Y.s:96832  .debug_str:0000000000021ec7 .LASF9521
     /tmp/cciiZT4Y.s:102428  .debug_str:000000000003886e .LASF9522
     /tmp/cciiZT4Y.s:93604  .debug_str:00000000000143b3 .LASF9523
     /tmp/cciiZT4Y.s:90750  .debug_str:0000000000008e08 .LASF9524
     /tmp/cciiZT4Y.s:93606  .debug_str:00000000000143be .LASF9525
     /tmp/cciiZT4Y.s:104090  .debug_str:000000000003f09a .LASF9526
     /tmp/cciiZT4Y.s:93942  .debug_str:0000000000015887 .LASF9527
     /tmp/cciiZT4Y.s:105460  .debug_str:0000000000044f5c .LASF9528
     /tmp/cciiZT4Y.s:102452  .debug_str:00000000000389e0 .LASF9529
     /tmp/cciiZT4Y.s:99382  .debug_str:000000000002c17e .LASF9530
     /tmp/cciiZT4Y.s:93950  .debug_str:00000000000158f8 .LASF9531
     /tmp/cciiZT4Y.s:105230  .debug_str:000000000004408d .LASF9532
     /tmp/cciiZT4Y.s:100532  .debug_str:0000000000030b3c .LASF9533
     /tmp/cciiZT4Y.s:88948  .debug_str:00000000000012e6 .LASF9534
     /tmp/cciiZT4Y.s:95298  .debug_str:000000000001b350 .LASF9535
     /tmp/cciiZT4Y.s:107982  .debug_str:000000000004f999 .LASF9536
     /tmp/cciiZT4Y.s:95300  .debug_str:000000000001b35b .LASF9537
     /tmp/cciiZT4Y.s:101114  .debug_str:000000000003310d .LASF9538
     /tmp/cciiZT4Y.s:91450  .debug_str:000000000000bf06 .LASF9539
     /tmp/cciiZT4Y.s:90656  .debug_str:0000000000008800 .LASF9540
     /tmp/cciiZT4Y.s:91452  .debug_str:000000000000bf11 .LASF9541
     /tmp/cciiZT4Y.s:97202  .debug_str:0000000000023727 .LASF9542
     /tmp/cciiZT4Y.s:91454  .debug_str:000000000000bf1c .LASF9543
     /tmp/cciiZT4Y.s:90970  .debug_str:0000000000009da0 .LASF9544
     /tmp/cciiZT4Y.s:104110  .debug_str:000000000003f20d .LASF9545
     /tmp/cciiZT4Y.s:94996  .debug_str:0000000000019e14 .LASF9546
     /tmp/cciiZT4Y.s:98680  .debug_str:000000000002950d .LASF9547
     /tmp/cciiZT4Y.s:98682  .debug_str:0000000000029521 .LASF9548
     /tmp/cciiZT4Y.s:98684  .debug_str:0000000000029535 .LASF9549
     /tmp/cciiZT4Y.s:97694  .debug_str:00000000000255ec .LASF9550
     /tmp/cciiZT4Y.s:97696  .debug_str:00000000000255fd .LASF9551
     /tmp/cciiZT4Y.s:89162  .debug_str:000000000000233f .LASF9552
     /tmp/cciiZT4Y.s:97700  .debug_str:000000000002563b .LASF9553
     /tmp/cciiZT4Y.s:97702  .debug_str:000000000002564c .LASF9554
     /tmp/cciiZT4Y.s:90472  .debug_str:0000000000007ba6 .LASF9555
     /tmp/cciiZT4Y.s:97780  .debug_str:0000000000025a79 .LASF9556
     /tmp/cciiZT4Y.s:93918  .debug_str:00000000000156bc .LASF9557
     /tmp/cciiZT4Y.s:93944  .debug_str:0000000000015892 .LASF9558
     /tmp/cciiZT4Y.s:107396  .debug_str:000000000004d110 .LASF9559
     /tmp/cciiZT4Y.s:105106  .debug_str:00000000000438d1 .LASF9560
     /tmp/cciiZT4Y.s:101220  .debug_str:00000000000338c4 .LASF9561
     /tmp/cciiZT4Y.s:106576  .debug_str:00000000000498f0 .LASF9562
     /tmp/cciiZT4Y.s:105282  .debug_str:000000000004440c .LASF9563
     /tmp/cciiZT4Y.s:93100  .debug_str:00000000000122f2 .LASF9564
     /tmp/cciiZT4Y.s:95752  .debug_str:000000000001d2c4 .LASF9565
     /tmp/cciiZT4Y.s:99620  .debug_str:000000000002cf49 .LASF9566
     /tmp/cciiZT4Y.s:102244  .debug_str:0000000000037cfa .LASF9567
     /tmp/cciiZT4Y.s:105196  .debug_str:0000000000043e7e .LASF9568
     /tmp/cciiZT4Y.s:89866  .debug_str:000000000000526b .LASF9569
     /tmp/cciiZT4Y.s:96954  .debug_str:000000000002261f .LASF9570
     /tmp/cciiZT4Y.s:104966  .debug_str:0000000000042f2f .LASF9571
     /tmp/cciiZT4Y.s:99406  .debug_str:000000000002c2f0 .LASF9572
     /tmp/cciiZT4Y.s:98004  .debug_str:000000000002674c .LASF9573
     /tmp/cciiZT4Y.s:100118  .debug_str:000000000002ef75 .LASF9574
     /tmp/cciiZT4Y.s:91160  .debug_str:000000000000a9ef .LASF9575
     /tmp/cciiZT4Y.s:97182  .debug_str:0000000000023523 .LASF9576
     /tmp/cciiZT4Y.s:100550  .debug_str:0000000000030c64 .LASF9577
     /tmp/cciiZT4Y.s:96450  .debug_str:0000000000020459 .LASF9578
     /tmp/cciiZT4Y.s:103024  .debug_str:000000000003a9ce .LASF9579
     /tmp/cciiZT4Y.s:103026  .debug_str:000000000003a9d9 .LASF9580
     /tmp/cciiZT4Y.s:103028  .debug_str:000000000003a9e4 .LASF9581
     /tmp/cciiZT4Y.s:103030  .debug_str:000000000003a9ef .LASF9582
     /tmp/cciiZT4Y.s:89444  .debug_str:0000000000003571 .LASF9583
     /tmp/cciiZT4Y.s:96316  .debug_str:000000000001fa78 .LASF9584
     /tmp/cciiZT4Y.s:101828  .debug_str:000000000003623a .LASF9585
     /tmp/cciiZT4Y.s:101034  .debug_str:0000000000032c64 .LASF9586
     /tmp/cciiZT4Y.s:107636  .debug_str:000000000004e2aa .LASF9587
     /tmp/cciiZT4Y.s:105392  .debug_str:0000000000044b70 .LASF9588
     /tmp/cciiZT4Y.s:90976  .debug_str:0000000000009dfc .LASF9589
     /tmp/cciiZT4Y.s:105092  .debug_str:00000000000437e6 .LASF9590
     /tmp/cciiZT4Y.s:106986  .debug_str:000000000004b579 .LASF9591
     /tmp/cciiZT4Y.s:104036  .debug_str:000000000003ed48 .LASF9592
     /tmp/cciiZT4Y.s:92786  .debug_str:0000000000010eb9 .LASF9593
     /tmp/cciiZT4Y.s:95420  .debug_str:000000000001bb79 .LASF9594
     /tmp/cciiZT4Y.s:100250  .debug_str:000000000002f8d1 .LASF9595
     /tmp/cciiZT4Y.s:88722  .debug_str:000000000000040c .LASF9596
     /tmp/cciiZT4Y.s:98762  .debug_str:00000000000299e3 .LASF9597
     /tmp/cciiZT4Y.s:103666  .debug_str:000000000003d465 .LASF9598
     /tmp/cciiZT4Y.s:103960  .debug_str:000000000003e91c .LASF9609
     /tmp/cciiZT4Y.s:103386  .debug_str:000000000003c33b .LASF9599
     /tmp/cciiZT4Y.s:103388  .debug_str:000000000003c347 .LASF9600
     /tmp/cciiZT4Y.s:103390  .debug_str:000000000003c353 .LASF9601
     /tmp/cciiZT4Y.s:103392  .debug_str:000000000003c35f .LASF9602
     /tmp/cciiZT4Y.s:95770  .debug_str:000000000001d3b9 .LASF9603
     /tmp/cciiZT4Y.s:103396  .debug_str:000000000003c396 .LASF9604
     /tmp/cciiZT4Y.s:95774  .debug_str:000000000001d407 .LASF9605
     /tmp/cciiZT4Y.s:103400  .debug_str:000000000003c3bc .LASF9606
     /tmp/cciiZT4Y.s:104888  .debug_str:0000000000042a5f .LASF9607
     /tmp/cciiZT4Y.s:104764  .debug_str:000000000004217e .LASF9608
     /tmp/cciiZT4Y.s:102806  .debug_str:0000000000039c20 .LASF9610
     /tmp/cciiZT4Y.s:105660  .debug_str:0000000000045cfa .LASF9611
     /tmp/cciiZT4Y.s:101632  .debug_str:000000000003545f .LASF9612
     /tmp/cciiZT4Y.s:102110  .debug_str:000000000003750c .LASF9613
     /tmp/cciiZT4Y.s:102112  .debug_str:0000000000037523 .LASF9614
     /tmp/cciiZT4Y.s:107168  .debug_str:000000000004c132 .LASF9615
     /tmp/cciiZT4Y.s:98586  .debug_str:0000000000028e16 .LASF9616
     /tmp/cciiZT4Y.s:89750  .debug_str:0000000000004b4c .LASF9617
     /tmp/cciiZT4Y.s:102168  .debug_str:00000000000378c5 .LASF9618
     /tmp/cciiZT4Y.s:105708  .debug_str:0000000000045fea .LASF9619
     /tmp/cciiZT4Y.s:104594  .debug_str:00000000000413ac .LASF9620
     /tmp/cciiZT4Y.s:89240  .debug_str:000000000000283f .LASF9621
     /tmp/cciiZT4Y.s:93628  .debug_str:000000000001452b .LASF9622
     /tmp/cciiZT4Y.s:106826  .debug_str:000000000004a9ef .LASF9623
     /tmp/cciiZT4Y.s:95396  .debug_str:000000000001b9e1 .LASF9624
     /tmp/cciiZT4Y.s:107452  .debug_str:000000000004d4ba .LASF9625
     /tmp/cciiZT4Y.s:102950  .debug_str:000000000003a538 .LASF9626
     /tmp/cciiZT4Y.s:102952  .debug_str:000000000003a53f .LASF9627
     /tmp/cciiZT4Y.s:102954  .debug_str:000000000003a546 .LASF9628
     /tmp/cciiZT4Y.s:102956  .debug_str:000000000003a54d .LASF9629
     /tmp/cciiZT4Y.s:102958  .debug_str:000000000003a554 .LASF9630
     /tmp/cciiZT4Y.s:95476  .debug_str:000000000001bf37 .LASF9631
     /tmp/cciiZT4Y.s:95480  .debug_str:000000000001bf4f .LASF9632
     /tmp/cciiZT4Y.s:90954  .debug_str:0000000000009ca7 .LASF9633
     /tmp/cciiZT4Y.s:98764  .debug_str:00000000000299ef .LASF9634
     /tmp/cciiZT4Y.s:99454  .debug_str:000000000002c56e .LASF9635
     /tmp/cciiZT4Y.s:99456  .debug_str:000000000002c577 .LASF9636
     /tmp/cciiZT4Y.s:99458  .debug_str:000000000002c580 .LASF9637
     /tmp/cciiZT4Y.s:98776  .debug_str:0000000000029a8b .LASF9638
     /tmp/cciiZT4Y.s:98780  .debug_str:0000000000029ac4 .LASF9639
     /tmp/cciiZT4Y.s:99464  .debug_str:000000000002c5b3 .LASF9640
     /tmp/cciiZT4Y.s:99466  .debug_str:000000000002c5bc .LASF9641
     /tmp/cciiZT4Y.s:91076  .debug_str:000000000000a3c3 .LASF9642
     /tmp/cciiZT4Y.s:93240  .debug_str:0000000000012bd0 .LASF9643
     /tmp/cciiZT4Y.s:107194  .debug_str:000000000004c2e1 .LASF9644
     /tmp/cciiZT4Y.s:93314  .debug_str:0000000000013120 .LASF9645
     /tmp/cciiZT4Y.s:96566  .debug_str:0000000000020c7b .LASF9646
     /tmp/cciiZT4Y.s:93390  .debug_str:00000000000136ed .LASF9647
     /tmp/cciiZT4Y.s:96654  .debug_str:0000000000021202 .LASF9648
     /tmp/cciiZT4Y.s:93470  .debug_str:0000000000013b76 .LASF9649
     /tmp/cciiZT4Y.s:96734  .debug_str:00000000000217b7 .LASF9650
     /tmp/cciiZT4Y.s:93554  .debug_str:000000000001407a .LASF9651
     /tmp/cciiZT4Y.s:96812  .debug_str:0000000000021dbf .LASF9652
     /tmp/cciiZT4Y.s:102004  .debug_str:0000000000036e1a .LASF9653
     /tmp/cciiZT4Y.s:104078  .debug_str:000000000003f01a .LASF9654
     /tmp/cciiZT4Y.s:93674  .debug_str:0000000000014836 .LASF9655
     /tmp/cciiZT4Y.s:90184  .debug_str:0000000000006780 .LASF9656
     /tmp/cciiZT4Y.s:102990  .debug_str:000000000003a751 .LASF9657
     /tmp/cciiZT4Y.s:106704  .debug_str:000000000004a107 .LASF9658
     /tmp/cciiZT4Y.s:106748  .debug_str:000000000004a3ba .LASF9659
     /tmp/cciiZT4Y.s:90494  .debug_str:0000000000007d00 .LASF9660
     /tmp/cciiZT4Y.s:90902  .debug_str:0000000000009874 .LASF9661
     /tmp/cciiZT4Y.s:90388  .debug_str:00000000000075eb .LASF9662
     /tmp/cciiZT4Y.s:107364  .debug_str:000000000004cf33 .LASF9663
     /tmp/cciiZT4Y.s:93178  .debug_str:000000000001277e .LASF9664
     /tmp/cciiZT4Y.s:101910  .debug_str:00000000000367c4 .LASF9665
     /tmp/cciiZT4Y.s:106902  .debug_str:000000000004af39 .LASF9666
     /tmp/cciiZT4Y.s:105812  .debug_str:000000000004665c .LASF9667
     /tmp/cciiZT4Y.s:91206  .debug_str:000000000000ad25 .LASF9668
     /tmp/cciiZT4Y.s:102488  .debug_str:0000000000038b96 .LASF9669
     /tmp/cciiZT4Y.s:94154  .debug_str:00000000000165f3 .LASF9670
     /tmp/cciiZT4Y.s:95936  .debug_str:000000000001df98 .LASF9671
     /tmp/cciiZT4Y.s:95470  .debug_str:000000000001bee7 .LASF9672
     /tmp/cciiZT4Y.s:93370  .debug_str:00000000000135a2 .LASF9673
     /tmp/cciiZT4Y.s:106048  .debug_str:0000000000047619 .LASF9674
     /tmp/cciiZT4Y.s:102226  .debug_str:0000000000037b92 .LASF9675
     /tmp/cciiZT4Y.s:97242  .debug_str:00000000000239cc .LASF9676
     /tmp/cciiZT4Y.s:97990  .debug_str:0000000000026662 .LASF9677
     /tmp/cciiZT4Y.s:107362  .debug_str:000000000004cf20 .LASF9678
     /tmp/cciiZT4Y.s:93794  .debug_str:0000000000014f02 .LASF9679
     /tmp/cciiZT4Y.s:94668  .debug_str:000000000001889e .LASF9685
     /tmp/cciiZT4Y.s:447    .text.MSS_CFM_get_count:0000000000000000 .LFB28
     /tmp/cciiZT4Y.s:606    .text.MSS_CFM_get_count:0000000000000104 .LFE28
     /tmp/cciiZT4Y.s:93394  .debug_str:000000000001372a .LASF9680
     /tmp/cciiZT4Y.s:106526  .debug_str:0000000000049544 .LASF9682
     /tmp/cciiZT4Y.s:311    .text.MSS_CFM_channel_mode:0000000000000000 .LFB27
     /tmp/cciiZT4Y.s:440    .text.MSS_CFM_channel_mode:0000000000000112 .LFE27
     /tmp/cciiZT4Y.s:97542  .debug_str:0000000000024da3 .LASF9681
     /tmp/cciiZT4Y.s:89984  .debug_str:0000000000005a57 .LASF9698
     /tmp/cciiZT4Y.s:95864  .debug_str:000000000001da3b .LASF9683
     /tmp/cciiZT4Y.s:273    .text.MSS_CFM_runtime_register:0000000000000000 .LFB26
     /tmp/cciiZT4Y.s:304    .text.MSS_CFM_runtime_register:0000000000000028 .LFE26
     /tmp/cciiZT4Y.s:103196  .debug_str:000000000003b658 .LASF9684
     /tmp/cciiZT4Y.s:99862  .debug_str:000000000002de76 .LASF9686
     /tmp/cciiZT4Y.s:97     .text.MSS_CLF_clk_configuration:0000000000000000 .LFB25
     /tmp/cciiZT4Y.s:266    .text.MSS_CLF_clk_configuration:0000000000000156 .LFE25
     /tmp/cciiZT4Y.s:92756  .debug_str:0000000000010c88 .LASF9687
     /tmp/cciiZT4Y.s:107114  .debug_str:000000000004bddd .LASF9688
     /tmp/cciiZT4Y.s:107116  .debug_str:000000000004bde5 .LASF9689
     /tmp/cciiZT4Y.s:97908  .debug_str:0000000000026190 .LASF9690
     /tmp/cciiZT4Y.s:101844  .debug_str:000000000003635e .LASF9691
     /tmp/cciiZT4Y.s:103320  .debug_str:000000000003be28 .LASF9692
     /tmp/cciiZT4Y.s:56     .text.MSS_CFM_control_stop:0000000000000000 .LFB24
     /tmp/cciiZT4Y.s:90     .text.MSS_CFM_control_stop:0000000000000036 .LFE24
     /tmp/cciiZT4Y.s:106766  .debug_str:000000000004a539 .LASF9693
     /tmp/cciiZT4Y.s:14     .text.MSS_CFM_control_start:0000000000000000 .LFB23
     /tmp/cciiZT4Y.s:49     .text.MSS_CFM_control_start:0000000000000036 .LFE23
     /tmp/cciiZT4Y.s:625    .debug_info:0000000000000000 .Ldebug_info0
     /tmp/cciiZT4Y.s:69998  .debug_macro:0000000000000000 .Ldebug_macro2
     /tmp/cciiZT4Y.s:95224  .debug_str:000000000001ae80 .LASF324
     /tmp/cciiZT4Y.s:104348  .debug_str:000000000004009d .LASF325
     /tmp/cciiZT4Y.s:101978  .debug_str:0000000000036caa .LASF326
     /tmp/cciiZT4Y.s:70975  .debug_macro:0000000000000000 .Ldebug_macro3
     /tmp/cciiZT4Y.s:70995  .debug_macro:0000000000000000 .Ldebug_macro4
     /tmp/cciiZT4Y.s:71060  .debug_macro:0000000000000000 .Ldebug_macro5
     /tmp/cciiZT4Y.s:71101  .debug_macro:0000000000000000 .Ldebug_macro6
     /tmp/cciiZT4Y.s:71223  .debug_macro:0000000000000000 .Ldebug_macro7
     /tmp/cciiZT4Y.s:71279  .debug_macro:0000000000000000 .Ldebug_macro8
     /tmp/cciiZT4Y.s:94828  .debug_str:0000000000019216 .LASF480
     /tmp/cciiZT4Y.s:93442  .debug_str:0000000000013a03 .LASF481
     /tmp/cciiZT4Y.s:99366  .debug_str:000000000002c053 .LASF482
     /tmp/cciiZT4Y.s:71491  .debug_macro:0000000000000000 .Ldebug_macro9
     /tmp/cciiZT4Y.s:94316  .debug_str:00000000000170b7 .LASF493
     /tmp/cciiZT4Y.s:71526  .debug_macro:0000000000000000 .Ldebug_macro10
     /tmp/cciiZT4Y.s:71540  .debug_macro:0000000000000000 .Ldebug_macro11
     /tmp/cciiZT4Y.s:71569  .debug_macro:0000000000000000 .Ldebug_macro12
     /tmp/cciiZT4Y.s:71598  .debug_macro:0000000000000000 .Ldebug_macro13
     /tmp/cciiZT4Y.s:91190  .debug_str:000000000000abb3 .LASF516
     /tmp/cciiZT4Y.s:71612  .debug_macro:0000000000000000 .Ldebug_macro14
     /tmp/cciiZT4Y.s:71680  .debug_macro:0000000000000000 .Ldebug_macro15
     /tmp/cciiZT4Y.s:72048  .debug_macro:0000000000000000 .Ldebug_macro16
     /tmp/cciiZT4Y.s:100302  .debug_str:000000000002fc00 .LASF691
     /tmp/cciiZT4Y.s:72161  .debug_macro:0000000000000000 .Ldebug_macro17
     /tmp/cciiZT4Y.s:103514  .debug_str:000000000003cac8 .LASF694
     /tmp/cciiZT4Y.s:99768  .debug_str:000000000002d826 .LASF695
     /tmp/cciiZT4Y.s:72172  .debug_macro:0000000000000000 .Ldebug_macro18
     /tmp/cciiZT4Y.s:72186  .debug_macro:0000000000000000 .Ldebug_macro19
     /tmp/cciiZT4Y.s:101848  .debug_str:000000000003638b .LASF700
     /tmp/cciiZT4Y.s:72218  .debug_macro:0000000000000000 .Ldebug_macro20
     /tmp/cciiZT4Y.s:72244  .debug_macro:0000000000000000 .Ldebug_macro21
     /tmp/cciiZT4Y.s:72255  .debug_macro:0000000000000000 .Ldebug_macro22
     /tmp/cciiZT4Y.s:72299  .debug_macro:0000000000000000 .Ldebug_macro23
     /tmp/cciiZT4Y.s:72478  .debug_macro:0000000000000000 .Ldebug_macro24
     /tmp/cciiZT4Y.s:92598  .debug_str:0000000000010441 .LASF782
     /tmp/cciiZT4Y.s:72489  .debug_macro:0000000000000000 .Ldebug_macro25
     /tmp/cciiZT4Y.s:72506  .debug_macro:0000000000000000 .Ldebug_macro26
     /tmp/cciiZT4Y.s:100792  .debug_str:0000000000031baa .LASF800
     /tmp/cciiZT4Y.s:101000  .debug_str:00000000000329de .LASF801
     /tmp/cciiZT4Y.s:72550  .debug_macro:0000000000000000 .Ldebug_macro27
     /tmp/cciiZT4Y.s:98936  .debug_str:000000000002a554 .LASF812
     /tmp/cciiZT4Y.s:89508  .debug_str:0000000000003986 .LASF813
     /tmp/cciiZT4Y.s:72585  .debug_macro:0000000000000000 .Ldebug_macro28
     /tmp/cciiZT4Y.s:72596  .debug_macro:0000000000000000 .Ldebug_macro29
     /tmp/cciiZT4Y.s:72631  .debug_macro:0000000000000000 .Ldebug_macro30
     /tmp/cciiZT4Y.s:98458  .debug_str:0000000000028529 .LASF858
     /tmp/cciiZT4Y.s:72732  .debug_macro:0000000000000000 .Ldebug_macro31
     /tmp/cciiZT4Y.s:72749  .debug_macro:0000000000000000 .Ldebug_macro32
     /tmp/cciiZT4Y.s:97962  .debug_str:00000000000264ad .LASF872
     /tmp/cciiZT4Y.s:93770  .debug_str:0000000000014d7b .LASF873
     /tmp/cciiZT4Y.s:72781  .debug_macro:0000000000000000 .Ldebug_macro33
     /tmp/cciiZT4Y.s:72795  .debug_macro:0000000000000000 .Ldebug_macro34
     /tmp/cciiZT4Y.s:72947  .debug_macro:0000000000000000 .Ldebug_macro35
     /tmp/cciiZT4Y.s:72988  .debug_macro:0000000000000000 .Ldebug_macro36
     /tmp/cciiZT4Y.s:88876  .debug_str:0000000000000e2d .LASF942
     /tmp/cciiZT4Y.s:73008  .debug_macro:0000000000000000 .Ldebug_macro37
     /tmp/cciiZT4Y.s:73022  .debug_macro:0000000000000000 .Ldebug_macro38
     /tmp/cciiZT4Y.s:95850  .debug_str:000000000001d92d .LASF944
     /tmp/cciiZT4Y.s:73048  .debug_macro:0000000000000000 .Ldebug_macro39
     /tmp/cciiZT4Y.s:73062  .debug_macro:0000000000000000 .Ldebug_macro40
     /tmp/cciiZT4Y.s:73085  .debug_macro:0000000000000000 .Ldebug_macro41
     /tmp/cciiZT4Y.s:92062  .debug_str:000000000000e61d .LASF955
     /tmp/cciiZT4Y.s:90002  .debug_str:0000000000005b91 .LASF956
     /tmp/cciiZT4Y.s:106372  .debug_str:0000000000048b9e .LASF957
     /tmp/cciiZT4Y.s:98644  .debug_str:00000000000292b3 .LASF958
     /tmp/cciiZT4Y.s:73099  .debug_macro:0000000000000000 .Ldebug_macro42
     /tmp/cciiZT4Y.s:73110  .debug_macro:0000000000000000 .Ldebug_macro43
     /tmp/cciiZT4Y.s:74909  .debug_macro:0000000000000000 .Ldebug_macro44
     /tmp/cciiZT4Y.s:95956  .debug_str:000000000001e12e .LASF1581
     /tmp/cciiZT4Y.s:74980  .debug_macro:0000000000000000 .Ldebug_macro45
     /tmp/cciiZT4Y.s:104252  .debug_str:000000000003fb13 .LASF3772
     /tmp/cciiZT4Y.s:81555  .debug_macro:0000000000000000 .Ldebug_macro46
     /tmp/cciiZT4Y.s:81572  .debug_macro:0000000000000000 .Ldebug_macro47
     /tmp/cciiZT4Y.s:81595  .debug_macro:0000000000000000 .Ldebug_macro48
     /tmp/cciiZT4Y.s:81612  .debug_macro:0000000000000000 .Ldebug_macro49
     /tmp/cciiZT4Y.s:81641  .debug_macro:0000000000000000 .Ldebug_macro50
     /tmp/cciiZT4Y.s:81700  .debug_macro:0000000000000000 .Ldebug_macro51
     /tmp/cciiZT4Y.s:81723  .debug_macro:0000000000000000 .Ldebug_macro52
     /tmp/cciiZT4Y.s:81782  .debug_macro:0000000000000000 .Ldebug_macro53
     /tmp/cciiZT4Y.s:84541  .debug_macro:0000000000000000 .Ldebug_macro54
     /tmp/cciiZT4Y.s:84585  .debug_macro:0000000000000000 .Ldebug_macro55
     /tmp/cciiZT4Y.s:84671  .debug_macro:0000000000000000 .Ldebug_macro56
     /tmp/cciiZT4Y.s:84700  .debug_macro:0000000000000000 .Ldebug_macro57
     /tmp/cciiZT4Y.s:84759  .debug_macro:0000000000000000 .Ldebug_macro58
     /tmp/cciiZT4Y.s:84821  .debug_macro:0000000000000000 .Ldebug_macro59
     /tmp/cciiZT4Y.s:84883  .debug_macro:0000000000000000 .Ldebug_macro60
     /tmp/cciiZT4Y.s:84945  .debug_macro:0000000000000000 .Ldebug_macro61
     /tmp/cciiZT4Y.s:85007  .debug_macro:0000000000000000 .Ldebug_macro62
     /tmp/cciiZT4Y.s:85069  .debug_macro:0000000000000000 .Ldebug_macro63
     /tmp/cciiZT4Y.s:85125  .debug_macro:0000000000000000 .Ldebug_macro64
     /tmp/cciiZT4Y.s:85181  .debug_macro:0000000000000000 .Ldebug_macro65
     /tmp/cciiZT4Y.s:85213  .debug_macro:0000000000000000 .Ldebug_macro66
     /tmp/cciiZT4Y.s:85233  .debug_macro:0000000000000000 .Ldebug_macro67
     /tmp/cciiZT4Y.s:85265  .debug_macro:0000000000000000 .Ldebug_macro68
     /tmp/cciiZT4Y.s:85297  .debug_macro:0000000000000000 .Ldebug_macro69
     /tmp/cciiZT4Y.s:85317  .debug_macro:0000000000000000 .Ldebug_macro70
     /tmp/cciiZT4Y.s:85337  .debug_macro:0000000000000000 .Ldebug_macro71
     /tmp/cciiZT4Y.s:85369  .debug_macro:0000000000000000 .Ldebug_macro72
     /tmp/cciiZT4Y.s:85383  .debug_macro:0000000000000000 .Ldebug_macro73
     /tmp/cciiZT4Y.s:85484  .debug_macro:0000000000000000 .Ldebug_macro74
     /tmp/cciiZT4Y.s:85501  .debug_macro:0000000000000000 .Ldebug_macro75
     /tmp/cciiZT4Y.s:85539  .debug_macro:0000000000000000 .Ldebug_macro76
     /tmp/cciiZT4Y.s:85562  .debug_macro:0000000000000000 .Ldebug_macro77
     /tmp/cciiZT4Y.s:85690  .debug_macro:0000000000000000 .Ldebug_macro78
     /tmp/cciiZT4Y.s:85704  .debug_macro:0000000000000000 .Ldebug_macro79
     /tmp/cciiZT4Y.s:85718  .debug_macro:0000000000000000 .Ldebug_macro80
     /tmp/cciiZT4Y.s:85774  .debug_macro:0000000000000000 .Ldebug_macro81
     /tmp/cciiZT4Y.s:86889  .debug_macro:0000000000000000 .Ldebug_macro82
     /tmp/cciiZT4Y.s:86921  .debug_macro:0000000000000000 .Ldebug_macro83
     /tmp/cciiZT4Y.s:86941  .debug_macro:0000000000000000 .Ldebug_macro84
     /tmp/cciiZT4Y.s:86985  .debug_macro:0000000000000000 .Ldebug_macro85
     /tmp/cciiZT4Y.s:87032  .debug_macro:0000000000000000 .Ldebug_macro86
     /tmp/cciiZT4Y.s:87079  .debug_macro:0000000000000000 .Ldebug_macro87
     /tmp/cciiZT4Y.s:87114  .debug_macro:0000000000000000 .Ldebug_macro88
     /tmp/cciiZT4Y.s:87137  .debug_macro:0000000000000000 .Ldebug_macro89
     /tmp/cciiZT4Y.s:88770  .debug_str:0000000000000761 .LASF5566
     /tmp/cciiZT4Y.s:87154  .debug_macro:0000000000000000 .Ldebug_macro90
     /tmp/cciiZT4Y.s:92606  .debug_str:00000000000104a9 .LASF5721
     /tmp/cciiZT4Y.s:87621  .debug_macro:0000000000000000 .Ldebug_macro91
     /tmp/cciiZT4Y.s:87638  .debug_macro:0000000000000000 .Ldebug_macro92
     /tmp/cciiZT4Y.s:87652  .debug_macro:0000000000000000 .Ldebug_macro93
     /tmp/cciiZT4Y.s:87969  .debug_macro:0000000000000000 .Ldebug_macro94
     /tmp/cciiZT4Y.s:87989  .debug_macro:0000000000000000 .Ldebug_macro95
     /tmp/cciiZT4Y.s:99850  .debug_str:000000000002dd85 .LASF5877
     /tmp/cciiZT4Y.s:88111  .debug_macro:0000000000000000 .Ldebug_macro96
     /tmp/cciiZT4Y.s:88173  .debug_macro:0000000000000000 .Ldebug_macro97
     /tmp/cciiZT4Y.s:99252  .debug_str:000000000002b992 .LASF5899
     /tmp/cciiZT4Y.s:88184  .debug_macro:0000000000000000 .Ldebug_macro98
     /tmp/cciiZT4Y.s:88213  .debug_macro:0000000000000000 .Ldebug_macro99
     /tmp/cciiZT4Y.s:103080  .debug_str:000000000003adf5 .LASF5924
     /tmp/cciiZT4Y.s:88266  .debug_macro:0000000000000000 .Ldebug_macro100
     /tmp/cciiZT4Y.s:107222  .debug_str:000000000004c4ba .LASF5944
     /tmp/cciiZT4Y.s:88328  .debug_macro:0000000000000000 .Ldebug_macro101
     /tmp/cciiZT4Y.s:88396  .debug_macro:0000000000000000 .Ldebug_macro102
     /tmp/cciiZT4Y.s:88419  .debug_macro:0000000000000000 .Ldebug_macro103
     /tmp/cciiZT4Y.s:88499  .debug_macro:0000000000000000 .Ldebug_macro104
     /tmp/cciiZT4Y.s:88630  .debug_macro:0000000000000000 .Ldebug_macro105
     /tmp/cciiZT4Y.s:88650  .debug_macro:0000000000000000 .Ldebug_macro106
     /tmp/cciiZT4Y.s:93532  .debug_str:0000000000013f67 .LASF0
     /tmp/cciiZT4Y.s:100404  .debug_str:0000000000030262 .LASF1
     /tmp/cciiZT4Y.s:97538  .debug_str:0000000000024d7d .LASF2
     /tmp/cciiZT4Y.s:97612  .debug_str:0000000000025185 .LASF3
     /tmp/cciiZT4Y.s:92052  .debug_str:000000000000e59d .LASF4
     /tmp/cciiZT4Y.s:92240  .debug_str:000000000000eea8 .LASF5
     /tmp/cciiZT4Y.s:103012  .debug_str:000000000003a8f0 .LASF6
     /tmp/cciiZT4Y.s:90962  .debug_str:0000000000009d1d .LASF7
     /tmp/cciiZT4Y.s:89270  .debug_str:0000000000002a9a .LASF8
     /tmp/cciiZT4Y.s:88938  .debug_str:0000000000001269 .LASF9
     /tmp/cciiZT4Y.s:102534  .debug_str:0000000000038e85 .LASF10
     /tmp/cciiZT4Y.s:106218  .debug_str:00000000000481bf .LASF11
     /tmp/cciiZT4Y.s:100090  .debug_str:000000000002edd7 .LASF12
     /tmp/cciiZT4Y.s:95746  .debug_str:000000000001d264 .LASF13
     /tmp/cciiZT4Y.s:91794  .debug_str:000000000000d60b .LASF14
     /tmp/cciiZT4Y.s:90992  .debug_str:0000000000009ecd .LASF15
     /tmp/cciiZT4Y.s:105308  .debug_str:00000000000445a8 .LASF16
     /tmp/cciiZT4Y.s:103640  .debug_str:000000000003d2c9 .LASF17
     /tmp/cciiZT4Y.s:94672  .debug_str:00000000000188d4 .LASF18
     /tmp/cciiZT4Y.s:106170  .debug_str:0000000000047e9d .LASF19
     /tmp/cciiZT4Y.s:105896  .debug_str:0000000000046c1d .LASF20
     /tmp/cciiZT4Y.s:106786  .debug_str:000000000004a737 .LASF21
     /tmp/cciiZT4Y.s:90310  .debug_str:000000000000711b .LASF22
     /tmp/cciiZT4Y.s:92176  .debug_str:000000000000ec5c .LASF23
     /tmp/cciiZT4Y.s:104684  .debug_str:0000000000041926 .LASF24
     /tmp/cciiZT4Y.s:102936  .debug_str:000000000003a41f .LASF25
     /tmp/cciiZT4Y.s:91702  .debug_str:000000000000cfdb .LASF26
     /tmp/cciiZT4Y.s:90728  .debug_str:0000000000008cb4 .LASF27
     /tmp/cciiZT4Y.s:104554  .debug_str:0000000000041062 .LASF28
     /tmp/cciiZT4Y.s:102814  .debug_str:0000000000039c8b .LASF29
     /tmp/cciiZT4Y.s:94364  .debug_str:000000000001742b .LASF30
     /tmp/cciiZT4Y.s:101916  .debug_str:0000000000036801 .LASF31
     /tmp/cciiZT4Y.s:95382  .debug_str:000000000001b8a1 .LASF32
     /tmp/cciiZT4Y.s:99510  .debug_str:000000000002c860 .LASF33
     /tmp/cciiZT4Y.s:99172  .debug_str:000000000002b390 .LASF34
     /tmp/cciiZT4Y.s:91524  .debug_str:000000000000c379 .LASF35
     /tmp/cciiZT4Y.s:93758  .debug_str:0000000000014ca4 .LASF36
     /tmp/cciiZT4Y.s:98362  .debug_str:0000000000027ed9 .LASF37
     /tmp/cciiZT4Y.s:107958  .debug_str:000000000004f81e .LASF38
     /tmp/cciiZT4Y.s:97390  .debug_str:00000000000243cb .LASF39
     /tmp/cciiZT4Y.s:98564  .debug_str:0000000000028ca5 .LASF40
     /tmp/cciiZT4Y.s:93722  .debug_str:0000000000014b3b .LASF41
     /tmp/cciiZT4Y.s:90174  .debug_str:00000000000066b2 .LASF42
     /tmp/cciiZT4Y.s:103434  .debug_str:000000000003c606 .LASF43
     /tmp/cciiZT4Y.s:89420  .debug_str:0000000000003460 .LASF44
     /tmp/cciiZT4Y.s:104420  .debug_str:0000000000040549 .LASF45
     /tmp/cciiZT4Y.s:90144  .debug_str:00000000000064b5 .LASF46
     /tmp/cciiZT4Y.s:102932  .debug_str:000000000003a3e8 .LASF47
     /tmp/cciiZT4Y.s:99810  .debug_str:000000000002db21 .LASF48
     /tmp/cciiZT4Y.s:95998  .debug_str:000000000001e43b .LASF49
     /tmp/cciiZT4Y.s:107448  .debug_str:000000000004d455 .LASF50
     /tmp/cciiZT4Y.s:90368  .debug_str:0000000000007510 .LASF51
     /tmp/cciiZT4Y.s:94764  .debug_str:0000000000018df2 .LASF52
     /tmp/cciiZT4Y.s:101662  .debug_str:0000000000035638 .LASF53
     /tmp/cciiZT4Y.s:89106  .debug_str:0000000000001f2b .LASF54
     /tmp/cciiZT4Y.s:91658  .debug_str:000000000000cd19 .LASF55
     /tmp/cciiZT4Y.s:105894  .debug_str:0000000000046bf4 .LASF56
     /tmp/cciiZT4Y.s:104312  .debug_str:000000000003fe7c .LASF57
     /tmp/cciiZT4Y.s:107082  .debug_str:000000000004bb9c .LASF58
     /tmp/cciiZT4Y.s:105522  .debug_str:0000000000045382 .LASF59
     /tmp/cciiZT4Y.s:99770  .debug_str:000000000002d835 .LASF60
     /tmp/cciiZT4Y.s:105590  .debug_str:000000000004589f .LASF61
     /tmp/cciiZT4Y.s:98688  .debug_str:0000000000029564 .LASF62
     /tmp/cciiZT4Y.s:104204  .debug_str:000000000003f836 .LASF63
     /tmp/cciiZT4Y.s:98024  .debug_str:00000000000268b3 .LASF64
     /tmp/cciiZT4Y.s:99404  .debug_str:000000000002c2ce .LASF65
     /tmp/cciiZT4Y.s:100818  .debug_str:0000000000031cfd .LASF66
     /tmp/cciiZT4Y.s:96050  .debug_str:000000000001e7bc .LASF67
     /tmp/cciiZT4Y.s:105650  .debug_str:0000000000045c29 .LASF68
     /tmp/cciiZT4Y.s:103324  .debug_str:000000000003be4f .LASF69
     /tmp/cciiZT4Y.s:107960  .debug_str:000000000004f837 .LASF70
     /tmp/cciiZT4Y.s:94280  .debug_str:0000000000016ea6 .LASF71
     /tmp/cciiZT4Y.s:89216  .debug_str:00000000000026d0 .LASF72
     /tmp/cciiZT4Y.s:106124  .debug_str:0000000000047b4d .LASF73
     /tmp/cciiZT4Y.s:97920  .debug_str:000000000002624a .LASF74
     /tmp/cciiZT4Y.s:104374  .debug_str:000000000004020d .LASF75
     /tmp/cciiZT4Y.s:97220  .debug_str:0000000000023841 .LASF76
     /tmp/cciiZT4Y.s:90772  .debug_str:0000000000008fdb .LASF77
     /tmp/cciiZT4Y.s:101052  .debug_str:0000000000032da7 .LASF78
     /tmp/cciiZT4Y.s:99064  .debug_str:000000000002acc4 .LASF79
     /tmp/cciiZT4Y.s:100564  .debug_str:0000000000030d45 .LASF80
     /tmp/cciiZT4Y.s:93506  .debug_str:0000000000013db4 .LASF81
     /tmp/cciiZT4Y.s:90940  .debug_str:0000000000009b7f .LASF82
     /tmp/cciiZT4Y.s:90972  .debug_str:0000000000009dc7 .LASF83
     /tmp/cciiZT4Y.s:92694  .debug_str:0000000000010956 .LASF84
     /tmp/cciiZT4Y.s:99452  .debug_str:000000000002c55d .LASF85
     /tmp/cciiZT4Y.s:101222  .debug_str:00000000000338dc .LASF86
     /tmp/cciiZT4Y.s:97450  .debug_str:0000000000024825 .LASF87
     /tmp/cciiZT4Y.s:106496  .debug_str:00000000000493d3 .LASF88
     /tmp/cciiZT4Y.s:91980  .debug_str:000000000000e134 .LASF89
     /tmp/cciiZT4Y.s:98282  .debug_str:00000000000279b2 .LASF90
     /tmp/cciiZT4Y.s:95030  .debug_str:0000000000019ffd .LASF91
     /tmp/cciiZT4Y.s:97232  .debug_str:0000000000023948 .LASF92
     /tmp/cciiZT4Y.s:106524  .debug_str:000000000004952f .LASF93
     /tmp/cciiZT4Y.s:106966  .debug_str:000000000004b3f7 .LASF94
     /tmp/cciiZT4Y.s:100872  .debug_str:0000000000032070 .LASF95
     /tmp/cciiZT4Y.s:96820  .debug_str:0000000000021e44 .LASF96
     /tmp/cciiZT4Y.s:92058  .debug_str:000000000000e5d2 .LASF97
     /tmp/cciiZT4Y.s:101048  .debug_str:0000000000032d6c .LASF98
     /tmp/cciiZT4Y.s:103060  .debug_str:000000000003ac52 .LASF99
     /tmp/cciiZT4Y.s:102470  .debug_str:0000000000038a30 .LASF100
     /tmp/cciiZT4Y.s:89390  .debug_str:0000000000003241 .LASF101
     /tmp/cciiZT4Y.s:99626  .debug_str:000000000002cfb5 .LASF102
     /tmp/cciiZT4Y.s:91710  .debug_str:000000000000d07c .LASF103
     /tmp/cciiZT4Y.s:99494  .debug_str:000000000002c7a7 .LASF104
     /tmp/cciiZT4Y.s:97460  .debug_str:00000000000248b3 .LASF105
     /tmp/cciiZT4Y.s:99286  .debug_str:000000000002bb3f .LASF106
     /tmp/cciiZT4Y.s:89798  .debug_str:0000000000004e79 .LASF107
     /tmp/cciiZT4Y.s:93320  .debug_str:000000000001317b .LASF108
     /tmp/cciiZT4Y.s:100512  .debug_str:00000000000309ee .LASF109
     /tmp/cciiZT4Y.s:104392  .debug_str:000000000004032b .LASF110
     /tmp/cciiZT4Y.s:91864  .debug_str:000000000000dad1 .LASF111
     /tmp/cciiZT4Y.s:102874  .debug_str:0000000000039fb2 .LASF112
     /tmp/cciiZT4Y.s:88840  .debug_str:0000000000000c06 .LASF113
     /tmp/cciiZT4Y.s:104860  .debug_str:00000000000428a8 .LASF114
     /tmp/cciiZT4Y.s:106292  .debug_str:0000000000048692 .LASF115
     /tmp/cciiZT4Y.s:97816  .debug_str:0000000000025ca3 .LASF116
     /tmp/cciiZT4Y.s:93268  .debug_str:0000000000012de5 .LASF117
     /tmp/cciiZT4Y.s:93826  .debug_str:00000000000150fb .LASF118
     /tmp/cciiZT4Y.s:102104  .debug_str:00000000000374c4 .LASF119
     /tmp/cciiZT4Y.s:99814  .debug_str:000000000002db55 .LASF120
     /tmp/cciiZT4Y.s:92624  .debug_str:0000000000010595 .LASF121
     /tmp/cciiZT4Y.s:94058  .debug_str:0000000000015fbe .LASF122
     /tmp/cciiZT4Y.s:92820  .debug_str:0000000000011047 .LASF123
     /tmp/cciiZT4Y.s:94982  .debug_str:0000000000019d32 .LASF124
     /tmp/cciiZT4Y.s:102614  .debug_str:0000000000039253 .LASF125
     /tmp/cciiZT4Y.s:104200  .debug_str:000000000003f7f6 .LASF126
     /tmp/cciiZT4Y.s:103826  .debug_str:000000000003e050 .LASF127
     /tmp/cciiZT4Y.s:103054  .debug_str:000000000003abe0 .LASF128
     /tmp/cciiZT4Y.s:98886  .debug_str:000000000002a1bd .LASF129
     /tmp/cciiZT4Y.s:103708  .debug_str:000000000003d73e .LASF130
     /tmp/cciiZT4Y.s:93002  .debug_str:0000000000011c0d .LASF131
     /tmp/cciiZT4Y.s:96980  .debug_str:00000000000227b3 .LASF132
     /tmp/cciiZT4Y.s:98962  .debug_str:000000000002a708 .LASF133
     /tmp/cciiZT4Y.s:93362  .debug_str:00000000000134d3 .LASF134
     /tmp/cciiZT4Y.s:106040  .debug_str:0000000000047577 .LASF135
     /tmp/cciiZT4Y.s:104016  .debug_str:000000000003ebbd .LASF136
     /tmp/cciiZT4Y.s:99888  .debug_str:000000000002e024 .LASF137
     /tmp/cciiZT4Y.s:95926  .debug_str:000000000001def4 .LASF138
     /tmp/cciiZT4Y.s:102182  .debug_str:00000000000379cd .LASF139
     /tmp/cciiZT4Y.s:93962  .debug_str:00000000000159b6 .LASF140
     /tmp/cciiZT4Y.s:107108  .debug_str:000000000004bd8e .LASF141
     /tmp/cciiZT4Y.s:98802  .debug_str:0000000000029c0a .LASF142
     /tmp/cciiZT4Y.s:97734  .debug_str:0000000000025894 .LASF143
     /tmp/cciiZT4Y.s:93056  .debug_str:0000000000011f9d .LASF144
     /tmp/cciiZT4Y.s:91632  .debug_str:000000000000cafa .LASF145
     /tmp/cciiZT4Y.s:92636  .debug_str:0000000000010617 .LASF146
     /tmp/cciiZT4Y.s:93426  .debug_str:00000000000138f5 .LASF147
     /tmp/cciiZT4Y.s:96332  .debug_str:000000000001fb6f .LASF148
     /tmp/cciiZT4Y.s:100562  .debug_str:0000000000030d31 .LASF149
     /tmp/cciiZT4Y.s:104248  .debug_str:000000000003faec .LASF150
     /tmp/cciiZT4Y.s:95072  .debug_str:000000000001a349 .LASF151
     /tmp/cciiZT4Y.s:97868  .debug_str:0000000000025ea8 .LASF152
     /tmp/cciiZT4Y.s:90918  .debug_str:00000000000099dc .LASF153
     /tmp/cciiZT4Y.s:104678  .debug_str:00000000000418e9 .LASF154
     /tmp/cciiZT4Y.s:93388  .debug_str:00000000000136d7 .LASF155
     /tmp/cciiZT4Y.s:106098  .debug_str:0000000000047967 .LASF156
     /tmp/cciiZT4Y.s:99640  .debug_str:000000000002d060 .LASF157
     /tmp/cciiZT4Y.s:89976  .debug_str:00000000000059bb .LASF158
     /tmp/cciiZT4Y.s:90236  .debug_str:0000000000006b17 .LASF159
     /tmp/cciiZT4Y.s:107402  .debug_str:000000000004d176 .LASF160
     /tmp/cciiZT4Y.s:104464  .debug_str:0000000000040885 .LASF161
     /tmp/cciiZT4Y.s:106894  .debug_str:000000000004aeb2 .LASF162
     /tmp/cciiZT4Y.s:93124  .debug_str:00000000000124ab .LASF163
     /tmp/cciiZT4Y.s:93970  .debug_str:0000000000015a37 .LASF164
     /tmp/cciiZT4Y.s:106632  .debug_str:0000000000049c83 .LASF165
     /tmp/cciiZT4Y.s:100880  .debug_str:00000000000320e2 .LASF166
     /tmp/cciiZT4Y.s:93212  .debug_str:00000000000129e8 .LASF167
     /tmp/cciiZT4Y.s:89204  .debug_str:00000000000025c9 .LASF168
     /tmp/cciiZT4Y.s:99868  .debug_str:000000000002ded3 .LASF169
     /tmp/cciiZT4Y.s:103148  .debug_str:000000000003b23f .LASF170
     /tmp/cciiZT4Y.s:101608  .debug_str:000000000003528f .LASF171
     /tmp/cciiZT4Y.s:100340  .debug_str:000000000002fe89 .LASF172
     /tmp/cciiZT4Y.s:91258  .debug_str:000000000000b07f .LASF173
     /tmp/cciiZT4Y.s:103332  .debug_str:000000000003bee0 .LASF174
     /tmp/cciiZT4Y.s:100814  .debug_str:0000000000031cce .LASF175
     /tmp/cciiZT4Y.s:93434  .debug_str:0000000000013951 .LASF176
     /tmp/cciiZT4Y.s:93354  .debug_str:0000000000013466 .LASF177
     /tmp/cciiZT4Y.s:102440  .debug_str:0000000000038949 .LASF178
     /tmp/cciiZT4Y.s:99760  .debug_str:000000000002d7a0 .LASF179
     /tmp/cciiZT4Y.s:101636  .debug_str:0000000000035498 .LASF180
     /tmp/cciiZT4Y.s:93472  .debug_str:0000000000013b86 .LASF181
     /tmp/cciiZT4Y.s:107020  .debug_str:000000000004b74c .LASF182
     /tmp/cciiZT4Y.s:90990  .debug_str:0000000000009eb6 .LASF183
     /tmp/cciiZT4Y.s:106222  .debug_str:00000000000481e0 .LASF184
     /tmp/cciiZT4Y.s:97124  .debug_str:00000000000230fa .LASF185
     /tmp/cciiZT4Y.s:94270  .debug_str:0000000000016df7 .LASF186
     /tmp/cciiZT4Y.s:98018  .debug_str:0000000000026814 .LASF187
     /tmp/cciiZT4Y.s:95542  .debug_str:000000000001c3b6 .LASF188
     /tmp/cciiZT4Y.s:89718  .debug_str:000000000000487c .LASF189
     /tmp/cciiZT4Y.s:93336  .debug_str:0000000000013304 .LASF190
     /tmp/cciiZT4Y.s:107646  .debug_str:000000000004e346 .LASF191
     /tmp/cciiZT4Y.s:103918  .debug_str:000000000003e649 .LASF192
     /tmp/cciiZT4Y.s:96236  .debug_str:000000000001f4bb .LASF193
     /tmp/cciiZT4Y.s:89724  .debug_str:000000000000490c .LASF194
     /tmp/cciiZT4Y.s:104282  .debug_str:000000000003fcc0 .LASF195
     /tmp/cciiZT4Y.s:105762  .debug_str:0000000000046338 .LASF196
     /tmp/cciiZT4Y.s:97296  .debug_str:0000000000023d3c .LASF197
     /tmp/cciiZT4Y.s:88734  .debug_str:00000000000004b2 .LASF198
     /tmp/cciiZT4Y.s:89414  .debug_str:00000000000033ff .LASF199
     /tmp/cciiZT4Y.s:104880  .debug_str:00000000000429ed .LASF200
     /tmp/cciiZT4Y.s:100054  .debug_str:000000000002eb69 .LASF201
     /tmp/cciiZT4Y.s:106454  .debug_str:00000000000490fb .LASF202
     /tmp/cciiZT4Y.s:102820  .debug_str:0000000000039cec .LASF203
     /tmp/cciiZT4Y.s:89920  .debug_str:00000000000055be .LASF204
     /tmp/cciiZT4Y.s:106418  .debug_str:0000000000048e9c .LASF205
     /tmp/cciiZT4Y.s:97446  .debug_str:00000000000247e4 .LASF206
     /tmp/cciiZT4Y.s:104864  .debug_str:0000000000042908 .LASF207
     /tmp/cciiZT4Y.s:96028  .debug_str:000000000001e67a .LASF208
     /tmp/cciiZT4Y.s:99238  .debug_str:000000000002b8c9 .LASF209
     /tmp/cciiZT4Y.s:94380  .debug_str:000000000001754e .LASF210
     /tmp/cciiZT4Y.s:91982  .debug_str:000000000000e146 .LASF211
     /tmp/cciiZT4Y.s:107762  .debug_str:000000000004eaab .LASF212
     /tmp/cciiZT4Y.s:104980  .debug_str:0000000000043021 .LASF213
     /tmp/cciiZT4Y.s:94456  .debug_str:0000000000017ad6 .LASF214
     /tmp/cciiZT4Y.s:97726  .debug_str:00000000000257ff .LASF215
     /tmp/cciiZT4Y.s:96014  .debug_str:000000000001e53d .LASF216
     /tmp/cciiZT4Y.s:94228  .debug_str:0000000000016b07 .LASF217
     /tmp/cciiZT4Y.s:101508  .debug_str:0000000000034beb .LASF218
     /tmp/cciiZT4Y.s:90054  .debug_str:0000000000005ee6 .LASF219
     /tmp/cciiZT4Y.s:97084  .debug_str:0000000000022ed4 .LASF220
     /tmp/cciiZT4Y.s:107564  .debug_str:000000000004ddc2 .LASF221
     /tmp/cciiZT4Y.s:103862  .debug_str:000000000003e2b4 .LASF222
     /tmp/cciiZT4Y.s:93620  .debug_str:00000000000144d9 .LASF223
     /tmp/cciiZT4Y.s:105444  .debug_str:0000000000044e8e .LASF224
     /tmp/cciiZT4Y.s:107270  .debug_str:000000000004c815 .LASF225
     /tmp/cciiZT4Y.s:95046  .debug_str:000000000001a142 .LASF226
     /tmp/cciiZT4Y.s:103784  .debug_str:000000000003dd75 .LASF227
     /tmp/cciiZT4Y.s:95136  .debug_str:000000000001a7c8 .LASF228
     /tmp/cciiZT4Y.s:102468  .debug_str:0000000000038a15 .LASF229
     /tmp/cciiZT4Y.s:90980  .debug_str:0000000000009e33 .LASF230
     /tmp/cciiZT4Y.s:91264  .debug_str:000000000000b104 .LASF231
     /tmp/cciiZT4Y.s:95170  .debug_str:000000000001aa92 .LASF232
     /tmp/cciiZT4Y.s:92844  .debug_str:00000000000111c6 .LASF233
     /tmp/cciiZT4Y.s:89988  .debug_str:0000000000005a79 .LASF234
     /tmp/cciiZT4Y.s:103458  .debug_str:000000000003c7d3 .LASF235
     /tmp/cciiZT4Y.s:100622  .debug_str:00000000000310a0 .LASF236
     /tmp/cciiZT4Y.s:92526  .debug_str:0000000000010093 .LASF237
     /tmp/cciiZT4Y.s:92174  .debug_str:000000000000ec45 .LASF238
     /tmp/cciiZT4Y.s:106918  .debug_str:000000000004b058 .LASF239
     /tmp/cciiZT4Y.s:94568  .debug_str:00000000000181bf .LASF240
     /tmp/cciiZT4Y.s:95890  .debug_str:000000000001dc93 .LASF241
     /tmp/cciiZT4Y.s:106798  .debug_str:000000000004a7c9 .LASF242
     /tmp/cciiZT4Y.s:102370  .debug_str:0000000000038570 .LASF243
     /tmp/cciiZT4Y.s:105602  .debug_str:0000000000045931 .LASF244
     /tmp/cciiZT4Y.s:101800  .debug_str:0000000000036069 .LASF245
     /tmp/cciiZT4Y.s:94546  .debug_str:000000000001806f .LASF246
     /tmp/cciiZT4Y.s:104632  .debug_str:000000000004160d .LASF247
     /tmp/cciiZT4Y.s:97222  .debug_str:0000000000023868 .LASF248
     /tmp/cciiZT4Y.s:101796  .debug_str:000000000003603e .LASF249
     /tmp/cciiZT4Y.s:95966  .debug_str:000000000001e1c8 .LASF250
     /tmp/cciiZT4Y.s:106508  .debug_str:0000000000049492 .LASF251
     /tmp/cciiZT4Y.s:95368  .debug_str:000000000001b7cb .LASF252
     /tmp/cciiZT4Y.s:102336  .debug_str:00000000000382e4 .LASF253
     /tmp/cciiZT4Y.s:89504  .debug_str:0000000000003961 .LASF254
     /tmp/cciiZT4Y.s:103360  .debug_str:000000000003c12a .LASF255
     /tmp/cciiZT4Y.s:90276  .debug_str:0000000000006e1a .LASF256
     /tmp/cciiZT4Y.s:90554  .debug_str:00000000000080bf .LASF257
     /tmp/cciiZT4Y.s:106834  .debug_str:000000000004aa54 .LASF258
     /tmp/cciiZT4Y.s:104726  .debug_str:0000000000041edf .LASF259
     /tmp/cciiZT4Y.s:92380  .debug_str:000000000000f7da .LASF260
     /tmp/cciiZT4Y.s:96064  .debug_str:000000000001e88b .LASF261
     /tmp/cciiZT4Y.s:105862  .debug_str:0000000000046942 .LASF262
     /tmp/cciiZT4Y.s:103532  .debug_str:000000000003cc32 .LASF263
     /tmp/cciiZT4Y.s:99434  .debug_str:000000000002c46e .LASF264
     /tmp/cciiZT4Y.s:91500  .debug_str:000000000000c201 .LASF265
     /tmp/cciiZT4Y.s:97056  .debug_str:0000000000022cc6 .LASF266
     /tmp/cciiZT4Y.s:100800  .debug_str:0000000000031c20 .LASF267
     /tmp/cciiZT4Y.s:96348  .debug_str:000000000001fc57 .LASF268
     /tmp/cciiZT4Y.s:98562  .debug_str:0000000000028c90 .LASF269
     /tmp/cciiZT4Y.s:100914  .debug_str:0000000000032362 .LASF270
     /tmp/cciiZT4Y.s:91362  .debug_str:000000000000b840 .LASF271
     /tmp/cciiZT4Y.s:107010  .debug_str:000000000004b6c0 .LASF272
     /tmp/cciiZT4Y.s:93530  .debug_str:0000000000013f40 .LASF273
     /tmp/cciiZT4Y.s:91334  .debug_str:000000000000b651 .LASF274
     /tmp/cciiZT4Y.s:102846  .debug_str:0000000000039e77 .LASF275
     /tmp/cciiZT4Y.s:98278  .debug_str:000000000002795e .LASF276
     /tmp/cciiZT4Y.s:88822  .debug_str:0000000000000b08 .LASF277
     /tmp/cciiZT4Y.s:102156  .debug_str:00000000000377d0 .LASF278
     /tmp/cciiZT4Y.s:101012  .debug_str:0000000000032a9a .LASF279
     /tmp/cciiZT4Y.s:107144  .debug_str:000000000004bf85 .LASF280
     /tmp/cciiZT4Y.s:99154  .debug_str:000000000002b2b1 .LASF281
     /tmp/cciiZT4Y.s:104400  .debug_str:00000000000403b5 .LASF282
     /tmp/cciiZT4Y.s:89060  .debug_str:0000000000001b6f .LASF283
     /tmp/cciiZT4Y.s:108068  .debug_str:000000000004ff82 .LASF284
     /tmp/cciiZT4Y.s:101028  .debug_str:0000000000032bd2 .LASF285
     /tmp/cciiZT4Y.s:100808  .debug_str:0000000000031c84 .LASF286
     /tmp/cciiZT4Y.s:94222  .debug_str:0000000000016a67 .LASF287
     /tmp/cciiZT4Y.s:107758  .debug_str:000000000004ea7d .LASF288
     /tmp/cciiZT4Y.s:106416  .debug_str:0000000000048e85 .LASF289
     /tmp/cciiZT4Y.s:94474  .debug_str:0000000000017c61 .LASF290
     /tmp/cciiZT4Y.s:90920  .debug_str:00000000000099f0 .LASF291
     /tmp/cciiZT4Y.s:103508  .debug_str:000000000003ca78 .LASF292
     /tmp/cciiZT4Y.s:105324  .debug_str:00000000000446a8 .LASF293
     /tmp/cciiZT4Y.s:102246  .debug_str:0000000000037d0c .LASF294
     /tmp/cciiZT4Y.s:90466  .debug_str:0000000000007b48 .LASF295
     /tmp/cciiZT4Y.s:98792  .debug_str:0000000000029b4d .LASF296
     /tmp/cciiZT4Y.s:96406  .debug_str:0000000000020140 .LASF297
     /tmp/cciiZT4Y.s:104326  .debug_str:000000000003ff42 .LASF298
     /tmp/cciiZT4Y.s:91332  .debug_str:000000000000b632 .LASF299
     /tmp/cciiZT4Y.s:104502  .debug_str:0000000000040c6c .LASF300
     /tmp/cciiZT4Y.s:93936  .debug_str:000000000001582d .LASF301
     /tmp/cciiZT4Y.s:104438  .debug_str:0000000000040676 .LASF302
     /tmp/cciiZT4Y.s:106138  .debug_str:0000000000047c71 .LASF303
     /tmp/cciiZT4Y.s:98108  .debug_str:0000000000026eb7 .LASF304
     /tmp/cciiZT4Y.s:102972  .debug_str:000000000003a608 .LASF305
     /tmp/cciiZT4Y.s:101074  .debug_str:0000000000032ee8 .LASF306
     /tmp/cciiZT4Y.s:97252  .debug_str:0000000000023a7a .LASF307
     /tmp/cciiZT4Y.s:106446  .debug_str:00000000000490b1 .LASF308
     /tmp/cciiZT4Y.s:106460  .debug_str:0000000000049189 .LASF309
     /tmp/cciiZT4Y.s:100464  .debug_str:0000000000030672 .LASF310
     /tmp/cciiZT4Y.s:90488  .debug_str:0000000000007ca8 .LASF311
     /tmp/cciiZT4Y.s:88830  .debug_str:0000000000000b59 .LASF312
     /tmp/cciiZT4Y.s:102840  .debug_str:0000000000039e3e .LASF313
     /tmp/cciiZT4Y.s:101228  .debug_str:000000000003391b .LASF314
     /tmp/cciiZT4Y.s:102086  .debug_str:00000000000373ae .LASF315
     /tmp/cciiZT4Y.s:88902  .debug_str:0000000000000ffb .LASF316
     /tmp/cciiZT4Y.s:95908  .debug_str:000000000001ddcd .LASF317
     /tmp/cciiZT4Y.s:97090  .debug_str:0000000000022f20 .LASF318
     /tmp/cciiZT4Y.s:96414  .debug_str:00000000000201ef .LASF319
     /tmp/cciiZT4Y.s:106708  .debug_str:000000000004a141 .LASF320
     /tmp/cciiZT4Y.s:104158  .debug_str:000000000003f4d0 .LASF321
     /tmp/cciiZT4Y.s:100630  .debug_str:0000000000031134 .LASF322
     /tmp/cciiZT4Y.s:94096  .debug_str:00000000000161e4 .LASF323
     /tmp/cciiZT4Y.s:94980  .debug_str:0000000000019d1c .LASF327
     /tmp/cciiZT4Y.s:101952  .debug_str:0000000000036aab .LASF328
     /tmp/cciiZT4Y.s:99144  .debug_str:000000000002b249 .LASF329
     /tmp/cciiZT4Y.s:93624  .debug_str:00000000000144fd .LASF330
     /tmp/cciiZT4Y.s:102620  .debug_str:00000000000392c3 .LASF331
     /tmp/cciiZT4Y.s:99744  .debug_str:000000000002d67c .LASF332
     /tmp/cciiZT4Y.s:90122  .debug_str:000000000000631a .LASF333
     /tmp/cciiZT4Y.s:103932  .debug_str:000000000003e75a .LASF334
     /tmp/cciiZT4Y.s:88786  .debug_str:0000000000000853 .LASF335
     /tmp/cciiZT4Y.s:93788  .debug_str:0000000000014e95 .LASF336
     /tmp/cciiZT4Y.s:96010  .debug_str:000000000001e4f4 .LASF337
     /tmp/cciiZT4Y.s:95450  .debug_str:000000000001bdaa .LASF338
     /tmp/cciiZT4Y.s:93862  .debug_str:0000000000015359 .LASF339
     /tmp/cciiZT4Y.s:99046  .debug_str:000000000002abe8 .LASF340
     /tmp/cciiZT4Y.s:104140  .debug_str:000000000003f3d3 .LASF341
     /tmp/cciiZT4Y.s:104572  .debug_str:000000000004120b .LASF342
     /tmp/cciiZT4Y.s:102690  .debug_str:00000000000395f5 .LASF343
     /tmp/cciiZT4Y.s:93972  .debug_str:0000000000015a4b .LASF344
     /tmp/cciiZT4Y.s:94908  .debug_str:000000000001980a .LASF345
     /tmp/cciiZT4Y.s:97858  .debug_str:0000000000025e52 .LASF346
     /tmp/cciiZT4Y.s:100108  .debug_str:000000000002eee8 .LASF347
     /tmp/cciiZT4Y.s:91946  .debug_str:000000000000dedd .LASF348
     /tmp/cciiZT4Y.s:95478  .debug_str:000000000001bf3e .LASF349
     /tmp/cciiZT4Y.s:95140  .debug_str:000000000001a7e9 .LASF350
     /tmp/cciiZT4Y.s:91858  .debug_str:000000000000da85 .LASF351
     /tmp/cciiZT4Y.s:94536  .debug_str:0000000000017fee .LASF352
     /tmp/cciiZT4Y.s:105364  .debug_str:0000000000044934 .LASF353
     /tmp/cciiZT4Y.s:92758  .debug_str:0000000000010c8f .LASF354
     /tmp/cciiZT4Y.s:89558  .debug_str:0000000000003d0d .LASF355
     /tmp/cciiZT4Y.s:93588  .debug_str:00000000000142aa .LASF356
     /tmp/cciiZT4Y.s:105676  .debug_str:0000000000045dce .LASF357
     /tmp/cciiZT4Y.s:94726  .debug_str:0000000000018baa .LASF358
     /tmp/cciiZT4Y.s:92548  .debug_str:00000000000101f9 .LASF359
     /tmp/cciiZT4Y.s:100286  .debug_str:000000000002fb20 .LASF360
     /tmp/cciiZT4Y.s:103604  .debug_str:000000000003d0af .LASF361
     /tmp/cciiZT4Y.s:100934  .debug_str:000000000003254c .LASF362
     /tmp/cciiZT4Y.s:100812  .debug_str:0000000000031cc8 .LASF363
     /tmp/cciiZT4Y.s:105456  .debug_str:0000000000044f46 .LASF364
     /tmp/cciiZT4Y.s:89042  .debug_str:0000000000001a5b .LASF365
     /tmp/cciiZT4Y.s:102000  .debug_str:0000000000036dff .LASF366
     /tmp/cciiZT4Y.s:99508  .debug_str:000000000002c857 .LASF367
     /tmp/cciiZT4Y.s:98742  .debug_str:0000000000029878 .LASF369
     /tmp/cciiZT4Y.s:107794  .debug_str:000000000004ed39 .LASF370
     /tmp/cciiZT4Y.s:100510  .debug_str:00000000000309e4 .LASF371
     /tmp/cciiZT4Y.s:101304  .debug_str:0000000000033e18 .LASF372
     /tmp/cciiZT4Y.s:89152  .debug_str:0000000000002274 .LASF373
     /tmp/cciiZT4Y.s:91588  .debug_str:000000000000c7bd .LASF374
     /tmp/cciiZT4Y.s:100372  .debug_str:00000000000300ae .LASF375
     /tmp/cciiZT4Y.s:98444  .debug_str:0000000000028429 .LASF376
     /tmp/cciiZT4Y.s:106544  .debug_str:000000000004969e .LASF377
     /tmp/cciiZT4Y.s:102652  .debug_str:00000000000393b1 .LASF378
     /tmp/cciiZT4Y.s:101522  .debug_str:0000000000034d1e .LASF379
     /tmp/cciiZT4Y.s:105712  .debug_str:0000000000046023 .LASF380
     /tmp/cciiZT4Y.s:101822  .debug_str:00000000000361d6 .LASF381
     /tmp/cciiZT4Y.s:95570  .debug_str:000000000001c66d .LASF382
     /tmp/cciiZT4Y.s:101880  .debug_str:0000000000036600 .LASF383
     /tmp/cciiZT4Y.s:101054  .debug_str:0000000000032dca .LASF384
     /tmp/cciiZT4Y.s:94766  .debug_str:0000000000018e11 .LASF385
     /tmp/cciiZT4Y.s:106784  .debug_str:000000000004a72e .LASF386
     /tmp/cciiZT4Y.s:92042  .debug_str:000000000000e4df .LASF387
     /tmp/cciiZT4Y.s:102536  .debug_str:0000000000038e98 .LASF388
     /tmp/cciiZT4Y.s:90224  .debug_str:0000000000006a41 .LASF389
     /tmp/cciiZT4Y.s:92868  .debug_str:00000000000113ad .LASF390
     /tmp/cciiZT4Y.s:95642  .debug_str:000000000001cbc5 .LASF391
     /tmp/cciiZT4Y.s:102776  .debug_str:0000000000039af3 .LASF392
     /tmp/cciiZT4Y.s:107980  .debug_str:000000000004f98b .LASF393
     /tmp/cciiZT4Y.s:98360  .debug_str:0000000000027ec9 .LASF394
     /tmp/cciiZT4Y.s:96690  .debug_str:0000000000021467 .LASF395
     /tmp/cciiZT4Y.s:103082  .debug_str:000000000003ae05 .LASF396
     /tmp/cciiZT4Y.s:94038  .debug_str:0000000000015ece .LASF397
     /tmp/cciiZT4Y.s:106244  .debug_str:000000000004834a .LASF398
     /tmp/cciiZT4Y.s:96324  .debug_str:000000000001fad0 .LASF399
     /tmp/cciiZT4Y.s:103890  .debug_str:000000000003e452 .LASF400
     /tmp/cciiZT4Y.s:98950  .debug_str:000000000002a672 .LASF401
     /tmp/cciiZT4Y.s:88946  .debug_str:00000000000012d2 .LASF402
     /tmp/cciiZT4Y.s:99934  .debug_str:000000000002e334 .LASF403
     /tmp/cciiZT4Y.s:105414  .debug_str:0000000000044cbd .LASF404
     /tmp/cciiZT4Y.s:97434  .debug_str:0000000000024729 .LASF405
     /tmp/cciiZT4Y.s:105076  .debug_str:00000000000436b9 .LASF406
     /tmp/cciiZT4Y.s:106702  .debug_str:000000000004a0f3 .LASF407
     /tmp/cciiZT4Y.s:100430  .debug_str:00000000000303ee .LASF408
     /tmp/cciiZT4Y.s:99250  .debug_str:000000000002b97e .LASF409
     /tmp/cciiZT4Y.s:101926  .debug_str:000000000003691c .LASF410
     /tmp/cciiZT4Y.s:106126  .debug_str:0000000000047b61 .LASF411
     /tmp/cciiZT4Y.s:102736  .debug_str:0000000000039800 .LASF412
     /tmp/cciiZT4Y.s:93044  .debug_str:0000000000011ed7 .LASF413
     /tmp/cciiZT4Y.s:101184  .debug_str:00000000000335f0 .LASF414
     /tmp/cciiZT4Y.s:90078  .debug_str:0000000000006026 .LASF415
     /tmp/cciiZT4Y.s:104234  .debug_str:000000000003fa02 .LASF416
     /tmp/cciiZT4Y.s:96752  .debug_str:00000000000218c0 .LASF417
     /tmp/cciiZT4Y.s:105234  .debug_str:00000000000440cf .LASF418
     /tmp/cciiZT4Y.s:96298  .debug_str:000000000001f963 .LASF419
     /tmp/cciiZT4Y.s:97104  .debug_str:0000000000022fee .LASF420
     /tmp/cciiZT4Y.s:105214  .debug_str:0000000000043f77 .LASF421
     /tmp/cciiZT4Y.s:106578  .debug_str:00000000000498fe .LASF422
     /tmp/cciiZT4Y.s:98428  .debug_str:0000000000028307 .LASF423
     /tmp/cciiZT4Y.s:96472  .debug_str:00000000000205f2 .LASF424
     /tmp/cciiZT4Y.s:100566  .debug_str:0000000000030d55 .LASF425
     /tmp/cciiZT4Y.s:99546  .debug_str:000000000002ca74 .LASF426
     /tmp/cciiZT4Y.s:95534  .debug_str:000000000001c302 .LASF427
     /tmp/cciiZT4Y.s:107536  .debug_str:000000000004db74 .LASF428
     /tmp/cciiZT4Y.s:92384  .debug_str:000000000000f82c .LASF429
     /tmp/cciiZT4Y.s:105958  .debug_str:0000000000046ff3 .LASF430
     /tmp/cciiZT4Y.s:98808  .debug_str:0000000000029c64 .LASF431
     /tmp/cciiZT4Y.s:90150  .debug_str:0000000000006522 .LASF432
     /tmp/cciiZT4Y.s:105956  .debug_str:0000000000046fcb .LASF433
     /tmp/cciiZT4Y.s:93266  .debug_str:0000000000012dc6 .LASF434
     /tmp/cciiZT4Y.s:97092  .debug_str:0000000000022f30 .LASF435
     /tmp/cciiZT4Y.s:106168  .debug_str:0000000000047e81 .LASF436
     /tmp/cciiZT4Y.s:89246  .debug_str:00000000000028bb .LASF437
     /tmp/cciiZT4Y.s:100682  .debug_str:000000000003146a .LASF438
     /tmp/cciiZT4Y.s:94472  .debug_str:0000000000017c39 .LASF439
     /tmp/cciiZT4Y.s:104330  .debug_str:000000000003ff90 .LASF440
     /tmp/cciiZT4Y.s:89834  .debug_str:0000000000005069 .LASF441
     /tmp/cciiZT4Y.s:90392  .debug_str:0000000000007624 .LASF442
     /tmp/cciiZT4Y.s:106488  .debug_str:000000000004936e .LASF443
     /tmp/cciiZT4Y.s:102314  .debug_str:0000000000038153 .LASF444
     /tmp/cciiZT4Y.s:105714  .debug_str:000000000004602b .LASF445
     /tmp/cciiZT4Y.s:88886  .debug_str:0000000000000ed4 .LASF446
     /tmp/cciiZT4Y.s:93106  .debug_str:0000000000012345 .LASF447
     /tmp/cciiZT4Y.s:106552  .debug_str:0000000000049704 .LASF448
     /tmp/cciiZT4Y.s:89008  .debug_str:00000000000016ff .LASF449
     /tmp/cciiZT4Y.s:97188  .debug_str:0000000000023643 .LASF450
     /tmp/cciiZT4Y.s:89096  .debug_str:0000000000001e7b .LASF451
     /tmp/cciiZT4Y.s:105976  .debug_str:00000000000470d0 .LASF452
     /tmp/cciiZT4Y.s:99910  .debug_str:000000000002e189 .LASF453
     /tmp/cciiZT4Y.s:99676  .debug_str:000000000002d2b0 .LASF454
     /tmp/cciiZT4Y.s:101064  .debug_str:0000000000032e3a .LASF455
     /tmp/cciiZT4Y.s:106982  .debug_str:000000000004b52e .LASF456
     /tmp/cciiZT4Y.s:101286  .debug_str:0000000000033cf0 .LASF457
     /tmp/cciiZT4Y.s:103450  .debug_str:000000000003c757 .LASF458
     /tmp/cciiZT4Y.s:105858  .debug_str:000000000004691d .LASF459
     /tmp/cciiZT4Y.s:89824  .debug_str:0000000000004ff1 .LASF460
     /tmp/cciiZT4Y.s:90208  .debug_str:0000000000006901 .LASF461
     /tmp/cciiZT4Y.s:100070  .debug_str:000000000002ec89 .LASF462
     /tmp/cciiZT4Y.s:105452  .debug_str:0000000000044f07 .LASF463
     /tmp/cciiZT4Y.s:99268  .debug_str:000000000002baba .LASF464
     /tmp/cciiZT4Y.s:106002  .debug_str:00000000000472e7 .LASF465
     /tmp/cciiZT4Y.s:99726  .debug_str:000000000002d5a7 .LASF466
     /tmp/cciiZT4Y.s:98460  .debug_str:0000000000028540 .LASF467
     /tmp/cciiZT4Y.s:96818  .debug_str:0000000000021e2c .LASF468
     /tmp/cciiZT4Y.s:101806  .debug_str:00000000000360c0 .LASF469
     /tmp/cciiZT4Y.s:107598  .debug_str:000000000004e006 .LASF470
     /tmp/cciiZT4Y.s:107426  .debug_str:000000000004d2d7 .LASF471
     /tmp/cciiZT4Y.s:104290  .debug_str:000000000003fd42 .LASF472
     /tmp/cciiZT4Y.s:102082  .debug_str:000000000003737b .LASF473
     /tmp/cciiZT4Y.s:94088  .debug_str:00000000000161a2 .LASF474
     /tmp/cciiZT4Y.s:101974  .debug_str:0000000000036c52 .LASF475
     /tmp/cciiZT4Y.s:106668  .debug_str:0000000000049f44 .LASF476
     /tmp/cciiZT4Y.s:105898  .debug_str:0000000000046c34 .LASF477
     /tmp/cciiZT4Y.s:92552  .debug_str:0000000000010227 .LASF478
     /tmp/cciiZT4Y.s:93536  .debug_str:0000000000013f7a .LASF479
     /tmp/cciiZT4Y.s:102914  .debug_str:000000000003a2e7 .LASF483
     /tmp/cciiZT4Y.s:91646  .debug_str:000000000000cc4f .LASF484
     /tmp/cciiZT4Y.s:105090  .debug_str:00000000000437d2 .LASF485
     /tmp/cciiZT4Y.s:95410  .debug_str:000000000001bab6 .LASF486
     /tmp/cciiZT4Y.s:94528  .debug_str:0000000000017f90 .LASF487
     /tmp/cciiZT4Y.s:105256  .debug_str:0000000000044214 .LASF488
     /tmp/cciiZT4Y.s:95034  .debug_str:000000000001a052 .LASF489
     /tmp/cciiZT4Y.s:93556  .debug_str:000000000001408a .LASF490
     /tmp/cciiZT4Y.s:91988  .debug_str:000000000000e198 .LASF491
     /tmp/cciiZT4Y.s:104600  .debug_str:00000000000413fb .LASF492
     /tmp/cciiZT4Y.s:106112  .debug_str:0000000000047aad .LASF494
     /tmp/cciiZT4Y.s:97174  .debug_str:00000000000234a1 .LASF495
     /tmp/cciiZT4Y.s:102194  .debug_str:0000000000037abf .LASF496
     /tmp/cciiZT4Y.s:95306  .debug_str:000000000001b3a1 .LASF497
     /tmp/cciiZT4Y.s:104592  .debug_str:000000000004139a .LASF498
     /tmp/cciiZT4Y.s:107858  .debug_str:000000000004f143 .LASF499
     /tmp/cciiZT4Y.s:88802  .debug_str:000000000000099b .LASF500
     /tmp/cciiZT4Y.s:106296  .debug_str:00000000000486cb .LASF501
     /tmp/cciiZT4Y.s:101108  .debug_str:00000000000330ca .LASF502
     /tmp/cciiZT4Y.s:98896  .debug_str:000000000002a288 .LASF503
     /tmp/cciiZT4Y.s:101066  .debug_str:0000000000032e63 .LASF504
     /tmp/cciiZT4Y.s:101786  .debug_str:0000000000035fc3 .LASF505
     /tmp/cciiZT4Y.s:99782  .debug_str:000000000002d913 .LASF506
     /tmp/cciiZT4Y.s:95000  .debug_str:0000000000019e67 .LASF507
     /tmp/cciiZT4Y.s:106082  .debug_str:0000000000047861 .LASF508
     /tmp/cciiZT4Y.s:94450  .debug_str:0000000000017a6b .LASF509
     /tmp/cciiZT4Y.s:97790  .debug_str:0000000000025af2 .LASF510
     /tmp/cciiZT4Y.s:89112  .debug_str:0000000000001f7a .LASF511
     /tmp/cciiZT4Y.s:106830  .debug_str:000000000004aa08 .LASF512
     /tmp/cciiZT4Y.s:105788  .debug_str:00000000000464ee .LASF513
     /tmp/cciiZT4Y.s:89776  .debug_str:0000000000004cae .LASF514
     /tmp/cciiZT4Y.s:97722  .debug_str:00000000000257a4 .LASF515
     /tmp/cciiZT4Y.s:103634  .debug_str:000000000003d280 .LASF517
     /tmp/cciiZT4Y.s:104058  .debug_str:000000000003eec7 .LASF518
     /tmp/cciiZT4Y.s:97330  .debug_str:0000000000023f91 .LASF519
     /tmp/cciiZT4Y.s:107004  .debug_str:000000000004b67b .LASF520
     /tmp/cciiZT4Y.s:104424  .debug_str:000000000004057a .LASF521
     /tmp/cciiZT4Y.s:100740  .debug_str:000000000003188c .LASF522
     /tmp/cciiZT4Y.s:103752  .debug_str:000000000003da95 .LASF523
     /tmp/cciiZT4Y.s:91784  .debug_str:000000000000d59a .LASF524
     /tmp/cciiZT4Y.s:106504  .debug_str:0000000000049443 .LASF525
     /tmp/cciiZT4Y.s:98078  .debug_str:0000000000026c46 .LASF526
     /tmp/cciiZT4Y.s:90416  .debug_str:0000000000007841 .LASF527
     /tmp/cciiZT4Y.s:89284  .debug_str:0000000000002b58 .LASF528
     /tmp/cciiZT4Y.s:93328  .debug_str:0000000000013238 .LASF529
     /tmp/cciiZT4Y.s:96460  .debug_str:00000000000204f3 .LASF530
     /tmp/cciiZT4Y.s:100422  .debug_str:00000000000303a1 .LASF531
     /tmp/cciiZT4Y.s:90686  .debug_str:00000000000089f1 .LASF532
     /tmp/cciiZT4Y.s:95748  .debug_str:000000000001d277 .LASF533
     /tmp/cciiZT4Y.s:90722  .debug_str:0000000000008c7e .LASF534
     /tmp/cciiZT4Y.s:99752  .debug_str:000000000002d724 .LASF535
     /tmp/cciiZT4Y.s:98164  .debug_str:00000000000271ea .LASF536
     /tmp/cciiZT4Y.s:92522  .debug_str:0000000000010072 .LASF537
     /tmp/cciiZT4Y.s:101552  .debug_str:0000000000034e8a .LASF538
     /tmp/cciiZT4Y.s:106522  .debug_str:0000000000049522 .LASF539
     /tmp/cciiZT4Y.s:107888  .debug_str:000000000004f32d .LASF540
     /tmp/cciiZT4Y.s:100478  .debug_str:0000000000030773 .LASF541
     /tmp/cciiZT4Y.s:97108  .debug_str:000000000002301d .LASF542
     /tmp/cciiZT4Y.s:95824  .debug_str:000000000001d753 .LASF543
     /tmp/cciiZT4Y.s:99390  .debug_str:000000000002c213 .LASF544
     /tmp/cciiZT4Y.s:100474  .debug_str:000000000003071a .LASF545
     /tmp/cciiZT4Y.s:89346  .debug_str:0000000000002f49 .LASF546
     /tmp/cciiZT4Y.s:94206  .debug_str:0000000000016971 .LASF547
     /tmp/cciiZT4Y.s:101078  .debug_str:0000000000032f24 .LASF548
     /tmp/cciiZT4Y.s:92836  .debug_str:0000000000011171 .LASF549
     /tmp/cciiZT4Y.s:105096  .debug_str:0000000000043838 .LASF550
     /tmp/cciiZT4Y.s:106722  .debug_str:000000000004a1f4 .LASF551
     /tmp/cciiZT4Y.s:98832  .debug_str:0000000000029e1d .LASF552
     /tmp/cciiZT4Y.s:93538  .debug_str:0000000000013f96 .LASF553
     /tmp/cciiZT4Y.s:98242  .debug_str:00000000000276a4 .LASF554
     /tmp/cciiZT4Y.s:89044  .debug_str:0000000000001a77 .LASF555
     /tmp/cciiZT4Y.s:95150  .debug_str:000000000001a8f1 .LASF556
     /tmp/cciiZT4Y.s:90648  .debug_str:000000000000876d .LASF557
     /tmp/cciiZT4Y.s:101302  .debug_str:0000000000033e02 .LASF558
     /tmp/cciiZT4Y.s:91380  .debug_str:000000000000b979 .LASF559
     /tmp/cciiZT4Y.s:98622  .debug_str:00000000000290dd .LASF560
     /tmp/cciiZT4Y.s:103428  .debug_str:000000000003c584 .LASF561
     /tmp/cciiZT4Y.s:101076  .debug_str:0000000000032f04 .LASF562
     /tmp/cciiZT4Y.s:90860  .debug_str:000000000000959b .LASF563
     /tmp/cciiZT4Y.s:101358  .debug_str:000000000003416c .LASF564
     /tmp/cciiZT4Y.s:97550  .debug_str:0000000000024e26 .LASF565
     /tmp/cciiZT4Y.s:90606  .debug_str:000000000000844f .LASF566
     /tmp/cciiZT4Y.s:101986  .debug_str:0000000000036d1b .LASF567
     /tmp/cciiZT4Y.s:95428  .debug_str:000000000001bc02 .LASF568
     /tmp/cciiZT4Y.s:104128  .debug_str:000000000003f323 .LASF569
     /tmp/cciiZT4Y.s:106670  .debug_str:0000000000049f5c .LASF570
     /tmp/cciiZT4Y.s:105600  .debug_str:000000000004591a .LASF571
     /tmp/cciiZT4Y.s:91936  .debug_str:000000000000de7b .LASF572
     /tmp/cciiZT4Y.s:93626  .debug_str:0000000000014510 .LASF573
     /tmp/cciiZT4Y.s:95040  .debug_str:000000000001a0cd .LASF574
     /tmp/cciiZT4Y.s:96278  .debug_str:000000000001f821 .LASF575
     /tmp/cciiZT4Y.s:106490  .debug_str:0000000000049399 .LASF576
     /tmp/cciiZT4Y.s:103432  .debug_str:000000000003c5e3 .LASF577
     /tmp/cciiZT4Y.s:94086  .debug_str:000000000001618f .LASF578
     /tmp/cciiZT4Y.s:105868  .debug_str:00000000000469b3 .LASF579
     /tmp/cciiZT4Y.s:104824  .debug_str:00000000000425ee .LASF580
     /tmp/cciiZT4Y.s:90700  .debug_str:0000000000008af1 .LASF581
     /tmp/cciiZT4Y.s:103886  .debug_str:000000000003e42c .LASF582
     /tmp/cciiZT4Y.s:89252  .debug_str:00000000000028fc .LASF583
     /tmp/cciiZT4Y.s:100196  .debug_str:000000000002f50f .LASF584
     /tmp/cciiZT4Y.s:105038  .debug_str:00000000000433f0 .LASF585
     /tmp/cciiZT4Y.s:96146  .debug_str:000000000001edcf .LASF586
     /tmp/cciiZT4Y.s:103760  .debug_str:000000000003db53 .LASF587
     /tmp/cciiZT4Y.s:104304  .debug_str:000000000003fe0f .LASF588
     /tmp/cciiZT4Y.s:94124  .debug_str:00000000000163e0 .LASF589
     /tmp/cciiZT4Y.s:105200  .debug_str:0000000000043eb9 .LASF590
     /tmp/cciiZT4Y.s:97742  .debug_str:00000000000258e8 .LASF591
     /tmp/cciiZT4Y.s:107908  .debug_str:000000000004f47d .LASF592
     /tmp/cciiZT4Y.s:99618  .debug_str:000000000002cf1c .LASF593
     /tmp/cciiZT4Y.s:105578  .debug_str:000000000004578f .LASF594
     /tmp/cciiZT4Y.s:93154  .debug_str:000000000001261e .LASF595
     /tmp/cciiZT4Y.s:96314  .debug_str:000000000001fa43 .LASF596
     /tmp/cciiZT4Y.s:105170  .debug_str:0000000000043cce .LASF597
     /tmp/cciiZT4Y.s:104262  .debug_str:000000000003fbab .LASF598
     /tmp/cciiZT4Y.s:89388  .debug_str:0000000000003217 .LASF599
     /tmp/cciiZT4Y.s:103470  .debug_str:000000000003c88a .LASF600
     /tmp/cciiZT4Y.s:95868  .debug_str:000000000001da79 .LASF601
     /tmp/cciiZT4Y.s:106216  .debug_str:0000000000048195 .LASF602
     /tmp/cciiZT4Y.s:103278  .debug_str:000000000003bb27 .LASF603
     /tmp/cciiZT4Y.s:107534  .debug_str:000000000004db49 .LASF604
     /tmp/cciiZT4Y.s:100154  .debug_str:000000000002f1cf .LASF605
     /tmp/cciiZT4Y.s:94376  .debug_str:00000000000174f0 .LASF606
     /tmp/cciiZT4Y.s:100042  .debug_str:000000000002ea74 .LASF607
     /tmp/cciiZT4Y.s:100580  .debug_str:0000000000030e34 .LASF608
     /tmp/cciiZT4Y.s:102138  .debug_str:0000000000037647 .LASF609
     /tmp/cciiZT4Y.s:95424  .debug_str:000000000001bbb8 .LASF610
     /tmp/cciiZT4Y.s:104906  .debug_str:0000000000042b01 .LASF611
     /tmp/cciiZT4Y.s:90298  .debug_str:000000000000702e .LASF612
     /tmp/cciiZT4Y.s:102050  .debug_str:00000000000370d7 .LASF613
     /tmp/cciiZT4Y.s:93198  .debug_str:00000000000128c6 .LASF614
     /tmp/cciiZT4Y.s:104288  .debug_str:000000000003fd15 .LASF615
     /tmp/cciiZT4Y.s:92454  .debug_str:000000000000fbfb .LASF616
     /tmp/cciiZT4Y.s:106584  .debug_str:000000000004997f .LASF617
     /tmp/cciiZT4Y.s:101604  .debug_str:0000000000035229 .LASF618
     /tmp/cciiZT4Y.s:91636  .debug_str:000000000000cb3d .LASF619
     /tmp/cciiZT4Y.s:97604  .debug_str:00000000000250ef .LASF620
     /tmp/cciiZT4Y.s:90130  .debug_str:0000000000006395 .LASF621
     /tmp/cciiZT4Y.s:104924  .debug_str:0000000000042c04 .LASF622
     /tmp/cciiZT4Y.s:102518  .debug_str:0000000000038d54 .LASF623
     /tmp/cciiZT4Y.s:90326  .debug_str:00000000000071f9 .LASF624
     /tmp/cciiZT4Y.s:106282  .debug_str:00000000000485bc .LASF625
     /tmp/cciiZT4Y.s:94850  .debug_str:00000000000193c2 .LASF626
     /tmp/cciiZT4Y.s:91616  .debug_str:000000000000c986 .LASF627
     /tmp/cciiZT4Y.s:97724  .debug_str:00000000000257b1 .LASF628
     /tmp/cciiZT4Y.s:97388  .debug_str:00000000000243b1 .LASF629
     /tmp/cciiZT4Y.s:91538  .debug_str:000000000000c43e .LASF630
     /tmp/cciiZT4Y.s:98608  .debug_str:0000000000028faf .LASF631
     /tmp/cciiZT4Y.s:107728  .debug_str:000000000004e901 .LASF632
     /tmp/cciiZT4Y.s:93432  .debug_str:0000000000013934 .LASF633
     /tmp/cciiZT4Y.s:96804  .debug_str:0000000000021cbd .LASF634
     /tmp/cciiZT4Y.s:89168  .debug_str:0000000000002388 .LASF635
     /tmp/cciiZT4Y.s:96774  .debug_str:0000000000021a6b .LASF636
     /tmp/cciiZT4Y.s:102224  .debug_str:0000000000037b88 .LASF637
     /tmp/cciiZT4Y.s:103140  .debug_str:000000000003b1d8 .LASF638
     /tmp/cciiZT4Y.s:92806  .debug_str:0000000000010fe7 .LASF639
     /tmp/cciiZT4Y.s:106180  .debug_str:0000000000047f24 .LASF640
     /tmp/cciiZT4Y.s:90384  .debug_str:00000000000075c0 .LASF641
     /tmp/cciiZT4Y.s:95174  .debug_str:000000000001aadc .LASF642
     /tmp/cciiZT4Y.s:100028  .debug_str:000000000002e97c .LASF643
     /tmp/cciiZT4Y.s:96168  .debug_str:000000000001ef5b .LASF644
     /tmp/cciiZT4Y.s:101226  .debug_str:00000000000338f6 .LASF645
     /tmp/cciiZT4Y.s:105374  .debug_str:00000000000449ee .LASF646
     /tmp/cciiZT4Y.s:92164  .debug_str:000000000000eb7b .LASF647
     /tmp/cciiZT4Y.s:90412  .debug_str:00000000000077b1 .LASF648
     /tmp/cciiZT4Y.s:96252  .debug_str:000000000001f606 .LASF649
     /tmp/cciiZT4Y.s:90414  .debug_str:0000000000007804 .LASF650
     /tmp/cciiZT4Y.s:96108  .debug_str:000000000001eb93 .LASF651
     /tmp/cciiZT4Y.s:96540  .debug_str:0000000000020ad2 .LASF652
     /tmp/cciiZT4Y.s:89090  .debug_str:0000000000001dc7 .LASF653
     /tmp/cciiZT4Y.s:89586  .debug_str:0000000000003ee5 .LASF654
     /tmp/cciiZT4Y.s:101852  .debug_str:00000000000363d6 .LASF655
     /tmp/cciiZT4Y.s:99968  .debug_str:000000000002e52a .LASF656
     /tmp/cciiZT4Y.s:91650  .debug_str:000000000000cc77 .LASF657
     /tmp/cciiZT4Y.s:100666  .debug_str:0000000000031385 .LASF658
     /tmp/cciiZT4Y.s:108026  .debug_str:000000000004fcbd .LASF659
     /tmp/cciiZT4Y.s:94864  .debug_str:0000000000019507 .LASF660
     /tmp/cciiZT4Y.s:98070  .debug_str:0000000000026bcc .LASF661
     /tmp/cciiZT4Y.s:103554  .debug_str:000000000003cd95 .LASF662
     /tmp/cciiZT4Y.s:90760  .debug_str:0000000000008ee9 .LASF663
     /tmp/cciiZT4Y.s:106624  .debug_str:0000000000049c23 .LASF664
     /tmp/cciiZT4Y.s:106060  .debug_str:00000000000476c6 .LASF665
     /tmp/cciiZT4Y.s:96288  .debug_str:000000000001f8ca .LASF666
     /tmp/cciiZT4Y.s:94758  .debug_str:0000000000018d61 .LASF667
     /tmp/cciiZT4Y.s:93830  .debug_str:000000000001511c .LASF668
     /tmp/cciiZT4Y.s:106028  .debug_str:00000000000474cb .LASF669
     /tmp/cciiZT4Y.s:99536  .debug_str:000000000002c9cc .LASF670
     /tmp/cciiZT4Y.s:105030  .debug_str:0000000000043386 .LASF671
     /tmp/cciiZT4Y.s:101424  .debug_str:00000000000345a4 .LASF672
     /tmp/cciiZT4Y.s:94218  .debug_str:0000000000016a44 .LASF673
     /tmp/cciiZT4Y.s:94486  .debug_str:0000000000017d43 .LASF674
     /tmp/cciiZT4Y.s:95172  .debug_str:000000000001aad1 .LASF675
     /tmp/cciiZT4Y.s:108040  .debug_str:000000000004fdbc .LASF676
     /tmp/cciiZT4Y.s:106602  .debug_str:0000000000049b00 .LASF677
     /tmp/cciiZT4Y.s:96838  .debug_str:0000000000021f2c .LASF678
     /tmp/cciiZT4Y.s:96972  .debug_str:000000000002274f .LASF679
     /tmp/cciiZT4Y.s:90538  .debug_str:0000000000007fb4 .LASF680
     /tmp/cciiZT4Y.s:89602  .debug_str:0000000000004064 .LASF681
     /tmp/cciiZT4Y.s:89832  .debug_str:000000000000505d .LASF682
     /tmp/cciiZT4Y.s:107018  .debug_str:000000000004b73a .LASF683
     /tmp/cciiZT4Y.s:98534  .debug_str:0000000000028ad6 .LASF684
     /tmp/cciiZT4Y.s:104892  .debug_str:0000000000042a96 .LASF685
     /tmp/cciiZT4Y.s:92776  .debug_str:0000000000010dd1 .LASF686
     /tmp/cciiZT4Y.s:104266  .debug_str:000000000003fbe8 .LASF687
     /tmp/cciiZT4Y.s:103162  .debug_str:000000000003b34d .LASF688
     /tmp/cciiZT4Y.s:95540  .debug_str:000000000001c37e .LASF689
     /tmp/cciiZT4Y.s:101802  .debug_str:00000000000360a7 .LASF690
     /tmp/cciiZT4Y.s:97974  .debug_str:0000000000026550 .LASF692
     /tmp/cciiZT4Y.s:92130  .debug_str:000000000000e9b2 .LASF693
     /tmp/cciiZT4Y.s:97614  .debug_str:0000000000025197 .LASF696
     /tmp/cciiZT4Y.s:98194  .debug_str:000000000002734c .LASF697
     /tmp/cciiZT4Y.s:96950  .debug_str:00000000000225e8 .LASF698
     /tmp/cciiZT4Y.s:101170  .debug_str:00000000000334fa .LASF699
     /tmp/cciiZT4Y.s:93478  .debug_str:0000000000013c19 .LASF701
     /tmp/cciiZT4Y.s:97250  .debug_str:0000000000023a6a .LASF702
     /tmp/cciiZT4Y.s:101134  .debug_str:0000000000033274 .LASF703
     /tmp/cciiZT4Y.s:103620  .debug_str:000000000003d1b6 .LASF704
     /tmp/cciiZT4Y.s:95258  .debug_str:000000000001b09e .LASF705
     /tmp/cciiZT4Y.s:89164  .debug_str:0000000000002350 .LASF706
     /tmp/cciiZT4Y.s:98430  .debug_str:000000000002831f .LASF707
     /tmp/cciiZT4Y.s:104636  .debug_str:0000000000041660 .LASF708
     /tmp/cciiZT4Y.s:92338  .debug_str:000000000000f434 .LASF709
     /tmp/cciiZT4Y.s:95982  .debug_str:000000000001e2f3 .LASF710
     /tmp/cciiZT4Y.s:88742  .debug_str:0000000000000592 .LASF711
     /tmp/cciiZT4Y.s:101582  .debug_str:0000000000035073 .LASF712
     /tmp/cciiZT4Y.s:90286  .debug_str:0000000000006f23 .LASF713
     /tmp/cciiZT4Y.s:95432  .debug_str:000000000001bc64 .LASF714
     /tmp/cciiZT4Y.s:94658  .debug_str:0000000000018805 .LASF715
     /tmp/cciiZT4Y.s:102992  .debug_str:000000000003a75c .LASF716
     /tmp/cciiZT4Y.s:91626  .debug_str:000000000000ca8d .LASF717
     /tmp/cciiZT4Y.s:101602  .debug_str:0000000000035205 .LASF718
     /tmp/cciiZT4Y.s:95796  .debug_str:000000000001d560 .LASF719
     /tmp/cciiZT4Y.s:92356  .debug_str:000000000000f586 .LASF720
     /tmp/cciiZT4Y.s:106016  .debug_str:0000000000047408 .LASF721
     /tmp/cciiZT4Y.s:89816  .debug_str:0000000000004f5b .LASF722
     /tmp/cciiZT4Y.s:107246  .debug_str:000000000004c6af .LASF723
     /tmp/cciiZT4Y.s:105110  .debug_str:0000000000043904 .LASF724
     /tmp/cciiZT4Y.s:107202  .debug_str:000000000004c358 .LASF725
     /tmp/cciiZT4Y.s:96560  .debug_str:0000000000020c42 .LASF726
     /tmp/cciiZT4Y.s:105878  .debug_str:0000000000046a99 .LASF727
     /tmp/cciiZT4Y.s:106730  .debug_str:000000000004a283 .LASF728
     /tmp/cciiZT4Y.s:96720  .debug_str:0000000000021699 .LASF729
     /tmp/cciiZT4Y.s:105454  .debug_str:0000000000044f2e .LASF730
     /tmp/cciiZT4Y.s:94702  .debug_str:0000000000018a0e .LASF731
     /tmp/cciiZT4Y.s:100202  .debug_str:000000000002f59a .LASF732
     /tmp/cciiZT4Y.s:96924  .debug_str:00000000000224f5 .LASF733
     /tmp/cciiZT4Y.s:98490  .debug_str:0000000000028777 .LASF734
     /tmp/cciiZT4Y.s:96454  .debug_str:000000000002047a .LASF735
     /tmp/cciiZT4Y.s:97186  .debug_str:000000000002354d .LASF736
     /tmp/cciiZT4Y.s:89022  .debug_str:0000000000001847 .LASF737
     /tmp/cciiZT4Y.s:98416  .debug_str:0000000000028268 .LASF738
     /tmp/cciiZT4Y.s:92358  .debug_str:000000000000f5a6 .LASF739
     /tmp/cciiZT4Y.s:89656  .debug_str:00000000000044a9 .LASF740
     /tmp/cciiZT4Y.s:96906  .debug_str:0000000000022314 .LASF741
     /tmp/cciiZT4Y.s:104486  .debug_str:00000000000409fc .LASF742
     /tmp/cciiZT4Y.s:101754  .debug_str:0000000000035d30 .LASF743
     /tmp/cciiZT4Y.s:95554  .debug_str:000000000001c4e2 .LASF744
     /tmp/cciiZT4Y.s:92340  .debug_str:000000000000f444 .LASF745
     /tmp/cciiZT4Y.s:105506  .debug_str:000000000004522c .LASF746
     /tmp/cciiZT4Y.s:104692  .debug_str:00000000000419d6 .LASF747
     /tmp/cciiZT4Y.s:102268  .debug_str:0000000000037ebc .LASF748
     /tmp/cciiZT4Y.s:104722  .debug_str:0000000000041e6b .LASF749
     /tmp/cciiZT4Y.s:103530  .debug_str:000000000003cc06 .LASF750
     /tmp/cciiZT4Y.s:98436  .debug_str:0000000000028374 .LASF751
     /tmp/cciiZT4Y.s:97360  .debug_str:00000000000241af .LASF752
     /tmp/cciiZT4Y.s:102830  .debug_str:0000000000039d9b .LASF753
     /tmp/cciiZT4Y.s:105434  .debug_str:0000000000044df3 .LASF754
     /tmp/cciiZT4Y.s:91298  .debug_str:000000000000b3ae .LASF755
     /tmp/cciiZT4Y.s:89224  .debug_str:0000000000002732 .LASF756
     /tmp/cciiZT4Y.s:106696  .debug_str:000000000004a0b8 .LASF757
     /tmp/cciiZT4Y.s:99242  .debug_str:000000000002b8e5 .LASF758
     /tmp/cciiZT4Y.s:100710  .debug_str:0000000000031612 .LASF759
     /tmp/cciiZT4Y.s:102492  .debug_str:0000000000038bcc .LASF760
     /tmp/cciiZT4Y.s:89124  .debug_str:000000000000205b .LASF761
     /tmp/cciiZT4Y.s:97556  .debug_str:0000000000024e9d .LASF762
     /tmp/cciiZT4Y.s:98554  .debug_str:0000000000028be2 .LASF763
     /tmp/cciiZT4Y.s:97562  .debug_str:0000000000024f16 .LASF764
     /tmp/cciiZT4Y.s:101254  .debug_str:0000000000033aa7 .LASF765
     /tmp/cciiZT4Y.s:103896  .debug_str:000000000003e493 .LASF766
     /tmp/cciiZT4Y.s:107368  .debug_str:000000000004cf6a .LASF767
     /tmp/cciiZT4Y.s:94208  .debug_str:000000000001697f .LASF768
     /tmp/cciiZT4Y.s:100258  .debug_str:000000000002f93e .LASF769
     /tmp/cciiZT4Y.s:90294  .debug_str:0000000000006fe5 .LASF770
     /tmp/cciiZT4Y.s:91228  .debug_str:000000000000ae81 .LASF771
     /tmp/cciiZT4Y.s:92232  .debug_str:000000000000ee51 .LASF772
     /tmp/cciiZT4Y.s:103524  .debug_str:000000000003cbac .LASF773
     /tmp/cciiZT4Y.s:95856  .debug_str:000000000001d986 .LASF774
     /tmp/cciiZT4Y.s:106156  .debug_str:0000000000047dc2 .LASF775
     /tmp/cciiZT4Y.s:96470  .debug_str:00000000000205d8 .LASF776
     /tmp/cciiZT4Y.s:101502  .debug_str:0000000000034b5e .LASF777
     /tmp/cciiZT4Y.s:92794  .debug_str:0000000000010f63 .LASF778
     /tmp/cciiZT4Y.s:97194  .debug_str:00000000000236b5 .LASF779
     /tmp/cciiZT4Y.s:93484  .debug_str:0000000000013c77 .LASF780
     /tmp/cciiZT4Y.s:104982  .debug_str:0000000000043038 .LASF781
     /tmp/cciiZT4Y.s:95028  .debug_str:0000000000019fe9 .LASF783
     /tmp/cciiZT4Y.s:99164  .debug_str:000000000002b325 .LASF784
     /tmp/cciiZT4Y.s:90386  .debug_str:00000000000075da .LASF785
     /tmp/cciiZT4Y.s:100388  .debug_str:0000000000030165 .LASF786
     /tmp/cciiZT4Y.s:107688  .debug_str:000000000004e688 .LASF787
     /tmp/cciiZT4Y.s:96926  .debug_str:000000000002250e .LASF788
     /tmp/cciiZT4Y.s:92830  .debug_str:00000000000110ee .LASF789
     /tmp/cciiZT4Y.s:106392  .debug_str:0000000000048cc2 .LASF790
     /tmp/cciiZT4Y.s:104132  .debug_str:000000000003f378 .LASF791
     /tmp/cciiZT4Y.s:103764  .debug_str:000000000003db9b .LASF792
     /tmp/cciiZT4Y.s:89576  .debug_str:0000000000003e36 .LASF793
     /tmp/cciiZT4Y.s:91796  .debug_str:000000000000d61e .LASF794
     /tmp/cciiZT4Y.s:107356  .debug_str:000000000004cea7 .LASF795
     /tmp/cciiZT4Y.s:107890  .debug_str:000000000004f336 .LASF796
     /tmp/cciiZT4Y.s:107752  .debug_str:000000000004ea18 .LASF797
     /tmp/cciiZT4Y.s:91530  .debug_str:000000000000c3d3 .LASF798
     /tmp/cciiZT4Y.s:89492  .debug_str:0000000000003885 .LASF799
     /tmp/cciiZT4Y.s:94730  .debug_str:0000000000018c03 .LASF802
     /tmp/cciiZT4Y.s:90614  .debug_str:00000000000084ce .LASF803
     /tmp/cciiZT4Y.s:100690  .debug_str:00000000000314f8 .LASF804
     /tmp/cciiZT4Y.s:103322  .debug_str:000000000003be3d .LASF805
     /tmp/cciiZT4Y.s:99686  .debug_str:000000000002d332 .LASF806
     /tmp/cciiZT4Y.s:94454  .debug_str:0000000000017aa1 .LASF807
     /tmp/cciiZT4Y.s:99992  .debug_str:000000000002e6b7 .LASF808
     /tmp/cciiZT4Y.s:101830  .debug_str:0000000000036242 .LASF809
     /tmp/cciiZT4Y.s:106782  .debug_str:000000000004a657 .LASF810
     /tmp/cciiZT4Y.s:105536  .debug_str:0000000000045436 .LASF811
     /tmp/cciiZT4Y.s:101666  .debug_str:0000000000035668 .LASF814
     /tmp/cciiZT4Y.s:103078  .debug_str:000000000003ad86 .LASF815
     /tmp/cciiZT4Y.s:106936  .debug_str:000000000004b19c .LASF816
     /tmp/cciiZT4Y.s:92206  .debug_str:000000000000edbc .LASF817
     /tmp/cciiZT4Y.s:106314  .debug_str:000000000004879e .LASF818
     /tmp/cciiZT4Y.s:95292  .debug_str:000000000001b2c1 .LASF819
     /tmp/cciiZT4Y.s:100970  .debug_str:00000000000327b5 .LASF820
     /tmp/cciiZT4Y.s:91162  .debug_str:000000000000a9fb .LASF821
     /tmp/cciiZT4Y.s:107786  .debug_str:000000000004ec6c .LASF822
     /tmp/cciiZT4Y.s:97798  .debug_str:0000000000025b74 .LASF823
     /tmp/cciiZT4Y.s:106752  .debug_str:000000000004a409 .LASF824
     /tmp/cciiZT4Y.s:102774  .debug_str:0000000000039a6f .LASF825
     /tmp/cciiZT4Y.s:90438  .debug_str:00000000000079b4 .LASF826
     /tmp/cciiZT4Y.s:99940  .debug_str:000000000002e383 .LASF827
     /tmp/cciiZT4Y.s:100448  .debug_str:0000000000030554 .LASF828
     /tmp/cciiZT4Y.s:93914  .debug_str:0000000000015687 .LASF829
     /tmp/cciiZT4Y.s:97598  .debug_str:00000000000250a5 .LASF830
     /tmp/cciiZT4Y.s:99310  .debug_str:000000000002bc98 .LASF831
     /tmp/cciiZT4Y.s:94348  .debug_str:00000000000172da .LASF832
     /tmp/cciiZT4Y.s:97988  .debug_str:0000000000026650 .LASF833
     /tmp/cciiZT4Y.s:100534  .debug_str:0000000000030b46 .LASF834
     /tmp/cciiZT4Y.s:96846  .debug_str:0000000000021f98 .LASF835
     /tmp/cciiZT4Y.s:107736  .debug_str:000000000004e97e .LASF836
     /tmp/cciiZT4Y.s:107488  .debug_str:000000000004d740 .LASF837
     /tmp/cciiZT4Y.s:106684  .debug_str:000000000004a02e .LASF838
     /tmp/cciiZT4Y.s:106426  .debug_str:0000000000048f69 .LASF839
     /tmp/cciiZT4Y.s:102532  .debug_str:0000000000038e72 .LASF840
     /tmp/cciiZT4Y.s:92118  .debug_str:000000000000e8dc .LASF841
     /tmp/cciiZT4Y.s:89134  .debug_str:00000000000020fe .LASF842
     /tmp/cciiZT4Y.s:91246  .debug_str:000000000000af9e .LASF843
     /tmp/cciiZT4Y.s:92870  .debug_str:00000000000113bb .LASF844
     /tmp/cciiZT4Y.s:91386  .debug_str:000000000000b9ba .LASF845
     /tmp/cciiZT4Y.s:107822  .debug_str:000000000004ef1a .LASF846
     /tmp/cciiZT4Y.s:99112  .debug_str:000000000002b0a7 .LASF847
     /tmp/cciiZT4Y.s:99248  .debug_str:000000000002b96d .LASF848
     /tmp/cciiZT4Y.s:100776  .debug_str:0000000000031aa0 .LASF849
     /tmp/cciiZT4Y.s:107468  .debug_str:000000000004d5ca .LASF850
     /tmp/cciiZT4Y.s:95120  .debug_str:000000000001a6d4 .LASF851
     /tmp/cciiZT4Y.s:104148  .debug_str:000000000003f458 .LASF852
     /tmp/cciiZT4Y.s:97948  .debug_str:00000000000263e9 .LASF853
     /tmp/cciiZT4Y.s:99460  .debug_str:000000000002c589 .LASF854
     /tmp/cciiZT4Y.s:100610  .debug_str:0000000000030ffa .LASF855
     /tmp/cciiZT4Y.s:106120  .debug_str:0000000000047b0e .LASF856
     /tmp/cciiZT4Y.s:107698  .debug_str:000000000004e70a .LASF857
     /tmp/cciiZT4Y.s:95944  .debug_str:000000000001e019 .LASF859
     /tmp/cciiZT4Y.s:95506  .debug_str:000000000001c17e .LASF860
     /tmp/cciiZT4Y.s:107248  .debug_str:000000000004c6d7 .LASF861
     /tmp/cciiZT4Y.s:89830  .debug_str:0000000000005052 .LASF862
     /tmp/cciiZT4Y.s:88714  .debug_str:0000000000000372 .LASF863
     /tmp/cciiZT4Y.s:91474  .debug_str:000000000000c09b .LASF864
     /tmp/cciiZT4Y.s:98952  .debug_str:000000000002a685 .LASF865
     /tmp/cciiZT4Y.s:88868  .debug_str:0000000000000da0 .LASF866
     /tmp/cciiZT4Y.s:95664  .debug_str:000000000001cce2 .LASF867
     /tmp/cciiZT4Y.s:91142  .debug_str:000000000000a8e1 .LASF868
     /tmp/cciiZT4Y.s:99518  .debug_str:000000000002c8c8 .LASF869
     /tmp/cciiZT4Y.s:100732  .debug_str:00000000000317eb .LASF870
     /tmp/cciiZT4Y.s:105568  .debug_str:0000000000045723 .LASF871
     /tmp/cciiZT4Y.s:91814  .debug_str:000000000000d78e .LASF874
     /tmp/cciiZT4Y.s:103098  .debug_str:000000000003aee4 .LASF875
     /tmp/cciiZT4Y.s:89210  .debug_str:0000000000002636 .LASF876
     /tmp/cciiZT4Y.s:89640  .debug_str:0000000000004340 .LASF877
     /tmp/cciiZT4Y.s:100804  .debug_str:0000000000031c56 .LASF878
     /tmp/cciiZT4Y.s:95474  .debug_str:000000000001bf2a .LASF879
     /tmp/cciiZT4Y.s:97010  .debug_str:00000000000229f3 .LASF880
     /tmp/cciiZT4Y.s:103288  .debug_str:000000000003bc03 .LASF881
     /tmp/cciiZT4Y.s:97246  .debug_str:0000000000023a20 .LASF882
     /tmp/cciiZT4Y.s:90098  .debug_str:00000000000061ae .LASF883
     /tmp/cciiZT4Y.s:105574  .debug_str:000000000004576d .LASF884
     /tmp/cciiZT4Y.s:102946  .debug_str:000000000003a500 .LASF885
     /tmp/cciiZT4Y.s:107446  .debug_str:000000000004d447 .LASF886
     /tmp/cciiZT4Y.s:102978  .debug_str:000000000003a67d .LASF887
     /tmp/cciiZT4Y.s:92066  .debug_str:000000000000e638 .LASF888
     /tmp/cciiZT4Y.s:94554  .debug_str:0000000000018145 .LASF889
     /tmp/cciiZT4Y.s:107380  .debug_str:000000000004d02d .LASF890
     /tmp/cciiZT4Y.s:105760  .debug_str:000000000004632a .LASF891
     /tmp/cciiZT4Y.s:92278  .debug_str:000000000000f0ff .LASF892
     /tmp/cciiZT4Y.s:90518  .debug_str:0000000000007e9a .LASF893
     /tmp/cciiZT4Y.s:100364  .debug_str:000000000003002a .LASF894
     /tmp/cciiZT4Y.s:98600  .debug_str:0000000000028f3b .LASF895
     /tmp/cciiZT4Y.s:104462  .debug_str:000000000004087c .LASF896
     /tmp/cciiZT4Y.s:96628  .debug_str:0000000000021040 .LASF897
     /tmp/cciiZT4Y.s:102042  .debug_str:0000000000037077 .LASF898
     /tmp/cciiZT4Y.s:104060  .debug_str:000000000003eed3 .LASF899
     /tmp/cciiZT4Y.s:103552  .debug_str:000000000003cd83 .LASF900
     /tmp/cciiZT4Y.s:94220  .debug_str:0000000000016a51 .LASF901
     /tmp/cciiZT4Y.s:106498  .debug_str:00000000000493e6 .LASF902
     /tmp/cciiZT4Y.s:103138  .debug_str:000000000003b1cd .LASF903
     /tmp/cciiZT4Y.s:93798  .debug_str:0000000000014f48 .LASF904
     /tmp/cciiZT4Y.s:89174  .debug_str:000000000000241f .LASF905
     /tmp/cciiZT4Y.s:91934  .debug_str:000000000000de70 .LASF906
     /tmp/cciiZT4Y.s:95784  .debug_str:000000000001d46f .LASF907
     /tmp/cciiZT4Y.s:89262  .debug_str:00000000000029c6 .LASF908
     /tmp/cciiZT4Y.s:104198  .debug_str:000000000003f7dd .LASF909
     /tmp/cciiZT4Y.s:102024  .debug_str:0000000000036f2b .LASF910
     /tmp/cciiZT4Y.s:100494  .debug_str:00000000000308e6 .LASF911
     /tmp/cciiZT4Y.s:105934  .debug_str:0000000000046eb1 .LASF912
     /tmp/cciiZT4Y.s:96306  .debug_str:000000000001f9f6 .LASF913
     /tmp/cciiZT4Y.s:103164  .debug_str:000000000003b35c .LASF914
     /tmp/cciiZT4Y.s:93424  .debug_str:000000000001389a .LASF915
     /tmp/cciiZT4Y.s:104794  .debug_str:00000000000423d5 .LASF916
     /tmp/cciiZT4Y.s:89664  .debug_str:000000000000454b .LASF917
     /tmp/cciiZT4Y.s:107416  .debug_str:000000000004d213 .LASF918
     /tmp/cciiZT4Y.s:103998  .debug_str:000000000003eb03 .LASF919
     /tmp/cciiZT4Y.s:102424  .debug_str:0000000000038817 .LASF920
     /tmp/cciiZT4Y.s:100300  .debug_str:000000000002fbe6 .LASF921
     /tmp/cciiZT4Y.s:90868  .debug_str:0000000000009620 .LASF922
     /tmp/cciiZT4Y.s:95180  .debug_str:000000000001ab75 .LASF923
     /tmp/cciiZT4Y.s:102148  .debug_str:00000000000376d8 .LASF924
     /tmp/cciiZT4Y.s:95782  .debug_str:000000000001d462 .LASF925
     /tmp/cciiZT4Y.s:103652  .debug_str:000000000003d395 .LASF926
     /tmp/cciiZT4Y.s:98496  .debug_str:00000000000287ea .LASF927
     /tmp/cciiZT4Y.s:95628  .debug_str:000000000001cab4 .LASF928
     /tmp/cciiZT4Y.s:98032  .debug_str:000000000002694b .LASF929
     /tmp/cciiZT4Y.s:95462  .debug_str:000000000001be5a .LASF930
     /tmp/cciiZT4Y.s:105238  .debug_str:00000000000440f0 .LASF931
     /tmp/cciiZT4Y.s:98204  .debug_str:00000000000273dd .LASF932
     /tmp/cciiZT4Y.s:104012  .debug_str:000000000003eba7 .LASF933
     /tmp/cciiZT4Y.s:89004  .debug_str:00000000000016ce .LASF934
     /tmp/cciiZT4Y.s:101992  .debug_str:0000000000036d8b .LASF935
     /tmp/cciiZT4Y.s:104054  .debug_str:000000000003ee72 .LASF936
     /tmp/cciiZT4Y.s:92018  .debug_str:000000000000e352 .LASF937
     /tmp/cciiZT4Y.s:94078  .debug_str:0000000000016108 .LASF938
     /tmp/cciiZT4Y.s:99158  .debug_str:000000000002b2e5 .LASF939
     /tmp/cciiZT4Y.s:98782  .debug_str:0000000000029acd .LASF940
     /tmp/cciiZT4Y.s:107748  .debug_str:000000000004e9e0 .LASF941
     /tmp/cciiZT4Y.s:89466  .debug_str:000000000000368f .LASF943
     /tmp/cciiZT4Y.s:100110  .debug_str:000000000002eef9 .LASF945
     /tmp/cciiZT4Y.s:89482  .debug_str:00000000000037c4 .LASF946
     /tmp/cciiZT4Y.s:92416  .debug_str:000000000000f91b .LASF947
     /tmp/cciiZT4Y.s:90308  .debug_str:0000000000007104 .LASF948
     /tmp/cciiZT4Y.s:97464  .debug_str:00000000000248d9 .LASF949
     /tmp/cciiZT4Y.s:104818  .debug_str:00000000000425ba .LASF950
     /tmp/cciiZT4Y.s:94438  .debug_str:00000000000179ca .LASF951
     /tmp/cciiZT4Y.s:104780  .debug_str:00000000000422bb .LASF952
     /tmp/cciiZT4Y.s:90486  .debug_str:0000000000007c99 .LASF953
     /tmp/cciiZT4Y.s:91786  .debug_str:000000000000d5a4 .LASF954
     /tmp/cciiZT4Y.s:90302  .debug_str:0000000000007093 .LASF959
     /tmp/cciiZT4Y.s:107186  .debug_str:000000000004c21f .LASF960
     /tmp/cciiZT4Y.s:95754  .debug_str:000000000001d2ee .LASF961
     /tmp/cciiZT4Y.s:96152  .debug_str:000000000001ee3b .LASF962
     /tmp/cciiZT4Y.s:102860  .debug_str:0000000000039f0b .LASF963
     /tmp/cciiZT4Y.s:97408  .debug_str:00000000000244dd .LASF964
     /tmp/cciiZT4Y.s:101876  .debug_str:000000000003657e .LASF965
     /tmp/cciiZT4Y.s:106774  .debug_str:000000000004a59f .LASF966
     /tmp/cciiZT4Y.s:92546  .debug_str:00000000000101b7 .LASF967
     /tmp/cciiZT4Y.s:97430  .debug_str:00000000000246d6 .LASF968
     /tmp/cciiZT4Y.s:102230  .debug_str:0000000000037bec .LASF969
     /tmp/cciiZT4Y.s:107012  .debug_str:000000000004b6d9 .LASF970
     /tmp/cciiZT4Y.s:92444  .debug_str:000000000000fb4f .LASF971
     /tmp/cciiZT4Y.s:95604  .debug_str:000000000001c891 .LASF972
     /tmp/cciiZT4Y.s:92738  .debug_str:0000000000010b52 .LASF973
     /tmp/cciiZT4Y.s:105524  .debug_str:0000000000045399 .LASF974
     /tmp/cciiZT4Y.s:96376  .debug_str:000000000001fea3 .LASF975
     /tmp/cciiZT4Y.s:102732  .debug_str:000000000003977c .LASF976
     /tmp/cciiZT4Y.s:89736  .debug_str:00000000000049db .LASF977
     /tmp/cciiZT4Y.s:91428  .debug_str:000000000000bd4b .LASF978
     /tmp/cciiZT4Y.s:101116  .debug_str:0000000000033134 .LASF979
     /tmp/cciiZT4Y.s:91036  .debug_str:000000000000a19c .LASF980
     /tmp/cciiZT4Y.s:95588  .debug_str:000000000001c76e .LASF981
     /tmp/cciiZT4Y.s:106886  .debug_str:000000000004ade8 .LASF982
     /tmp/cciiZT4Y.s:97034  .debug_str:0000000000022b4f .LASF983
     /tmp/cciiZT4Y.s:95772  .debug_str:000000000001d3c5 .LASF984
     /tmp/cciiZT4Y.s:96834  .debug_str:0000000000021ed1 .LASF985
     /tmp/cciiZT4Y.s:100932  .debug_str:000000000003250a .LASF986
     /tmp/cciiZT4Y.s:91558  .debug_str:000000000000c57e .LASF987
     /tmp/cciiZT4Y.s:91306  .debug_str:000000000000b46b .LASF988
     /tmp/cciiZT4Y.s:100986  .debug_str:00000000000328bf .LASF989
     /tmp/cciiZT4Y.s:88716  .debug_str:000000000000038a .LASF990
     /tmp/cciiZT4Y.s:100756  .debug_str:000000000003197e .LASF991
     /tmp/cciiZT4Y.s:106762  .debug_str:000000000004a4c9 .LASF992
     /tmp/cciiZT4Y.s:96914  .debug_str:0000000000022413 .LASF993
     /tmp/cciiZT4Y.s:106560  .debug_str:00000000000497a2 .LASF994
     /tmp/cciiZT4Y.s:96710  .debug_str:00000000000215d7 .LASF995
     /tmp/cciiZT4Y.s:91390  .debug_str:000000000000b9e4 .LASF996
     /tmp/cciiZT4Y.s:105390  .debug_str:0000000000044b2e .LASF997
     /tmp/cciiZT4Y.s:91178  .debug_str:000000000000aad4 .LASF998
     /tmp/cciiZT4Y.s:100854  .debug_str:0000000000031f36 .LASF999
     /tmp/cciiZT4Y.s:90792  .debug_str:0000000000009128 .LASF1000
     /tmp/cciiZT4Y.s:98560  .debug_str:0000000000028c4e .LASF1001
     /tmp/cciiZT4Y.s:106648  .debug_str:0000000000049d7c .LASF1002
     /tmp/cciiZT4Y.s:96798  .debug_str:0000000000021c2c .LASF1003
     /tmp/cciiZT4Y.s:106442  .debug_str:0000000000049039 .LASF1004
     /tmp/cciiZT4Y.s:96582  .debug_str:0000000000020d4b .LASF1005
     /tmp/cciiZT4Y.s:91276  .debug_str:000000000000b246 .LASF1006
     /tmp/cciiZT4Y.s:100954  .debug_str:00000000000326ad .LASF1007
     /tmp/cciiZT4Y.s:91054  .debug_str:000000000000a300 .LASF1008
     /tmp/cciiZT4Y.s:100722  .debug_str:00000000000316df .LASF1009
     /tmp/cciiZT4Y.s:97596  .debug_str:000000000002506b .LASF1010
     /tmp/cciiZT4Y.s:91642  .debug_str:000000000000cbf1 .LASF1011
     /tmp/cciiZT4Y.s:104472  .debug_str:0000000000040909 .LASF1012
     /tmp/cciiZT4Y.s:105086  .debug_str:0000000000043768 .LASF1013
     /tmp/cciiZT4Y.s:98536  .debug_str:0000000000028ae7 .LASF1014
     /tmp/cciiZT4Y.s:101466  .debug_str:0000000000034823 .LASF1015
     /tmp/cciiZT4Y.s:101174  .debug_str:0000000000033517 .LASF1016
     /tmp/cciiZT4Y.s:100886  .debug_str:0000000000032152 .LASF1017
     /tmp/cciiZT4Y.s:93984  .debug_str:0000000000015b3f .LASF1018
     /tmp/cciiZT4Y.s:107990  .debug_str:000000000004fa32 .LASF1019
     /tmp/cciiZT4Y.s:101524  .debug_str:0000000000034d25 .LASF1020
     /tmp/cciiZT4Y.s:105654  .debug_str:0000000000045c58 .LASF1021
     /tmp/cciiZT4Y.s:105348  .debug_str:00000000000447e5 .LASF1022
     /tmp/cciiZT4Y.s:105080  .debug_str:00000000000436ec .LASF1023
     /tmp/cciiZT4Y.s:89062  .debug_str:0000000000001b87 .LASF1024
     /tmp/cciiZT4Y.s:104516  .debug_str:0000000000040d60 .LASF1025
     /tmp/cciiZT4Y.s:98152  .debug_str:000000000002712c .LASF1026
     /tmp/cciiZT4Y.s:102064  .debug_str:00000000000371ea .LASF1027
     /tmp/cciiZT4Y.s:96286  .debug_str:000000000001f883 .LASF1028
     /tmp/cciiZT4Y.s:95988  .debug_str:000000000001e361 .LASF1029
     /tmp/cciiZT4Y.s:94108  .debug_str:00000000000162a1 .LASF1030
     /tmp/cciiZT4Y.s:107450  .debug_str:000000000004d477 .LASF1031
     /tmp/cciiZT4Y.s:101152  .debug_str:000000000003339f .LASF1032
     /tmp/cciiZT4Y.s:96466  .debug_str:0000000000020583 .LASF1033
     /tmp/cciiZT4Y.s:100440  .debug_str:0000000000030484 .LASF1034
     /tmp/cciiZT4Y.s:100170  .debug_str:000000000002f2d3 .LASF1035
     /tmp/cciiZT4Y.s:89202  .debug_str:0000000000002588 .LASF1036
     /tmp/cciiZT4Y.s:100412  .debug_str:00000000000302c5 .LASF1037
     /tmp/cciiZT4Y.s:103156  .debug_str:000000000003b2d1 .LASF1038
     /tmp/cciiZT4Y.s:90914  .debug_str:000000000000995f .LASF1039
     /tmp/cciiZT4Y.s:92958  .debug_str:00000000000118e3 .LASF1040
     /tmp/cciiZT4Y.s:107444  .debug_str:000000000004d402 .LASF1041
     /tmp/cciiZT4Y.s:102180  .debug_str:000000000003798c .LASF1042
     /tmp/cciiZT4Y.s:89646  .debug_str:000000000000438c .LASF1043
     /tmp/cciiZT4Y.s:88908  .debug_str:000000000000106e .LASF1044
     /tmp/cciiZT4Y.s:99954  .debug_str:000000000002e423 .LASF1045
     /tmp/cciiZT4Y.s:97914  .debug_str:00000000000261f0 .LASF1046
     /tmp/cciiZT4Y.s:107472  .debug_str:000000000004d60d .LASF1047
     /tmp/cciiZT4Y.s:107236  .debug_str:000000000004c5d1 .LASF1048
     /tmp/cciiZT4Y.s:107996  .debug_str:000000000004faa7 .LASF1049
     /tmp/cciiZT4Y.s:93992  .debug_str:0000000000015c2a .LASF1050
     /tmp/cciiZT4Y.s:99492  .debug_str:000000000002c767 .LASF1051
     /tmp/cciiZT4Y.s:104802  .debug_str:000000000004249e .LASF1052
     /tmp/cciiZT4Y.s:92788  .debug_str:0000000000010ecd .LASF1053
     /tmp/cciiZT4Y.s:89588  .debug_str:0000000000003f30 .LASF1054
     /tmp/cciiZT4Y.s:103664  .debug_str:000000000003d425 .LASF1055
     /tmp/cciiZT4Y.s:100524  .debug_str:0000000000030a99 .LASF1056
     /tmp/cciiZT4Y.s:105872  .debug_str:0000000000046a0b .LASF1057
     /tmp/cciiZT4Y.s:100490  .debug_str:000000000003087e .LASF1058
     /tmp/cciiZT4Y.s:106102  .debug_str:00000000000479d5 .LASF1059
     /tmp/cciiZT4Y.s:96220  .debug_str:000000000001f397 .LASF1060
     /tmp/cciiZT4Y.s:105752  .debug_str:00000000000462b8 .LASF1061
     /tmp/cciiZT4Y.s:95994  .debug_str:000000000001e3e1 .LASF1062
     /tmp/cciiZT4Y.s:102166  .debug_str:0000000000037883 .LASF1063
     /tmp/cciiZT4Y.s:92136  .debug_str:000000000000e9d5 .LASF1064
     /tmp/cciiZT4Y.s:101938  .debug_str:00000000000369cd .LASF1065
     /tmp/cciiZT4Y.s:89094  .debug_str:0000000000001e39 .LASF1066
     /tmp/cciiZT4Y.s:101594  .debug_str:000000000003512e .LASF1067
     /tmp/cciiZT4Y.s:104452  .debug_str:0000000000040786 .LASF1068
     /tmp/cciiZT4Y.s:105982  .debug_str:000000000004713c .LASF1069
     /tmp/cciiZT4Y.s:95706  .debug_str:000000000001cffb .LASF1070
     /tmp/cciiZT4Y.s:105634  .debug_str:0000000000045af1 .LASF1071
     /tmp/cciiZT4Y.s:95886  .debug_str:000000000001dc10 .LASF1072
     /tmp/cciiZT4Y.s:102028  .debug_str:0000000000036f50 .LASF1073
     /tmp/cciiZT4Y.s:91994  .debug_str:000000000000e200 .LASF1074
     /tmp/cciiZT4Y.s:101826  .debug_str:00000000000361f8 .LASF1075
     /tmp/cciiZT4Y.s:89328  .debug_str:0000000000002de5 .LASF1076
     /tmp/cciiZT4Y.s:101470  .debug_str:0000000000034893 .LASF1077
     /tmp/cciiZT4Y.s:91394  .debug_str:000000000000ba53 .LASF1078
     /tmp/cciiZT4Y.s:105870  .debug_str:00000000000469c9 .LASF1079
     /tmp/cciiZT4Y.s:95960  .debug_str:000000000001e156 .LASF1080
     /tmp/cciiZT4Y.s:98954  .debug_str:000000000002a69d .LASF1081
     /tmp/cciiZT4Y.s:90382  .debug_str:00000000000075a3 .LASF1082
     /tmp/cciiZT4Y.s:100572  .debug_str:0000000000030dc4 .LASF1083
     /tmp/cciiZT4Y.s:95702  .debug_str:000000000001cfda .LASF1084
     /tmp/cciiZT4Y.s:96756  .debug_str:00000000000218e6 .LASF1085
     /tmp/cciiZT4Y.s:101836  .debug_str:0000000000036300 .LASF1086
     /tmp/cciiZT4Y.s:90834  .debug_str:000000000000941d .LASF1087
     /tmp/cciiZT4Y.s:94174  .debug_str:00000000000166ff .LASF1088
     /tmp/cciiZT4Y.s:107868  .debug_str:000000000004f1ca .LASF1089
     /tmp/cciiZT4Y.s:96860  .debug_str:0000000000022023 .LASF1090
     /tmp/cciiZT4Y.s:94988  .debug_str:0000000000019d74 .LASF1091
     /tmp/cciiZT4Y.s:107256  .debug_str:000000000004c761 .LASF1092
     /tmp/cciiZT4Y.s:100222  .debug_str:000000000002f735 .LASF1093
     /tmp/cciiZT4Y.s:99550  .debug_str:000000000002cac1 .LASF1094
     /tmp/cciiZT4Y.s:97454  .debug_str:0000000000024862 .LASF1095
     /tmp/cciiZT4Y.s:89714  .debug_str:0000000000004852 .LASF1096
     /tmp/cciiZT4Y.s:100068  .debug_str:000000000002ec70 .LASF1097
     /tmp/cciiZT4Y.s:99344  .debug_str:000000000002bed1 .LASF1098
     /tmp/cciiZT4Y.s:105004  .debug_str:00000000000431c9 .LASF1099
     /tmp/cciiZT4Y.s:92978  .debug_str:0000000000011a4f .LASF1100
     /tmp/cciiZT4Y.s:103832  .debug_str:000000000003e0af .LASF1101
     /tmp/cciiZT4Y.s:95052  .debug_str:000000000001a1b2 .LASF1102
     /tmp/cciiZT4Y.s:105680  .debug_str:0000000000045dec .LASF1103
     /tmp/cciiZT4Y.s:96872  .debug_str:00000000000220be .LASF1104
     /tmp/cciiZT4Y.s:93288  .debug_str:0000000000012f6c .LASF1105
     /tmp/cciiZT4Y.s:107600  .debug_str:000000000004e01c .LASF1106
     /tmp/cciiZT4Y.s:95278  .debug_str:000000000001b1fe .LASF1107
     /tmp/cciiZT4Y.s:105886  .debug_str:0000000000046b45 .LASF1108
     /tmp/cciiZT4Y.s:97086  .debug_str:0000000000022eeb .LASF1109
     /tmp/cciiZT4Y.s:107714  .debug_str:000000000004e7e8 .LASF1110
     /tmp/cciiZT4Y.s:99048  .debug_str:000000000002abf7 .LASF1111
     /tmp/cciiZT4Y.s:90314  .debug_str:0000000000007165 .LASF1112
     /tmp/cciiZT4Y.s:101042  .debug_str:0000000000032d02 .LASF1113
     /tmp/cciiZT4Y.s:92084  .debug_str:000000000000e7b0 .LASF1114
     /tmp/cciiZT4Y.s:107998  .debug_str:000000000004fae7 .LASF1115
     /tmp/cciiZT4Y.s:105428  .debug_str:0000000000044d9e .LASF1116
     /tmp/cciiZT4Y.s:90364  .debug_str:00000000000074d7 .LASF1117
     /tmp/cciiZT4Y.s:101104  .debug_str:000000000003308a .LASF1118
     /tmp/cciiZT4Y.s:92342  .debug_str:000000000000f4ac .LASF1119
     /tmp/cciiZT4Y.s:103118  .debug_str:000000000003b077 .LASF1120
     /tmp/cciiZT4Y.s:103660  .debug_str:000000000003d3f3 .LASF1121
     /tmp/cciiZT4Y.s:104874  .debug_str:00000000000429a3 .LASF1122
     /tmp/cciiZT4Y.s:96080  .debug_str:000000000001ea01 .LASF1123
     /tmp/cciiZT4Y.s:106838  .debug_str:000000000004aa80 .LASF1124
     /tmp/cciiZT4Y.s:91368  .debug_str:000000000000b89a .LASF1125
     /tmp/cciiZT4Y.s:94494  .debug_str:0000000000017dcd .LASF1126
     /tmp/cciiZT4Y.s:105144  .debug_str:0000000000043b3a .LASF1127
     /tmp/cciiZT4Y.s:106076  .debug_str:00000000000477db .LASF1128
     /tmp/cciiZT4Y.s:92468  .debug_str:000000000000fd74 .LASF1129
     /tmp/cciiZT4Y.s:104586  .debug_str:0000000000041322 .LASF1130
     /tmp/cciiZT4Y.s:97264  .debug_str:0000000000023b50 .LASF1131
     /tmp/cciiZT4Y.s:89922  .debug_str:0000000000005600 .LASF1132
     /tmp/cciiZT4Y.s:102118  .debug_str:000000000003756c .LASF1133
     /tmp/cciiZT4Y.s:101238  .debug_str:00000000000339a2 .LASF1134
     /tmp/cciiZT4Y.s:94408  .debug_str:0000000000017780 .LASF1135
     /tmp/cciiZT4Y.s:93594  .debug_str:00000000000142ff .LASF1136
     /tmp/cciiZT4Y.s:105702  .debug_str:0000000000045fab .LASF1137
     /tmp/cciiZT4Y.s:98206  .debug_str:0000000000027403 .LASF1138
     /tmp/cciiZT4Y.s:93680  .debug_str:00000000000148a6 .LASF1139
     /tmp/cciiZT4Y.s:92550  .debug_str:0000000000010213 .LASF1140
     /tmp/cciiZT4Y.s:101622  .debug_str:00000000000353ab .LASF1141
     /tmp/cciiZT4Y.s:106998  .debug_str:000000000004b61d .LASF1142
     /tmp/cciiZT4Y.s:94418  .debug_str:0000000000017820 .LASF1143
     /tmp/cciiZT4Y.s:94720  .debug_str:0000000000018b42 .LASF1144
     /tmp/cciiZT4Y.s:107624  .debug_str:000000000004e1c4 .LASF1145
     /tmp/cciiZT4Y.s:98872  .debug_str:000000000002a0ea .LASF1146
     /tmp/cciiZT4Y.s:89912  .debug_str:000000000000553d .LASF1147
     /tmp/cciiZT4Y.s:100774  .debug_str:0000000000031a85 .LASF1148
     /tmp/cciiZT4Y.s:91986  .debug_str:000000000000e17d .LASF1149
     /tmp/cciiZT4Y.s:102778  .debug_str:0000000000039afe .LASF1150
     /tmp/cciiZT4Y.s:93896  .debug_str:000000000001557e .LASF1151
     /tmp/cciiZT4Y.s:104496  .debug_str:0000000000040bee .LASF1152
     /tmp/cciiZT4Y.s:95738  .debug_str:000000000001d1c1 .LASF1153
     /tmp/cciiZT4Y.s:98478  .debug_str:000000000002867d .LASF1154
     /tmp/cciiZT4Y.s:89610  .debug_str:00000000000040fe .LASF1155
     /tmp/cciiZT4Y.s:100356  .debug_str:000000000002ffb7 .LASF1156
     /tmp/cciiZT4Y.s:91378  .debug_str:000000000000b95d .LASF1157
     /tmp/cciiZT4Y.s:107242  .debug_str:000000000004c650 .LASF1158
     /tmp/cciiZT4Y.s:93520  .debug_str:0000000000013e87 .LASF1159
     /tmp/cciiZT4Y.s:104120  .debug_str:000000000003f291 .LASF1160
     /tmp/cciiZT4Y.s:95358  .debug_str:000000000001b71c .LASF1161
     /tmp/cciiZT4Y.s:91554  .debug_str:000000000000c533 .LASF1162
     /tmp/cciiZT4Y.s:97148  .debug_str:00000000000232cd .LASF1163
     /tmp/cciiZT4Y.s:93584  .debug_str:0000000000014286 .LASF1164
     /tmp/cciiZT4Y.s:104178  .debug_str:000000000003f63e .LASF1165
     /tmp/cciiZT4Y.s:95590  .debug_str:000000000001c7b0 .LASF1166
     /tmp/cciiZT4Y.s:106178  .debug_str:0000000000047f08 .LASF1167
     /tmp/cciiZT4Y.s:97418  .debug_str:00000000000245d3 .LASF1168
     /tmp/cciiZT4Y.s:94232  .debug_str:0000000000016b75 .LASF1169
     /tmp/cciiZT4Y.s:99356  .debug_str:000000000002bfa5 .LASF1170
     /tmp/cciiZT4Y.s:90578  .debug_str:000000000000823c .LASF1171
     /tmp/cciiZT4Y.s:101350  .debug_str:00000000000340db .LASF1172
     /tmp/cciiZT4Y.s:92408  .debug_str:000000000000f8a8 .LASF1173
     /tmp/cciiZT4Y.s:88866  .debug_str:0000000000000d84 .LASF1174
     /tmp/cciiZT4Y.s:99586  .debug_str:000000000002cd7b .LASF1175
     /tmp/cciiZT4Y.s:93592  .debug_str:00000000000142d4 .LASF1176
     /tmp/cciiZT4Y.s:89408  .debug_str:0000000000003381 .LASF1177
     /tmp/cciiZT4Y.s:101400  .debug_str:000000000003442d .LASF1178
     /tmp/cciiZT4Y.s:95044  .debug_str:000000000001a10d .LASF1179
     /tmp/cciiZT4Y.s:101292  .debug_str:0000000000033d70 .LASF1180
     /tmp/cciiZT4Y.s:97632  .debug_str:00000000000252a5 .LASF1181
     /tmp/cciiZT4Y.s:102942  .debug_str:000000000003a4b2 .LASF1182
     /tmp/cciiZT4Y.s:97080  .debug_str:0000000000022e6d .LASF1183
     /tmp/cciiZT4Y.s:103968  .debug_str:000000000003e9ad .LASF1184
     /tmp/cciiZT4Y.s:96534  .debug_str:0000000000020a6f .LASF1185
     /tmp/cciiZT4Y.s:103632  .debug_str:000000000003d24d .LASF1186
     /tmp/cciiZT4Y.s:92926  .debug_str:0000000000011698 .LASF1187
     /tmp/cciiZT4Y.s:106600  .debug_str:0000000000049acd .LASF1188
     /tmp/cciiZT4Y.s:105336  .debug_str:000000000004472a .LASF1189
     /tmp/cciiZT4Y.s:95126  .debug_str:000000000001a70c .LASF1190
     /tmp/cciiZT4Y.s:94882  .debug_str:000000000001964e .LASF1191
     /tmp/cciiZT4Y.s:94466  .debug_str:0000000000017b9e .LASF1192
     /tmp/cciiZT4Y.s:94236  .debug_str:0000000000016b9b .LASF1193
     /tmp/cciiZT4Y.s:93834  .debug_str:0000000000015148 .LASF1194
     /tmp/cciiZT4Y.s:93602  .debug_str:000000000001435d .LASF1195
     /tmp/cciiZT4Y.s:93200  .debug_str:00000000000128f9 .LASF1196
     /tmp/cciiZT4Y.s:92950  .debug_str:00000000000117ed .LASF1197
     /tmp/cciiZT4Y.s:92508  .debug_str:000000000000ff7d .LASF1198
     /tmp/cciiZT4Y.s:92768  .debug_str:0000000000010cf6 .LASF1199
     /tmp/cciiZT4Y.s:90934  .debug_str:0000000000009ae3 .LASF1200
     /tmp/cciiZT4Y.s:89242  .debug_str:000000000000284a .LASF1201
     /tmp/cciiZT4Y.s:106878  .debug_str:000000000004acf0 .LASF1202
     /tmp/cciiZT4Y.s:91350  .debug_str:000000000000b726 .LASF1203
     /tmp/cciiZT4Y.s:96228  .debug_str:000000000001f413 .LASF1204
     /tmp/cciiZT4Y.s:101270  .debug_str:0000000000033bfb .LASF1205
     /tmp/cciiZT4Y.s:106130  .debug_str:0000000000047b94 .LASF1206
     /tmp/cciiZT4Y.s:91416  .debug_str:000000000000bc23 .LASF1207
     /tmp/cciiZT4Y.s:96474  .debug_str:000000000002060c .LASF1208
     /tmp/cciiZT4Y.s:91398  .debug_str:000000000000babc .LASF1209
     /tmp/cciiZT4Y.s:102316  .debug_str:0000000000038179 .LASF1210
     /tmp/cciiZT4Y.s:95668  .debug_str:000000000001cd26 .LASF1211
     /tmp/cciiZT4Y.s:103568  .debug_str:000000000003ce45 .LASF1212
     /tmp/cciiZT4Y.s:96494  .debug_str:000000000002080a .LASF1213
     /tmp/cciiZT4Y.s:107306  .debug_str:000000000004cad2 .LASF1214
     /tmp/cciiZT4Y.s:98588  .debug_str:0000000000028e2d .LASF1215
     /tmp/cciiZT4Y.s:89950  .debug_str:0000000000005799 .LASF1216
     /tmp/cciiZT4Y.s:100706  .debug_str:000000000003159e .LASF1217
     /tmp/cciiZT4Y.s:91966  .debug_str:000000000000dffe .LASF1218
     /tmp/cciiZT4Y.s:96272  .debug_str:000000000001f7a3 .LASF1219
     /tmp/cciiZT4Y.s:107080  .debug_str:000000000004bb43 .LASF1220
     /tmp/cciiZT4Y.s:100006  .debug_str:000000000002e808 .LASF1221
     /tmp/cciiZT4Y.s:97616  .debug_str:00000000000251a6 .LASF1222
     /tmp/cciiZT4Y.s:103384  .debug_str:000000000003c300 .LASF1223
     /tmp/cciiZT4Y.s:101138  .debug_str:00000000000332a5 .LASF1224
     /tmp/cciiZT4Y.s:99068  .debug_str:000000000002ad06 .LASF1225
     /tmp/cciiZT4Y.s:96770  .debug_str:0000000000021a05 .LASF1226
     /tmp/cciiZT4Y.s:100654  .debug_str:0000000000031295 .LASF1227
     /tmp/cciiZT4Y.s:99086  .debug_str:000000000002ae26 .LASF1228
     /tmp/cciiZT4Y.s:92504  .debug_str:000000000000ff10 .LASF1229
     /tmp/cciiZT4Y.s:92244  .debug_str:000000000000eec0 .LASF1230
     /tmp/cciiZT4Y.s:93954  .debug_str:000000000001592e .LASF1231
     /tmp/cciiZT4Y.s:105622  .debug_str:0000000000045a41 .LASF1232
     /tmp/cciiZT4Y.s:90712  .debug_str:0000000000008bd4 .LASF1233
     /tmp/cciiZT4Y.s:99374  .debug_str:000000000002c0b3 .LASF1234
     /tmp/cciiZT4Y.s:96344  .debug_str:000000000001fc06 .LASF1235
     /tmp/cciiZT4Y.s:95848  .debug_str:000000000001d8fb .LASF1236
     /tmp/cciiZT4Y.s:104510  .debug_str:0000000000040cd9 .LASF1237
     /tmp/cciiZT4Y.s:104076  .debug_str:000000000003efe4 .LASF1238
     /tmp/cciiZT4Y.s:89416  .debug_str:0000000000003417 .LASF1239
     /tmp/cciiZT4Y.s:99666  .debug_str:000000000002d1db .LASF1240
     /tmp/cciiZT4Y.s:108022  .debug_str:000000000004fc6b .LASF1241
     /tmp/cciiZT4Y.s:107792  .debug_str:000000000004ed01 .LASF1242
     /tmp/cciiZT4Y.s:98638  .debug_str:0000000000029216 .LASF1243
     /tmp/cciiZT4Y.s:96174  .debug_str:000000000001ef9e .LASF1244
     /tmp/cciiZT4Y.s:94994  .debug_str:0000000000019de0 .LASF1245
     /tmp/cciiZT4Y.s:100930  .debug_str:00000000000324d8 .LASF1246
     /tmp/cciiZT4Y.s:98494  .debug_str:00000000000287b2 .LASF1247
     /tmp/cciiZT4Y.s:103438  .debug_str:000000000003c649 .LASF1248
     /tmp/cciiZT4Y.s:101932  .debug_str:0000000000036970 .LASF1249
     /tmp/cciiZT4Y.s:99486  .debug_str:000000000002c6e2 .LASF1250
     /tmp/cciiZT4Y.s:103654  .debug_str:000000000003d3a0 .LASF1251
     /tmp/cciiZT4Y.s:101176  .debug_str:000000000003355e .LASF1252
     /tmp/cciiZT4Y.s:91886  .debug_str:000000000000dc30 .LASF1253
     /tmp/cciiZT4Y.s:105198  .debug_str:0000000000043e85 .LASF1254
     /tmp/cciiZT4Y.s:98468  .debug_str:00000000000285d7 .LASF1255
     /tmp/cciiZT4Y.s:88904  .debug_str:000000000000100c .LASF1256
     /tmp/cciiZT4Y.s:97876  .debug_str:0000000000025efc .LASF1257
     /tmp/cciiZT4Y.s:102088  .debug_str:00000000000373bc .LASF1258
     /tmp/cciiZT4Y.s:104798  .debug_str:000000000004244a .LASF1259
     /tmp/cciiZT4Y.s:90278  .debug_str:0000000000006e38 .LASF1260
     /tmp/cciiZT4Y.s:92252  .debug_str:000000000000ef51 .LASF1261
     /tmp/cciiZT4Y.s:97356  .debug_str:0000000000024168 .LASF1262
     /tmp/cciiZT4Y.s:98332  .debug_str:0000000000027d4c .LASF1263
     /tmp/cciiZT4Y.s:104738  .debug_str:0000000000041f84 .LASF1264
     /tmp/cciiZT4Y.s:98730  .debug_str:0000000000029744 .LASF1265
     /tmp/cciiZT4Y.s:97546  .debug_str:0000000000024db1 .LASF1266
     /tmp/cciiZT4Y.s:96430  .debug_str:00000000000202c5 .LASF1267
     /tmp/cciiZT4Y.s:89456  .debug_str:0000000000003604 .LASF1268
     /tmp/cciiZT4Y.s:103356  .debug_str:000000000003c0cc .LASF1269
     /tmp/cciiZT4Y.s:94978  .debug_str:0000000000019cec .LASF1270
     /tmp/cciiZT4Y.s:90202  .debug_str:000000000000687f .LASF1271
     /tmp/cciiZT4Y.s:107070  .debug_str:000000000004bac2 .LASF1272
     /tmp/cciiZT4Y.s:97038  .debug_str:0000000000022bb9 .LASF1273
     /tmp/cciiZT4Y.s:96960  .debug_str:000000000002264c .LASF1274
     /tmp/cciiZT4Y.s:102340  .debug_str:000000000003830a .LASF1275
     /tmp/cciiZT4Y.s:99958  .debug_str:000000000002e485 .LASF1276
     /tmp/cciiZT4Y.s:106444  .debug_str:000000000004907b .LASF1277
     /tmp/cciiZT4Y.s:93476  .debug_str:0000000000013be3 .LASF1278
     /tmp/cciiZT4Y.s:100176  .debug_str:000000000002f361 .LASF1279
     /tmp/cciiZT4Y.s:97890  .debug_str:0000000000026026 .LASF1280
     /tmp/cciiZT4Y.s:96456  .debug_str:0000000000020490 .LASF1281
     /tmp/cciiZT4Y.s:95342  .debug_str:000000000001b627 .LASF1282
     /tmp/cciiZT4Y.s:89818  .debug_str:0000000000004f6b .LASF1283
     /tmp/cciiZT4Y.s:92374  .debug_str:000000000000f769 .LASF1284
     /tmp/cciiZT4Y.s:90596  .debug_str:0000000000008388 .LASF1285
     /tmp/cciiZT4Y.s:107878  .debug_str:000000000004f272 .LASF1286
     /tmp/cciiZT4Y.s:95054  .debug_str:000000000001a1cb .LASF1287
     /tmp/cciiZT4Y.s:90430  .debug_str:000000000000791f .LASF1288
     /tmp/cciiZT4Y.s:96068  .debug_str:000000000001e8f6 .LASF1289
     /tmp/cciiZT4Y.s:88976  .debug_str:00000000000014ce .LASF1290
     /tmp/cciiZT4Y.s:102760  .debug_str:000000000003996c .LASF1291
     /tmp/cciiZT4Y.s:89232  .debug_str:0000000000002798 .LASF1292
     /tmp/cciiZT4Y.s:99092  .debug_str:000000000002aeb6 .LASF1293
     /tmp/cciiZT4Y.s:101022  .debug_str:0000000000032b6c .LASF1294
     /tmp/cciiZT4Y.s:108000  .debug_str:000000000004fb00 .LASF1295
     /tmp/cciiZT4Y.s:95678  .debug_str:000000000001ce11 .LASF1296
     /tmp/cciiZT4Y.s:102816  .debug_str:0000000000039ca5 .LASF1297
     /tmp/cciiZT4Y.s:94604  .debug_str:0000000000018483 .LASF1298
     /tmp/cciiZT4Y.s:97396  .debug_str:000000000002442a .LASF1299
     /tmp/cciiZT4Y.s:103756  .debug_str:000000000003dae0 .LASF1300
     /tmp/cciiZT4Y.s:88880  .debug_str:0000000000000e75 .LASF1301
     /tmp/cciiZT4Y.s:99296  .debug_str:000000000002bbb5 .LASF1302
     /tmp/cciiZT4Y.s:106274  .debug_str:0000000000048543 .LASF1303
     /tmp/cciiZT4Y.s:98324  .debug_str:0000000000027c77 .LASF1304
     /tmp/cciiZT4Y.s:105774  .debug_str:000000000004640d .LASF1305
     /tmp/cciiZT4Y.s:103856  .debug_str:000000000003e250 .LASF1306
     /tmp/cciiZT4Y.s:104790  .debug_str:000000000004237b .LASF1307
     /tmp/cciiZT4Y.s:90170  .debug_str:0000000000006656 .LASF1308
     /tmp/cciiZT4Y.s:97162  .debug_str:00000000000233d1 .LASF1309
     /tmp/cciiZT4Y.s:95916  .debug_str:000000000001de34 .LASF1310
     /tmp/cciiZT4Y.s:98750  .debug_str:00000000000298ed .LASF1311
     /tmp/cciiZT4Y.s:101736  .debug_str:0000000000035be3 .LASF1312
     /tmp/cciiZT4Y.s:104418  .debug_str:0000000000040514 .LASF1313
     /tmp/cciiZT4Y.s:95218  .debug_str:000000000001ae00 .LASF1314
     /tmp/cciiZT4Y.s:98000  .debug_str:00000000000266e7 .LASF1315
     /tmp/cciiZT4Y.s:100850  .debug_str:0000000000031eda .LASF1316
     /tmp/cciiZT4Y.s:103740  .debug_str:000000000003d9c7 .LASF1317
     /tmp/cciiZT4Y.s:106092  .debug_str:000000000004791a .LASF1318
     /tmp/cciiZT4Y.s:90018  .debug_str:0000000000005c67 .LASF1319
     /tmp/cciiZT4Y.s:92792  .debug_str:0000000000010f2e .LASF1320
     /tmp/cciiZT4Y.s:95640  .debug_str:000000000001cb90 .LASF1321
     /tmp/cciiZT4Y.s:98596  .debug_str:0000000000028efc .LASF1322
     /tmp/cciiZT4Y.s:101438  .debug_str:000000000003464c .LASF1323
     /tmp/cciiZT4Y.s:92034  .debug_str:000000000000e471 .LASF1324
     /tmp/cciiZT4Y.s:94902  .debug_str:00000000000197a1 .LASF1325
     /tmp/cciiZT4Y.s:97664  .debug_str:00000000000254a8 .LASF1326
     /tmp/cciiZT4Y.s:92676  .debug_str:0000000000010858 .LASF1327
     /tmp/cciiZT4Y.s:103486  .debug_str:000000000003c909 .LASF1328
     /tmp/cciiZT4Y.s:106368  .debug_str:0000000000048b44 .LASF1329
     /tmp/cciiZT4Y.s:99724  .debug_str:000000000002d572 .LASF1330
     /tmp/cciiZT4Y.s:92656  .debug_str:00000000000106da .LASF1331
     /tmp/cciiZT4Y.s:95504  .debug_str:000000000001c149 .LASF1332
     /tmp/cciiZT4Y.s:98290  .debug_str:0000000000027a16 .LASF1333
     /tmp/cciiZT4Y.s:89014  .debug_str:0000000000001792 .LASF1334
     /tmp/cciiZT4Y.s:91734  .debug_str:000000000000d258 .LASF1335
     /tmp/cciiZT4Y.s:94756  .debug_str:0000000000018d2c .LASF1336
     /tmp/cciiZT4Y.s:97524  .debug_str:0000000000024c93 .LASF1337
     /tmp/cciiZT4Y.s:100414  .debug_str:000000000003030a .LASF1338
     /tmp/cciiZT4Y.s:103344  .debug_str:000000000003bfe8 .LASF1339
     /tmp/cciiZT4Y.s:106058  .debug_str:0000000000047691 .LASF1340
     /tmp/cciiZT4Y.s:89566  .debug_str:0000000000003d81 .LASF1341
     /tmp/cciiZT4Y.s:92344  .debug_str:000000000000f4c5 .LASF1342
     /tmp/cciiZT4Y.s:95186  .debug_str:000000000001abe7 .LASF1343
     /tmp/cciiZT4Y.s:105366  .debug_str:0000000000044948 .LASF1344
     /tmp/cciiZT4Y.s:96198  .debug_str:000000000001f19a .LASF1345
     /tmp/cciiZT4Y.s:91594  .debug_str:000000000000c83e .LASF1346
     /tmp/cciiZT4Y.s:91808  .debug_str:000000000000d718 .LASF1347
     /tmp/cciiZT4Y.s:97228  .debug_str:00000000000238e6 .LASF1348
     /tmp/cciiZT4Y.s:106996  .debug_str:000000000004b5e8 .LASF1349
     /tmp/cciiZT4Y.s:103096  .debug_str:000000000003aeaf .LASF1350
     /tmp/cciiZT4Y.s:105928  .debug_str:0000000000046e52 .LASF1351
     /tmp/cciiZT4Y.s:89282  .debug_str:0000000000002b23 .LASF1352
     /tmp/cciiZT4Y.s:91998  .debug_str:000000000000e24c .LASF1353
     /tmp/cciiZT4Y.s:102346  .debug_str:0000000000038380 .LASF1354
     /tmp/cciiZT4Y.s:93796  .debug_str:0000000000014f13 .LASF1355
     /tmp/cciiZT4Y.s:101760  .debug_str:0000000000035de9 .LASF1356
     /tmp/cciiZT4Y.s:91294  .debug_str:000000000000b338 .LASF1357
     /tmp/cciiZT4Y.s:96328  .debug_str:000000000001fb02 .LASF1358
     /tmp/cciiZT4Y.s:100146  .debug_str:000000000002f0fd .LASF1359
     /tmp/cciiZT4Y.s:99574  .debug_str:000000000002cc4c .LASF1360
     /tmp/cciiZT4Y.s:98994  .debug_str:000000000002a881 .LASF1361
     /tmp/cciiZT4Y.s:98216  .debug_str:00000000000274a6 .LASF1362
     /tmp/cciiZT4Y.s:106974  .debug_str:000000000004b46c .LASF1363
     /tmp/cciiZT4Y.s:93298  .debug_str:0000000000012fe7 .LASF1364
     /tmp/cciiZT4Y.s:105820  .debug_str:00000000000466ee .LASF1365
     /tmp/cciiZT4Y.s:91730  .debug_str:000000000000d21b .LASF1366
     /tmp/cciiZT4Y.s:99080  .debug_str:000000000002adb9 .LASF1367
     /tmp/cciiZT4Y.s:92766  .debug_str:0000000000010cc7 .LASF1368
     /tmp/cciiZT4Y.s:104608  .debug_str:0000000000041475 .LASF1369
     /tmp/cciiZT4Y.s:91640  .debug_str:000000000000cbc2 .LASF1370
     /tmp/cciiZT4Y.s:95294  .debug_str:000000000001b2e0 .LASF1371
     /tmp/cciiZT4Y.s:102478  .debug_str:0000000000038a96 .LASF1372
     /tmp/cciiZT4Y.s:103130  .debug_str:000000000003b144 .LASF1373
     /tmp/cciiZT4Y.s:107034  .debug_str:000000000004b875 .LASF1374
     /tmp/cciiZT4Y.s:104886  .debug_str:0000000000042a32 .LASF1375
     /tmp/cciiZT4Y.s:93334  .debug_str:00000000000132bb .LASF1376
     /tmp/cciiZT4Y.s:102228  .debug_str:0000000000037ba3 .LASF1377
     /tmp/cciiZT4Y.s:91318  .debug_str:000000000000b515 .LASF1378
     /tmp/cciiZT4Y.s:100330  .debug_str:000000000002fd8f .LASF1379
     /tmp/cciiZT4Y.s:89608  .debug_str:00000000000040b5 .LASF1380
     /tmp/cciiZT4Y.s:98330  .debug_str:0000000000027d03 .LASF1381
     /tmp/cciiZT4Y.s:107106  .debug_str:000000000004bd45 .LASF1382
     /tmp/cciiZT4Y.s:96384  .debug_str:000000000001ff6f .LASF1383
     /tmp/cciiZT4Y.s:105216  .debug_str:0000000000043f95 .LASF1384
     /tmp/cciiZT4Y.s:94614  .debug_str:0000000000018532 .LASF1385
     /tmp/cciiZT4Y.s:89150  .debug_str:0000000000002226 .LASF1386
     /tmp/cciiZT4Y.s:95788  .debug_str:000000000001d4c7 .LASF1387
     /tmp/cciiZT4Y.s:108018  .debug_str:000000000004fc03 .LASF1388
     /tmp/cciiZT4Y.s:89520  .debug_str:0000000000003a49 .LASF1389
     /tmp/cciiZT4Y.s:97304  .debug_str:0000000000023dbd .LASF1390
     /tmp/cciiZT4Y.s:93562  .debug_str:00000000000140cc .LASF1391
     /tmp/cciiZT4Y.s:90942  .debug_str:0000000000009ba1 .LASF1392
     /tmp/cciiZT4Y.s:95740  .debug_str:000000000001d1dc .LASF1393
     /tmp/cciiZT4Y.s:104164  .debug_str:000000000003f50b .LASF1394
     /tmp/cciiZT4Y.s:91254  .debug_str:000000000000b023 .LASF1395
     /tmp/cciiZT4Y.s:94272  .debug_str:0000000000016e0f .LASF1396
     /tmp/cciiZT4Y.s:100928  .debug_str:000000000003248c .LASF1397
     /tmp/cciiZT4Y.s:107228  .debug_str:000000000004c50b .LASF1398
     /tmp/cciiZT4Y.s:94400  .debug_str:00000000000176b4 .LASF1399
     /tmp/cciiZT4Y.s:100908  .debug_str:00000000000322d5 .LASF1400
     /tmp/cciiZT4Y.s:107434  .debug_str:000000000004d341 .LASF1401
     /tmp/cciiZT4Y.s:94762  .debug_str:0000000000018da4 .LASF1402
     /tmp/cciiZT4Y.s:101456  .debug_str:0000000000034755 .LASF1403
     /tmp/cciiZT4Y.s:101860  .debug_str:000000000003647e .LASF1404
     /tmp/cciiZT4Y.s:95148  .debug_str:000000000001a8a3 .LASF1405
     /tmp/cciiZT4Y.s:95114  .debug_str:000000000001a65f .LASF1406
     /tmp/cciiZT4Y.s:89792  .debug_str:0000000000004ddc .LASF1407
     /tmp/cciiZT4Y.s:91212  .debug_str:000000000000ad7e .LASF1408
     /tmp/cciiZT4Y.s:91478  .debug_str:000000000000c0b8 .LASF1409
     /tmp/cciiZT4Y.s:90160  .debug_str:00000000000065a4 .LASF1410
     /tmp/cciiZT4Y.s:104784  .debug_str:00000000000422f2 .LASF1411
     /tmp/cciiZT4Y.s:94394  .debug_str:0000000000017643 .LASF1412
     /tmp/cciiZT4Y.s:95938  .debug_str:000000000001dfa6 .LASF1413
     /tmp/cciiZT4Y.s:102826  .debug_str:0000000000039d4a .LASF1414
     /tmp/cciiZT4Y.s:99350  .debug_str:000000000002bf4d .LASF1415
     /tmp/cciiZT4Y.s:95814  .debug_str:000000000001d69d .LASF1416
     /tmp/cciiZT4Y.s:105488  .debug_str:000000000004510e .LASF1417
     /tmp/cciiZT4Y.s:105478  .debug_str:0000000000045065 .LASF1418
     /tmp/cciiZT4Y.s:96192  .debug_str:000000000001f101 .LASF1419
     /tmp/cciiZT4Y.s:105418  .debug_str:0000000000044ce2 .LASF1420
     /tmp/cciiZT4Y.s:97928  .debug_str:00000000000262b8 .LASF1421
     /tmp/cciiZT4Y.s:101294  .debug_str:0000000000033da9 .LASF1422
     /tmp/cciiZT4Y.s:92514  .debug_str:000000000000ffec .LASF1423
     /tmp/cciiZT4Y.s:102574  .debug_str:0000000000038fb3 .LASF1424
     /tmp/cciiZT4Y.s:106046  .debug_str:00000000000475ee .LASF1425
     /tmp/cciiZT4Y.s:99000  .debug_str:000000000002a912 .LASF1426
     /tmp/cciiZT4Y.s:104584  .debug_str:00000000000412fb .LASF1427
     /tmp/cciiZT4Y.s:98486  .debug_str:0000000000028709 .LASF1428
     /tmp/cciiZT4Y.s:90776  .debug_str:0000000000009007 .LASF1429
     /tmp/cciiZT4Y.s:102764  .debug_str:00000000000399c0 .LASF1430
     /tmp/cciiZT4Y.s:88702  .debug_str:00000000000002a3 .LASF1431
     /tmp/cciiZT4Y.s:97136  .debug_str:00000000000231ac .LASF1432
     /tmp/cciiZT4Y.s:93632  .debug_str:0000000000014544 .LASF1433
     /tmp/cciiZT4Y.s:94080  .debug_str:0000000000016113 .LASF1434
     /tmp/cciiZT4Y.s:106480  .debug_str:00000000000492d6 .LASF1435
     /tmp/cciiZT4Y.s:98136  .debug_str:0000000000027037 .LASF1436
     /tmp/cciiZT4Y.s:96652  .debug_str:00000000000211d9 .LASF1437
     /tmp/cciiZT4Y.s:93256  .debug_str:0000000000012cf2 .LASF1438
     /tmp/cciiZT4Y.s:90360  .debug_str:00000000000074a2 .LASF1439
     /tmp/cciiZT4Y.s:98166  .debug_str:00000000000271fb .LASF1440
     /tmp/cciiZT4Y.s:100720  .debug_str:00000000000316b6 .LASF1441
     /tmp/cciiZT4Y.s:93846  .debug_str:000000000001522f .LASF1442
     /tmp/cciiZT4Y.s:94138  .debug_str:00000000000164f2 .LASF1443
     /tmp/cciiZT4Y.s:95412  .debug_str:000000000001bac4 .LASF1444
     /tmp/cciiZT4Y.s:98770  .debug_str:0000000000029a3a .LASF1445
     /tmp/cciiZT4Y.s:94906  .debug_str:00000000000197e7 .LASF1446
     /tmp/cciiZT4Y.s:89144  .debug_str:00000000000021bd .LASF1447
     /tmp/cciiZT4Y.s:101070  .debug_str:0000000000032e98 .LASF1448
     /tmp/cciiZT4Y.s:103796  .debug_str:000000000003de2e .LASF1449
     /tmp/cciiZT4Y.s:95612  .debug_str:000000000001c946 .LASF1450
     /tmp/cciiZT4Y.s:106740  .debug_str:000000000004a331 .LASF1451
     /tmp/cciiZT4Y.s:89180  .debug_str:000000000000247e .LASF1452
     /tmp/cciiZT4Y.s:97976  .debug_str:0000000000026561 .LASF1453
     /tmp/cciiZT4Y.s:104432  .debug_str:000000000004061b .LASF1454
     /tmp/cciiZT4Y.s:101014  .debug_str:0000000000032ab4 .LASF1455
     /tmp/cciiZT4Y.s:97384  .debug_str:000000000002437e .LASF1456
     /tmp/cciiZT4Y.s:93902  .debug_str:00000000000155d2 .LASF1457
     /tmp/cciiZT4Y.s:105960  .debug_str:000000000004700f .LASF1458
     /tmp/cciiZT4Y.s:91898  .debug_str:000000000000dcb3 .LASF1459
     /tmp/cciiZT4Y.s:89794  .debug_str:0000000000004e2a .LASF1460
     /tmp/cciiZT4Y.s:92700  .debug_str:0000000000010999 .LASF1461
     /tmp/cciiZT4Y.s:104836  .debug_str:00000000000426e7 .LASF1462
     /tmp/cciiZT4Y.s:107478  .debug_str:000000000004d66e .LASF1463
     /tmp/cciiZT4Y.s:94476  .debug_str:0000000000017c78 .LASF1464
     /tmp/cciiZT4Y.s:100994  .debug_str:0000000000032965 .LASF1465
     /tmp/cciiZT4Y.s:107344  .debug_str:000000000004cddd .LASF1466
     /tmp/cciiZT4Y.s:94368  .debug_str:0000000000017469 .LASF1467
     /tmp/cciiZT4Y.s:93156  .debug_str:0000000000012657 .LASF1468
     /tmp/cciiZT4Y.s:99672  .debug_str:000000000002d24c .LASF1469
     /tmp/cciiZT4Y.s:106000  .debug_str:00000000000472bc .LASF1470
     /tmp/cciiZT4Y.s:93022  .debug_str:0000000000011d4e .LASF1471
     /tmp/cciiZT4Y.s:99542  .debug_str:000000000002ca32 .LASF1472
     /tmp/cciiZT4Y.s:105190  .debug_str:0000000000043e33 .LASF1473
     /tmp/cciiZT4Y.s:90338  .debug_str:000000000000730e .LASF1474
     /tmp/cciiZT4Y.s:104856  .debug_str:000000000004285f .LASF1475
     /tmp/cciiZT4Y.s:106080  .debug_str:0000000000047837 .LASF1476
     /tmp/cciiZT4Y.s:96404  .debug_str:000000000002010e .LASF1477
     /tmp/cciiZT4Y.s:92596  .debug_str:0000000000010417 .LASF1478
     /tmp/cciiZT4Y.s:91750  .debug_str:000000000000d373 .LASF1479
     /tmp/cciiZT4Y.s:104332  .debug_str:000000000003ffaf .LASF1480
     /tmp/cciiZT4Y.s:96230  .debug_str:000000000001f46a .LASF1481
     /tmp/cciiZT4Y.s:107352  .debug_str:000000000004ce6d .LASF1482
     /tmp/cciiZT4Y.s:96672  .debug_str:000000000002132c .LASF1483
     /tmp/cciiZT4Y.s:90862  .debug_str:00000000000095b8 .LASF1484
     /tmp/cciiZT4Y.s:102326  .debug_str:000000000003825b .LASF1485
     /tmp/cciiZT4Y.s:93980  .debug_str:0000000000015ad5 .LASF1486
     /tmp/cciiZT4Y.s:105280  .debug_str:00000000000443e4 .LASF1487
     /tmp/cciiZT4Y.s:97006  .debug_str:000000000002299e .LASF1488
     /tmp/cciiZT4Y.s:88846  .debug_str:0000000000000c43 .LASF1489
     /tmp/cciiZT4Y.s:91084  .debug_str:000000000000a477 .LASF1490
     /tmp/cciiZT4Y.s:100910  .debug_str:0000000000032323 .LASF1491
     /tmp/cciiZT4Y.s:90814  .debug_str:000000000000926f .LASF1492
     /tmp/cciiZT4Y.s:102886  .debug_str:000000000003a05d .LASF1493
     /tmp/cciiZT4Y.s:90580  .debug_str:0000000000008258 .LASF1494
     /tmp/cciiZT4Y.s:100224  .debug_str:000000000002f745 .LASF1495
     /tmp/cciiZT4Y.s:90346  .debug_str:000000000000739d .LASF1496
     /tmp/cciiZT4Y.s:99978  .debug_str:000000000002e5c4 .LASF1497
     /tmp/cciiZT4Y.s:90094  .debug_str:0000000000006152 .LASF1498
     /tmp/cciiZT4Y.s:99710  .debug_str:000000000002d483 .LASF1499
     /tmp/cciiZT4Y.s:91584  .debug_str:000000000000c754 .LASF1500
     /tmp/cciiZT4Y.s:96030  .debug_str:000000000001e68d .LASF1501
     /tmp/cciiZT4Y.s:91148  .debug_str:000000000000a91e .LASF1502
     /tmp/cciiZT4Y.s:100982  .debug_str:000000000003286e .LASF1503
     /tmp/cciiZT4Y.s:103846  .debug_str:000000000003e187 .LASF1504
     /tmp/cciiZT4Y.s:100704  .debug_str:0000000000031574 .LASF1505
     /tmp/cciiZT4Y.s:90654  .debug_str:00000000000087d6 .LASF1506
     /tmp/cciiZT4Y.s:100456  .debug_str:00000000000305c4 .LASF1507
     /tmp/cciiZT4Y.s:90404  .debug_str:0000000000007704 .LASF1508
     /tmp/cciiZT4Y.s:91748  .debug_str:000000000000d349 .LASF1509
     /tmp/cciiZT4Y.s:91912  .debug_str:000000000000dd55 .LASF1510
     /tmp/cciiZT4Y.s:101586  .debug_str:00000000000350c2 .LASF1511
     /tmp/cciiZT4Y.s:91668  .debug_str:000000000000cdb7 .LASF1512
     /tmp/cciiZT4Y.s:101328  .debug_str:0000000000033fc6 .LASF1513
     /tmp/cciiZT4Y.s:96052  .debug_str:000000000001e7d5 .LASF1514
     /tmp/cciiZT4Y.s:101060  .debug_str:0000000000032dfe .LASF1515
     /tmp/cciiZT4Y.s:91134  .debug_str:000000000000a84a .LASF1516
     /tmp/cciiZT4Y.s:100784  .debug_str:0000000000031b15 .LASF1517
     /tmp/cciiZT4Y.s:90866  .debug_str:00000000000095f6 .LASF1518
     /tmp/cciiZT4Y.s:100520  .debug_str:0000000000030a55 .LASF1519
     /tmp/cciiZT4Y.s:92288  .debug_str:000000000000f1d6 .LASF1520
     /tmp/cciiZT4Y.s:102056  .debug_str:0000000000037153 .LASF1521
     /tmp/cciiZT4Y.s:91992  .debug_str:000000000000e1d6 .LASF1522
     /tmp/cciiZT4Y.s:98200  .debug_str:0000000000027382 .LASF1523
     /tmp/cciiZT4Y.s:91738  .debug_str:000000000000d29b .LASF1524
     /tmp/cciiZT4Y.s:101570  .debug_str:0000000000034f9a .LASF1525
     /tmp/cciiZT4Y.s:91464  .debug_str:000000000000bfda .LASF1526
     /tmp/cciiZT4Y.s:101132  .debug_str:000000000003324a .LASF1527
     /tmp/cciiZT4Y.s:91208  .debug_str:000000000000ad33 .LASF1528
     /tmp/cciiZT4Y.s:107382  .debug_str:000000000004d03b .LASF1529
     /tmp/cciiZT4Y.s:92816  .debug_str:0000000000011016 .LASF1530
     /tmp/cciiZT4Y.s:102418  .debug_str:0000000000038794 .LASF1531
     /tmp/cciiZT4Y.s:92540  .debug_str:0000000000010162 .LASF1532
     /tmp/cciiZT4Y.s:102140  .debug_str:000000000003765b .LASF1533
     /tmp/cciiZT4Y.s:92004  .debug_str:000000000000e2af .LASF1534
     /tmp/cciiZT4Y.s:101868  .debug_str:00000000000364fc .LASF1535
     /tmp/cciiZT4Y.s:91802  .debug_str:000000000000d691 .LASF1536
     /tmp/cciiZT4Y.s:101648  .debug_str:000000000003553e .LASF1537
     /tmp/cciiZT4Y.s:91546  .debug_str:000000000000c4af .LASF1538
     /tmp/cciiZT4Y.s:101386  .debug_str:000000000003432c .LASF1539
     /tmp/cciiZT4Y.s:93196  .debug_str:000000000001289c .LASF1540
     /tmp/cciiZT4Y.s:102948  .debug_str:000000000003a50e .LASF1541
     /tmp/cciiZT4Y.s:92902  .debug_str:00000000000115b0 .LASF1542
     /tmp/cciiZT4Y.s:102490  .debug_str:0000000000038ba2 .LASF1543
     /tmp/cciiZT4Y.s:92846  .debug_str:0000000000011207 .LASF1544
     /tmp/cciiZT4Y.s:93706  .debug_str:0000000000014a2b .LASF1545
     /tmp/cciiZT4Y.s:88668  .debug_str:0000000000000021 .LASF1546
     /tmp/cciiZT4Y.s:103032  .debug_str:000000000003a9fa .LASF1547
     /tmp/cciiZT4Y.s:96760  .debug_str:0000000000021918 .LASF1548
     /tmp/cciiZT4Y.s:105126  .debug_str:00000000000439f3 .LASF1549
     /tmp/cciiZT4Y.s:89050  .debug_str:0000000000001aa8 .LASF1550
     /tmp/cciiZT4Y.s:89786  .debug_str:0000000000004d59 .LASF1551
     /tmp/cciiZT4Y.s:90214  .debug_str:000000000000694e .LASF1552
     /tmp/cciiZT4Y.s:90572  .debug_str:00000000000081c2 .LASF1553
     /tmp/cciiZT4Y.s:93466  .debug_str:0000000000013b12 .LASF1554
     /tmp/cciiZT4Y.s:102970  .debug_str:000000000003a5d1 .LASF1555
     /tmp/cciiZT4Y.s:101672  .debug_str:0000000000035711 .LASF1556
     /tmp/cciiZT4Y.s:104170  .debug_str:000000000003f584 .LASF1557
     /tmp/cciiZT4Y.s:106754  .debug_str:000000000004a44e .LASF1558
     /tmp/cciiZT4Y.s:90216  .debug_str:000000000000697f .LASF1559
     /tmp/cciiZT4Y.s:106948  .debug_str:000000000004b27e .LASF1560
     /tmp/cciiZT4Y.s:89560  .debug_str:0000000000003d21 .LASF1561
     /tmp/cciiZT4Y.s:104990  .debug_str:00000000000430a2 .LASF1562
     /tmp/cciiZT4Y.s:105624  .debug_str:0000000000045a7d .LASF1563
     /tmp/cciiZT4Y.s:104352  .debug_str:00000000000400e9 .LASF1564
     /tmp/cciiZT4Y.s:104538  .debug_str:0000000000040ed7 .LASF1565
     /tmp/cciiZT4Y.s:94928  .debug_str:0000000000019959 .LASF1566
     /tmp/cciiZT4Y.s:106300  .debug_str:00000000000486fb .LASF1567
     /tmp/cciiZT4Y.s:107760  .debug_str:000000000004ea92 .LASF1568
     /tmp/cciiZT4Y.s:99116  .debug_str:000000000002b0db .LASF1569
     /tmp/cciiZT4Y.s:92610  .debug_str:00000000000104c7 .LASF1570
     /tmp/cciiZT4Y.s:101398  .debug_str:0000000000034417 .LASF1571
     /tmp/cciiZT4Y.s:90988  .debug_str:0000000000009ea0 .LASF1572
     /tmp/cciiZT4Y.s:88678  .debug_str:00000000000000c4 .LASF1573
     /tmp/cciiZT4Y.s:97048  .debug_str:0000000000022c5b .LASF1574
     /tmp/cciiZT4Y.s:97300  .debug_str:0000000000023d92 .LASF1575
     /tmp/cciiZT4Y.s:103398  .debug_str:000000000003c3a2 .LASF1576
     /tmp/cciiZT4Y.s:105594  .debug_str:00000000000458da .LASF1577
     /tmp/cciiZT4Y.s:107096  .debug_str:000000000004bcb0 .LASF1578
     /tmp/cciiZT4Y.s:96448  .debug_str:0000000000020439 .LASF1579
     /tmp/cciiZT4Y.s:100266  .debug_str:000000000002f9eb .LASF1580
     /tmp/cciiZT4Y.s:92856  .debug_str:00000000000112e5 .LASF1582
     /tmp/cciiZT4Y.s:106436  .debug_str:0000000000048fe6 .LASF1583
     /tmp/cciiZT4Y.s:94112  .debug_str:00000000000162f7 .LASF1584
     /tmp/cciiZT4Y.s:98708  .debug_str:0000000000029619 .LASF1585
     /tmp/cciiZT4Y.s:93964  .debug_str:00000000000159d9 .LASF1586
     /tmp/cciiZT4Y.s:93900  .debug_str:00000000000155c4 .LASF1587
     /tmp/cciiZT4Y.s:100230  .debug_str:000000000002f7c2 .LASF1588
     /tmp/cciiZT4Y.s:88730  .debug_str:000000000000047a .LASF1589
     /tmp/cciiZT4Y.s:94200  .debug_str:0000000000016925 .LASF1590
     /tmp/cciiZT4Y.s:96210  .debug_str:000000000001f2e0 .LASF1591
     /tmp/cciiZT4Y.s:97376  .debug_str:00000000000242e2 .LASF1592
     /tmp/cciiZT4Y.s:104814  .debug_str:000000000004258c .LASF1593
     /tmp/cciiZT4Y.s:92332  .debug_str:000000000000f3ea .LASF1594
     /tmp/cciiZT4Y.s:98942  .debug_str:000000000002a5b1 .LASF1595
     /tmp/cciiZT4Y.s:90242  .debug_str:0000000000006bbc .LASF1596
     /tmp/cciiZT4Y.s:91124  .debug_str:000000000000a777 .LASF1597
     /tmp/cciiZT4Y.s:97114  .debug_str:000000000002307a .LASF1598
     /tmp/cciiZT4Y.s:91118  .debug_str:000000000000a71e .LASF1599
     /tmp/cciiZT4Y.s:96084  .debug_str:000000000001ea54 .LASF1600
     /tmp/cciiZT4Y.s:101260  .debug_str:0000000000033b2c .LASF1601
     /tmp/cciiZT4Y.s:97192  .debug_str:0000000000023696 .LASF1602
     /tmp/cciiZT4Y.s:89384  .debug_str:00000000000031ce .LASF1603
     /tmp/cciiZT4Y.s:98806  .debug_str:0000000000029c44 .LASF1604
     /tmp/cciiZT4Y.s:89802  .debug_str:0000000000004ead .LASF1605
     /tmp/cciiZT4Y.s:91972  .debug_str:000000000000e0a4 .LASF1606
     /tmp/cciiZT4Y.s:108002  .debug_str:000000000004fb33 .LASF1607
     /tmp/cciiZT4Y.s:98572  .debug_str:0000000000028d23 .LASF1608
     /tmp/cciiZT4Y.s:102928  .debug_str:000000000003a3bc .LASF1609
     /tmp/cciiZT4Y.s:98938  .debug_str:000000000002a566 .LASF1610
     /tmp/cciiZT4Y.s:106106  .debug_str:0000000000047a4f .LASF1611
     /tmp/cciiZT4Y.s:105136  .debug_str:0000000000043a9d .LASF1612
     /tmp/cciiZT4Y.s:92360  .debug_str:000000000000f651 .LASF1613
     /tmp/cciiZT4Y.s:106628  .debug_str:0000000000049c40 .LASF1614
     /tmp/cciiZT4Y.s:89752  .debug_str:0000000000004b5d .LASF1615
     /tmp/cciiZT4Y.s:94936  .debug_str:00000000000199d4 .LASF1616
     /tmp/cciiZT4Y.s:98916  .debug_str:000000000002a3e1 .LASF1617
     /tmp/cciiZT4Y.s:90632  .debug_str:000000000000861d .LASF1618
     /tmp/cciiZT4Y.s:92852  .debug_str:000000000001128c .LASF1619
     /tmp/cciiZT4Y.s:101044  .debug_str:0000000000032d1b .LASF1620
     /tmp/cciiZT4Y.s:92076  .debug_str:000000000000e721 .LASF1621
     /tmp/cciiZT4Y.s:106502  .debug_str:0000000000049421 .LASF1622
     /tmp/cciiZT4Y.s:95004  .debug_str:0000000000019e95 .LASF1623
     /tmp/cciiZT4Y.s:107806  .debug_str:000000000004ee41 .LASF1624
     /tmp/cciiZT4Y.s:92652  .debug_str:0000000000010687 .LASF1625
     /tmp/cciiZT4Y.s:101442  .debug_str:0000000000034699 .LASF1626
     /tmp/cciiZT4Y.s:107652  .debug_str:000000000004e3b5 .LASF1627
     /tmp/cciiZT4Y.s:100354  .debug_str:000000000002ff98 .LASF1628
     /tmp/cciiZT4Y.s:98280  .debug_str:0000000000027974 .LASF1629
     /tmp/cciiZT4Y.s:101210  .debug_str:00000000000337fc .LASF1630
     /tmp/cciiZT4Y.s:95192  .debug_str:000000000001ac5b .LASF1631
     /tmp/cciiZT4Y.s:102190  .debug_str:0000000000037a59 .LASF1632
     /tmp/cciiZT4Y.s:104748  .debug_str:0000000000042063 .LASF1633
     /tmp/cciiZT4Y.s:103538  .debug_str:000000000003ccd3 .LASF1634
     /tmp/cciiZT4Y.s:95536  .debug_str:000000000001c328 .LASF1635
     /tmp/cciiZT4Y.s:99660  .debug_str:000000000002d17e .LASF1636
     /tmp/cciiZT4Y.s:107204  .debug_str:000000000004c3b6 .LASF1637
     /tmp/cciiZT4Y.s:92698  .debug_str:000000000001096f .LASF1638
     /tmp/cciiZT4Y.s:91674  .debug_str:000000000000ce2a .LASF1639
     /tmp/cciiZT4Y.s:91370  .debug_str:000000000000b8b3 .LASF1640
     /tmp/cciiZT4Y.s:89082  .debug_str:0000000000001d3e .LASF1641
     /tmp/cciiZT4Y.s:100916  .debug_str:0000000000032378 .LASF1642
     /tmp/cciiZT4Y.s:93952  .debug_str:0000000000015903 .LASF1643
     /tmp/cciiZT4Y.s:98888  .debug_str:000000000002a1d4 .LASF1644
     /tmp/cciiZT4Y.s:101142  .debug_str:00000000000332f6 .LASF1645
     /tmp/cciiZT4Y.s:96218  .debug_str:000000000001f364 .LASF1646
     /tmp/cciiZT4Y.s:94824  .debug_str:00000000000191d9 .LASF1647
     /tmp/cciiZT4Y.s:101832  .debug_str:00000000000362c5 .LASF1648
     /tmp/cciiZT4Y.s:90894  .debug_str:00000000000097b0 .LASF1649
     /tmp/cciiZT4Y.s:100538  .debug_str:0000000000030b82 .LASF1650
     /tmp/cciiZT4Y.s:104754  .debug_str:00000000000420dd .LASF1651
     /tmp/cciiZT4Y.s:95924  .debug_str:000000000001decd .LASF1652
     /tmp/cciiZT4Y.s:107766  .debug_str:000000000004ead1 .LASF1653
     /tmp/cciiZT4Y.s:104752  .debug_str:00000000000420bf .LASF1654
     /tmp/cciiZT4Y.s:107788  .debug_str:000000000004ecb0 .LASF1655
     /tmp/cciiZT4Y.s:91874  .debug_str:000000000000db6e .LASF1656
     /tmp/cciiZT4Y.s:107252  .debug_str:000000000004c704 .LASF1657
     /tmp/cciiZT4Y.s:96144  .debug_str:000000000001ed9f .LASF1658
     /tmp/cciiZT4Y.s:106594  .debug_str:0000000000049a81 .LASF1659
     /tmp/cciiZT4Y.s:89908  .debug_str:00000000000054f7 .LASF1660
     /tmp/cciiZT4Y.s:94426  .debug_str:000000000001789d .LASF1661
     /tmp/cciiZT4Y.s:105048  .debug_str:0000000000043491 .LASF1662
     /tmp/cciiZT4Y.s:94792  .debug_str:0000000000018fac .LASF1663
     /tmp/cciiZT4Y.s:97514  .debug_str:0000000000024b2d .LASF1664
     /tmp/cciiZT4Y.s:96932  .debug_str:0000000000022555 .LASF1665
     /tmp/cciiZT4Y.s:107974  .debug_str:000000000004f93e .LASF1666
     /tmp/cciiZT4Y.s:100902  .debug_str:0000000000032260 .LASF1667
     /tmp/cciiZT4Y.s:93420  .debug_str:0000000000013868 .LASF1668
     /tmp/cciiZT4Y.s:97832  .debug_str:0000000000025dc8 .LASF1669
     /tmp/cciiZT4Y.s:101478  .debug_str:000000000003491e .LASF1670
     /tmp/cciiZT4Y.s:89532  .debug_str:0000000000003b50 .LASF1671
     /tmp/cciiZT4Y.s:92290  .debug_str:000000000000f200 .LASF1672
     /tmp/cciiZT4Y.s:91938  .debug_str:000000000000de94 .LASF1673
     /tmp/cciiZT4Y.s:106944  .debug_str:000000000004b237 .LASF1674
     /tmp/cciiZT4Y.s:99180  .debug_str:000000000002b401 .LASF1675
     /tmp/cciiZT4Y.s:97938  .debug_str:000000000002633f .LASF1676
     /tmp/cciiZT4Y.s:91628  .debug_str:000000000000cab7 .LASF1677
     /tmp/cciiZT4Y.s:97036  .debug_str:0000000000022b91 .LASF1678
     /tmp/cciiZT4Y.s:101258  .debug_str:0000000000033af6 .LASF1679
     /tmp/cciiZT4Y.s:106390  .debug_str:0000000000048cac .LASF1680
     /tmp/cciiZT4Y.s:108032  .debug_str:000000000004fd1d .LASF1681
     /tmp/cciiZT4Y.s:103616  .debug_str:000000000003d148 .LASF1682
     /tmp/cciiZT4Y.s:99326  .debug_str:000000000002bd3a .LASF1683
     /tmp/cciiZT4Y.s:94530  .debug_str:0000000000017fa6 .LASF1684
     /tmp/cciiZT4Y.s:90548  .debug_str:000000000000804b .LASF1685
     /tmp/cciiZT4Y.s:104894  .debug_str:0000000000042aa4 .LASF1686
     /tmp/cciiZT4Y.s:101320  .debug_str:0000000000033f35 .LASF1687
     /tmp/cciiZT4Y.s:95872  .debug_str:000000000001dacf .LASF1688
     /tmp/cciiZT4Y.s:92376  .debug_str:000000000000f79f .LASF1689
     /tmp/cciiZT4Y.s:106226  .debug_str:0000000000048207 .LASF1690
     /tmp/cciiZT4Y.s:106428  .debug_str:0000000000048f7c .LASF1691
     /tmp/cciiZT4Y.s:95060  .debug_str:000000000001a239 .LASF1692
     /tmp/cciiZT4Y.s:97618  .debug_str:00000000000251e1 .LASF1693
     /tmp/cciiZT4Y.s:105424  .debug_str:0000000000044d53 .LASF1694
     /tmp/cciiZT4Y.s:88832  .debug_str:0000000000000b6e .LASF1695
     /tmp/cciiZT4Y.s:96382  .debug_str:000000000001ff4c .LASF1696
     /tmp/cciiZT4Y.s:99552  .debug_str:000000000002cad8 .LASF1697
     /tmp/cciiZT4Y.s:93544  .debug_str:0000000000013fe5 .LASF1698
     /tmp/cciiZT4Y.s:90598  .debug_str:00000000000083be .LASF1699
     /tmp/cciiZT4Y.s:102066  .debug_str:0000000000037231 .LASF1700
     /tmp/cciiZT4Y.s:104724  .debug_str:0000000000041ec5 .LASF1701
     /tmp/cciiZT4Y.s:93692  .debug_str:0000000000014957 .LASF1702
     /tmp/cciiZT4Y.s:103234  .debug_str:000000000003b859 .LASF1703
     /tmp/cciiZT4Y.s:104044  .debug_str:000000000003edbc .LASF1704
     /tmp/cciiZT4Y.s:90128  .debug_str:000000000000637b .LASF1705
     /tmp/cciiZT4Y.s:97966  .debug_str:00000000000264d1 .LASF1706
     /tmp/cciiZT4Y.s:100840  .debug_str:0000000000031e4f .LASF1707
     /tmp/cciiZT4Y.s:88892  .debug_str:0000000000000f4a .LASF1708
     /tmp/cciiZT4Y.s:101972  .debug_str:0000000000036c38 .LASF1709
     /tmp/cciiZT4Y.s:94044  .debug_str:0000000000015f02 .LASF1710
     /tmp/cciiZT4Y.s:93140  .debug_str:0000000000012545 .LASF1711
     /tmp/cciiZT4Y.s:104406  .debug_str:0000000000040433 .LASF1712
     /tmp/cciiZT4Y.s:104492  .debug_str:0000000000040b8f .LASF1713
     /tmp/cciiZT4Y.s:96164  .debug_str:000000000001ef2d .LASF1714
     /tmp/cciiZT4Y.s:107152  .debug_str:000000000004c032 .LASF1715
     /tmp/cciiZT4Y.s:105664  .debug_str:0000000000045d0f .LASF1716
     /tmp/cciiZT4Y.s:95384  .debug_str:000000000001b8ce .LASF1717
     /tmp/cciiZT4Y.s:103064  .debug_str:000000000003ac8d .LASF1718
     /tmp/cciiZT4Y.s:107134  .debug_str:000000000004bef6 .LASF1719
     /tmp/cciiZT4Y.s:93882  .debug_str:0000000000015492 .LASF1720
     /tmp/cciiZT4Y.s:100498  .debug_str:000000000003093d .LASF1721
     /tmp/cciiZT4Y.s:97158  .debug_str:0000000000023372 .LASF1722
     /tmp/cciiZT4Y.s:89332  .debug_str:0000000000002e49 .LASF1723
     /tmp/cciiZT4Y.s:102494  .debug_str:0000000000038bf3 .LASF1724
     /tmp/cciiZT4Y.s:102888  .debug_str:000000000003a087 .LASF1725
     /tmp/cciiZT4Y.s:95400  .debug_str:000000000001ba14 .LASF1726
     /tmp/cciiZT4Y.s:102146  .debug_str:00000000000376bb .LASF1727
     /tmp/cciiZT4Y.s:104382  .debug_str:000000000004027e .LASF1728
     /tmp/cciiZT4Y.s:98766  .debug_str:00000000000299f8 .LASF1729
     /tmp/cciiZT4Y.s:100112  .debug_str:000000000002ef0b .LASF1730
     /tmp/cciiZT4Y.s:97420  .debug_str:00000000000245ef .LASF1731
     /tmp/cciiZT4Y.s:94596  .debug_str:00000000000183ff .LASF1732
     /tmp/cciiZT4Y.s:92436  .debug_str:000000000000fa9c .LASF1733
     /tmp/cciiZT4Y.s:88972  .debug_str:00000000000014a6 .LASF1734
     /tmp/cciiZT4Y.s:104306  .debug_str:000000000003fe32 .LASF1735
     /tmp/cciiZT4Y.s:91742  .debug_str:000000000000d305 .LASF1736
     /tmp/cciiZT4Y.s:94946  .debug_str:0000000000019a7f .LASF1737
     /tmp/cciiZT4Y.s:100000  .debug_str:000000000002e78c .LASF1738
     /tmp/cciiZT4Y.s:105178  .debug_str:0000000000043d8a .LASF1739
     /tmp/cciiZT4Y.s:102106  .debug_str:00000000000374dd .LASF1740
     /tmp/cciiZT4Y.s:97046  .debug_str:0000000000022c30 .LASF1741
     /tmp/cciiZT4Y.s:102748  .debug_str:00000000000398b1 .LASF1742
     /tmp/cciiZT4Y.s:99506  .debug_str:000000000002c82c .LASF1743
     /tmp/cciiZT4Y.s:93856  .debug_str:000000000001530f .LASF1744
     /tmp/cciiZT4Y.s:98394  .debug_str:0000000000028104 .LASF1745
     /tmp/cciiZT4Y.s:104638  .debug_str:000000000004166b .LASF1746
     /tmp/cciiZT4Y.s:89298  .debug_str:0000000000002c03 .LASF1747
     /tmp/cciiZT4Y.s:95860  .debug_str:000000000001da01 .LASF1748
     /tmp/cciiZT4Y.s:99792  .debug_str:000000000002d9ad .LASF1749
     /tmp/cciiZT4Y.s:107920  .debug_str:000000000004f567 .LASF1750
     /tmp/cciiZT4Y.s:104040  .debug_str:000000000003ed79 .LASF1751
     /tmp/cciiZT4Y.s:99198  .debug_str:000000000002b5fd .LASF1752
     /tmp/cciiZT4Y.s:101410  .debug_str:00000000000344f7 .LASF1753
     /tmp/cciiZT4Y.s:105628  .debug_str:0000000000045abb .LASF1754
     /tmp/cciiZT4Y.s:96270  .debug_str:000000000001f77b .LASF1755
     /tmp/cciiZT4Y.s:97306  .debug_str:0000000000023e09 .LASF1756
     /tmp/cciiZT4Y.s:99362  .debug_str:000000000002c006 .LASF1757
     /tmp/cciiZT4Y.s:104962  .debug_str:0000000000042ed4 .LASF1758
     /tmp/cciiZT4Y.s:104398  .debug_str:000000000004038d .LASF1759
     /tmp/cciiZT4Y.s:101248  .debug_str:0000000000033a57 .LASF1760
     /tmp/cciiZT4Y.s:95386  .debug_str:000000000001b8ea .LASF1761
     /tmp/cciiZT4Y.s:93916  .debug_str:000000000001569c .LASF1762
     /tmp/cciiZT4Y.s:106318  .debug_str:00000000000487f6 .LASF1763
     /tmp/cciiZT4Y.s:107864  .debug_str:000000000004f19f .LASF1764
     /tmp/cciiZT4Y.s:94390  .debug_str:00000000000175d3 .LASF1765
     /tmp/cciiZT4Y.s:101670  .debug_str:00000000000356f1 .LASF1766
     /tmp/cciiZT4Y.s:105430  .debug_str:0000000000044db7 .LASF1767
     /tmp/cciiZT4Y.s:94580  .debug_str:00000000000182a8 .LASF1768
     /tmp/cciiZT4Y.s:90222  .debug_str:0000000000006a18 .LASF1769
     /tmp/cciiZT4Y.s:89804  .debug_str:0000000000004ed5 .LASF1770
     /tmp/cciiZT4Y.s:94384  .debug_str:0000000000017575 .LASF1771
     /tmp/cciiZT4Y.s:104456  .debug_str:00000000000407e2 .LASF1772
     /tmp/cciiZT4Y.s:107318  .debug_str:000000000004cbdd .LASF1773
     /tmp/cciiZT4Y.s:99806  .debug_str:000000000002daf4 .LASF1774
     /tmp/cciiZT4Y.s:97352  .debug_str:0000000000024103 .LASF1775
     /tmp/cciiZT4Y.s:96668  .debug_str:00000000000212fa .LASF1776
     /tmp/cciiZT4Y.s:99532  .debug_str:000000000002c988 .LASF1777
     /tmp/cciiZT4Y.s:96024  .debug_str:000000000001e638 .LASF1778
     /tmp/cciiZT4Y.s:95422  .debug_str:000000000001bb8f .LASF1779
     /tmp/cciiZT4Y.s:91176  .debug_str:000000000000aab3 .LASF1780
     /tmp/cciiZT4Y.s:105050  .debug_str:00000000000434ad .LASF1781
     /tmp/cciiZT4Y.s:105908  .debug_str:0000000000046cbd .LASF1782
     /tmp/cciiZT4Y.s:95676  .debug_str:000000000001cde8 .LASF1783
     /tmp/cciiZT4Y.s:95058  .debug_str:000000000001a218 .LASF1784
     /tmp/cciiZT4Y.s:105148  .debug_str:0000000000043b74 .LASF1785
     /tmp/cciiZT4Y.s:91510  .debug_str:000000000000c2ad .LASF1786
     /tmp/cciiZT4Y.s:104318  .debug_str:000000000003fecc .LASF1787
     /tmp/cciiZT4Y.s:97210  .debug_str:00000000000237b0 .LASF1788
     /tmp/cciiZT4Y.s:99596  .debug_str:000000000002cdfd .LASF1789
     /tmp/cciiZT4Y.s:105806  .debug_str:00000000000465e5 .LASF1790
     /tmp/cciiZT4Y.s:90642  .debug_str:00000000000086f8 .LASF1791
     /tmp/cciiZT4Y.s:98040  .debug_str:00000000000269ff .LASF1792
     /tmp/cciiZT4Y.s:102794  .debug_str:0000000000039bc2 .LASF1793
     /tmp/cciiZT4Y.s:104118  .debug_str:000000000003f26b .LASF1794
     /tmp/cciiZT4Y.s:93912  .debug_str:0000000000015669 .LASF1795
     /tmp/cciiZT4Y.s:95336  .debug_str:000000000001b5a8 .LASF1796
     /tmp/cciiZT4Y.s:105766  .debug_str:000000000004636b .LASF1797
     /tmp/cciiZT4Y.s:94250  .debug_str:0000000000016cbc .LASF1798
     /tmp/cciiZT4Y.s:106638  .debug_str:0000000000049cdb .LASF1799
     /tmp/cciiZT4Y.s:91108  .debug_str:000000000000a671 .LASF1800
     /tmp/cciiZT4Y.s:101010  .debug_str:0000000000032a79 .LASF1801
     /tmp/cciiZT4Y.s:96800  .debug_str:0000000000021c6e .LASF1802
     /tmp/cciiZT4Y.s:106546  .debug_str:00000000000496a9 .LASF1803
     /tmp/cciiZT4Y.s:107118  .debug_str:000000000004bded .LASF1804
     /tmp/cciiZT4Y.s:106008  .debug_str:000000000004738a .LASF1805
     /tmp/cciiZT4Y.s:97936  .debug_str:0000000000026316 .LASF1806
     /tmp/cciiZT4Y.s:97200  .debug_str:0000000000023706 .LASF1807
     /tmp/cciiZT4Y.s:91048  .debug_str:000000000000a2ac .LASF1808
     /tmp/cciiZT4Y.s:107830  .debug_str:000000000004efa3 .LASF1809
     /tmp/cciiZT4Y.s:99336  .debug_str:000000000002be3b .LASF1810
     /tmp/cciiZT4Y.s:93430  .debug_str:0000000000013916 .LASF1811
     /tmp/cciiZT4Y.s:100528  .debug_str:0000000000030b03 .LASF1812
     /tmp/cciiZT4Y.s:104034  .debug_str:000000000003ed2a .LASF1813
     /tmp/cciiZT4Y.s:89494  .debug_str:000000000000389f .LASF1814
     /tmp/cciiZT4Y.s:98306  .debug_str:0000000000027b23 .LASF1815
     /tmp/cciiZT4Y.s:100858  .debug_str:0000000000031f86 .LASF1816
     /tmp/cciiZT4Y.s:100506  .debug_str:000000000003099d .LASF1817
     /tmp/cciiZT4Y.s:91662  .debug_str:000000000000cd5d .LASF1818
     /tmp/cciiZT4Y.s:90410  .debug_str:0000000000007793 .LASF1819
     /tmp/cciiZT4Y.s:97052  .debug_str:0000000000022c7d .LASF1820
     /tmp/cciiZT4Y.s:101154  .debug_str:00000000000333e2 .LASF1821
     /tmp/cciiZT4Y.s:107424  .debug_str:000000000004d2b1 .LASF1822
     /tmp/cciiZT4Y.s:91810  .debug_str:000000000000d74d .LASF1823
     /tmp/cciiZT4Y.s:99032  .debug_str:000000000002aaea .LASF1824
     /tmp/cciiZT4Y.s:99512  .debug_str:000000000002c875 .LASF1825
     /tmp/cciiZT4Y.s:88782  .debug_str:0000000000000824 .LASF1826
     /tmp/cciiZT4Y.s:106484  .debug_str:000000000004933b .LASF1827
     /tmp/cciiZT4Y.s:107494  .debug_str:000000000004d7b8 .LASF1828
     /tmp/cciiZT4Y.s:93374  .debug_str:00000000000135f3 .LASF1829
     /tmp/cciiZT4Y.s:95878  .debug_str:000000000001db54 .LASF1830
     /tmp/cciiZT4Y.s:100244  .debug_str:000000000002f858 .LASF1831
     /tmp/cciiZT4Y.s:96188  .debug_str:000000000001f099 .LASF1832
     /tmp/cciiZT4Y.s:95402  .debug_str:000000000001ba36 .LASF1833
     /tmp/cciiZT4Y.s:105684  .debug_str:0000000000045e3c .LASF1834
     /tmp/cciiZT4Y.s:90534  .debug_str:0000000000007f5b .LASF1835
     /tmp/cciiZT4Y.s:107460  .debug_str:000000000004d539 .LASF1836
     /tmp/cciiZT4Y.s:106562  .debug_str:00000000000497e4 .LASF1837
     /tmp/cciiZT4Y.s:96372  .debug_str:000000000001fe45 .LASF1838
     /tmp/cciiZT4Y.s:98850  .debug_str:0000000000029f54 .LASF1839
     /tmp/cciiZT4Y.s:101106  .debug_str:00000000000330a3 .LASF1840
     /tmp/cciiZT4Y.s:98958  .debug_str:000000000002a6d9 .LASF1841
     /tmp/cciiZT4Y.s:90986  .debug_str:0000000000009e79 .LASF1842
     /tmp/cciiZT4Y.s:104534  .debug_str:0000000000040e94 .LASF1843
     /tmp/cciiZT4Y.s:106984  .debug_str:000000000004b552 .LASF1844
     /tmp/cciiZT4Y.s:99876  .debug_str:000000000002df39 .LASF1845
     /tmp/cciiZT4Y.s:91090  .debug_str:000000000000a4da .LASF1846
     /tmp/cciiZT4Y.s:103626  .debug_str:000000000003d1e6 .LASF1847
     /tmp/cciiZT4Y.s:103882  .debug_str:000000000003e3eb .LASF1848
     /tmp/cciiZT4Y.s:102772  .debug_str:0000000000039a51 .LASF1849
     /tmp/cciiZT4Y.s:91854  .debug_str:000000000000da3d .LASF1850
     /tmp/cciiZT4Y.s:99306  .debug_str:000000000002bc52 .LASF1851
     /tmp/cciiZT4Y.s:101266  .debug_str:0000000000033ba9 .LASF1852
     /tmp/cciiZT4Y.s:88732  .debug_str:000000000000049c .LASF1853
     /tmp/cciiZT4Y.s:91262  .debug_str:000000000000b0e5 .LASF1854
     /tmp/cciiZT4Y.s:95024  .debug_str:0000000000019f9e .LASF1855
     /tmp/cciiZT4Y.s:91116  .debug_str:000000000000a6ff .LASF1856
     /tmp/cciiZT4Y.s:98114  .debug_str:0000000000026f05 .LASF1857
     /tmp/cciiZT4Y.s:104336  .debug_str:000000000003ffe3 .LASF1858
     /tmp/cciiZT4Y.s:94802  .debug_str:0000000000019049 .LASF1859
     /tmp/cciiZT4Y.s:107802  .debug_str:000000000004ede8 .LASF1860
     /tmp/cciiZT4Y.s:95398  .debug_str:000000000001b9ea .LASF1861
     /tmp/cciiZT4Y.s:101870  .debug_str:0000000000036526 .LASF1862
     /tmp/cciiZT4Y.s:106478  .debug_str:00000000000492b5 .LASF1863
     /tmp/cciiZT4Y.s:104172  .debug_str:000000000003f5bb .LASF1864
     /tmp/cciiZT4Y.s:100352  .debug_str:000000000002ff77 .LASF1865
     /tmp/cciiZT4Y.s:105338  .debug_str:0000000000044780 .LASF1866
     /tmp/cciiZT4Y.s:104782  .debug_str:00000000000422dc .LASF1867
     /tmp/cciiZT4Y.s:98074  .debug_str:0000000000026c18 .LASF1868
     /tmp/cciiZT4Y.s:90560  .debug_str:000000000000811d .LASF1869
     /tmp/cciiZT4Y.s:99096  .debug_str:000000000002af34 .LASF1870
     /tmp/cciiZT4Y.s:98652  .debug_str:0000000000029315 .LASF1871
     /tmp/cciiZT4Y.s:93546  .debug_str:0000000000014008 .LASF1872
     /tmp/cciiZT4Y.s:100672  .debug_str:00000000000313e7 .LASF1873
     /tmp/cciiZT4Y.s:94356  .debug_str:000000000001736d .LASF1874
     /tmp/cciiZT4Y.s:99316  .debug_str:000000000002bcc9 .LASF1875
     /tmp/cciiZT4Y.s:90854  .debug_str:0000000000009557 .LASF1876
     /tmp/cciiZT4Y.s:105902  .debug_str:0000000000046c5e .LASF1877
     /tmp/cciiZT4Y.s:100338  .debug_str:000000000002fe56 .LASF1878
     /tmp/cciiZT4Y.s:89918  .debug_str:000000000000559d .LASF1879
     /tmp/cciiZT4Y.s:96432  .debug_str:00000000000202f5 .LASF1880
     /tmp/cciiZT4Y.s:89614  .debug_str:0000000000004147 .LASF1881
     /tmp/cciiZT4Y.s:94264  .debug_str:0000000000016d71 .LASF1882
     /tmp/cciiZT4Y.s:90794  .debug_str:000000000000916a .LASF1883
     /tmp/cciiZT4Y.s:100382  .debug_str:0000000000030111 .LASF1884
     /tmp/cciiZT4Y.s:101674  .debug_str:0000000000035748 .LASF1885
     /tmp/cciiZT4Y.s:98118  .debug_str:0000000000026f41 .LASF1886
     /tmp/cciiZT4Y.s:98296  .debug_str:0000000000027a6d .LASF1887
     /tmp/cciiZT4Y.s:93214  .debug_str:0000000000012a02 .LASF1888
     /tmp/cciiZT4Y.s:102438  .debug_str:000000000003892b .LASF1889
     /tmp/cciiZT4Y.s:92266  .debug_str:000000000000f027 .LASF1890
     /tmp/cciiZT4Y.s:89506  .debug_str:0000000000003973 .LASF1891
     /tmp/cciiZT4Y.s:107682  .debug_str:000000000004e61e .LASF1892
     /tmp/cciiZT4Y.s:99788  .debug_str:000000000002d965 .LASF1893
     /tmp/cciiZT4Y.s:102402  .debug_str:000000000003869b .LASF1894
     /tmp/cciiZT4Y.s:107412  .debug_str:000000000004d1e2 .LASF1895
     /tmp/cciiZT4Y.s:96614  .debug_str:0000000000020f3b .LASF1896
     /tmp/cciiZT4Y.s:96740  .debug_str:0000000000021806 .LASF1897
     /tmp/cciiZT4Y.s:97176  .debug_str:00000000000234bb .LASF1898
     /tmp/cciiZT4Y.s:99890  .debug_str:000000000002e044 .LASF1899
     /tmp/cciiZT4Y.s:101906  .debug_str:0000000000036799 .LASF1900
     /tmp/cciiZT4Y.s:101588  .debug_str:00000000000350ec .LASF1901
     /tmp/cciiZT4Y.s:91430  .debug_str:000000000000bd8d .LASF1902
     /tmp/cciiZT4Y.s:93098  .debug_str:00000000000122da .LASF1903
     /tmp/cciiZT4Y.s:105914  .debug_str:0000000000046d28 .LASF1904
     /tmp/cciiZT4Y.s:91836  .debug_str:000000000000d902 .LASF1905
     /tmp/cciiZT4Y.s:103922  .debug_str:000000000003e698 .LASF1906
     /tmp/cciiZT4Y.s:89290  .debug_str:0000000000002ba2 .LASF1907
     /tmp/cciiZT4Y.s:100852  .debug_str:0000000000031f0f .LASF1908
     /tmp/cciiZT4Y.s:103000  .debug_str:000000000003a820 .LASF1909
     /tmp/cciiZT4Y.s:104478  .debug_str:00000000000409a3 .LASF1910
     /tmp/cciiZT4Y.s:94880  .debug_str:0000000000019635 .LASF1911
     /tmp/cciiZT4Y.s:89854  .debug_str:00000000000051d8 .LASF1912
     /tmp/cciiZT4Y.s:100614  .debug_str:000000000003101a .LASF1913
     /tmp/cciiZT4Y.s:93720  .debug_str:0000000000014b1a .LASF1914
     /tmp/cciiZT4Y.s:100518  .debug_str:0000000000030a2c .LASF1915
     /tmp/cciiZT4Y.s:91826  .debug_str:000000000000d84a .LASF1916
     /tmp/cciiZT4Y.s:97374  .debug_str:00000000000242c2 .LASF1917
     /tmp/cciiZT4Y.s:100492  .debug_str:00000000000308be .LASF1918
     /tmp/cciiZT4Y.s:107128  .debug_str:000000000004beaf .LASF1919
     /tmp/cciiZT4Y.s:89160  .debug_str:0000000000002319 .LASF1920
     /tmp/cciiZT4Y.s:95610  .debug_str:000000000001c922 .LASF1921
     /tmp/cciiZT4Y.s:91970  .debug_str:000000000000e078 .LASF1922
     /tmp/cciiZT4Y.s:102974  .debug_str:000000000003a624 .LASF1923
     /tmp/cciiZT4Y.s:100526  .debug_str:0000000000030ad9 .LASF1924
     /tmp/cciiZT4Y.s:95528  .debug_str:000000000001c290 .LASF1925
     /tmp/cciiZT4Y.s:98956  .debug_str:000000000002a6b3 .LASF1926
     /tmp/cciiZT4Y.s:105694  .debug_str:0000000000045f2b .LASF1927
     /tmp/cciiZT4Y.s:90842  .debug_str:0000000000009488 .LASF1928
     /tmp/cciiZT4Y.s:103776  .debug_str:000000000003dcab .LASF1929
     /tmp/cciiZT4Y.s:97254  .debug_str:0000000000023a8f .LASF1930
     /tmp/cciiZT4Y.s:100652  .debug_str:000000000003127b .LASF1931
     /tmp/cciiZT4Y.s:91026  .debug_str:000000000000a0e5 .LASF1932
     /tmp/cciiZT4Y.s:94538  .debug_str:0000000000018003 .LASF1933
     /tmp/cciiZT4Y.s:96294  .debug_str:000000000001f90b .LASF1934
     /tmp/cciiZT4Y.s:99864  .debug_str:000000000002de90 .LASF1935
     /tmp/cciiZT4Y.s:92378  .debug_str:000000000000f7bc .LASF1936
     /tmp/cciiZT4Y.s:95976  .debug_str:000000000001e28d .LASF1937
     /tmp/cciiZT4Y.s:92614  .debug_str:00000000000104ef .LASF1938
     /tmp/cciiZT4Y.s:98092  .debug_str:0000000000026d79 .LASF1939
     /tmp/cciiZT4Y.s:92876  .debug_str:0000000000011429 .LASF1940
     /tmp/cciiZT4Y.s:104800  .debug_str:0000000000042478 .LASF1941
     /tmp/cciiZT4Y.s:106010  .debug_str:00000000000473ab .LASF1942
     /tmp/cciiZT4Y.s:90138  .debug_str:0000000000006441 .LASF1943
     /tmp/cciiZT4Y.s:92414  .debug_str:000000000000f8ec .LASF1944
     /tmp/cciiZT4Y.s:100576  .debug_str:0000000000030dfd .LASF1945
     /tmp/cciiZT4Y.s:104244  .debug_str:000000000003faae .LASF1946
     /tmp/cciiZT4Y.s:97530  .debug_str:0000000000024cde .LASF1947
     /tmp/cciiZT4Y.s:104146  .debug_str:000000000003f428 .LASF1948
     /tmp/cciiZT4Y.s:90088  .debug_str:0000000000006107 .LASF1949
     /tmp/cciiZT4Y.s:95434  .debug_str:000000000001bc82 .LASF1950
     /tmp/cciiZT4Y.s:106930  .debug_str:000000000004b12e .LASF1951
     /tmp/cciiZT4Y.s:99254  .debug_str:000000000002b99e .LASF1952
     /tmp/cciiZT4Y.s:95460  .debug_str:000000000001be3f .LASF1953
     /tmp/cciiZT4Y.s:97266  .debug_str:0000000000023b66 .LASF1954
     /tmp/cciiZT4Y.s:89886  .debug_str:0000000000005393 .LASF1955
     /tmp/cciiZT4Y.s:96658  .debug_str:000000000002123d .LASF1956
     /tmp/cciiZT4Y.s:93000  .debug_str:0000000000011bdd .LASF1957
     /tmp/cciiZT4Y.s:89086  .debug_str:0000000000001d87 .LASF1958
     /tmp/cciiZT4Y.s:95376  .debug_str:000000000001b84a .LASF1959
     /tmp/cciiZT4Y.s:105066  .debug_str:000000000004360b .LASF1960
     /tmp/cciiZT4Y.s:98482  .debug_str:00000000000286b8 .LASF1961
     /tmp/cciiZT4Y.s:96120  .debug_str:000000000001ec92 .LASF1962
     /tmp/cciiZT4Y.s:101190  .debug_str:000000000003365c .LASF1963
     /tmp/cciiZT4Y.s:89214  .debug_str:00000000000026a7 .LASF1964
     /tmp/cciiZT4Y.s:95070  .debug_str:000000000001a318 .LASF1965
     /tmp/cciiZT4Y.s:104362  .debug_str:000000000004018e .LASF1966
     /tmp/cciiZT4Y.s:105992  .debug_str:0000000000047231 .LASF1967
     /tmp/cciiZT4Y.s:90576  .debug_str:0000000000008213 .LASF1968
     /tmp/cciiZT4Y.s:94846  .debug_str:000000000001934d .LASF1969
     /tmp/cciiZT4Y.s:103202  .debug_str:000000000003b69f .LASF1970
     /tmp/cciiZT4Y.s:106164  .debug_str:0000000000047e4d .LASF1971
     /tmp/cciiZT4Y.s:101040  .debug_str:0000000000032cd4 .LASF1972
     /tmp/cciiZT4Y.s:106650  .debug_str:0000000000049dbe .LASF1973
     /tmp/cciiZT4Y.s:96908  .debug_str:00000000000223a4 .LASF1974
     /tmp/cciiZT4Y.s:101322  .debug_str:0000000000033f52 .LASF1975
     /tmp/cciiZT4Y.s:90436  .debug_str:0000000000007985 .LASF1976
     /tmp/cciiZT4Y.s:106566  .debug_str:000000000004981f .LASF1977
     /tmp/cciiZT4Y.s:94774  .debug_str:0000000000018e9a .LASF1978
     /tmp/cciiZT4Y.s:102320  .debug_str:00000000000381fa .LASF1979
     /tmp/cciiZT4Y.s:105728  .debug_str:0000000000046149 .LASF1980
     /tmp/cciiZT4Y.s:96356  .debug_str:000000000001fcf6 .LASF1981
     /tmp/cciiZT4Y.s:98556  .debug_str:0000000000028c17 .LASF1982
     /tmp/cciiZT4Y.s:94500  .debug_str:0000000000017e1f .LASF1983
     /tmp/cciiZT4Y.s:89696  .debug_str:0000000000004700 .LASF1984
     /tmp/cciiZT4Y.s:97650  .debug_str:00000000000253c9 .LASF1985
     /tmp/cciiZT4Y.s:89650  .debug_str:0000000000004422 .LASF1986
     /tmp/cciiZT4Y.s:104072  .debug_str:000000000003ef8d .LASF1987
     /tmp/cciiZT4Y.s:90736  .debug_str:0000000000008d0e .LASF1988
     /tmp/cciiZT4Y.s:106776  .debug_str:000000000004a5e1 .LASF1989
     /tmp/cciiZT4Y.s:101514  .debug_str:0000000000034c8d .LASF1990
     /tmp/cciiZT4Y.s:107150  .debug_str:000000000004c009 .LASF1991
     /tmp/cciiZT4Y.s:97110  .debug_str:000000000002302c .LASF1992
     /tmp/cciiZT4Y.s:95206  .debug_str:000000000001ad4f .LASF1993
     /tmp/cciiZT4Y.s:107640  .debug_str:000000000004e2cc .LASF1994
     /tmp/cciiZT4Y.s:92304  .debug_str:000000000000f308 .LASF1995
     /tmp/cciiZT4Y.s:104080  .debug_str:000000000003f030 .LASF1996
     /tmp/cciiZT4Y.s:104828  .debug_str:0000000000042644 .LASF1997
     /tmp/cciiZT4Y.s:106172  .debug_str:0000000000047eaf .LASF1998
     /tmp/cciiZT4Y.s:97804  .debug_str:0000000000025c17 .LASF1999
     /tmp/cciiZT4Y.s:99320  .debug_str:000000000002bd01 .LASF2000
     /tmp/cciiZT4Y.s:105800  .debug_str:0000000000046577 .LASF2001
     /tmp/cciiZT4Y.s:88674  .debug_str:0000000000000080 .LASF2002
     /tmp/cciiZT4Y.s:97022  .debug_str:0000000000022a99 .LASF2003
     /tmp/cciiZT4Y.s:99142  .debug_str:000000000002b21a .LASF2004
     /tmp/cciiZT4Y.s:93716  .debug_str:0000000000014ad7 .LASF2005
     /tmp/cciiZT4Y.s:89980  .debug_str:0000000000005a1b .LASF2006
     /tmp/cciiZT4Y.s:103702  .debug_str:000000000003d6d3 .LASF2007
     /tmp/cciiZT4Y.s:98202  .debug_str:00000000000273ac .LASF2008
     /tmp/cciiZT4Y.s:91364  .debug_str:000000000000b85c .LASF2009
     /tmp/cciiZT4Y.s:99234  .debug_str:000000000002b868 .LASF2010
     /tmp/cciiZT4Y.s:100008  .debug_str:000000000002e843 .LASF2011
     /tmp/cciiZT4Y.s:90084  .debug_str:0000000000006097 .LASF2012
     /tmp/cciiZT4Y.s:94464  .debug_str:0000000000017b78 .LASF2013
     /tmp/cciiZT4Y.s:91266  .debug_str:000000000000b143 .LASF2014
     /tmp/cciiZT4Y.s:105010  .debug_str:000000000004323d .LASF2015
     /tmp/cciiZT4Y.s:103144  .debug_str:000000000003b1f0 .LASF2016
     /tmp/cciiZT4Y.s:97262  .debug_str:0000000000023b2a .LASF2017
     /tmp/cciiZT4Y.s:95940  .debug_str:000000000001dfd6 .LASF2018
     /tmp/cciiZT4Y.s:107264  .debug_str:000000000004c7c8 .LASF2019
     /tmp/cciiZT4Y.s:107430  .debug_str:000000000004d2f7 .LASF2020
     /tmp/cciiZT4Y.s:97414  .debug_str:0000000000024582 .LASF2021
     /tmp/cciiZT4Y.s:92972  .debug_str:00000000000119d2 .LASF2022
     /tmp/cciiZT4Y.s:102432  .debug_str:00000000000388af .LASF2023
     /tmp/cciiZT4Y.s:96390  .debug_str:0000000000020002 .LASF2024
     /tmp/cciiZT4Y.s:103318  .debug_str:000000000003be07 .LASF2025
     /tmp/cciiZT4Y.s:95840  .debug_str:000000000001d87e .LASF2026
     /tmp/cciiZT4Y.s:92996  .debug_str:0000000000011b86 .LASF2027
     /tmp/cciiZT4Y.s:90172  .debug_str:000000000000668b .LASF2028
     /tmp/cciiZT4Y.s:100644  .debug_str:000000000003120f .LASF2029
     /tmp/cciiZT4Y.s:93850  .debug_str:00000000000152a1 .LASF2030
     /tmp/cciiZT4Y.s:107220  .debug_str:000000000004c496 .LASF2031
     /tmp/cciiZT4Y.s:95892  .debug_str:000000000001dcb0 .LASF2032
     /tmp/cciiZT4Y.s:92796  .debug_str:0000000000010f84 .LASF2033
     /tmp/cciiZT4Y.s:105496  .debug_str:00000000000451c6 .LASF2034
     /tmp/cciiZT4Y.s:99624  .debug_str:000000000002cf93 .LASF2035
     /tmp/cciiZT4Y.s:100590  .debug_str:0000000000030edf .LASF2036
     /tmp/cciiZT4Y.s:89554  .debug_str:0000000000003cd3 .LASF2037
     /tmp/cciiZT4Y.s:89318  .debug_str:0000000000002d66 .LASF2038
     /tmp/cciiZT4Y.s:91214  .debug_str:000000000000adae .LASF2039
     /tmp/cciiZT4Y.s:103964  .debug_str:000000000003e954 .LASF2040
     /tmp/cciiZT4Y.s:92592  .debug_str:00000000000103ad .LASF2041
     /tmp/cciiZT4Y.s:91360  .debug_str:000000000000b825 .LASF2042
     /tmp/cciiZT4Y.s:104186  .debug_str:000000000003f6da .LASF2043
     /tmp/cciiZT4Y.s:88842  .debug_str:0000000000000c1f .LASF2044
     /tmp/cciiZT4Y.s:92158  .debug_str:000000000000ead0 .LASF2045
     /tmp/cciiZT4Y.s:89170  .debug_str:00000000000023cb .LASF2046
     /tmp/cciiZT4Y.s:96104  .debug_str:000000000001eb44 .LASF2047
     /tmp/cciiZT4Y.s:103830  .debug_str:000000000003e094 .LASF2048
     /tmp/cciiZT4Y.s:105608  .debug_str:0000000000045981 .LASF2049
     /tmp/cciiZT4Y.s:103068  .debug_str:000000000003acde .LASF2050
     /tmp/cciiZT4Y.s:106854  .debug_str:000000000004ab6c .LASF2051
     /tmp/cciiZT4Y.s:98184  .debug_str:00000000000272d2 .LASF2052
     /tmp/cciiZT4Y.s:95854  .debug_str:000000000001d964 .LASF2053
     /tmp/cciiZT4Y.s:89916  .debug_str:0000000000005582 .LASF2054
     /tmp/cciiZT4Y.s:104474  .debug_str:0000000000040943 .LASF2055
     /tmp/cciiZT4Y.s:104602  .debug_str:0000000000041410 .LASF2056
     /tmp/cciiZT4Y.s:94550  .debug_str:00000000000180d7 .LASF2057
     /tmp/cciiZT4Y.s:107112  .debug_str:000000000004bdc2 .LASF2058
     /tmp/cciiZT4Y.s:93510  .debug_str:0000000000013e16 .LASF2059
     /tmp/cciiZT4Y.s:102430  .debug_str:0000000000038894 .LASF2060
     /tmp/cciiZT4Y.s:107912  .debug_str:000000000004f4ce .LASF2061
     /tmp/cciiZT4Y.s:105422  .debug_str:0000000000044d38 .LASF2062
     /tmp/cciiZT4Y.s:107330  .debug_str:000000000004ccc4 .LASF2063
     /tmp/cciiZT4Y.s:96656  .debug_str:0000000000021215 .LASF2064
     /tmp/cciiZT4Y.s:94786  .debug_str:0000000000018f82 .LASF2065
     /tmp/cciiZT4Y.s:106088  .debug_str:00000000000478d7 .LASF2066
     /tmp/cciiZT4Y.s:95842  .debug_str:000000000001d8a7 .LASF2067
     /tmp/cciiZT4Y.s:106606  .debug_str:0000000000049b36 .LASF2068
     /tmp/cciiZT4Y.s:90956  .debug_str:0000000000009cb7 .LASF2069
     /tmp/cciiZT4Y.s:96714  .debug_str:0000000000021622 .LASF2070
     /tmp/cciiZT4Y.s:97950  .debug_str:00000000000263fe .LASF2071
     /tmp/cciiZT4Y.s:98088  .debug_str:0000000000026d14 .LASF2072
     /tmp/cciiZT4Y.s:93176  .debug_str:000000000001275d .LASF2073
     /tmp/cciiZT4Y.s:107556  .debug_str:000000000004dd12 .LASF2074
     /tmp/cciiZT4Y.s:102216  .debug_str:0000000000037b3f .LASF2075
     /tmp/cciiZT4Y.s:91926  .debug_str:000000000000ddbb .LASF2076
     /tmp/cciiZT4Y.s:90820  .debug_str:00000000000092b1 .LASF2077
     /tmp/cciiZT4Y.s:101742  .debug_str:0000000000035c70 .LASF2078
     /tmp/cciiZT4Y.s:104786  .debug_str:0000000000042322 .LASF2079
     /tmp/cciiZT4Y.s:102802  .debug_str:0000000000039bf2 .LASF2080
     /tmp/cciiZT4Y.s:100124  .debug_str:000000000002efae .LASF2081
     /tmp/cciiZT4Y.s:92928  .debug_str:00000000000116cd .LASF2082
     /tmp/cciiZT4Y.s:96476  .debug_str:0000000000020663 .LASF2083
     /tmp/cciiZT4Y.s:100482  .debug_str:00000000000307de .LASF2084
     /tmp/cciiZT4Y.s:96634  .debug_str:0000000000021083 .LASF2085
     /tmp/cciiZT4Y.s:90408  .debug_str:000000000000776a .LASF2086
     /tmp/cciiZT4Y.s:94386  .debug_str:000000000001759f .LASF2087
     /tmp/cciiZT4Y.s:101468  .debug_str:000000000003486a .LASF2088
     /tmp/cciiZT4Y.s:89426  .debug_str:00000000000034c6 .LASF2089
     /tmp/cciiZT4Y.s:103818  .debug_str:000000000003df94 .LASF2090
     /tmp/cciiZT4Y.s:89898  .debug_str:000000000000544c .LASF2091
     /tmp/cciiZT4Y.s:90206  .debug_str:00000000000068e3 .LASF2092
     /tmp/cciiZT4Y.s:102020  .debug_str:0000000000036ed0 .LASF2093
     /tmp/cciiZT4Y.s:99132  .debug_str:000000000002b1b0 .LASF2094
     /tmp/cciiZT4Y.s:104806  .debug_str:0000000000042503 .LASF2095
     /tmp/cciiZT4Y.s:105540  .debug_str:0000000000045510 .LASF2096
     /tmp/cciiZT4Y.s:103534  .debug_str:000000000003cc78 .LASF2097
     /tmp/cciiZT4Y.s:94140  .debug_str:000000000001651d .LASF2098
     /tmp/cciiZT4Y.s:97274  .debug_str:0000000000023bc7 .LASF2099
     /tmp/cciiZT4Y.s:90050  .debug_str:0000000000005e97 .LASF2100
     /tmp/cciiZT4Y.s:107210  .debug_str:000000000004c410 .LASF2101
     /tmp/cciiZT4Y.s:95756  .debug_str:000000000001d304 .LASF2102
     /tmp/cciiZT4Y.s:100522  .debug_str:0000000000030a7f .LASF2103
     /tmp/cciiZT4Y.s:107310  .debug_str:000000000004cb55 .LASF2104
     /tmp/cciiZT4Y.s:106334  .debug_str:00000000000488ef .LASF2105
     /tmp/cciiZT4Y.s:99866  .debug_str:000000000002deb8 .LASF2106
     /tmp/cciiZT4Y.s:106342  .debug_str:0000000000048971 .LASF2107
     /tmp/cciiZT4Y.s:99584  .debug_str:000000000002cd53 .LASF2108
     /tmp/cciiZT4Y.s:103380  .debug_str:000000000003c2ce .LASF2109
     /tmp/cciiZT4Y.s:105078  .debug_str:00000000000436cd .LASF2110
     /tmp/cciiZT4Y.s:107842  .debug_str:000000000004f026 .LASF2111
     /tmp/cciiZT4Y.s:91196  .debug_str:000000000000abf7 .LASF2112
     /tmp/cciiZT4Y.s:102522  .debug_str:0000000000038dbe .LASF2113
     /tmp/cciiZT4Y.s:97372  .debug_str:0000000000024299 .LASF2114
     /tmp/cciiZT4Y.s:103168  .debug_str:000000000003b3d4 .LASF2115
     /tmp/cciiZT4Y.s:106844  .debug_str:000000000004aac1 .LASF2116
     /tmp/cciiZT4Y.s:90874  .debug_str:000000000000969b .LASF2117
     /tmp/cciiZT4Y.s:101572  .debug_str:0000000000034fc4 .LASF2118
     /tmp/cciiZT4Y.s:105448  .debug_str:0000000000044ed0 .LASF2119
     /tmp/cciiZT4Y.s:91456  .debug_str:000000000000bf27 .LASF2120
     /tmp/cciiZT4Y.s:93088  .debug_str:000000000001220e .LASF2121
     /tmp/cciiZT4Y.s:92918  .debug_str:0000000000011622 .LASF2122
     /tmp/cciiZT4Y.s:107554  .debug_str:000000000004dcf0 .LASF2123
     /tmp/cciiZT4Y.s:102484  .debug_str:0000000000038b29 .LASF2124
     /tmp/cciiZT4Y.s:90746  .debug_str:0000000000008dc1 .LASF2125
     /tmp/cciiZT4Y.s:106294  .debug_str:00000000000486a1 .LASF2126
     /tmp/cciiZT4Y.s:105474  .debug_str:0000000000045017 .LASF2127
     /tmp/cciiZT4Y.s:96358  .debug_str:000000000001fd1f .LASF2128
     /tmp/cciiZT4Y.s:103898  .debug_str:000000000003e4ca .LASF2129
     /tmp/cciiZT4Y.s:103696  .debug_str:000000000003d681 .LASF2130
     /tmp/cciiZT4Y.s:99214  .debug_str:000000000002b6e7 .LASF2131
     /tmp/cciiZT4Y.s:93728  .debug_str:0000000000014b82 .LASF2132
     /tmp/cciiZT4Y.s:91508  .debug_str:000000000000c28b .LASF2133
     /tmp/cciiZT4Y.s:95272  .debug_str:000000000001b1ba .LASF2134
     /tmp/cciiZT4Y.s:106062  .debug_str:00000000000476d3 .LASF2135
     /tmp/cciiZT4Y.s:104742  .debug_str:0000000000041fe9 .LASF2136
     /tmp/cciiZT4Y.s:89330  .debug_str:0000000000002e27 .LASF2137
     /tmp/cciiZT4Y.s:89184  .debug_str:00000000000024bd .LASF2138
     /tmp/cciiZT4Y.s:103970  .debug_str:000000000003e9e0 .LASF2139
     /tmp/cciiZT4Y.s:98724  .debug_str:00000000000296cf .LASF2140
     /tmp/cciiZT4Y.s:101542  .debug_str:0000000000034e09 .LASF2141
     /tmp/cciiZT4Y.s:104536  .debug_str:0000000000040eb3 .LASF2142
     /tmp/cciiZT4Y.s:94716  .debug_str:0000000000018af3 .LASF2143
     /tmp/cciiZT4Y.s:103402  .debug_str:000000000003c3c8 .LASF2144
     /tmp/cciiZT4Y.s:98758  .debug_str:000000000002997e .LASF2145
     /tmp/cciiZT4Y.s:98342  .debug_str:0000000000027dc8 .LASF2146
     /tmp/cciiZT4Y.s:103586  .debug_str:000000000003cf8b .LASF2147
     /tmp/cciiZT4Y.s:97190  .debug_str:0000000000023667 .LASF2148
     /tmp/cciiZT4Y.s:100024  .debug_str:000000000002e91a .LASF2149
     /tmp/cciiZT4Y.s:103852  .debug_str:000000000003e1ff .LASF2150
     /tmp/cciiZT4Y.s:94706  .debug_str:0000000000018a2e .LASF2151
     /tmp/cciiZT4Y.s:101482  .debug_str:0000000000034962 .LASF2152
     /tmp/cciiZT4Y.s:105128  .debug_str:0000000000043a22 .LASF2153
     /tmp/cciiZT4Y.s:103452  .debug_str:000000000003c773 .LASF2154
     /tmp/cciiZT4Y.s:95006  .debug_str:0000000000019ed9 .LASF2155
     /tmp/cciiZT4Y.s:101208  .debug_str:00000000000337d4 .LASF2156
     /tmp/cciiZT4Y.s:89016  .debug_str:00000000000017c7 .LASF2157
     /tmp/cciiZT4Y.s:90546  .debug_str:0000000000008022 .LASF2158
     /tmp/cciiZT4Y.s:97778  .debug_str:0000000000025a48 .LASF2159
     /tmp/cciiZT4Y.s:98328  .debug_str:0000000000027cd9 .LASF2160
     /tmp/cciiZT4Y.s:106726  .debug_str:000000000004a23f .LASF2161
     /tmp/cciiZT4Y.s:96526  .debug_str:00000000000209e1 .LASF2162
     /tmp/cciiZT4Y.s:93194  .debug_str:000000000001286a .LASF2163
     /tmp/cciiZT4Y.s:88836  .debug_str:0000000000000bba .LASF2164
     /tmp/cciiZT4Y.s:102164  .debug_str:0000000000037850 .LASF2165
     /tmp/cciiZT4Y.s:106926  .debug_str:000000000004b0e6 .LASF2166
     /tmp/cciiZT4Y.s:97004  .debug_str:0000000000022968 .LASF2167
     /tmp/cciiZT4Y.s:102702  .debug_str:00000000000396c9 .LASF2168
     /tmp/cciiZT4Y.s:107548  .debug_str:000000000004dc60 .LASF2169
     /tmp/cciiZT4Y.s:100446  .debug_str:0000000000030526 .LASF2170
     /tmp/cciiZT4Y.s:101496  .debug_str:0000000000034abe .LASF2171
     /tmp/cciiZT4Y.s:98312  .debug_str:0000000000027b8e .LASF2172
     /tmp/cciiZT4Y.s:95416  .debug_str:000000000001baf9 .LASF2173
     /tmp/cciiZT4Y.s:107342  .debug_str:000000000004cdad .LASF2174
     /tmp/cciiZT4Y.s:104842  .debug_str:0000000000042771 .LASF2175
     /tmp/cciiZT4Y.s:99616  .debug_str:000000000002ceec .LASF2176
     /tmp/cciiZT4Y.s:97892  .debug_str:000000000002605c .LASF2177
     /tmp/cciiZT4Y.s:95550  .debug_str:000000000001c46a .LASF2178
     /tmp/cciiZT4Y.s:103374  .debug_str:000000000003c258 .LASF2179
     /tmp/cciiZT4Y.s:91618  .debug_str:000000000000c9d2 .LASF2180
     /tmp/cciiZT4Y.s:90752  .debug_str:0000000000008e2f .LASF2181
     /tmp/cciiZT4Y.s:101698  .debug_str:0000000000035928 .LASF2182
     /tmp/cciiZT4Y.s:100336  .debug_str:000000000002fe29 .LASF2183
     /tmp/cciiZT4Y.s:104846  .debug_str:00000000000427ed .LASF2184
     /tmp/cciiZT4Y.s:107916  .debug_str:000000000004f52f .LASF2185
     /tmp/cciiZT4Y.s:97368  .debug_str:0000000000024247 .LASF2186
     /tmp/cciiZT4Y.s:104654  .debug_str:000000000004173f .LASF2187
     /tmp/cciiZT4Y.s:95472  .debug_str:000000000001befa .LASF2188
     /tmp/cciiZT4Y.s:92308  .debug_str:000000000000f348 .LASF2189
     /tmp/cciiZT4Y.s:98944  .debug_str:000000000002a5d5 .LASF2190
     /tmp/cciiZT4Y.s:89206  .debug_str:00000000000025de .LASF2191
     /tmp/cciiZT4Y.s:90096  .debug_str:000000000000617c .LASF2192
     /tmp/cciiZT4Y.s:89914  .debug_str:0000000000005558 .LASF2193
     /tmp/cciiZT4Y.s:100860  .debug_str:0000000000031fac .LASF2194
     /tmp/cciiZT4Y.s:97984  .debug_str:00000000000265f9 .LASF2195
     /tmp/cciiZT4Y.s:107620  .debug_str:000000000004e157 .LASF2196
     /tmp/cciiZT4Y.s:100668  .debug_str:00000000000313ba .LASF2197
     /tmp/cciiZT4Y.s:92716  .debug_str:0000000000010a9f .LASF2198
     /tmp/cciiZT4Y.s:88750  .debug_str:0000000000000636 .LASF2199
     /tmp/cciiZT4Y.s:96212  .debug_str:000000000001f2f6 .LASF2200
     /tmp/cciiZT4Y.s:95016  .debug_str:0000000000019f3c .LASF2201
     /tmp/cciiZT4Y.s:107790  .debug_str:000000000004ecdc .LASF2202
     /tmp/cciiZT4Y.s:99216  .debug_str:000000000002b708 .LASF2203
     /tmp/cciiZT4Y.s:88684  .debug_str:0000000000000127 .LASF2204
     /tmp/cciiZT4Y.s:104130  .debug_str:000000000003f343 .LASF2205
     /tmp/cciiZT4Y.s:107290  .debug_str:000000000004c996 .LASF2206
     /tmp/cciiZT4Y.s:96062  .debug_str:000000000001e857 .LASF2207
     /tmp/cciiZT4Y.s:101362  .debug_str:000000000003419f .LASF2208
     /tmp/cciiZT4Y.s:106772  .debug_str:000000000004a570 .LASF2209
     /tmp/cciiZT4Y.s:99502  .debug_str:000000000002c7dd .LASF2210
     /tmp/cciiZT4Y.s:94812  .debug_str:0000000000019133 .LASF2211
     /tmp/cciiZT4Y.s:95486  .debug_str:000000000001bfe3 .LASF2212
     /tmp/cciiZT4Y.s:103358  .debug_str:000000000003c0fc .LASF2213
     /tmp/cciiZT4Y.s:90442  .debug_str:00000000000079dc .LASF2214
     /tmp/cciiZT4Y.s:101046  .debug_str:0000000000032d3d .LASF2215
     /tmp/cciiZT4Y.s:104908  .debug_str:0000000000042b31 .LASF2216
     /tmp/cciiZT4Y.s:91448  .debug_str:000000000000bed6 .LASF2217
     /tmp/cciiZT4Y.s:90020  .debug_str:0000000000005c9c .LASF2218
     /tmp/cciiZT4Y.s:104230  .debug_str:000000000003f9b8 .LASF2219
     /tmp/cciiZT4Y.s:103404  .debug_str:000000000003c3ec .LASF2220
     /tmp/cciiZT4Y.s:100314  .debug_str:000000000002fcb5 .LASF2221
     /tmp/cciiZT4Y.s:90498  .debug_str:0000000000007d4f .LASF2222
     /tmp/cciiZT4Y.s:101892  .debug_str:00000000000366a5 .LASF2223
     /tmp/cciiZT4Y.s:105668  .debug_str:0000000000045d3c .LASF2224
     /tmp/cciiZT4Y.s:89470  .debug_str:00000000000036ca .LASF2225
     /tmp/cciiZT4Y.s:103600  .debug_str:000000000003d07c .LASF2226
     /tmp/cciiZT4Y.s:102878  .debug_str:0000000000039fe3 .LASF2227
     /tmp/cciiZT4Y.s:101558  .debug_str:0000000000034edf .LASF2228
     /tmp/cciiZT4Y.s:96664  .debug_str:00000000000212b1 .LASF2229
     /tmp/cciiZT4Y.s:102080  .debug_str:000000000003734d .LASF2230
     /tmp/cciiZT4Y.s:94122  .debug_str:00000000000163aa .LASF2231
     /tmp/cciiZT4Y.s:94194  .debug_str:00000000000168d3 .LASF2232
     /tmp/cciiZT4Y.s:105142  .debug_str:0000000000043b04 .LASF2233
     /tmp/cciiZT4Y.s:90344  .debug_str:000000000000736f .LASF2234
     /tmp/cciiZT4Y.s:93326  .debug_str:0000000000013202 .LASF2235
     /tmp/cciiZT4Y.s:89734  .debug_str:00000000000049ad .LASF2236
     /tmp/cciiZT4Y.s:99778  .debug_str:000000000002d8bd .LASF2237
     /tmp/cciiZT4Y.s:95132  .debug_str:000000000001a78c .LASF2238
     /tmp/cciiZT4Y.s:105508  .debug_str:0000000000045287 .LASF2239
     /tmp/cciiZT4Y.s:101888  .debug_str:000000000003667d .LASF2240
     /tmp/cciiZT4Y.s:90682  .debug_str:00000000000089c0 .LASF2241
     /tmp/cciiZT4Y.s:98042  .debug_str:0000000000026a25 .LASF2242
     /tmp/cciiZT4Y.s:93060  .debug_str:0000000000011fdb .LASF2243
     /tmp/cciiZT4Y.s:90778  .debug_str:0000000000009034 .LASF2244
     /tmp/cciiZT4Y.s:104264  .debug_str:000000000003fbc4 .LASF2245
     /tmp/cciiZT4Y.s:95744  .debug_str:000000000001d238 .LASF2246
     /tmp/cciiZT4Y.s:96038  .debug_str:000000000001e6e8 .LASF2247
     /tmp/cciiZT4Y.s:106186  .debug_str:0000000000047f88 .LASF2248
     /tmp/cciiZT4Y.s:96632  .debug_str:000000000002105f .LASF2249
     /tmp/cciiZT4Y.s:88698  .debug_str:0000000000000250 .LASF2250
     /tmp/cciiZT4Y.s:105122  .debug_str:00000000000439bb .LASF2251
     /tmp/cciiZT4Y.s:104544  .debug_str:0000000000040f3c .LASF2252
     /tmp/cciiZT4Y.s:95168  .debug_str:000000000001aa6c .LASF2253
     /tmp/cciiZT4Y.s:96250  .debug_str:000000000001f5d8 .LASF2254
     /tmp/cciiZT4Y.s:97276  .debug_str:0000000000023bef .LASF2255
     /tmp/cciiZT4Y.s:97288  .debug_str:0000000000023cbd .LASF2256
     /tmp/cciiZT4Y.s:98374  .debug_str:0000000000027fc1 .LASF2257
     /tmp/cciiZT4Y.s:100200  .debug_str:000000000002f56a .LASF2258
     /tmp/cciiZT4Y.s:91518  .debug_str:000000000000c308 .LASF2259
     /tmp/cciiZT4Y.s:98728  .debug_str:0000000000029725 .LASF2260
     /tmp/cciiZT4Y.s:93790  .debug_str:0000000000014ea3 .LASF2261
     /tmp/cciiZT4Y.s:99838  .debug_str:000000000002dcd4 .LASF2262
     /tmp/cciiZT4Y.s:97442  .debug_str:00000000000247a8 .LASF2263
     /tmp/cciiZT4Y.s:107394  .debug_str:000000000004d0e2 .LASF2264
     /tmp/cciiZT4Y.s:99690  .debug_str:000000000002d37c .LASF2265
     /tmp/cciiZT4Y.s:106406  .debug_str:0000000000048dcd .LASF2266
     /tmp/cciiZT4Y.s:103892  .debug_str:000000000003e466 .LASF2267
     /tmp/cciiZT4Y.s:94242  .debug_str:0000000000016c4d .LASF2268
     /tmp/cciiZT4Y.s:91110  .debug_str:000000000000a698 .LASF2269
     /tmp/cciiZT4Y.s:90240  .debug_str:0000000000006b99 .LASF2270
     /tmp/cciiZT4Y.s:97344  .debug_str:000000000002405a .LASF2271
     /tmp/cciiZT4Y.s:105848  .debug_str:0000000000046867 .LASF2272
     /tmp/cciiZT4Y.s:103738  .debug_str:000000000003d99c .LASF2273
     /tmp/cciiZT4Y.s:101900  .debug_str:000000000003670e .LASF2274
     /tmp/cciiZT4Y.s:90500  .debug_str:0000000000007d7b .LASF2275
     /tmp/cciiZT4Y.s:101092  .debug_str:0000000000032fd6 .LASF2276
     /tmp/cciiZT4Y.s:96772  .debug_str:0000000000021a40 .LASF2277
     /tmp/cciiZT4Y.s:104152  .debug_str:000000000003f488 .LASF2278
     /tmp/cciiZT4Y.s:95076  .debug_str:000000000001a387 .LASF2279
     /tmp/cciiZT4Y.s:97944  .debug_str:000000000002639f .LASF2280
     /tmp/cciiZT4Y.s:93578  .debug_str:0000000000014204 .LASF2281
     /tmp/cciiZT4Y.s:107026  .debug_str:000000000004b7b1 .LASF2282
     /tmp/cciiZT4Y.s:92782  .debug_str:0000000000010e5d .LASF2283
     /tmp/cciiZT4Y.s:106804  .debug_str:000000000004a80e .LASF2284
     /tmp/cciiZT4Y.s:91422  .debug_str:000000000000bce9 .LASF2285
     /tmp/cciiZT4Y.s:98690  .debug_str:0000000000029581 .LASF2286
     /tmp/cciiZT4Y.s:89996  .debug_str:0000000000005b12 .LASF2287
     /tmp/cciiZT4Y.s:88928  .debug_str:00000000000011bb .LASF2288
     /tmp/cciiZT4Y.s:91812  .debug_str:000000000000d76b .LASF2289
     /tmp/cciiZT4Y.s:95088  .debug_str:000000000001a44d .LASF2290
     /tmp/cciiZT4Y.s:107496  .debug_str:000000000004d7de .LASF2291
     /tmp/cciiZT4Y.s:93272  .debug_str:0000000000012e3b .LASF2292
     /tmp/cciiZT4Y.s:103414  .debug_str:000000000003c4cd .LASF2293
     /tmp/cciiZT4Y.s:107596  .debug_str:000000000004dfdb .LASF2294
     /tmp/cciiZT4Y.s:99766  .debug_str:000000000002d803 .LASF2295
     /tmp/cciiZT4Y.s:94430  .debug_str:0000000000017903 .LASF2296
     /tmp/cciiZT4Y.s:95700  .debug_str:000000000001cfb7 .LASF2297
     /tmp/cciiZT4Y.s:100674  .debug_str:0000000000031412 .LASF2298
     /tmp/cciiZT4Y.s:105532  .debug_str:0000000000045407 .LASF2299
     /tmp/cciiZT4Y.s:108066  .debug_str:000000000004ff55 .LASF2300
     /tmp/cciiZT4Y.s:99364  .debug_str:000000000002c02e .LASF2301
     /tmp/cciiZT4Y.s:106052  .debug_str:0000000000047647 .LASF2302
     /tmp/cciiZT4Y.s:93054  .debug_str:0000000000011f78 .LASF2303
     /tmp/cciiZT4Y.s:105320  .debug_str:000000000004466c .LASF2304
     /tmp/cciiZT4Y.s:106232  .debug_str:0000000000048275 .LASF2305
     /tmp/cciiZT4Y.s:106344  .debug_str:0000000000048990 .LASF2306
     /tmp/cciiZT4Y.s:100098  .debug_str:000000000002ee7b .LASF2307
     /tmp/cciiZT4Y.s:102602  .debug_str:0000000000039186 .LASF2308
     /tmp/cciiZT4Y.s:92192  .debug_str:000000000000ed46 .LASF2309
     /tmp/cciiZT4Y.s:91830  .debug_str:000000000000d87f .LASF2310
     /tmp/cciiZT4Y.s:102044  .debug_str:0000000000037083 .LASF2311
     /tmp/cciiZT4Y.s:97118  .debug_str:00000000000230ac .LASF2312
     /tmp/cciiZT4Y.s:92250  .debug_str:000000000000ef29 .LASF2313
     /tmp/cciiZT4Y.s:101882  .debug_str:000000000003660c .LASF2314
     /tmp/cciiZT4Y.s:94498  .debug_str:0000000000017df7 .LASF2315
     /tmp/cciiZT4Y.s:107838  .debug_str:000000000004efec .LASF2316
     /tmp/cciiZT4Y.s:92322  .debug_str:000000000000f39c .LASF2317
     /tmp/cciiZT4Y.s:93776  .debug_str:0000000000014dc3 .LASF2318
     /tmp/cciiZT4Y.s:91078  .debug_str:000000000000a3d2 .LASF2319
     /tmp/cciiZT4Y.s:89258  .debug_str:000000000000295d .LASF2320
     /tmp/cciiZT4Y.s:103522  .debug_str:000000000003cb82 .LASF2321
     /tmp/cciiZT4Y.s:100002  .debug_str:000000000002e7ad .LASF2322
     /tmp/cciiZT4Y.s:94412  .debug_str:00000000000177b5 .LASF2323
     /tmp/cciiZT4Y.s:89992  .debug_str:0000000000005ae8 .LASF2324
     /tmp/cciiZT4Y.s:105000  .debug_str:0000000000043180 .LASF2325
     /tmp/cciiZT4Y.s:90196  .debug_str:0000000000006825 .LASF2326
     /tmp/cciiZT4Y.s:88958  .debug_str:00000000000013a3 .LASF2327
     /tmp/cciiZT4Y.s:104174  .debug_str:000000000003f5e4 .LASF2328
     /tmp/cciiZT4Y.s:99426  .debug_str:000000000002c412 .LASF2329
     /tmp/cciiZT4Y.s:100802  .debug_str:0000000000031c35 .LASF2330
     /tmp/cciiZT4Y.s:97392  .debug_str:00000000000243ee .LASF2331
     /tmp/cciiZT4Y.s:99750  .debug_str:000000000002d700 .LASF2332
     /tmp/cciiZT4Y.s:105476  .debug_str:0000000000045039 .LASF2333
     /tmp/cciiZT4Y.s:94026  .debug_str:0000000000015e29 .LASF2334
     /tmp/cciiZT4Y.s:107716  .debug_str:000000000004e801 .LASF2335
     /tmp/cciiZT4Y.s:93144  .debug_str:000000000001256e .LASF2336
     /tmp/cciiZT4Y.s:93966  .debug_str:00000000000159ed .LASF2337
     /tmp/cciiZT4Y.s:105844  .debug_str:000000000004683c .LASF2338
     /tmp/cciiZT4Y.s:97986  .debug_str:0000000000026625 .LASF2339
     /tmp/cciiZT4Y.s:97054  .debug_str:0000000000022ca3 .LASF2340
     /tmp/cciiZT4Y.s:89468  .debug_str:000000000000369f .LASF2341
     /tmp/cciiZT4Y.s:107670  .debug_str:000000000004e51c .LASF2342
     /tmp/cciiZT4Y.s:99964  .debug_str:000000000002e4f3 .LASF2343
     /tmp/cciiZT4Y.s:99114  .debug_str:000000000002b0b8 .LASF2344
     /tmp/cciiZT4Y.s:90738  .debug_str:0000000000008d2f .LASF2345
     /tmp/cciiZT4Y.s:107986  .debug_str:000000000004f9fb .LASF2346
     /tmp/cciiZT4Y.s:92976  .debug_str:0000000000011a27 .LASF2347
     /tmp/cciiZT4Y.s:107900  .debug_str:000000000004f3b6 .LASF2348
     /tmp/cciiZT4Y.s:101550  .debug_str:0000000000034e69 .LASF2349
     /tmp/cciiZT4Y.s:107702  .debug_str:000000000004e740 .LASF2350
     /tmp/cciiZT4Y.s:98224  .debug_str:000000000002755c .LASF2351
     /tmp/cciiZT4Y.s:98674  .debug_str:0000000000029483 .LASF2352
     /tmp/cciiZT4Y.s:95488  .debug_str:000000000001c009 .LASF2353
     /tmp/cciiZT4Y.s:92334  .debug_str:000000000000f400 .LASF2354
     /tmp/cciiZT4Y.s:88666  .debug_str:0000000000000000 .LASF2355
     /tmp/cciiZT4Y.s:93366  .debug_str:000000000001353d .LASF2356
     /tmp/cciiZT4Y.s:99380  .debug_str:000000000002c15d .LASF2357
     /tmp/cciiZT4Y.s:103746  .debug_str:000000000003da15 .LASF2358
     /tmp/cciiZT4Y.s:106210  .debug_str:000000000004815d .LASF2359
     /tmp/cciiZT4Y.s:93766  .debug_str:0000000000014d37 .LASF2360
     /tmp/cciiZT4Y.s:94588  .debug_str:0000000000018360 .LASF2361
     /tmp/cciiZT4Y.s:103394  .debug_str:000000000003c36b .LASF2362
     /tmp/cciiZT4Y.s:92452  .debug_str:000000000000fbda .LASF2363
     /tmp/cciiZT4Y.s:92832  .debug_str:000000000001110b .LASF2364
     /tmp/cciiZT4Y.s:98648  .debug_str:00000000000292e7 .LASF2365
     /tmp/cciiZT4Y.s:100646  .debug_str:0000000000031232 .LASF2366
     /tmp/cciiZT4Y.s:96814  .debug_str:0000000000021dd2 .LASF2367
     /tmp/cciiZT4Y.s:93324  .debug_str:00000000000131d8 .LASF2368
     /tmp/cciiZT4Y.s:107418  .debug_str:000000000004d243 .LASF2369
     /tmp/cciiZT4Y.s:89958  .debug_str:0000000000005893 .LASF2370
     /tmp/cciiZT4Y.s:92260  .debug_str:000000000000efdc .LASF2371
     /tmp/cciiZT4Y.s:100436  .debug_str:0000000000030442 .LASF2372
     /tmp/cciiZT4Y.s:89956  .debug_str:0000000000005871 .LASF2373
     /tmp/cciiZT4Y.s:91226  .debug_str:000000000000ae57 .LASF2374
     /tmp/cciiZT4Y.s:100472  .debug_str:00000000000306fb .LASF2375
     /tmp/cciiZT4Y.s:92734  .debug_str:0000000000010b13 .LASF2376
     /tmp/cciiZT4Y.s:106240  .debug_str:000000000004830a .LASF2377
     /tmp/cciiZT4Y.s:104434  .debug_str:0000000000040640 .LASF2378
     /tmp/cciiZT4Y.s:107648  .debug_str:000000000004e35c .LASF2379
     /tmp/cciiZT4Y.s:89340  .debug_str:0000000000002ee9 .LASF2380
     /tmp/cciiZT4Y.s:98632  .debug_str:000000000002918f .LASF2381
     /tmp/cciiZT4Y.s:89058  .debug_str:0000000000001b50 .LASF2382
     /tmp/cciiZT4Y.s:99756  .debug_str:000000000002d76d .LASF2383
     /tmp/cciiZT4Y.s:105580  .debug_str:00000000000457c2 .LASF2384
     /tmp/cciiZT4Y.s:93172  .debug_str:0000000000012723 .LASF2385
     /tmp/cciiZT4Y.s:96786  .debug_str:0000000000021b66 .LASF2386
     /tmp/cciiZT4Y.s:103570  .debug_str:000000000003ce9c .LASF2387
     /tmp/cciiZT4Y.s:97476  .debug_str:000000000002498a .LASF2388
     /tmp/cciiZT4Y.s:93660  .debug_str:0000000000014729 .LASF2389
     /tmp/cciiZT4Y.s:95548  .debug_str:000000000001c448 .LASF2390
     /tmp/cciiZT4Y.s:106466  .debug_str:00000000000491b3 .LASF2391
     /tmp/cciiZT4Y.s:89928  .debug_str:000000000000566f .LASF2392
     /tmp/cciiZT4Y.s:92426  .debug_str:000000000000f9d6 .LASF2393
     /tmp/cciiZT4Y.s:92126  .debug_str:000000000000e97b .LASF2394
     /tmp/cciiZT4Y.s:90950  .debug_str:0000000000009c52 .LASF2395
     /tmp/cciiZT4Y.s:103170  .debug_str:000000000003b3f5 .LASF2396
     /tmp/cciiZT4Y.s:89780  .debug_str:0000000000004ce3 .LASF2397
     /tmp/cciiZT4Y.s:94444  .debug_str:00000000000179fc .LASF2398
     /tmp/cciiZT4Y.s:100810  .debug_str:0000000000031c9f .LASF2399
     /tmp/cciiZT4Y.s:105082  .debug_str:0000000000043733 .LASF2400
     /tmp/cciiZT4Y.s:91614  .debug_str:000000000000c95d .LASF2401
     /tmp/cciiZT4Y.s:96266  .debug_str:000000000001f72f .LASF2402
     /tmp/cciiZT4Y.s:102122  .debug_str:000000000003758e .LASF2403
     /tmp/cciiZT4Y.s:99104  .debug_str:000000000002aff4 .LASF2404
     /tmp/cciiZT4Y.s:90072  .debug_str:0000000000005fca .LASF2405
     /tmp/cciiZT4Y.s:107532  .debug_str:000000000004db2d .LASF2406
     /tmp/cciiZT4Y.s:102876  .debug_str:0000000000039fc1 .LASF2407
     /tmp/cciiZT4Y.s:106832  .debug_str:000000000004aa2a .LASF2408
     /tmp/cciiZT4Y.s:91312  .debug_str:000000000000b4d4 .LASF2409
     /tmp/cciiZT4Y.s:102908  .debug_str:000000000003a254 .LASF2410
     /tmp/cciiZT4Y.s:99920  .debug_str:000000000002e22e .LASF2411
     /tmp/cciiZT4Y.s:101376  .debug_str:00000000000342a3 .LASF2412
     /tmp/cciiZT4Y.s:98528  .debug_str:0000000000028a29 .LASF2413
     /tmp/cciiZT4Y.s:106336  .debug_str:0000000000048916 .LASF2414
     /tmp/cciiZT4Y.s:104574  .debug_str:000000000004121e .LASF2415
     /tmp/cciiZT4Y.s:101244  .debug_str:0000000000033a1f .LASF2416
     /tmp/cciiZT4Y.s:94696  .debug_str:00000000000189cf .LASF2417
     /tmp/cciiZT4Y.s:89672  .debug_str:00000000000045f5 .LASF2418
     /tmp/cciiZT4Y.s:93648  .debug_str:000000000001466c .LASF2419
     /tmp/cciiZT4Y.s:103010  .debug_str:000000000003a8cf .LASF2420
     /tmp/cciiZT4Y.s:92088  .debug_str:000000000000e7de .LASF2421
     /tmp/cciiZT4Y.s:105556  .debug_str:000000000004562c .LASF2422
     /tmp/cciiZT4Y.s:93344  .debug_str:00000000000133ec .LASF2423
     /tmp/cciiZT4Y.s:100558  .debug_str:0000000000030cd6 .LASF2424
     /tmp/cciiZT4Y.s:100130  .debug_str:000000000002eff2 .LASF2425
     /tmp/cciiZT4Y.s:94256  .debug_str:0000000000016d1d .LASF2426
     /tmp/cciiZT4Y.s:100346  .debug_str:000000000002fef6 .LASF2427
     /tmp/cciiZT4Y.s:107456  .debug_str:000000000004d505 .LASF2428
     /tmp/cciiZT4Y.s:97380  .debug_str:000000000002432f .LASF2429
     /tmp/cciiZT4Y.s:101312  .debug_str:0000000000033e9c .LASF2430
     /tmp/cciiZT4Y.s:96686  .debug_str:0000000000021413 .LASF2431
     /tmp/cciiZT4Y.s:95002  .debug_str:0000000000019e71 .LASF2432
     /tmp/cciiZT4Y.s:95188  .debug_str:000000000001ac1c .LASF2433
     /tmp/cciiZT4Y.s:99052  .debug_str:000000000002ac20 .LASF2434
     /tmp/cciiZT4Y.s:101268  .debug_str:0000000000033bd1 .LASF2435
     /tmp/cciiZT4Y.s:91292  .debug_str:000000000000b316 .LASF2436
     /tmp/cciiZT4Y.s:103808  .debug_str:000000000003deb7 .LASF2437
     /tmp/cciiZT4Y.s:106252  .debug_str:00000000000483db .LASF2438
     /tmp/cciiZT4Y.s:91958  .debug_str:000000000000df88 .LASF2439
     /tmp/cciiZT4Y.s:100832  .debug_str:0000000000031dcc .LASF2440
     /tmp/cciiZT4Y.s:102762  .debug_str:00000000000399a6 .LASF2441
     /tmp/cciiZT4Y.s:91856  .debug_str:000000000000da63 .LASF2442
     /tmp/cciiZT4Y.s:93874  .debug_str:000000000001542d .LASF2443
     /tmp/cciiZT4Y.s:102654  .debug_str:00000000000393be .LASF2444
     /tmp/cciiZT4Y.s:106534  .debug_str:00000000000495df .LASF2445
     /tmp/cciiZT4Y.s:94310  .debug_str:0000000000017065 .LASF2446
     /tmp/cciiZT4Y.s:90850  .debug_str:000000000000952f .LASF2447
     /tmp/cciiZT4Y.s:98464  .debug_str:0000000000028573 .LASF2448
     /tmp/cciiZT4Y.s:100950  .debug_str:000000000003266e .LASF2449
     /tmp/cciiZT4Y.s:88718  .debug_str:00000000000003cc .LASF2450
     /tmp/cciiZT4Y.s:100708  .debug_str:00000000000315f7 .LASF2451
     /tmp/cciiZT4Y.s:98654  .debug_str:0000000000029338 .LASF2452
     /tmp/cciiZT4Y.s:97234  .debug_str:000000000002396b .LASF2453
     /tmp/cciiZT4Y.s:89450  .debug_str:00000000000035b8 .LASF2454
     /tmp/cciiZT4Y.s:103112  .debug_str:000000000003afff .LASF2455
     /tmp/cciiZT4Y.s:90328  .debug_str:000000000000725c .LASF2456
     /tmp/cciiZT4Y.s:105930  .debug_str:0000000000046e87 .LASF2457
     /tmp/cciiZT4Y.s:88812  .debug_str:0000000000000a2f .LASF2458
     /tmp/cciiZT4Y.s:97130  .debug_str:0000000000023163 .LASF2459
     /tmp/cciiZT4Y.s:98876  .debug_str:000000000002a10e .LASF2460
     /tmp/cciiZT4Y.s:91904  .debug_str:000000000000dd04 .LASF2461
     /tmp/cciiZT4Y.s:90006  .debug_str:0000000000005be5 .LASF2462
     /tmp/cciiZT4Y.s:103248  .debug_str:000000000003b91b .LASF2463
     /tmp/cciiZT4Y.s:107780  .debug_str:000000000004ec01 .LASF2464
     /tmp/cciiZT4Y.s:95318  .debug_str:000000000001b47c .LASF2465
     /tmp/cciiZT4Y.s:90802  .debug_str:00000000000091db .LASF2466
     /tmp/cciiZT4Y.s:105018  .debug_str:0000000000043301 .LASF2467
     /tmp/cciiZT4Y.s:103606  .debug_str:000000000003d0ca .LASF2468
     /tmp/cciiZT4Y.s:106476  .debug_str:000000000004929a .LASF2469
     /tmp/cciiZT4Y.s:92530  .debug_str:00000000000100db .LASF2470
     /tmp/cciiZT4Y.s:103286  .debug_str:000000000003bbe8 .LASF2471
     /tmp/cciiZT4Y.s:103262  .debug_str:000000000003b9ff .LASF2472
     /tmp/cciiZT4Y.s:103160  .debug_str:000000000003b332 .LASF2473
     /tmp/cciiZT4Y.s:94378  .debug_str:000000000001752b .LASF2474
     /tmp/cciiZT4Y.s:105232  .debug_str:00000000000440b4 .LASF2475
     /tmp/cciiZT4Y.s:105562  .debug_str:000000000004569d .LASF2476
     /tmp/cciiZT4Y.s:95832  .debug_str:000000000001d7dd .LASF2477
     /tmp/cciiZT4Y.s:98754  .debug_str:0000000000029943 .LASF2478
     /tmp/cciiZT4Y.s:97342  .debug_str:000000000002403e .LASF2479
     /tmp/cciiZT4Y.s:88992  .debug_str:00000000000015d3 .LASF2480
     /tmp/cciiZT4Y.s:101792  .debug_str:0000000000036001 .LASF2481
     /tmp/cciiZT4Y.s:101904  .debug_str:0000000000036775 .LASF2482
     /tmp/cciiZT4Y.s:96992  .debug_str:00000000000228a2 .LASF2483
     /tmp/cciiZT4Y.s:102330  .debug_str:0000000000038292 .LASF2484
     /tmp/cciiZT4Y.s:89304  .debug_str:0000000000002c68 .LASF2485
     /tmp/cciiZT4Y.s:95426  .debug_str:000000000001bbe7 .LASF2486
     /tmp/cciiZT4Y.s:98476  .debug_str:000000000002865a .LASF2487
     /tmp/cciiZT4Y.s:106018  .debug_str:0000000000047432 .LASF2488
     /tmp/cciiZT4Y.s:90944  .debug_str:0000000000009bed .LASF2489
     /tmp/cciiZT4Y.s:89344  .debug_str:0000000000002f2e .LASF2490
     /tmp/cciiZT4Y.s:101724  .debug_str:0000000000035aa2 .LASF2491
     /tmp/cciiZT4Y.s:107854  .debug_str:000000000004f108 .LASF2492
     /tmp/cciiZT4Y.s:107928  .debug_str:000000000004f608 .LASF2493
     /tmp/cciiZT4Y.s:101928  .debug_str:0000000000036931 .LASF2494
     /tmp/cciiZT4Y.s:106400  .debug_str:0000000000048d53 .LASF2495
     /tmp/cciiZT4Y.s:106068  .debug_str:0000000000047734 .LASF2496
     /tmp/cciiZT4Y.s:104470  .debug_str:00000000000408e5 .LASF2497
     /tmp/cciiZT4Y.s:103206  .debug_str:000000000003b6c4 .LASF2498
     /tmp/cciiZT4Y.s:94954  .debug_str:0000000000019b0b .LASF2499
     /tmp/cciiZT4Y.s:100862  .debug_str:0000000000031fde .LASF2500
     /tmp/cciiZT4Y.s:105224  .debug_str:0000000000044041 .LASF2501
     /tmp/cciiZT4Y.s:88670  .debug_str:0000000000000058 .LASF2502
     /tmp/cciiZT4Y.s:98044  .debug_str:0000000000026a4f .LASF2503
     /tmp/cciiZT4Y.s:106924  .debug_str:000000000004b0c3 .LASF2504
     /tmp/cciiZT4Y.s:98112  .debug_str:0000000000026eea .LASF2505
     /tmp/cciiZT4Y.s:98158  .debug_str:00000000000271ad .LASF2506
     /tmp/cciiZT4Y.s:95110  .debug_str:000000000001a633 .LASF2507
     /tmp/cciiZT4Y.s:89322  .debug_str:0000000000002d8a .LASF2508
     /tmp/cciiZT4Y.s:91154  .debug_str:000000000000a970 .LASF2509
     /tmp/cciiZT4Y.s:100656  .debug_str:00000000000312d7 .LASF2510
     /tmp/cciiZT4Y.s:107934  .debug_str:000000000004f684 .LASF2511
     /tmp/cciiZT4Y.s:106616  .debug_str:0000000000049bb9 .LASF2512
     /tmp/cciiZT4Y.s:93906  .debug_str:000000000001561f .LASF2513
     /tmp/cciiZT4Y.s:100952  .debug_str:0000000000032689 .LASF2514
     /tmp/cciiZT4Y.s:95580  .debug_str:000000000001c6ed .LASF2515
     /tmp/cciiZT4Y.s:94286  .debug_str:0000000000016eec .LASF2516
     /tmp/cciiZT4Y.s:93458  .debug_str:0000000000013acf .LASF2517
     /tmp/cciiZT4Y.s:105542  .debug_str:0000000000045538 .LASF2518
     /tmp/cciiZT4Y.s:106806  .debug_str:000000000004a833 .LASF2519
     /tmp/cciiZT4Y.s:93304  .debug_str:000000000001306e .LASF2520
     /tmp/cciiZT4Y.s:96644  .debug_str:0000000000021149 .LASF2521
     /tmp/cciiZT4Y.s:104688  .debug_str:0000000000041981 .LASF2522
     /tmp/cciiZT4Y.s:98914  .debug_str:000000000002a3bd .LASF2523
     /tmp/cciiZT4Y.s:107926  .debug_str:000000000004f5e7 .LASF2524
     /tmp/cciiZT4Y.s:98646  .debug_str:00000000000292be .LASF2525
     /tmp/cciiZT4Y.s:106014  .debug_str:00000000000473e9 .LASF2526
     /tmp/cciiZT4Y.s:92554  .debug_str:0000000000010241 .LASF2527
     /tmp/cciiZT4Y.s:94060  .debug_str:0000000000015fda .LASF2528
     /tmp/cciiZT4Y.s:102286  .debug_str:0000000000038085 .LASF2529
     /tmp/cciiZT4Y.s:108016  .debug_str:000000000004fbe7 .LASF2530
     /tmp/cciiZT4Y.s:89054  .debug_str:0000000000001b18 .LASF2531
     /tmp/cciiZT4Y.s:101038  .debug_str:0000000000032cb5 .LASF2532
     /tmp/cciiZT4Y.s:101562  .debug_str:0000000000034f31 .LASF2533
     /tmp/cciiZT4Y.s:107234  .debug_str:000000000004c5b2 .LASF2534
     /tmp/cciiZT4Y.s:97800  .debug_str:0000000000025bb9 .LASF2535
     /tmp/cciiZT4Y.s:98480  .debug_str:0000000000028699 .LASF2536
     /tmp/cciiZT4Y.s:102904  .debug_str:000000000003a1f5 .LASF2537
     /tmp/cciiZT4Y.s:105394  .debug_str:0000000000044b80 .LASF2538
     /tmp/cciiZT4Y.s:106474  .debug_str:0000000000049271 .LASF2539
     /tmp/cciiZT4Y.s:93570  .debug_str:000000000001418d .LASF2540
     /tmp/cciiZT4Y.s:104712  .debug_str:0000000000041d86 .LASF2541
     /tmp/cciiZT4Y.s:92124  .debug_str:000000000000e94a .LASF2542
     /tmp/cciiZT4Y.s:90978  .debug_str:0000000000009e12 .LASF2543
     /tmp/cciiZT4Y.s:91670  .debug_str:000000000000cde1 .LASF2544
     /tmp/cciiZT4Y.s:106734  .debug_str:000000000004a2da .LASF2545
     /tmp/cciiZT4Y.s:96626  .debug_str:0000000000021005 .LASF2546
     /tmp/cciiZT4Y.s:104194  .debug_str:000000000003f76f .LASF2547
     /tmp/cciiZT4Y.s:107386  .debug_str:000000000004d07e .LASF2548
     /tmp/cciiZT4Y.s:95178  .debug_str:000000000001ab32 .LASF2549
     /tmp/cciiZT4Y.s:98612  .debug_str:0000000000028ffe .LASF2550
     /tmp/cciiZT4Y.s:102062  .debug_str:00000000000371a7 .LASF2551
     /tmp/cciiZT4Y.s:107586  .debug_str:000000000004df3d .LASF2552
     /tmp/cciiZT4Y.s:96730  .debug_str:000000000002176e .LASF2553
     /tmp/cciiZT4Y.s:102504  .debug_str:0000000000038c8b .LASF2554
     /tmp/cciiZT4Y.s:107046  .debug_str:000000000004b92b .LASF2555
     /tmp/cciiZT4Y.s:93792  .debug_str:0000000000014eca .LASF2556
     /tmp/cciiZT4Y.s:98034  .debug_str:0000000000026969 .LASF2557
     /tmp/cciiZT4Y.s:104402  .debug_str:00000000000403d0 .LASF2558
     /tmp/cciiZT4Y.s:88964  .debug_str:0000000000001417 .LASF2559
     /tmp/cciiZT4Y.s:103420  .debug_str:000000000003c505 .LASF2560
     /tmp/cciiZT4Y.s:97144  .debug_str:0000000000023249 .LASF2561
     /tmp/cciiZT4Y.s:90316  .debug_str:000000000000717e .LASF2562
     /tmp/cciiZT4Y.s:104686  .debug_str:0000000000041940 .LASF2563
     /tmp/cciiZT4Y.s:91708  .debug_str:000000000000d040 .LASF2564
     /tmp/cciiZT4Y.s:98442  .debug_str:00000000000283e5 .LASF2565
     /tmp/cciiZT4Y.s:100180  .debug_str:000000000002f3d9 .LASF2566
     /tmp/cciiZT4Y.s:94046  .debug_str:0000000000015f24 .LASF2567
     /tmp/cciiZT4Y.s:106470  .debug_str:0000000000049201 .LASF2568
     /tmp/cciiZT4Y.s:107506  .debug_str:000000000004d8b4 .LASF2569
     /tmp/cciiZT4Y.s:97516  .debug_str:0000000000024b5d .LASF2570
     /tmp/cciiZT4Y.s:90284  .debug_str:0000000000006ee2 .LASF2571
     /tmp/cciiZT4Y.s:95468  .debug_str:000000000001bea7 .LASF2572
     /tmp/cciiZT4Y.s:95552  .debug_str:000000000001c49a .LASF2573
     /tmp/cciiZT4Y.s:106732  .debug_str:000000000004a29b .LASF2574
     /tmp/cciiZT4Y.s:94710  .debug_str:0000000000018a74 .LASF2575
     /tmp/cciiZT4Y.s:96524  .debug_str:00000000000209a5 .LASF2576
     /tmp/cciiZT4Y.s:89010  .debug_str:0000000000001728 .LASF2577
     /tmp/cciiZT4Y.s:98126  .debug_str:0000000000026fc1 .LASF2578
     /tmp/cciiZT4Y.s:98518  .debug_str:0000000000028972 .LASF2579
     /tmp/cciiZT4Y.s:93338  .debug_str:0000000000013345 .LASF2580
     /tmp/cciiZT4Y.s:107968  .debug_str:000000000004f8b8 .LASF2581
     /tmp/cciiZT4Y.s:95154  .debug_str:000000000001a937 .LASF2582
     /tmp/cciiZT4Y.s:89652  .debug_str:0000000000004445 .LASF2583
     /tmp/cciiZT4Y.s:99674  .debug_str:000000000002d277 .LASF2584
     /tmp/cciiZT4Y.s:97244  .debug_str:00000000000239df .LASF2585
     /tmp/cciiZT4Y.s:104826  .debug_str:000000000004260b .LASF2586
     /tmp/cciiZT4Y.s:102578  .debug_str:0000000000039014 .LASF2587
     /tmp/cciiZT4Y.s:100004  .debug_str:000000000002e7cf .LASF2588
     /tmp/cciiZT4Y.s:92748  .debug_str:0000000000010bf4 .LASF2589
     /tmp/cciiZT4Y.s:96904  .debug_str:00000000000222db .LASF2590
     /tmp/cciiZT4Y.s:95066  .debug_str:000000000001a2b4 .LASF2591
     /tmp/cciiZT4Y.s:98098  .debug_str:0000000000026dda .LASF2592
     /tmp/cciiZT4Y.s:91080  .debug_str:000000000000a3f1 .LASF2593
     /tmp/cciiZT4Y.s:104396  .debug_str:0000000000040350 .LASF2594
     /tmp/cciiZT4Y.s:93322  .debug_str:0000000000013193 .LASF2595
     /tmp/cciiZT4Y.s:90300  .debug_str:000000000000705c .LASF2596
     /tmp/cciiZT4Y.s:107924  .debug_str:000000000004f5a8 .LASF2597
     /tmp/cciiZT4Y.s:97686  .debug_str:000000000002555f .LASF2598
     /tmp/cciiZT4Y.s:107628  .debug_str:000000000004e1f4 .LASF2599
     /tmp/cciiZT4Y.s:92156  .debug_str:000000000000ea96 .LASF2600
     /tmp/cciiZT4Y.s:89760  .debug_str:0000000000004ba0 .LASF2601
     /tmp/cciiZT4Y.s:90896  .debug_str:00000000000097db .LASF2602
     /tmp/cciiZT4Y.s:103618  .debug_str:000000000003d16d .LASF2603
     /tmp/cciiZT4Y.s:93084  .debug_str:0000000000012195 .LASF2604
     /tmp/cciiZT4Y.s:91274  .debug_str:000000000000b1fe .LASF2605
     /tmp/cciiZT4Y.s:105888  .debug_str:0000000000046b5e .LASF2606
     /tmp/cciiZT4Y.s:92886  .debug_str:00000000000114e3 .LASF2607
     /tmp/cciiZT4Y.s:90496  .debug_str:0000000000007d0c .LASF2608
     /tmp/cciiZT4Y.s:103720  .debug_str:000000000003d7ff .LASF2609
     /tmp/cciiZT4Y.s:100996  .debug_str:0000000000032990 .LASF2610
     /tmp/cciiZT4Y.s:94900  .debug_str:0000000000019766 .LASF2611
     /tmp/cciiZT4Y.s:100640  .debug_str:00000000000311af .LASF2612
     /tmp/cciiZT4Y.s:100834  .debug_str:0000000000031dee .LASF2613
     /tmp/cciiZT4Y.s:107260  .debug_str:000000000004c780 .LASF2614
     /tmp/cciiZT4Y.s:107770  .debug_str:000000000004eb26 .LASF2615
     /tmp/cciiZT4Y.s:91044  .debug_str:000000000000a261 .LASF2616
     /tmp/cciiZT4Y.s:95108  .debug_str:000000000001a5fb .LASF2617
     /tmp/cciiZT4Y.s:89156  .debug_str:0000000000002295 .LASF2618
     /tmp/cciiZT4Y.s:90306  .debug_str:00000000000070cc .LASF2619
     /tmp/cciiZT4Y.s:99646  .debug_str:000000000002d0cf .LASF2620
     /tmp/cciiZT4Y.s:89254  .debug_str:000000000000290a .LASF2621
     /tmp/cciiZT4Y.s:107726  .debug_str:000000000004e8c1 .LASF2622
     /tmp/cciiZT4Y.s:103058  .debug_str:000000000003ac19 .LASF2623
     /tmp/cciiZT4Y.s:89700  .debug_str:000000000000473a .LASF2624
     /tmp/cciiZT4Y.s:105818  .debug_str:00000000000466b2 .LASF2625
     /tmp/cciiZT4Y.s:89138  .debug_str:0000000000002123 .LASF2626
     /tmp/cciiZT4Y.s:106132  .debug_str:0000000000047beb .LASF2627
     /tmp/cciiZT4Y.s:96304  .debug_str:000000000001f9b8 .LASF2628
     /tmp/cciiZT4Y.s:98582  .debug_str:0000000000028dd4 .LASF2629
     /tmp/cciiZT4Y.s:96410  .debug_str:000000000002016a .LASF2630
     /tmp/cciiZT4Y.s:103718  .debug_str:000000000003d7c6 .LASF2631
     /tmp/cciiZT4Y.s:103442  .debug_str:000000000003c6aa .LASF2632
     /tmp/cciiZT4Y.s:105220  .debug_str:0000000000043fea .LASF2633
     /tmp/cciiZT4Y.s:91252  .debug_str:000000000000afdb .LASF2634
     /tmp/cciiZT4Y.s:98316  .debug_str:0000000000027bd3 .LASF2635
     /tmp/cciiZT4Y.s:104560  .debug_str:00000000000410d3 .LASF2636
     /tmp/cciiZT4Y.s:88878  .debug_str:0000000000000e39 .LASF2637
     /tmp/cciiZT4Y.s:99262  .debug_str:000000000002ba23 .LASF2638
     /tmp/cciiZT4Y.s:103430  .debug_str:000000000003c5a7 .LASF2639
     /tmp/cciiZT4Y.s:101084  .debug_str:0000000000032f51 .LASF2640
     /tmp/cciiZT4Y.s:98624  .debug_str:00000000000290f4 .LASF2641
     /tmp/cciiZT4Y.s:98946  .debug_str:000000000002a607 .LASF2642
     /tmp/cciiZT4Y.s:101394  .debug_str:00000000000343a7 .LASF2643
     /tmp/cciiZT4Y.s:104604  .debug_str:000000000004142b .LASF2644
     /tmp/cciiZT4Y.s:96542  .debug_str:0000000000020b19 .LASF2645
     /tmp/cciiZT4Y.s:101020  .debug_str:0000000000032b2b .LASF2646
     /tmp/cciiZT4Y.s:91490  .debug_str:000000000000c158 .LASF2647
     /tmp/cciiZT4Y.s:89850  .debug_str:0000000000005187 .LASF2648
     /tmp/cciiZT4Y.s:96440  .debug_str:0000000000020384 .LASF2649
     /tmp/cciiZT4Y.s:100540  .debug_str:0000000000030bb5 .LASF2650
     /tmp/cciiZT4Y.s:92858  .debug_str:00000000000112f3 .LASF2651
     /tmp/cciiZT4Y.s:100368  .debug_str:000000000003003d .LASF2652
     /tmp/cciiZT4Y.s:94434  .debug_str:0000000000017967 .LASF2653
     /tmp/cciiZT4Y.s:102258  .debug_str:0000000000037dd3 .LASF2654
     /tmp/cciiZT4Y.s:107680  .debug_str:000000000004e5e1 .LASF2655
     /tmp/cciiZT4Y.s:96074  .debug_str:000000000001e96e .LASF2656
     /tmp/cciiZT4Y.s:100298  .debug_str:000000000002fbaf .LASF2657
     /tmp/cciiZT4Y.s:102994  .debug_str:000000000003a77c .LASF2658
     /tmp/cciiZT4Y.s:98998  .debug_str:000000000002a8db .LASF2659
     /tmp/cciiZT4Y.s:90266  .debug_str:0000000000006d2f .LASF2660
     /tmp/cciiZT4Y.s:91300  .debug_str:000000000000b3da .LASF2661
     /tmp/cciiZT4Y.s:97656  .debug_str:0000000000025415 .LASF2662
     /tmp/cciiZT4Y.s:104668  .debug_str:0000000000041856 .LASF2663
     /tmp/cciiZT4Y.s:102422  .debug_str:00000000000387ce .LASF2664
     /tmp/cciiZT4Y.s:103536  .debug_str:000000000003cc93 .LASF2665
     /tmp/cciiZT4Y.s:107530  .debug_str:000000000004dae5 .LASF2666
     /tmp/cciiZT4Y.s:105034  .debug_str:00000000000433a0 .LASF2667
     /tmp/cciiZT4Y.s:97278  .debug_str:0000000000023c15 .LASF2668
     /tmp/cciiZT4Y.s:96122  .debug_str:000000000001ecba .LASF2669
     /tmp/cciiZT4Y.s:105054  .debug_str:0000000000043511 .LASF2670
     /tmp/cciiZT4Y.s:97822  .debug_str:0000000000025cff .LASF2671
     /tmp/cciiZT4Y.s:91130  .debug_str:000000000000a7e1 .LASF2672
     /tmp/cciiZT4Y.s:97424  .debug_str:0000000000024657 .LASF2673
     /tmp/cciiZT4Y.s:102582  .debug_str:000000000003906e .LASF2674
     /tmp/cciiZT4Y.s:100760  .debug_str:00000000000319c6 .LASF2675
     /tmp/cciiZT4Y.s:93690  .debug_str:000000000001491f .LASF2676
     /tmp/cciiZT4Y.s:89720  .debug_str:00000000000048b8 .LASF2677
     /tmp/cciiZT4Y.s:96816  .debug_str:0000000000021df4 .LASF2678
     /tmp/cciiZT4Y.s:99684  .debug_str:000000000002d2f2 .LASF2679
     /tmp/cciiZT4Y.s:95698  .debug_str:000000000001cf7f .LASF2680
     /tmp/cciiZT4Y.s:90480  .debug_str:0000000000007bce .LASF2681
     /tmp/cciiZT4Y.s:95986  .debug_str:000000000001e329 .LASF2682
     /tmp/cciiZT4Y.s:95496  .debug_str:000000000001c09c .LASF2683
     /tmp/cciiZT4Y.s:88712  .debug_str:0000000000000339 .LASF2684
     /tmp/cciiZT4Y.s:93416  .debug_str:0000000000013809 .LASF2685
     /tmp/cciiZT4Y.s:102362  .debug_str:00000000000384c4 .LASF2686
     /tmp/cciiZT4Y.s:99412  .debug_str:000000000002c31c .LASF2687
     /tmp/cciiZT4Y.s:92742  .debug_str:0000000000010ba3 .LASF2688
     /tmp/cciiZT4Y.s:94962  .debug_str:0000000000019bc6 .LASF2689
     /tmp/cciiZT4Y.s:99090  .debug_str:000000000002ae80 .LASF2690
     /tmp/cciiZT4Y.s:104720  .debug_str:0000000000041e2d .LASF2691
     /tmp/cciiZT4Y.s:90536  .debug_str:0000000000007f7b .LASF2692
     /tmp/cciiZT4Y.s:99776  .debug_str:000000000002d87c .LASF2693
     /tmp/cciiZT4Y.s:104446  .debug_str:000000000004070e .LASF2694
     /tmp/cciiZT4Y.s:105952  .debug_str:0000000000046f5b .LASF2695
     /tmp/cciiZT4Y.s:93248  .debug_str:0000000000012c52 .LASF2696
     /tmp/cciiZT4Y.s:104022  .debug_str:000000000003ec0b .LASF2697
     /tmp/cciiZT4Y.s:94146  .debug_str:0000000000016588 .LASF2698
     /tmp/cciiZT4Y.s:99376  .debug_str:000000000002c0f9 .LASF2699
     /tmp/cciiZT4Y.s:89178  .debug_str:0000000000002442 .LASF2700
     /tmp/cciiZT4Y.s:96742  .debug_str:000000000002182a .LASF2701
     /tmp/cciiZT4Y.s:103840  .debug_str:000000000003e111 .LASF2702
     /tmp/cciiZT4Y.s:89592  .debug_str:0000000000003f7e .LASF2703
     /tmp/cciiZT4Y.s:107466  .debug_str:000000000004d591 .LASF2704
     /tmp/cciiZT4Y.s:91928  .debug_str:000000000000dde4 .LASF2705
     /tmp/cciiZT4Y.s:103334  .debug_str:000000000003bf29 .LASF2706
     /tmp/cciiZT4Y.s:103754  .debug_str:000000000003da9f .LASF2707
     /tmp/cciiZT4Y.s:97910  .debug_str:0000000000026197 .LASF2708
     /tmp/cciiZT4Y.s:94678  .debug_str:000000000001893e .LASF2709
     /tmp/cciiZT4Y.s:92952  .debug_str:0000000000011843 .LASF2710
     /tmp/cciiZT4Y.s:88994  .debug_str:00000000000015f7 .LASF2711
     /tmp/cciiZT4Y.s:100052  .debug_str:000000000002eb30 .LASF2712
     /tmp/cciiZT4Y.s:103946  .debug_str:000000000003e844 .LASF2713
     /tmp/cciiZT4Y.s:98300  .debug_str:0000000000027aa1 .LASF2714
     /tmp/cciiZT4Y.s:93982  .debug_str:0000000000015afd .LASF2715
     /tmp/cciiZT4Y.s:94346  .debug_str:000000000001729d .LASF2716
     /tmp/cciiZT4Y.s:95820  .debug_str:000000000001d6f9 .LASF2717
     /tmp/cciiZT4Y.s:94114  .debug_str:0000000000016304 .LASF2718
     /tmp/cciiZT4Y.s:107844  .debug_str:000000000004f04e .LASF2719
     /tmp/cciiZT4Y.s:89264  .debug_str:00000000000029df .LASF2720
     /tmp/cciiZT4Y.s:102742  .debug_str:0000000000039828 .LASF2721
     /tmp/cciiZT4Y.s:99826  .debug_str:000000000002dbeb .LASF2722
     /tmp/cciiZT4Y.s:89268  .debug_str:0000000000002a58 .LASF2723
     /tmp/cciiZT4Y.s:88914  .debug_str:00000000000010e1 .LASF2724
     /tmp/cciiZT4Y.s:101188  .debug_str:0000000000033613 .LASF2725
     /tmp/cciiZT4Y.s:100470  .debug_str:00000000000306bb .LASF2726
     /tmp/cciiZT4Y.s:92990  .debug_str:0000000000011b02 .LASF2727
     /tmp/cciiZT4Y.s:104184  .debug_str:000000000003f6b3 .LASF2728
     /tmp/cciiZT4Y.s:104964  .debug_str:0000000000042ef4 .LASF2729
     /tmp/cciiZT4Y.s:100874  .debug_str:0000000000032087 .LASF2730
     /tmp/cciiZT4Y.s:94420  .debug_str:0000000000017835 .LASF2731
     /tmp/cciiZT4Y.s:90512  .debug_str:0000000000007e21 .LASF2732
     /tmp/cciiZT4Y.s:107048  .debug_str:000000000004b96b .LASF2733
     /tmp/cciiZT4Y.s:103150  .debug_str:000000000003b256 .LASF2734
     /tmp/cciiZT4Y.s:107818  .debug_str:000000000004eec1 .LASF2735
     /tmp/cciiZT4Y.s:89396  .debug_str:0000000000003274 .LASF2736
     /tmp/cciiZT4Y.s:99100  .debug_str:000000000002af87 .LASF2737
     /tmp/cciiZT4Y.s:88998  .debug_str:000000000000164c .LASF2738
     /tmp/cciiZT4Y.s:89668  .debug_str:000000000000459d .LASF2739
     /tmp/cciiZT4Y.s:90670  .debug_str:0000000000008883 .LASF2740
     /tmp/cciiZT4Y.s:100918  .debug_str:00000000000323a5 .LASF2741
     /tmp/cciiZT4Y.s:101194  .debug_str:0000000000033697 .LASF2742
     /tmp/cciiZT4Y.s:99886  .debug_str:000000000002dfec .LASF2743
     /tmp/cciiZT4Y.s:94724  .debug_str:0000000000018b6a .LASF2744
     /tmp/cciiZT4Y.s:89364  .debug_str:00000000000030e0 .LASF2745
     /tmp/cciiZT4Y.s:93662  .debug_str:0000000000014750 .LASF2746
     /tmp/cciiZT4Y.s:107544  .debug_str:000000000004dc04 .LASF2747
     /tmp/cciiZT4Y.s:106750  .debug_str:000000000004a3c5 .LASF2748
     /tmp/cciiZT4Y.s:106860  .debug_str:000000000004abb2 .LASF2749
     /tmp/cciiZT4Y.s:93508  .debug_str:0000000000013dd8 .LASF2750
     /tmp/cciiZT4Y.s:104552  .debug_str:000000000004102c .LASF2751
     /tmp/cciiZT4Y.s:93616  .debug_str:000000000001447b .LASF2752
     /tmp/cciiZT4Y.s:96788  .debug_str:0000000000021b86 .LASF2753
     /tmp/cciiZT4Y.s:90618  .debug_str:000000000000850e .LASF2754
     /tmp/cciiZT4Y.s:103184  .debug_str:000000000003b569 .LASF2755
     /tmp/cciiZT4Y.s:106822  .debug_str:000000000004a979 .LASF2756
     /tmp/cciiZT4Y.s:92590  .debug_str:000000000001036e .LASF2757
     /tmp/cciiZT4Y.s:89260  .debug_str:000000000000297f .LASF2758
     /tmp/cciiZT4Y.s:91346  .debug_str:000000000000b6d9 .LASF2759
     /tmp/cciiZT4Y.s:97900  .debug_str:0000000000026104 .LASF2760
     /tmp/cciiZT4Y.s:107870  .debug_str:000000000004f1df .LASF2761
     /tmp/cciiZT4Y.s:91706  .debug_str:000000000000cffc .LASF2762
     /tmp/cciiZT4Y.s:105554  .debug_str:00000000000455f0 .LASF2763
     /tmp/cciiZT4Y.s:91432  .debug_str:000000000000bdae .LASF2764
     /tmp/cciiZT4Y.s:107796  .debug_str:000000000004ed41 .LASF2765
     /tmp/cciiZT4Y.s:99854  .debug_str:000000000002ddd3 .LASF2766
     /tmp/cciiZT4Y.s:89402  .debug_str:00000000000032f4 .LASF2767
     /tmp/cciiZT4Y.s:88694  .debug_str:0000000000000205 .LASF2768
     /tmp/cciiZT4Y.s:104052  .debug_str:000000000003ee39 .LASF2769
     /tmp/cciiZT4Y.s:98212  .debug_str:0000000000027438 .LASF2770
     /tmp/cciiZT4Y.s:99190  .debug_str:000000000002b543 .LASF2771
     /tmp/cciiZT4Y.s:107674  .debug_str:000000000004e56a .LASF2772
     /tmp/cciiZT4Y.s:105370  .debug_str:0000000000044987 .LASF2773
     /tmp/cciiZT4Y.s:107642  .debug_str:000000000004e2ec .LASF2774
     /tmp/cciiZT4Y.s:98396  .debug_str:000000000002812f .LASF2775
     /tmp/cciiZT4Y.s:106228  .debug_str:000000000004822c .LASF2776
     /tmp/cciiZT4Y.s:99592  .debug_str:000000000002cdb5 .LASF2777
     /tmp/cciiZT4Y.s:106424  .debug_str:0000000000048f24 .LASF2778
     /tmp/cciiZT4Y.s:90848  .debug_str:00000000000094f8 .LASF2779
     /tmp/cciiZT4Y.s:92754  .debug_str:0000000000010c49 .LASF2780
     /tmp/cciiZT4Y.s:105814  .debug_str:0000000000046667 .LASF2781
     /tmp/cciiZT4Y.s:94404  .debug_str:0000000000017716 .LASF2782
     /tmp/cciiZT4Y.s:108036  .debug_str:000000000004fd74 .LASF2783
     /tmp/cciiZT4Y.s:100396  .debug_str:00000000000301dc .LASF2784
     /tmp/cciiZT4Y.s:91296  .debug_str:000000000000b36d .LASF2785
     /tmp/cciiZT4Y.s:91724  .debug_str:000000000000d169 .LASF2786
     /tmp/cciiZT4Y.s:105040  .debug_str:0000000000043404 .LASF2787
     /tmp/cciiZT4Y.s:95064  .debug_str:000000000001a26c .LASF2788
     /tmp/cciiZT4Y.s:104626  .debug_str:00000000000415be .LASF2789
     /tmp/cciiZT4Y.s:101366  .debug_str:0000000000034202 .LASF2790
     /tmp/cciiZT4Y.s:93644  .debug_str:00000000000145e1 .LASF2791
     /tmp/cciiZT4Y.s:92430  .debug_str:000000000000fa1c .LASF2792
     /tmp/cciiZT4Y.s:98456  .debug_str:00000000000284e6 .LASF2793
     /tmp/cciiZT4Y.s:103314  .debug_str:000000000003bdbe .LASF2794
     /tmp/cciiZT4Y.s:89358  .debug_str:0000000000003043 .LASF2795
     /tmp/cciiZT4Y.s:99804  .debug_str:000000000002dabc .LASF2796
     /tmp/cciiZT4Y.s:98594  .debug_str:0000000000028ebc .LASF2797
     /tmp/cciiZT4Y.s:91328  .debug_str:000000000000b5e2 .LASF2798
     /tmp/cciiZT4Y.s:90696  .debug_str:0000000000008a98 .LASF2799
     /tmp/cciiZT4Y.s:95576  .debug_str:000000000001c6a3 .LASF2800
     /tmp/cciiZT4Y.s:100484  .debug_str:0000000000030807 .LASF2801
     /tmp/cciiZT4Y.s:106160  .debug_str:0000000000047df8 .LASF2802
     /tmp/cciiZT4Y.s:104558  .debug_str:0000000000041093 .LASF2803
     /tmp/cciiZT4Y.s:105770  .debug_str:00000000000463c5 .LASF2804
     /tmp/cciiZT4Y.s:93342  .debug_str:00000000000133ac .LASF2805
     /tmp/cciiZT4Y.s:94754  .debug_str:0000000000018cf3 .LASF2806
     /tmp/cciiZT4Y.s:95338  .debug_str:000000000001b5ce .LASF2807
     /tmp/cciiZT4Y.s:93368  .debug_str:0000000000013566 .LASF2808
     /tmp/cciiZT4Y.s:101902  .debug_str:0000000000036731 .LASF2809
     /tmp/cciiZT4Y.s:104718  .debug_str:0000000000041df7 .LASF2810
     /tmp/cciiZT4Y.s:101878  .debug_str:00000000000365c2 .LASF2811
     /tmp/cciiZT4Y.s:107892  .debug_str:000000000004f350 .LASF2812
     /tmp/cciiZT4Y.s:101976  .debug_str:0000000000036c6c .LASF2813
     /tmp/cciiZT4Y.s:97212  .debug_str:00000000000237d0 .LASF2814
     /tmp/cciiZT4Y.s:94832  .debug_str:0000000000019234 .LASF2815
     /tmp/cciiZT4Y.s:101518  .debug_str:0000000000034cbd .LASF2816
     /tmp/cciiZT4Y.s:105264  .debug_str:000000000004429e .LASF2817
     /tmp/cciiZT4Y.s:91720  .debug_str:000000000000d110 .LASF2818
     /tmp/cciiZT4Y.s:96350  .debug_str:000000000001fc6f .LASF2819
     /tmp/cciiZT4Y.s:101686  .debug_str:000000000003587c .LASF2820
     /tmp/cciiZT4Y.s:90910  .debug_str:00000000000098cf .LASF2821
     /tmp/cciiZT4Y.s:99346  .debug_str:000000000002beea .LASF2822
     /tmp/cciiZT4Y.s:100548  .debug_str:0000000000030c20 .LASF2823
     /tmp/cciiZT4Y.s:94930  .debug_str:0000000000019975 .LASF2824
     /tmp/cciiZT4Y.s:90490  .debug_str:0000000000007cb2 .LASF2825
     /tmp/cciiZT4Y.s:98748  .debug_str:00000000000298b4 .LASF2826
     /tmp/cciiZT4Y.s:102412  .debug_str:0000000000038736 .LASF2827
     /tmp/cciiZT4Y.s:98848  .debug_str:0000000000029f1b .LASF2828
     /tmp/cciiZT4Y.s:97970  .debug_str:0000000000026501 .LASF2829
     /tmp/cciiZT4Y.s:103976  .debug_str:000000000003ea27 .LASF2830
     /tmp/cciiZT4Y.s:101918  .debug_str:0000000000036828 .LASF2831
     /tmp/cciiZT4Y.s:101734  .debug_str:0000000000035baa .LASF2832
     /tmp/cciiZT4Y.s:91834  .debug_str:000000000000d8c1 .LASF2833
     /tmp/cciiZT4Y.s:92020  .debug_str:000000000000e35e .LASF2834
     /tmp/cciiZT4Y.s:103872  .debug_str:000000000003e33f .LASF2835
     /tmp/cciiZT4Y.s:95918  .debug_str:000000000001de69 .LASF2836
     /tmp/cciiZT4Y.s:96636  .debug_str:00000000000210a4 .LASF2837
     /tmp/cciiZT4Y.s:98222  .debug_str:000000000002751f .LASF2838
     /tmp/cciiZT4Y.s:107032  .debug_str:000000000004b830 .LASF2839
     /tmp/cciiZT4Y.s:101454  .debug_str:000000000003471e .LASF2840
     /tmp/cciiZT4Y.s:106980  .debug_str:000000000004b4ef .LASF2841
     /tmp/cciiZT4Y.s:96558  .debug_str:0000000000020c0b .LASF2842
     /tmp/cciiZT4Y.s:92518  .debug_str:0000000000010021 .LASF2843
     /tmp/cciiZT4Y.s:93254  .debug_str:0000000000012cb8 .LASF2844
     /tmp/cciiZT4Y.s:89266  .debug_str:0000000000002a16 .LASF2845
     /tmp/cciiZT4Y.s:96116  .debug_str:000000000001ec2b .LASF2846
     /tmp/cciiZT4Y.s:103730  .debug_str:000000000003d905 .LASF2847
     /tmp/cciiZT4Y.s:96190  .debug_str:000000000001f0c1 .LASF2848
     /tmp/cciiZT4Y.s:94632  .debug_str:0000000000018644 .LASF2849
     /tmp/cciiZT4Y.s:104226  .debug_str:000000000003f978 .LASF2850
     /tmp/cciiZT4Y.s:107914  .debug_str:000000000004f4f1 .LASF2851
     /tmp/cciiZT4Y.s:97068  .debug_str:0000000000022d8b .LASF2852
     /tmp/cciiZT4Y.s:99192  .debug_str:000000000002b57c .LASF2853
     /tmp/cciiZT4Y.s:95728  .debug_str:000000000001d115 .LASF2854
     /tmp/cciiZT4Y.s:90292  .debug_str:0000000000006fa7 .LASF2855
     /tmp/cciiZT4Y.s:101498  .debug_str:0000000000034af4 .LASF2856
     /tmp/cciiZT4Y.s:107502  .debug_str:000000000004d86a .LASF2857
     /tmp/cciiZT4Y.s:100662  .debug_str:000000000003133a .LASF2858
     /tmp/cciiZT4Y.s:98738  .debug_str:00000000000297f6 .LASF2859
     /tmp/cciiZT4Y.s:92472  .debug_str:000000000000fd9e .LASF2860
     /tmp/cciiZT4Y.s:95638  .debug_str:000000000001cb55 .LASF2861
     /tmp/cciiZT4Y.s:101970  .debug_str:0000000000036bf5 .LASF2862
     /tmp/cciiZT4Y.s:107254  .debug_str:000000000004c726 .LASF2863
     /tmp/cciiZT4Y.s:92850  .debug_str:0000000000011249 .LASF2864
     /tmp/cciiZT4Y.s:100496  .debug_str:0000000000030902 .LASF2865
     /tmp/cciiZT4Y.s:101126  .debug_str:00000000000331e5 .LASF2866
     /tmp/cciiZT4Y.s:97586  .debug_str:0000000000024fdb .LASF2867
     /tmp/cciiZT4Y.s:89348  .debug_str:0000000000002f6c .LASF2868
     /tmp/cciiZT4Y.s:104512  .debug_str:0000000000040d0d .LASF2869
     /tmp/cciiZT4Y.s:107522  .debug_str:000000000004da13 .LASF2870
     /tmp/cciiZT4Y.s:88988  .debug_str:0000000000001588 .LASF2871
     /tmp/cciiZT4Y.s:98466  .debug_str:0000000000028596 .LASF2872
     /tmp/cciiZT4Y.s:95238  .debug_str:000000000001af67 .LASF2873
     /tmp/cciiZT4Y.s:93822  .debug_str:0000000000015083 .LASF2874
     /tmp/cciiZT4Y.s:99800  .debug_str:000000000002da3b .LASF2875
     /tmp/cciiZT4Y.s:91806  .debug_str:000000000000d6d4 .LASF2876
     /tmp/cciiZT4Y.s:102102  .debug_str:0000000000037481 .LASF2877
     /tmp/cciiZT4Y.s:101030  .debug_str:0000000000032c0c .LASF2878
     /tmp/cciiZT4Y.s:91354  .debug_str:000000000000b7c3 .LASF2879
     /tmp/cciiZT4Y.s:90484  .debug_str:0000000000007c4f .LASF2880
     /tmp/cciiZT4Y.s:96400  .debug_str:00000000000200c6 .LASF2881
     /tmp/cciiZT4Y.s:98320  .debug_str:0000000000027c2a .LASF2882
     /tmp/cciiZT4Y.s:91522  .debug_str:000000000000c33a .LASF2883
     /tmp/cciiZT4Y.s:98740  .debug_str:0000000000029831 .LASF2884
     /tmp/cciiZT4Y.s:106256  .debug_str:0000000000048429 .LASF2885
     /tmp/cciiZT4Y.s:93262  .debug_str:0000000000012d53 .LASF2886
     /tmp/cciiZT4Y.s:97280  .debug_str:0000000000023c50 .LASF2887
     /tmp/cciiZT4Y.s:107346  .debug_str:000000000004ce08 .LASF2888
     /tmp/cciiZT4Y.s:92300  .debug_str:000000000000f2ad .LASF2889
     /tmp/cciiZT4Y.s:99754  .debug_str:000000000002d729 .LASF2890
     /tmp/cciiZT4Y.s:106962  .debug_str:000000000004b3a2 .LASF2891
     /tmp/cciiZT4Y.s:90418  .debug_str:0000000000007852 .LASF2892
     /tmp/cciiZT4Y.s:104026  .debug_str:000000000003ec77 .LASF2893
     /tmp/cciiZT4Y.s:107454  .debug_str:000000000004d4c1 .LASF2894
     /tmp/cciiZT4Y.s:88862  .debug_str:0000000000000d42 .LASF2895
     /tmp/cciiZT4Y.s:100032  .debug_str:000000000002e9a9 .LASF2896
     /tmp/cciiZT4Y.s:89486  .debug_str:0000000000003805 .LASF2897
     /tmp/cciiZT4Y.s:92370  .debug_str:000000000000f70b .LASF2898
     /tmp/cciiZT4Y.s:94462  .debug_str:0000000000017b38 .LASF2899
     /tmp/cciiZT4Y.s:104444  .debug_str:00000000000406c6 .LASF2900
     /tmp/cciiZT4Y.s:96176  .debug_str:000000000001efd2 .LASF2901
     /tmp/cciiZT4Y.s:90872  .debug_str:0000000000009659 .LASF2902
     /tmp/cciiZT4Y.s:91544  .debug_str:000000000000c475 .LASF2903
     /tmp/cciiZT4Y.s:97824  .debug_str:0000000000025d42 .LASF2904
     /tmp/cciiZT4Y.s:91436  .debug_str:000000000000be07 .LASF2905
     /tmp/cciiZT4Y.s:107324  .debug_str:000000000004cc45 .LASF2906
     /tmp/cciiZT4Y.s:104126  .debug_str:000000000003f2df .LASF2907
     /tmp/cciiZT4Y.s:106574  .debug_str:00000000000498a4 .LASF2908
     /tmp/cciiZT4Y.s:102078  .debug_str:000000000003730a .LASF2909
     /tmp/cciiZT4Y.s:88748  .debug_str:00000000000005eb .LASF2910
     /tmp/cciiZT4Y.s:94436  .debug_str:00000000000179a1 .LASF2911
     /tmp/cciiZT4Y.s:100094  .debug_str:000000000002ee28 .LASF2912
     /tmp/cciiZT4Y.s:105986  .debug_str:000000000004719c .LASF2913
     /tmp/cciiZT4Y.s:103364  .debug_str:000000000003c15e .LASF2914
     /tmp/cciiZT4Y.s:104498  .debug_str:0000000000040c09 .LASF2915
     /tmp/cciiZT4Y.s:94676  .debug_str:0000000000018900 .LASF2916
     /tmp/cciiZT4Y.s:91352  .debug_str:000000000000b77d .LASF2917
     /tmp/cciiZT4Y.s:92464  .debug_str:000000000000fd22 .LASF2918
     /tmp/cciiZT4Y.s:94602  .debug_str:0000000000018440 .LASF2919
     /tmp/cciiZT4Y.s:103686  .debug_str:000000000003d5a6 .LASF2920
     /tmp/cciiZT4Y.s:89098  .debug_str:0000000000001ea1 .LASF2921
     /tmp/cciiZT4Y.s:95388  .debug_str:000000000001b912 .LASF2922
     /tmp/cciiZT4Y.s:99582  .debug_str:000000000002cd10 .LASF2923
     /tmp/cciiZT4Y.s:94334  .debug_str:0000000000017216 .LASF2924
     /tmp/cciiZT4Y.s:90400  .debug_str:000000000000768f .LASF2925
     /tmp/cciiZT4Y.s:93282  .debug_str:0000000000012f01 .LASF2926
     /tmp/cciiZT4Y.s:98656  .debug_str:000000000002935b .LASF2927
     /tmp/cciiZT4Y.s:98080  .debug_str:0000000000026c58 .LASF2928
     /tmp/cciiZT4Y.s:105826  .debug_str:0000000000046766 .LASF2929
     /tmp/cciiZT4Y.s:96142  .debug_str:000000000001ed60 .LASF2930
     /tmp/cciiZT4Y.s:92594  .debug_str:00000000000103d0 .LASF2931
     /tmp/cciiZT4Y.s:101374  .debug_str:000000000003426a .LASF2932
     /tmp/cciiZT4Y.s:104862  .debug_str:00000000000428c7 .LASF2933
     /tmp/cciiZT4Y.s:103282  .debug_str:000000000003bb70 .LASF2934
     /tmp/cciiZT4Y.s:90350  .debug_str:00000000000073e9 .LASF2935
     /tmp/cciiZT4Y.s:105274  .debug_str:0000000000044346 .LASF2936
     /tmp/cciiZT4Y.s:100156  .debug_str:000000000002f1f8 .LASF2937
     /tmp/cciiZT4Y.s:99900  .debug_str:000000000002e0d1 .LASF2938
     /tmp/cciiZT4Y.s:101728  .debug_str:0000000000035b06 .LASF2939
     /tmp/cciiZT4Y.s:90830  .debug_str:0000000000009398 .LASF2940
     /tmp/cciiZT4Y.s:107060  .debug_str:000000000004ba21 .LASF2941
     /tmp/cciiZT4Y.s:97020  .debug_str:0000000000022a5a .LASF2942
     /tmp/cciiZT4Y.s:94608  .debug_str:00000000000184c5 .LASF2943
     /tmp/cciiZT4Y.s:105724  .debug_str:00000000000460f2 .LASF2944
     /tmp/cciiZT4Y.s:97060  .debug_str:0000000000022d12 .LASF2945
     /tmp/cciiZT4Y.s:91586  .debug_str:000000000000c77e .LASF2946
     /tmp/cciiZT4Y.s:89334  .debug_str:0000000000002e65 .LASF2947
     /tmp/cciiZT4Y.s:91184  .debug_str:000000000000ab59 .LASF2948
     /tmp/cciiZT4Y.s:92964  .debug_str:0000000000011943 .LASF2949
     /tmp/cciiZT4Y.s:98104  .debug_str:0000000000026e47 .LASF2950
     /tmp/cciiZT4Y.s:97410  .debug_str:0000000000024523 .LASF2951
     /tmp/cciiZT4Y.s:93164  .debug_str:00000000000126b8 .LASF2952
     /tmp/cciiZT4Y.s:101036  .debug_str:0000000000032c71 .LASF2953
     /tmp/cciiZT4Y.s:98304  .debug_str:0000000000027ae7 .LASF2954
     /tmp/cciiZT4Y.s:97146  .debug_str:0000000000023289 .LASF2955
     /tmp/cciiZT4Y.s:94446  .debug_str:0000000000017a1d .LASF2956
     /tmp/cciiZT4Y.s:96984  .debug_str:00000000000227eb .LASF2957
     /tmp/cciiZT4Y.s:99706  .debug_str:000000000002d433 .LASF2958
     /tmp/cciiZT4Y.s:91462  .debug_str:000000000000bf95 .LASF2959
     /tmp/cciiZT4Y.s:95452  .debug_str:000000000001bdba .LASF2960
     /tmp/cciiZT4Y.s:93524  .debug_str:0000000000013eb1 .LASF2961
     /tmp/cciiZT4Y.s:94620  .debug_str:000000000001859c .LASF2962
     /tmp/cciiZT4Y.s:95546  .debug_str:000000000001c406 .LASF2963
     /tmp/cciiZT4Y.s:90044  .debug_str:0000000000005e03 .LASF2964
     /tmp/cciiZT4Y.s:100416  .debug_str:000000000003033f .LASF2965
     /tmp/cciiZT4Y.s:93438  .debug_str:0000000000013996 .LASF2966
     /tmp/cciiZT4Y.s:106290  .debug_str:000000000004864d .LASF2967
     /tmp/cciiZT4Y.s:102312  .debug_str:000000000003810f .LASF2968
     /tmp/cciiZT4Y.s:93046  .debug_str:0000000000011ef1 .LASF2969
     /tmp/cciiZT4Y.s:94540  .debug_str:000000000001801b .LASF2970
     /tmp/cciiZT4Y.s:89034  .debug_str:00000000000019c7 .LASF2971
     /tmp/cciiZT4Y.s:90876  .debug_str:00000000000096bd .LASF2972
     /tmp/cciiZT4Y.s:96086  .debug_str:000000000001ea83 .LASF2973
     /tmp/cciiZT4Y.s:103868  .debug_str:000000000003e2f7 .LASF2974
     /tmp/cciiZT4Y.s:96510  .debug_str:0000000000020934 .LASF2975
     /tmp/cciiZT4Y.s:97058  .debug_str:0000000000022ce1 .LASF2976
     /tmp/cciiZT4Y.s:103714  .debug_str:000000000003d795 .LASF2977
     /tmp/cciiZT4Y.s:100846  .debug_str:0000000000031ea2 .LASF2978
     /tmp/cciiZT4Y.s:105738  .debug_str:0000000000046239 .LASF2979
     /tmp/cciiZT4Y.s:106398  .debug_str:0000000000048d18 .LASF2980
     /tmp/cciiZT4Y.s:89930  .debug_str:000000000000568f .LASF2981
     /tmp/cciiZT4Y.s:98142  .debug_str:000000000002708e .LASF2982
     /tmp/cciiZT4Y.s:103180  .debug_str:000000000003b510 .LASF2983
     /tmp/cciiZT4Y.s:91620  .debug_str:000000000000ca02 .LASF2984
     /tmp/cciiZT4Y.s:91200  .debug_str:000000000000ac1a .LASF2985
     /tmp/cciiZT4Y.s:103292  .debug_str:000000000003bc20 .LASF2986
     /tmp/cciiZT4Y.s:103806  .debug_str:000000000003de77 .LASF2987
     /tmp/cciiZT4Y.s:89638  .debug_str:0000000000004308 .LASF2988
     /tmp/cciiZT4Y.s:102498  .debug_str:0000000000038c35 .LASF2989
     /tmp/cciiZT4Y.s:96428  .debug_str:000000000002028d .LASF2990
     /tmp/cciiZT4Y.s:93372  .debug_str:00000000000135b3 .LASF2991
     /tmp/cciiZT4Y.s:96422  .debug_str:000000000002022c .LASF2992
     /tmp/cciiZT4Y.s:103758  .debug_str:000000000003db13 .LASF2993
     /tmp/cciiZT4Y.s:95370  .debug_str:000000000001b7df .LASF2994
     /tmp/cciiZT4Y.s:97422  .debug_str:0000000000024617 .LASF2995
     /tmp/cciiZT4Y.s:99858  .debug_str:000000000002de22 .LASF2996
     /tmp/cciiZT4Y.s:103810  .debug_str:000000000003dee1 .LASF2997
     /tmp/cciiZT4Y.s:90146  .debug_str:00000000000064cd .LASF2998
     /tmp/cciiZT4Y.s:97126  .debug_str:000000000002310d .LASF2999
     /tmp/cciiZT4Y.s:101710  .debug_str:00000000000359ee .LASF3000
     /tmp/cciiZT4Y.s:106778  .debug_str:000000000004a60a .LASF3001
     /tmp/cciiZT4Y.s:90254  .debug_str:0000000000006c44 .LASF3002
     /tmp/cciiZT4Y.s:91172  .debug_str:000000000000aa53 .LASF3003
     /tmp/cciiZT4Y.s:107094  .debug_str:000000000004bc77 .LASF3004
     /tmp/cciiZT4Y.s:98052  .debug_str:0000000000026ac6 .LASF3005
     /tmp/cciiZT4Y.s:93676  .debug_str:0000000000014842 .LASF3006
     /tmp/cciiZT4Y.s:95260  .debug_str:000000000001b0b8 .LASF3007
     /tmp/cciiZT4Y.s:105584  .debug_str:000000000004580e .LASF3008
     /tmp/cciiZT4Y.s:100206  .debug_str:000000000002f5cf .LASF3009
     /tmp/cciiZT4Y.s:101528  .debug_str:0000000000034d6f .LASF3010
     /tmp/cciiZT4Y.s:107124  .debug_str:000000000004be5f .LASF3011
     /tmp/cciiZT4Y.s:96696  .debug_str:00000000000214ab .LASF3012
     /tmp/cciiZT4Y.s:103194  .debug_str:000000000003b614 .LASF3013
     /tmp/cciiZT4Y.s:93988  .debug_str:0000000000015bb6 .LASF3014
     /tmp/cciiZT4Y.s:103582  .debug_str:000000000003cf35 .LASF3015
     /tmp/cciiZT4Y.s:104728  .debug_str:0000000000041ef9 .LASF3016
     /tmp/cciiZT4Y.s:105382  .debug_str:0000000000044aa0 .LASF3017
     /tmp/cciiZT4Y.s:94178  .debug_str:0000000000016758 .LASF3018
     /tmp/cciiZT4Y.s:95888  .debug_str:000000000001dc52 .LASF3019
     /tmp/cciiZT4Y.s:99036  .debug_str:000000000002ab3d .LASF3020
     /tmp/cciiZT4Y.s:105098  .debug_str:0000000000043844 .LASF3021
     /tmp/cciiZT4Y.s:96646  .debug_str:000000000002116e .LASF3022
     /tmp/cciiZT4Y.s:95144  .debug_str:000000000001a82a .LASF3023
     /tmp/cciiZT4Y.s:95346  .debug_str:000000000001b6a3 .LASF3024
     /tmp/cciiZT4Y.s:94956  .debug_str:0000000000019b2f .LASF3025
     /tmp/cciiZT4Y.s:101676  .debug_str:000000000003575c .LASF3026
     /tmp/cciiZT4Y.s:93232  .debug_str:0000000000012b2e .LASF3027
     /tmp/cciiZT4Y.s:98966  .debug_str:000000000002a734 .LASF3028
     /tmp/cciiZT4Y.s:100476  .debug_str:000000000003072e .LASF3029
     /tmp/cciiZT4Y.s:90312  .debug_str:000000000000712e .LASF3030
     /tmp/cciiZT4Y.s:95360  .debug_str:000000000001b738 .LASF3031
     /tmp/cciiZT4Y.s:105058  .debug_str:000000000004357b .LASF3032
     /tmp/cciiZT4Y.s:93300  .debug_str:000000000001301e .LASF3033
     /tmp/cciiZT4Y.s:89748  .debug_str:0000000000004b12 .LASF3034
     /tmp/cciiZT4Y.s:107618  .debug_str:000000000004e115 .LASF3035
     /tmp/cciiZT4Y.s:92860  .debug_str:000000000001132c .LASF3036
     /tmp/cciiZT4Y.s:90176  .debug_str:00000000000066ca .LASF3037
     /tmp/cciiZT4Y.s:103558  .debug_str:000000000003cda6 .LASF3038
     /tmp/cciiZT4Y.s:101768  .debug_str:0000000000035e7f .LASF3039
     /tmp/cciiZT4Y.s:104834  .debug_str:00000000000426c0 .LASF3040
     /tmp/cciiZT4Y.s:97298  .debug_str:0000000000023d57 .LASF3041
     /tmp/cciiZT4Y.s:95750  .debug_str:000000000001d281 .LASF3042
     /tmp/cciiZT4Y.s:94352  .debug_str:00000000000172fc .LASF3043
     /tmp/cciiZT4Y.s:106078  .debug_str:00000000000477f4 .LASF3044
     /tmp/cciiZT4Y.s:104976  .debug_str:0000000000042fd3 .LASF3045
     /tmp/cciiZT4Y.s:101920  .debug_str:0000000000036869 .LASF3046
     /tmp/cciiZT4Y.s:89120  .debug_str:0000000000002013 .LASF3047
     /tmp/cciiZT4Y.s:103176  .debug_str:000000000003b48f .LASF3048
     /tmp/cciiZT4Y.s:101708  .debug_str:00000000000359b6 .LASF3049
     /tmp/cciiZT4Y.s:93580  .debug_str:0000000000014231 .LASF3050
     /tmp/cciiZT4Y.s:91040  .debug_str:000000000000a20a .LASF3051
     /tmp/cciiZT4Y.s:103930  .debug_str:000000000003e71a .LASF3052
     /tmp/cciiZT4Y.s:101810  .debug_str:00000000000360eb .LASF3053
     /tmp/cciiZT4Y.s:89626  .debug_str:0000000000004217 .LASF3054
     /tmp/cciiZT4Y.s:100754  .debug_str:0000000000031946 .LASF3055
     /tmp/cciiZT4Y.s:103172  .debug_str:000000000003b416 .LASF3056
     /tmp/cciiZT4Y.s:93974  .debug_str:0000000000015a5b .LASF3057
     /tmp/cciiZT4Y.s:107500  .debug_str:000000000004d829 .LASF3058
     /tmp/cciiZT4Y.s:95442  .debug_str:000000000001bd46 .LASF3059
     /tmp/cciiZT4Y.s:107272  .debug_str:000000000004c827 .LASF3060
     /tmp/cciiZT4Y.s:107692  .debug_str:000000000004e6ab .LASF3061
     /tmp/cciiZT4Y.s:99558  .debug_str:000000000002cb55 .LASF3062
     /tmp/cciiZT4Y.s:92628  .debug_str:00000000000105cc .LASF3063
     /tmp/cciiZT4Y.s:102266  .debug_str:0000000000037e7e .LASF3064
     /tmp/cciiZT4Y.s:93852  .debug_str:00000000000152cc .LASF3065
     /tmp/cciiZT4Y.s:101678  .debug_str:0000000000035796 .LASF3066
     /tmp/cciiZT4Y.s:104066  .debug_str:000000000003ef06 .LASF3067
     /tmp/cciiZT4Y.s:95974  .debug_str:000000000001e245 .LASF3068
     /tmp/cciiZT4Y.s:105138  .debug_str:0000000000043ab8 .LASF3069
     /tmp/cciiZT4Y.s:95484  .debug_str:000000000001bf9c .LASF3070
     /tmp/cciiZT4Y.s:106664  .debug_str:0000000000049ede .LASF3071
     /tmp/cciiZT4Y.s:105854  .debug_str:00000000000468c2 .LASF3072
     /tmp/cciiZT4Y.s:101966  .debug_str:0000000000036b91 .LASF3073
     /tmp/cciiZT4Y.s:88930  .debug_str:00000000000011d6 .LASF3074
     /tmp/cciiZT4Y.s:96994  .debug_str:00000000000228be .LASF3075
     /tmp/cciiZT4Y.s:103042  .debug_str:000000000003aaf4 .LASF3076
     /tmp/cciiZT4Y.s:91372  .debug_str:000000000000b8e3 .LASF3077
     /tmp/cciiZT4Y.s:89596  .debug_str:0000000000003fdf .LASF3078
     /tmp/cciiZT4Y.s:105922  .debug_str:0000000000046de8 .LASF3079
     /tmp/cciiZT4Y.s:104994  .debug_str:00000000000430ea .LASF3080
     /tmp/cciiZT4Y.s:101242  .debug_str:00000000000339e6 .LASF3081
     /tmp/cciiZT4Y.s:89148  .debug_str:00000000000021e5 .LASF3082
     /tmp/cciiZT4Y.s:96392  .debug_str:000000000002001f .LASF3083
     /tmp/cciiZT4Y.s:98868  .debug_str:000000000002a071 .LASF3084
     /tmp/cciiZT4Y.s:92500  .debug_str:000000000000febf .LASF3085
     /tmp/cciiZT4Y.s:98662  .debug_str:00000000000293c7 .LASF3086
     /tmp/cciiZT4Y.s:90452  .debug_str:0000000000007a61 .LASF3087
     /tmp/cciiZT4Y.s:104240  .debug_str:000000000003fa3a .LASF3088
     /tmp/cciiZT4Y.s:102410  .debug_str:00000000000386f9 .LASF3089
     /tmp/cciiZT4Y.s:104616  .debug_str:0000000000041508 .LASF3090
     /tmp/cciiZT4Y.s:103370  .debug_str:000000000003c20c .LASF3091
     /tmp/cciiZT4Y.s:90282  .debug_str:0000000000006ea3 .LASF3092
     /tmp/cciiZT4Y.s:98824  .debug_str:0000000000029d7f .LASF3093
     /tmp/cciiZT4Y.s:95614  .debug_str:000000000001c969 .LASF3094
     /tmp/cciiZT4Y.s:105920  .debug_str:0000000000046dae .LASF3095
     /tmp/cciiZT4Y.s:99852  .debug_str:000000000002dd91 .LASF3096
     /tmp/cciiZT4Y.s:102356  .debug_str:0000000000038460 .LASF3097
     /tmp/cciiZT4Y.s:106236  .debug_str:00000000000482a8 .LASF3098
     /tmp/cciiZT4Y.s:102176  .debug_str:0000000000037935 .LASF3099
     /tmp/cciiZT4Y.s:89142  .debug_str:0000000000002175 .LASF3100
     /tmp/cciiZT4Y.s:105782  .debug_str:00000000000464a5 .LASF3101
     /tmp/cciiZT4Y.s:99556  .debug_str:000000000002cb1a .LASF3102
     /tmp/cciiZT4Y.s:96464  .debug_str:0000000000020540 .LASF3103
     /tmp/cciiZT4Y.s:90600  .debug_str:00000000000083d9 .LASF3104
     /tmp/cciiZT4Y.s:104922  .debug_str:0000000000042bc1 .LASF3105
     /tmp/cciiZT4Y.s:100348  .debug_str:000000000002ff22 .LASF3106
     /tmp/cciiZT4Y.s:98268  .debug_str:0000000000027888 .LASF3107
     /tmp/cciiZT4Y.s:103186  .debug_str:000000000003b5a9 .LASF3108
     /tmp/cciiZT4Y.s:93610  .debug_str:00000000000143f2 .LASF3109
     /tmp/cciiZT4Y.s:94796  .debug_str:0000000000018fef .LASF3110
     /tmp/cciiZT4Y.s:90680  .debug_str:0000000000008980 .LASF3111
     /tmp/cciiZT4Y.s:106556  .debug_str:0000000000049760 .LASF3112
     /tmp/cciiZT4Y.s:94938  .debug_str:00000000000199f9 .LASF3113
     /tmp/cciiZT4Y.s:107058  .debug_str:000000000004b9e9 .LASF3114
     /tmp/cciiZT4Y.s:105314  .debug_str:00000000000445d9 .LASF3115
     /tmp/cciiZT4Y.s:106022  .debug_str:0000000000047476 .LASF3116
     /tmp/cciiZT4Y.s:94048  .debug_str:0000000000015f62 .LASF3117
     /tmp/cciiZT4Y.s:92772  .debug_str:0000000000010d69 .LASF3118
     /tmp/cciiZT4Y.s:91676  .debug_str:000000000000ce52 .LASF3119
     /tmp/cciiZT4Y.s:100730  .debug_str:00000000000317af .LASF3120
     /tmp/cciiZT4Y.s:88794  .debug_str:00000000000008f2 .LASF3121
     /tmp/cciiZT4Y.s:98372  .debug_str:0000000000027f8b .LASF3122
     /tmp/cciiZT4Y.s:107798  .debug_str:000000000004ed7a .LASF3123
     /tmp/cciiZT4Y.s:100608  .debug_str:0000000000030fc4 .LASF3124
     /tmp/cciiZT4Y.s:97882  .debug_str:0000000000025f69 .LASF3125
     /tmp/cciiZT4Y.s:100284  .debug_str:000000000002fae7 .LASF3126
     /tmp/cciiZT4Y.s:105244  .debug_str:0000000000044160 .LASF3127
     /tmp/cciiZT4Y.s:95232  .debug_str:000000000001aec6 .LASF3128
     /tmp/cciiZT4Y.s:96900  .debug_str:0000000000022272 .LASF3129
     /tmp/cciiZT4Y.s:106030  .debug_str:00000000000474db .LASF3130
     /tmp/cciiZT4Y.s:100218  .debug_str:000000000002f6d4 .LASF3131
     /tmp/cciiZT4Y.s:107904  .debug_str:000000000004f420 .LASF3132
     /tmp/cciiZT4Y.s:108044  .debug_str:000000000004fdf5 .LASF3133
     /tmp/cciiZT4Y.s:97884  .debug_str:0000000000025fa7 .LASF3134
     /tmp/cciiZT4Y.s:93870  .debug_str:00000000000153d0 .LASF3135
     /tmp/cciiZT4Y.s:95564  .debug_str:000000000001c5f8 .LASF3136
     /tmp/cciiZT4Y.s:107772  .debug_str:000000000004eb5e .LASF3137
     /tmp/cciiZT4Y.s:104690  .debug_str:000000000004199d .LASF3138
     /tmp/cciiZT4Y.s:93318  .debug_str:000000000001313a .LASF3139
     /tmp/cciiZT4Y.s:92798  .debug_str:0000000000010f99 .LASF3140
     /tmp/cciiZT4Y.s:102898  .debug_str:000000000003a137 .LASF3141
     /tmp/cciiZT4Y.s:107300  .debug_str:000000000004ca48 .LASF3142
     /tmp/cciiZT4Y.s:101262  .debug_str:0000000000033b44 .LASF3143
     /tmp/cciiZT4Y.s:102618  .debug_str:000000000003928a .LASF3144
     /tmp/cciiZT4Y.s:102398  .debug_str:000000000003862b .LASF3145
     /tmp/cciiZT4Y.s:89172  .debug_str:00000000000023e6 .LASF3146
     /tmp/cciiZT4Y.s:105892  .debug_str:0000000000046bb3 .LASF3147
     /tmp/cciiZT4Y.s:98892  .debug_str:000000000002a22b .LASF3148
     /tmp/cciiZT4Y.s:96016  .debug_str:000000000001e579 .LASF3149
     /tmp/cciiZT4Y.s:104476  .debug_str:0000000000040966 .LASF3150
     /tmp/cciiZT4Y.s:97952  .debug_str:000000000002641f .LASF3151
     /tmp/cciiZT4Y.s:88870  .debug_str:0000000000000db9 .LASF3152
     /tmp/cciiZT4Y.s:104662  .debug_str:00000000000417f2 .LASF3153
     /tmp/cciiZT4Y.s:92458  .debug_str:000000000000fc71 .LASF3154
     /tmp/cciiZT4Y.s:90034  .debug_str:0000000000005d4f .LASF3155
     /tmp/cciiZT4Y.s:92894  .debug_str:0000000000011561 .LASF3156
     /tmp/cciiZT4Y.s:91272  .debug_str:000000000000b1bc .LASF3157
     /tmp/cciiZT4Y.s:106506  .debug_str:0000000000049451 .LASF3158
     /tmp/cciiZT4Y.s:102784  .debug_str:0000000000039b4a .LASF3159
     /tmp/cciiZT4Y.s:89952  .debug_str:00000000000057f2 .LASF3160
     /tmp/cciiZT4Y.s:100038  .debug_str:000000000002ea18 .LASF3161
     /tmp/cciiZT4Y.s:103246  .debug_str:000000000003b8f4 .LASF3162
     /tmp/cciiZT4Y.s:101354  .debug_str:0000000000034119 .LASF3163
     /tmp/cciiZT4Y.s:107030  .debug_str:000000000004b7ed .LASF3164
     /tmp/cciiZT4Y.s:106386  .debug_str:0000000000048c51 .LASF3165
     /tmp/cciiZT4Y.s:97658  .debug_str:0000000000025457 .LASF3166
     /tmp/cciiZT4Y.s:97558  .debug_str:0000000000024ed2 .LASF3167
     /tmp/cciiZT4Y.s:88950  .debug_str:000000000000130c .LASF3168
     /tmp/cciiZT4Y.s:99922  .debug_str:000000000002e257 .LASF3169
     /tmp/cciiZT4Y.s:107436  .debug_str:000000000004d38f .LASF3170
     /tmp/cciiZT4Y.s:90916  .debug_str:00000000000099a4 .LASF3171
     /tmp/cciiZT4Y.s:104276  .debug_str:000000000003fc57 .LASF3172
     /tmp/cciiZT4Y.s:99182  .debug_str:000000000002b426 .LASF3173
     /tmp/cciiZT4Y.s:98506  .debug_str:0000000000028871 .LASF3174
     /tmp/cciiZT4Y.s:92998  .debug_str:0000000000011ba5 .LASF3175
     /tmp/cciiZT4Y.s:106920  .debug_str:000000000004b06a .LASF3176
     /tmp/cciiZT4Y.s:103348  .debug_str:000000000003c040 .LASF3177
     /tmp/cciiZT4Y.s:104612  .debug_str:00000000000414c0 .LASF3178
     /tmp/cciiZT4Y.s:92068  .debug_str:000000000000e646 .LASF3179
     /tmp/cciiZT4Y.s:90710  .debug_str:0000000000008b93 .LASF3180
     /tmp/cciiZT4Y.s:105910  .debug_str:0000000000046cde .LASF3181
     /tmp/cciiZT4Y.s:88772  .debug_str:0000000000000771 .LASF3182
     /tmp/cciiZT4Y.s:101746  .debug_str:0000000000035ca3 .LASF3183
     /tmp/cciiZT4Y.s:96718  .debug_str:000000000002165b .LASF3184
     /tmp/cciiZT4Y.s:98734  .debug_str:0000000000029794 .LASF3185
     /tmp/cciiZT4Y.s:96988  .debug_str:0000000000022843 .LASF3186
     /tmp/cciiZT4Y.s:94772  .debug_str:0000000000018e61 .LASF3187
     /tmp/cciiZT4Y.s:89478  .debug_str:0000000000003769 .LASF3188
     /tmp/cciiZT4Y.s:104068  .debug_str:000000000003ef46 .LASF3189
     /tmp/cciiZT4Y.s:97584  .debug_str:0000000000024f93 .LASF3190
     /tmp/cciiZT4Y.s:95038  .debug_str:000000000001a08e .LASF3191
     /tmp/cciiZT4Y.s:104778  .debug_str:0000000000042274 .LASF3192
     /tmp/cciiZT4Y.s:97770  .debug_str:000000000002599e .LASF3193
     /tmp/cciiZT4Y.s:96660  .debug_str:0000000000021265 .LASF3194
     /tmp/cciiZT4Y.s:108030  .debug_str:000000000004fce1 .LASF3195
     /tmp/cciiZT4Y.s:88740  .debug_str:000000000000054e .LASF3196
     /tmp/cciiZT4Y.s:105720  .debug_str:000000000004607e .LASF3197
     /tmp/cciiZT4Y.s:98532  .debug_str:0000000000028a92 .LASF3198
     /tmp/cciiZT4Y.s:103770  .debug_str:000000000003dc22 .LASF3199
     /tmp/cciiZT4Y.s:98488  .debug_str:0000000000028736 .LASF3200
     /tmp/cciiZT4Y.s:103878  .debug_str:000000000003e397 .LASF3201
     /tmp/cciiZT4Y.s:106456  .debug_str:0000000000049136 .LASF3202
     /tmp/cciiZT4Y.s:94210  .debug_str:00000000000169bc .LASF3203
     /tmp/cciiZT4Y.s:96550  .debug_str:0000000000020b78 .LASF3204
     /tmp/cciiZT4Y.s:107862  .debug_str:000000000004f166 .LASF3205
     /tmp/cciiZT4Y.s:106004  .debug_str:0000000000047306 .LASF3206
     /tmp/cciiZT4Y.s:100620  .debug_str:0000000000031067 .LASF3207
     /tmp/cciiZT4Y.s:100624  .debug_str:00000000000310ba .LASF3208
     /tmp/cciiZT4Y.s:97340  .debug_str:0000000000024004 .LASF3209
     /tmp/cciiZT4Y.s:104620  .debug_str:0000000000041565 .LASF3210
     /tmp/cciiZT4Y.s:90226  .debug_str:0000000000006a4e .LASF3211
     /tmp/cciiZT4Y.s:93848  .debug_str:000000000001525c .LASF3212
     /tmp/cciiZT4Y.s:90704  .debug_str:0000000000008b09 .LASF3213
     /tmp/cciiZT4Y.s:99718  .debug_str:000000000002d4e1 .LASF3214
     /tmp/cciiZT4Y.s:105682  .debug_str:0000000000045e05 .LASF3215
     /tmp/cciiZT4Y.s:104416  .debug_str:00000000000404d5 .LASF3216
     /tmp/cciiZT4Y.s:88788  .debug_str:0000000000000865 .LASF3217
     /tmp/cciiZT4Y.s:100926  .debug_str:000000000003244a .LASF3218
     /tmp/cciiZT4Y.s:90708  .debug_str:0000000000008b52 .LASF3219
     /tmp/cciiZT4Y.s:99418  .debug_str:000000000002c380 .LASF3220
     /tmp/cciiZT4Y.s:100460  .debug_str:000000000003061a .LASF3221
     /tmp/cciiZT4Y.s:104056  .debug_str:000000000003ee7f .LASF3222
     /tmp/cciiZT4Y.s:102366  .debug_str:0000000000038540 .LASF3223
     /tmp/cciiZT4Y.s:89404  .debug_str:000000000000332d .LASF3224
     /tmp/cciiZT4Y.s:103848  .debug_str:000000000003e1b1 .LASF3225
     /tmp/cciiZT4Y.s:102812  .debug_str:0000000000039c50 .LASF3226
     /tmp/cciiZT4Y.s:95436  .debug_str:000000000001bcb3 .LASF3227
     /tmp/cciiZT4Y.s:93922  .debug_str:00000000000156db .LASF3228
     /tmp/cciiZT4Y.s:102040  .debug_str:0000000000037034 .LASF3229
     /tmp/cciiZT4Y.s:105176  .debug_str:0000000000043d52 .LASF3230
     /tmp/cciiZT4Y.s:103944  .debug_str:000000000003e804 .LASF3231
     /tmp/cciiZT4Y.s:96360  .debug_str:000000000001fd49 .LASF3232
     /tmp/cciiZT4Y.s:105558  .debug_str:000000000004564d .LASF3233
     /tmp/cciiZT4Y.s:106940  .debug_str:000000000004b1d8 .LASF3234
     /tmp/cciiZT4Y.s:96504  .debug_str:00000000000208d1 .LASF3235
     /tmp/cciiZT4Y.s:94482  .debug_str:0000000000017cf5 .LASF3236
     /tmp/cciiZT4Y.s:106818  .debug_str:000000000004a908 .LASF3237
     /tmp/cciiZT4Y.s:90118  .debug_str:00000000000062d1 .LASF3238
     /tmp/cciiZT4Y.s:95636  .debug_str:000000000001cb15 .LASF3239
     /tmp/cciiZT4Y.s:105298  .debug_str:0000000000044525 .LASF3240
     /tmp/cciiZT4Y.s:99022  .debug_str:000000000002aa03 .LASF3241
     /tmp/cciiZT4Y.s:93456  .debug_str:0000000000013a93 .LASF3242
     /tmp/cciiZT4Y.s:99094  .debug_str:000000000002aef0 .LASF3243
     /tmp/cciiZT4Y.s:106072  .debug_str:0000000000047785 .LASF3244
     /tmp/cciiZT4Y.s:105012  .debug_str:0000000000043263 .LASF3245
     /tmp/cciiZT4Y.s:93078  .debug_str:0000000000012139 .LASF3246
     /tmp/cciiZT4Y.s:105288  .debug_str:0000000000044490 .LASF3247
     /tmp/cciiZT4Y.s:93086  .debug_str:00000000000121d5 .LASF3248
     /tmp/cciiZT4Y.s:93192  .debug_str:0000000000012829 .LASF3249
     /tmp/cciiZT4Y.s:96808  .debug_str:0000000000021d46 .LASF3250
     /tmp/cciiZT4Y.s:104868  .debug_str:0000000000042939 .LASF3251
     /tmp/cciiZT4Y.s:89954  .debug_str:0000000000005832 .LASF3252
     /tmp/cciiZT4Y.s:90004  .debug_str:0000000000005b9e .LASF3253
     /tmp/cciiZT4Y.s:101214  .debug_str:0000000000033834 .LASF3254
     /tmp/cciiZT4Y.s:91622  .debug_str:000000000000ca3d .LASF3255
     /tmp/cciiZT4Y.s:98836  .debug_str:0000000000029e58 .LASF3256
     /tmp/cciiZT4Y.s:103490  .debug_str:000000000003c94f .LASF3257
     /tmp/cciiZT4Y.s:96462  .debug_str:0000000000020504 .LASF3258
     /tmp/cciiZT4Y.s:89238  .debug_str:00000000000027fb .LASF3259
     /tmp/cciiZT4Y.s:88970  .debug_str:000000000000146d .LASF3260
     /tmp/cciiZT4Y.s:100742  .debug_str:0000000000031895 .LASF3261
     /tmp/cciiZT4Y.s:105168  .debug_str:0000000000043c95 .LASF3262
     /tmp/cciiZT4Y.s:90672  .debug_str:00000000000088c3 .LASF3263
     /tmp/cciiZT4Y.s:105790  .debug_str:00000000000464f7 .LASF3264
     /tmp/cciiZT4Y.s:100312  .debug_str:000000000002fc74 .LASF3265
     /tmp/cciiZT4Y.s:95622  .debug_str:000000000001ca34 .LASF3266
     /tmp/cciiZT4Y.s:90260  .debug_str:0000000000006ca5 .LASF3267
     /tmp/cciiZT4Y.s:103782  .debug_str:000000000003dd3c .LASF3268
     /tmp/cciiZT4Y.s:90048  .debug_str:0000000000005e56 .LASF3269
     /tmp/cciiZT4Y.s:96082  .debug_str:000000000001ea1a .LASF3270
     /tmp/cciiZT4Y.s:97258  .debug_str:0000000000023acd .LASF3271
     /tmp/cciiZT4Y.s:92834  .debug_str:0000000000011134 .LASF3272
     /tmp/cciiZT4Y.s:99802  .debug_str:000000000002da77 .LASF3273
     /tmp/cciiZT4Y.s:103920  .debug_str:000000000003e661 .LASF3274
     /tmp/cciiZT4Y.s:94574  .debug_str:0000000000018244 .LASF3275
     /tmp/cciiZT4Y.s:102752  .debug_str:00000000000398e6 .LASF3276
     /tmp/cciiZT4Y.s:100992  .debug_str:0000000000032926 .LASF3277
     /tmp/cciiZT4Y.s:97140  .debug_str:0000000000023200 .LASF3278
     /tmp/cciiZT4Y.s:89066  .debug_str:0000000000001bec .LASF3279
     /tmp/cciiZT4Y.s:92706  .debug_str:00000000000109fb .LASF3280
     /tmp/cciiZT4Y.s:96490  .debug_str:0000000000020780 .LASF3281
     /tmp/cciiZT4Y.s:91446  .debug_str:000000000000be96 .LASF3282
     /tmp/cciiZT4Y.s:104970  .debug_str:0000000000042f65 .LASF3283
     /tmp/cciiZT4Y.s:90616  .debug_str:00000000000084e5 .LASF3284
     /tmp/cciiZT4Y.s:91592  .debug_str:000000000000c800 .LASF3285
     /tmp/cciiZT4Y.s:95482  .debug_str:000000000001bf56 .LASF3286
     /tmp/cciiZT4Y.s:91012  .debug_str:0000000000009fd8 .LASF3287
     /tmp/cciiZT4Y.s:103916  .debug_str:000000000003e603 .LASF3288
     /tmp/cciiZT4Y.s:93670  .debug_str:00000000000147b9 .LASF3289
     /tmp/cciiZT4Y.s:92984  .debug_str:0000000000011aa2 .LASF3290
     /tmp/cciiZT4Y.s:98352  .debug_str:0000000000027e2e .LASF3291
     /tmp/cciiZT4Y.s:90594  .debug_str:0000000000008345 .LASF3292
     /tmp/cciiZT4Y.s:89498  .debug_str:00000000000038e6 .LASF3293
     /tmp/cciiZT4Y.s:101630  .debug_str:000000000003541c .LASF3294
     /tmp/cciiZT4Y.s:100226  .debug_str:000000000002f76f .LASF3295
     /tmp/cciiZT4Y.s:107612  .debug_str:000000000004e0b0 .LASF3296
     /tmp/cciiZT4Y.s:107984  .debug_str:000000000004f9c0 .LASF3297
     /tmp/cciiZT4Y.s:95296  .debug_str:000000000001b30d .LASF3298
     /tmp/cciiZT4Y.s:90268  .debug_str:0000000000006d6e .LASF3299
     /tmp/cciiZT4Y.s:104838  .debug_str:0000000000042719 .LASF3300
     /tmp/cciiZT4Y.s:90788  .debug_str:00000000000090cb .LASF3301
     /tmp/cciiZT4Y.s:107508  .debug_str:000000000004d8f2 .LASF3302
     /tmp/cciiZT4Y.s:91232  .debug_str:000000000000aed8 .LASF3303
     /tmp/cciiZT4Y.s:103650  .debug_str:000000000003d34e .LASF3304
     /tmp/cciiZT4Y.s:98604  .debug_str:0000000000028f6e .LASF3305
     /tmp/cciiZT4Y.s:93330  .debug_str:000000000001324a .LASF3306
     /tmp/cciiZT4Y.s:104788  .debug_str:0000000000042342 .LASF3307
     /tmp/cciiZT4Y.s:103178  .debug_str:000000000003b4cf .LASF3308
     /tmp/cciiZT4Y.s:98090  .debug_str:0000000000026d3d .LASF3309
     /tmp/cciiZT4Y.s:101660  .debug_str:00000000000355f4 .LASF3310
     /tmp/cciiZT4Y.s:105776  .debug_str:0000000000046442 .LASF3311
     /tmp/cciiZT4Y.s:94552  .debug_str:00000000000180fa .LASF3312
     /tmp/cciiZT4Y.s:90290  .debug_str:0000000000006f65 .LASF3313
     /tmp/cciiZT4Y.s:106316  .debug_str:00000000000487ac .LASF3314
     /tmp/cciiZT4Y.s:103448  .debug_str:000000000003c718 .LASF3315
     /tmp/cciiZT4Y.s:94392  .debug_str:00000000000175fc .LASF3316
     /tmp/cciiZT4Y.s:96040  .debug_str:000000000001e70c .LASF3317
     /tmp/cciiZT4Y.s:91096  .debug_str:000000000000a543 .LASF3318
     /tmp/cciiZT4Y.s:93672  .debug_str:00000000000147f7 .LASF3319
     /tmp/cciiZT4Y.s:93928  .debug_str:000000000001576a .LASF3320
     /tmp/cciiZT4Y.s:91726  .debug_str:000000000000d1b2 .LASF3321
     /tmp/cciiZT4Y.s:104494  .debug_str:0000000000040baa .LASF3322
     /tmp/cciiZT4Y.s:105996  .debug_str:000000000004726b .LASF3323
     /tmp/cciiZT4Y.s:99202  .debug_str:000000000002b627 .LASF3324
     /tmp/cciiZT4Y.s:106916  .debug_str:000000000004b01c .LASF3325
     /tmp/cciiZT4Y.s:89158  .debug_str:00000000000022d5 .LASF3326
     /tmp/cciiZT4Y.s:93026  .debug_str:0000000000011da1 .LASF3327
     /tmp/cciiZT4Y.s:100936  .debug_str:0000000000032567 .LASF3328
     /tmp/cciiZT4Y.s:106654  .debug_str:0000000000049e0e .LASF3329
     /tmp/cciiZT4Y.s:101202  .debug_str:0000000000033766 .LASF3330
     /tmp/cciiZT4Y.s:104548  .debug_str:0000000000040fa8 .LASF3331
     /tmp/cciiZT4Y.s:101218  .debug_str:000000000003387f .LASF3332
     /tmp/cciiZT4Y.s:89788  .debug_str:0000000000004d8a .LASF3333
     /tmp/cciiZT4Y.s:92780  .debug_str:0000000000010e15 .LASF3334
     /tmp/cciiZT4Y.s:101510  .debug_str:0000000000034c2a .LASF3335
     /tmp/cciiZT4Y.s:95090  .debug_str:000000000001a478 .LASF3336
     /tmp/cciiZT4Y.s:99786  .debug_str:000000000002d92b .LASF3337
     /tmp/cciiZT4Y.s:99998  .debug_str:000000000002e74a .LASF3338
     /tmp/cciiZT4Y.s:102982  .debug_str:000000000003a6b9 .LASF3339
     /tmp/cciiZT4Y.s:102900  .debug_str:000000000003a178 .LASF3340
     /tmp/cciiZT4Y.s:91158  .debug_str:000000000000a9ab .LASF3341
     /tmp/cciiZT4Y.s:96806  .debug_str:0000000000021cfa .LASF3342
     /tmp/cciiZT4Y.s:102192  .debug_str:0000000000037a7c .LASF3343
     /tmp/cciiZT4Y.s:100198  .debug_str:000000000002f51f .LASF3344
     /tmp/cciiZT4Y.s:93940  .debug_str:000000000001585e .LASF3345
     /tmp/cciiZT4Y.s:107338  .debug_str:000000000004cd42 .LASF3346
     /tmp/cciiZT4Y.s:104182  .debug_str:000000000003f66d .LASF3347
     /tmp/cciiZT4Y.s:106640  .debug_str:0000000000049cfa .LASF3348
     /tmp/cciiZT4Y.s:95166  .debug_str:000000000001aa26 .LASF3349
     /tmp/cciiZT4Y.s:96196  .debug_str:000000000001f15c .LASF3350
     /tmp/cciiZT4Y.s:105546  .debug_str:0000000000045566 .LASF3351
     /tmp/cciiZT4Y.s:91872  .debug_str:000000000000db33 .LASF3352
     /tmp/cciiZT4Y.s:103406  .debug_str:000000000003c415 .LASF3353
     /tmp/cciiZT4Y.s:102680  .debug_str:000000000003955e .LASF3354
     /tmp/cciiZT4Y.s:94294  .debug_str:0000000000016f6b .LASF3355
     /tmp/cciiZT4Y.s:93784  .debug_str:0000000000014e43 .LASF3356
     /tmp/cciiZT4Y.s:101100  .debug_str:0000000000033039 .LASF3357
     /tmp/cciiZT4Y.s:104390  .debug_str:00000000000402f0 .LASF3358
     /tmp/cciiZT4Y.s:95646  .debug_str:000000000001cbdd .LASF3359
     /tmp/cciiZT4Y.s:103408  .debug_str:000000000003c458 .LASF3360
     /tmp/cciiZT4Y.s:103780  .debug_str:000000000003dcf9 .LASF3361
     /tmp/cciiZT4Y.s:94302  .debug_str:0000000000017000 .LASF3362
     /tmp/cciiZT4Y.s:104528  .debug_str:0000000000040e23 .LASF3363
     /tmp/cciiZT4Y.s:106196  .debug_str:0000000000048025 .LASF3364
     /tmp/cciiZT4Y.s:100182  .debug_str:000000000002f40f .LASF3365
     /tmp/cciiZT4Y.s:93934  .debug_str:00000000000157f4 .LASF3366
     /tmp/cciiZT4Y.s:90482  .debug_str:0000000000007c0e .LASF3367
     /tmp/cciiZT4Y.s:100248  .debug_str:000000000002f898 .LASF3368
     /tmp/cciiZT4Y.s:91580  .debug_str:000000000000c70a .LASF3369
     /tmp/cciiZT4Y.s:103812  .debug_str:000000000003df22 .LASF3370
     /tmp/cciiZT4Y.s:98634  .debug_str:00000000000291b7 .LASF3371
     /tmp/cciiZT4Y.s:107244  .debug_str:000000000004c66c .LASF3372
     /tmp/cciiZT4Y.s:102350  .debug_str:00000000000383c6 .LASF3373
     /tmp/cciiZT4Y.s:105016  .debug_str:00000000000432bf .LASF3374
     /tmp/cciiZT4Y.s:97404  .debug_str:0000000000024486 .LASF3375
     /tmp/cciiZT4Y.s:90636  .debug_str:0000000000008679 .LASF3376
     /tmp/cciiZT4Y.s:102474  .debug_str:0000000000038a47 .LASF3377
     /tmp/cciiZT4Y.s:99170  .debug_str:000000000002b351 .LASF3378
     /tmp/cciiZT4Y.s:100270  .debug_str:000000000002fa1a .LASF3379
     /tmp/cciiZT4Y.s:107768  .debug_str:000000000004eae7 .LASF3380
     /tmp/cciiZT4Y.s:90218  .debug_str:00000000000069aa .LASF3381
     /tmp/cciiZT4Y.s:101506  .debug_str:0000000000034baf .LASF3382
     /tmp/cciiZT4Y.s:106208  .debug_str:0000000000048119 .LASF3383
     /tmp/cciiZT4Y.s:96484  .debug_str:00000000000206e3 .LASF3384
     /tmp/cciiZT4Y.s:96162  .debug_str:000000000001eee9 .LASF3385
     /tmp/cciiZT4Y.s:105566  .debug_str:00000000000456e7 .LASF3386
     /tmp/cciiZT4Y.s:90754  .debug_str:0000000000008e67 .LASF3387
     /tmp/cciiZT4Y.s:102648  .debug_str:0000000000039367 .LASF3388
     /tmp/cciiZT4Y.s:95876  .debug_str:000000000001db10 .LASF3389
     /tmp/cciiZT4Y.s:96868  .debug_str:000000000002207c .LASF3390
     /tmp/cciiZT4Y.s:103518  .debug_str:000000000003cb0a .LASF3391
     /tmp/cciiZT4Y.s:94104  .debug_str:0000000000016255 .LASF3392
     /tmp/cciiZT4Y.s:107562  .debug_str:000000000004dd7d .LASF3393
     /tmp/cciiZT4Y.s:99266  .debug_str:000000000002ba7a .LASF3394
     /tmp/cciiZT4Y.s:92462  .debug_str:000000000000fcda .LASF3395
     /tmp/cciiZT4Y.s:100114  .debug_str:000000000002ef2b .LASF3396
     /tmp/cciiZT4Y.s:97548  .debug_str:0000000000024de4 .LASF3397
     /tmp/cciiZT4Y.s:90230  .debug_str:0000000000006aaf .LASF3398
     /tmp/cciiZT4Y.s:95098  .debug_str:000000000001a538 .LASF3399
     /tmp/cciiZT4Y.s:95160  .debug_str:000000000001a9bc .LASF3400
     /tmp/cciiZT4Y.s:95438  .debug_str:000000000001bcf6 .LASF3401
     /tmp/cciiZT4Y.s:99994  .debug_str:000000000002e6e9 .LASF3402
     /tmp/cciiZT4Y.s:90912  .debug_str:0000000000009913 .LASF3403
     /tmp/cciiZT4Y.s:103260  .debug_str:000000000003b9bc .LASF3404
     /tmp/cciiZT4Y.s:90270  .debug_str:0000000000006da9 .LASF3405
     /tmp/cciiZT4Y.s:95906  .debug_str:000000000001dda4 .LASF3406
     /tmp/cciiZT4Y.s:100332  .debug_str:000000000002fdd8 .LASF3407
     /tmp/cciiZT4Y.s:93994  .debug_str:0000000000015c6a .LASF3408
     /tmp/cciiZT4Y.s:91344  .debug_str:000000000000b69b .LASF3409
     /tmp/cciiZT4Y.s:104358  .debug_str:0000000000040141 .LASF3410
     /tmp/cciiZT4Y.s:98820  .debug_str:0000000000029d1d .LASF3411
     /tmp/cciiZT4Y.s:95344  .debug_str:000000000001b65d .LASF3412
     /tmp/cciiZT4Y.s:105052  .debug_str:00000000000434d6 .LASF3413
     /tmp/cciiZT4Y.s:101166  .debug_str:0000000000033496 .LASF3414
     /tmp/cciiZT4Y.s:96246  .debug_str:000000000001f57c .LASF3415
     /tmp/cciiZT4Y.s:106006  .debug_str:0000000000047347 .LASF3416
     /tmp/cciiZT4Y.s:98086  .debug_str:0000000000026cd9 .LASF3417
     /tmp/cciiZT4Y.s:102486  .debug_str:0000000000038b53 .LASF3418
     /tmp/cciiZT4Y.s:98256  .debug_str:0000000000027754 .LASF3419
     /tmp/cciiZT4Y.s:93364  .debug_str:00000000000134fa .LASF3420
     /tmp/cciiZT4Y.s:97160  .debug_str:0000000000023396 .LASF3421
     /tmp/cciiZT4Y.s:101616  .debug_str:0000000000035320 .LASF3422
     /tmp/cciiZT4Y.s:89356  .debug_str:0000000000003007 .LASF3423
     /tmp/cciiZT4Y.s:94728  .debug_str:0000000000018bbf .LASF3424
     /tmp/cciiZT4Y.s:88808  .debug_str:00000000000009e0 .LASF3425
     /tmp/cciiZT4Y.s:96412  .debug_str:00000000000201a8 .LASF3426
     /tmp/cciiZT4Y.s:103774  .debug_str:000000000003dc72 .LASF3427
     /tmp/cciiZT4Y.s:90086  .debug_str:00000000000060c6 .LASF3428
     /tmp/cciiZT4Y.s:95532  .debug_str:000000000001c2c9 .LASF3429
     /tmp/cciiZT4Y.s:95786  .debug_str:000000000001d486 .LASF3430
     /tmp/cciiZT4Y.s:89932  .debug_str:00000000000056d2 .LASF3431
     /tmp/cciiZT4Y.s:94778  .debug_str:0000000000018ee5 .LASF3432
     /tmp/cciiZT4Y.s:100728  .debug_str:000000000003176c .LASF3433
     /tmp/cciiZT4Y.s:103940  .debug_str:000000000003e7ab .LASF3434
     /tmp/cciiZT4Y.s:95518  .debug_str:000000000001c1dd .LASF3435
     /tmp/cciiZT4Y.s:100148  .debug_str:000000000002f148 .LASF3436
     /tmp/cciiZT4Y.s:94590  .debug_str:0000000000018383 .LASF3437
     /tmp/cciiZT4Y.s:106410  .debug_str:0000000000048dfe .LASF3438
     /tmp/cciiZT4Y.s:107192  .debug_str:000000000004c2a2 .LASF3439
     /tmp/cciiZT4Y.s:98262  .debug_str:00000000000277d0 .LASF3440
     /tmp/cciiZT4Y.s:98642  .debug_str:0000000000029274 .LASF3441
     /tmp/cciiZT4Y.s:91098  .debug_str:000000000000a58a .LASF3442
     /tmp/cciiZT4Y.s:106956  .debug_str:000000000004b2f7 .LASF3443
     /tmp/cciiZT4Y.s:93278  .debug_str:0000000000012e8e .LASF3444
     /tmp/cciiZT4Y.s:102276  .debug_str:0000000000037fae .LASF3445
     /tmp/cciiZT4Y.s:100946  .debug_str:0000000000032614 .LASF3446
     /tmp/cciiZT4Y.s:97248  .debug_str:0000000000023a2e .LASF3447
     /tmp/cciiZT4Y.s:102938  .debug_str:000000000003a433 .LASF3448
     /tmp/cciiZT4Y.s:92442  .debug_str:000000000000fb13 .LASF3449
     /tmp/cciiZT4Y.s:92874  .debug_str:00000000000113e5 .LASF3450
     /tmp/cciiZT4Y.s:90356  .debug_str:000000000000744b .LASF3451
     /tmp/cciiZT4Y.s:92662  .debug_str:000000000001074a .LASF3452
     /tmp/cciiZT4Y.s:103296  .debug_str:000000000003bc79 .LASF3453
     /tmp/cciiZT4Y.s:100060  .debug_str:000000000002ebee .LASF3454
     /tmp/cciiZT4Y.s:89118  .debug_str:0000000000001fd3 .LASF3455
     /tmp/cciiZT4Y.s:94804  .debug_str:0000000000019073 .LASF3456
     /tmp/cciiZT4Y.s:93238  .debug_str:0000000000012b96 .LASF3457
     /tmp/cciiZT4Y.s:100178  .debug_str:000000000002f397 .LASF3458
     /tmp/cciiZT4Y.s:90634  .debug_str:000000000000863f .LASF3459
     /tmp/cciiZT4Y.s:105094  .debug_str:00000000000437f6 .LASF3460
     /tmp/cciiZT4Y.s:104100  .debug_str:000000000003f16d .LASF3461
     /tmp/cciiZT4Y.s:105490  .debug_str:000000000004512d .LASF3462
     /tmp/cciiZT4Y.s:101178  .debug_str:0000000000033594 .LASF3463
     /tmp/cciiZT4Y.s:96728  .debug_str:0000000000021722 .LASF3464
     /tmp/cciiZT4Y.s:96620  .debug_str:0000000000020f75 .LASF3465
     /tmp/cciiZT4Y.s:104190  .debug_str:000000000003f714 .LASF3466
     /tmp/cciiZT4Y.s:89990  .debug_str:0000000000005abf .LASF3467
     /tmp/cciiZT4Y.s:104582  .debug_str:00000000000412bd .LASF3468
     /tmp/cciiZT4Y.s:106044  .debug_str:00000000000475a8 .LASF3469
     /tmp/cciiZT4Y.s:95812  .debug_str:000000000001d65f .LASF3470
     /tmp/cciiZT4Y.s:94168  .debug_str:0000000000016689 .LASF3471
     /tmp/cciiZT4Y.s:106404  .debug_str:0000000000048d8f .LASF3472
     /tmp/cciiZT4Y.s:104524  .debug_str:0000000000040dbe .LASF3473
     /tmp/cciiZT4Y.s:98912  .debug_str:000000000002a382 .LASF3474
     /tmp/cciiZT4Y.s:102734  .debug_str:00000000000397bd .LASF3475
     /tmp/cciiZT4Y.s:90026  .debug_str:0000000000005ce6 .LASF3476
     /tmp/cciiZT4Y.s:89574  .debug_str:0000000000003df3 .LASF3477
     /tmp/cciiZT4Y.s:95390  .debug_str:000000000001b94d .LASF3478
     /tmp/cciiZT4Y.s:100082  .debug_str:000000000002ed40 .LASF3479
     /tmp/cciiZT4Y.s:91790  .debug_str:000000000000d5bf .LASF3480
     /tmp/cciiZT4Y.s:90846  .debug_str:00000000000094b5 .LASF3481
     /tmp/cciiZT4Y.s:90744  .debug_str:0000000000008d86 .LASF3482
     /tmp/cciiZT4Y.s:105166  .debug_str:0000000000043c52 .LASF3483
     /tmp/cciiZT4Y.s:101314  .debug_str:0000000000033ec0 .LASF3484
     /tmp/cciiZT4Y.s:98828  .debug_str:0000000000029dce .LASF3485
     /tmp/cciiZT4Y.s:95404  .debug_str:000000000001ba56 .LASF3486
     /tmp/cciiZT4Y.s:92666  .debug_str:0000000000010796 .LASF3487
     /tmp/cciiZT4Y.s:104028  .debug_str:000000000003ecb3 .LASF3488
     /tmp/cciiZT4Y.s:96492  .debug_str:00000000000207c9 .LASF3489
     /tmp/cciiZT4Y.s:90770  .debug_str:0000000000008fa2 .LASF3490
     /tmp/cciiZT4Y.s:95620  .debug_str:000000000001c9f3 .LASF3491
     /tmp/cciiZT4Y.s:95732  .debug_str:000000000001d165 .LASF3492
     /tmp/cciiZT4Y.s:102162  .debug_str:000000000003780c .LASF3493
     /tmp/cciiZT4Y.s:94068  .debug_str:0000000000016027 .LASF3494
     /tmp/cciiZT4Y.s:104660  .debug_str:00000000000417a7 .LASF3495
     /tmp/cciiZT4Y.s:105688  .debug_str:0000000000045e6e .LASF3496
     /tmp/cciiZT4Y.s:103366  .debug_str:000000000003c19c .LASF3497
     /tmp/cciiZT4Y.s:106636  .debug_str:0000000000049c9c .LASF3498
     /tmp/cciiZT4Y.s:103020  .debug_str:000000000003a97a .LASF3499
     /tmp/cciiZT4Y.s:103726  .debug_str:000000000003d897 .LASF3500
     /tmp/cciiZT4Y.s:92956  .debug_str:000000000001189c .LASF3501
     /tmp/cciiZT4Y.s:96962  .debug_str:0000000000022692 .LASF3502
     /tmp/cciiZT4Y.s:102520  .debug_str:0000000000038d77 .LASF3503
     /tmp/cciiZT4Y.s:93152  .debug_str:00000000000125e2 .LASF3504
     /tmp/cciiZT4Y.s:90762  .debug_str:0000000000008ef6 .LASF3505
     /tmp/cciiZT4Y.s:107784  .debug_str:000000000004ec30 .LASF3506
     /tmp/cciiZT4Y.s:102656  .debug_str:00000000000393e0 .LASF3507
     /tmp/cciiZT4Y.s:103116  .debug_str:000000000003b03b .LASF3508
     /tmp/cciiZT4Y.s:94870  .debug_str:0000000000019565 .LASF3509
     /tmp/cciiZT4Y.s:98072  .debug_str:0000000000026bdc .LASF3510
     /tmp/cciiZT4Y.s:89906  .debug_str:00000000000054b3 .LASF3511
     /tmp/cciiZT4Y.s:103270  .debug_str:000000000003ba8c .LASF3512
     /tmp/cciiZT4Y.s:89704  .debug_str:000000000000478a .LASF3513
     /tmp/cciiZT4Y.s:105768  .debug_str:0000000000046388 .LASF3514
     /tmp/cciiZT4Y.s:98022  .debug_str:000000000002686e .LASF3515
     /tmp/cciiZT4Y.s:98530  .debug_str:0000000000028a52 .LASF3516
     /tmp/cciiZT4Y.s:103766  .debug_str:000000000003dbb2 .LASF3517
     /tmp/cciiZT4Y.s:91596  .debug_str:000000000000c873 .LASF3518
     /tmp/cciiZT4Y.s:91654  .debug_str:000000000000ccc6 .LASF3519
     /tmp/cciiZT4Y.s:106530  .debug_str:000000000004957b .LASF3520
     /tmp/cciiZT4Y.s:107580  .debug_str:000000000004dec8 .LASF3521
     /tmp/cciiZT4Y.s:94268  .debug_str:0000000000016dba .LASF3522
     /tmp/cciiZT4Y.s:93500  .debug_str:0000000000013d2b .LASF3523
     /tmp/cciiZT4Y.s:94130  .debug_str:000000000001645f .LASF3524
     /tmp/cciiZT4Y.s:102284  .debug_str:0000000000038039 .LASF3525
     /tmp/cciiZT4Y.s:105692  .debug_str:0000000000045ee8 .LASF3526
     /tmp/cciiZT4Y.s:104300  .debug_str:000000000003fdb8 .LASF3527
     /tmp/cciiZT4Y.s:107366  .debug_str:000000000004cf41 .LASF3528
     /tmp/cciiZT4Y.s:95268  .debug_str:000000000001b13b .LASF3529
     /tmp/cciiZT4Y.s:103016  .debug_str:000000000003a92a .LASF3530
     /tmp/cciiZT4Y.s:100092  .debug_str:000000000002edea .LASF3531
     /tmp/cciiZT4Y.s:103594  .debug_str:000000000003cff2 .LASF3532
     /tmp/cciiZT4Y.s:91106  .debug_str:000000000000a633 .LASF3533
     /tmp/cciiZT4Y.s:94332  .debug_str:00000000000171d0 .LASF3534
     /tmp/cciiZT4Y.s:104746  .debug_str:0000000000042028 .LASF3535
     /tmp/cciiZT4Y.s:96240  .debug_str:000000000001f518 .LASF3536
     /tmp/cciiZT4Y.s:103222  .debug_str:000000000003b79b .LASF3537
     /tmp/cciiZT4Y.s:106582  .debug_str:000000000004993c .LASF3538
     /tmp/cciiZT4Y.s:94330  .debug_str:0000000000017195 .LASF3539
     /tmp/cciiZT4Y.s:97532  .debug_str:0000000000024d06 .LASF3540
     /tmp/cciiZT4Y.s:104948  .debug_str:0000000000042dba .LASF3541
     /tmp/cciiZT4Y.s:90334  .debug_str:00000000000072aa .LASF3542
     /tmp/cciiZT4Y.s:105484  .debug_str:00000000000450a3 .LASF3543
     /tmp/cciiZT4Y.s:96706  .debug_str:0000000000021578 .LASF3544
     /tmp/cciiZT4Y.s:95494  .debug_str:000000000001c060 .LASF3545
     /tmp/cciiZT4Y.s:95828  .debug_str:000000000001d783 .LASF3546
     /tmp/cciiZT4Y.s:88738  .debug_str:000000000000050f .LASF3547
     /tmp/cciiZT4Y.s:101596  .debug_str:0000000000035170 .LASF3548
     /tmp/cciiZT4Y.s:99304  .debug_str:000000000002bc19 .LASF3549
     /tmp/cciiZT4Y.s:99722  .debug_str:000000000002d531 .LASF3550
     /tmp/cciiZT4Y.s:105644  .debug_str:0000000000045b9b .LASF3551
     /tmp/cciiZT4Y.s:103218  .debug_str:000000000003b748 .LASF3552
     /tmp/cciiZT4Y.s:101364  .debug_str:00000000000341c6 .LASF3553
     /tmp/cciiZT4Y.s:89846  .debug_str:0000000000005126 .LASF3554
     /tmp/cciiZT4Y.s:107552  .debug_str:000000000004dcad .LASF3555
     /tmp/cciiZT4Y.s:93120  .debug_str:0000000000012457 .LASF3556
     /tmp/cciiZT4Y.s:100736  .debug_str:0000000000031832 .LASF3557
     /tmp/cciiZT4Y.s:106540  .debug_str:000000000004964a .LASF3558
     /tmp/cciiZT4Y.s:106952  .debug_str:000000000004b2a8 .LASF3559
     /tmp/cciiZT4Y.s:94188  .debug_str:0000000000016821 .LASF3560
     /tmp/cciiZT4Y.s:99914  .debug_str:000000000002e1c1 .LASF3561
     /tmp/cciiZT4Y.s:105916  .debug_str:0000000000046d49 .LASF3562
     /tmp/cciiZT4Y.s:101738  .debug_str:0000000000035c18 .LASF3563
     /tmp/cciiZT4Y.s:98264  .debug_str:0000000000027817 .LASF3564
     /tmp/cciiZT4Y.s:98928  .debug_str:000000000002a4b7 .LASF3565
     /tmp/cciiZT4Y.s:97346  .debug_str:0000000000024085 .LASF3566
     /tmp/cciiZT4Y.s:89820  .debug_str:0000000000004fa1 .LASF3567
     /tmp/cciiZT4Y.s:106810  .debug_str:000000000004a86e .LASF3568
     /tmp/cciiZT4Y.s:103258  .debug_str:000000000003b980 .LASF3569
     /tmp/cciiZT4Y.s:96238  .debug_str:000000000001f4d4 .LASF3570
     /tmp/cciiZT4Y.s:103792  .debug_str:000000000003ddd0 .LASF3571
     /tmp/cciiZT4Y.s:106376  .debug_str:0000000000048bc6 .LASF3572
     /tmp/cciiZT4Y.s:90406  .debug_str:000000000000772e .LASF3573
     /tmp/cciiZT4Y.s:106356  .debug_str:0000000000048a5e .LASF3574
     /tmp/cciiZT4Y.s:101954  .debug_str:0000000000036ac3 .LASF3575
     /tmp/cciiZT4Y.s:94358  .debug_str:00000000000173a0 .LASF3576
     /tmp/cciiZT4Y.s:107876  .debug_str:000000000004f232 .LASF3577
     /tmp/cciiZT4Y.s:98800  .debug_str:0000000000029bc2 .LASF3578
     /tmp/cciiZT4Y.s:90102  .debug_str:00000000000061c4 .LASF3579
     /tmp/cciiZT4Y.s:105276  .debug_str:0000000000044382 .LASF3580
     /tmp/cciiZT4Y.s:105006  .debug_str:00000000000431e2 .LASF3581
     /tmp/cciiZT4Y.s:90764  .debug_str:0000000000008f3a .LASF3582
     /tmp/cciiZT4Y.s:93482  .debug_str:0000000000013c3a .LASF3583
     /tmp/cciiZT4Y.s:92418  .debug_str:000000000000f93f .LASF3584
     /tmp/cciiZT4Y.s:91082  .debug_str:000000000000a433 .LASF3585
     /tmp/cciiZT4Y.s:107902  .debug_str:000000000004f3d4 .LASF3586
     /tmp/cciiZT4Y.s:94910  .debug_str:000000000001981f .LASF3587
     /tmp/cciiZT4Y.s:92354  .debug_str:000000000000f53b .LASF3588
     /tmp/cciiZT4Y.s:89132  .debug_str:00000000000020d5 .LASF3589
     /tmp/cciiZT4Y.s:98856  .debug_str:0000000000029fa6 .LASF3590
     /tmp/cciiZT4Y.s:107230  .debug_str:000000000004c557 .LASF3591
     /tmp/cciiZT4Y.s:101504  .debug_str:0000000000034b71 .LASF3592
     /tmp/cciiZT4Y.s:93892  .debug_str:0000000000015528 .LASF3593
     /tmp/cciiZT4Y.s:100686  .debug_str:00000000000314a5 .LASF3594
     /tmp/cciiZT4Y.s:104770  .debug_str:00000000000421be .LASF3595
     /tmp/cciiZT4Y.s:107420  .debug_str:000000000004d265 .LASF3596
     /tmp/cciiZT4Y.s:91418  .debug_str:000000000000bc7a .LASF3597
     /tmp/cciiZT4Y.s:100262  .debug_str:000000000002f98d .LASF3598
     /tmp/cciiZT4Y.s:104950  .debug_str:0000000000042df5 .LASF3599
     /tmp/cciiZT4Y.s:103038  .debug_str:000000000003aa93 .LASF3600
     /tmp/cciiZT4Y.s:95902  .debug_str:000000000001dd45 .LASF3601
     /tmp/cciiZT4Y.s:97774  .debug_str:00000000000259f7 .LASF3602
     /tmp/cciiZT4Y.s:101408  .debug_str:00000000000344b4 .LASF3603
     /tmp/cciiZT4Y.s:93072  .debug_str:00000000000120c5 .LASF3604
     /tmp/cciiZT4Y.s:95032  .debug_str:000000000001a00f .LASF3605
     /tmp/cciiZT4Y.s:101780  .debug_str:0000000000035f51 .LASF3606
     /tmp/cciiZT4Y.s:94958  .debug_str:0000000000019b70 .LASF3607
     /tmp/cciiZT4Y.s:89884  .debug_str:0000000000005354 .LASF3608
     /tmp/cciiZT4Y.s:88736  .debug_str:00000000000004c8 .LASF3609
     /tmp/cciiZT4Y.s:104490  .debug_str:0000000000040b56 .LASF3610
     /tmp/cciiZT4Y.s:90280  .debug_str:0000000000006e62 .LASF3611
     /tmp/cciiZT4Y.s:89306  .debug_str:0000000000002c7f .LASF3612
     /tmp/cciiZT4Y.s:95270  .debug_str:000000000001b179 .LASF3613
     /tmp/cciiZT4Y.s:93014  .debug_str:0000000000011cb0 .LASF3614
     /tmp/cciiZT4Y.s:94176  .debug_str:0000000000016714 .LASF3615
     /tmp/cciiZT4Y.s:96202  .debug_str:000000000001f1eb .LASF3616
     /tmp/cciiZT4Y.s:89474  .debug_str:0000000000003711 .LASF3617
     /tmp/cciiZT4Y.s:88686  .debug_str:0000000000000154 .LASF3618
     /tmp/cciiZT4Y.s:96890  .debug_str:0000000000022194 .LASF3619
     /tmp/cciiZT4Y.s:89024  .debug_str:00000000000018ef .LASF3620
     /tmp/cciiZT4Y.s:97478  .debug_str:00000000000249a9 .LASF3621
     /tmp/cciiZT4Y.s:103284  .debug_str:000000000003bba9 .LASF3622
     /tmp/cciiZT4Y.s:88816  .debug_str:0000000000000a89 .LASF3623
     /tmp/cciiZT4Y.s:89052  .debug_str:0000000000001ad9 .LASF3624
     /tmp/cciiZT4Y.s:101644  .debug_str:00000000000354e7 .LASF3625
     /tmp/cciiZT4Y.s:90396  .debug_str:000000000000764d .LASF3626
     /tmp/cciiZT4Y.s:90238  .debug_str:0000000000006b55 .LASF3627
     /tmp/cciiZT4Y.s:105112  .debug_str:0000000000043918 .LASF3628
     /tmp/cciiZT4Y.s:96048  .debug_str:000000000001e778 .LASF3629
     /tmp/cciiZT4Y.s:100394  .debug_str:00000000000301a0 .LASF3630
     /tmp/cciiZT4Y.s:98398  .debug_str:0000000000028169 .LASF3631
     /tmp/cciiZT4Y.s:95394  .debug_str:000000000001b9a5 .LASF3632
     /tmp/cciiZT4Y.s:107846  .debug_str:000000000004f08d .LASF3633
     /tmp/cciiZT4Y.s:90646  .debug_str:0000000000008731 .LASF3634
     /tmp/cciiZT4Y.s:107824  .debug_str:000000000004ef2b .LASF3635
     /tmp/cciiZT4Y.s:106958  .debug_str:000000000004b333 .LASF3636
     /tmp/cciiZT4Y.s:95946  .debug_str:000000000001e028 .LASF3637
     /tmp/cciiZT4Y.s:91740  .debug_str:000000000000d2c5 .LASF3638
     /tmp/cciiZT4Y.s:100216  .debug_str:000000000002f68c .LASF3639
     /tmp/cciiZT4Y.s:93180  .debug_str:000000000001278a .LASF3640
     /tmp/cciiZT4Y.s:103548  .debug_str:000000000003cd27 .LASF3641
     /tmp/cciiZT4Y.s:108034  .debug_str:000000000004fd3a .LASF3642
     /tmp/cciiZT4Y.s:89030  .debug_str:0000000000001962 .LASF3643
     /tmp/cciiZT4Y.s:107540  .debug_str:000000000004dba0 .LASF3644
     /tmp/cciiZT4Y.s:92162  .debug_str:000000000000eb36 .LASF3645
     /tmp/cciiZT4Y.s:102274  .debug_str:0000000000037f6a .LASF3646
     /tmp/cciiZT4Y.s:107518  .debug_str:000000000004d9bc .LASF3647
     /tmp/cciiZT4Y.s:92160  .debug_str:000000000000eaf3 .LASF3648
     /tmp/cciiZT4Y.s:102910  .debug_str:000000000003a275 .LASF3649
     /tmp/cciiZT4Y.s:101842  .debug_str:0000000000036335 .LASF3650
     /tmp/cciiZT4Y.s:103688  .debug_str:000000000003d5e1 .LASF3651
     /tmp/cciiZT4Y.s:96018  .debug_str:000000000001e5bb .LASF3652
     /tmp/cciiZT4Y.s:94190  .debug_str:0000000000016868 .LASF3653
     /tmp/cciiZT4Y.s:92616  .debug_str:0000000000010520 .LASF3654
     /tmp/cciiZT4Y.s:104998  .debug_str:0000000000043142 .LASF3655
     /tmp/cciiZT4Y.s:89742  .debug_str:0000000000004a71 .LASF3656
     /tmp/cciiZT4Y.s:96008  .debug_str:000000000001e4b9 .LASF3657
     /tmp/cciiZT4Y.s:92072  .debug_str:000000000000e6b7 .LASF3658
     /tmp/cciiZT4Y.s:105380  .debug_str:0000000000044a65 .LASF3659
     /tmp/cciiZT4Y.s:102606  .debug_str:00000000000391c4 .LASF3660
     /tmp/cciiZT4Y.s:98932  .debug_str:000000000002a505 .LASF3661
     /tmp/cciiZT4Y.s:93474  .debug_str:0000000000013ba0 .LASF3662
     /tmp/cciiZT4Y.s:107358  .debug_str:000000000004cecb .LASF3663
     /tmp/cciiZT4Y.s:90832  .debug_str:00000000000093da .LASF3664
     /tmp/cciiZT4Y.s:97354  .debug_str:000000000002412d .LASF3665
     /tmp/cciiZT4Y.s:105658  .debug_str:0000000000045cb7 .LASF3666
     /tmp/cciiZT4Y.s:91302  .debug_str:000000000000b414 .LASF3667
     /tmp/cciiZT4Y.s:102150  .debug_str:0000000000037740 .LASF3668
     /tmp/cciiZT4Y.s:91684  .debug_str:000000000000cedf .LASF3669
     /tmp/cciiZT4Y.s:104458  .debug_str:0000000000040804 .LASF3670
     /tmp/cciiZT4Y.s:102964  .debug_str:000000000003a579 .LASF3671
     /tmp/cciiZT4Y.s:90688  .debug_str:00000000000089fa .LASF3672
     /tmp/cciiZT4Y.s:89632  .debug_str:000000000000427b .LASF3673
     /tmp/cciiZT4Y.s:104576  .debug_str:0000000000041247 .LASF3674
     /tmp/cciiZT4Y.s:98614  .debug_str:0000000000029039 .LASF3675
     /tmp/cciiZT4Y.s:94074  .debug_str:00000000000160b6 .LASF3676
     /tmp/cciiZT4Y.s:93764  .debug_str:0000000000014cf4 .LASF3677
     /tmp/cciiZT4Y.s:96486  .debug_str:000000000002071f .LASF3678
     /tmp/cciiZT4Y.s:101486  .debug_str:00000000000349b7 .LASF3679
     /tmp/cciiZT4Y.s:97166  .debug_str:000000000002341a .LASF3680
     /tmp/cciiZT4Y.s:90504  .debug_str:0000000000007db2 .LASF3681
     /tmp/cciiZT4Y.s:95102  .debug_str:000000000001a597 .LASF3682
     /tmp/cciiZT4Y.s:107656  .debug_str:000000000004e40a .LASF3683
     /tmp/cciiZT4Y.s:104550  .debug_str:0000000000040fe5 .LASF3684
     /tmp/cciiZT4Y.s:92930  .debug_str:00000000000116f5 .LASF3685
     /tmp/cciiZT4Y.s:105736  .debug_str:00000000000461f2 .LASF3686
     /tmp/cciiZT4Y.s:96194  .debug_str:000000000001f120 .LASF3687
     /tmp/cciiZT4Y.s:95882  .debug_str:000000000001dba9 .LASF3688
     /tmp/cciiZT4Y.s:98446  .debug_str:0000000000028432 .LASF3689
     /tmp/cciiZT4Y.s:105352  .debug_str:0000000000044853 .LASF3690
     /tmp/cciiZT4Y.s:105884  .debug_str:0000000000046b09 .LASF3691
     /tmp/cciiZT4Y.s:95430  .debug_str:000000000001bc20 .LASF3692
     /tmp/cciiZT4Y.s:101196  .debug_str:00000000000336d7 .LASF3693
     /tmp/cciiZT4Y.s:105070  .debug_str:000000000004365a .LASF3694
     /tmp/cciiZT4Y.s:107166  .debug_str:000000000004c0f6 .LASF3695
     /tmp/cciiZT4Y.s:104844  .debug_str:00000000000427a9 .LASF3696
     /tmp/cciiZT4Y.s:96208  .debug_str:000000000001f2a3 .LASF3697
     /tmp/cciiZT4Y.s:95092  .debug_str:000000000001a4ba .LASF3698
     /tmp/cciiZT4Y.s:102364  .debug_str:0000000000038500 .LASF3699
     /tmp/cciiZT4Y.s:93646  .debug_str:0000000000014624 .LASF3700
     /tmp/cciiZT4Y.s:101326  .debug_str:0000000000033f8c .LASF3701
     /tmp/cciiZT4Y.s:106150  .debug_str:0000000000047d4c .LASF3702
     /tmp/cciiZT4Y.s:106472  .debug_str:0000000000049237 .LASF3703
     /tmp/cciiZT4Y.s:105492  .debug_str:0000000000045172 .LASF3704
     /tmp/cciiZT4Y.s:91412  .debug_str:000000000000bba5 .LASF3705
     /tmp/cciiZT4Y.s:94480  .debug_str:0000000000017cb0 .LASF3706
     /tmp/cciiZT4Y.s:89624  .debug_str:00000000000041d3 .LASF3707
     /tmp/cciiZT4Y.s:98230  .debug_str:00000000000275ba .LASF3708
     /tmp/cciiZT4Y.s:107936  .debug_str:000000000004f6a0 .LASF3709
     /tmp/cciiZT4Y.s:103034  .debug_str:000000000003aa31 .LASF3710
     /tmp/cciiZT4Y.s:94014  .debug_str:0000000000015d73 .LASF3711
     /tmp/cciiZT4Y.s:98664  .debug_str:0000000000029408 .LASF3712
     /tmp/cciiZT4Y.s:97204  .debug_str:000000000002374e .LASF3713
     /tmp/cciiZT4Y.s:89998  .debug_str:0000000000005b3f .LASF3714
     /tmp/cciiZT4Y.s:92604  .debug_str:000000000001048b .LASF3715
     /tmp/cciiZT4Y.s:97710  .debug_str:00000000000256a4 .LASF3716
     /tmp/cciiZT4Y.s:98566  .debug_str:0000000000028cc8 .LASF3717
     /tmp/cciiZT4Y.s:95768  .debug_str:000000000001d39b .LASF3718
     /tmp/cciiZT4Y.s:96066  .debug_str:000000000001e8ca .LASF3719
     /tmp/cciiZT4Y.s:102448  .debug_str:00000000000389bf .LASF3720
     /tmp/cciiZT4Y.s:106036  .debug_str:0000000000047547 .LASF3721
     /tmp/cciiZT4Y.s:91536  .debug_str:000000000000c418 .LASF3722
     /tmp/cciiZT4Y.s:103136  .debug_str:000000000003b1b2 .LASF3723
     /tmp/cciiZT4Y.s:96930  .debug_str:0000000000022537 .LASF3724
     /tmp/cciiZT4Y.s:90110  .debug_str:0000000000006242 .LASF3725
     /tmp/cciiZT4Y.s:106142  .debug_str:0000000000047cab .LASF3726
     /tmp/cciiZT4Y.s:104314  .debug_str:000000000003fe9f .LASF3727
     /tmp/cciiZT4Y.s:105396  .debug_str:0000000000044ba0 .LASF3728
     /tmp/cciiZT4Y.s:94196  .debug_str:0000000000016901 .LASF3729
     /tmp/cciiZT4Y.s:98096  .debug_str:0000000000026dbc .LASF3730
     /tmp/cciiZT4Y.s:91838  .debug_str:000000000000d923 .LASF3731
     /tmp/cciiZT4Y.s:98240  .debug_str:0000000000027689 .LASF3732
     /tmp/cciiZT4Y.s:88934  .debug_str:000000000000122a .LASF3733
     /tmp/cciiZT4Y.s:101990  .debug_str:0000000000036d65 .LASF3734
     /tmp/cciiZT4Y.s:91878  .debug_str:000000000000dbc1 .LASF3735
     /tmp/cciiZT4Y.s:101598  .debug_str:00000000000351b7 .LASF3736
     /tmp/cciiZT4Y.s:93204  .debug_str:000000000001295b .LASF3737
     /tmp/cciiZT4Y.s:93686  .debug_str:00000000000148e3 .LASF3738
     /tmp/cciiZT4Y.s:101158  .debug_str:0000000000033416 .LASF3739
     /tmp/cciiZT4Y.s:101144  .debug_str:0000000000033321 .LASF3740
     /tmp/cciiZT4Y.s:101960  .debug_str:0000000000036b35 .LASF3741
     /tmp/cciiZT4Y.s:90348  .debug_str:00000000000073c7 .LASF3742
     /tmp/cciiZT4Y.s:90694  .debug_str:0000000000008a6c .LASF3743
     /tmp/cciiZT4Y.s:90620  .debug_str:000000000000854f .LASF3744
     /tmp/cciiZT4Y.s:93408  .debug_str:00000000000137b6 .LASF3745
     /tmp/cciiZT4Y.s:105088  .debug_str:00000000000437ab .LASF3746
     /tmp/cciiZT4Y.s:101634  .debug_str:0000000000035481 .LASF3747
     /tmp/cciiZT4Y.s:107774  .debug_str:000000000004eba2 .LASF3748
     /tmp/cciiZT4Y.s:96302  .debug_str:000000000001f995 .LASF3749
     /tmp/cciiZT4Y.s:107142  .debug_str:000000000004bf60 .LASF3750
     /tmp/cciiZT4Y.s:95934  .debug_str:000000000001df73 .LASF3751
     /tmp/cciiZT4Y.s:101122  .debug_str:00000000000331a7 .LASF3752
     /tmp/cciiZT4Y.s:97070  .debug_str:0000000000022dd1 .LASF3753
     /tmp/cciiZT4Y.s:93118  .debug_str:0000000000012434 .LASF3754
     /tmp/cciiZT4Y.s:91010  .debug_str:0000000000009fb5 .LASF3755
     /tmp/cciiZT4Y.s:98434  .debug_str:0000000000028351 .LASF3756
     /tmp/cciiZT4Y.s:88980  .debug_str:000000000000151c .LASF3757
     /tmp/cciiZT4Y.s:89028  .debug_str:0000000000001941 .LASF3758
     /tmp/cciiZT4Y.s:101564  .debug_str:0000000000034f58 .LASF3759
     /tmp/cciiZT4Y.s:105918  .debug_str:0000000000046d90 .LASF3760
     /tmp/cciiZT4Y.s:99738  .debug_str:000000000002d630 .LASF3761
     /tmp/cciiZT4Y.s:93488  .debug_str:0000000000013c9d .LASF3762
     /tmp/cciiZT4Y.s:93010  .debug_str:0000000000011c7c .LASF3763
     /tmp/cciiZT4Y.s:92294  .debug_str:000000000000f23e .LASF3764
     /tmp/cciiZT4Y.s:101344  .debug_str:0000000000034094 .LASF3765
     /tmp/cciiZT4Y.s:100626  .debug_str:00000000000310fb .LASF3766
     /tmp/cciiZT4Y.s:90228  .debug_str:0000000000006a8b .LASF3767
     /tmp/cciiZT4Y.s:100022  .debug_str:000000000002e8f8 .LASF3768
     /tmp/cciiZT4Y.s:101352  .debug_str:00000000000340f7 .LASF3769
     /tmp/cciiZT4Y.s:103790  .debug_str:000000000003ddac .LASF3770
     /tmp/cciiZT4Y.s:96766  .debug_str:00000000000219a1 .LASF3771
     /tmp/cciiZT4Y.s:101264  .debug_str:0000000000033b85 .LASF3773
     /tmp/cciiZT4Y.s:104852  .debug_str:0000000000042830 .LASF3774
     /tmp/cciiZT4Y.s:104270  .debug_str:000000000003fc17 .LASF3775
     /tmp/cciiZT4Y.s:100358  .debug_str:000000000002ffd3 .LASF3776
     /tmp/cciiZT4Y.s:99984  .debug_str:000000000002e640 .LASF3777
     /tmp/cciiZT4Y.s:100240  .debug_str:000000000002f811 .LASF3778
     /tmp/cciiZT4Y.s:97992  .debug_str:0000000000026673 .LASF3779
     /tmp/cciiZT4Y.s:103794  .debug_str:000000000003de0c .LASF3780
     /tmp/cciiZT4Y.s:89762  .debug_str:0000000000004be2 .LASF3781
     /tmp/cciiZT4Y.s:106960  .debug_str:000000000004b370 .LASF3782
     /tmp/cciiZT4Y.s:97626  .debug_str:000000000002524b .LASF3783
     /tmp/cciiZT4Y.s:95314  .debug_str:000000000001b42b .LASF3784
     /tmp/cciiZT4Y.s:97366  .debug_str:0000000000024220 .LASF3785
     /tmp/cciiZT4Y.s:107672  .debug_str:000000000004e53f .LASF3786
     /tmp/cciiZT4Y.s:106242  .debug_str:0000000000048327 .LASF3787
     /tmp/cciiZT4Y.s:100594  .debug_str:0000000000030f31 .LASF3788
     /tmp/cciiZT4Y.s:103346  .debug_str:000000000003c01d .LASF3789
     /tmp/cciiZT4Y.s:107162  .debug_str:000000000004c0be .LASF3790
     /tmp/cciiZT4Y.s:93186  .debug_str:00000000000127d6 .LASF3791
     /tmp/cciiZT4Y.s:103114  .debug_str:000000000003b016 .LASF3792
     /tmp/cciiZT4Y.s:98010  .debug_str:0000000000026781 .LASF3793
     /tmp/cciiZT4Y.s:103040  .debug_str:000000000003aace .LASF3794
     /tmp/cciiZT4Y.s:89392  .debug_str:0000000000003256 .LASF3795
     /tmp/cciiZT4Y.s:95914  .debug_str:000000000001de1e .LASF3796
     /tmp/cciiZT4Y.s:100912  .debug_str:000000000003234d .LASF3797
     /tmp/cciiZT4Y.s:93504  .debug_str:0000000000013d97 .LASF3798
     /tmp/cciiZT4Y.s:89822  .debug_str:0000000000004fdd .LASF3799
     /tmp/cciiZT4Y.s:100618  .debug_str:0000000000031050 .LASF3800
     /tmp/cciiZT4Y.s:94170  .debug_str:00000000000166cf .LASF3801
     /tmp/cciiZT4Y.s:92842  .debug_str:00000000000111af .LASF3802
     /tmp/cciiZT4Y.s:101360  .debug_str:0000000000034188 .LASF3803
     /tmp/cciiZT4Y.s:90056  .debug_str:0000000000005f29 .LASF3804
     /tmp/cciiZT4Y.s:105856  .debug_str:0000000000046906 .LASF3805
     /tmp/cciiZT4Y.s:106620  .debug_str:0000000000049bf9 .LASF3806
     /tmp/cciiZT4Y.s:93444  .debug_str:0000000000013a0e .LASF3807
     /tmp/cciiZT4Y.s:103694  .debug_str:000000000003d66c .LASF3808
     /tmp/cciiZT4Y.s:98826  .debug_str:0000000000029db6 .LASF3809
     /tmp/cciiZT4Y.s:98996  .debug_str:000000000002a8cc .LASF3810
     /tmp/cciiZT4Y.s:107538  .debug_str:000000000004db93 .LASF3811
     /tmp/cciiZT4Y.s:103084  .debug_str:000000000003ae18 .LASF3812
     /tmp/cciiZT4Y.s:92620  .debug_str:0000000000010570 .LASF3813
     /tmp/cciiZT4Y.s:107528  .debug_str:000000000004dabc .LASF3814
     /tmp/cciiZT4Y.s:104546  .debug_str:0000000000040f6a .LASF3815
     /tmp/cciiZT4Y.s:89068  .debug_str:0000000000001c2e .LASF3816
     /tmp/cciiZT4Y.s:96262  .debug_str:000000000001f6ca .LASF3817
     /tmp/cciiZT4Y.s:92286  .debug_str:000000000000f1a5 .LASF3818
     /tmp/cciiZT4Y.s:93744  .debug_str:0000000000014c18 .LASF3819
     /tmp/cciiZT4Y.s:89570  .debug_str:0000000000003dc0 .LASF3820
     /tmp/cciiZT4Y.s:106154  .debug_str:0000000000047d9d .LASF3821
     /tmp/cciiZT4Y.s:100058  .debug_str:000000000002ebcb .LASF3822
     /tmp/cciiZT4Y.s:100574  .debug_str:0000000000030de0 .LASF3823
     /tmp/cciiZT4Y.s:106580  .debug_str:000000000004991b .LASF3824
     /tmp/cciiZT4Y.s:107568  .debug_str:000000000004de0d .LASF3825
     /tmp/cciiZT4Y.s:99194  .debug_str:000000000002b5ba .LASF3826
     /tmp/cciiZT4Y.s:95556  .debug_str:000000000001c580 .LASF3827
     /tmp/cciiZT4Y.s:95838  .debug_str:000000000001d81e .LASF3828
     /tmp/cciiZT4Y.s:106770  .debug_str:000000000004a561 .LASF3829
     /tmp/cciiZT4Y.s:107852  .debug_str:000000000004f0fd .LASF3830
     /tmp/cciiZT4Y.s:99498  .debug_str:000000000002c7c2 .LASF3831
     /tmp/cciiZT4Y.s:100374  .debug_str:00000000000300b6 .LASF3832
     /tmp/cciiZT4Y.s:101180  .debug_str:00000000000335d8 .LASF3833
     /tmp/cciiZT4Y.s:89764  .debug_str:0000000000004c17 .LASF3834
     /tmp/cciiZT4Y.s:102686  .debug_str:00000000000395d5 .LASF3835
     /tmp/cciiZT4Y.s:104442  .debug_str:00000000000406a9 .LASF3836
     /tmp/cciiZT4Y.s:107214  .debug_str:000000000004c44f .LASF3837
     /tmp/cciiZT4Y.s:100454  .debug_str:00000000000305ad .LASF3838
     /tmp/cciiZT4Y.s:107574  .debug_str:000000000004de6d .LASF3839
     /tmp/cciiZT4Y.s:105502  .debug_str:000000000004520d .LASF3840
     /tmp/cciiZT4Y.s:104756  .debug_str:00000000000420fc .LASF3841
     /tmp/cciiZT4Y.s:100738  .debug_str:0000000000031874 .LASF3842
     /tmp/cciiZT4Y.s:92054  .debug_str:000000000000e5af .LASF3843
     /tmp/cciiZT4Y.s:89604  .debug_str:0000000000004076 .LASF3844
     /tmp/cciiZT4Y.s:99088  .debug_str:000000000002ae68 .LASF3845
     /tmp/cciiZT4Y.s:99054  .debug_str:000000000002ac42 .LASF3846
     /tmp/cciiZT4Y.s:100716  .debug_str:0000000000031688 .LASF3847
     /tmp/cciiZT4Y.s:90532  .debug_str:0000000000007f44 .LASF3848
     /tmp/cciiZT4Y.s:96322  .debug_str:000000000001faba .LASF3849
     /tmp/cciiZT4Y.s:89808  .debug_str:0000000000004f21 .LASF3850
     /tmp/cciiZT4Y.s:102922  .debug_str:000000000003a32f .LASF3851
     /tmp/cciiZT4Y.s:107654  .debug_str:000000000004e3f3 .LASF3852
     /tmp/cciiZT4Y.s:102598  .debug_str:0000000000039166 .LASF3853
     /tmp/cciiZT4Y.s:100638  .debug_str:0000000000031198 .LASF3854
     /tmp/cciiZT4Y.s:94800  .debug_str:0000000000019033 .LASF3855
     /tmp/cciiZT4Y.s:96884  .debug_str:000000000002214a .LASF3856
     /tmp/cciiZT4Y.s:102058  .debug_str:000000000003717d .LASF3857
     /tmp/cciiZT4Y.s:102852  .debug_str:0000000000039ebc .LASF3858
     /tmp/cciiZT4Y.s:89598  .debug_str:0000000000004020 .LASF3859
     /tmp/cciiZT4Y.s:105064  .debug_str:00000000000435e9 .LASF3860
     /tmp/cciiZT4Y.s:98796  .debug_str:0000000000029b7e .LASF3861
     /tmp/cciiZT4Y.s:98630  .debug_str:000000000002916f .LASF3862
     /tmp/cciiZT4Y.s:106184  .debug_str:0000000000047f71 .LASF3863
     /tmp/cciiZT4Y.s:107738  .debug_str:000000000004e993 .LASF3864
     /tmp/cciiZT4Y.s:91494  .debug_str:000000000000c1c5 .LASF3865
     /tmp/cciiZT4Y.s:106622  .debug_str:0000000000049c0b .LASF3866
     /tmp/cciiZT4Y.s:99388  .debug_str:000000000002c1fc .LASF3867
     /tmp/cciiZT4Y.s:107438  .debug_str:000000000004d3cf .LASF3868
     /tmp/cciiZT4Y.s:100488  .debug_str:0000000000030868 .LASF3869
     /tmp/cciiZT4Y.s:107978  .debug_str:000000000004f974 .LASF3870
     /tmp/cciiZT4Y.s:95560  .debug_str:000000000001c5d1 .LASF3871
     /tmp/cciiZT4Y.s:92434  .debug_str:000000000000fa84 .LASF3872
     /tmp/cciiZT4Y.s:91932  .debug_str:000000000000de50 .LASF3873
     /tmp/cciiZT4Y.s:93832  .debug_str:0000000000015130 .LASF3874
     /tmp/cciiZT4Y.s:93640  .debug_str:00000000000145c2 .LASF3875
     /tmp/cciiZT4Y.s:96682  .debug_str:00000000000213c4 .LASF3876
     /tmp/cciiZT4Y.s:96958  .debug_str:0000000000022637 .LASF3877
     /tmp/cciiZT4Y.s:88746  .debug_str:00000000000005d6 .LASF3878
     /tmp/cciiZT4Y.s:98772  .debug_str:0000000000029a5d .LASF3879
     /tmp/cciiZT4Y.s:105778  .debug_str:0000000000046485 .LASF3880
     /tmp/cciiZT4Y.s:105252  .debug_str:00000000000441f4 .LASF3881
     /tmp/cciiZT4Y.s:105998  .debug_str:00000000000472a7 .LASF3882
     /tmp/cciiZT4Y.s:103572  .debug_str:000000000003cec4 .LASF3883
     /tmp/cciiZT4Y.s:101914  .debug_str:00000000000367ec .LASF3884
     /tmp/cciiZT4Y.s:106626  .debug_str:0000000000049c2f .LASF3885
     /tmp/cciiZT4Y.s:102072  .debug_str:000000000003729b .LASF3886
     /tmp/cciiZT4Y.s:104736  .debug_str:0000000000041f74 .LASF3887
     /tmp/cciiZT4Y.s:90870  .debug_str:0000000000009647 .LASF3888
     /tmp/cciiZT4Y.s:89584  .debug_str:0000000000003ed3 .LASF3889
     /tmp/cciiZT4Y.s:106340  .debug_str:000000000004895f .LASF3890
     /tmp/cciiZT4Y.s:94382  .debug_str:000000000001755f .LASF3891
     /tmp/cciiZT4Y.s:105300  .debug_str:000000000004455e .LASF3892
     /tmp/cciiZT4Y.s:102882  .debug_str:000000000003a030 .LASF3893
     /tmp/cciiZT4Y.s:94362  .debug_str:0000000000017402 .LASF3894
     /tmp/cciiZT4Y.s:102658  .debug_str:0000000000039424 .LASF3895
     /tmp/cciiZT4Y.s:95316  .debug_str:000000000001b44e .LASF3896
     /tmp/cciiZT4Y.s:91066  .debug_str:000000000000a37e .LASF3897
     /tmp/cciiZT4Y.s:91880  .debug_str:000000000000dbe0 .LASF3898
     /tmp/cciiZT4Y.s:105104  .debug_str:00000000000438b5 .LASF3899
     /tmp/cciiZT4Y.s:103858  .debug_str:000000000003e285 .LASF3900
     /tmp/cciiZT4Y.s:90046  .debug_str:0000000000005e3d .LASF3901
     /tmp/cciiZT4Y.s:100726  .debug_str:0000000000031759 .LASF3902
     /tmp/cciiZT4Y.s:107782  .debug_str:000000000004ec1d .LASF3903
     /tmp/cciiZT4Y.s:98348  .debug_str:0000000000027e12 .LASF3904
     /tmp/cciiZT4Y.s:100334  .debug_str:000000000002fe16 .LASF3905
     /tmp/cciiZT4Y.s:100080  .debug_str:000000000002ed27 .LASF3906
     /tmp/cciiZT4Y.s:97744  .debug_str:000000000002590d .LASF3907
     /tmp/cciiZT4Y.s:101778  .debug_str:0000000000035f3b .LASF3908
     /tmp/cciiZT4Y.s:104744  .debug_str:0000000000042013 .LASF3909
     /tmp/cciiZT4Y.s:92966  .debug_str:0000000000011987 .LASF3910
     /tmp/cciiZT4Y.s:93754  .debug_str:0000000000014c6e .LASF3911
     /tmp/cciiZT4Y.s:104150  .debug_str:000000000003f46b .LASF3912
     /tmp/cciiZT4Y.s:91756  .debug_str:000000000000d3ea .LASF3913
     /tmp/cciiZT4Y.s:106198  .debug_str:0000000000048064 .LASF3914
     /tmp/cciiZT4Y.s:92030  .debug_str:000000000000e437 .LASF3915
     /tmp/cciiZT4Y.s:93576  .debug_str:00000000000141ed .LASF3916
     /tmp/cciiZT4Y.s:103036  .debug_str:000000000003aa7c .LASF3917
     /tmp/cciiZT4Y.s:97172  .debug_str:000000000002348d .LASF3918
     /tmp/cciiZT4Y.s:105060  .debug_str:00000000000435b2 .LASF3919
     /tmp/cciiZT4Y.s:101058  .debug_str:0000000000032de4 .LASF3920
     /tmp/cciiZT4Y.s:97412  .debug_str:0000000000024567 .LASF3921
     /tmp/cciiZT4Y.s:100308  .debug_str:000000000002fc40 .LASF3922
     /tmp/cciiZT4Y.s:93688  .debug_str:0000000000014903 .LASF3923
     /tmp/cciiZT4Y.s:97168  .debug_str:0000000000023464 .LASF3924
     /tmp/cciiZT4Y.s:105950  .debug_str:0000000000046f3e .LASF3925
     /tmp/cciiZT4Y.s:99996  .debug_str:000000000002e72d .LASF3926
     /tmp/cciiZT4Y.s:92032  .debug_str:000000000000e454 .LASF3927
     /tmp/cciiZT4Y.s:108008  .debug_str:000000000004fb92 .LASF3928
     /tmp/cciiZT4Y.s:94416  .debug_str:0000000000017805 .LASF3929
     /tmp/cciiZT4Y.s:100252  .debug_str:000000000002f8e6 .LASF3930
     /tmp/cciiZT4Y.s:93174  .debug_str:000000000001274b .LASF3931
     /tmp/cciiZT4Y.s:92702  .debug_str:00000000000109cf .LASF3932
     /tmp/cciiZT4Y.s:90376  .debug_str:0000000000007580 .LASF3933
     /tmp/cciiZT4Y.s:100406  .debug_str:000000000003027b .LASF3934
     /tmp/cciiZT4Y.s:99272  .debug_str:000000000002badd .LASF3935
     /tmp/cciiZT4Y.s:107740  .debug_str:000000000004e9aa .LASF3936
     /tmp/cciiZT4Y.s:107226  .debug_str:000000000004c4f3 .LASF3937
     /tmp/cciiZT4Y.s:105726  .debug_str:0000000000046131 .LASF3938
     /tmp/cciiZT4Y.s:100718  .debug_str:000000000003169f .LASF3939
     /tmp/cciiZT4Y.s:95920  .debug_str:000000000001dea3 .LASF3940
     /tmp/cciiZT4Y.s:92448  .debug_str:000000000000fb97 .LASF3941
     /tmp/cciiZT4Y.s:103460  .debug_str:000000000003c7eb .LASF3942
     /tmp/cciiZT4Y.s:96292  .debug_str:000000000001f8fa .LASF3943
     /tmp/cciiZT4Y.s:97318  .debug_str:0000000000023ec9 .LASF3944
     /tmp/cciiZT4Y.s:95778  .debug_str:000000000001d43b .LASF3945
     /tmp/cciiZT4Y.s:97402  .debug_str:0000000000024474 .LASF3946
     /tmp/cciiZT4Y.s:89440  .debug_str:0000000000003553 .LASF3947
     /tmp/cciiZT4Y.s:103456  .debug_str:000000000003c7c0 .LASF3948
     /tmp/cciiZT4Y.s:100962  .debug_str:0000000000032729 .LASF3949
     /tmp/cciiZT4Y.s:106432  .debug_str:0000000000048fc9 .LASF3950
     /tmp/cciiZT4Y.s:103188  .debug_str:000000000003b5e1 .LASF3951
     /tmp/cciiZT4Y.s:97874  .debug_str:0000000000025ef1 .LASF3952
     /tmp/cciiZT4Y.s:99408  .debug_str:000000000002c2fb .LASF3953
     /tmp/cciiZT4Y.s:91624  .debug_str:000000000000ca81 .LASF3954
     /tmp/cciiZT4Y.s:101148  .debug_str:000000000003336f .LASF3955
     /tmp/cciiZT4Y.s:100616  .debug_str:0000000000031043 .LASF3956
     /tmp/cciiZT4Y.s:100238  .debug_str:000000000002f802 .LASF3957
     /tmp/cciiZT4Y.s:98812  .debug_str:0000000000029ca0 .LASF3958
     /tmp/cciiZT4Y.s:98426  .debug_str:00000000000282fa .LASF3959
     /tmp/cciiZT4Y.s:93234  .debug_str:0000000000012b70 .LASF3960
     /tmp/cciiZT4Y.s:97792  .debug_str:0000000000025b15 .LASF3961
     /tmp/cciiZT4Y.s:102858  .debug_str:0000000000039efd .LASF3962
     /tmp/cciiZT4Y.s:91342  .debug_str:000000000000b68d .LASF3963
     /tmp/cciiZT4Y.s:97622  .debug_str:0000000000025220 .LASF3964
     /tmp/cciiZT4Y.s:98144  .debug_str:00000000000270c9 .LASF3965
     /tmp/cciiZT4Y.s:105140  .debug_str:0000000000043af7 .LASF3966
     /tmp/cciiZT4Y.s:105792  .debug_str:0000000000046530 .LASF3967
     /tmp/cciiZT4Y.s:93742  .debug_str:0000000000014c0c .LASF3968
     /tmp/cciiZT4Y.s:101436  .debug_str:0000000000034632 .LASF3969
     /tmp/cciiZT4Y.s:106330  .debug_str:00000000000488c3 .LASF3970
     /tmp/cciiZT4Y.s:94642  .debug_str:00000000000186f7 .LASF3971
     /tmp/cciiZT4Y.s:95246  .debug_str:000000000001affb .LASF3972
     /tmp/cciiZT4Y.s:94634  .debug_str:000000000001868c .LASF3973
     /tmp/cciiZT4Y.s:97468  .debug_str:000000000002491f .LASF3974
     /tmp/cciiZT4Y.s:96060  .debug_str:000000000001e84b .LASF3975
     /tmp/cciiZT4Y.s:101946  .debug_str:0000000000036a60 .LASF3976
     /tmp/cciiZT4Y.s:88850  .debug_str:0000000000000c8e .LASF3977
     /tmp/cciiZT4Y.s:106306  .debug_str:0000000000048742 .LASF3978
     /tmp/cciiZT4Y.s:100084  .debug_str:000000000002ed83 .LASF3979
     /tmp/cciiZT4Y.s:92660  .debug_str:000000000001073e .LASF3980
     /tmp/cciiZT4Y.s:90156  .debug_str:0000000000006582 .LASF3981
     /tmp/cciiZT4Y.s:105322  .debug_str:0000000000044699 .LASF3982
     /tmp/cciiZT4Y.s:94904  .debug_str:00000000000197d6 .LASF3983
     /tmp/cciiZT4Y.s:89960  .debug_str:00000000000058bd .LASF3984
     /tmp/cciiZT4Y.s:106402  .debug_str:0000000000048d77 .LASF3985
     /tmp/cciiZT4Y.s:94160  .debug_str:0000000000016620 .LASF3986
     /tmp/cciiZT4Y.s:107086  .debug_str:000000000004bc00 .LASF3987
     /tmp/cciiZT4Y.s:97240  .debug_str:00000000000239b4 .LASF3988
     /tmp/cciiZT4Y.s:106346  .debug_str:00000000000489bd .LASF3989
     /tmp/cciiZT4Y.s:105240  .debug_str:0000000000044114 .LASF3990
     /tmp/cciiZT4Y.s:97072  .debug_str:0000000000022df6 .LASF3991
     /tmp/cciiZT4Y.s:101532  .debug_str:0000000000034db7 .LASF3992
     /tmp/cciiZT4Y.s:92044  .debug_str:000000000000e4e9 .LASF3993
     /tmp/cciiZT4Y.s:99334  .debug_str:000000000002bdcf .LASF3994
     /tmp/cciiZT4Y.s:92282  .debug_str:000000000000f123 .LASF3995
     /tmp/cciiZT4Y.s:104562  .debug_str:000000000004111a .LASF3996
     /tmp/cciiZT4Y.s:101494  .debug_str:0000000000034a3b .LASF3997
     /tmp/cciiZT4Y.s:99186  .debug_str:000000000002b48e .LASF3998
     /tmp/cciiZT4Y.s:106672  .debug_str:0000000000049f78 .LASF3999
     /tmp/cciiZT4Y.s:91404  .debug_str:000000000000bb4d .LASF4000
     /tmp/cciiZT4Y.s:100102  .debug_str:000000000002eeae .LASF4001
     /tmp/cciiZT4Y.s:106038  .debug_str:0000000000047565 .LASF4002
     /tmp/cciiZT4Y.s:101426  .debug_str:00000000000345b1 .LASF4003
     /tmp/cciiZT4Y.s:94750  .debug_str:0000000000018cb0 .LASF4004
     /tmp/cciiZT4Y.s:88884  .debug_str:0000000000000ec3 .LASF4005
     /tmp/cciiZT4Y.s:106284  .debug_str:0000000000048614 .LASF4006
     /tmp/cciiZT4Y.s:106836  .debug_str:000000000004aa6f .LASF4007
     /tmp/cciiZT4Y.s:92762  .debug_str:0000000000010ca5 .LASF4008
     /tmp/cciiZT4Y.s:101764  .debug_str:0000000000035e36 .LASF4009
     /tmp/cciiZT4Y.s:90816  .debug_str:0000000000009299 .LASF4010
     /tmp/cciiZT4Y.s:102870  .debug_str:0000000000039f91 .LASF4011
     /tmp/cciiZT4Y.s:93104  .debug_str:0000000000012334 .LASF4012
     /tmp/cciiZT4Y.s:92764  .debug_str:0000000000010cb5 .LASF4013
     /tmp/cciiZT4Y.s:90724  .debug_str:0000000000008c8c .LASF4014
     /tmp/cciiZT4Y.s:95562  .debug_str:000000000001c5e8 .LASF4015
     /tmp/cciiZT4Y.s:97066  .debug_str:0000000000022d7a .LASF4016
     /tmp/cciiZT4Y.s:95378  .debug_str:000000000001b879 .LASF4017
     /tmp/cciiZT4Y.s:97134  .debug_str:000000000002319e .LASF4018
     /tmp/cciiZT4Y.s:101982  .debug_str:0000000000036ce2 .LASF4019
     /tmp/cciiZT4Y.s:91552  .debug_str:000000000000c525 .LASF4020
     /tmp/cciiZT4Y.s:107808  .debug_str:000000000004ee62 .LASF4021
     /tmp/cciiZT4Y.s:100634  .debug_str:0000000000031168 .LASF4022
     /tmp/cciiZT4Y.s:97812  .debug_str:0000000000025c7f .LASF4023
     /tmp/cciiZT4Y.s:104580  .debug_str:00000000000412ac .LASF4024
     /tmp/cciiZT4Y.s:89790  .debug_str:0000000000004dca .LASF4025
     /tmp/cciiZT4Y.s:98116  .debug_str:0000000000026f2c .LASF4026
     /tmp/cciiZT4Y.s:96276  .debug_str:000000000001f80f .LASF4027
     /tmp/cciiZT4Y.s:94010  .debug_str:0000000000015d50 .LASF4028
     /tmp/cciiZT4Y.s:107164  .debug_str:000000000004c0e3 .LASF4029
     /tmp/cciiZT4Y.s:101474  .debug_str:00000000000348fc .LASF4030
     /tmp/cciiZT4Y.s:100768  .debug_str:0000000000031a51 .LASF4031
     /tmp/cciiZT4Y.s:94148  .debug_str:00000000000165c4 .LASF4032
     /tmp/cciiZT4Y.s:90352  .debug_str:000000000000742a .LASF4033
     /tmp/cciiZT4Y.s:95582  .debug_str:000000000001c709 .LASF4034
     /tmp/cciiZT4Y.s:95212  .debug_str:000000000001ad9e .LASF4035
     /tmp/cciiZT4Y.s:90468  .debug_str:0000000000007b66 .LASF4036
     /tmp/cciiZT4Y.s:94350  .debug_str:00000000000172eb .LASF4037
     /tmp/cciiZT4Y.s:103866  .debug_str:000000000003e2e7 .LASF4038
     /tmp/cciiZT4Y.s:96310  .debug_str:000000000001fa1e .LASF4039
     /tmp/cciiZT4Y.s:97098  .debug_str:0000000000022f97 .LASF4040
     /tmp/cciiZT4Y.s:95630  .debug_str:000000000001cada .LASF4041
     /tmp/cciiZT4Y.s:97886  .debug_str:0000000000025fe3 .LASF4042
     /tmp/cciiZT4Y.s:99208  .debug_str:000000000002b690 .LASF4043
     /tmp/cciiZT4Y.s:103352  .debug_str:000000000003c08c .LASF4044
     /tmp/cciiZT4Y.s:106056  .debug_str:0000000000047680 .LASF4045
     /tmp/cciiZT4Y.s:97964  .debug_str:00000000000264bd .LASF4046
     /tmp/cciiZT4Y.s:99654  .debug_str:000000000002d14a .LASF4047
     /tmp/cciiZT4Y.s:105576  .debug_str:000000000004577b .LASF4048
     /tmp/cciiZT4Y.s:97932  .debug_str:00000000000262e8 .LASF4049
     /tmp/cciiZT4Y.s:107348  .debug_str:000000000004ce4c .LASF4050
     /tmp/cciiZT4Y.s:91656  .debug_str:000000000000cd08 .LASF4051
     /tmp/cciiZT4Y.s:97164  .debug_str:0000000000023406 .LASF4052
     /tmp/cciiZT4Y.s:95736  .debug_str:000000000001d1b0 .LASF4053
     /tmp/cciiZT4Y.s:103542  .debug_str:000000000003ccfc .LASF4054
     /tmp/cciiZT4Y.s:107626  .debug_str:000000000004e1df .LASF4055
     /tmp/cciiZT4Y.s:96234  .debug_str:000000000001f4a7 .LASF4056
     /tmp/cciiZT4Y.s:105772  .debug_str:00000000000463fd .LASF4057
     /tmp/cciiZT4Y.s:103228  .debug_str:000000000003b81a .LASF4058
     /tmp/cciiZT4Y.s:92330  .debug_str:000000000000f3d9 .LASF4059
     /tmp/cciiZT4Y.s:107704  .debug_str:000000000004e769 .LASF4060
     /tmp/cciiZT4Y.s:107812  .debug_str:000000000004ee8f .LASF4061
     /tmp/cciiZT4Y.s:91704  .debug_str:000000000000cfea .LASF4062
     /tmp/cciiZT4Y.s:105438  .debug_str:0000000000044e43 .LASF4063
     /tmp/cciiZT4Y.s:104436  .debug_str:0000000000040660 .LASF4064
     /tmp/cciiZT4Y.s:89130  .debug_str:00000000000020c2 .LASF4065
     /tmp/cciiZT4Y.s:90158  .debug_str:000000000000658e .LASF4066
     /tmp/cciiZT4Y.s:91238  .debug_str:000000000000af4d .LASF4067
     /tmp/cciiZT4Y.s:101212  .debug_str:000000000003381e .LASF4068
     /tmp/cciiZT4Y.s:93868  .debug_str:00000000000153c0 .LASF4069
     /tmp/cciiZT4Y.s:99422  .debug_str:000000000002c3e5 .LASF4070
     /tmp/cciiZT4Y.s:106332  .debug_str:00000000000488d9 .LASF4071
     /tmp/cciiZT4Y.s:105450  .debug_str:0000000000044ef2 .LASF4072
     /tmp/cciiZT4Y.s:96222  .debug_str:000000000001f3d9 .LASF4073
     /tmp/cciiZT4Y.s:95654  .debug_str:000000000001cc60 .LASF4074
     /tmp/cciiZT4Y.s:99206  .debug_str:000000000002b67e .LASF4075
     /tmp/cciiZT4Y.s:106486  .debug_str:0000000000049359 .LASF4076
     /tmp/cciiZT4Y.s:89200  .debug_str:0000000000002572 .LASF4077
     /tmp/cciiZT4Y.s:101554  .debug_str:0000000000034e9b .LASF4078
     /tmp/cciiZT4Y.s:105938  .debug_str:0000000000046ed9 .LASF4079
     /tmp/cciiZT4Y.s:95734  .debug_str:000000000001d1a1 .LASF4080
     /tmp/cciiZT4Y.s:105246  .debug_str:00000000000441a1 .LASF4081
     /tmp/cciiZT4Y.s:91788  .debug_str:000000000000d5b0 .LASF4082
     /tmp/cciiZT4Y.s:101230  .debug_str:0000000000033929 .LASF4083
     /tmp/cciiZT4Y.s:95964  .debug_str:000000000001e1b9 .LASF4084
     /tmp/cciiZT4Y.s:96034  .debug_str:000000000001e6d1 .LASF4085
     /tmp/cciiZT4Y.s:96956  .debug_str:0000000000022628 .LASF4086
     /tmp/cciiZT4Y.s:101988  .debug_str:0000000000036d54 .LASF4087
     /tmp/cciiZT4Y.s:94732  .debug_str:0000000000018c15 .LASF4088
     /tmp/cciiZT4Y.s:102604  .debug_str:00000000000391b3 .LASF4089
     /tmp/cciiZT4Y.s:96716  .debug_str:000000000002164b .LASF4090
     /tmp/cciiZT4Y.s:99522  .debug_str:000000000002c90a .LASF4091
     /tmp/cciiZT4Y.s:89080  .debug_str:0000000000001d2e .LASF4092
     /tmp/cciiZT4Y.s:100678  .debug_str:0000000000031453 .LASF4093
     /tmp/cciiZT4Y.s:101516  .debug_str:0000000000034cae .LASF4094
     /tmp/cciiZT4Y.s:101280  .debug_str:0000000000033c8e .LASF4095
     /tmp/cciiZT4Y.s:107064  .debug_str:000000000004ba75 .LASF4096
     /tmp/cciiZT4Y.s:92838  .debug_str:000000000001117e .LASF4097
     /tmp/cciiZT4Y.s:91686  .debug_str:000000000000cf1e .LASF4098
     /tmp/cciiZT4Y.s:91310  .debug_str:000000000000b4c4 .LASF4099
     /tmp/cciiZT4Y.s:98006  .debug_str:0000000000026756 .LASF4100
     /tmp/cciiZT4Y.s:95350  .debug_str:000000000001b6e2 .LASF4101
     /tmp/cciiZT4Y.s:106864  .debug_str:000000000004ac0e .LASF4102
     /tmp/cciiZT4Y.s:93132  .debug_str:00000000000124f2 .LASF4103
     /tmp/cciiZT4Y.s:89056  .debug_str:0000000000001b3c .LASF4104
     /tmp/cciiZT4Y.s:90212  .debug_str:000000000000693a .LASF4105
     /tmp/cciiZT4Y.s:100016  .debug_str:000000000002e8af .LASF4106
     /tmp/cciiZT4Y.s:89548  .debug_str:0000000000003c6f .LASF4107
     /tmp/cciiZT4Y.s:106026  .debug_str:00000000000474b6 .LASF4108
     /tmp/cciiZT4Y.s:89368  .debug_str:0000000000003122 .LASF4109
     /tmp/cciiZT4Y.s:96880  .debug_str:0000000000022107 .LASF4110
     /tmp/cciiZT4Y.s:107296  .debug_str:000000000004ca0a .LASF4111
     /tmp/cciiZT4Y.s:98558  .debug_str:0000000000028c38 .LASF4112
     /tmp/cciiZT4Y.s:98388  .debug_str:000000000002809b .LASF4113
     /tmp/cciiZT4Y.s:103444  .debug_str:000000000003c6eb .LASF4114
     /tmp/cciiZT4Y.s:94734  .debug_str:0000000000018c25 .LASF4115
     /tmp/cciiZT4Y.s:90780  .debug_str:000000000000905e .LASF4116
     /tmp/cciiZT4Y.s:95122  .debug_str:000000000001a6e6 .LASF4117
     /tmp/cciiZT4Y.s:97628  .debug_str:0000000000025265 .LASF4118
     /tmp/cciiZT4Y.s:95780  .debug_str:000000000001d44d .LASF4119
     /tmp/cciiZT4Y.s:93284  .debug_str:0000000000012f3c .LASF4120
     /tmp/cciiZT4Y.s:97608  .debug_str:0000000000025161 .LASF4121
     /tmp/cciiZT4Y.s:98804  .debug_str:0000000000029c2f .LASF4122
     /tmp/cciiZT4Y.s:107334  .debug_str:000000000004cd0c .LASF4123
     /tmp/cciiZT4Y.s:94266  .debug_str:0000000000016da5 .LASF4124
     /tmp/cciiZT4Y.s:95792  .debug_str:000000000001d52e .LASF4125
     /tmp/cciiZT4Y.s:100260  .debug_str:000000000002f977 .LASF4126
     /tmp/cciiZT4Y.s:99644  .debug_str:000000000002d0ba .LASF4127
     /tmp/cciiZT4Y.s:103006  .debug_str:000000000003a87b .LASF4128
     /tmp/cciiZT4Y.s:91866  .debug_str:000000000000daec .LASF4129
     /tmp/cciiZT4Y.s:100324  .debug_str:000000000002fd68 .LASF4130
     /tmp/cciiZT4Y.s:95674  .debug_str:000000000001cdd2 .LASF4131
     /tmp/cciiZT4Y.s:98542  .debug_str:0000000000028b4a .LASF4132
     /tmp/cciiZT4Y.s:99938  .debug_str:000000000002e369 .LASF4133
     /tmp/cciiZT4Y.s:104136  .debug_str:000000000003f3b0 .LASF4134
     /tmp/cciiZT4Y.s:104878  .debug_str:00000000000429d4 .LASF4135
     /tmp/cciiZT4Y.s:104286  .debug_str:000000000003fcfd .LASF4136
     /tmp/cciiZT4Y.s:99224  .debug_str:000000000002b7a4 .LASF4137
     /tmp/cciiZT4Y.s:103048  .debug_str:000000000003ab7a .LASF4138
     /tmp/cciiZT4Y.s:90074  .debug_str:0000000000005ff0 .LASF4139
     /tmp/cciiZT4Y.s:97472  .debug_str:0000000000024943 .LASF4140
     /tmp/cciiZT4Y.s:106946  .debug_str:000000000004b264 .LASF4141
     /tmp/cciiZT4Y.s:104766  .debug_str:000000000004218d .LASF4142
     /tmp/cciiZT4Y.s:94120  .debug_str:000000000001638f .LASF4143
     /tmp/cciiZT4Y.s:88806  .debug_str:00000000000009c6 .LASF4144
     /tmp/cciiZT4Y.s:91304  .debug_str:000000000000b450 .LASF4145
     /tmp/cciiZT4Y.s:96982  .debug_str:00000000000227d1 .LASF4146
     /tmp/cciiZT4Y.s:105796  .debug_str:0000000000046548 .LASF4147
     /tmp/cciiZT4Y.s:95352  .debug_str:000000000001b6f2 .LASF4148
     /tmp/cciiZT4Y.s:90678  .debug_str:000000000000896a .LASF4149
     /tmp/cciiZT4Y.s:108070  .debug_str:000000000004ff9b .LASF4150
     /tmp/cciiZT4Y.s:101884  .debug_str:000000000003663c .LASF4151
     /tmp/cciiZT4Y.s:96778  .debug_str:0000000000021ae4 .LASF4152
     /tmp/cciiZT4Y.s:96576  .debug_str:0000000000020d08 .LASF4153
     /tmp/cciiZT4Y.s:102232  .debug_str:0000000000037c2e .LASF4154
     /tmp/cciiZT4Y.s:100816  .debug_str:0000000000031ce3 .LASF4155
     /tmp/cciiZT4Y.s:103674  .debug_str:000000000003d4f2 .LASF4156
     /tmp/cciiZT4Y.s:97878  .debug_str:0000000000025f30 .LASF4157
     /tmp/cciiZT4Y.s:96078  .debug_str:000000000001e9e9 .LASF4158
     /tmp/cciiZT4Y.s:100220  .debug_str:000000000002f71b .LASF4159
     /tmp/cciiZT4Y.s:100152  .debug_str:000000000002f1b6 .LASF4160
     /tmp/cciiZT4Y.s:106128  .debug_str:0000000000047b7a .LASF4161
     /tmp/cciiZT4Y.s:89274  .debug_str:0000000000002abe .LASF4162
     /tmp/cciiZT4Y.s:97786  .debug_str:0000000000025ab8 .LASF4163
     /tmp/cciiZT4Y.s:104250  .debug_str:000000000003fafa .LASF4164
     /tmp/cciiZT4Y.s:100542  .debug_str:0000000000030bf6 .LASF4165
     /tmp/cciiZT4Y.s:100120  .debug_str:000000000002ef81 .LASF4166
     /tmp/cciiZT4Y.s:90154  .debug_str:0000000000006567 .LASF4167
     /tmp/cciiZT4Y.s:107432  .debug_str:000000000004d327 .LASF4168
     /tmp/cciiZT4Y.s:97588  .debug_str:0000000000025017 .LASF4169
     /tmp/cciiZT4Y.s:91484  .debug_str:000000000000c110 .LASF4170
     /tmp/cciiZT4Y.s:91146  .debug_str:000000000000a908 .LASF4171
     /tmp/cciiZT4Y.s:94932  .debug_str:00000000000199b1 .LASF4172
     /tmp/cciiZT4Y.s:100676  .debug_str:000000000003143d .LASF4173
     /tmp/cciiZT4Y.s:93350  .debug_str:000000000001343c .LASF4174
     /tmp/cciiZT4Y.s:90592  .debug_str:0000000000008334 .LASF4175
     /tmp/cciiZT4Y.s:93296  .debug_str:0000000000012fd1 .LASF4176
     /tmp/cciiZT4Y.s:107584  .debug_str:000000000004df27 .LASF4177
     /tmp/cciiZT4Y.s:99846  .debug_str:000000000002dd58 .LASF4178
     /tmp/cciiZT4Y.s:105114  .debug_str:0000000000043954 .LASF4179
     /tmp/cciiZT4Y.s:102850  .debug_str:0000000000039ea7 .LASF4180
     /tmp/cciiZT4Y.s:94884  .debug_str:00000000000196a4 .LASF4181
     /tmp/cciiZT4Y.s:100988  .debug_str:0000000000032901 .LASF4182
     /tmp/cciiZT4Y.s:90440  .debug_str:00000000000079c6 .LASF4183
     /tmp/cciiZT4Y.s:105130  .debug_str:0000000000043a53 .LASF4184
     /tmp/cciiZT4Y.s:90194  .debug_str:000000000000680f .LASF4185
     /tmp/cciiZT4Y.s:94340  .debug_str:000000000001726f .LASF4186
     /tmp/cciiZT4Y.s:95008  .debug_str:0000000000019f08 .LASF4187
     /tmp/cciiZT4Y.s:99740  .debug_str:000000000002d655 .LASF4188
     /tmp/cciiZT4Y.s:94566  .debug_str:00000000000181a3 .LASF4189
     /tmp/cciiZT4Y.s:98400  .debug_str:00000000000281ad .LASF4190
     /tmp/cciiZT4Y.s:90608  .debug_str:000000000000846e .LASF4191
     /tmp/cciiZT4Y.s:92170  .debug_str:000000000000ebfb .LASF4192
     /tmp/cciiZT4Y.s:94712  .debug_str:0000000000018abb .LASF4193
     /tmp/cciiZT4Y.s:99694  .debug_str:000000000002d3d7 .LASF4194
     /tmp/cciiZT4Y.s:97958  .debug_str:0000000000026495 .LASF4195
     /tmp/cciiZT4Y.s:95214  .debug_str:000000000001adb4 .LASF4196
     /tmp/cciiZT4Y.s:90182  .debug_str:000000000000676d .LASF4197
     /tmp/cciiZT4Y.s:107044  .debug_str:000000000004b919 .LASF4198
     /tmp/cciiZT4Y.s:92670  .debug_str:0000000000010802 .LASF4199
     /tmp/cciiZT4Y.s:106276  .debug_str:0000000000048576 .LASF4200
     /tmp/cciiZT4Y.s:99060  .debug_str:000000000002ac91 .LASF4201
     /tmp/cciiZT4Y.s:95372  .debug_str:000000000001b817 .LASF4202
     /tmp/cciiZT4Y.s:93756  .debug_str:0000000000014c90 .LASF4203
     /tmp/cciiZT4Y.s:101316  .debug_str:0000000000033efc .LASF4204
     /tmp/cciiZT4Y.s:90520  .debug_str:0000000000007ea8 .LASF4205
     /tmp/cciiZT4Y.s:100142  .debug_str:000000000002f0c8 .LASF4206
     /tmp/cciiZT4Y.s:99122  .debug_str:000000000002b13a .LASF4207
     /tmp/cciiZT4Y.s:90090  .debug_str:0000000000006130 .LASF4208
     /tmp/cciiZT4Y.s:94034  .debug_str:0000000000015ea8 .LASF4209
     /tmp/cciiZT4Y.s:104680  .debug_str:00000000000418ff .LASF4210
     /tmp/cciiZT4Y.s:106850  .debug_str:000000000004ab41 .LASF4211
     /tmp/cciiZT4Y.s:103198  .debug_str:000000000003b667 .LASF4212
     /tmp/cciiZT4Y.s:98774  .debug_str:0000000000029a72 .LASF4213
     /tmp/cciiZT4Y.s:100462  .debug_str:000000000003065a .LASF4214
     /tmp/cciiZT4Y.s:104308  .debug_str:000000000003fe5a .LASF4215
     /tmp/cciiZT4Y.s:107694  .debug_str:000000000004e6e1 .LASF4216
     /tmp/cciiZT4Y.s:92038  .debug_str:000000000000e4b8 .LASF4217
     /tmp/cciiZT4Y.s:93836  .debug_str:000000000001519e .LASF4218
     /tmp/cciiZT4Y.s:99652  .debug_str:000000000002d132 .LASF4219
     /tmp/cciiZT4Y.s:97320  .debug_str:0000000000023edb .LASF4220
     /tmp/cciiZT4Y.s:97708  .debug_str:000000000002568c .LASF4221
     /tmp/cciiZT4Y.s:97358  .debug_str:0000000000024198 .LASF4222
     /tmp/cciiZT4Y.s:98450  .debug_str:0000000000028486 .LASF4223
     /tmp/cciiZT4Y.s:103308  .debug_str:000000000003bd71 .LASF4224
     /tmp/cciiZT4Y.s:91270  .debug_str:000000000000b1a5 .LASF4225
     /tmp/cciiZT4Y.s:106990  .debug_str:000000000004b5b0 .LASF4226
     /tmp/cciiZT4Y.s:101706  .debug_str:000000000003599f .LASF4227
     /tmp/cciiZT4Y.s:108064  .debug_str:000000000004ff3e .LASF4228
     /tmp/cciiZT4Y.s:96482  .debug_str:00000000000206cb .LASF4229
     /tmp/cciiZT4Y.s:103050  .debug_str:000000000003ab93 .LASF4230
     /tmp/cciiZT4Y.s:98404  .debug_str:00000000000281da .LASF4231
     /tmp/cciiZT4Y.s:90664  .debug_str:000000000000884f .LASF4232
     /tmp/cciiZT4Y.s:105550  .debug_str:00000000000455c3 .LASF4233
     /tmp/cciiZT4Y.s:93752  .debug_str:0000000000014c56 .LASF4234
     /tmp/cciiZT4Y.s:106812  .debug_str:000000000004a8b2 .LASF4235
     /tmp/cciiZT4Y.s:106374  .debug_str:0000000000048bad .LASF4236
     /tmp/cciiZT4Y.s:96746  .debug_str:0000000000021879 .LASF4237
     /tmp/cciiZT4Y.s:89406  .debug_str:0000000000003368 .LASF4238
     /tmp/cciiZT4Y.s:101812  .debug_str:0000000000036123 .LASF4239
     /tmp/cciiZT4Y.s:88758  .debug_str:00000000000006ad .LASF4240
     /tmp/cciiZT4Y.s:107940  .debug_str:000000000004f6f9 .LASF4241
     /tmp/cciiZT4Y.s:89114  .debug_str:0000000000001fa3 .LASF4242
     /tmp/cciiZT4Y.s:99952  .debug_str:000000000002e409 .LASF4243
     /tmp/cciiZT4Y.s:108028  .debug_str:000000000004fcc8 .LASF4244
     /tmp/cciiZT4Y.s:107140  .debug_str:000000000004bf46 .LASF4245
     /tmp/cciiZT4Y.s:91244  .debug_str:000000000000af85 .LASF4246
     /tmp/cciiZT4Y.s:106042  .debug_str:000000000004758f .LASF4247
     /tmp/cciiZT4Y.s:95870  .debug_str:000000000001dab7 .LASF4248
     /tmp/cciiZT4Y.s:107440  .debug_str:000000000004d3e5 .LASF4249
     /tmp/cciiZT4Y.s:99058  .debug_str:000000000002ac7a .LASF4250
     /tmp/cciiZT4Y.s:98314  .debug_str:0000000000027bbc .LASF4251
     /tmp/cciiZT4Y.s:91170  .debug_str:000000000000aa3c .LASF4252
     /tmp/cciiZT4Y.s:89244  .debug_str:00000000000028a3 .LASF4253
     /tmp/cciiZT4Y.s:105548  .debug_str:00000000000455ac .LASF4254
     /tmp/cciiZT4Y.s:91480  .debug_str:000000000000c0e8 .LASF4255
     /tmp/cciiZT4Y.s:94666  .debug_str:0000000000018887 .LASF4256
     /tmp/cciiZT4Y.s:97736  .debug_str:00000000000258a4 .LASF4257
     /tmp/cciiZT4Y.s:96186  .debug_str:000000000001f081 .LASF4258
     /tmp/cciiZT4Y.s:89754  .debug_str:0000000000004b72 .LASF4259
     /tmp/cciiZT4Y.s:89542  .debug_str:0000000000003c09 .LASF4260
     /tmp/cciiZT4Y.s:94768  .debug_str:0000000000018e1d .LASF4261
     /tmp/cciiZT4Y.s:91764  .debug_str:000000000000d47b .LASF4262
     /tmp/cciiZT4Y.s:99020  .debug_str:000000000002a9eb .LASF4263
     /tmp/cciiZT4Y.s:95718  .debug_str:000000000001d0b5 .LASF4264
     /tmp/cciiZT4Y.s:104768  .debug_str:00000000000421a6 .LASF4265
     /tmp/cciiZT4Y.s:99318  .debug_str:000000000002bcea .LASF4266
     /tmp/cciiZT4Y.s:89904  .debug_str:0000000000005499 .LASF4267
     /tmp/cciiZT4Y.s:102728  .debug_str:000000000003975a .LASF4268
     /tmp/cciiZT4Y.s:103590  .debug_str:000000000003cfcd .LASF4269
     /tmp/cciiZT4Y.s:92364  .debug_str:000000000000f69e .LASF4270
     /tmp/cciiZT4Y.s:96594  .debug_str:0000000000020e23 .LASF4271
     /tmp/cciiZT4Y.s:89490  .debug_str:000000000000386c .LASF4272
     /tmp/cciiZT4Y.s:102894  .debug_str:000000000003a104 .LASF4273
     /tmp/cciiZT4Y.s:103230  .debug_str:000000000003b82d .LASF4274
     /tmp/cciiZT4Y.s:104104  .debug_str:000000000003f1c3 .LASF4275
     /tmp/cciiZT4Y.s:101356  .debug_str:0000000000034154 .LASF4276
     /tmp/cciiZT4Y.s:105926  .debug_str:0000000000046e3b .LASF4277
     /tmp/cciiZT4Y.s:99436  .debug_str:000000000002c486 .LASF4278
     /tmp/cciiZT4Y.s:96282  .debug_str:000000000001f85e .LASF4279
     /tmp/cciiZT4Y.s:93082  .debug_str:000000000001217f .LASF4280
     /tmp/cciiZT4Y.s:101896  .debug_str:00000000000366f0 .LASF4281
     /tmp/cciiZT4Y.s:95608  .debug_str:000000000001c90c .LASF4282
     /tmp/cciiZT4Y.s:90922  .debug_str:0000000000009a00 .LASF4283
     /tmp/cciiZT4Y.s:102678  .debug_str:0000000000039548 .LASF4284
     /tmp/cciiZT4Y.s:100066  .debug_str:000000000002ec59 .LASF4285
     /tmp/cciiZT4Y.s:91714  .debug_str:000000000000d0bf .LASF4286
     /tmp/cciiZT4Y.s:103838  .debug_str:000000000003e0fa .LASF4287
     /tmp/cciiZT4Y.s:98626  .debug_str:0000000000029130 .LASF4288
     /tmp/cciiZT4Y.s:97294  .debug_str:0000000000023d25 .LASF4289
     /tmp/cciiZT4Y.s:107938  .debug_str:000000000004f6e3 .LASF4290
     /tmp/cciiZT4Y.s:98030  .debug_str:0000000000026934 .LASF4291
     /tmp/cciiZT4Y.s:91168  .debug_str:000000000000aa26 .LASF4292
     /tmp/cciiZT4Y.s:101948  .debug_str:0000000000036a6c .LASF4293
     /tmp/cciiZT4Y.s:107560  .debug_str:000000000004dd67 .LASF4294
     /tmp/cciiZT4Y.s:102828  .debug_str:0000000000039d81 .LASF4295
     /tmp/cciiZT4Y.s:93230  .debug_str:0000000000012b15 .LASF4296
     /tmp/cciiZT4Y.s:104042  .debug_str:000000000003eda1 .LASF4297
     /tmp/cciiZT4Y.s:88962  .debug_str:00000000000013fd .LASF4298
     /tmp/cciiZT4Y.s:101668  .debug_str:00000000000356d7 .LASF4299
     /tmp/cciiZT4Y.s:90186  .debug_str:000000000000678d .LASF4300
     /tmp/cciiZT4Y.s:93572  .debug_str:00000000000141be .LASF4301
     /tmp/cciiZT4Y.s:92276  .debug_str:000000000000f0e5 .LASF4302
     /tmp/cciiZT4Y.s:95036  .debug_str:000000000001a075 .LASF4303
     /tmp/cciiZT4Y.s:90822  .debug_str:00000000000092d2 .LASF4304
     /tmp/cciiZT4Y.s:93260  .debug_str:0000000000012d39 .LASF4305
     /tmp/cciiZT4Y.s:107638  .debug_str:000000000004e2b3 .LASF4306
     /tmp/cciiZT4Y.s:96032  .debug_str:000000000001e6b7 .LASF4307
     /tmp/cciiZT4Y.s:104858  .debug_str:000000000004288f .LASF4308
     /tmp/cciiZT4Y.s:97536  .debug_str:0000000000024d62 .LASF4309
     /tmp/cciiZT4Y.s:96648  .debug_str:00000000000211a7 .LASF4310
     /tmp/cciiZT4Y.s:105500  .debug_str:00000000000451f3 .LASF4311
     /tmp/cciiZT4Y.s:103446  .debug_str:000000000003c6ff .LASF4312
     /tmp/cciiZT4Y.s:89452  .debug_str:00000000000035db .LASF4313
     /tmp/cciiZT4Y.s:98172  .debug_str:000000000002726b .LASF4314
     /tmp/cciiZT4Y.s:107180  .debug_str:000000000004c1ca .LASF4315
     /tmp/cciiZT4Y.s:103608  .debug_str:000000000003d0e1 .LASF4316
     /tmp/cciiZT4Y.s:93134  .debug_str:0000000000012507 .LASF4317
     /tmp/cciiZT4Y.s:105404  .debug_str:0000000000044c2a .LASF4318
     /tmp/cciiZT4Y.s:96354  .debug_str:000000000001fcdc .LASF4319
     /tmp/cciiZT4Y.s:107484  .debug_str:000000000004d70d .LASF4320
     /tmp/cciiZT4Y.s:102360  .debug_str:00000000000384a9 .LASF4321
     /tmp/cciiZT4Y.s:94976  .debug_str:0000000000019cd2 .LASF4322
     /tmp/cciiZT4Y.s:92946  .debug_str:00000000000117cc .LASF4323
     /tmp/cciiZT4Y.s:99082  .debug_str:000000000002adec .LASF4324
     /tmp/cciiZT4Y.s:106742  .debug_str:000000000004a358 .LASF4325
     /tmp/cciiZT4Y.s:99898  .debug_str:000000000002e0b7 .LASF4326
     /tmp/cciiZT4Y.s:92264  .debug_str:000000000000f00e .LASF4327
     /tmp/cciiZT4Y.s:90730  .debug_str:0000000000008ccd .LASF4328
     /tmp/cciiZT4Y.s:92712  .debug_str:0000000000010a73 .LASF4329
     /tmp/cciiZT4Y.s:105824  .debug_str:000000000004674d .LASF4330
     /tmp/cciiZT4Y.s:92920  .debug_str:000000000001164c .LASF4331
     /tmp/cciiZT4Y.s:89116  .debug_str:0000000000001fba .LASF4332
     /tmp/cciiZT4Y.s:92588  .debug_str:0000000000010353 .LASF4333
     /tmp/cciiZT4Y.s:108024  .debug_str:000000000004fca3 .LASF4334
     /tmp/cciiZT4Y.s:101392  .debug_str:000000000003438d .LASF4335
     /tmp/cciiZT4Y.s:107644  .debug_str:000000000004e32d .LASF4336
     /tmp/cciiZT4Y.s:88940  .debug_str:000000000000127c .LASF4337
     /tmp/cciiZT4Y.s:105042  .debug_str:0000000000043444 .LASF4338
     /tmp/cciiZT4Y.s:106286  .debug_str:0000000000048624 .LASF4339
     /tmp/cciiZT4Y.s:94470  .debug_str:0000000000017c21 .LASF4340
     /tmp/cciiZT4Y.s:96974  .debug_str:000000000002275e .LASF4341
     /tmp/cciiZT4Y.s:95134  .debug_str:000000000001a7af .LASF4342
     /tmp/cciiZT4Y.s:94460  .debug_str:0000000000017b1d .LASF4343
     /tmp/cciiZT4Y.s:103578  .debug_str:000000000003cf0f .LASF4344
     /tmp/cciiZT4Y.s:103550  .debug_str:000000000003cd69 .LASF4345
     /tmp/cciiZT4Y.s:94502  .debug_str:0000000000017e48 .LASF4346
     /tmp/cciiZT4Y.s:102884  .debug_str:000000000003a042 .LASF4347
     /tmp/cciiZT4Y.s:92704  .debug_str:00000000000109e1 .LASF4348
     /tmp/cciiZT4Y.s:99874  .debug_str:000000000002df20 .LASF4349
     /tmp/cciiZT4Y.s:100836  .debug_str:0000000000031e26 .LASF4350
     /tmp/cciiZT4Y.s:108048  .debug_str:000000000004fe68 .LASF4351
     /tmp/cciiZT4Y.s:103698  .debug_str:000000000003d6aa .LASF4352
     /tmp/cciiZT4Y.s:88952  .debug_str:000000000000134f .LASF4353
     /tmp/cciiZT4Y.s:92922  .debug_str:0000000000011666 .LASF4354
     /tmp/cciiZT4Y.s:99972  .debug_str:000000000002e58c .LASF4355
     /tmp/cciiZT4Y.s:95790  .debug_str:000000000001d515 .LASF4356
     /tmp/cciiZT4Y.s:98420  .debug_str:00000000000282aa .LASF4357
     /tmp/cciiZT4Y.s:98732  .debug_str:000000000002977a .LASF4358
     /tmp/cciiZT4Y.s:107398  .debug_str:000000000004d122 .LASF4359
     /tmp/cciiZT4Y.s:101762  .debug_str:0000000000035e1e .LASF4360
     /tmp/cciiZT4Y.s:107634  .debug_str:000000000004e299 .LASF4361
     /tmp/cciiZT4Y.s:98960  .debug_str:000000000002a6f8 .LASF4362
     /tmp/cciiZT4Y.s:106736  .debug_str:000000000004a301 .LASF4363
     /tmp/cciiZT4Y.s:90936  .debug_str:0000000000009b3c .LASF4364
     /tmp/cciiZT4Y.s:98710  .debug_str:0000000000029627 .LASF4365
     /tmp/cciiZT4Y.s:101476  .debug_str:000000000003490e .LASF4366
     /tmp/cciiZT4Y.s:103624  .debug_str:000000000003d1d5 .LASF4367
     /tmp/cciiZT4Y.s:96856  .debug_str:0000000000021ff8 .LASF4368
     /tmp/cciiZT4Y.s:90068  .debug_str:0000000000005f98 .LASF4369
     /tmp/cciiZT4Y.s:106250  .debug_str:00000000000483cb .LASF4370
     /tmp/cciiZT4Y.s:96876  .debug_str:00000000000220df .LASF4371
     /tmp/cciiZT4Y.s:106840  .debug_str:000000000004aa99 .LASF4372
     /tmp/cciiZT4Y.s:101640  .debug_str:00000000000354be .LASF4373
     /tmp/cciiZT4Y.s:107708  .debug_str:000000000004e79b .LASF4374
     /tmp/cciiZT4Y.s:104978  .debug_str:000000000004300e .LASF4375
     /tmp/cciiZT4Y.s:103860  .debug_str:000000000003e29d .LASF4376
     /tmp/cciiZT4Y.s:89182  .debug_str:00000000000024a9 .LASF4377
     /tmp/cciiZT4Y.s:105786  .debug_str:00000000000464d6 .LASF4378
     /tmp/cciiZT4Y.s:95808  .debug_str:000000000001d613 .LASF4379
     /tmp/cciiZT4Y.s:94488  .debug_str:0000000000017d4d .LASF4380
     /tmp/cciiZT4Y.s:90272  .debug_str:0000000000006df4 .LASF4381
     /tmp/cciiZT4Y.s:101696  .debug_str:0000000000035911 .LASF4382
     /tmp/cciiZT4Y.s:105874  .debug_str:0000000000046a4b .LASF4383
     /tmp/cciiZT4Y.s:103382  .debug_str:000000000003c2e9 .LASF4384
     /tmp/cciiZT4Y.s:98218  .debug_str:00000000000274f1 .LASF4385
     /tmp/cciiZT4Y.s:102834  .debug_str:0000000000039de4 .LASF4386
     /tmp/cciiZT4Y.s:100342  .debug_str:000000000002fecb .LASF4387
     /tmp/cciiZT4Y.s:102030  .debug_str:0000000000036f92 .LASF4388
     /tmp/cciiZT4Y.s:106358  .debug_str:0000000000048aa2 .LASF4389
     /tmp/cciiZT4Y.s:96878  .debug_str:00000000000220f0 .LASF4390
     /tmp/cciiZT4Y.s:106108  .debug_str:0000000000047a74 .LASF4391
     /tmp/cciiZT4Y.s:88706  .debug_str:00000000000002f3 .LASF4392
     /tmp/cciiZT4Y.s:91388  .debug_str:000000000000b9cb .LASF4393
     /tmp/cciiZT4Y.s:103924  .debug_str:000000000003e6c1 .LASF4394
     /tmp/cciiZT4Y.s:96928  .debug_str:000000000002251e .LASF4395
     /tmp/cciiZT4Y.s:103884  .debug_str:000000000003e414 .LASF4396
     /tmp/cciiZT4Y.s:93734  .debug_str:0000000000014bbf .LASF4397
     /tmp/cciiZT4Y.s:98056  .debug_str:0000000000026b18 .LASF4398
     /tmp/cciiZT4Y.s:102810  .debug_str:0000000000039c38 .LASF4399
     /tmp/cciiZT4Y.s:89418  .debug_str:0000000000003449 .LASF4400
     /tmp/cciiZT4Y.s:104020  .debug_str:000000000003ebf9 .LASF4401
     /tmp/cciiZT4Y.s:93166  .debug_str:00000000000126f4 .LASF4402
     /tmp/cciiZT4Y.s:94638  .debug_str:00000000000186c6 .LASF4403
     /tmp/cciiZT4Y.s:102272  .debug_str:0000000000037f57 .LASF4404
     /tmp/cciiZT4Y.s:91700  .debug_str:000000000000cfc5 .LASF4405
     /tmp/cciiZT4Y.s:99524  .debug_str:000000000002c91b .LASF4406
     /tmp/cciiZT4Y.s:99742  .debug_str:000000000002d66a .LASF4407
     /tmp/cciiZT4Y.s:105206  .debug_str:0000000000043ef2 .LASF4408
     /tmp/cciiZT4Y.s:98422  .debug_str:00000000000282c5 .LASF4409
     /tmp/cciiZT4Y.s:95018  .debug_str:0000000000019f66 .LASF4410
     /tmp/cciiZT4Y.s:89436  .debug_str:0000000000003526 .LASF4411
     /tmp/cciiZT4Y.s:98244  .debug_str:00000000000276b3 .LASF4412
     /tmp/cciiZT4Y.s:89324  .debug_str:0000000000002dad .LASF4413
     /tmp/cciiZT4Y.s:100234  .debug_str:000000000002f7e3 .LASF4414
     /tmp/cciiZT4Y.s:103952  .debug_str:000000000003e8a3 .LASF4415
     /tmp/cciiZT4Y.s:93136  .debug_str:0000000000012521 .LASF4416
     /tmp/cciiZT4Y.s:93664  .debug_str:0000000000014791 .LASF4417
     /tmp/cciiZT4Y.s:102178  .debug_str:0000000000037975 .LASF4418
     /tmp/cciiZT4Y.s:97906  .debug_str:000000000002617d .LASF4419
     /tmp/cciiZT4Y.s:107326  .debug_str:000000000004cc8a .LASF4420
     /tmp/cciiZT4Y.s:98838  .debug_str:0000000000029e94 .LASF4421
     /tmp/cciiZT4Y.s:107050  .debug_str:000000000004b9a6 .LASF4422
     /tmp/cciiZT4Y.s:98592  .debug_str:0000000000028ea9 .LASF4423
     /tmp/cciiZT4Y.s:93220  .debug_str:0000000000012a79 .LASF4424
     /tmp/cciiZT4Y.s:105740  .debug_str:0000000000046260 .LASF4425
     /tmp/cciiZT4Y.s:103220  .debug_str:000000000003b789 .LASF4426
     /tmp/cciiZT4Y.s:106596  .debug_str:0000000000049a9d .LASF4427
     /tmp/cciiZT4Y.s:101840  .debug_str:0000000000036324 .LASF4428
     /tmp/cciiZT4Y.s:102854  .debug_str:0000000000039edc .LASF4429
     /tmp/cciiZT4Y.s:91488  .debug_str:000000000000c146 .LASF4430
     /tmp/cciiZT4Y.s:104356  .debug_str:0000000000040130 .LASF4431
     /tmp/cciiZT4Y.s:102008  .debug_str:0000000000036e45 .LASF4432
     /tmp/cciiZT4Y.s:96170  .debug_str:000000000001ef6f .LASF4433
     /tmp/cciiZT4Y.s:107354  .debug_str:000000000004ce95 .LASF4434
     /tmp/cciiZT4Y.s:101962  .debug_str:0000000000036b54 .LASF4435
     /tmp/cciiZT4Y.s:94042  .debug_str:0000000000015ef1 .LASF4436
     /tmp/cciiZT4Y.s:92410  .debug_str:000000000000f8c4 .LASF4437
     /tmp/cciiZT4Y.s:99682  .debug_str:000000000002d2e0 .LASF4438
     /tmp/cciiZT4Y.s:106494  .debug_str:00000000000493bf .LASF4439
     /tmp/cciiZT4Y.s:92346  .debug_str:000000000000f4fa .LASF4440
     /tmp/cciiZT4Y.s:98904  .debug_str:000000000002a2f6 .LASF4441
     /tmp/cciiZT4Y.s:103684  .debug_str:000000000003d593 .LASF4442
     /tmp/cciiZT4Y.s:88996  .debug_str:0000000000001638 .LASF4443
     /tmp/cciiZT4Y.s:100122  .debug_str:000000000002ef9b .LASF4444
     /tmp/cciiZT4Y.s:89882  .debug_str:0000000000005341 .LASF4445
     /tmp/cciiZT4Y.s:105972  .debug_str:00000000000470aa .LASF4446
     /tmp/cciiZT4Y.s:91550  .debug_str:000000000000c512 .LASF4447
     /tmp/cciiZT4Y.s:104508  .debug_str:0000000000040cc7 .LASF4448
     /tmp/cciiZT4Y.s:92512  .debug_str:000000000000ffda .LASF4449
     /tmp/cciiZT4Y.s:100696  .debug_str:0000000000031522 .LASF4450
     /tmp/cciiZT4Y.s:107266  .debug_str:000000000004c7f0 .LASF4451
     /tmp/cciiZT4Y.s:103584  .debug_str:000000000003cf79 .LASF4452
     /tmp/cciiZT4Y.s:92980  .debug_str:0000000000011a68 .LASF4453
     /tmp/cciiZT4Y.s:105472  .debug_str:0000000000045004 .LASF4454
     /tmp/cciiZT4Y.s:103642  .debug_str:000000000003d2d4 .LASF4455
     /tmp/cciiZT4Y.s:102674  .debug_str:000000000003952a .LASF4456
     /tmp/cciiZT4Y.s:96966  .debug_str:0000000000022701 .LASF4457
     /tmp/cciiZT4Y.s:100116  .debug_str:000000000002ef65 .LASF4458
     /tmp/cciiZT4Y.s:92600  .debug_str:0000000000010457 .LASF4459
     /tmp/cciiZT4Y.s:96312  .debug_str:000000000001fa30 .LASF4460
     /tmp/cciiZT4Y.s:91698  .debug_str:000000000000cfb1 .LASF4461
     /tmp/cciiZT4Y.s:91570  .debug_str:000000000000c673 .LASF4462
     /tmp/cciiZT4Y.s:92208  .debug_str:000000000000edcf .LASF4463
     /tmp/cciiZT4Y.s:101688  .debug_str:00000000000358b8 .LASF4464
     /tmp/cciiZT4Y.s:93890  .debug_str:0000000000015513 .LASF4465
     /tmp/cciiZT4Y.s:91100  .debug_str:000000000000a5d1 .LASF4466
     /tmp/cciiZT4Y.s:106674  .debug_str:0000000000049f90 .LASF4467
     /tmp/cciiZT4Y.s:97784  .debug_str:0000000000025aa5 .LASF4468
     /tmp/cciiZT4Y.s:101110  .debug_str:00000000000330d4 .LASF4469
     /tmp/cciiZT4Y.s:90882  .debug_str:0000000000009718 .LASF4470
     /tmp/cciiZT4Y.s:100432  .debug_str:0000000000030403 .LASF4471
     /tmp/cciiZT4Y.s:99976  .debug_str:000000000002e5b3 .LASF4472
     /tmp/cciiZT4Y.s:94214  .debug_str:0000000000016a09 .LASF4473
     /tmp/cciiZT4Y.s:106728  .debug_str:000000000004a271 .LASF4474
     /tmp/cciiZT4Y.s:104658  .debug_str:0000000000041792 .LASF4475
     /tmp/cciiZT4Y.s:99148  .debug_str:000000000002b283 .LASF4476
     /tmp/cciiZT4Y.s:107832  .debug_str:000000000004efc4 .LASF4477
     /tmp/cciiZT4Y.s:106304  .debug_str:000000000004872f .LASF4478
     /tmp/cciiZT4Y.s:100942  .debug_str:00000000000325d6 .LASF4479
     /tmp/cciiZT4Y.s:97592  .debug_str:0000000000025041 .LASF4480
     /tmp/cciiZT4Y.s:95220  .debug_str:000000000001ae35 .LASF4481
     /tmp/cciiZT4Y.s:96072  .debug_str:000000000001e95a .LASF4482
     /tmp/cciiZT4Y.s:95524  .debug_str:000000000001c25c .LASF4483
     /tmp/cciiZT4Y.s:101412  .debug_str:000000000003451f .LASF4484
     /tmp/cciiZT4Y.s:100020  .debug_str:000000000002e8db .LASF4485
     /tmp/cciiZT4Y.s:100450  .debug_str:0000000000030569 .LASF4486
     /tmp/cciiZT4Y.s:101440  .debug_str:0000000000034681 .LASF4487
     /tmp/cciiZT4Y.s:103870  .debug_str:000000000003e328 .LASF4488
     /tmp/cciiZT4Y.s:91486  .debug_str:000000000000c12a .LASF4489
     /tmp/cciiZT4Y.s:95156  .debug_str:000000000001a970 .LASF4490
     /tmp/cciiZT4Y.s:89338  .debug_str:0000000000002ec9 .LASF4491
     /tmp/cciiZT4Y.s:90798  .debug_str:00000000000091ad .LASF4492
     /tmp/cciiZT4Y.s:88912  .debug_str:00000000000010ce .LASF4493
     /tmp/cciiZT4Y.s:94508  .debug_str:0000000000017e82 .LASF4494
     /tmp/cciiZT4Y.s:106922  .debug_str:000000000004b0aa .LASF4495
     /tmp/cciiZT4Y.s:100598  .debug_str:0000000000030f60 .LASF4496
     /tmp/cciiZT4Y.s:92112  .debug_str:000000000000e88d .LASF4497
     /tmp/cciiZT4Y.s:95874  .debug_str:000000000001daf4 .LASF4498
     /tmp/cciiZT4Y.s:98146  .debug_str:00000000000270d6 .LASF4499
     /tmp/cciiZT4Y.s:96586  .debug_str:0000000000020dc4 .LASF4500
     /tmp/cciiZT4Y.s:98008  .debug_str:0000000000026765 .LASF4501
     /tmp/cciiZT4Y.s:91532  .debug_str:000000000000c3ed .LASF4502
     /tmp/cciiZT4Y.s:95240  .debug_str:000000000001afa0 .LASF4503
     /tmp/cciiZT4Y.s:104526  .debug_str:0000000000040e04 .LASF4504
     /tmp/cciiZT4Y.s:95844  .debug_str:000000000001d8c8 .LASF4505
     /tmp/cciiZT4Y.s:95408  .debug_str:000000000001baa2 .LASF4506
     /tmp/cciiZT4Y.s:99228  .debug_str:000000000002b7ff .LASF4507
     /tmp/cciiZT4Y.s:92736  .debug_str:0000000000010b3a .LASF4508
     /tmp/cciiZT4Y.s:103330  .debug_str:000000000003bec3 .LASF4509
     /tmp/cciiZT4Y.s:94516  .debug_str:0000000000017ed8 .LASF4510
     /tmp/cciiZT4Y.s:90958  .debug_str:0000000000009cd8 .LASF4511
     /tmp/cciiZT4Y.s:92688  .debug_str:000000000001090d .LASF4512
     /tmp/cciiZT4Y.s:106192  .debug_str:0000000000047ff9 .LASF4513
     /tmp/cciiZT4Y.s:91426  .debug_str:000000000000bd30 .LASF4514
     /tmp/cciiZT4Y.s:96736  .debug_str:00000000000217ca .LASF4515
     /tmp/cciiZT4Y.s:96020  .debug_str:000000000001e601 .LASF4516
     /tmp/cciiZT4Y.s:93938  .debug_str:000000000001584b .LASF4517
     /tmp/cciiZT4Y.s:106032  .debug_str:000000000004751a .LASF4518
     /tmp/cciiZT4Y.s:93294  .debug_str:0000000000012fb8 .LASF4519
     /tmp/cciiZT4Y.s:96022  .debug_str:000000000001e620 .LASF4520
     /tmp/cciiZT4Y.s:91984  .debug_str:000000000000e160 .LASF4521
     /tmp/cciiZT4Y.s:97934  .debug_str:00000000000262fa .LASF4522
     /tmp/cciiZT4Y.s:103362  .debug_str:000000000003c146 .LASF4523
     /tmp/cciiZT4Y.s:101246  .debug_str:0000000000033a40 .LASF4524
     /tmp/cciiZT4Y.s:105516  .debug_str:000000000004531e .LASF4525
     /tmp/cciiZT4Y.s:107778  .debug_str:000000000004ebe6 .LASF4526
     /tmp/cciiZT4Y.s:100636  .debug_str:0000000000031178 .LASF4527
     /tmp/cciiZT4Y.s:99628  .debug_str:000000000002cfce .LASF4528
     /tmp/cciiZT4Y.s:89434  .debug_str:0000000000003517 .LASF4529
     /tmp/cciiZT4Y.s:102344  .debug_str:0000000000038374 .LASF4530
     /tmp/cciiZT4Y.s:96848  .debug_str:0000000000021fac .LASF4531
     /tmp/cciiZT4Y.s:100990  .debug_str:0000000000032916 .LASF4532
     /tmp/cciiZT4Y.s:93250  .debug_str:0000000000012c91 .LASF4533
     /tmp/cciiZT4Y.s:98930  .debug_str:000000000002a4f3 .LASF4534
     /tmp/cciiZT4Y.s:90864  .debug_str:00000000000095e0 .LASF4535
     /tmp/cciiZT4Y.s:99442  .debug_str:000000000002c4d5 .LASF4536
     /tmp/cciiZT4Y.s:107930  .debug_str:000000000004f62b .LASF4537
     /tmp/cciiZT4Y.s:89544  .debug_str:0000000000003c22 .LASF4538
     /tmp/cciiZT4Y.s:94652  .debug_str:000000000001879c .LASF4539
     /tmp/cciiZT4Y.s:99848  .debug_str:000000000002dd6f .LASF4540
     /tmp/cciiZT4Y.s:103462  .debug_str:000000000003c80a .LASF4541
     /tmp/cciiZT4Y.s:101702  .debug_str:000000000003595e .LASF4542
     /tmp/cciiZT4Y.s:94312  .debug_str:0000000000017087 .LASF4543
     /tmp/cciiZT4Y.s:95862  .debug_str:000000000001da24 .LASF4544
     /tmp/cciiZT4Y.s:95766  .debug_str:000000000001d384 .LASF4545
     /tmp/cciiZT4Y.s:90060  .debug_str:0000000000005f4b .LASF4546
     /tmp/cciiZT4Y.s:89740  .debug_str:0000000000004a5a .LASF4547
     /tmp/cciiZT4Y.s:103772  .debug_str:000000000003dc5b .LASF4548
     /tmp/cciiZT4Y.s:106904  .debug_str:000000000004af46 .LASF4549
     /tmp/cciiZT4Y.s:100036  .debug_str:000000000002ea01 .LASF4550
     /tmp/cciiZT4Y.s:104670  .debug_str:0000000000041897 .LASF4551
     /tmp/cciiZT4Y.s:96424  .debug_str:0000000000020264 .LASF4552
     /tmp/cciiZT4Y.s:104996  .debug_str:000000000004312b .LASF4553
     /tmp/cciiZT4Y.s:94520  .debug_str:0000000000017f26 .LASF4554
     /tmp/cciiZT4Y.s:91366  .debug_str:000000000000b883 .LASF4555
     /tmp/cciiZT4Y.s:107988  .debug_str:000000000004fa1b .LASF4556
     /tmp/cciiZT4Y.s:89534  .debug_str:0000000000003b75 .LASF4557
     /tmp/cciiZT4Y.s:89622  .debug_str:00000000000041bc .LASF4558
     /tmp/cciiZT4Y.s:101908  .debug_str:00000000000367ad .LASF4559
     /tmp/cciiZT4Y.s:96588  .debug_str:0000000000020ddb .LASF4560
     /tmp/cciiZT4Y.s:95958  .debug_str:000000000001e13f .LASF4561
     /tmp/cciiZT4Y.s:107098  .debug_str:000000000004bcd0 .LASF4562
     /tmp/cciiZT4Y.s:95252  .debug_str:000000000001b037 .LASF4563
     /tmp/cciiZT4Y.s:107616  .debug_str:000000000004e103 .LASF4564
     /tmp/cciiZT4Y.s:101050  .debug_str:0000000000032d99 .LASF4565
     /tmp/cciiZT4Y.s:92262  .debug_str:000000000000effe .LASF4566
     /tmp/cciiZT4Y.s:93590  .debug_str:00000000000142bf .LASF4567
     /tmp/cciiZT4Y.s:100214  .debug_str:000000000002f679 .LASF4568
     /tmp/cciiZT4Y.s:104092  .debug_str:000000000003f0c1 .LASF4569
     /tmp/cciiZT4Y.s:89360  .debug_str:0000000000003086 .LASF4570
     /tmp/cciiZT4Y.s:89948  .debug_str:0000000000005786 .LASF4571
     /tmp/cciiZT4Y.s:100744  .debug_str:00000000000318d6 .LASF4572
     /tmp/cciiZT4Y.s:93514  .debug_str:0000000000013e5d .LASF4573
     /tmp/cciiZT4Y.s:88986  .debug_str:0000000000001576 .LASF4574
     /tmp/cciiZT4Y.s:90658  .debug_str:0000000000008827 .LASF4575
     /tmp/cciiZT4Y.s:104822  .debug_str:00000000000425dc .LASF4576
     /tmp/cciiZT4Y.s:106856  .debug_str:000000000004ab8e .LASF4577
     /tmp/cciiZT4Y.s:96284  .debug_str:000000000001f875 .LASF4578
     /tmp/cciiZT4Y.s:88982  .debug_str:000000000000153f .LASF4579
     /tmp/cciiZT4Y.s:96512  .debug_str:000000000002095d .LASF4580
     /tmp/cciiZT4Y.s:90880  .debug_str:0000000000009705 .LASF4581
     /tmp/cciiZT4Y.s:101080  .debug_str:0000000000032f2f .LASF4582
     /tmp/cciiZT4Y.s:102770  .debug_str:0000000000039a40 .LASF4583
     /tmp/cciiZT4Y.s:105742  .debug_str:0000000000046273 .LASF4584
     /tmp/cciiZT4Y.s:107008  .debug_str:000000000004b6b2 .LASF4585
     /tmp/cciiZT4Y.s:92204  .debug_str:000000000000edaa .LASF4586
     /tmp/cciiZT4Y.s:89502  .debug_str:000000000000394f .LASF4587
     /tmp/cciiZT4Y.s:98110  .debug_str:0000000000026ed8 .LASF4588
     /tmp/cciiZT4Y.s:95806  .debug_str:000000000001d601 .LASF4589
     /tmp/cciiZT4Y.s:98842  .debug_str:0000000000029ec6 .LASF4590
     /tmp/cciiZT4Y.s:95190  .debug_str:000000000001ac48 .LASF4591
     /tmp/cciiZT4Y.s:96544  .debug_str:0000000000020b52 .LASF4592
     /tmp/cciiZT4Y.s:105120  .debug_str:00000000000439a8 .LASF4593
     /tmp/cciiZT4Y.s:97106  .debug_str:000000000002300a .LASF4594
     /tmp/cciiZT4Y.s:102930  .debug_str:000000000003a3d5 .LASF4595
     /tmp/cciiZT4Y.s:91894  .debug_str:000000000000dc97 .LASF4596
     /tmp/cciiZT4Y.s:106438  .debug_str:0000000000048ff9 .LASF4597
     /tmp/cciiZT4Y.s:103612  .debug_str:000000000003d112 .LASF4598
     /tmp/cciiZT4Y.s:100762  .debug_str:0000000000031a06 .LASF4599
     /tmp/cciiZT4Y.s:103656  .debug_str:000000000003d3d4 .LASF4600
     /tmp/cciiZT4Y.s:92740  .debug_str:0000000000010b8f .LASF4601
     /tmp/cciiZT4Y.s:101434  .debug_str:000000000003461e .LASF4602
     /tmp/cciiZT4Y.s:105904  .debug_str:0000000000046c89 .LASF4603
     /tmp/cciiZT4Y.s:99160  .debug_str:000000000002b2ec .LASF4604
     /tmp/cciiZT4Y.s:107664  .debug_str:000000000004e4bf .LASF4605
     /tmp/cciiZT4Y.s:93346  .debug_str:0000000000013415 .LASF4606
     /tmp/cciiZT4Y.s:88726  .debug_str:0000000000000458 .LASF4607
     /tmp/cciiZT4Y.s:97302  .debug_str:0000000000023dac .LASF4608
     /tmp/cciiZT4Y.s:91348  .debug_str:000000000000b715 .LASF4609
     /tmp/cciiZT4Y.s:106152  .debug_str:0000000000047d8e .LASF4610
     /tmp/cciiZT4Y.s:103422  .debug_str:000000000003c53d .LASF4611
     /tmp/cciiZT4Y.s:103238  .debug_str:000000000003b880 .LASF4612
     /tmp/cciiZT4Y.s:92654  .debug_str:00000000000106c9 .LASF4613
     /tmp/cciiZT4Y.s:94616  .debug_str:000000000001857b .LASF4614
     /tmp/cciiZT4Y.s:92496  .debug_str:000000000000fea1 .LASF4615
     /tmp/cciiZT4Y.s:98756  .debug_str:0000000000029967 .LASF4616
     /tmp/cciiZT4Y.s:104376  .debug_str:000000000004022e .LASF4617
     /tmp/cciiZT4Y.s:96452  .debug_str:0000000000020463 .LASF4618
     /tmp/cciiZT4Y.s:105022  .debug_str:000000000004332c .LASF4619
     /tmp/cciiZT4Y.s:94172  .debug_str:00000000000166e8 .LASF4620
     /tmp/cciiZT4Y.s:102848  .debug_str:0000000000039e90 .LASF4621
     /tmp/cciiZT4Y.s:105362  .debug_str:000000000004491c .LASF4622
     /tmp/cciiZT4Y.s:102570  .debug_str:0000000000038f77 .LASF4623
     /tmp/cciiZT4Y.s:96046  .debug_str:000000000001e760 .LASF4624
     /tmp/cciiZT4Y.s:104618  .debug_str:000000000004154d .LASF4625
     /tmp/cciiZT4Y.s:93782  .debug_str:0000000000014e2b .LASF4626
     /tmp/cciiZT4Y.s:100254  .debug_str:000000000002f901 .LASF4627
     /tmp/cciiZT4Y.s:91444  .debug_str:000000000000be7e .LASF4628
     /tmp/cciiZT4Y.s:107860  .debug_str:000000000004f14e .LASF4629
     /tmp/cciiZT4Y.s:101818  .debug_str:0000000000036190 .LASF4630
     /tmp/cciiZT4Y.s:100018  .debug_str:000000000002e8c3 .LASF4631
     /tmp/cciiZT4Y.s:89550  .debug_str:0000000000003c84 .LASF4632
     /tmp/cciiZT4Y.s:106538  .debug_str:0000000000049632 .LASF4633
     /tmp/cciiZT4Y.s:89412  .debug_str:00000000000033e7 .LASF4634
     /tmp/cciiZT4Y.s:95896  .debug_str:000000000001dcf4 .LASF4635
     /tmp/cciiZT4Y.s:92254  .debug_str:000000000000ef7b .LASF4636
     /tmp/cciiZT4Y.s:89428  .debug_str:00000000000034e7 .LASF4637
     /tmp/cciiZT4Y.s:94292  .debug_str:0000000000016f53 .LASF4638
     /tmp/cciiZT4Y.s:95572  .debug_str:000000000001c679 .LASF4639
     /tmp/cciiZT4Y.s:100076  .debug_str:000000000002ece4 .LASF4640
     /tmp/cciiZT4Y.s:89110  .debug_str:0000000000001f62 .LASF4641
     /tmp/cciiZT4Y.s:100380  .debug_str:00000000000300f9 .LASF4642
     /tmp/cciiZT4Y.s:89438  .debug_str:000000000000353b .LASF4643
     /tmp/cciiZT4Y.s:95116  .debug_str:000000000001a6ad .LASF4644
     /tmp/cciiZT4Y.s:103710  .debug_str:000000000003d75c .LASF4645
     /tmp/cciiZT4Y.s:92622  .debug_str:0000000000010580 .LASF4646
     /tmp/cciiZT4Y.s:104466  .debug_str:000000000004089c .LASF4647
     /tmp/cciiZT4Y.s:92970  .debug_str:00000000000119bd .LASF4648
     /tmp/cciiZT4Y.s:100684  .debug_str:0000000000031490 .LASF4649
     /tmp/cciiZT4Y.s:106608  .debug_str:0000000000049b5f .LASF4650
     /tmp/cciiZT4Y.s:107052  .debug_str:000000000004b9b7 .LASF4651
     /tmp/cciiZT4Y.s:94030  .debug_str:0000000000015e76 .LASF4652
     /tmp/cciiZT4Y.s:102692  .debug_str:0000000000039605 .LASF4653
     /tmp/cciiZT4Y.s:107014  .debug_str:000000000004b71b .LASF4654
     /tmp/cciiZT4Y.s:100418  .debug_str:0000000000030381 .LASF4655
     /tmp/cciiZT4Y.s:93654  .debug_str:00000000000146e7 .LASF4656
     /tmp/cciiZT4Y.s:98100  .debug_str:0000000000026e14 .LASF4657
     /tmp/cciiZT4Y.s:106642  .debug_str:0000000000049d38 .LASF4658
     /tmp/cciiZT4Y.s:95830  .debug_str:000000000001d7c7 .LASF4659
     /tmp/cciiZT4Y.s:104202  .debug_str:000000000003f820 .LASF4660
     /tmp/cciiZT4Y.s:94740  .debug_str:0000000000018c5b .LASF4661
     /tmp/cciiZT4Y.s:104714  .debug_str:0000000000041daf .LASF4662
     /tmp/cciiZT4Y.s:93864  .debug_str:0000000000015371 .LASF4663
     /tmp/cciiZT4Y.s:102526  .debug_str:0000000000038e07 .LASF4664
     /tmp/cciiZT4Y.s:91504  .debug_str:000000000000c22a .LASF4665
     /tmp/cciiZT4Y.s:99872  .debug_str:000000000002df0a .LASF4666
     /tmp/cciiZT4Y.s:89354  .debug_str:0000000000002ff1 .LASF4667
     /tmp/cciiZT4Y.s:97776  .debug_str:0000000000025a32 .LASF4668
     /tmp/cciiZT4Y.s:106350  .debug_str:0000000000048a06 .LASF4669
     /tmp/cciiZT4Y.s:95544  .debug_str:000000000001c3f0 .LASF4670
     /tmp/cciiZT4Y.s:106802  .debug_str:000000000004a7f8 .LASF4671
     /tmp/cciiZT4Y.s:90372  .debug_str:0000000000007554 .LASF4672
     /tmp/cciiZT4Y.s:105758  .debug_str:0000000000046316 .LASF4673
     /tmp/cciiZT4Y.s:107268  .debug_str:000000000004c803 .LASF4674
     /tmp/cciiZT4Y.s:96436  .debug_str:0000000000020338 .LASF4675
     /tmp/cciiZT4Y.s:95568  .debug_str:000000000001c65b .LASF4676
     /tmp/cciiZT4Y.s:95020  .debug_str:0000000000019f77 .LASF4677
     /tmp/cciiZT4Y.s:106814  .debug_str:000000000004a8cc .LASF4678
     /tmp/cciiZT4Y.s:96318  .debug_str:000000000001fa86 .LASF4679
     /tmp/cciiZT4Y.s:99544  .debug_str:000000000002ca5d .LASF4680
     /tmp/cciiZT4Y.s:90626  .debug_str:00000000000085af .LASF4681
     /tmp/cciiZT4Y.s:101430  .debug_str:00000000000345e8 .LASF4682
     /tmp/cciiZT4Y.s:92536  .debug_str:0000000000010129 .LASF4683
     /tmp/cciiZT4Y.s:100628  .debug_str:000000000003111d .LASF4684
     /tmp/cciiZT4Y.s:93190  .debug_str:0000000000012812 .LASF4685
     /tmp/cciiZT4Y.s:93786  .debug_str:0000000000014e7e .LASF4686
     /tmp/cciiZT4Y.s:103670  .debug_str:000000000003d4a5 .LASF4687
     /tmp/cciiZT4Y.s:103466  .debug_str:000000000003c843 .LASF4688
     /tmp/cciiZT4Y.s:105356  .debug_str:00000000000448a5 .LASF4689
     /tmp/cciiZT4Y.s:105656  .debug_str:0000000000045c9f .LASF4690
     /tmp/cciiZT4Y.s:91288  .debug_str:000000000000b2f0 .LASF4691
     /tmp/cciiZT4Y.s:98500  .debug_str:0000000000028839 .LASF4692
     /tmp/cciiZT4Y.s:102016  .debug_str:0000000000036e84 .LASF4693
     /tmp/cciiZT4Y.s:98448  .debug_str:000000000002846e .LASF4694
     /tmp/cciiZT4Y.s:104046  .debug_str:000000000003edde .LASF4695
     /tmp/cciiZT4Y.s:102154  .debug_str:00000000000377b8 .LASF4696
     /tmp/cciiZT4Y.s:97470  .debug_str:000000000002492b .LASF4697
     /tmp/cciiZT4Y.s:90552  .debug_str:00000000000080a7 .LASF4698
     /tmp/cciiZT4Y.s:99314  .debug_str:000000000002bcb1 .LASF4699
     /tmp/cciiZT4Y.s:92556  .debug_str:0000000000010268 .LASF4700
     /tmp/cciiZT4Y.s:101204  .debug_str:00000000000337aa .LASF4701
     /tmp/cciiZT4Y.s:92298  .debug_str:000000000000f295 .LASF4702
     /tmp/cciiZT4Y.s:92306  .debug_str:000000000000f330 .LASF4703
     /tmp/cciiZT4Y.s:94284  .debug_str:0000000000016ed4 .LASF4704
     /tmp/cciiZT4Y.s:104940  .debug_str:0000000000042d3b .LASF4705
     /tmp/cciiZT4Y.s:95996  .debug_str:000000000001e423 .LASF4706
     /tmp/cciiZT4Y.s:91330  .debug_str:000000000000b61a .LASF4707
     /tmp/cciiZT4Y.s:102242  .debug_str:0000000000037ce2 .LASF4708
     /tmp/cciiZT4Y.s:103256  .debug_str:000000000003b96e .LASF4709
     /tmp/cciiZT4Y.s:102542  .debug_str:0000000000038ecc .LASF4710
     /tmp/cciiZT4Y.s:91718  .debug_str:000000000000d0f8 .LASF4711
     /tmp/cciiZT4Y.s:89556  .debug_str:0000000000003cf5 .LASF4712
     /tmp/cciiZT4Y.s:94506  .debug_str:0000000000017e6a .LASF4713
     /tmp/cciiZT4Y.s:105188  .debug_str:0000000000043e1b .LASF4714
     /tmp/cciiZT4Y.s:104294  .debug_str:000000000003fd66 .LASF4715
     /tmp/cciiZT4Y.s:102842  .debug_str:0000000000039e4f .LASF4716
     /tmp/cciiZT4Y.s:98318  .debug_str:0000000000027c12 .LASF4717
     /tmp/cciiZT4Y.s:95250  .debug_str:000000000001b01e .LASF4718
     /tmp/cciiZT4Y.s:104972  .debug_str:0000000000042fad .LASF4719
     /tmp/cciiZT4Y.s:97132  .debug_str:0000000000023185 .LASF4720
     /tmp/cciiZT4Y.s:101128  .debug_str:0000000000033228 .LASF4721
     /tmp/cciiZT4Y.s:102540  .debug_str:0000000000038eb3 .LASF4722
     /tmp/cciiZT4Y.s:105718  .debug_str:0000000000046065 .LASF4723
     /tmp/cciiZT4Y.s:100820  .debug_str:0000000000031d24 .LASF4724
     /tmp/cciiZT4Y.s:91888  .debug_str:000000000000dc6c .LASF4725
     /tmp/cciiZT4Y.s:102724  .debug_str:0000000000039733 .LASF4726
     /tmp/cciiZT4Y.s:93872  .debug_str:0000000000015414 .LASF4727
     /tmp/cciiZT4Y.s:103662  .debug_str:000000000003d40c .LASF4728
     /tmp/cciiZT4Y.s:99882  .debug_str:000000000002df98 .LASF4729
     /tmp/cciiZT4Y.s:90906  .debug_str:0000000000009888 .LASF4730
     /tmp/cciiZT4Y.s:101740  .debug_str:0000000000035c57 .LASF4731
     /tmp/cciiZT4Y.s:92872  .debug_str:00000000000113cc .LASF4732
     /tmp/cciiZT4Y.s:95210  .debug_str:000000000001ad85 .LASF4733
     /tmp/cciiZT4Y.s:94662  .debug_str:000000000001883b .LASF4734
     /tmp/cciiZT4Y.s:98462  .debug_str:000000000002855a .LASF4735
     /tmp/cciiZT4Y.s:104064  .debug_str:000000000003eeed .LASF4736
     /tmp/cciiZT4Y.s:107184  .debug_str:000000000004c206 .LASF4737
     /tmp/cciiZT4Y.s:90640  .debug_str:00000000000086df .LASF4738
     /tmp/cciiZT4Y.s:94922  .debug_str:00000000000198f2 .LASF4739
     /tmp/cciiZT4Y.s:102944  .debug_str:000000000003a4e5 .LASF4740
     /tmp/cciiZT4Y.s:90558  .debug_str:0000000000008106 .LASF4741
     /tmp/cciiZT4Y.s:104776  .debug_str:0000000000042256 .LASF4742
     /tmp/cciiZT4Y.s:91434  .debug_str:000000000000bdf2 .LASF4743
     /tmp/cciiZT4Y.s:95834  .debug_str:000000000001d7f9 .LASF4744
     /tmp/cciiZT4Y.s:93404  .debug_str:0000000000013799 .LASF4745
     /tmp/cciiZT4Y.s:99534  .debug_str:000000000002c9b1 .LASF4746
     /tmp/cciiZT4Y.s:104188  .debug_str:000000000003f6fd .LASF4747
     /tmp/cciiZT4Y.s:102250  .debug_str:0000000000037d4d .LASF4748
     /tmp/cciiZT4Y.s:104504  .debug_str:0000000000040c89 .LASF4749
     /tmp/cciiZT4Y.s:105706  .debug_str:0000000000045fcf .LASF4750
     /tmp/cciiZT4Y.s:106414  .debug_str:0000000000048e6d .LASF4751
     /tmp/cciiZT4Y.s:94776  .debug_str:0000000000018eca .LASF4752
     /tmp/cciiZT4Y.s:99432  .debug_str:000000000002c454 .LASF4753
     /tmp/cciiZT4Y.s:91526  .debug_str:000000000000c393 .LASF4754
     /tmp/cciiZT4Y.s:101664  .debug_str:0000000000035651 .LASF4755
     /tmp/cciiZT4Y.s:93108  .debug_str:0000000000012367 .LASF4756
     /tmp/cciiZT4Y.s:107298  .debug_str:000000000004ca20 .LASF4757
     /tmp/cciiZT4Y.s:99580  .debug_str:000000000002cce9 .LASF4758
     /tmp/cciiZT4Y.s:89536  .debug_str:0000000000003b8c .LASF4759
     /tmp/cciiZT4Y.s:103854  .debug_str:000000000003e22d .LASF4760
     /tmp/cciiZT4Y.s:105610  .debug_str:00000000000459a4 .LASF4761
     /tmp/cciiZT4Y.s:90456  .debug_str:0000000000007aa7 .LASF4762
     /tmp/cciiZT4Y.s:99764  .debug_str:000000000002d7e0 .LASF4763
     /tmp/cciiZT4Y.s:105242  .debug_str:0000000000044130 .LASF4764
     /tmp/cciiZT4Y.s:99188  .debug_str:000000000002b513 .LASF4765
     /tmp/cciiZT4Y.s:93440  .debug_str:00000000000139d3 .LASF4766
     /tmp/cciiZT4Y.s:88894  .debug_str:0000000000000f6c .LASF4767
     /tmp/cciiZT4Y.s:99140  .debug_str:000000000002b20c .LASF4768
     /tmp/cciiZT4Y.s:99034  .debug_str:000000000002ab10 .LASF4769
     /tmp/cciiZT4Y.s:97894  .debug_str:0000000000026094 .LASF4770
     /tmp/cciiZT4Y.s:90132  .debug_str:00000000000063f6 .LASF4771
     /tmp/cciiZT4Y.s:96268  .debug_str:000000000001f750 .LASF4772
     /tmp/cciiZT4Y.s:100842  .debug_str:0000000000031e69 .LASF4773
     /tmp/cciiZT4Y.s:94644  .debug_str:000000000001870d .LASF4774
     /tmp/cciiZT4Y.s:92060  .debug_str:000000000000e5f0 .LASF4775
     /tmp/cciiZT4Y.s:91930  .debug_str:000000000000de25 .LASF4776
     /tmp/cciiZT4Y.s:93148  .debug_str:00000000000125a8 .LASF4777
     /tmp/cciiZT4Y.s:91016  .debug_str:000000000000a039 .LASF4778
     /tmp/cciiZT4Y.s:94974  .debug_str:0000000000019cab .LASF4779
     /tmp/cciiZT4Y.s:98276  .debug_str:0000000000027934 .LASF4780
     /tmp/cciiZT4Y.s:102744  .debug_str:0000000000039867 .LASF4781
     /tmp/cciiZT4Y.s:100976  .debug_str:00000000000327f6 .LASF4782
     /tmp/cciiZT4Y.s:99980  .debug_str:000000000002e5ee .LASF4783
     /tmp/cciiZT4Y.s:103958  .debug_str:000000000003e8f2 .LASF4784
     /tmp/cciiZT4Y.s:99146  .debug_str:000000000002b256 .LASF4785
     /tmp/cciiZT4Y.s:106764  .debug_str:000000000004a50b .LASF4786
     /tmp/cciiZT4Y.s:89302  .debug_str:0000000000002c43 .LASF4787
     /tmp/cciiZT4Y.s:102524  .debug_str:0000000000038ddf .LASF4788
     /tmp/cciiZT4Y.s:107294  .debug_str:000000000004c9e3 .LASF4789
     /tmp/cciiZT4Y.s:101770  .debug_str:0000000000035ec7 .LASF4790
     /tmp/cciiZT4Y.s:101950  .debug_str:0000000000036a83 .LASF4791
     /tmp/cciiZT4Y.s:105286  .debug_str:0000000000044463 .LASF4792
     /tmp/cciiZT4Y.s:95308  .debug_str:000000000001b3c2 .LASF4793
     /tmp/cciiZT4Y.s:89510  .debug_str:0000000000003999 .LASF4794
     /tmp/cciiZT4Y.s:92184  .debug_str:000000000000ecc0 .LASF4795
     /tmp/cciiZT4Y.s:90932  .debug_str:0000000000009ab5 .LASF4796
     /tmp/cciiZT4Y.s:97712  .debug_str:00000000000256ca .LASF4797
     /tmp/cciiZT4Y.s:104938  .debug_str:0000000000042d15 .LASF4798
     /tmp/cciiZT4Y.s:92046  .debug_str:000000000000e546 .LASF4799
     /tmp/cciiZT4Y.s:93614  .debug_str:0000000000014452 .LASF4800
     /tmp/cciiZT4Y.s:92362  .debug_str:000000000000f670 .LASF4801
     /tmp/cciiZT4Y.s:99368  .debug_str:000000000002c061 .LASF4802
     /tmp/cciiZT4Y.s:106384  .debug_str:0000000000048c44 .LASF4803
     /tmp/cciiZT4Y.s:90220  .debug_str:00000000000069f1 .LASF4804
     /tmp/cciiZT4Y.s:107198  .debug_str:000000000004c314 .LASF4805
     /tmp/cciiZT4Y.s:102610  .debug_str:0000000000039210 .LASF4806
     /tmp/cciiZT4Y.s:89102  .debug_str:0000000000001eef .LASF4807
     /tmp/cciiZT4Y.s:95158  .debug_str:000000000001a98b .LASF4808
     /tmp/cciiZT4Y.s:98970  .debug_str:000000000002a799 .LASF4809
     /tmp/cciiZT4Y.s:105486  .debug_str:00000000000450de .LASF4810
     /tmp/cciiZT4Y.s:93634  .debug_str:000000000001456b .LASF4811
     /tmp/cciiZT4Y.s:93568  .debug_str:000000000001415b .LASF4812
     /tmp/cciiZT4Y.s:104716  .debug_str:0000000000041dc5 .LASF4813
     /tmp/cciiZT4Y.s:106430  .debug_str:0000000000048f97 .LASF4814
     /tmp/cciiZT4Y.s:94858  .debug_str:0000000000019476 .LASF4815
     /tmp/cciiZT4Y.s:99078  .debug_str:000000000002ad87 .LASF4816
     /tmp/cciiZT4Y.s:104242  .debug_str:000000000003fa7c .LASF4817
     /tmp/cciiZT4Y.s:97082  .debug_str:0000000000022ea2 .LASF4818
     /tmp/cciiZT4Y.s:94230  .debug_str:0000000000016b43 .LASF4819
     /tmp/cciiZT4Y.s:103376  .debug_str:000000000003c290 .LASF4820
     /tmp/cciiZT4Y.s:99428  .debug_str:000000000002c43c .LASF4821
     /tmp/cciiZT4Y.s:94296  .debug_str:0000000000016fae .LASF4822
     /tmp/cciiZT4Y.s:97802  .debug_str:0000000000025be0 .LASF4823
     /tmp/cciiZT4Y.s:97728  .debug_str:0000000000025818 .LASF4824
     /tmp/cciiZT4Y.s:89844  .debug_str:00000000000050ee .LASF4825
     /tmp/cciiZT4Y.s:106204  .debug_str:00000000000480cb .LASF4826
     /tmp/cciiZT4Y.s:105690  .debug_str:0000000000045eb0 .LASF4827
     /tmp/cciiZT4Y.s:89514  .debug_str:00000000000039d5 .LASF4828
     /tmp/cciiZT4Y.s:93242  .debug_str:0000000000012be0 .LASF4829
     /tmp/cciiZT4Y.s:106422  .debug_str:0000000000048eec .LASF4830
     /tmp/cciiZT4Y.s:100320  .debug_str:000000000002fd1d .LASF4831
     /tmp/cciiZT4Y.s:94006  .debug_str:0000000000015d0d .LASF4832
     /tmp/cciiZT4Y.s:96684  .debug_str:00000000000213db .LASF4833
     /tmp/cciiZT4Y.s:95950  .debug_str:000000000001e09a .LASF4834
     /tmp/cciiZT4Y.s:101924  .debug_str:00000000000368e3 .LASF4835
     /tmp/cciiZT4Y.s:94912  .debug_str:0000000000019862 .LASF4836
     /tmp/cciiZT4Y.s:104098  .debug_str:000000000003f134 .LASF4837
     /tmp/cciiZT4Y.s:93876  .debug_str:0000000000015447 .LASF4838
     /tmp/cciiZT4Y.s:103174  .debug_str:000000000003b456 .LASF4839
     /tmp/cciiZT4Y.s:91438  .debug_str:000000000000be44 .LASF4840
     /tmp/cciiZT4Y.s:90000  .debug_str:0000000000005b5a .LASF4841
     /tmp/cciiZT4Y.s:91126  .debug_str:000000000000a79a .LASF4842
     /tmp/cciiZT4Y.s:105696  .debug_str:0000000000045f48 .LASF4843
     /tmp/cciiZT4Y.s:91752  .debug_str:000000000000d39d .LASF4844
     /tmp/cciiZT4Y.s:90168  .debug_str:000000000000661e .LASF4845
     /tmp/cciiZT4Y.s:98870  .debug_str:000000000002a0b2 .LASF4846
     /tmp/cciiZT4Y.s:99098  .debug_str:000000000002af4f .LASF4847
     /tmp/cciiZT4Y.s:104176  .debug_str:000000000003f606 .LASF4848
     /tmp/cciiZT4Y.s:99692  .debug_str:000000000002d39f .LASF4849
     /tmp/cciiZT4Y.s:95146  .debug_str:000000000001a86b .LASF4850
     /tmp/cciiZT4Y.s:106718  .debug_str:000000000004a1b2 .LASF4851
     /tmp/cciiZT4Y.s:100592  .debug_str:0000000000030ef9 .LASF4852
     /tmp/cciiZT4Y.s:106896  .debug_str:000000000004aeca .LASF4853
     /tmp/cciiZT4Y.s:100788  .debug_str:0000000000031b4a .LASF4854
     /tmp/cciiZT4Y.s:94492  .debug_str:0000000000017d94 .LASF4855
     /tmp/cciiZT4Y.s:107718  .debug_str:000000000004e82b .LASF4856
     /tmp/cciiZT4Y.s:101578  .debug_str:000000000003501e .LASF4857
     /tmp/cciiZT4Y.s:95286  .debug_str:000000000001b250 .LASF4858
     /tmp/cciiZT4Y.s:100428  .debug_str:00000000000303dd .LASF4859
     /tmp/cciiZT4Y.s:97690  .debug_str:00000000000255a9 .LASF4860
     /tmp/cciiZT4Y.s:93028  .debug_str:0000000000011ddd .LASF4861
     /tmp/cciiZT4Y.s:98878  .debug_str:000000000002a129 .LASF4862
     /tmp/cciiZT4Y.s:93990  .debug_str:0000000000015bf2 .LASF4863
     /tmp/cciiZT4Y.s:98390  .debug_str:00000000000280af .LASF4864
     /tmp/cciiZT4Y.s:100570  .debug_str:0000000000030d8c .LASF4865
     /tmp/cciiZT4Y.s:92188  .debug_str:000000000000ece4 .LASF4866
     /tmp/cciiZT4Y.s:99212  .debug_str:000000000002b6af .LASF4867
     /tmp/cciiZT4Y.s:101766  .debug_str:0000000000035e47 .LASF4868
     /tmp/cciiZT4Y.s:106104  .debug_str:0000000000047a17 .LASF4869
     /tmp/cciiZT4Y.s:100724  .debug_str:0000000000031721 .LASF4870
     /tmp/cciiZT4Y.s:93696  .debug_str:00000000000149a2 .LASF4871
     /tmp/cciiZT4Y.s:99332  .debug_str:000000000002bd96 .LASF4872
     /tmp/cciiZT4Y.s:93032  .debug_str:0000000000011e1b .LASF4873
     /tmp/cciiZT4Y.s:95222  .debug_str:000000000001ae47 .LASF4874
     /tmp/cciiZT4Y.s:89350  .debug_str:0000000000002fb0 .LASF4875
     /tmp/cciiZT4Y.s:93800  .debug_str:0000000000014f53 .LASF4876
     /tmp/cciiZT4Y.s:106978  .debug_str:000000000004b4b6 .LASF4877
     /tmp/cciiZT4Y.s:101864  .debug_str:00000000000364d4 .LASF4878
     /tmp/cciiZT4Y.s:104598  .debug_str:00000000000413c4 .LASF4879
     /tmp/cciiZT4Y.s:97466  .debug_str:00000000000248e8 .LASF4880
     /tmp/cciiZT4Y.s:92070  .debug_str:000000000000e67f .LASF4881
     /tmp/cciiZT4Y.s:97714  .debug_str:00000000000256fa .LASF4882
     /tmp/cciiZT4Y.s:100408  .debug_str:0000000000030283 .LASF4883
     /tmp/cciiZT4Y.s:90080  .debug_str:000000000000603e .LASF4884
     /tmp/cciiZT4Y.s:98520  .debug_str:00000000000289b6 .LASF4885
     /tmp/cciiZT4Y.s:89038  .debug_str:0000000000001a1b .LASF4886
     /tmp/cciiZT4Y.s:90926  .debug_str:0000000000009a37 .LASF4887
     /tmp/cciiZT4Y.s:99360  .debug_str:000000000002bfce .LASF4888
     /tmp/cciiZT4Y.s:93064  .debug_str:000000000001201d .LASF4889
     /tmp/cciiZT4Y.s:106260  .debug_str:0000000000048487 .LASF4890
     /tmp/cciiZT4Y.s:91468  .debug_str:000000000000c01d .LASF4891
     /tmp/cciiZT4Y.s:107240  .debug_str:000000000004c617 .LASF4892
     /tmp/cciiZT4Y.s:98576  .debug_str:0000000000028d6a .LASF4893
     /tmp/cciiZT4Y.s:92270  .debug_str:000000000000f07f .LASF4894
     /tmp/cciiZT4Y.s:94328  .debug_str:000000000001715c .LASF4895
     /tmp/cciiZT4Y.s:107732  .debug_str:000000000004e934 .LASF4896
     /tmp/cciiZT4Y.s:100160  .debug_str:000000000002f25e .LASF4897
     /tmp/cciiZT4Y.s:102264  .debug_str:0000000000037e47 .LASF4898
     /tmp/cciiZT4Y.s:98364  .debug_str:0000000000027ef4 .LASF4899
     /tmp/cciiZT4Y.s:90180  .debug_str:0000000000006735 .LASF4900
     /tmp/cciiZT4Y.s:107092  .debug_str:000000000004bc3f .LASF4901
     /tmp/cciiZT4Y.s:97506  .debug_str:0000000000024a71 .LASF4902
     /tmp/cciiZT4Y.s:98046  .debug_str:0000000000026a6a .LASF4903
     /tmp/cciiZT4Y.s:95810  .debug_str:000000000001d627 .LASF4904
     /tmp/cciiZT4Y.s:106354  .debug_str:0000000000048a26 .LASF4905
     /tmp/cciiZT4Y.s:98858  .debug_str:0000000000029fe4 .LASF4906
     /tmp/cciiZT4Y.s:104650  .debug_str:00000000000416e3 .LASF4907
     /tmp/cciiZT4Y.s:102576  .debug_str:0000000000038fdc .LASF4908
     /tmp/cciiZT4Y.s:99688  .debug_str:000000000002d344 .LASF4909
     /tmp/cciiZT4Y.s:96572  .debug_str:0000000000020cba .LASF4910
     /tmp/cciiZT4Y.s:97074  .debug_str:0000000000022e07 .LASF4911
     /tmp/cciiZT4Y.s:104810  .debug_str:000000000004254a .LASF4912
     /tmp/cciiZT4Y.s:105360  .debug_str:00000000000448e3 .LASF4913
     /tmp/cciiZT4Y.s:91018  .debug_str:000000000000a064 .LASF4914
     /tmp/cciiZT4Y.s:91548  .debug_str:000000000000c4d9 .LASF4915
     /tmp/cciiZT4Y.s:97682  .debug_str:0000000000025543 .LASF4916
     /tmp/cciiZT4Y.s:98862  .debug_str:000000000002a025 .LASF4917
     /tmp/cciiZT4Y.s:92558  .debug_str:0000000000010280 .LASF4918
     /tmp/cciiZT4Y.s:105802  .debug_str:000000000004659e .LASF4919
     /tmp/cciiZT4Y.s:102094  .debug_str:0000000000037401 .LASF4920
     /tmp/cciiZT4Y.s:103300  .debug_str:000000000003bcde .LASF4921
     /tmp/cciiZT4Y.s:93006  .debug_str:0000000000011c35 .LASF4922
     /tmp/cciiZT4Y.s:100586  .debug_str:0000000000030e7e .LASF4923
     /tmp/cciiZT4Y.s:91876  .debug_str:000000000000db8a .LASF4924
     /tmp/cciiZT4Y.s:107524  .debug_str:000000000004da5a .LASF4925
     /tmp/cciiZT4Y.s:101396  .debug_str:00000000000343e0 .LASF4926
     /tmp/cciiZT4Y.s:102594  .debug_str:0000000000039122 .LASF4927
     /tmp/cciiZT4Y.s:96296  .debug_str:000000000001f92b .LASF4928
     /tmp/cciiZT4Y.s:106396  .debug_str:0000000000048ce0 .LASF4929
     /tmp/cciiZT4Y.s:103326  .debug_str:000000000003be77 .LASF4930
     /tmp/cciiZT4Y.s:106880  .debug_str:000000000004ad49 .LASF4931
     /tmp/cciiZT4Y.s:106482  .debug_str:0000000000049303 .LASF4932
     /tmp/cciiZT4Y.s:91568  .debug_str:000000000000c663 .LASF4933
     /tmp/cciiZT4Y.s:101922  .debug_str:00000000000368ac .LASF4934
     /tmp/cciiZT4Y.s:91562  .debug_str:000000000000c5fb .LASF4935
     /tmp/cciiZT4Y.s:105970  .debug_str:0000000000047073 .LASF4936
     /tmp/cciiZT4Y.s:90544  .debug_str:0000000000007feb .LASF4937
     /tmp/cciiZT4Y.s:106100  .debug_str:000000000004799e .LASF4938
     /tmp/cciiZT4Y.s:89546  .debug_str:0000000000003c38 .LASF4939
     /tmp/cciiZT4Y.s:98814  .debug_str:0000000000029cad .LASF4940
     /tmp/cciiZT4Y.s:106848  .debug_str:000000000004ab0a .LASF4941
     /tmp/cciiZT4Y.s:94780  .debug_str:0000000000018f29 .LASF4942
     /tmp/cciiZT4Y.s:106884  .debug_str:000000000004adb1 .LASF4943
     /tmp/cciiZT4Y.s:94806  .debug_str:00000000000190bb .LASF4944
     /tmp/cciiZT4Y.s:89772  .debug_str:0000000000004c6b .LASF4945
     /tmp/cciiZT4Y.s:101850  .debug_str:000000000003639e .LASF4946
     /tmp/cciiZT4Y.s:95606  .debug_str:000000000001c8d4 .LASF4947
     /tmp/cciiZT4Y.s:107038  .debug_str:000000000004b8b8 .LASF4948
     /tmp/cciiZT4Y.s:102662  .debug_str:000000000003947c .LASF4949
     /tmp/cciiZT4Y.s:94944  .debug_str:0000000000019a6f .LASF4950
     /tmp/cciiZT4Y.s:99120  .debug_str:000000000002b103 .LASF4951
     /tmp/cciiZT4Y.s:107630  .debug_str:000000000004e233 .LASF4952
     /tmp/cciiZT4Y.s:97364  .debug_str:00000000000241e9 .LASF4953
     /tmp/cciiZT4Y.s:106572  .debug_str:000000000004986d .LASF4954
     /tmp/cciiZT4Y.s:96374  .debug_str:000000000001fe6c .LASF4955
     /tmp/cciiZT4Y.s:98676  .debug_str:00000000000294ac .LASF4956
     /tmp/cciiZT4Y.s:106254  .debug_str:00000000000483f2 .LASF4957
     /tmp/cciiZT4Y.s:89552  .debug_str:0000000000003c9c .LASF4958
     /tmp/cciiZT4Y.s:103412  .debug_str:000000000003c4bb .LASF4959
     /tmp/cciiZT4Y.s:96810  .debug_str:0000000000021d86 .LASF4960
     /tmp/cciiZT4Y.s:96012  .debug_str:000000000001e504 .LASF4961
     /tmp/cciiZT4Y.s:107622  .debug_str:000000000004e18b .LASF4962
     /tmp/cciiZT4Y.s:93222  .debug_str:0000000000012a8b .LASF4963
     /tmp/cciiZT4Y.s:91482  .debug_str:000000000000c100 .LASF4964
     /tmp/cciiZT4Y.s:100882  .debug_str:00000000000320fa .LASF4965
     /tmp/cciiZT4Y.s:106680  .debug_str:0000000000049fc2 .LASF4966
     /tmp/cciiZT4Y.s:100560  .debug_str:0000000000030cfa .LASF4967
     /tmp/cciiZT4Y.s:89524  .debug_str:0000000000003ac4 .LASF4968
     /tmp/cciiZT4Y.s:107666  .debug_str:000000000004e4d3 .LASF4969
     /tmp/cciiZT4Y.s:91030  .debug_str:000000000000a127 .LASF4970
     /tmp/cciiZT4Y.s:95234  .debug_str:000000000001af06 .LASF4971
     /tmp/cciiZT4Y.s:89002  .debug_str:0000000000001697 .LASF4972
     /tmp/cciiZT4Y.s:107816  .debug_str:000000000004eeb1 .LASF4973
     /tmp/cciiZT4Y.s:98026  .debug_str:00000000000268d5 .LASF4974
     /tmp/cciiZT4Y.s:94968  .debug_str:0000000000019c34 .LASF4975
     /tmp/cciiZT4Y.s:93824  .debug_str:00000000000150c4 .LASF4976
     /tmp/cciiZT4Y.s:107000  .debug_str:000000000004b633 .LASF4977
     /tmp/cciiZT4Y.s:100888  .debug_str:0000000000032199 .LASF4978
     /tmp/cciiZT4Y.s:97926  .debug_str:0000000000026281 .LASF4979
     /tmp/cciiZT4Y.s:107804  .debug_str:000000000004ee0a .LASF4980
     /tmp/cciiZT4Y.s:104096  .debug_str:000000000003f0fd .LASF4981
     /tmp/cciiZT4Y.s:96678  .debug_str:00000000000213a4 .LASF4982
     /tmp/cciiZT4Y.s:102984  .debug_str:000000000003a6f6 .LASF4983
     /tmp/cciiZT4Y.s:107966  .debug_str:000000000004f882 .LASF4984
     /tmp/cciiZT4Y.s:97730  .debug_str:0000000000025850 .LASF4985
     /tmp/cciiZT4Y.s:103682  .debug_str:000000000003d55d .LASF4986
     /tmp/cciiZT4Y.s:93274  .debug_str:0000000000012e66 .LASF4987
     /tmp/cciiZT4Y.s:94354  .debug_str:0000000000017337 .LASF4988
     /tmp/cciiZT4Y.s:101464  .debug_str:00000000000347ed .LASF4989
     /tmp/cciiZT4Y.s:94840  .debug_str:00000000000192b8 .LASF4990
     /tmp/cciiZT4Y.s:104342  .debug_str:0000000000040037 .LASF4991
     /tmp/cciiZT4Y.s:105698  .debug_str:0000000000045f80 .LASF4992
     /tmp/cciiZT4Y.s:107754  .debug_str:000000000004ea32 .LASF4993
     /tmp/cciiZT4Y.s:95182  .debug_str:000000000001aba0 .LASF4994
     /tmp/cciiZT4Y.s:93986  .debug_str:0000000000015b80 .LASF4995
     /tmp/cciiZT4Y.s:89072  .debug_str:0000000000001c84 .LASF4996
     /tmp/cciiZT4Y.s:94116  .debug_str:000000000001633b .LASF4997
     /tmp/cciiZT4Y.s:96076  .debug_str:000000000001e9b3 .LASF4998
     /tmp/cciiZT4Y.s:103052  .debug_str:000000000003abaa .LASF4999
     /tmp/cciiZT4Y.s:103304  .debug_str:000000000003bd20 .LASF5000
     /tmp/cciiZT4Y.s:107422  .debug_str:000000000004d2a0 .LASF5001
     /tmp/cciiZT4Y.s:102902  .debug_str:000000000003a1bd .LASF5002
     /tmp/cciiZT4Y.s:107972  .debug_str:000000000004f906 .LASF5003
     /tmp/cciiZT4Y.s:107408  .debug_str:000000000004d1a0 .LASF5004
     /tmp/cciiZT4Y.s:100136  .debug_str:000000000002f042 .LASF5005
     /tmp/cciiZT4Y.s:96886  .debug_str:0000000000022161 .LASF5006
     /tmp/cciiZT4Y.s:89778  .debug_str:0000000000004cbd .LASF5007
     /tmp/cciiZT4Y.s:92152  .debug_str:000000000000ea48 .LASF5008
     /tmp/cciiZT4Y.s:103936  .debug_str:000000000003e775 .LASF5009
     /tmp/cciiZT4Y.s:101318  .debug_str:0000000000033f0f .LASF5010
     /tmp/cciiZT4Y.s:93558  .debug_str:0000000000014097 .LASF5011
     /tmp/cciiZT4Y.s:106066  .debug_str:0000000000047705 .LASF5012
     /tmp/cciiZT4Y.s:91472  .debug_str:000000000000c065 .LASF5013
     /tmp/cciiZT4Y.s:89218  .debug_str:00000000000026e3 .LASF5014
     /tmp/cciiZT4Y.s:90570  .debug_str:000000000000818c .LASF5015
     /tmp/cciiZT4Y.s:92172  .debug_str:000000000000ec0f .LASF5016
     /tmp/cciiZT4Y.s:88690  .debug_str:00000000000001af .LASF5017
     /tmp/cciiZT4Y.s:99108  .debug_str:000000000002b036 .LASF5018
     /tmp/cciiZT4Y.s:93650  .debug_str:0000000000014695 .LASF5019
     /tmp/cciiZT4Y.s:103900  .debug_str:000000000003e4eb .LASF5020
     /tmp/cciiZT4Y.s:100048  .debug_str:000000000002ead7 .LASF5021
     /tmp/cciiZT4Y.s:103822  .debug_str:000000000003dff2 .LASF5022
     /tmp/cciiZT4Y.s:103070  .debug_str:000000000003acf8 .LASF5023
     /tmp/cciiZT4Y.s:102128  .debug_str:00000000000375f3 .LASF5024
     /tmp/cciiZT4Y.s:96916  .debug_str:0000000000022455 .LASF5025
     /tmp/cciiZT4Y.s:106554  .debug_str:0000000000049728 .LASF5026
     /tmp/cciiZT4Y.s:95334  .debug_str:000000000001b570 .LASF5027
     /tmp/cciiZT4Y.s:108060  .debug_str:000000000004fef8 .LASF5028
     /tmp/cciiZT4Y.s:102906  .debug_str:000000000003a21c .LASF5029
     /tmp/cciiZT4Y.s:94582  .debug_str:00000000000182c9 .LASF5030
     /tmp/cciiZT4Y.s:96948  .debug_str:00000000000225b0 .LASF5031
     /tmp/cciiZT4Y.s:91326  .debug_str:000000000000b5aa .LASF5032
     /tmp/cciiZT4Y.s:105134  .debug_str:0000000000043a73 .LASF5033
     /tmp/cciiZT4Y.s:102396  .debug_str:0000000000038601 .LASF5034
     /tmp/cciiZT4Y.s:105734  .debug_str:00000000000461ba .LASF5035
     /tmp/cciiZT4Y.s:89962  .debug_str:0000000000005901 .LASF5036
     /tmp/cciiZT4Y.s:102508  .debug_str:0000000000038cd2 .LASF5037
     /tmp/cciiZT4Y.s:101814  .debug_str:000000000003613b .LASF5038
     /tmp/cciiZT4Y.s:96554  .debug_str:0000000000020bcd .LASF5039
     /tmp/cciiZT4Y.s:100778  .debug_str:0000000000031ab1 .LASF5040
     /tmp/cciiZT4Y.s:99244  .debug_str:000000000002b915 .LASF5041
     /tmp/cciiZT4Y.s:96370  .debug_str:000000000001fe20 .LASF5042
     /tmp/cciiZT4Y.s:98744  .debug_str:000000000002987e .LASF5043
     /tmp/cciiZT4Y.s:93110  .debug_str:0000000000012398 .LASF5044
     /tmp/cciiZT4Y.s:105564  .debug_str:00000000000456c0 .LASF5045
     /tmp/cciiZT4Y.s:92668  .debug_str:00000000000107dd .LASF5046
     /tmp/cciiZT4Y.s:95492  .debug_str:000000000001c03b .LASF5047
     /tmp/cciiZT4Y.s:104792  .debug_str:00000000000423b0 .LASF5048
     /tmp/cciiZT4Y.s:102696  .debug_str:0000000000039630 .LASF5049
     /tmp/cciiZT4Y.s:107828  .debug_str:000000000004ef7c .LASF5050
     /tmp/cciiZT4Y.s:100530  .debug_str:0000000000030b29 .LASF5051
     /tmp/cciiZT4Y.s:105722  .debug_str:00000000000460ba .LASF5052
     /tmp/cciiZT4Y.s:92180  .debug_str:000000000000ec7a .LASF5053
     /tmp/cciiZT4Y.s:94518  .debug_str:0000000000017ef4 .LASF5054
     /tmp/cciiZT4Y.s:101964  .debug_str:0000000000036b66 .LASF5055
     /tmp/cciiZT4Y.s:99226  .debug_str:000000000002b7be .LASF5056
     /tmp/cciiZT4Y.s:100212  .debug_str:000000000002f666 .LASF5057
     /tmp/cciiZT4Y.s:100256  .debug_str:000000000002f919 .LASF5058
     /tmp/cciiZT4Y.s:101462  .debug_str:00000000000347c6 .LASF5059
     /tmp/cciiZT4Y.s:91004  .debug_str:0000000000009f4a .LASF5060
     /tmp/cciiZT4Y.s:106604  .debug_str:0000000000049b0b .LASF5061
     /tmp/cciiZT4Y.s:94102  .debug_str:000000000001622d .LASF5062
     /tmp/cciiZT4Y.s:95454  .debug_str:000000000001bdfa .LASF5063
     /tmp/cciiZT4Y.s:93280  .debug_str:0000000000012ed2 .LASF5064
     /tmp/cciiZT4Y.s:92268  .debug_str:000000000000f04d .LASF5065
     /tmp/cciiZT4Y.s:88960  .debug_str:00000000000013cd .LASF5066
     /tmp/cciiZT4Y.s:96362  .debug_str:000000000001fd81 .LASF5067
     /tmp/cciiZT4Y.s:106592  .debug_str:0000000000049a53 .LASF5068
     /tmp/cciiZT4Y.s:95624  .debug_str:000000000001ca6d .LASF5069
     /tmp/cciiZT4Y.s:104004  .debug_str:000000000003eb41 .LASF5070
     /tmp/cciiZT4Y.s:94868  .debug_str:000000000001953a .LASF5071
     /tmp/cciiZT4Y.s:97554  .debug_str:0000000000024e73 .LASF5072
     /tmp/cciiZT4Y.s:106660  .debug_str:0000000000049e89 .LASF5073
     /tmp/cciiZT4Y.s:94126  .debug_str:0000000000016405 .LASF5074
     /tmp/cciiZT4Y.s:94656  .debug_str:00000000000187d3 .LASF5075
     /tmp/cciiZT4Y.s:91782  .debug_str:000000000000d56a .LASF5076
     /tmp/cciiZT4Y.s:107470  .debug_str:000000000004d5dd .LASF5077
     /tmp/cciiZT4Y.s:103516  .debug_str:000000000003cada .LASF5078
     /tmp/cciiZT4Y.s:99538  .debug_str:000000000002c9e1 .LASF5079
     /tmp/cciiZT4Y.s:107662  .debug_str:000000000004e491 .LASF5080
     /tmp/cciiZT4Y.s:98002  .debug_str:000000000002671c .LASF5081
     /tmp/cciiZT4Y.s:105182  .debug_str:0000000000043dbe .LASF5082
     /tmp/cciiZT4Y.s:104774  .debug_str:0000000000042226 .LASF5083
     /tmp/cciiZT4Y.s:90650  .debug_str:0000000000008790 .LASF5084
     /tmp/cciiZT4Y.s:103492  .debug_str:000000000003c993 .LASF5085
     /tmp/cciiZT4Y.s:93392  .debug_str:00000000000136fd .LASF5086
     /tmp/cciiZT4Y.s:91032  .debug_str:000000000000a15e .LASF5087
     /tmp/cciiZT4Y.s:94166  .debug_str:000000000001665e .LASF5088
     /tmp/cciiZT4Y.s:93094  .debug_str:0000000000012280 .LASF5089
     /tmp/cciiZT4Y.s:98378  .debug_str:0000000000028007 .LASF5090
     /tmp/cciiZT4Y.s:91022  .debug_str:000000000000a0a7 .LASF5091
     /tmp/cciiZT4Y.s:90188  .debug_str:00000000000067a6 .LASF5092
     /tmp/cciiZT4Y.s:107340  .debug_str:000000000004cd80 .LASF5093
     /tmp/cciiZT4Y.s:92528  .debug_str:00000000000100ae .LASF5094
     /tmp/cciiZT4Y.s:97008  .debug_str:00000000000229c6 .LASF5095
     /tmp/cciiZT4Y.s:100078  .debug_str:000000000002ecfc .LASF5096
     /tmp/cciiZT4Y.s:99488  .debug_str:000000000002c716 .LASF5097
     /tmp/cciiZT4Y.s:97012  .debug_str:0000000000022a00 .LASF5098
     /tmp/cciiZT4Y.s:95692  .debug_str:000000000001cf01 .LASF5099
     /tmp/cciiZT4Y.s:90888  .debug_str:0000000000009757 .LASF5100
     /tmp/cciiZT4Y.s:97336  .debug_str:0000000000023fd4 .LASF5101
     /tmp/cciiZT4Y.s:88906  .debug_str:0000000000001042 .LASF5102
     /tmp/cciiZT4Y.s:96790  .debug_str:0000000000021bbf .LASF5103
     /tmp/cciiZT4Y.s:93518  .debug_str:0000000000013e77 .LASF5104
     /tmp/cciiZT4Y.s:96148  .debug_str:000000000001edf7 .LASF5105
     /tmp/cciiZT4Y.s:101930  .debug_str:000000000003694d .LASF5106
     /tmp/cciiZT4Y.s:92450  .debug_str:000000000000fbb7 .LASF5107
     /tmp/cciiZT4Y.s:98548  .debug_str:0000000000028b85 .LASF5108
     /tmp/cciiZT4Y.s:104530  .debug_str:0000000000040e67 .LASF5109
     /tmp/cciiZT4Y.s:103614  .debug_str:000000000003d125 .LASF5110
     /tmp/cciiZT4Y.s:97156  .debug_str:000000000002334f .LASF5111
     /tmp/cciiZT4Y.s:89666  .debug_str:000000000000457a .LASF5112
     /tmp/cciiZT4Y.s:105640  .debug_str:0000000000045b67 .LASF5113
     /tmp/cciiZT4Y.s:97324  .debug_str:0000000000023f1f .LASF5114
     /tmp/cciiZT4Y.s:91860  .debug_str:000000000000da9b .LASF5115
     /tmp/cciiZT4Y.s:104642  .debug_str:00000000000416a4 .LASF5116
     /tmp/cciiZT4Y.s:103906  .debug_str:000000000003e554 .LASF5117
     /tmp/cciiZT4Y.s:97226  .debug_str:00000000000238c3 .LASF5118
     /tmp/cciiZT4Y.s:88766  .debug_str:0000000000000732 .LASF5119
     /tmp/cciiZT4Y.s:93724  .debug_str:0000000000014b58 .LASF5120
     /tmp/cciiZT4Y.s:99758  .debug_str:000000000002d794 .LASF5121
     /tmp/cciiZT4Y.s:94664  .debug_str:0000000000018854 .LASF5122
     /tmp/cciiZT4Y.s:89522  .debug_str:0000000000003a97 .LASF5123
     /tmp/cciiZT4Y.s:105410  .debug_str:0000000000044c72 .LASF5124
     /tmp/cciiZT4Y.s:102940  .debug_str:000000000003a477 .LASF5125
     /tmp/cciiZT4Y.s:96206  .debug_str:000000000001f267 .LASF5126
     /tmp/cciiZT4Y.s:103468  .debug_str:000000000003c85b .LASF5127
     /tmp/cciiZT4Y.s:103668  .debug_str:000000000003d476 .LASF5128
     /tmp/cciiZT4Y.s:93436  .debug_str:0000000000013968 .LASF5129
     /tmp/cciiZT4Y.s:103342  .debug_str:000000000003bfba .LASF5130
     /tmp/cciiZT4Y.s:90556  .debug_str:00000000000080d8 .LASF5131
     /tmp/cciiZT4Y.s:89896  .debug_str:000000000000541e .LASF5132
     /tmp/cciiZT4Y.s:99572  .debug_str:000000000002cc1e .LASF5133
     /tmp/cciiZT4Y.s:91132  .debug_str:000000000000a81c .LASF5134
     /tmp/cciiZT4Y.s:94862  .debug_str:00000000000194d9 .LASF5135
     /tmp/cciiZT4Y.s:104378  .debug_str:0000000000040245 .LASF5136
     /tmp/cciiZT4Y.s:88942  .debug_str:0000000000001297 .LASF5137
     /tmp/cciiZT4Y.s:100290  .debug_str:000000000002fb41 .LASF5138
     /tmp/cciiZT4Y.s:92774  .debug_str:0000000000010da2 .LASF5139
     /tmp/cciiZT4Y.s:91638  .debug_str:000000000000cb9a .LASF5140
     /tmp/cciiZT4Y.s:101690  .debug_str:00000000000358cb .LASF5141
     /tmp/cciiZT4Y.s:103298  .debug_str:000000000003bcb6 .LASF5142
     /tmp/cciiZT4Y.s:90878  .debug_str:00000000000096dd .LASF5143
     /tmp/cciiZT4Y.s:97978  .debug_str:0000000000026589 .LASF5144
     /tmp/cciiZT4Y.s:98150  .debug_str:00000000000270f4 .LASF5145
     /tmp/cciiZT4Y.s:99844  .debug_str:000000000002dd31 .LASF5146
     /tmp/cciiZT4Y.s:94028  .debug_str:0000000000015e4b .LASF5147
     /tmp/cciiZT4Y.s:97982  .debug_str:00000000000265c5 .LASF5148
     /tmp/cciiZT4Y.s:90458  .debug_str:0000000000007aca .LASF5149
     /tmp/cciiZT4Y.s:107800  .debug_str:000000000004edb8 .LASF5150
     /tmp/cciiZT4Y.s:91824  .debug_str:000000000000d818 .LASF5151
     /tmp/cciiZT4Y.s:102434  .debug_str:00000000000388de .LASF5152
     /tmp/cciiZT4Y.s:96004  .debug_str:000000000001e473 .LASF5153
     /tmp/cciiZT4Y.s:104706  .debug_str:0000000000041d27 .LASF5154
     /tmp/cciiZT4Y.s:96952  .debug_str:00000000000225f1 .LASF5155
     /tmp/cciiZT4Y.s:91678  .debug_str:000000000000ce93 .LASF5156
     /tmp/cciiZT4Y.s:89462  .debug_str:0000000000003652 .LASF5157
     /tmp/cciiZT4Y.s:103724  .debug_str:000000000003d864 .LASF5158
     /tmp/cciiZT4Y.s:93380  .debug_str:0000000000013653 .LASF5159
     /tmp/cciiZT4Y.s:98272  .debug_str:00000000000278db .LASF5160
     /tmp/cciiZT4Y.s:103074  .debug_str:000000000003ad4e .LASF5161
     /tmp/cciiZT4Y.s:90528  .debug_str:0000000000007f06 .LASF5162
     /tmp/cciiZT4Y.s:94648  .debug_str:0000000000018761 .LASF5163
     /tmp/cciiZT4Y.s:92460  .debug_str:000000000000fca8 .LASF5164
     /tmp/cciiZT4Y.s:99548  .debug_str:000000000002ca98 .LASF5165
     /tmp/cciiZT4Y.s:94548  .debug_str:00000000000180ad .LASF5166
     /tmp/cciiZT4Y.s:98602  .debug_str:0000000000028f44 .LASF5167
     /tmp/cciiZT4Y.s:106716  .debug_str:000000000004a17c .LASF5168
     /tmp/cciiZT4Y.s:106652  .debug_str:0000000000049de5 .LASF5169
     /tmp/cciiZT4Y.s:95290  .debug_str:000000000001b292 .LASF5170
     /tmp/cciiZT4Y.s:103630  .debug_str:000000000003d218 .LASF5171
     /tmp/cciiZT4Y.s:98124  .debug_str:0000000000026f91 .LASF5172
     /tmp/cciiZT4Y.s:106914  .debug_str:000000000004afea .LASF5173
     /tmp/cciiZT4Y.s:92890  .debug_str:0000000000011529 .LASF5174
     /tmp/cciiZT4Y.s:97452  .debug_str:000000000002483c .LASF5175
     /tmp/cciiZT4Y.s:102354  .debug_str:000000000003842e .LASF5176
     /tmp/cciiZT4Y.s:94872  .debug_str:00000000000195a9 .LASF5177
     /tmp/cciiZT4Y.s:93358  .debug_str:0000000000013496 .LASF5178
     /tmp/cciiZT4Y.s:97746  .debug_str:0000000000025924 .LASF5179
     /tmp/cciiZT4Y.s:88956  .debug_str:000000000000137d .LASF5180
     /tmp/cciiZT4Y.s:104762  .debug_str:0000000000042158 .LASF5181
     /tmp/cciiZT4Y.s:103560  .debug_str:000000000003cde6 .LASF5182
     /tmp/cciiZT4Y.s:94926  .debug_str:000000000001992c .LASF5183
     /tmp/cciiZT4Y.s:95660  .debug_str:000000000001cca7 .LASF5184
     /tmp/cciiZT4Y.s:98232  .debug_str:0000000000027606 .LASF5185
     /tmp/cciiZT4Y.s:102076  .debug_str:00000000000372e5 .LASF5186
     /tmp/cciiZT4Y.s:91528  .debug_str:000000000000c3ae .LASF5187
     /tmp/cciiZT4Y.s:96530  .debug_str:0000000000020a33 .LASF5188
     /tmp/cciiZT4Y.s:92658  .debug_str:000000000001070f .LASF5189
     /tmp/cciiZT4Y.s:105262  .debug_str:000000000004426a .LASF5190
     /tmp/cciiZT4Y.s:93102  .debug_str:0000000000012300 .LASF5191
     /tmp/cciiZT4Y.s:101626  .debug_str:00000000000353de .LASF5192
     /tmp/cciiZT4Y.s:95322  .debug_str:000000000001b4b5 .LASF5193
     /tmp/cciiZT4Y.s:97416  .debug_str:000000000002459f .LASF5194
     /tmp/cciiZT4Y.s:104468  .debug_str:00000000000408b1 .LASF5195
     /tmp/cciiZT4Y.s:88858  .debug_str:0000000000000d01 .LASF5196
     /tmp/cciiZT4Y.s:95050  .debug_str:000000000001a17e .LASF5197
     /tmp/cciiZT4Y.s:97002  .debug_str:0000000000022934 .LASF5198
     /tmp/cciiZT4Y.s:94182  .debug_str:000000000001679f .LASF5199
     /tmp/cciiZT4Y.s:102152  .debug_str:0000000000037784 .LASF5200
     /tmp/cciiZT4Y.s:106892  .debug_str:000000000004ae7e .LASF5201
     /tmp/cciiZT4Y.s:102018  .debug_str:0000000000036e9c .LASF5202
     /tmp/cciiZT4Y.s:95694  .debug_str:000000000001cf29 .LASF5203
     /tmp/cciiZT4Y.s:95954  .debug_str:000000000001e0fa .LASF5204
     /tmp/cciiZT4Y.s:98106  .debug_str:0000000000026e83 .LASF5205
     /tmp/cciiZT4Y.s:103912  .debug_str:000000000003e5bb .LASF5206
     /tmp/cciiZT4Y.s:96726  .debug_str:00000000000216ee .LASF5207
     /tmp/cciiZT4Y.s:102890  .debug_str:000000000003a0a1 .LASF5208
     /tmp/cciiZT4Y.s:101308  .debug_str:0000000000033e47 .LASF5209
     /tmp/cciiZT4Y.s:102322  .debug_str:0000000000038217 .LASF5210
     /tmp/cciiZT4Y.s:106070  .debug_str:0000000000047750 .LASF5211
     /tmp/cciiZT4Y.s:96054  .debug_str:000000000001e7ff .LASF5212
     /tmp/cciiZT4Y.s:103750  .debug_str:000000000003da60 .LASF5213
     /tmp/cciiZT4Y.s:97680  .debug_str:000000000002550e .LASF5214
     /tmp/cciiZT4Y.s:91852  .debug_str:000000000000da08 .LASF5215
     /tmp/cciiZT4Y.s:92672  .debug_str:0000000000010816 .LASF5216
     /tmp/cciiZT4Y.s:97818  .debug_str:0000000000025cbc .LASF5217
     /tmp/cciiZT4Y.s:89308  .debug_str:0000000000002cb8 .LASF5218
     /tmp/cciiZT4Y.s:99924  .debug_str:000000000002e28f .LASF5219
     /tmp/cciiZT4Y.s:103820  .debug_str:000000000003dfbd .LASF5220
     /tmp/cciiZT4Y.s:99220  .debug_str:000000000002b75c .LASF5221
     /tmp/cciiZT4Y.s:89484  .debug_str:00000000000037cb .LASF5222
     /tmp/cciiZT4Y.s:91092  .debug_str:000000000000a501 .LASF5223
     /tmp/cciiZT4Y.s:103014  .debug_str:000000000003a901 .LASF5224
     /tmp/cciiZT4Y.s:90330  .debug_str:0000000000007276 .LASF5225
     /tmp/cciiZT4Y.s:91230  .debug_str:000000000000aeb0 .LASF5226
     /tmp/cciiZT4Y.s:95776  .debug_str:000000000001d413 .LASF5227
     /tmp/cciiZT4Y.s:107122  .debug_str:000000000004be28 .LASF5228
     /tmp/cciiZT4Y.s:108042  .debug_str:000000000004fdc6 .LASF5229
     /tmp/cciiZT4Y.s:105116  .debug_str:0000000000043968 .LASF5230
     /tmp/cciiZT4Y.s:90952  .debug_str:0000000000009c79 .LASF5231
     /tmp/cciiZT4Y.s:101384  .debug_str:00000000000342fa .LASF5232
     /tmp/cciiZT4Y.s:103066  .debug_str:000000000003acb1 .LASF5233
     /tmp/cciiZT4Y.s:106724  .debug_str:000000000004a212 .LASF5234
     /tmp/cciiZT4Y.s:92710  .debug_str:0000000000010a46 .LASF5235
     /tmp/cciiZT4Y.s:89618  .debug_str:000000000000418c .LASF5236
     /tmp/cciiZT4Y.s:102892  .debug_str:000000000003a0d5 .LASF5237
     /tmp/cciiZT4Y.s:104108  .debug_str:000000000003f1e4 .LASF5238
     /tmp/cciiZT4Y.s:100868  .debug_str:0000000000032023 .LASF5239
     /tmp/cciiZT4Y.s:100264  .debug_str:000000000002f9c8 .LASF5240
     /tmp/cciiZT4Y.s:91990  .debug_str:000000000000e1af .LASF5241
     /tmp/cciiZT4Y.s:96260  .debug_str:000000000001f69e .LASF5242
     /tmp/cciiZT4Y.s:98660  .debug_str:00000000000293a3 .LASF5243
     /tmp/cciiZT4Y.s:101956  .debug_str:0000000000036b00 .LASF5244
     /tmp/cciiZT4Y.s:105638  .debug_str:0000000000045b43 .LASF5245
     /tmp/cciiZT4Y.s:102248  .debug_str:0000000000037d2a .LASF5246
     /tmp/cciiZT4Y.s:106312  .debug_str:000000000004877b .LASF5247
     /tmp/cciiZT4Y.s:94670  .debug_str:00000000000188b0 .LASF5248
     /tmp/cciiZT4Y.s:106808  .debug_str:000000000004a84a .LASF5249
     /tmp/cciiZT4Y.s:89064  .debug_str:0000000000001bc8 .LASF5250
     /tmp/cciiZT4Y.s:93596  .debug_str:0000000000014315 .LASF5251
     /tmp/cciiZT4Y.s:104952  .debug_str:0000000000042e38 .LASF5252
     /tmp/cciiZT4Y.s:89856  .debug_str:00000000000051f5 .LASF5253
     /tmp/cciiZT4Y.s:105062  .debug_str:00000000000435c6 .LASF5254
     /tmp/cciiZT4Y.s:102572  .debug_str:0000000000038f8f .LASF5255
     /tmp/cciiZT4Y.s:101150  .debug_str:000000000003337c .LASF5256
     /tmp/cciiZT4Y.s:107100  .debug_str:000000000004bce7 .LASF5257
     /tmp/cciiZT4Y.s:97328  .debug_str:0000000000023f62 .LASF5258
     /tmp/cciiZT4Y.s:94468  .debug_str:0000000000017bf4 .LASF5259
     /tmp/cciiZT4Y.s:106324  .debug_str:0000000000048865 .LASF5260
     /tmp/cciiZT4Y.s:96154  .debug_str:000000000001ee7f .LASF5261
     /tmp/cciiZT4Y.s:90810  .debug_str:000000000000922f .LASF5262
     /tmp/cciiZT4Y.s:96896  .debug_str:000000000002221c .LASF5263
     /tmp/cciiZT4Y.s:99232  .debug_str:000000000002b836 .LASF5264
     /tmp/cciiZT4Y.s:97096  .debug_str:0000000000022f69 .LASF5265
     /tmp/cciiZT4Y.s:89880  .debug_str:000000000000531d .LASF5266
     /tmp/cciiZT4Y.s:89654  .debug_str:0000000000004486 .LASF5267
     /tmp/cciiZT4Y.s:101146  .debug_str:000000000003334c .LASF5268
     /tmp/cciiZT4Y.s:95680  .debug_str:000000000001ce44 .LASF5269
     /tmp/cciiZT4Y.s:107910  .debug_str:000000000004f4aa .LASF5270
     /tmp/cciiZT4Y.s:101816  .debug_str:0000000000036164 .LASF5271
     /tmp/cciiZT4Y.s:106134  .debug_str:0000000000047c21 .LASF5272
     /tmp/cciiZT4Y.s:101820  .debug_str:00000000000361a8 .LASF5273
     /tmp/cciiZT4Y.s:96882  .debug_str:000000000002211e .LASF5274
     /tmp/cciiZT4Y.s:103690  .debug_str:000000000003d61f .LASF5275
     /tmp/cciiZT4Y.s:105732  .debug_str:000000000004618d .LASF5276
     /tmp/cciiZT4Y.s:91216  .debug_str:000000000000add1 .LASF5277
     /tmp/cciiZT4Y.s:106366  .debug_str:0000000000048b15 .LASF5278
     /tmp/cciiZT4Y.s:108046  .debug_str:000000000004fe39 .LASF5279
     /tmp/cciiZT4Y.s:89020  .debug_str:0000000000001818 .LASF5280
     /tmp/cciiZT4Y.s:107320  .debug_str:000000000004cc07 .LASF5281
     /tmp/cciiZT4Y.s:95256  .debug_str:000000000001b06f .LASF5282
     /tmp/cciiZT4Y.s:106188  .debug_str:0000000000047fb4 .LASF5283
     /tmp/cciiZT4Y.s:99578  .debug_str:000000000002ccba .LASF5284
     /tmp/cciiZT4Y.s:91948  .debug_str:000000000000def4 .LASF5285
     /tmp/cciiZT4Y.s:97888  .debug_str:0000000000025ff7 .LASF5286
     /tmp/cciiZT4Y.s:96782  .debug_str:0000000000021b09 .LASF5287
     /tmp/cciiZT4Y.s:103226  .debug_str:000000000003b7eb .LASF5288
     /tmp/cciiZT4Y.s:94490  .debug_str:0000000000017d65 .LASF5289
     /tmp/cciiZT4Y.s:95928  .debug_str:000000000001df14 .LASF5290
     /tmp/cciiZT4Y.s:101996  .debug_str:0000000000036da8 .LASF5291
     /tmp/cciiZT4Y.s:101556  .debug_str:0000000000034eb0 .LASF5292
     /tmp/cciiZT4Y.s:99732  .debug_str:000000000002d5da .LASF5293
     /tmp/cciiZT4Y.s:100088  .debug_str:000000000002eda8 .LASF5294
     /tmp/cciiZT4Y.s:100552  .debug_str:0000000000030c6c .LASF5295
     /tmp/cciiZT4Y.s:99184  .debug_str:000000000002b45e .LASF5296
     /tmp/cciiZT4Y.s:104024  .debug_str:000000000003ec52 .LASF5297
     /tmp/cciiZT4Y.s:89902  .debug_str:0000000000005473 .LASF5298
     /tmp/cciiZT4Y.s:92826  .debug_str:0000000000011091 .LASF5299
     /tmp/cciiZT4Y.s:91964  .debug_str:000000000000dfd6 .LASF5300
     /tmp/cciiZT4Y.s:90112  .debug_str:000000000000626e .LASF5301
     /tmp/cciiZT4Y.s:90720  .debug_str:0000000000008c5b .LASF5302
     /tmp/cciiZT4Y.s:104830  .debug_str:000000000004266c .LASF5303
     /tmp/cciiZT4Y.s:89084  .debug_str:0000000000001d63 .LASF5304
     /tmp/cciiZT4Y.s:93024  .debug_str:0000000000011d79 .LASF5305
     /tmp/cciiZT4Y.s:98890  .debug_str:000000000002a207 .LASF5306
     /tmp/cciiZT4Y.s:96910  .debug_str:00000000000223d3 .LASF5307
     /tmp/cciiZT4Y.s:97942  .debug_str:000000000002637a .LASF5308
     /tmp/cciiZT4Y.s:101068  .debug_str:0000000000032e71 .LASF5309
     /tmp/cciiZT4Y.s:95074  .debug_str:000000000001a360 .LASF5310
     /tmp/cciiZT4Y.s:106136  .debug_str:0000000000047c49 .LASF5311
     /tmp/cciiZT4Y.s:104578  .debug_str:0000000000041288 .LASF5312
     /tmp/cciiZT4Y.s:101388  .debug_str:0000000000034356 .LASF5313
     /tmp/cciiZT4Y.s:100190  .debug_str:000000000002f4b8 .LASF5314
     /tmp/cciiZT4Y.s:100444  .debug_str:00000000000304fb .LASF5315
     /tmp/cciiZT4Y.s:92122  .debug_str:000000000000e91b .LASF5316
     /tmp/cciiZT4Y.s:106870  .debug_str:000000000004ac62 .LASF5317
     /tmp/cciiZT4Y.s:96216  .debug_str:000000000001f334 .LASF5318
     /tmp/cciiZT4Y.s:98432  .debug_str:0000000000028327 .LASF5319
     /tmp/cciiZT4Y.s:101984  .debug_str:0000000000036cf1 .LASF5320
     /tmp/cciiZT4Y.s:97994  .debug_str:0000000000026692 .LASF5321
     /tmp/cciiZT4Y.s:91590  .debug_str:000000000000c7c9 .LASF5322
     /tmp/cciiZT4Y.s:101162  .debug_str:0000000000033451 .LASF5323
     /tmp/cciiZT4Y.s:100944  .debug_str:00000000000325eb .LASF5324
     /tmp/cciiZT4Y.s:95500  .debug_str:000000000001c106 .LASF5325
     /tmp/cciiZT4Y.s:97196  .debug_str:00000000000236d3 .LASF5326
     /tmp/cciiZT4Y.s:106888  .debug_str:000000000004ae2a .LASF5327
     /tmp/cciiZT4Y.s:103902  .debug_str:000000000003e51a .LASF5328
     /tmp/cciiZT4Y.s:98380  .debug_str:0000000000028037 .LASF5329
     /tmp/cciiZT4Y.s:107572  .debug_str:000000000004de48 .LASF5330
     /tmp/cciiZT4Y.s:103828  .debug_str:000000000003e066 .LASF5331
     /tmp/cciiZT4Y.s:90042  .debug_str:0000000000005dcf .LASF5332
     /tmp/cciiZT4Y.s:94018  .debug_str:0000000000015d9f .LASF5333
     /tmp/cciiZT4Y.s:99236  .debug_str:000000000002b897 .LASF5334
     /tmp/cciiZT4Y.s:89872  .debug_str:00000000000052a7 .LASF5335
     /tmp/cciiZT4Y.s:96768  .debug_str:00000000000219e1 .LASF5336
     /tmp/cciiZT4Y.s:94874  .debug_str:00000000000195da .LASF5337
     /tmp/cciiZT4Y.s:93090  .debug_str:0000000000012230 .LASF5338
     /tmp/cciiZT4Y.s:97382  .debug_str:000000000002435b .LASF5339
     /tmp/cciiZT4Y.s:99790  .debug_str:000000000002d98a .LASF5340
     /tmp/cciiZT4Y.s:106882  .debug_str:000000000004ad81 .LASF5341
     /tmp/cciiZT4Y.s:104832  .debug_str:0000000000042692 .LASF5342
     /tmp/cciiZT4Y.s:91180  .debug_str:000000000000ab16 .LASF5343
     /tmp/cciiZT4Y.s:98790  .debug_str:0000000000029b21 .LASF5344
     /tmp/cciiZT4Y.s:106706  .debug_str:000000000004a114 .LASF5345
     /tmp/cciiZT4Y.s:96964  .debug_str:00000000000226d1 .LASF5346
     /tmp/cciiZT4Y.s:94186  .debug_str:00000000000167ee .LASF5347
     /tmp/cciiZT4Y.s:93224  .debug_str:0000000000012ac4 .LASF5348
     /tmp/cciiZT4Y.s:102780  .debug_str:0000000000039b19 .LASF5349
     /tmp/cciiZT4Y.s:105514  .debug_str:00000000000452eb .LASF5350
     /tmp/cciiZT4Y.s:105068  .debug_str:0000000000043633 .LASF5351
     /tmp/cciiZT4Y.s:103264  .debug_str:000000000003ba22 .LASF5352
     /tmp/cciiZT4Y.s:105882  .debug_str:0000000000046ad8 .LASF5353
     /tmp/cciiZT4Y.s:101546  .debug_str:0000000000034e32 .LASF5354
     /tmp/cciiZT4Y.s:93502  .debug_str:0000000000013d70 .LASF5355
     /tmp/cciiZT4Y.s:90948  .debug_str:0000000000009c2b .LASF5356
     /tmp/cciiZT4Y.s:105880  .debug_str:0000000000046ab1 .LASF5357
     /tmp/cciiZT4Y.s:104350  .debug_str:00000000000400b8 .LASF5358
     /tmp/cciiZT4Y.s:100924  .debug_str:000000000003241e .LASF5359
     /tmp/cciiZT4Y.s:91002  .debug_str:0000000000009f1d .LASF5360
     /tmp/cciiZT4Y.s:100280  .debug_str:000000000002faab .LASF5361
     /tmp/cciiZT4Y.s:103824  .debug_str:000000000003e028 .LASF5362
     /tmp/cciiZT4Y.s:106690  .debug_str:000000000004a068 .LASF5363
     /tmp/cciiZT4Y.s:102698  .debug_str:0000000000039657 .LASF5364
     /tmp/cciiZT4Y.s:92878  .debug_str:000000000001145b .LASF5365
     /tmp/cciiZT4Y.s:97440  .debug_str:000000000002477a .LASF5366
     /tmp/cciiZT4Y.s:95366  .debug_str:000000000001b79e .LASF5367
     /tmp/cciiZT4Y.s:97112  .debug_str:000000000002304c .LASF5368
     /tmp/cciiZT4Y.s:90630  .debug_str:00000000000085ef .LASF5369
     /tmp/cciiZT4Y.s:91634  .debug_str:000000000000cb10 .LASF5370
     /tmp/cciiZT4Y.s:91492  .debug_str:000000000000c191 .LASF5371
     /tmp/cciiZT4Y.s:106182  .debug_str:0000000000047f3f .LASF5372
     /tmp/cciiZT4Y.s:97718  .debug_str:0000000000025754 .LASF5373
     /tmp/cciiZT4Y.s:96776  .debug_str:0000000000021ab3 .LASF5374
     /tmp/cciiZT4Y.s:93070  .debug_str:000000000001208b .LASF5375
     /tmp/cciiZT4Y.s:103008  .debug_str:000000000003a890 .LASF5376
     /tmp/cciiZT4Y.s:99884  .debug_str:000000000002dfb1 .LASF5377
     /tmp/cciiZT4Y.s:103124  .debug_str:000000000003b0e2 .LASF5378
     /tmp/cciiZT4Y.s:107566  .debug_str:000000000004dddb .LASF5379
     /tmp/cciiZT4Y.s:100588  .debug_str:0000000000030eb5 .LASF5380
     /tmp/cciiZT4Y.s:91324  .debug_str:000000000000b57a .LASF5381
     /tmp/cciiZT4Y.s:97946  .debug_str:00000000000263c4 .LASF5382
     /tmp/cciiZT4Y.s:105372  .debug_str:00000000000449c0 .LASF5383
     /tmp/cciiZT4Y.s:106910  .debug_str:000000000004afb1 .LASF5384
     /tmp/cciiZT4Y.s:96388  .debug_str:000000000001ffd1 .LASF5385
     /tmp/cciiZT4Y.s:104740  .debug_str:0000000000041fb6 .LASF5386
     /tmp/cciiZT4Y.s:94584  .debug_str:0000000000018301 .LASF5387
     /tmp/cciiZT4Y.s:102188  .debug_str:0000000000037a26 .LASF5388
     /tmp/cciiZT4Y.s:91414  .debug_str:000000000000bbe2 .LASF5389
     /tmp/cciiZT4Y.s:90304  .debug_str:00000000000070a6 .LASF5390
     /tmp/cciiZT4Y.s:96802  .debug_str:0000000000021c97 .LASF5391
     /tmp/cciiZT4Y.s:101776  .debug_str:0000000000035f12 .LASF5392
     /tmp/cciiZT4Y.s:93210  .debug_str:00000000000129b7 .LASF5393
     /tmp/cciiZT4Y.s:102668  .debug_str:00000000000394d3 .LASF5394
     /tmp/cciiZT4Y.s:98900  .debug_str:000000000002a2b0 .LASF5395
     /tmp/cciiZT4Y.s:103336  .debug_str:000000000003bf62 .LASF5396
     /tmp/cciiZT4Y.s:98846  .debug_str:0000000000029ee2 .LASF5397
     /tmp/cciiZT4Y.s:100658  .debug_str:00000000000312fa .LASF5398
     /tmp/cciiZT4Y.s:90930  .debug_str:0000000000009a79 .LASF5399
     /tmp/cciiZT4Y.s:93244  .debug_str:0000000000012c18 .LASF5400
     /tmp/cciiZT4Y.s:99342  .debug_str:000000000002be9f .LASF5401
     /tmp/cciiZT4Y.s:105210  .debug_str:0000000000043f2b .LASF5402
     /tmp/cciiZT4Y.s:91952  .debug_str:000000000000df2b .LASF5403
     /tmp/cciiZT4Y.s:98084  .debug_str:0000000000026ca7 .LASF5404
     /tmp/cciiZT4Y.s:101854  .debug_str:000000000003641c .LASF5405
     /tmp/cciiZT4Y.s:90622  .debug_str:000000000000856b .LASF5406
     /tmp/cciiZT4Y.s:92296  .debug_str:000000000000f263 .LASF5407
     /tmp/cciiZT4Y.s:90590  .debug_str:0000000000008309 .LASF5408
     /tmp/cciiZT4Y.s:93312  .debug_str:00000000000130ef .LASF5409
     /tmp/cciiZT4Y.s:95538  .debug_str:000000000001c349 .LASF5410
     /tmp/cciiZT4Y.s:97316  .debug_str:0000000000023e96 .LASF5411
     /tmp/cciiZT4Y.s:89516  .debug_str:0000000000003a0d .LASF5412
     /tmp/cciiZT4Y.s:101452  .debug_str:00000000000346e8 .LASF5413
     /tmp/cciiZT4Y.s:106248  .debug_str:000000000004839b .LASF5414
     /tmp/cciiZT4Y.s:107608  .debug_str:000000000004e077 .LASF5415
     /tmp/cciiZT4Y.s:107156  .debug_str:000000000004c062 .LASF5416
     /tmp/cciiZT4Y.s:89634  .debug_str:00000000000042b4 .LASF5417
     /tmp/cciiZT4Y.s:90204  .debug_str:00000000000068b1 .LASF5418
     /tmp/cciiZT4Y.s:103596  .debug_str:000000000003d038 .LASF5419
     /tmp/cciiZT4Y.s:100964  .debug_str:0000000000032734 .LASF5420
     /tmp/cciiZT4Y.s:98918  .debug_str:000000000002a42b .LASF5421
     /tmp/cciiZT4Y.s:97606  .debug_str:000000000002512d .LASF5422
     /tmp/cciiZT4Y.s:89446  .debug_str:000000000000357d .LASF5423
     /tmp/cciiZT4Y.s:93332  .debug_str:000000000001328b .LASF5424
     /tmp/cciiZT4Y.s:99662  .debug_str:000000000002d1a7 .LASF5425
     /tmp/cciiZT4Y.s:93548  .debug_str:000000000001401c .LASF5426
     /tmp/cciiZT4Y.s:94226  .debug_str:0000000000016ad8 .LASF5427
     /tmp/cciiZT4Y.s:94144  .debug_str:000000000001655e .LASF5428
     /tmp/cciiZT4Y.s:95304  .debug_str:000000000001b379 .LASF5429
     /tmp/cciiZT4Y.s:99570  .debug_str:000000000002cbf5 .LASF5430
     /tmp/cciiZT4Y.s:98370  .debug_str:0000000000027f5c .LASF5431
     /tmp/cciiZT4Y.s:93468  .debug_str:0000000000013b47 .LASF5432
     /tmp/cciiZT4Y.s:100442  .debug_str:00000000000304cb .LASF5433
     /tmp/cciiZT4Y.s:102660  .debug_str:000000000003944c .LASF5434
     /tmp/cciiZT4Y.s:97552  .debug_str:0000000000024e43 .LASF5435
     /tmp/cciiZT4Y.s:100398  .debug_str:000000000003021e .LASF5436
     /tmp/cciiZT4Y.s:90198  .debug_str:0000000000006847 .LASF5437
     /tmp/cciiZT4Y.s:101422  .debug_str:0000000000034576 .LASF5438
     /tmp/cciiZT4Y.s:89924  .debug_str:0000000000005616 .LASF5439
     /tmp/cciiZT4Y.s:95972  .debug_str:000000000001e217 .LASF5440
     /tmp/cciiZT4Y.s:106202  .debug_str:000000000004809d .LASF5441
     /tmp/cciiZT4Y.s:103672  .debug_str:000000000003d4bd .LASF5442
     /tmp/cciiZT4Y.s:95584  .debug_str:000000000001c71e .LASF5443
     /tmp/cciiZT4Y.s:94204  .debug_str:0000000000016943 .LASF5444
     /tmp/cciiZT4Y.s:102074  .debug_str:00000000000372ac .LASF5445
     /tmp/cciiZT4Y.s:106144  .debug_str:0000000000047cc6 .LASF5446
     /tmp/cciiZT4Y.s:91376  .debug_str:000000000000b92d .LASF5447
     /tmp/cciiZT4Y.s:100370  .debug_str:000000000003007e .LASF5448
     /tmp/cciiZT4Y.s:88874  .debug_str:0000000000000dfd .LASF5449
     /tmp/cciiZT4Y.s:107146  .debug_str:000000000004bfb6 .LASF5450
     /tmp/cciiZT4Y.s:92778  .debug_str:0000000000010de4 .LASF5451
     /tmp/cciiZT4Y.s:91458  .debug_str:000000000000bf51 .LASF5452
     /tmp/cciiZT4Y.s:98236  .debug_str:0000000000027639 .LASF5453
     /tmp/cciiZT4Y.s:94428  .debug_str:00000000000178cd .LASF5454
     /tmp/cciiZT4Y.s:89784  .debug_str:0000000000004d23 .LASF5455
     /tmp/cciiZT4Y.s:89768  .debug_str:0000000000004c2e .LASF5456
     /tmp/cciiZT4Y.s:95684  .debug_str:000000000001ce77 .LASF5457
     /tmp/cciiZT4Y.s:101240  .debug_str:00000000000339b6 .LASF5458
     /tmp/cciiZT4Y.s:105648  .debug_str:0000000000045bfa .LASF5459
     /tmp/cciiZT4Y.s:96204  .debug_str:000000000001f22e .LASF5460
     /tmp/cciiZT4Y.s:93866  .debug_str:0000000000015387 .LASF5461
     /tmp/cciiZT4Y.s:98760  .debug_str:00000000000299aa .LASF5462
     /tmp/cciiZT4Y.s:94432  .debug_str:000000000001792e .LASF5463
     /tmp/cciiZT4Y.s:102976  .debug_str:000000000003a646 .LASF5464
     /tmp/cciiZT4Y.s:106746  .debug_str:000000000004a383 .LASF5465
     /tmp/cciiZT4Y.s:105250  .debug_str:00000000000441bd .LASF5466
     /tmp/cciiZT4Y.s:98250  .debug_str:00000000000276f1 .LASF5467
     /tmp/cciiZT4Y.s:95594  .debug_str:000000000001c7e2 .LASF5468
     /tmp/cciiZT4Y.s:101680  .debug_str:00000000000357d7 .LASF5469
     /tmp/cciiZT4Y.s:106420  .debug_str:0000000000048eb3 .LASF5470
     /tmp/cciiZT4Y.s:107286  .debug_str:000000000004c93b .LASF5471
     /tmp/cciiZT4Y.s:96368  .debug_str:000000000001fdeb .LASF5472
     /tmp/cciiZT4Y.s:102446  .debug_str:000000000003898a .LASF5473
     /tmp/cciiZT4Y.s:97322  .debug_str:0000000000023ef2 .LASF5474
     /tmp/cciiZT4Y.s:95880  .debug_str:000000000001db7b .LASF5475
     /tmp/cciiZT4Y.s:106938  .debug_str:000000000004b1b0 .LASF5476
     /tmp/cciiZT4Y.s:107632  .debug_str:000000000004e26a .LASF5477
     /tmp/cciiZT4Y.s:107578  .debug_str:000000000004de9a .LASF5478
     /tmp/cciiZT4Y.s:98670  .debug_str:000000000002944b .LASF5479
     /tmp/cciiZT4Y.s:98452  .debug_str:000000000002849f .LASF5480
     /tmp/cciiZT4Y.s:98910  .debug_str:000000000002a351 .LASF5481
     /tmp/cciiZT4Y.s:107512  .debug_str:000000000004d953 .LASF5482
     /tmp/cciiZT4Y.s:95714  .debug_str:000000000001d07c .LASF5483
     /tmp/cciiZT4Y.s:96642  .debug_str:000000000002111d .LASF5484
     /tmp/cciiZT4Y.s:97512  .debug_str:0000000000024af8 .LASF5485
     /tmp/cciiZT4Y.s:101584  .debug_str:0000000000035090 .LASF5486
     /tmp/cciiZT4Y.s:99246  .debug_str:000000000002b93c .LASF5487
     /tmp/cciiZT4Y.s:94844  .debug_str:000000000001931c .LASF5488
     /tmp/cciiZT4Y.s:99962  .debug_str:000000000002e4c3 .LASF5489
     /tmp/cciiZT4Y.s:97100  .debug_str:0000000000022fa8 .LASF5490
     /tmp/cciiZT4Y.s:104192  .debug_str:000000000003f75f .LASF5491
     /tmp/cciiZT4Y.s:103706  .debug_str:000000000003d71c .LASF5492
     /tmp/cciiZT4Y.s:92784  .debug_str:0000000000010e8a .LASF5493
     /tmp/cciiZT4Y.s:91408  .debug_str:000000000000bb6f .LASF5494
     /tmp/cciiZT4Y.s:103410  .debug_str:000000000003c493 .LASF5495
     /tmp/cciiZT4Y.s:93564  .debug_str:0000000000014118 .LASF5496
     /tmp/cciiZT4Y.s:100516  .debug_str:0000000000030a07 .LASF5497
     /tmp/cciiZT4Y.s:99040  .debug_str:000000000002ab87 .LASF5498
     /tmp/cciiZT4Y.s:103748  .debug_str:000000000003da3e .LASF5499
     /tmp/cciiZT4Y.s:102060  .debug_str:0000000000037195 .LASF5500
     /tmp/cciiZT4Y.s:102234  .debug_str:0000000000037c47 .LASF5501
     /tmp/cciiZT4Y.s:99386  .debug_str:000000000002c1cc .LASF5502
     /tmp/cciiZT4Y.s:105284  .debug_str:0000000000044436 .LASF5503
     /tmp/cciiZT4Y.s:105954  .debug_str:0000000000046fa3 .LASF5504
     /tmp/cciiZT4Y.s:101082  .debug_str:0000000000032f3e .LASF5505
     /tmp/cciiZT4Y.s:92368  .debug_str:000000000000f6e2 .LASF5506
     /tmp/cciiZT4Y.s:104656  .debug_str:0000000000041767 .LASF5507
     /tmp/cciiZT4Y.s:107276  .debug_str:000000000004c887 .LASF5508
     /tmp/cciiZT4Y.s:98036  .debug_str:00000000000269a9 .LASF5509
     /tmp/cciiZT4Y.s:94808  .debug_str:00000000000190f3 .LASF5510
     /tmp/cciiZT4Y.s:102754  .debug_str:000000000003991d .LASF5511
     /tmp/cciiZT4Y.s:107224  .debug_str:000000000004c4cb .LASF5512
     /tmp/cciiZT4Y.s:99762  .debug_str:000000000002d7b6 .LASF5513
     /tmp/cciiZT4Y.s:92230  .debug_str:000000000000ee26 .LASF5514
     /tmp/cciiZT4Y.s:98508  .debug_str:00000000000288b1 .LASF5515
     /tmp/cciiZT4Y.s:107676  .debug_str:000000000004e5ab .LASF5516
     /tmp/cciiZT4Y.s:90470  .debug_str:0000000000007b7b .LASF5517
     /tmp/cciiZT4Y.s:100822  .debug_str:0000000000031d3d .LASF5518
     /tmp/cciiZT4Y.s:89580  .debug_str:0000000000003e80 .LASF5519
     /tmp/cciiZT4Y.s:100010  .debug_str:000000000002e86a .LASF5520
     /tmp/cciiZT4Y.s:104968  .debug_str:0000000000042f38 .LASF5521
     /tmp/cciiZT4Y.s:105164  .debug_str:0000000000043c26 .LASF5522
     /tmp/cciiZT4Y.s:104410  .debug_str:000000000004047e .LASF5523
     /tmp/cciiZT4Y.s:90908  .debug_str:00000000000098a1 .LASF5524
     /tmp/cciiZT4Y.s:89074  .debug_str:0000000000001cba .LASF5525
     /tmp/cciiZT4Y.s:95498  .debug_str:000000000001c0dc .LASF5526
     /tmp/cciiZT4Y.s:107558  .debug_str:000000000004dd3b .LASF5527
     /tmp/cciiZT4Y.s:102278  .debug_str:0000000000037fea .LASF5528
     /tmp/cciiZT4Y.s:98214  .debug_str:0000000000027479 .LASF5529
     /tmp/cciiZT4Y.s:104328  .debug_str:000000000003ff63 .LASF5530
     /tmp/cciiZT4Y.s:89612  .debug_str:000000000000411a .LASF5531
     /tmp/cciiZT4Y.s:104730  .debug_str:0000000000041f32 .LASF5532
     /tmp/cciiZT4Y.s:96676  .debug_str:0000000000021379 .LASF5533
     /tmp/cciiZT4Y.s:96380  .debug_str:000000000001ff23 .LASF5534
     /tmp/cciiZT4Y.s:104196  .debug_str:000000000003f7b2 .LASF5535
     /tmp/cciiZT4Y.s:100978  .debug_str:0000000000032824 .LASF5536
     /tmp/cciiZT4Y.s:105808  .debug_str:00000000000465ff .LASF5537
     /tmp/cciiZT4Y.s:91848  .debug_str:000000000000d9c7 .LASF5538
     /tmp/cciiZT4Y.s:102544  .debug_str:0000000000038ee0 .LASF5539
     /tmp/cciiZT4Y.s:101730  .debug_str:0000000000035b51 .LASF5540
     /tmp/cciiZT4Y.s:95194  .debug_str:000000000001ac9f .LASF5541
     /tmp/cciiZT4Y.s:92506  .debug_str:000000000000ff52 .LASF5542
     /tmp/cciiZT4Y.s:93340  .debug_str:0000000000013381 .LASF5543
     /tmp/cciiZT4Y.s:95522  .debug_str:000000000001c231 .LASF5544
     /tmp/cciiZT4Y.s:91800  .debug_str:000000000000d666 .LASF5545
     /tmp/cciiZT4Y.s:92612  .debug_str:00000000000104dc .LASF5546
     /tmp/cciiZT4Y.s:96796  .debug_str:0000000000021c04 .LASF5547
     /tmp/cciiZT4Y.s:94630  .debug_str:000000000001861a .LASF5548
     /tmp/cciiZT4Y.s:94890  .debug_str:00000000000196dc .LASF5549
     /tmp/cciiZT4Y.s:101756  .debug_str:0000000000035da5 .LASF5550
     /tmp/cciiZT4Y.s:105470  .debug_str:0000000000044fd8 .LASF5551
     /tmp/cciiZT4Y.s:106440  .debug_str:000000000004900c .LASF5552
     /tmp/cciiZT4Y.s:94992  .debug_str:0000000000019db3 .LASF5553
     /tmp/cciiZT4Y.s:98706  .debug_str:00000000000295ec .LASF5554
     /tmp/cciiZT4Y.s:98038  .debug_str:00000000000269d5 .LASF5555
     /tmp/cciiZT4Y.s:106688  .debug_str:000000000004a053 .LASF5556
     /tmp/cciiZT4Y.s:101484  .debug_str:000000000003498b .LASF5557
     /tmp/cciiZT4Y.s:106868  .debug_str:000000000004ac33 .LASF5558
     /tmp/cciiZT4Y.s:99066  .debug_str:000000000002acdd .LASF5559
     /tmp/cciiZT4Y.s:96920  .debug_str:00000000000224aa .LASF5560
     /tmp/cciiZT4Y.s:105582  .debug_str:00000000000457e2 .LASF5561
     /tmp/cciiZT4Y.s:96968  .debug_str:0000000000022712 .LASF5562
     /tmp/cciiZT4Y.s:101232  .debug_str:0000000000033939 .LASF5563
     /tmp/cciiZT4Y.s:101618  .debug_str:0000000000035363 .LASF5564
     /tmp/cciiZT4Y.s:91758  .debug_str:000000000000d408 .LASF5565
     /tmp/cciiZT4Y.s:107820  .debug_str:000000000004eef9 .LASF5567
     /tmp/cciiZT4Y.s:91644  .debug_str:000000000000cc2b .LASF5568
     /tmp/cciiZT4Y.s:96538  .debug_str:0000000000020ab6 .LASF5569
     /tmp/cciiZT4Y.s:91772  .debug_str:000000000000d4cf .LASF5570
     /tmp/cciiZT4Y.s:99156  .debug_str:000000000002b2c8 .LASF5571
     /tmp/cciiZT4Y.s:99642  .debug_str:000000000002d097 .LASF5572
     /tmp/cciiZT4Y.s:93768  .debug_str:0000000000014d5f .LASF5573
     /tmp/cciiZT4Y.s:92538  .debug_str:0000000000010140 .LASF5574
     /tmp/cciiZT4Y.s:98294  .debug_str:0000000000027a50 .LASF5575
     /tmp/cciiZT4Y.s:104048  .debug_str:000000000003edf6 .LASF5576
     /tmp/cciiZT4Y.s:100062  .debug_str:000000000002ec33 .LASF5577
     /tmp/cciiZT4Y.s:94888  .debug_str:00000000000196c3 .LASF5578
     /tmp/cciiZT4Y.s:104018  .debug_str:000000000003ebdc .LASF5579
     /tmp/cciiZT4Y.s:95800  .debug_str:000000000001d5a6 .LASF5580
     /tmp/cciiZT4Y.s:101784  .debug_str:0000000000035fa9 .LASF5581
     /tmp/cciiZT4Y.s:98574  .debug_str:0000000000028d4d .LASF5582
     /tmp/cciiZT4Y.s:106788  .debug_str:000000000004a74a .LASF5583
     /tmp/cciiZT4Y.s:94406  .debug_str:0000000000017755 .LASF5584
     /tmp/cciiZT4Y.s:106086  .debug_str:00000000000478a1 .LASF5585
     /tmp/cciiZT4Y.s:91560  .debug_str:000000000000c5c0 .LASF5586
     /tmp/cciiZT4Y.s:88724  .debug_str:000000000000041f .LASF5587
     /tmp/cciiZT4Y.s:95672  .debug_str:000000000001cd9d .LASF5588
     /tmp/cciiZT4Y.s:107400  .debug_str:000000000004d13b .LASF5589
     /tmp/cciiZT4Y.s:91978  .debug_str:000000000000e0fb .LASF5590
     /tmp/cciiZT4Y.s:90562  .debug_str:0000000000008142 .LASF5591
     /tmp/cciiZT4Y.s:95670  .debug_str:000000000001cd7d .LASF5592
     /tmp/cciiZT4Y.s:89642  .debug_str:000000000000434e .LASF5593
     /tmp/cciiZT4Y.s:96528  .debug_str:0000000000020a0b .LASF5594
     /tmp/cciiZT4Y.s:102270  .debug_str:0000000000037f31 .LASF5595
     /tmp/cciiZT4Y.s:103216  .debug_str:000000000003b726 .LASF5596
     /tmp/cciiZT4Y.s:89386  .debug_str:00000000000031f6 .LASF5597
     /tmp/cciiZT4Y.s:90982  .debug_str:0000000000009e4d .LASF5598
     /tmp/cciiZT4Y.s:102682  .debug_str:0000000000039599 .LASF5599
     /tmp/cciiZT4Y.s:104324  .debug_str:000000000003ff2a .LASF5600
     /tmp/cciiZT4Y.s:101118  .debug_str:0000000000033176 .LASF5601
     /tmp/cciiZT4Y.s:99424  .debug_str:000000000002c3fa .LASF5602
     /tmp/cciiZT4Y.s:104960  .debug_str:0000000000042ebd .LASF5603
     /tmp/cciiZT4Y.s:103972  .debug_str:000000000003ea02 .LASF5604
     /tmp/cciiZT4Y.s:107274  .debug_str:000000000004c86b .LASF5605
     /tmp/cciiZT4Y.s:95392  .debug_str:000000000001b988 .LASF5606
     /tmp/cciiZT4Y.s:93384  .debug_str:00000000000136a8 .LASF5607
     /tmp/cciiZT4Y.s:89806  .debug_str:0000000000004ef7 .LASF5608
     /tmp/cciiZT4Y.s:99670  .debug_str:000000000002d239 .LASF5609
     /tmp/cciiZT4Y.s:101234  .debug_str:000000000003395d .LASF5610
     /tmp/cciiZT4Y.s:91974  .debug_str:000000000000e0c0 .LASF5611
     /tmp/cciiZT4Y.s:97154  .debug_str:000000000002331d .LASF5612
     /tmp/cciiZT4Y.s:99470  .debug_str:000000000002c5de .LASF5613
     /tmp/cciiZT4Y.s:104568  .debug_str:00000000000411bb .LASF5614
     /tmp/cciiZT4Y.s:90892  .debug_str:0000000000009794 .LASF5615
     /tmp/cciiZT4Y.s:103062  .debug_str:000000000003ac6a .LASF5616
     /tmp/cciiZT4Y.s:96640  .debug_str:00000000000210fc .LASF5617
     /tmp/cciiZT4Y.s:90734  .debug_str:0000000000008cf1 .LASF5618
     /tmp/cciiZT4Y.s:107292  .debug_str:000000000004c9c2 .LASF5619
     /tmp/cciiZT4Y.s:102836  .debug_str:0000000000039dfc .LASF5620
     /tmp/cciiZT4Y.s:95164  .debug_str:000000000001aa04 .LASF5621
     /tmp/cciiZT4Y.s:102052  .debug_str:000000000003710d .LASF5622
     /tmp/cciiZT4Y.s:90808  .debug_str:0000000000009215 .LASF5623
     /tmp/cciiZT4Y.s:88676  .debug_str:00000000000000af .LASF5624
     /tmp/cciiZT4Y.s:101140  .debug_str:00000000000332e0 .LASF5625
     /tmp/cciiZT4Y.s:93168  .debug_str:0000000000012705 .LASF5626
     /tmp/cciiZT4Y.s:96438  .debug_str:0000000000020349 .LASF5627
     /tmp/cciiZT4Y.s:98498  .debug_str:00000000000287fb .LASF5628
     /tmp/cciiZT4Y.s:106246  .debug_str:000000000004835d .LASF5629
     /tmp/cciiZT4Y.s:107084  .debug_str:000000000004bbc4 .LASF5630
     /tmp/cciiZT4Y.s:99798  .debug_str:000000000002d9ff .LASF5631
     /tmp/cciiZT4Y.s:90264  .debug_str:0000000000006cf2 .LASF5632
     /tmp/cciiZT4Y.s:101402  .debug_str:000000000003446e .LASF5633
     /tmp/cciiZT4Y.s:92438  .debug_str:000000000000fac4 .LASF5634
     /tmp/cciiZT4Y.s:106890  .debug_str:000000000004ae53 .LASF5635
     /tmp/cciiZT4Y.s:90826  .debug_str:0000000000009304 .LASF5636
     /tmp/cciiZT4Y.s:89362  .debug_str:0000000000003097 .LASF5637
     /tmp/cciiZT4Y.s:88804  .debug_str:00000000000009b1 .LASF5638
     /tmp/cciiZT4Y.s:99896  .debug_str:000000000002e089 .LASF5639
     /tmp/cciiZT4Y.s:90960  .debug_str:0000000000009cf0 .LASF5640
     /tmp/cciiZT4Y.s:97028  .debug_str:0000000000022af4 .LASF5641
     /tmp/cciiZT4Y.s:91182  .debug_str:000000000000ab44 .LASF5642
     /tmp/cciiZT4Y.s:99698  .debug_str:000000000002d3f9 .LASF5643
     /tmp/cciiZT4Y.s:104168  .debug_str:000000000003f572 .LASF5644
     /tmp/cciiZT4Y.s:90380  .debug_str:0000000000007592 .LASF5645
     /tmp/cciiZT4Y.s:95592  .debug_str:000000000001c7cc .LASF5646
     /tmp/cciiZT4Y.s:91556  .debug_str:000000000000c54f .LASF5647
     /tmp/cciiZT4Y.s:99330  .debug_str:000000000002bd66 .LASF5648
     /tmp/cciiZT4Y.s:105056  .debug_str:000000000004354c .LASF5649
     /tmp/cciiZT4Y.s:95142  .debug_str:000000000001a7f9 .LASF5650
     /tmp/cciiZT4Y.s:106820  .debug_str:000000000004a948 .LASF5651
     /tmp/cciiZT4Y.s:98610  .debug_str:0000000000028fcf .LASF5652
     /tmp/cciiZT4Y.s:92078  .debug_str:000000000000e765 .LASF5653
     /tmp/cciiZT4Y.s:101200  .debug_str:0000000000033737 .LASF5654
     /tmp/cciiZT4Y.s:101282  .debug_str:0000000000033c9e .LASF5655
     /tmp/cciiZT4Y.s:99438  .debug_str:000000000002c49c .LASF5656
     /tmp/cciiZT4Y.s:97642  .debug_str:0000000000025327 .LASF5657
     /tmp/cciiZT4Y.s:99668  .debug_str:000000000002d20d .LASF5658
     /tmp/cciiZT4Y.s:107066  .debug_str:000000000004ba84 .LASF5659
     /tmp/cciiZT4Y.s:98570  .debug_str:0000000000028cf7 .LASF5660
     /tmp/cciiZT4Y.s:104094  .debug_str:000000000003f0d0 .LASF5661
     /tmp/cciiZT4Y.s:103574  .debug_str:000000000003ced6 .LASF5662
     /tmp/cciiZT4Y.s:101874  .debug_str:0000000000036551 .LASF5663
     /tmp/cciiZT4Y.s:96458  .debug_str:00000000000204c6 .LASF5664
     /tmp/cciiZT4Y.s:98736  .debug_str:00000000000297ca .LASF5665
     /tmp/cciiZT4Y.s:97180  .debug_str:00000000000234f7 .LASF5666
     /tmp/cciiZT4Y.s:90166  .debug_str:00000000000065f2 .LASF5667
     /tmp/cciiZT4Y.s:104890  .debug_str:0000000000042a6a .LASF5668
     /tmp/cciiZT4Y.s:89208  .debug_str:0000000000002608 .LASF5669
     /tmp/cciiZT4Y.s:96784  .debug_str:0000000000021b38 .LASF5670
     /tmp/cciiZT4Y.s:88796  .debug_str:0000000000000936 .LASF5671
     /tmp/cciiZT4Y.s:93218  .debug_str:0000000000012a4b .LASF5672
     /tmp/cciiZT4Y.s:91140  .debug_str:000000000000a8b3 .LASF5673
     /tmp/cciiZT4Y.s:105440  .debug_str:0000000000044e56 .LASF5674
     /tmp/cciiZT4Y.s:106824  .debug_str:000000000004a9c1 .LASF5675
     /tmp/cciiZT4Y.s:95330  .debug_str:000000000001b53c .LASF5676
     /tmp/cciiZT4Y.s:101682  .debug_str:0000000000035810 .LASF5677
     /tmp/cciiZT4Y.s:96394  .debug_str:0000000000020058 .LASF5678
     /tmp/cciiZT4Y.s:97152  .debug_str:00000000000232f1 .LASF5679
     /tmp/cciiZT4Y.s:104074  .debug_str:000000000003efb8 .LASF5680
     /tmp/cciiZT4Y.s:90116  .debug_str:00000000000062a4 .LASF5681
     /tmp/cciiZT4Y.s:97208  .debug_str:0000000000023783 .LASF5682
     /tmp/cciiZT4Y.s:104284  .debug_str:000000000003fcd0 .LASF5683
     /tmp/cciiZT4Y.s:91728  .debug_str:000000000000d1ee .LASF5684
     /tmp/cciiZT4Y.s:94100  .debug_str:0000000000016201 .LASF5685
     /tmp/cciiZT4Y.s:93020  .debug_str:0000000000011d22 .LASF5686
     /tmp/cciiZT4Y.s:98310  .debug_str:0000000000027b62 .LASF5687
     /tmp/cciiZT4Y.s:93076  .debug_str:000000000001210d .LASF5688
     /tmp/cciiZT4Y.s:94458  .debug_str:0000000000017aef .LASF5689
     /tmp/cciiZT4Y.s:98940  .debug_str:000000000002a583 .LASF5690
     /tmp/cciiZT4Y.s:89500  .debug_str:0000000000003921 .LASF5691
     /tmp/cciiZT4Y.s:102980  .debug_str:000000000003a68b .LASF5692
     /tmp/cciiZT4Y.s:92440  .debug_str:000000000000fae5 .LASF5693
     /tmp/cciiZT4Y.s:91286  .debug_str:000000000000b2c2 .LASF5694
     /tmp/cciiZT4Y.s:97474  .debug_str:000000000002495c .LASF5695
     /tmp/cciiZT4Y.s:90968  .debug_str:0000000000009d72 .LASF5696
     /tmp/cciiZT4Y.s:93700  .debug_str:00000000000149e8 .LASF5697
     /tmp/cciiZT4Y.s:107510  .debug_str:000000000004d936 .LASF5698
     /tmp/cciiZT4Y.s:104316  .debug_str:000000000003febd .LASF5699
     /tmp/cciiZT4Y.s:107458  .debug_str:000000000004d529 .LASF5700
     /tmp/cciiZT4Y.s:91138  .debug_str:000000000000a8a4 .LASF5701
     /tmp/cciiZT4Y.s:96894  .debug_str:00000000000221fb .LASF5702
     /tmp/cciiZT4Y.s:90884  .debug_str:000000000000972c .LASF5703
     /tmp/cciiZT4Y.s:91050  .debug_str:000000000000a2d5 .LASF5704
     /tmp/cciiZT4Y.s:97314  .debug_str:0000000000023e75 .LASF5705
     /tmp/cciiZT4Y.s:88924  .debug_str:0000000000001183 .LASF5706
     /tmp/cciiZT4Y.s:92932  .debug_str:0000000000011734 .LASF5707
     /tmp/cciiZT4Y.s:95962  .debug_str:000000000001e198 .LASF5708
     /tmp/cciiZT4Y.s:102034  .debug_str:0000000000036fd1 .LASF5709
     /tmp/cciiZT4Y.s:94822  .debug_str:00000000000191b8 .LASF5710
     /tmp/cciiZT4Y.s:96150  .debug_str:000000000001ee1a .LASF5711
     /tmp/cciiZT4Y.s:95634  .debug_str:000000000001caf4 .LASF5712
     /tmp/cciiZT4Y.s:103926  .debug_str:000000000003e6d9 .LASF5713
     /tmp/cciiZT4Y.s:89496  .debug_str:00000000000038c5 .LASF5714
     /tmp/cciiZT4Y.s:90082  .debug_str:0000000000006076 .LASF5715
     /tmp/cciiZT4Y.s:106970  .debug_str:000000000004b424 .LASF5716
     /tmp/cciiZT4Y.s:90756  .debug_str:0000000000008eab .LASF5717
     /tmp/cciiZT4Y.s:101530  .debug_str:0000000000034dab .LASF5718
     /tmp/cciiZT4Y.s:93414  .debug_str:00000000000137e4 .LASF5719
     /tmp/cciiZT4Y.s:101290  .debug_str:0000000000033d1c .LASF5720
     /tmp/cciiZT4Y.s:99222  .debug_str:000000000002b791 .LASF5722
     /tmp/cciiZT4Y.s:93658  .debug_str:000000000001471e .LASF5723
     /tmp/cciiZT4Y.s:102048  .debug_str:00000000000370ce .LASF5724
     /tmp/cciiZT4Y.s:91088  .debug_str:000000000000a4b9 .LASF5725
     /tmp/cciiZT4Y.s:95456  .debug_str:000000000001be28 .LASF5726
     /tmp/cciiZT4Y.s:95326  .debug_str:000000000001b50a .LASF5727
     /tmp/cciiZT4Y.s:100140  .debug_str:000000000002f08f .LASF5728
     /tmp/cciiZT4Y.s:96680  .debug_str:00000000000213b3 .LASF5729
     /tmp/cciiZT4Y.s:104506  .debug_str:0000000000040ca4 .LASF5730
     /tmp/cciiZT4Y.s:89032  .debug_str:00000000000019a4 .LASF5731
     /tmp/cciiZT4Y.s:98366  .debug_str:0000000000027f2b .LASF5732
     /tmp/cciiZT4Y.s:94718  .debug_str:0000000000018b1f .LASF5733
     /tmp/cciiZT4Y.s:104384  .debug_str:00000000000402a3 .LASF5734
     /tmp/cciiZT4Y.s:103092  .debug_str:000000000003ae70 .LASF5735
     /tmp/cciiZT4Y.s:103646  .debug_str:000000000003d30e .LASF5736
     /tmp/cciiZT4Y.s:99970  .debug_str:000000000002e568 .LASF5737
     /tmp/cciiZT4Y.s:99530  .debug_str:000000000002c965 .LASF5738
     /tmp/cciiZT4Y.s:91694  .debug_str:000000000000cf7f .LASF5739
     /tmp/cciiZT4Y.s:93718  .debug_str:0000000000014afe .LASF5740
     /tmp/cciiZT4Y.s:96200  .debug_str:000000000001f1cf .LASF5741
     /tmp/cciiZT4Y.s:102512  .debug_str:0000000000038d05 .LASF5742
     /tmp/cciiZT4Y.s:89234  .debug_str:00000000000027d2 .LASF5743
     /tmp/cciiZT4Y.s:95510  .debug_str:000000000001c19b .LASF5744
     /tmp/cciiZT4Y.s:101782  .debug_str:0000000000035f8d .LASF5745
     /tmp/cciiZT4Y.s:94360  .debug_str:00000000000173e5 .LASF5746
     /tmp/cciiZT4Y.s:101722  .debug_str:0000000000035a88 .LASF5747
     /tmp/cciiZT4Y.s:103908  .debug_str:000000000003e577 .LASF5748
     /tmp/cciiZT4Y.s:92248  .debug_str:000000000000ef0b .LASF5749
     /tmp/cciiZT4Y.s:106618  .debug_str:0000000000049bdd .LASF5750
     /tmp/cciiZT4Y.s:91028  .debug_str:000000000000a107 .LASF5751
     /tmp/cciiZT4Y.s:106360  .debug_str:0000000000048aba .LASF5752
     /tmp/cciiZT4Y.s:104102  .debug_str:000000000003f1aa .LASF5753
     /tmp/cciiZT4Y.s:91466  .debug_str:000000000000c004 .LASF5754
     /tmp/cciiZT4Y.s:94314  .debug_str:000000000001709e .LASF5755
     /tmp/cciiZT4Y.s:97740  .debug_str:00000000000258cf .LASF5756
     /tmp/cciiZT4Y.s:105184  .debug_str:0000000000043dee .LASF5757
     /tmp/cciiZT4Y.s:107730  .debug_str:000000000004e91b .LASF5758
     /tmp/cciiZT4Y.s:96160  .debug_str:000000000001eed0 .LASF5759
     /tmp/cciiZT4Y.s:100502  .debug_str:0000000000030963 .LASF5760
     /tmp/cciiZT4Y.s:98618  .debug_str:000000000002909f .LASF5761
     /tmp/cciiZT4Y.s:97896  .debug_str:00000000000260bf .LASF5762
     /tmp/cciiZT4Y.s:95816  .debug_str:000000000001d6d4 .LASF5763
     /tmp/cciiZT4Y.s:93550  .debug_str:0000000000014046 .LASF5764
     /tmp/cciiZT4Y.s:91382  .debug_str:000000000000b991 .LASF5765
     /tmp/cciiZT4Y.s:99468  .debug_str:000000000002c5c5 .LASF5766
     /tmp/cciiZT4Y.s:106590  .debug_str:0000000000049a3a .LASF5767
     /tmp/cciiZT4Y.s:101136  .debug_str:000000000003328c .LASF5768
     /tmp/cciiZT4Y.s:100972  .debug_str:00000000000327d7 .LASF5769
     /tmp/cciiZT4Y.s:93930  .debug_str:00000000000157b1 .LASF5770
     /tmp/cciiZT4Y.s:93600  .debug_str:0000000000014344 .LASF5771
     /tmp/cciiZT4Y.s:93956  .debug_str:0000000000015958 .LASF5772
     /tmp/cciiZT4Y.s:106710  .debug_str:000000000004a151 .LASF5773
     /tmp/cciiZT4Y.s:89616  .debug_str:0000000000004173 .LASF5774
     /tmp/cciiZT4Y.s:105046  .debug_str:0000000000043478 .LASF5775
     /tmp/cciiZT4Y.s:90148  .debug_str:0000000000006509 .LASF5776
     /tmp/cciiZT4Y.s:98336  .debug_str:0000000000027d8b .LASF5777
     /tmp/cciiZT4Y.s:98406  .debug_str:00000000000281f2 .LASF5778
     /tmp/cciiZT4Y.s:96564  .debug_str:0000000000020c62 .LASF5779
     /tmp/cciiZT4Y.s:104850  .debug_str:0000000000042817 .LASF5780
     /tmp/cciiZT4Y.s:102880  .debug_str:000000000003a017 .LASF5781
     /tmp/cciiZT4Y.s:92372  .debug_str:000000000000f750 .LASF5782
     /tmp/cciiZT4Y.s:98470  .debug_str:000000000002860f .LASF5783
     /tmp/cciiZT4Y.s:106768  .debug_str:000000000004a54f .LASF5784
     /tmp/cciiZT4Y.s:96446  .debug_str:0000000000020423 .LASF5785
     /tmp/cciiZT4Y.s:103044  .debug_str:000000000003ab38 .LASF5786
     /tmp/cciiZT4Y.s:106162  .debug_str:0000000000047e30 .LASF5787
     /tmp/cciiZT4Y.s:103166  .debug_str:000000000003b3b7 .LASF5788
     /tmp/cciiZT4Y.s:97438  .debug_str:000000000002475d .LASF5789
     /tmp/cciiZT4Y.s:108050  .debug_str:000000000004fe82 .LASF5790
     /tmp/cciiZT4Y.s:94184  .debug_str:00000000000167d3 .LASF5791
     /tmp/cciiZT4Y.s:107284  .debug_str:000000000004c921 .LASF5792
     /tmp/cciiZT4Y.s:93068  .debug_str:000000000001206e .LASF5793
     /tmp/cciiZT4Y.s:99650  .debug_str:000000000002d115 .LASF5794
     /tmp/cciiZT4Y.s:88720  .debug_str:00000000000003ef .LASF5795
     /tmp/cciiZT4Y.s:106050  .debug_str:000000000004762c .LASF5796
     /tmp/cciiZT4Y.s:90644  .debug_str:0000000000008716 .LASF5797
     /tmp/cciiZT4Y.s:102934  .debug_str:000000000003a405 .LASF5798
     /tmp/cciiZT4Y.s:98392  .debug_str:00000000000280e7 .LASF5799
     /tmp/cciiZT4Y.s:95650  .debug_str:000000000001cc31 .LASF5800
     /tmp/cciiZT4Y.s:100310  .debug_str:000000000002fc5c .LASF5801
     /tmp/cciiZT4Y.s:97806  .debug_str:0000000000025c41 .LASF5802
     /tmp/cciiZT4Y.s:95900  .debug_str:000000000001dd2d .LASF5803
     /tmp/cciiZT4Y.s:100770  .debug_str:0000000000031a63 .LASF5804
     /tmp/cciiZT4Y.s:106380  .debug_str:0000000000048c23 .LASF5805
     /tmp/cciiZT4Y.s:102868  .debug_str:0000000000039f79 .LASF5806
     /tmp/cciiZT4Y.s:94892  .debug_str:0000000000019706 .LASF5807
     /tmp/cciiZT4Y.s:98504  .debug_str:0000000000028859 .LASF5808
     /tmp/cciiZT4Y.s:96912  .debug_str:00000000000223fb .LASF5809
     /tmp/cciiZT4Y.s:101414  .debug_str:0000000000034537 .LASF5810
     /tmp/cciiZT4Y.s:91356  .debug_str:000000000000b805 .LASF5811
     /tmp/cciiZT4Y.s:99482  .debug_str:000000000002c6a1 .LASF5812
     /tmp/cciiZT4Y.s:106550  .debug_str:00000000000496eb .LASF5813
     /tmp/cciiZT4Y.s:103864  .debug_str:000000000003e2ce .LASF5814
     /tmp/cciiZT4Y.s:93048  .debug_str:0000000000011f3d .LASF5815
     /tmp/cciiZT4Y.s:105672  .debug_str:0000000000045d8c .LASF5816
     /tmp/cciiZT4Y.s:88688  .debug_str:0000000000000196 .LASF5817
     /tmp/cciiZT4Y.s:106034  .debug_str:000000000004752e .LASF5818
     /tmp/cciiZT4Y.s:93926  .debug_str:0000000000015751 .LASF5819
     /tmp/cciiZT4Y.s:101772  .debug_str:0000000000035eef .LASF5820
     /tmp/cciiZT4Y.s:93188  .debug_str:00000000000127f9 .LASF5821
     /tmp/cciiZT4Y.s:106378  .debug_str:0000000000048c0a .LASF5822
     /tmp/cciiZT4Y.s:88820  .debug_str:0000000000000aef .LASF5823
     /tmp/cciiZT4Y.s:106158  .debug_str:0000000000047ddf .LASF5824
     /tmp/cciiZT4Y.s:102580  .debug_str:0000000000039055 .LASF5825
     /tmp/cciiZT4Y.s:93146  .debug_str:000000000001258f .LASF5826
     /tmp/cciiZT4Y.s:96836  .debug_str:0000000000021f13 .LASF5827
     /tmp/cciiZT4Y.s:97534  .debug_str:0000000000024d49 .LASF5828
     /tmp/cciiZT4Y.s:95502  .debug_str:000000000001c130 .LASF5829
     /tmp/cciiZT4Y.s:93228  .debug_str:0000000000012afc .LASF5830
     /tmp/cciiZT4Y.s:104272  .debug_str:000000000003fc33 .LASF5831
     /tmp/cciiZT4Y.s:102084  .debug_str:0000000000037395 .LASF5832
     /tmp/cciiZT4Y.s:107520  .debug_str:000000000004da08 .LASF5833
     /tmp/cciiZT4Y.s:88920  .debug_str:000000000000115b .LASF5834
     /tmp/cciiZT4Y.s:97720  .debug_str:0000000000025783 .LASF5835
     /tmp/cciiZT4Y.s:106388  .debug_str:0000000000048c8c .LASF5836
     /tmp/cciiZT4Y.s:94848  .debug_str:000000000001937e .LASF5837
     /tmp/cciiZT4Y.s:93880  .debug_str:0000000000015487 .LASF5838
     /tmp/cciiZT4Y.s:93052  .debug_str:0000000000011f63 .LASF5839
     /tmp/cciiZT4Y.s:107076  .debug_str:000000000004bb26 .LASF5840
     /tmp/cciiZT4Y.s:92882  .debug_str:000000000001149c .LASF5841
     /tmp/cciiZT4Y.s:99780  .debug_str:000000000002d8f3 .LASF5842
     /tmp/cciiZT4Y.s:93612  .debug_str:0000000000014432 .LASF5843
     /tmp/cciiZT4Y.s:92954  .debug_str:000000000001187c .LASF5844
     /tmp/cciiZT4Y.s:98020  .debug_str:000000000002684e .LASF5845
     /tmp/cciiZT4Y.s:92428  .debug_str:000000000000f9fe .LASF5846
     /tmp/cciiZT4Y.s:99042  .debug_str:000000000002abb0 .LASF5847
     /tmp/cciiZT4Y.s:92116  .debug_str:000000000000e8be .LASF5848
     /tmp/cciiZT4Y.s:96326  .debug_str:000000000001fae4 .LASF5849
     /tmp/cciiZT4Y.s:90234  .debug_str:0000000000006af9 .LASF5850
     /tmp/cciiZT4Y.s:89564  .debug_str:0000000000003d63 .LASF5851
     /tmp/cciiZT4Y.s:102442  .debug_str:0000000000038959 .LASF5852
     /tmp/cciiZT4Y.s:103088  .debug_str:000000000003ae32 .LASF5853
     /tmp/cciiZT4Y.s:98376  .debug_str:0000000000027fe9 .LASF5854
     /tmp/cciiZT4Y.s:104954  .debug_str:0000000000042e5c .LASF5855
     /tmp/cciiZT4Y.s:107706  .debug_str:000000000004e77d .LASF5856
     /tmp/cciiZT4Y.s:106598  .debug_str:0000000000049aaf .LASF5857
     /tmp/cciiZT4Y.s:104422  .debug_str:000000000004055c .LASF5858
     /tmp/cciiZT4Y.s:88910  .debug_str:00000000000010af .LASF5859
     /tmp/cciiZT4Y.s:102746  .debug_str:0000000000039892 .LASF5860
     /tmp/cciiZT4Y.s:97624  .debug_str:000000000002522c .LASF5861
     /tmp/cciiZT4Y.s:105412  .debug_str:0000000000044c9e .LASF5862
     /tmp/cciiZT4Y.s:99794  .debug_str:000000000002d9d8 .LASF5863
     /tmp/cciiZT4Y.s:88764  .debug_str:0000000000000712 .LASF5864
     /tmp/cciiZT4Y.s:101624  .debug_str:00000000000353be .LASF5865
     /tmp/cciiZT4Y.s:100642  .debug_str:00000000000311f2 .LASF5866
     /tmp/cciiZT4Y.s:103200  .debug_str:000000000003b67e .LASF5867
     /tmp/cciiZT4Y.s:88754  .debug_str:000000000000066e .LASF5868
     /tmp/cciiZT4Y.s:106738  .debug_str:000000000004a312 .LASF5869
     /tmp/cciiZT4Y.s:101112  .debug_str:00000000000330e9 .LASF5870
     /tmp/cciiZT4Y.s:103280  .debug_str:000000000003bb53 .LASF5871
     /tmp/cciiZT4Y.s:104500  .debug_str:0000000000040c4f .LASF5872
     /tmp/cciiZT4Y.s:100386  .debug_str:0000000000030148 .LASF5873
     /tmp/cciiZT4Y.s:106512  .debug_str:00000000000494c3 .LASF5874
     /tmp/cciiZT4Y.s:107582  .debug_str:000000000004df0a .LASF5875
     /tmp/cciiZT4Y.s:98714  .debug_str:000000000002964a .LASF5876
     /tmp/cciiZT4Y.s:93480  .debug_str:0000000000013c22 .LASF5878
     /tmp/cciiZT4Y.s:103588  .debug_str:000000000003cfba .LASF5879
     /tmp/cciiZT4Y.s:104566  .debug_str:000000000004119d .LASF5880
     /tmp/cciiZT4Y.s:106906  .debug_str:000000000004af5d .LASF5881
     /tmp/cciiZT4Y.s:105192  .debug_str:0000000000043e5b .LASF5882
     /tmp/cciiZT4Y.s:102144  .debug_str:00000000000376a5 .LASF5883
     /tmp/cciiZT4Y.s:100296  .debug_str:000000000002fb98 .LASF5884
     /tmp/cciiZT4Y.s:97428  .debug_str:00000000000246c4 .LASF5885
     /tmp/cciiZT4Y.s:89088  .debug_str:0000000000001dae .LASF5886
     /tmp/cciiZT4Y.s:92824  .debug_str:0000000000011078 .LASF5887
     /tmp/cciiZT4Y.s:96506  .debug_str:0000000000020911 .LASF5888
     /tmp/cciiZT4Y.s:98666  .debug_str:0000000000029426 .LASF5889
     /tmp/cciiZT4Y.s:105378  .debug_str:0000000000044a4c .LASF5890
     /tmp/cciiZT4Y.s:100582  .debug_str:0000000000030e5c .LASF5891
     /tmp/cciiZT4Y.s:105598  .debug_str:0000000000045901 .LASF5892
     /tmp/cciiZT4Y.s:104124  .debug_str:000000000003f2c6 .LASF5893
     /tmp/cciiZT4Y.s:107384  .debug_str:000000000004d065 .LASF5894
     /tmp/cciiZT4Y.s:107304  .debug_str:000000000004cab6 .LASF5895
     /tmp/cciiZT4Y.s:103778  .debug_str:000000000003dcd0 .LASF5896
     /tmp/cciiZT4Y.s:95762  .debug_str:000000000001d348 .LASF5897
     /tmp/cciiZT4Y.s:89212  .debug_str:000000000000268d .LASF5898
     /tmp/cciiZT4Y.s:90836  .debug_str:0000000000009432 .LASF5900
     /tmp/cciiZT4Y.s:100698  .debug_str:0000000000031533 .LASF5901
     /tmp/cciiZT4Y.s:95152  .debug_str:000000000001a902 .LASF5902
     /tmp/cciiZT4Y.s:98438  .debug_str:00000000000283a4 .LASF5903
     /tmp/cciiZT4Y.s:103240  .debug_str:000000000003b893 .LASF5904
     /tmp/cciiZT4Y.s:100554  .debug_str:0000000000030c9c .LASF5905
     /tmp/cciiZT4Y.s:95722  .debug_str:000000000001d0dd .LASF5906
     /tmp/cciiZT4Y.s:89526  .debug_str:0000000000003afb .LASF5907
     /tmp/cciiZT4Y.s:93702  .debug_str:00000000000149fc .LASF5908
     /tmp/cciiZT4Y.s:96700  .debug_str:0000000000021506 .LASF5909
     /tmp/cciiZT4Y.s:104156  .debug_str:000000000003f4c2 .LASF5910
     /tmp/cciiZT4Y.s:103628  .debug_str:000000000003d207 .LASF5911
     /tmp/cciiZT4Y.s:93840  .debug_str:00000000000151d9 .LASF5912
     /tmp/cciiZT4Y.s:106528  .debug_str:0000000000049559 .LASF5913
     /tmp/cciiZT4Y.s:107932  .debug_str:000000000004f641 .LASF5914
     /tmp/cciiZT4Y.s:101072  .debug_str:0000000000032eb7 .LASF5915
     /tmp/cciiZT4Y.s:98906  .debug_str:000000000002a30a .LASF5916
     /tmp/cciiZT4Y.s:106536  .debug_str:00000000000495f9 .LASF5917
     /tmp/cciiZT4Y.s:92166  .debug_str:000000000000ebc2 .LASF5918
     /tmp/cciiZT4Y.s:105202  .debug_str:0000000000043eda .LASF5919
     /tmp/cciiZT4Y.s:89276  .debug_str:0000000000002ad7 .LASF5920
     /tmp/cciiZT4Y.s:91202  .debug_str:000000000000ac5d .LASF5921
     /tmp/cciiZT4Y.s:107886  .debug_str:000000000004f2fc .LASF5922
     /tmp/cciiZT4Y.s:107490  .debug_str:000000000004d753 .LASF5923
     /tmp/cciiZT4Y.s:102528  .debug_str:0000000000038e1d .LASF5925
     /tmp/cciiZT4Y.s:97128  .debug_str:0000000000023151 .LASF5926
     /tmp/cciiZT4Y.s:102108  .debug_str:0000000000037500 .LASF5927
     /tmp/cciiZT4Y.s:95094  .debug_str:000000000001a4ff .LASF5928
     /tmp/cciiZT4Y.s:90358  .debug_str:0000000000007487 .LASF5929
     /tmp/cciiZT4Y.s:97078  .debug_str:0000000000022e58 .LASF5930
     /tmp/cciiZT4Y.s:102068  .debug_str:0000000000037254 .LASF5931
     /tmp/cciiZT4Y.s:106148  .debug_str:0000000000047d2b .LASF5932
     /tmp/cciiZT4Y.s:93258  .debug_str:0000000000012d1b .LASF5933
     /tmp/cciiZT4Y.s:102496  .debug_str:0000000000038c17 .LASF5934
     /tmp/cciiZT4Y.s:97000  .debug_str:0000000000022912 .LASF5935
     /tmp/cciiZT4Y.s:93446  .debug_str:0000000000013a22 .LASF5936
     /tmp/cciiZT4Y.s:89946  .debug_str:0000000000005762 .LASF5937
     /tmp/cciiZT4Y.s:106662  .debug_str:0000000000049eba .LASF5938
     /tmp/cciiZT4Y.s:90124  .debug_str:0000000000006347 .LASF5939
     /tmp/cciiZT4Y.s:100064  .debug_str:000000000002ec47 .LASF5940
     /tmp/cciiZT4Y.s:93598  .debug_str:0000000000014338 .LASF5941
     /tmp/cciiZT4Y.s:92336  .debug_str:000000000000f428 .LASF5942
     /tmp/cciiZT4Y.s:105152  .debug_str:0000000000043bae .LASF5943
     /tmp/cciiZT4Y.s:101492  .debug_str:0000000000034a2a .LASF5945
     /tmp/cciiZT4Y.s:91268  .debug_str:000000000000b171 .LASF5946
     /tmp/cciiZT4Y.s:104366  .debug_str:00000000000401d9 .LASF5947
     /tmp/cciiZT4Y.s:89400  .debug_str:00000000000032c0 .LASF5948
     /tmp/cciiZT4Y.s:102758  .debug_str:0000000000039958 .LASF5949
     /tmp/cciiZT4Y.s:95216  .debug_str:000000000001adc6 .LASF5950
     /tmp/cciiZT4Y.s:95124  .debug_str:000000000001a6fa .LASF5951
     /tmp/cciiZT4Y.s:105876  .debug_str:0000000000046a63 .LASF5952
     /tmp/cciiZT4Y.s:97706  .debug_str:0000000000025678 .LASF5953
     /tmp/cciiZT4Y.s:89744  .debug_str:0000000000004ab7 .LASF5954
     /tmp/cciiZT4Y.s:94022  .debug_str:0000000000015df7 .LASF5955
     /tmp/cciiZT4Y.s:104430  .debug_str:00000000000405ef .LASF5956
     /tmp/cciiZT4Y.s:96638  .debug_str:00000000000210e6 .LASF5957
     /tmp/cciiZT4Y.s:93216  .debug_str:0000000000012a16 .LASF5958
     /tmp/cciiZT4Y.s:89878  .debug_str:0000000000005309 .LASF5959
     /tmp/cciiZT4Y.s:93112  .debug_str:00000000000123bd .LASF5960
     /tmp/cciiZT4Y.s:101086  .debug_str:0000000000032f95 .LASF5961
     /tmp/cciiZT4Y.s:94570  .debug_str:00000000000181da .LASF5962
     /tmp/cciiZT4Y.s:93712  .debug_str:0000000000014a9b .LASF5963
     /tmp/cciiZT4Y.s:94752  .debug_str:0000000000018cc0 .LASF5964
     /tmp/cciiZT4Y.s:104222  .debug_str:000000000003f93c .LASF5965
     /tmp/cciiZT4Y.s:105570  .debug_str:000000000004573f .LASF5966
     /tmp/cciiZT4Y.s:91104  .debug_str:000000000000a606 .LASF5967
     /tmp/cciiZT4Y.s:92432  .debug_str:000000000000fa57 .LASF5968
     /tmp/cciiZT4Y.s:98338  .debug_str:0000000000027da4 .LASF5969
     /tmp/cciiZT4Y.s:96864  .debug_str:000000000002204e .LASF5970
     /tmp/cciiZT4Y.s:105228  .debug_str:0000000000044072 .LASF5971
     /tmp/cciiZT4Y.s:105346  .debug_str:00000000000447c9 .LASF5972
     /tmp/cciiZT4Y.s:99916  .debug_str:000000000002e200 .LASF5973
     /tmp/cciiZT4Y.s:106644  .debug_str:0000000000049d4e .LASF5974
     /tmp/cciiZT4Y.s:94396  .debug_str:0000000000017673 .LASF5975
     /tmp/cciiZT4Y.s:92424  .debug_str:000000000000f9b5 .LASF5976
     /tmp/cciiZT4Y.s:96612  .debug_str:0000000000020f15 .LASF5977
     /tmp/cciiZT4Y.s:101378  .debug_str:00000000000342c4 .LASF5978
     /tmp/cciiZT4Y.s:99130  .debug_str:000000000002b195 .LASF5979
     /tmp/cciiZT4Y.s:92560  .debug_str:00000000000102b7 .LASF5980
     /tmp/cciiZT4Y.s:89796  .debug_str:0000000000004e5e .LASF5981
     /tmp/cciiZT4Y.s:103880  .debug_str:000000000003e3d0 .LASF5982
     /tmp/cciiZT4Y.s:92544  .debug_str:000000000001019d .LASF5983
     /tmp/cciiZT4Y.s:90288  .debug_str:0000000000006f4a .LASF5984
     /tmp/cciiZT4Y.s:100376  .debug_str:00000000000300bf .LASF5985
     /tmp/cciiZT4Y.s:94952  .debug_str:0000000000019af3 .LASF5986
     /tmp/cciiZT4Y.s:91820  .debug_str:000000000000d7f1 .LASF5987
     /tmp/cciiZT4Y.s:89256  .debug_str:0000000000002942 .LASF5988
     /tmp/cciiZT4Y.s:94064  .debug_str:0000000000016001 .LASF5989
     /tmp/cciiZT4Y.s:104734  .debug_str:0000000000041f5b .LASF5990
     /tmp/cciiZT4Y.s:106238  .debug_str:00000000000482f1 .LASF5991
     /tmp/cciiZT4Y.s:100086  .debug_str:000000000002ed8f .LASF5992
     /tmp/cciiZT4Y.s:89108  .debug_str:0000000000001f49 .LASF5993
     /tmp/cciiZT4Y.s:98094  .debug_str:0000000000026da3 .LASF5994
     /tmp/cciiZT4Y.s:100650  .debug_str:0000000000031262 .LASF5995
     /tmp/cciiZT4Y.s:91514  .debug_str:000000000000c2d9 .LASF5996
     /tmp/cciiZT4Y.s:93904  .debug_str:00000000000155f7 .LASF5997
     /tmp/cciiZT4Y.s:99392  .debug_str:000000000002c229 .LASF5998
     /tmp/cciiZT4Y.s:104166  .debug_str:000000000003f557 .LASF5999
     /tmp/cciiZT4Y.s:95978  .debug_str:000000000001e2b6 .LASF6000
     /tmp/cciiZT4Y.s:101256  .debug_str:0000000000033ade .LASF6001
     /tmp/cciiZT4Y.s:97178  .debug_str:00000000000234db .LASF6002
     /tmp/cciiZT4Y.s:91006  .debug_str:0000000000009f72 .LASF6003
     /tmp/cciiZT4Y.s:93400  .debug_str:0000000000013771 .LASF6004
     /tmp/cciiZT4Y.s:92502  .debug_str:000000000000fef8 .LASF6005
     /tmp/cciiZT4Y.s:104610  .debug_str:00000000000414a2 .LASF6006
     /tmp/cciiZT4Y.s:95618  .debug_str:000000000001c9b6 .LASF6007
     /tmp/cciiZT4Y.s:99928  .debug_str:000000000002e2d4 .LASF6008
     /tmp/cciiZT4Y.s:103276  .debug_str:000000000003baea .LASF6009
     /tmp/cciiZT4Y.s:106630  .debug_str:0000000000049c67 .LASF6010
     /tmp/cciiZT4Y.s:96172  .debug_str:000000000001ef82 .LASF6011
     /tmp/cciiZT4Y.s:94290  .debug_str:0000000000016f22 .LASF6012
     /tmp/cciiZT4Y.s:105924  .debug_str:0000000000046e21 .LASF6013
     /tmp/cciiZT4Y.s:104032  .debug_str:000000000003ed07 .LASF6014
     /tmp/cciiZT4Y.s:94878  .debug_str:0000000000019609 .LASF6015
     /tmp/cciiZT4Y.s:91778  .debug_str:000000000000d53e .LASF6016
     /tmp/cciiZT4Y.s:97292  .debug_str:0000000000023cf6 .LASF6017
     /tmp/cciiZT4Y.s:91156  .debug_str:000000000000a98b .LASF6018
     /tmp/cciiZT4Y.s:99528  .debug_str:000000000002c94f .LASF6019
     /tmp/cciiZT4Y.s:90898  .debug_str:000000000000981c .LASF6020
     /tmp/cciiZT4Y.s:93960  .debug_str:0000000000015991 .LASF6021
     /tmp/cciiZT4Y.s:99622  .debug_str:000000000002cf65 .LASF6022
     /tmp/cciiZT4Y.s:90152  .debug_str:0000000000006548 .LASF6023
     /tmp/cciiZT4Y.s:100104  .debug_str:000000000002eecc .LASF6024
     /tmp/cciiZT4Y.s:105426  .debug_str:0000000000044d76 .LASF6025
     /tmp/cciiZT4Y.s:91204  .debug_str:000000000000acc8 .LASF6026
     /tmp/cciiZT4Y.s:90178  .debug_str:0000000000006713 .LASF6027
     /tmp/cciiZT4Y.s:91506  .debug_str:000000000000c240 .LASF6028
     /tmp/cciiZT4Y.s:91842  .debug_str:000000000000d960 .LASF6029
     /tmp/cciiZT4Y.s:103762  .debug_str:000000000003db79 .LASF6030
     /tmp/cciiZT4Y.s:89648  .debug_str:00000000000043d1 .LASF6031
     /tmp/cciiZT4Y.s:102924  .debug_str:000000000003a347 .LASF6032
     /tmp/cciiZT4Y.s:105572  .debug_str:0000000000045752 .LASF6033
     /tmp/cciiZT4Y.s:98686  .debug_str:0000000000029549 .LASF6034
     /tmp/cciiZT4Y.s:102996  .debug_str:000000000003a7bb .LASF6035
     /tmp/cciiZT4Y.s:97648  .debug_str:000000000002538d .LASF6036
     /tmp/cciiZT4Y.s:92960  .debug_str:0000000000011924 .LASF6037
     /tmp/cciiZT4Y.s:99030  .debug_str:000000000002aad8 .LASF6038
     /tmp/cciiZT4Y.s:104926  .debug_str:0000000000042c67 .LASF6039
     /tmp/cciiZT4Y.s:91402  .debug_str:000000000000bb31 .LASF6040
     /tmp/cciiZT4Y.s:90716  .debug_str:0000000000008c1f .LASF6041
     /tmp/cciiZT4Y.s:98678  .debug_str:00000000000294e3 .LASF6042
     /tmp/cciiZT4Y.s:99348  .debug_str:000000000002bf26 .LASF6043
     /tmp/cciiZT4Y.s:92412  .debug_str:000000000000f8d7 .LASF6044
     /tmp/cciiZT4Y.s:104440  .debug_str:0000000000040695 .LASF6045
     /tmp/cciiZT4Y.s:99912  .debug_str:000000000002e1ad .LASF6046
                           .group:0000000000000000 wm4.0.2cde0bba310258ac5fb120644dc52a54
                           .group:0000000000000000 wm4._newlib_version.h.4.9ba035841e762c3308916a0ce96032e7
                           .group:0000000000000000 wm4.features.h.33.318b64d71e0957639cfb30f1db1f7ec8
                           .group:0000000000000000 wm4._default_types.h.15.61e9869194cab90bdfa4c7fc42203a0e
                           .group:0000000000000000 wm4._intsup.h.10.b28b45fc63caeb010c3f7ee592257700
                           .group:0000000000000000 wm4._stdint.h.10.c24fa3af3bc1706662bb5593a907e841
                           .group:0000000000000000 wm4.stdint.h.23.d53047a68f4a85177f80b422d52785ed
                           .group:0000000000000000 wm4.newlib.h.8.19af3a34a60c4846725bb1239b4fa5a2
                           .group:0000000000000000 wm4.ieeefp.h.195.a810689bf65b84f4ad2c33b483468c94
                           .group:0000000000000000 wm4.config.h.83.0359905d884ebfe41c79e1d7c780ef62
                           .group:0000000000000000 wm4._ansi.h.31.de524f58584151836e90d8620a16f8e8
                           .group:0000000000000000 wm4.stdio.h.31.7c0e28c411445f3f9c5b11accf882760
                           .group:0000000000000000 wm4.stddef.h.187.2ff233552538c6ff9b8575ca8ea52cb3
                           .group:0000000000000000 wm4.cdefs.h.49.6260d97adb8d27534cbdc0f868b8ea87
                           .group:0000000000000000 wm4.stddef.h.39.ec95e8feac892e292b69dc7ae75b0d64
                           .group:0000000000000000 wm4.stdarg.h.34.3a23a216c0c293b3d2ea2e89281481e6
                           .group:0000000000000000 wm4._types.h.20.dd0d04dca3800a0d2a6129b87f3adbb2
                           .group:0000000000000000 wm4.stddef.h.161.5349cb105733e8777bfb0cf53c4e3f34
                           .group:0000000000000000 wm4._types.h.127.c5cfac939eadb83d223592dbacad7524
                           .group:0000000000000000 wm4.reent.h.17.487f8c1f76499d088b190f62530a0034
                           .group:0000000000000000 wm4.lock.h.2.c0958401bd0ce484d507ee19aacab817
                           .group:0000000000000000 wm4.reent.h.77.1187f1075ff88452c642b29ed9a9030d
                           .group:0000000000000000 wm4.types.h.40.8b6acba56cefbb11746718204edc8f5e
                           .group:0000000000000000 wm4._endian.h.18.1bf9649e8e5bbc91042012680270b9ed
                           .group:0000000000000000 wm4.endian.h.9.49f3a4695c1b61e8a0808de3c4a106cb
                           .group:0000000000000000 wm4._timeval.h.30.0e8bfd94e85db17dda3286ee81496fe6
                           .group:0000000000000000 wm4.timespec.h.41.d855182eb0e690443ab8651bcedca6e1
                           .group:0000000000000000 wm4.select.h.19.97ca6fd0c752a0f3b6719fd314d361e6
                           .group:0000000000000000 wm4.types.h.51.5571ec98f267d17d3c670b7a3ba33afa
                           .group:0000000000000000 wm4.sched.h.22.c60982713a5c428609783c78f9c78d95
                           .group:0000000000000000 wm4._pthreadtypes.h.36.fcee9961c35163dde6267ef772ad1972
                           .group:0000000000000000 wm4.stdio.h.2.4aa87247282eca6c8f36f9de33d8df1a
                           .group:0000000000000000 wm4.stdio.h.81.60a2ded7dae310b81f9d6907fe5e3dbf
                           .group:0000000000000000 wm4.stdarg.h.31.3fa7b8f6daaa31edd1696c08c77f2a73
                           .group:0000000000000000 wm4.stdbool.h.29.07dce69c3b78884144b7f7bd19483461
                           .group:0000000000000000 wm4.stdlib.h.13.4ed386f5c1a80d71e72172885d946ef2
                           .group:0000000000000000 wm4.stddef.h.161.19e15733342b50ead2919490b095303e
                           .group:0000000000000000 wm4.alloca.h.8.dfc0c703c47ec3e69746825b17d9e66d
                           .group:0000000000000000 wm4.stdlib.h.56.f4862cfbf4363a1db01842d5bdf72c18
                           .group:0000000000000000 wm4.string.h.8.c4b8571ce60dff2817f43fec8b86aecd
                           .group:0000000000000000 wm4.mss_assert.h.10.09559128d1f6dbd833ab24347e71c76c
                           .group:0000000000000000 wm4.mss_legacy_defines.h.20.594d5f03b0f5314e3b2e801d98173479
                           .group:0000000000000000 wm4.mss_ddr_defs.h.18.58f9a87b5146acaefd5d9382d54140ba
                           .group:0000000000000000 wm4.mss_sysreg.h.19.614456a035a0cca3fd9d4348b0740228
                           .group:0000000000000000 wm4.mss_ddr_sgmii_regs.h.5543.4c565db9c25f7d4b45bd9b264c475c73
                           .group:0000000000000000 wm4.mss_io_config.h.18.b70207dea5a59bac7da73ad6eee375d0
                           .group:0000000000000000 wm4.mss_pll.h.192.d6d9146a5a36ce9e7f6a5ae2e7816970
                           .group:0000000000000000 wm4.mss_scb_nwc_regs.h.19.92192026ece1a0bf26c7a7af9a56e40a
                           .group:0000000000000000 wm4.mss_sw_config.h.37.2f79a8233593e640cb9660b9e2020907
                           .group:0000000000000000 wm4.atomic.h.33.7c17fdf64e267483cec1d3aead0473f4
                           .group:0000000000000000 wm4.bits.h.32.2ced66ae3bdb7651edf1ccfb67de7b38
                           .group:0000000000000000 wm4.encoding.h.34.68f898bac6356b153788044b6c29d177
                           .group:0000000000000000 wm4.fpga_design_config.h.28.572b3893a09debe9cb72c1441369aee0
                           .group:0000000000000000 wm4.hw_memory.h.28.20599cf485f90ffaa97f313798a86238
                           .group:0000000000000000 wm4.hw_apb_split.h.28.a2537f445f7a8784a4f064a3a60be381
                           .group:0000000000000000 wm4.hw_cache.h.28.aa59d0803f1283c480a862ba52ff4d4f
                           .group:0000000000000000 wm4.hw_pmp_hart0.h.28.354eeff78ff2eb91d2783e01dbe4e5a4
                           .group:0000000000000000 wm4.hw_pmp_hart1.h.28.0ab9e64d9d5e4b3cdd2ef9fae2ec18f2
                           .group:0000000000000000 wm4.hw_pmp_hart2.h.28.361fe83e7fd64067a0988f3e9bcd6e5d
                           .group:0000000000000000 wm4.hw_pmp_hart3.h.28.8c3eca8078d58a4979d23ae7fc3ceb35
                           .group:0000000000000000 wm4.hw_pmp_hart4.h.28.f8bf6b50f09effab3f4dfc16a44d5d0e
                           .group:0000000000000000 wm4.hw_mpu_fic0.h.28.3a719367ee0b56c20c7541cca5239296
                           .group:0000000000000000 wm4.hw_mpu_fic1.h.28.35d3b72b131707dc62529924d8a0d281
                           .group:0000000000000000 wm4.hw_mpu_fic2.h.28.88b1cd488fc04fd09199876067a670cb
                           .group:0000000000000000 wm4.hw_mpu_crypto.h.28.45628d14bd81b7ae15853711bd55f118
                           .group:0000000000000000 wm4.hw_mpu_gem0.h.28.e88b73a77e588162ac08b038acfe3e30
                           .group:0000000000000000 wm4.hw_mpu_gem1.h.28.dadc3a640dcfb61a8f24791560fa3605
                           .group:0000000000000000 wm4.hw_mpu_usb.h.28.0b0c25c65da87670d72dffa8e9b51ad6
                           .group:0000000000000000 wm4.hw_mpu_mmc.h.28.a5df85f7a87dfaafd939c0c9743b44a9
                           .group:0000000000000000 wm4.hw_mpu_scb.h.28.2b778d620a29a13b1a33733b3fefaf3e
                           .group:0000000000000000 wm4.hw_mpu_trace.h.28.dbb150e27983d45d78ea646dfe7486fe
                           .group:0000000000000000 wm4.hw_mssio_mux.h.28.b18396e0f5e6c83835b3b8e1dfadc1b4
                           .group:0000000000000000 wm4.hw_hsio_mux.h.28.924a66a0f83f27c24767fbfdaffeb21f
                           .group:0000000000000000 wm4.hw_sgmii_tip.h.28.c2c656c87ab558ebf9f510f55b530997
                           .group:0000000000000000 wm4.hw_ddr_options.h.28.583107ebf3250a7e99a4e34ca34040f9
                           .group:0000000000000000 wm4.hw_ddr_io_bank.h.28.09e373f4be71534c2b0bf629a50788a8
                           .group:0000000000000000 wm4.hw_ddr_mode.h.28.3ecff7868bb6c2027433e8aaf3a6e9d0
                           .group:0000000000000000 wm4.hw_ddr_off_mode.h.28.c8f0d4bcf68d083d8ff0335e558930e9
                           .group:0000000000000000 wm4.hw_ddr_segs.h.28.93c530a254cc8a9c015d0bae044125b2
                           .group:0000000000000000 wm4.hw_ddrc.h.28.d858943fbdd3e7761d52c974b21ea425
                           .group:0000000000000000 wm4.hw_mss_clks.h.28.53b1f012440894624f35e610477ed6d8
                           .group:0000000000000000 wm4.hw_clk_sysreg.h.28.adf2eb2b08eeb2ee56f6129328388395
                           .group:0000000000000000 wm4.hw_clk_mss_pll.h.28.f255323a7f4276a824501e07bd0f464a
                           .group:0000000000000000 wm4.hw_clk_sgmii_pll.h.28.b1aefe04f9cda949aee4586f0025e039
                           .group:0000000000000000 wm4.hw_clk_ddr_pll.h.28.8f0ed359dbfb59ae6f0aa1f29002d60d
                           .group:0000000000000000 wm4.hw_clk_mss_cfm.h.28.365f11189fcbf1e2f08db25b2ea1557a
                           .group:0000000000000000 wm4.hw_clk_sgmii_cfm.h.28.f59fda78ad3b4981ccbc9fbc0d90ca0a
                           .group:0000000000000000 wm4.hw_gen_peripherals.h.28.67a363af3ea61147ac365f904e7b6183
                           .group:0000000000000000 wm4.mss_ddr.h.335.a7fe38050b0f6ce3ee0df6f9cb324a9e
                           .group:0000000000000000 wm4.mss_clint.h.28.3d2c636f4c8175d64797a2e961db02ff
                           .group:0000000000000000 wm4.mss_h2f.h.21.7086260854010c63b41a469cd9f7486d
                           .group:0000000000000000 wm4.mss_hart_ints.h.20.df914e6570bee6a0a5e5635d9329f21b
                           .group:0000000000000000 wm4.mss_mpu.h.20.dd1fa2a8702d0e819fbbb263dc6428d1
                           .group:0000000000000000 wm4.mss_pmp.h.19.8f83d750289fe5e95625891444a65774
                           .group:0000000000000000 wm4.mss_plic.h.38.63bddd8b7aeec5445a0ab9c829719734
                           .group:0000000000000000 wm4.mss_seg.h.38.d7fedb2c993ff2eb58c3c1c5f57af66f
                           .group:0000000000000000 wm4.mss_util.h.31.57922375d48cf596b0783b975bb89aba
                           .group:0000000000000000 wm4.mss_mtrap.h.32.75bfcc4d9a15120a34cb2ee456cde55a
                           .group:0000000000000000 wm4.mss_l2_cache.h.430.934410ee5d62996f3b8869a34907e316
                           .group:0000000000000000 wm4.mss_axiswitch.h.110.fc13072c0144cbd8e516d1d4f8c599b2
                           .group:0000000000000000 wm4.mss_peripherals.h.19.9837bc1f8d1c62dfd266b4590a8830b2
                           .group:0000000000000000 wm4.mss_cfm.h.20.474baf099ef6f60b14912c934c5e47c6
                           .group:0000000000000000 wm4.mss_sgmii.h.18.7850ab5b5e05dabb42db8143f362bae8
                           .group:0000000000000000 wm4.system_startup.h.17.372727b49fdab2e286123d13f6b6542a
                           .group:0000000000000000 wm4.mss_ddr_debug.h.40.79a83a45aea2f09f97e5663e254e5e65

NO UNDEFINED SYMBOLS
