   1              		.file	"mss_pll.c"
   2              		.option nopic
   3              		.attribute arch, "rv64i2p0_m2p0_a2p0_f2p0_d2p0_c2p0"
   4              		.attribute unaligned_access, 0
   5              		.attribute stack_align, 16
   6              		.text
   7              	.Ltext0:
   8              		.cfi_sections	.debug_frame
   9              		.globl	MSS_SCB_MSS_PLL
  10              		.section	.sdata2.MSS_SCB_MSS_PLL,"a"
  11              		.align	3
  14              	MSS_SCB_MSS_PLL:
  15 0000 0010003E 		.dword	1040191488
  15      00000000 
  16              		.globl	MSS_SCB_DDR_PLL
  17              		.section	.sdata2.MSS_SCB_DDR_PLL,"a"
  18              		.align	3
  21              	MSS_SCB_DDR_PLL:
  22 0000 0000013E 		.dword	1040252928
  22      00000000 
  23              		.globl	MSS_SCB_SGMII_PLL
  24              		.section	.sdata2.MSS_SCB_SGMII_PLL,"a"
  25              		.align	3
  28              	MSS_SCB_SGMII_PLL:
  29 0000 0000083E 		.dword	1040711680
  29      00000000 
  30              		.globl	MSS_SCB_CFM_MSS_MUX
  31              		.section	.sdata2.MSS_SCB_CFM_MSS_MUX,"a"
  32              		.align	3
  35              	MSS_SCB_CFM_MSS_MUX:
  36 0000 0020003E 		.dword	1040195584
  36      00000000 
  37              		.globl	MSS_SCB_CFM_SGMII_MUX
  38              		.section	.sdata2.MSS_SCB_CFM_SGMII_MUX,"a"
  39              		.align	3
  42              	MSS_SCB_CFM_SGMII_MUX:
  43 0000 0000203E 		.dword	1042284544
  43      00000000 
  44              		.globl	IOSCB_IO_CALIB_SGMII
  45              		.section	.sdata2.IOSCB_IO_CALIB_SGMII,"a"
  46              		.align	3
  49              	IOSCB_IO_CALIB_SGMII:
  50 0000 0000803E 		.dword	1048576000
  50      00000000 
  51              		.globl	IOSCB_IO_CALIB_DDR
  52              		.section	.sdata2.IOSCB_IO_CALIB_DDR,"a"
  53              		.align	3
  56              	IOSCB_IO_CALIB_DDR:
  57 0000 0000043E 		.dword	1040449536
  57      00000000 
  58              		.section	.text.set_RTC_divisor,"ax",@progbits
  59              		.align	1
  60              		.globl	set_RTC_divisor
  62              	set_RTC_divisor:
  63              	.LFB19:
  64              		.file 1 "../src/platform/mpfs_hal/common/nwc/mss_pll.c"
   1:../src/platform/mpfs_hal/common/nwc/mss_pll.c **** /*******************************************************************************
   2:../src/platform/mpfs_hal/common/nwc/mss_pll.c ****  * Copyright 2019-2022 Microchip FPGA Embedded Systems Solutions.
   3:../src/platform/mpfs_hal/common/nwc/mss_pll.c ****  *
   4:../src/platform/mpfs_hal/common/nwc/mss_pll.c ****  * SPDX-License-Identifier: MIT
   5:../src/platform/mpfs_hal/common/nwc/mss_pll.c ****  *
   6:../src/platform/mpfs_hal/common/nwc/mss_pll.c ****  * MPFS HAL Embedded Software
   7:../src/platform/mpfs_hal/common/nwc/mss_pll.c ****  *
   8:../src/platform/mpfs_hal/common/nwc/mss_pll.c ****  */
   9:../src/platform/mpfs_hal/common/nwc/mss_pll.c **** 
  10:../src/platform/mpfs_hal/common/nwc/mss_pll.c **** /*******************************************************************************
  11:../src/platform/mpfs_hal/common/nwc/mss_pll.c ****  * @file mss_pll.c
  12:../src/platform/mpfs_hal/common/nwc/mss_pll.c ****  * @author Microchip-FPGA Embedded Systems Solutions
  13:../src/platform/mpfs_hal/common/nwc/mss_pll.c ****  * @brief MPSS PLL setup
  14:../src/platform/mpfs_hal/common/nwc/mss_pll.c ****  *
  15:../src/platform/mpfs_hal/common/nwc/mss_pll.c ****  */
  16:../src/platform/mpfs_hal/common/nwc/mss_pll.c **** 
  17:../src/platform/mpfs_hal/common/nwc/mss_pll.c **** #include "mpfs_hal/mss_hal.h"
  18:../src/platform/mpfs_hal/common/nwc/mss_pll.c **** #include "mss_pll.h"
  19:../src/platform/mpfs_hal/common/nwc/mss_pll.c **** 
  20:../src/platform/mpfs_hal/common/nwc/mss_pll.c **** /**
  21:../src/platform/mpfs_hal/common/nwc/mss_pll.c ****  * We do it this way to avoid multiple LDRA warnings
  22:../src/platform/mpfs_hal/common/nwc/mss_pll.c ****  * alternate it to
  23:../src/platform/mpfs_hal/common/nwc/mss_pll.c ****  * #define MSS_SCB_MSS_PLL      (IOSCB_CFM_MSS *) )x7xxxxxxx    The actual
  24:../src/platform/mpfs_hal/common/nwc/mss_pll.c ****  * address * but above results in error every time we use the function
  25:../src/platform/mpfs_hal/common/nwc/mss_pll.c ****  */
  26:../src/platform/mpfs_hal/common/nwc/mss_pll.c **** 
  27:../src/platform/mpfs_hal/common/nwc/mss_pll.c **** PLL_TypeDef * const MSS_SCB_MSS_PLL = ((PLL_TypeDef *) MSS_SCB_MSS_PLL_BASE);
  28:../src/platform/mpfs_hal/common/nwc/mss_pll.c **** PLL_TypeDef * const MSS_SCB_DDR_PLL = ((PLL_TypeDef *) MSS_SCB_DDR_PLL_BASE);
  29:../src/platform/mpfs_hal/common/nwc/mss_pll.c **** PLL_TypeDef * const MSS_SCB_SGMII_PLL = ((PLL_TypeDef *) MSS_SCB_SGMII_PLL_BASE);
  30:../src/platform/mpfs_hal/common/nwc/mss_pll.c **** IOSCB_CFM_MSS * const MSS_SCB_CFM_MSS_MUX          =\
  31:../src/platform/mpfs_hal/common/nwc/mss_pll.c ****         ((IOSCB_CFM_MSS *) MSS_SCB_MSS_MUX_BASE);
  32:../src/platform/mpfs_hal/common/nwc/mss_pll.c **** IOSCB_CFM_SGMII * const MSS_SCB_CFM_SGMII_MUX =\
  33:../src/platform/mpfs_hal/common/nwc/mss_pll.c ****         ((IOSCB_CFM_SGMII *) MSS_SCB_SGMII_MUX_BASE);
  34:../src/platform/mpfs_hal/common/nwc/mss_pll.c **** IOSCB_IO_CALIB_STRUCT * const IOSCB_IO_CALIB_SGMII =\
  35:../src/platform/mpfs_hal/common/nwc/mss_pll.c ****         (IOSCB_IO_CALIB_STRUCT *)IOSCB_IO_CALIB_SGMII_BASE;
  36:../src/platform/mpfs_hal/common/nwc/mss_pll.c **** IOSCB_IO_CALIB_STRUCT * const IOSCB_IO_CALIB_DDR   =\
  37:../src/platform/mpfs_hal/common/nwc/mss_pll.c ****         (IOSCB_IO_CALIB_STRUCT *)IOSCB_IO_CALIB_DDR_BASE;
  38:../src/platform/mpfs_hal/common/nwc/mss_pll.c **** 
  39:../src/platform/mpfs_hal/common/nwc/mss_pll.c **** 
  40:../src/platform/mpfs_hal/common/nwc/mss_pll.c **** /*******************************************************************************-
  41:../src/platform/mpfs_hal/common/nwc/mss_pll.c ****  * Symbols from the linker script used to locate the text, data and bss
  42:../src/platform/mpfs_hal/common/nwc/mss_pll.c ****  * sections.
  43:../src/platform/mpfs_hal/common/nwc/mss_pll.c ****  ******************************************************************************/
  44:../src/platform/mpfs_hal/common/nwc/mss_pll.c **** #ifndef  MPFS_HAL_HW_CONFIG
  45:../src/platform/mpfs_hal/common/nwc/mss_pll.c **** uint32_t __sc_load;
  46:../src/platform/mpfs_hal/common/nwc/mss_pll.c **** uint32_t __sc_start;
  47:../src/platform/mpfs_hal/common/nwc/mss_pll.c **** uint32_t __sc_end;
  48:../src/platform/mpfs_hal/common/nwc/mss_pll.c **** #else
  49:../src/platform/mpfs_hal/common/nwc/mss_pll.c **** extern uint32_t __sc_load;
  50:../src/platform/mpfs_hal/common/nwc/mss_pll.c **** extern uint32_t __sc_start;
  51:../src/platform/mpfs_hal/common/nwc/mss_pll.c **** extern uint32_t __sc_end;
  52:../src/platform/mpfs_hal/common/nwc/mss_pll.c **** 
  53:../src/platform/mpfs_hal/common/nwc/mss_pll.c **** /*******************************************************************************
  54:../src/platform/mpfs_hal/common/nwc/mss_pll.c ****  * Local Defines                                                               *
  55:../src/platform/mpfs_hal/common/nwc/mss_pll.c ****  ******************************************************************************/
  56:../src/platform/mpfs_hal/common/nwc/mss_pll.c **** 
  57:../src/platform/mpfs_hal/common/nwc/mss_pll.c **** /*******************************************************************************
  58:../src/platform/mpfs_hal/common/nwc/mss_pll.c ****  * Local function declarations
  59:../src/platform/mpfs_hal/common/nwc/mss_pll.c ****  */
  60:../src/platform/mpfs_hal/common/nwc/mss_pll.c **** __attribute__((weak)) void copy_switch_code(void);
  61:../src/platform/mpfs_hal/common/nwc/mss_pll.c **** 
  62:../src/platform/mpfs_hal/common/nwc/mss_pll.c **** 
  63:../src/platform/mpfs_hal/common/nwc/mss_pll.c **** /*******************************************************************************
  64:../src/platform/mpfs_hal/common/nwc/mss_pll.c ****  * Instance definitions                                                        *
  65:../src/platform/mpfs_hal/common/nwc/mss_pll.c ****  ******************************************************************************/
  66:../src/platform/mpfs_hal/common/nwc/mss_pll.c **** 
  67:../src/platform/mpfs_hal/common/nwc/mss_pll.c **** void sgmii_mux_config(uint8_t option);
  68:../src/platform/mpfs_hal/common/nwc/mss_pll.c **** 
  69:../src/platform/mpfs_hal/common/nwc/mss_pll.c **** /*******************************************************************************
  70:../src/platform/mpfs_hal/common/nwc/mss_pll.c ****  Local functions                                 *
  71:../src/platform/mpfs_hal/common/nwc/mss_pll.c **** *******************************************************************************/
  72:../src/platform/mpfs_hal/common/nwc/mss_pll.c **** 
  73:../src/platform/mpfs_hal/common/nwc/mss_pll.c **** 
  74:../src/platform/mpfs_hal/common/nwc/mss_pll.c **** /***************************************************************************//**
  75:../src/platform/mpfs_hal/common/nwc/mss_pll.c ****  * set_RTC_divisor()
  76:../src/platform/mpfs_hal/common/nwc/mss_pll.c ****  * Set the RTC divisor based on MSS Configurator setting
  77:../src/platform/mpfs_hal/common/nwc/mss_pll.c ****  * Note: This will always be calculated so RTC clock is 1MHz.
  78:../src/platform/mpfs_hal/common/nwc/mss_pll.c ****  */
  79:../src/platform/mpfs_hal/common/nwc/mss_pll.c **** void set_RTC_divisor(void)
  80:../src/platform/mpfs_hal/common/nwc/mss_pll.c **** {
  65              		.loc 1 80 1
  66              		.cfi_startproc
  67 0000 4111     		addi	sp,sp,-16
  68              		.cfi_def_cfa_offset 16
  69 0002 22E4     		sd	s0,8(sp)
  70              		.cfi_offset 8, -8
  71 0004 0008     		addi	s0,sp,16
  72              		.cfi_def_cfa 8, 0
  81:../src/platform/mpfs_hal/common/nwc/mss_pll.c **** 
  82:../src/platform/mpfs_hal/common/nwc/mss_pll.c ****     SYSREG->RTC_CLOCK_CR &= ~(0x01U<<16); /* disable RTC clock */
  73              		.loc 1 82 26
  74 0006 B7270020 		li	a5,536879104
  75 000a DC47     		lw	a5,12(a5)
  76 000c 1B870700 		sext.w	a4,a5
  77 0010 B7270020 		li	a5,536879104
  78 0014 BA86     		mv	a3,a4
  79 0016 4177     		li	a4,-65536
  80 0018 7D17     		addi	a4,a4,-1
  81 001a 758F     		and	a4,a3,a4
  82 001c 0127     		sext.w	a4,a4
  83 001e D8C7     		sw	a4,12(a5)
  83:../src/platform/mpfs_hal/common/nwc/mss_pll.c **** 
  84:../src/platform/mpfs_hal/common/nwc/mss_pll.c ****     SYSREG->RTC_CLOCK_CR = (LIBERO_SETTING_MSS_EXT_SGMII_REF_CLK / \
  84              		.loc 1 84 11
  85 0020 B7270020 		li	a5,536879104
  86              		.loc 1 84 26
  87 0024 1307D007 		li	a4,125
  88 0028 D8C7     		sw	a4,12(a5)
  85:../src/platform/mpfs_hal/common/nwc/mss_pll.c ****             LIBERO_SETTING_MSS_RTC_TOGGLE_CLK);
  86:../src/platform/mpfs_hal/common/nwc/mss_pll.c **** 
  87:../src/platform/mpfs_hal/common/nwc/mss_pll.c ****     SYSREG->RTC_CLOCK_CR |= (0x01U<<16); /* enable RTC clock */
  89              		.loc 1 87 26
  90 002a B7270020 		li	a5,536879104
  91 002e DC47     		lw	a5,12(a5)
  92 0030 1B870700 		sext.w	a4,a5
  93 0034 B7270020 		li	a5,536879104
  94 0038 BA86     		mv	a3,a4
  95 003a 4167     		li	a4,65536
  96 003c 558F     		or	a4,a3,a4
  97 003e 0127     		sext.w	a4,a4
  98 0040 D8C7     		sw	a4,12(a5)
  88:../src/platform/mpfs_hal/common/nwc/mss_pll.c **** 
  89:../src/platform/mpfs_hal/common/nwc/mss_pll.c **** }
  99              		.loc 1 89 1
 100 0042 0100     		nop
 101 0044 2264     		ld	s0,8(sp)
 102              		.cfi_restore 8
 103              		.cfi_def_cfa 2, 16
 104 0046 4101     		addi	sp,sp,16
 105              		.cfi_def_cfa_offset 0
 106 0048 8280     		jr	ra
 107              		.cfi_endproc
 108              	.LFE19:
 110              		.section	.text.mss_mux_pre_mss_pll_config,"ax",@progbits
 111              		.align	1
 113              	mss_mux_pre_mss_pll_config:
 114              	.LFB20:
  90:../src/platform/mpfs_hal/common/nwc/mss_pll.c **** 
  91:../src/platform/mpfs_hal/common/nwc/mss_pll.c **** 
  92:../src/platform/mpfs_hal/common/nwc/mss_pll.c **** /***************************************************************************//**
  93:../src/platform/mpfs_hal/common/nwc/mss_pll.c ****  * mss_mux_pre_mss_pll_config()
  94:../src/platform/mpfs_hal/common/nwc/mss_pll.c ****  *
  95:../src/platform/mpfs_hal/common/nwc/mss_pll.c ****  * Feed through required reference clks to PLL, configure PLL and wait for lock
  96:../src/platform/mpfs_hal/common/nwc/mss_pll.c ****  ******************************************************************************/
  97:../src/platform/mpfs_hal/common/nwc/mss_pll.c **** static void mss_mux_pre_mss_pll_config(void)
  98:../src/platform/mpfs_hal/common/nwc/mss_pll.c **** {
 115              		.loc 1 98 1
 116              		.cfi_startproc
 117 0000 0111     		addi	sp,sp,-32
 118              		.cfi_def_cfa_offset 32
 119 0002 22EC     		sd	s0,24(sp)
 120              		.cfi_offset 8, -8
 121 0004 0010     		addi	s0,sp,32
 122              		.cfi_def_cfa 8, 0
  99:../src/platform/mpfs_hal/common/nwc/mss_pll.c ****     /*
 100:../src/platform/mpfs_hal/common/nwc/mss_pll.c ****      * PLL RF clk mux selections
 101:../src/platform/mpfs_hal/common/nwc/mss_pll.c ****      *  [31:15] Reserved
 102:../src/platform/mpfs_hal/common/nwc/mss_pll.c ****      *  [14:10] pll1_fdr_sel
 103:../src/platform/mpfs_hal/common/nwc/mss_pll.c ****      *  [9:8]   pll1_rfclk1_sel
 104:../src/platform/mpfs_hal/common/nwc/mss_pll.c ****      *  [7:6]   pll1_rfclk0_sel
 105:../src/platform/mpfs_hal/common/nwc/mss_pll.c ****      *  [5:4]   pll0_rfclk1_sel
 106:../src/platform/mpfs_hal/common/nwc/mss_pll.c ****      *  [3:2]   pll0_rfclk0_sel
 107:../src/platform/mpfs_hal/common/nwc/mss_pll.c ****      *  [1:0]   clk_in_mac_tsu_sel
 108:../src/platform/mpfs_hal/common/nwc/mss_pll.c ****      *
 109:../src/platform/mpfs_hal/common/nwc/mss_pll.c ****      *  Each mux uses 2 configuration bits. These are decoded as follows:
 110:../src/platform/mpfs_hal/common/nwc/mss_pll.c ****      *  00  vss
 111:../src/platform/mpfs_hal/common/nwc/mss_pll.c ****      *  01  refclk_p,refclk_n
 112:../src/platform/mpfs_hal/common/nwc/mss_pll.c ****      *  10  scb_clk
 113:../src/platform/mpfs_hal/common/nwc/mss_pll.c ****      *  10  serdes_refclk_crn_mss<0>, serdes_refclk_crn_mss<1>
 114:../src/platform/mpfs_hal/common/nwc/mss_pll.c ****      *
 115:../src/platform/mpfs_hal/common/nwc/mss_pll.c ****      *  e.g.
 116:../src/platform/mpfs_hal/common/nwc/mss_pll.c ****      *  PLL_CKMUX = 0x00000154
 117:../src/platform/mpfs_hal/common/nwc/mss_pll.c ****      *    pll0_rfclk0_sel = 1 => refclk_p is used for pll0 ref0 and refclk_n is
 118:../src/platform/mpfs_hal/common/nwc/mss_pll.c ****      *    fed to MSS PLL ref1
 119:../src/platform/mpfs_hal/common/nwc/mss_pll.c ****      */
 120:../src/platform/mpfs_hal/common/nwc/mss_pll.c ****     /* CFM_MSS 0x3E002000   - 0x08 */
 121:../src/platform/mpfs_hal/common/nwc/mss_pll.c ****     MSS_SCB_CFM_MSS_MUX->PLL_CKMUX = LIBERO_SETTING_MSS_PLL_CKMUX;
 123              		.loc 1 121 24
 124 0006 B727003E 		li	a5,1040195584
 125              		.loc 1 121 36
 126 000a 13075015 		li	a4,341
 127 000e 98C7     		sw	a4,8(a5)
 122:../src/platform/mpfs_hal/common/nwc/mss_pll.c ****     /*
 123:../src/platform/mpfs_hal/common/nwc/mss_pll.c ****      * MSS Clock mux selections
 124:../src/platform/mpfs_hal/common/nwc/mss_pll.c ****      *  [31:5]  Reserved
 125:../src/platform/mpfs_hal/common/nwc/mss_pll.c ****      *  [4]     clk_standby_sel
 126:../src/platform/mpfs_hal/common/nwc/mss_pll.c ****      *  [3:2]   mssclk_mux_md
 127:../src/platform/mpfs_hal/common/nwc/mss_pll.c ****      *  step 7: 7)  MSS Processor writes mssclk_mux_sel_int<0>=1 to select the
 128:../src/platform/mpfs_hal/common/nwc/mss_pll.c ****      *  MSS PLL clock.
 129:../src/platform/mpfs_hal/common/nwc/mss_pll.c ****      *  [1:0]   mssclk_mux_sel        MSS glitchless mux select
 130:../src/platform/mpfs_hal/common/nwc/mss_pll.c ****      *                                      00 - msspll_fdr_0=clk_standby
 131:../src/platform/mpfs_hal/common/nwc/mss_pll.c ****      *                                           msspll_fdr_1=clk_standby
 132:../src/platform/mpfs_hal/common/nwc/mss_pll.c ****      *                                      01 - msspll_fdr_0=pllout0
 133:../src/platform/mpfs_hal/common/nwc/mss_pll.c ****      *                                           msspll_fdr_1=clk_standby
 134:../src/platform/mpfs_hal/common/nwc/mss_pll.c ****      *                                      10 - msspll_fdr_0=clk_standby
 135:../src/platform/mpfs_hal/common/nwc/mss_pll.c ****      *                                           msspll_fdr_1=pllout1
 136:../src/platform/mpfs_hal/common/nwc/mss_pll.c ****      *                                      11 - msspll_fdr_0=pllout0
 137:../src/platform/mpfs_hal/common/nwc/mss_pll.c ****      *                                           msspll_fdr_1=pllout1
 138:../src/platform/mpfs_hal/common/nwc/mss_pll.c ****      *
 139:../src/platform/mpfs_hal/common/nwc/mss_pll.c ****      *
 140:../src/platform/mpfs_hal/common/nwc/mss_pll.c ****      */
 141:../src/platform/mpfs_hal/common/nwc/mss_pll.c ****     /*
 142:../src/platform/mpfs_hal/common/nwc/mss_pll.c ****      * We will not set as already set to 0, we feed through after we have setup
 143:../src/platform/mpfs_hal/common/nwc/mss_pll.c ****      * clock
 144:../src/platform/mpfs_hal/common/nwc/mss_pll.c ****      * MSS_SCB_CFM_MSS_MUX->MSSCLKMUX           = LIBERO_SETTING_MSS_MSSCLKMUX;
 145:../src/platform/mpfs_hal/common/nwc/mss_pll.c ****      */
 146:../src/platform/mpfs_hal/common/nwc/mss_pll.c **** 
 147:../src/platform/mpfs_hal/common/nwc/mss_pll.c ****     /*
 148:../src/platform/mpfs_hal/common/nwc/mss_pll.c ****      * Clock_Receiver
 149:../src/platform/mpfs_hal/common/nwc/mss_pll.c ****      *  [13]    en_rdiff
 150:../src/platform/mpfs_hal/common/nwc/mss_pll.c ****      *  [12]    clkbuf_en_pullup
 151:../src/platform/mpfs_hal/common/nwc/mss_pll.c ****      *  [11:10] en_rxmode_n
 152:../src/platform/mpfs_hal/common/nwc/mss_pll.c ****      *  [9:8]   en_term_n
 153:../src/platform/mpfs_hal/common/nwc/mss_pll.c ****      *  [7]     en_ins_hyst_n
 154:../src/platform/mpfs_hal/common/nwc/mss_pll.c ****      *  [6]     en_udrive_n
 155:../src/platform/mpfs_hal/common/nwc/mss_pll.c ****      *  [5:4]   en_rxmode_p
 156:../src/platform/mpfs_hal/common/nwc/mss_pll.c ****      *  [3:2]   en_term_p
 157:../src/platform/mpfs_hal/common/nwc/mss_pll.c ****      *  [1]     en_ins_hyst_p
 158:../src/platform/mpfs_hal/common/nwc/mss_pll.c ****      *  [0]     en_udrive_p
 159:../src/platform/mpfs_hal/common/nwc/mss_pll.c ****      */
 160:../src/platform/mpfs_hal/common/nwc/mss_pll.c ****     MSS_SCB_CFM_SGMII_MUX->CLK_XCVR         = LIBERO_SETTING_SGMII_CLK_XCVR;
 128              		.loc 1 160 26
 129 0010 B707203E 		li	a5,1042284544
 130              		.loc 1 160 45
 131 0014 0D67     		li	a4,12288
 132 0016 130707C3 		addi	a4,a4,-976
 133 001a 98CB     		sw	a4,16(a5)
 161:../src/platform/mpfs_hal/common/nwc/mss_pll.c **** 
 162:../src/platform/mpfs_hal/common/nwc/mss_pll.c ****     /*
 163:../src/platform/mpfs_hal/common/nwc/mss_pll.c ****      * 29:25    bclk5_sel
 164:../src/platform/mpfs_hal/common/nwc/mss_pll.c ****      * 24:20    bclk4_sel
 165:../src/platform/mpfs_hal/common/nwc/mss_pll.c ****      * 19:15    bclk3_sel
 166:../src/platform/mpfs_hal/common/nwc/mss_pll.c ****      * 14:10    bclk2_sel
 167:../src/platform/mpfs_hal/common/nwc/mss_pll.c ****      * 9:5  bclk1_sel
 168:../src/platform/mpfs_hal/common/nwc/mss_pll.c ****      * 4:0  bclk0_sel
 169:../src/platform/mpfs_hal/common/nwc/mss_pll.c ****      *
 170:../src/platform/mpfs_hal/common/nwc/mss_pll.c ****      * From SAC spec:
 171:../src/platform/mpfs_hal/common/nwc/mss_pll.c ****      * Table 9 1: Each gbim bank clock mux programming in MSS corner
 172:../src/platform/mpfs_hal/common/nwc/mss_pll.c ****      * The DDRPHY bank clocks bclk_horz<5:0> and bclk_vert<5:0> are driven
 173:../src/platform/mpfs_hal/common/nwc/mss_pll.c ****      * from mux's gbim<5:0> in the MSS corner. Each mux uses 5 configuration
 174:../src/platform/mpfs_hal/common/nwc/mss_pll.c ****      * bits.
 175:../src/platform/mpfs_hal/common/nwc/mss_pll.c ****      *
 176:../src/platform/mpfs_hal/common/nwc/mss_pll.c ****      * BCLK mux selections
 177:../src/platform/mpfs_hal/common/nwc/mss_pll.c ****      *  bclk0_sel=0x8 (pll0_out_1k<2> selected)
 178:../src/platform/mpfs_hal/common/nwc/mss_pll.c ****      *  bclk1_sel=0x10 (pll0_out_1k<3> selected)
 179:../src/platform/mpfs_hal/common/nwc/mss_pll.c ****      *  bclk2_sel=0x1 (vss selected)
 180:../src/platform/mpfs_hal/common/nwc/mss_pll.c ****      *  bclk3_sel=0x1 (vss selected)
 181:../src/platform/mpfs_hal/common/nwc/mss_pll.c ****      *  bclk4_sel=0x1 (vss selected)
 182:../src/platform/mpfs_hal/common/nwc/mss_pll.c ****      *  bclk5_sel=0x1 (vss selected)
 183:../src/platform/mpfs_hal/common/nwc/mss_pll.c ****      *
 184:../src/platform/mpfs_hal/common/nwc/mss_pll.c ****      */
 185:../src/platform/mpfs_hal/common/nwc/mss_pll.c ****     MSS_SCB_CFM_MSS_MUX->BCLKMUX        =   LIBERO_SETTING_MSS_BCLKMUX;
 134              		.loc 1 185 24
 135 001c B727003E 		li	a5,1040195584
 136              		.loc 1 185 41
 137 0020 13078020 		li	a4,520
 138 0024 D8C3     		sw	a4,4(a5)
 186:../src/platform/mpfs_hal/common/nwc/mss_pll.c **** 
 187:../src/platform/mpfs_hal/common/nwc/mss_pll.c ****     /*  MSS_SCB_CFM_MSS_MUX->SPARE0         =   BCLKMUX_USER_CONFIG;       */
 188:../src/platform/mpfs_hal/common/nwc/mss_pll.c ****     MSS_SCB_CFM_MSS_MUX->FMETER_ADDR    =   LIBERO_SETTING_MSS_FMETER_ADDR;
 139              		.loc 1 188 24
 140 0026 B727003E 		li	a5,1040195584
 141              		.loc 1 188 41
 142 002a 23AA0700 		sw	zero,20(a5)
 189:../src/platform/mpfs_hal/common/nwc/mss_pll.c **** 
 190:../src/platform/mpfs_hal/common/nwc/mss_pll.c ****     MSS_SCB_CFM_MSS_MUX->FMETER_DATAW   =   LIBERO_SETTING_MSS_FMETER_DATAW;
 143              		.loc 1 190 24
 144 002e B727003E 		li	a5,1040195584
 145              		.loc 1 190 41
 146 0032 23AC0700 		sw	zero,24(a5)
 191:../src/platform/mpfs_hal/common/nwc/mss_pll.c **** 
 192:../src/platform/mpfs_hal/common/nwc/mss_pll.c ****     MSS_SCB_CFM_MSS_MUX->FMETER_DATAR   =   LIBERO_SETTING_MSS_FMETER_DATAR;
 147              		.loc 1 192 24
 148 0036 B727003E 		li	a5,1040195584
 149              		.loc 1 192 41
 150 003a 23AE0700 		sw	zero,28(a5)
 193:../src/platform/mpfs_hal/common/nwc/mss_pll.c **** 
 194:../src/platform/mpfs_hal/common/nwc/mss_pll.c ****     /*
 195:../src/platform/mpfs_hal/common/nwc/mss_pll.c ****      *
 196:../src/platform/mpfs_hal/common/nwc/mss_pll.c ****      */
 197:../src/platform/mpfs_hal/common/nwc/mss_pll.c ****     volatile uint32_t i;
 198:../src/platform/mpfs_hal/common/nwc/mss_pll.c ****     for(i = 0U; i < 400U; i++)
 151              		.loc 1 198 11
 152 003e 232604FE 		sw	zero,-20(s0)
 153              		.loc 1 198 5
 154 0042 39A8     		j	.L3
 155              	.L4:
 199:../src/platform/mpfs_hal/common/nwc/mss_pll.c ****     {
 200:../src/platform/mpfs_hal/common/nwc/mss_pll.c ****         i++;
 156              		.loc 1 200 10 discriminator 3
 157 0044 8327C4FE 		lw	a5,-20(s0)
 158 0048 8127     		sext.w	a5,a5
 159 004a 8527     		addiw	a5,a5,1
 160 004c 8127     		sext.w	a5,a5
 161 004e 2326F4FE 		sw	a5,-20(s0)
 198:../src/platform/mpfs_hal/common/nwc/mss_pll.c ****     {
 162              		.loc 1 198 28 discriminator 3
 163 0052 8327C4FE 		lw	a5,-20(s0)
 164 0056 8127     		sext.w	a5,a5
 165 0058 8527     		addiw	a5,a5,1
 166 005a 8127     		sext.w	a5,a5
 167 005c 2326F4FE 		sw	a5,-20(s0)
 168              	.L3:
 198:../src/platform/mpfs_hal/common/nwc/mss_pll.c ****     {
 169              		.loc 1 198 19 discriminator 1
 170 0060 8327C4FE 		lw	a5,-20(s0)
 171 0064 8127     		sext.w	a5,a5
 198:../src/platform/mpfs_hal/common/nwc/mss_pll.c ****     {
 172              		.loc 1 198 5 discriminator 1
 173 0066 3E87     		mv	a4,a5
 174 0068 9307F018 		li	a5,399
 175 006c E3FCE7FC 		bleu	a4,a5,.L4
 201:../src/platform/mpfs_hal/common/nwc/mss_pll.c ****     }
 202:../src/platform/mpfs_hal/common/nwc/mss_pll.c **** }
 176              		.loc 1 202 1
 177 0070 0100     		nop
 178 0072 6264     		ld	s0,24(sp)
 179              		.cfi_restore 8
 180              		.cfi_def_cfa 2, 32
 181 0074 0561     		addi	sp,sp,32
 182              		.cfi_def_cfa_offset 0
 183 0076 8280     		jr	ra
 184              		.cfi_endproc
 185              	.LFE20:
 187              		.section	.ram_codetext,"ax",@progbits
 188              		.align	1
 190              	mss_mux_post_mss_pll_config:
 191              	.LFB21:
 203:../src/platform/mpfs_hal/common/nwc/mss_pll.c **** 
 204:../src/platform/mpfs_hal/common/nwc/mss_pll.c **** 
 205:../src/platform/mpfs_hal/common/nwc/mss_pll.c **** /***************************************************************************//**
 206:../src/platform/mpfs_hal/common/nwc/mss_pll.c ****  * mss_mux_post_mss_pll_config(void)
 207:../src/platform/mpfs_hal/common/nwc/mss_pll.c ****  *
 208:../src/platform/mpfs_hal/common/nwc/mss_pll.c ****  * Once MSS locked, feed through to MSS
 209:../src/platform/mpfs_hal/common/nwc/mss_pll.c ****  * We must run this code from RAM, as we need to modify the clock of the eNVM
 210:../src/platform/mpfs_hal/common/nwc/mss_pll.c ****  * The first thing we do is change the eNVM clock, to prevent L1 cache accessing
 211:../src/platform/mpfs_hal/common/nwc/mss_pll.c ****  * eNVM as it will do as we approach the return instruction
 212:../src/platform/mpfs_hal/common/nwc/mss_pll.c ****  * The mb() makes sure order of processing is not changed by the compiler
 213:../src/platform/mpfs_hal/common/nwc/mss_pll.c ****  ******************************************************************************/
 214:../src/platform/mpfs_hal/common/nwc/mss_pll.c **** __attribute__((section(".ram_codetext"))) \
 215:../src/platform/mpfs_hal/common/nwc/mss_pll.c ****         static void mss_mux_post_mss_pll_config(void)
 216:../src/platform/mpfs_hal/common/nwc/mss_pll.c **** {
 192              		.loc 1 216 1
 193              		.cfi_startproc
 194 0000 0111     		addi	sp,sp,-32
 195              		.cfi_def_cfa_offset 32
 196 0002 06EC     		sd	ra,24(sp)
 197 0004 22E8     		sd	s0,16(sp)
 198              		.cfi_offset 1, -8
 199              		.cfi_offset 8, -16
 200 0006 0010     		addi	s0,sp,32
 201              		.cfi_def_cfa 8, 0
 217:../src/platform/mpfs_hal/common/nwc/mss_pll.c ****    /*
 218:../src/platform/mpfs_hal/common/nwc/mss_pll.c ****     * Modify the eNVM clock, so it now matches new MSS clock
 219:../src/platform/mpfs_hal/common/nwc/mss_pll.c ****     *
 220:../src/platform/mpfs_hal/common/nwc/mss_pll.c ****     * [5:0]
 221:../src/platform/mpfs_hal/common/nwc/mss_pll.c ****     * Sets the number of AHB cycles used to generate the PNVM clock,.
 222:../src/platform/mpfs_hal/common/nwc/mss_pll.c ****     * Clock period = (Value+1) * (1000/AHBFREQMHZ)
 223:../src/platform/mpfs_hal/common/nwc/mss_pll.c ****     * Value must be 1 to 63 (0 defaults to 15)
 224:../src/platform/mpfs_hal/common/nwc/mss_pll.c ****     * e.g.
 225:../src/platform/mpfs_hal/common/nwc/mss_pll.c ****     * 7 will generate a 40ns period 25MHz clock if the AHB clock is 200MHz
 226:../src/platform/mpfs_hal/common/nwc/mss_pll.c ****     * 11 will generate a 40ns period 25MHz clock if the AHB clock is 250MHz
 227:../src/platform/mpfs_hal/common/nwc/mss_pll.c ****     * 15 will generate a 40ns period 25MHz clock if the AHB clock is 400MHz
 228:../src/platform/mpfs_hal/common/nwc/mss_pll.c ****     *
 229:../src/platform/mpfs_hal/common/nwc/mss_pll.c ****     */
 230:../src/platform/mpfs_hal/common/nwc/mss_pll.c ****     SYSREG->ENVM_CR = LIBERO_SETTING_MSS_ENVM_CR;
 202              		.loc 1 230 11
 203 0008 B7270020 		li	a5,536879104
 204              		.loc 1 230 21
 205 000c 37070540 		li	a4,1074069504
 206 0010 1507     		addi	a4,a4,5
 207 0012 23ACE70A 		sw	a4,184(a5)
 231:../src/platform/mpfs_hal/common/nwc/mss_pll.c **** 
 232:../src/platform/mpfs_hal/common/nwc/mss_pll.c ****     mb();  /* make sure we change clock in eNVM first so ready by the time we
 208              		.loc 1 232 5
 209              	 #APP
 210              	# 232 "../src/platform/mpfs_hal/common/nwc/mss_pll.c" 1
 233              	             leave */
 234:../src/platform/mpfs_hal/common/nwc/mss_pll.c **** 
 235:../src/platform/mpfs_hal/common/nwc/mss_pll.c ****     /*
 236:../src/platform/mpfs_hal/common/nwc/mss_pll.c ****     * When you're changing the eNVM clock frequency, there is a bit
 237:../src/platform/mpfs_hal/common/nwc/mss_pll.c ****     * (ENVM_CR_clock_okay) in the eNVM_CR which can be polled to check that
 238:../src/platform/mpfs_hal/common/nwc/mss_pll.c ****     * the frequency change has happened before bumping up the AHB frequency.
 239:../src/platform/mpfs_hal/common/nwc/mss_pll.c ****     */
 240:../src/platform/mpfs_hal/common/nwc/mss_pll.c ****     volatile uint32_t wait_for_true = 0U;
 211              		fence
 212              	# 0 "" 2
 213              		.loc 1 240 23
 214              	 #NO_APP
 215 001a 232604FE 		sw	zero,-20(s0)
 241:../src/platform/mpfs_hal/common/nwc/mss_pll.c ****     while ((SYSREG->ENVM_CR & ENVM_CR_CLOCK_OKAY_MASK) !=\
 216              		.loc 1 241 11
 217 001e 01A8     		j	.L6
 218              	.L7:
 242:../src/platform/mpfs_hal/common/nwc/mss_pll.c ****             ENVM_CR_CLOCK_OKAY_MASK)
 243:../src/platform/mpfs_hal/common/nwc/mss_pll.c ****     {
 244:../src/platform/mpfs_hal/common/nwc/mss_pll.c **** #ifdef RENODE_DEBUG
 245:../src/platform/mpfs_hal/common/nwc/mss_pll.c ****         break;
 246:../src/platform/mpfs_hal/common/nwc/mss_pll.c **** #endif
 247:../src/platform/mpfs_hal/common/nwc/mss_pll.c ****         wait_for_true++; /* need something here to stop debugger freezing */
 219              		.loc 1 247 22
 220 0020 8327C4FE 		lw	a5,-20(s0)
 221 0024 8127     		sext.w	a5,a5
 222 0026 8527     		addiw	a5,a5,1
 223 0028 8127     		sext.w	a5,a5
 224 002a 2326F4FE 		sw	a5,-20(s0)
 225              	.L6:
 241:../src/platform/mpfs_hal/common/nwc/mss_pll.c ****     while ((SYSREG->ENVM_CR & ENVM_CR_CLOCK_OKAY_MASK) !=\
 226              		.loc 1 241 19
 227 002e B7270020 		li	a5,536879104
 228 0032 83A7870B 		lw	a5,184(a5)
 229 0036 8127     		sext.w	a5,a5
 241:../src/platform/mpfs_hal/common/nwc/mss_pll.c ****     while ((SYSREG->ENVM_CR & ENVM_CR_CLOCK_OKAY_MASK) !=\
 230              		.loc 1 241 29
 231 0038 93F70704 		andi	a5,a5,64
 232 003c 8127     		sext.w	a5,a5
 241:../src/platform/mpfs_hal/common/nwc/mss_pll.c ****     while ((SYSREG->ENVM_CR & ENVM_CR_CLOCK_OKAY_MASK) !=\
 233              		.loc 1 241 11
 234 003e 3E87     		mv	a4,a5
 235 0040 93070004 		li	a5,64
 236 0044 E31EF7FC 		bne	a4,a5,.L7
 248:../src/platform/mpfs_hal/common/nwc/mss_pll.c ****     }
 249:../src/platform/mpfs_hal/common/nwc/mss_pll.c **** 
 250:../src/platform/mpfs_hal/common/nwc/mss_pll.c ****    /*
 251:../src/platform/mpfs_hal/common/nwc/mss_pll.c ****     * Change the MSS clock as required.
 252:../src/platform/mpfs_hal/common/nwc/mss_pll.c ****     *
 253:../src/platform/mpfs_hal/common/nwc/mss_pll.c ****     * CLOCK_CONFIG_CR
 254:../src/platform/mpfs_hal/common/nwc/mss_pll.c ****     * [5:0]
 255:../src/platform/mpfs_hal/common/nwc/mss_pll.c ****     * Sets the master synchronous clock divider
 256:../src/platform/mpfs_hal/common/nwc/mss_pll.c ****     * bits [1:0] CPU clock divider
 257:../src/platform/mpfs_hal/common/nwc/mss_pll.c ****     * bits [3:2] AXI clock divider
 258:../src/platform/mpfs_hal/common/nwc/mss_pll.c ****     * bits [5:4] AHB/APB clock divider
 259:../src/platform/mpfs_hal/common/nwc/mss_pll.c ****     * 00=/1 01=/2 10=/4 11=/8 (AHB/APB divider may not be set to /1)
 260:../src/platform/mpfs_hal/common/nwc/mss_pll.c ****     * Reset = 0x3F
 261:../src/platform/mpfs_hal/common/nwc/mss_pll.c ****     *
 262:../src/platform/mpfs_hal/common/nwc/mss_pll.c ****     * SYSREG->CLOCK_CONFIG_CR = (0x0U<<0U) | (0x1U<<2U) | (0x2U<<4U);
 263:../src/platform/mpfs_hal/common/nwc/mss_pll.c ****     * MSS clk= 80Mhz, implies CPU = 80Mhz, AXI = 40Mhz, AHB/APB = 20Mhz
 264:../src/platform/mpfs_hal/common/nwc/mss_pll.c ****     * Until we switch in MSS PLL clock (MSS_SCB_CFM_MSS_MUX->MSSCLKMUX = 0x01)
 265:../src/platform/mpfs_hal/common/nwc/mss_pll.c ****     * e.g. If MSS clk 800Mhz
 266:../src/platform/mpfs_hal/common/nwc/mss_pll.c ****     * MSS clk= 800Mhz, implies CPU = 800Mhz, AXI = 400Mhz, AHB/APB = 200Mhz
 267:../src/platform/mpfs_hal/common/nwc/mss_pll.c ****    */
 268:../src/platform/mpfs_hal/common/nwc/mss_pll.c ****   SYSREG->CLOCK_CONFIG_CR = LIBERO_SETTING_MSS_CLOCK_CONFIG_CR;
 237              		.loc 1 268 9
 238 0048 B7270020 		li	a5,536879104
 239              		.loc 1 268 27
 240 004c 13074002 		li	a4,36
 241 0050 98C7     		sw	a4,8(a5)
 269:../src/platform/mpfs_hal/common/nwc/mss_pll.c **** 
 270:../src/platform/mpfs_hal/common/nwc/mss_pll.c ****    /*
 271:../src/platform/mpfs_hal/common/nwc/mss_pll.c ****     * Feed clock from MSS PLL to MSS, using glitch-less mux
 272:../src/platform/mpfs_hal/common/nwc/mss_pll.c ****     *
 273:../src/platform/mpfs_hal/common/nwc/mss_pll.c ****     * MSS Clock mux selections
 274:../src/platform/mpfs_hal/common/nwc/mss_pll.c ****     *   [31:5]  Reserved
 275:../src/platform/mpfs_hal/common/nwc/mss_pll.c ****     *   [4]    clk_standby_sel
 276:../src/platform/mpfs_hal/common/nwc/mss_pll.c ****     *   [3:2]  mssclk_mux_md
 277:../src/platform/mpfs_hal/common/nwc/mss_pll.c ****     *   step 7: 7)  MSS Processor writes mssclk_mux_sel_int<0>=1 to select the
 278:../src/platform/mpfs_hal/common/nwc/mss_pll.c ****     *   MSS PLL clock.
 279:../src/platform/mpfs_hal/common/nwc/mss_pll.c ****     *   [1:0]  mssclk_mux_sel        MSS glitchless mux select
 280:../src/platform/mpfs_hal/common/nwc/mss_pll.c ****     *                    00 - msspll_fdr_0=clk_standby
 281:../src/platform/mpfs_hal/common/nwc/mss_pll.c ****     *                          msspll_fdr_1=clk_standby
 282:../src/platform/mpfs_hal/common/nwc/mss_pll.c ****     *                    01 - msspll_fdr_0=pllout0
 283:../src/platform/mpfs_hal/common/nwc/mss_pll.c ****     *                          msspll_fdr_1=clk_standby
 284:../src/platform/mpfs_hal/common/nwc/mss_pll.c ****     *                    10 - msspll_fdr_0=clk_standby
 285:../src/platform/mpfs_hal/common/nwc/mss_pll.c ****     *                           msspll_fdr_1=pllout1
 286:../src/platform/mpfs_hal/common/nwc/mss_pll.c ****     *                    11 - msspll_fdr_0=pllout0
 287:../src/platform/mpfs_hal/common/nwc/mss_pll.c ****     *                          msspll_fdr_1=pllout1
 288:../src/platform/mpfs_hal/common/nwc/mss_pll.c ****     *
 289:../src/platform/mpfs_hal/common/nwc/mss_pll.c ****     *
 290:../src/platform/mpfs_hal/common/nwc/mss_pll.c ****     */
 291:../src/platform/mpfs_hal/common/nwc/mss_pll.c ****     MSS_SCB_CFM_MSS_MUX->MSSCLKMUX   = LIBERO_SETTING_MSS_MSSCLKMUX;
 242              		.loc 1 291 24
 243 0052 B727003E 		li	a5,1040195584
 244              		.loc 1 291 38
 245 0056 0D47     		li	a4,3
 246 0058 D8C7     		sw	a4,12(a5)
 292:../src/platform/mpfs_hal/common/nwc/mss_pll.c **** 
 293:../src/platform/mpfs_hal/common/nwc/mss_pll.c ****    /*
 294:../src/platform/mpfs_hal/common/nwc/mss_pll.c ****     * Change the RTC clock divisor, so RTC clock is 1MHz
 295:../src/platform/mpfs_hal/common/nwc/mss_pll.c ****     */
 296:../src/platform/mpfs_hal/common/nwc/mss_pll.c ****     set_RTC_divisor();
 247              		.loc 1 296 5
 248 005a 97000000 		call	set_RTC_divisor
 248      E7800000 
 297:../src/platform/mpfs_hal/common/nwc/mss_pll.c **** }
 249              		.loc 1 297 1
 250 0062 0100     		nop
 251 0064 E260     		ld	ra,24(sp)
 252              		.cfi_restore 1
 253 0066 4264     		ld	s0,16(sp)
 254              		.cfi_restore 8
 255              		.cfi_def_cfa 2, 32
 256 0068 0561     		addi	sp,sp,32
 257              		.cfi_def_cfa_offset 0
 258 006a 8280     		jr	ra
 259              		.cfi_endproc
 260              	.LFE21:
 262              		.section	.text.sgmii_mux_config,"ax",@progbits
 263              		.align	1
 264              		.globl	sgmii_mux_config
 266              	sgmii_mux_config:
 267              	.LFB22:
 298:../src/platform/mpfs_hal/common/nwc/mss_pll.c **** 
 299:../src/platform/mpfs_hal/common/nwc/mss_pll.c **** /***************************************************************************//**
 300:../src/platform/mpfs_hal/common/nwc/mss_pll.c ****  * sgmii_mux_config(uint8_t option)
 301:../src/platform/mpfs_hal/common/nwc/mss_pll.c ****  * @param option 1 => soft reset, load RPC settings
 302:../src/platform/mpfs_hal/common/nwc/mss_pll.c ****  *               0 => write values using SCB
 303:../src/platform/mpfs_hal/common/nwc/mss_pll.c ****  ******************************************************************************/
 304:../src/platform/mpfs_hal/common/nwc/mss_pll.c **** void sgmii_mux_config(uint8_t option)
 305:../src/platform/mpfs_hal/common/nwc/mss_pll.c **** {
 268              		.loc 1 305 1
 269              		.cfi_startproc
 270 0000 0111     		addi	sp,sp,-32
 271              		.cfi_def_cfa_offset 32
 272 0002 22EC     		sd	s0,24(sp)
 273              		.cfi_offset 8, -8
 274 0004 0010     		addi	s0,sp,32
 275              		.cfi_def_cfa 8, 0
 276 0006 AA87     		mv	a5,a0
 277 0008 A307F4FE 		sb	a5,-17(s0)
 306:../src/platform/mpfs_hal/common/nwc/mss_pll.c ****     switch(option)
 278              		.loc 1 306 5
 279 000c 8347F4FE 		lbu	a5,-17(s0)
 280 0010 8127     		sext.w	a5,a5
 281 0012 3E87     		mv	a4,a5
 282 0014 8547     		li	a5,1
 283 0016 6301F702 		beq	a4,a5,.L9
 307:../src/platform/mpfs_hal/common/nwc/mss_pll.c ****     {
 308:../src/platform/mpfs_hal/common/nwc/mss_pll.c ****         default:
 309:../src/platform/mpfs_hal/common/nwc/mss_pll.c ****         case SCB_UPDATE:   /* write to   SCB register */
 310:../src/platform/mpfs_hal/common/nwc/mss_pll.c **** 
 311:../src/platform/mpfs_hal/common/nwc/mss_pll.c ****                 /*
 312:../src/platform/mpfs_hal/common/nwc/mss_pll.c ****                  * SCB address: 0x3E20 0008
 313:../src/platform/mpfs_hal/common/nwc/mss_pll.c ****                  * MSS Clock mux selections
 314:../src/platform/mpfs_hal/common/nwc/mss_pll.c ****                  *
 315:../src/platform/mpfs_hal/common/nwc/mss_pll.c ****                  * [31:0] SGMII_CLKMUX
 316:../src/platform/mpfs_hal/common/nwc/mss_pll.c ****                  */
 317:../src/platform/mpfs_hal/common/nwc/mss_pll.c ****                 /* CFM_ETH - 0x3E200000 - - 0x08 */
 318:../src/platform/mpfs_hal/common/nwc/mss_pll.c ****                 MSS_SCB_CFM_SGMII_MUX->SGMII_CLKMUX =\
 284              		.loc 1 318 38
 285 001a B707203E 		li	a5,1042284544
 286              		.loc 1 318 53
 287 001e 1547     		li	a4,5
 288 0020 98C7     		sw	a4,8(a5)
 319:../src/platform/mpfs_hal/common/nwc/mss_pll.c ****                     LIBERO_SETTING_SGMII_SGMII_CLKMUX;
 320:../src/platform/mpfs_hal/common/nwc/mss_pll.c ****                 /*
 321:../src/platform/mpfs_hal/common/nwc/mss_pll.c ****                  * SCB address: 0x3E20 0010
 322:../src/platform/mpfs_hal/common/nwc/mss_pll.c ****                  * Clock_Receiver
 323:../src/platform/mpfs_hal/common/nwc/mss_pll.c ****                  *
 324:../src/platform/mpfs_hal/common/nwc/mss_pll.c ****                  * [13]    en_rdiff
 325:../src/platform/mpfs_hal/common/nwc/mss_pll.c ****                  * [12]    clkbuf_en_pullup
 326:../src/platform/mpfs_hal/common/nwc/mss_pll.c ****                  * [11:10] en_rxmode_n
 327:../src/platform/mpfs_hal/common/nwc/mss_pll.c ****                  * [9:8]   en_term_n
 328:../src/platform/mpfs_hal/common/nwc/mss_pll.c ****                  * [7]     en_ins_hyst_n
 329:../src/platform/mpfs_hal/common/nwc/mss_pll.c ****                  * [6]     en_udrive_n
 330:../src/platform/mpfs_hal/common/nwc/mss_pll.c ****                  * [5:4]   en_rxmode_p
 331:../src/platform/mpfs_hal/common/nwc/mss_pll.c ****                  * [3:2]   en_term_p
 332:../src/platform/mpfs_hal/common/nwc/mss_pll.c ****                  * [1]     en_ins_hyst_p
 333:../src/platform/mpfs_hal/common/nwc/mss_pll.c ****                  * [0]     en_udrive_p
 334:../src/platform/mpfs_hal/common/nwc/mss_pll.c ****                  */
 335:../src/platform/mpfs_hal/common/nwc/mss_pll.c ****                 MSS_SCB_CFM_SGMII_MUX->CLK_XCVR =\
 289              		.loc 1 335 38
 290 0022 B707203E 		li	a5,1042284544
 291              		.loc 1 335 49
 292 0026 0D67     		li	a4,12288
 293 0028 130707C3 		addi	a4,a4,-976
 294 002c 98CB     		sw	a4,16(a5)
 336:../src/platform/mpfs_hal/common/nwc/mss_pll.c ****                         LIBERO_SETTING_SGMII_CLK_XCVR;   /* 0x2011 */
 337:../src/platform/mpfs_hal/common/nwc/mss_pll.c ****                 /*
 338:../src/platform/mpfs_hal/common/nwc/mss_pll.c ****                  * SCB address: 0x3E20 0004
 339:../src/platform/mpfs_hal/common/nwc/mss_pll.c ****                  * PLL RF clk mux selections
 340:../src/platform/mpfs_hal/common/nwc/mss_pll.c ****                  *
 341:../src/platform/mpfs_hal/common/nwc/mss_pll.c ****                  * [3:2] pll0_rfclk1_sel
 342:../src/platform/mpfs_hal/common/nwc/mss_pll.c ****                  *             00 => vss
 343:../src/platform/mpfs_hal/common/nwc/mss_pll.c ****                  *             01 => refclk_p muxed to DDR PLL
 344:../src/platform/mpfs_hal/common/nwc/mss_pll.c ****                  *                   and SGMII PLL ( see
 345:../src/platform/mpfs_hal/common/nwc/mss_pll.c ****                  *             10 => scb_clk
 346:../src/platform/mpfs_hal/common/nwc/mss_pll.c ****                  *             11 => serdes_refclk_crn_mss<1>
 347:../src/platform/mpfs_hal/common/nwc/mss_pll.c ****                  * [1:0] pll0_rfclk0_sel
 348:../src/platform/mpfs_hal/common/nwc/mss_pll.c ****                  *             00 => vss
 349:../src/platform/mpfs_hal/common/nwc/mss_pll.c ****                  *             01 => refclk_n muxed to DDR PLL
 350:../src/platform/mpfs_hal/common/nwc/mss_pll.c ****                  *                   and SGMII PLL
 351:../src/platform/mpfs_hal/common/nwc/mss_pll.c ****                  *             10 => scb_clk
 352:../src/platform/mpfs_hal/common/nwc/mss_pll.c ****                  *             11 => serdes_refclk_crn_mss<1>
 353:../src/platform/mpfs_hal/common/nwc/mss_pll.c ****                  *
 354:../src/platform/mpfs_hal/common/nwc/mss_pll.c ****                  *
 355:../src/platform/mpfs_hal/common/nwc/mss_pll.c ****                  */
 356:../src/platform/mpfs_hal/common/nwc/mss_pll.c ****                 /* 0x05 => ref to SGMII and DDR */
 357:../src/platform/mpfs_hal/common/nwc/mss_pll.c ****                 MSS_SCB_CFM_SGMII_MUX->RFCKMUX  =\
 295              		.loc 1 357 38
 296 002e B707203E 		li	a5,1042284544
 297              		.loc 1 357 49
 298 0032 1547     		li	a4,5
 299 0034 D8C3     		sw	a4,4(a5)
 358:../src/platform/mpfs_hal/common/nwc/mss_pll.c ****                         LIBERO_SETTING_SGMII_REFCLKMUX;
 359:../src/platform/mpfs_hal/common/nwc/mss_pll.c ****                 break;
 300              		.loc 1 359 17
 301 0036 31A0     		j	.L10
 302              	.L9:
 360:../src/platform/mpfs_hal/common/nwc/mss_pll.c **** 
 361:../src/platform/mpfs_hal/common/nwc/mss_pll.c ****         case RPC_REG_UPDATE:
 362:../src/platform/mpfs_hal/common/nwc/mss_pll.c ****             /*
 363:../src/platform/mpfs_hal/common/nwc/mss_pll.c ****              * set the NV map reset
 364:../src/platform/mpfs_hal/common/nwc/mss_pll.c ****              * This will load the APB registers, set via SGMII TIP.
 365:../src/platform/mpfs_hal/common/nwc/mss_pll.c ****              * */
 366:../src/platform/mpfs_hal/common/nwc/mss_pll.c ****             MSS_SCB_CFM_SGMII_MUX->SOFT_RESET = 1U;
 303              		.loc 1 366 34
 304 0038 B707203E 		li	a5,1042284544
 305              		.loc 1 366 47
 306 003c 0547     		li	a4,1
 307 003e 98C3     		sw	a4,0(a5)
 367:../src/platform/mpfs_hal/common/nwc/mss_pll.c ****             break;
 308              		.loc 1 367 13
 309 0040 0100     		nop
 310              	.L10:
 368:../src/platform/mpfs_hal/common/nwc/mss_pll.c ****     }
 369:../src/platform/mpfs_hal/common/nwc/mss_pll.c **** }
 311              		.loc 1 369 1
 312 0042 0100     		nop
 313 0044 6264     		ld	s0,24(sp)
 314              		.cfi_restore 8
 315              		.cfi_def_cfa 2, 32
 316 0046 0561     		addi	sp,sp,32
 317              		.cfi_def_cfa_offset 0
 318 0048 8280     		jr	ra
 319              		.cfi_endproc
 320              	.LFE22:
 322              		.section	.text.mss_pll_config,"ax",@progbits
 323              		.align	1
 324              		.globl	mss_pll_config
 326              	mss_pll_config:
 327              	.LFB23:
 370:../src/platform/mpfs_hal/common/nwc/mss_pll.c **** 
 371:../src/platform/mpfs_hal/common/nwc/mss_pll.c **** /***************************************************************************//**
 372:../src/platform/mpfs_hal/common/nwc/mss_pll.c ****  *
 373:../src/platform/mpfs_hal/common/nwc/mss_pll.c ****  * On startup, MSS supplied with 80MHz SCB clock
 374:../src/platform/mpfs_hal/common/nwc/mss_pll.c **** 
 375:../src/platform/mpfs_hal/common/nwc/mss_pll.c ****   9.2  Power on procedure for the MSS PLL clock
 376:../src/platform/mpfs_hal/common/nwc/mss_pll.c **** 
 377:../src/platform/mpfs_hal/common/nwc/mss_pll.c ****   During POR:
 378:../src/platform/mpfs_hal/common/nwc/mss_pll.c ****   Keep PLL in power down mode. powerdown_int_b=0
 379:../src/platform/mpfs_hal/common/nwc/mss_pll.c **** 
 380:../src/platform/mpfs_hal/common/nwc/mss_pll.c ****   After POR, Power-On steps:
 381:../src/platform/mpfs_hal/common/nwc/mss_pll.c ****   1)  mssclk_mux_sel_int<0>=0 & powerdown_int_b=0 & clk_standby_sel=0
 382:../src/platform/mpfs_hal/common/nwc/mss_pll.c ****   MSS PLL is powered down and selects clk_standby=scb_clk
 383:../src/platform/mpfs_hal/common/nwc/mss_pll.c ****   2)  PFC Processor writes powerdown_int_b=1 & divq0_int_en=1
 384:../src/platform/mpfs_hal/common/nwc/mss_pll.c ****   MSS PLL powers up, then lock asserts when locked.
 385:../src/platform/mpfs_hal/common/nwc/mss_pll.c ****   3)  PFC Processor switches mssclk_mux_sel_int<0>=1
 386:../src/platform/mpfs_hal/common/nwc/mss_pll.c ****   MSS PLL clock is now sent to MSS.
 387:../src/platform/mpfs_hal/common/nwc/mss_pll.c ****   4)  When BOOT authentication is complete
 388:../src/platform/mpfs_hal/common/nwc/mss_pll.c ****   a.  PFC processor writes mssclk_mux_sel_int<0>=0 to select clk_standby.
 389:../src/platform/mpfs_hal/common/nwc/mss_pll.c ****   b.  PFC Processor writes powerdown_int_b=0 to power down the PLL
 390:../src/platform/mpfs_hal/common/nwc/mss_pll.c ****   >>>>>>>> G5 Soc User code >>>>>>>>>>>>>>
 391:../src/platform/mpfs_hal/common/nwc/mss_pll.c ****   c.  MSS Processor writes new parameters to the MSS PLL
 392:../src/platform/mpfs_hal/common/nwc/mss_pll.c ****   5)  MSS Processor writes powerdown_int_b=1
 393:../src/platform/mpfs_hal/common/nwc/mss_pll.c ****   Start up the PLL with NEW parameters.
 394:../src/platform/mpfs_hal/common/nwc/mss_pll.c ****   Wait for LOCK
 395:../src/platform/mpfs_hal/common/nwc/mss_pll.c ****   6)  MSS Processor enables all 4 PLL outputs.
 396:../src/platform/mpfs_hal/common/nwc/mss_pll.c ****   7)  MSS Processor writes mssclk_mux_sel_int<0>=1 to select the MSS PLL
 397:../src/platform/mpfs_hal/common/nwc/mss_pll.c ****       clock.
 398:../src/platform/mpfs_hal/common/nwc/mss_pll.c ****  *
 399:../src/platform/mpfs_hal/common/nwc/mss_pll.c ****  ******************************************************************************/
 400:../src/platform/mpfs_hal/common/nwc/mss_pll.c **** void mss_pll_config(void)
 401:../src/platform/mpfs_hal/common/nwc/mss_pll.c **** {
 328              		.loc 1 401 1
 329              		.cfi_startproc
 330 0000 0111     		addi	sp,sp,-32
 331              		.cfi_def_cfa_offset 32
 332 0002 06EC     		sd	ra,24(sp)
 333 0004 22E8     		sd	s0,16(sp)
 334              		.cfi_offset 1, -8
 335              		.cfi_offset 8, -16
 336 0006 0010     		addi	s0,sp,32
 337              		.cfi_def_cfa 8, 0
 402:../src/platform/mpfs_hal/common/nwc/mss_pll.c ****     
 403:../src/platform/mpfs_hal/common/nwc/mss_pll.c ****     copy_switch_code(); /* copy switch code to RAM */
 338              		.loc 1 403 5
 339 0008 97000000 		call	copy_switch_code
 339      E7800000 
 404:../src/platform/mpfs_hal/common/nwc/mss_pll.c **** 
 405:../src/platform/mpfs_hal/common/nwc/mss_pll.c ****     MSS_SCB_DDR_PLL->SOFT_RESET     = PLL_INIT_AND_OUT_OF_RESET;
 340              		.loc 1 405 20
 341 0010 B707013E 		li	a5,1040252928
 342              		.loc 1 405 37
 343 0014 0D47     		li	a4,3
 344 0016 98C3     		sw	a4,0(a5)
 406:../src/platform/mpfs_hal/common/nwc/mss_pll.c ****     MSS_SCB_MSS_PLL->SOFT_RESET     = PLL_INIT_AND_OUT_OF_RESET;
 345              		.loc 1 406 20
 346 0018 B717003E 		li	a5,1040191488
 347              		.loc 1 406 37
 348 001c 0D47     		li	a4,3
 349 001e 98C3     		sw	a4,0(a5)
 407:../src/platform/mpfs_hal/common/nwc/mss_pll.c **** 
 408:../src/platform/mpfs_hal/common/nwc/mss_pll.c ****     /*
 409:../src/platform/mpfs_hal/common/nwc/mss_pll.c ****         Enable the PLL by removing the reset-
 410:../src/platform/mpfs_hal/common/nwc/mss_pll.c ****         PERIPH / periph_reset_b  - This asserts the functional reset of the
 411:../src/platform/mpfs_hal/common/nwc/mss_pll.c ****             block.
 412:../src/platform/mpfs_hal/common/nwc/mss_pll.c ****         It is asserted at power up. When written is stays asserted until written
 413:../src/platform/mpfs_hal/common/nwc/mss_pll.c ****         to 0.
 414:../src/platform/mpfs_hal/common/nwc/mss_pll.c ****     */
 415:../src/platform/mpfs_hal/common/nwc/mss_pll.c ****     /*
 416:../src/platform/mpfs_hal/common/nwc/mss_pll.c ****      * 4. c.    MSS Processor writes new parameters to the MSS PLL
 417:../src/platform/mpfs_hal/common/nwc/mss_pll.c ****      */
 418:../src/platform/mpfs_hal/common/nwc/mss_pll.c ****     /*
 419:../src/platform/mpfs_hal/common/nwc/mss_pll.c ****      *  [0] REG_BYPASS_GO_B
 420:../src/platform/mpfs_hal/common/nwc/mss_pll.c ****      *  [0] BYPCK_SEL
 421:../src/platform/mpfs_hal/common/nwc/mss_pll.c ****      *  [0] RESETONLOCK
 422:../src/platform/mpfs_hal/common/nwc/mss_pll.c ****      *  [0] REG_RFCLK_SEL
 423:../src/platform/mpfs_hal/common/nwc/mss_pll.c ****      *  [0] REG_DIVQ3_EN
 424:../src/platform/mpfs_hal/common/nwc/mss_pll.c ****      *  [0] REG_DIVQ2_EN
 425:../src/platform/mpfs_hal/common/nwc/mss_pll.c ****      *  [0] REG_DIVQ1_EN
 426:../src/platform/mpfs_hal/common/nwc/mss_pll.c ****      *  [0] REG_DIVQ0_EN
 427:../src/platform/mpfs_hal/common/nwc/mss_pll.c ****      *  [0] REG_RFDIV_EN
 428:../src/platform/mpfs_hal/common/nwc/mss_pll.c ****      *  [0] REG_POWERDOWN_B
 429:../src/platform/mpfs_hal/common/nwc/mss_pll.c ****      */
 430:../src/platform/mpfs_hal/common/nwc/mss_pll.c **** 
 431:../src/platform/mpfs_hal/common/nwc/mss_pll.c ****     MSS_SCB_MSS_PLL->PLL_CTRL       = LIBERO_SETTING_MSS_PLL_CTRL & ~(PLL_CTRL_REG_POWERDOWN_B_MASK
 350              		.loc 1 431 20
 351 0020 B717003E 		li	a5,1040191488
 352              		.loc 1 431 37
 353 0024 37070001 		li	a4,16777216
 354 0028 13076703 		addi	a4,a4,54
 355 002c D8C3     		sw	a4,4(a5)
 432:../src/platform/mpfs_hal/common/nwc/mss_pll.c **** 
 433:../src/platform/mpfs_hal/common/nwc/mss_pll.c ****     /*
 434:../src/platform/mpfs_hal/common/nwc/mss_pll.c ****      * PLL calibration register
 435:../src/platform/mpfs_hal/common/nwc/mss_pll.c ****      * This value is factory set, do not overwrite
 436:../src/platform/mpfs_hal/common/nwc/mss_pll.c ****      * MSS_SCB_MSS_PLL->PLL_CAL        = LIBERO_SETTING_MSS_PLL_CAL;
 437:../src/platform/mpfs_hal/common/nwc/mss_pll.c ****      *
 438:../src/platform/mpfs_hal/common/nwc/mss_pll.c ****      */
 439:../src/platform/mpfs_hal/common/nwc/mss_pll.c **** 
 440:../src/platform/mpfs_hal/common/nwc/mss_pll.c ****     MSS_SCB_MSS_PLL->PLL_REF_FB     = LIBERO_SETTING_MSS_PLL_REF_FB;
 356              		.loc 1 440 20
 357 002e B717003E 		li	a5,1040191488
 358              		.loc 1 440 37
 359 0032 13070050 		li	a4,1280
 360 0036 98C7     		sw	a4,8(a5)
 441:../src/platform/mpfs_hal/common/nwc/mss_pll.c **** 
 442:../src/platform/mpfs_hal/common/nwc/mss_pll.c ****     MSS_SCB_MSS_PLL->PLL_DIV_0_1    = LIBERO_SETTING_MSS_PLL_DIV_0_1;
 361              		.loc 1 442 20
 362 0038 B717003E 		li	a5,1040191488
 363              		.loc 1 442 37
 364 003c 37070001 		li	a4,16777216
 365 0040 13070710 		addi	a4,a4,256
 366 0044 98CB     		sw	a4,16(a5)
 443:../src/platform/mpfs_hal/common/nwc/mss_pll.c **** 
 444:../src/platform/mpfs_hal/common/nwc/mss_pll.c ****     MSS_SCB_MSS_PLL->PLL_DIV_2_3    = LIBERO_SETTING_MSS_PLL_DIV_2_3;
 367              		.loc 1 444 20
 368 0046 B717003E 		li	a5,1040191488
 369              		.loc 1 444 37
 370 004a 3707004B 		li	a4,1258291200
 371 004e 13070730 		addi	a4,a4,768
 372 0052 D8CB     		sw	a4,20(a5)
 445:../src/platform/mpfs_hal/common/nwc/mss_pll.c **** 
 446:../src/platform/mpfs_hal/common/nwc/mss_pll.c ****     MSS_SCB_MSS_PLL->PLL_CTRL2      = LIBERO_SETTING_MSS_PLL_CTRL2;
 373              		.loc 1 446 20
 374 0054 B717003E 		li	a5,1040191488
 375              		.loc 1 446 37
 376 0058 0567     		li	a4,4096
 377 005a 13070702 		addi	a4,a4,32
 378 005e 98CF     		sw	a4,24(a5)
 447:../src/platform/mpfs_hal/common/nwc/mss_pll.c **** 
 448:../src/platform/mpfs_hal/common/nwc/mss_pll.c ****     MSS_SCB_MSS_PLL->PLL_FRACN      = LIBERO_SETTING_MSS_PLL_FRACN;
 379              		.loc 1 448 20
 380 0060 B717003E 		li	a5,1040191488
 381              		.loc 1 448 37
 382 0064 23A60700 		sw	zero,12(a5)
 449:../src/platform/mpfs_hal/common/nwc/mss_pll.c ****     MSS_SCB_MSS_PLL->SSCG_REG_0     = LIBERO_SETTING_MSS_SSCG_REG_0;
 383              		.loc 1 449 20
 384 0068 B717003E 		li	a5,1040191488
 385              		.loc 1 449 37
 386 006c 23A20702 		sw	zero,36(a5)
 450:../src/platform/mpfs_hal/common/nwc/mss_pll.c ****     MSS_SCB_MSS_PLL->SSCG_REG_1     = LIBERO_SETTING_MSS_SSCG_REG_1;
 387              		.loc 1 450 20
 388 0070 B717003E 		li	a5,1040191488
 389              		.loc 1 450 37
 390 0074 23A40702 		sw	zero,40(a5)
 451:../src/platform/mpfs_hal/common/nwc/mss_pll.c **** 
 452:../src/platform/mpfs_hal/common/nwc/mss_pll.c ****     MSS_SCB_MSS_PLL->SSCG_REG_2     = LIBERO_SETTING_MSS_SSCG_REG_2;
 391              		.loc 1 452 20
 392 0078 B717003E 		li	a5,1040191488
 393              		.loc 1 452 37
 394 007c 13070006 		li	a4,96
 395 0080 D8D7     		sw	a4,44(a5)
 453:../src/platform/mpfs_hal/common/nwc/mss_pll.c ****     MSS_SCB_MSS_PLL->SSCG_REG_3     = LIBERO_SETTING_MSS_SSCG_REG_3;
 396              		.loc 1 453 20
 397 0082 B717003E 		li	a5,1040191488
 398              		.loc 1 453 37
 399 0086 0547     		li	a4,1
 400 0088 98DB     		sw	a4,48(a5)
 454:../src/platform/mpfs_hal/common/nwc/mss_pll.c **** 
 455:../src/platform/mpfs_hal/common/nwc/mss_pll.c ****     /* PLL phase registers */
 456:../src/platform/mpfs_hal/common/nwc/mss_pll.c ****     MSS_SCB_MSS_PLL->PLL_PHADJ      = LIBERO_SETTING_MSS_PLL_PHADJ;
 401              		.loc 1 456 20
 402 008a B717003E 		li	a5,1040191488
 403              		.loc 1 456 37
 404 008e 1167     		li	a4,16384
 405 0090 0D07     		addi	a4,a4,3
 406 0092 98D3     		sw	a4,32(a5)
 457:../src/platform/mpfs_hal/common/nwc/mss_pll.c **** 
 458:../src/platform/mpfs_hal/common/nwc/mss_pll.c ****     /*
 459:../src/platform/mpfs_hal/common/nwc/mss_pll.c ****      * 5)   MSS Processor writes powerdown_int_b=1
 460:../src/platform/mpfs_hal/common/nwc/mss_pll.c ****      *      Start up the PLL with NEW parameters.
 461:../src/platform/mpfs_hal/common/nwc/mss_pll.c ****             Wait for LOCK
 462:../src/platform/mpfs_hal/common/nwc/mss_pll.c ****      */
 463:../src/platform/mpfs_hal/common/nwc/mss_pll.c ****     mss_mux_pre_mss_pll_config(); /* feed required inputs */
 407              		.loc 1 463 5
 408 0094 97000000 		call	mss_mux_pre_mss_pll_config
 408      E7800000 
 464:../src/platform/mpfs_hal/common/nwc/mss_pll.c ****     /* bit 0 == REG_POWERDOWN_B */
 465:../src/platform/mpfs_hal/common/nwc/mss_pll.c ****     MSS_SCB_MSS_PLL->PLL_CTRL       = (LIBERO_SETTING_MSS_PLL_CTRL) | 0x01U;
 409              		.loc 1 465 20
 410 009c B717003E 		li	a5,1040191488
 411              		.loc 1 465 37
 412 00a0 37070001 		li	a4,16777216
 413 00a4 13077703 		addi	a4,a4,55
 414 00a8 D8C3     		sw	a4,4(a5)
 466:../src/platform/mpfs_hal/common/nwc/mss_pll.c ****     /*
 467:../src/platform/mpfs_hal/common/nwc/mss_pll.c ****      * Start up the PLL with NEW parameters.
 468:../src/platform/mpfs_hal/common/nwc/mss_pll.c ****      * Wait for LOCK
 469:../src/platform/mpfs_hal/common/nwc/mss_pll.c ****      *  todo: make wait clock based
 470:../src/platform/mpfs_hal/common/nwc/mss_pll.c ****      */
 471:../src/platform/mpfs_hal/common/nwc/mss_pll.c ****     volatile uint32_t timer_out=0x00FFFFFFU;
 415              		.loc 1 471 23
 416 00aa B7070001 		li	a5,16777216
 417 00ae FD17     		addi	a5,a5,-1
 418 00b0 2326F4FE 		sw	a5,-20(s0)
 472:../src/platform/mpfs_hal/common/nwc/mss_pll.c ****     while((MSS_SCB_MSS_PLL->PLL_CTRL & PLL_CTRL_LOCK_BIT) == 0U)
 419              		.loc 1 472 10
 420 00b4 35A0     		j	.L12
 421              	.L14:
 473:../src/platform/mpfs_hal/common/nwc/mss_pll.c ****     {
 474:../src/platform/mpfs_hal/common/nwc/mss_pll.c **** #ifdef RENODE_DEBUG
 475:../src/platform/mpfs_hal/common/nwc/mss_pll.c ****         break;
 476:../src/platform/mpfs_hal/common/nwc/mss_pll.c **** #endif
 477:../src/platform/mpfs_hal/common/nwc/mss_pll.c ****         if (timer_out != 0U)
 422              		.loc 1 477 23
 423 00b6 8327C4FE 		lw	a5,-20(s0)
 424 00ba 8127     		sext.w	a5,a5
 425              		.loc 1 477 12
 426 00bc 89CB     		beq	a5,zero,.L13
 478:../src/platform/mpfs_hal/common/nwc/mss_pll.c ****         {
 479:../src/platform/mpfs_hal/common/nwc/mss_pll.c ****             timer_out--;
 427              		.loc 1 479 22
 428 00be 8327C4FE 		lw	a5,-20(s0)
 429 00c2 8127     		sext.w	a5,a5
 430 00c4 FD37     		addiw	a5,a5,-1
 431 00c6 8127     		sext.w	a5,a5
 432 00c8 2326F4FE 		sw	a5,-20(s0)
 433 00cc 11A8     		j	.L12
 434              	.L13:
 480:../src/platform/mpfs_hal/common/nwc/mss_pll.c ****         }
 481:../src/platform/mpfs_hal/common/nwc/mss_pll.c ****         else
 482:../src/platform/mpfs_hal/common/nwc/mss_pll.c ****         {
 483:../src/platform/mpfs_hal/common/nwc/mss_pll.c ****             timer_out=0x00FFFFFFU;
 435              		.loc 1 483 22
 436 00ce B7070001 		li	a5,16777216
 437 00d2 FD17     		addi	a5,a5,-1
 438 00d4 2326F4FE 		sw	a5,-20(s0)
 484:../src/platform/mpfs_hal/common/nwc/mss_pll.c ****             flag_mss_pll_lock_error();
 439              		.loc 1 484 13
 440 00d8 97000000 		call	flag_mss_pll_lock_error
 440      E7800000 
 441              	.L12:
 472:../src/platform/mpfs_hal/common/nwc/mss_pll.c ****     {
 442              		.loc 1 472 27
 443 00e0 B717003E 		li	a5,1040191488
 444 00e4 DC43     		lw	a5,4(a5)
 445 00e6 8127     		sext.w	a5,a5
 472:../src/platform/mpfs_hal/common/nwc/mss_pll.c ****     {
 446              		.loc 1 472 38
 447 00e8 3E87     		mv	a4,a5
 448 00ea B7070002 		li	a5,33554432
 449 00ee F98F     		and	a5,a4,a5
 450 00f0 8127     		sext.w	a5,a5
 472:../src/platform/mpfs_hal/common/nwc/mss_pll.c ****     {
 451              		.loc 1 472 10
 452 00f2 F1D3     		beq	a5,zero,.L14
 485:../src/platform/mpfs_hal/common/nwc/mss_pll.c ****         }
 486:../src/platform/mpfs_hal/common/nwc/mss_pll.c ****     }
 487:../src/platform/mpfs_hal/common/nwc/mss_pll.c **** 
 488:../src/platform/mpfs_hal/common/nwc/mss_pll.c ****     /*
 489:../src/platform/mpfs_hal/common/nwc/mss_pll.c ****      * 6)   MSS Processor enables all 4 PLL outputs.
 490:../src/platform/mpfs_hal/common/nwc/mss_pll.c ****      * 7)   MSS Processor writes mssclk_mux_sel_int<0>=1 to select the MSS PLL
 491:../src/platform/mpfs_hal/common/nwc/mss_pll.c ****      *      clock.
 492:../src/platform/mpfs_hal/common/nwc/mss_pll.c ****      */
 493:../src/platform/mpfs_hal/common/nwc/mss_pll.c ****     mss_mux_post_mss_pll_config();
 453              		.loc 1 493 5
 454 00f4 97000000 		call	mss_mux_post_mss_pll_config
 454      E7800000 
 494:../src/platform/mpfs_hal/common/nwc/mss_pll.c **** }
 455              		.loc 1 494 1
 456 00fc 0100     		nop
 457 00fe E260     		ld	ra,24(sp)
 458              		.cfi_restore 1
 459 0100 4264     		ld	s0,16(sp)
 460              		.cfi_restore 8
 461              		.cfi_def_cfa 2, 32
 462 0102 0561     		addi	sp,sp,32
 463              		.cfi_def_cfa_offset 0
 464 0104 8280     		jr	ra
 465              		.cfi_endproc
 466              	.LFE23:
 468              		.section	.text.flag_mss_pll_lock_error,"ax",@progbits
 469              		.align	1
 470              		.weak	flag_mss_pll_lock_error
 472              	flag_mss_pll_lock_error:
 473              	.LFB24:
 495:../src/platform/mpfs_hal/common/nwc/mss_pll.c **** 
 496:../src/platform/mpfs_hal/common/nwc/mss_pll.c **** /**
 497:../src/platform/mpfs_hal/common/nwc/mss_pll.c ****  * flag_mss_pll_lock_error(void)
 498:../src/platform/mpfs_hal/common/nwc/mss_pll.c ****  *
 499:../src/platform/mpfs_hal/common/nwc/mss_pll.c ****  * Implement platform specific function for lock failure feedback
 500:../src/platform/mpfs_hal/common/nwc/mss_pll.c ****  *
 501:../src/platform/mpfs_hal/common/nwc/mss_pll.c ****  */
 502:../src/platform/mpfs_hal/common/nwc/mss_pll.c **** __attribute__((weak)) void flag_mss_pll_lock_error(void)
 503:../src/platform/mpfs_hal/common/nwc/mss_pll.c **** {
 474              		.loc 1 503 1
 475              		.cfi_startproc
 476 0000 4111     		addi	sp,sp,-16
 477              		.cfi_def_cfa_offset 16
 478 0002 22E4     		sd	s0,8(sp)
 479              		.cfi_offset 8, -8
 480 0004 0008     		addi	s0,sp,16
 481              		.cfi_def_cfa 8, 0
 504:../src/platform/mpfs_hal/common/nwc/mss_pll.c ****     ASSERT(0U);
 482              		.loc 1 504 5
 483              	 #APP
 484              	# 504 "../src/platform/mpfs_hal/common/nwc/mss_pll.c" 1
 505              	}
 485              		ebreak
 486              	# 0 "" 2
 487              		.loc 1 505 1
 488              	 #NO_APP
 489 0008 0100     		nop
 490 000a 2264     		ld	s0,8(sp)
 491              		.cfi_restore 8
 492              		.cfi_def_cfa 2, 16
 493 000c 4101     		addi	sp,sp,16
 494              		.cfi_def_cfa_offset 0
 495 000e 8280     		jr	ra
 496              		.cfi_endproc
 497              	.LFE24:
 499              		.section	.text.ddr_pll_config,"ax",@progbits
 500              		.align	1
 501              		.globl	ddr_pll_config
 503              	ddr_pll_config:
 504              	.LFB25:
 506:../src/platform/mpfs_hal/common/nwc/mss_pll.c **** 
 507:../src/platform/mpfs_hal/common/nwc/mss_pll.c **** /**
 508:../src/platform/mpfs_hal/common/nwc/mss_pll.c ****  *
 509:../src/platform/mpfs_hal/common/nwc/mss_pll.c ****  * @param option choose between SCB or RPC and soft reset  update method.
 510:../src/platform/mpfs_hal/common/nwc/mss_pll.c ****  */
 511:../src/platform/mpfs_hal/common/nwc/mss_pll.c **** void ddr_pll_config(REG_LOAD_METHOD option)
 512:../src/platform/mpfs_hal/common/nwc/mss_pll.c **** {
 505              		.loc 1 512 1
 506              		.cfi_startproc
 507 0000 0111     		addi	sp,sp,-32
 508              		.cfi_def_cfa_offset 32
 509 0002 22EC     		sd	s0,24(sp)
 510              		.cfi_offset 8, -8
 511 0004 0010     		addi	s0,sp,32
 512              		.cfi_def_cfa 8, 0
 513 0006 AA87     		mv	a5,a0
 514 0008 2326F4FE 		sw	a5,-20(s0)
 513:../src/platform/mpfs_hal/common/nwc/mss_pll.c **** 
 514:../src/platform/mpfs_hal/common/nwc/mss_pll.c ****     switch(option)
 515              		.loc 1 514 5
 516 000c 8327C4FE 		lw	a5,-20(s0)
 517 0010 1B870700 		sext.w	a4,a5
 518 0014 8547     		li	a5,1
 519 0016 6308F708 		beq	a4,a5,.L17
 515:../src/platform/mpfs_hal/common/nwc/mss_pll.c ****     {
 516:../src/platform/mpfs_hal/common/nwc/mss_pll.c ****         default:
 517:../src/platform/mpfs_hal/common/nwc/mss_pll.c ****         case SCB_UPDATE:   /* write to   SCB register */
 518:../src/platform/mpfs_hal/common/nwc/mss_pll.c ****             /* PERIPH / periph_reset_b  - This asserts the functional reset of
 519:../src/platform/mpfs_hal/common/nwc/mss_pll.c ****              * the block. It is asserted at power up. When written is stays
 520:../src/platform/mpfs_hal/common/nwc/mss_pll.c ****              * asserted until written to 0.
 521:../src/platform/mpfs_hal/common/nwc/mss_pll.c ****              * First set periph_reset_b, than remove reset. As may be called
 522:../src/platform/mpfs_hal/common/nwc/mss_pll.c ****              * more than one.
 523:../src/platform/mpfs_hal/common/nwc/mss_pll.c ****              * */
 524:../src/platform/mpfs_hal/common/nwc/mss_pll.c ****             MSS_SCB_DDR_PLL->SOFT_RESET       = PLL_INIT_AND_OUT_OF_RESET;
 520              		.loc 1 524 28
 521 001a B707013E 		li	a5,1040252928
 522              		.loc 1 524 47
 523 001e 0D47     		li	a4,3
 524 0020 98C3     		sw	a4,0(a5)
 525:../src/platform/mpfs_hal/common/nwc/mss_pll.c **** 
 526:../src/platform/mpfs_hal/common/nwc/mss_pll.c ****             MSS_SCB_DDR_PLL->PLL_CTRL         = LIBERO_SETTING_DDR_PLL_CTRL & ~(PLL_CTRL_REG_POWERD
 525              		.loc 1 526 28
 526 0022 B707013E 		li	a5,1040252928
 527              		.loc 1 526 47
 528 0026 37070001 		li	a4,16777216
 529 002a 1307E703 		addi	a4,a4,62
 530 002e D8C3     		sw	a4,4(a5)
 527:../src/platform/mpfs_hal/common/nwc/mss_pll.c ****             /* PLL calibration register */
 528:../src/platform/mpfs_hal/common/nwc/mss_pll.c **** 
 529:../src/platform/mpfs_hal/common/nwc/mss_pll.c ****             /*
 530:../src/platform/mpfs_hal/common/nwc/mss_pll.c ****              * PLL calibration register
 531:../src/platform/mpfs_hal/common/nwc/mss_pll.c ****              * This value is factory set, do not overwrite
 532:../src/platform/mpfs_hal/common/nwc/mss_pll.c ****              * MSS_SCB_DDR_PLL->PLL_CAL        = LIBERO_SETTING_MSS_PLL_CAL;
 533:../src/platform/mpfs_hal/common/nwc/mss_pll.c ****              *
 534:../src/platform/mpfs_hal/common/nwc/mss_pll.c ****              */
 535:../src/platform/mpfs_hal/common/nwc/mss_pll.c **** 
 536:../src/platform/mpfs_hal/common/nwc/mss_pll.c ****             MSS_SCB_DDR_PLL->PLL_REF_FB    = LIBERO_SETTING_DDR_PLL_REF_FB;
 531              		.loc 1 536 28
 532 0030 B707013E 		li	a5,1040252928
 533              		.loc 1 536 44
 534 0034 13070050 		li	a4,1280
 535 0038 98C7     		sw	a4,8(a5)
 537:../src/platform/mpfs_hal/common/nwc/mss_pll.c **** 
 538:../src/platform/mpfs_hal/common/nwc/mss_pll.c **** 
 539:../src/platform/mpfs_hal/common/nwc/mss_pll.c ****             MSS_SCB_DDR_PLL->PLL_DIV_0_1   = LIBERO_SETTING_DDR_PLL_DIV_0_1;
 536              		.loc 1 539 28
 537 003a B707013E 		li	a5,1040252928
 538              		.loc 1 539 44
 539 003e 37070002 		li	a4,33554432
 540 0042 13070710 		addi	a4,a4,256
 541 0046 98CB     		sw	a4,16(a5)
 540:../src/platform/mpfs_hal/common/nwc/mss_pll.c **** 
 541:../src/platform/mpfs_hal/common/nwc/mss_pll.c ****             MSS_SCB_DDR_PLL->PLL_DIV_2_3   = LIBERO_SETTING_DDR_PLL_DIV_2_3;
 542              		.loc 1 541 28
 543 0048 B707013E 		li	a5,1040252928
 544              		.loc 1 541 44
 545 004c 37070001 		li	a4,16777216
 546 0050 13070710 		addi	a4,a4,256
 547 0054 D8CB     		sw	a4,20(a5)
 542:../src/platform/mpfs_hal/common/nwc/mss_pll.c **** 
 543:../src/platform/mpfs_hal/common/nwc/mss_pll.c **** 
 544:../src/platform/mpfs_hal/common/nwc/mss_pll.c ****             MSS_SCB_DDR_PLL->PLL_CTRL2     = LIBERO_SETTING_DDR_PLL_CTRL2;
 548              		.loc 1 544 28
 549 0056 B707013E 		li	a5,1040252928
 550              		.loc 1 544 44
 551 005a 0567     		li	a4,4096
 552 005c 13070702 		addi	a4,a4,32
 553 0060 98CF     		sw	a4,24(a5)
 545:../src/platform/mpfs_hal/common/nwc/mss_pll.c **** 
 546:../src/platform/mpfs_hal/common/nwc/mss_pll.c ****             MSS_SCB_DDR_PLL->PLL_FRACN     = LIBERO_SETTING_DDR_PLL_FRACN;
 554              		.loc 1 546 28
 555 0062 B707013E 		li	a5,1040252928
 556              		.loc 1 546 44
 557 0066 23A60700 		sw	zero,12(a5)
 547:../src/platform/mpfs_hal/common/nwc/mss_pll.c ****             MSS_SCB_DDR_PLL->SSCG_REG_0    = LIBERO_SETTING_DDR_SSCG_REG_0;
 558              		.loc 1 547 28
 559 006a B707013E 		li	a5,1040252928
 560              		.loc 1 547 44
 561 006e 23A20702 		sw	zero,36(a5)
 548:../src/platform/mpfs_hal/common/nwc/mss_pll.c ****             MSS_SCB_DDR_PLL->SSCG_REG_1    = LIBERO_SETTING_DDR_SSCG_REG_1;
 562              		.loc 1 548 28
 563 0072 B707013E 		li	a5,1040252928
 564              		.loc 1 548 44
 565 0076 23A40702 		sw	zero,40(a5)
 549:../src/platform/mpfs_hal/common/nwc/mss_pll.c **** 
 550:../src/platform/mpfs_hal/common/nwc/mss_pll.c ****             MSS_SCB_DDR_PLL->SSCG_REG_2    = LIBERO_SETTING_DDR_SSCG_REG_2;
 566              		.loc 1 550 28
 567 007a B707013E 		li	a5,1040252928
 568              		.loc 1 550 44
 569 007e 13070008 		li	a4,128
 570 0082 D8D7     		sw	a4,44(a5)
 551:../src/platform/mpfs_hal/common/nwc/mss_pll.c ****             MSS_SCB_DDR_PLL->SSCG_REG_3    = LIBERO_SETTING_DDR_SSCG_REG_3;
 571              		.loc 1 551 28
 572 0084 B707013E 		li	a5,1040252928
 573              		.loc 1 551 44
 574 0088 0547     		li	a4,1
 575 008a 98DB     		sw	a4,48(a5)
 552:../src/platform/mpfs_hal/common/nwc/mss_pll.c **** 
 553:../src/platform/mpfs_hal/common/nwc/mss_pll.c ****             /* PLL phase registers */
 554:../src/platform/mpfs_hal/common/nwc/mss_pll.c **** 
 555:../src/platform/mpfs_hal/common/nwc/mss_pll.c ****             MSS_SCB_DDR_PLL->PLL_PHADJ     = LIBERO_SETTING_MSS_PLL_PHADJ;
 576              		.loc 1 555 28
 577 008c B707013E 		li	a5,1040252928
 578              		.loc 1 555 44
 579 0090 1167     		li	a4,16384
 580 0092 0D07     		addi	a4,a4,3
 581 0094 98D3     		sw	a4,32(a5)
 556:../src/platform/mpfs_hal/common/nwc/mss_pll.c **** 
 557:../src/platform/mpfs_hal/common/nwc/mss_pll.c ****             MSS_SCB_DDR_PLL->PLL_CTRL      = (LIBERO_SETTING_DDR_PLL_CTRL)\
 582              		.loc 1 557 28
 583 0096 B707013E 		li	a5,1040252928
 584              		.loc 1 557 44
 585 009a 37070001 		li	a4,16777216
 586 009e 1307F703 		addi	a4,a4,63
 587 00a2 D8C3     		sw	a4,4(a5)
 558:../src/platform/mpfs_hal/common/nwc/mss_pll.c ****                     | 0x01U;  /* bit 0 == REG_POWERDOWN_B */
 559:../src/platform/mpfs_hal/common/nwc/mss_pll.c **** 
 560:../src/platform/mpfs_hal/common/nwc/mss_pll.c ****             break;
 588              		.loc 1 560 13
 589 00a4 61A8     		j	.L18
 590              	.L17:
 561:../src/platform/mpfs_hal/common/nwc/mss_pll.c **** 
 562:../src/platform/mpfs_hal/common/nwc/mss_pll.c ****         case RPC_REG_UPDATE:
 563:../src/platform/mpfs_hal/common/nwc/mss_pll.c ****             /* CFG_DDR_SGMII_PHY->SOFT_RESET_MAIN_PLL; */
 564:../src/platform/mpfs_hal/common/nwc/mss_pll.c ****             CFG_DDR_SGMII_PHY->PLL_CTRL_MAIN.PLL_CTRL_MAIN        =\
 591              		.loc 1 564 30
 592 00a6 97070000 		lla	a5,CFG_DDR_SGMII_PHY
 592      93870700 
 593 00ae 9C63     		ld	a5,0(a5)
 594              		.loc 1 564 67
 595 00b0 37070001 		li	a4,16777216
 596 00b4 1307F703 		addi	a4,a4,63
 597 00b8 23A2E708 		sw	a4,132(a5)
 565:../src/platform/mpfs_hal/common/nwc/mss_pll.c ****                                         LIBERO_SETTING_DDR_PLL_CTRL | 0x01U;
 566:../src/platform/mpfs_hal/common/nwc/mss_pll.c ****             CFG_DDR_SGMII_PHY->PLL_REF_FB_MAIN.PLL_REF_FB_MAIN      =\
 598              		.loc 1 566 30
 599 00bc 97070000 		lla	a5,CFG_DDR_SGMII_PHY
 599      93870700 
 600 00c4 9C63     		ld	a5,0(a5)
 601              		.loc 1 566 69
 602 00c6 13070050 		li	a4,1280
 603 00ca 23A4E708 		sw	a4,136(a5)
 567:../src/platform/mpfs_hal/common/nwc/mss_pll.c ****                                                 LIBERO_SETTING_DDR_PLL_REF_FB;
 568:../src/platform/mpfs_hal/common/nwc/mss_pll.c ****             /* Read only in RPC
 569:../src/platform/mpfs_hal/common/nwc/mss_pll.c ****              * CFG_DDR_SGMII_PHY->PLL_FRACN_MAIN.PLL_FRACN_MAIN      =\
 570:../src/platform/mpfs_hal/common/nwc/mss_pll.c ****              *  LIBERO_SETTING_DDR_PLL_FRACN; */
 571:../src/platform/mpfs_hal/common/nwc/mss_pll.c ****             CFG_DDR_SGMII_PHY->PLL_DIV_0_1_MAIN.PLL_DIV_0_1_MAIN    =\
 604              		.loc 1 571 30
 605 00ce 97070000 		lla	a5,CFG_DDR_SGMII_PHY
 605      93870700 
 606 00d6 9C63     		ld	a5,0(a5)
 607              		.loc 1 571 69
 608 00d8 37070002 		li	a4,33554432
 609 00dc 13070710 		addi	a4,a4,256
 610 00e0 23A8E708 		sw	a4,144(a5)
 572:../src/platform/mpfs_hal/common/nwc/mss_pll.c ****                                                 LIBERO_SETTING_DDR_PLL_DIV_0_1;
 573:../src/platform/mpfs_hal/common/nwc/mss_pll.c ****             CFG_DDR_SGMII_PHY->PLL_DIV_2_3_MAIN.PLL_DIV_2_3_MAIN  =\
 611              		.loc 1 573 30
 612 00e4 97070000 		lla	a5,CFG_DDR_SGMII_PHY
 612      93870700 
 613 00ec 9C63     		ld	a5,0(a5)
 614              		.loc 1 573 67
 615 00ee 37070001 		li	a4,16777216
 616 00f2 13070710 		addi	a4,a4,256
 617 00f6 23AAE708 		sw	a4,148(a5)
 574:../src/platform/mpfs_hal/common/nwc/mss_pll.c ****                                                 LIBERO_SETTING_DDR_PLL_DIV_2_3;
 575:../src/platform/mpfs_hal/common/nwc/mss_pll.c ****             CFG_DDR_SGMII_PHY->PLL_CTRL2_MAIN.PLL_CTRL2_MAIN      =\
 618              		.loc 1 575 30
 619 00fa 97070000 		lla	a5,CFG_DDR_SGMII_PHY
 619      93870700 
 620 0102 9C63     		ld	a5,0(a5)
 621              		.loc 1 575 67
 622 0104 0567     		li	a4,4096
 623 0106 13070702 		addi	a4,a4,32
 624 010a 23ACE708 		sw	a4,152(a5)
 576:../src/platform/mpfs_hal/common/nwc/mss_pll.c ****                                                    LIBERO_SETTING_DDR_PLL_CTRL2;
 577:../src/platform/mpfs_hal/common/nwc/mss_pll.c ****             /* Read only in RPC  todo: verify this is correct
 578:../src/platform/mpfs_hal/common/nwc/mss_pll.c ****              * CFG_DDR_SGMII_PHY->PLL_CAL_MAIN.PLL_CAL_MAIN  =\
 579:../src/platform/mpfs_hal/common/nwc/mss_pll.c ****              *                                   LIBERO_SETTING_DDR_PLL_CAL; */
 580:../src/platform/mpfs_hal/common/nwc/mss_pll.c ****             CFG_DDR_SGMII_PHY->PLL_PHADJ_MAIN.PLL_PHADJ_MAIN      =\
 625              		.loc 1 580 30
 626 010e 97070000 		lla	a5,CFG_DDR_SGMII_PHY
 626      93870700 
 627 0116 9C63     		ld	a5,0(a5)
 628              		.loc 1 580 67
 629 0118 1567     		li	a4,20480
 630 011a 0D07     		addi	a4,a4,3
 631 011c 23A0E70A 		sw	a4,160(a5)
 581:../src/platform/mpfs_hal/common/nwc/mss_pll.c ****                                                    LIBERO_SETTING_DDR_PLL_PHADJ;
 582:../src/platform/mpfs_hal/common/nwc/mss_pll.c ****             /*__I  CFG_DDR_SGMII_PHY_SSCG_REG_0_MAIN_TypeDef SSCG_REG_0_MAIN; */
 583:../src/platform/mpfs_hal/common/nwc/mss_pll.c ****             /*__I  CFG_DDR_SGMII_PHY_SSCG_REG_1_MAIN_TypeDef SSCG_REG_1_MAIN; */
 584:../src/platform/mpfs_hal/common/nwc/mss_pll.c ****             CFG_DDR_SGMII_PHY->SSCG_REG_2_MAIN.SSCG_REG_2_MAIN       =\
 632              		.loc 1 584 30
 633 0120 97070000 		lla	a5,CFG_DDR_SGMII_PHY
 633      93870700 
 634 0128 9C63     		ld	a5,0(a5)
 635              		.loc 1 584 70
 636 012a 13070008 		li	a4,128
 637 012e 23A6E70A 		sw	a4,172(a5)
 585:../src/platform/mpfs_hal/common/nwc/mss_pll.c ****                                                 LIBERO_SETTING_DDR_SSCG_REG_2;
 586:../src/platform/mpfs_hal/common/nwc/mss_pll.c ****             /*__I  CFG_DDR_SGMII_PHY_SSCG_REG_3_MAIN_TypeDef SSCG_REG_3_MAIN; */
 587:../src/platform/mpfs_hal/common/nwc/mss_pll.c ****             /*
 588:../src/platform/mpfs_hal/common/nwc/mss_pll.c ****              * set the NV map reset
 589:../src/platform/mpfs_hal/common/nwc/mss_pll.c ****              * This will load the APB registers, set via SGMII TIP.
 590:../src/platform/mpfs_hal/common/nwc/mss_pll.c ****              * */
 591:../src/platform/mpfs_hal/common/nwc/mss_pll.c ****             /* bit 0 == REG_POWERDOWN_B */
 592:../src/platform/mpfs_hal/common/nwc/mss_pll.c ****             MSS_SCB_DDR_PLL->SOFT_RESET  = PLL_INIT_AND_OUT_OF_RESET;
 638              		.loc 1 592 28
 639 0132 B707013E 		li	a5,1040252928
 640              		.loc 1 592 42
 641 0136 0D47     		li	a4,3
 642 0138 98C3     		sw	a4,0(a5)
 593:../src/platform/mpfs_hal/common/nwc/mss_pll.c ****             break;
 643              		.loc 1 593 13
 644 013a 0100     		nop
 645              	.L18:
 594:../src/platform/mpfs_hal/common/nwc/mss_pll.c ****     }
 595:../src/platform/mpfs_hal/common/nwc/mss_pll.c **** }
 646              		.loc 1 595 1
 647 013c 0100     		nop
 648 013e 6264     		ld	s0,24(sp)
 649              		.cfi_restore 8
 650              		.cfi_def_cfa 2, 32
 651 0140 0561     		addi	sp,sp,32
 652              		.cfi_def_cfa_offset 0
 653 0142 8280     		jr	ra
 654              		.cfi_endproc
 655              	.LFE25:
 657              		.section	.text.ddr_pll_lock_scb,"ax",@progbits
 658              		.align	1
 659              		.globl	ddr_pll_lock_scb
 661              	ddr_pll_lock_scb:
 662              	.LFB26:
 596:../src/platform/mpfs_hal/common/nwc/mss_pll.c **** 
 597:../src/platform/mpfs_hal/common/nwc/mss_pll.c **** /**
 598:../src/platform/mpfs_hal/common/nwc/mss_pll.c ****  * ddr_pll_lock_scb(void)
 599:../src/platform/mpfs_hal/common/nwc/mss_pll.c ****  * checks to see if lock has occurred
 600:../src/platform/mpfs_hal/common/nwc/mss_pll.c ****  * @return => lock has occurred, 1=> no lock
 601:../src/platform/mpfs_hal/common/nwc/mss_pll.c ****  */
 602:../src/platform/mpfs_hal/common/nwc/mss_pll.c **** uint8_t ddr_pll_lock_scb(void)
 603:../src/platform/mpfs_hal/common/nwc/mss_pll.c **** {
 663              		.loc 1 603 1
 664              		.cfi_startproc
 665 0000 0111     		addi	sp,sp,-32
 666              		.cfi_def_cfa_offset 32
 667 0002 22EC     		sd	s0,24(sp)
 668              		.cfi_offset 8, -8
 669 0004 0010     		addi	s0,sp,32
 670              		.cfi_def_cfa 8, 0
 604:../src/platform/mpfs_hal/common/nwc/mss_pll.c ****     uint8_t result = 1U;
 671              		.loc 1 604 13
 672 0006 8547     		li	a5,1
 673 0008 A307F4FE 		sb	a5,-17(s0)
 605:../src/platform/mpfs_hal/common/nwc/mss_pll.c **** #ifndef RENODE_DEBUG
 606:../src/platform/mpfs_hal/common/nwc/mss_pll.c ****     if((MSS_SCB_DDR_PLL->PLL_CTRL & PLL_CTRL_LOCK_BIT) == PLL_CTRL_LOCK_BIT)
 674              		.loc 1 606 24
 675 000c B707013E 		li	a5,1040252928
 676 0010 DC43     		lw	a5,4(a5)
 677 0012 8127     		sext.w	a5,a5
 678              		.loc 1 606 35
 679 0014 3E87     		mv	a4,a5
 680 0016 B7070002 		li	a5,33554432
 681 001a F98F     		and	a5,a4,a5
 682 001c 8127     		sext.w	a5,a5
 683              		.loc 1 606 7
 684 001e 3E87     		mv	a4,a5
 685 0020 B7070002 		li	a5,33554432
 686 0024 6314F700 		bne	a4,a5,.L20
 607:../src/platform/mpfs_hal/common/nwc/mss_pll.c ****     {
 608:../src/platform/mpfs_hal/common/nwc/mss_pll.c ****         result = 0U; /* PLL lock has occurred */
 687              		.loc 1 608 16
 688 0028 A30704FE 		sb	zero,-17(s0)
 689              	.L20:
 609:../src/platform/mpfs_hal/common/nwc/mss_pll.c ****     }
 610:../src/platform/mpfs_hal/common/nwc/mss_pll.c **** #else
 611:../src/platform/mpfs_hal/common/nwc/mss_pll.c ****     result = 0U;
 612:../src/platform/mpfs_hal/common/nwc/mss_pll.c **** #endif
 613:../src/platform/mpfs_hal/common/nwc/mss_pll.c ****     return (result);
 690              		.loc 1 613 12
 691 002c 8347F4FE 		lbu	a5,-17(s0)
 614:../src/platform/mpfs_hal/common/nwc/mss_pll.c **** }
 692              		.loc 1 614 1
 693 0030 3E85     		mv	a0,a5
 694 0032 6264     		ld	s0,24(sp)
 695              		.cfi_restore 8
 696              		.cfi_def_cfa 2, 32
 697 0034 0561     		addi	sp,sp,32
 698              		.cfi_def_cfa_offset 0
 699 0036 8280     		jr	ra
 700              		.cfi_endproc
 701              	.LFE26:
 703              		.section	.text.ddr_pll_config_scb_turn_off,"ax",@progbits
 704              		.align	1
 705              		.globl	ddr_pll_config_scb_turn_off
 707              	ddr_pll_config_scb_turn_off:
 708              	.LFB27:
 615:../src/platform/mpfs_hal/common/nwc/mss_pll.c **** 
 616:../src/platform/mpfs_hal/common/nwc/mss_pll.c **** /***************************************************************************//**
 617:../src/platform/mpfs_hal/common/nwc/mss_pll.c ****  *
 618:../src/platform/mpfs_hal/common/nwc/mss_pll.c ****  ******************************************************************************/
 619:../src/platform/mpfs_hal/common/nwc/mss_pll.c **** void ddr_pll_config_scb_turn_off(void)
 620:../src/platform/mpfs_hal/common/nwc/mss_pll.c **** {
 709              		.loc 1 620 1
 710              		.cfi_startproc
 711 0000 4111     		addi	sp,sp,-16
 712              		.cfi_def_cfa_offset 16
 713 0002 22E4     		sd	s0,8(sp)
 714              		.cfi_offset 8, -8
 715 0004 0008     		addi	s0,sp,16
 716              		.cfi_def_cfa 8, 0
 621:../src/platform/mpfs_hal/common/nwc/mss_pll.c ****     /* PERIPH / periph_reset_b */
 622:../src/platform/mpfs_hal/common/nwc/mss_pll.c ****     MSS_SCB_DDR_PLL->PLL_CTRL       &= (uint32_t)~0x00000001UL;
 717              		.loc 1 622 37
 718 0006 B707013E 		li	a5,1040252928
 719 000a DC43     		lw	a5,4(a5)
 720 000c 1B870700 		sext.w	a4,a5
 721 0010 B707013E 		li	a5,1040252928
 722 0014 799B     		andi	a4,a4,-2
 723 0016 0127     		sext.w	a4,a4
 724 0018 D8C3     		sw	a4,4(a5)
 623:../src/platform/mpfs_hal/common/nwc/mss_pll.c **** }
 725              		.loc 1 623 1
 726 001a 0100     		nop
 727 001c 2264     		ld	s0,8(sp)
 728              		.cfi_restore 8
 729              		.cfi_def_cfa 2, 16
 730 001e 4101     		addi	sp,sp,16
 731              		.cfi_def_cfa_offset 0
 732 0020 8280     		jr	ra
 733              		.cfi_endproc
 734              	.LFE27:
 736              		.section	.text.sgmii_pll_config_scb,"ax",@progbits
 737              		.align	1
 738              		.globl	sgmii_pll_config_scb
 740              	sgmii_pll_config_scb:
 741              	.LFB28:
 624:../src/platform/mpfs_hal/common/nwc/mss_pll.c **** 
 625:../src/platform/mpfs_hal/common/nwc/mss_pll.c **** 
 626:../src/platform/mpfs_hal/common/nwc/mss_pll.c **** /***************************************************************************//**
 627:../src/platform/mpfs_hal/common/nwc/mss_pll.c ****  * sgmii_pll_config_scb(uint8_t option)
 628:../src/platform/mpfs_hal/common/nwc/mss_pll.c ****  * @param option 1 => soft reset, load RPC settings
 629:../src/platform/mpfs_hal/common/nwc/mss_pll.c ****  *               0 => write values using SCB
 630:../src/platform/mpfs_hal/common/nwc/mss_pll.c ****  ******************************************************************************/
 631:../src/platform/mpfs_hal/common/nwc/mss_pll.c **** void sgmii_pll_config_scb(uint8_t option)
 632:../src/platform/mpfs_hal/common/nwc/mss_pll.c **** {
 742              		.loc 1 632 1
 743              		.cfi_startproc
 744 0000 0111     		addi	sp,sp,-32
 745              		.cfi_def_cfa_offset 32
 746 0002 22EC     		sd	s0,24(sp)
 747              		.cfi_offset 8, -8
 748 0004 0010     		addi	s0,sp,32
 749              		.cfi_def_cfa 8, 0
 750 0006 AA87     		mv	a5,a0
 751 0008 A307F4FE 		sb	a5,-17(s0)
 633:../src/platform/mpfs_hal/common/nwc/mss_pll.c **** 
 634:../src/platform/mpfs_hal/common/nwc/mss_pll.c ****     switch(option)
 752              		.loc 1 634 5
 753 000c 8347F4FE 		lbu	a5,-17(s0)
 754 0010 8127     		sext.w	a5,a5
 755 0012 3E87     		mv	a4,a5
 756 0014 8547     		li	a5,1
 757 0016 6308F708 		beq	a4,a5,.L24
 635:../src/platform/mpfs_hal/common/nwc/mss_pll.c ****     {
 636:../src/platform/mpfs_hal/common/nwc/mss_pll.c ****         default:
 637:../src/platform/mpfs_hal/common/nwc/mss_pll.c ****         case SCB_UPDATE:   /* write to   SCB register */
 638:../src/platform/mpfs_hal/common/nwc/mss_pll.c ****             /* PERIPH / periph_reset_b  - This asserts the functional reset of
 639:../src/platform/mpfs_hal/common/nwc/mss_pll.c ****              * the block. It is asserted at power up. When written is stays
 640:../src/platform/mpfs_hal/common/nwc/mss_pll.c ****              * asserted until written to 0.
 641:../src/platform/mpfs_hal/common/nwc/mss_pll.c ****              * First set periph_reset_b, than remove reset. As may be called
 642:../src/platform/mpfs_hal/common/nwc/mss_pll.c ****              * more than one.
 643:../src/platform/mpfs_hal/common/nwc/mss_pll.c ****              * */
 644:../src/platform/mpfs_hal/common/nwc/mss_pll.c ****             MSS_SCB_SGMII_PLL->SOFT_RESET      = PLL_INIT_AND_OUT_OF_RESET;
 758              		.loc 1 644 30
 759 001a B707083E 		li	a5,1040711680
 760              		.loc 1 644 48
 761 001e 0D47     		li	a4,3
 762 0020 98C3     		sw	a4,0(a5)
 645:../src/platform/mpfs_hal/common/nwc/mss_pll.c **** 
 646:../src/platform/mpfs_hal/common/nwc/mss_pll.c ****             MSS_SCB_SGMII_PLL->PLL_CTRL      = LIBERO_SETTING_SGMII_PLL_CTRL & ~(PLL_CTRL_REG_POWER
 763              		.loc 1 646 30
 764 0022 B707083E 		li	a5,1040711680
 765              		.loc 1 646 46
 766 0026 37070001 		li	a4,16777216
 767 002a 1307E703 		addi	a4,a4,62
 768 002e D8C3     		sw	a4,4(a5)
 647:../src/platform/mpfs_hal/common/nwc/mss_pll.c ****             /* PLL calibration register */
 648:../src/platform/mpfs_hal/common/nwc/mss_pll.c **** 
 649:../src/platform/mpfs_hal/common/nwc/mss_pll.c ****             /*
 650:../src/platform/mpfs_hal/common/nwc/mss_pll.c ****              * PLL calibration register
 651:../src/platform/mpfs_hal/common/nwc/mss_pll.c ****              * This value is factory set, do not overwrite
 652:../src/platform/mpfs_hal/common/nwc/mss_pll.c ****              * MSS_SCB_SGMII_PLL->PLL_CAL        = LIBERO_SETTING_MSS_PLL_CAL;
 653:../src/platform/mpfs_hal/common/nwc/mss_pll.c ****              *
 654:../src/platform/mpfs_hal/common/nwc/mss_pll.c ****              */
 655:../src/platform/mpfs_hal/common/nwc/mss_pll.c **** 
 656:../src/platform/mpfs_hal/common/nwc/mss_pll.c ****             MSS_SCB_SGMII_PLL->PLL_REF_FB    = LIBERO_SETTING_SGMII_PLL_REF_FB;
 769              		.loc 1 656 30
 770 0030 B707083E 		li	a5,1040711680
 771              		.loc 1 656 46
 772 0034 13070010 		li	a4,256
 773 0038 98C7     		sw	a4,8(a5)
 657:../src/platform/mpfs_hal/common/nwc/mss_pll.c **** 
 658:../src/platform/mpfs_hal/common/nwc/mss_pll.c **** 
 659:../src/platform/mpfs_hal/common/nwc/mss_pll.c ****             MSS_SCB_SGMII_PLL->PLL_DIV_0_1   = LIBERO_SETTING_SGMII_PLL_DIV_0_1;
 774              		.loc 1 659 30
 775 003a B707083E 		li	a5,1040711680
 776              		.loc 1 659 46
 777 003e 37070001 		li	a4,16777216
 778 0042 13070710 		addi	a4,a4,256
 779 0046 98CB     		sw	a4,16(a5)
 660:../src/platform/mpfs_hal/common/nwc/mss_pll.c **** 
 661:../src/platform/mpfs_hal/common/nwc/mss_pll.c ****             MSS_SCB_SGMII_PLL->PLL_DIV_2_3   = LIBERO_SETTING_SGMII_PLL_DIV_2_3;
 780              		.loc 1 661 30
 781 0048 B707083E 		li	a5,1040711680
 782              		.loc 1 661 46
 783 004c 37070001 		li	a4,16777216
 784 0050 13070710 		addi	a4,a4,256
 785 0054 D8CB     		sw	a4,20(a5)
 662:../src/platform/mpfs_hal/common/nwc/mss_pll.c **** 
 663:../src/platform/mpfs_hal/common/nwc/mss_pll.c **** 
 664:../src/platform/mpfs_hal/common/nwc/mss_pll.c ****             MSS_SCB_SGMII_PLL->PLL_CTRL2     = LIBERO_SETTING_SGMII_PLL_CTRL2;
 786              		.loc 1 664 30
 787 0056 B707083E 		li	a5,1040711680
 788              		.loc 1 664 46
 789 005a 0567     		li	a4,4096
 790 005c 13070702 		addi	a4,a4,32
 791 0060 98CF     		sw	a4,24(a5)
 665:../src/platform/mpfs_hal/common/nwc/mss_pll.c **** 
 666:../src/platform/mpfs_hal/common/nwc/mss_pll.c ****             MSS_SCB_SGMII_PLL->PLL_FRACN     = LIBERO_SETTING_SGMII_PLL_FRACN;
 792              		.loc 1 666 30
 793 0062 B707083E 		li	a5,1040711680
 794              		.loc 1 666 46
 795 0066 23A60700 		sw	zero,12(a5)
 667:../src/platform/mpfs_hal/common/nwc/mss_pll.c ****             MSS_SCB_SGMII_PLL->SSCG_REG_0    = LIBERO_SETTING_SGMII_SSCG_REG_0;
 796              		.loc 1 667 30
 797 006a B707083E 		li	a5,1040711680
 798              		.loc 1 667 46
 799 006e 23A20702 		sw	zero,36(a5)
 668:../src/platform/mpfs_hal/common/nwc/mss_pll.c ****             MSS_SCB_SGMII_PLL->SSCG_REG_1    = LIBERO_SETTING_SGMII_SSCG_REG_1;
 800              		.loc 1 668 30
 801 0072 B707083E 		li	a5,1040711680
 802              		.loc 1 668 46
 803 0076 23A40702 		sw	zero,40(a5)
 669:../src/platform/mpfs_hal/common/nwc/mss_pll.c **** 
 670:../src/platform/mpfs_hal/common/nwc/mss_pll.c ****             MSS_SCB_SGMII_PLL->SSCG_REG_2    = LIBERO_SETTING_SGMII_SSCG_REG_2;
 804              		.loc 1 670 30
 805 007a B707083E 		li	a5,1040711680
 806              		.loc 1 670 46
 807 007e 5147     		li	a4,20
 808 0080 D8D7     		sw	a4,44(a5)
 671:../src/platform/mpfs_hal/common/nwc/mss_pll.c ****             MSS_SCB_SGMII_PLL->SSCG_REG_3    = LIBERO_SETTING_SGMII_SSCG_REG_3;
 809              		.loc 1 671 30
 810 0082 B707083E 		li	a5,1040711680
 811              		.loc 1 671 46
 812 0086 0547     		li	a4,1
 813 0088 98DB     		sw	a4,48(a5)
 672:../src/platform/mpfs_hal/common/nwc/mss_pll.c **** 
 673:../src/platform/mpfs_hal/common/nwc/mss_pll.c ****             /* PLL phase registers */
 674:../src/platform/mpfs_hal/common/nwc/mss_pll.c **** 
 675:../src/platform/mpfs_hal/common/nwc/mss_pll.c ****             MSS_SCB_SGMII_PLL->PLL_PHADJ     = LIBERO_SETTING_SGMII_PLL_PHADJ;
 814              		.loc 1 675 30
 815 008a B707083E 		li	a5,1040711680
 816              		.loc 1 675 46
 817 008e 1D67     		li	a4,28672
 818 0090 13073744 		addi	a4,a4,1091
 819 0094 98D3     		sw	a4,32(a5)
 676:../src/platform/mpfs_hal/common/nwc/mss_pll.c **** 
 677:../src/platform/mpfs_hal/common/nwc/mss_pll.c ****             MSS_SCB_SGMII_PLL->PLL_CTRL      = (LIBERO_SETTING_SGMII_PLL_CTRL)\
 820              		.loc 1 677 30
 821 0096 B707083E 		li	a5,1040711680
 822              		.loc 1 677 46
 823 009a 37070001 		li	a4,16777216
 824 009e 1307F703 		addi	a4,a4,63
 825 00a2 D8C3     		sw	a4,4(a5)
 678:../src/platform/mpfs_hal/common/nwc/mss_pll.c ****                     | 0x01U;  /* bit 0 == REG_POWERDOWN_B */
 679:../src/platform/mpfs_hal/common/nwc/mss_pll.c **** 
 680:../src/platform/mpfs_hal/common/nwc/mss_pll.c ****             break;
 826              		.loc 1 680 13
 827 00a4 31A0     		j	.L25
 828              	.L24:
 681:../src/platform/mpfs_hal/common/nwc/mss_pll.c **** 
 682:../src/platform/mpfs_hal/common/nwc/mss_pll.c ****         case RPC_REG_UPDATE:
 683:../src/platform/mpfs_hal/common/nwc/mss_pll.c ****             /*
 684:../src/platform/mpfs_hal/common/nwc/mss_pll.c ****              * set the NV map reset
 685:../src/platform/mpfs_hal/common/nwc/mss_pll.c ****              * This will load the APB registers, set via SGMII TIP.
 686:../src/platform/mpfs_hal/common/nwc/mss_pll.c ****              * */
 687:../src/platform/mpfs_hal/common/nwc/mss_pll.c ****             /* bit 0 == REG_POWERDOWN_B */
 688:../src/platform/mpfs_hal/common/nwc/mss_pll.c ****             MSS_SCB_SGMII_PLL->SOFT_RESET  = 0x01U;
 829              		.loc 1 688 30
 830 00a6 B707083E 		li	a5,1040711680
 831              		.loc 1 688 44
 832 00aa 0547     		li	a4,1
 833 00ac 98C3     		sw	a4,0(a5)
 689:../src/platform/mpfs_hal/common/nwc/mss_pll.c ****             break;
 834              		.loc 1 689 13
 835 00ae 0100     		nop
 836              	.L25:
 690:../src/platform/mpfs_hal/common/nwc/mss_pll.c ****     }
 691:../src/platform/mpfs_hal/common/nwc/mss_pll.c **** }
 837              		.loc 1 691 1
 838 00b0 0100     		nop
 839 00b2 6264     		ld	s0,24(sp)
 840              		.cfi_restore 8
 841              		.cfi_def_cfa 2, 32
 842 00b4 0561     		addi	sp,sp,32
 843              		.cfi_def_cfa_offset 0
 844 00b6 8280     		jr	ra
 845              		.cfi_endproc
 846              	.LFE28:
 848              		.section	.text.sgmii_pll_lock_scb,"ax",@progbits
 849              		.align	1
 850              		.globl	sgmii_pll_lock_scb
 852              	sgmii_pll_lock_scb:
 853              	.LFB29:
 692:../src/platform/mpfs_hal/common/nwc/mss_pll.c **** 
 693:../src/platform/mpfs_hal/common/nwc/mss_pll.c **** /**
 694:../src/platform/mpfs_hal/common/nwc/mss_pll.c ****  * sgmii_pll_lock_scb(void)
 695:../src/platform/mpfs_hal/common/nwc/mss_pll.c ****  * checks to see if lock has occurred
 696:../src/platform/mpfs_hal/common/nwc/mss_pll.c ****  * @return => lock has occurred, 1=> no lock
 697:../src/platform/mpfs_hal/common/nwc/mss_pll.c ****  */
 698:../src/platform/mpfs_hal/common/nwc/mss_pll.c **** uint8_t sgmii_pll_lock_scb(void)
 699:../src/platform/mpfs_hal/common/nwc/mss_pll.c **** {
 854              		.loc 1 699 1
 855              		.cfi_startproc
 856 0000 0111     		addi	sp,sp,-32
 857              		.cfi_def_cfa_offset 32
 858 0002 22EC     		sd	s0,24(sp)
 859              		.cfi_offset 8, -8
 860 0004 0010     		addi	s0,sp,32
 861              		.cfi_def_cfa 8, 0
 700:../src/platform/mpfs_hal/common/nwc/mss_pll.c ****     uint8_t result = 1U;
 862              		.loc 1 700 13
 863 0006 8547     		li	a5,1
 864 0008 A307F4FE 		sb	a5,-17(s0)
 701:../src/platform/mpfs_hal/common/nwc/mss_pll.c **** #ifndef RENODE_DEBUG
 702:../src/platform/mpfs_hal/common/nwc/mss_pll.c ****     if((MSS_SCB_SGMII_PLL->PLL_CTRL & PLL_CTRL_LOCK_BIT) == PLL_CTRL_LOCK_BIT)
 865              		.loc 1 702 26
 866 000c B707083E 		li	a5,1040711680
 867 0010 DC43     		lw	a5,4(a5)
 868 0012 8127     		sext.w	a5,a5
 869              		.loc 1 702 37
 870 0014 3E87     		mv	a4,a5
 871 0016 B7070002 		li	a5,33554432
 872 001a F98F     		and	a5,a4,a5
 873 001c 8127     		sext.w	a5,a5
 874              		.loc 1 702 7
 875 001e 3E87     		mv	a4,a5
 876 0020 B7070002 		li	a5,33554432
 877 0024 6314F700 		bne	a4,a5,.L27
 703:../src/platform/mpfs_hal/common/nwc/mss_pll.c ****     {
 704:../src/platform/mpfs_hal/common/nwc/mss_pll.c ****         result = 0U; /* PLL lock has occurred */
 878              		.loc 1 704 16
 879 0028 A30704FE 		sb	zero,-17(s0)
 880              	.L27:
 705:../src/platform/mpfs_hal/common/nwc/mss_pll.c ****     }
 706:../src/platform/mpfs_hal/common/nwc/mss_pll.c **** #else
 707:../src/platform/mpfs_hal/common/nwc/mss_pll.c ****     result = 0U;
 708:../src/platform/mpfs_hal/common/nwc/mss_pll.c **** #endif
 709:../src/platform/mpfs_hal/common/nwc/mss_pll.c ****     return (result);
 881              		.loc 1 709 12
 882 002c 8347F4FE 		lbu	a5,-17(s0)
 710:../src/platform/mpfs_hal/common/nwc/mss_pll.c **** }
 883              		.loc 1 710 1
 884 0030 3E85     		mv	a0,a5
 885 0032 6264     		ld	s0,24(sp)
 886              		.cfi_restore 8
 887              		.cfi_def_cfa 2, 32
 888 0034 0561     		addi	sp,sp,32
 889              		.cfi_def_cfa_offset 0
 890 0036 8280     		jr	ra
 891              		.cfi_endproc
 892              	.LFE29:
 894              		.section	.text.copy_switch_code,"ax",@progbits
 895              		.align	1
 896              		.weak	copy_switch_code
 898              	copy_switch_code:
 899              	.LFB30:
 711:../src/platform/mpfs_hal/common/nwc/mss_pll.c **** 
 712:../src/platform/mpfs_hal/common/nwc/mss_pll.c **** 
 713:../src/platform/mpfs_hal/common/nwc/mss_pll.c **** /***************************************************************************//**
 714:../src/platform/mpfs_hal/common/nwc/mss_pll.c ****  * Copy switch code routine to RAM.
 715:../src/platform/mpfs_hal/common/nwc/mss_pll.c ****  * Copy locations have been defined in the linker script
 716:../src/platform/mpfs_hal/common/nwc/mss_pll.c ****  ******************************************************************************/
 717:../src/platform/mpfs_hal/common/nwc/mss_pll.c **** __attribute__((weak)) void copy_switch_code(void)
 718:../src/platform/mpfs_hal/common/nwc/mss_pll.c **** {
 900              		.loc 1 718 1
 901              		.cfi_startproc
 902 0000 7971     		addi	sp,sp,-48
 903              		.cfi_def_cfa_offset 48
 904 0002 22F4     		sd	s0,40(sp)
 905              		.cfi_offset 8, -8
 906 0004 0018     		addi	s0,sp,48
 907              		.cfi_def_cfa 8, 0
 719:../src/platform/mpfs_hal/common/nwc/mss_pll.c ****     uint32_t * sc_lma = &__sc_load;
 908              		.loc 1 719 16
 909 0006 97070000 		lla	a5,__sc_load
 909      93870700 
 910 000e 2334F4FE 		sd	a5,-24(s0)
 720:../src/platform/mpfs_hal/common/nwc/mss_pll.c ****     uint32_t * end_sc_vma = &__sc_end;
 911              		.loc 1 720 16
 912 0012 97070000 		lla	a5,__sc_end
 912      93870700 
 913 001a 233CF4FC 		sd	a5,-40(s0)
 721:../src/platform/mpfs_hal/common/nwc/mss_pll.c ****     uint32_t * sc_vma = &__sc_start;
 914              		.loc 1 721 16
 915 001e 97070000 		lla	a5,__sc_start
 915      93870700 
 916 0026 2330F4FE 		sd	a5,-32(s0)
 722:../src/platform/mpfs_hal/common/nwc/mss_pll.c **** 
 723:../src/platform/mpfs_hal/common/nwc/mss_pll.c ****     if ( sc_vma != sc_lma )
 917              		.loc 1 723 8
 918 002a 033704FE 		ld	a4,-32(s0)
 919 002e 833784FE 		ld	a5,-24(s0)
 920 0032 6309F702 		beq	a4,a5,.L33
 724:../src/platform/mpfs_hal/common/nwc/mss_pll.c ****     {
 725:../src/platform/mpfs_hal/common/nwc/mss_pll.c ****         while ( sc_vma < end_sc_vma )
 921              		.loc 1 725 15
 922 0036 0DA0     		j	.L31
 923              	.L32:
 726:../src/platform/mpfs_hal/common/nwc/mss_pll.c ****         {
 727:../src/platform/mpfs_hal/common/nwc/mss_pll.c ****             *sc_vma = *sc_lma;
 924              		.loc 1 727 23
 925 0038 833784FE 		ld	a5,-24(s0)
 926 003c 9843     		lw	a4,0(a5)
 927              		.loc 1 727 21
 928 003e 833704FE 		ld	a5,-32(s0)
 929 0042 98C3     		sw	a4,0(a5)
 728:../src/platform/mpfs_hal/common/nwc/mss_pll.c ****             sc_vma++ ; sc_lma++;
 930              		.loc 1 728 19
 931 0044 833704FE 		ld	a5,-32(s0)
 932 0048 9107     		addi	a5,a5,4
 933 004a 2330F4FE 		sd	a5,-32(s0)
 934              		.loc 1 728 30
 935 004e 833784FE 		ld	a5,-24(s0)
 936 0052 9107     		addi	a5,a5,4
 937 0054 2334F4FE 		sd	a5,-24(s0)
 938              	.L31:
 725:../src/platform/mpfs_hal/common/nwc/mss_pll.c ****         {
 939              		.loc 1 725 15
 940 0058 033704FE 		ld	a4,-32(s0)
 941 005c 833784FD 		ld	a5,-40(s0)
 942 0060 E36CF7FC 		bltu	a4,a5,.L32
 943              	.L33:
 729:../src/platform/mpfs_hal/common/nwc/mss_pll.c ****          }
 730:../src/platform/mpfs_hal/common/nwc/mss_pll.c ****     }
 731:../src/platform/mpfs_hal/common/nwc/mss_pll.c **** }
 944              		.loc 1 731 1
 945 0064 0100     		nop
 946 0066 2274     		ld	s0,40(sp)
 947              		.cfi_restore 8
 948              		.cfi_def_cfa 2, 48
 949 0068 4561     		addi	sp,sp,48
 950              		.cfi_def_cfa_offset 0
 951 006a 8280     		jr	ra
 952              		.cfi_endproc
 953              	.LFE30:
 955              		.text
 956              	.Letext0:
 957              		.file 2 "/home/vinay/Desktop/soft_console/SoftConsole-v2022.2-RISC-V-747/riscv-unknown-elf-gcc/ris
 958              		.file 3 "/home/vinay/Desktop/soft_console/SoftConsole-v2022.2-RISC-V-747/riscv-unknown-elf-gcc/ris
 959              		.file 4 "/home/vinay/Desktop/softconsole_watershed/Water-shed/src/platform/mpfs_hal/common/nwc/../
 960              		.file 5 "/home/vinay/Desktop/softconsole_watershed/Water-shed/src/platform/mpfs_hal/common/nwc/mss
 961              		.file 6 "/home/vinay/Desktop/softconsole_watershed/Water-shed/src/platform/mpfs_hal/common/nwc/mss
 962              		.file 7 "/home/vinay/Desktop/softconsole_watershed/Water-shed/src/platform/mpfs_hal/common/nwc/mss
 963              		.file 8 "/home/vinay/Desktop/softconsole_watershed/Water-shed/src/platform/mpfs_hal/common/nwc/mss
 964              		.file 9 "/home/vinay/Desktop/softconsole_watershed/Water-shed/src/platform/mpfs_hal/common/mss_mpu
 965              		.file 10 "/home/vinay/Desktop/softconsole_watershed/Water-shed/src/platform/mpfs_hal/common/mss_pl
 966              		.file 11 "/home/vinay/Desktop/softconsole_watershed/Water-shed/src/platform/mpfs_hal/startup_gcc/s