   1              		.file	"mss_cfm.c"
   2              		.option nopic
   3              		.attribute arch, "rv64i2p0_m2p0_a2p0_f2p0_d2p0_c2p0"
   4              		.attribute unaligned_access, 0
   5              		.attribute stack_align, 16
   6              		.text
   7              	.Ltext0:
   8              		.cfi_sections	.debug_frame
   9              		.section	.text.MSS_CFM_control_start,"ax",@progbits
  10              		.align	1
  11              		.globl	MSS_CFM_control_start
  13              	MSS_CFM_control_start:
  14              	.LFB23:
  15              		.file 1 "../src/platform/mpfs_hal/common/nwc/mss_cfm.c"
   1:../src/platform/mpfs_hal/common/nwc/mss_cfm.c **** /*******************************************************************************
   2:../src/platform/mpfs_hal/common/nwc/mss_cfm.c ****  * Copyright 2019-2022 Microchip FPGA Embedded Systems Solutions.
   3:../src/platform/mpfs_hal/common/nwc/mss_cfm.c ****  *
   4:../src/platform/mpfs_hal/common/nwc/mss_cfm.c ****  */
   5:../src/platform/mpfs_hal/common/nwc/mss_cfm.c **** 
   6:../src/platform/mpfs_hal/common/nwc/mss_cfm.c **** #include <stdint.h>
   7:../src/platform/mpfs_hal/common/nwc/mss_cfm.c **** #include <stdio.h>
   8:../src/platform/mpfs_hal/common/nwc/mss_cfm.c **** #include <stdarg.h>
   9:../src/platform/mpfs_hal/common/nwc/mss_cfm.c **** #include <stdbool.h>
  10:../src/platform/mpfs_hal/common/nwc/mss_cfm.c **** #include <stdlib.h>
  11:../src/platform/mpfs_hal/common/nwc/mss_cfm.c **** #include <string.h>
  12:../src/platform/mpfs_hal/common/nwc/mss_cfm.c **** #include <stdint.h>
  13:../src/platform/mpfs_hal/common/nwc/mss_cfm.c **** 
  14:../src/platform/mpfs_hal/common/nwc/mss_cfm.c **** #include "mpfs_hal/mss_hal.h"
  15:../src/platform/mpfs_hal/common/nwc/mss_cfm.c **** #include "mss_cfm.h"
  16:../src/platform/mpfs_hal/common/nwc/mss_cfm.c **** 
  17:../src/platform/mpfs_hal/common/nwc/mss_cfm.c **** /***************************************************************************//**
  18:../src/platform/mpfs_hal/common/nwc/mss_cfm.c ****  * See mss_cfm.h for description of this function.
  19:../src/platform/mpfs_hal/common/nwc/mss_cfm.c ****  */
  20:../src/platform/mpfs_hal/common/nwc/mss_cfm.c **** uint8_t MSS_CFM_control_start(void)
  21:../src/platform/mpfs_hal/common/nwc/mss_cfm.c **** {
  16              		.loc 1 21 1
  17              		.cfi_startproc
  18 0000 4111     		addi	sp,sp,-16
  19              		.cfi_def_cfa_offset 16
  20 0002 22E4     		sd	s0,8(sp)
  21              		.cfi_offset 8, -8
  22 0004 0008     		addi	s0,sp,16
  23              		.cfi_def_cfa 8, 0
  22:../src/platform/mpfs_hal/common/nwc/mss_cfm.c **** 
  23:../src/platform/mpfs_hal/common/nwc/mss_cfm.c ****     /* Writing a 1, to this causes measurement circuitry to start. */
  24:../src/platform/mpfs_hal/common/nwc/mss_cfm.c ****     CFM_REG->controlReg |= 1;
  24              		.loc 1 24 25
  25 0006 B7670020 		li	a5,536895488
  26 000a 9C43     		lw	a5,0(a5)
  27 000c 1B870700 		sext.w	a4,a5
  28 0010 B7670020 		li	a5,536895488
  29 0014 13671700 		ori	a4,a4,1
  30 0018 0127     		sext.w	a4,a4
  31 001a 98C3     		sw	a4,0(a5)
  25:../src/platform/mpfs_hal/common/nwc/mss_cfm.c **** 
  26:../src/platform/mpfs_hal/common/nwc/mss_cfm.c ****     return (CFM_REG->controlReg & CFM_CONTROL_REG_START_MASK);
  32              		.loc 1 26 20
  33 001c B7670020 		li	a5,536895488
  34 0020 9C43     		lw	a5,0(a5)
  35 0022 8127     		sext.w	a5,a5
  36              		.loc 1 26 33
  37 0024 93F7F70F 		andi	a5,a5,0xff
  38 0028 858B     		andi	a5,a5,1
  39 002a 93F7F70F 		andi	a5,a5,0xff
  27:../src/platform/mpfs_hal/common/nwc/mss_cfm.c **** 
  28:../src/platform/mpfs_hal/common/nwc/mss_cfm.c **** }
  40              		.loc 1 28 1
  41 002e 3E85     		mv	a0,a5
  42 0030 2264     		ld	s0,8(sp)
  43              		.cfi_restore 8
  44              		.cfi_def_cfa 2, 16
  45 0032 4101     		addi	sp,sp,16
  46              		.cfi_def_cfa_offset 0
  47 0034 8280     		jr	ra
  48              		.cfi_endproc
  49              	.LFE23:
  51              		.section	.text.MSS_CFM_control_stop,"ax",@progbits
  52              		.align	1
  53              		.globl	MSS_CFM_control_stop
  55              	MSS_CFM_control_stop:
  56              	.LFB24:
  29:../src/platform/mpfs_hal/common/nwc/mss_cfm.c **** 
  30:../src/platform/mpfs_hal/common/nwc/mss_cfm.c **** 
  31:../src/platform/mpfs_hal/common/nwc/mss_cfm.c **** uint8_t MSS_CFM_control_stop(void)
  32:../src/platform/mpfs_hal/common/nwc/mss_cfm.c **** {
  57              		.loc 1 32 1
  58              		.cfi_startproc
  59 0000 4111     		addi	sp,sp,-16
  60              		.cfi_def_cfa_offset 16
  61 0002 22E4     		sd	s0,8(sp)
  62              		.cfi_offset 8, -8
  63 0004 0008     		addi	s0,sp,16
  64              		.cfi_def_cfa 8, 0
  33:../src/platform/mpfs_hal/common/nwc/mss_cfm.c **** 
  34:../src/platform/mpfs_hal/common/nwc/mss_cfm.c ****     /* Writing a 1, to this causes measurement circuitry to start. */
  35:../src/platform/mpfs_hal/common/nwc/mss_cfm.c ****     CFM_REG->controlReg |= (1 << CFM_CONTROL_REG_STOP_BITS_SHIFT);
  65              		.loc 1 35 25
  66 0006 B7670020 		li	a5,536895488
  67 000a 9C43     		lw	a5,0(a5)
  68 000c 1B870700 		sext.w	a4,a5
  69 0010 B7670020 		li	a5,536895488
  70 0014 13672700 		ori	a4,a4,2
  71 0018 0127     		sext.w	a4,a4
  72 001a 98C3     		sw	a4,0(a5)
  36:../src/platform/mpfs_hal/common/nwc/mss_cfm.c **** 
  37:../src/platform/mpfs_hal/common/nwc/mss_cfm.c ****     return (CFM_REG->controlReg & CFM_CONTROL_REG_START_MASK);
  73              		.loc 1 37 20
  74 001c B7670020 		li	a5,536895488
  75 0020 9C43     		lw	a5,0(a5)
  76 0022 8127     		sext.w	a5,a5
  77              		.loc 1 37 33
  78 0024 93F7F70F 		andi	a5,a5,0xff
  79 0028 858B     		andi	a5,a5,1
  80 002a 93F7F70F 		andi	a5,a5,0xff
  38:../src/platform/mpfs_hal/common/nwc/mss_cfm.c **** 
  39:../src/platform/mpfs_hal/common/nwc/mss_cfm.c **** }
  81              		.loc 1 39 1
  82 002e 3E85     		mv	a0,a5
  83 0030 2264     		ld	s0,8(sp)
  84              		.cfi_restore 8
  85              		.cfi_def_cfa 2, 16
  86 0032 4101     		addi	sp,sp,16
  87              		.cfi_def_cfa_offset 0
  88 0034 8280     		jr	ra
  89              		.cfi_endproc
  90              	.LFE24:
  92              		.section	.text.MSS_CLF_clk_configuration,"ax",@progbits
  93              		.align	1
  94              		.globl	MSS_CLF_clk_configuration
  96              	MSS_CLF_clk_configuration:
  97              	.LFB25:
  40:../src/platform/mpfs_hal/common/nwc/mss_cfm.c **** 
  41:../src/platform/mpfs_hal/common/nwc/mss_cfm.c **** 
  42:../src/platform/mpfs_hal/common/nwc/mss_cfm.c **** 
  43:../src/platform/mpfs_hal/common/nwc/mss_cfm.c **** cfm_error_id_t MSS_CLF_clk_configuration(
  44:../src/platform/mpfs_hal/common/nwc/mss_cfm.c ****         uint8_t clkSel,
  45:../src/platform/mpfs_hal/common/nwc/mss_cfm.c ****         uint8_t refsel0,
  46:../src/platform/mpfs_hal/common/nwc/mss_cfm.c ****         uint8_t refsel1,
  47:../src/platform/mpfs_hal/common/nwc/mss_cfm.c ****         uint8_t monSEL,
  48:../src/platform/mpfs_hal/common/nwc/mss_cfm.c ****         uint8_t monEN
  49:../src/platform/mpfs_hal/common/nwc/mss_cfm.c ****     )
  50:../src/platform/mpfs_hal/common/nwc/mss_cfm.c **** {
  98              		.loc 1 50 1
  99              		.cfi_startproc
 100 0000 0111     		addi	sp,sp,-32
 101              		.cfi_def_cfa_offset 32
 102 0002 22EC     		sd	s0,24(sp)
 103              		.cfi_offset 8, -8
 104 0004 0010     		addi	s0,sp,32
 105              		.cfi_def_cfa 8, 0
 106 0006 AA87     		mv	a5,a0
 107 0008 A307F4FE 		sb	a5,-17(s0)
 108 000c AE87     		mv	a5,a1
 109 000e 2307F4FE 		sb	a5,-18(s0)
 110 0012 B287     		mv	a5,a2
 111 0014 A306F4FE 		sb	a5,-19(s0)
 112 0018 B687     		mv	a5,a3
 113 001a 2306F4FE 		sb	a5,-20(s0)
 114 001e BA87     		mv	a5,a4
 115 0020 A305F4FE 		sb	a5,-21(s0)
  51:../src/platform/mpfs_hal/common/nwc/mss_cfm.c **** 
  52:../src/platform/mpfs_hal/common/nwc/mss_cfm.c ****     /* Reset the register. */
  53:../src/platform/mpfs_hal/common/nwc/mss_cfm.c ****     CFM_REG->clkselReg = 0;
 116              		.loc 1 53 12
 117 0024 B7670020 		li	a5,536895488
 118              		.loc 1 53 24
 119 0028 23A20700 		sw	zero,4(a5)
  54:../src/platform/mpfs_hal/common/nwc/mss_cfm.c **** 
  55:../src/platform/mpfs_hal/common/nwc/mss_cfm.c ****     /* Some error checking on configuration values. */
  56:../src/platform/mpfs_hal/common/nwc/mss_cfm.c ****     if(clkSel > CFM_CLK_SEL_MASK)
 120              		.loc 1 56 7
 121 002c 8347F4FE 		lbu	a5,-17(s0)
 122 0030 13F7F70F 		andi	a4,a5,0xff
 123 0034 9D47     		li	a5,7
 124 0036 63F4E700 		bleu	a4,a5,.L6
  57:../src/platform/mpfs_hal/common/nwc/mss_cfm.c ****         return ERROR_INVALID_CLK_SELECTION_GROUP;
 125              		.loc 1 57 16
 126 003a 8547     		li	a5,1
 127 003c 09AA     		j	.L7
 128              	.L6:
  58:../src/platform/mpfs_hal/common/nwc/mss_cfm.c **** 
  59:../src/platform/mpfs_hal/common/nwc/mss_cfm.c ****     if(refsel0 > CFM_CLK_REFSEL0_MASK)
 129              		.loc 1 59 7
 130 003e 8347E4FE 		lbu	a5,-18(s0)
 131 0042 13F7F70F 		andi	a4,a5,0xff
 132 0046 8547     		li	a5,1
 133 0048 63F4E700 		bleu	a4,a5,.L8
  60:../src/platform/mpfs_hal/common/nwc/mss_cfm.c ****         return ERROR_INVALID_REF_SEL0;
 134              		.loc 1 60 16
 135 004c 8947     		li	a5,2
 136 004e 01A2     		j	.L7
 137              	.L8:
  61:../src/platform/mpfs_hal/common/nwc/mss_cfm.c **** 
  62:../src/platform/mpfs_hal/common/nwc/mss_cfm.c ****     if(refsel1 > CFM_CLK_REFSEL1_MASK)
 138              		.loc 1 62 7
 139 0050 8347D4FE 		lbu	a5,-19(s0)
 140 0054 13F7F70F 		andi	a4,a5,0xff
 141 0058 8547     		li	a5,1
 142 005a 63F4E700 		bleu	a4,a5,.L9
  63:../src/platform/mpfs_hal/common/nwc/mss_cfm.c ****         return ERROR_INVALID_REF_SEL1;
 143              		.loc 1 63 16
 144 005e 8D47     		li	a5,3
 145 0060 FDA0     		j	.L7
 146              	.L9:
  64:../src/platform/mpfs_hal/common/nwc/mss_cfm.c **** 
  65:../src/platform/mpfs_hal/common/nwc/mss_cfm.c ****     if(monSEL > CFM_CLK_MONSEL_MASK)
 147              		.loc 1 65 7
 148 0062 8347C4FE 		lbu	a5,-20(s0)
 149 0066 13F7F70F 		andi	a4,a5,0xff
 150 006a 9D47     		li	a5,7
 151 006c 63F4E700 		bleu	a4,a5,.L10
  66:../src/platform/mpfs_hal/common/nwc/mss_cfm.c ****         return ERROR_INVALID_CHANNEL_DRIVE_CLK_MONITOR;
 152              		.loc 1 66 16
 153 0070 9147     		li	a5,4
 154 0072 F1A8     		j	.L7
 155              	.L10:
  67:../src/platform/mpfs_hal/common/nwc/mss_cfm.c **** 
  68:../src/platform/mpfs_hal/common/nwc/mss_cfm.c **** 
  69:../src/platform/mpfs_hal/common/nwc/mss_cfm.c ****     CFM_REG->clkselReg |= (clkSel & CFM_CLK_SEL_MASK);
 156              		.loc 1 69 24
 157 0074 B7670020 		li	a5,536895488
 158 0078 DC43     		lw	a5,4(a5)
 159 007a 9B860700 		sext.w	a3,a5
 160              		.loc 1 69 35
 161 007e 8347F4FE 		lbu	a5,-17(s0)
 162 0082 8127     		sext.w	a5,a5
 163 0084 9D8B     		andi	a5,a5,7
 164 0086 1B870700 		sext.w	a4,a5
 165              		.loc 1 69 24
 166 008a B7670020 		li	a5,536895488
 167 008e 558F     		or	a4,a3,a4
 168 0090 0127     		sext.w	a4,a4
 169 0092 D8C3     		sw	a4,4(a5)
  70:../src/platform/mpfs_hal/common/nwc/mss_cfm.c **** 
  71:../src/platform/mpfs_hal/common/nwc/mss_cfm.c ****     if(refsel0)
 170              		.loc 1 71 7
 171 0094 8347E4FE 		lbu	a5,-18(s0)
 172 0098 93F7F70F 		andi	a5,a5,0xff
 173 009c 9DC3     		beq	a5,zero,.L11
  72:../src/platform/mpfs_hal/common/nwc/mss_cfm.c ****         CFM_REG->clkselReg |= (uint32_t)(refsel0 << CFM_CLK_REFSEL0SHIFT);
 174              		.loc 1 72 28
 175 009e B7670020 		li	a5,536895488
 176 00a2 DC43     		lw	a5,4(a5)
 177 00a4 9B860700 		sext.w	a3,a5
 178              		.loc 1 72 50
 179 00a8 8347E4FE 		lbu	a5,-18(s0)
 180 00ac 8127     		sext.w	a5,a5
 181 00ae 9B974700 		slliw	a5,a5,4
 182 00b2 8127     		sext.w	a5,a5
 183              		.loc 1 72 31
 184 00b4 1B870700 		sext.w	a4,a5
 185              		.loc 1 72 28
 186 00b8 B7670020 		li	a5,536895488
 187 00bc 558F     		or	a4,a3,a4
 188 00be 0127     		sext.w	a4,a4
 189 00c0 D8C3     		sw	a4,4(a5)
 190              	.L11:
  73:../src/platform/mpfs_hal/common/nwc/mss_cfm.c **** 
  74:../src/platform/mpfs_hal/common/nwc/mss_cfm.c ****     if(refsel1)
 191              		.loc 1 74 7
 192 00c2 8347D4FE 		lbu	a5,-19(s0)
 193 00c6 93F7F70F 		andi	a5,a5,0xff
 194 00ca 9DC3     		beq	a5,zero,.L12
  75:../src/platform/mpfs_hal/common/nwc/mss_cfm.c ****         CFM_REG->clkselReg |= (uint32_t)(refsel1 << CFM_CLK_REFSEL1SHIFT);
 195              		.loc 1 75 28
 196 00cc B7670020 		li	a5,536895488
 197 00d0 DC43     		lw	a5,4(a5)
 198 00d2 9B860700 		sext.w	a3,a5
 199              		.loc 1 75 50
 200 00d6 8347D4FE 		lbu	a5,-19(s0)
 201 00da 8127     		sext.w	a5,a5
 202 00dc 9B975700 		slliw	a5,a5,5
 203 00e0 8127     		sext.w	a5,a5
 204              		.loc 1 75 31
 205 00e2 1B870700 		sext.w	a4,a5
 206              		.loc 1 75 28
 207 00e6 B7670020 		li	a5,536895488
 208 00ea 558F     		or	a4,a3,a4
 209 00ec 0127     		sext.w	a4,a4
 210 00ee D8C3     		sw	a4,4(a5)
 211              	.L12:
  76:../src/platform/mpfs_hal/common/nwc/mss_cfm.c **** 
  77:../src/platform/mpfs_hal/common/nwc/mss_cfm.c ****     if(monSEL)
 212              		.loc 1 77 7
 213 00f0 8347C4FE 		lbu	a5,-20(s0)
 214 00f4 93F7F70F 		andi	a5,a5,0xff
 215 00f8 9DC3     		beq	a5,zero,.L13
  78:../src/platform/mpfs_hal/common/nwc/mss_cfm.c ****         CFM_REG->clkselReg |= (uint32_t)(monSEL << CFM_CLK_MONSEL_SHIFT);
 216              		.loc 1 78 28
 217 00fa B7670020 		li	a5,536895488
 218 00fe DC43     		lw	a5,4(a5)
 219 0100 9B860700 		sext.w	a3,a5
 220              		.loc 1 78 49
 221 0104 8347C4FE 		lbu	a5,-20(s0)
 222 0108 8127     		sext.w	a5,a5
 223 010a 9B978700 		slliw	a5,a5,8
 224 010e 8127     		sext.w	a5,a5
 225              		.loc 1 78 31
 226 0110 1B870700 		sext.w	a4,a5
 227              		.loc 1 78 28
 228 0114 B7670020 		li	a5,536895488
 229 0118 558F     		or	a4,a3,a4
 230 011a 0127     		sext.w	a4,a4
 231 011c D8C3     		sw	a4,4(a5)
 232              	.L13:
  79:../src/platform/mpfs_hal/common/nwc/mss_cfm.c **** 
  80:../src/platform/mpfs_hal/common/nwc/mss_cfm.c **** 
  81:../src/platform/mpfs_hal/common/nwc/mss_cfm.c ****     if(monEN)
 233              		.loc 1 81 7
 234 011e 8347B4FE 		lbu	a5,-21(s0)
 235 0122 93F7F70F 		andi	a5,a5,0xff
 236 0126 9DC3     		beq	a5,zero,.L14
  82:../src/platform/mpfs_hal/common/nwc/mss_cfm.c ****         CFM_REG->clkselReg |= (uint32_t)(monEN << CFM_CLK_MONEN_SHIFT);
 237              		.loc 1 82 28
 238 0128 B7670020 		li	a5,536895488
 239 012c DC43     		lw	a5,4(a5)
 240 012e 9B860700 		sext.w	a3,a5
 241              		.loc 1 82 48
 242 0132 8347B4FE 		lbu	a5,-21(s0)
 243 0136 8127     		sext.w	a5,a5
 244 0138 9B97B700 		slliw	a5,a5,11
 245 013c 8127     		sext.w	a5,a5
 246              		.loc 1 82 31
 247 013e 1B870700 		sext.w	a4,a5
 248              		.loc 1 82 28
 249 0142 B7670020 		li	a5,536895488
 250 0146 558F     		or	a4,a3,a4
 251 0148 0127     		sext.w	a4,a4
 252 014a D8C3     		sw	a4,4(a5)
 253              	.L14:
  83:../src/platform/mpfs_hal/common/nwc/mss_cfm.c **** 
  84:../src/platform/mpfs_hal/common/nwc/mss_cfm.c **** 
  85:../src/platform/mpfs_hal/common/nwc/mss_cfm.c ****     return CFM_OK;
 254              		.loc 1 85 12
 255 014c 8147     		li	a5,0
 256              	.L7:
  86:../src/platform/mpfs_hal/common/nwc/mss_cfm.c **** 
  87:../src/platform/mpfs_hal/common/nwc/mss_cfm.c **** }
 257              		.loc 1 87 1
 258 014e 3E85     		mv	a0,a5
 259 0150 6264     		ld	s0,24(sp)
 260              		.cfi_restore 8
 261              		.cfi_def_cfa 2, 32
 262 0152 0561     		addi	sp,sp,32
 263              		.cfi_def_cfa_offset 0
 264 0154 8280     		jr	ra
 265              		.cfi_endproc
 266              	.LFE25:
 268              		.section	.text.MSS_CFM_runtime_register,"ax",@progbits
 269              		.align	1
 270              		.globl	MSS_CFM_runtime_register
 272              	MSS_CFM_runtime_register:
 273              	.LFB26:
  88:../src/platform/mpfs_hal/common/nwc/mss_cfm.c **** 
  89:../src/platform/mpfs_hal/common/nwc/mss_cfm.c **** 
  90:../src/platform/mpfs_hal/common/nwc/mss_cfm.c **** void MSS_CFM_runtime_register(uint32_t  referenceCount)
  91:../src/platform/mpfs_hal/common/nwc/mss_cfm.c **** {
 274              		.loc 1 91 1
 275              		.cfi_startproc
 276 0000 0111     		addi	sp,sp,-32
 277              		.cfi_def_cfa_offset 32
 278 0002 22EC     		sd	s0,24(sp)
 279              		.cfi_offset 8, -8
 280 0004 0010     		addi	s0,sp,32
 281              		.cfi_def_cfa 8, 0
 282 0006 AA87     		mv	a5,a0
 283 0008 2326F4FE 		sw	a5,-20(s0)
  92:../src/platform/mpfs_hal/common/nwc/mss_cfm.c **** 
  93:../src/platform/mpfs_hal/common/nwc/mss_cfm.c ****     /*Sets how many runtime reference clock cycles the frequency and time
  94:../src/platform/mpfs_hal/common/nwc/mss_cfm.c ****      * measurement shold be made for.. */
  95:../src/platform/mpfs_hal/common/nwc/mss_cfm.c ****     CFM_REG->runtimeReg = (referenceCount & CFM_RUNTIME_REG_MASK);
 284              		.loc 1 95 12
 285 000c B7670020 		li	a5,536895488
 286              		.loc 1 95 43
 287 0010 8326C4FE 		lw	a3,-20(s0)
 288 0014 37070001 		li	a4,16777216
 289 0018 7D17     		addi	a4,a4,-1
 290 001a 758F     		and	a4,a3,a4
 291 001c 0127     		sext.w	a4,a4
 292              		.loc 1 95 25
 293 001e 98C7     		sw	a4,8(a5)
  96:../src/platform/mpfs_hal/common/nwc/mss_cfm.c **** 
  97:../src/platform/mpfs_hal/common/nwc/mss_cfm.c ****     return;
 294              		.loc 1 97 5
 295 0020 0100     		nop
  98:../src/platform/mpfs_hal/common/nwc/mss_cfm.c **** }
 296              		.loc 1 98 1
 297 0022 6264     		ld	s0,24(sp)
 298              		.cfi_restore 8
 299              		.cfi_def_cfa 2, 32
 300 0024 0561     		addi	sp,sp,32
 301              		.cfi_def_cfa_offset 0
 302 0026 8280     		jr	ra
 303              		.cfi_endproc
 304              	.LFE26:
 306              		.section	.text.MSS_CFM_channel_mode,"ax",@progbits
 307              		.align	1
 308              		.globl	MSS_CFM_channel_mode
 310              	MSS_CFM_channel_mode:
 311              	.LFB27:
  99:../src/platform/mpfs_hal/common/nwc/mss_cfm.c **** 
 100:../src/platform/mpfs_hal/common/nwc/mss_cfm.c **** 
 101:../src/platform/mpfs_hal/common/nwc/mss_cfm.c **** void MSS_CFM_channel_mode(cfmChannelMode  chMode)
 102:../src/platform/mpfs_hal/common/nwc/mss_cfm.c **** {
 312              		.loc 1 102 1
 313              		.cfi_startproc
 314 0000 7971     		addi	sp,sp,-48
 315              		.cfi_def_cfa_offset 48
 316 0002 22F4     		sd	s0,40(sp)
 317              		.cfi_offset 8, -8
 318 0004 0018     		addi	s0,sp,48
 319              		.cfi_def_cfa 8, 0
 320 0006 233CA4FC 		sd	a0,-40(s0)
 103:../src/platform/mpfs_hal/common/nwc/mss_cfm.c **** 
 104:../src/platform/mpfs_hal/common/nwc/mss_cfm.c **** 
 105:../src/platform/mpfs_hal/common/nwc/mss_cfm.c ****     uint32_t chConfiguration = 0;
 321              		.loc 1 105 14
 322 000a 232604FE 		sw	zero,-20(s0)
 106:../src/platform/mpfs_hal/common/nwc/mss_cfm.c **** 
 107:../src/platform/mpfs_hal/common/nwc/mss_cfm.c ****     chConfiguration |= (chMode.channel0 & CFM_CHANNEL_MODE_MASK) << CFM_CH0_SHIFT_MASK;
 323              		.loc 1 107 31
 324 000e 834784FD 		lbu	a5,-40(s0)
 325              		.loc 1 107 66
 326 0012 8127     		sext.w	a5,a5
 327 0014 8D8B     		andi	a5,a5,3
 328 0016 1B870700 		sext.w	a4,a5
 329              		.loc 1 107 21
 330 001a 8327C4FE 		lw	a5,-20(s0)
 331 001e D98F     		or	a5,a5,a4
 332 0020 2326F4FE 		sw	a5,-20(s0)
 108:../src/platform/mpfs_hal/common/nwc/mss_cfm.c ****     chConfiguration |= (chMode.channel1 & CFM_CHANNEL_MODE_MASK) << CFM_CH1_SHIFT_MASK;
 333              		.loc 1 108 31
 334 0024 834794FD 		lbu	a5,-39(s0)
 335              		.loc 1 108 66
 336 0028 8127     		sext.w	a5,a5
 337 002a 9B972700 		slliw	a5,a5,2
 338 002e 8127     		sext.w	a5,a5
 339 0030 B18B     		andi	a5,a5,12
 340 0032 1B870700 		sext.w	a4,a5
 341              		.loc 1 108 21
 342 0036 8327C4FE 		lw	a5,-20(s0)
 343 003a D98F     		or	a5,a5,a4
 344 003c 2326F4FE 		sw	a5,-20(s0)
 109:../src/platform/mpfs_hal/common/nwc/mss_cfm.c ****     chConfiguration |= (chMode.channel2 & CFM_CHANNEL_MODE_MASK) << CFM_CH2_SHIFT_MASK;
 345              		.loc 1 109 31
 346 0040 8347A4FD 		lbu	a5,-38(s0)
 347              		.loc 1 109 66
 348 0044 8127     		sext.w	a5,a5
 349 0046 9B974700 		slliw	a5,a5,4
 350 004a 8127     		sext.w	a5,a5
 351 004c 93F70703 		andi	a5,a5,48
 352 0050 1B870700 		sext.w	a4,a5
 353              		.loc 1 109 21
 354 0054 8327C4FE 		lw	a5,-20(s0)
 355 0058 D98F     		or	a5,a5,a4
 356 005a 2326F4FE 		sw	a5,-20(s0)
 110:../src/platform/mpfs_hal/common/nwc/mss_cfm.c ****     chConfiguration |= (chMode.channel3 & CFM_CHANNEL_MODE_MASK) << CFM_CH3_SHIFT_MASK;
 357              		.loc 1 110 31
 358 005e 8347B4FD 		lbu	a5,-37(s0)
 359              		.loc 1 110 66
 360 0062 8127     		sext.w	a5,a5
 361 0064 9B976700 		slliw	a5,a5,6
 362 0068 8127     		sext.w	a5,a5
 363 006a 93F7F70F 		andi	a5,a5,255
 364 006e 1B870700 		sext.w	a4,a5
 365              		.loc 1 110 21
 366 0072 8327C4FE 		lw	a5,-20(s0)
 367 0076 D98F     		or	a5,a5,a4
 368 0078 2326F4FE 		sw	a5,-20(s0)
 111:../src/platform/mpfs_hal/common/nwc/mss_cfm.c ****     chConfiguration |= (chMode.channel4 & CFM_CHANNEL_MODE_MASK) << CFM_CH4_SHIFT_MASK;
 369              		.loc 1 111 31
 370 007c 8347C4FD 		lbu	a5,-36(s0)
 371              		.loc 1 111 66
 372 0080 8127     		sext.w	a5,a5
 373 0082 9B978700 		slliw	a5,a5,8
 374 0086 8127     		sext.w	a5,a5
 375 0088 93F70730 		andi	a5,a5,768
 376 008c 1B870700 		sext.w	a4,a5
 377              		.loc 1 111 21
 378 0090 8327C4FE 		lw	a5,-20(s0)
 379 0094 D98F     		or	a5,a5,a4
 380 0096 2326F4FE 		sw	a5,-20(s0)
 112:../src/platform/mpfs_hal/common/nwc/mss_cfm.c ****     chConfiguration |= (chMode.channel5 & CFM_CHANNEL_MODE_MASK) << CFM_CH5_SHIFT_MASK;
 381              		.loc 1 112 31
 382 009a 8347D4FD 		lbu	a5,-35(s0)
 383              		.loc 1 112 66
 384 009e 8127     		sext.w	a5,a5
 385 00a0 9B97A700 		slliw	a5,a5,10
 386 00a4 8127     		sext.w	a5,a5
 387 00a6 3E87     		mv	a4,a5
 388 00a8 8567     		li	a5,4096
 389 00aa 938707C0 		addi	a5,a5,-1024
 390 00ae F98F     		and	a5,a4,a5
 391 00b0 1B870700 		sext.w	a4,a5
 392              		.loc 1 112 21
 393 00b4 8327C4FE 		lw	a5,-20(s0)
 394 00b8 D98F     		or	a5,a5,a4
 395 00ba 2326F4FE 		sw	a5,-20(s0)
 113:../src/platform/mpfs_hal/common/nwc/mss_cfm.c ****     chConfiguration |= (chMode.channel6 & CFM_CHANNEL_MODE_MASK) << CFM_CH6_SHIFT_MASK;
 396              		.loc 1 113 31
 397 00be 8347E4FD 		lbu	a5,-34(s0)
 398              		.loc 1 113 66
 399 00c2 8127     		sext.w	a5,a5
 400 00c4 9B97C700 		slliw	a5,a5,12
 401 00c8 8127     		sext.w	a5,a5
 402 00ca 3E87     		mv	a4,a5
 403 00cc 8D67     		li	a5,12288
 404 00ce F98F     		and	a5,a4,a5
 405 00d0 1B870700 		sext.w	a4,a5
 406              		.loc 1 113 21
 407 00d4 8327C4FE 		lw	a5,-20(s0)
 408 00d8 D98F     		or	a5,a5,a4
 409 00da 2326F4FE 		sw	a5,-20(s0)
 114:../src/platform/mpfs_hal/common/nwc/mss_cfm.c ****     chConfiguration |= (chMode.channel7 & CFM_CHANNEL_MODE_MASK) << CFM_CH7_SHIFT_MASK;
 410              		.loc 1 114 31
 411 00de 8347F4FD 		lbu	a5,-33(s0)
 412              		.loc 1 114 66
 413 00e2 8127     		sext.w	a5,a5
 414 00e4 9B97E700 		slliw	a5,a5,14
 415 00e8 8127     		sext.w	a5,a5
 416 00ea 3E87     		mv	a4,a5
 417 00ec C167     		li	a5,65536
 418 00ee FD17     		addi	a5,a5,-1
 419 00f0 F98F     		and	a5,a4,a5
 420 00f2 1B870700 		sext.w	a4,a5
 421              		.loc 1 114 21
 422 00f6 8327C4FE 		lw	a5,-20(s0)
 423 00fa D98F     		or	a5,a5,a4
 424 00fc 2326F4FE 		sw	a5,-20(s0)
 115:../src/platform/mpfs_hal/common/nwc/mss_cfm.c **** 
 116:../src/platform/mpfs_hal/common/nwc/mss_cfm.c ****     CFM_REG->modelReg = chConfiguration;
 425              		.loc 1 116 12
 426 0100 B7670020 		li	a5,536895488
 427              		.loc 1 116 23
 428 0104 0327C4FE 		lw	a4,-20(s0)
 429 0108 D8C7     		sw	a4,12(a5)
 117:../src/platform/mpfs_hal/common/nwc/mss_cfm.c **** 
 118:../src/platform/mpfs_hal/common/nwc/mss_cfm.c **** 
 119:../src/platform/mpfs_hal/common/nwc/mss_cfm.c ****     return;
 430              		.loc 1 119 5
 431 010a 0100     		nop
 120:../src/platform/mpfs_hal/common/nwc/mss_cfm.c **** }
 432              		.loc 1 120 1
 433 010c 2274     		ld	s0,40(sp)
 434              		.cfi_restore 8
 435              		.cfi_def_cfa 2, 48
 436 010e 4561     		addi	sp,sp,48
 437              		.cfi_def_cfa_offset 0
 438 0110 8280     		jr	ra
 439              		.cfi_endproc
 440              	.LFE27:
 442              		.section	.text.MSS_CFM_get_count,"ax",@progbits
 443              		.align	1
 444              		.globl	MSS_CFM_get_count
 446              	MSS_CFM_get_count:
 447              	.LFB28:
 121:../src/platform/mpfs_hal/common/nwc/mss_cfm.c **** 
 122:../src/platform/mpfs_hal/common/nwc/mss_cfm.c **** cfm_error_id_t MSS_CFM_get_count(cfm_count_id_t ch, uint32_t *count)
 123:../src/platform/mpfs_hal/common/nwc/mss_cfm.c **** {
 448              		.loc 1 123 1
 449              		.cfi_startproc
 450 0000 0111     		addi	sp,sp,-32
 451              		.cfi_def_cfa_offset 32
 452 0002 22EC     		sd	s0,24(sp)
 453              		.cfi_offset 8, -8
 454 0004 0010     		addi	s0,sp,32
 455              		.cfi_def_cfa 8, 0
 456 0006 AA87     		mv	a5,a0
 457 0008 2330B4FE 		sd	a1,-32(s0)
 458 000c 2326F4FE 		sw	a5,-20(s0)
 124:../src/platform/mpfs_hal/common/nwc/mss_cfm.c **** 
 125:../src/platform/mpfs_hal/common/nwc/mss_cfm.c ****     if(count == NULL)
 459              		.loc 1 125 7
 460 0010 833704FE 		ld	a5,-32(s0)
 461 0014 99E3     		bne	a5,zero,.L20
 126:../src/platform/mpfs_hal/common/nwc/mss_cfm.c ****         return ERROR_NULL_VALUE;
 462              		.loc 1 126 16
 463 0016 9947     		li	a5,6
 464 0018 D5A0     		j	.L21
 465              	.L20:
 127:../src/platform/mpfs_hal/common/nwc/mss_cfm.c **** 
 128:../src/platform/mpfs_hal/common/nwc/mss_cfm.c ****     *count = 0;
 466              		.loc 1 128 12
 467 001a 833704FE 		ld	a5,-32(s0)
 468 001e 23A00700 		sw	zero,0(a5)
 129:../src/platform/mpfs_hal/common/nwc/mss_cfm.c **** 
 130:../src/platform/mpfs_hal/common/nwc/mss_cfm.c ****     if(CFM_REG->controlReg & CFM_CONTROL_REG_BUSY_MASK)
 469              		.loc 1 130 15
 470 0022 B7670020 		li	a5,536895488
 471 0026 9C43     		lw	a5,0(a5)
 472 0028 8127     		sext.w	a5,a5
 473              		.loc 1 130 28
 474 002a 858B     		andi	a5,a5,1
 475 002c 8127     		sext.w	a5,a5
 476              		.loc 1 130 7
 477 002e 99C3     		beq	a5,zero,.L22
 131:../src/platform/mpfs_hal/common/nwc/mss_cfm.c ****         return ERROR_INVALID_CFM_BUSY;
 478              		.loc 1 131 16
 479 0030 9547     		li	a5,5
 480 0032 E9A0     		j	.L21
 481              	.L22:
 132:../src/platform/mpfs_hal/common/nwc/mss_cfm.c **** 
 133:../src/platform/mpfs_hal/common/nwc/mss_cfm.c ****     switch(ch)
 482              		.loc 1 133 5
 483 0034 8327C4FE 		lw	a5,-20(s0)
 484 0038 1B870700 		sext.w	a4,a5
 485 003c 9D47     		li	a5,7
 486 003e 63ECE70A 		bgtu	a4,a5,.L23
 487 0042 8367C4FE 		lwu	a5,-20(s0)
 488 0046 13972700 		slli	a4,a5,2
 489 004a 97070000 		lla	a5,.L25
 489      93870700 
 490 0052 BA97     		add	a5,a4,a5
 491 0054 9C43     		lw	a5,0(a5)
 492 0056 1B870700 		sext.w	a4,a5
 493 005a 97070000 		lla	a5,.L25
 493      93870700 
 494 0062 BA97     		add	a5,a4,a5
 495 0064 8287     		jr	a5
 496              		.section	.rodata.MSS_CFM_get_count,"a",@progbits
 497              		.align	2
 498              		.align	2
 499              	.L25:
 500 0000 00000000 		.word	.L32-.L25
 501 0004 00000000 		.word	.L31-.L25
 502 0008 00000000 		.word	.L30-.L25
 503 000c 00000000 		.word	.L29-.L25
 504 0010 00000000 		.word	.L28-.L25
 505 0014 00000000 		.word	.L27-.L25
 506 0018 00000000 		.word	.L26-.L25
 507 001c 00000000 		.word	.L24-.L25
 508              		.section	.text.MSS_CFM_get_count
 509              	.L32:
 134:../src/platform/mpfs_hal/common/nwc/mss_cfm.c ****     {
 135:../src/platform/mpfs_hal/common/nwc/mss_cfm.c ****         case CFM_COUNT_0:
 136:../src/platform/mpfs_hal/common/nwc/mss_cfm.c ****             *count = CFM_REG->count0;
 510              		.loc 1 136 29
 511 0066 B7670020 		li	a5,536895488
 512 006a 9C4B     		lw	a5,16(a5)
 513 006c 1B870700 		sext.w	a4,a5
 514              		.loc 1 136 20
 515 0070 833704FE 		ld	a5,-32(s0)
 516 0074 98C3     		sw	a4,0(a5)
 137:../src/platform/mpfs_hal/common/nwc/mss_cfm.c ****             break;
 517              		.loc 1 137 13
 518 0076 51A0     		j	.L33
 519              	.L31:
 138:../src/platform/mpfs_hal/common/nwc/mss_cfm.c **** 
 139:../src/platform/mpfs_hal/common/nwc/mss_cfm.c ****         case CFM_COUNT_1:
 140:../src/platform/mpfs_hal/common/nwc/mss_cfm.c ****             *count = CFM_REG->count1;
 520              		.loc 1 140 29
 521 0078 B7670020 		li	a5,536895488
 522 007c DC4B     		lw	a5,20(a5)
 523 007e 1B870700 		sext.w	a4,a5
 524              		.loc 1 140 20
 525 0082 833704FE 		ld	a5,-32(s0)
 526 0086 98C3     		sw	a4,0(a5)
 141:../src/platform/mpfs_hal/common/nwc/mss_cfm.c ****             break;
 527              		.loc 1 141 13
 528 0088 8DA8     		j	.L33
 529              	.L30:
 142:../src/platform/mpfs_hal/common/nwc/mss_cfm.c **** 
 143:../src/platform/mpfs_hal/common/nwc/mss_cfm.c ****         case CFM_COUNT_2:
 144:../src/platform/mpfs_hal/common/nwc/mss_cfm.c ****             *count = CFM_REG->count2;
 530              		.loc 1 144 29
 531 008a B7670020 		li	a5,536895488
 532 008e 9C4F     		lw	a5,24(a5)
 533 0090 1B870700 		sext.w	a4,a5
 534              		.loc 1 144 20
 535 0094 833704FE 		ld	a5,-32(s0)
 536 0098 98C3     		sw	a4,0(a5)
 145:../src/platform/mpfs_hal/common/nwc/mss_cfm.c ****             break;
 537              		.loc 1 145 13
 538 009a 85A0     		j	.L33
 539              	.L29:
 146:../src/platform/mpfs_hal/common/nwc/mss_cfm.c **** 
 147:../src/platform/mpfs_hal/common/nwc/mss_cfm.c ****         case CFM_COUNT_3:
 148:../src/platform/mpfs_hal/common/nwc/mss_cfm.c ****             *count = CFM_REG->count3;
 540              		.loc 1 148 29
 541 009c B7670020 		li	a5,536895488
 542 00a0 DC4F     		lw	a5,28(a5)
 543 00a2 1B870700 		sext.w	a4,a5
 544              		.loc 1 148 20
 545 00a6 833704FE 		ld	a5,-32(s0)
 546 00aa 98C3     		sw	a4,0(a5)
 149:../src/platform/mpfs_hal/common/nwc/mss_cfm.c ****             break;
 547              		.loc 1 149 13
 548 00ac B9A0     		j	.L33
 549              	.L28:
 150:../src/platform/mpfs_hal/common/nwc/mss_cfm.c **** 
 151:../src/platform/mpfs_hal/common/nwc/mss_cfm.c ****         case CFM_COUNT_4:
 152:../src/platform/mpfs_hal/common/nwc/mss_cfm.c ****             *count = CFM_REG->count4;
 550              		.loc 1 152 29
 551 00ae B7670020 		li	a5,536895488
 552 00b2 9C53     		lw	a5,32(a5)
 553 00b4 1B870700 		sext.w	a4,a5
 554              		.loc 1 152 20
 555 00b8 833704FE 		ld	a5,-32(s0)
 556 00bc 98C3     		sw	a4,0(a5)
 153:../src/platform/mpfs_hal/common/nwc/mss_cfm.c ****             break;
 557              		.loc 1 153 13
 558 00be 35A8     		j	.L33
 559              	.L27:
 154:../src/platform/mpfs_hal/common/nwc/mss_cfm.c **** 
 155:../src/platform/mpfs_hal/common/nwc/mss_cfm.c ****         case CFM_COUNT_5:
 156:../src/platform/mpfs_hal/common/nwc/mss_cfm.c ****             *count = CFM_REG->count5;
 560              		.loc 1 156 29
 561 00c0 B7670020 		li	a5,536895488
 562 00c4 DC53     		lw	a5,36(a5)
 563 00c6 1B870700 		sext.w	a4,a5
 564              		.loc 1 156 20
 565 00ca 833704FE 		ld	a5,-32(s0)
 566 00ce 98C3     		sw	a4,0(a5)
 157:../src/platform/mpfs_hal/common/nwc/mss_cfm.c ****             break;
 567              		.loc 1 157 13
 568 00d0 2DA0     		j	.L33
 569              	.L26:
 158:../src/platform/mpfs_hal/common/nwc/mss_cfm.c **** 
 159:../src/platform/mpfs_hal/common/nwc/mss_cfm.c ****         case CFM_COUNT_6:
 160:../src/platform/mpfs_hal/common/nwc/mss_cfm.c ****             *count = CFM_REG->count6;
 570              		.loc 1 160 29
 571 00d2 B7670020 		li	a5,536895488
 572 00d6 9C57     		lw	a5,40(a5)
 573 00d8 1B870700 		sext.w	a4,a5
 574              		.loc 1 160 20
 575 00dc 833704FE 		ld	a5,-32(s0)
 576 00e0 98C3     		sw	a4,0(a5)
 161:../src/platform/mpfs_hal/common/nwc/mss_cfm.c ****             break;
 577              		.loc 1 161 13
 578 00e2 21A8     		j	.L33
 579              	.L24:
 162:../src/platform/mpfs_hal/common/nwc/mss_cfm.c **** 
 163:../src/platform/mpfs_hal/common/nwc/mss_cfm.c ****         case CFM_COUNT_7:
 164:../src/platform/mpfs_hal/common/nwc/mss_cfm.c ****             *count = CFM_REG->count7;
 580              		.loc 1 164 29
 581 00e4 B7670020 		li	a5,536895488
 582 00e8 DC57     		lw	a5,44(a5)
 583 00ea 1B870700 		sext.w	a4,a5
 584              		.loc 1 164 20
 585 00ee 833704FE 		ld	a5,-32(s0)
 586 00f2 98C3     		sw	a4,0(a5)
 165:../src/platform/mpfs_hal/common/nwc/mss_cfm.c ****             break;
 587              		.loc 1 165 13
 588 00f4 19A0     		j	.L33
 589              	.L23:
 166:../src/platform/mpfs_hal/common/nwc/mss_cfm.c **** 
 167:../src/platform/mpfs_hal/common/nwc/mss_cfm.c ****         default:
 168:../src/platform/mpfs_hal/common/nwc/mss_cfm.c ****             return 11;
 590              		.loc 1 168 20
 591 00f6 AD47     		li	a5,11
 592 00f8 11A0     		j	.L21
 593              	.L33:
 169:../src/platform/mpfs_hal/common/nwc/mss_cfm.c **** 
 170:../src/platform/mpfs_hal/common/nwc/mss_cfm.c **** 
 171:../src/platform/mpfs_hal/common/nwc/mss_cfm.c ****     }
 172:../src/platform/mpfs_hal/common/nwc/mss_cfm.c **** 
 173:../src/platform/mpfs_hal/common/nwc/mss_cfm.c ****     return CFM_OK;
 594              		.loc 1 173 12
 595 00fa 8147     		li	a5,0
 596              	.L21:
 174:../src/platform/mpfs_hal/common/nwc/mss_cfm.c **** 
 175:../src/platform/mpfs_hal/common/nwc/mss_cfm.c **** }
 597              		.loc 1 175 1
 598 00fc 3E85     		mv	a0,a5
 599 00fe 6264     		ld	s0,24(sp)
 600              		.cfi_restore 8
 601              		.cfi_def_cfa 2, 32
 602 0100 0561     		addi	sp,sp,32
 603              		.cfi_def_cfa_offset 0
 604 0102 8280     		jr	ra
 605              		.cfi_endproc
 606              	.LFE28:
 608              		.text
 609              	.Letext0:
 610              		.file 2 "/home/vinay/Desktop/soft_console/SoftConsole-v2022.2-RISC-V-747/riscv-unknown-elf-gcc/ris
 611              		.file 3 "/home/vinay/Desktop/soft_console/SoftConsole-v2022.2-RISC-V-747/riscv-unknown-elf-gcc/ris
 612              		.file 4 "/home/vinay/Desktop/soft_console/SoftConsole-v2022.2-RISC-V-747/riscv-unknown-elf-gcc/lib
 613              		.file 5 "/home/vinay/Desktop/soft_console/SoftConsole-v2022.2-RISC-V-747/riscv-unknown-elf-gcc/ris
 614              		.file 6 "/home/vinay/Desktop/soft_console/SoftConsole-v2022.2-RISC-V-747/riscv-unknown-elf-gcc/ris
 615              		.file 7 "/home/vinay/Desktop/soft_console/SoftConsole-v2022.2-RISC-V-747/riscv-unknown-elf-gcc/ris
 616              		.file 8 "/home/vinay/Desktop/soft_console/SoftConsole-v2022.2-RISC-V-747/riscv-unknown-elf-gcc/ris
 617              		.file 9 "/home/vinay/Desktop/softconsole_watershed/Water-shed/src/platform/mpfs_hal/common/nwc/mss
 618              		.file 10 "/home/vinay/Desktop/softconsole_watershed/Water-shed/src/platform/mpfs_hal/common/nwc/ms
 619              		.file 11 "/home/vinay/Desktop/softconsole_watershed/Water-shed/src/platform/mpfs_hal/common/nwc/ms
 620              		.file 12 "/home/vinay/Desktop/softconsole_watershed/Water-shed/src/platform/mpfs_hal/common/mss_mp
 621              		.file 13 "/home/vinay/Desktop/softconsole_watershed/Water-shed/src/platform/mpfs_hal/common/mss_pl
 622              		.file 14 "/home/vinay/Desktop/softconsole_watershed/Water-shed/src/platform/mpfs_hal/common/nwc/ms
 623              		.file 15 "/home/vinay/Desktop/softconsole_watershed/Water-shed/src/platform/mpfs_hal/startup_gcc/s