   1              		.file	"mss_nwc_init.c"
   2              		.option nopic
   3              		.attribute arch, "rv64i2p0_m2p0_a2p0_f2p0_d2p0_c2p0"
   4              		.attribute unaligned_access, 0
   5              		.attribute stack_align, 16
   6              		.text
   7              	.Ltext0:
   8              		.cfi_sections	.debug_frame
   9              		.section	.text.delay,"ax",@progbits
  10              		.align	1
  12              	delay:
  13              	.LFB23:
  14              		.file 1 "../src/platform/mpfs_hal/common/nwc/mss_nwc_init.h"
   1:../src/platform/mpfs_hal/common/nwc/mss_nwc_init.h **** /*******************************************************************************
   2:../src/platform/mpfs_hal/common/nwc/mss_nwc_init.h ****  * Copyright 2019-2022 Microchip FPGA Embedded Systems Solutions.
   3:../src/platform/mpfs_hal/common/nwc/mss_nwc_init.h ****  *
   4:../src/platform/mpfs_hal/common/nwc/mss_nwc_init.h ****  * SPDX-License-Identifier: MIT
   5:../src/platform/mpfs_hal/common/nwc/mss_nwc_init.h ****  *
   6:../src/platform/mpfs_hal/common/nwc/mss_nwc_init.h ****  * MPFS HAL Embedded Software
   7:../src/platform/mpfs_hal/common/nwc/mss_nwc_init.h ****  *
   8:../src/platform/mpfs_hal/common/nwc/mss_nwc_init.h ****  */
   9:../src/platform/mpfs_hal/common/nwc/mss_nwc_init.h **** 
  10:../src/platform/mpfs_hal/common/nwc/mss_nwc_init.h **** /*******************************************************************************
  11:../src/platform/mpfs_hal/common/nwc/mss_nwc_init.h ****  * @file mss_nwc_init.h
  12:../src/platform/mpfs_hal/common/nwc/mss_nwc_init.h ****  * @author Microchip-FPGA Embedded Systems Solutions
  13:../src/platform/mpfs_hal/common/nwc/mss_nwc_init.h ****  * @brief defines for mss_nwc_init.c
  14:../src/platform/mpfs_hal/common/nwc/mss_nwc_init.h ****  *
  15:../src/platform/mpfs_hal/common/nwc/mss_nwc_init.h ****  */
  16:../src/platform/mpfs_hal/common/nwc/mss_nwc_init.h **** 
  17:../src/platform/mpfs_hal/common/nwc/mss_nwc_init.h **** /*=========================================================================*//**
  18:../src/platform/mpfs_hal/common/nwc/mss_nwc_init.h ****   @page MPFS MSS NWC configuration
  19:../src/platform/mpfs_hal/common/nwc/mss_nwc_init.h ****   ==============================================================================
  20:../src/platform/mpfs_hal/common/nwc/mss_nwc_init.h ****   @section intro_sec Introduction
  21:../src/platform/mpfs_hal/common/nwc/mss_nwc_init.h ****   ==============================================================================
  22:../src/platform/mpfs_hal/common/nwc/mss_nwc_init.h ****   The MPFS microcontroller subsystem (MSS) includes a number of hard core
  23:../src/platform/mpfs_hal/common/nwc/mss_nwc_init.h ****   components physically located in the north west corner of the MSS on the die.
  24:../src/platform/mpfs_hal/common/nwc/mss_nwc_init.h **** 
  25:../src/platform/mpfs_hal/common/nwc/mss_nwc_init.h ****   ==============================================================================
  26:../src/platform/mpfs_hal/common/nwc/mss_nwc_init.h ****   @section Items located in the north west corner
  27:../src/platform/mpfs_hal/common/nwc/mss_nwc_init.h ****   ==============================================================================
  28:../src/platform/mpfs_hal/common/nwc/mss_nwc_init.h ****   MSS PLL
  29:../src/platform/mpfs_hal/common/nwc/mss_nwc_init.h ****   SGMII
  30:../src/platform/mpfs_hal/common/nwc/mss_nwc_init.h ****   DDR phy
  31:../src/platform/mpfs_hal/common/nwc/mss_nwc_init.h ****   MSSIO
  32:../src/platform/mpfs_hal/common/nwc/mss_nwc_init.h **** 
  33:../src/platform/mpfs_hal/common/nwc/mss_nwc_init.h ****   ==============================================================================
  34:../src/platform/mpfs_hal/common/nwc/mss_nwc_init.h ****   @section Flow diagram
  35:../src/platform/mpfs_hal/common/nwc/mss_nwc_init.h ****   ==============================================================================
  36:../src/platform/mpfs_hal/common/nwc/mss_nwc_init.h ****   todo: remove, added line here as test *****
  37:../src/platform/mpfs_hal/common/nwc/mss_nwc_init.h ****   Simplified flow diagram
  38:../src/platform/mpfs_hal/common/nwc/mss_nwc_init.h ****                               +-----------------+
  39:../src/platform/mpfs_hal/common/nwc/mss_nwc_init.h ****                               |     start       |
  40:../src/platform/mpfs_hal/common/nwc/mss_nwc_init.h ****                               |  NWC setup      |
  41:../src/platform/mpfs_hal/common/nwc/mss_nwc_init.h ****                               +-------+---------+
  42:../src/platform/mpfs_hal/common/nwc/mss_nwc_init.h ****                                       v
  43:../src/platform/mpfs_hal/common/nwc/mss_nwc_init.h ****                               +-----------------+
  44:../src/platform/mpfs_hal/common/nwc/mss_nwc_init.h ****                               |   set SCB access|
  45:../src/platform/mpfs_hal/common/nwc/mss_nwc_init.h ****                               |   Parameters    |
  46:../src/platform/mpfs_hal/common/nwc/mss_nwc_init.h ****                               +-------+---------+
  47:../src/platform/mpfs_hal/common/nwc/mss_nwc_init.h ****                                       |
  48:../src/platform/mpfs_hal/common/nwc/mss_nwc_init.h ****                               +-------v---------+
  49:../src/platform/mpfs_hal/common/nwc/mss_nwc_init.h ****                               | Release APB NWC |
  50:../src/platform/mpfs_hal/common/nwc/mss_nwc_init.h ****                               | Turn on APB clk |
  51:../src/platform/mpfs_hal/common/nwc/mss_nwc_init.h ****                               +-------+---------+
  52:../src/platform/mpfs_hal/common/nwc/mss_nwc_init.h ****                                       |
  53:../src/platform/mpfs_hal/common/nwc/mss_nwc_init.h ****                               +-------v---------+
  54:../src/platform/mpfs_hal/common/nwc/mss_nwc_init.h ****                               | Set Dynamic     |
  55:../src/platform/mpfs_hal/common/nwc/mss_nwc_init.h ****                               | enable bits     |
  56:../src/platform/mpfs_hal/common/nwc/mss_nwc_init.h ****                               +-------++--------+
  57:../src/platform/mpfs_hal/common/nwc/mss_nwc_init.h ****                                       |
  58:../src/platform/mpfs_hal/common/nwc/mss_nwc_init.h ****                               +-------v---------+
  59:../src/platform/mpfs_hal/common/nwc/mss_nwc_init.h ****                               | Setup signals   |
  60:../src/platform/mpfs_hal/common/nwc/mss_nwc_init.h ****                               | DCE,CORE_UP,    |
  61:../src/platform/mpfs_hal/common/nwc/mss_nwc_init.h ****                               | Flash_Valid,    |
  62:../src/platform/mpfs_hal/common/nwc/mss_nwc_init.h ****                               | MSS_IO_EN       |
  63:../src/platform/mpfs_hal/common/nwc/mss_nwc_init.h ****                               +-------+---------+
  64:../src/platform/mpfs_hal/common/nwc/mss_nwc_init.h ****                                       |
  65:../src/platform/mpfs_hal/common/nwc/mss_nwc_init.h ****                               +-------v---------+
  66:../src/platform/mpfs_hal/common/nwc/mss_nwc_init.h ****                               | Setup SGMII     |
  67:../src/platform/mpfs_hal/common/nwc/mss_nwc_init.h ****                               |                 |
  68:../src/platform/mpfs_hal/common/nwc/mss_nwc_init.h ****                               +-------+---------+
  69:../src/platform/mpfs_hal/common/nwc/mss_nwc_init.h ****                                       |
  70:../src/platform/mpfs_hal/common/nwc/mss_nwc_init.h ****                               +-------v---------+
  71:../src/platform/mpfs_hal/common/nwc/mss_nwc_init.h ****                               | Setup DDR       |
  72:../src/platform/mpfs_hal/common/nwc/mss_nwc_init.h ****                               |                 |
  73:../src/platform/mpfs_hal/common/nwc/mss_nwc_init.h ****                               +-------+---------+
  74:../src/platform/mpfs_hal/common/nwc/mss_nwc_init.h ****                                       |
  75:../src/platform/mpfs_hal/common/nwc/mss_nwc_init.h ****                               +-------v---------+
  76:../src/platform/mpfs_hal/common/nwc/mss_nwc_init.h ****                               | Setup MSSIO     |
  77:../src/platform/mpfs_hal/common/nwc/mss_nwc_init.h ****                               |                 |
  78:../src/platform/mpfs_hal/common/nwc/mss_nwc_init.h ****                               +-------+---------+
  79:../src/platform/mpfs_hal/common/nwc/mss_nwc_init.h ****                                       |
  80:../src/platform/mpfs_hal/common/nwc/mss_nwc_init.h ****                               +-------v---------+
  81:../src/platform/mpfs_hal/common/nwc/mss_nwc_init.h ****                               |    Finished     |
  82:../src/platform/mpfs_hal/common/nwc/mss_nwc_init.h ****                               +-----------------+
  83:../src/platform/mpfs_hal/common/nwc/mss_nwc_init.h **** 
  84:../src/platform/mpfs_hal/common/nwc/mss_nwc_init.h ****  *//*=========================================================================*/
  85:../src/platform/mpfs_hal/common/nwc/mss_nwc_init.h **** #ifndef __MSS_NWC_INIT_H_
  86:../src/platform/mpfs_hal/common/nwc/mss_nwc_init.h **** #define __MSS_NWC_INIT_H_ 1
  87:../src/platform/mpfs_hal/common/nwc/mss_nwc_init.h **** 
  88:../src/platform/mpfs_hal/common/nwc/mss_nwc_init.h **** 
  89:../src/platform/mpfs_hal/common/nwc/mss_nwc_init.h **** #include <stddef.h>
  90:../src/platform/mpfs_hal/common/nwc/mss_nwc_init.h **** #include <stdint.h>
  91:../src/platform/mpfs_hal/common/nwc/mss_nwc_init.h **** #include "../encoding.h"
  92:../src/platform/mpfs_hal/common/nwc/mss_nwc_init.h **** 
  93:../src/platform/mpfs_hal/common/nwc/mss_nwc_init.h **** #ifdef __cplusplus
  94:../src/platform/mpfs_hal/common/nwc/mss_nwc_init.h **** extern "C" {
  95:../src/platform/mpfs_hal/common/nwc/mss_nwc_init.h **** #endif
  96:../src/platform/mpfs_hal/common/nwc/mss_nwc_init.h **** 
  97:../src/platform/mpfs_hal/common/nwc/mss_nwc_init.h **** #define DELAY_CYCLES_500_NS            ((uint32_t)(0.0000005 * LIBERO_SETTING_MSS_COREPLEX_CPU_CLK)
  98:../src/platform/mpfs_hal/common/nwc/mss_nwc_init.h **** #define DELAY_CYCLES_1_MICRO           ((uint32_t)(DELAY_CYCLES_500_NS * 2U))
  99:../src/platform/mpfs_hal/common/nwc/mss_nwc_init.h **** #define DELAY_CYCLES_5_MICRO           ((uint32_t)(DELAY_CYCLES_500_NS * 10U))
 100:../src/platform/mpfs_hal/common/nwc/mss_nwc_init.h **** #define DELAY_CYCLES_50_MICRO          ((uint32_t)(DELAY_CYCLES_500_NS * 100U))
 101:../src/platform/mpfs_hal/common/nwc/mss_nwc_init.h **** #define DELAY_CYCLES_150_MICRO         ((uint32_t)(DELAY_CYCLES_500_NS * 300U))
 102:../src/platform/mpfs_hal/common/nwc/mss_nwc_init.h **** #define DELAY_CYCLES_250_MICRO         ((uint32_t)(DELAY_CYCLES_500_NS * 500U))
 103:../src/platform/mpfs_hal/common/nwc/mss_nwc_init.h **** #define DELAY_CYCLES_500_MICRO         ((uint32_t)(DELAY_CYCLES_500_NS * 1000U))
 104:../src/platform/mpfs_hal/common/nwc/mss_nwc_init.h **** #define DELAY_CYCLES_2MS               ((uint32_t)(DELAY_CYCLES_500_NS * 4000U))
 105:../src/platform/mpfs_hal/common/nwc/mss_nwc_init.h **** #define DELAY_CYCLES_100MS             ((uint32_t)(DELAY_CYCLES_2MS * 50U))
 106:../src/platform/mpfs_hal/common/nwc/mss_nwc_init.h **** 
 107:../src/platform/mpfs_hal/common/nwc/mss_nwc_init.h **** /***************************************************************************//**
 108:../src/platform/mpfs_hal/common/nwc/mss_nwc_init.h **** 
 109:../src/platform/mpfs_hal/common/nwc/mss_nwc_init.h ****  */
 110:../src/platform/mpfs_hal/common/nwc/mss_nwc_init.h **** typedef enum {
 111:../src/platform/mpfs_hal/common/nwc/mss_nwc_init.h ****     DDR_BOOT_PROGRESS      = 0x00      //!< DDR_BOOT_PROGRESS
 112:../src/platform/mpfs_hal/common/nwc/mss_nwc_init.h **** } MSS_REPORT_STATUS;
 113:../src/platform/mpfs_hal/common/nwc/mss_nwc_init.h **** 
 114:../src/platform/mpfs_hal/common/nwc/mss_nwc_init.h **** /*-------------------------------------------------------------------------*//**
 115:../src/platform/mpfs_hal/common/nwc/mss_nwc_init.h ****  * delay()
 116:../src/platform/mpfs_hal/common/nwc/mss_nwc_init.h ****  * Simple wait delay based on mcycles count
 117:../src/platform/mpfs_hal/common/nwc/mss_nwc_init.h ****  * @param n Number of mcycles to wait.
 118:../src/platform/mpfs_hal/common/nwc/mss_nwc_init.h ****  */
 119:../src/platform/mpfs_hal/common/nwc/mss_nwc_init.h **** static inline void delay(uint32_t n)
 120:../src/platform/mpfs_hal/common/nwc/mss_nwc_init.h **** {
  15              		.loc 1 120 1
  16              		.cfi_startproc
  17 0000 3971     		addi	sp,sp,-64
  18              		.cfi_def_cfa_offset 64
  19 0002 22FC     		sd	s0,56(sp)
  20              		.cfi_offset 8, -8
  21 0004 8000     		addi	s0,sp,64
  22              		.cfi_def_cfa 8, 0
  23 0006 AA87     		mv	a5,a0
  24 0008 2326F4FC 		sw	a5,-52(s0)
  25              	.LBB2:
 121:../src/platform/mpfs_hal/common/nwc/mss_nwc_init.h ****     volatile uint64_t cycles_end = rdcycle() + n ;
  26              		.loc 1 121 36
  27              	 #APP
  28              	# 121 "../src/platform/mpfs_hal/common/nwc/mss_nwc_init.h" 1
 122              	    while (rdcycle() < cycles_end)
  29              		csrr a5, cycle
  30              	# 0 "" 2
  31              	 #NO_APP
  32 0010 2334F4FE 		sd	a5,-24(s0)
  33 0014 033784FE 		ld	a4,-24(s0)
  34              	.LBE2:
 121:../src/platform/mpfs_hal/common/nwc/mss_nwc_init.h ****     volatile uint64_t cycles_end = rdcycle() + n ;
  35              		.loc 1 121 46
  36 0018 8367C4FC 		lwu	a5,-52(s0)
  37 001c BA97     		add	a5,a4,a5
 121:../src/platform/mpfs_hal/common/nwc/mss_nwc_init.h ****     volatile uint64_t cycles_end = rdcycle() + n ;
  38              		.loc 1 121 23
  39 001e 233CF4FC 		sd	a5,-40(s0)
  40              		.loc 1 122 11
  41 0022 0100     		nop
  42              	.L2:
  43              	.LBB3:
  44              		.loc 1 122 12 discriminator 1
  45              	 #APP
  46              	# 122 "../src/platform/mpfs_hal/common/nwc/mss_nwc_init.h" 1
 123              	    {
  47              		csrr a5, cycle
  48              	# 0 "" 2
  49              	 #NO_APP
  50 0028 2330F4FE 		sd	a5,-32(s0)
  51 002c 033704FE 		ld	a4,-32(s0)
  52              	.LBE3:
 122:../src/platform/mpfs_hal/common/nwc/mss_nwc_init.h ****     {
  53              		.loc 1 122 22 discriminator 1
  54 0030 833784FD 		ld	a5,-40(s0)
 122:../src/platform/mpfs_hal/common/nwc/mss_nwc_init.h ****     {
  55              		.loc 1 122 11 discriminator 1
  56 0034 E368F7FE 		bltu	a4,a5,.L2
 124:../src/platform/mpfs_hal/common/nwc/mss_nwc_init.h **** 
 125:../src/platform/mpfs_hal/common/nwc/mss_nwc_init.h ****     }
 126:../src/platform/mpfs_hal/common/nwc/mss_nwc_init.h **** }
  57              		.loc 1 126 1
  58 0038 0100     		nop
  59 003a 6274     		ld	s0,56(sp)
  60              		.cfi_restore 8
  61              		.cfi_def_cfa 2, 64
  62 003c 2161     		addi	sp,sp,64
  63              		.cfi_def_cfa_offset 0
  64 003e 8280     		jr	ra
  65              		.cfi_endproc
  66              	.LFE23:
  68              		.globl	CFG_DDR_SGMII_PHY
  69              		.section	.sdata2.CFG_DDR_SGMII_PHY,"a"
  70              		.align	3
  73              	CFG_DDR_SGMII_PHY:
  74 0000 00700020 		.dword	536899584
  74      00000000 
  75              		.globl	DDRCFG
  76              		.section	.sdata2.DDRCFG,"a"
  77              		.align	3
  80              	DDRCFG:
  81 0000 00000820 		.dword	537395200
  81      00000000 
  82              		.globl	SCBCFG_REGS
  83              		.section	.sdata2.SCBCFG_REGS,"a"
  84              		.align	3
  87              	SCBCFG_REGS:
  88 0000 00000837 		.dword	923271168
  88      00000000 
  89              		.globl	SCB_REGS
  90              		.section	.sdata2.SCB_REGS,"a"
  91              		.align	3
  94              	SCB_REGS:
  95 0000 00300020 		.dword	536883200
  95      00000000 
  96              		.section	.text.mss_nwc_init,"ax",@progbits
  97              		.align	1
  98              		.globl	mss_nwc_init
 100              	mss_nwc_init:
 101              	.LFB24:
 102              		.file 2 "../src/platform/mpfs_hal/common/nwc/mss_nwc_init.c"
   1:../src/platform/mpfs_hal/common/nwc/mss_nwc_init.c **** /*******************************************************************************
   2:../src/platform/mpfs_hal/common/nwc/mss_nwc_init.c ****  * Copyright 2019-2022 Microchip FPGA Embedded Systems Solutions.
   3:../src/platform/mpfs_hal/common/nwc/mss_nwc_init.c ****  *
   4:../src/platform/mpfs_hal/common/nwc/mss_nwc_init.c ****  * SPDX-License-Identifier: MIT
   5:../src/platform/mpfs_hal/common/nwc/mss_nwc_init.c ****  *
   6:../src/platform/mpfs_hal/common/nwc/mss_nwc_init.c ****  * MPFS HAL Embedded Software
   7:../src/platform/mpfs_hal/common/nwc/mss_nwc_init.c ****  *
   8:../src/platform/mpfs_hal/common/nwc/mss_nwc_init.c ****  */
   9:../src/platform/mpfs_hal/common/nwc/mss_nwc_init.c **** 
  10:../src/platform/mpfs_hal/common/nwc/mss_nwc_init.c **** /*******************************************************************************
  11:../src/platform/mpfs_hal/common/nwc/mss_nwc_init.c ****  * @file mss_nwc_init.c
  12:../src/platform/mpfs_hal/common/nwc/mss_nwc_init.c ****  * @author Microchip-FPGA Embedded Systems Solutions
  13:../src/platform/mpfs_hal/common/nwc/mss_nwc_init.c ****  * @brief north west corner, calls required startup code
  14:../src/platform/mpfs_hal/common/nwc/mss_nwc_init.c ****  *
  15:../src/platform/mpfs_hal/common/nwc/mss_nwc_init.c ****  */
  16:../src/platform/mpfs_hal/common/nwc/mss_nwc_init.c **** 
  17:../src/platform/mpfs_hal/common/nwc/mss_nwc_init.c **** #include <string.h>
  18:../src/platform/mpfs_hal/common/nwc/mss_nwc_init.c **** #include <stdio.h>
  19:../src/platform/mpfs_hal/common/nwc/mss_nwc_init.c **** #include "mpfs_hal/mss_hal.h"
  20:../src/platform/mpfs_hal/common/nwc/mss_nwc_init.c **** #include "mss_nwc_init.h"
  21:../src/platform/mpfs_hal/common/nwc/mss_nwc_init.c **** #include "simulation.h"
  22:../src/platform/mpfs_hal/common/nwc/mss_nwc_init.c **** 
  23:../src/platform/mpfs_hal/common/nwc/mss_nwc_init.c **** #ifdef DEBUG_DDR_INIT
  24:../src/platform/mpfs_hal/common/nwc/mss_nwc_init.c **** #include "drivers/mss/mss_mmuart/mss_uart.h"
  25:../src/platform/mpfs_hal/common/nwc/mss_nwc_init.c **** extern mss_uart_instance_t *g_debug_uart ;
  26:../src/platform/mpfs_hal/common/nwc/mss_nwc_init.c **** #endif
  27:../src/platform/mpfs_hal/common/nwc/mss_nwc_init.c **** 
  28:../src/platform/mpfs_hal/common/nwc/mss_nwc_init.c **** /*******************************************************************************
  29:../src/platform/mpfs_hal/common/nwc/mss_nwc_init.c ****  * Local Defines
  30:../src/platform/mpfs_hal/common/nwc/mss_nwc_init.c ****  */
  31:../src/platform/mpfs_hal/common/nwc/mss_nwc_init.c **** CFG_DDR_SGMII_PHY_TypeDef       * const CFG_DDR_SGMII_PHY   =  ((CFG_DDR_SGMII_PHY_TypeDef *) CFG_D
  32:../src/platform/mpfs_hal/common/nwc/mss_nwc_init.c **** DDR_CSR_APB_TypeDef             * const DDRCFG              = ((DDR_CSR_APB_TypeDef *)       DDRCFG
  33:../src/platform/mpfs_hal/common/nwc/mss_nwc_init.c **** IOSCBCFG_TypeDef                * const SCBCFG_REGS         =  (IOSCBCFG_TypeDef            *)IOSCB
  34:../src/platform/mpfs_hal/common/nwc/mss_nwc_init.c **** g5_mss_top_scb_regs_TypeDef     * const SCB_REGS            = (g5_mss_top_scb_regs_TypeDef *) SYSRE
  35:../src/platform/mpfs_hal/common/nwc/mss_nwc_init.c **** 
  36:../src/platform/mpfs_hal/common/nwc/mss_nwc_init.c **** /*******************************************************************************
  37:../src/platform/mpfs_hal/common/nwc/mss_nwc_init.c ****  * Local functions
  38:../src/platform/mpfs_hal/common/nwc/mss_nwc_init.c ****  */
  39:../src/platform/mpfs_hal/common/nwc/mss_nwc_init.c **** static uint64_t report_status_functions(MSS_REPORT_STATUS report_status, uint64_t next_time);
  40:../src/platform/mpfs_hal/common/nwc/mss_nwc_init.c **** 
  41:../src/platform/mpfs_hal/common/nwc/mss_nwc_init.c **** /*******************************************************************************
  42:../src/platform/mpfs_hal/common/nwc/mss_nwc_init.c ****  * extern defined functions
  43:../src/platform/mpfs_hal/common/nwc/mss_nwc_init.c ****  */
  44:../src/platform/mpfs_hal/common/nwc/mss_nwc_init.c **** 
  45:../src/platform/mpfs_hal/common/nwc/mss_nwc_init.c **** /******************************************************************************
  46:../src/platform/mpfs_hal/common/nwc/mss_nwc_init.c ****  * Public Functions - API
  47:../src/platform/mpfs_hal/common/nwc/mss_nwc_init.c ****  ******************************************************************************/
  48:../src/platform/mpfs_hal/common/nwc/mss_nwc_init.c **** 
  49:../src/platform/mpfs_hal/common/nwc/mss_nwc_init.c **** /**
  50:../src/platform/mpfs_hal/common/nwc/mss_nwc_init.c ****  * mss_nwc_init(void)
  51:../src/platform/mpfs_hal/common/nwc/mss_nwc_init.c ****  * Init of MSS called after hard and soft boot
  52:../src/platform/mpfs_hal/common/nwc/mss_nwc_init.c ****  * Settings informed by MSS Configurator config.
  53:../src/platform/mpfs_hal/common/nwc/mss_nwc_init.c ****  *   - some registers set to required values
  54:../src/platform/mpfs_hal/common/nwc/mss_nwc_init.c ****  *   - PLL
  55:../src/platform/mpfs_hal/common/nwc/mss_nwc_init.c ****  *   - SGMII
  56:../src/platform/mpfs_hal/common/nwc/mss_nwc_init.c ****  *   - MSS IO
  57:../src/platform/mpfs_hal/common/nwc/mss_nwc_init.c ****  * @return
  58:../src/platform/mpfs_hal/common/nwc/mss_nwc_init.c ****  */
  59:../src/platform/mpfs_hal/common/nwc/mss_nwc_init.c **** uint8_t mss_nwc_init(void)
  60:../src/platform/mpfs_hal/common/nwc/mss_nwc_init.c **** {
 103              		.loc 2 60 1
 104              		.cfi_startproc
 105 0000 0111     		addi	sp,sp,-32
 106              		.cfi_def_cfa_offset 32
 107 0002 06EC     		sd	ra,24(sp)
 108 0004 22E8     		sd	s0,16(sp)
 109              		.cfi_offset 1, -8
 110              		.cfi_offset 8, -16
 111 0006 0010     		addi	s0,sp,32
 112              		.cfi_def_cfa 8, 0
  61:../src/platform/mpfs_hal/common/nwc/mss_nwc_init.c ****     uint8_t error = 0U;
 113              		.loc 2 61 13
 114 0008 A30704FE 		sb	zero,-17(s0)
  62:../src/platform/mpfs_hal/common/nwc/mss_nwc_init.c **** 
  63:../src/platform/mpfs_hal/common/nwc/mss_nwc_init.c ****     /*
  64:../src/platform/mpfs_hal/common/nwc/mss_nwc_init.c ****      * Assumptions:
  65:../src/platform/mpfs_hal/common/nwc/mss_nwc_init.c ****      *  1. We enter here shortly after start-up of E51 code by  the system
  66:../src/platform/mpfs_hal/common/nwc/mss_nwc_init.c ****      *  controller.
  67:../src/platform/mpfs_hal/common/nwc/mss_nwc_init.c ****      *  2. We are running on the E51 and all other cores  are in wfi.
  68:../src/platform/mpfs_hal/common/nwc/mss_nwc_init.c ****      *  3. The MSS PLL will be set to use default internal clock of 80MH
  69:../src/platform/mpfs_hal/common/nwc/mss_nwc_init.c ****      *  4. MSS peripherals including the I/O are in the default power on state
  70:../src/platform/mpfs_hal/common/nwc/mss_nwc_init.c ****      *
  71:../src/platform/mpfs_hal/common/nwc/mss_nwc_init.c ****      *
  72:../src/platform/mpfs_hal/common/nwc/mss_nwc_init.c ****      *   The following implements setting of
  73:../src/platform/mpfs_hal/common/nwc/mss_nwc_init.c ****      *          external clock reference
  74:../src/platform/mpfs_hal/common/nwc/mss_nwc_init.c ****      *          MSS PLL, SHMII PLL, SGMII PLL, MSS Mux's
  75:../src/platform/mpfs_hal/common/nwc/mss_nwc_init.c ****      *          IO settings and IO MUX
  76:../src/platform/mpfs_hal/common/nwc/mss_nwc_init.c ****      *          HSIO IO calibration options
  77:../src/platform/mpfs_hal/common/nwc/mss_nwc_init.c ****      *          SGMII configuration
  78:../src/platform/mpfs_hal/common/nwc/mss_nwc_init.c ****      *          DDR configuration
  79:../src/platform/mpfs_hal/common/nwc/mss_nwc_init.c ****      *              Including SEG regs
  80:../src/platform/mpfs_hal/common/nwc/mss_nwc_init.c ****      *          MPU setup
  81:../src/platform/mpfs_hal/common/nwc/mss_nwc_init.c ****      *          PMP setup
  82:../src/platform/mpfs_hal/common/nwc/mss_nwc_init.c ****      *          ABP Peripheral address setup (High/Low)
  83:../src/platform/mpfs_hal/common/nwc/mss_nwc_init.c ****      *
  84:../src/platform/mpfs_hal/common/nwc/mss_nwc_init.c ****      */
  85:../src/platform/mpfs_hal/common/nwc/mss_nwc_init.c **** 
  86:../src/platform/mpfs_hal/common/nwc/mss_nwc_init.c ****     /*
  87:../src/platform/mpfs_hal/common/nwc/mss_nwc_init.c ****      * Set based on reference clock
  88:../src/platform/mpfs_hal/common/nwc/mss_nwc_init.c ****      */
  89:../src/platform/mpfs_hal/common/nwc/mss_nwc_init.c ****     set_RTC_divisor();
 115              		.loc 2 89 5
 116 000c 97000000 		call	set_RTC_divisor
 116      E7800000 
  90:../src/platform/mpfs_hal/common/nwc/mss_nwc_init.c **** 
  91:../src/platform/mpfs_hal/common/nwc/mss_nwc_init.c ****     /*
  92:../src/platform/mpfs_hal/common/nwc/mss_nwc_init.c ****      * SCB access settings
  93:../src/platform/mpfs_hal/common/nwc/mss_nwc_init.c ****      */
  94:../src/platform/mpfs_hal/common/nwc/mss_nwc_init.c ****     SCBCFG_REGS->TIMER.TIMER = MSS_SCB_ACCESS_CONFIG;
 117              		.loc 2 94 16
 118 0014 B7070837 		li	a5,923271168
 119              		.loc 2 94 30
 120 0018 37A70800 		li	a4,565248
 121 001c 13070708 		addi	a4,a4,128
 122 0020 98C7     		sw	a4,8(a5)
  95:../src/platform/mpfs_hal/common/nwc/mss_nwc_init.c **** 
  96:../src/platform/mpfs_hal/common/nwc/mss_nwc_init.c ****     /*
  97:../src/platform/mpfs_hal/common/nwc/mss_nwc_init.c ****      * Release APB reset & turn on dfi clock
  98:../src/platform/mpfs_hal/common/nwc/mss_nwc_init.c ****      *
  99:../src/platform/mpfs_hal/common/nwc/mss_nwc_init.c ****      * reserved bit 31:2
 100:../src/platform/mpfs_hal/common/nwc/mss_nwc_init.c ****      * reset    bit 1   Asserts the APB reset to the MSS corner, is asserted at
 101:../src/platform/mpfs_hal/common/nwc/mss_nwc_init.c ****      *                  MSS reset.
 102:../src/platform/mpfs_hal/common/nwc/mss_nwc_init.c ****      * clock_on bit 0   Turns on the APB clock to the MSS Corner, is off at
 103:../src/platform/mpfs_hal/common/nwc/mss_nwc_init.c ****      *                  reset. Once corner blocks is configured the firmware
 104:../src/platform/mpfs_hal/common/nwc/mss_nwc_init.c ****      *                  may turn off the clock, but periodically should turn
 105:../src/platform/mpfs_hal/common/nwc/mss_nwc_init.c ****      *                  back on to allow refresh of TMR registers inside
 106:../src/platform/mpfs_hal/common/nwc/mss_nwc_init.c ****      *                  the corner block.
 107:../src/platform/mpfs_hal/common/nwc/mss_nwc_init.c ****      *
 108:../src/platform/mpfs_hal/common/nwc/mss_nwc_init.c ****      */
 109:../src/platform/mpfs_hal/common/nwc/mss_nwc_init.c ****     SYSREG->DFIAPB_CR = 0x00000001U;
 123              		.loc 2 109 11
 124 0022 B7270020 		li	a5,536879104
 125              		.loc 2 109 23
 126 0026 0547     		li	a4,1
 127 0028 23ACE708 		sw	a4,152(a5)
 110:../src/platform/mpfs_hal/common/nwc/mss_nwc_init.c **** 
 111:../src/platform/mpfs_hal/common/nwc/mss_nwc_init.c ****     /*
 112:../src/platform/mpfs_hal/common/nwc/mss_nwc_init.c ****      * Dynamic APB enables for slaves
 113:../src/platform/mpfs_hal/common/nwc/mss_nwc_init.c ****      * APB  dynamic enables determine if we can write to the associated APB
 114:../src/platform/mpfs_hal/common/nwc/mss_nwc_init.c ****      * registers.
 115:../src/platform/mpfs_hal/common/nwc/mss_nwc_init.c ****      * ACB dynamic enables determine if we can write to the associated SCB
 116:../src/platform/mpfs_hal/common/nwc/mss_nwc_init.c ****      * registers.
 117:../src/platform/mpfs_hal/common/nwc/mss_nwc_init.c ****      *
 118:../src/platform/mpfs_hal/common/nwc/mss_nwc_init.c ****      * bit 31:22 Reserved
 119:../src/platform/mpfs_hal/common/nwc/mss_nwc_init.c ****      * bit 21   DYNEN_APB_DECODER_PRESETS
 120:../src/platform/mpfs_hal/common/nwc/mss_nwc_init.c ****      * bit 20   DYNEN_APB_BANKCNTL
 121:../src/platform/mpfs_hal/common/nwc/mss_nwc_init.c ****      * bit 19   DYNEN_APB_IO_CALIB
 122:../src/platform/mpfs_hal/common/nwc/mss_nwc_init.c ****      * bit 18   DYNEN_APB_CFM
 123:../src/platform/mpfs_hal/common/nwc/mss_nwc_init.c ****      * bit 17   DYNEN_APB_PLL1
 124:../src/platform/mpfs_hal/common/nwc/mss_nwc_init.c ****      * bit 16   DYNEN_APB_PLL0
 125:../src/platform/mpfs_hal/common/nwc/mss_nwc_init.c ****      * bit 15:13 Reserved
 126:../src/platform/mpfs_hal/common/nwc/mss_nwc_init.c ****      * bit 12   DYNEN_SCB_BANKCNTL
 127:../src/platform/mpfs_hal/common/nwc/mss_nwc_init.c ****      * bit 11   DYNEN_SCB_IO_CALIB
 128:../src/platform/mpfs_hal/common/nwc/mss_nwc_init.c ****      * bit 10   DYNEN_SCB_CFM
 129:../src/platform/mpfs_hal/common/nwc/mss_nwc_init.c ****      * bit 9    DYNEN_SCB_PLL1
 130:../src/platform/mpfs_hal/common/nwc/mss_nwc_init.c ****      * bit 8    DYNEN_SCB_PLL0
 131:../src/platform/mpfs_hal/common/nwc/mss_nwc_init.c ****      * bit 7:5 Reserved
 132:../src/platform/mpfs_hal/common/nwc/mss_nwc_init.c ****      * bit 4    Persist_DATA
 133:../src/platform/mpfs_hal/common/nwc/mss_nwc_init.c ****      * bit 3    CLKOUT
 134:../src/platform/mpfs_hal/common/nwc/mss_nwc_init.c ****      * bit 2    PERSIST_ADD_CMD
 135:../src/platform/mpfs_hal/common/nwc/mss_nwc_init.c ****      * bit 1    DATA_Lockdn
 136:../src/platform/mpfs_hal/common/nwc/mss_nwc_init.c ****      * bit 0    ADD_CMD_Lockdn
 137:../src/platform/mpfs_hal/common/nwc/mss_nwc_init.c ****      */
 138:../src/platform/mpfs_hal/common/nwc/mss_nwc_init.c ****     CFG_DDR_SGMII_PHY->DDRPHY_STARTUP.DDRPHY_STARTUP =\
 128              		.loc 2 138 22
 129 002c B7770020 		li	a5,536899584
 130              		.loc 2 138 54
 131 0030 37273F00 		li	a4,4136960
 132 0034 130707F0 		addi	a4,a4,-256
 133 0038 98C7     		sw	a4,8(a5)
 139:../src/platform/mpfs_hal/common/nwc/mss_nwc_init.c ****             (0x3FU << 16U) | (0x1FU << 8U);
 140:../src/platform/mpfs_hal/common/nwc/mss_nwc_init.c ****     /* Enable all dynamic enables
 141:../src/platform/mpfs_hal/common/nwc/mss_nwc_init.c ****        When in dynamic enable more, this allows:
 142:../src/platform/mpfs_hal/common/nwc/mss_nwc_init.c ****        1. writing directly using SCB
 143:../src/platform/mpfs_hal/common/nwc/mss_nwc_init.c ****        2. setting using RPC on a soft reset
 144:../src/platform/mpfs_hal/common/nwc/mss_nwc_init.c ****      */
 145:../src/platform/mpfs_hal/common/nwc/mss_nwc_init.c ****     CFG_DDR_SGMII_PHY->DYN_CNTL.DYN_CNTL = (0x01U<< 10U) | (0x7FU<<0U);
 134              		.loc 2 145 22
 135 003a 37770020 		li	a4,536899584
 136              		.loc 2 145 42
 137 003e 8567     		li	a5,4096
 138 0040 BA97     		add	a5,a4,a5
 139 0042 1307F047 		li	a4,1151
 140 0046 23AEE7C0 		sw	a4,-996(a5)
 146:../src/platform/mpfs_hal/common/nwc/mss_nwc_init.c **** 
 147:../src/platform/mpfs_hal/common/nwc/mss_nwc_init.c ****     /*
 148:../src/platform/mpfs_hal/common/nwc/mss_nwc_init.c ****      * Configure IOMUX and I/O settings for bank 2 and 4
 149:../src/platform/mpfs_hal/common/nwc/mss_nwc_init.c ****      */
 150:../src/platform/mpfs_hal/common/nwc/mss_nwc_init.c ****     {
 151:../src/platform/mpfs_hal/common/nwc/mss_nwc_init.c **** #ifdef MSSIO_SUPPORT
 152:../src/platform/mpfs_hal/common/nwc/mss_nwc_init.c ****         error |= mssio_setup();
 141              		.loc 2 152 18
 142 004a 97000000 		call	mssio_setup
 142      E7800000 
 143 0052 AA87     		mv	a5,a0
 144 0054 3E87     		mv	a4,a5
 145              		.loc 2 152 15
 146 0056 8347F4FE 		lbu	a5,-17(s0)
 147 005a D98F     		or	a5,a4,a5
 148 005c A307F4FE 		sb	a5,-17(s0)
 153:../src/platform/mpfs_hal/common/nwc/mss_nwc_init.c **** #endif
 154:../src/platform/mpfs_hal/common/nwc/mss_nwc_init.c ****     }
 155:../src/platform/mpfs_hal/common/nwc/mss_nwc_init.c **** 
 156:../src/platform/mpfs_hal/common/nwc/mss_nwc_init.c ****     /*************************************************************************/
 157:../src/platform/mpfs_hal/common/nwc/mss_nwc_init.c **** 
 158:../src/platform/mpfs_hal/common/nwc/mss_nwc_init.c ****     /*
 159:../src/platform/mpfs_hal/common/nwc/mss_nwc_init.c ****      *
 160:../src/platform/mpfs_hal/common/nwc/mss_nwc_init.c ****      *  In this step we enter Dynamic Enable mode.
 161:../src/platform/mpfs_hal/common/nwc/mss_nwc_init.c ****      *  This is done by using the following sequence:
 162:../src/platform/mpfs_hal/common/nwc/mss_nwc_init.c ****      *
 163:../src/platform/mpfs_hal/common/nwc/mss_nwc_init.c ****      *  Please note all dynamic enables must be enabled.
 164:../src/platform/mpfs_hal/common/nwc/mss_nwc_init.c ****      *  If dynamic enables are not enabled, when flash valid is asserted, value
 165:../src/platform/mpfs_hal/common/nwc/mss_nwc_init.c ****      *  of SCB registers will be immediately written to with default values
 166:../src/platform/mpfs_hal/common/nwc/mss_nwc_init.c ****      *  rather than the RPC values.
 167:../src/platform/mpfs_hal/common/nwc/mss_nwc_init.c ****      *
 168:../src/platform/mpfs_hal/common/nwc/mss_nwc_init.c ****      *  Dynamic Enable mode:
 169:../src/platform/mpfs_hal/common/nwc/mss_nwc_init.c ****      *      Step 1:
 170:../src/platform/mpfs_hal/common/nwc/mss_nwc_init.c ****      *          Make sure SCB dynamic enable bit is high
 171:../src/platform/mpfs_hal/common/nwc/mss_nwc_init.c ****      *      step 2: Assert MSS core_up
 172:../src/platform/mpfs_hal/common/nwc/mss_nwc_init.c ****      *          followed by delay
 173:../src/platform/mpfs_hal/common/nwc/mss_nwc_init.c ****      *      step 3: Change dce[0,1,2] to 0x00
 174:../src/platform/mpfs_hal/common/nwc/mss_nwc_init.c ****      *          followed by delay
 175:../src/platform/mpfs_hal/common/nwc/mss_nwc_init.c ****      *      step 4: Assert flash valid
 176:../src/platform/mpfs_hal/common/nwc/mss_nwc_init.c ****      *          followed by delay
 177:../src/platform/mpfs_hal/common/nwc/mss_nwc_init.c ****      *      step 5: make sure all RPC registers are set to desired values
 178:../src/platform/mpfs_hal/common/nwc/mss_nwc_init.c ****      *              (using mode and direct RPC writes to RPC)
 179:../src/platform/mpfs_hal/common/nwc/mss_nwc_init.c ****      *      step 6: soft reset IP so SCB registers are written with RPC values.
 180:../src/platform/mpfs_hal/common/nwc/mss_nwc_init.c ****      *          note: We will carry out step 5/6 later, once we have modified any
 181:../src/platform/mpfs_hal/common/nwc/mss_nwc_init.c ****      *          RPC registers directly that may need tweaking or are not
 182:../src/platform/mpfs_hal/common/nwc/mss_nwc_init.c ****      *          included in the mode write state machine, carried out in a
 183:../src/platform/mpfs_hal/common/nwc/mss_nwc_init.c ****      *          previous step.
 184:../src/platform/mpfs_hal/common/nwc/mss_nwc_init.c ****      *
 185:../src/platform/mpfs_hal/common/nwc/mss_nwc_init.c ****      *          Note 1: The SCB bus can be used to update/write new values to
 186:../src/platform/mpfs_hal/common/nwc/mss_nwc_init.c ****      *          the SCB registers through the SCB bus interface while in Dynamic
 187:../src/platform/mpfs_hal/common/nwc/mss_nwc_init.c ****      *          enable mode
 188:../src/platform/mpfs_hal/common/nwc/mss_nwc_init.c ****      *          Note 2: The MSS top block assertion of core_up and flash_valid
 189:../src/platform/mpfs_hal/common/nwc/mss_nwc_init.c ****      *          have no effect in themselves if MSS custom SCB register values
 190:../src/platform/mpfs_hal/common/nwc/mss_nwc_init.c ****      *          if the custom SCB slaves are not being reset at the same time.
 191:../src/platform/mpfs_hal/common/nwc/mss_nwc_init.c ****      *          If the custom SCB slaves are reset whilst core_up and
 192:../src/platform/mpfs_hal/common/nwc/mss_nwc_init.c ****      *          flash_valid are high, then the SCB registers get asynchronously
 193:../src/platform/mpfs_hal/common/nwc/mss_nwc_init.c ****      *          loaded with the values of their corresponding RPC bits. These
 194:../src/platform/mpfs_hal/common/nwc/mss_nwc_init.c ****      *          values remain even after negation of reset but may be
 195:../src/platform/mpfs_hal/common/nwc/mss_nwc_init.c ****      *          subsequently overwritten by SCB writes.
 196:../src/platform/mpfs_hal/common/nwc/mss_nwc_init.c ****      *
 197:../src/platform/mpfs_hal/common/nwc/mss_nwc_init.c ****      *  reg MSS_LOW_POWER_CR
 198:../src/platform/mpfs_hal/common/nwc/mss_nwc_init.c ****      *
 199:../src/platform/mpfs_hal/common/nwc/mss_nwc_init.c ****      *      bit 12 flash_valid          Sets the value driven out on
 200:../src/platform/mpfs_hal/common/nwc/mss_nwc_init.c ****      *                                  mss_flash_valid_out
 201:../src/platform/mpfs_hal/common/nwc/mss_nwc_init.c ****      *      bit 11 core_up              Sets the value driven out on
 202:../src/platform/mpfs_hal/common/nwc/mss_nwc_init.c ****      *                                  mss_core_up_out
 203:../src/platform/mpfs_hal/common/nwc/mss_nwc_init.c ****      *      bit 10:8  dce   S           Sets the value driven out on mss_dce_out
 204:../src/platform/mpfs_hal/common/nwc/mss_nwc_init.c ****      *                                  unless G5C asserts its overrides
 205:../src/platform/mpfs_hal/common/nwc/mss_nwc_init.c ****      *      bit 7 lp_stop_clocks_in     Read back of lp_stop_clocks input
 206:../src/platform/mpfs_hal/common/nwc/mss_nwc_init.c ****      *      bit 6 lp_stop_clocks_out    Direct control of MSS Corner LP state
 207:../src/platform/mpfs_hal/common/nwc/mss_nwc_init.c ****      *                                  control
 208:../src/platform/mpfs_hal/common/nwc/mss_nwc_init.c ****      *      bit 5 p_pll_locked          Direct control of MSS Corner
 209:../src/platform/mpfs_hal/common/nwc/mss_nwc_init.c ****      *                                  LP state control
 210:../src/platform/mpfs_hal/common/nwc/mss_nwc_init.c ****      *      bit 4 lp_state_bypass       Direct control of MSS Corner LP
 211:../src/platform/mpfs_hal/common/nwc/mss_nwc_init.c ****      *                                  state control
 212:../src/platform/mpfs_hal/common/nwc/mss_nwc_init.c ****      *      bit 3 lp_state_persist
 213:../src/platform/mpfs_hal/common/nwc/mss_nwc_init.c ****      *      bit 2 lp_state_op
 214:../src/platform/mpfs_hal/common/nwc/mss_nwc_init.c ****      *      bit 1 lp_state_ip
 215:../src/platform/mpfs_hal/common/nwc/mss_nwc_init.c ****      *      bit 0 lp_state_mss
 216:../src/platform/mpfs_hal/common/nwc/mss_nwc_init.c ****      *
 217:../src/platform/mpfs_hal/common/nwc/mss_nwc_init.c ****      *      In order to re-flash/update the APB RPC register values into the
 218:../src/platform/mpfs_hal/common/nwc/mss_nwc_init.c ****      *      registers of a specific SCB slave,the following sequence must be
 219:../src/platform/mpfs_hal/common/nwc/mss_nwc_init.c ****      *      followed:
 220:../src/platform/mpfs_hal/common/nwc/mss_nwc_init.c ****      *      1)  Embedded software running on E51 must force the mss_core_up and
 221:../src/platform/mpfs_hal/common/nwc/mss_nwc_init.c ****      *          mss_flash valid must be high
 222:../src/platform/mpfs_hal/common/nwc/mss_nwc_init.c ****      *      2)  Then do a soft reset of the specific SCB slave that will be
 223:../src/platform/mpfs_hal/common/nwc/mss_nwc_init.c ****      *          re-flashed/updated.
 224:../src/platform/mpfs_hal/common/nwc/mss_nwc_init.c ****      *
 225:../src/platform/mpfs_hal/common/nwc/mss_nwc_init.c ****      *      The APB RPC registers are used in the following ways to configure
 226:../src/platform/mpfs_hal/common/nwc/mss_nwc_init.c ****      *      the MSS periphery
 227:../src/platform/mpfs_hal/common/nwc/mss_nwc_init.c ****      *      1)  Load values to SCB registers.
 228:../src/platform/mpfs_hal/common/nwc/mss_nwc_init.c ****      *          core_up" and "flash_valid" determines if the SCB registers get
 229:../src/platform/mpfs_hal/common/nwc/mss_nwc_init.c ****      *          either:
 230:../src/platform/mpfs_hal/common/nwc/mss_nwc_init.c ****      *               a.  Reset to their hardware default
 231:../src/platform/mpfs_hal/common/nwc/mss_nwc_init.c ****      *                   (when core_up/flash_valis low)
 232:../src/platform/mpfs_hal/common/nwc/mss_nwc_init.c ****      *              b.  Loaded with the APB RPC register.
 233:../src/platform/mpfs_hal/common/nwc/mss_nwc_init.c ****      *                   (when core_up/flash_valid high)
 234:../src/platform/mpfs_hal/common/nwc/mss_nwc_init.c ****      *      2)  IO configuration settings
 235:../src/platform/mpfs_hal/common/nwc/mss_nwc_init.c ****      *          These are fed directly to the static configuration of IOA cells
 236:../src/platform/mpfs_hal/common/nwc/mss_nwc_init.c ****      *          within the IOG lanes of the DDR and SGMII PHYs, as long as
 237:../src/platform/mpfs_hal/common/nwc/mss_nwc_init.c ****      *          "core_up" and "flash_valid" are high.
 238:../src/platform/mpfs_hal/common/nwc/mss_nwc_init.c ****      *          a.  To avoid unwanted/intermediate states on IOs, the "core_up"
 239:../src/platform/mpfs_hal/common/nwc/mss_nwc_init.c ****      *          and "flash_valid" should be initially 0 on MSS reset. This will
 240:../src/platform/mpfs_hal/common/nwc/mss_nwc_init.c ****      *          select the safe hardware defaults. The RPC registers are written
 241:../src/platform/mpfs_hal/common/nwc/mss_nwc_init.c ****      *          in the background and then simultaneously "flashed" as the new
 242:../src/platform/mpfs_hal/common/nwc/mss_nwc_init.c ****      *          IO configuration by assertion of "core_up" and "flash_valid"
 243:../src/platform/mpfs_hal/common/nwc/mss_nwc_init.c ****      *          being asserted.
 244:../src/platform/mpfs_hal/common/nwc/mss_nwc_init.c ****      *      3)  Training IP settings
 245:../src/platform/mpfs_hal/common/nwc/mss_nwc_init.c ****      *          These allow the direct control of the training IP via the APB
 246:../src/platform/mpfs_hal/common/nwc/mss_nwc_init.c ****      *          registers.
 247:../src/platform/mpfs_hal/common/nwc/mss_nwc_init.c ****      *
 248:../src/platform/mpfs_hal/common/nwc/mss_nwc_init.c ****      *      Notes:
 249:../src/platform/mpfs_hal/common/nwc/mss_nwc_init.c ****      *      1)  When the MSS is reset, the SCB slaves won't take on the RPC
 250:../src/platform/mpfs_hal/common/nwc/mss_nwc_init.c ****      *      values. They will be reset to their hardware default values.
 251:../src/platform/mpfs_hal/common/nwc/mss_nwc_init.c ****      *
 252:../src/platform/mpfs_hal/common/nwc/mss_nwc_init.c ****      *      2)  Although RPC registers are writable in APB space,
 253:../src/platform/mpfs_hal/common/nwc/mss_nwc_init.c ****      *      they only take effect on the SCB registers whenever there is a
 254:../src/platform/mpfs_hal/common/nwc/mss_nwc_init.c ****      *      "virtual re-flash" operation, which involves performing
 255:../src/platform/mpfs_hal/common/nwc/mss_nwc_init.c ****      *      a soft reset of an SCB slave (i.e. writing to the NV_MAP register
 256:../src/platform/mpfs_hal/common/nwc/mss_nwc_init.c ****      *      bit in the SOFT_RESET register in the SCB slave).
 257:../src/platform/mpfs_hal/common/nwc/mss_nwc_init.c ****      *      This mechanism would only be used if a full new configuration is to
 258:../src/platform/mpfs_hal/common/nwc/mss_nwc_init.c ****      *      be applied to the full SCB slave and wouldn't be used, for example
 259:../src/platform/mpfs_hal/common/nwc/mss_nwc_init.c ****      *      to change just a clock mux configuration.
 260:../src/platform/mpfs_hal/common/nwc/mss_nwc_init.c ****      *
 261:../src/platform/mpfs_hal/common/nwc/mss_nwc_init.c ****      *      3)  To make configuration changes to individual registers, without
 262:../src/platform/mpfs_hal/common/nwc/mss_nwc_init.c ****      *      "re-flashing" all registers in an MSS custom SCB slave, it is
 263:../src/platform/mpfs_hal/common/nwc/mss_nwc_init.c ****      *      necessary to write directly to the SCB registers (via SCB space) in
 264:../src/platform/mpfs_hal/common/nwc/mss_nwc_init.c ****      *      that slave, rather than writing RPC registers via APB space
 265:../src/platform/mpfs_hal/common/nwc/mss_nwc_init.c ****      *
 266:../src/platform/mpfs_hal/common/nwc/mss_nwc_init.c ****      */
 267:../src/platform/mpfs_hal/common/nwc/mss_nwc_init.c **** 
 268:../src/platform/mpfs_hal/common/nwc/mss_nwc_init.c ****     /*
 269:../src/platform/mpfs_hal/common/nwc/mss_nwc_init.c ****        lp_state_mss         :1;
 270:../src/platform/mpfs_hal/common/nwc/mss_nwc_init.c ****        lp_state_ip_mss      :1;
 271:../src/platform/mpfs_hal/common/nwc/mss_nwc_init.c ****        lp_state_op_mss      :1;
 272:../src/platform/mpfs_hal/common/nwc/mss_nwc_init.c ****        lp_state_persist_mss :1;
 273:../src/platform/mpfs_hal/common/nwc/mss_nwc_init.c ****        lp_state_bypass_mss  :1;
 274:../src/platform/mpfs_hal/common/nwc/mss_nwc_init.c ****        lp_pll_locked_mss    :1;
 275:../src/platform/mpfs_hal/common/nwc/mss_nwc_init.c ****        lp_stop_clocks_out_mss :1;
 276:../src/platform/mpfs_hal/common/nwc/mss_nwc_init.c ****        lp_stop_clocks_in_mss :1;
 277:../src/platform/mpfs_hal/common/nwc/mss_nwc_init.c ****        mss_dce              :3;
 278:../src/platform/mpfs_hal/common/nwc/mss_nwc_init.c ****        mss_core_up          :1;
 279:../src/platform/mpfs_hal/common/nwc/mss_nwc_init.c ****        mss_flash_valid      :1;
 280:../src/platform/mpfs_hal/common/nwc/mss_nwc_init.c ****        mss_io_en            :1;
 281:../src/platform/mpfs_hal/common/nwc/mss_nwc_init.c ****     */
 282:../src/platform/mpfs_hal/common/nwc/mss_nwc_init.c ****      /* DCE:111, CORE_UP:1, FLASH_VALID:0, mss_io_en:0 */
 283:../src/platform/mpfs_hal/common/nwc/mss_nwc_init.c ****     SCB_REGS->MSSIO_CONTROL_CR.MSSIO_CONTROL_CR =\
 149              		.loc 2 283 13
 150 0060 B7370020 		li	a5,536883200
 151              		.loc 2 283 49
 152 0064 0567     		li	a4,4096
 153 0066 130707F0 		addi	a4,a4,-256
 154 006a 23AEE71A 		sw	a4,444(a5)
 284:../src/platform/mpfs_hal/common/nwc/mss_nwc_init.c ****             (0x07U<<8U)|(0x01U<<11U)|(0x00U<<12U)|(0x00U<<13U);
 285:../src/platform/mpfs_hal/common/nwc/mss_nwc_init.c ****     delay(DELAY_CYCLES_500_NS);
 155              		.loc 2 285 5
 156 006e 1305C012 		li	a0,300
 157 0072 97000000 		call	delay
 157      E7800000 
 286:../src/platform/mpfs_hal/common/nwc/mss_nwc_init.c ****     /* DCE:000, CORE_UP:1, FLASH_VALID:0, mss_io_en:0 */
 287:../src/platform/mpfs_hal/common/nwc/mss_nwc_init.c ****     SCB_REGS->MSSIO_CONTROL_CR.MSSIO_CONTROL_CR =\
 158              		.loc 2 287 13
 159 007a B7370020 		li	a5,536883200
 160              		.loc 2 287 49
 161 007e 0567     		li	a4,4096
 162 0080 13070780 		addi	a4,a4,-2048
 163 0084 23AEE71A 		sw	a4,444(a5)
 288:../src/platform/mpfs_hal/common/nwc/mss_nwc_init.c ****             (0x00U<<8U)|(0x01U<<11U)|(0x00U<<12U)|(0x00U<<13U);
 289:../src/platform/mpfs_hal/common/nwc/mss_nwc_init.c ****     delay(DELAY_CYCLES_500_NS);
 164              		.loc 2 289 5
 165 0088 1305C012 		li	a0,300
 166 008c 97000000 		call	delay
 166      E7800000 
 290:../src/platform/mpfs_hal/common/nwc/mss_nwc_init.c ****     /* DCE:000, CORE_UP:1, FLASH_VALID:1, mss_io_en:0 */
 291:../src/platform/mpfs_hal/common/nwc/mss_nwc_init.c ****     SCB_REGS->MSSIO_CONTROL_CR.MSSIO_CONTROL_CR =\
 167              		.loc 2 291 13
 168 0094 B7370020 		li	a5,536883200
 169              		.loc 2 291 49
 170 0098 0967     		li	a4,8192
 171 009a 13070780 		addi	a4,a4,-2048
 172 009e 23AEE71A 		sw	a4,444(a5)
 292:../src/platform/mpfs_hal/common/nwc/mss_nwc_init.c ****             (0x00U<<8U)|(0x01U<<11U)|(0x01U<<12U)|(0x00U<<13U);
 293:../src/platform/mpfs_hal/common/nwc/mss_nwc_init.c ****     delay(DELAY_CYCLES_500_NS);
 173              		.loc 2 293 5
 174 00a2 1305C012 		li	a0,300
 175 00a6 97000000 		call	delay
 175      E7800000 
 294:../src/platform/mpfs_hal/common/nwc/mss_nwc_init.c ****     /* DCE:000, CORE_UP:1, FLASH_VALID:1, mss_io_en:1  */
 295:../src/platform/mpfs_hal/common/nwc/mss_nwc_init.c ****     SCB_REGS->MSSIO_CONTROL_CR.MSSIO_CONTROL_CR =\
 176              		.loc 2 295 13
 177 00ae B7370020 		li	a5,536883200
 178              		.loc 2 295 49
 179 00b2 1167     		li	a4,16384
 180 00b4 13070780 		addi	a4,a4,-2048
 181 00b8 23AEE71A 		sw	a4,444(a5)
 296:../src/platform/mpfs_hal/common/nwc/mss_nwc_init.c ****             (0x00U<<8U)|(0x01U<<11U)|(0x01U<<12U)|(0x01U<<13U);
 297:../src/platform/mpfs_hal/common/nwc/mss_nwc_init.c **** 
 298:../src/platform/mpfs_hal/common/nwc/mss_nwc_init.c ****     /*
 299:../src/platform/mpfs_hal/common/nwc/mss_nwc_init.c ****      * Setup SGMII
 300:../src/platform/mpfs_hal/common/nwc/mss_nwc_init.c ****      * The SGMII set-upset configures the external clock reference so this must
 301:../src/platform/mpfs_hal/common/nwc/mss_nwc_init.c ****      * be called before configuring the MSS PLL
 302:../src/platform/mpfs_hal/common/nwc/mss_nwc_init.c ****      */
 303:../src/platform/mpfs_hal/common/nwc/mss_nwc_init.c ****     SIM_FEEDBACK0(2);
 304:../src/platform/mpfs_hal/common/nwc/mss_nwc_init.c ****     sgmii_setup();
 182              		.loc 2 304 5
 183 00bc 97000000 		call	sgmii_setup
 183      E7800000 
 305:../src/platform/mpfs_hal/common/nwc/mss_nwc_init.c **** 
 306:../src/platform/mpfs_hal/common/nwc/mss_nwc_init.c ****     /*
 307:../src/platform/mpfs_hal/common/nwc/mss_nwc_init.c ****      * Setup the MSS PLL
 308:../src/platform/mpfs_hal/common/nwc/mss_nwc_init.c ****      */
 309:../src/platform/mpfs_hal/common/nwc/mss_nwc_init.c ****     SIM_FEEDBACK0(3);
 310:../src/platform/mpfs_hal/common/nwc/mss_nwc_init.c ****     mss_pll_config();
 184              		.loc 2 310 5
 185 00c4 97000000 		call	mss_pll_config
 185      E7800000 
 311:../src/platform/mpfs_hal/common/nwc/mss_nwc_init.c **** 
 312:../src/platform/mpfs_hal/common/nwc/mss_nwc_init.c ****     return error;
 186              		.loc 2 312 12
 187 00cc 8347F4FE 		lbu	a5,-17(s0)
 313:../src/platform/mpfs_hal/common/nwc/mss_nwc_init.c **** }
 188              		.loc 2 313 1
 189 00d0 3E85     		mv	a0,a5
 190 00d2 E260     		ld	ra,24(sp)
 191              		.cfi_restore 1
 192 00d4 4264     		ld	s0,16(sp)
 193              		.cfi_restore 8
 194              		.cfi_def_cfa 2, 32
 195 00d6 0561     		addi	sp,sp,32
 196              		.cfi_def_cfa_offset 0
 197 00d8 8280     		jr	ra
 198              		.cfi_endproc
 199              	.LFE24:
 201              		.section	.text.mss_nwc_init_ddr,"ax",@progbits
 202              		.align	1
 203              		.globl	mss_nwc_init_ddr
 205              	mss_nwc_init_ddr:
 206              	.LFB25:
 314:../src/platform/mpfs_hal/common/nwc/mss_nwc_init.c **** 
 315:../src/platform/mpfs_hal/common/nwc/mss_nwc_init.c **** /**
 316:../src/platform/mpfs_hal/common/nwc/mss_nwc_init.c ****  *  mss_nwc_init_ddr(void)
 317:../src/platform/mpfs_hal/common/nwc/mss_nwc_init.c ****  *      Init the DDR
 318:../src/platform/mpfs_hal/common/nwc/mss_nwc_init.c ****  *
 319:../src/platform/mpfs_hal/common/nwc/mss_nwc_init.c ****  * @return error status, 0U => OK
 320:../src/platform/mpfs_hal/common/nwc/mss_nwc_init.c ****  */
 321:../src/platform/mpfs_hal/common/nwc/mss_nwc_init.c **** uint8_t mss_nwc_init_ddr(void)
 322:../src/platform/mpfs_hal/common/nwc/mss_nwc_init.c **** {
 207              		.loc 2 322 1
 208              		.cfi_startproc
 209 0000 7971     		addi	sp,sp,-48
 210              		.cfi_def_cfa_offset 48
 211 0002 06F4     		sd	ra,40(sp)
 212 0004 22F0     		sd	s0,32(sp)
 213              		.cfi_offset 1, -8
 214              		.cfi_offset 8, -16
 215 0006 0018     		addi	s0,sp,48
 216              		.cfi_def_cfa 8, 0
 323:../src/platform/mpfs_hal/common/nwc/mss_nwc_init.c ****     uint8_t error = 0U;
 217              		.loc 2 323 13
 218 0008 A30704FE 		sb	zero,-17(s0)
 324:../src/platform/mpfs_hal/common/nwc/mss_nwc_init.c **** #ifdef DDR_SUPPORT
 325:../src/platform/mpfs_hal/common/nwc/mss_nwc_init.c ****     uint64_t next_time;
 326:../src/platform/mpfs_hal/common/nwc/mss_nwc_init.c **** #ifdef DEBUG_DDR_INIT
 327:../src/platform/mpfs_hal/common/nwc/mss_nwc_init.c ****     if (g_debug_uart == NULL)
 328:../src/platform/mpfs_hal/common/nwc/mss_nwc_init.c ****     {
 329:../src/platform/mpfs_hal/common/nwc/mss_nwc_init.c ****         /*
 330:../src/platform/mpfs_hal/common/nwc/mss_nwc_init.c ****          * Defaults to UART0 if none selected by user boot code
 331:../src/platform/mpfs_hal/common/nwc/mss_nwc_init.c ****          */
 332:../src/platform/mpfs_hal/common/nwc/mss_nwc_init.c ****         g_debug_uart = &g_mss_uart0_lo;
 333:../src/platform/mpfs_hal/common/nwc/mss_nwc_init.c ****     }
 334:../src/platform/mpfs_hal/common/nwc/mss_nwc_init.c ****     (void)setup_ddr_debug_port(g_debug_uart);
 335:../src/platform/mpfs_hal/common/nwc/mss_nwc_init.c **** #endif
 336:../src/platform/mpfs_hal/common/nwc/mss_nwc_init.c **** 
 337:../src/platform/mpfs_hal/common/nwc/mss_nwc_init.c ****     uint32_t  ddr_status;
 338:../src/platform/mpfs_hal/common/nwc/mss_nwc_init.c ****     ddr_status = ddr_state_machine(DDR_SS__INIT);
 219              		.loc 2 338 18
 220 000c 0145     		li	a0,0
 221 000e 97000000 		call	ddr_state_machine
 221      E7800000 
 222 0016 AA87     		mv	a5,a0
 223 0018 232EF4FC 		sw	a5,-36(s0)
 339:../src/platform/mpfs_hal/common/nwc/mss_nwc_init.c ****     next_time = 0U;
 224              		.loc 2 339 15
 225 001c 233004FE 		sd	zero,-32(s0)
 340:../src/platform/mpfs_hal/common/nwc/mss_nwc_init.c ****     while((ddr_status & DDR_SETUP_DONE) != DDR_SETUP_DONE)
 226              		.loc 2 340 10
 227 0020 15A0     		j	.L6
 228              	.L7:
 341:../src/platform/mpfs_hal/common/nwc/mss_nwc_init.c ****     {
 342:../src/platform/mpfs_hal/common/nwc/mss_nwc_init.c ****         ddr_status = ddr_state_machine(DDR_SS_MONITOR);
 229              		.loc 2 342 22
 230 0022 0545     		li	a0,1
 231 0024 97000000 		call	ddr_state_machine
 231      E7800000 
 232 002c AA87     		mv	a5,a0
 233 002e 232EF4FC 		sw	a5,-36(s0)
 343:../src/platform/mpfs_hal/common/nwc/mss_nwc_init.c ****         next_time = report_status_functions(DDR_BOOT_PROGRESS, next_time);
 234              		.loc 2 343 21
 235 0032 833504FE 		ld	a1,-32(s0)
 236 0036 0145     		li	a0,0
 237 0038 97000000 		call	report_status_functions
 237      E7800000 
 238 0040 2330A4FE 		sd	a0,-32(s0)
 239              	.L6:
 340:../src/platform/mpfs_hal/common/nwc/mss_nwc_init.c ****     while((ddr_status & DDR_SETUP_DONE) != DDR_SETUP_DONE)
 240              		.loc 2 340 23
 241 0044 8327C4FD 		lw	a5,-36(s0)
 242 0048 858B     		andi	a5,a5,1
 243 004a 8127     		sext.w	a5,a5
 340:../src/platform/mpfs_hal/common/nwc/mss_nwc_init.c ****     while((ddr_status & DDR_SETUP_DONE) != DDR_SETUP_DONE)
 244              		.loc 2 340 10
 245 004c F9DB     		beq	a5,zero,.L7
 344:../src/platform/mpfs_hal/common/nwc/mss_nwc_init.c ****     }
 345:../src/platform/mpfs_hal/common/nwc/mss_nwc_init.c ****     if ((ddr_status & DDR_SETUP_FAIL) == DDR_SETUP_FAIL)
 246              		.loc 2 345 21
 247 004e 8327C4FD 		lw	a5,-36(s0)
 248 0052 898B     		andi	a5,a5,2
 249 0054 8127     		sext.w	a5,a5
 250              		.loc 2 345 8
 251 0056 99C7     		beq	a5,zero,.L8
 346:../src/platform/mpfs_hal/common/nwc/mss_nwc_init.c ****     {
 347:../src/platform/mpfs_hal/common/nwc/mss_nwc_init.c ****         error |= (0x1U << 2U);
 252              		.loc 2 347 15
 253 0058 8347F4FE 		lbu	a5,-17(s0)
 254 005c 93E74700 		ori	a5,a5,4
 255 0060 A307F4FE 		sb	a5,-17(s0)
 256              	.L8:
 348:../src/platform/mpfs_hal/common/nwc/mss_nwc_init.c ****     }
 349:../src/platform/mpfs_hal/common/nwc/mss_nwc_init.c **** #endif
 350:../src/platform/mpfs_hal/common/nwc/mss_nwc_init.c **** 
 351:../src/platform/mpfs_hal/common/nwc/mss_nwc_init.c ****     return error;
 257              		.loc 2 351 12
 258 0064 8347F4FE 		lbu	a5,-17(s0)
 352:../src/platform/mpfs_hal/common/nwc/mss_nwc_init.c **** }
 259              		.loc 2 352 1
 260 0068 3E85     		mv	a0,a5
 261 006a A270     		ld	ra,40(sp)
 262              		.cfi_restore 1
 263 006c 0274     		ld	s0,32(sp)
 264              		.cfi_restore 8
 265              		.cfi_def_cfa 2, 48
 266 006e 4561     		addi	sp,sp,48
 267              		.cfi_def_cfa_offset 0
 268 0070 8280     		jr	ra
 269              		.cfi_endproc
 270              	.LFE25:
 272              		.section	.text.report_status_functions,"ax",@progbits
 273              		.align	1
 275              	report_status_functions:
 276              	.LFB26:
 353:../src/platform/mpfs_hal/common/nwc/mss_nwc_init.c **** 
 354:../src/platform/mpfs_hal/common/nwc/mss_nwc_init.c **** /**
 355:../src/platform/mpfs_hal/common/nwc/mss_nwc_init.c ****  * report_status_functions()
 356:../src/platform/mpfs_hal/common/nwc/mss_nwc_init.c ****  * Used to call user boot functions for feedback during boot
 357:../src/platform/mpfs_hal/common/nwc/mss_nwc_init.c ****  * @param report_status
 358:../src/platform/mpfs_hal/common/nwc/mss_nwc_init.c ****  */
 359:../src/platform/mpfs_hal/common/nwc/mss_nwc_init.c **** static uint64_t report_status_functions(MSS_REPORT_STATUS report_status, uint64_t next_time)
 360:../src/platform/mpfs_hal/common/nwc/mss_nwc_init.c **** {
 277              		.loc 2 360 1
 278              		.cfi_startproc
 279 0000 7971     		addi	sp,sp,-48
 280              		.cfi_def_cfa_offset 48
 281 0002 06F4     		sd	ra,40(sp)
 282 0004 22F0     		sd	s0,32(sp)
 283              		.cfi_offset 1, -8
 284              		.cfi_offset 8, -16
 285 0006 0018     		addi	s0,sp,48
 286              		.cfi_def_cfa 8, 0
 287 0008 AA87     		mv	a5,a0
 288 000a 2338B4FC 		sd	a1,-48(s0)
 289 000e 232EF4FC 		sw	a5,-36(s0)
 290              	.LBB4:
 361:../src/platform/mpfs_hal/common/nwc/mss_nwc_init.c ****     if (next_time >= rdcycle())
 291              		.loc 2 361 22
 292              	 #APP
 293              	# 361 "../src/platform/mpfs_hal/common/nwc/mss_nwc_init.c" 1
 362              	    {
 294              		csrr a5, cycle
 295              	# 0 "" 2
 296              	 #NO_APP
 297 0016 2334F4FE 		sd	a5,-24(s0)
 298 001a 033784FE 		ld	a4,-24(s0)
 299              	.LBE4:
 361:../src/platform/mpfs_hal/common/nwc/mss_nwc_init.c ****     if (next_time >= rdcycle())
 300              		.loc 2 361 8
 301 001e 833704FD 		ld	a5,-48(s0)
 302 0022 63E9E702 		bgtu	a4,a5,.L11
 363:../src/platform/mpfs_hal/common/nwc/mss_nwc_init.c ****         switch(report_status)
 303              		.loc 2 363 9
 304 0026 8327C4FD 		lw	a5,-36(s0)
 305 002a 8127     		sext.w	a5,a5
 306 002c 91E7     		bne	a5,zero,.L15
 364:../src/platform/mpfs_hal/common/nwc/mss_nwc_init.c ****         {
 365:../src/platform/mpfs_hal/common/nwc/mss_nwc_init.c ****             case DDR_BOOT_PROGRESS:
 366:../src/platform/mpfs_hal/common/nwc/mss_nwc_init.c ****                 ddr_report_progress();
 307              		.loc 2 366 17
 308 002e 97000000 		call	ddr_report_progress
 308      E7800000 
 367:../src/platform/mpfs_hal/common/nwc/mss_nwc_init.c ****                 break;
 309              		.loc 2 367 17
 310 0036 11A0     		j	.L13
 311              	.L15:
 368:../src/platform/mpfs_hal/common/nwc/mss_nwc_init.c ****             default:
 369:../src/platform/mpfs_hal/common/nwc/mss_nwc_init.c ****                 break;
 312              		.loc 2 369 17
 313 0038 0100     		nop
 314              	.L13:
 315              	.LBB5:
 370:../src/platform/mpfs_hal/common/nwc/mss_nwc_init.c ****         }
 371:../src/platform/mpfs_hal/common/nwc/mss_nwc_init.c ****         next_time = rdcycle() + DELAY_CYCLES_100MS;
 316              		.loc 2 371 21
 317              	 #APP
 318              	# 371 "../src/platform/mpfs_hal/common/nwc/mss_nwc_init.c" 1
 372              	    }
 319              		csrr a5, cycle
 320              	# 0 "" 2
 321              	 #NO_APP
 322 003e 2330F4FE 		sd	a5,-32(s0)
 323 0042 033704FE 		ld	a4,-32(s0)
 324              	.LBE5:
 371:../src/platform/mpfs_hal/common/nwc/mss_nwc_init.c ****         next_time = rdcycle() + DELAY_CYCLES_100MS;
 325              		.loc 2 371 19
 326 0046 B7879303 		li	a5,59998208
 327 004a 93870770 		addi	a5,a5,1792
 328 004e BA97     		add	a5,a4,a5
 329 0050 2338F4FC 		sd	a5,-48(s0)
 330              	.L11:
 373:../src/platform/mpfs_hal/common/nwc/mss_nwc_init.c ****     return next_time;
 331              		.loc 2 373 12
 332 0054 833704FD 		ld	a5,-48(s0)
 374:../src/platform/mpfs_hal/common/nwc/mss_nwc_init.c **** }
 333              		.loc 2 374 1
 334 0058 3E85     		mv	a0,a5
 335 005a A270     		ld	ra,40(sp)
 336              		.cfi_restore 1
 337 005c 0274     		ld	s0,32(sp)
 338              		.cfi_restore 8
 339              		.cfi_def_cfa 2, 48
 340 005e 4561     		addi	sp,sp,48
 341              		.cfi_def_cfa_offset 0
 342 0060 8280     		jr	ra
 343              		.cfi_endproc
 344              	.LFE26:
 346              		.section	.text.ddr_report_progress,"ax",@progbits
 347              		.align	1
 348              		.weak	ddr_report_progress
 350              	ddr_report_progress:
 351              	.LFB27:
 375:../src/platform/mpfs_hal/common/nwc/mss_nwc_init.c **** 
 376:../src/platform/mpfs_hal/common/nwc/mss_nwc_init.c **** /**
 377:../src/platform/mpfs_hal/common/nwc/mss_nwc_init.c ****  *  Application can create own function to show progress
 378:../src/platform/mpfs_hal/common/nwc/mss_nwc_init.c ****  */
 379:../src/platform/mpfs_hal/common/nwc/mss_nwc_init.c **** __attribute__((weak))  void ddr_report_progress(void)
 380:../src/platform/mpfs_hal/common/nwc/mss_nwc_init.c **** {
 352              		.loc 2 380 1
 353              		.cfi_startproc
 354 0000 4111     		addi	sp,sp,-16
 355              		.cfi_def_cfa_offset 16
 356 0002 22E4     		sd	s0,8(sp)
 357              		.cfi_offset 8, -8
 358 0004 0008     		addi	s0,sp,16
 359              		.cfi_def_cfa 8, 0
 381:../src/platform/mpfs_hal/common/nwc/mss_nwc_init.c ****     return;
 360              		.loc 2 381 5
 361 0006 0100     		nop
 382:../src/platform/mpfs_hal/common/nwc/mss_nwc_init.c **** }
 362              		.loc 2 382 1
 363 0008 2264     		ld	s0,8(sp)
 364              		.cfi_restore 8
 365              		.cfi_def_cfa 2, 16
 366 000a 4101     		addi	sp,sp,16
 367              		.cfi_def_cfa_offset 0
 368 000c 8280     		jr	ra
 369              		.cfi_endproc
 370              	.LFE27:
 372              		.section	.text.mtime_delay,"ax",@progbits
 373              		.align	1
 374              		.globl	mtime_delay
 376              	mtime_delay:
 377              	.LFB28:
 383:../src/platform/mpfs_hal/common/nwc/mss_nwc_init.c **** 
 384:../src/platform/mpfs_hal/common/nwc/mss_nwc_init.c **** /*-------------------------------------------------------------------------*//**
 385:../src/platform/mpfs_hal/common/nwc/mss_nwc_init.c ****  * mtime_delay()
 386:../src/platform/mpfs_hal/common/nwc/mss_nwc_init.c ****  * waits x microseconds
 387:../src/platform/mpfs_hal/common/nwc/mss_nwc_init.c ****  * Assumption 1 is we have ensured clock is 1MHz
 388:../src/platform/mpfs_hal/common/nwc/mss_nwc_init.c ****  * Assumption 2 is we have not setup tick timer when using this function. It is
 389:../src/platform/mpfs_hal/common/nwc/mss_nwc_init.c ****  * only used by the startup code
 390:../src/platform/mpfs_hal/common/nwc/mss_nwc_init.c ****  * @param microseconds microseconds to delay
 391:../src/platform/mpfs_hal/common/nwc/mss_nwc_init.c ****  */
 392:../src/platform/mpfs_hal/common/nwc/mss_nwc_init.c **** 
 393:../src/platform/mpfs_hal/common/nwc/mss_nwc_init.c **** void mtime_delay(uint32_t microseconds)
 394:../src/platform/mpfs_hal/common/nwc/mss_nwc_init.c **** {
 378              		.loc 2 394 1
 379              		.cfi_startproc
 380 0000 7971     		addi	sp,sp,-48
 381              		.cfi_def_cfa_offset 48
 382 0002 22F4     		sd	s0,40(sp)
 383              		.cfi_offset 8, -8
 384 0004 0018     		addi	s0,sp,48
 385              		.cfi_def_cfa 8, 0
 386 0006 AA87     		mv	a5,a0
 387 0008 232EF4FC 		sw	a5,-36(s0)
 395:../src/platform/mpfs_hal/common/nwc/mss_nwc_init.c ****     CLINT->MTIME = 0ULL;
 388              		.loc 2 395 10
 389 000c 37070002 		li	a4,33554432
 390              		.loc 2 395 18
 391 0010 B167     		li	a5,49152
 392 0012 BA97     		add	a5,a4,a5
 393 0014 23BC07FE 		sd	zero,-8(a5)
 396:../src/platform/mpfs_hal/common/nwc/mss_nwc_init.c ****     volatile uint32_t count = 0ULL;
 394              		.loc 2 396 23
 395 0018 232604FE 		sw	zero,-20(s0)
 397:../src/platform/mpfs_hal/common/nwc/mss_nwc_init.c **** 
 398:../src/platform/mpfs_hal/common/nwc/mss_nwc_init.c ****     while(CLINT->MTIME < microseconds)
 396              		.loc 2 398 10
 397 001c 01A8     		j	.L19
 398              	.L20:
 399:../src/platform/mpfs_hal/common/nwc/mss_nwc_init.c ****     {
 400:../src/platform/mpfs_hal/common/nwc/mss_nwc_init.c ****         count++;
 399              		.loc 2 400 14
 400 001e 8327C4FE 		lw	a5,-20(s0)
 401 0022 8127     		sext.w	a5,a5
 402 0024 8527     		addiw	a5,a5,1
 403 0026 8127     		sext.w	a5,a5
 404 0028 2326F4FE 		sw	a5,-20(s0)
 405              	.L19:
 398:../src/platform/mpfs_hal/common/nwc/mss_nwc_init.c ****     {
 406              		.loc 2 398 16
 407 002c 37070002 		li	a4,33554432
 408 0030 B167     		li	a5,49152
 409 0032 BA97     		add	a5,a4,a5
 410 0034 03B787FF 		ld	a4,-8(a5)
 398:../src/platform/mpfs_hal/common/nwc/mss_nwc_init.c ****     {
 411              		.loc 2 398 24
 412 0038 8367C4FD 		lwu	a5,-36(s0)
 398:../src/platform/mpfs_hal/common/nwc/mss_nwc_init.c ****     {
 413              		.loc 2 398 10
 414 003c E361F7FE 		bltu	a4,a5,.L20
 401:../src/platform/mpfs_hal/common/nwc/mss_nwc_init.c ****     }
 402:../src/platform/mpfs_hal/common/nwc/mss_nwc_init.c ****     return;
 415              		.loc 2 402 5
 416 0040 0100     		nop
 403:../src/platform/mpfs_hal/common/nwc/mss_nwc_init.c **** }
 417              		.loc 2 403 1
 418 0042 2274     		ld	s0,40(sp)
 419              		.cfi_restore 8
 420              		.cfi_def_cfa 2, 48
 421 0044 4561     		addi	sp,sp,48
 422              		.cfi_def_cfa_offset 0
 423 0046 8280     		jr	ra
 424              		.cfi_endproc
 425              	.LFE28:
 427              		.text
 428              	.Letext0:
 429              		.file 3 "/home/vinay/Desktop/soft_console/SoftConsole-v2022.2-RISC-V-747/riscv-unknown-elf-gcc/lib
 430              		.file 4 "/home/vinay/Desktop/soft_console/SoftConsole-v2022.2-RISC-V-747/riscv-unknown-elf-gcc/ris
 431              		.file 5 "/home/vinay/Desktop/soft_console/SoftConsole-v2022.2-RISC-V-747/riscv-unknown-elf-gcc/ris
 432              		.file 6 "/home/vinay/Desktop/soft_console/SoftConsole-v2022.2-RISC-V-747/riscv-unknown-elf-gcc/ris
 433              		.file 7 "/home/vinay/Desktop/soft_console/SoftConsole-v2022.2-RISC-V-747/riscv-unknown-elf-gcc/ris
 434              		.file 8 "/home/vinay/Desktop/soft_console/SoftConsole-v2022.2-RISC-V-747/riscv-unknown-elf-gcc/ris
 435              		.file 9 "/home/vinay/Desktop/softconsole_watershed/Water-shed/src/platform/mpfs_hal/common/nwc/../
 436              		.file 10 "/home/vinay/Desktop/softconsole_watershed/Water-shed/src/platform/mpfs_hal/common/nwc/ms
 437              		.file 11 "/home/vinay/Desktop/softconsole_watershed/Water-shed/src/platform/mpfs_hal/common/nwc/ms
 438              		.file 12 "/home/vinay/Desktop/softconsole_watershed/Water-shed/src/platform/mpfs_hal/common/nwc/ms
 439              		.file 13 "/home/vinay/Desktop/softconsole_watershed/Water-shed/src/platform/mpfs_hal/common/nwc/ms
 440              		.file 14 "/home/vinay/Desktop/softconsole_watershed/Water-shed/src/platform/mpfs_hal/common/mss_cl
 441              		.file 15 "/home/vinay/Desktop/softconsole_watershed/Water-shed/src/platform/mpfs_hal/common/mss_mp
 442              		.file 16 "/home/vinay/Desktop/softconsole_watershed/Water-shed/src/platform/mpfs_hal/common/mss_pl
 443              		.file 17 "/home/vinay/Desktop/softconsole_watershed/Water-shed/src/platform/mpfs_hal/startup_gcc/s