   1              		.file	"newlib_stubs.c"
   2              		.option nopic
   3              		.attribute arch, "rv64i2p0_m2p0_a2p0_f2p0_d2p0_c2p0"
   4              		.attribute unaligned_access, 0
   5              		.attribute stack_align, 16
   6              		.text
   7              	.Ltext0:
   8              		.cfi_sections	.debug_frame
   9              		.section	.text._close,"ax",@progbits
  10              		.align	1
  11              		.globl	_close
  13              	_close:
  14              	.LFB19:
  15              		.file 1 "../src/platform/mpfs_hal/startup_gcc/newlib_stubs.c"
   1:../src/platform/mpfs_hal/startup_gcc/newlib_stubs.c **** /*******************************************************************************
   2:../src/platform/mpfs_hal/startup_gcc/newlib_stubs.c ****  * Copyright 2019-2022 Microchip FPGA Embedded Systems Solutions.
   3:../src/platform/mpfs_hal/startup_gcc/newlib_stubs.c ****  *
   4:../src/platform/mpfs_hal/startup_gcc/newlib_stubs.c ****  * SPDX-License-Identifier: MIT
   5:../src/platform/mpfs_hal/startup_gcc/newlib_stubs.c ****  *
   6:../src/platform/mpfs_hal/startup_gcc/newlib_stubs.c ****  * MPFS HAL Embedded Software
   7:../src/platform/mpfs_hal/startup_gcc/newlib_stubs.c ****  *
   8:../src/platform/mpfs_hal/startup_gcc/newlib_stubs.c ****  */
   9:../src/platform/mpfs_hal/startup_gcc/newlib_stubs.c **** 
  10:../src/platform/mpfs_hal/startup_gcc/newlib_stubs.c **** /*******************************************************************************
  11:../src/platform/mpfs_hal/startup_gcc/newlib_stubs.c ****  * @file newlib_stubs.c
  12:../src/platform/mpfs_hal/startup_gcc/newlib_stubs.c ****  * @author Microchip-FPGA Embedded Systems Solutions
  13:../src/platform/mpfs_hal/startup_gcc/newlib_stubs.c ****  * @brief Stubs for Newlib system calls.
  14:../src/platform/mpfs_hal/startup_gcc/newlib_stubs.c ****  *
  15:../src/platform/mpfs_hal/startup_gcc/newlib_stubs.c ****  */
  16:../src/platform/mpfs_hal/startup_gcc/newlib_stubs.c **** #include <sys/times.h>
  17:../src/platform/mpfs_hal/startup_gcc/newlib_stubs.c **** #include <sys/stat.h>
  18:../src/platform/mpfs_hal/startup_gcc/newlib_stubs.c **** #include <sys/types.h>
  19:../src/platform/mpfs_hal/startup_gcc/newlib_stubs.c **** #include <errno.h>
  20:../src/platform/mpfs_hal/startup_gcc/newlib_stubs.c **** #include <unistd.h>
  21:../src/platform/mpfs_hal/startup_gcc/newlib_stubs.c **** #include "../mss_hal.h"
  22:../src/platform/mpfs_hal/startup_gcc/newlib_stubs.c **** 
  23:../src/platform/mpfs_hal/startup_gcc/newlib_stubs.c **** /*==============================================================================
  24:../src/platform/mpfs_hal/startup_gcc/newlib_stubs.c ****  * Redirection of standard output to an MSS UART.
  25:../src/platform/mpfs_hal/startup_gcc/newlib_stubs.c ****  *------------------------------------------------------------------------------
  26:../src/platform/mpfs_hal/startup_gcc/newlib_stubs.c ****  * A default implementation for the redirection of the output of printf() to a
  27:../src/platform/mpfs_hal/startup_gcc/newlib_stubs.c ****  * UART is provided at the bottom of this file. This redirection is enabled by
  28:../src/platform/mpfs_hal/startup_gcc/newlib_stubs.c ****  * adding one of the following defines to your project in the project file
  29:../src/platform/mpfs_hal/startup_gcc/newlib_stubs.c ****  * boards/your-board/mpfs_hal_config/mss_sw_config.h
  30:../src/platform/mpfs_hal/startup_gcc/newlib_stubs.c ****  *
  31:../src/platform/mpfs_hal/startup_gcc/newlib_stubs.c ****  * #define MICROCHIP_STDIO_THRU_MMUARTX &g_mss_uart0_lo
  32:../src/platform/mpfs_hal/startup_gcc/newlib_stubs.c ****  * #define MICROCHIP_STDIO_THRU_MMUARTX &g_mss_uart1_lo
  33:../src/platform/mpfs_hal/startup_gcc/newlib_stubs.c ****  * #define MICROCHIP_STDIO_THRU_MMUARTX &g_mss_uart2_lo
  34:../src/platform/mpfs_hal/startup_gcc/newlib_stubs.c ****  * #define MICROCHIP_STDIO_THRU_MMUARTX &g_mss_uart3_lo
  35:../src/platform/mpfs_hal/startup_gcc/newlib_stubs.c ****  * #define MICROCHIP_STDIO_THRU_MMUARTX &g_mss_uart4_lo
  36:../src/platform/mpfs_hal/startup_gcc/newlib_stubs.c ****  * #define MICROCHIP_STDIO_THRU_MMUARTX &g_mss_uart0_hi
  37:../src/platform/mpfs_hal/startup_gcc/newlib_stubs.c ****  * #define MICROCHIP_STDIO_THRU_MMUARTX &g_mss_uart1_hi
  38:../src/platform/mpfs_hal/startup_gcc/newlib_stubs.c ****  * #define MICROCHIP_STDIO_THRU_MMUARTX &g_mss_uart2_hi
  39:../src/platform/mpfs_hal/startup_gcc/newlib_stubs.c ****  * #define MICROCHIP_STDIO_THRU_MMUARTX &g_mss_uart3_hi
  40:../src/platform/mpfs_hal/startup_gcc/newlib_stubs.c ****  * #define MICROCHIP_STDIO_THRU_MMUARTX &g_mss_uart4_hi
  41:../src/platform/mpfs_hal/startup_gcc/newlib_stubs.c ****  * The baud rate using the MICROCHIP_STDIO_BAUD_RATE define.
  42:../src/platform/mpfs_hal/startup_gcc/newlib_stubs.c ****  *
  43:../src/platform/mpfs_hal/startup_gcc/newlib_stubs.c ****  * Note: you must have mss_mmuart driver source code included in the project.
  44:../src/platform/mpfs_hal/startup_gcc/newlib_stubs.c ****  *
  45:../src/platform/mpfs_hal/startup_gcc/newlib_stubs.c ****  * Also note defaults to 115200 baud if no baud rate is specified using the
  46:../src/platform/mpfs_hal/startup_gcc/newlib_stubs.c ****  * MICROCHIP_STDIO_BAUD_RATE #define.
  47:../src/platform/mpfs_hal/startup_gcc/newlib_stubs.c ****  */
  48:../src/platform/mpfs_hal/startup_gcc/newlib_stubs.c **** #ifdef MICROCHIP_STDIO_THRU_MMUARTX
  49:../src/platform/mpfs_hal/startup_gcc/newlib_stubs.c **** #include "drivers/mss/mss_mmuart/mss_uart.h"
  50:../src/platform/mpfs_hal/startup_gcc/newlib_stubs.c **** 
  51:../src/platform/mpfs_hal/startup_gcc/newlib_stubs.c **** #ifndef MICROCHIP_STDIO_BAUD_RATE
  52:../src/platform/mpfs_hal/startup_gcc/newlib_stubs.c **** #define MICROCHIP_STDIO_BAUD_RATE  MSS_UART_115200_BAUD
  53:../src/platform/mpfs_hal/startup_gcc/newlib_stubs.c **** #endif
  54:../src/platform/mpfs_hal/startup_gcc/newlib_stubs.c **** 
  55:../src/platform/mpfs_hal/startup_gcc/newlib_stubs.c **** static mss_uart_instance_t * const gp_my_uart = MICROCHIP_STDIO_THRU_MMUARTX;
  56:../src/platform/mpfs_hal/startup_gcc/newlib_stubs.c **** 
  57:../src/platform/mpfs_hal/startup_gcc/newlib_stubs.c **** /*------------------------------------------------------------------------------
  58:../src/platform/mpfs_hal/startup_gcc/newlib_stubs.c ****  * Global flag used to indicate if the UART driver needs to be initialized.
  59:../src/platform/mpfs_hal/startup_gcc/newlib_stubs.c ****  */
  60:../src/platform/mpfs_hal/startup_gcc/newlib_stubs.c **** static int g_stdio_uart_init_done = 0;
  61:../src/platform/mpfs_hal/startup_gcc/newlib_stubs.c **** 
  62:../src/platform/mpfs_hal/startup_gcc/newlib_stubs.c **** #endif /* MICROCHIP_STDIO_THRU_MMUARTX */
  63:../src/platform/mpfs_hal/startup_gcc/newlib_stubs.c **** 
  64:../src/platform/mpfs_hal/startup_gcc/newlib_stubs.c **** /*==============================================================================
  65:../src/platform/mpfs_hal/startup_gcc/newlib_stubs.c ****  * Environment variables.
  66:../src/platform/mpfs_hal/startup_gcc/newlib_stubs.c ****  * A pointer to a list of environment variables and their values. For a minimal
  67:../src/platform/mpfs_hal/startup_gcc/newlib_stubs.c ****  * environment, this empty list is adequate:
  68:../src/platform/mpfs_hal/startup_gcc/newlib_stubs.c ****  */
  69:../src/platform/mpfs_hal/startup_gcc/newlib_stubs.c **** char *__env[1] = { 0 };
  70:../src/platform/mpfs_hal/startup_gcc/newlib_stubs.c **** char **environ = __env;
  71:../src/platform/mpfs_hal/startup_gcc/newlib_stubs.c **** 
  72:../src/platform/mpfs_hal/startup_gcc/newlib_stubs.c **** 
  73:../src/platform/mpfs_hal/startup_gcc/newlib_stubs.c **** /*==============================================================================
  74:../src/platform/mpfs_hal/startup_gcc/newlib_stubs.c ****  * Close a file.
  75:../src/platform/mpfs_hal/startup_gcc/newlib_stubs.c ****  */
  76:../src/platform/mpfs_hal/startup_gcc/newlib_stubs.c **** int _close(int file);
  77:../src/platform/mpfs_hal/startup_gcc/newlib_stubs.c **** int _close(int file)
  78:../src/platform/mpfs_hal/startup_gcc/newlib_stubs.c **** {
  16              		.loc 1 78 1
  17              		.cfi_startproc
  18              	.LVL0:
  79:../src/platform/mpfs_hal/startup_gcc/newlib_stubs.c ****     (void)file;
  19              		.loc 1 79 5
  80:../src/platform/mpfs_hal/startup_gcc/newlib_stubs.c ****     return -1;
  20              		.loc 1 80 5
  81:../src/platform/mpfs_hal/startup_gcc/newlib_stubs.c **** }
  21              		.loc 1 81 1 is_stmt 0
  22 0000 7D55     		li	a0,-1
  23              	.LVL1:
  24 0002 8280     		ret
  25              		.cfi_endproc
  26              	.LFE19:
  28              		.section	.text._execve,"ax",@progbits
  29              		.align	1
  30              		.globl	_execve
  32              	_execve:
  33              	.LFB20:
  82:../src/platform/mpfs_hal/startup_gcc/newlib_stubs.c **** 
  83:../src/platform/mpfs_hal/startup_gcc/newlib_stubs.c **** /*==============================================================================
  84:../src/platform/mpfs_hal/startup_gcc/newlib_stubs.c ****  * Transfer control to a new process.
  85:../src/platform/mpfs_hal/startup_gcc/newlib_stubs.c ****  */
  86:../src/platform/mpfs_hal/startup_gcc/newlib_stubs.c **** int _execve(char *name, char **argv, char **env);
  87:../src/platform/mpfs_hal/startup_gcc/newlib_stubs.c **** int _execve(char *name, char **argv, char **env)
  88:../src/platform/mpfs_hal/startup_gcc/newlib_stubs.c **** {
  34              		.loc 1 88 1 is_stmt 1
  35              		.cfi_startproc
  36              	.LVL2:
  89:../src/platform/mpfs_hal/startup_gcc/newlib_stubs.c ****     (void)name;
  37              		.loc 1 89 5
  90:../src/platform/mpfs_hal/startup_gcc/newlib_stubs.c ****     (void)argv;
  38              		.loc 1 90 5
  91:../src/platform/mpfs_hal/startup_gcc/newlib_stubs.c ****     (void)env;
  39              		.loc 1 91 5
  92:../src/platform/mpfs_hal/startup_gcc/newlib_stubs.c ****     errno = ENOMEM;
  40              		.loc 1 92 5
  88:../src/platform/mpfs_hal/startup_gcc/newlib_stubs.c ****     (void)name;
  41              		.loc 1 88 1 is_stmt 0
  42 0000 4111     		addi	sp,sp,-16
  43              		.cfi_def_cfa_offset 16
  44 0002 06E4     		sd	ra,8(sp)
  45              		.cfi_offset 1, -8
  46              		.loc 1 92 5
  47 0004 97000000 		call	__errno
  47      E7800000 
  48              	.LVL3:
  93:../src/platform/mpfs_hal/startup_gcc/newlib_stubs.c ****     return -1;
  94:../src/platform/mpfs_hal/startup_gcc/newlib_stubs.c **** }
  49              		.loc 1 94 1
  50 000c A260     		ld	ra,8(sp)
  51              		.cfi_restore 1
  92:../src/platform/mpfs_hal/startup_gcc/newlib_stubs.c ****     return -1;
  52              		.loc 1 92 11
  53 000e B147     		li	a5,12
  54 0010 1CC1     		sw	a5,0(a0)
  93:../src/platform/mpfs_hal/startup_gcc/newlib_stubs.c ****     return -1;
  55              		.loc 1 93 5 is_stmt 1
  56              		.loc 1 94 1 is_stmt 0
  57 0012 7D55     		li	a0,-1
  58 0014 4101     		addi	sp,sp,16
  59              		.cfi_def_cfa_offset 0
  60 0016 8280     		jr	ra
  61              		.cfi_endproc
  62              	.LFE20:
  64              		.section	.text._exit,"ax",@progbits
  65              		.align	1
  66              		.globl	_exit
  68              	_exit:
  69              	.LFB21:
  95:../src/platform/mpfs_hal/startup_gcc/newlib_stubs.c **** 
  96:../src/platform/mpfs_hal/startup_gcc/newlib_stubs.c **** /*==============================================================================
  97:../src/platform/mpfs_hal/startup_gcc/newlib_stubs.c ****  * Exit a program without cleaning up files.
  98:../src/platform/mpfs_hal/startup_gcc/newlib_stubs.c ****  */
  99:../src/platform/mpfs_hal/startup_gcc/newlib_stubs.c **** void _exit( int code )
 100:../src/platform/mpfs_hal/startup_gcc/newlib_stubs.c **** {
  70              		.loc 1 100 1 is_stmt 1
  71              		.cfi_startproc
  72              	.LVL4:
  73              	.L5:
 101:../src/platform/mpfs_hal/startup_gcc/newlib_stubs.c ****     (void)code;
  74              		.loc 1 101 5 discriminator 1
 102:../src/platform/mpfs_hal/startup_gcc/newlib_stubs.c ****     /* Should we force a system reset? */
 103:../src/platform/mpfs_hal/startup_gcc/newlib_stubs.c ****     while( 1 )
  75              		.loc 1 103 5 discriminator 1
 104:../src/platform/mpfs_hal/startup_gcc/newlib_stubs.c ****     {
 105:../src/platform/mpfs_hal/startup_gcc/newlib_stubs.c ****         ;
  76              		.loc 1 105 9 discriminator 1
  77 0000 01A0     		j	.L5
  78              		.cfi_endproc
  79              	.LFE21:
  81              		.section	.text._fork,"ax",@progbits
  82              		.align	1
  83              		.globl	_fork
  85              	_fork:
  86              	.LFB22:
 106:../src/platform/mpfs_hal/startup_gcc/newlib_stubs.c ****     }
 107:../src/platform/mpfs_hal/startup_gcc/newlib_stubs.c **** }
 108:../src/platform/mpfs_hal/startup_gcc/newlib_stubs.c **** 
 109:../src/platform/mpfs_hal/startup_gcc/newlib_stubs.c **** /*==============================================================================
 110:../src/platform/mpfs_hal/startup_gcc/newlib_stubs.c ****  * Create a new process.
 111:../src/platform/mpfs_hal/startup_gcc/newlib_stubs.c ****  */
 112:../src/platform/mpfs_hal/startup_gcc/newlib_stubs.c **** int _fork(void);
 113:../src/platform/mpfs_hal/startup_gcc/newlib_stubs.c **** int _fork(void)
 114:../src/platform/mpfs_hal/startup_gcc/newlib_stubs.c **** {
  87              		.loc 1 114 1
  88              		.cfi_startproc
 115:../src/platform/mpfs_hal/startup_gcc/newlib_stubs.c ****     errno = EAGAIN;
  89              		.loc 1 115 5
 114:../src/platform/mpfs_hal/startup_gcc/newlib_stubs.c ****     errno = EAGAIN;
  90              		.loc 1 114 1 is_stmt 0
  91 0000 4111     		addi	sp,sp,-16
  92              		.cfi_def_cfa_offset 16
  93 0002 06E4     		sd	ra,8(sp)
  94              		.cfi_offset 1, -8
  95              		.loc 1 115 5
  96 0004 97000000 		call	__errno
  96      E7800000 
  97              	.LVL5:
 116:../src/platform/mpfs_hal/startup_gcc/newlib_stubs.c ****     return -1;
 117:../src/platform/mpfs_hal/startup_gcc/newlib_stubs.c **** }
  98              		.loc 1 117 1
  99 000c A260     		ld	ra,8(sp)
 100              		.cfi_restore 1
 115:../src/platform/mpfs_hal/startup_gcc/newlib_stubs.c ****     return -1;
 101              		.loc 1 115 11
 102 000e AD47     		li	a5,11
 103 0010 1CC1     		sw	a5,0(a0)
 116:../src/platform/mpfs_hal/startup_gcc/newlib_stubs.c ****     return -1;
 104              		.loc 1 116 5 is_stmt 1
 105              		.loc 1 117 1 is_stmt 0
 106 0012 7D55     		li	a0,-1
 107 0014 4101     		addi	sp,sp,16
 108              		.cfi_def_cfa_offset 0
 109 0016 8280     		jr	ra
 110              		.cfi_endproc
 111              	.LFE22:
 113              		.section	.text._fstat,"ax",@progbits
 114              		.align	1
 115              		.globl	_fstat
 117              	_fstat:
 118              	.LFB23:
 118:../src/platform/mpfs_hal/startup_gcc/newlib_stubs.c **** 
 119:../src/platform/mpfs_hal/startup_gcc/newlib_stubs.c **** /*==============================================================================
 120:../src/platform/mpfs_hal/startup_gcc/newlib_stubs.c ****  * Status of an open file.
 121:../src/platform/mpfs_hal/startup_gcc/newlib_stubs.c ****  */
 122:../src/platform/mpfs_hal/startup_gcc/newlib_stubs.c **** int _fstat(int file, struct stat *st);
 123:../src/platform/mpfs_hal/startup_gcc/newlib_stubs.c **** int _fstat(int file, struct stat *st)
 124:../src/platform/mpfs_hal/startup_gcc/newlib_stubs.c **** {
 119              		.loc 1 124 1 is_stmt 1
 120              		.cfi_startproc
 121              	.LVL6:
 125:../src/platform/mpfs_hal/startup_gcc/newlib_stubs.c ****     (void)file;
 122              		.loc 1 125 5
 126:../src/platform/mpfs_hal/startup_gcc/newlib_stubs.c ****     st->st_mode = S_IFCHR;
 123              		.loc 1 126 5
 124              		.loc 1 126 17 is_stmt 0
 125 0000 8967     		li	a5,8192
 126 0002 DCC1     		sw	a5,4(a1)
 127:../src/platform/mpfs_hal/startup_gcc/newlib_stubs.c ****     return (0);
 127              		.loc 1 127 5 is_stmt 1
 128:../src/platform/mpfs_hal/startup_gcc/newlib_stubs.c **** }
 128              		.loc 1 128 1 is_stmt 0
 129 0004 0145     		li	a0,0
 130              	.LVL7:
 131 0006 8280     		ret
 132              		.cfi_endproc
 133              	.LFE23:
 135              		.section	.text._getpid,"ax",@progbits
 136              		.align	1
 137              		.globl	_getpid
 139              	_getpid:
 140              	.LFB24:
 129:../src/platform/mpfs_hal/startup_gcc/newlib_stubs.c **** 
 130:../src/platform/mpfs_hal/startup_gcc/newlib_stubs.c **** /*==============================================================================
 131:../src/platform/mpfs_hal/startup_gcc/newlib_stubs.c ****  * Process-ID
 132:../src/platform/mpfs_hal/startup_gcc/newlib_stubs.c ****  */
 133:../src/platform/mpfs_hal/startup_gcc/newlib_stubs.c **** int _getpid(void);
 134:../src/platform/mpfs_hal/startup_gcc/newlib_stubs.c **** int _getpid(void)
 135:../src/platform/mpfs_hal/startup_gcc/newlib_stubs.c **** {
 141              		.loc 1 135 1 is_stmt 1
 142              		.cfi_startproc
 136:../src/platform/mpfs_hal/startup_gcc/newlib_stubs.c ****     return (1);
 143              		.loc 1 136 5
 137:../src/platform/mpfs_hal/startup_gcc/newlib_stubs.c **** }
 144              		.loc 1 137 1 is_stmt 0
 145 0000 0545     		li	a0,1
 146 0002 8280     		ret
 147              		.cfi_endproc
 148              	.LFE24:
 150              		.section	.text._isatty,"ax",@progbits
 151              		.align	1
 152              		.globl	_isatty
 154              	_isatty:
 155              	.LFB25:
 138:../src/platform/mpfs_hal/startup_gcc/newlib_stubs.c **** 
 139:../src/platform/mpfs_hal/startup_gcc/newlib_stubs.c **** /*==============================================================================
 140:../src/platform/mpfs_hal/startup_gcc/newlib_stubs.c ****  * Query whether output stream is a terminal.
 141:../src/platform/mpfs_hal/startup_gcc/newlib_stubs.c ****  */
 142:../src/platform/mpfs_hal/startup_gcc/newlib_stubs.c **** int _isatty(int file);
 143:../src/platform/mpfs_hal/startup_gcc/newlib_stubs.c **** int _isatty(int file)
 144:../src/platform/mpfs_hal/startup_gcc/newlib_stubs.c **** {
 156              		.loc 1 144 1 is_stmt 1
 157              		.cfi_startproc
 158              	.LVL8:
 145:../src/platform/mpfs_hal/startup_gcc/newlib_stubs.c ****     (void)file;
 159              		.loc 1 145 5
 146:../src/platform/mpfs_hal/startup_gcc/newlib_stubs.c ****     return (1);
 160              		.loc 1 146 5
 147:../src/platform/mpfs_hal/startup_gcc/newlib_stubs.c **** }
 161              		.loc 1 147 1 is_stmt 0
 162 0000 0545     		li	a0,1
 163              	.LVL9:
 164 0002 8280     		ret
 165              		.cfi_endproc
 166              	.LFE25:
 168              		.section	.text._kill,"ax",@progbits
 169              		.align	1
 170              		.globl	_kill
 172              	_kill:
 173              	.LFB26:
 148:../src/platform/mpfs_hal/startup_gcc/newlib_stubs.c **** 
 149:../src/platform/mpfs_hal/startup_gcc/newlib_stubs.c **** /*==============================================================================
 150:../src/platform/mpfs_hal/startup_gcc/newlib_stubs.c ****  * Send a signal.
 151:../src/platform/mpfs_hal/startup_gcc/newlib_stubs.c ****  */
 152:../src/platform/mpfs_hal/startup_gcc/newlib_stubs.c **** int _kill(int pid, int sig);
 153:../src/platform/mpfs_hal/startup_gcc/newlib_stubs.c **** int _kill(int pid, int sig)
 154:../src/platform/mpfs_hal/startup_gcc/newlib_stubs.c **** {
 174              		.loc 1 154 1 is_stmt 1
 175              		.cfi_startproc
 176              	.LVL10:
 155:../src/platform/mpfs_hal/startup_gcc/newlib_stubs.c ****     (void)pid;
 177              		.loc 1 155 5
 156:../src/platform/mpfs_hal/startup_gcc/newlib_stubs.c ****     (void)sig;
 178              		.loc 1 156 5
 157:../src/platform/mpfs_hal/startup_gcc/newlib_stubs.c ****     errno = EINVAL;
 179              		.loc 1 157 5
 154:../src/platform/mpfs_hal/startup_gcc/newlib_stubs.c ****     (void)pid;
 180              		.loc 1 154 1 is_stmt 0
 181 0000 4111     		addi	sp,sp,-16
 182              		.cfi_def_cfa_offset 16
 183 0002 06E4     		sd	ra,8(sp)
 184              		.cfi_offset 1, -8
 185              		.loc 1 157 5
 186 0004 97000000 		call	__errno
 186      E7800000 
 187              	.LVL11:
 158:../src/platform/mpfs_hal/startup_gcc/newlib_stubs.c ****     return (-1);
 159:../src/platform/mpfs_hal/startup_gcc/newlib_stubs.c **** }
 188              		.loc 1 159 1
 189 000c A260     		ld	ra,8(sp)
 190              		.cfi_restore 1
 157:../src/platform/mpfs_hal/startup_gcc/newlib_stubs.c ****     return (-1);
 191              		.loc 1 157 11
 192 000e D947     		li	a5,22
 193 0010 1CC1     		sw	a5,0(a0)
 158:../src/platform/mpfs_hal/startup_gcc/newlib_stubs.c ****     return (-1);
 194              		.loc 1 158 5 is_stmt 1
 195              		.loc 1 159 1 is_stmt 0
 196 0012 7D55     		li	a0,-1
 197 0014 4101     		addi	sp,sp,16
 198              		.cfi_def_cfa_offset 0
 199 0016 8280     		jr	ra
 200              		.cfi_endproc
 201              	.LFE26:
 203              		.section	.text._link,"ax",@progbits
 204              		.align	1
 205              		.globl	_link
 207              	_link:
 208              	.LFB27:
 160:../src/platform/mpfs_hal/startup_gcc/newlib_stubs.c **** 
 161:../src/platform/mpfs_hal/startup_gcc/newlib_stubs.c **** /*==============================================================================
 162:../src/platform/mpfs_hal/startup_gcc/newlib_stubs.c ****  * Establish a new name for an existing file.
 163:../src/platform/mpfs_hal/startup_gcc/newlib_stubs.c ****  */
 164:../src/platform/mpfs_hal/startup_gcc/newlib_stubs.c **** int _link(char *old, char *new);
 165:../src/platform/mpfs_hal/startup_gcc/newlib_stubs.c **** int _link(char *old, char *new)
 166:../src/platform/mpfs_hal/startup_gcc/newlib_stubs.c **** {
 209              		.loc 1 166 1 is_stmt 1
 210              		.cfi_startproc
 211              	.LVL12:
 167:../src/platform/mpfs_hal/startup_gcc/newlib_stubs.c ****     (void)old;
 212              		.loc 1 167 5
 168:../src/platform/mpfs_hal/startup_gcc/newlib_stubs.c ****     (void)new;
 213              		.loc 1 168 5
 169:../src/platform/mpfs_hal/startup_gcc/newlib_stubs.c ****     errno = EMLINK;
 214              		.loc 1 169 5
 166:../src/platform/mpfs_hal/startup_gcc/newlib_stubs.c ****     (void)old;
 215              		.loc 1 166 1 is_stmt 0
 216 0000 4111     		addi	sp,sp,-16
 217              		.cfi_def_cfa_offset 16
 218 0002 06E4     		sd	ra,8(sp)
 219              		.cfi_offset 1, -8
 220              		.loc 1 169 5
 221 0004 97000000 		call	__errno
 221      E7800000 
 222              	.LVL13:
 170:../src/platform/mpfs_hal/startup_gcc/newlib_stubs.c ****     return (-1);
 171:../src/platform/mpfs_hal/startup_gcc/newlib_stubs.c **** }
 223              		.loc 1 171 1
 224 000c A260     		ld	ra,8(sp)
 225              		.cfi_restore 1
 169:../src/platform/mpfs_hal/startup_gcc/newlib_stubs.c ****     return (-1);
 226              		.loc 1 169 11
 227 000e FD47     		li	a5,31
 228 0010 1CC1     		sw	a5,0(a0)
 170:../src/platform/mpfs_hal/startup_gcc/newlib_stubs.c ****     return (-1);
 229              		.loc 1 170 5 is_stmt 1
 230              		.loc 1 171 1 is_stmt 0
 231 0012 7D55     		li	a0,-1
 232 0014 4101     		addi	sp,sp,16
 233              		.cfi_def_cfa_offset 0
 234 0016 8280     		jr	ra
 235              		.cfi_endproc
 236              	.LFE27:
 238              		.section	.text._lseek,"ax",@progbits
 239              		.align	1
 240              		.globl	_lseek
 242              	_lseek:
 243              	.LFB28:
 172:../src/platform/mpfs_hal/startup_gcc/newlib_stubs.c **** 
 173:../src/platform/mpfs_hal/startup_gcc/newlib_stubs.c **** /*==============================================================================
 174:../src/platform/mpfs_hal/startup_gcc/newlib_stubs.c ****  * Set position in a file.
 175:../src/platform/mpfs_hal/startup_gcc/newlib_stubs.c ****  */
 176:../src/platform/mpfs_hal/startup_gcc/newlib_stubs.c **** int _lseek(int file, int ptr, int dir);
 177:../src/platform/mpfs_hal/startup_gcc/newlib_stubs.c **** int _lseek(int file, int ptr, int dir)
 178:../src/platform/mpfs_hal/startup_gcc/newlib_stubs.c **** {
 244              		.loc 1 178 1 is_stmt 1
 245              		.cfi_startproc
 246              	.LVL14:
 179:../src/platform/mpfs_hal/startup_gcc/newlib_stubs.c ****     (void)file;
 247              		.loc 1 179 5
 180:../src/platform/mpfs_hal/startup_gcc/newlib_stubs.c ****     (void)ptr;
 248              		.loc 1 180 5
 181:../src/platform/mpfs_hal/startup_gcc/newlib_stubs.c ****     (void)dir;
 249              		.loc 1 181 5
 182:../src/platform/mpfs_hal/startup_gcc/newlib_stubs.c ****     return (0);
 250              		.loc 1 182 5
 183:../src/platform/mpfs_hal/startup_gcc/newlib_stubs.c **** }
 251              		.loc 1 183 1 is_stmt 0
 252 0000 0145     		li	a0,0
 253              	.LVL15:
 254 0002 8280     		ret
 255              		.cfi_endproc
 256              	.LFE28:
 258              		.section	.text._open,"ax",@progbits
 259              		.align	1
 260              		.globl	_open
 262              	_open:
 263              	.LFB29:
 184:../src/platform/mpfs_hal/startup_gcc/newlib_stubs.c **** 
 185:../src/platform/mpfs_hal/startup_gcc/newlib_stubs.c **** /*==============================================================================
 186:../src/platform/mpfs_hal/startup_gcc/newlib_stubs.c ****  * Open a file.
 187:../src/platform/mpfs_hal/startup_gcc/newlib_stubs.c ****  */
 188:../src/platform/mpfs_hal/startup_gcc/newlib_stubs.c **** int _open(const char *name, int flags, int mode);
 189:../src/platform/mpfs_hal/startup_gcc/newlib_stubs.c **** int _open(const char *name, int flags, int mode)
 190:../src/platform/mpfs_hal/startup_gcc/newlib_stubs.c **** {
 264              		.loc 1 190 1 is_stmt 1
 265              		.cfi_startproc
 266              	.LVL16:
 191:../src/platform/mpfs_hal/startup_gcc/newlib_stubs.c ****     (void)name;
 267              		.loc 1 191 5
 192:../src/platform/mpfs_hal/startup_gcc/newlib_stubs.c ****     (void)flags;
 268              		.loc 1 192 5
 193:../src/platform/mpfs_hal/startup_gcc/newlib_stubs.c ****     (void)mode;
 269              		.loc 1 193 5
 194:../src/platform/mpfs_hal/startup_gcc/newlib_stubs.c ****     return (-1);
 270              		.loc 1 194 5
 195:../src/platform/mpfs_hal/startup_gcc/newlib_stubs.c **** }
 271              		.loc 1 195 1 is_stmt 0
 272 0000 7D55     		li	a0,-1
 273              	.LVL17:
 274 0002 8280     		ret
 275              		.cfi_endproc
 276              	.LFE29:
 278              		.section	.text._read,"ax",@progbits
 279              		.align	1
 280              		.globl	_read
 282              	_read:
 283              	.LFB30:
 196:../src/platform/mpfs_hal/startup_gcc/newlib_stubs.c **** 
 197:../src/platform/mpfs_hal/startup_gcc/newlib_stubs.c **** /*==============================================================================
 198:../src/platform/mpfs_hal/startup_gcc/newlib_stubs.c ****  * Read from a file.
 199:../src/platform/mpfs_hal/startup_gcc/newlib_stubs.c ****  */
 200:../src/platform/mpfs_hal/startup_gcc/newlib_stubs.c **** int _read(int file, char *ptr, int len);
 201:../src/platform/mpfs_hal/startup_gcc/newlib_stubs.c **** int _read(int file, char *ptr, int len)
 202:../src/platform/mpfs_hal/startup_gcc/newlib_stubs.c **** {
 284              		.loc 1 202 1 is_stmt 1
 285              		.cfi_startproc
 286              	.LVL18:
 203:../src/platform/mpfs_hal/startup_gcc/newlib_stubs.c ****     (void)file;
 287              		.loc 1 203 5
 204:../src/platform/mpfs_hal/startup_gcc/newlib_stubs.c ****     (void)ptr;
 288              		.loc 1 204 5
 205:../src/platform/mpfs_hal/startup_gcc/newlib_stubs.c ****     (void)len;
 289              		.loc 1 205 5
 206:../src/platform/mpfs_hal/startup_gcc/newlib_stubs.c ****     return (0);
 290              		.loc 1 206 5
 207:../src/platform/mpfs_hal/startup_gcc/newlib_stubs.c **** }
 291              		.loc 1 207 1 is_stmt 0
 292 0000 0145     		li	a0,0
 293              	.LVL19:
 294 0002 8280     		ret
 295              		.cfi_endproc
 296              	.LFE30:
 298              		.section	.text._write_r,"ax",@progbits
 299              		.align	1
 300              		.globl	_write_r
 302              	_write_r:
 303              	.LFB31:
 208:../src/platform/mpfs_hal/startup_gcc/newlib_stubs.c **** 
 209:../src/platform/mpfs_hal/startup_gcc/newlib_stubs.c **** /*==============================================================================
 210:../src/platform/mpfs_hal/startup_gcc/newlib_stubs.c ****  * Write to a file. libc subroutines will use this system routine for output to
 211:../src/platform/mpfs_hal/startup_gcc/newlib_stubs.c ****  * all files, including stdout so if you need to generate any output, for
 212:../src/platform/mpfs_hal/startup_gcc/newlib_stubs.c ****  * example to a serial port for debugging, you should make your minimal write
 213:../src/platform/mpfs_hal/startup_gcc/newlib_stubs.c ****  * capable of doing this.
 214:../src/platform/mpfs_hal/startup_gcc/newlib_stubs.c ****  */
 215:../src/platform/mpfs_hal/startup_gcc/newlib_stubs.c **** int _write_r( void * reent, int file, char * ptr, int len );
 216:../src/platform/mpfs_hal/startup_gcc/newlib_stubs.c **** int _write_r( void * reent, int file, char * ptr, int len )
 217:../src/platform/mpfs_hal/startup_gcc/newlib_stubs.c **** {
 304              		.loc 1 217 1 is_stmt 1
 305              		.cfi_startproc
 306              	.LVL20:
 218:../src/platform/mpfs_hal/startup_gcc/newlib_stubs.c ****     (void)reent;
 307              		.loc 1 218 5
 219:../src/platform/mpfs_hal/startup_gcc/newlib_stubs.c ****     (void)file;
 308              		.loc 1 219 5
 220:../src/platform/mpfs_hal/startup_gcc/newlib_stubs.c ****     (void)ptr;
 309              		.loc 1 220 5
 221:../src/platform/mpfs_hal/startup_gcc/newlib_stubs.c ****     (void)len;
 310              		.loc 1 221 5
 222:../src/platform/mpfs_hal/startup_gcc/newlib_stubs.c **** #ifdef MICROCHIP_STDIO_THRU_MMUARTX
 223:../src/platform/mpfs_hal/startup_gcc/newlib_stubs.c ****     /*--------------------------------------------------------------------------
 224:../src/platform/mpfs_hal/startup_gcc/newlib_stubs.c ****      * Initialize the UART driver if it is the first time this function is
 225:../src/platform/mpfs_hal/startup_gcc/newlib_stubs.c ****      * called.
 226:../src/platform/mpfs_hal/startup_gcc/newlib_stubs.c ****      */
 227:../src/platform/mpfs_hal/startup_gcc/newlib_stubs.c ****     if(!g_stdio_uart_init_done)
 228:../src/platform/mpfs_hal/startup_gcc/newlib_stubs.c ****     {
 229:../src/platform/mpfs_hal/startup_gcc/newlib_stubs.c ****         MSS_UART_init(gp_my_uart,
 230:../src/platform/mpfs_hal/startup_gcc/newlib_stubs.c ****                       MICROCHIP_STDIO_BAUD_RATE,
 231:../src/platform/mpfs_hal/startup_gcc/newlib_stubs.c ****                       MSS_UART_DATA_8_BITS | MSS_UART_NO_PARITY);
 232:../src/platform/mpfs_hal/startup_gcc/newlib_stubs.c **** 
 233:../src/platform/mpfs_hal/startup_gcc/newlib_stubs.c ****         g_stdio_uart_init_done = 1;
 234:../src/platform/mpfs_hal/startup_gcc/newlib_stubs.c ****     }
 235:../src/platform/mpfs_hal/startup_gcc/newlib_stubs.c **** 
 236:../src/platform/mpfs_hal/startup_gcc/newlib_stubs.c ****     /*--------------------------------------------------------------------------
 237:../src/platform/mpfs_hal/startup_gcc/newlib_stubs.c ****      * Output text to the UART.
 238:../src/platform/mpfs_hal/startup_gcc/newlib_stubs.c ****      */
 239:../src/platform/mpfs_hal/startup_gcc/newlib_stubs.c ****     MSS_UART_polled_tx(gp_my_uart, (uint8_t *)ptr, len);
 240:../src/platform/mpfs_hal/startup_gcc/newlib_stubs.c **** 
 241:../src/platform/mpfs_hal/startup_gcc/newlib_stubs.c ****     return len;
 242:../src/platform/mpfs_hal/startup_gcc/newlib_stubs.c **** #else   /* MICROCHIP_STDIO_THRU_MMUARTX */
 243:../src/platform/mpfs_hal/startup_gcc/newlib_stubs.c ****     return (0);
 311              		.loc 1 243 5
 244:../src/platform/mpfs_hal/startup_gcc/newlib_stubs.c **** #endif  /* MICROCHIP_STDIO_THRU_MMUARTX */
 245:../src/platform/mpfs_hal/startup_gcc/newlib_stubs.c **** }
 312              		.loc 1 245 1 is_stmt 0
 313 0000 0145     		li	a0,0
 314              	.LVL21:
 315 0002 8280     		ret
 316              		.cfi_endproc
 317              	.LFE31:
 319              		.section	.text._sbrk,"ax",@progbits
 320              		.align	1
 321              		.globl	_sbrk
 323              	_sbrk:
 324              	.LFB32:
 246:../src/platform/mpfs_hal/startup_gcc/newlib_stubs.c **** 
 247:../src/platform/mpfs_hal/startup_gcc/newlib_stubs.c **** /*==============================================================================
 248:../src/platform/mpfs_hal/startup_gcc/newlib_stubs.c ****  * Increase program data space. As malloc and related functions depend on this,
 249:../src/platform/mpfs_hal/startup_gcc/newlib_stubs.c ****  * it is useful to have a working implementation. The following suffices for a
 250:../src/platform/mpfs_hal/startup_gcc/newlib_stubs.c ****  * standalone system; it exploits the symbol _end automatically defined by the
 251:../src/platform/mpfs_hal/startup_gcc/newlib_stubs.c ****  * GNU linker.
 252:../src/platform/mpfs_hal/startup_gcc/newlib_stubs.c ****  */
 253:../src/platform/mpfs_hal/startup_gcc/newlib_stubs.c **** caddr_t _sbrk(int incr);
 254:../src/platform/mpfs_hal/startup_gcc/newlib_stubs.c **** caddr_t _sbrk(int incr)
 255:../src/platform/mpfs_hal/startup_gcc/newlib_stubs.c **** {
 325              		.loc 1 255 1 is_stmt 1
 326              		.cfi_startproc
 327              	.LVL22:
 256:../src/platform/mpfs_hal/startup_gcc/newlib_stubs.c ****     extern char _end;       /* Defined by the linker */
 328              		.loc 1 256 5
 257:../src/platform/mpfs_hal/startup_gcc/newlib_stubs.c ****     extern char __heap_start;
 329              		.loc 1 257 5
 258:../src/platform/mpfs_hal/startup_gcc/newlib_stubs.c ****     extern char __heap_end;
 330              		.loc 1 258 5
 259:../src/platform/mpfs_hal/startup_gcc/newlib_stubs.c ****     static char *heap_end;
 331              		.loc 1 259 5
 260:../src/platform/mpfs_hal/startup_gcc/newlib_stubs.c ****     char *prev_heap_end;
 332              		.loc 1 260 5
 261:../src/platform/mpfs_hal/startup_gcc/newlib_stubs.c **** 
 262:../src/platform/mpfs_hal/startup_gcc/newlib_stubs.c ****     (void)__heap_start;
 333              		.loc 1 262 5
 263:../src/platform/mpfs_hal/startup_gcc/newlib_stubs.c ****     (void)__heap_end;
 334              		.loc 1 263 5
 264:../src/platform/mpfs_hal/startup_gcc/newlib_stubs.c **** #ifdef DEBUG_HEAP_SIZE
 265:../src/platform/mpfs_hal/startup_gcc/newlib_stubs.c ****     char * stack_ptr = NULL;
 266:../src/platform/mpfs_hal/startup_gcc/newlib_stubs.c **** #endif
 267:../src/platform/mpfs_hal/startup_gcc/newlib_stubs.c **** 
 268:../src/platform/mpfs_hal/startup_gcc/newlib_stubs.c ****     /*
 269:../src/platform/mpfs_hal/startup_gcc/newlib_stubs.c ****      * Did we allocated memory for the heap in the linker script?
 270:../src/platform/mpfs_hal/startup_gcc/newlib_stubs.c ****      * You need to set HEAP_SIZE to a non-zero value in your linker script if
 271:../src/platform/mpfs_hal/startup_gcc/newlib_stubs.c ****      * the following assertion fires.
 272:../src/platform/mpfs_hal/startup_gcc/newlib_stubs.c ****      */
 273:../src/platform/mpfs_hal/startup_gcc/newlib_stubs.c ****     ASSERT(&__heap_end > &__heap_start);
 335              		.loc 1 273 5
 336              		.loc 1 273 5
 337 0000 17070000 		lla	a4,__heap_start
 337      13070700 
 338 0008 97060000 		lla	a3,__heap_end
 338      93860600 
 255:../src/platform/mpfs_hal/startup_gcc/newlib_stubs.c ****     extern char _end;       /* Defined by the linker */
 339              		.loc 1 255 1 is_stmt 0
 340 0010 AA87     		mv	a5,a0
 341              		.loc 1 273 5
 342 0012 6363D700 		bgtu	a3,a4,.L20
 343              		.loc 1 273 5 is_stmt 1 discriminator 1
 344              	 #APP
 345              	# 273 "../src/platform/mpfs_hal/startup_gcc/newlib_stubs.c" 1
 274              	
 346              		ebreak
 347              	# 0 "" 2
 348              	 #NO_APP
 349              	.L20:
 273:../src/platform/mpfs_hal/startup_gcc/newlib_stubs.c **** 
 350              		.loc 1 273 40 discriminator 3
 275:../src/platform/mpfs_hal/startup_gcc/newlib_stubs.c ****     if (heap_end == NULL)
 351              		.loc 1 275 5 discriminator 3
 352              		.loc 1 275 18 is_stmt 0 discriminator 3
 353 0018 17070000 		lla	a4,.LANCHOR0
 353      13070700 
 354              		.loc 1 275 8 discriminator 3
 355 0020 1063     		ld	a2,0(a4)
 356 0022 09EA     		bne	a2,zero,.L21
 276:../src/platform/mpfs_hal/startup_gcc/newlib_stubs.c ****     {
 277:../src/platform/mpfs_hal/startup_gcc/newlib_stubs.c ****       heap_end = &_end;
 357              		.loc 1 277 7 is_stmt 1
 358              		.loc 1 277 16 is_stmt 0
 359 0024 17060000 		lla	a2,_end
 359      13060600 
 360 002c 97050000 		sd	a2,.LANCHOR0,a1
 360      23B0C500 
 361              	.L21:
 278:../src/platform/mpfs_hal/startup_gcc/newlib_stubs.c ****     }
 279:../src/platform/mpfs_hal/startup_gcc/newlib_stubs.c **** 
 280:../src/platform/mpfs_hal/startup_gcc/newlib_stubs.c ****     prev_heap_end = heap_end;
 362              		.loc 1 280 5 is_stmt 1
 363              		.loc 1 280 19 is_stmt 0
 364 0034 0863     		ld	a0,0(a4)
 365              	.LVL23:
 281:../src/platform/mpfs_hal/startup_gcc/newlib_stubs.c **** 
 282:../src/platform/mpfs_hal/startup_gcc/newlib_stubs.c **** #ifdef DEBUG_HEAP_SIZE          /* add this define if you want to debug crash due to overflow of  h
 283:../src/platform/mpfs_hal/startup_gcc/newlib_stubs.c ****     /* fixme- this test needs to be reworked to take account of multiple harts and TLS */
 284:../src/platform/mpfs_hal/startup_gcc/newlib_stubs.c ****     stack_ptr = read_csr(sp);
 285:../src/platform/mpfs_hal/startup_gcc/newlib_stubs.c ****     /* stack_ptr has just been placed on the stack, so its address in currently pointing to the sta
 286:../src/platform/mpfs_hal/startup_gcc/newlib_stubs.c ****     if(heap_end < stack_ptr)
 287:../src/platform/mpfs_hal/startup_gcc/newlib_stubs.c ****     {
 288:../src/platform/mpfs_hal/startup_gcc/newlib_stubs.c ****         /*
 289:../src/platform/mpfs_hal/startup_gcc/newlib_stubs.c ****          * Heap is at an address below the stack, growing up toward the stack.
 290:../src/platform/mpfs_hal/startup_gcc/newlib_stubs.c ****          * The stack is above the heap, growing down towards the heap.
 291:../src/platform/mpfs_hal/startup_gcc/newlib_stubs.c ****          * Make sure the stack and heap do not run into each other.
 292:../src/platform/mpfs_hal/startup_gcc/newlib_stubs.c ****          */
 293:../src/platform/mpfs_hal/startup_gcc/newlib_stubs.c ****         if (heap_end + incr > stack_ptr)
 294:../src/platform/mpfs_hal/startup_gcc/newlib_stubs.c ****         {
 295:../src/platform/mpfs_hal/startup_gcc/newlib_stubs.c ****           _write_r ((void *)0, 1, "Heap and stack collision\n", 25);
 296:../src/platform/mpfs_hal/startup_gcc/newlib_stubs.c ****           _exit (1);
 297:../src/platform/mpfs_hal/startup_gcc/newlib_stubs.c ****         }
 298:../src/platform/mpfs_hal/startup_gcc/newlib_stubs.c ****     }
 299:../src/platform/mpfs_hal/startup_gcc/newlib_stubs.c ****     else
 300:../src/platform/mpfs_hal/startup_gcc/newlib_stubs.c ****     {
 301:../src/platform/mpfs_hal/startup_gcc/newlib_stubs.c ****         /*
 302:../src/platform/mpfs_hal/startup_gcc/newlib_stubs.c ****          * If the heap and stack are not growing towards each other then use the
 303:../src/platform/mpfs_hal/startup_gcc/newlib_stubs.c ****          * _eheap linker script symbol to figure out if there is room left on
 304:../src/platform/mpfs_hal/startup_gcc/newlib_stubs.c ****          * the heap.
 305:../src/platform/mpfs_hal/startup_gcc/newlib_stubs.c ****          * Please note that this use case makes sense when the stack is located
 306:../src/platform/mpfs_hal/startup_gcc/newlib_stubs.c ****          * in internal eSRAM in the 0x20000000 address range and the heap is
 307:../src/platform/mpfs_hal/startup_gcc/newlib_stubs.c ****          * located in the external memory in the 0xA0000000 memory range.
 308:../src/platform/mpfs_hal/startup_gcc/newlib_stubs.c ****          * Please note that external memory should not be accessed using the
 309:../src/platform/mpfs_hal/startup_gcc/newlib_stubs.c ****          * 0x00000000 memory range to read/write variables/data because of the
 310:../src/platform/mpfs_hal/startup_gcc/newlib_stubs.c ****          * SmartFusion2 cache design.
 311:../src/platform/mpfs_hal/startup_gcc/newlib_stubs.c ****          */
 312:../src/platform/mpfs_hal/startup_gcc/newlib_stubs.c ****         extern char _heap_end;     /* Defined by the linker */
 313:../src/platform/mpfs_hal/startup_gcc/newlib_stubs.c ****         char *top_of_heap;
 314:../src/platform/mpfs_hal/startup_gcc/newlib_stubs.c **** 
 315:../src/platform/mpfs_hal/startup_gcc/newlib_stubs.c ****         top_of_heap = &_heap_end;
 316:../src/platform/mpfs_hal/startup_gcc/newlib_stubs.c ****         if(heap_end + incr  > top_of_heap)
 317:../src/platform/mpfs_hal/startup_gcc/newlib_stubs.c ****         {
 318:../src/platform/mpfs_hal/startup_gcc/newlib_stubs.c ****           _write_r ((void *)0, 1, "Out of heap memory\n", 25);
 319:../src/platform/mpfs_hal/startup_gcc/newlib_stubs.c ****           _exit (1);
 320:../src/platform/mpfs_hal/startup_gcc/newlib_stubs.c ****         }
 321:../src/platform/mpfs_hal/startup_gcc/newlib_stubs.c ****     }
 322:../src/platform/mpfs_hal/startup_gcc/newlib_stubs.c **** #endif
 323:../src/platform/mpfs_hal/startup_gcc/newlib_stubs.c ****     heap_end += incr;
 366              		.loc 1 323 5 is_stmt 1
 367              		.loc 1 323 14 is_stmt 0
 368 0036 AA97     		add	a5,a0,a5
 369 0038 17070000 		sd	a5,.LANCHOR0,a4
 369      2330F700 
 324:../src/platform/mpfs_hal/startup_gcc/newlib_stubs.c **** 
 325:../src/platform/mpfs_hal/startup_gcc/newlib_stubs.c ****     /*
 326:../src/platform/mpfs_hal/startup_gcc/newlib_stubs.c ****      * Did we run out of heap?
 327:../src/platform/mpfs_hal/startup_gcc/newlib_stubs.c ****      * You need to increase the heap size in the linker script if the following
 328:../src/platform/mpfs_hal/startup_gcc/newlib_stubs.c ****      * assertion fires.
 329:../src/platform/mpfs_hal/startup_gcc/newlib_stubs.c ****      * */
 330:../src/platform/mpfs_hal/startup_gcc/newlib_stubs.c ****     ASSERT(heap_end <= &__heap_end);
 370              		.loc 1 330 5 is_stmt 1
 371              		.loc 1 330 5
 372 0040 63F3F600 		bleu	a5,a3,.L19
 373              		.loc 1 330 5 discriminator 1
 374              	 #APP
 375              	# 330 "../src/platform/mpfs_hal/startup_gcc/newlib_stubs.c" 1
 331              	
 330:../src/platform/mpfs_hal/startup_gcc/newlib_stubs.c ****     ASSERT(heap_end <= &__heap_end);
 376              		ebreak
 377              	# 0 "" 2
 378              		.loc 1 330 36 discriminator 1
 332:../src/platform/mpfs_hal/startup_gcc/newlib_stubs.c ****     return ((caddr_t) prev_heap_end);
 379              		.loc 1 332 5 discriminator 1
 380              	 #NO_APP
 381              	.L19:
 333:../src/platform/mpfs_hal/startup_gcc/newlib_stubs.c **** }
 382              		.loc 1 333 1 is_stmt 0
 383 0046 8280     		ret
 384              		.cfi_endproc
 385              	.LFE32:
 387              		.section	.text._stat,"ax",@progbits
 388              		.align	1
 389              		.globl	_stat
 391              	_stat:
 392              	.LFB33:
 334:../src/platform/mpfs_hal/startup_gcc/newlib_stubs.c **** 
 335:../src/platform/mpfs_hal/startup_gcc/newlib_stubs.c **** /*==============================================================================
 336:../src/platform/mpfs_hal/startup_gcc/newlib_stubs.c ****  * Status of a file (by name).
 337:../src/platform/mpfs_hal/startup_gcc/newlib_stubs.c ****  */
 338:../src/platform/mpfs_hal/startup_gcc/newlib_stubs.c **** int _stat(char *file, struct stat *st);
 339:../src/platform/mpfs_hal/startup_gcc/newlib_stubs.c **** int _stat(char *file, struct stat *st)
 340:../src/platform/mpfs_hal/startup_gcc/newlib_stubs.c **** {
 393              		.loc 1 340 1 is_stmt 1
 394              		.cfi_startproc
 395              	.LVL24:
 341:../src/platform/mpfs_hal/startup_gcc/newlib_stubs.c ****     (void)file;
 396              		.loc 1 341 5
 342:../src/platform/mpfs_hal/startup_gcc/newlib_stubs.c ****     st->st_mode = S_IFCHR;
 397              		.loc 1 342 5
 398              		.loc 1 342 17 is_stmt 0
 399 0000 8967     		li	a5,8192
 400 0002 DCC1     		sw	a5,4(a1)
 343:../src/platform/mpfs_hal/startup_gcc/newlib_stubs.c ****     return 0;
 401              		.loc 1 343 5 is_stmt 1
 344:../src/platform/mpfs_hal/startup_gcc/newlib_stubs.c **** }
 402              		.loc 1 344 1 is_stmt 0
 403 0004 0145     		li	a0,0
 404              	.LVL25:
 405 0006 8280     		ret
 406              		.cfi_endproc
 407              	.LFE33:
 409              		.section	.text._times,"ax",@progbits
 410              		.align	1
 411              		.globl	_times
 413              	_times:
 414              	.LFB34:
 345:../src/platform/mpfs_hal/startup_gcc/newlib_stubs.c **** 
 346:../src/platform/mpfs_hal/startup_gcc/newlib_stubs.c **** /*==============================================================================
 347:../src/platform/mpfs_hal/startup_gcc/newlib_stubs.c ****  * Timing information for current process.
 348:../src/platform/mpfs_hal/startup_gcc/newlib_stubs.c ****  */
 349:../src/platform/mpfs_hal/startup_gcc/newlib_stubs.c **** int _times(struct tms *buf);
 350:../src/platform/mpfs_hal/startup_gcc/newlib_stubs.c **** int _times(struct tms *buf)
 351:../src/platform/mpfs_hal/startup_gcc/newlib_stubs.c **** {
 415              		.loc 1 351 1 is_stmt 1
 416              		.cfi_startproc
 417              	.LVL26:
 352:../src/platform/mpfs_hal/startup_gcc/newlib_stubs.c ****     (void)buf;
 418              		.loc 1 352 5
 353:../src/platform/mpfs_hal/startup_gcc/newlib_stubs.c ****     return (-1);
 419              		.loc 1 353 5
 354:../src/platform/mpfs_hal/startup_gcc/newlib_stubs.c **** }
 420              		.loc 1 354 1 is_stmt 0
 421 0000 7D55     		li	a0,-1
 422              	.LVL27:
 423 0002 8280     		ret
 424              		.cfi_endproc
 425              	.LFE34:
 427              		.section	.text._unlink,"ax",@progbits
 428              		.align	1
 429              		.globl	_unlink
 431              	_unlink:
 432              	.LFB35:
 355:../src/platform/mpfs_hal/startup_gcc/newlib_stubs.c **** 
 356:../src/platform/mpfs_hal/startup_gcc/newlib_stubs.c **** /*==============================================================================
 357:../src/platform/mpfs_hal/startup_gcc/newlib_stubs.c ****  * Remove a file's directory entry.
 358:../src/platform/mpfs_hal/startup_gcc/newlib_stubs.c ****  */
 359:../src/platform/mpfs_hal/startup_gcc/newlib_stubs.c **** int _unlink(char *name);
 360:../src/platform/mpfs_hal/startup_gcc/newlib_stubs.c **** int _unlink(char *name)
 361:../src/platform/mpfs_hal/startup_gcc/newlib_stubs.c **** {
 433              		.loc 1 361 1 is_stmt 1
 434              		.cfi_startproc
 435              	.LVL28:
 362:../src/platform/mpfs_hal/startup_gcc/newlib_stubs.c ****     (void)name;
 436              		.loc 1 362 5
 363:../src/platform/mpfs_hal/startup_gcc/newlib_stubs.c ****     errno = ENOENT;
 437              		.loc 1 363 5
 361:../src/platform/mpfs_hal/startup_gcc/newlib_stubs.c ****     (void)name;
 438              		.loc 1 361 1 is_stmt 0
 439 0000 4111     		addi	sp,sp,-16
 440              		.cfi_def_cfa_offset 16
 441 0002 06E4     		sd	ra,8(sp)
 442              		.cfi_offset 1, -8
 443              		.loc 1 363 5
 444 0004 97000000 		call	__errno
 444      E7800000 
 445              	.LVL29:
 364:../src/platform/mpfs_hal/startup_gcc/newlib_stubs.c ****     return (-1);
 365:../src/platform/mpfs_hal/startup_gcc/newlib_stubs.c **** }
 446              		.loc 1 365 1
 447 000c A260     		ld	ra,8(sp)
 448              		.cfi_restore 1
 363:../src/platform/mpfs_hal/startup_gcc/newlib_stubs.c ****     return (-1);
 449              		.loc 1 363 11
 450 000e 8947     		li	a5,2
 451 0010 1CC1     		sw	a5,0(a0)
 364:../src/platform/mpfs_hal/startup_gcc/newlib_stubs.c ****     return (-1);
 452              		.loc 1 364 5 is_stmt 1
 453              		.loc 1 365 1 is_stmt 0
 454 0012 7D55     		li	a0,-1
 455 0014 4101     		addi	sp,sp,16
 456              		.cfi_def_cfa_offset 0
 457 0016 8280     		jr	ra
 458              		.cfi_endproc
 459              	.LFE35:
 461              		.section	.text._wait,"ax",@progbits
 462              		.align	1
 463              		.globl	_wait
 465              	_wait:
 466              	.LFB36:
 366:../src/platform/mpfs_hal/startup_gcc/newlib_stubs.c **** 
 367:../src/platform/mpfs_hal/startup_gcc/newlib_stubs.c **** /*==============================================================================
 368:../src/platform/mpfs_hal/startup_gcc/newlib_stubs.c ****  * Wait for a child process.
 369:../src/platform/mpfs_hal/startup_gcc/newlib_stubs.c ****  */
 370:../src/platform/mpfs_hal/startup_gcc/newlib_stubs.c **** int _wait(int *status);
 371:../src/platform/mpfs_hal/startup_gcc/newlib_stubs.c **** int _wait(int *status)
 372:../src/platform/mpfs_hal/startup_gcc/newlib_stubs.c **** {
 467              		.loc 1 372 1 is_stmt 1
 468              		.cfi_startproc
 469              	.LVL30:
 373:../src/platform/mpfs_hal/startup_gcc/newlib_stubs.c ****     (void)status;
 470              		.loc 1 373 5
 374:../src/platform/mpfs_hal/startup_gcc/newlib_stubs.c ****     errno = ECHILD;
 471              		.loc 1 374 5
 372:../src/platform/mpfs_hal/startup_gcc/newlib_stubs.c ****     (void)status;
 472              		.loc 1 372 1 is_stmt 0
 473 0000 4111     		addi	sp,sp,-16
 474              		.cfi_def_cfa_offset 16
 475 0002 06E4     		sd	ra,8(sp)
 476              		.cfi_offset 1, -8
 477              		.loc 1 374 5
 478 0004 97000000 		call	__errno
 478      E7800000 
 479              	.LVL31:
 375:../src/platform/mpfs_hal/startup_gcc/newlib_stubs.c ****     return (-1);
 376:../src/platform/mpfs_hal/startup_gcc/newlib_stubs.c **** }
 480              		.loc 1 376 1
 481 000c A260     		ld	ra,8(sp)
 482              		.cfi_restore 1
 374:../src/platform/mpfs_hal/startup_gcc/newlib_stubs.c ****     return (-1);
 483              		.loc 1 374 11
 484 000e A947     		li	a5,10
 485 0010 1CC1     		sw	a5,0(a0)
 375:../src/platform/mpfs_hal/startup_gcc/newlib_stubs.c ****     return (-1);
 486              		.loc 1 375 5 is_stmt 1
 487              		.loc 1 376 1 is_stmt 0
 488 0012 7D55     		li	a0,-1
 489 0014 4101     		addi	sp,sp,16
 490              		.cfi_def_cfa_offset 0
 491 0016 8280     		jr	ra
 492              		.cfi_endproc
 493              	.LFE36:
 495              		.globl	environ
 496              		.globl	__env
 497              		.section	.sbss.__env,"aw",@nobits
 498              		.align	3
 501              	__env:
 502 0000 00000000 		.zero	8
 502      00000000 
 503              		.section	.sbss.heap_end.13780,"aw",@nobits
 504              		.align	3
 505              		.set	.LANCHOR0,. + 0
 508              	heap_end.13780:
 509 0000 00000000 		.zero	8
 509      00000000 
 510              		.section	.sdata.environ,"aw"
 511              		.align	3
 514              	environ:
 515 0000 00000000 		.dword	__env
 515      00000000 
 516              		.text
 517              	.Letext0:
 518              		.file 2 "/home/vinay/Desktop/soft_console/SoftConsole-v2022.2-RISC-V-747/riscv-unknown-elf-gcc/lib
 519              		.file 3 "/home/vinay/Desktop/soft_console/SoftConsole-v2022.2-RISC-V-747/riscv-unknown-elf-gcc/ris
 520              		.file 4 "/home/vinay/Desktop/soft_console/SoftConsole-v2022.2-RISC-V-747/riscv-unknown-elf-gcc/ris
 521              		.file 5 "/home/vinay/Desktop/soft_console/SoftConsole-v2022.2-RISC-V-747/riscv-unknown-elf-gcc/ris
 522              		.file 6 "/home/vinay/Desktop/soft_console/SoftConsole-v2022.2-RISC-V-747/riscv-unknown-elf-gcc/ris
 523              		.file 7 "/home/vinay/Desktop/soft_console/SoftConsole-v2022.2-RISC-V-747/riscv-unknown-elf-gcc/ris
 524              		.file 8 "/home/vinay/Desktop/soft_console/SoftConsole-v2022.2-RISC-V-747/riscv-unknown-elf-gcc/ris
 525              		.file 9 "/home/vinay/Desktop/soft_console/SoftConsole-v2022.2-RISC-V-747/riscv-unknown-elf-gcc/ris
 526              		.file 10 "/home/vinay/Desktop/soft_console/SoftConsole-v2022.2-RISC-V-747/riscv-unknown-elf-gcc/ri
 527              		.file 11 "/home/vinay/Desktop/soft_console/SoftConsole-v2022.2-RISC-V-747/riscv-unknown-elf-gcc/ri
 528              		.file 12 "/home/vinay/Desktop/soft_console/SoftConsole-v2022.2-RISC-V-747/riscv-unknown-elf-gcc/ri
 529              		.file 13 "/home/vinay/Desktop/soft_console/SoftConsole-v2022.2-RISC-V-747/riscv-unknown-elf-gcc/ri
 530              		.file 14 "/home/vinay/Desktop/soft_console/SoftConsole-v2022.2-RISC-V-747/riscv-unknown-elf-gcc/ri
 531              		.file 15 "../src/platform/mpfs_hal/startup_gcc/../common/nwc/mss_ddr_sgmii_phy_defs.h"
 532              		.file 16 "../src/platform/mpfs_hal/startup_gcc/../common/nwc/mss_ddr_sgmii_regs.h"
 533              		.file 17 "../src/platform/mpfs_hal/startup_gcc/../common/nwc/mss_scb_nwc_regs.h"
 534              		.file 18 "../src/platform/mpfs_hal/startup_gcc/../common/mss_mpu.h"
 535              		.file 19 "../src/platform/mpfs_hal/startup_gcc/../common/mss_plic.h"
 536              		.file 20 "../src/platform/mpfs_hal/startup_gcc/../startup_gcc/system_startup.h"